CCS PCH C Compiler, Version 4.104, 5967               16-feb.-21 10:30

               Filename: D:\Laboratorio\Autoclave\Autoclave Horizontal\Sin Precamara\2021\Autoclave 23L Colsanitas #004588494 OP202152\Firmware V4.0.1-PurgaAire\GLCD_Controller_V3.0.4\GLCD_Controller.lst

               ROM used: 47064 bytes (48%)
                         Largest free fragment is 32768
               RAM used: 986 (30%) at main() level
                         1014 (30%) worst case
               Stack:    5 worst case (4 in main + 1 for interrupts)

*
00000:  GOTO   52C6
*
00008:  GOTO   00BA
0000C:  NOP   
0000E:  NOP   
00010:  NOP   
00012:  NOP   
00014:  NOP   
00016:  NOP   
00018:  MOVWF  04
0001A:  MOVFF  FD8,05
0001E:  MOVFF  FE0,06
00022:  MOVLB  0
00024:  MOVFF  FE9,0C
00028:  MOVFF  FEA,07
0002C:  MOVFF  FE1,08
00030:  MOVFF  FE2,09
00034:  MOVFF  FD9,0A
00038:  MOVFF  FDA,0B
0003C:  MOVFF  FF3,12
00040:  MOVFF  FF4,13
00044:  MOVFF  FFA,14
00048:  MOVFF  FFB,15
0004C:  MOVFF  00,0E
00050:  MOVFF  01,0F
00054:  MOVFF  02,10
00058:  MOVFF  03,11
0005C:  BTFSS  FF2.5
0005E:  GOTO   0068
00062:  BTFSC  FF2.2
00064:  GOTO   0272
00068:  BTFSS  F9D.0
0006A:  GOTO   0074
0006E:  BTFSC  F9E.0
00070:  GOTO   02CA
00074:  MOVFF  0E,00
00078:  MOVFF  0F,01
0007C:  MOVFF  10,02
00080:  MOVFF  11,03
00084:  MOVFF  0C,FE9
00088:  MOVFF  07,FEA
0008C:  BSF    07.7
0008E:  MOVFF  08,FE1
00092:  MOVFF  09,FE2
00096:  MOVFF  0A,FD9
0009A:  MOVFF  0B,FDA
0009E:  MOVFF  12,FF3
000A2:  MOVFF  13,FF4
000A6:  MOVFF  14,FFA
000AA:  MOVFF  15,FFB
000AE:  MOVF   04,W
000B0:  MOVFF  06,FE0
000B4:  MOVFF  05,FD8
000B8:  RETFIE 0
000BA:  MOVWF  17
000BC:  MOVFF  FD8,18
000C0:  MOVFF  FE0,19
000C4:  MOVLB  0
000C6:  MOVFF  FE9,1F
000CA:  MOVFF  FEA,1A
000CE:  MOVFF  FE1,1B
000D2:  MOVFF  FE2,1C
000D6:  MOVFF  FD9,1D
000DA:  MOVFF  FDA,1E
000DE:  MOVFF  FF3,25
000E2:  MOVFF  FF4,26
000E6:  MOVFF  FFA,27
000EA:  MOVFF  FFB,28
000EE:  MOVFF  00,21
000F2:  MOVFF  01,22
000F6:  MOVFF  02,23
000FA:  MOVFF  03,24
000FE:  BTFSS  F9D.5
00100:  GOTO   010A
00104:  BTFSC  F9E.5
00106:  GOTO   0204
0010A:  MOVFF  21,00
0010E:  MOVFF  22,01
00112:  MOVFF  23,02
00116:  MOVFF  24,03
0011A:  MOVFF  1F,FE9
0011E:  MOVFF  1A,FEA
00122:  BSF    1A.7
00124:  MOVFF  1B,FE1
00128:  MOVFF  1C,FE2
0012C:  MOVFF  1D,FD9
00130:  MOVFF  1E,FDA
00134:  MOVFF  25,FF3
00138:  MOVFF  26,FF4
0013C:  MOVFF  27,FFA
00140:  MOVFF  28,FFB
00144:  MOVF   17,W
00146:  MOVFF  19,FE0
0014A:  MOVFF  18,FD8
0014E:  RETFIE 0
.................... //Falta crear menu de ajuste de variables y de norma CFR21 
....................  
.................... #include <18F4685.h> 
.................... //////// Standard Header file for the PIC18F4685 device //////////////// 
.................... #device PIC18F4685 
.................... #list 
....................  
.................... #device adc=10 
.................... #device HIGH_INTS=TRUE //Activamos niveles de prioridad 
.................... #fuses HS,WDT8192,NOPROTECT,NOLVP,NODEBUG,NOSTVREN,NOPUT,NOCPD,NOWRT,NOIESO,NOFCMEN,NOPBADEN,NOWRTC,NOWRTB,NOEBTR,NOEBTRB,NOCPB,NOXINST,NOLPT1OSC,NOMCLR,NOBROWNOUT 
.................... #use delay(clock=20000000) 
*
01806:  MOVLW  03
01808:  MOVWF  FEA
0180A:  MOVLW  E4
0180C:  MOVWF  FE9
0180E:  MOVF   FEF,W
01810:  BZ    182C
01812:  MOVLW  06
01814:  MOVWF  01
01816:  CLRF   00
01818:  DECFSZ 00,F
0181A:  BRA    1818
0181C:  DECFSZ 01,F
0181E:  BRA    1816
01820:  MOVLW  7B
01822:  MOVWF  00
01824:  DECFSZ 00,F
01826:  BRA    1824
01828:  DECFSZ FEF,F
0182A:  BRA    1812
0182C:  RETLW  00
.................... #use i2c(Master,slow,sda=PIN_C4,scl=PIN_C3) 
*
03E8C:  MOVLW  08
03E8E:  MOVWF  01
03E90:  MOVLW  05
03E92:  MOVWF  00
03E94:  DECFSZ 00,F
03E96:  BRA    3E94
03E98:  BCF    F8B.3
03E9A:  BCF    F94.3
03E9C:  MOVLW  06
03E9E:  MOVWF  00
03EA0:  DECFSZ 00,F
03EA2:  BRA    3EA0
03EA4:  MOVLB  3
03EA6:  RLCF   xE8,F
03EA8:  BCF    F8B.4
03EAA:  BTFSC  FD8.0
03EAC:  BSF    F94.4
03EAE:  BTFSS  FD8.0
03EB0:  BCF    F94.4
03EB2:  BSF    F94.3
03EB4:  BTFSS  F82.3
03EB6:  BRA    3EB4
03EB8:  DECFSZ 01,F
03EBA:  BRA    3EBE
03EBC:  BRA    3EC2
03EBE:  MOVLB  0
03EC0:  BRA    3E90
03EC2:  MOVLW  05
03EC4:  MOVWF  00
03EC6:  DECFSZ 00,F
03EC8:  BRA    3EC6
03ECA:  BCF    F8B.3
03ECC:  BCF    F94.3
03ECE:  NOP   
03ED0:  BSF    F94.4
03ED2:  MOVLW  06
03ED4:  MOVWF  00
03ED6:  DECFSZ 00,F
03ED8:  BRA    3ED6
03EDA:  MOVLW  06
03EDC:  MOVWF  00
03EDE:  DECFSZ 00,F
03EE0:  BRA    3EDE
03EE2:  BSF    F94.3
03EE4:  BTFSS  F82.3
03EE6:  BRA    3EE4
03EE8:  CLRF   01
03EEA:  MOVLW  06
03EEC:  MOVWF  00
03EEE:  DECFSZ 00,F
03EF0:  BRA    3EEE
03EF2:  BTFSC  F82.4
03EF4:  BSF    01.0
03EF6:  BCF    F8B.3
03EF8:  BCF    F94.3
03EFA:  BCF    F8B.4
03EFC:  BCF    F94.4
03EFE:  MOVLB  0
03F00:  RETLW  00
.................... #use rs232(baud=9600, xmit=PIN_C6, rcv=PIN_C7, bits=8, parity=N) 
*
03600:  BTFSS  F9E.4
03602:  BRA    3600
03604:  MOVWF  FAD
03606:  RETLW  00
.................... //#include "HDM64GS12.c" 
.................... //#include "GRAPHICS.c" 
.................... ///#include "imagen.h" 
.................... #include <stdio.h> 
.................... /////////////////////////////////////////////////////////////////////////// 
.................... ////        (C) Copyright 1996,2003 Custom Computer Services           //// 
.................... //// This source code may only be used by licensed users of the CCS C  //// 
.................... //// compiler.  This source code may only be distributed to other      //// 
.................... //// licensed users of the CCS C compiler.  No other use, reproduction //// 
.................... //// or distribution is permitted without written permission.          //// 
.................... //// Derivative programs created using this software in object code    //// 
.................... //// form are not restricted in any way.                               //// 
.................... /////////////////////////////////////////////////////////////////////////// 
....................  
.................... #ifndef _STDIO 
.................... #define _STDIO 
.................... #include <string.h> 
.................... //////////////////////////////////////////////////////////////////////////// 
.................... ////        (C) Copyright 1996,2008 Custom Computer Services            //// 
.................... //// This source code may only be used by licensed users of the CCS C   //// 
.................... //// compiler.  This source code may only be distributed to other       //// 
.................... //// licensed users of the CCS C compiler.  No other use, reproduction  //// 
.................... //// or distribution is permitted without written permission.           //// 
.................... //// Derivative programs created using this software in object code     //// 
.................... //// form are not restricted in any way.                                //// 
.................... //////////////////////////////////////////////////////////////////////////// 
....................  
.................... #ifndef _STRING 
.................... #define _STRING 
.................... #include <stddef.h> 
.................... /////////////////////////////////////////////////////////////////////////// 
.................... ////        (C) Copyright 1996,2003 Custom Computer Services           //// 
.................... //// This source code may only be used by licensed users of the CCS C  //// 
.................... //// compiler.  This source code may only be distributed to other      //// 
.................... //// licensed users of the CCS C compiler.  No other use, reproduction //// 
.................... //// or distribution is permitted without written permission.          //// 
.................... //// Derivative programs created using this software in object code    //// 
.................... //// form are not restricted in any way.                               //// 
.................... /////////////////////////////////////////////////////////////////////////// 
....................  
.................... #ifndef _STDDEF 
....................  
.................... #define _STDDEF 
....................  
.................... #if sizeof(unsigned int8 *)==1 
.................... #define ptrdiff_t unsigned int8 
.................... #else 
.................... #define ptrdiff_t unsigned int16 
.................... #endif 
....................  
.................... #define size_t unsigned int8 
.................... #define wchar_t char 
.................... #define NULL 0 
....................  
.................... #define offsetof(s,f) (offsetofbit(s,f)/8) 
....................  
.................... #endif 
....................  
.................... #include <ctype.h> 
.................... //////////////////////////////////////////////////////////////////////////// 
.................... ////        (C) Copyright 1996,2003 Custom Computer Services            //// 
.................... //// This source code may only be used by licensed users of the CCS C   //// 
.................... //// compiler.  This source code may only be distributed to other       //// 
.................... //// licensed users of the CCS C compiler.  No other use, reproduction  //// 
.................... //// or distribution is permitted without written permission.           //// 
.................... //// Derivative programs created using this software in object code     //// 
.................... //// form are not restricted in any way.                                //// 
.................... //////////////////////////////////////////////////////////////////////////// 
....................  
.................... #ifndef _CTYPE 
.................... #define _CTYPE 
....................  
.................... #define islower(x)  isamong(x,"abcdefghijklmnopqrstuvwxyz") 
.................... #define isupper(x)  isamong(x,"ABCDEFGHIJKLMNOPQRSTUVWXYZ") 
.................... #define isalnum(x)  isamong(x,"0123456789ABCDEFGHIJKLMNOPQRSTUVWXYZabcdefghijklmnopqrstuvwxyz") 
.................... #define isalpha(x)  isamong(x,"ABCDEFGHIJKLMNOPQRSTUVWXYZabcdefghijklmnopqrstuvwxyz") 
.................... #define isdigit(x)  isamong(x,"0123456789") 
.................... #define isspace(x)  ((x)==' ') 
.................... #define isxdigit(x) isamong(x,"0123456789ABCDEFabcdef") 
.................... #define iscntrl(x)  ((x)<' ') 
.................... #define isprint(x)  ((x)>=' ') 
.................... #define isgraph(x)  ((x)>' ') 
.................... #define ispunct(x)  (((x)>' ')&&!isalnum(x)) 
....................  
.................... #endif 
....................  
....................  
....................  
....................  
....................  
.................... ////////////////////////////////////////////// 
.................... //// Uncomment the following define to    //// 
.................... //// allow some functions to use a        //// 
.................... //// quicker algorithm, but use more ROM  //// 
.................... ////                                      //// 
.................... //// #define FASTER_BUT_MORE_ROM          //// 
.................... ////////////////////////////////////////////// 
....................  
....................  
....................  
.................... /*Copying functions*/ 
.................... /* standard template: 
....................    void *memmove(void *s1, void *s2, size_t n). 
....................    Copies max of n characters safely (not following ending '\0') 
....................    from s2 in s1; if s2 has less than n characters, appends 0 */ 
....................  
.................... char *memmove(void *s1,char *s2,size_t n) 
.................... { 
....................    char *sc1; 
....................    char *sc2; 
....................    sc1=s1; 
....................    sc2=s2; 
....................    if(sc2<sc1 && sc1 <sc2 +n) 
....................       for(sc1+=n,sc2+=n;0<n;--n) 
....................          *--sc1=*--sc2; 
....................    else 
....................       for(;0<n;--n) 
....................          *sc1++=*sc2++; 
....................   return s1; 
....................   } 
....................  
.................... /* Standard template: char *strcpy(char *s1, const char *s2) 
....................    copies the string s2 including the null character to s1. 
....................    This is a compiler built in to handle the different address 
....................    spaces */ 
....................  
.................... #define strcopy strcpy 
....................  
.................... /* standard template: 
....................    char *strncpy(char *s1, const char *s2, size_t n). 
....................    Copies max of n characters (not following ending '\0') 
....................    from s2 in s1; if s2 has less than n characters, appends 0 */ 
....................  
.................... char *strncpy(char *s1, char *s2, size_t n) 
.................... { 
....................   char *s; 
....................  
....................   for (s = s1; n > 0 && *s2 != '\0'; n--) 
....................      *s++ = *s2++; 
....................   for (; n > 0; n--) 
....................      *s++ = '\0'; 
....................  
....................   return(s1); 
.................... } 
.................... /***********************************************************/ 
....................  
.................... /*concatenation functions*/ 
.................... /* standard template: char *strcat(char *s1, const char *s2) 
.................... appends s2 to s1*/ 
....................  
.................... char *strcat(char *s1, char *s2) 
.................... { 
....................    char *s; 
....................  
....................    for (s = s1; *s != '\0'; ++s); 
....................    while(*s2 != '\0') 
....................    { 
....................       *s = *s2; 
....................       ++s; 
....................       ++s2; 
....................    } 
....................  
....................    *s = '\0'; 
....................    return(s1); 
.................... } 
.................... /* standard template: char *strncat(char *s1, char *s2,size_t n) 
.................... appends not more than n characters from s2 to s1*/ 
....................  
.................... char *strncat(char *s1, char *s2, size_t n) 
.................... { 
....................    char *s; 
....................  
....................    for (s = s1; *s != '\0'; ++s); 
....................    while(*s2 != '\0' && 0<n) 
....................    { 
....................       *s = *s2; 
....................       ++s; 
....................       ++s2; 
....................       --n; 
....................    } 
....................  
....................    *s = '\0'; 
....................    return(s1); 
.................... } 
....................  
.................... /***********************************************************/ 
....................  
....................  
.................... /*comparison functions*/ 
.................... /* standard template: signed int memcmp(void *s1, void *s2). 
....................    Compares s1 & s2; returns -1 if s1<s2, 0 if s1=s2, 1 if s1>s2 */ 
....................  
.................... signed int8 memcmp(void * s1,char *s2,size_t n) 
.................... { 
.................... char *su1, *su2; 
.................... for(su1=s1, su2=s2; 0<n; ++su1, ++su2, --n) 
.................... { 
....................    if(*su1!=*su2) 
....................       return ((*su1<*su2)?-1:+1); 
.................... } 
.................... return 0; 
.................... } 
....................  
.................... /* standard template: int strcmp(const char *s1, const char *s2). 
....................    Compares s1 & s2; returns -1 if s1<s2, 0 if s1=s2, 1 if s1>s2 */ 
....................  
.................... signed int8 strcmp(char *s1, char *s2) 
.................... { 
....................    for (; *s1 == *s2; s1++, s2++) 
....................       if (*s1 == '\0') 
....................          return(0); 
....................    return((*s1 < *s2) ? -1: 1); 
.................... } 
.................... /* standard template: int strcoll(const char *s1, const char *s2). 
....................    Compares s1 & s2; returns -1 if s1<s2, 0 if s1=s2, 1 if s1>s2 */ 
....................  
.................... signed int8 strcoll(char *s1, char *s2) 
.................... { 
....................    for (; *s1 == *s2; s1++, s2++) 
....................       if (*s1 == '\0') 
....................          return(0); 
....................    return((*s1 < *s2) ? -1: 1); 
.................... } 
....................  
.................... /* standard template: 
....................    int strncmp(const char *s1, const char *s2, size_t n). 
....................    Compares max of n characters (not following 0) from s1 to s2; 
....................    returns same as strcmp */ 
....................  
.................... signed int8 strncmp(char *s1, char *s2, size_t n) 
.................... { 
....................    for (; n > 0; s1++, s2++, n--) 
....................       if (*s1 != *s2) 
....................          return((*s1 <*s2) ? -1: 1); 
....................       else if (*s1 == '\0') 
....................          return(0); 
....................    return(0); 
.................... } 
.................... /* standard template: 
....................    int strxfrm(const char *s1, const char *s2, size_t n). 
....................    transforms maximum of n characters from s2 and places them into s1*/ 
.................... size_t strxfrm(char *s1, char *s2, size_t n) 
.................... { 
....................   char *s; 
....................   unsigned int8 n1; 
....................   n1=n; 
....................   for (s = s1; n > 0 && *s2 != '\0'; n--) 
....................      *s++ = *s2++; 
....................   for (; n > 0; n--) 
....................      *s++ = '\0'; 
....................  
....................   return(n1); 
.................... } 
....................  
....................  
....................  
....................  
....................  
.................... /***********************************************************/ 
.................... /*Search functions*/ 
.................... /* standard template: void *memchr(const char *s, int c). 
....................    Finds first occurrence of c in n characters of s */ 
....................  
.................... char *memchr(void *s,unsigned int8 c,size_t n) 
.................... { 
....................    char uc; 
....................    char *su; 
....................    uc=c; 
....................    for(su=s;0<n;++su,--n) 
....................       if(*su==uc) 
....................       return su; 
....................    return NULL; 
.................... } 
....................  
.................... /* standard template: char *strchr(const char *s, int c). 
....................    Finds first occurrence of c in s */ 
....................  
.................... char *strchr(char *s, unsigned int8 c) 
.................... { 
....................    for (; *s != c; s++) 
....................       if (*s == '\0') 
....................          return(0); 
....................    return(s); 
.................... } 
.................... /* standard template: 
....................    size_t strcspn(const char *s1, const char *s2). 
....................    Computes length of max initial segment of s1 that 
....................    consists entirely of characters NOT from s2*/ 
....................  
.................... unsigned int8  strcspn(char *s1, char *s2) 
.................... { 
....................    char *sc1, *sc2; 
....................  
....................    for (sc1 = s1; *sc1 != 0; sc1++) 
....................       for (sc2 = s2; *sc2 != 0; sc2++) 
....................          if (*sc1 == *sc2) 
....................             return(sc1 - s1); 
....................    return(sc1 - s1); 
.................... } 
.................... /* standard template: 
....................    char *strpbrk(const char *s1, const char *s2). 
....................    Locates first occurence of any character from s2 in s1; 
....................    returns s1 if s2 is empty string */ 
....................  
.................... char *strpbrk(char *s1, char *s2) 
.................... { 
....................    char *sc1, *sc2; 
....................  
....................    for (sc1 = s1; *sc1 != 0; sc1++) 
....................       for (sc2 = s2; *sc2 != 0; sc2++) 
....................          if (*sc1 == *sc2) 
....................             return(sc1); 
....................    return(0); 
.................... } 
....................  
....................  
.................... /* standard template: char *strrchr(const char *s, int c). 
....................    Finds last occurrence of c in s */ 
....................  
.................... char *strrchr(char *s, unsigned int8 c) 
.................... { 
....................    char *p; 
....................  
....................    for (p = 0; ; s++) 
....................    { 
....................       if (*s == c) 
....................          p = s; 
....................       if (*s == '\0') 
....................          return(p); 
....................    } 
.................... } 
.................... /* computes length of max initial segment of s1 consisting 
....................    entirely of characters from s2 */ 
....................  
.................... unsigned int8  strspn(char *s1, char *s2) 
.................... { 
....................    char *sc1, *sc2; 
....................  
....................    for (sc1 = s1; *sc1 != 0; sc1++) 
....................       for (sc2 = s2; ; sc2++) 
....................     if (*sc2 == '\0') 
....................        return(sc1 - s1); 
....................          else if (*sc1 == *sc2) 
....................             break; 
....................    return(sc1 - s1); 
.................... } 
.................... /* standard template: 
....................    char *strstr(const char *s1, const char *s2); 
....................    Locates first occurence of character sequence s2 in s1; 
....................    returns 0 if s2 is empty string 
....................  
....................    Uncomment #define FASTER_BUT_MORE_ROM at the top of the 
....................    file to use the faster algorithm */ 
.................... char *strstr(char *s1, char *s2) 
.................... { 
....................    char *s, *t; 
....................  
....................    #ifdef FASTER_BUT_MORE_ROM 
....................    if (*s2 == '\0') 
....................          return(s1); 
....................    #endif 
....................  
....................    while (*s1) 
....................    { 
....................       for(s = s1, t = s2; *t && (*s == *t); ++s, ++t); 
....................  
....................       if (*t == '\0') 
....................          return s1; 
....................       ++s1; 
....................       #ifdef FASTER_BUT_MORE_ROM 
....................          while(*s1 != '\0' && *s1 != *s2) 
....................             ++s1; 
....................       #endif 
....................    } 
....................    return 0; 
.................... } 
....................  
.................... /* standard template: char *strtok(char *s1, const char *s2). 
....................  
....................    Finds next token in s1 delimited by a character from separator 
....................    string s2 (which can be different from call to call).  First call 
....................    starts at beginning of s1 searching for first character NOT 
....................    contained in s2; returns 0 if none is found. 
....................    If one is found, it is the start of first token (return value). 
....................    Function then searches from there for a character contained in s2. 
....................    If none is found, current token extends to end of s1, and subsequent 
....................    searches for a token will return 0.  If one is found, it is 
....................    overwritten by '\0', which terminates current token.  Function saves 
....................    pointer to following character from which next search will start. 
....................    Each subsequent call, with 0 as first argument, starts searching 
....................    from saved pointer */ 
....................  
.................... char *strtok(char *s1, char *s2) 
.................... { 
....................    char *beg, *end; 
....................    static char *save; 
....................  
....................    beg = (s1)? s1: save; 
....................    beg += strspn(beg, s2); 
....................    if (*beg == '\0') 
....................    { 
....................       *save = ' '; 
....................       return(0); 
....................    } 
....................    end = strpbrk(beg, s2); 
....................    if (*end != '\0') 
....................    { 
....................       *end = '\0'; 
....................       end++; 
....................    } 
....................    save = end; 
....................    return(beg); 
.................... } 
....................  
.................... /*****************************************************************/ 
.................... /*Miscellaneous functions*/ 
.................... /* standard template 
.................... maps error number in errnum to an error message string 
.................... Returns: Pointer to string 
.................... */ 
.................... #ifdef _ERRNO 
.................... char * strerror(unsigned int8 errnum) 
.................... { 
.................... char s[15]; 
.................... switch( errnum) 
.................... { 
.................... case 0: 
....................    strcpy(s,"no errors"); 
....................    return s; 
.................... case EDOM : 
....................    strcpy(s,"domain error"); 
....................    return s; 
.................... case ERANGE: 
....................    strcpy(s,"range error"); 
....................    return s; 
.................... } 
.................... } 
.................... #ENDIF 
.................... /* standard template: size_t strlen(const char *s). 
....................    Computes length of s1 (preceding terminating 0) */ 
....................  
.................... unsigned int8 strlen(char *s) 
.................... { 
....................    char *sc; 
....................  
....................    for (sc = s; *sc != 0; sc++); 
....................    return(sc - s); 
.................... } 
....................  
.................... /* standard template: size_t stricmp(const char *s1, const char *s2). 
....................    Compares s1 to s2 ignoring case (upper vs. lower) */ 
....................  
.................... signed int8 stricmp(char *s1, char *s2) 
.................... { 
....................  for(; *s1==*s2||(isalpha(*s1)&&isalpha(*s2)&&(*s1==*s2+32||*s2==*s1+32)); 
....................     s1++, s2++) 
....................     if (*s1 == '\0') 
....................        return(0); 
....................  return((*s1 < *s2) ? -1: 1); 
.................... } 
....................  
....................  
.................... /* standard template: char *strlwr(char *s). 
....................    Replaces uppercase letters by lowercase; 
....................    returns pointer to new string s */ 
....................  
.................... char *strlwr(char *s) 
.................... { 
....................    char *p; 
....................  
....................    for (p = s; *p != '\0'; p++) 
....................       if (*p >= 'A' && *p <='Z') 
....................          *p += 'a' - 'A'; 
....................    return(s); 
.................... } 
....................  
....................  
.................... /************************************************************/ 
....................  
....................  
.................... #endif 
....................  
.................... #ifndef getc 
.................... #define getc getch 
.................... #define getchar getch 
.................... #define puts(s) {printf(s); putchar(13); putchar(10);} 
.................... #define putc putchar 
.................... #endif 
.................... /* maps error number to an error message. Writes a sequence of characters to 
.................... stderr stream thus: if s is not null then string pointed to by s follwed by 
.................... a colon (:) and a space and the appropriate error message returned by strerror 
.................... function with argument errno 
....................  
.................... Returns: no value 
.................... */ 
....................  
.................... #ifdef _ERRNO 
.................... void perror(char *s) 
.................... { 
....................   if(s) 
....................   fprintf(STDERR,"%s: ",s); 
....................   fprintf(STDERR,"%s\r\n",strerror(errno)); 
.................... } 
.................... #endif 
.................... #endif 
....................  
.................... #include <string.h> 
.................... //////////////////////////////////////////////////////////////////////////// 
.................... ////        (C) Copyright 1996,2008 Custom Computer Services            //// 
.................... //// This source code may only be used by licensed users of the CCS C   //// 
.................... //// compiler.  This source code may only be distributed to other       //// 
.................... //// licensed users of the CCS C compiler.  No other use, reproduction  //// 
.................... //// or distribution is permitted without written permission.           //// 
.................... //// Derivative programs created using this software in object code     //// 
.................... //// form are not restricted in any way.                                //// 
.................... //////////////////////////////////////////////////////////////////////////// 
....................  
.................... #ifndef _STRING 
.................... #define _STRING 
.................... #include <stddef.h> 
.................... #include <ctype.h> 
....................  
....................  
....................  
.................... ////////////////////////////////////////////// 
.................... //// Uncomment the following define to    //// 
.................... //// allow some functions to use a        //// 
.................... //// quicker algorithm, but use more ROM  //// 
.................... ////                                      //// 
.................... //// #define FASTER_BUT_MORE_ROM          //// 
.................... ////////////////////////////////////////////// 
....................  
....................  
....................  
.................... /*Copying functions*/ 
.................... /* standard template: 
....................    void *memmove(void *s1, void *s2, size_t n). 
....................    Copies max of n characters safely (not following ending '\0') 
....................    from s2 in s1; if s2 has less than n characters, appends 0 */ 
....................  
.................... char *memmove(void *s1,char *s2,size_t n) 
.................... { 
....................    char *sc1; 
....................    char *sc2; 
....................    sc1=s1; 
....................    sc2=s2; 
....................    if(sc2<sc1 && sc1 <sc2 +n) 
....................       for(sc1+=n,sc2+=n;0<n;--n) 
....................          *--sc1=*--sc2; 
....................    else 
....................       for(;0<n;--n) 
....................          *sc1++=*sc2++; 
....................   return s1; 
....................   } 
....................  
.................... /* Standard template: char *strcpy(char *s1, const char *s2) 
....................    copies the string s2 including the null character to s1. 
....................    This is a compiler built in to handle the different address 
....................    spaces */ 
....................  
.................... #define strcopy strcpy 
....................  
.................... /* standard template: 
....................    char *strncpy(char *s1, const char *s2, size_t n). 
....................    Copies max of n characters (not following ending '\0') 
....................    from s2 in s1; if s2 has less than n characters, appends 0 */ 
....................  
.................... char *strncpy(char *s1, char *s2, size_t n) 
.................... { 
....................   char *s; 
....................  
....................   for (s = s1; n > 0 && *s2 != '\0'; n--) 
....................      *s++ = *s2++; 
....................   for (; n > 0; n--) 
....................      *s++ = '\0'; 
....................  
....................   return(s1); 
.................... } 
.................... /***********************************************************/ 
....................  
.................... /*concatenation functions*/ 
.................... /* standard template: char *strcat(char *s1, const char *s2) 
.................... appends s2 to s1*/ 
....................  
.................... char *strcat(char *s1, char *s2) 
.................... { 
....................    char *s; 
....................  
....................    for (s = s1; *s != '\0'; ++s); 
....................    while(*s2 != '\0') 
....................    { 
....................       *s = *s2; 
....................       ++s; 
....................       ++s2; 
....................    } 
....................  
....................    *s = '\0'; 
....................    return(s1); 
.................... } 
.................... /* standard template: char *strncat(char *s1, char *s2,size_t n) 
.................... appends not more than n characters from s2 to s1*/ 
....................  
.................... char *strncat(char *s1, char *s2, size_t n) 
.................... { 
....................    char *s; 
....................  
....................    for (s = s1; *s != '\0'; ++s); 
....................    while(*s2 != '\0' && 0<n) 
....................    { 
....................       *s = *s2; 
....................       ++s; 
....................       ++s2; 
....................       --n; 
....................    } 
....................  
....................    *s = '\0'; 
....................    return(s1); 
.................... } 
....................  
.................... /***********************************************************/ 
....................  
....................  
.................... /*comparison functions*/ 
.................... /* standard template: signed int memcmp(void *s1, void *s2). 
....................    Compares s1 & s2; returns -1 if s1<s2, 0 if s1=s2, 1 if s1>s2 */ 
....................  
.................... signed int8 memcmp(void * s1,char *s2,size_t n) 
.................... { 
.................... char *su1, *su2; 
.................... for(su1=s1, su2=s2; 0<n; ++su1, ++su2, --n) 
.................... { 
....................    if(*su1!=*su2) 
....................       return ((*su1<*su2)?-1:+1); 
.................... } 
.................... return 0; 
.................... } 
....................  
.................... /* standard template: int strcmp(const char *s1, const char *s2). 
....................    Compares s1 & s2; returns -1 if s1<s2, 0 if s1=s2, 1 if s1>s2 */ 
....................  
.................... signed int8 strcmp(char *s1, char *s2) 
.................... { 
....................    for (; *s1 == *s2; s1++, s2++) 
....................       if (*s1 == '\0') 
....................          return(0); 
....................    return((*s1 < *s2) ? -1: 1); 
.................... } 
.................... /* standard template: int strcoll(const char *s1, const char *s2). 
....................    Compares s1 & s2; returns -1 if s1<s2, 0 if s1=s2, 1 if s1>s2 */ 
....................  
.................... signed int8 strcoll(char *s1, char *s2) 
.................... { 
....................    for (; *s1 == *s2; s1++, s2++) 
....................       if (*s1 == '\0') 
....................          return(0); 
....................    return((*s1 < *s2) ? -1: 1); 
.................... } 
....................  
.................... /* standard template: 
....................    int strncmp(const char *s1, const char *s2, size_t n). 
....................    Compares max of n characters (not following 0) from s1 to s2; 
....................    returns same as strcmp */ 
....................  
.................... signed int8 strncmp(char *s1, char *s2, size_t n) 
.................... { 
....................    for (; n > 0; s1++, s2++, n--) 
....................       if (*s1 != *s2) 
....................          return((*s1 <*s2) ? -1: 1); 
....................       else if (*s1 == '\0') 
....................          return(0); 
....................    return(0); 
.................... } 
.................... /* standard template: 
....................    int strxfrm(const char *s1, const char *s2, size_t n). 
....................    transforms maximum of n characters from s2 and places them into s1*/ 
.................... size_t strxfrm(char *s1, char *s2, size_t n) 
.................... { 
....................   char *s; 
....................   unsigned int8 n1; 
....................   n1=n; 
....................   for (s = s1; n > 0 && *s2 != '\0'; n--) 
....................      *s++ = *s2++; 
....................   for (; n > 0; n--) 
....................      *s++ = '\0'; 
....................  
....................   return(n1); 
.................... } 
....................  
....................  
....................  
....................  
....................  
.................... /***********************************************************/ 
.................... /*Search functions*/ 
.................... /* standard template: void *memchr(const char *s, int c). 
....................    Finds first occurrence of c in n characters of s */ 
....................  
.................... char *memchr(void *s,unsigned int8 c,size_t n) 
.................... { 
....................    char uc; 
....................    char *su; 
....................    uc=c; 
....................    for(su=s;0<n;++su,--n) 
....................       if(*su==uc) 
....................       return su; 
....................    return NULL; 
.................... } 
....................  
.................... /* standard template: char *strchr(const char *s, int c). 
....................    Finds first occurrence of c in s */ 
....................  
.................... char *strchr(char *s, unsigned int8 c) 
.................... { 
....................    for (; *s != c; s++) 
....................       if (*s == '\0') 
....................          return(0); 
....................    return(s); 
.................... } 
.................... /* standard template: 
....................    size_t strcspn(const char *s1, const char *s2). 
....................    Computes length of max initial segment of s1 that 
....................    consists entirely of characters NOT from s2*/ 
....................  
.................... unsigned int8  strcspn(char *s1, char *s2) 
.................... { 
....................    char *sc1, *sc2; 
....................  
....................    for (sc1 = s1; *sc1 != 0; sc1++) 
....................       for (sc2 = s2; *sc2 != 0; sc2++) 
....................          if (*sc1 == *sc2) 
....................             return(sc1 - s1); 
....................    return(sc1 - s1); 
.................... } 
.................... /* standard template: 
....................    char *strpbrk(const char *s1, const char *s2). 
....................    Locates first occurence of any character from s2 in s1; 
....................    returns s1 if s2 is empty string */ 
....................  
.................... char *strpbrk(char *s1, char *s2) 
.................... { 
....................    char *sc1, *sc2; 
....................  
....................    for (sc1 = s1; *sc1 != 0; sc1++) 
....................       for (sc2 = s2; *sc2 != 0; sc2++) 
....................          if (*sc1 == *sc2) 
....................             return(sc1); 
....................    return(0); 
.................... } 
....................  
....................  
.................... /* standard template: char *strrchr(const char *s, int c). 
....................    Finds last occurrence of c in s */ 
....................  
.................... char *strrchr(char *s, unsigned int8 c) 
.................... { 
....................    char *p; 
....................  
....................    for (p = 0; ; s++) 
....................    { 
....................       if (*s == c) 
....................          p = s; 
....................       if (*s == '\0') 
....................          return(p); 
....................    } 
.................... } 
.................... /* computes length of max initial segment of s1 consisting 
....................    entirely of characters from s2 */ 
....................  
.................... unsigned int8  strspn(char *s1, char *s2) 
.................... { 
....................    char *sc1, *sc2; 
....................  
....................    for (sc1 = s1; *sc1 != 0; sc1++) 
....................       for (sc2 = s2; ; sc2++) 
....................     if (*sc2 == '\0') 
....................        return(sc1 - s1); 
....................          else if (*sc1 == *sc2) 
....................             break; 
....................    return(sc1 - s1); 
.................... } 
.................... /* standard template: 
....................    char *strstr(const char *s1, const char *s2); 
....................    Locates first occurence of character sequence s2 in s1; 
....................    returns 0 if s2 is empty string 
....................  
....................    Uncomment #define FASTER_BUT_MORE_ROM at the top of the 
....................    file to use the faster algorithm */ 
.................... char *strstr(char *s1, char *s2) 
.................... { 
....................    char *s, *t; 
....................  
....................    #ifdef FASTER_BUT_MORE_ROM 
....................    if (*s2 == '\0') 
....................          return(s1); 
....................    #endif 
....................  
....................    while (*s1) 
....................    { 
....................       for(s = s1, t = s2; *t && (*s == *t); ++s, ++t); 
....................  
....................       if (*t == '\0') 
....................          return s1; 
....................       ++s1; 
....................       #ifdef FASTER_BUT_MORE_ROM 
....................          while(*s1 != '\0' && *s1 != *s2) 
....................             ++s1; 
....................       #endif 
....................    } 
....................    return 0; 
.................... } 
....................  
.................... /* standard template: char *strtok(char *s1, const char *s2). 
....................  
....................    Finds next token in s1 delimited by a character from separator 
....................    string s2 (which can be different from call to call).  First call 
....................    starts at beginning of s1 searching for first character NOT 
....................    contained in s2; returns 0 if none is found. 
....................    If one is found, it is the start of first token (return value). 
....................    Function then searches from there for a character contained in s2. 
....................    If none is found, current token extends to end of s1, and subsequent 
....................    searches for a token will return 0.  If one is found, it is 
....................    overwritten by '\0', which terminates current token.  Function saves 
....................    pointer to following character from which next search will start. 
....................    Each subsequent call, with 0 as first argument, starts searching 
....................    from saved pointer */ 
....................  
.................... char *strtok(char *s1, char *s2) 
.................... { 
....................    char *beg, *end; 
....................    static char *save; 
....................  
....................    beg = (s1)? s1: save; 
....................    beg += strspn(beg, s2); 
....................    if (*beg == '\0') 
....................    { 
....................       *save = ' '; 
....................       return(0); 
....................    } 
....................    end = strpbrk(beg, s2); 
....................    if (*end != '\0') 
....................    { 
....................       *end = '\0'; 
....................       end++; 
....................    } 
....................    save = end; 
....................    return(beg); 
.................... } 
....................  
.................... /*****************************************************************/ 
.................... /*Miscellaneous functions*/ 
.................... /* standard template 
.................... maps error number in errnum to an error message string 
.................... Returns: Pointer to string 
.................... */ 
.................... #ifdef _ERRNO 
.................... char * strerror(unsigned int8 errnum) 
.................... { 
.................... char s[15]; 
.................... switch( errnum) 
.................... { 
.................... case 0: 
....................    strcpy(s,"no errors"); 
....................    return s; 
.................... case EDOM : 
....................    strcpy(s,"domain error"); 
....................    return s; 
.................... case ERANGE: 
....................    strcpy(s,"range error"); 
....................    return s; 
.................... } 
.................... } 
.................... #ENDIF 
.................... /* standard template: size_t strlen(const char *s). 
....................    Computes length of s1 (preceding terminating 0) */ 
....................  
.................... unsigned int8 strlen(char *s) 
.................... { 
....................    char *sc; 
....................  
....................    for (sc = s; *sc != 0; sc++); 
....................    return(sc - s); 
.................... } 
....................  
.................... /* standard template: size_t stricmp(const char *s1, const char *s2). 
....................    Compares s1 to s2 ignoring case (upper vs. lower) */ 
....................  
.................... signed int8 stricmp(char *s1, char *s2) 
.................... { 
....................  for(; *s1==*s2||(isalpha(*s1)&&isalpha(*s2)&&(*s1==*s2+32||*s2==*s1+32)); 
....................     s1++, s2++) 
....................     if (*s1 == '\0') 
....................        return(0); 
....................  return((*s1 < *s2) ? -1: 1); 
.................... } 
....................  
....................  
.................... /* standard template: char *strlwr(char *s). 
....................    Replaces uppercase letters by lowercase; 
....................    returns pointer to new string s */ 
....................  
.................... char *strlwr(char *s) 
.................... { 
....................    char *p; 
....................  
....................    for (p = s; *p != '\0'; p++) 
....................       if (*p >= 'A' && *p <='Z') 
....................          *p += 'a' - 'A'; 
....................    return(s); 
.................... } 
....................  
....................  
.................... /************************************************************/ 
....................  
....................  
.................... #endif 
....................  
.................... #include <stdlib.h> 
.................... /////////////////////////////////////////////////////////////////////////// 
.................... ////        (C) Copyright 1996,2007 Custom Computer Services           //// 
.................... //// This source code may only be used by licensed users of the CCS C  //// 
.................... //// compiler.  This source code may only be distributed to other      //// 
.................... //// licensed users of the CCS C compiler.  No other use, reproduction //// 
.................... //// or distribution is permitted without written permission.          //// 
.................... //// Derivative programs created using this software in object code    //// 
.................... //// form are not restricted in any way.                               //// 
.................... /////////////////////////////////////////////////////////////////////////// 
....................  
.................... #ifndef _STDLIB 
.................... #define _STDLIB 
....................  
.................... //--------------------------------------------------------------------------- 
.................... // Definitions and types 
.................... //--------------------------------------------------------------------------- 
....................  
.................... #ifndef RAND_MAX 
.................... #define RAND_MAX  32767    // The value of which is the maximum value 
....................                            // ... returned by the rand function 
.................... #endif 
....................  
....................  
.................... #IF (sizeof(int16*)>1) 
.................... #DEFINE LONG_POINTERS 1 
.................... #ELSE  
.................... #DEFINE LONG_POINTERS 0 
.................... #ENDIF 
....................  
.................... typedef struct { 
....................    signed int quot; 
....................    signed int rem; 
.................... } div_t; 
....................  
.................... typedef struct { 
....................    signed long quot; 
....................    signed long rem; 
.................... } ldiv_t; 
....................  
.................... #include <stddef.h> 
.................... /////////////////////////////////////////////////////////////////////////// 
.................... ////        (C) Copyright 1996,2003 Custom Computer Services           //// 
.................... //// This source code may only be used by licensed users of the CCS C  //// 
.................... //// compiler.  This source code may only be distributed to other      //// 
.................... //// licensed users of the CCS C compiler.  No other use, reproduction //// 
.................... //// or distribution is permitted without written permission.          //// 
.................... //// Derivative programs created using this software in object code    //// 
.................... //// form are not restricted in any way.                               //// 
.................... /////////////////////////////////////////////////////////////////////////// 
....................  
.................... #ifndef _STDDEF 
....................  
.................... #define _STDDEF 
....................  
.................... #if sizeof(unsigned int8 *)==1 
.................... #define ptrdiff_t unsigned int8 
.................... #else 
.................... #define ptrdiff_t unsigned int16 
.................... #endif 
....................  
.................... #define size_t unsigned int8 
.................... #define wchar_t char 
.................... #define NULL 0 
....................  
.................... #define offsetof(s,f) (offsetofbit(s,f)/8) 
....................  
.................... #endif 
....................  
....................  
.................... //--------------------------------------------------------------------------- 
.................... // String conversion functions 
.................... //--------------------------------------------------------------------------- 
....................  
.................... /* Standard template: signed int  atoi(char * s) 
....................  * converts the initial portion of the string s to a signed int 
....................  * returns the converted value if any, 0 otherwise 
....................  */ 
.................... signed int atoi(char *s); 
....................  
.................... /* Syntax: signed int32  atoi32(char * s) 
....................    converts the initial portion of the string s to a signed int32 
....................    returns the converted value if any, 0 otherwise*/ 
.................... #if (sizeof(long)==4) 
....................  #define atoi32(s) atol(s) 
.................... #else  
....................  signed int32 atoi32(char *s); 
.................... #endif 
....................  
.................... #if defined(__PCD__) 
.................... // The following functions only work on the 24 bit compiler 
.................... // for the 30F, 33F, 24F and 24H parts 
.................... /* Syntax: signed int48  atoi48(char * s) 
....................    converts the initial portion of the string s to a signed int48 
....................    returns the converted value if any, 0 otherwise*/ 
....................     
.................... signed int48 atoi48(char *s); 
....................  
.................... /* Syntax: signed int64  atoi64(char * s) 
....................    converts the initial portion of the string s to a signed int64 
....................    returns the converted value if any, 0 otherwise*/ 
.................... signed int64 atoi64(char *s); 
.................... #endif 
....................  
.................... /* Syntax: char *  itoa(signed int32 num, int8 base, char * s) 
....................    converts the signed int32 to a string and 
....................    returns the converted value if any, 0 otherwise*/ 
.................... char * itoa(signed int32 num, unsigned int base, char * s); 
....................  
.................... /* Standard template: signed int16  atol(char * s) 
....................  * converts the initial portion of the string s to a signed int16 
....................  * returns the converted value if any, 0 otherwise 
....................  */ 
.................... signed long atol(char *s); 
....................  
.................... /* Standard template: int16 strtoul(char * s,char *endptr,signed int base) 
....................  * converts the initial portion of the string s, represented as an 
....................  * integral value of radix base  to a signed long. 
....................  * Returns the converted value if any, 0 otherwise 
....................  * the final string is returned in the endptr, if endptr is not null 
....................  */ 
.................... signed long strtol(char *s,char *endptr, signed int base); 
....................  
.................... /* Standard template: int16 strtoul(char * s,char *endptr,signed int base) 
....................  * converts the initial portion of the string s, represented as an 
....................  * integral value of radix base to a unsigned long. 
....................  * returns the converted value if any, 0 otherwise 
....................  * the final string is returned in the endptr, if endptr is not null 
....................  */ 
.................... unsigned long strtoul(char *s,char *endptr, signed int base); 
....................  
.................... /* Standart template: float strtof(char * s,char *endptr) 
....................                       float48 strtof48(char *s,char *endptr); 
....................                       float64 strtod(char *s,char *endptr); 
....................  * converts the initial portion of the string s to a float32, float48 or float64, 
....................  * returns the converted value if any, 0 otherwise 
....................  * the final string is returned in the endptr, if endptr is not null                    
.................... */ 
.................... float strtof(char *s,char *endptr); 
.................... #if defined(__PCD__) 
.................... float48 strtof48(char *s,char *endptr); 
.................... float64 strtod(char *s,char *endptr); 
.................... #else 
.................... //provided for compatibility 
.................... #define strtof48(s, e) strtof(s, e) 
.................... #define strtod(s, e) strtof(s, e) 
.................... #endif 
....................  
.................... /* Standard template: float32 atof(char * s) 
....................  * converts the initial portion of the string s to a float. 
....................  * returns the converted value if any, 0 otherwise 
....................  */ 
.................... #define atof(s)   strtof(s, 0) 
....................  
.................... #if defined(__PCD__) 
.................... // The following functions only work on the 24 bit compiler 
.................... // for the 30F, 33F, 24F and 24H parts 
....................  
.................... /* Standard template: float48 atof48(char * s) 
....................  * converts the initial portion of the string s to a float. 
....................  * returns the converted value if any, 0 otherwise 
....................  */ 
.................... #define atof48(s) strtof48(s, 0) 
....................  
.................... /* Standard template: float64 atof64(char * s) 
....................  * converts the initial portion of the string s to a float. 
....................  * returns the converted value if any, 0 otherwise 
....................  */ 
.................... #define atof64(s) strtod(s, 0) 
.................... #endif 
....................  
.................... /* Standard template: float32 atoe(char * s) 
....................  * converts the initial portion of the string s to a float. 
....................  * returns the converted value if any, 0 otherwise 
....................  * also handles E format numbers 
....................  */ 
.................... #if !defined(__PCD__) 
.................... float atoe(char * s); 
.................... #endif 
....................  
.................... #if defined(__PCD__) 
.................... float32 atoe(char * s); 
.................... #endif 
....................  
.................... //--------------------------------------------------------------------------- 
.................... // Pseudo-random sequence generation functions 
.................... //--------------------------------------------------------------------------- 
....................  
.................... /* The rand function computes a sequence of pseudo-random integers in 
....................  * the range 0 to RAND_MAX 
....................  * 
....................  * Parameters: 
....................  *       (none) 
....................  * 
....................  * Returns: 
....................  *       The pseudo-random integer 
....................  */ 
.................... unsigned int16 rand(void); 
....................  
.................... /* The srand function uses the argument as a seed for a new sequence of 
....................  * pseudo-random numbers to be returned by subsequent calls to rand. 
....................  * 
....................  * Parameters: 
....................  *       [in] seed: The seed value to start from. You might need to pass 
....................  * 
....................  * Returns: 
....................  *       (none) 
....................  * 
....................  * Remarks 
....................  *          The srand function sets the starting point for generating 
....................  *       a series of pseudorandom integers. To reinitialize the 
....................  *       generator, use 1 as the seed argument. Any other value for 
....................  *       seed sets the generator to a random starting point. rand 
....................  *       retrieves the pseudorandom numbers that are generated. 
....................  *       Calling rand before any call to srand generates the same 
....................  *       sequence as calling srand with seed passed as 1. 
....................  *          Usually, you need to pass a time here from outer source 
....................  *       so that the numbers will be different every time you run. 
....................  */ 
.................... void srand(unsigned int32 seed); 
....................  
.................... //--------------------------------------------------------------------------- 
.................... // Memory management functions 
.................... //--------------------------------------------------------------------------- 
....................  
.................... // Comming soon 
....................  
.................... //--------------------------------------------------------------------------- 
.................... // Communication with the environment 
.................... //--------------------------------------------------------------------------- 
....................  
.................... /* The function returns 0 always 
....................  */ 
.................... signed int8 system(char *string); 
....................  
.................... //--------------------------------------------------------------------------- 
.................... // Searching and sorting utilities 
.................... //--------------------------------------------------------------------------- 
....................  
.................... /* Performs a binary search of a sorted array.. 
....................  * 
....................  * Parameters: 
....................  *       [in] key: Object to search for 
....................  *       [in] base: Pointer to base of search data 
....................  *       [in] num: Number of elements 
....................  *       [in] width: Width of elements 
....................  *       [in] compare: Function that compares two elements 
....................  * 
....................  * Returns: 
....................  *       bsearch returns a pointer to an occurrence of key in the array pointed 
....................  *       to by base. If key is not found, the function returns NULL. If the 
....................  *       array is not in order or contains duplicate records with identical keys, 
....................  *       the result is unpredictable. 
....................  */ 
.................... //void *bsearch(const void *key, const void *base, size_t num, size_t width, 
.................... //              int (*compare)(const void *, const void *)); 
....................  
.................... /* Performs the shell-metzner sort (not the quick sort algorithm). The contents 
....................  * of the array are sorted into ascending order according to a comparison 
....................  * function pointed to by compar. 
....................  * 
....................  * Parameters: 
....................  *       [in] base: Pointer to base of search data 
....................  *       [in] num: Number of elements 
....................  *       [in] width: Width of elements 
....................  *       [in] compare: Function that compares two elements 
....................  * 
....................  * Returns: 
....................  *       (none) 
....................  */ 
.................... //void *qsort(const void *base, size_t num, size_t width, 
.................... //              int (*compare)(const void *, const void *)); 
....................  
.................... //--------------------------------------------------------------------------- 
.................... // Integer arithmetic functions 
.................... //--------------------------------------------------------------------------- 
....................  
.................... #define labs abs 
....................  
.................... div_t div(signed int numer, signed int denom); 
.................... ldiv_t ldiv(signed long numer, signed long denom); 
....................  
.................... //--------------------------------------------------------------------------- 
.................... // Multibyte character functions 
.................... //--------------------------------------------------------------------------- 
....................  
.................... // Not supported 
....................  
.................... //--------------------------------------------------------------------------- 
.................... // Multibyte string functions 
.................... //--------------------------------------------------------------------------- 
....................  
.................... // Not supported 
....................  
....................  
.................... //--------------------------------------------------------------------------- 
.................... // Internal implementation 
.................... //--------------------------------------------------------------------------- 
....................  
.................... #include <stddef.h> 
.................... /////////////////////////////////////////////////////////////////////////// 
.................... ////        (C) Copyright 1996,2003 Custom Computer Services           //// 
.................... //// This source code may only be used by licensed users of the CCS C  //// 
.................... //// compiler.  This source code may only be distributed to other      //// 
.................... //// licensed users of the CCS C compiler.  No other use, reproduction //// 
.................... //// or distribution is permitted without written permission.          //// 
.................... //// Derivative programs created using this software in object code    //// 
.................... //// form are not restricted in any way.                               //// 
.................... /////////////////////////////////////////////////////////////////////////// 
....................  
.................... #ifndef _STDDEF 
....................  
.................... #define _STDDEF 
....................  
.................... #if sizeof(unsigned int8 *)==1 
.................... #define ptrdiff_t unsigned int8 
.................... #else 
.................... #define ptrdiff_t unsigned int16 
.................... #endif 
....................  
.................... #define size_t unsigned int8 
.................... #define wchar_t char 
.................... #define NULL 0 
....................  
.................... #define offsetof(s,f) (offsetofbit(s,f)/8) 
....................  
.................... #endif 
....................  
.................... #include <string.h> 
.................... //////////////////////////////////////////////////////////////////////////// 
.................... ////        (C) Copyright 1996,2008 Custom Computer Services            //// 
.................... //// This source code may only be used by licensed users of the CCS C   //// 
.................... //// compiler.  This source code may only be distributed to other       //// 
.................... //// licensed users of the CCS C compiler.  No other use, reproduction  //// 
.................... //// or distribution is permitted without written permission.           //// 
.................... //// Derivative programs created using this software in object code     //// 
.................... //// form are not restricted in any way.                                //// 
.................... //////////////////////////////////////////////////////////////////////////// 
....................  
.................... #ifndef _STRING 
.................... #define _STRING 
.................... #include <stddef.h> 
.................... #include <ctype.h> 
....................  
....................  
....................  
.................... ////////////////////////////////////////////// 
.................... //// Uncomment the following define to    //// 
.................... //// allow some functions to use a        //// 
.................... //// quicker algorithm, but use more ROM  //// 
.................... ////                                      //// 
.................... //// #define FASTER_BUT_MORE_ROM          //// 
.................... ////////////////////////////////////////////// 
....................  
....................  
....................  
.................... /*Copying functions*/ 
.................... /* standard template: 
....................    void *memmove(void *s1, void *s2, size_t n). 
....................    Copies max of n characters safely (not following ending '\0') 
....................    from s2 in s1; if s2 has less than n characters, appends 0 */ 
....................  
.................... char *memmove(void *s1,char *s2,size_t n) 
.................... { 
....................    char *sc1; 
....................    char *sc2; 
....................    sc1=s1; 
....................    sc2=s2; 
....................    if(sc2<sc1 && sc1 <sc2 +n) 
....................       for(sc1+=n,sc2+=n;0<n;--n) 
....................          *--sc1=*--sc2; 
....................    else 
....................       for(;0<n;--n) 
....................          *sc1++=*sc2++; 
....................   return s1; 
....................   } 
....................  
.................... /* Standard template: char *strcpy(char *s1, const char *s2) 
....................    copies the string s2 including the null character to s1. 
....................    This is a compiler built in to handle the different address 
....................    spaces */ 
....................  
.................... #define strcopy strcpy 
....................  
.................... /* standard template: 
....................    char *strncpy(char *s1, const char *s2, size_t n). 
....................    Copies max of n characters (not following ending '\0') 
....................    from s2 in s1; if s2 has less than n characters, appends 0 */ 
....................  
.................... char *strncpy(char *s1, char *s2, size_t n) 
.................... { 
....................   char *s; 
....................  
....................   for (s = s1; n > 0 && *s2 != '\0'; n--) 
....................      *s++ = *s2++; 
....................   for (; n > 0; n--) 
....................      *s++ = '\0'; 
....................  
....................   return(s1); 
.................... } 
.................... /***********************************************************/ 
....................  
.................... /*concatenation functions*/ 
.................... /* standard template: char *strcat(char *s1, const char *s2) 
.................... appends s2 to s1*/ 
....................  
.................... char *strcat(char *s1, char *s2) 
.................... { 
....................    char *s; 
....................  
....................    for (s = s1; *s != '\0'; ++s); 
....................    while(*s2 != '\0') 
....................    { 
....................       *s = *s2; 
....................       ++s; 
....................       ++s2; 
....................    } 
....................  
....................    *s = '\0'; 
....................    return(s1); 
.................... } 
.................... /* standard template: char *strncat(char *s1, char *s2,size_t n) 
.................... appends not more than n characters from s2 to s1*/ 
....................  
.................... char *strncat(char *s1, char *s2, size_t n) 
.................... { 
....................    char *s; 
....................  
....................    for (s = s1; *s != '\0'; ++s); 
....................    while(*s2 != '\0' && 0<n) 
....................    { 
....................       *s = *s2; 
....................       ++s; 
....................       ++s2; 
....................       --n; 
....................    } 
....................  
....................    *s = '\0'; 
....................    return(s1); 
.................... } 
....................  
.................... /***********************************************************/ 
....................  
....................  
.................... /*comparison functions*/ 
.................... /* standard template: signed int memcmp(void *s1, void *s2). 
....................    Compares s1 & s2; returns -1 if s1<s2, 0 if s1=s2, 1 if s1>s2 */ 
....................  
.................... signed int8 memcmp(void * s1,char *s2,size_t n) 
.................... { 
.................... char *su1, *su2; 
.................... for(su1=s1, su2=s2; 0<n; ++su1, ++su2, --n) 
.................... { 
....................    if(*su1!=*su2) 
....................       return ((*su1<*su2)?-1:+1); 
.................... } 
.................... return 0; 
.................... } 
....................  
.................... /* standard template: int strcmp(const char *s1, const char *s2). 
....................    Compares s1 & s2; returns -1 if s1<s2, 0 if s1=s2, 1 if s1>s2 */ 
....................  
.................... signed int8 strcmp(char *s1, char *s2) 
.................... { 
....................    for (; *s1 == *s2; s1++, s2++) 
....................       if (*s1 == '\0') 
....................          return(0); 
....................    return((*s1 < *s2) ? -1: 1); 
.................... } 
.................... /* standard template: int strcoll(const char *s1, const char *s2). 
....................    Compares s1 & s2; returns -1 if s1<s2, 0 if s1=s2, 1 if s1>s2 */ 
....................  
.................... signed int8 strcoll(char *s1, char *s2) 
.................... { 
....................    for (; *s1 == *s2; s1++, s2++) 
....................       if (*s1 == '\0') 
....................          return(0); 
....................    return((*s1 < *s2) ? -1: 1); 
.................... } 
....................  
.................... /* standard template: 
....................    int strncmp(const char *s1, const char *s2, size_t n). 
....................    Compares max of n characters (not following 0) from s1 to s2; 
....................    returns same as strcmp */ 
....................  
.................... signed int8 strncmp(char *s1, char *s2, size_t n) 
.................... { 
....................    for (; n > 0; s1++, s2++, n--) 
....................       if (*s1 != *s2) 
....................          return((*s1 <*s2) ? -1: 1); 
....................       else if (*s1 == '\0') 
....................          return(0); 
....................    return(0); 
.................... } 
.................... /* standard template: 
....................    int strxfrm(const char *s1, const char *s2, size_t n). 
....................    transforms maximum of n characters from s2 and places them into s1*/ 
.................... size_t strxfrm(char *s1, char *s2, size_t n) 
.................... { 
....................   char *s; 
....................   unsigned int8 n1; 
....................   n1=n; 
....................   for (s = s1; n > 0 && *s2 != '\0'; n--) 
....................      *s++ = *s2++; 
....................   for (; n > 0; n--) 
....................      *s++ = '\0'; 
....................  
....................   return(n1); 
.................... } 
....................  
....................  
....................  
....................  
....................  
.................... /***********************************************************/ 
.................... /*Search functions*/ 
.................... /* standard template: void *memchr(const char *s, int c). 
....................    Finds first occurrence of c in n characters of s */ 
....................  
.................... char *memchr(void *s,unsigned int8 c,size_t n) 
.................... { 
....................    char uc; 
....................    char *su; 
....................    uc=c; 
....................    for(su=s;0<n;++su,--n) 
....................       if(*su==uc) 
....................       return su; 
....................    return NULL; 
.................... } 
....................  
.................... /* standard template: char *strchr(const char *s, int c). 
....................    Finds first occurrence of c in s */ 
....................  
.................... char *strchr(char *s, unsigned int8 c) 
.................... { 
....................    for (; *s != c; s++) 
....................       if (*s == '\0') 
....................          return(0); 
....................    return(s); 
.................... } 
.................... /* standard template: 
....................    size_t strcspn(const char *s1, const char *s2). 
....................    Computes length of max initial segment of s1 that 
....................    consists entirely of characters NOT from s2*/ 
....................  
.................... unsigned int8  strcspn(char *s1, char *s2) 
.................... { 
....................    char *sc1, *sc2; 
....................  
....................    for (sc1 = s1; *sc1 != 0; sc1++) 
....................       for (sc2 = s2; *sc2 != 0; sc2++) 
....................          if (*sc1 == *sc2) 
....................             return(sc1 - s1); 
....................    return(sc1 - s1); 
.................... } 
.................... /* standard template: 
....................    char *strpbrk(const char *s1, const char *s2). 
....................    Locates first occurence of any character from s2 in s1; 
....................    returns s1 if s2 is empty string */ 
....................  
.................... char *strpbrk(char *s1, char *s2) 
.................... { 
....................    char *sc1, *sc2; 
....................  
....................    for (sc1 = s1; *sc1 != 0; sc1++) 
....................       for (sc2 = s2; *sc2 != 0; sc2++) 
....................          if (*sc1 == *sc2) 
....................             return(sc1); 
....................    return(0); 
.................... } 
....................  
....................  
.................... /* standard template: char *strrchr(const char *s, int c). 
....................    Finds last occurrence of c in s */ 
....................  
.................... char *strrchr(char *s, unsigned int8 c) 
.................... { 
....................    char *p; 
....................  
....................    for (p = 0; ; s++) 
....................    { 
....................       if (*s == c) 
....................          p = s; 
....................       if (*s == '\0') 
....................          return(p); 
....................    } 
.................... } 
.................... /* computes length of max initial segment of s1 consisting 
....................    entirely of characters from s2 */ 
....................  
.................... unsigned int8  strspn(char *s1, char *s2) 
.................... { 
....................    char *sc1, *sc2; 
....................  
....................    for (sc1 = s1; *sc1 != 0; sc1++) 
....................       for (sc2 = s2; ; sc2++) 
....................     if (*sc2 == '\0') 
....................        return(sc1 - s1); 
....................          else if (*sc1 == *sc2) 
....................             break; 
....................    return(sc1 - s1); 
.................... } 
.................... /* standard template: 
....................    char *strstr(const char *s1, const char *s2); 
....................    Locates first occurence of character sequence s2 in s1; 
....................    returns 0 if s2 is empty string 
....................  
....................    Uncomment #define FASTER_BUT_MORE_ROM at the top of the 
....................    file to use the faster algorithm */ 
.................... char *strstr(char *s1, char *s2) 
.................... { 
....................    char *s, *t; 
....................  
....................    #ifdef FASTER_BUT_MORE_ROM 
....................    if (*s2 == '\0') 
....................          return(s1); 
....................    #endif 
....................  
....................    while (*s1) 
....................    { 
....................       for(s = s1, t = s2; *t && (*s == *t); ++s, ++t); 
....................  
....................       if (*t == '\0') 
....................          return s1; 
....................       ++s1; 
....................       #ifdef FASTER_BUT_MORE_ROM 
....................          while(*s1 != '\0' && *s1 != *s2) 
....................             ++s1; 
....................       #endif 
....................    } 
....................    return 0; 
.................... } 
....................  
.................... /* standard template: char *strtok(char *s1, const char *s2). 
....................  
....................    Finds next token in s1 delimited by a character from separator 
....................    string s2 (which can be different from call to call).  First call 
....................    starts at beginning of s1 searching for first character NOT 
....................    contained in s2; returns 0 if none is found. 
....................    If one is found, it is the start of first token (return value). 
....................    Function then searches from there for a character contained in s2. 
....................    If none is found, current token extends to end of s1, and subsequent 
....................    searches for a token will return 0.  If one is found, it is 
....................    overwritten by '\0', which terminates current token.  Function saves 
....................    pointer to following character from which next search will start. 
....................    Each subsequent call, with 0 as first argument, starts searching 
....................    from saved pointer */ 
....................  
.................... char *strtok(char *s1, char *s2) 
.................... { 
....................    char *beg, *end; 
....................    static char *save; 
....................  
....................    beg = (s1)? s1: save; 
....................    beg += strspn(beg, s2); 
....................    if (*beg == '\0') 
....................    { 
....................       *save = ' '; 
....................       return(0); 
....................    } 
....................    end = strpbrk(beg, s2); 
....................    if (*end != '\0') 
....................    { 
....................       *end = '\0'; 
....................       end++; 
....................    } 
....................    save = end; 
....................    return(beg); 
.................... } 
....................  
.................... /*****************************************************************/ 
.................... /*Miscellaneous functions*/ 
.................... /* standard template 
.................... maps error number in errnum to an error message string 
.................... Returns: Pointer to string 
.................... */ 
.................... #ifdef _ERRNO 
.................... char * strerror(unsigned int8 errnum) 
.................... { 
.................... char s[15]; 
.................... switch( errnum) 
.................... { 
.................... case 0: 
....................    strcpy(s,"no errors"); 
....................    return s; 
.................... case EDOM : 
....................    strcpy(s,"domain error"); 
....................    return s; 
.................... case ERANGE: 
....................    strcpy(s,"range error"); 
....................    return s; 
.................... } 
.................... } 
.................... #ENDIF 
.................... /* standard template: size_t strlen(const char *s). 
....................    Computes length of s1 (preceding terminating 0) */ 
....................  
.................... unsigned int8 strlen(char *s) 
.................... { 
....................    char *sc; 
....................  
....................    for (sc = s; *sc != 0; sc++); 
....................    return(sc - s); 
.................... } 
....................  
.................... /* standard template: size_t stricmp(const char *s1, const char *s2). 
....................    Compares s1 to s2 ignoring case (upper vs. lower) */ 
....................  
.................... signed int8 stricmp(char *s1, char *s2) 
.................... { 
....................  for(; *s1==*s2||(isalpha(*s1)&&isalpha(*s2)&&(*s1==*s2+32||*s2==*s1+32)); 
....................     s1++, s2++) 
....................     if (*s1 == '\0') 
....................        return(0); 
....................  return((*s1 < *s2) ? -1: 1); 
.................... } 
....................  
....................  
.................... /* standard template: char *strlwr(char *s). 
....................    Replaces uppercase letters by lowercase; 
....................    returns pointer to new string s */ 
....................  
.................... char *strlwr(char *s) 
.................... { 
....................    char *p; 
....................  
....................    for (p = s; *p != '\0'; p++) 
....................       if (*p >= 'A' && *p <='Z') 
....................          *p += 'a' - 'A'; 
....................    return(s); 
.................... } 
....................  
....................  
.................... /************************************************************/ 
....................  
....................  
.................... #endif 
....................  
....................  
.................... div_t div(signed int numer, signed int denom) 
.................... { 
....................    div_t val; 
....................    val.quot = numer / denom; 
....................    val.rem = numer - (denom * val.quot); 
....................    return (val); 
.................... } 
....................  
.................... ldiv_t ldiv(signed long numer, signed long denom) 
.................... { 
....................    ldiv_t val; 
....................  
....................    val.quot = numer / denom; 
....................    val.rem = numer - (denom * val.quot); 
....................    return (val); 
.................... } 
....................  
.................... #if defined(__PCD__) 
.................... float32 atoe(char * s) 
.................... { 
....................    float32 pow10 = 1.0; 
....................    float32 result = 0.0; 
....................    unsigned int8 sign = 0; 
....................    unsigned int8 expsign = 0; 
....................    char c; 
....................    unsigned int8 ptr = 0; 
....................    unsigned int8 i; 
....................    float32 exp = 1.0; 
....................    unsigned int8 expcnt = 0; 
....................  
....................    c = s[ptr++]; 
....................  
....................    if ((c>='0' && c<='9') || c=='+' || c=='-' || c=='.' || c=='E' || c=='e') { 
....................       if(c == '-') { 
....................          sign = 1; 
....................          c = s[ptr++]; 
....................       } 
....................       if(c == '+') 
....................          c = s[ptr++]; 
....................  
....................       while((c >= '0' && c <= '9')) { 
....................          result = 10*result + c - '0'; 
....................          c = s[ptr++]; 
....................       } 
....................  
....................       if (c == '.') { 
....................          c = s[ptr++]; 
....................          while((c >= '0' && c <= '9')) { 
....................              pow10 = pow10*10; 
....................              result += (c - '0')/pow10; 
....................              c = s[ptr++]; 
....................          } 
....................       } 
....................  
....................       // Handling the exponent 
....................       if (c=='e' || c=='E') { 
....................          c = s[ptr++]; 
....................  
....................          if(c == '-') { 
....................             expsign = 1; 
....................             c = s[ptr++]; 
....................          } 
....................          if(c == '+') 
....................             c = s[ptr++]; 
....................  
....................          while((c >= '0' && c <= '9')) { 
....................             expcnt = 10*expcnt + c - '0'; 
....................             c = s[ptr++]; 
....................          } 
....................  
....................          for(i=0;i<expcnt;i++) 
....................             exp*=10; 
....................  
....................          if(expsign==1) 
....................             result/=exp; 
....................          else 
....................             result*=exp; 
....................       } 
....................    } 
....................  
....................    if (sign == 1) 
....................       result = -1*result; 
....................    return(result); 
.................... } 
.................... #endif 
....................  
.................... #if !defined(__PCD__) 
.................... float atoe(char * s) 
.................... { 
....................    float pow10 = 1.0; 
....................    float result = 0.0; 
....................    unsigned int8 sign = 0; 
....................    unsigned int8 expsign = 0; 
....................    char c; 
....................    unsigned int8 ptr = 0; 
....................    unsigned int8 i; 
....................    float exp = 1.0; 
....................    unsigned int8 expcnt = 0; 
....................  
....................    c = s[ptr++]; 
....................  
....................    if ((c>='0' && c<='9') || c=='+' || c=='-' || c=='.' || c=='E' || c=='e') { 
....................       if(c == '-') { 
....................          sign = 1; 
....................          c = s[ptr++]; 
....................       } 
....................       if(c == '+') 
....................          c = s[ptr++]; 
....................  
....................       while((c >= '0' && c <= '9')) { 
....................          result = 10*result + c - '0'; 
....................          c = s[ptr++]; 
....................       } 
....................  
....................       if (c == '.') { 
....................          c = s[ptr++]; 
....................          while((c >= '0' && c <= '9')) { 
....................              pow10 = pow10*10; 
....................              result += (c - '0')/pow10; 
....................              c = s[ptr++]; 
....................          } 
....................       } 
....................  
....................       // Handling the exponent 
....................       if (c=='e' || c=='E') { 
....................          c = s[ptr++]; 
....................  
....................          if(c == '-') { 
....................             expsign = 1; 
....................             c = s[ptr++]; 
....................          } 
....................          if(c == '+') 
....................             c = s[ptr++]; 
....................  
....................          while((c >= '0' && c <= '9')) { 
....................             expcnt = 10*expcnt + c - '0'; 
....................             c = s[ptr++]; 
....................          } 
....................  
....................          for(i=0;i<expcnt;i++) 
....................             exp*=10; 
....................  
....................          if(expsign==1) 
....................             result/=exp; 
....................          else 
....................             result*=exp; 
....................       } 
....................    } 
....................  
....................    if (sign == 1) 
....................       result = -1*result; 
....................    return(result); 
.................... } 
.................... #endif 
....................  
.................... signed int atoi(char *s) 
.................... { 
....................    signed int result; 
....................    unsigned int sign, base, index; 
....................    char c; 
....................  
....................    index = 0; 
....................    sign = 0; 
....................    base = 10; 
....................    result = 0; 
....................  
....................    if (!s) 
....................       return 0; 
....................    // Omit all preceeding alpha characters 
....................    c = s[index++]; 
....................  
....................    // increase index if either positive or negative sign is detected 
....................    if (c == '-') 
....................    { 
....................       sign = 1;         // Set the sign to negative 
....................       c = s[index++]; 
....................    } 
....................    else if (c == '+') 
....................    { 
....................       c = s[index++]; 
....................    } 
....................  
....................    if (c >= '0' && c <= '9') 
....................    { 
....................  
....................       // Check for hexa number 
....................       if (c == '0' && (s[index] == 'x' || s[index] == 'X')) 
....................       { 
....................          base = 16; 
....................          index++; 
....................          c = s[index++]; 
....................       } 
....................  
....................       // The number is a decimal number 
....................       if (base == 10) 
....................       { 
....................          while (c >= '0' && c <= '9') 
....................          { 
....................             result = 10*result + (c - '0'); 
....................             c = s[index++]; 
....................          } 
....................       } 
....................       else if (base == 16)    // The number is a hexa number 
....................       { 
....................          c = toupper(c); 
....................          while ( (c >= '0' && c <= '9') || (c >= 'A' && c<='F')) 
....................          { 
....................             if (c >= '0' && c <= '9') 
....................                result = (result << 4) + (c - '0'); 
....................             else 
....................                result = (result << 4) + (c - 'A' + 10); 
....................  
....................             c = s[index++]; 
....................             c = toupper(c); 
....................          } 
....................       } 
....................    } 
....................  
....................    if (sign == 1 && base == 10) 
....................        result = -result; 
....................  
....................    return(result); 
.................... } 
....................  
.................... signed long atol(char *s) 
.................... { 
....................    signed long result; 
....................    unsigned int sign, base, index; 
....................    char c; 
....................  
....................    index = 0; 
....................    sign = 0; 
....................    base = 10; 
....................    result = 0; 
....................  
....................    if (!s) 
....................       return 0; 
....................    c = s[index++]; 
....................  
....................    // increase index if either positive or negative sign is detected 
....................    if (c == '-') 
....................    { 
....................       sign = 1;         // Set the sign to negative 
....................       c = s[index++]; 
....................    } 
....................    else if (c == '+') 
....................    { 
....................       c = s[index++]; 
....................    } 
....................  
....................    if (c >= '0' && c <= '9') 
....................    { 
....................       if (c == '0' && (s[index] == 'x' || s[index] == 'X')) 
....................       { 
....................          base = 16; 
....................          index++; 
....................          c = s[index++]; 
....................       } 
....................  
....................       // The number is a decimal number 
....................       if (base == 10) 
....................       { 
....................          while (c >= '0' && c <= '9') 
....................          { 
....................             result = 10*result + (c - '0'); 
....................             c = s[index++]; 
....................          } 
....................       } 
....................       else if (base == 16)    // The number is a hexa number 
....................       { 
....................          c = toupper(c); 
....................          while ( (c >= '0' && c <= '9') || (c >= 'A' && c <='F')) 
....................          { 
....................             if (c >= '0' && c <= '9') 
....................                result = (result << 4) + (c - '0'); 
....................             else 
....................                result = (result << 4) + (c - 'A' + 10); 
....................  
....................             c = s[index++];c = toupper(c); 
....................          } 
....................       } 
....................    } 
....................  
....................    if (base == 10 && sign == 1) 
....................       result = -result; 
....................  
....................    return(result); 
.................... } 
....................  
.................... /* A fast routine to multiply by 10 
....................  */ 
.................... signed int32 mult_with10(int32 num) 
.................... { 
....................    return ( (num << 1) + (num << 3) ); 
.................... } 
....................  
.................... #if sizeof(long)==2 
.................... signed int32 atoi32(char *s) 
.................... { 
....................    signed int32 result; 
....................    int8 sign, base, index; 
....................    char c; 
....................  
....................    index = 0; 
....................    sign = 0; 
....................    base = 10; 
....................    result = 0; 
....................  
....................    if (!s) 
....................       return 0; 
....................    c = s[index++]; 
....................  
....................    // increase index if either positive or negative sign is detected 
....................    if (c == '-') 
....................    { 
....................       sign = 1;         // Set the sign to negative 
....................       c = s[index++]; 
....................    } 
....................    else if (c == '+') 
....................    { 
....................       c = s[index++]; 
....................    } 
....................  
....................    if (c >= '0' && c <= '9') 
....................    { 
....................       if (c == '0' && (s[index] == 'x' || s[index] == 'X')) 
....................       { 
....................          base = 16; 
....................          index++; 
....................          c = s[index++]; 
....................       } 
....................  
....................       // The number is a decimal number 
....................       if (base == 10) 
....................       { 
....................          while (c >= '0' && c <= '9') { 
....................             result = (result << 1) + (result << 3);  // result *= 10; 
....................             result += (c - '0'); 
....................             c = s[index++]; 
....................          } 
....................       } 
....................       else if (base == 16)    // The number is a hexa number 
....................       { 
....................          c = toupper(c); 
....................          while ((c >= '0' && c <= '9') || (c >= 'A' && c <='F')) 
....................          { 
....................             if (c >= '0' && c <= '9') 
....................                result = (result << 4) + (c - '0'); 
....................             else 
....................                result = (result << 4) + (c - 'A' + 10); 
....................  
....................             c = s[index++];c = toupper(c); 
....................          } 
....................       } 
....................    } 
....................  
....................    if (base == 10 && sign == 1) 
....................       result = -result; 
....................  
....................    return(result); 
.................... } 
.................... #endif 
....................  
.................... #if defined(__PCD__) 
....................  
.................... signed int48 atoi48(char *s) 
.................... { 
....................    signed int48 result; 
....................    int8 sign, base, index; 
....................    char c; 
....................  
....................    index = 0; 
....................    sign = 0; 
....................    base = 10; 
....................    result = 0; 
....................  
....................    if (!s) 
....................       return 0; 
....................    c = s[index++]; 
....................  
....................    // increase index if either positive or negative sign is detected 
....................    if (c == '-') 
....................    { 
....................       sign = 1;         // Set the sign to negative 
....................       c = s[index++]; 
....................    } 
....................    else if (c == '+') 
....................    { 
....................       c = s[index++]; 
....................    } 
....................  
....................    if (c >= '0' && c <= '9') 
....................    { 
....................       if (c == '0' && (s[index] == 'x' || s[index] == 'X')) 
....................       { 
....................          base = 16; 
....................          index++; 
....................          c = s[index++]; 
....................       } 
....................  
....................       // The number is a decimal number 
....................       if (base == 10) 
....................       { 
....................          while (c >= '0' && c <= '9') { 
....................             result = (result << 1) + (result << 3);  // result *= 10; 
....................             result += (c - '0'); 
....................             c = s[index++]; 
....................          } 
....................       } 
....................       else if (base == 16)    // The number is a hexa number 
....................       { 
....................          c = toupper(c); 
....................          while ((c >= '0' && c <= '9') || (c >= 'A' && c <='F')) 
....................          { 
....................             if (c >= '0' && c <= '9') 
....................                result = (result << 4) + (c - '0'); 
....................             else 
....................                result = (result << 4) + (c - 'A' + 10); 
....................  
....................             c = s[index++];c = toupper(c); 
....................          } 
....................       } 
....................    } 
....................  
....................    if (base == 10 && sign == 1) 
....................       result = -result; 
....................  
....................    return(result); 
.................... } 
....................  
.................... signed int64 atoi64(char *s) 
.................... { 
....................    signed int64 result; 
....................    int8 sign, base, index; 
....................    char c; 
....................  
....................    index = 0; 
....................    sign = 0; 
....................    base = 10; 
....................    result = 0; 
....................  
....................    if (!s) 
....................       return 0; 
....................    c = s[index++]; 
....................  
....................    // increase index if either positive or negative sign is detected 
....................    if (c == '-') 
....................    { 
....................       sign = 1;         // Set the sign to negative 
....................       c = s[index++]; 
....................    } 
....................    else if (c == '+') 
....................    { 
....................       c = s[index++]; 
....................    } 
....................  
....................    if (c >= '0' && c <= '9') 
....................    { 
....................       if (c == '0' && (s[index] == 'x' || s[index] == 'X')) 
....................       { 
....................          base = 16; 
....................          index++; 
....................          c = s[index++]; 
....................       } 
....................  
....................       // The number is a decimal number 
....................       if (base == 10) 
....................       { 
....................          while (c >= '0' && c <= '9') { 
....................             result = (result << 1) + (result << 3);  // result *= 10; 
....................             result += (c - '0'); 
....................             c = s[index++]; 
....................          } 
....................       } 
....................       else if (base == 16)    // The number is a hexa number 
....................       { 
....................          c = toupper(c); 
....................          while ((c >= '0' && c <= '9') || (c >= 'A' && c <='F')) 
....................          { 
....................             if (c >= '0' && c <= '9') 
....................                result = (result << 4) + (c - '0'); 
....................             else 
....................                result = (result << 4) + (c - 'A' + 10); 
....................  
....................             c = s[index++];c = toupper(c); 
....................          } 
....................       } 
....................    } 
....................  
....................    if (base == 10 && sign == 1) 
....................       result = -result; 
....................  
....................    return(result); 
.................... } 
.................... #endif 
....................  
.................... char * itoa(signed int32 num, unsigned int base, char * s) 
.................... { 
....................      unsigned int32 temp=1; 
....................      unsigned int8 i,sign=0,cnt=0; 
....................      char c; 
....................  
....................      if(num<0) { 
....................          sign=1;        // Check for negative number 
....................          num*=-1; 
....................      } 
....................  
....................      while(temp>0) { 
....................          temp=(num/base); 
....................          s[cnt]=(num%base)+'0';    // Conversion 
....................  
....................          if(s[cnt]>0x39) 
....................             s[cnt]+=0x7; 
....................  
....................          cnt++; 
....................          num=temp; 
....................      } 
....................  
....................      if(sign==1) { 
....................          s[cnt]=0x2D;      // Negative sign 
....................          cnt++; 
....................      } 
....................  
....................      for(i = 0;i<(int8)(cnt/2);i++) { 
....................  
....................          c=s[i]; 
....................          s[i]=s[cnt-i-1];        // Reverse the number 
....................          s[cnt-i-1]=c; 
....................      } 
....................      s[cnt]='\0';     // End the string 
....................      return s; 
.................... } 
....................  
.................... float strtof(char *s, char *endptr) 
.................... { 
....................    float pow10 = 1.0; 
....................    float result = 0.0; 
....................    int1 skip = 1, sign = 0, point = 0; 
....................    char c; 
....................    unsigned int8 ptr = 0; 
....................  
....................    if (!s) 
....................       return 0; 
....................  
....................    for(c=s[ptr++]; c!=0; c=s[ptr++]) 
....................    { 
....................       if (skip && !isspace(c)) 
....................       { 
....................          skip = 0; 
....................          if (c == '+') 
....................          { 
....................             sign = 0; 
....................             continue; 
....................          }             
....................          else if (c == '-') 
....................          { 
....................             sign = 1; 
....................             continue; 
....................          } 
....................       } 
....................       if (!skip && (c == '.') && !point) 
....................          point = 1; 
....................       else if (!skip && isdigit(c)) 
....................       { 
....................          c -= '0'; 
....................          if (point) 
....................          { 
....................             pow10 = pow10 * 10.0; 
....................             result += (float)c / pow10;    
....................          } 
....................          else 
....................          { 
....................             result = 10.0 * result + (float)c; 
....................          } 
....................       } 
....................       else if (!skip) 
....................          break; 
....................    } 
....................  
....................    if (sign) 
....................       result = -1*result; 
....................        
....................    if(endptr) 
....................    { 
....................       if (ptr) { 
....................          ptr--; 
....................        #IF LONG_POINTERS  
....................          *((long *)endptr)= s+ptr;  
....................        #ELSE 
....................          *((char *)endptr)=s+ptr; 
....................        #ENDIF 
....................       } 
....................       else 
....................       { 
....................       #IF LONG_POINTERS 
....................       *((long *)endptr)= s;  
....................       #ELSE 
....................       *((char *)endptr)=s; 
....................       #ENDIF 
....................       } 
....................    } 
....................  
....................    return(result); 
.................... } 
....................  
.................... #if defined(__PCD__) 
.................... float48 strtof48(char *s, char *endptr) 
.................... { 
....................    float48 pow10 = 1.0; 
....................    float48 result = 0.0; 
....................    int1 skip = 1, sign = 0, point = 0; 
....................    char c; 
....................    unsigned int8 ptr = 0; 
....................  
....................    if (!s) 
....................       return 0; 
....................  
....................    for(c=s[ptr++]; c!=0; c=s[ptr++]) 
....................    { 
....................       if (skip && !isspace(c)) 
....................       { 
....................          skip = 0; 
....................          if (c == '+') 
....................          { 
....................             sign = 0; 
....................             continue; 
....................          }             
....................          else if (c == '-') 
....................          { 
....................             sign = 1; 
....................             continue; 
....................          } 
....................       } 
....................       if (!skip && (c == '.') && !point) 
....................          point = 1; 
....................       else if (!skip && isdigit(c)) 
....................       { 
....................          c -= '0'; 
....................          if (point) 
....................          { 
....................             pow10 = pow10 * 10.0; 
....................             result += (float48)c / pow10;    
....................          } 
....................          else 
....................          { 
....................             result = 10.0 * result + (float48)c; 
....................          } 
....................       } 
....................       else if (!skip) 
....................          break; 
....................    } 
....................  
....................    if (sign) 
....................       result = -1*result; 
....................        
....................    if(endptr) 
....................    { 
....................       if (ptr) { 
....................          ptr--; 
....................        #IF LONG_POINTERS  
....................          *((long *)endptr)= s+ptr;  
....................        #ELSE 
....................          *((char *)endptr)=s+ptr; 
....................        #ENDIF 
....................       } 
....................       else 
....................       { 
....................       #IF LONG_POINTERS 
....................       *((long *)endptr)= s;  
....................       #ELSE 
....................       *((char *)endptr)=s; 
....................       #ENDIF 
....................       } 
....................    } 
....................  
....................    return(result); 
.................... } 
....................  
.................... float64 strtod(char *s, char *endptr) 
.................... { 
....................    float64 pow10 = 1.0; 
....................    float64 result = 0.0; 
....................    int1 skip = 1, sign = 0, point = 0; 
....................    char c; 
....................    unsigned int8 ptr = 0; 
....................  
....................    if (!s) 
....................       return 0; 
....................  
....................    for(c=s[ptr++]; c!=0; c=s[ptr++]) 
....................    { 
....................       if (skip && !isspace(c)) 
....................       { 
....................          skip = 0; 
....................          if (c == '+') 
....................          { 
....................             sign = 0; 
....................             continue; 
....................          }             
....................          else if (c == '-') 
....................          { 
....................             sign = 1; 
....................             continue; 
....................          } 
....................       } 
....................       if (!skip && (c == '.') && !point) 
....................          point = 1; 
....................       else if (!skip && isdigit(c)) 
....................       { 
....................          c -= '0'; 
....................          if (point) 
....................          { 
....................             pow10 = pow10 * 10.0; 
....................             result += (float64)c / pow10;    
....................          } 
....................          else 
....................          { 
....................             result = 10.0 * result + (float64)c; 
....................          } 
....................       } 
....................       else if (!skip) 
....................          break; 
....................    } 
....................  
....................    if (sign) 
....................       result = -1*result; 
....................        
....................    if(endptr) 
....................    { 
....................       if (ptr) { 
....................          ptr--; 
....................        #IF LONG_POINTERS  
....................          *((long *)endptr)= s+ptr;  
....................        #ELSE 
....................          *((char *)endptr)=s+ptr; 
....................        #ENDIF 
....................       } 
....................       else 
....................       { 
....................       #IF LONG_POINTERS 
....................       *((long *)endptr)= s;  
....................       #ELSE 
....................       *((char *)endptr)=s; 
....................       #ENDIF 
....................       } 
....................    } 
....................  
....................    return(result); 
.................... } 
.................... #endif 
....................  
.................... unsigned long strtoul(char *s, char *endptr, signed int base) 
.................... { 
....................    char *sc,*s1,*sd; 
....................    unsigned long x=0; 
....................    char sign; 
....................    char digits[]="0123456789abcdefghijklmnopqstuvwxyz"; 
....................    for(sc=s;isspace(*sc);++sc); 
....................    sign=*sc=='-'||*sc=='+'?*sc++:'+'; 
....................    if(sign=='-' || base <0 || base ==1|| base >36) // invalid base 
....................    goto StrtoulGO; 
....................  
....................    else if (base) 
....................    { 
....................       if(base==16 && *sc =='0'&&(sc[1]=='x' || sc[1]=='X')) 
....................          sc+=2; 
....................       if(base==8 && *sc =='0') 
....................          sc+=1; 
....................       if(base==2 && *sc =='0'&&sc[1]=='b') 
....................          sc+=2; 
....................  
....................    } 
....................    else if(*sc!='0') // base is 0, find base 
....................       base=10; 
....................    else if (sc[1]=='x' || sc[1]=='X') 
....................       base =16,sc+=2; 
....................    else if(sc[1]=='b') 
....................       base=2,sc+=2; 
....................    else 
....................       base=8; 
....................    for (s1=sc;*sc=='0';++sc);// skip leading zeroes 
....................    sd=memchr(digits,tolower(*sc),base); 
....................    for(; sd!=0; ) 
....................    { 
....................       x=x*base+(int16)(sd-digits); 
....................       ++sc; 
....................       sd=memchr(digits,tolower(*sc),base); 
....................    } 
....................    if(s1==sc) 
....................    { 
....................    StrtoulGO: 
....................       if (endptr) 
....................       { 
....................          #IF LONG_POINTERS 
....................          *((long *)endptr)= s;  
....................          #ELSE 
....................          *((char *)endptr)=s; 
....................          #ENDIF 
....................          } 
....................    return 0; 
....................    } 
....................    if (endptr) 
....................    { 
....................          #IF LONG_POINTERS 
....................          *((long *)endptr)= sc;  
....................          #ELSE 
....................          *((char *)endptr)=sc;  
....................          #ENDIF 
....................    } 
....................    return x; 
.................... } 
....................  
....................  
.................... signed long strtol(char *s,char *endptr, signed int base) 
.................... { 
....................    char *sc,*s1,*sd; 
....................    signed long x=0; 
....................    char sign; 
....................    char digits[]="0123456789abcdefghijklmnopqstuvwxyz"; 
....................    for(sc=s;isspace(*sc);++sc); 
....................    sign=*sc=='-'||*sc=='+'?*sc++:'+'; 
....................    if (base <0 || base ==1|| base >36) // invalid base 
....................    goto StrtolGO; 
....................    else if (base) 
....................    { 
....................       if(base==16 && *sc =='0'&&(sc[1]=='x' || sc[1]=='X')) 
....................          sc+=2; 
....................       if(base==8 && *sc =='0') 
....................          sc+=1; 
....................       if(base==2 && *sc =='0'&&sc[1]=='b') 
....................          sc+=2; 
....................  
....................    } 
....................    else if(*sc!='0') // base is 0, find base 
....................       base=10; 
....................    else if (sc[1]=='x' || sc[1]=='X') 
....................       base =16,sc+=2; 
....................    else if(sc[1]=='b') 
....................       base=2,sc+=2; 
....................    else 
....................       base=8; 
....................    for (s1=sc;*sc=='0';++sc);// skip leading zeroes 
....................  
....................    sd=memchr(digits,tolower(*sc),base); 
....................    for(;sd!=0;) 
....................    { 
....................       x=x*base+(int16)(sd-digits); 
....................       ++sc; 
....................       sd=memchr(digits,tolower(*sc),base); 
....................    } 
....................    if(s1==sc) 
....................    { 
....................    StrtolGO: 
....................       if (endptr) 
....................       { 
....................          #IF LONG_POINTERS 
....................          *((long *)endptr)= s;  
....................          #ELSE 
....................          *((char *)endptr)=s; 
....................          #ENDIF 
....................       } 
....................    return 0; 
....................    } 
....................    if(sign=='-') 
....................       x  =-x; 
....................    if (endptr) 
....................    { 
....................         #IF LONG_POINTERS 
....................          *((long *)endptr)= sc;  
....................         #ELSE 
....................         *((char *)endptr)=sc; 
....................         #ENDIF 
....................    } 
....................    return x; 
.................... } 
....................  
.................... signed int8 system(char *string) 
.................... { 
....................    return 0; 
.................... } 
....................  
.................... int8 mblen(char *s,size_t n) 
.................... { 
....................    return strlen(s); 
.................... } 
....................  
.................... int8 mbtowc(wchar_t *pwc,char *s,size_t n) 
.................... { 
....................    *pwc=*s; 
....................    return 1; 
.................... } 
....................  
.................... int8 wctomb(char *s,wchar_t wchar) 
.................... { 
....................    *s=wchar; 
....................    return 1; 
.................... } 
....................  
.................... size_t mbstowcs(wchar_t *pwcs,char *s,size_t n) 
.................... { 
....................    strncpy(pwcs,s,n); 
....................    return strlen(pwcs); 
.................... } 
....................  
.................... size_t wcstombs(char *s,wchar_t *pwcs,size_t n) 
.................... { 
....................    strncpy(s,pwcs,n); 
....................    return strlen(s); 
.................... } 
....................  
.................... //--------------------------------------------------------------------------- 
.................... // The random number implementation 
.................... //--------------------------------------------------------------------------- 
....................  
.................... unsigned int32 _Randseed; 
....................  
.................... unsigned int16 rand(void) 
.................... { 
....................    _Randseed = _Randseed * 1103515245 + 12345; 
....................    return ((unsigned int16)(_Randseed >> 16) % RAND_MAX); 
.................... } 
....................  
.................... void srand(unsigned int32 seed) 
.................... { 
....................    _Randseed = seed; 
.................... } 
....................  
.................... //--------------------------------------------------------------------------- 
.................... // Searching and sorting utilities implementation 
.................... //--------------------------------------------------------------------------- 
....................  
.................... #if !defined(__PCD__) 
.................... typedef signed int8 (*_Cmpfun)(char * p1,char * p2);  
.................... #else  
.................... typedef signed int16 (*_Cmpfun)(char * p1,char * p2);  
.................... #endif 
....................  
....................  
....................  
.................... void qsort(char * qdata, unsigned int qitems, unsigned int qsize, _Cmpfun cmp) { 
....................    unsigned int m,j,i,l; 
....................    int1 done; 
....................    unsigned int8 t[16]; 
....................  
....................    m = qitems/2; 
....................    while( m > 0 ) { 
....................      for(j=0; j<(qitems-m); ++j) { 
....................         i = j; 
....................         do 
....................         { 
....................            done=1; 
....................            l = i+m; 
....................            if( (*cmp)(qdata+i*qsize, qdata+l*qsize) > 0 ) { 
....................               memcpy(t, qdata+i*qsize, qsize); 
....................               memcpy(qdata+i*qsize, qdata+l*qsize, qsize); 
....................               memcpy(qdata+l*qsize, t, qsize); 
....................               if(m <= i) 
....................                 i -= m; 
....................                 done = 0; 
....................            } 
....................         } while(!done); 
....................      } 
....................      m = m/2; 
....................    } 
.................... } 
....................  
....................  
.................... char *bsearch(char *key, char *base, size_t num, size_t width,_Cmpfun cmp) 
.................... { 
....................    char *p, *q; 
....................    size_t n; 
....................    size_t pivot; 
....................    signed int val; 
....................  
....................    p = base; 
....................    n = num; 
....................  
....................    while (n > 0) 
....................    { 
....................       pivot = n >> 1; 
....................       q = p + width * pivot; 
....................  
....................       val = (*cmp)(key, q); 
....................  
....................       if (val < 0) 
....................          n = pivot; 
....................       else if (val == 0) 
....................          return ((char *)q); 
....................       else { 
....................          p = q + width; 
....................          n -= pivot + 1; 
....................       } 
....................    } 
....................  
....................    return NULL;      // There's no match 
.................... } 
....................  
....................  
.................... #endif 
....................  
.................... #include <DS1302.c> 
.................... ////////////////////////////////////////////////////////////////////////// 
.................... ////                               DS1302.C                           //// 
.................... ////                     Driver for Real Time Clock                   //// 
.................... ////                                                                  //// 
.................... ////  rtc_init()                                   Call after power up//// 
.................... ////                                                                  //// 
.................... ////  rtc_set_datetime(day,mth,year,dow,hour,min)  Set the date/time  //// 
.................... ////                                                                  //// 
.................... ////  rtc_get_date(day,mth,year,dow)               Get the date       //// 
.................... ////                                                                  //// 
.................... ////  rtc_get_time(hr,min,sec)                     Get the time       //// 
.................... ////                                                                  //// 
.................... ////  rtc_write_nvr(address,data)                  Write to NVR       //// 
.................... ////                                                                  //// 
.................... ////  data = rtc_read_nvr(address)                 Read from NVR      //// 
.................... ////                                                                  //// 
.................... ////  get_bcd(data)                              Convert data to BCD  //// 
.................... ////                                                                  //// 
.................... ////  rm_bcd(data)                               Convert data to int  //// 
.................... ////                                                                  //// 
.................... ////////////////////////////////////////////////////////////////////////// 
.................... ////        (C) Copyright 1996,2003 Custom Computer Services          //// 
.................... //// This source code may only be used by licensed users of the CCS C //// 
.................... //// compiler.  This source code may only be distributed to other     //// 
.................... //// licensed users of the CCS C compiler.  No other use, reproduction//// 
.................... //// or distribution is permitted without written permission.         //// 
.................... //// Derivative programs created using this software in object code   //// 
.................... //// form are not restricted in any way.                              //// 
.................... ////////////////////////////////////////////////////////////////////////// 
....................  
.................... //#ifndef RTC_SCLK 
....................  
.................... #define RTC_SCLK PIN_D1 
.................... #define RTC_IO   PIN_D2 
.................... #define RTC_RST  PIN_D3 
....................  
.................... //#endif 
....................  
.................... void write_ds1302_byte(BYTE cmd) { 
....................    BYTE i; 
....................  
....................    for(i=0;i<=7;++i) { 
*
0297A:  MOVLB  3
0297C:  CLRF   xD9
0297E:  MOVF   xD9,W
02980:  SUBLW  07
02982:  BNC   299E
....................       output_bit(RTC_IO, shift_right(&cmd,1,0) ); 
02984:  BCF    FD8.0
02986:  RRCF   xD8,F
02988:  BC    298E
0298A:  BCF    F8C.2
0298C:  BRA    2990
0298E:  BSF    F8C.2
02990:  BCF    F95.2
....................       output_high(RTC_SCLK); 
02992:  BCF    F95.1
02994:  BSF    F8C.1
....................       output_low(RTC_SCLK); 
02996:  BCF    F95.1
02998:  BCF    F8C.1
....................    } 
0299A:  INCF   xD9,F
0299C:  BRA    297E
.................... } 
0299E:  MOVLB  0
029A0:  RETLW  00
....................  
.................... void write_ds1302(BYTE cmd, BYTE data) { 
....................  
....................    output_high(RTC_RST); 
029A2:  BCF    F95.3
029A4:  BSF    F8C.3
....................    write_ds1302_byte(cmd); 
029A6:  MOVFF  3D6,3D8
029AA:  RCALL  297A
....................    write_ds1302_byte(data); 
029AC:  MOVFF  3D7,3D8
029B0:  RCALL  297A
....................    output_low(RTC_RST); 
029B2:  BCF    F95.3
029B4:  BCF    F8C.3
.................... } 
029B6:  RETLW  00
....................  
.................... BYTE read_ds1302(BYTE cmd) { 
....................    BYTE i,data; 
....................  
....................    output_high(RTC_RST); 
029B8:  BCF    F95.3
029BA:  BSF    F8C.3
....................    write_ds1302_byte(cmd); 
029BC:  MOVFF  3D3,3D8
029C0:  RCALL  297A
....................     
....................    input(RTC_IO); 
029C2:  BSF    F95.2
....................    delay_us(10); 
029C4:  MOVLW  10
029C6:  MOVWF  00
029C8:  DECFSZ 00,F
029CA:  BRA    29C8
029CC:  NOP   
....................           
....................    for(i=0;i<=7;++i) { 
029CE:  MOVLB  3
029D0:  CLRF   xD4
029D2:  MOVF   xD4,W
029D4:  SUBLW  07
029D6:  BNC   2A02
....................       shift_right(&data,1,input(RTC_IO)); 
029D8:  BSF    F95.2
029DA:  BTFSC  F83.2
029DC:  BRA    29E2
029DE:  BCF    FD8.0
029E0:  BRA    29E4
029E2:  BSF    FD8.0
029E4:  RRCF   xD5,F
....................       output_high(RTC_SCLK); 
029E6:  BCF    F95.1
029E8:  BSF    F8C.1
....................       delay_us(20); 
029EA:  MOVLW  21
029EC:  MOVWF  00
029EE:  DECFSZ 00,F
029F0:  BRA    29EE
....................       output_low(RTC_SCLK); 
029F2:  BCF    F95.1
029F4:  BCF    F8C.1
....................       delay_us(20); 
029F6:  MOVLW  21
029F8:  MOVWF  00
029FA:  DECFSZ 00,F
029FC:  BRA    29FA
....................    } 
029FE:  INCF   xD4,F
02A00:  BRA    29D2
....................    output_low(RTC_RST); 
02A02:  BCF    F95.3
02A04:  BCF    F8C.3
....................  
....................    return(data); 
02A06:  MOVFF  3D5,01
.................... } 
02A0A:  MOVLB  0
02A0C:  RETLW  00
....................  
.................... void rtc_init() { 
....................    BYTE x; 
....................    output_low(RTC_RST); 
02A0E:  BCF    F95.3
02A10:  BCF    F8C.3
....................    delay_us(20); 
02A12:  MOVLW  21
02A14:  MOVWF  00
02A16:  DECFSZ 00,F
02A18:  BRA    2A16
....................    output_low(RTC_SCLK); 
02A1A:  BCF    F95.1
02A1C:  BCF    F8C.1
....................    write_ds1302(0x8e,0); 
02A1E:  MOVLW  8E
02A20:  MOVLB  3
02A22:  MOVWF  xD6
02A24:  CLRF   xD7
02A26:  MOVLB  0
02A28:  RCALL  29A2
....................    write_ds1302(0x90,0xa4); 
02A2A:  MOVLW  90
02A2C:  MOVLB  3
02A2E:  MOVWF  xD6
02A30:  MOVLW  A4
02A32:  MOVWF  xD7
02A34:  MOVLB  0
02A36:  RCALL  29A2
....................    x=read_ds1302(0x81); 
02A38:  MOVLW  81
02A3A:  MOVLB  3
02A3C:  MOVWF  xD3
02A3E:  MOVLB  0
02A40:  RCALL  29B8
02A42:  MOVFF  01,3CF
....................    if((x & 0x80)!=0) 
02A46:  MOVLB  3
02A48:  MOVF   xCF,W
02A4A:  ANDLW  80
02A4C:  BZ    2A5A
....................      write_ds1302(0x80,0); 
02A4E:  MOVLW  80
02A50:  MOVWF  xD6
02A52:  CLRF   xD7
02A54:  MOVLB  0
02A56:  RCALL  29A2
02A58:  MOVLB  3
.................... } 
02A5A:  MOVLB  0
02A5C:  GOTO   5A94 (RETURN)
....................  
.................... byte get_bcd(BYTE data) 
.................... { 
....................    byte nibh; 
....................    byte nibl; 
....................  
....................    nibh=data/10; 
*
049C0:  MOVFF  3D5,3D9
049C4:  MOVLW  0A
049C6:  MOVLB  3
049C8:  MOVWF  xDA
049CA:  MOVLB  0
049CC:  RCALL  44EC
049CE:  MOVFF  01,3D6
....................    nibl=data-(nibh*10); 
049D2:  MOVLB  3
049D4:  MOVF   xD6,W
049D6:  MULLW  0A
049D8:  MOVF   FF3,W
049DA:  SUBWF  xD5,W
049DC:  MOVWF  xD7
....................  
....................    return((nibh<<4)|nibl); 
049DE:  SWAPF  xD6,W
049E0:  MOVWF  00
049E2:  MOVLW  F0
049E4:  ANDWF  00,F
049E6:  MOVF   00,W
049E8:  IORWF  xD7,W
049EA:  MOVWF  01
.................... } 
049EC:  MOVLB  0
049EE:  RETLW  00
....................  
.................... byte rm_bcd(BYTE data) 
.................... { 
....................    byte i; 
....................  
....................    i=data; 
*
0438C:  MOVFF  3D4,3D5
....................    data=(i>>4)*10; 
04390:  MOVLB  3
04392:  SWAPF  xD5,W
04394:  MOVWF  00
04396:  MOVLW  0F
04398:  ANDWF  00,F
0439A:  MOVF   00,W
0439C:  MULLW  0A
0439E:  MOVFF  FF3,3D4
....................    data=data+(i<<4>>4); 
043A2:  SWAPF  xD5,W
043A4:  MOVWF  00
043A6:  MOVLW  F0
043A8:  ANDWF  00,F
043AA:  MOVF   00,W
043AC:  SWAPF  00,F
043AE:  MOVLW  0F
043B0:  ANDWF  00,F
043B2:  MOVF   00,W
043B4:  ADDWF  xD4,F
....................  
....................    return data; 
043B6:  MOVFF  3D4,01
.................... } 
043BA:  MOVLB  0
043BC:  RETLW  00
....................  
.................... void rtc_set_datetime(BYTE day, BYTE mth, BYTE year, BYTE dow, BYTE hr, BYTE min) { 
....................  
....................    write_ds1302(0x86,get_bcd(day)); 
*
049F0:  MOVFF  3CF,3D5
049F4:  RCALL  49C0
049F6:  MOVFF  01,3D5
049FA:  MOVLW  86
049FC:  MOVLB  3
049FE:  MOVWF  xD6
04A00:  MOVFF  01,3D7
04A04:  MOVLB  0
04A06:  CALL   29A2
....................    write_ds1302(0x88,get_bcd(mth)); 
04A0A:  MOVFF  3D0,3D5
04A0E:  RCALL  49C0
04A10:  MOVFF  01,3D5
04A14:  MOVLW  88
04A16:  MOVLB  3
04A18:  MOVWF  xD6
04A1A:  MOVFF  01,3D7
04A1E:  MOVLB  0
04A20:  CALL   29A2
....................    write_ds1302(0x8c,get_bcd(year)); 
04A24:  MOVFF  3D1,3D5
04A28:  RCALL  49C0
04A2A:  MOVFF  01,3D5
04A2E:  MOVLW  8C
04A30:  MOVLB  3
04A32:  MOVWF  xD6
04A34:  MOVFF  01,3D7
04A38:  MOVLB  0
04A3A:  CALL   29A2
....................    write_ds1302(0x8a,get_bcd(dow)); 
04A3E:  MOVFF  3D2,3D5
04A42:  RCALL  49C0
04A44:  MOVFF  01,3D5
04A48:  MOVLW  8A
04A4A:  MOVLB  3
04A4C:  MOVWF  xD6
04A4E:  MOVFF  01,3D7
04A52:  MOVLB  0
04A54:  CALL   29A2
....................    write_ds1302(0x84,get_bcd(hr)); 
04A58:  MOVFF  3D3,3D5
04A5C:  RCALL  49C0
04A5E:  MOVFF  01,3D5
04A62:  MOVLW  84
04A64:  MOVLB  3
04A66:  MOVWF  xD6
04A68:  MOVFF  01,3D7
04A6C:  MOVLB  0
04A6E:  CALL   29A2
....................    write_ds1302(0x82,get_bcd(min)); 
04A72:  MOVFF  3D4,3D5
04A76:  RCALL  49C0
04A78:  MOVFF  01,3D5
04A7C:  MOVLW  82
04A7E:  MOVLB  3
04A80:  MOVWF  xD6
04A82:  MOVFF  01,3D7
04A86:  MOVLB  0
04A88:  CALL   29A2
....................    write_ds1302(0x80,get_bcd(0)); 
04A8C:  MOVLB  3
04A8E:  CLRF   xD5
04A90:  MOVLB  0
04A92:  RCALL  49C0
04A94:  MOVFF  01,3D5
04A98:  MOVLW  80
04A9A:  MOVLB  3
04A9C:  MOVWF  xD6
04A9E:  MOVFF  01,3D7
04AA2:  MOVLB  0
04AA4:  CALL   29A2
.................... } 
04AA8:  GOTO   88DA (RETURN)
....................  
.................... void rtc_get_date(BYTE& day, BYTE& mth, BYTE& year, BYTE& dow) { 
....................    day = rm_bcd(read_ds1302(0x87)); 
*
05CBC:  MOVLW  87
05CBE:  MOVLB  3
05CC0:  MOVWF  xD3
05CC2:  MOVLB  0
05CC4:  CALL   29B8
05CC8:  MOVFF  01,3CF
05CCC:  MOVFF  01,3D4
05CD0:  CALL   438C
05CD4:  MOVFF  01,377
....................    mth = rm_bcd(read_ds1302(0x89)); 
05CD8:  MOVLW  89
05CDA:  MOVLB  3
05CDC:  MOVWF  xD3
05CDE:  MOVLB  0
05CE0:  CALL   29B8
05CE4:  MOVFF  01,3CF
05CE8:  MOVFF  01,3D4
05CEC:  CALL   438C
05CF0:  MOVFF  01,376
....................    year = rm_bcd(read_ds1302(0x8d)); 
05CF4:  MOVLW  8D
05CF6:  MOVLB  3
05CF8:  MOVWF  xD3
05CFA:  MOVLB  0
05CFC:  CALL   29B8
05D00:  MOVFF  01,3CF
05D04:  MOVFF  01,3D4
05D08:  CALL   438C
05D0C:  MOVFF  01,375
....................    dow = rm_bcd(read_ds1302(0x8b)); 
05D10:  MOVLW  8B
05D12:  MOVLB  3
05D14:  MOVWF  xD3
05D16:  MOVLB  0
05D18:  CALL   29B8
05D1C:  MOVFF  01,3CF
05D20:  MOVFF  01,3D4
05D24:  CALL   438C
05D28:  MOVFF  01,37B
.................... } 
....................  
.................... void rtc_get_time(BYTE& hr, BYTE& min, BYTE& sec) { 
....................    hr = rm_bcd(read_ds1302(0x85)); 
05D2C:  MOVLW  85
05D2E:  MOVLB  3
05D30:  MOVWF  xD3
05D32:  MOVLB  0
05D34:  CALL   29B8
05D38:  MOVFF  01,3CF
05D3C:  MOVFF  01,3D4
05D40:  CALL   438C
05D44:  MOVFF  01,378
....................    min = rm_bcd(read_ds1302(0x83)); 
05D48:  MOVLW  83
05D4A:  MOVLB  3
05D4C:  MOVWF  xD3
05D4E:  MOVLB  0
05D50:  CALL   29B8
05D54:  MOVFF  01,3CF
05D58:  MOVFF  01,3D4
05D5C:  CALL   438C
05D60:  MOVFF  01,379
....................    sec = rm_bcd(read_ds1302(0x81)); 
05D64:  MOVLW  81
05D66:  MOVLB  3
05D68:  MOVWF  xD3
05D6A:  MOVLB  0
05D6C:  CALL   29B8
05D70:  MOVFF  01,3CF
05D74:  MOVFF  01,3D4
05D78:  CALL   438C
05D7C:  MOVFF  01,37A
.................... } 
....................  
.................... void rtc_write_nvr(BYTE address, BYTE data) { 
....................    write_ds1302(address|0xc0,data); 
.................... } 
....................  
.................... BYTE rtc_read_nvr(BYTE address) { 
....................     return(read_ds1302(address|0xc1)); 
.................... } 
....................  
....................  
.................... #define   UP            !input(PIN_B0) 
.................... #define   DOWN          !input(PIN_B1) 
.................... #define   RIGHT         !input(PIN_B2) 
.................... #define   LEFT          !input(PIN_B3) 
....................  
.................... #define   DOOR          !input(PIN_B6) 
.................... #define   STOP          !input(PIN_B7) 
.................... #define   TERM          !input(PIN_B5) 
....................  
.................... #define   LOW           input(PIN_C1) 
.................... #define   HIG           input(PIN_C0) 
....................  
.................... #define   SSR_on           output_bit(PIN_C2,0) 
.................... #define   SSR_off          output_bit(PIN_C2,1) 
....................  
.................... #define   Buzzer_on        output_bit(PIN_D0,1) 
.................... #define   Buzzer_off       output_bit(PIN_D0,0) 
....................  
.................... #define   Desfogue_on      output_bit(PIN_D4,1) 
.................... #define   Desfogue_off     output_bit(PIN_D4,0) 
....................  
.................... #define   Agua_on          output_bit(PIN_D5,1) 
.................... #define   Agua_off         output_bit(PIN_D5,0) 
....................  
.................... #define   Bomba_on         output_bit(PIN_D6,1) 
.................... #define   Bomba_off        output_bit(PIN_D6,0) 
....................  
.................... #define OFF 0 
.................... #define ON  1 
.................... #define RX_BUFFER_SIZE  10 
.................... char Rx_Buffer[RX_BUFFER_SIZE+1]; 
.................... char Rx_Buffer2[RX_BUFFER_SIZE+1]; 
.................... char RX_Wr_Index=0; 
.................... char RX_Rd_Index=0; 
.................... char RX_Counter=0; 
....................  
.................... #define TX_BUFFER_SIZE  24 
.................... char Tx_Buffer[TX_BUFFER_SIZE+1]; 
.................... char TX_Wr_Index=0; 
.................... char TX_Counter=0; 
.................... //int1 RX_Buffer_Overflow=0; 
....................  
.................... //Comunicacion//------------------------ 
.................... byte SlaveA0Tx[0X20]; 
.................... byte dato=0;            //Contendr la informacin a enviar o recibir 
.................... byte direccion=0;       //Contendr la direccin del esclavo en el bus I2C 
.................... byte posicion=0;        //Contendr la posicin en el buffer de memoria del esclavo donde se almacenar o de donde se recuperar el dato 
....................  
.................... /* Tabla de Modulos, Primera Fila Ao Regular y el siguiente ao Bisiesto 
.................... E   F   M   A   M   J   J   A   S   O   N   D 
.................... 0   3   3   6   1   4   6   2   5   0   3   5 
.................... 0   3   4   0   2   5   0   3   6   1   4   6 
.................... */ 
.................... int8 Regular[12]={0,3,3,6,1,4,6,2,5,0,3,5}; 
.................... int8 Bisiesto[12]={0,3,4,0,2,5,0,3,6,1,4,6}; 
....................  
.................... //Alarmas//--------------------- 
.................... short AlarmaTiempoProlongado=OFF,AlarmaSobreTemperatura=OFF,AlarmaLlenado=OFF,AlarmaTermostato=OFF,AlarmaPuerta=OFF,AlarmaEmergencia=OFF,AlarmaCiclo=OFF; 
....................  
.................... //Banderas//-------------------- 
.................... short IniciaLlenado=OFF,CalderinLleno=OFF,IniciaCiclo=OFF,Esterilizando=OFF,Secando=OFF,SensadoNivel=OFF,Desfogando=OFF,DesfogueSuave=OFF; 
.................... short EstadoDesfogue=OFF,EstadoAgua=OFF,EstadoSSR=OFF,PruebaEstados=OFF,Ciclo=OFF,flagCalentando=OFF,flagEsterilizando=OFF,EstadoAire=OFF; 
.................... short flagDesfogando=OFF,Op=OFF,Op2=OFF,Minutos=OFF,Segundos=OFF,GuardaEEPROM=OFF,EstadoPaso=OFF,EstadoBuzzer=OFF,flagAlarma=OFF; 
.................... short flagBuzzer=OFF,flagSilencio=OFF,Finalizo=OFF,AlarmaPresion=OFF,Libre=OFF,purga=OFF,entro=OFF,Aire=OFF,purgo=OFF,purgaAire2=OFF; 
....................  
.................... //Tiempos//--------------------- 
.................... int16 TiempoCiclo=0,TiempoLlenado=0,TiempoSensadoNivel=0,Tp=0,Tc=0,tsecados=800; 
.................... signed int  Testerilizacion[5]={0,0,0,0,0};   // Tiempo transcurrido 
.................... signed int  Testerilizacionp[5]={0,0,0,0,0};   // Tiempo transcurrido 
.................... signed int  Tsecado[4]={0,0,0,0};   // Tiempo transcurrido 
.................... signed int  Tsecadop[4]={0,0,0,0};   // Tiempo transcurrido 
....................  
.................... //Control//------------------------ 
.................... float promedio[80]={0.0,0.0,0.0,0.0,0.0,0.0,0.0,0.0,0.0,0.0,0.0,0.0,0.0,0.0,0.0,0.0,0.0,0.0,0.0,0.0,0.0,0.0,0.0,0.0,0.0,0.0,0.0,0.0,0.0,0.0,0.0,0.0,0.0,0.0,0.0,0.0,0.0,0.0,0.0,0.0,0.0,0.0,0.0,0.0,0.0,0.0,0.0,0.0,0.0,0.0,0.0,0.0,0.0,0.0,0.0,0.0,0.0,0.0,0.0,0.0,0.0,0.0,0.0,0.0}; 
.................... float PromPresion[20]={0.0,0.0,0.0,0.0,0.0,0.0,0.0,0.0,0.0,0.0,0.0,0.0,0.0,0.0,0.0,0.0,0.0,0.0,0.0,0.0}; 
.................... float PromPresionp[20]={0.0,0.0,0.0,0.0,0.0,0.0,0.0,0.0,0.0,0.0,0.0,0.0,0.0,0.0,0.0,0.0,0.0,0.0,0.0,0.0}; 
.................... float Gain=141.6,RPT100=0.5,Temporal=0.0; 
.................... float R1=100,R10=6800; 
.................... float X[2]={0.0,0.0}; 
.................... float promediopresion=0.0,Aumento=0.0,promediopresionp=0.0; 
.................... int8 h=0,l=0,Ajuste=0,Ajusten=0,MediaMovil=20,TTrampa=0,PantallaPrincipal=0,TipoClave=0,Modulo=0,Digito=0; 
.................... float V0=0.0,Pt,Tciclo=10.0,Tpulso=0.0,error=0.0,Prom=0.0,Temperature=0.0,tmp=0.0,Ganancia=25.0,Ganancia2=20.0,desvio=1.0,tmp2=0.0; 
.................... float V1=0.0,Presion=0.0,V2=0.0,Presionp=0.0; 
.................... float Temperatura=0.0,K=0.0012858; 
.................... float a=0.0011,b=2.3302,c=-244.0723; 
.................... int8 Integral=0,Derivativo=0,CicloLibre=0; 
....................  
.................... //Varios//-------------------------------- 
.................... short desfoguelento=0,Lectura=0,Grafica=0; 
.................... short disp_Stop=0,flagTC=0,flagImprime=0,flagImprimir=0; 
.................... int8 Control=0,tiemporecta=0,Controlando=0,ActivaImpresion=1,timpresion=2,CalculoImpresion=0,Inicio=1,Dato_Exitoso=0,Dato2=0,z=0; 
.................... int8 Menu=0, MenuAnt=0,MenuAntt=240,i=0,CiclosL=0,CiclosH=0,CicloSeleccionado=0; 
.................... int8 Setpoint=0,Opcion=1,Opcion2=1,tiempo_esterilizacion=0,tiempo_secado=0,tiempoImpresion=0; 
.................... int16 tiempos=0,tiempos2=0,tiempos3=0,tiempoctrl=0,Nivel=0,tinicio=0,PresionCamara=0,PresionPreCamara=0,Ciclos=0,NivelSeleccionado=0,tPurgaAire=0,tStop=0,tTermostato=0; 
.................... signed int  Contrasena[4]={0,0,0,0};      // Contrasena de 4 digitos 
.................... signed int  Password[4]={0,0,0,0};        // Contrasena Almacenada de 4 digitos 
.................... int8 r=0,t=0,r22=0,t2=0,TiempoControl=0; 
.................... int8 y=0,ConteoBuzzer=0; 
.................... int16 t_exhaust=0,tbuzzer=0,tsilencio=0,tiempoAgua=0; 
.................... int8 Year=18,Mes=9,Dia=13,Hora=0,Minuto=0,Segundo=0,dow=0; 
.................... int8 YearTx=0,MesTx=0,DiaTx=0,HoraTx=0,MinutoTx=0,SegundoTx=0,dowTx=0,SetTime=0,Imprime=0; 
.................... signed int8 G1=0,G2=0,sg1=0,sg2=0; 
.................... int8 iconoGrande[15]={22,60,16,59,23,28,20,46}; 
.................... int8 iconoPeque[15]={18,57,36,58,32,38,19,17}; 
.................... char const texto[9][20]={"NO ENVUELTO","ENVUELTO","DEL. NO ENVUELTO","DEL. ENVUELTO","LIBRE","TEST","HORA Y FECHA","CLAVE"}; 
....................  
.................... typedef struct{ 
....................    int8 Temperatura; 
....................    int8 MinutoestH; 
....................    int8 MinutoestL; 
....................    int8 Segundoest; 
....................    int8 Minutosec; 
....................    int8 Segundosec; 
....................    int8 PulsosVacio; 
....................    int8 NivelVacio; 
....................    int8 NivelDesfogue; 
....................    int8 Minutoest; 
.................... }Personalizado; 
....................  
.................... Personalizado CiclosPersonalizados[4]; 
....................  
.................... #include "Funciones.h" 
.................... void BorraBuffer(void){ 
.................... RX_Buffer[0]=0; 
*
0448E:  CLRF   30
.................... RX_Buffer[1]=0; 
04490:  CLRF   31
.................... RX_Buffer[2]=0; 
04492:  CLRF   32
.................... RX_Buffer[3]=0; 
04494:  CLRF   33
.................... RX_Buffer[4]=0; 
04496:  CLRF   34
.................... RX_Buffer[5]=0; 
04498:  CLRF   35
.................... RX_Buffer[6]=0; 
0449A:  CLRF   36
.................... RX_Buffer[7]=0; 
0449C:  CLRF   37
.................... RX_Buffer[8]=0; 
0449E:  CLRF   38
.................... RX_Buffer[9]=0; 
044A0:  CLRF   39
....................  
.................... RX_Buffer2[0]=0; 
044A2:  CLRF   3B
.................... RX_Buffer2[1]=0; 
044A4:  CLRF   3C
.................... RX_Buffer2[2]=0; 
044A6:  CLRF   3D
.................... RX_Buffer2[3]=0; 
044A8:  CLRF   3E
.................... RX_Buffer2[4]=0; 
044AA:  CLRF   3F
.................... RX_Buffer2[5]=0; 
044AC:  CLRF   40
.................... RX_Buffer2[6]=0; 
044AE:  CLRF   41
.................... RX_Buffer2[7]=0; 
044B0:  CLRF   42
.................... RX_Buffer2[8]=0; 
044B2:  CLRF   43
.................... RX_Buffer2[9]=0; 
044B4:  CLRF   44
....................  
.................... } 
044B6:  GOTO   5DE8 (RETURN)
....................  
.................... char bgetc(void){ 
....................    char c; 
....................    while(RX_Counter==0) 
....................       ; 
....................    c=Rx_Buffer2[RX_Rd_Index]; 
....................    if(++RX_Rd_Index>RX_BUFFER_SIZE) 
....................       RX_Rd_Index=0; 
....................    if(RX_Counter) 
....................       RX_Counter--; 
....................    return c; 
.................... } 
....................  
.................... void bputc(char c){ 
....................    char restart=0; 
....................    while(TX_Counter> (TX_BUFFER_SIZE-1)) 
....................       ; 
....................    if(TX_Counter==0) 
....................       restart=1; 
....................    TX_Buffer[TX_Wr_Index++]=c; 
....................    if(TX_Wr_Index>TX_BUFFER_SIZE) 
....................       TX_Wr_Index=0; 
....................     
....................    TX_Counter++; 
....................     
....................    if(restart==1) 
....................       enable_interrupts(int_tbe); 
.................... } 
....................  
.................... void SendDataDisplay(void){ 
.................... delay_us(10); 
*
03608:  MOVLW  10
0360A:  MOVWF  00
0360C:  DECFSZ 00,F
0360E:  BRA    360C
03610:  NOP   
.................... putc(0xFF); 
03612:  MOVLW  FF
03614:  RCALL  3600
.................... delay_us(10); 
03616:  MOVLW  10
03618:  MOVWF  00
0361A:  DECFSZ 00,F
0361C:  BRA    361A
0361E:  NOP   
.................... putc(0xFF); 
03620:  MOVLW  FF
03622:  RCALL  3600
.................... delay_us(10); 
03624:  MOVLW  10
03626:  MOVWF  00
03628:  DECFSZ 00,F
0362A:  BRA    3628
0362C:  NOP   
.................... putc(0xFF); 
0362E:  MOVLW  FF
03630:  RCALL  3600
.................... delay_us(10); 
03632:  MOVLW  10
03634:  MOVWF  00
03636:  DECFSZ 00,F
03638:  BRA    3636
0363A:  NOP   
.................... } 
0363C:  RETLW  00
....................  
.................... short esBisiesto(int8 year) { 
....................      return ((year % 4 == 0 && year % 100 != 0) || year % 400 == 0); 
*
0496E:  MOVLB  3
04970:  MOVF   xCF,W
04972:  ANDLW  03
04974:  BNZ   4988
04976:  MOVFF  3CF,3D9
0497A:  MOVLW  64
0497C:  MOVWF  xDA
0497E:  MOVLB  0
04980:  RCALL  44EC
04982:  MOVF   00,F
04984:  BNZ   49B6
04986:  MOVLB  3
04988:  CLRF   xD1
0498A:  MOVFF  3CF,3D0
0498E:  MOVLW  01
04990:  MOVWF  xD3
04992:  MOVLW  90
04994:  MOVWF  xD2
04996:  MOVLB  0
04998:  BRA    4926
0499A:  MOVFF  00,3D0
0499E:  MOVLB  3
049A0:  MOVFF  03,3D1
049A4:  MOVF   xD0,F
049A6:  BNZ   49B2
049A8:  MOVF   xD1,F
049AA:  BTFSS  FD8.2
049AC:  BRA    49B2
049AE:  MOVLB  0
049B0:  BRA    49B6
049B2:  MOVLW  00
049B4:  BRA    49BA
049B6:  MOVLW  01
049B8:  MOVLB  3
049BA:  MOVWF  01
.................... } 
049BC:  MOVLB  0
049BE:  RETLW  00
....................  
.................... void LimitaDia(){ 
....................    if(MesTx>12) 
*
04AAC:  MOVLB  3
04AAE:  MOVF   x7D,W
04AB0:  SUBLW  0C
04AB2:  BC    4AB8
....................       MesTx=10; 
04AB4:  MOVLW  0A
04AB6:  MOVWF  x7D
....................    if(DiaTx>31) 
04AB8:  MOVF   x7E,W
04ABA:  SUBLW  1F
04ABC:  BC    4AC2
....................       DiaTx=16; 
04ABE:  MOVLW  10
04AC0:  MOVWF  x7E
....................    if(YearTx>99) 
04AC2:  MOVF   x7C,W
04AC4:  SUBLW  63
04AC6:  BC    4ACC
....................       YearTx=18;    
04AC8:  MOVLW  12
04ACA:  MOVWF  x7C
....................    if(HoraTx>24) 
04ACC:  MOVF   x7F,W
04ACE:  SUBLW  18
04AD0:  BC    4AD6
....................       HoraTx=11;       
04AD2:  MOVLW  0B
04AD4:  MOVWF  x7F
....................    if(MinutoTx>59) 
04AD6:  MOVF   x80,W
04AD8:  SUBLW  3B
04ADA:  BC    4AE0
....................       MinutoTx=30;       
04ADC:  MOVLW  1E
04ADE:  MOVWF  x80
....................     
....................       if(MesTx==2){ 
04AE0:  MOVF   x7D,W
04AE2:  SUBLW  02
04AE4:  BNZ   4B10
....................          if(esBisiesto(YearTx)){ 
04AE6:  MOVFF  37C,3CF
04AEA:  MOVLB  0
04AEC:  RCALL  496E
04AEE:  MOVF   01,F
04AF0:  BZ    4B02
....................             if(DiaTx>29){ 
04AF2:  MOVLB  3
04AF4:  MOVF   x7E,W
04AF6:  SUBLW  1D
04AF8:  BC    4AFE
....................                DiaTx=29; 
04AFA:  MOVLW  1D
04AFC:  MOVWF  x7E
....................                //glcd_fillScreen(OFF); 
....................             } 
....................          }else{ 
04AFE:  BRA    4B0E
04B00:  MOVLB  0
....................             if(DiaTx>28){ 
04B02:  MOVLB  3
04B04:  MOVF   x7E,W
04B06:  SUBLW  1C
04B08:  BC    4B0E
....................                DiaTx=28; 
04B0A:  MOVLW  1C
04B0C:  MOVWF  x7E
....................                //glcd_fillScreen(OFF); 
....................             } 
....................          } 
....................       }else{ 
04B0E:  BRA    4B3A
....................          if(MesTx<=7){ 
04B10:  MOVF   x7D,W
04B12:  SUBLW  07
04B14:  BNC   4B28
....................             if(MesTx % 2 ==0){ 
04B16:  MOVF   x7D,W
04B18:  ANDLW  01
04B1A:  BNZ   4B26
....................                if(DiaTx>30){ 
04B1C:  MOVF   x7E,W
04B1E:  SUBLW  1E
04B20:  BC    4B26
....................                   DiaTx=30;  
04B22:  MOVLW  1E
04B24:  MOVWF  x7E
....................                   //glcd_fillScreen(OFF); 
....................                } 
....................             } 
....................          }else{ 
04B26:  BRA    4B3A
....................             if(MesTx % 2 ==1){ 
04B28:  MOVF   x7D,W
04B2A:  ANDLW  01
04B2C:  SUBLW  01
04B2E:  BNZ   4B3A
....................                if(DiaTx>30){ 
04B30:  MOVF   x7E,W
04B32:  SUBLW  1E
04B34:  BC    4B3A
....................                   DiaTx=30;  
04B36:  MOVLW  1E
04B38:  MOVWF  x7E
....................                   //glcd_fillScreen(OFF); 
....................                } 
....................             } 
....................          } 
....................       } 
.................... } 
04B3A:  MOVLB  0
04B3C:  GOTO   8B76 (RETURN)
....................  
.................... void ActualizaRecta(){ 
....................    X[y]=Temperature; 
*
04B6E:  MOVLB  3
04B70:  MOVF   x6B,W
04B72:  MULLW  04
04B74:  MOVF   FF3,W
04B76:  CLRF   03
04B78:  ADDLW  B7
04B7A:  MOVWF  FE9
04B7C:  MOVLW  02
04B7E:  ADDWFC 03,W
04B80:  MOVWF  FEA
04B82:  MOVFF  2ED,FEF
04B86:  MOVFF  2EE,FEC
04B8A:  MOVFF  2EF,FEC
04B8E:  MOVFF  2F0,FEC
....................    y++; 
04B92:  INCF   x6B,F
....................    if(y>=2) 
04B94:  MOVF   x6B,W
04B96:  SUBLW  01
04B98:  BC    4BD6
....................    { 
....................       y=0; 
04B9A:  CLRF   x6B
....................       Aumento=X[1]-X[0]; 
04B9C:  BSF    FD8.1
04B9E:  MOVFF  2BE,3E7
04BA2:  MOVFF  2BD,3E6
04BA6:  MOVFF  2BC,3E5
04BAA:  MOVFF  2BB,3E4
04BAE:  MOVFF  2BA,3EB
04BB2:  MOVFF  2B9,3EA
04BB6:  MOVFF  2B8,3E9
04BBA:  MOVFF  2B7,3E8
04BBE:  MOVLB  0
04BC0:  CALL   19C2
04BC4:  MOVFF  03,2C6
04BC8:  MOVFF  02,2C5
04BCC:  MOVFF  01,2C4
04BD0:  MOVFF  00,2C3
04BD4:  MOVLB  3
....................    } 
.................... } 
04BD6:  MOVLB  0
04BD8:  GOTO   4C54 (RETURN)
....................  
.................... // Funcion para conversor analogo-digital 
.................... float sensores(int x){ 
.................... float y;set_adc_channel(x);delay_ms(1);y=read_adc();return (y); 
*
0365C:  MOVLB  3
0365E:  RLCF   xD0,W
03660:  MOVWF  00
03662:  RLCF   00,F
03664:  MOVLW  FC
03666:  ANDWF  00,F
03668:  MOVFF  00,01
0366C:  MOVF   FC2,W
0366E:  ANDLW  C3
03670:  IORWF  00,W
03672:  MOVWF  FC2
03674:  MOVLW  01
03676:  MOVWF  xE4
03678:  MOVLB  0
0367A:  CALL   1806
0367E:  BSF    FC2.1
03680:  BTFSC  FC2.1
03682:  BRA    3680
03684:  MOVFF  FC4,3E5
03688:  MOVFF  FC3,3E4
0368C:  MOVLB  0
0368E:  CALL   182E
03692:  MOVFF  03,3D4
03696:  MOVFF  02,3D3
0369A:  MOVFF  01,3D2
0369E:  MOVFF  00,3D1
036A2:  MOVFF  3D1,00
036A6:  MOVFF  3D2,01
036AA:  MOVFF  3D3,02
036AE:  MOVFF  3D4,03
.................... } 
036B2:  RETLW  00
.................... float LeerPT100(int media) 
.................... { 
....................    Prom=0.0; 
*
037CC:  MOVLB  2
037CE:  CLRF   xEC
037D0:  CLRF   xEB
037D2:  CLRF   xEA
037D4:  CLRF   xE9
....................    V0 = sensores(0);   //Lectura de Divisor de Voltaje de PT100 con resistencia de 6.18k (+-2%) 
037D6:  MOVLB  3
037D8:  CLRF   xD0
037DA:  MOVLB  0
037DC:  RCALL  365C
037DE:  MOVFF  03,2D8
037E2:  MOVFF  02,2D7
037E6:  MOVFF  01,2D6
037EA:  MOVFF  00,2D5
....................    V0 = V0/105.06; // Se elimina la ganancia 
037EE:  MOVFF  2D8,3D7
037F2:  MOVFF  2D7,3D6
037F6:  MOVFF  2D6,3D5
037FA:  MOVFF  2D5,3D4
037FE:  MOVLW  B8
03800:  MOVLB  3
03802:  MOVWF  xDB
03804:  MOVLW  1E
03806:  MOVWF  xDA
03808:  MOVLW  52
0380A:  MOVWF  xD9
0380C:  MOVLW  85
0380E:  MOVWF  xD8
03810:  MOVLB  0
03812:  CALL   1864
03816:  MOVFF  03,2D8
0381A:  MOVFF  02,2D7
0381E:  MOVFF  01,2D6
03822:  MOVFF  00,2D5
....................    //V0 += 14.82; 
....................    V0 += 14.74; 
03826:  BCF    FD8.1
03828:  MOVFF  2D8,3E7
0382C:  MOVFF  2D7,3E6
03830:  MOVFF  2D6,3E5
03834:  MOVFF  2D5,3E4
03838:  MOVLW  0A
0383A:  MOVLB  3
0383C:  MOVWF  xEB
0383E:  MOVLW  D7
03840:  MOVWF  xEA
03842:  MOVLW  6B
03844:  MOVWF  xE9
03846:  MOVLW  82
03848:  MOVWF  xE8
0384A:  MOVLB  0
0384C:  CALL   19C2
03850:  MOVFF  03,2D8
03854:  MOVFF  02,2D7
03858:  MOVFF  01,2D6
0385C:  MOVFF  00,2D5
....................    Pt=R10/((1023/V0)-1); 
03860:  MOVLB  3
03862:  CLRF   xD7
03864:  MOVLW  C0
03866:  MOVWF  xD6
03868:  MOVLW  7F
0386A:  MOVWF  xD5
0386C:  MOVLW  88
0386E:  MOVWF  xD4
03870:  MOVFF  2D8,3DB
03874:  MOVFF  2D7,3DA
03878:  MOVFF  2D6,3D9
0387C:  MOVFF  2D5,3D8
03880:  MOVLB  0
03882:  CALL   1864
03886:  MOVFF  00,3D0
0388A:  MOVFF  01,3D1
0388E:  MOVFF  02,3D2
03892:  MOVFF  03,3D3
03896:  BSF    FD8.1
03898:  MOVFF  03,3E7
0389C:  MOVFF  02,3E6
038A0:  MOVFF  01,3E5
038A4:  MOVFF  00,3E4
038A8:  MOVLB  3
038AA:  CLRF   xEB
038AC:  CLRF   xEA
038AE:  CLRF   xE9
038B0:  MOVLW  7F
038B2:  MOVWF  xE8
038B4:  MOVLB  0
038B6:  CALL   19C2
038BA:  MOVFF  2B6,3D7
038BE:  MOVFF  2B5,3D6
038C2:  MOVFF  2B4,3D5
038C6:  MOVFF  2B3,3D4
038CA:  MOVFF  03,3DB
038CE:  MOVFF  02,3DA
038D2:  MOVFF  01,3D9
038D6:  MOVFF  00,3D8
038DA:  CALL   1864
038DE:  MOVFF  03,2DC
038E2:  MOVFF  02,2DB
038E6:  MOVFF  01,2DA
038EA:  MOVFF  00,2D9
....................              
....................    if(l>(media-1)) 
038EE:  MOVLW  01
038F0:  MOVLB  3
038F2:  SUBWF  xCF,W
038F4:  MOVLB  2
038F6:  SUBWF  xCC,W
038F8:  BZ    38FE
038FA:  BNC   38FE
....................    {l=0;} 
038FC:  CLRF   xCC
....................    //promedio[l]=Temperature;l++; 
....................    promedio[l]=Pt;l++; 
038FE:  MOVLB  3
03900:  CLRF   xD1
03902:  MOVFF  2CC,3D0
03906:  CLRF   xD3
03908:  MOVLW  04
0390A:  MOVWF  xD2
0390C:  MOVLB  0
0390E:  RCALL  36B4
03910:  MOVF   01,W
03912:  ADDLW  C3
03914:  MOVWF  FE9
03916:  MOVLW  00
03918:  ADDWFC 02,W
0391A:  MOVWF  FEA
0391C:  MOVFF  2D9,FEF
03920:  MOVFF  2DA,FEC
03924:  MOVFF  2DB,FEC
03928:  MOVFF  2DC,FEC
0392C:  MOVLB  2
0392E:  INCF   xCC,F
....................           
....................    for(h=0;h<media;h++) 
03930:  CLRF   xCB
03932:  MOVLB  3
03934:  MOVF   xCF,W
03936:  MOVLB  2
03938:  SUBWF  xCB,W
0393A:  BC    39BA
....................    { 
....................       Prom+=promedio[h]; 
0393C:  MOVLB  3
0393E:  CLRF   xD1
03940:  MOVFF  2CB,3D0
03944:  CLRF   xD3
03946:  MOVLW  04
03948:  MOVWF  xD2
0394A:  MOVLB  0
0394C:  RCALL  36B4
0394E:  MOVFF  02,03
03952:  MOVF   01,W
03954:  ADDLW  C3
03956:  MOVWF  FE9
03958:  MOVLW  00
0395A:  ADDWFC 02,W
0395C:  MOVWF  FEA
0395E:  MOVFF  FEF,00
03962:  MOVFF  FEC,01
03966:  MOVFF  FEC,02
0396A:  MOVFF  FEC,03
0396E:  MOVFF  FEA,3D1
03972:  MOVFF  FE9,3D0
03976:  BCF    FD8.1
03978:  MOVFF  2EC,3E7
0397C:  MOVFF  2EB,3E6
03980:  MOVFF  2EA,3E5
03984:  MOVFF  2E9,3E4
03988:  MOVFF  03,3EB
0398C:  MOVFF  02,3EA
03990:  MOVFF  01,3E9
03994:  MOVFF  00,3E8
03998:  CALL   19C2
0399C:  MOVFF  3D1,FEA
039A0:  MOVFF  3D0,FE9
039A4:  MOVFF  03,2EC
039A8:  MOVFF  02,2EB
039AC:  MOVFF  01,2EA
039B0:  MOVFF  00,2E9
....................    }  
039B4:  MOVLB  2
039B6:  INCF   xCB,F
039B8:  BRA    3932
....................    Prom=Prom/media;    
039BA:  MOVLB  3
039BC:  CLRF   xE5
039BE:  MOVFF  3CF,3E4
039C2:  MOVLB  0
039C4:  CALL   182E
039C8:  MOVFF  2EC,3D7
039CC:  MOVFF  2EB,3D6
039D0:  MOVFF  2EA,3D5
039D4:  MOVFF  2E9,3D4
039D8:  MOVFF  03,3DB
039DC:  MOVFF  02,3DA
039E0:  MOVFF  01,3D9
039E4:  MOVFF  00,3D8
039E8:  CALL   1864
039EC:  MOVFF  03,2EC
039F0:  MOVFF  02,2EB
039F4:  MOVFF  01,2EA
039F8:  MOVFF  00,2E9
....................    //Temperature=(Prom-100.0)/(0.385);  // Ecuacin determinada por linealizacin en Matlab. Revisar este polinomio.   
....................    Temperature=((Prom*Prom)*a)+(Prom*b)+c;  // Ecuacin determinada por linealizacin en Matlab. Revisar este polinomio. 
039FC:  MOVFF  2EC,3EB
03A00:  MOVFF  2EB,3EA
03A04:  MOVFF  2EA,3E9
03A08:  MOVFF  2E9,3E8
03A0C:  MOVFF  2EC,3EF
03A10:  MOVFF  2EB,3EE
03A14:  MOVFF  2EA,3ED
03A18:  MOVFF  2E9,3EC
03A1C:  RCALL  36D6
03A1E:  MOVFF  00,3D0
03A22:  MOVFF  01,3D1
03A26:  MOVFF  02,3D2
03A2A:  MOVFF  03,3D3
03A2E:  MOVFF  03,3EB
03A32:  MOVFF  02,3EA
03A36:  MOVFF  01,3E9
03A3A:  MOVFF  00,3E8
03A3E:  MOVFF  320,3EF
03A42:  MOVFF  31F,3EE
03A46:  MOVFF  31E,3ED
03A4A:  MOVFF  31D,3EC
03A4E:  RCALL  36D6
03A50:  MOVFF  00,3D0
03A54:  MOVFF  01,3D1
03A58:  MOVFF  02,3D2
03A5C:  MOVFF  03,3D3
03A60:  MOVFF  2EC,3EB
03A64:  MOVFF  2EB,3EA
03A68:  MOVFF  2EA,3E9
03A6C:  MOVFF  2E9,3E8
03A70:  MOVFF  324,3EF
03A74:  MOVFF  323,3EE
03A78:  MOVFF  322,3ED
03A7C:  MOVFF  321,3EC
03A80:  RCALL  36D6
03A82:  BCF    FD8.1
03A84:  MOVFF  3D3,3E7
03A88:  MOVFF  3D2,3E6
03A8C:  MOVFF  3D1,3E5
03A90:  MOVFF  3D0,3E4
03A94:  MOVFF  03,3EB
03A98:  MOVFF  02,3EA
03A9C:  MOVFF  01,3E9
03AA0:  MOVFF  00,3E8
03AA4:  CALL   19C2
03AA8:  MOVFF  00,3D0
03AAC:  MOVFF  01,3D1
03AB0:  MOVFF  02,3D2
03AB4:  MOVFF  03,3D3
03AB8:  BCF    FD8.1
03ABA:  MOVFF  03,3E7
03ABE:  MOVFF  02,3E6
03AC2:  MOVFF  01,3E5
03AC6:  MOVFF  00,3E4
03ACA:  MOVFF  328,3EB
03ACE:  MOVFF  327,3EA
03AD2:  MOVFF  326,3E9
03AD6:  MOVFF  325,3E8
03ADA:  CALL   19C2
03ADE:  MOVFF  03,2F0
03AE2:  MOVFF  02,2EF
03AE6:  MOVFF  01,2EE
03AEA:  MOVFF  00,2ED
....................    Temperature+=((float)Ajuste-(float)Ajusten); 
03AEE:  MOVLB  3
03AF0:  CLRF   xE5
03AF2:  MOVFF  2CD,3E4
03AF6:  MOVLB  0
03AF8:  CALL   182E
03AFC:  MOVFF  00,3D0
03B00:  MOVFF  01,3D1
03B04:  MOVFF  02,3D2
03B08:  MOVFF  03,3D3
03B0C:  MOVLB  3
03B0E:  CLRF   xE5
03B10:  MOVFF  2CE,3E4
03B14:  MOVLB  0
03B16:  CALL   182E
03B1A:  BSF    FD8.1
03B1C:  MOVFF  3D3,3E7
03B20:  MOVFF  3D2,3E6
03B24:  MOVFF  3D1,3E5
03B28:  MOVFF  3D0,3E4
03B2C:  MOVFF  03,3EB
03B30:  MOVFF  02,3EA
03B34:  MOVFF  01,3E9
03B38:  MOVFF  00,3E8
03B3C:  CALL   19C2
03B40:  BCF    FD8.1
03B42:  MOVFF  2F0,3E7
03B46:  MOVFF  2EF,3E6
03B4A:  MOVFF  2EE,3E5
03B4E:  MOVFF  2ED,3E4
03B52:  MOVFF  03,3EB
03B56:  MOVFF  02,3EA
03B5A:  MOVFF  01,3E9
03B5E:  MOVFF  00,3E8
03B62:  CALL   19C2
03B66:  MOVFF  03,2F0
03B6A:  MOVFF  02,2EF
03B6E:  MOVFF  01,2EE
03B72:  MOVFF  00,2ED
....................    //Temperature-=39.0; 
....................     
....................    //return Prom; 
....................    return Temperature; 
03B76:  MOVFF  2ED,00
03B7A:  MOVFF  2EE,01
03B7E:  MOVFF  2EF,02
03B82:  MOVFF  2F0,03
.................... } 
03B86:  RETLW  00
....................  
.................... float Leer_Sensor_Presion_Camara(int media){ 
....................    promediopresion=0.0; 
*
03F9C:  MOVLB  2
03F9E:  CLRF   xC2
03FA0:  CLRF   xC1
03FA2:  CLRF   xC0
03FA4:  CLRF   xBF
....................    V1 = sensores(2);   //Lectura de Divisor de Voltaje de PT100 con resistencia de 1k (+-10%) 
03FA6:  MOVLW  02
03FA8:  MOVLB  3
03FAA:  MOVWF  xD0
03FAC:  MOVLB  0
03FAE:  CALL   365C
03FB2:  MOVFF  03,308
03FB6:  MOVFF  02,307
03FBA:  MOVFF  01,306
03FBE:  MOVFF  00,305
....................    //V1 = V1*(5.0/1024.0); 
....................    //Presion=(V1-0.2)/(K); 
....................    Presion=(((V1)/1023)-0.04)/K; 
03FC2:  MOVFF  308,3D7
03FC6:  MOVFF  307,3D6
03FCA:  MOVFF  306,3D5
03FCE:  MOVFF  305,3D4
03FD2:  MOVLB  3
03FD4:  CLRF   xDB
03FD6:  MOVLW  C0
03FD8:  MOVWF  xDA
03FDA:  MOVLW  7F
03FDC:  MOVWF  xD9
03FDE:  MOVLW  88
03FE0:  MOVWF  xD8
03FE2:  MOVLB  0
03FE4:  CALL   1864
03FE8:  MOVFF  00,3D0
03FEC:  MOVFF  01,3D1
03FF0:  MOVFF  02,3D2
03FF4:  MOVFF  03,3D3
03FF8:  BSF    FD8.1
03FFA:  MOVFF  03,3E7
03FFE:  MOVFF  02,3E6
04002:  MOVFF  01,3E5
04006:  MOVFF  00,3E4
0400A:  MOVLW  0A
0400C:  MOVLB  3
0400E:  MOVWF  xEB
04010:  MOVLW  D7
04012:  MOVWF  xEA
04014:  MOVLW  23
04016:  MOVWF  xE9
04018:  MOVLW  7A
0401A:  MOVWF  xE8
0401C:  MOVLB  0
0401E:  CALL   19C2
04022:  MOVFF  00,3D0
04026:  MOVFF  01,3D1
0402A:  MOVFF  02,3D2
0402E:  MOVFF  03,3D3
04032:  MOVFF  03,3D7
04036:  MOVFF  02,3D6
0403A:  MOVFF  01,3D5
0403E:  MOVFF  00,3D4
04042:  MOVFF  31C,3DB
04046:  MOVFF  31B,3DA
0404A:  MOVFF  31A,3D9
0404E:  MOVFF  319,3D8
04052:  CALL   1864
04056:  MOVFF  03,30C
0405A:  MOVFF  02,30B
0405E:  MOVFF  01,30A
04062:  MOVFF  00,309
....................     
....................    if(Presion<0.0) 
04066:  MOVFF  30C,3D6
0406A:  MOVFF  30B,3D5
0406E:  MOVFF  30A,3D4
04072:  MOVFF  309,3D3
04076:  MOVLB  3
04078:  CLRF   xDA
0407A:  CLRF   xD9
0407C:  CLRF   xD8
0407E:  CLRF   xD7
04080:  MOVLB  0
04082:  CALL   2A60
04086:  BNC   4092
....................    { 
....................       Presion=0.0; 
04088:  MOVLB  3
0408A:  CLRF   x0C
0408C:  CLRF   x0B
0408E:  CLRF   x0A
04090:  CLRF   x09
....................    } 
....................     
....................    if(r>media-1) 
04092:  MOVLW  01
04094:  MOVLB  3
04096:  SUBWF  xCF,W
04098:  SUBWF  x66,W
0409A:  BZ    40A0
0409C:  BNC   40A0
....................    {r=0;} 
0409E:  CLRF   x66
....................    PromPresion[r]=Presion;r++; 
040A0:  MOVF   x66,W
040A2:  MULLW  04
040A4:  MOVF   FF3,W
040A6:  CLRF   03
040A8:  ADDLW  03
040AA:  MOVWF  FE9
040AC:  MOVLW  02
040AE:  ADDWFC 03,W
040B0:  MOVWF  FEA
040B2:  MOVFF  309,FEF
040B6:  MOVFF  30A,FEC
040BA:  MOVFF  30B,FEC
040BE:  MOVFF  30C,FEC
040C2:  INCF   x66,F
....................           
....................    for(t=0;t<=(media-1);t++) 
040C4:  CLRF   x67
040C6:  MOVLW  01
040C8:  SUBWF  xCF,W
040CA:  SUBWF  x67,W
040CC:  BZ    40D0
040CE:  BC    4140
....................    { 
....................       promediopresion+=PromPresion[t]; 
040D0:  MOVF   x67,W
040D2:  MULLW  04
040D4:  MOVF   FF3,W
040D6:  CLRF   03
040D8:  ADDLW  03
040DA:  MOVWF  FE9
040DC:  MOVLW  02
040DE:  ADDWFC 03,W
040E0:  MOVWF  FEA
040E2:  MOVFF  FEF,00
040E6:  MOVFF  FEC,01
040EA:  MOVFF  FEC,02
040EE:  MOVFF  FEC,03
040F2:  MOVFF  FEA,3D1
040F6:  MOVFF  FE9,3D0
040FA:  BCF    FD8.1
040FC:  MOVFF  2C2,3E7
04100:  MOVFF  2C1,3E6
04104:  MOVFF  2C0,3E5
04108:  MOVFF  2BF,3E4
0410C:  MOVFF  03,3EB
04110:  MOVFF  02,3EA
04114:  MOVFF  01,3E9
04118:  MOVFF  00,3E8
0411C:  MOVLB  0
0411E:  CALL   19C2
04122:  MOVFF  3D1,FEA
04126:  MOVFF  3D0,FE9
0412A:  MOVFF  03,2C2
0412E:  MOVFF  02,2C1
04132:  MOVFF  01,2C0
04136:  MOVFF  00,2BF
....................    }  
0413A:  MOVLB  3
0413C:  INCF   x67,F
0413E:  BRA    40C6
....................    promediopresion=promediopresion/media;    
04140:  CLRF   xE5
04142:  MOVFF  3CF,3E4
04146:  MOVLB  0
04148:  CALL   182E
0414C:  MOVFF  2C2,3D7
04150:  MOVFF  2C1,3D6
04154:  MOVFF  2C0,3D5
04158:  MOVFF  2BF,3D4
0415C:  MOVFF  03,3DB
04160:  MOVFF  02,3DA
04164:  MOVFF  01,3D9
04168:  MOVFF  00,3D8
0416C:  CALL   1864
04170:  MOVFF  03,2C2
04174:  MOVFF  02,2C1
04178:  MOVFF  01,2C0
0417C:  MOVFF  00,2BF
....................     
....................    return promediopresion; 
04180:  MOVFF  2BF,00
04184:  MOVFF  2C0,01
04188:  MOVFF  2C1,02
0418C:  MOVFF  2C2,03
.................... } 
04190:  GOTO   5C78 (RETURN)
....................  
.................... float Leer_Sensor_Presion_PreCamara(int media){ 
....................    promediopresionp=0.0; 
04194:  MOVLB  2
04196:  CLRF   xCA
04198:  CLRF   xC9
0419A:  CLRF   xC8
0419C:  CLRF   xC7
....................    V2 = sensores(3);   //Lectura de Divisor de Voltaje de PT100 con resistencia de 1k (+-10%) 
0419E:  MOVLW  03
041A0:  MOVLB  3
041A2:  MOVWF  xD0
041A4:  MOVLB  0
041A6:  CALL   365C
041AA:  MOVFF  03,310
041AE:  MOVFF  02,30F
041B2:  MOVFF  01,30E
041B6:  MOVFF  00,30D
....................    //V2 = V2*(5.0/1024.0); 
....................    //Presionp=(V2-0.2)/(K); 
....................    Presionp=(((V2)/1023)-0.04)/K; 
041BA:  MOVFF  310,3D7
041BE:  MOVFF  30F,3D6
041C2:  MOVFF  30E,3D5
041C6:  MOVFF  30D,3D4
041CA:  MOVLB  3
041CC:  CLRF   xDB
041CE:  MOVLW  C0
041D0:  MOVWF  xDA
041D2:  MOVLW  7F
041D4:  MOVWF  xD9
041D6:  MOVLW  88
041D8:  MOVWF  xD8
041DA:  MOVLB  0
041DC:  CALL   1864
041E0:  MOVFF  00,3D0
041E4:  MOVFF  01,3D1
041E8:  MOVFF  02,3D2
041EC:  MOVFF  03,3D3
041F0:  BSF    FD8.1
041F2:  MOVFF  03,3E7
041F6:  MOVFF  02,3E6
041FA:  MOVFF  01,3E5
041FE:  MOVFF  00,3E4
04202:  MOVLW  0A
04204:  MOVLB  3
04206:  MOVWF  xEB
04208:  MOVLW  D7
0420A:  MOVWF  xEA
0420C:  MOVLW  23
0420E:  MOVWF  xE9
04210:  MOVLW  7A
04212:  MOVWF  xE8
04214:  MOVLB  0
04216:  CALL   19C2
0421A:  MOVFF  00,3D0
0421E:  MOVFF  01,3D1
04222:  MOVFF  02,3D2
04226:  MOVFF  03,3D3
0422A:  MOVFF  03,3D7
0422E:  MOVFF  02,3D6
04232:  MOVFF  01,3D5
04236:  MOVFF  00,3D4
0423A:  MOVFF  31C,3DB
0423E:  MOVFF  31B,3DA
04242:  MOVFF  31A,3D9
04246:  MOVFF  319,3D8
0424A:  CALL   1864
0424E:  MOVFF  03,314
04252:  MOVFF  02,313
04256:  MOVFF  01,312
0425A:  MOVFF  00,311
....................     
....................    if(Presionp<0.0) 
0425E:  MOVFF  314,3D6
04262:  MOVFF  313,3D5
04266:  MOVFF  312,3D4
0426A:  MOVFF  311,3D3
0426E:  MOVLB  3
04270:  CLRF   xDA
04272:  CLRF   xD9
04274:  CLRF   xD8
04276:  CLRF   xD7
04278:  MOVLB  0
0427A:  CALL   2A60
0427E:  BNC   428A
....................    { 
....................       Presionp=0.0; 
04280:  MOVLB  3
04282:  CLRF   x14
04284:  CLRF   x13
04286:  CLRF   x12
04288:  CLRF   x11
....................    } 
....................     
....................    if(r22>media-1) 
0428A:  MOVLW  01
0428C:  MOVLB  3
0428E:  SUBWF  xCF,W
04290:  SUBWF  x68,W
04292:  BZ    4298
04294:  BNC   4298
....................    {r22=0;} 
04296:  CLRF   x68
....................    PromPresionp[r22]=Presionp;r22++; 
04298:  MOVF   x68,W
0429A:  MULLW  04
0429C:  MOVF   FF3,W
0429E:  CLRF   03
042A0:  ADDLW  53
042A2:  MOVWF  FE9
042A4:  MOVLW  02
042A6:  ADDWFC 03,W
042A8:  MOVWF  FEA
042AA:  MOVFF  311,FEF
042AE:  MOVFF  312,FEC
042B2:  MOVFF  313,FEC
042B6:  MOVFF  314,FEC
042BA:  INCF   x68,F
....................           
....................    for(t2=0;t2<=(media-1);t2++) 
042BC:  CLRF   x69
042BE:  MOVLW  01
042C0:  SUBWF  xCF,W
042C2:  SUBWF  x69,W
042C4:  BZ    42C8
042C6:  BC    4338
....................    { 
....................       promediopresionp+=PromPresionp[t2]; 
042C8:  MOVF   x69,W
042CA:  MULLW  04
042CC:  MOVF   FF3,W
042CE:  CLRF   03
042D0:  ADDLW  53
042D2:  MOVWF  FE9
042D4:  MOVLW  02
042D6:  ADDWFC 03,W
042D8:  MOVWF  FEA
042DA:  MOVFF  FEF,00
042DE:  MOVFF  FEC,01
042E2:  MOVFF  FEC,02
042E6:  MOVFF  FEC,03
042EA:  MOVFF  FEA,3D1
042EE:  MOVFF  FE9,3D0
042F2:  BCF    FD8.1
042F4:  MOVFF  2CA,3E7
042F8:  MOVFF  2C9,3E6
042FC:  MOVFF  2C8,3E5
04300:  MOVFF  2C7,3E4
04304:  MOVFF  03,3EB
04308:  MOVFF  02,3EA
0430C:  MOVFF  01,3E9
04310:  MOVFF  00,3E8
04314:  MOVLB  0
04316:  CALL   19C2
0431A:  MOVFF  3D1,FEA
0431E:  MOVFF  3D0,FE9
04322:  MOVFF  03,2CA
04326:  MOVFF  02,2C9
0432A:  MOVFF  01,2C8
0432E:  MOVFF  00,2C7
....................    }  
04332:  MOVLB  3
04334:  INCF   x69,F
04336:  BRA    42BE
....................    promediopresionp=promediopresionp/media;    
04338:  CLRF   xE5
0433A:  MOVFF  3CF,3E4
0433E:  MOVLB  0
04340:  CALL   182E
04344:  MOVFF  2CA,3D7
04348:  MOVFF  2C9,3D6
0434C:  MOVFF  2C8,3D5
04350:  MOVFF  2C7,3D4
04354:  MOVFF  03,3DB
04358:  MOVFF  02,3DA
0435C:  MOVFF  01,3D9
04360:  MOVFF  00,3D8
04364:  CALL   1864
04368:  MOVFF  03,2CA
0436C:  MOVFF  02,2C9
04370:  MOVFF  01,2C8
04374:  MOVFF  00,2C7
....................     
....................    return promediopresionp; 
04378:  MOVFF  2C7,00
0437C:  MOVFF  2C8,01
04380:  MOVFF  2C9,02
04384:  MOVFF  2CA,03
.................... } 
04388:  GOTO   5CA0 (RETURN)
....................  
.................... void Controla(){ 
....................    if(tiemporecta>=Derivativo/2.0) 
*
04BDC:  MOVLB  3
04BDE:  CLRF   xE5
04BE0:  MOVFF  32A,3E4
04BE4:  MOVLB  0
04BE6:  CALL   182E
04BEA:  MOVFF  03,3D7
04BEE:  MOVFF  02,3D6
04BF2:  MOVFF  01,3D5
04BF6:  MOVFF  00,3D4
04BFA:  MOVLB  3
04BFC:  CLRF   xDB
04BFE:  CLRF   xDA
04C00:  CLRF   xD9
04C02:  MOVLW  80
04C04:  MOVWF  xD8
04C06:  MOVLB  0
04C08:  CALL   1864
04C0C:  MOVFF  00,3CF
04C10:  MOVFF  01,3D0
04C14:  MOVFF  02,3D1
04C18:  MOVFF  03,3D2
04C1C:  MOVLB  3
04C1E:  CLRF   xE5
04C20:  MOVFF  32E,3E4
04C24:  MOVLB  0
04C26:  CALL   182E
04C2A:  MOVFF  3D2,3D6
04C2E:  MOVFF  3D1,3D5
04C32:  MOVFF  3D0,3D4
04C36:  MOVFF  3CF,3D3
04C3A:  MOVFF  03,3DA
04C3E:  MOVFF  02,3D9
04C42:  MOVFF  01,3D8
04C46:  MOVFF  00,3D7
04C4A:  CALL   2A60
04C4E:  BC    4C52
04C50:  BNZ   4C58
....................    { 
....................       ActualizaRecta(); 
04C52:  BRA    4B6E
....................       tiemporecta=0; 
04C54:  MOVLB  3
04C56:  CLRF   x2E
....................    }  
.................... //-------------------------------Control de Calentamiento------------------------------------------------------------//          
....................    error=desvio+Setpoint-Temperatura;      // Clculo del error ****** 
04C58:  MOVLB  3
04C5A:  CLRF   xE5
04C5C:  MOVFF  33E,3E4
04C60:  MOVLB  0
04C62:  CALL   182E
04C66:  BCF    FD8.1
04C68:  MOVFF  300,3E7
04C6C:  MOVFF  2FF,3E6
04C70:  MOVFF  2FE,3E5
04C74:  MOVFF  2FD,3E4
04C78:  MOVFF  03,3EB
04C7C:  MOVFF  02,3EA
04C80:  MOVFF  01,3E9
04C84:  MOVFF  00,3E8
04C88:  CALL   19C2
04C8C:  MOVFF  00,3CF
04C90:  MOVFF  01,3D0
04C94:  MOVFF  02,3D1
04C98:  MOVFF  03,3D2
04C9C:  BSF    FD8.1
04C9E:  MOVFF  03,3E7
04CA2:  MOVFF  02,3E6
04CA6:  MOVFF  01,3E5
04CAA:  MOVFF  00,3E4
04CAE:  MOVFF  318,3EB
04CB2:  MOVFF  317,3EA
04CB6:  MOVFF  316,3E9
04CBA:  MOVFF  315,3E8
04CBE:  CALL   19C2
04CC2:  MOVFF  03,2E8
04CC6:  MOVFF  02,2E7
04CCA:  MOVFF  01,2E6
04CCE:  MOVFF  00,2E5
....................     
....................    if(error>1.0 && error<20 && Aumento<0.3) 
04CD2:  MOVLB  3
04CD4:  CLRF   xD6
04CD6:  CLRF   xD5
04CD8:  CLRF   xD4
04CDA:  MOVLW  7F
04CDC:  MOVWF  xD3
04CDE:  MOVFF  2E8,3DA
04CE2:  MOVFF  2E7,3D9
04CE6:  MOVFF  2E6,3D8
04CEA:  MOVFF  2E5,3D7
04CEE:  MOVLB  0
04CF0:  CALL   2A60
04CF4:  BTFSS  FD8.0
04CF6:  BRA    4F1C
04CF8:  MOVFF  2E8,3D6
04CFC:  MOVFF  2E7,3D5
04D00:  MOVFF  2E6,3D4
04D04:  MOVFF  2E5,3D3
04D08:  MOVLB  3
04D0A:  CLRF   xDA
04D0C:  CLRF   xD9
04D0E:  MOVLW  20
04D10:  MOVWF  xD8
04D12:  MOVLW  83
04D14:  MOVWF  xD7
04D16:  MOVLB  0
04D18:  CALL   2A60
04D1C:  BTFSS  FD8.0
04D1E:  BRA    4F1C
04D20:  MOVFF  2C6,3D6
04D24:  MOVFF  2C5,3D5
04D28:  MOVFF  2C4,3D4
04D2C:  MOVFF  2C3,3D3
04D30:  MOVLW  9A
04D32:  MOVLB  3
04D34:  MOVWF  xDA
04D36:  MOVLW  99
04D38:  MOVWF  xD9
04D3A:  MOVLW  19
04D3C:  MOVWF  xD8
04D3E:  MOVLW  7D
04D40:  MOVWF  xD7
04D42:  MOVLB  0
04D44:  CALL   2A60
04D48:  BTFSS  FD8.0
04D4A:  BRA    4F1C
....................    { 
....................       if(Tpulso<4.0) 
04D4C:  MOVFF  2E4,3D6
04D50:  MOVFF  2E3,3D5
04D54:  MOVFF  2E2,3D4
04D58:  MOVFF  2E1,3D3
04D5C:  MOVLB  3
04D5E:  CLRF   xDA
04D60:  CLRF   xD9
04D62:  CLRF   xD8
04D64:  MOVLW  81
04D66:  MOVWF  xD7
04D68:  MOVLB  0
04D6A:  CALL   2A60
04D6E:  BTFSS  FD8.0
04D70:  BRA    4F1A
....................       { 
....................          flagTC=1; 
04D72:  BSF    xA4.6
....................          if(TiempoControl>=Derivativo) 
04D74:  MOVLB  3
04D76:  MOVF   x2A,W
04D78:  SUBWF  x6A,W
04D7A:  BTFSS  FD8.0
04D7C:  BRA    4F16
....................          { 
....................             TiempoControl=0; 
04D7E:  CLRF   x6A
....................             if(Aumento<-0.5){ 
04D80:  MOVFF  2C6,3D6
04D84:  MOVFF  2C5,3D5
04D88:  MOVFF  2C4,3D4
04D8C:  MOVFF  2C3,3D3
04D90:  CLRF   xDA
04D92:  CLRF   xD9
04D94:  MOVLW  80
04D96:  MOVWF  xD8
04D98:  MOVLW  7E
04D9A:  MOVWF  xD7
04D9C:  MOVLB  0
04D9E:  CALL   2A60
04DA2:  BNC   4E14
....................                Ganancia+=Integral+0.2; 
04DA4:  MOVLB  3
04DA6:  CLRF   xE5
04DA8:  MOVFF  329,3E4
04DAC:  MOVLB  0
04DAE:  CALL   182E
04DB2:  BCF    FD8.1
04DB4:  MOVFF  03,3E7
04DB8:  MOVFF  02,3E6
04DBC:  MOVFF  01,3E5
04DC0:  MOVFF  00,3E4
04DC4:  MOVLW  CD
04DC6:  MOVLB  3
04DC8:  MOVWF  xEB
04DCA:  MOVLW  CC
04DCC:  MOVWF  xEA
04DCE:  MOVLW  4C
04DD0:  MOVWF  xE9
04DD2:  MOVLW  7C
04DD4:  MOVWF  xE8
04DD6:  MOVLB  0
04DD8:  CALL   19C2
04DDC:  BCF    FD8.1
04DDE:  MOVFF  2F8,3E7
04DE2:  MOVFF  2F7,3E6
04DE6:  MOVFF  2F6,3E5
04DEA:  MOVFF  2F5,3E4
04DEE:  MOVFF  03,3EB
04DF2:  MOVFF  02,3EA
04DF6:  MOVFF  01,3E9
04DFA:  MOVFF  00,3E8
04DFE:  CALL   19C2
04E02:  MOVFF  03,2F8
04E06:  MOVFF  02,2F7
04E0A:  MOVFF  01,2F6
04E0E:  MOVFF  00,2F5
....................             }else{ 
04E12:  BRA    4F14
....................                if(Aumento<-0.1){ 
04E14:  MOVFF  2C6,3D6
04E18:  MOVFF  2C5,3D5
04E1C:  MOVFF  2C4,3D4
04E20:  MOVFF  2C3,3D3
04E24:  MOVLW  CD
04E26:  MOVLB  3
04E28:  MOVWF  xDA
04E2A:  MOVLW  CC
04E2C:  MOVWF  xD9
04E2E:  MOVWF  xD8
04E30:  MOVLW  7B
04E32:  MOVWF  xD7
04E34:  MOVLB  0
04E36:  CALL   2A60
04E3A:  BNC   4EAC
....................                   Ganancia+=Integral-0.2; 
04E3C:  MOVLB  3
04E3E:  CLRF   xE5
04E40:  MOVFF  329,3E4
04E44:  MOVLB  0
04E46:  CALL   182E
04E4A:  BSF    FD8.1
04E4C:  MOVFF  03,3E7
04E50:  MOVFF  02,3E6
04E54:  MOVFF  01,3E5
04E58:  MOVFF  00,3E4
04E5C:  MOVLW  CD
04E5E:  MOVLB  3
04E60:  MOVWF  xEB
04E62:  MOVLW  CC
04E64:  MOVWF  xEA
04E66:  MOVLW  4C
04E68:  MOVWF  xE9
04E6A:  MOVLW  7C
04E6C:  MOVWF  xE8
04E6E:  MOVLB  0
04E70:  CALL   19C2
04E74:  BCF    FD8.1
04E76:  MOVFF  2F8,3E7
04E7A:  MOVFF  2F7,3E6
04E7E:  MOVFF  2F6,3E5
04E82:  MOVFF  2F5,3E4
04E86:  MOVFF  03,3EB
04E8A:  MOVFF  02,3EA
04E8E:  MOVFF  01,3E9
04E92:  MOVFF  00,3E8
04E96:  CALL   19C2
04E9A:  MOVFF  03,2F8
04E9E:  MOVFF  02,2F7
04EA2:  MOVFF  01,2F6
04EA6:  MOVFF  00,2F5
....................                }else{ 
04EAA:  BRA    4F14
....................                   Ganancia+=Integral-0.5; 
04EAC:  MOVLB  3
04EAE:  CLRF   xE5
04EB0:  MOVFF  329,3E4
04EB4:  MOVLB  0
04EB6:  CALL   182E
04EBA:  BSF    FD8.1
04EBC:  MOVFF  03,3E7
04EC0:  MOVFF  02,3E6
04EC4:  MOVFF  01,3E5
04EC8:  MOVFF  00,3E4
04ECC:  MOVLB  3
04ECE:  CLRF   xEB
04ED0:  CLRF   xEA
04ED2:  CLRF   xE9
04ED4:  MOVLW  7E
04ED6:  MOVWF  xE8
04ED8:  MOVLB  0
04EDA:  CALL   19C2
04EDE:  BCF    FD8.1
04EE0:  MOVFF  2F8,3E7
04EE4:  MOVFF  2F7,3E6
04EE8:  MOVFF  2F6,3E5
04EEC:  MOVFF  2F5,3E4
04EF0:  MOVFF  03,3EB
04EF4:  MOVFF  02,3EA
04EF8:  MOVFF  01,3E9
04EFC:  MOVFF  00,3E8
04F00:  CALL   19C2
04F04:  MOVFF  03,2F8
04F08:  MOVFF  02,2F7
04F0C:  MOVFF  01,2F6
04F10:  MOVFF  00,2F5
04F14:  MOVLB  3
....................                } 
....................             } 
....................          } 
....................       }else{ 
04F16:  BRA    4F1E
04F18:  MOVLB  0
....................          flagTC=0; 
04F1A:  BCF    xA4.6
04F1C:  MOVLB  3
....................       } 
....................    } 
....................     
....................    if(error<-0.3) 
04F1E:  MOVFF  2E8,3D6
04F22:  MOVFF  2E7,3D5
04F26:  MOVFF  2E6,3D4
04F2A:  MOVFF  2E5,3D3
04F2E:  MOVLW  9A
04F30:  MOVWF  xDA
04F32:  MOVLW  99
04F34:  MOVWF  xD9
04F36:  MOVWF  xD8
04F38:  MOVLW  7D
04F3A:  MOVWF  xD7
04F3C:  MOVLB  0
04F3E:  CALL   2A60
04F42:  BNC   4F54
....................    { 
....................       Ganancia=Ganancia2; 
04F44:  MOVFF  2FC,2F8
04F48:  MOVFF  2FB,2F7
04F4C:  MOVFF  2FA,2F6
04F50:  MOVFF  2F9,2F5
....................    } 
....................     
....................    if(Ganancia<1) 
04F54:  MOVFF  2F8,3D6
04F58:  MOVFF  2F7,3D5
04F5C:  MOVFF  2F6,3D4
04F60:  MOVFF  2F5,3D3
04F64:  MOVLB  3
04F66:  CLRF   xDA
04F68:  CLRF   xD9
04F6A:  CLRF   xD8
04F6C:  MOVLW  7F
04F6E:  MOVWF  xD7
04F70:  MOVLB  0
04F72:  CALL   2A60
04F76:  BNC   4F84
....................    { 
....................       Ganancia=1; 
04F78:  MOVLB  2
04F7A:  CLRF   xF8
04F7C:  CLRF   xF7
04F7E:  CLRF   xF6
04F80:  MOVLW  7F
04F82:  MOVWF  xF5
....................    } 
....................     
....................    if(error<0.0)     // Anti Wind_DOWN     
04F84:  MOVFF  2E8,3D6
04F88:  MOVFF  2E7,3D5
04F8C:  MOVFF  2E6,3D4
04F90:  MOVFF  2E5,3D3
04F94:  MOVLB  3
04F96:  CLRF   xDA
04F98:  CLRF   xD9
04F9A:  CLRF   xD8
04F9C:  CLRF   xD7
04F9E:  MOVLB  0
04FA0:  CALL   2A60
04FA4:  BNC   4FB2
....................    { 
....................       error=0.0; 
04FA6:  MOVLB  2
04FA8:  CLRF   xE8
04FAA:  CLRF   xE7
04FAC:  CLRF   xE6
04FAE:  CLRF   xE5
04FB0:  MOVLB  0
....................    } 
....................    //tmp=(Setpoint-Prom)*Ganancia;  // Control Proporcional. 
....................    tmp=error*Ganancia;  // Control Proporcional. 
04FB2:  MOVFF  2E8,3EB
04FB6:  MOVFF  2E7,3EA
04FBA:  MOVFF  2E6,3E9
04FBE:  MOVFF  2E5,3E8
04FC2:  MOVFF  2F8,3EF
04FC6:  MOVFF  2F7,3EE
04FCA:  MOVFF  2F6,3ED
04FCE:  MOVFF  2F5,3EC
04FD2:  CALL   36D6
04FD6:  MOVFF  03,2F4
04FDA:  MOVFF  02,2F3
04FDE:  MOVFF  01,2F2
04FE2:  MOVFF  00,2F1
....................           
....................    if(tmp>Setpoint)   // Anti Wind-UP       
04FE6:  MOVLB  3
04FE8:  CLRF   xE5
04FEA:  MOVFF  33E,3E4
04FEE:  MOVLB  0
04FF0:  CALL   182E
04FF4:  MOVFF  03,3D6
04FF8:  MOVFF  02,3D5
04FFC:  MOVFF  01,3D4
05000:  MOVFF  00,3D3
05004:  MOVFF  2F4,3DA
05008:  MOVFF  2F3,3D9
0500C:  MOVFF  2F2,3D8
05010:  MOVFF  2F1,3D7
05014:  CALL   2A60
05018:  BNC   5038
....................    { 
....................       tmp=Setpoint; 
0501A:  MOVLB  3
0501C:  CLRF   xE5
0501E:  MOVFF  33E,3E4
05022:  MOVLB  0
05024:  CALL   182E
05028:  MOVFF  03,2F4
0502C:  MOVFF  02,2F3
05030:  MOVFF  01,2F2
05034:  MOVFF  00,2F1
....................    } 
....................                 
....................    if(tmp<0.0)     // Anti Wind_DOWN     
05038:  MOVFF  2F4,3D6
0503C:  MOVFF  2F3,3D5
05040:  MOVFF  2F2,3D4
05044:  MOVFF  2F1,3D3
05048:  MOVLB  3
0504A:  CLRF   xDA
0504C:  CLRF   xD9
0504E:  CLRF   xD8
05050:  CLRF   xD7
05052:  MOVLB  0
05054:  CALL   2A60
05058:  BNC   5064
....................    { 
....................       tmp=0.0; 
0505A:  MOVLB  2
0505C:  CLRF   xF4
0505E:  CLRF   xF3
05060:  CLRF   xF2
05062:  CLRF   xF1
....................    } 
....................     
....................    // Tpulso(t)= Tciclo*(y(t)-ymin)/(ymax - ymin); calculo de ciclo util para control de resistencia.ymax=140.ymin=0; 
....................    // Tpulso es float, hay que pasar ese ciclo a una salida de un puerto usando el TMR1. 
....................    tmp2=(tmp/Setpoint); 
05064:  MOVLB  3
05066:  CLRF   xE5
05068:  MOVFF  33E,3E4
0506C:  MOVLB  0
0506E:  CALL   182E
05072:  MOVFF  2F4,3D7
05076:  MOVFF  2F3,3D6
0507A:  MOVFF  2F2,3D5
0507E:  MOVFF  2F1,3D4
05082:  MOVFF  03,3DB
05086:  MOVFF  02,3DA
0508A:  MOVFF  01,3D9
0508E:  MOVFF  00,3D8
05092:  CALL   1864
05096:  MOVFF  03,304
0509A:  MOVFF  02,303
0509E:  MOVFF  01,302
050A2:  MOVFF  00,301
....................    //if(tmp2>0.8) 
....................    //tmp2=0.8; 
....................    Tpulso=tmp2*Tciclo;   
050A6:  MOVFF  304,3EB
050AA:  MOVFF  303,3EA
050AE:  MOVFF  302,3E9
050B2:  MOVFF  301,3E8
050B6:  MOVFF  2E0,3EF
050BA:  MOVFF  2DF,3EE
050BE:  MOVFF  2DE,3ED
050C2:  MOVFF  2DD,3EC
050C6:  CALL   36D6
050CA:  MOVFF  03,2E4
050CE:  MOVFF  02,2E3
050D2:  MOVFF  01,2E2
050D6:  MOVFF  00,2E1
....................                                        
....................    Tp=(Tpulso/0.005); 
050DA:  MOVFF  2E4,3D7
050DE:  MOVFF  2E3,3D6
050E2:  MOVFF  2E2,3D5
050E6:  MOVFF  2E1,3D4
050EA:  MOVLW  0A
050EC:  MOVLB  3
050EE:  MOVWF  xDB
050F0:  MOVLW  D7
050F2:  MOVWF  xDA
050F4:  MOVLW  23
050F6:  MOVWF  xD9
050F8:  MOVLW  77
050FA:  MOVWF  xD8
050FC:  MOVLB  0
050FE:  CALL   1864
05102:  MOVFF  03,3E7
05106:  MOVFF  02,3E6
0510A:  MOVFF  01,3E5
0510E:  MOVFF  00,3E4
05112:  CALL   3D02
05116:  MOVFF  02,AC
0511A:  MOVFF  01,AB
....................    Tc=(Tciclo/0.005); 
0511E:  MOVFF  2E0,3D7
05122:  MOVFF  2DF,3D6
05126:  MOVFF  2DE,3D5
0512A:  MOVFF  2DD,3D4
0512E:  MOVLW  0A
05130:  MOVLB  3
05132:  MOVWF  xDB
05134:  MOVLW  D7
05136:  MOVWF  xDA
05138:  MOVLW  23
0513A:  MOVWF  xD9
0513C:  MOVLW  77
0513E:  MOVWF  xD8
05140:  MOVLB  0
05142:  CALL   1864
05146:  MOVFF  03,3E7
0514A:  MOVFF  02,3E6
0514E:  MOVFF  01,3E5
05152:  MOVFF  00,3E4
05156:  CALL   3D02
0515A:  MOVFF  02,AE
0515E:  MOVFF  01,AD
....................    Controlando=1;    
05162:  MOVLW  01
05164:  MOVLB  3
05166:  MOVWF  x2F
.................... //--------------------------------------------------------------------------------------------------------------------//    
.................... } 
05168:  MOVLB  0
0516A:  RETLW  00
....................  
.................... void Envio_I2C(direccion, posicion, dato){ 
....................  
....................    i2c_start();            // Comienzo comunicacin 
*
03F02:  BSF    F94.4
03F04:  MOVLW  05
03F06:  MOVWF  00
03F08:  DECFSZ 00,F
03F0A:  BRA    3F08
03F0C:  BSF    F94.3
03F0E:  MOVLW  06
03F10:  MOVWF  00
03F12:  DECFSZ 00,F
03F14:  BRA    3F12
03F16:  BCF    F8B.4
03F18:  BCF    F94.4
03F1A:  MOVLW  05
03F1C:  MOVWF  00
03F1E:  DECFSZ 00,F
03F20:  BRA    3F1E
03F22:  BCF    F8B.3
03F24:  BCF    F94.3
....................    i2c_write(direccion);   // Direccin del esclavo en el bus I2C 
03F26:  MOVFF  3E5,3E8
03F2A:  RCALL  3E8C
....................    i2c_write(posicion);    // Posicin donde se guardara el dato transmitido 
03F2C:  MOVFF  3E6,3E8
03F30:  RCALL  3E8C
....................    i2c_write(dato);        // Dato a transmitir 
03F32:  MOVFF  3E7,3E8
03F36:  RCALL  3E8C
....................    i2c_stop();             // Fin comunicacin 
03F38:  BCF    F94.4
03F3A:  NOP   
03F3C:  BSF    F94.3
03F3E:  BTFSS  F82.3
03F40:  BRA    3F3E
03F42:  MOVLW  05
03F44:  MOVWF  00
03F46:  DECFSZ 00,F
03F48:  BRA    3F46
03F4A:  BRA    3F4C
03F4C:  NOP   
03F4E:  BSF    F94.4
03F50:  MOVLW  05
03F52:  MOVWF  00
03F54:  DECFSZ 00,F
03F56:  BRA    3F54
....................  } 
03F58:  GOTO   3F92 (RETURN)
....................  
.................... void Lectura_I2C (byte direccion, byte posicion, byte &dato) { 
....................  
....................    i2c_start();            // Comienzo de la comunicacin 
....................    i2c_write(direccion);   // Direccin del esclavo en el bus I2C 
....................    i2c_write(posicion);    // Posicin de donde se leer el dato en el esclavo 
....................    i2c_start();            // Reinicio 
....................    i2c_write(direccion+1); // Direccin del esclavo en modo lectura 
....................    dato=i2c_read(0);       // Lectura del dato 
....................    i2c_stop();             // Fin comunicacin 
.................... } 
....................  
.................... void Carga_Vector(void){ 
....................    SlaveA0Tx[0]=(int8)Temperatura; 
*
03D3E:  MOVFF  318,3E7
03D42:  MOVFF  317,3E6
03D46:  MOVFF  316,3E5
03D4A:  MOVFF  315,3E4
03D4E:  RCALL  3D02
03D50:  MOVFF  01,64
....................    SlaveA0Tx[1]=(Temperatura-((int8)Temperatura))*10; 
03D54:  MOVFF  318,3E7
03D58:  MOVFF  317,3E6
03D5C:  MOVFF  316,3E5
03D60:  MOVFF  315,3E4
03D64:  RCALL  3D02
03D66:  MOVLB  3
03D68:  CLRF   xE5
03D6A:  MOVFF  01,3E4
03D6E:  MOVLB  0
03D70:  CALL   182E
03D74:  BSF    FD8.1
03D76:  MOVFF  318,3E7
03D7A:  MOVFF  317,3E6
03D7E:  MOVFF  316,3E5
03D82:  MOVFF  315,3E4
03D86:  MOVFF  03,3EB
03D8A:  MOVFF  02,3EA
03D8E:  MOVFF  01,3E9
03D92:  MOVFF  00,3E8
03D96:  CALL   19C2
03D9A:  MOVFF  00,3E4
03D9E:  MOVFF  01,3E5
03DA2:  MOVFF  02,3E6
03DA6:  MOVFF  03,3E7
03DAA:  MOVFF  03,3EB
03DAE:  MOVFF  02,3EA
03DB2:  MOVFF  01,3E9
03DB6:  MOVFF  00,3E8
03DBA:  MOVLB  3
03DBC:  CLRF   xEF
03DBE:  CLRF   xEE
03DC0:  MOVLW  20
03DC2:  MOVWF  xED
03DC4:  MOVLW  82
03DC6:  MOVWF  xEC
03DC8:  MOVLB  0
03DCA:  RCALL  36D6
03DCC:  MOVFF  03,3E7
03DD0:  MOVFF  02,3E6
03DD4:  MOVFF  01,3E5
03DD8:  MOVFF  00,3E4
03DDC:  RCALL  3D02
03DDE:  MOVFF  01,65
....................    SlaveA0Tx[2]=make8((int16)PresionCamara,0); 
03DE2:  MOVFF  350,66
03DE6:  MOVLB  0
....................    SlaveA0Tx[3]=make8((int16)PresionCamara,1); 
03DE8:  MOVFF  351,67
03DEC:  MOVLB  0
....................    SlaveA0Tx[4]=make8((int16)PresionPreCamara,0); 
03DEE:  MOVFF  352,68
03DF2:  MOVLB  0
....................    SlaveA0Tx[5]=make8((int16)PresionPreCamara,1); 
03DF4:  MOVFF  353,69
03DF8:  MOVLB  0
....................    SlaveA0Tx[6]=(int8)Tpulso*10; 
03DFA:  MOVFF  2E4,3E7
03DFE:  MOVFF  2E3,3E6
03E02:  MOVFF  2E2,3E5
03E06:  MOVFF  2E1,3E4
03E0A:  RCALL  3D02
03E0C:  MOVF   01,W
03E0E:  MULLW  0A
03E10:  MOVFF  FF3,6A
....................    SlaveA0Tx[7]=HIG; 
03E14:  BSF    F94.0
03E16:  CLRF   x6B
03E18:  BTFSC  F82.0
03E1A:  INCF   x6B,F
....................    SlaveA0Tx[8]=LOW; 
03E1C:  BSF    F94.1
03E1E:  CLRF   x6C
03E20:  BTFSC  F82.1
03E22:  INCF   x6C,F
....................    SlaveA0Tx[9]=TERM; 
03E24:  BSF    F93.5
03E26:  CLRF   x6D
03E28:  BTFSS  F81.5
03E2A:  INCF   x6D,F
....................    SlaveA0Tx[10]=DOOR; 
03E2C:  BSF    F93.6
03E2E:  CLRF   x6E
03E30:  BTFSS  F81.6
03E32:  INCF   x6E,F
....................    SlaveA0Tx[11]=STOP; 
03E34:  BSF    F93.7
03E36:  CLRF   x6F
03E38:  BTFSS  F81.7
03E3A:  INCF   x6F,F
....................    SlaveA0Tx[12]=(int8)error; 
03E3C:  MOVFF  2E8,3E7
03E40:  MOVFF  2E7,3E6
03E44:  MOVFF  2E6,3E5
03E48:  MOVFF  2E5,3E4
03E4C:  RCALL  3D02
03E4E:  MOVFF  01,70
....................    SlaveA0Tx[13]=CicloSeleccionado; 
03E52:  MOVFF  33D,71
....................    SlaveA0Tx[14]=SetTime; 
03E56:  MOVFF  383,72
....................    SlaveA0Tx[15]=Dia; 
03E5A:  MOVFF  377,73
....................    SlaveA0Tx[16]=Mes; 
03E5E:  MOVFF  376,74
....................    SlaveA0Tx[17]=Year; 
03E62:  MOVFF  375,75
....................    SlaveA0Tx[18]=Hora; 
03E66:  MOVFF  378,76
....................    SlaveA0Tx[19]=Minuto; 
03E6A:  MOVFF  379,77
....................    SlaveA0Tx[20]=Segundo; 
03E6E:  MOVFF  37A,78
....................    SlaveA0Tx[21]=Imprime; 
03E72:  MOVFF  384,79
....................    SlaveA0Tx[22]=Aire; 
03E76:  CLRF   x7A
03E78:  BTFSC  xA3.7
03E7A:  INCF   x7A,F
....................    SlaveA0Tx[23]=make8(Ciclos,0); 
03E7C:  MOVFF  354,7B
03E80:  MOVLB  0
....................    SlaveA0Tx[24]=make8(Ciclos,1); 
03E82:  MOVFF  355,7C
03E86:  MOVLB  0
.................... } 
03E88:  GOTO   3F5E (RETURN)
....................  
.................... void Lee_Vector(void){ 
....................    /*Dia=txbuf[0]; 
....................    Mess=txbuf[1]; 
....................    Year=txbuf[2]; 
....................    Hora=txbuf[3]; 
....................    Minuto=txbuf[4]; 
....................    Segundo=txbuf[5]; 
....................    dow=txbuf[6];*/ 
.................... } 
....................  
.................... void Envio_Esclavos(void){ 
....................    Carga_Vector(); 
*
03F5C:  BRA    3D3E
....................    for(i=0;i<25;i++) 
03F5E:  MOVLB  3
03F60:  CLRF   x3A
03F62:  MOVF   x3A,W
03F64:  SUBLW  18
03F66:  BNC   3F98
....................    { 
....................       direccion=0xB0; 
03F68:  MOVLW  B0
03F6A:  MOVLB  0
03F6C:  MOVWF  x85
....................       Envio_I2C(direccion,i,SlaveA0Tx[i]); 
03F6E:  CLRF   03
03F70:  MOVLB  3
03F72:  MOVF   x3A,W
03F74:  ADDLW  64
03F76:  MOVWF  FE9
03F78:  MOVLW  00
03F7A:  ADDWFC 03,W
03F7C:  MOVWF  FEA
03F7E:  MOVFF  FEF,3E4
03F82:  MOVFF  85,3E5
03F86:  MOVFF  33A,3E6
03F8A:  MOVFF  3E4,3E7
03F8E:  MOVLB  0
03F90:  BRA    3F02
....................    }  
03F92:  MOVLB  3
03F94:  INCF   x3A,F
03F96:  BRA    3F62
.................... } 
03F98:  MOVLB  0
03F9A:  RETLW  00
.................... void Lectura_Esclavos(void){ 
....................    //for(i=0;i<7;i++) 
....................    //{ 
....................    //   direccion=0xA0;                        //Direccin en el bus I2c 
....................    //   posicion=i;                         //Posicin de memoria a leer 
....................    //   Lectura_I2C(direccion, posicion, dato);    //Lectura por I2C 
....................    //   txbuf[i]=(int8)dato; 
....................    //} 
....................    //Lee_Vector(); 
.................... } 
....................  
.................... void LeeEEPROM(){ 
.................... //Lectura EEPROM//-------------------------- 
....................    Testerilizacionp[0]=read_eeprom(0); 
*
01C3A:  MOVFF  FF2,3CF
01C3E:  BCF    FF2.6
01C40:  BCF    FF2.7
01C42:  CLRF   FAA
01C44:  CLRF   FA9
01C46:  BCF    FA6.6
01C48:  BCF    FA6.7
01C4A:  BSF    FA6.0
01C4C:  MOVF   FA8,W
01C4E:  MOVLB  3
01C50:  BTFSC  xCF.6
01C52:  BSF    FF2.6
01C54:  BTFSC  xCF.7
01C56:  BSF    FF2.7
01C58:  MOVLB  0
01C5A:  MOVWF  xB6
....................    delay_ms(10); 
01C5C:  MOVLW  0A
01C5E:  MOVLB  3
01C60:  MOVWF  xE4
01C62:  MOVLB  0
01C64:  RCALL  1806
....................    Testerilizacionp[1]=read_eeprom(1); 
01C66:  MOVFF  FF2,3CF
01C6A:  BCF    FF2.6
01C6C:  BCF    FF2.7
01C6E:  CLRF   FAA
01C70:  MOVLW  01
01C72:  MOVWF  FA9
01C74:  BCF    FA6.6
01C76:  BCF    FA6.7
01C78:  BSF    FA6.0
01C7A:  MOVF   FA8,W
01C7C:  MOVLB  3
01C7E:  BTFSC  xCF.6
01C80:  BSF    FF2.6
01C82:  BTFSC  xCF.7
01C84:  BSF    FF2.7
01C86:  MOVLB  0
01C88:  MOVWF  xB7
....................    delay_ms(10); 
01C8A:  MOVLW  0A
01C8C:  MOVLB  3
01C8E:  MOVWF  xE4
01C90:  MOVLB  0
01C92:  RCALL  1806
....................    Testerilizacionp[2]=read_eeprom(2); 
01C94:  MOVFF  FF2,3CF
01C98:  BCF    FF2.6
01C9A:  BCF    FF2.7
01C9C:  CLRF   FAA
01C9E:  MOVLW  02
01CA0:  MOVWF  FA9
01CA2:  BCF    FA6.6
01CA4:  BCF    FA6.7
01CA6:  BSF    FA6.0
01CA8:  MOVF   FA8,W
01CAA:  MOVLB  3
01CAC:  BTFSC  xCF.6
01CAE:  BSF    FF2.6
01CB0:  BTFSC  xCF.7
01CB2:  BSF    FF2.7
01CB4:  MOVLB  0
01CB6:  MOVWF  xB8
....................    delay_ms(10); 
01CB8:  MOVLW  0A
01CBA:  MOVLB  3
01CBC:  MOVWF  xE4
01CBE:  MOVLB  0
01CC0:  RCALL  1806
....................    Testerilizacionp[3]=read_eeprom(3); 
01CC2:  MOVFF  FF2,3CF
01CC6:  BCF    FF2.6
01CC8:  BCF    FF2.7
01CCA:  CLRF   FAA
01CCC:  MOVLW  03
01CCE:  MOVWF  FA9
01CD0:  BCF    FA6.6
01CD2:  BCF    FA6.7
01CD4:  BSF    FA6.0
01CD6:  MOVF   FA8,W
01CD8:  MOVLB  3
01CDA:  BTFSC  xCF.6
01CDC:  BSF    FF2.6
01CDE:  BTFSC  xCF.7
01CE0:  BSF    FF2.7
01CE2:  MOVLB  0
01CE4:  MOVWF  xB9
....................    delay_ms(10); 
01CE6:  MOVLW  0A
01CE8:  MOVLB  3
01CEA:  MOVWF  xE4
01CEC:  MOVLB  0
01CEE:  RCALL  1806
....................    Tsecadop[0]=read_eeprom(4); 
01CF0:  MOVFF  FF2,3CF
01CF4:  BCF    FF2.6
01CF6:  BCF    FF2.7
01CF8:  CLRF   FAA
01CFA:  MOVLW  04
01CFC:  MOVWF  FA9
01CFE:  BCF    FA6.6
01D00:  BCF    FA6.7
01D02:  BSF    FA6.0
01D04:  MOVF   FA8,W
01D06:  MOVLB  3
01D08:  BTFSC  xCF.6
01D0A:  BSF    FF2.6
01D0C:  BTFSC  xCF.7
01D0E:  BSF    FF2.7
01D10:  MOVLB  0
01D12:  MOVWF  xBF
....................    delay_ms(10); 
01D14:  MOVLW  0A
01D16:  MOVLB  3
01D18:  MOVWF  xE4
01D1A:  MOVLB  0
01D1C:  RCALL  1806
....................    Tsecadop[1]=read_eeprom(5); 
01D1E:  MOVFF  FF2,3CF
01D22:  BCF    FF2.6
01D24:  BCF    FF2.7
01D26:  CLRF   FAA
01D28:  MOVLW  05
01D2A:  MOVWF  FA9
01D2C:  BCF    FA6.6
01D2E:  BCF    FA6.7
01D30:  BSF    FA6.0
01D32:  MOVF   FA8,W
01D34:  MOVLB  3
01D36:  BTFSC  xCF.6
01D38:  BSF    FF2.6
01D3A:  BTFSC  xCF.7
01D3C:  BSF    FF2.7
01D3E:  MOVLB  0
01D40:  MOVWF  xC0
....................    delay_ms(10); 
01D42:  MOVLW  0A
01D44:  MOVLB  3
01D46:  MOVWF  xE4
01D48:  MOVLB  0
01D4A:  RCALL  1806
....................    Tsecadop[2]=read_eeprom(6); 
01D4C:  MOVFF  FF2,3CF
01D50:  BCF    FF2.6
01D52:  BCF    FF2.7
01D54:  CLRF   FAA
01D56:  MOVLW  06
01D58:  MOVWF  FA9
01D5A:  BCF    FA6.6
01D5C:  BCF    FA6.7
01D5E:  BSF    FA6.0
01D60:  MOVF   FA8,W
01D62:  MOVLB  3
01D64:  BTFSC  xCF.6
01D66:  BSF    FF2.6
01D68:  BTFSC  xCF.7
01D6A:  BSF    FF2.7
01D6C:  MOVLB  0
01D6E:  MOVWF  xC1
....................    delay_ms(10); 
01D70:  MOVLW  0A
01D72:  MOVLB  3
01D74:  MOVWF  xE4
01D76:  MOVLB  0
01D78:  RCALL  1806
....................    Tsecadop[3]=read_eeprom(7); 
01D7A:  MOVFF  FF2,3CF
01D7E:  BCF    FF2.6
01D80:  BCF    FF2.7
01D82:  CLRF   FAA
01D84:  MOVLW  07
01D86:  MOVWF  FA9
01D88:  BCF    FA6.6
01D8A:  BCF    FA6.7
01D8C:  BSF    FA6.0
01D8E:  MOVF   FA8,W
01D90:  MOVLB  3
01D92:  BTFSC  xCF.6
01D94:  BSF    FF2.6
01D96:  BTFSC  xCF.7
01D98:  BSF    FF2.7
01D9A:  MOVLB  0
01D9C:  MOVWF  xC2
....................    delay_ms(10); 
01D9E:  MOVLW  0A
01DA0:  MOVLB  3
01DA2:  MOVWF  xE4
01DA4:  MOVLB  0
01DA6:  RCALL  1806
....................    Setpoint=read_eeprom(8); 
01DA8:  MOVFF  FF2,3CF
01DAC:  BCF    FF2.6
01DAE:  BCF    FF2.7
01DB0:  CLRF   FAA
01DB2:  MOVLW  08
01DB4:  MOVWF  FA9
01DB6:  BCF    FA6.6
01DB8:  BCF    FA6.7
01DBA:  BSF    FA6.0
01DBC:  MOVF   FA8,W
01DBE:  MOVLB  3
01DC0:  BTFSC  xCF.6
01DC2:  BSF    FF2.6
01DC4:  BTFSC  xCF.7
01DC6:  BSF    FF2.7
01DC8:  MOVWF  x3E
....................    delay_ms(10); 
01DCA:  MOVLW  0A
01DCC:  MOVWF  xE4
01DCE:  MOVLB  0
01DD0:  RCALL  1806
....................    Nivel=read_eeprom(9); 
01DD2:  MOVFF  FF2,3CF
01DD6:  BCF    FF2.6
01DD8:  BCF    FF2.7
01DDA:  CLRF   FAA
01DDC:  MOVLW  09
01DDE:  MOVWF  FA9
01DE0:  BCF    FA6.6
01DE2:  BCF    FA6.7
01DE4:  BSF    FA6.0
01DE6:  MOVF   FA8,W
01DE8:  MOVLB  3
01DEA:  BTFSC  xCF.6
01DEC:  BSF    FF2.6
01DEE:  BTFSC  xCF.7
01DF0:  BSF    FF2.7
01DF2:  CLRF   x4D
01DF4:  MOVWF  x4C
....................    delay_ms(10); 
01DF6:  MOVLW  0A
01DF8:  MOVWF  xE4
01DFA:  MOVLB  0
01DFC:  RCALL  1806
....................    Password[0]=read_eeprom(10); 
01DFE:  MOVFF  FF2,3CF
01E02:  BCF    FF2.6
01E04:  BCF    FF2.7
01E06:  CLRF   FAA
01E08:  MOVLW  0A
01E0A:  MOVWF  FA9
01E0C:  BCF    FA6.6
01E0E:  BCF    FA6.7
01E10:  BSF    FA6.0
01E12:  MOVF   FA8,W
01E14:  MOVLB  3
01E16:  BTFSC  xCF.6
01E18:  BSF    FF2.6
01E1A:  BTFSC  xCF.7
01E1C:  BSF    FF2.7
01E1E:  MOVWF  x62
....................    delay_ms(10); 
01E20:  MOVLW  0A
01E22:  MOVWF  xE4
01E24:  MOVLB  0
01E26:  RCALL  1806
....................    Password[1]=read_eeprom(11); 
01E28:  MOVFF  FF2,3CF
01E2C:  BCF    FF2.6
01E2E:  BCF    FF2.7
01E30:  CLRF   FAA
01E32:  MOVLW  0B
01E34:  MOVWF  FA9
01E36:  BCF    FA6.6
01E38:  BCF    FA6.7
01E3A:  BSF    FA6.0
01E3C:  MOVF   FA8,W
01E3E:  MOVLB  3
01E40:  BTFSC  xCF.6
01E42:  BSF    FF2.6
01E44:  BTFSC  xCF.7
01E46:  BSF    FF2.7
01E48:  MOVWF  x63
....................    delay_ms(10); 
01E4A:  MOVLW  0A
01E4C:  MOVWF  xE4
01E4E:  MOVLB  0
01E50:  RCALL  1806
....................    Password[2]=read_eeprom(12); 
01E52:  MOVFF  FF2,3CF
01E56:  BCF    FF2.6
01E58:  BCF    FF2.7
01E5A:  CLRF   FAA
01E5C:  MOVLW  0C
01E5E:  MOVWF  FA9
01E60:  BCF    FA6.6
01E62:  BCF    FA6.7
01E64:  BSF    FA6.0
01E66:  MOVF   FA8,W
01E68:  MOVLB  3
01E6A:  BTFSC  xCF.6
01E6C:  BSF    FF2.6
01E6E:  BTFSC  xCF.7
01E70:  BSF    FF2.7
01E72:  MOVWF  x64
....................    delay_ms(10); 
01E74:  MOVLW  0A
01E76:  MOVWF  xE4
01E78:  MOVLB  0
01E7A:  RCALL  1806
....................    Password[3]=read_eeprom(13); 
01E7C:  MOVFF  FF2,3CF
01E80:  BCF    FF2.6
01E82:  BCF    FF2.7
01E84:  CLRF   FAA
01E86:  MOVLW  0D
01E88:  MOVWF  FA9
01E8A:  BCF    FA6.6
01E8C:  BCF    FA6.7
01E8E:  BSF    FA6.0
01E90:  MOVF   FA8,W
01E92:  MOVLB  3
01E94:  BTFSC  xCF.6
01E96:  BSF    FF2.6
01E98:  BTFSC  xCF.7
01E9A:  BSF    FF2.7
01E9C:  MOVWF  x65
....................    delay_ms(10); 
01E9E:  MOVLW  0A
01EA0:  MOVWF  xE4
01EA2:  MOVLB  0
01EA4:  RCALL  1806
....................    Ganancia=read_eeprom(20); 
01EA6:  MOVFF  FF2,3CF
01EAA:  BCF    FF2.6
01EAC:  BCF    FF2.7
01EAE:  CLRF   FAA
01EB0:  MOVLW  14
01EB2:  MOVWF  FA9
01EB4:  BCF    FA6.6
01EB6:  BCF    FA6.7
01EB8:  BSF    FA6.0
01EBA:  MOVF   FA8,W
01EBC:  MOVLB  3
01EBE:  BTFSC  xCF.6
01EC0:  BSF    FF2.6
01EC2:  BTFSC  xCF.7
01EC4:  BSF    FF2.7
01EC6:  CLRF   xE5
01EC8:  MOVWF  xE4
01ECA:  MOVLB  0
01ECC:  RCALL  182E
01ECE:  MOVFF  03,2F8
01ED2:  MOVFF  02,2F7
01ED6:  MOVFF  01,2F6
01EDA:  MOVFF  00,2F5
....................    delay_ms(10); 
01EDE:  MOVLW  0A
01EE0:  MOVLB  3
01EE2:  MOVWF  xE4
01EE4:  MOVLB  0
01EE6:  RCALL  1806
....................    Ajuste=read_eeprom(21); 
01EE8:  MOVFF  FF2,3CF
01EEC:  BCF    FF2.6
01EEE:  BCF    FF2.7
01EF0:  CLRF   FAA
01EF2:  MOVLW  15
01EF4:  MOVWF  FA9
01EF6:  BCF    FA6.6
01EF8:  BCF    FA6.7
01EFA:  BSF    FA6.0
01EFC:  MOVF   FA8,W
01EFE:  MOVLB  3
01F00:  BTFSC  xCF.6
01F02:  BSF    FF2.6
01F04:  BTFSC  xCF.7
01F06:  BSF    FF2.7
01F08:  MOVLB  2
01F0A:  MOVWF  xCD
....................    delay_ms(10); 
01F0C:  MOVLW  0A
01F0E:  MOVLB  3
01F10:  MOVWF  xE4
01F12:  MOVLB  0
01F14:  RCALL  1806
....................    Ajusten=read_eeprom(22); 
01F16:  MOVFF  FF2,3CF
01F1A:  BCF    FF2.6
01F1C:  BCF    FF2.7
01F1E:  CLRF   FAA
01F20:  MOVLW  16
01F22:  MOVWF  FA9
01F24:  BCF    FA6.6
01F26:  BCF    FA6.7
01F28:  BSF    FA6.0
01F2A:  MOVF   FA8,W
01F2C:  MOVLB  3
01F2E:  BTFSC  xCF.6
01F30:  BSF    FF2.6
01F32:  BTFSC  xCF.7
01F34:  BSF    FF2.7
01F36:  MOVLB  2
01F38:  MOVWF  xCE
....................    delay_ms(10); 
01F3A:  MOVLW  0A
01F3C:  MOVLB  3
01F3E:  MOVWF  xE4
01F40:  MOVLB  0
01F42:  RCALL  1806
....................    //Desvio=read_eeprom(23); 
....................    MediaMovil=read_eeprom(24); 
01F44:  MOVFF  FF2,3CF
01F48:  BCF    FF2.6
01F4A:  BCF    FF2.7
01F4C:  CLRF   FAA
01F4E:  MOVLW  18
01F50:  MOVWF  FA9
01F52:  BCF    FA6.6
01F54:  BCF    FA6.7
01F56:  BSF    FA6.0
01F58:  MOVF   FA8,W
01F5A:  MOVLB  3
01F5C:  BTFSC  xCF.6
01F5E:  BSF    FF2.6
01F60:  BTFSC  xCF.7
01F62:  BSF    FF2.7
01F64:  MOVLB  2
01F66:  MOVWF  xCF
....................    delay_ms(10); 
01F68:  MOVLW  0A
01F6A:  MOVLB  3
01F6C:  MOVWF  xE4
01F6E:  MOVLB  0
01F70:  RCALL  1806
....................    Tciclo=read_eeprom(25); 
01F72:  MOVFF  FF2,3CF
01F76:  BCF    FF2.6
01F78:  BCF    FF2.7
01F7A:  CLRF   FAA
01F7C:  MOVLW  19
01F7E:  MOVWF  FA9
01F80:  BCF    FA6.6
01F82:  BCF    FA6.7
01F84:  BSF    FA6.0
01F86:  MOVF   FA8,W
01F88:  MOVLB  3
01F8A:  BTFSC  xCF.6
01F8C:  BSF    FF2.6
01F8E:  BTFSC  xCF.7
01F90:  BSF    FF2.7
01F92:  CLRF   xE5
01F94:  MOVWF  xE4
01F96:  MOVLB  0
01F98:  RCALL  182E
01F9A:  MOVFF  03,2E0
01F9E:  MOVFF  02,2DF
01FA2:  MOVFF  01,2DE
01FA6:  MOVFF  00,2DD
....................    delay_ms(10); 
01FAA:  MOVLW  0A
01FAC:  MOVLB  3
01FAE:  MOVWF  xE4
01FB0:  MOVLB  0
01FB2:  RCALL  1806
....................    Integral=read_eeprom(26); 
01FB4:  MOVFF  FF2,3CF
01FB8:  BCF    FF2.6
01FBA:  BCF    FF2.7
01FBC:  CLRF   FAA
01FBE:  MOVLW  1A
01FC0:  MOVWF  FA9
01FC2:  BCF    FA6.6
01FC4:  BCF    FA6.7
01FC6:  BSF    FA6.0
01FC8:  MOVF   FA8,W
01FCA:  MOVLB  3
01FCC:  BTFSC  xCF.6
01FCE:  BSF    FF2.6
01FD0:  BTFSC  xCF.7
01FD2:  BSF    FF2.7
01FD4:  MOVWF  x29
....................    delay_ms(10); 
01FD6:  MOVLW  0A
01FD8:  MOVWF  xE4
01FDA:  MOVLB  0
01FDC:  RCALL  1806
....................    Derivativo=read_eeprom(27); 
01FDE:  MOVFF  FF2,3CF
01FE2:  BCF    FF2.6
01FE4:  BCF    FF2.7
01FE6:  CLRF   FAA
01FE8:  MOVLW  1B
01FEA:  MOVWF  FA9
01FEC:  BCF    FA6.6
01FEE:  BCF    FA6.7
01FF0:  BSF    FA6.0
01FF2:  MOVF   FA8,W
01FF4:  MOVLB  3
01FF6:  BTFSC  xCF.6
01FF8:  BSF    FF2.6
01FFA:  BTFSC  xCF.7
01FFC:  BSF    FF2.7
01FFE:  MOVWF  x2A
....................    delay_ms(10); 
02000:  MOVLW  0A
02002:  MOVWF  xE4
02004:  MOVLB  0
02006:  CALL   1806
....................    Temporal=read_eeprom(29); 
0200A:  MOVFF  FF2,3CF
0200E:  BCF    FF2.6
02010:  BCF    FF2.7
02012:  CLRF   FAA
02014:  MOVLW  1D
02016:  MOVWF  FA9
02018:  BCF    FA6.6
0201A:  BCF    FA6.7
0201C:  BSF    FA6.0
0201E:  MOVF   FA8,W
02020:  MOVLB  3
02022:  BTFSC  xCF.6
02024:  BSF    FF2.6
02026:  BTFSC  xCF.7
02028:  BSF    FF2.7
0202A:  CLRF   xE5
0202C:  MOVWF  xE4
0202E:  MOVLB  0
02030:  CALL   182E
02034:  MOVFF  03,2AE
02038:  MOVFF  02,2AD
0203C:  MOVFF  01,2AC
02040:  MOVFF  00,2AB
....................    Temporal=Temporal/10.0; 
02044:  MOVFF  2AE,3D7
02048:  MOVFF  2AD,3D6
0204C:  MOVFF  2AC,3D5
02050:  MOVFF  2AB,3D4
02054:  MOVLB  3
02056:  CLRF   xDB
02058:  CLRF   xDA
0205A:  MOVLW  20
0205C:  MOVWF  xD9
0205E:  MOVLW  82
02060:  MOVWF  xD8
02062:  MOVLB  0
02064:  CALL   1864
02068:  MOVFF  03,2AE
0206C:  MOVFF  02,2AD
02070:  MOVFF  01,2AC
02074:  MOVFF  00,2AB
....................    delay_ms(10); 
02078:  MOVLW  0A
0207A:  MOVLB  3
0207C:  MOVWF  xE4
0207E:  MOVLB  0
02080:  CALL   1806
....................    Gain=read_eeprom(28)+Temporal; 
02084:  MOVFF  FF2,3CF
02088:  BCF    FF2.6
0208A:  BCF    FF2.7
0208C:  CLRF   FAA
0208E:  MOVLW  1C
02090:  MOVWF  FA9
02092:  BCF    FA6.6
02094:  BCF    FA6.7
02096:  BSF    FA6.0
02098:  MOVF   FA8,W
0209A:  MOVLB  3
0209C:  BTFSC  xCF.6
0209E:  BSF    FF2.6
020A0:  BTFSC  xCF.7
020A2:  BSF    FF2.7
020A4:  CLRF   xE5
020A6:  MOVWF  xE4
020A8:  MOVLB  0
020AA:  CALL   182E
020AE:  BCF    FD8.1
020B0:  MOVFF  03,3E7
020B4:  MOVFF  02,3E6
020B8:  MOVFF  01,3E5
020BC:  MOVFF  00,3E4
020C0:  MOVFF  2AE,3EB
020C4:  MOVFF  2AD,3EA
020C8:  MOVFF  2AC,3E9
020CC:  MOVFF  2AB,3E8
020D0:  RCALL  19C2
020D2:  MOVFF  03,2A6
020D6:  MOVFF  02,2A5
020DA:  MOVFF  01,2A4
020DE:  MOVFF  00,2A3
....................    delay_ms(10); 
020E2:  MOVLW  0A
020E4:  MOVLB  3
020E6:  MOVWF  xE4
020E8:  MOVLB  0
020EA:  CALL   1806
....................    R1=make16(read_eeprom(31),read_eeprom(30)); 
020EE:  MOVFF  FF2,3CF
020F2:  BCF    FF2.6
020F4:  BCF    FF2.7
020F6:  CLRF   FAA
020F8:  MOVLW  1F
020FA:  MOVWF  FA9
020FC:  BCF    FA6.6
020FE:  BCF    FA6.7
02100:  BSF    FA6.0
02102:  MOVF   FA8,W
02104:  MOVLB  3
02106:  BTFSC  xCF.6
02108:  BSF    FF2.6
0210A:  BTFSC  xCF.7
0210C:  BSF    FF2.7
0210E:  MOVWF  xD0
02110:  MOVFF  FF2,3D1
02114:  BCF    FF2.6
02116:  BCF    FF2.7
02118:  CLRF   FAA
0211A:  MOVLW  1E
0211C:  MOVWF  FA9
0211E:  BCF    FA6.6
02120:  BCF    FA6.7
02122:  BSF    FA6.0
02124:  MOVF   FA8,W
02126:  BTFSC  xD1.6
02128:  BSF    FF2.6
0212A:  BTFSC  xD1.7
0212C:  BSF    FF2.7
0212E:  MOVWF  xD2
02130:  MOVFF  3D0,03
02134:  MOVF   xD2,W
02136:  MOVWF  xE4
02138:  MOVFF  03,3E5
0213C:  MOVLB  0
0213E:  CALL   182E
02142:  MOVFF  03,2B2
02146:  MOVFF  02,2B1
0214A:  MOVFF  01,2B0
0214E:  MOVFF  00,2AF
....................    delay_ms(10); 
02152:  MOVLW  0A
02154:  MOVLB  3
02156:  MOVWF  xE4
02158:  MOVLB  0
0215A:  CALL   1806
....................    Temporal=read_eeprom(33); 
0215E:  MOVFF  FF2,3CF
02162:  BCF    FF2.6
02164:  BCF    FF2.7
02166:  CLRF   FAA
02168:  MOVLW  21
0216A:  MOVWF  FA9
0216C:  BCF    FA6.6
0216E:  BCF    FA6.7
02170:  BSF    FA6.0
02172:  MOVF   FA8,W
02174:  MOVLB  3
02176:  BTFSC  xCF.6
02178:  BSF    FF2.6
0217A:  BTFSC  xCF.7
0217C:  BSF    FF2.7
0217E:  CLRF   xE5
02180:  MOVWF  xE4
02182:  MOVLB  0
02184:  CALL   182E
02188:  MOVFF  03,2AE
0218C:  MOVFF  02,2AD
02190:  MOVFF  01,2AC
02194:  MOVFF  00,2AB
....................    Temporal=Temporal/10.0; 
02198:  MOVFF  2AE,3D7
0219C:  MOVFF  2AD,3D6
021A0:  MOVFF  2AC,3D5
021A4:  MOVFF  2AB,3D4
021A8:  MOVLB  3
021AA:  CLRF   xDB
021AC:  CLRF   xDA
021AE:  MOVLW  20
021B0:  MOVWF  xD9
021B2:  MOVLW  82
021B4:  MOVWF  xD8
021B6:  MOVLB  0
021B8:  CALL   1864
021BC:  MOVFF  03,2AE
021C0:  MOVFF  02,2AD
021C4:  MOVFF  01,2AC
021C8:  MOVFF  00,2AB
....................    delay_ms(10); 
021CC:  MOVLW  0A
021CE:  MOVLB  3
021D0:  MOVWF  xE4
021D2:  MOVLB  0
021D4:  CALL   1806
....................    RPT100=read_eeprom(32)+Temporal; 
021D8:  MOVFF  FF2,3CF
021DC:  BCF    FF2.6
021DE:  BCF    FF2.7
021E0:  CLRF   FAA
021E2:  MOVLW  20
021E4:  MOVWF  FA9
021E6:  BCF    FA6.6
021E8:  BCF    FA6.7
021EA:  BSF    FA6.0
021EC:  MOVF   FA8,W
021EE:  MOVLB  3
021F0:  BTFSC  xCF.6
021F2:  BSF    FF2.6
021F4:  BTFSC  xCF.7
021F6:  BSF    FF2.7
021F8:  CLRF   xE5
021FA:  MOVWF  xE4
021FC:  MOVLB  0
021FE:  CALL   182E
02202:  BCF    FD8.1
02204:  MOVFF  03,3E7
02208:  MOVFF  02,3E6
0220C:  MOVFF  01,3E5
02210:  MOVFF  00,3E4
02214:  MOVFF  2AE,3EB
02218:  MOVFF  2AD,3EA
0221C:  MOVFF  2AC,3E9
02220:  MOVFF  2AB,3E8
02224:  CALL   19C2
02228:  MOVFF  03,2AA
0222C:  MOVFF  02,2A9
02230:  MOVFF  01,2A8
02234:  MOVFF  00,2A7
....................    delay_ms(10); 
02238:  MOVLW  0A
0223A:  MOVLB  3
0223C:  MOVWF  xE4
0223E:  MOVLB  0
02240:  CALL   1806
....................    CiclosL=read_eeprom(37); 
02244:  MOVFF  FF2,3CF
02248:  BCF    FF2.6
0224A:  BCF    FF2.7
0224C:  CLRF   FAA
0224E:  MOVLW  25
02250:  MOVWF  FA9
02252:  BCF    FA6.6
02254:  BCF    FA6.7
02256:  BSF    FA6.0
02258:  MOVF   FA8,W
0225A:  MOVLB  3
0225C:  BTFSC  xCF.6
0225E:  BSF    FF2.6
02260:  BTFSC  xCF.7
02262:  BSF    FF2.7
02264:  MOVWF  x3B
....................    delay_ms(10); 
02266:  MOVLW  0A
02268:  MOVWF  xE4
0226A:  MOVLB  0
0226C:  CALL   1806
....................    CiclosH=read_eeprom(38); 
02270:  MOVFF  FF2,3CF
02274:  BCF    FF2.6
02276:  BCF    FF2.7
02278:  CLRF   FAA
0227A:  MOVLW  26
0227C:  MOVWF  FA9
0227E:  BCF    FA6.6
02280:  BCF    FA6.7
02282:  BSF    FA6.0
02284:  MOVF   FA8,W
02286:  MOVLB  3
02288:  BTFSC  xCF.6
0228A:  BSF    FF2.6
0228C:  BTFSC  xCF.7
0228E:  BSF    FF2.7
02290:  MOVWF  x3C
....................    delay_ms(10); 
02292:  MOVLW  0A
02294:  MOVWF  xE4
02296:  MOVLB  0
02298:  CALL   1806
....................    Ciclos=make16(CiclosH,CiclosL); 
0229C:  MOVFF  33C,355
022A0:  MOVFF  33B,354
....................    delay_ms(10); 
022A4:  MOVLW  0A
022A6:  MOVLB  3
022A8:  MOVWF  xE4
022AA:  MOVLB  0
022AC:  CALL   1806
....................    TTrampa=read_eeprom(39); 
022B0:  MOVFF  FF2,3CF
022B4:  BCF    FF2.6
022B6:  BCF    FF2.7
022B8:  CLRF   FAA
022BA:  MOVLW  27
022BC:  MOVWF  FA9
022BE:  BCF    FA6.6
022C0:  BCF    FA6.7
022C2:  BSF    FA6.0
022C4:  MOVF   FA8,W
022C6:  MOVLB  3
022C8:  BTFSC  xCF.6
022CA:  BSF    FF2.6
022CC:  BTFSC  xCF.7
022CE:  BSF    FF2.7
022D0:  MOVLB  2
022D2:  MOVWF  xD0
....................    delay_ms(10); 
022D4:  MOVLW  0A
022D6:  MOVLB  3
022D8:  MOVWF  xE4
022DA:  MOVLB  0
022DC:  CALL   1806
....................    ActivaImpresion=read_eeprom(40); 
022E0:  MOVFF  FF2,3CF
022E4:  BCF    FF2.6
022E6:  BCF    FF2.7
022E8:  CLRF   FAA
022EA:  MOVLW  28
022EC:  MOVWF  FA9
022EE:  BCF    FA6.6
022F0:  BCF    FA6.7
022F2:  BSF    FA6.0
022F4:  MOVF   FA8,W
022F6:  MOVLB  3
022F8:  BTFSC  xCF.6
022FA:  BSF    FF2.6
022FC:  BTFSC  xCF.7
022FE:  BSF    FF2.7
02300:  MOVWF  x30
....................    delay_ms(10); 
02302:  MOVLW  0A
02304:  MOVWF  xE4
02306:  MOVLB  0
02308:  CALL   1806
....................    timpresion=read_eeprom(41); 
0230C:  MOVFF  FF2,3CF
02310:  BCF    FF2.6
02312:  BCF    FF2.7
02314:  CLRF   FAA
02316:  MOVLW  29
02318:  MOVWF  FA9
0231A:  BCF    FA6.6
0231C:  BCF    FA6.7
0231E:  BSF    FA6.0
02320:  MOVF   FA8,W
02322:  MOVLB  3
02324:  BTFSC  xCF.6
02326:  BSF    FF2.6
02328:  BTFSC  xCF.7
0232A:  BSF    FF2.7
0232C:  MOVWF  x31
....................    delay_ms(10); 
0232E:  MOVLW  0A
02330:  MOVWF  xE4
02332:  MOVLB  0
02334:  CALL   1806
....................    G1=read_eeprom(42); 
02338:  MOVFF  FF2,3CF
0233C:  BCF    FF2.6
0233E:  BCF    FF2.7
02340:  CLRF   FAA
02342:  MOVLW  2A
02344:  MOVWF  FA9
02346:  BCF    FA6.6
02348:  BCF    FA6.7
0234A:  BSF    FA6.0
0234C:  MOVF   FA8,W
0234E:  MOVLB  3
02350:  BTFSC  xCF.6
02352:  BSF    FF2.6
02354:  BTFSC  xCF.7
02356:  BSF    FF2.7
02358:  MOVWF  x85
....................    delay_ms(10); 
0235A:  MOVLW  0A
0235C:  MOVWF  xE4
0235E:  MOVLB  0
02360:  CALL   1806
....................    G2=read_eeprom(43); 
02364:  MOVFF  FF2,3CF
02368:  BCF    FF2.6
0236A:  BCF    FF2.7
0236C:  CLRF   FAA
0236E:  MOVLW  2B
02370:  MOVWF  FA9
02372:  BCF    FA6.6
02374:  BCF    FA6.7
02376:  BSF    FA6.0
02378:  MOVF   FA8,W
0237A:  MOVLB  3
0237C:  BTFSC  xCF.6
0237E:  BSF    FF2.6
02380:  BTFSC  xCF.7
02382:  BSF    FF2.7
02384:  MOVWF  x86
....................    delay_ms(10); 
02386:  MOVLW  0A
02388:  MOVWF  xE4
0238A:  MOVLB  0
0238C:  CALL   1806
....................    sg1=read_eeprom(44); 
02390:  MOVFF  FF2,3CF
02394:  BCF    FF2.6
02396:  BCF    FF2.7
02398:  CLRF   FAA
0239A:  MOVLW  2C
0239C:  MOVWF  FA9
0239E:  BCF    FA6.6
023A0:  BCF    FA6.7
023A2:  BSF    FA6.0
023A4:  MOVF   FA8,W
023A6:  MOVLB  3
023A8:  BTFSC  xCF.6
023AA:  BSF    FF2.6
023AC:  BTFSC  xCF.7
023AE:  BSF    FF2.7
023B0:  MOVWF  x87
....................    delay_ms(10); 
023B2:  MOVLW  0A
023B4:  MOVWF  xE4
023B6:  MOVLB  0
023B8:  CALL   1806
....................    sg2=read_eeprom(45); 
023BC:  MOVFF  FF2,3CF
023C0:  BCF    FF2.6
023C2:  BCF    FF2.7
023C4:  CLRF   FAA
023C6:  MOVLW  2D
023C8:  MOVWF  FA9
023CA:  BCF    FA6.6
023CC:  BCF    FA6.7
023CE:  BSF    FA6.0
023D0:  MOVF   FA8,W
023D2:  MOVLB  3
023D4:  BTFSC  xCF.6
023D6:  BSF    FF2.6
023D8:  BTFSC  xCF.7
023DA:  BSF    FF2.7
023DC:  MOVWF  x88
....................    tsecados=make16(read_eeprom(47),read_eeprom(46)); 
023DE:  MOVFF  FF2,3CF
023E2:  BCF    FF2.6
023E4:  BCF    FF2.7
023E6:  CLRF   FAA
023E8:  MOVLW  2F
023EA:  MOVWF  FA9
023EC:  BCF    FA6.6
023EE:  BCF    FA6.7
023F0:  BSF    FA6.0
023F2:  MOVF   FA8,W
023F4:  BTFSC  xCF.6
023F6:  BSF    FF2.6
023F8:  BTFSC  xCF.7
023FA:  BSF    FF2.7
023FC:  MOVWF  xD0
023FE:  MOVFF  FF2,3D1
02402:  BCF    FF2.6
02404:  BCF    FF2.7
02406:  CLRF   FAA
02408:  MOVLW  2E
0240A:  MOVWF  FA9
0240C:  BCF    FA6.6
0240E:  BCF    FA6.7
02410:  BSF    FA6.0
02412:  MOVF   FA8,W
02414:  BTFSC  xD1.6
02416:  BSF    FF2.6
02418:  BTFSC  xD1.7
0241A:  BSF    FF2.7
0241C:  MOVWF  xD2
0241E:  MOVFF  3D0,B0
02422:  MOVFF  3D2,AF
....................    delay_ms(10); 
02426:  MOVLW  0A
02428:  MOVWF  xE4
0242A:  MOVLB  0
0242C:  CALL   1806
....................     
....................    for(i=0;i<4;i++){//Lee valores almacenados de ciclos personalizados 
02430:  MOVLB  3
02432:  CLRF   x3A
02434:  MOVF   x3A,W
02436:  SUBLW  03
02438:  BTFSS  FD8.0
0243A:  BRA    2974
....................       CiclosPersonalizados[i].Temperatura=read_eeprom(100+(i*8));  
0243C:  MOVF   x3A,W
0243E:  MULLW  0A
02440:  MOVF   FF3,W
02442:  CLRF   xD0
02444:  MOVWF  xCF
02446:  MOVLW  A7
02448:  ADDWF  xCF,W
0244A:  MOVWF  FE9
0244C:  MOVLW  03
0244E:  ADDWFC xD0,W
02450:  MOVWF  FEA
02452:  MOVF   x3A,W
02454:  MULLW  08
02456:  MOVF   FF3,W
02458:  ADDLW  64
0245A:  MOVWF  xD1
0245C:  MOVFF  FF2,3D2
02460:  BCF    FF2.6
02462:  BCF    FF2.7
02464:  CLRF   FAA
02466:  MOVFF  3D1,FA9
0246A:  BCF    FA6.6
0246C:  BCF    FA6.7
0246E:  BSF    FA6.0
02470:  MOVF   FA8,W
02472:  BTFSC  xD2.6
02474:  BSF    FF2.6
02476:  BTFSC  xD2.7
02478:  BSF    FF2.7
0247A:  MOVWF  FEF
....................       CiclosPersonalizados[i].MinutoestH=read_eeprom(101+(i*8));  
0247C:  MOVF   x3A,W
0247E:  MULLW  0A
02480:  MOVF   FF3,W
02482:  CLRF   xD0
02484:  MOVWF  xCF
02486:  MOVLW  01
02488:  ADDWF  xCF,W
0248A:  MOVWF  01
0248C:  MOVLW  00
0248E:  ADDWFC xD0,W
02490:  MOVWF  03
02492:  MOVF   01,W
02494:  ADDLW  A7
02496:  MOVWF  FE9
02498:  MOVLW  03
0249A:  ADDWFC 03,W
0249C:  MOVWF  FEA
0249E:  MOVF   x3A,W
024A0:  MULLW  08
024A2:  MOVF   FF3,W
024A4:  ADDLW  65
024A6:  MOVWF  xD1
024A8:  MOVFF  FF2,3D2
024AC:  BCF    FF2.6
024AE:  BCF    FF2.7
024B0:  CLRF   FAA
024B2:  MOVFF  3D1,FA9
024B6:  BCF    FA6.6
024B8:  BCF    FA6.7
024BA:  BSF    FA6.0
024BC:  MOVF   FA8,W
024BE:  BTFSC  xD2.6
024C0:  BSF    FF2.6
024C2:  BTFSC  xD2.7
024C4:  BSF    FF2.7
024C6:  MOVWF  FEF
....................       CiclosPersonalizados[i].Minutoest=read_eeprom(102+(i*8));  
024C8:  MOVF   x3A,W
024CA:  MULLW  0A
024CC:  MOVF   FF3,W
024CE:  CLRF   xD0
024D0:  MOVWF  xCF
024D2:  MOVLW  09
024D4:  ADDWF  xCF,W
024D6:  MOVWF  01
024D8:  MOVLW  00
024DA:  ADDWFC xD0,W
024DC:  MOVWF  03
024DE:  MOVF   01,W
024E0:  ADDLW  A7
024E2:  MOVWF  FE9
024E4:  MOVLW  03
024E6:  ADDWFC 03,W
024E8:  MOVWF  FEA
024EA:  MOVF   x3A,W
024EC:  MULLW  08
024EE:  MOVF   FF3,W
024F0:  ADDLW  66
024F2:  MOVWF  xD1
024F4:  MOVFF  FF2,3D2
024F8:  BCF    FF2.6
024FA:  BCF    FF2.7
024FC:  CLRF   FAA
024FE:  MOVFF  3D1,FA9
02502:  BCF    FA6.6
02504:  BCF    FA6.7
02506:  BSF    FA6.0
02508:  MOVF   FA8,W
0250A:  BTFSC  xD2.6
0250C:  BSF    FF2.6
0250E:  BTFSC  xD2.7
02510:  BSF    FF2.7
02512:  MOVWF  FEF
....................       CiclosPersonalizados[i].Segundoest=read_eeprom(103+(i*8));  
02514:  MOVF   x3A,W
02516:  MULLW  0A
02518:  MOVF   FF3,W
0251A:  CLRF   xD0
0251C:  MOVWF  xCF
0251E:  MOVLW  03
02520:  ADDWF  xCF,W
02522:  MOVWF  01
02524:  MOVLW  00
02526:  ADDWFC xD0,W
02528:  MOVWF  03
0252A:  MOVF   01,W
0252C:  ADDLW  A7
0252E:  MOVWF  FE9
02530:  MOVLW  03
02532:  ADDWFC 03,W
02534:  MOVWF  FEA
02536:  MOVF   x3A,W
02538:  MULLW  08
0253A:  MOVF   FF3,W
0253C:  ADDLW  67
0253E:  MOVWF  xD1
02540:  MOVFF  FF2,3D2
02544:  BCF    FF2.6
02546:  BCF    FF2.7
02548:  CLRF   FAA
0254A:  MOVFF  3D1,FA9
0254E:  BCF    FA6.6
02550:  BCF    FA6.7
02552:  BSF    FA6.0
02554:  MOVF   FA8,W
02556:  BTFSC  xD2.6
02558:  BSF    FF2.6
0255A:  BTFSC  xD2.7
0255C:  BSF    FF2.7
0255E:  MOVWF  FEF
....................       CiclosPersonalizados[i].Minutosec=read_eeprom(104+(i*8));  
02560:  MOVF   x3A,W
02562:  MULLW  0A
02564:  MOVF   FF3,W
02566:  CLRF   xD0
02568:  MOVWF  xCF
0256A:  MOVLW  04
0256C:  ADDWF  xCF,W
0256E:  MOVWF  01
02570:  MOVLW  00
02572:  ADDWFC xD0,W
02574:  MOVWF  03
02576:  MOVF   01,W
02578:  ADDLW  A7
0257A:  MOVWF  FE9
0257C:  MOVLW  03
0257E:  ADDWFC 03,W
02580:  MOVWF  FEA
02582:  MOVF   x3A,W
02584:  MULLW  08
02586:  MOVF   FF3,W
02588:  ADDLW  68
0258A:  MOVWF  xD1
0258C:  MOVFF  FF2,3D2
02590:  BCF    FF2.6
02592:  BCF    FF2.7
02594:  CLRF   FAA
02596:  MOVFF  3D1,FA9
0259A:  BCF    FA6.6
0259C:  BCF    FA6.7
0259E:  BSF    FA6.0
025A0:  MOVF   FA8,W
025A2:  BTFSC  xD2.6
025A4:  BSF    FF2.6
025A6:  BTFSC  xD2.7
025A8:  BSF    FF2.7
025AA:  MOVWF  FEF
....................       CiclosPersonalizados[i].Segundosec=read_eeprom(105+(i*8));  
025AC:  MOVF   x3A,W
025AE:  MULLW  0A
025B0:  MOVF   FF3,W
025B2:  CLRF   xD0
025B4:  MOVWF  xCF
025B6:  MOVLW  05
025B8:  ADDWF  xCF,W
025BA:  MOVWF  01
025BC:  MOVLW  00
025BE:  ADDWFC xD0,W
025C0:  MOVWF  03
025C2:  MOVF   01,W
025C4:  ADDLW  A7
025C6:  MOVWF  FE9
025C8:  MOVLW  03
025CA:  ADDWFC 03,W
025CC:  MOVWF  FEA
025CE:  MOVF   x3A,W
025D0:  MULLW  08
025D2:  MOVF   FF3,W
025D4:  ADDLW  69
025D6:  MOVWF  xD1
025D8:  MOVFF  FF2,3D2
025DC:  BCF    FF2.6
025DE:  BCF    FF2.7
025E0:  CLRF   FAA
025E2:  MOVFF  3D1,FA9
025E6:  BCF    FA6.6
025E8:  BCF    FA6.7
025EA:  BSF    FA6.0
025EC:  MOVF   FA8,W
025EE:  BTFSC  xD2.6
025F0:  BSF    FF2.6
025F2:  BTFSC  xD2.7
025F4:  BSF    FF2.7
025F6:  MOVWF  FEF
....................       CiclosPersonalizados[i].PulsosVacio=read_eeprom(106+(i*8));  
025F8:  MOVF   x3A,W
025FA:  MULLW  0A
025FC:  MOVF   FF3,W
025FE:  CLRF   xD0
02600:  MOVWF  xCF
02602:  MOVLW  06
02604:  ADDWF  xCF,W
02606:  MOVWF  01
02608:  MOVLW  00
0260A:  ADDWFC xD0,W
0260C:  MOVWF  03
0260E:  MOVF   01,W
02610:  ADDLW  A7
02612:  MOVWF  FE9
02614:  MOVLW  03
02616:  ADDWFC 03,W
02618:  MOVWF  FEA
0261A:  MOVF   x3A,W
0261C:  MULLW  08
0261E:  MOVF   FF3,W
02620:  ADDLW  6A
02622:  MOVWF  xD1
02624:  MOVFF  FF2,3D2
02628:  BCF    FF2.6
0262A:  BCF    FF2.7
0262C:  CLRF   FAA
0262E:  MOVFF  3D1,FA9
02632:  BCF    FA6.6
02634:  BCF    FA6.7
02636:  BSF    FA6.0
02638:  MOVF   FA8,W
0263A:  BTFSC  xD2.6
0263C:  BSF    FF2.6
0263E:  BTFSC  xD2.7
02640:  BSF    FF2.7
02642:  MOVWF  FEF
....................       CiclosPersonalizados[i].NivelDesfogue=read_eeprom(107+(i*8));  
02644:  MOVF   x3A,W
02646:  MULLW  0A
02648:  MOVF   FF3,W
0264A:  CLRF   xD0
0264C:  MOVWF  xCF
0264E:  MOVLW  08
02650:  ADDWF  xCF,W
02652:  MOVWF  01
02654:  MOVLW  00
02656:  ADDWFC xD0,W
02658:  MOVWF  03
0265A:  MOVF   01,W
0265C:  ADDLW  A7
0265E:  MOVWF  FE9
02660:  MOVLW  03
02662:  ADDWFC 03,W
02664:  MOVWF  FEA
02666:  MOVF   x3A,W
02668:  MULLW  08
0266A:  MOVF   FF3,W
0266C:  ADDLW  6B
0266E:  MOVWF  xD1
02670:  MOVFF  FF2,3D2
02674:  BCF    FF2.6
02676:  BCF    FF2.7
02678:  CLRF   FAA
0267A:  MOVFF  3D1,FA9
0267E:  BCF    FA6.6
02680:  BCF    FA6.7
02682:  BSF    FA6.0
02684:  MOVF   FA8,W
02686:  BTFSC  xD2.6
02688:  BSF    FF2.6
0268A:  BTFSC  xD2.7
0268C:  BSF    FF2.7
0268E:  MOVWF  FEF
....................        
....................       if(CiclosPersonalizados[i].Temperatura>134 || CiclosPersonalizados[i].Temperatura<105) 
02690:  MOVF   x3A,W
02692:  MULLW  0A
02694:  MOVF   FF3,W
02696:  CLRF   xD0
02698:  MOVWF  xCF
0269A:  MOVLW  A7
0269C:  ADDWF  xCF,W
0269E:  MOVWF  FE9
026A0:  MOVLW  03
026A2:  ADDWFC xD0,W
026A4:  MOVWF  FEA
026A6:  MOVF   FEF,W
026A8:  SUBLW  86
026AA:  BNC   26C8
026AC:  MOVF   x3A,W
026AE:  MULLW  0A
026B0:  MOVF   FF3,W
026B2:  CLRF   xD0
026B4:  MOVWF  xCF
026B6:  MOVLW  A7
026B8:  ADDWF  xCF,W
026BA:  MOVWF  FE9
026BC:  MOVLW  03
026BE:  ADDWFC xD0,W
026C0:  MOVWF  FEA
026C2:  MOVF   FEF,W
026C4:  SUBLW  68
026C6:  BNC   26E2
....................          CiclosPersonalizados[i].Temperatura=121; 
026C8:  MOVF   x3A,W
026CA:  MULLW  0A
026CC:  MOVF   FF3,W
026CE:  CLRF   xD0
026D0:  MOVWF  xCF
026D2:  MOVLW  A7
026D4:  ADDWF  xCF,W
026D6:  MOVWF  FE9
026D8:  MOVLW  03
026DA:  ADDWFC xD0,W
026DC:  MOVWF  FEA
026DE:  MOVLW  79
026E0:  MOVWF  FEF
....................       if(CiclosPersonalizados[i].Minutoest>59) 
026E2:  MOVF   x3A,W
026E4:  MULLW  0A
026E6:  MOVF   FF3,W
026E8:  CLRF   xD0
026EA:  MOVWF  xCF
026EC:  MOVLW  09
026EE:  ADDWF  xCF,W
026F0:  MOVWF  01
026F2:  MOVLW  00
026F4:  ADDWFC xD0,W
026F6:  MOVWF  03
026F8:  MOVF   01,W
026FA:  ADDLW  A7
026FC:  MOVWF  FE9
026FE:  MOVLW  03
02700:  ADDWFC 03,W
02702:  MOVWF  FEA
02704:  MOVF   FEF,W
02706:  SUBLW  3B
02708:  BC    272E
....................          CiclosPersonalizados[i].Minutoest=0; 
0270A:  MOVF   x3A,W
0270C:  MULLW  0A
0270E:  MOVF   FF3,W
02710:  CLRF   xD0
02712:  MOVWF  xCF
02714:  MOVLW  09
02716:  ADDWF  xCF,W
02718:  MOVWF  01
0271A:  MOVLW  00
0271C:  ADDWFC xD0,W
0271E:  MOVWF  03
02720:  MOVF   01,W
02722:  ADDLW  A7
02724:  MOVWF  FE9
02726:  MOVLW  03
02728:  ADDWFC 03,W
0272A:  MOVWF  FEA
0272C:  CLRF   FEF
....................       if(CiclosPersonalizados[i].Segundoest>59) 
0272E:  MOVF   x3A,W
02730:  MULLW  0A
02732:  MOVF   FF3,W
02734:  CLRF   xD0
02736:  MOVWF  xCF
02738:  MOVLW  03
0273A:  ADDWF  xCF,W
0273C:  MOVWF  01
0273E:  MOVLW  00
02740:  ADDWFC xD0,W
02742:  MOVWF  03
02744:  MOVF   01,W
02746:  ADDLW  A7
02748:  MOVWF  FE9
0274A:  MOVLW  03
0274C:  ADDWFC 03,W
0274E:  MOVWF  FEA
02750:  MOVF   FEF,W
02752:  SUBLW  3B
02754:  BC    277A
....................          CiclosPersonalizados[i].Segundoest=0; 
02756:  MOVF   x3A,W
02758:  MULLW  0A
0275A:  MOVF   FF3,W
0275C:  CLRF   xD0
0275E:  MOVWF  xCF
02760:  MOVLW  03
02762:  ADDWF  xCF,W
02764:  MOVWF  01
02766:  MOVLW  00
02768:  ADDWFC xD0,W
0276A:  MOVWF  03
0276C:  MOVF   01,W
0276E:  ADDLW  A7
02770:  MOVWF  FE9
02772:  MOVLW  03
02774:  ADDWFC 03,W
02776:  MOVWF  FEA
02778:  CLRF   FEF
....................       if(CiclosPersonalizados[i].Minutosec>59) 
0277A:  MOVF   x3A,W
0277C:  MULLW  0A
0277E:  MOVF   FF3,W
02780:  CLRF   xD0
02782:  MOVWF  xCF
02784:  MOVLW  04
02786:  ADDWF  xCF,W
02788:  MOVWF  01
0278A:  MOVLW  00
0278C:  ADDWFC xD0,W
0278E:  MOVWF  03
02790:  MOVF   01,W
02792:  ADDLW  A7
02794:  MOVWF  FE9
02796:  MOVLW  03
02798:  ADDWFC 03,W
0279A:  MOVWF  FEA
0279C:  MOVF   FEF,W
0279E:  SUBLW  3B
027A0:  BC    27C6
....................          CiclosPersonalizados[i].Minutosec=0;    
027A2:  MOVF   x3A,W
027A4:  MULLW  0A
027A6:  MOVF   FF3,W
027A8:  CLRF   xD0
027AA:  MOVWF  xCF
027AC:  MOVLW  04
027AE:  ADDWF  xCF,W
027B0:  MOVWF  01
027B2:  MOVLW  00
027B4:  ADDWFC xD0,W
027B6:  MOVWF  03
027B8:  MOVF   01,W
027BA:  ADDLW  A7
027BC:  MOVWF  FE9
027BE:  MOVLW  03
027C0:  ADDWFC 03,W
027C2:  MOVWF  FEA
027C4:  CLRF   FEF
....................       if(CiclosPersonalizados[i].Segundoest>59) 
027C6:  MOVF   x3A,W
027C8:  MULLW  0A
027CA:  MOVF   FF3,W
027CC:  CLRF   xD0
027CE:  MOVWF  xCF
027D0:  MOVLW  03
027D2:  ADDWF  xCF,W
027D4:  MOVWF  01
027D6:  MOVLW  00
027D8:  ADDWFC xD0,W
027DA:  MOVWF  03
027DC:  MOVF   01,W
027DE:  ADDLW  A7
027E0:  MOVWF  FE9
027E2:  MOVLW  03
027E4:  ADDWFC 03,W
027E6:  MOVWF  FEA
027E8:  MOVF   FEF,W
027EA:  SUBLW  3B
027EC:  BC    2812
....................          CiclosPersonalizados[i].Segundoest=0; 
027EE:  MOVF   x3A,W
027F0:  MULLW  0A
027F2:  MOVF   FF3,W
027F4:  CLRF   xD0
027F6:  MOVWF  xCF
027F8:  MOVLW  03
027FA:  ADDWF  xCF,W
027FC:  MOVWF  01
027FE:  MOVLW  00
02800:  ADDWFC xD0,W
02802:  MOVWF  03
02804:  MOVF   01,W
02806:  ADDLW  A7
02808:  MOVWF  FE9
0280A:  MOVLW  03
0280C:  ADDWFC 03,W
0280E:  MOVWF  FEA
02810:  CLRF   FEF
....................       if(CiclosPersonalizados[i].Segundosec>59) 
02812:  MOVF   x3A,W
02814:  MULLW  0A
02816:  MOVF   FF3,W
02818:  CLRF   xD0
0281A:  MOVWF  xCF
0281C:  MOVLW  05
0281E:  ADDWF  xCF,W
02820:  MOVWF  01
02822:  MOVLW  00
02824:  ADDWFC xD0,W
02826:  MOVWF  03
02828:  MOVF   01,W
0282A:  ADDLW  A7
0282C:  MOVWF  FE9
0282E:  MOVLW  03
02830:  ADDWFC 03,W
02832:  MOVWF  FEA
02834:  MOVF   FEF,W
02836:  SUBLW  3B
02838:  BC    285E
....................          CiclosPersonalizados[i].Segundosec=0;       
0283A:  MOVF   x3A,W
0283C:  MULLW  0A
0283E:  MOVF   FF3,W
02840:  CLRF   xD0
02842:  MOVWF  xCF
02844:  MOVLW  05
02846:  ADDWF  xCF,W
02848:  MOVWF  01
0284A:  MOVLW  00
0284C:  ADDWFC xD0,W
0284E:  MOVWF  03
02850:  MOVF   01,W
02852:  ADDLW  A7
02854:  MOVWF  FE9
02856:  MOVLW  03
02858:  ADDWFC 03,W
0285A:  MOVWF  FEA
0285C:  CLRF   FEF
....................       if(CiclosPersonalizados[i].PulsosVacio>15) 
0285E:  MOVF   x3A,W
02860:  MULLW  0A
02862:  MOVF   FF3,W
02864:  CLRF   xD0
02866:  MOVWF  xCF
02868:  MOVLW  06
0286A:  ADDWF  xCF,W
0286C:  MOVWF  01
0286E:  MOVLW  00
02870:  ADDWFC xD0,W
02872:  MOVWF  03
02874:  MOVF   01,W
02876:  ADDLW  A7
02878:  MOVWF  FE9
0287A:  MOVLW  03
0287C:  ADDWFC 03,W
0287E:  MOVWF  FEA
02880:  MOVF   FEF,W
02882:  SUBLW  0F
02884:  BC    28AC
....................          CiclosPersonalizados[i].PulsosVacio=4; 
02886:  MOVF   x3A,W
02888:  MULLW  0A
0288A:  MOVF   FF3,W
0288C:  CLRF   xD0
0288E:  MOVWF  xCF
02890:  MOVLW  06
02892:  ADDWF  xCF,W
02894:  MOVWF  01
02896:  MOVLW  00
02898:  ADDWFC xD0,W
0289A:  MOVWF  03
0289C:  MOVF   01,W
0289E:  ADDLW  A7
028A0:  MOVWF  FE9
028A2:  MOVLW  03
028A4:  ADDWFC 03,W
028A6:  MOVWF  FEA
028A8:  MOVLW  04
028AA:  MOVWF  FEF
....................       if(CiclosPersonalizados[i].NivelVacio>100 || CiclosPersonalizados[i].NivelVacio<10) 
028AC:  MOVF   x3A,W
028AE:  MULLW  0A
028B0:  MOVF   FF3,W
028B2:  CLRF   xD0
028B4:  MOVWF  xCF
028B6:  MOVLW  07
028B8:  ADDWF  xCF,W
028BA:  MOVWF  01
028BC:  MOVLW  00
028BE:  ADDWFC xD0,W
028C0:  MOVWF  03
028C2:  MOVF   01,W
028C4:  ADDLW  A7
028C6:  MOVWF  FE9
028C8:  MOVLW  03
028CA:  ADDWFC 03,W
028CC:  MOVWF  FEA
028CE:  MOVF   FEF,W
028D0:  SUBLW  64
028D2:  BNC   28FC
028D4:  MOVF   x3A,W
028D6:  MULLW  0A
028D8:  MOVF   FF3,W
028DA:  CLRF   xD0
028DC:  MOVWF  xCF
028DE:  MOVLW  07
028E0:  ADDWF  xCF,W
028E2:  MOVWF  01
028E4:  MOVLW  00
028E6:  ADDWFC xD0,W
028E8:  MOVWF  03
028EA:  MOVF   01,W
028EC:  ADDLW  A7
028EE:  MOVWF  FE9
028F0:  MOVLW  03
028F2:  ADDWFC 03,W
028F4:  MOVWF  FEA
028F6:  MOVF   FEF,W
028F8:  SUBLW  09
028FA:  BNC   2922
....................          CiclosPersonalizados[i].NivelVacio=25;    
028FC:  MOVF   x3A,W
028FE:  MULLW  0A
02900:  MOVF   FF3,W
02902:  CLRF   xD0
02904:  MOVWF  xCF
02906:  MOVLW  07
02908:  ADDWF  xCF,W
0290A:  MOVWF  01
0290C:  MOVLW  00
0290E:  ADDWFC xD0,W
02910:  MOVWF  03
02912:  MOVF   01,W
02914:  ADDLW  A7
02916:  MOVWF  FE9
02918:  MOVLW  03
0291A:  ADDWFC 03,W
0291C:  MOVWF  FEA
0291E:  MOVLW  19
02920:  MOVWF  FEF
....................       if(CiclosPersonalizados[i].NivelDesfogue>6) 
02922:  MOVF   x3A,W
02924:  MULLW  0A
02926:  MOVF   FF3,W
02928:  CLRF   xD0
0292A:  MOVWF  xCF
0292C:  MOVLW  08
0292E:  ADDWF  xCF,W
02930:  MOVWF  01
02932:  MOVLW  00
02934:  ADDWFC xD0,W
02936:  MOVWF  03
02938:  MOVF   01,W
0293A:  ADDLW  A7
0293C:  MOVWF  FE9
0293E:  MOVLW  03
02940:  ADDWFC 03,W
02942:  MOVWF  FEA
02944:  MOVF   FEF,W
02946:  SUBLW  06
02948:  BC    2970
....................          CiclosPersonalizados[i].NivelDesfogue=6; 
0294A:  MOVF   x3A,W
0294C:  MULLW  0A
0294E:  MOVF   FF3,W
02950:  CLRF   xD0
02952:  MOVWF  xCF
02954:  MOVLW  08
02956:  ADDWF  xCF,W
02958:  MOVWF  01
0295A:  MOVLW  00
0295C:  ADDWFC xD0,W
0295E:  MOVWF  03
02960:  MOVF   01,W
02962:  ADDLW  A7
02964:  MOVWF  FE9
02966:  MOVLW  03
02968:  ADDWFC 03,W
0296A:  MOVWF  FEA
0296C:  MOVLW  06
0296E:  MOVWF  FEF
....................    } 
02970:  INCF   x3A,F
02972:  BRA    2434
.................... } 
02974:  MOVLB  0
02976:  GOTO   5A90 (RETURN)
....................  
.................... void LimitaValores(){ 
....................    if(Testerilizacionp[0]>9 || Testerilizacionp[0]<0){ 
*
02B28:  BTFSC  xB6.7
02B2A:  BRA    2B32
02B2C:  MOVF   xB6,W
02B2E:  SUBLW  09
02B30:  BNC   2B38
02B32:  BTFSC  xB6.7
02B34:  BRA    2B38
02B36:  BRA    2B70
....................       Testerilizacionp[0]=0; 
02B38:  CLRF   xB6
....................       write_eeprom(0,0); 
02B3A:  CLRF   FAA
02B3C:  CLRF   FA9
02B3E:  CLRF   FA8
02B40:  BCF    FA6.6
02B42:  BCF    FA6.7
02B44:  BSF    FA6.2
02B46:  MOVF   FF2,W
02B48:  MOVWF  00
02B4A:  BCF    FF2.6
02B4C:  BCF    FF2.7
02B4E:  MOVLB  F
02B50:  MOVLW  55
02B52:  MOVWF  FA7
02B54:  MOVLW  AA
02B56:  MOVWF  FA7
02B58:  BSF    FA6.1
02B5A:  BTFSC  FA6.1
02B5C:  BRA    2B5A
02B5E:  BCF    FA6.2
02B60:  MOVF   00,W
02B62:  IORWF  FF2,F
....................       delay_ms(10); 
02B64:  MOVLW  0A
02B66:  MOVLB  3
02B68:  MOVWF  xE4
02B6A:  MOVLB  0
02B6C:  CALL   1806
....................    } 
....................    if(Testerilizacionp[1]>9 || Testerilizacionp[1]<0){ 
02B70:  BTFSC  xB7.7
02B72:  BRA    2B7A
02B74:  MOVF   xB7,W
02B76:  SUBLW  09
02B78:  BNC   2B80
02B7A:  BTFSC  xB7.7
02B7C:  BRA    2B80
02B7E:  BRA    2BBA
....................       Testerilizacionp[1]=0; 
02B80:  CLRF   xB7
....................       write_eeprom(1,0); 
02B82:  CLRF   FAA
02B84:  MOVLW  01
02B86:  MOVWF  FA9
02B88:  CLRF   FA8
02B8A:  BCF    FA6.6
02B8C:  BCF    FA6.7
02B8E:  BSF    FA6.2
02B90:  MOVF   FF2,W
02B92:  MOVWF  00
02B94:  BCF    FF2.6
02B96:  BCF    FF2.7
02B98:  MOVLB  F
02B9A:  MOVLW  55
02B9C:  MOVWF  FA7
02B9E:  MOVLW  AA
02BA0:  MOVWF  FA7
02BA2:  BSF    FA6.1
02BA4:  BTFSC  FA6.1
02BA6:  BRA    2BA4
02BA8:  BCF    FA6.2
02BAA:  MOVF   00,W
02BAC:  IORWF  FF2,F
....................       delay_ms(10); 
02BAE:  MOVLW  0A
02BB0:  MOVLB  3
02BB2:  MOVWF  xE4
02BB4:  MOVLB  0
02BB6:  CALL   1806
....................    } 
....................    if(Testerilizacionp[2]>9 || Testerilizacionp[2]<0){ 
02BBA:  BTFSC  xB8.7
02BBC:  BRA    2BC4
02BBE:  MOVF   xB8,W
02BC0:  SUBLW  09
02BC2:  BNC   2BCA
02BC4:  BTFSC  xB8.7
02BC6:  BRA    2BCA
02BC8:  BRA    2C04
....................       Testerilizacionp[2]=0; 
02BCA:  CLRF   xB8
....................       write_eeprom(2,0); 
02BCC:  CLRF   FAA
02BCE:  MOVLW  02
02BD0:  MOVWF  FA9
02BD2:  CLRF   FA8
02BD4:  BCF    FA6.6
02BD6:  BCF    FA6.7
02BD8:  BSF    FA6.2
02BDA:  MOVF   FF2,W
02BDC:  MOVWF  00
02BDE:  BCF    FF2.6
02BE0:  BCF    FF2.7
02BE2:  MOVLB  F
02BE4:  MOVLW  55
02BE6:  MOVWF  FA7
02BE8:  MOVLW  AA
02BEA:  MOVWF  FA7
02BEC:  BSF    FA6.1
02BEE:  BTFSC  FA6.1
02BF0:  BRA    2BEE
02BF2:  BCF    FA6.2
02BF4:  MOVF   00,W
02BF6:  IORWF  FF2,F
....................       delay_ms(10); 
02BF8:  MOVLW  0A
02BFA:  MOVLB  3
02BFC:  MOVWF  xE4
02BFE:  MOVLB  0
02C00:  CALL   1806
....................    } 
....................    if(Testerilizacionp[3]>9 || Testerilizacionp[3]<0){ 
02C04:  BTFSC  xB9.7
02C06:  BRA    2C0E
02C08:  MOVF   xB9,W
02C0A:  SUBLW  09
02C0C:  BNC   2C14
02C0E:  BTFSC  xB9.7
02C10:  BRA    2C14
02C12:  BRA    2C4E
....................       Testerilizacionp[3]=0; 
02C14:  CLRF   xB9
....................       write_eeprom(3,0); 
02C16:  CLRF   FAA
02C18:  MOVLW  03
02C1A:  MOVWF  FA9
02C1C:  CLRF   FA8
02C1E:  BCF    FA6.6
02C20:  BCF    FA6.7
02C22:  BSF    FA6.2
02C24:  MOVF   FF2,W
02C26:  MOVWF  00
02C28:  BCF    FF2.6
02C2A:  BCF    FF2.7
02C2C:  MOVLB  F
02C2E:  MOVLW  55
02C30:  MOVWF  FA7
02C32:  MOVLW  AA
02C34:  MOVWF  FA7
02C36:  BSF    FA6.1
02C38:  BTFSC  FA6.1
02C3A:  BRA    2C38
02C3C:  BCF    FA6.2
02C3E:  MOVF   00,W
02C40:  IORWF  FF2,F
....................       delay_ms(10); 
02C42:  MOVLW  0A
02C44:  MOVLB  3
02C46:  MOVWF  xE4
02C48:  MOVLB  0
02C4A:  CALL   1806
....................    } 
....................    if(Tsecadop[0]>9 || Tsecadop[0]<0){ 
02C4E:  BTFSC  xBF.7
02C50:  BRA    2C58
02C52:  MOVF   xBF,W
02C54:  SUBLW  09
02C56:  BNC   2C5E
02C58:  BTFSC  xBF.7
02C5A:  BRA    2C5E
02C5C:  BRA    2C98
....................       Tsecadop[0]=0; 
02C5E:  CLRF   xBF
....................       write_eeprom(4,0); 
02C60:  CLRF   FAA
02C62:  MOVLW  04
02C64:  MOVWF  FA9
02C66:  CLRF   FA8
02C68:  BCF    FA6.6
02C6A:  BCF    FA6.7
02C6C:  BSF    FA6.2
02C6E:  MOVF   FF2,W
02C70:  MOVWF  00
02C72:  BCF    FF2.6
02C74:  BCF    FF2.7
02C76:  MOVLB  F
02C78:  MOVLW  55
02C7A:  MOVWF  FA7
02C7C:  MOVLW  AA
02C7E:  MOVWF  FA7
02C80:  BSF    FA6.1
02C82:  BTFSC  FA6.1
02C84:  BRA    2C82
02C86:  BCF    FA6.2
02C88:  MOVF   00,W
02C8A:  IORWF  FF2,F
....................       delay_ms(10); 
02C8C:  MOVLW  0A
02C8E:  MOVLB  3
02C90:  MOVWF  xE4
02C92:  MOVLB  0
02C94:  CALL   1806
....................    } 
....................    if(Tsecadop[1]>9 || Tsecadop[1]<0){ 
02C98:  BTFSC  xC0.7
02C9A:  BRA    2CA2
02C9C:  MOVF   xC0,W
02C9E:  SUBLW  09
02CA0:  BNC   2CA8
02CA2:  BTFSC  xC0.7
02CA4:  BRA    2CA8
02CA6:  BRA    2CE2
....................       Tsecadop[1]=0; 
02CA8:  CLRF   xC0
....................       write_eeprom(5,0); 
02CAA:  CLRF   FAA
02CAC:  MOVLW  05
02CAE:  MOVWF  FA9
02CB0:  CLRF   FA8
02CB2:  BCF    FA6.6
02CB4:  BCF    FA6.7
02CB6:  BSF    FA6.2
02CB8:  MOVF   FF2,W
02CBA:  MOVWF  00
02CBC:  BCF    FF2.6
02CBE:  BCF    FF2.7
02CC0:  MOVLB  F
02CC2:  MOVLW  55
02CC4:  MOVWF  FA7
02CC6:  MOVLW  AA
02CC8:  MOVWF  FA7
02CCA:  BSF    FA6.1
02CCC:  BTFSC  FA6.1
02CCE:  BRA    2CCC
02CD0:  BCF    FA6.2
02CD2:  MOVF   00,W
02CD4:  IORWF  FF2,F
....................       delay_ms(10); 
02CD6:  MOVLW  0A
02CD8:  MOVLB  3
02CDA:  MOVWF  xE4
02CDC:  MOVLB  0
02CDE:  CALL   1806
....................    } 
....................    if(Tsecadop[2]>9 || Tsecadop[2]<0){ 
02CE2:  BTFSC  xC1.7
02CE4:  BRA    2CEC
02CE6:  MOVF   xC1,W
02CE8:  SUBLW  09
02CEA:  BNC   2CF2
02CEC:  BTFSC  xC1.7
02CEE:  BRA    2CF2
02CF0:  BRA    2D2C
....................       Tsecadop[2]=0; 
02CF2:  CLRF   xC1
....................       write_eeprom(6,0); 
02CF4:  CLRF   FAA
02CF6:  MOVLW  06
02CF8:  MOVWF  FA9
02CFA:  CLRF   FA8
02CFC:  BCF    FA6.6
02CFE:  BCF    FA6.7
02D00:  BSF    FA6.2
02D02:  MOVF   FF2,W
02D04:  MOVWF  00
02D06:  BCF    FF2.6
02D08:  BCF    FF2.7
02D0A:  MOVLB  F
02D0C:  MOVLW  55
02D0E:  MOVWF  FA7
02D10:  MOVLW  AA
02D12:  MOVWF  FA7
02D14:  BSF    FA6.1
02D16:  BTFSC  FA6.1
02D18:  BRA    2D16
02D1A:  BCF    FA6.2
02D1C:  MOVF   00,W
02D1E:  IORWF  FF2,F
....................       delay_ms(10); 
02D20:  MOVLW  0A
02D22:  MOVLB  3
02D24:  MOVWF  xE4
02D26:  MOVLB  0
02D28:  CALL   1806
....................    } 
....................    if(Tsecadop[3]>9 || Tsecadop[3]<0){ 
02D2C:  BTFSC  xC2.7
02D2E:  BRA    2D36
02D30:  MOVF   xC2,W
02D32:  SUBLW  09
02D34:  BNC   2D3C
02D36:  BTFSC  xC2.7
02D38:  BRA    2D3C
02D3A:  BRA    2D76
....................       Tsecadop[3]=0; 
02D3C:  CLRF   xC2
....................       write_eeprom(7,0); 
02D3E:  CLRF   FAA
02D40:  MOVLW  07
02D42:  MOVWF  FA9
02D44:  CLRF   FA8
02D46:  BCF    FA6.6
02D48:  BCF    FA6.7
02D4A:  BSF    FA6.2
02D4C:  MOVF   FF2,W
02D4E:  MOVWF  00
02D50:  BCF    FF2.6
02D52:  BCF    FF2.7
02D54:  MOVLB  F
02D56:  MOVLW  55
02D58:  MOVWF  FA7
02D5A:  MOVLW  AA
02D5C:  MOVWF  FA7
02D5E:  BSF    FA6.1
02D60:  BTFSC  FA6.1
02D62:  BRA    2D60
02D64:  BCF    FA6.2
02D66:  MOVF   00,W
02D68:  IORWF  FF2,F
....................       delay_ms(10); 
02D6A:  MOVLW  0A
02D6C:  MOVLB  3
02D6E:  MOVWF  xE4
02D70:  MOVLB  0
02D72:  CALL   1806
....................    } 
....................    if(Setpoint>134){ 
02D76:  MOVLB  3
02D78:  MOVF   x3E,W
02D7A:  SUBLW  86
02D7C:  BC    2DBE
....................       Setpoint=134; 
02D7E:  MOVLW  86
02D80:  MOVWF  x3E
....................       write_eeprom(8,134); 
02D82:  CLRF   FAA
02D84:  MOVLW  08
02D86:  MOVWF  FA9
02D88:  MOVLW  86
02D8A:  MOVWF  FA8
02D8C:  BCF    FA6.6
02D8E:  BCF    FA6.7
02D90:  BSF    FA6.2
02D92:  MOVF   FF2,W
02D94:  MOVWF  00
02D96:  BCF    FF2.6
02D98:  BCF    FF2.7
02D9A:  MOVLB  F
02D9C:  MOVLW  55
02D9E:  MOVWF  FA7
02DA0:  MOVLW  AA
02DA2:  MOVWF  FA7
02DA4:  BSF    FA6.1
02DA6:  BTFSC  FA6.1
02DA8:  BRA    2DA6
02DAA:  BCF    FA6.2
02DAC:  MOVF   00,W
02DAE:  IORWF  FF2,F
....................       delay_ms(10); 
02DB0:  MOVLW  0A
02DB2:  MOVLB  3
02DB4:  MOVWF  xE4
02DB6:  MOVLB  0
02DB8:  CALL   1806
02DBC:  MOVLB  3
....................    } 
....................    if(Nivel>6){ 
02DBE:  MOVF   x4D,F
02DC0:  BNZ   2DC8
02DC2:  MOVF   x4C,W
02DC4:  SUBLW  06
02DC6:  BC    2E0A
....................       Nivel=3; 
02DC8:  CLRF   x4D
02DCA:  MOVLW  03
02DCC:  MOVWF  x4C
....................       write_eeprom(9,3); 
02DCE:  CLRF   FAA
02DD0:  MOVLW  09
02DD2:  MOVWF  FA9
02DD4:  MOVLW  03
02DD6:  MOVWF  FA8
02DD8:  BCF    FA6.6
02DDA:  BCF    FA6.7
02DDC:  BSF    FA6.2
02DDE:  MOVF   FF2,W
02DE0:  MOVWF  00
02DE2:  BCF    FF2.6
02DE4:  BCF    FF2.7
02DE6:  MOVLB  F
02DE8:  MOVLW  55
02DEA:  MOVWF  FA7
02DEC:  MOVLW  AA
02DEE:  MOVWF  FA7
02DF0:  BSF    FA6.1
02DF2:  BTFSC  FA6.1
02DF4:  BRA    2DF2
02DF6:  BCF    FA6.2
02DF8:  MOVF   00,W
02DFA:  IORWF  FF2,F
....................       delay_ms(10); 
02DFC:  MOVLW  0A
02DFE:  MOVLB  3
02E00:  MOVWF  xE4
02E02:  MOVLB  0
02E04:  CALL   1806
02E08:  MOVLB  3
....................    } 
....................    if(Password[0]>9 || Password[0]<0){ 
02E0A:  BTFSC  x62.7
02E0C:  BRA    2E14
02E0E:  MOVF   x62,W
02E10:  SUBLW  09
02E12:  BNC   2E1A
02E14:  BTFSC  x62.7
02E16:  BRA    2E1A
02E18:  BRA    2E56
....................       Password[0]=0; 
02E1A:  CLRF   x62
....................       write_eeprom(10,0); 
02E1C:  CLRF   FAA
02E1E:  MOVLW  0A
02E20:  MOVWF  FA9
02E22:  CLRF   FA8
02E24:  BCF    FA6.6
02E26:  BCF    FA6.7
02E28:  BSF    FA6.2
02E2A:  MOVF   FF2,W
02E2C:  MOVWF  00
02E2E:  BCF    FF2.6
02E30:  BCF    FF2.7
02E32:  MOVLB  F
02E34:  MOVLW  55
02E36:  MOVWF  FA7
02E38:  MOVLW  AA
02E3A:  MOVWF  FA7
02E3C:  BSF    FA6.1
02E3E:  BTFSC  FA6.1
02E40:  BRA    2E3E
02E42:  BCF    FA6.2
02E44:  MOVF   00,W
02E46:  IORWF  FF2,F
....................       delay_ms(10); 
02E48:  MOVLW  0A
02E4A:  MOVLB  3
02E4C:  MOVWF  xE4
02E4E:  MOVLB  0
02E50:  CALL   1806
02E54:  MOVLB  3
....................    } 
....................    if(Password[1]>9 || Password[1]<0){ 
02E56:  BTFSC  x63.7
02E58:  BRA    2E60
02E5A:  MOVF   x63,W
02E5C:  SUBLW  09
02E5E:  BNC   2E66
02E60:  BTFSC  x63.7
02E62:  BRA    2E66
02E64:  BRA    2EA2
....................       Password[1]=0; 
02E66:  CLRF   x63
....................       write_eeprom(11,0); 
02E68:  CLRF   FAA
02E6A:  MOVLW  0B
02E6C:  MOVWF  FA9
02E6E:  CLRF   FA8
02E70:  BCF    FA6.6
02E72:  BCF    FA6.7
02E74:  BSF    FA6.2
02E76:  MOVF   FF2,W
02E78:  MOVWF  00
02E7A:  BCF    FF2.6
02E7C:  BCF    FF2.7
02E7E:  MOVLB  F
02E80:  MOVLW  55
02E82:  MOVWF  FA7
02E84:  MOVLW  AA
02E86:  MOVWF  FA7
02E88:  BSF    FA6.1
02E8A:  BTFSC  FA6.1
02E8C:  BRA    2E8A
02E8E:  BCF    FA6.2
02E90:  MOVF   00,W
02E92:  IORWF  FF2,F
....................       delay_ms(10); 
02E94:  MOVLW  0A
02E96:  MOVLB  3
02E98:  MOVWF  xE4
02E9A:  MOVLB  0
02E9C:  CALL   1806
02EA0:  MOVLB  3
....................    } 
....................    if(Password[2]>9 || Password[2]<0){ 
02EA2:  BTFSC  x64.7
02EA4:  BRA    2EAC
02EA6:  MOVF   x64,W
02EA8:  SUBLW  09
02EAA:  BNC   2EB2
02EAC:  BTFSC  x64.7
02EAE:  BRA    2EB2
02EB0:  BRA    2EEE
....................       Password[2]=0; 
02EB2:  CLRF   x64
....................       write_eeprom(12,0); 
02EB4:  CLRF   FAA
02EB6:  MOVLW  0C
02EB8:  MOVWF  FA9
02EBA:  CLRF   FA8
02EBC:  BCF    FA6.6
02EBE:  BCF    FA6.7
02EC0:  BSF    FA6.2
02EC2:  MOVF   FF2,W
02EC4:  MOVWF  00
02EC6:  BCF    FF2.6
02EC8:  BCF    FF2.7
02ECA:  MOVLB  F
02ECC:  MOVLW  55
02ECE:  MOVWF  FA7
02ED0:  MOVLW  AA
02ED2:  MOVWF  FA7
02ED4:  BSF    FA6.1
02ED6:  BTFSC  FA6.1
02ED8:  BRA    2ED6
02EDA:  BCF    FA6.2
02EDC:  MOVF   00,W
02EDE:  IORWF  FF2,F
....................       delay_ms(10); 
02EE0:  MOVLW  0A
02EE2:  MOVLB  3
02EE4:  MOVWF  xE4
02EE6:  MOVLB  0
02EE8:  CALL   1806
02EEC:  MOVLB  3
....................    } 
....................    if(Password[3]>9 || Password[3]<0){ 
02EEE:  BTFSC  x65.7
02EF0:  BRA    2EF8
02EF2:  MOVF   x65,W
02EF4:  SUBLW  09
02EF6:  BNC   2EFE
02EF8:  BTFSC  x65.7
02EFA:  BRA    2EFE
02EFC:  BRA    2F3A
....................       Password[3]=0; 
02EFE:  CLRF   x65
....................       write_eeprom(13,0); 
02F00:  CLRF   FAA
02F02:  MOVLW  0D
02F04:  MOVWF  FA9
02F06:  CLRF   FA8
02F08:  BCF    FA6.6
02F0A:  BCF    FA6.7
02F0C:  BSF    FA6.2
02F0E:  MOVF   FF2,W
02F10:  MOVWF  00
02F12:  BCF    FF2.6
02F14:  BCF    FF2.7
02F16:  MOVLB  F
02F18:  MOVLW  55
02F1A:  MOVWF  FA7
02F1C:  MOVLW  AA
02F1E:  MOVWF  FA7
02F20:  BSF    FA6.1
02F22:  BTFSC  FA6.1
02F24:  BRA    2F22
02F26:  BCF    FA6.2
02F28:  MOVF   00,W
02F2A:  IORWF  FF2,F
....................       delay_ms(10); 
02F2C:  MOVLW  0A
02F2E:  MOVLB  3
02F30:  MOVWF  xE4
02F32:  MOVLB  0
02F34:  CALL   1806
02F38:  MOVLB  3
....................    } 
....................    if(Ganancia>12.0){ 
02F3A:  CLRF   xD6
02F3C:  CLRF   xD5
02F3E:  MOVLW  40
02F40:  MOVWF  xD4
02F42:  MOVLW  82
02F44:  MOVWF  xD3
02F46:  MOVFF  2F8,3DA
02F4A:  MOVFF  2F7,3D9
02F4E:  MOVFF  2F6,3D8
02F52:  MOVFF  2F5,3D7
02F56:  MOVLB  0
02F58:  RCALL  2A60
02F5A:  BNC   2FA4
....................       Ganancia=12.0; 
02F5C:  MOVLB  2
02F5E:  CLRF   xF8
02F60:  CLRF   xF7
02F62:  MOVLW  40
02F64:  MOVWF  xF6
02F66:  MOVLW  82
02F68:  MOVWF  xF5
....................       write_eeprom(20,12); 
02F6A:  CLRF   FAA
02F6C:  MOVLW  14
02F6E:  MOVWF  FA9
02F70:  MOVLW  0C
02F72:  MOVWF  FA8
02F74:  BCF    FA6.6
02F76:  BCF    FA6.7
02F78:  BSF    FA6.2
02F7A:  MOVF   FF2,W
02F7C:  MOVWF  00
02F7E:  BCF    FF2.6
02F80:  BCF    FF2.7
02F82:  MOVLB  F
02F84:  MOVLW  55
02F86:  MOVWF  FA7
02F88:  MOVLW  AA
02F8A:  MOVWF  FA7
02F8C:  BSF    FA6.1
02F8E:  BTFSC  FA6.1
02F90:  BRA    2F8E
02F92:  BCF    FA6.2
02F94:  MOVF   00,W
02F96:  IORWF  FF2,F
....................       delay_ms(10); 
02F98:  MOVLW  0A
02F9A:  MOVLB  3
02F9C:  MOVWF  xE4
02F9E:  MOVLB  0
02FA0:  CALL   1806
....................    } 
....................    if(Ajuste>10){ 
02FA4:  MOVLB  2
02FA6:  MOVF   xCD,W
02FA8:  SUBLW  0A
02FAA:  BC    2FE8
....................       Ajuste=0; 
02FAC:  CLRF   xCD
....................       write_eeprom(21,0); 
02FAE:  CLRF   FAA
02FB0:  MOVLW  15
02FB2:  MOVWF  FA9
02FB4:  CLRF   FA8
02FB6:  BCF    FA6.6
02FB8:  BCF    FA6.7
02FBA:  BSF    FA6.2
02FBC:  MOVF   FF2,W
02FBE:  MOVWF  00
02FC0:  BCF    FF2.6
02FC2:  BCF    FF2.7
02FC4:  MOVLB  F
02FC6:  MOVLW  55
02FC8:  MOVWF  FA7
02FCA:  MOVLW  AA
02FCC:  MOVWF  FA7
02FCE:  BSF    FA6.1
02FD0:  BTFSC  FA6.1
02FD2:  BRA    2FD0
02FD4:  BCF    FA6.2
02FD6:  MOVF   00,W
02FD8:  IORWF  FF2,F
....................       delay_ms(10); 
02FDA:  MOVLW  0A
02FDC:  MOVLB  3
02FDE:  MOVWF  xE4
02FE0:  MOVLB  0
02FE2:  CALL   1806
02FE6:  MOVLB  2
....................    } 
....................    if(Ajusten>10){ 
02FE8:  MOVF   xCE,W
02FEA:  SUBLW  0A
02FEC:  BC    302A
....................       Ajusten=0; 
02FEE:  CLRF   xCE
....................       write_eeprom(22,0); 
02FF0:  CLRF   FAA
02FF2:  MOVLW  16
02FF4:  MOVWF  FA9
02FF6:  CLRF   FA8
02FF8:  BCF    FA6.6
02FFA:  BCF    FA6.7
02FFC:  BSF    FA6.2
02FFE:  MOVF   FF2,W
03000:  MOVWF  00
03002:  BCF    FF2.6
03004:  BCF    FF2.7
03006:  MOVLB  F
03008:  MOVLW  55
0300A:  MOVWF  FA7
0300C:  MOVLW  AA
0300E:  MOVWF  FA7
03010:  BSF    FA6.1
03012:  BTFSC  FA6.1
03014:  BRA    3012
03016:  BCF    FA6.2
03018:  MOVF   00,W
0301A:  IORWF  FF2,F
....................       delay_ms(10); 
0301C:  MOVLW  0A
0301E:  MOVLB  3
03020:  MOVWF  xE4
03022:  MOVLB  0
03024:  CALL   1806
03028:  MOVLB  2
....................    } 
....................    if(MediaMovil>80){ 
0302A:  MOVF   xCF,W
0302C:  SUBLW  50
0302E:  BC    306E
....................       MediaMovil=80; 
03030:  MOVLW  50
03032:  MOVWF  xCF
....................       write_eeprom(24,80); 
03034:  CLRF   FAA
03036:  MOVLW  18
03038:  MOVWF  FA9
0303A:  MOVLW  50
0303C:  MOVWF  FA8
0303E:  BCF    FA6.6
03040:  BCF    FA6.7
03042:  BSF    FA6.2
03044:  MOVF   FF2,W
03046:  MOVWF  00
03048:  BCF    FF2.6
0304A:  BCF    FF2.7
0304C:  MOVLB  F
0304E:  MOVLW  55
03050:  MOVWF  FA7
03052:  MOVLW  AA
03054:  MOVWF  FA7
03056:  BSF    FA6.1
03058:  BTFSC  FA6.1
0305A:  BRA    3058
0305C:  BCF    FA6.2
0305E:  MOVF   00,W
03060:  IORWF  FF2,F
....................       delay_ms(10); 
03062:  MOVLW  0A
03064:  MOVLB  3
03066:  MOVWF  xE4
03068:  MOVLB  0
0306A:  CALL   1806
....................    } 
....................    if(Tciclo>10){ 
0306E:  MOVLB  3
03070:  CLRF   xD6
03072:  CLRF   xD5
03074:  MOVLW  20
03076:  MOVWF  xD4
03078:  MOVLW  82
0307A:  MOVWF  xD3
0307C:  MOVFF  2E0,3DA
03080:  MOVFF  2DF,3D9
03084:  MOVFF  2DE,3D8
03088:  MOVFF  2DD,3D7
0308C:  MOVLB  0
0308E:  RCALL  2A60
03090:  BNC   30DA
....................       Tciclo=10; 
03092:  MOVLB  2
03094:  CLRF   xE0
03096:  CLRF   xDF
03098:  MOVLW  20
0309A:  MOVWF  xDE
0309C:  MOVLW  82
0309E:  MOVWF  xDD
....................       write_eeprom(25,10); 
030A0:  CLRF   FAA
030A2:  MOVLW  19
030A4:  MOVWF  FA9
030A6:  MOVLW  0A
030A8:  MOVWF  FA8
030AA:  BCF    FA6.6
030AC:  BCF    FA6.7
030AE:  BSF    FA6.2
030B0:  MOVF   FF2,W
030B2:  MOVWF  00
030B4:  BCF    FF2.6
030B6:  BCF    FF2.7
030B8:  MOVLB  F
030BA:  MOVLW  55
030BC:  MOVWF  FA7
030BE:  MOVLW  AA
030C0:  MOVWF  FA7
030C2:  BSF    FA6.1
030C4:  BTFSC  FA6.1
030C6:  BRA    30C4
030C8:  BCF    FA6.2
030CA:  MOVF   00,W
030CC:  IORWF  FF2,F
....................       delay_ms(10); 
030CE:  MOVLW  0A
030D0:  MOVLB  3
030D2:  MOVWF  xE4
030D4:  MOVLB  0
030D6:  CALL   1806
....................    } 
....................    if(Integral>2.0){ 
030DA:  MOVLB  3
030DC:  CLRF   xE5
030DE:  MOVFF  329,3E4
030E2:  MOVLB  0
030E4:  CALL   182E
030E8:  MOVLB  3
030EA:  CLRF   xD6
030EC:  CLRF   xD5
030EE:  CLRF   xD4
030F0:  MOVLW  80
030F2:  MOVWF  xD3
030F4:  MOVFF  03,3DA
030F8:  MOVFF  02,3D9
030FC:  MOVFF  01,3D8
03100:  MOVFF  00,3D7
03104:  MOVLB  0
03106:  RCALL  2A60
03108:  BNC   314A
....................       Integral=1.0; 
0310A:  MOVLW  01
0310C:  MOVLB  3
0310E:  MOVWF  x29
....................       write_eeprom(26,1); 
03110:  CLRF   FAA
03112:  MOVLW  1A
03114:  MOVWF  FA9
03116:  MOVLW  01
03118:  MOVWF  FA8
0311A:  BCF    FA6.6
0311C:  BCF    FA6.7
0311E:  BSF    FA6.2
03120:  MOVF   FF2,W
03122:  MOVWF  00
03124:  BCF    FF2.6
03126:  BCF    FF2.7
03128:  MOVLB  F
0312A:  MOVLW  55
0312C:  MOVWF  FA7
0312E:  MOVLW  AA
03130:  MOVWF  FA7
03132:  BSF    FA6.1
03134:  BTFSC  FA6.1
03136:  BRA    3134
03138:  BCF    FA6.2
0313A:  MOVF   00,W
0313C:  IORWF  FF2,F
....................       delay_ms(10); 
0313E:  MOVLW  0A
03140:  MOVLB  3
03142:  MOVWF  xE4
03144:  MOVLB  0
03146:  CALL   1806
....................    } 
....................    if(Derivativo>20.0){ 
0314A:  MOVLB  3
0314C:  CLRF   xE5
0314E:  MOVFF  32A,3E4
03152:  MOVLB  0
03154:  CALL   182E
03158:  MOVLB  3
0315A:  CLRF   xD6
0315C:  CLRF   xD5
0315E:  MOVLW  20
03160:  MOVWF  xD4
03162:  MOVLW  83
03164:  MOVWF  xD3
03166:  MOVFF  03,3DA
0316A:  MOVFF  02,3D9
0316E:  MOVFF  01,3D8
03172:  MOVFF  00,3D7
03176:  MOVLB  0
03178:  RCALL  2A60
0317A:  BNC   31BC
....................       Derivativo=15.0; 
0317C:  MOVLW  0F
0317E:  MOVLB  3
03180:  MOVWF  x2A
....................       write_eeprom(27,15); 
03182:  CLRF   FAA
03184:  MOVLW  1B
03186:  MOVWF  FA9
03188:  MOVLW  0F
0318A:  MOVWF  FA8
0318C:  BCF    FA6.6
0318E:  BCF    FA6.7
03190:  BSF    FA6.2
03192:  MOVF   FF2,W
03194:  MOVWF  00
03196:  BCF    FF2.6
03198:  BCF    FF2.7
0319A:  MOVLB  F
0319C:  MOVLW  55
0319E:  MOVWF  FA7
031A0:  MOVLW  AA
031A2:  MOVWF  FA7
031A4:  BSF    FA6.1
031A6:  BTFSC  FA6.1
031A8:  BRA    31A6
031AA:  BCF    FA6.2
031AC:  MOVF   00,W
031AE:  IORWF  FF2,F
....................       delay_ms(10); 
031B0:  MOVLW  0A
031B2:  MOVLB  3
031B4:  MOVWF  xE4
031B6:  MOVLB  0
031B8:  CALL   1806
....................    } 
....................    if(Gain>50){ 
031BC:  MOVLB  3
031BE:  CLRF   xD6
031C0:  CLRF   xD5
031C2:  MOVLW  48
031C4:  MOVWF  xD4
031C6:  MOVLW  84
031C8:  MOVWF  xD3
031CA:  MOVFF  2A6,3DA
031CE:  MOVFF  2A5,3D9
031D2:  MOVFF  2A4,3D8
031D6:  MOVFF  2A3,3D7
031DA:  MOVLB  0
031DC:  RCALL  2A60
031DE:  BNC   3266
....................       Gain=40.2; 
031E0:  MOVLW  CD
031E2:  MOVLB  2
031E4:  MOVWF  xA6
031E6:  MOVLW  CC
031E8:  MOVWF  xA5
031EA:  MOVLW  20
031EC:  MOVWF  xA4
031EE:  MOVLW  84
031F0:  MOVWF  xA3
....................       write_eeprom(28,40); 
031F2:  CLRF   FAA
031F4:  MOVLW  1C
031F6:  MOVWF  FA9
031F8:  MOVLW  28
031FA:  MOVWF  FA8
031FC:  BCF    FA6.6
031FE:  BCF    FA6.7
03200:  BSF    FA6.2
03202:  MOVF   FF2,W
03204:  MOVWF  00
03206:  BCF    FF2.6
03208:  BCF    FF2.7
0320A:  MOVLB  F
0320C:  MOVLW  55
0320E:  MOVWF  FA7
03210:  MOVLW  AA
03212:  MOVWF  FA7
03214:  BSF    FA6.1
03216:  BTFSC  FA6.1
03218:  BRA    3216
0321A:  BCF    FA6.2
0321C:  MOVF   00,W
0321E:  IORWF  FF2,F
....................       delay_ms(10); 
03220:  MOVLW  0A
03222:  MOVLB  3
03224:  MOVWF  xE4
03226:  MOVLB  0
03228:  CALL   1806
....................       write_eeprom(29,2); 
0322C:  CLRF   FAA
0322E:  MOVLW  1D
03230:  MOVWF  FA9
03232:  MOVLW  02
03234:  MOVWF  FA8
03236:  BCF    FA6.6
03238:  BCF    FA6.7
0323A:  BSF    FA6.2
0323C:  MOVF   FF2,W
0323E:  MOVWF  00
03240:  BCF    FF2.6
03242:  BCF    FF2.7
03244:  MOVLB  F
03246:  MOVLW  55
03248:  MOVWF  FA7
0324A:  MOVLW  AA
0324C:  MOVWF  FA7
0324E:  BSF    FA6.1
03250:  BTFSC  FA6.1
03252:  BRA    3250
03254:  BCF    FA6.2
03256:  MOVF   00,W
03258:  IORWF  FF2,F
....................       delay_ms(10); 
0325A:  MOVLW  0A
0325C:  MOVLB  3
0325E:  MOVWF  xE4
03260:  MOVLB  0
03262:  CALL   1806
....................    } 
....................    if(R1>6400){ 
03266:  MOVLB  3
03268:  CLRF   xD6
0326A:  CLRF   xD5
0326C:  MOVLW  48
0326E:  MOVWF  xD4
03270:  MOVLW  8B
03272:  MOVWF  xD3
03274:  MOVFF  2B2,3DA
03278:  MOVFF  2B1,3D9
0327C:  MOVFF  2B0,3D8
03280:  MOVFF  2AF,3D7
03284:  MOVLB  0
03286:  CALL   2A60
0328A:  BNC   3310
....................       R1=6200; 
0328C:  MOVLB  2
0328E:  CLRF   xB2
03290:  MOVLW  C0
03292:  MOVWF  xB1
03294:  MOVLW  41
03296:  MOVWF  xB0
03298:  MOVLW  8B
0329A:  MOVWF  xAF
....................       write_eeprom(30,0x38); 
0329C:  CLRF   FAA
0329E:  MOVLW  1E
032A0:  MOVWF  FA9
032A2:  MOVLW  38
032A4:  MOVWF  FA8
032A6:  BCF    FA6.6
032A8:  BCF    FA6.7
032AA:  BSF    FA6.2
032AC:  MOVF   FF2,W
032AE:  MOVWF  00
032B0:  BCF    FF2.6
032B2:  BCF    FF2.7
032B4:  MOVLB  F
032B6:  MOVLW  55
032B8:  MOVWF  FA7
032BA:  MOVLW  AA
032BC:  MOVWF  FA7
032BE:  BSF    FA6.1
032C0:  BTFSC  FA6.1
032C2:  BRA    32C0
032C4:  BCF    FA6.2
032C6:  MOVF   00,W
032C8:  IORWF  FF2,F
....................       delay_ms(10); 
032CA:  MOVLW  0A
032CC:  MOVLB  3
032CE:  MOVWF  xE4
032D0:  MOVLB  0
032D2:  CALL   1806
....................       write_eeprom(31,0x18); 
032D6:  CLRF   FAA
032D8:  MOVLW  1F
032DA:  MOVWF  FA9
032DC:  MOVLW  18
032DE:  MOVWF  FA8
032E0:  BCF    FA6.6
032E2:  BCF    FA6.7
032E4:  BSF    FA6.2
032E6:  MOVF   FF2,W
032E8:  MOVWF  00
032EA:  BCF    FF2.6
032EC:  BCF    FF2.7
032EE:  MOVLB  F
032F0:  MOVLW  55
032F2:  MOVWF  FA7
032F4:  MOVLW  AA
032F6:  MOVWF  FA7
032F8:  BSF    FA6.1
032FA:  BTFSC  FA6.1
032FC:  BRA    32FA
032FE:  BCF    FA6.2
03300:  MOVF   00,W
03302:  IORWF  FF2,F
....................       delay_ms(10); 
03304:  MOVLW  0A
03306:  MOVLB  3
03308:  MOVWF  xE4
0330A:  MOVLB  0
0330C:  CALL   1806
....................    } 
....................    if(RPT100>2.0){ 
03310:  MOVLB  3
03312:  CLRF   xD6
03314:  CLRF   xD5
03316:  CLRF   xD4
03318:  MOVLW  80
0331A:  MOVWF  xD3
0331C:  MOVFF  2AA,3DA
03320:  MOVFF  2A9,3D9
03324:  MOVFF  2A8,3D8
03328:  MOVFF  2A7,3D7
0332C:  MOVLB  0
0332E:  CALL   2A60
03332:  BNC   33B2
....................       RPT100=0.5; 
03334:  MOVLB  2
03336:  CLRF   xAA
03338:  CLRF   xA9
0333A:  CLRF   xA8
0333C:  MOVLW  7E
0333E:  MOVWF  xA7
....................       write_eeprom(32,0); 
03340:  CLRF   FAA
03342:  MOVLW  20
03344:  MOVWF  FA9
03346:  CLRF   FA8
03348:  BCF    FA6.6
0334A:  BCF    FA6.7
0334C:  BSF    FA6.2
0334E:  MOVF   FF2,W
03350:  MOVWF  00
03352:  BCF    FF2.6
03354:  BCF    FF2.7
03356:  MOVLB  F
03358:  MOVLW  55
0335A:  MOVWF  FA7
0335C:  MOVLW  AA
0335E:  MOVWF  FA7
03360:  BSF    FA6.1
03362:  BTFSC  FA6.1
03364:  BRA    3362
03366:  BCF    FA6.2
03368:  MOVF   00,W
0336A:  IORWF  FF2,F
....................       delay_ms(10); 
0336C:  MOVLW  0A
0336E:  MOVLB  3
03370:  MOVWF  xE4
03372:  MOVLB  0
03374:  CALL   1806
....................       write_eeprom(33,5); 
03378:  CLRF   FAA
0337A:  MOVLW  21
0337C:  MOVWF  FA9
0337E:  MOVLW  05
03380:  MOVWF  FA8
03382:  BCF    FA6.6
03384:  BCF    FA6.7
03386:  BSF    FA6.2
03388:  MOVF   FF2,W
0338A:  MOVWF  00
0338C:  BCF    FF2.6
0338E:  BCF    FF2.7
03390:  MOVLB  F
03392:  MOVLW  55
03394:  MOVWF  FA7
03396:  MOVLW  AA
03398:  MOVWF  FA7
0339A:  BSF    FA6.1
0339C:  BTFSC  FA6.1
0339E:  BRA    339C
033A0:  BCF    FA6.2
033A2:  MOVF   00,W
033A4:  IORWF  FF2,F
....................       delay_ms(10); 
033A6:  MOVLW  0A
033A8:  MOVLB  3
033AA:  MOVWF  xE4
033AC:  MOVLB  0
033AE:  CALL   1806
....................    } 
....................    if(Ciclos>60000){ 
033B2:  MOVLB  3
033B4:  MOVF   x55,W
033B6:  SUBLW  E9
033B8:  BC    3438
033BA:  XORLW  FF
033BC:  BNZ   33C4
033BE:  MOVF   x54,W
033C0:  SUBLW  60
033C2:  BC    3438
....................       Ciclos=0; 
033C4:  CLRF   x55
033C6:  CLRF   x54
....................       write_eeprom(37,0); 
033C8:  CLRF   FAA
033CA:  MOVLW  25
033CC:  MOVWF  FA9
033CE:  CLRF   FA8
033D0:  BCF    FA6.6
033D2:  BCF    FA6.7
033D4:  BSF    FA6.2
033D6:  MOVF   FF2,W
033D8:  MOVWF  00
033DA:  BCF    FF2.6
033DC:  BCF    FF2.7
033DE:  MOVLB  F
033E0:  MOVLW  55
033E2:  MOVWF  FA7
033E4:  MOVLW  AA
033E6:  MOVWF  FA7
033E8:  BSF    FA6.1
033EA:  BTFSC  FA6.1
033EC:  BRA    33EA
033EE:  BCF    FA6.2
033F0:  MOVF   00,W
033F2:  IORWF  FF2,F
....................       delay_ms(10); 
033F4:  MOVLW  0A
033F6:  MOVLB  3
033F8:  MOVWF  xE4
033FA:  MOVLB  0
033FC:  CALL   1806
....................       write_eeprom(38,0); 
03400:  CLRF   FAA
03402:  MOVLW  26
03404:  MOVWF  FA9
03406:  CLRF   FA8
03408:  BCF    FA6.6
0340A:  BCF    FA6.7
0340C:  BSF    FA6.2
0340E:  MOVF   FF2,W
03410:  MOVWF  00
03412:  BCF    FF2.6
03414:  BCF    FF2.7
03416:  MOVLB  F
03418:  MOVLW  55
0341A:  MOVWF  FA7
0341C:  MOVLW  AA
0341E:  MOVWF  FA7
03420:  BSF    FA6.1
03422:  BTFSC  FA6.1
03424:  BRA    3422
03426:  BCF    FA6.2
03428:  MOVF   00,W
0342A:  IORWF  FF2,F
....................       delay_ms(10); 
0342C:  MOVLW  0A
0342E:  MOVLB  3
03430:  MOVWF  xE4
03432:  MOVLB  0
03434:  CALL   1806
....................    } 
....................    if(TTrampa>100){ 
03438:  MOVLB  2
0343A:  MOVF   xD0,W
0343C:  SUBLW  64
0343E:  BC    347E
....................       TTrampa=80; 
03440:  MOVLW  50
03442:  MOVWF  xD0
....................       write_eeprom(39,80); 
03444:  CLRF   FAA
03446:  MOVLW  27
03448:  MOVWF  FA9
0344A:  MOVLW  50
0344C:  MOVWF  FA8
0344E:  BCF    FA6.6
03450:  BCF    FA6.7
03452:  BSF    FA6.2
03454:  MOVF   FF2,W
03456:  MOVWF  00
03458:  BCF    FF2.6
0345A:  BCF    FF2.7
0345C:  MOVLB  F
0345E:  MOVLW  55
03460:  MOVWF  FA7
03462:  MOVLW  AA
03464:  MOVWF  FA7
03466:  BSF    FA6.1
03468:  BTFSC  FA6.1
0346A:  BRA    3468
0346C:  BCF    FA6.2
0346E:  MOVF   00,W
03470:  IORWF  FF2,F
....................       delay_ms(10); 
03472:  MOVLW  0A
03474:  MOVLB  3
03476:  MOVWF  xE4
03478:  MOVLB  0
0347A:  CALL   1806
....................    } 
....................    if(ActivaImpresion>1){ 
0347E:  MOVLB  3
03480:  MOVF   x30,W
03482:  SUBLW  01
03484:  BC    34C6
....................       ActivaImpresion=1; 
03486:  MOVLW  01
03488:  MOVWF  x30
....................       write_eeprom(40,1); 
0348A:  CLRF   FAA
0348C:  MOVLW  28
0348E:  MOVWF  FA9
03490:  MOVLW  01
03492:  MOVWF  FA8
03494:  BCF    FA6.6
03496:  BCF    FA6.7
03498:  BSF    FA6.2
0349A:  MOVF   FF2,W
0349C:  MOVWF  00
0349E:  BCF    FF2.6
034A0:  BCF    FF2.7
034A2:  MOVLB  F
034A4:  MOVLW  55
034A6:  MOVWF  FA7
034A8:  MOVLW  AA
034AA:  MOVWF  FA7
034AC:  BSF    FA6.1
034AE:  BTFSC  FA6.1
034B0:  BRA    34AE
034B2:  BCF    FA6.2
034B4:  MOVF   00,W
034B6:  IORWF  FF2,F
....................       delay_ms(10); 
034B8:  MOVLW  0A
034BA:  MOVLB  3
034BC:  MOVWF  xE4
034BE:  MOVLB  0
034C0:  CALL   1806
034C4:  MOVLB  3
....................    } 
....................    if(timpresion>30){ 
034C6:  MOVF   x31,W
034C8:  SUBLW  1E
034CA:  BC    350C
....................       timpresion=2; 
034CC:  MOVLW  02
034CE:  MOVWF  x31
....................       write_eeprom(41,2); 
034D0:  CLRF   FAA
034D2:  MOVLW  29
034D4:  MOVWF  FA9
034D6:  MOVLW  02
034D8:  MOVWF  FA8
034DA:  BCF    FA6.6
034DC:  BCF    FA6.7
034DE:  BSF    FA6.2
034E0:  MOVF   FF2,W
034E2:  MOVWF  00
034E4:  BCF    FF2.6
034E6:  BCF    FF2.7
034E8:  MOVLB  F
034EA:  MOVLW  55
034EC:  MOVWF  FA7
034EE:  MOVLW  AA
034F0:  MOVWF  FA7
034F2:  BSF    FA6.1
034F4:  BTFSC  FA6.1
034F6:  BRA    34F4
034F8:  BCF    FA6.2
034FA:  MOVF   00,W
034FC:  IORWF  FF2,F
....................       delay_ms(10); 
034FE:  MOVLW  0A
03500:  MOVLB  3
03502:  MOVWF  xE4
03504:  MOVLB  0
03506:  CALL   1806
0350A:  MOVLB  3
....................    } 
....................    if(sg1==10){ 
0350C:  MOVF   x87,W
0350E:  SUBLW  0A
03510:  BNZ   3526
....................       G1=G1*(-1); 
03512:  MOVFF  385,3D1
03516:  MOVLW  FF
03518:  MOVWF  xD2
0351A:  MOVLB  0
0351C:  CALL   2ADA
03520:  MOVFF  01,385
03524:  MOVLB  3
....................    } 
....................    if(sg2==10){ 
03526:  MOVF   x88,W
03528:  SUBLW  0A
0352A:  BNZ   353E
....................       G2=G2*(-1); 
0352C:  MOVFF  386,3D1
03530:  MOVLW  FF
03532:  MOVWF  xD2
03534:  MOVLB  0
03536:  CALL   2ADA
0353A:  MOVFF  01,386
....................    } 
....................    if(tsecados>1000 || tsecados<50){ 
0353E:  MOVLB  0
03540:  MOVF   xB0,W
03542:  SUBLW  02
03544:  BC    3550
03546:  XORLW  FF
03548:  BNZ   355A
0354A:  MOVF   xAF,W
0354C:  SUBLW  E8
0354E:  BNC   355A
03550:  MOVF   xB0,F
03552:  BNZ   35D2
03554:  MOVF   xAF,W
03556:  SUBLW  31
03558:  BNC   35D2
....................       tsecados=50;write_eeprom(46,50);delay_ms(10);write_eeprom(47,0);delay_ms(10); 
0355A:  CLRF   xB0
0355C:  MOVLW  32
0355E:  MOVWF  xAF
03560:  CLRF   FAA
03562:  MOVLW  2E
03564:  MOVWF  FA9
03566:  MOVLW  32
03568:  MOVWF  FA8
0356A:  BCF    FA6.6
0356C:  BCF    FA6.7
0356E:  BSF    FA6.2
03570:  MOVF   FF2,W
03572:  MOVWF  00
03574:  BCF    FF2.6
03576:  BCF    FF2.7
03578:  MOVLB  F
0357A:  MOVLW  55
0357C:  MOVWF  FA7
0357E:  MOVLW  AA
03580:  MOVWF  FA7
03582:  BSF    FA6.1
03584:  BTFSC  FA6.1
03586:  BRA    3584
03588:  BCF    FA6.2
0358A:  MOVF   00,W
0358C:  IORWF  FF2,F
0358E:  MOVLW  0A
03590:  MOVLB  3
03592:  MOVWF  xE4
03594:  MOVLB  0
03596:  CALL   1806
0359A:  CLRF   FAA
0359C:  MOVLW  2F
0359E:  MOVWF  FA9
035A0:  CLRF   FA8
035A2:  BCF    FA6.6
035A4:  BCF    FA6.7
035A6:  BSF    FA6.2
035A8:  MOVF   FF2,W
035AA:  MOVWF  00
035AC:  BCF    FF2.6
035AE:  BCF    FF2.7
035B0:  MOVLB  F
035B2:  MOVLW  55
035B4:  MOVWF  FA7
035B6:  MOVLW  AA
035B8:  MOVWF  FA7
035BA:  BSF    FA6.1
035BC:  BTFSC  FA6.1
035BE:  BRA    35BC
035C0:  BCF    FA6.2
035C2:  MOVF   00,W
035C4:  IORWF  FF2,F
035C6:  MOVLW  0A
035C8:  MOVLB  3
035CA:  MOVWF  xE4
035CC:  MOVLB  0
035CE:  CALL   1806
....................    } 
.................... } 
035D2:  GOTO   5AA4 (RETURN)
....................  
.................... void LeeDisplay(void){ 
....................    if(Dato_Exitoso==5){ 
*
03B88:  MOVLB  3
03B8A:  MOVF   x34,W
03B8C:  SUBLW  05
03B8E:  BTFSS  FD8.2
03B90:  BRA    3CF0
....................          RX_Buffer[0]=RX_Buffer2[0]; 
03B92:  MOVFF  3B,30
....................          RX_Buffer[1]=RX_Buffer2[1]; 
03B96:  MOVFF  3C,31
....................          RX_Buffer[2]=RX_Buffer2[2]; 
03B9A:  MOVFF  3D,32
....................          RX_Buffer[3]=RX_Buffer2[3]; 
03B9E:  MOVFF  3E,33
....................          RX_Buffer[4]=RX_Buffer2[4]; 
03BA2:  MOVFF  3F,34
....................          RX_Buffer[5]=RX_Buffer2[5]; 
03BA6:  MOVFF  40,35
....................          RX_Buffer[6]=RX_Buffer2[6]; 
03BAA:  MOVFF  41,36
....................          RX_Buffer[7]=RX_Buffer2[7]; 
03BAE:  MOVFF  42,37
....................          RX_Buffer[8]=RX_Buffer2[8]; 
03BB2:  MOVFF  43,38
....................          RX_Buffer[9]=RX_Buffer2[9]; 
03BB6:  MOVFF  44,39
....................           
....................       if(RX_Buffer[3]==0x01){// Pregunta por la pagina en la que esta el display,01 es Contrasea de Acceso 
03BBA:  DECFSZ 33,W
03BBC:  BRA    3BCC
....................          Menu=0; 
03BBE:  CLRF   x37
....................          if(MenuAntt!=Menu) 
03BC0:  MOVF   x37,W
03BC2:  SUBWF  x39,W
03BC4:  BZ    3BCA
....................             MenuAntt=Menu; 
03BC6:  MOVFF  337,339
....................       }else if(RX_Buffer[3]==0x02){//02 es Menu Principal con PantallaPriincipal=0, y con PantallaPrincipal=1 es Ciclo Libre 
03BCA:  BRA    3CEE
03BCC:  MOVF   33,W
03BCE:  SUBLW  02
03BD0:  BNZ   3BE2
....................          Menu=1; 
03BD2:  MOVLW  01
03BD4:  MOVWF  x37
....................          if(MenuAntt!=Menu) 
03BD6:  MOVF   x37,W
03BD8:  SUBWF  x39,W
03BDA:  BZ    3BE0
....................             MenuAntt=Menu; 
03BDC:  MOVFF  337,339
....................       }else if(RX_Buffer[3]==0x03){//03 es Tiempo Esterilizacion 
03BE0:  BRA    3CEE
03BE2:  MOVF   33,W
03BE4:  SUBLW  03
03BE6:  BNZ   3BF8
....................          Menu=2; 
03BE8:  MOVLW  02
03BEA:  MOVWF  x37
....................          if(MenuAntt!=Menu) 
03BEC:  MOVF   x37,W
03BEE:  SUBWF  x39,W
03BF0:  BZ    3BF6
....................             MenuAntt=Menu; 
03BF2:  MOVFF  337,339
....................       }else if(RX_Buffer[3]==0x04){//04 es Tiempo de Secado 
03BF6:  BRA    3CEE
03BF8:  MOVF   33,W
03BFA:  SUBLW  04
03BFC:  BNZ   3C0E
....................          Menu=3; 
03BFE:  MOVLW  03
03C00:  MOVWF  x37
....................          if(MenuAntt!=Menu) 
03C02:  MOVF   x37,W
03C04:  SUBWF  x39,W
03C06:  BZ    3C0C
....................             MenuAntt=Menu; 
03C08:  MOVFF  337,339
....................       }else if(RX_Buffer[3]==0x05){//05 es Temperatura 
03C0C:  BRA    3CEE
03C0E:  MOVF   33,W
03C10:  SUBLW  05
03C12:  BNZ   3C24
....................          Menu=4; 
03C14:  MOVLW  04
03C16:  MOVWF  x37
....................          if(MenuAntt!=Menu) 
03C18:  MOVF   x37,W
03C1A:  SUBWF  x39,W
03C1C:  BZ    3C22
....................             MenuAntt=Menu; 
03C1E:  MOVFF  337,339
....................       }else if(RX_Buffer[3]==0x06){//06 es Nivel 
03C22:  BRA    3CEE
03C24:  MOVF   33,W
03C26:  SUBLW  06
03C28:  BNZ   3C3A
....................          Menu=5; 
03C2A:  MOVLW  05
03C2C:  MOVWF  x37
....................          if(MenuAntt!=Menu) 
03C2E:  MOVF   x37,W
03C30:  SUBWF  x39,W
03C32:  BZ    3C38
....................             MenuAntt=Menu; 
03C34:  MOVFF  337,339
....................       }else if(RX_Buffer[3]==0x07){//07 es Test de Componentes 
03C38:  BRA    3CEE
03C3A:  MOVF   33,W
03C3C:  SUBLW  07
03C3E:  BNZ   3C50
....................          Menu=6; 
03C40:  MOVLW  06
03C42:  MOVWF  x37
....................          if(MenuAntt!=Menu) 
03C44:  MOVF   x37,W
03C46:  SUBWF  x39,W
03C48:  BZ    3C4E
....................             MenuAntt=Menu; 
03C4A:  MOVFF  337,339
....................       }else if(RX_Buffer[3]==0x08){//08 es Fecha y hora 
03C4E:  BRA    3CEE
03C50:  MOVF   33,W
03C52:  SUBLW  08
03C54:  BNZ   3C66
....................          Menu=7; 
03C56:  MOVLW  07
03C58:  MOVWF  x37
....................          if(MenuAntt!=Menu) 
03C5A:  MOVF   x37,W
03C5C:  SUBWF  x39,W
03C5E:  BZ    3C64
....................             MenuAntt=Menu; 
03C60:  MOVFF  337,339
....................       }else if(RX_Buffer[3]==0x09){//09 es Ciclos Personalizados 
03C64:  BRA    3CEE
03C66:  MOVF   33,W
03C68:  SUBLW  09
03C6A:  BNZ   3C7C
....................          Menu=8; 
03C6C:  MOVLW  08
03C6E:  MOVWF  x37
....................          if(MenuAntt!=Menu) 
03C70:  MOVF   x37,W
03C72:  SUBWF  x39,W
03C74:  BZ    3C7A
....................             MenuAntt=Menu; 
03C76:  MOVFF  337,339
....................       }else if(RX_Buffer[3]==0x0f){//0f es Recibe caracteres de contrasea desde display 
03C7A:  BRA    3CEE
03C7C:  MOVF   33,W
03C7E:  SUBLW  0F
03C80:  BNZ   3C84
....................           
....................       }else if(RX_Buffer[3]==0x1a){//1a es Menu de Funcionamiento 
03C82:  BRA    3CEE
03C84:  MOVF   33,W
03C86:  SUBLW  1A
03C88:  BNZ   3C9A
....................          Menu=20; 
03C8A:  MOVLW  14
03C8C:  MOVWF  x37
....................          if(MenuAntt!=Menu) 
03C8E:  MOVF   x37,W
03C90:  SUBWF  x39,W
03C92:  BZ    3C98
....................             MenuAntt=Menu; 
03C94:  MOVFF  337,339
....................       }else if(RX_Buffer[3]==0x1b){//1b es Menu de clave correcta 
03C98:  BRA    3CEE
03C9A:  MOVF   33,W
03C9C:  SUBLW  1B
03C9E:  BNZ   3CB0
....................          Menu=15; 
03CA0:  MOVLW  0F
03CA2:  MOVWF  x37
....................          if(MenuAntt!=Menu) 
03CA4:  MOVF   x37,W
03CA6:  SUBWF  x39,W
03CA8:  BZ    3CAE
....................             MenuAntt=Menu; 
03CAA:  MOVFF  337,339
....................       }else if(RX_Buffer[3]==0x1c){//1c es Menu de clave incorrecta 
03CAE:  BRA    3CEE
03CB0:  MOVF   33,W
03CB2:  SUBLW  1C
03CB4:  BNZ   3CC6
....................          Menu=16; 
03CB6:  MOVLW  10
03CB8:  MOVWF  x37
....................          if(MenuAntt!=Menu) 
03CBA:  MOVF   x37,W
03CBC:  SUBWF  x39,W
03CBE:  BZ    3CC4
....................             MenuAntt=Menu; 
03CC0:  MOVFF  337,339
....................       }else if(RX_Buffer[3]==0x2c){//2c es Menu de Configuracion de Parametros 
03CC4:  BRA    3CEE
03CC6:  MOVF   33,W
03CC8:  SUBLW  2C
03CCA:  BNZ   3CDC
....................          Menu=100; 
03CCC:  MOVLW  64
03CCE:  MOVWF  x37
....................          if(MenuAntt!=Menu) 
03CD0:  MOVF   x37,W
03CD2:  SUBWF  x39,W
03CD4:  BZ    3CDA
....................             MenuAntt=Menu; 
03CD6:  MOVFF  337,339
....................       }else if(RX_Buffer[3]==0xcc){//cc es Menu de Bienvenida 
03CDA:  BRA    3CEE
03CDC:  MOVF   33,W
03CDE:  SUBLW  CC
03CE0:  BNZ   3CEE
....................          Menu=240; 
03CE2:  MOVLW  F0
03CE4:  MOVWF  x37
....................          if(MenuAntt!=240) 
03CE6:  MOVF   x39,W
03CE8:  SUBLW  F0
03CEA:  BZ    3CEE
....................             reset_cpu(); 
03CEC:  RESET
....................       } 
....................    }else{ 
03CEE:  BRA    3CFC
....................       for(z=0;z<RX_BUFFER_SIZE;z++){ 
03CF0:  CLRF   x36
03CF2:  MOVF   x36,W
03CF4:  SUBLW  09
03CF6:  BNC   3CFC
....................             //Rx_Buffer[z]=0; 
....................             //Rx_Buffer2[z]=0; 
....................          } 
03CF8:  INCF   x36,F
03CFA:  BRA    3CF2
....................    } 
.................... } 
03CFC:  MOVLB  0
03CFE:  GOTO   5BC8 (RETURN)
....................  
.................... void ConfiguraCiclo(int8 este0,este1,este2,este3,secado0,secado1,secado2,secado3,liquidos,ciclo,temperatura){ 
....................    Testerilizacionp[0]=este0;Testerilizacionp[1]=este1;Testerilizacionp[2]=este2;Testerilizacionp[3]=este3; 
*
04596:  MOVFF  3D9,B6
0459A:  MOVFF  3DA,B7
0459E:  MOVFF  3DB,B8
045A2:  MOVFF  3DC,B9
....................    Tsecadop[0]=secado0;Tsecadop[1]=secado1;Tsecadop[2]=secado2;Tsecadop[3]=secado3; 
045A6:  MOVFF  3DD,BF
045AA:  MOVFF  3DE,C0
045AE:  MOVFF  3DF,C1
045B2:  MOVFF  3E0,C2
....................    Setpoint=temperatura;                
045B6:  MOVFF  3E3,33E
....................    tiempo_secado=0; 
045BA:  MOVLB  3
045BC:  CLRF   x42
....................    desfoguelento=liquidos; 
045BE:  MOVLB  0
045C0:  BCF    xA4.2
045C2:  MOVLB  3
045C4:  BTFSS  xE1.0
045C6:  BRA    45CE
045C8:  MOVLB  0
045CA:  BSF    xA4.2
045CC:  MOVLB  3
....................    CicloSeleccionado=ciclo; 
045CE:  MOVFF  3E2,33D
....................    Testerilizacion[0]=Testerilizacionp[0];Testerilizacion[1]=Testerilizacionp[1];Testerilizacion[2]=Testerilizacionp[2]; 
045D2:  MOVFF  B6,B1
045D6:  MOVFF  B7,B2
045DA:  MOVFF  B8,B3
....................    Testerilizacion[3]=Testerilizacionp[3];Testerilizacion[4]=Testerilizacionp[4]; 
045DE:  MOVFF  B9,B4
045E2:  MOVFF  BA,B5
....................    Tsecado[0]=Tsecadop[0];Tsecado[1]=Tsecadop[1];Tsecado[2]=Tsecadop[2];Tsecado[3]=Tsecadop[3]; 
045E6:  MOVFF  BF,BB
045EA:  MOVFF  C0,BC
045EE:  MOVFF  C1,BD
045F2:  MOVFF  C2,BE
....................    Imprime=15; 
045F6:  MOVLW  0F
045F8:  MOVWF  x84
....................    Envio_Esclavos(); 
045FA:  MOVLB  0
045FC:  RCALL  3F5C
....................    delay_ms(100); 
045FE:  MOVLW  64
04600:  MOVLB  3
04602:  MOVWF  xE4
04604:  MOVLB  0
04606:  CALL   1806
....................    Imprime=10; 
0460A:  MOVLW  0A
0460C:  MOVLB  3
0460E:  MOVWF  x84
.................... } 
04610:  MOVLB  0
04612:  RETLW  00
....................  
.................... void ActivaAlarma(int8 Tipo){ 
....................     
....................    if(tsilencio>12000){ 
*
043BE:  MOVLB  3
043C0:  MOVF   x72,W
043C2:  SUBLW  2D
043C4:  BC    43DA
043C6:  XORLW  FF
043C8:  BNZ   43D0
043CA:  MOVF   x71,W
043CC:  SUBLW  E0
043CE:  BC    43DA
....................       tsilencio=0; 
043D0:  CLRF   x72
043D2:  CLRF   x71
....................       flagSilencio=OFF; 
043D4:  MOVLB  0
043D6:  BCF    xA3.1
043D8:  MOVLB  3
....................    } 
....................     
....................    if(Tipo==1){ // Alarma por Error 
043DA:  DECFSZ xCF,W
043DC:  BRA    4432
....................    if(UP || DOWN || RIGHT || LEFT) 
043DE:  BSF    F93.0
043E0:  BTFSS  F81.0
043E2:  BRA    43F6
043E4:  BSF    F93.1
043E6:  BTFSS  F81.1
043E8:  BRA    43F6
043EA:  BSF    F93.2
043EC:  BTFSS  F81.2
043EE:  BRA    43F6
043F0:  BSF    F93.3
043F2:  BTFSC  F81.3
043F4:  BRA    43FA
....................       flagSilencio=ON; 
043F6:  MOVLB  0
043F8:  BSF    xA3.1
....................        
....................       if(!flagSilencio){ 
043FA:  MOVLB  0
043FC:  BTFSC  xA3.1
043FE:  BRA    442A
....................          flagAlarma=1; 
04400:  BSF    xA2.7
....................          if(tbuzzer>200){ 
04402:  MOVLB  3
04404:  MOVF   x70,F
04406:  BNZ   440E
04408:  MOVF   x6F,W
0440A:  SUBLW  C8
0440C:  BC    4426
....................             tbuzzer=0; 
0440E:  CLRF   x70
04410:  CLRF   x6F
....................             flagBuzzer=!flagBuzzer; 
04412:  MOVLB  0
04414:  BTG    xA3.0
....................             if(flagBuzzer) 
04416:  BTFSS  xA3.0
04418:  BRA    4420
....................                Buzzer_on; 
0441A:  BSF    F8C.0
0441C:  BCF    F95.0
....................             else 
0441E:  BRA    4424
....................                Buzzer_off; 
04420:  BCF    F8C.0
04422:  BCF    F95.0
04424:  MOVLB  3
....................          } 
....................       }else{ 
04426:  BRA    4430
04428:  MOVLB  0
....................          Buzzer_off; 
0442A:  BCF    F8C.0
0442C:  BCF    F95.0
0442E:  MOVLB  3
....................       } 
....................    }else if(Tipo==2){ 
04430:  BRA    448A
04432:  MOVF   xCF,W
04434:  SUBLW  02
04436:  BNZ   448A
....................    if(UP || DOWN || RIGHT || LEFT) 
04438:  BSF    F93.0
0443A:  BTFSS  F81.0
0443C:  BRA    4450
0443E:  BSF    F93.1
04440:  BTFSS  F81.1
04442:  BRA    4450
04444:  BSF    F93.2
04446:  BTFSS  F81.2
04448:  BRA    4450
0444A:  BSF    F93.3
0444C:  BTFSC  F81.3
0444E:  BRA    4454
....................       ConteoBuzzer=21; 
04450:  MOVLW  15
04452:  MOVWF  x6C
....................        
....................       flagAlarma=1; 
04454:  MOVLB  0
04456:  BSF    xA2.7
....................       if(ConteoBuzzer<20){    
04458:  MOVLB  3
0445A:  MOVF   x6C,W
0445C:  SUBLW  13
0445E:  BNC   4486
....................          if(tbuzzer>100){ 
04460:  MOVF   x70,F
04462:  BNZ   446A
04464:  MOVF   x6F,W
04466:  SUBLW  64
04468:  BC    4484
....................             tbuzzer=0; 
0446A:  CLRF   x70
0446C:  CLRF   x6F
....................             flagBuzzer=!flagBuzzer; 
0446E:  MOVLB  0
04470:  BTG    xA3.0
....................             if(flagBuzzer) 
04472:  BTFSS  xA3.0
04474:  BRA    447C
....................                Buzzer_on; 
04476:  BSF    F8C.0
04478:  BCF    F95.0
....................             else 
0447A:  BRA    4480
....................                Buzzer_off; 
0447C:  BCF    F8C.0
0447E:  BCF    F95.0
....................                 
....................             ConteoBuzzer++;    
04480:  MOVLB  3
04482:  INCF   x6C,F
....................          } 
....................       }else{ 
04484:  BRA    448A
....................          Buzzer_off; 
04486:  BCF    F8C.0
04488:  BCF    F95.0
....................       } 
....................    } 
.................... } 
0448A:  MOVLB  0
0448C:  RETLW  00
....................  
.................... void CalientaChaqueta(){ 
....................    /*if(PresionPrecamara<130){ 
....................       SSR_on; 
....................    }else if(PresionPreCamara>150){ 
....................       SSR_off; 
....................    } 
....................    */                                  
....................    Tp=tsecados; 
*
0526E:  MOVFF  B0,AC
05272:  MOVFF  AF,AB
....................    Tc=(Tciclo/0.005); 
05276:  MOVFF  2E0,3D7
0527A:  MOVFF  2DF,3D6
0527E:  MOVFF  2DE,3D5
05282:  MOVFF  2DD,3D4
05286:  MOVLW  0A
05288:  MOVLB  3
0528A:  MOVWF  xDB
0528C:  MOVLW  D7
0528E:  MOVWF  xDA
05290:  MOVLW  23
05292:  MOVWF  xD9
05294:  MOVLW  77
05296:  MOVWF  xD8
05298:  MOVLB  0
0529A:  CALL   1864
0529E:  MOVFF  03,3E7
052A2:  MOVFF  02,3E6
052A6:  MOVFF  01,3E5
052AA:  MOVFF  00,3E4
052AE:  CALL   3D02
052B2:  MOVFF  02,AE
052B6:  MOVFF  01,AD
....................    Controlando=1;  
052BA:  MOVLW  01
052BC:  MOVLB  3
052BE:  MOVWF  x2F
.................... } 
052C0:  MOVLB  0
052C2:  GOTO   A4EE (RETURN)
....................  
.................... void ApagaSalidas(){ 
....................    Desfogue_off; 
*
0363E:  BCF    F8C.4
03640:  BCF    F95.4
....................    Bomba_off; 
03642:  BCF    F8C.6
03644:  BCF    F95.6
....................    Buzzer_off; 
03646:  BCF    F8C.0
03648:  BCF    F95.0
....................    SSR_off; 
0364A:  BSF    F8B.2
0364C:  BCF    F94.2
....................    Aire=OFF; 
0364E:  BCF    xA3.7
....................    Agua_off; 
03650:  BCF    F8C.5
03652:  BCF    F95.5
....................    Controlando=0; 
03654:  MOVLB  3
03656:  CLRF   x2F
.................... } 
03658:  MOVLB  0
0365A:  RETLW  00
....................  
.................... int8 extraeDecima(int8 tiempo){ 
*
04B40:  MOVLB  3
04B42:  CLRF   xD7
04B44:  CLRF   xD8
....................    int8 tmp=0,decima=0; 
....................    tmp=tiempo/10; 
04B46:  MOVFF  3D6,3D9
04B4A:  MOVLW  0A
04B4C:  MOVWF  xDA
04B4E:  MOVLB  0
04B50:  RCALL  44EC
04B52:  MOVFF  01,3D7
....................    tmp=tmp*10; 
04B56:  MOVLB  3
04B58:  MOVF   xD7,W
04B5A:  MULLW  0A
04B5C:  MOVFF  FF3,3D7
....................    decima=tiempo-tmp; 
04B60:  MOVF   xD7,W
04B62:  SUBWF  xD6,W
04B64:  MOVWF  xD8
....................    return decima; 
04B66:  MOVFF  3D8,01
.................... } 
04B6A:  MOVLB  0
04B6C:  RETLW  00
....................  
.................... void purgaAire(){ 
....................    if(PresionCamara>30 && !purgo){ 
*
0516C:  MOVLB  3
0516E:  MOVF   x51,F
05170:  BNZ   5178
05172:  MOVF   x50,W
05174:  SUBLW  1E
05176:  BC    5188
05178:  MOVLB  0
0517A:  BTFSS  xA4.0
0517C:  BRA    5182
0517E:  MOVLB  3
05180:  BRA    5188
....................       purgaAire2=ON; 
05182:  BSF    xA4.1
....................    }else{ 
05184:  BRA    518E
05186:  MOVLB  3
....................       purgaAire2=OFF; 
05188:  MOVLB  0
0518A:  BCF    xA4.1
....................       Aire=OFF; 
0518C:  BCF    xA3.7
....................    } 
....................     
....................    if(purgaAire2){ 
0518E:  BTFSS  xA4.1
05190:  BRA    5266
....................       if(tPurgaAire>0 && tPurgaAire<6){ 
05192:  MOVLB  3
05194:  MOVF   x58,F
05196:  BNZ   519C
05198:  MOVF   x59,F
0519A:  BZ    51AE
0519C:  MOVF   x59,F
0519E:  BNZ   51AE
051A0:  MOVF   x58,W
051A2:  SUBLW  05
051A4:  BNC   51AE
....................          Aire=ON; 
051A6:  MOVLB  0
051A8:  BSF    xA3.7
....................       }else if(tPurgaAire>=6 && tPurgaAire<66){ 
051AA:  BRA    5266
051AC:  MOVLB  3
051AE:  MOVF   x59,F
051B0:  BNZ   51B8
051B2:  MOVF   x58,W
051B4:  SUBLW  05
051B6:  BC    51CA
051B8:  MOVF   x59,F
051BA:  BNZ   51CA
051BC:  MOVF   x58,W
051BE:  SUBLW  41
051C0:  BNC   51CA
....................          Aire=OFF; 
051C2:  MOVLB  0
051C4:  BCF    xA3.7
....................       }else if(tPurgaAire>=66 && tPurgaAire<72){ 
051C6:  BRA    5266
051C8:  MOVLB  3
051CA:  MOVF   x59,F
051CC:  BNZ   51D4
051CE:  MOVF   x58,W
051D0:  SUBLW  41
051D2:  BC    51E6
051D4:  MOVF   x59,F
051D6:  BNZ   51E6
051D8:  MOVF   x58,W
051DA:  SUBLW  47
051DC:  BNC   51E6
....................          Aire=ON; 
051DE:  MOVLB  0
051E0:  BSF    xA3.7
....................       }else if(tPurgaAire>=72 && tPurgaAire<132){ 
051E2:  BRA    5266
051E4:  MOVLB  3
051E6:  MOVF   x59,F
051E8:  BNZ   51F0
051EA:  MOVF   x58,W
051EC:  SUBLW  47
051EE:  BC    5202
051F0:  MOVF   x59,F
051F2:  BNZ   5202
051F4:  MOVF   x58,W
051F6:  SUBLW  83
051F8:  BNC   5202
....................          Aire=OFF; 
051FA:  MOVLB  0
051FC:  BCF    xA3.7
....................       }else if(tPurgaAire>=132 && tPurgaAire<138){ 
051FE:  BRA    5266
05200:  MOVLB  3
05202:  MOVF   x59,F
05204:  BNZ   520C
05206:  MOVF   x58,W
05208:  SUBLW  83
0520A:  BC    521E
0520C:  MOVF   x59,F
0520E:  BNZ   521E
05210:  MOVF   x58,W
05212:  SUBLW  89
05214:  BNC   521E
....................          Aire=ON; 
05216:  MOVLB  0
05218:  BSF    xA3.7
....................       }else if(tPurgaAire>=138 && tPurgaAire<198){ 
0521A:  BRA    5266
0521C:  MOVLB  3
0521E:  MOVF   x59,F
05220:  BNZ   5228
05222:  MOVF   x58,W
05224:  SUBLW  89
05226:  BC    523A
05228:  MOVF   x59,F
0522A:  BNZ   523A
0522C:  MOVF   x58,W
0522E:  SUBLW  C5
05230:  BNC   523A
....................          Aire=OFF; 
05232:  MOVLB  0
05234:  BCF    xA3.7
....................       }else if(tPurgaAire>=198 && tPurgaAire<204){ 
05236:  BRA    5266
05238:  MOVLB  3
0523A:  MOVF   x59,F
0523C:  BNZ   5244
0523E:  MOVF   x58,W
05240:  SUBLW  C5
05242:  BC    5256
05244:  MOVF   x59,F
05246:  BNZ   5256
05248:  MOVF   x58,W
0524A:  SUBLW  CB
0524C:  BNC   5256
....................          Aire=ON; 
0524E:  MOVLB  0
05250:  BSF    xA3.7
....................       }else if(tPurgaAire>0){ 
05252:  BRA    5266
05254:  MOVLB  3
05256:  MOVF   x58,F
05258:  BNZ   525E
0525A:  MOVF   x59,F
0525C:  BZ    5268
....................          Aire=OFF; 
0525E:  MOVLB  0
05260:  BCF    xA3.7
....................          purgaAire2=OFF; 
05262:  BCF    xA4.1
....................          purgo=ON; 
05264:  BSF    xA4.0
05266:  MOVLB  3
....................       } 
....................    } 
....................  
.................... } 
05268:  MOVLB  0
0526A:  GOTO   A198 (RETURN)
....................  
....................  
.................... #int_rda HIGH 
.................... void serial_rx_isr(){ 
....................  
....................    Dato2=fgetc(); 
*
00204:  BTFSS  F9E.5
00206:  BRA    0204
00208:  MOVFF  FAE,335
0020C:  MOVLB  3
....................    if(Dato2==0x65){//Inicio Comunicacion 
0020E:  MOVF   x35,W
00210:  SUBLW  65
00212:  BNZ   021A
....................       Inicio=1; 
00214:  MOVLW  01
00216:  MOVWF  x33
....................       RX_Wr_Index =0; 
00218:  CLRF   46
....................    } 
....................    //Inicio=1; 
....................    if(Inicio==1){ 
0021A:  DECFSZ x33,W
0021C:  BRA    0232
....................       Rx_Buffer2[RX_Wr_Index] = Dato2; 
0021E:  CLRF   03
00220:  MOVF   46,W
00222:  ADDLW  3B
00224:  MOVWF  FE9
00226:  MOVLW  00
00228:  ADDWFC 03,W
0022A:  MOVWF  FEA
0022C:  MOVFF  335,FEF
....................       RX_Wr_Index++; 
00230:  INCF   46,F
....................    } 
....................    if(RX_Wr_Index >= RX_BUFFER_SIZE){ 
00232:  MOVF   46,W
00234:  SUBLW  09
00236:  BC    023C
....................       RX_Wr_Index =0; 
00238:  CLRF   46
....................       Inicio=0; 
0023A:  CLRF   x33
....................    } 
....................  
....................    if(RX_Wr_Index==0){ 
0023C:  MOVF   46,F
0023E:  BNZ   0260
....................       if(Rx_Buffer2[0]==0x65 && Rx_Buffer2[1]==0xff && Rx_Buffer2[2]==0xff && Rx_Buffer2[8]==0x00 && Rx_Buffer2[9]==0xff ){ 
00240:  MOVF   3B,W
00242:  SUBLW  65
00244:  BNZ   025C
00246:  INCFSZ 3C,W
00248:  BRA    025C
0024A:  INCFSZ 3D,W
0024C:  BRA    025C
0024E:  MOVF   43,F
00250:  BNZ   025C
00252:  INCFSZ 44,W
00254:  BRA    025C
....................          Dato_Exitoso=5; 
00256:  MOVLW  05
00258:  MOVWF  x34
....................       }else{ 
0025A:  BRA    0260
....................          Dato_Exitoso=10; 
0025C:  MOVLW  0A
0025E:  MOVWF  x34
....................       } 
....................    } 
....................    //Dato_Exitoso=5; 
....................    if(Menu==20) 
00260:  MOVF   x37,W
00262:  SUBLW  14
00264:  BNZ   026A
....................      Buzzer_on; 
00266:  BSF    F8C.0
00268:  BCF    F95.0
.................... } 
....................  
0026A:  BCF    F9E.5
0026C:  MOVLB  0
0026E:  GOTO   010A
.................... #int_TIMER0 
.................... void temp0s(void){ 
....................    set_timer0(0); 
00272:  CLRF   FD7
00274:  CLRF   FD6
....................    t_exhaust++; 
00276:  MOVLB  3
00278:  INCF   x6D,F
0027A:  BTFSC  FD8.2
0027C:  INCF   x6E,F
....................    if(DesfogueSuave){ 
0027E:  MOVLB  0
00280:  BTFSS  xA0.6
00282:  BRA    02C4
....................       if(Nivel<6){ 
00284:  MOVLB  3
00286:  MOVF   x4D,F
00288:  BNZ   02BE
0028A:  MOVF   x4C,W
0028C:  SUBLW  05
0028E:  BNC   02BE
....................          if(t_exhaust<=NivelSeleccionado) // Si el tiempo es menor o igual al tiempo de control se enciende la resistencia de lo contrario se apaga. 
00290:  MOVF   x6E,W
00292:  SUBWF  x57,W
00294:  BNC   02A4
00296:  BNZ   029E
00298:  MOVF   x6D,W
0029A:  SUBWF  x56,W
0029C:  BNC   02A4
....................             Desfogue_on; 
0029E:  BSF    F8C.4
002A0:  BCF    F95.4
....................          else             
002A2:  BRA    02A8
....................             Desfogue_off; 
002A4:  BCF    F8C.4
002A6:  BCF    F95.4
....................        
....................          if(t_exhaust>=60000) // Si el tiempo de control es mayor al tiempo de ciclo se reinicia tiempo de control          
002A8:  MOVF   x6E,W
002AA:  SUBLW  E9
002AC:  BC    02BC
002AE:  XORLW  FF
002B0:  BNZ   02B8
002B2:  MOVF   x6D,W
002B4:  SUBLW  5F
002B6:  BC    02BC
....................             t_exhaust=0; // tiempoctrl incrementa una unidad cada Xms, por eso se dividen los tiempos por 0.005. 
002B8:  CLRF   x6E
002BA:  CLRF   x6D
....................       }else{ 
002BC:  BRA    02C2
....................          Desfogue_on; 
002BE:  BSF    F8C.4
002C0:  BCF    F95.4
002C2:  MOVLB  0
....................       } 
....................    }   
.................... } 
....................  
002C4:  BCF    FF2.2
002C6:  GOTO   0074
.................... #int_TIMER1 
.................... void temp1s(void){ 
....................    set_timer1(40536); // Se repite cada 5ms 
002CA:  MOVLW  9E
002CC:  MOVWF  FCF
002CE:  MOVLW  58
002D0:  MOVWF  FCE
....................    tiempos++; 
002D2:  MOVLB  3
002D4:  INCF   x44,F
002D6:  BTFSC  FD8.2
002D8:  INCF   x45,F
....................    tiempos2++; 
002DA:  INCF   x46,F
002DC:  BTFSC  FD8.2
002DE:  INCF   x47,F
....................    tiempos3++; 
002E0:  INCF   x48,F
002E2:  BTFSC  FD8.2
002E4:  INCF   x49,F
....................    tiempoctrl++; 
002E6:  INCF   x4A,F
002E8:  BTFSC  FD8.2
002EA:  INCF   x4B,F
....................     
....................    if(!STOP){ 
002EC:  BSF    F93.7
002EE:  BTFSS  F81.7
002F0:  BRA    02FA
....................       tStop++; 
002F2:  INCF   x5A,F
002F4:  BTFSC  FD8.2
002F6:  INCF   x5B,F
....................    }else{ 
002F8:  BRA    02FE
....................       tStop=0; 
002FA:  CLRF   x5B
002FC:  CLRF   x5A
....................    } 
....................     
....................    if(!TERM){ 
002FE:  BSF    F93.5
00300:  BTFSS  F81.5
00302:  BRA    030C
....................       tTermostato++; 
00304:  INCF   x5C,F
00306:  BTFSC  FD8.2
00308:  INCF   x5D,F
....................    }else{ 
0030A:  BRA    0310
....................       tTermostato=0; 
0030C:  CLRF   x5D
0030E:  CLRF   x5C
....................    } 
....................     
....................    if(flagAlarma) 
00310:  MOVLB  0
00312:  BTFSS  xA2.7
00314:  BRA    0320
....................       tbuzzer++; 
00316:  MOVLB  3
00318:  INCF   x6F,F
0031A:  BTFSC  FD8.2
0031C:  INCF   x70,F
0031E:  MOVLB  0
....................        
....................    if(flagSilencio)    
00320:  BTFSS  xA3.1
00322:  BRA    032C
....................       tsilencio++; 
00324:  MOVLB  3
00326:  INCF   x71,F
00328:  BTFSC  FD8.2
0032A:  INCF   x72,F
....................     
....................    if(Controlando==1){ 
0032C:  MOVLB  3
0032E:  DECFSZ x2F,W
00330:  BRA    036E
....................       if(tiempoctrl<Tp) // Si el tiempo es menor o igual al tiempo de control se enciende la resistencia de lo contrario se apaga. 
00332:  MOVF   x4B,W
00334:  MOVLB  0
00336:  SUBWF  xAC,W
00338:  BNC   0352
0033A:  BNZ   034C
0033C:  MOVF   xAB,W
0033E:  MOVLB  3
00340:  SUBWF  x4A,W
00342:  BTFSS  FD8.0
00344:  BRA    034A
00346:  MOVLB  0
00348:  BRA    0352
0034A:  MOVLB  0
....................          SSR_on; 
0034C:  BCF    F8B.2
0034E:  BCF    F94.2
....................       else          
00350:  BRA    0356
....................          SSR_off; 
00352:  BSF    F8B.2
00354:  BCF    F94.2
....................              
....................       if(tiempoctrl>=Tc) // Si el tiempo de control es mayor al tiempo de ciclo se reinicia tiempo de control 
00356:  MOVF   xAE,W
00358:  MOVLB  3
0035A:  SUBWF  x4B,W
0035C:  BNC   036E
0035E:  BNZ   036A
00360:  MOVLB  0
00362:  MOVF   xAD,W
00364:  MOVLB  3
00366:  SUBWF  x4A,W
00368:  BNC   036E
....................          tiempoctrl=0;// tiempoctrl incrementa una unidad cada 5ms, por eso se dividen los tiempos por 0.005. 
0036A:  CLRF   x4B
0036C:  CLRF   x4A
....................    } 
....................     
....................    if(tiempos>=200)  // 12000 para que incremente cada minuto, 200para que incremente cada segundo. 
0036E:  MOVF   x45,F
00370:  BNZ   037A
00372:  MOVF   x44,W
00374:  SUBLW  C7
00376:  BTFSC  FD8.0
00378:  BRA    04AE
....................    { 
....................       if(flagTC) 
0037A:  MOVLB  0
0037C:  BTFSS  xA4.6
0037E:  BRA    0386
....................          TiempoControl++; 
00380:  MOVLB  3
00382:  INCF   x6A,F
00384:  MOVLB  0
....................           
....................       if(purgaAire2) 
00386:  BTFSS  xA4.1
00388:  BRA    0392
....................          tPurgaAire++; 
0038A:  MOVLB  3
0038C:  INCF   x58,F
0038E:  BTFSC  FD8.2
00390:  INCF   x59,F
....................        
....................       tiemporecta++; 
00392:  MOVLB  3
00394:  INCF   x2E,F
....................        
....................       if(IniciaCiclo && tiempoImpresion<CalculoImpresion){ 
00396:  MOVLB  0
00398:  BTFSS  xA0.1
0039A:  BRA    03AE
0039C:  MOVLB  3
0039E:  MOVF   x32,W
003A0:  SUBWF  x43,W
003A2:  BTFSS  FD8.0
003A4:  BRA    03AA
003A6:  MOVLB  0
003A8:  BRA    03AE
....................          tiempoImpresion++; 
003AA:  INCF   x43,F
....................       }else if(tiempoImpresion>=CalculoImpresion){ 
003AC:  BRA    03BE
003AE:  MOVLB  3
003B0:  MOVF   x32,W
003B2:  SUBWF  x43,W
003B4:  BNC   03BE
....................          flagImprime=1; 
003B6:  MOVLB  0
003B8:  BSF    xA4.7
....................          tiempoImpresion=0; 
003BA:  MOVLB  3
003BC:  CLRF   x43
....................       } 
....................        
....................       if(IniciaCiclo && !Esterilizando){ 
003BE:  MOVLB  0
003C0:  BTFSS  xA0.1
003C2:  BRA    03D8
003C4:  BTFSC  xA0.2
003C6:  BRA    03D8
....................          TiempoCiclo++; 
003C8:  INCF   xA5,F
003CA:  BTFSC  FD8.2
003CC:  INCF   xA6,F
....................          tiempoAgua++; 
003CE:  MOVLB  3
003D0:  INCF   x73,F
003D2:  BTFSC  FD8.2
003D4:  INCF   x74,F
003D6:  MOVLB  0
....................       } 
....................        
....................       if(IniciaLlenado && !CalderinLleno){ 
003D8:  BTFSS  x9F.7
003DA:  BRA    03E6
003DC:  BTFSC  xA0.0
003DE:  BRA    03E6
....................          TiempoLlenado++; 
003E0:  INCF   xA7,F
003E2:  BTFSC  FD8.2
003E4:  INCF   xA8,F
....................       } 
....................        
....................       if(SensadoNivel){ 
003E6:  BTFSS  xA0.4
003E8:  BRA    03F0
....................          TiempoSensadoNivel++; 
003EA:  INCF   xA9,F
003EC:  BTFSC  FD8.2
003EE:  INCF   xAA,F
....................       } 
....................        
....................       tiempos=0;Lectura=1;tinicio++; 
003F0:  MOVLB  3
003F2:  CLRF   x45
003F4:  CLRF   x44
003F6:  MOVLB  0
003F8:  BSF    xA4.3
003FA:  MOVLB  3
003FC:  INCF   x4E,F
003FE:  BTFSC  FD8.2
00400:  INCF   x4F,F
....................     
....................       if(Esterilizando && !Desfogando){                
00402:  MOVLB  0
00404:  BTFSS  xA0.2
00406:  BRA    045A
00408:  BTFSC  xA0.5
0040A:  BRA    045A
....................          if(Testerilizacion[0]>0){ 
0040C:  BTFSC  xB1.7
0040E:  BRA    041A
00410:  MOVF   xB1,W
00412:  SUBLW  00
00414:  BC    041A
....................             Testerilizacion[0]--; 
00416:  DECF   xB1,F
....................          }else if(Testerilizacion[1]>0){ 
00418:  BRA    045A
0041A:  BTFSC  xB2.7
0041C:  BRA    042C
0041E:  MOVF   xB2,W
00420:  SUBLW  00
00422:  BC    042C
....................             Testerilizacion[1]--; 
00424:  DECF   xB2,F
....................             Testerilizacion[0]=9; 
00426:  MOVLW  09
00428:  MOVWF  xB1
....................          }else if(Testerilizacion[2]>0){ 
0042A:  BRA    045A
0042C:  BTFSC  xB3.7
0042E:  BRA    0442
00430:  MOVF   xB3,W
00432:  SUBLW  00
00434:  BC    0442
....................             Testerilizacion[2]--; 
00436:  DECF   xB3,F
....................             Testerilizacion[1]=5; 
00438:  MOVLW  05
0043A:  MOVWF  xB2
....................             Testerilizacion[0]=9; 
0043C:  MOVLW  09
0043E:  MOVWF  xB1
....................          }else if(Testerilizacion[3]>0){ 
00440:  BRA    045A
00442:  BTFSC  xB4.7
00444:  BRA    045A
00446:  MOVF   xB4,W
00448:  SUBLW  00
0044A:  BC    045A
....................             Testerilizacion[3]--; 
0044C:  DECF   xB4,F
....................             Testerilizacion[2]=9; 
0044E:  MOVLW  09
00450:  MOVWF  xB3
....................             Testerilizacion[1]=5; 
00452:  MOVLW  05
00454:  MOVWF  xB2
....................             Testerilizacion[0]=9; 
00456:  MOVLW  09
00458:  MOVWF  xB1
....................          } 
....................       } 
....................        
....................       if(Secando){ 
0045A:  BTFSS  xA0.3
0045C:  BRA    04AC
....................          if(Tsecado[0]>0){ 
0045E:  BTFSC  xBB.7
00460:  BRA    046C
00462:  MOVF   xBB,W
00464:  SUBLW  00
00466:  BC    046C
....................             Tsecado[0]--; 
00468:  DECF   xBB,F
....................          }else if(Tsecado[1]>0){ 
0046A:  BRA    04AC
0046C:  BTFSC  xBC.7
0046E:  BRA    047E
00470:  MOVF   xBC,W
00472:  SUBLW  00
00474:  BC    047E
....................             Tsecado[1]--; 
00476:  DECF   xBC,F
....................             Tsecado[0]=9; 
00478:  MOVLW  09
0047A:  MOVWF  xBB
....................          }else if(Tsecado[2]>0){ 
0047C:  BRA    04AC
0047E:  BTFSC  xBD.7
00480:  BRA    0494
00482:  MOVF   xBD,W
00484:  SUBLW  00
00486:  BC    0494
....................             Tsecado[2]--; 
00488:  DECF   xBD,F
....................             Tsecado[1]=5; 
0048A:  MOVLW  05
0048C:  MOVWF  xBC
....................             Tsecado[0]=9; 
0048E:  MOVLW  09
00490:  MOVWF  xBB
....................          }else if(Tsecado[3]>0){ 
00492:  BRA    04AC
00494:  BTFSC  xBE.7
00496:  BRA    04AC
00498:  MOVF   xBE,W
0049A:  SUBLW  00
0049C:  BC    04AC
....................             Tsecado[3]--; 
0049E:  DECF   xBE,F
....................             Tsecado[2]=9; 
004A0:  MOVLW  09
004A2:  MOVWF  xBD
....................             Tsecado[1]=5; 
004A4:  MOVLW  05
004A6:  MOVWF  xBC
....................             Tsecado[0]=9; 
004A8:  MOVLW  09
004AA:  MOVWF  xBB
004AC:  MOVLB  3
....................          } 
....................       } 
....................    } 
.................... } 
....................  
004AE:  BCF    F9E.0
004B0:  MOVLB  0
004B2:  GOTO   0074
.................... void main() 
.................... { 
*
052C6:  CLRF   FF8
052C8:  BCF    FF1.2
052CA:  BCF    F9F.0
052CC:  BSF    F9F.5
052CE:  BSF    FD0.7
052D0:  BSF    07.7
052D2:  CLRF   FEA
052D4:  CLRF   FE9
052D6:  BSF    FB8.3
052D8:  MOVLW  08
052DA:  MOVWF  FAF
052DC:  MOVLW  02
052DE:  MOVWF  FB0
052E0:  MOVLW  A6
052E2:  MOVWF  FAC
052E4:  MOVLW  90
052E6:  MOVWF  FAB
052E8:  CLRF   46
052EA:  CLRF   47
052EC:  CLRF   48
052EE:  CLRF   x62
052F0:  CLRF   x63
052F2:  CLRF   x84
052F4:  CLRF   x85
052F6:  CLRF   x86
052F8:  BCF    x9F.0
052FA:  BCF    x9F.1
052FC:  BCF    x9F.2
052FE:  BCF    x9F.3
05300:  BCF    x9F.4
05302:  BCF    x9F.5
05304:  BCF    x9F.6
05306:  BCF    x9F.7
05308:  BCF    xA0.0
0530A:  BCF    xA0.1
0530C:  BCF    xA0.2
0530E:  BCF    xA0.3
05310:  BCF    xA0.4
05312:  BCF    xA0.5
05314:  BCF    xA0.6
05316:  BCF    xA0.7
05318:  BCF    xA1.0
0531A:  BCF    xA1.1
0531C:  BCF    xA1.2
0531E:  BCF    xA1.3
05320:  BCF    xA1.4
05322:  BCF    xA1.5
05324:  BCF    xA1.6
05326:  BCF    xA1.7
05328:  BCF    xA2.0
0532A:  BCF    xA2.1
0532C:  BCF    xA2.2
0532E:  BCF    xA2.3
05330:  BCF    xA2.4
05332:  BCF    xA2.5
05334:  BCF    xA2.6
05336:  BCF    xA2.7
05338:  BCF    xA3.0
0533A:  BCF    xA3.1
0533C:  BCF    xA3.2
0533E:  BCF    xA3.3
05340:  BCF    xA3.4
05342:  BCF    xA3.5
05344:  BCF    xA3.6
05346:  BCF    xA3.7
05348:  BCF    xA4.0
0534A:  BCF    xA4.1
0534C:  CLRF   xA6
0534E:  CLRF   xA5
05350:  CLRF   xA8
05352:  CLRF   xA7
05354:  CLRF   xAA
05356:  CLRF   xA9
05358:  CLRF   xAC
0535A:  CLRF   xAB
0535C:  CLRF   xAE
0535E:  CLRF   xAD
05360:  MOVLW  03
05362:  MOVWF  xB0
05364:  MOVLW  20
05366:  MOVWF  xAF
05368:  MOVLW  9A
0536A:  MOVLB  2
0536C:  MOVWF  xA6
0536E:  MOVLW  99
05370:  MOVWF  xA5
05372:  MOVLW  0D
05374:  MOVWF  xA4
05376:  MOVLW  86
05378:  MOVWF  xA3
0537A:  CLRF   xAA
0537C:  CLRF   xA9
0537E:  CLRF   xA8
05380:  MOVLW  7E
05382:  MOVWF  xA7
05384:  CLRF   xAE
05386:  CLRF   xAD
05388:  CLRF   xAC
0538A:  CLRF   xAB
0538C:  CLRF   xB2
0538E:  CLRF   xB1
05390:  MOVLW  48
05392:  MOVWF  xB0
05394:  MOVLW  85
05396:  MOVWF  xAF
05398:  CLRF   xB6
0539A:  MOVLW  80
0539C:  MOVWF  xB5
0539E:  MOVLW  54
053A0:  MOVWF  xB4
053A2:  MOVLW  8B
053A4:  MOVWF  xB3
053A6:  CLRF   xC2
053A8:  CLRF   xC1
053AA:  CLRF   xC0
053AC:  CLRF   xBF
053AE:  CLRF   xC6
053B0:  CLRF   xC5
053B2:  CLRF   xC4
053B4:  CLRF   xC3
053B6:  CLRF   xCA
053B8:  CLRF   xC9
053BA:  CLRF   xC8
053BC:  CLRF   xC7
053BE:  CLRF   xCB
053C0:  CLRF   xCC
053C2:  CLRF   xCD
053C4:  CLRF   xCE
053C6:  MOVLW  14
053C8:  MOVWF  xCF
053CA:  CLRF   xD0
053CC:  CLRF   xD1
053CE:  CLRF   xD2
053D0:  CLRF   xD3
053D2:  CLRF   xD4
053D4:  CLRF   xD8
053D6:  CLRF   xD7
053D8:  CLRF   xD6
053DA:  CLRF   xD5
053DC:  CLRF   xE0
053DE:  CLRF   xDF
053E0:  MOVLW  20
053E2:  MOVWF  xDE
053E4:  MOVLW  82
053E6:  MOVWF  xDD
053E8:  CLRF   xE4
053EA:  CLRF   xE3
053EC:  CLRF   xE2
053EE:  CLRF   xE1
053F0:  CLRF   xE8
053F2:  CLRF   xE7
053F4:  CLRF   xE6
053F6:  CLRF   xE5
053F8:  CLRF   xEC
053FA:  CLRF   xEB
053FC:  CLRF   xEA
053FE:  CLRF   xE9
05400:  CLRF   xF0
05402:  CLRF   xEF
05404:  CLRF   xEE
05406:  CLRF   xED
05408:  CLRF   xF4
0540A:  CLRF   xF3
0540C:  CLRF   xF2
0540E:  CLRF   xF1
05410:  CLRF   xF8
05412:  CLRF   xF7
05414:  MOVLW  48
05416:  MOVWF  xF6
05418:  MOVLW  83
0541A:  MOVWF  xF5
0541C:  CLRF   xFC
0541E:  CLRF   xFB
05420:  MOVLW  20
05422:  MOVWF  xFA
05424:  MOVLW  83
05426:  MOVWF  xF9
05428:  MOVLB  3
0542A:  CLRF   x00
0542C:  MOVLB  2
0542E:  CLRF   xFF
05430:  CLRF   xFE
05432:  MOVLW  7F
05434:  MOVWF  xFD
05436:  MOVLB  3
05438:  CLRF   x04
0543A:  CLRF   x03
0543C:  CLRF   x02
0543E:  CLRF   x01
05440:  CLRF   x08
05442:  CLRF   x07
05444:  CLRF   x06
05446:  CLRF   x05
05448:  CLRF   x0C
0544A:  CLRF   x0B
0544C:  CLRF   x0A
0544E:  CLRF   x09
05450:  CLRF   x10
05452:  CLRF   x0F
05454:  CLRF   x0E
05456:  CLRF   x0D
05458:  CLRF   x14
0545A:  CLRF   x13
0545C:  CLRF   x12
0545E:  CLRF   x11
05460:  CLRF   x18
05462:  CLRF   x17
05464:  CLRF   x16
05466:  CLRF   x15
05468:  MOVLW  4A
0546A:  MOVWF  x1C
0546C:  MOVLW  88
0546E:  MOVWF  x1B
05470:  MOVLW  28
05472:  MOVWF  x1A
05474:  MOVLW  75
05476:  MOVWF  x19
05478:  MOVLW  E0
0547A:  MOVWF  x20
0547C:  MOVLW  2D
0547E:  MOVWF  x1F
05480:  MOVLW  10
05482:  MOVWF  x1E
05484:  MOVLW  75
05486:  MOVWF  x1D
05488:  MOVLW  FF
0548A:  MOVWF  x24
0548C:  MOVLW  21
0548E:  MOVWF  x23
05490:  MOVLW  15
05492:  MOVWF  x22
05494:  MOVLW  80
05496:  MOVWF  x21
05498:  MOVLW  82
0549A:  MOVWF  x28
0549C:  MOVLW  12
0549E:  MOVWF  x27
054A0:  MOVLW  F4
054A2:  MOVWF  x26
054A4:  MOVLW  86
054A6:  MOVWF  x25
054A8:  CLRF   x29
054AA:  CLRF   x2A
054AC:  CLRF   x2B
054AE:  MOVLB  0
054B0:  BCF    xA4.2
054B2:  BCF    xA4.3
054B4:  BCF    xA4.4
054B6:  BCF    xA4.5
054B8:  BCF    xA4.6
054BA:  BCF    xA4.7
054BC:  MOVLB  3
054BE:  BCF    x2C.0
054C0:  CLRF   x2D
054C2:  CLRF   x2E
054C4:  CLRF   x2F
054C6:  MOVLW  01
054C8:  MOVWF  x30
054CA:  MOVLW  02
054CC:  MOVWF  x31
054CE:  CLRF   x32
054D0:  MOVLW  01
054D2:  MOVWF  x33
054D4:  CLRF   x34
054D6:  CLRF   x35
054D8:  CLRF   x36
054DA:  CLRF   x37
054DC:  CLRF   x38
054DE:  MOVLW  F0
054E0:  MOVWF  x39
054E2:  CLRF   x3A
054E4:  CLRF   x3B
054E6:  CLRF   x3C
054E8:  CLRF   x3D
054EA:  CLRF   x3E
054EC:  MOVLW  01
054EE:  MOVWF  x3F
054F0:  MOVWF  x40
054F2:  CLRF   x41
054F4:  CLRF   x42
054F6:  CLRF   x43
054F8:  CLRF   x45
054FA:  CLRF   x44
054FC:  CLRF   x47
054FE:  CLRF   x46
05500:  CLRF   x49
05502:  CLRF   x48
05504:  CLRF   x4B
05506:  CLRF   x4A
05508:  CLRF   x4D
0550A:  CLRF   x4C
0550C:  CLRF   x4F
0550E:  CLRF   x4E
05510:  CLRF   x51
05512:  CLRF   x50
05514:  CLRF   x53
05516:  CLRF   x52
05518:  CLRF   x55
0551A:  CLRF   x54
0551C:  CLRF   x57
0551E:  CLRF   x56
05520:  CLRF   x59
05522:  CLRF   x58
05524:  CLRF   x5B
05526:  CLRF   x5A
05528:  CLRF   x5D
0552A:  CLRF   x5C
0552C:  CLRF   x66
0552E:  CLRF   x67
05530:  CLRF   x68
05532:  CLRF   x69
05534:  CLRF   x6A
05536:  CLRF   x6B
05538:  CLRF   x6C
0553A:  CLRF   x6E
0553C:  CLRF   x6D
0553E:  CLRF   x70
05540:  CLRF   x6F
05542:  CLRF   x72
05544:  CLRF   x71
05546:  CLRF   x74
05548:  CLRF   x73
0554A:  MOVLW  12
0554C:  MOVWF  x75
0554E:  MOVLW  09
05550:  MOVWF  x76
05552:  MOVLW  0D
05554:  MOVWF  x77
05556:  CLRF   x78
05558:  CLRF   x79
0555A:  CLRF   x7A
0555C:  CLRF   x7B
0555E:  CLRF   x7C
05560:  CLRF   x7D
05562:  CLRF   x7E
05564:  CLRF   x7F
05566:  CLRF   x80
05568:  CLRF   x81
0556A:  CLRF   x82
0556C:  CLRF   x83
0556E:  CLRF   x84
05570:  CLRF   x85
05572:  CLRF   x86
05574:  CLRF   x87
05576:  CLRF   x88
05578:  MOVF   FC1,W
0557A:  ANDLW  C0
0557C:  IORLW  0F
0557E:  MOVWF  FC1
05580:  MOVLW  07
05582:  MOVWF  FB4
05584:  CLRF   2A
05586:  CLRF   2B
05588:  MOVLB  0
0558A:  CLRF   x87
0558C:  MOVLW  03
0558E:  MOVWF  x88
05590:  MOVWF  x89
05592:  MOVLW  06
05594:  MOVWF  x8A
05596:  MOVLW  01
05598:  MOVWF  x8B
0559A:  MOVLW  04
0559C:  MOVWF  x8C
0559E:  MOVLW  06
055A0:  MOVWF  x8D
055A2:  MOVLW  02
055A4:  MOVWF  x8E
055A6:  MOVLW  05
055A8:  MOVWF  x8F
055AA:  CLRF   x90
055AC:  MOVLW  03
055AE:  MOVWF  x91
055B0:  MOVLW  05
055B2:  MOVWF  x92
055B4:  CLRF   x93
055B6:  MOVLW  03
055B8:  MOVWF  x94
055BA:  MOVLW  04
055BC:  MOVWF  x95
055BE:  CLRF   x96
055C0:  MOVLW  02
055C2:  MOVWF  x97
055C4:  MOVLW  05
055C6:  MOVWF  x98
055C8:  CLRF   x99
055CA:  MOVLW  03
055CC:  MOVWF  x9A
055CE:  MOVLW  06
055D0:  MOVWF  x9B
055D2:  MOVLW  01
055D4:  MOVWF  x9C
055D6:  MOVLW  04
055D8:  MOVWF  x9D
055DA:  MOVLW  06
055DC:  MOVWF  x9E
055DE:  CLRF   xB1
055E0:  CLRF   xB2
055E2:  CLRF   xB3
055E4:  CLRF   xB4
055E6:  CLRF   xB5
055E8:  CLRF   xB6
055EA:  CLRF   xB7
055EC:  CLRF   xB8
055EE:  CLRF   xB9
055F0:  CLRF   xBA
055F2:  CLRF   xBB
055F4:  CLRF   xBC
055F6:  CLRF   xBD
055F8:  CLRF   xBE
055FA:  CLRF   xBF
055FC:  CLRF   xC0
055FE:  CLRF   xC1
05600:  CLRF   xC2
05602:  CLRF   xC3
05604:  CLRF   xC4
05606:  CLRF   xC5
05608:  CLRF   xC6
0560A:  CLRF   xC7
0560C:  CLRF   xC8
0560E:  CLRF   xC9
05610:  CLRF   xCA
05612:  CLRF   xCB
05614:  CLRF   xCC
05616:  CLRF   xCD
05618:  CLRF   xCE
0561A:  CLRF   xCF
0561C:  CLRF   xD0
0561E:  CLRF   xD1
05620:  CLRF   xD2
05622:  CLRF   xD3
05624:  CLRF   xD4
05626:  CLRF   xD5
05628:  CLRF   xD6
0562A:  CLRF   xD7
0562C:  CLRF   xD8
0562E:  CLRF   xD9
05630:  CLRF   xDA
05632:  CLRF   xDB
05634:  CLRF   xDC
05636:  CLRF   xDD
05638:  CLRF   xDE
0563A:  CLRF   xDF
0563C:  CLRF   xE0
0563E:  CLRF   xE1
05640:  CLRF   xE2
05642:  CLRF   xE3
05644:  CLRF   xE4
05646:  CLRF   xE5
05648:  CLRF   xE6
0564A:  CLRF   xE7
0564C:  CLRF   xE8
0564E:  CLRF   xE9
05650:  CLRF   xEA
05652:  CLRF   xEB
05654:  CLRF   xEC
05656:  CLRF   xED
05658:  CLRF   xEE
0565A:  CLRF   xEF
0565C:  CLRF   xF0
0565E:  CLRF   xF1
05660:  CLRF   xF2
05662:  CLRF   xF3
05664:  CLRF   xF4
05666:  CLRF   xF5
05668:  CLRF   xF6
0566A:  CLRF   xF7
0566C:  CLRF   xF8
0566E:  CLRF   xF9
05670:  CLRF   xFA
05672:  CLRF   xFB
05674:  CLRF   xFC
05676:  CLRF   xFD
05678:  CLRF   xFE
0567A:  CLRF   xFF
0567C:  MOVLB  1
0567E:  CLRF   x00
05680:  CLRF   x01
05682:  CLRF   x02
05684:  CLRF   x03
05686:  CLRF   x04
05688:  CLRF   x05
0568A:  CLRF   x06
0568C:  CLRF   x07
0568E:  CLRF   x08
05690:  CLRF   x09
05692:  CLRF   x0A
05694:  CLRF   x0B
05696:  CLRF   x0C
05698:  CLRF   x0D
0569A:  CLRF   x0E
0569C:  CLRF   x0F
0569E:  CLRF   x10
056A0:  CLRF   x11
056A2:  CLRF   x12
056A4:  CLRF   x13
056A6:  CLRF   x14
056A8:  CLRF   x15
056AA:  CLRF   x16
056AC:  CLRF   x17
056AE:  CLRF   x18
056B0:  CLRF   x19
056B2:  CLRF   x1A
056B4:  CLRF   x1B
056B6:  CLRF   x1C
056B8:  CLRF   x1D
056BA:  CLRF   x1E
056BC:  CLRF   x1F
056BE:  CLRF   x20
056C0:  CLRF   x21
056C2:  CLRF   x22
056C4:  CLRF   x23
056C6:  CLRF   x24
056C8:  CLRF   x25
056CA:  CLRF   x26
056CC:  CLRF   x27
056CE:  CLRF   x28
056D0:  CLRF   x29
056D2:  CLRF   x2A
056D4:  CLRF   x2B
056D6:  CLRF   x2C
056D8:  CLRF   x2D
056DA:  CLRF   x2E
056DC:  CLRF   x2F
056DE:  CLRF   x30
056E0:  CLRF   x31
056E2:  CLRF   x32
056E4:  CLRF   x33
056E6:  CLRF   x34
056E8:  CLRF   x35
056EA:  CLRF   x36
056EC:  CLRF   x37
056EE:  CLRF   x38
056F0:  CLRF   x39
056F2:  CLRF   x3A
056F4:  CLRF   x3B
056F6:  CLRF   x3C
056F8:  CLRF   x3D
056FA:  CLRF   x3E
056FC:  CLRF   x3F
056FE:  CLRF   x40
05700:  CLRF   x41
05702:  CLRF   x42
05704:  CLRF   x43
05706:  CLRF   x44
05708:  CLRF   x45
0570A:  CLRF   x46
0570C:  CLRF   x47
0570E:  CLRF   x48
05710:  CLRF   x49
05712:  CLRF   x4A
05714:  CLRF   x4B
05716:  CLRF   x4C
05718:  CLRF   x4D
0571A:  CLRF   x4E
0571C:  CLRF   x4F
0571E:  CLRF   x50
05720:  CLRF   x51
05722:  CLRF   x52
05724:  CLRF   x53
05726:  CLRF   x54
05728:  CLRF   x55
0572A:  CLRF   x56
0572C:  CLRF   x57
0572E:  CLRF   x58
05730:  CLRF   x59
05732:  CLRF   x5A
05734:  CLRF   x5B
05736:  CLRF   x5C
05738:  CLRF   x5D
0573A:  CLRF   x5E
0573C:  CLRF   x5F
0573E:  CLRF   x60
05740:  CLRF   x61
05742:  CLRF   x62
05744:  CLRF   x63
05746:  CLRF   x64
05748:  CLRF   x65
0574A:  CLRF   x66
0574C:  CLRF   x67
0574E:  CLRF   x68
05750:  CLRF   x69
05752:  CLRF   x6A
05754:  CLRF   x6B
05756:  CLRF   x6C
05758:  CLRF   x6D
0575A:  CLRF   x6E
0575C:  CLRF   x6F
0575E:  CLRF   x70
05760:  CLRF   x71
05762:  CLRF   x72
05764:  CLRF   x73
05766:  CLRF   x74
05768:  CLRF   x75
0576A:  CLRF   x76
0576C:  CLRF   x77
0576E:  CLRF   x78
05770:  CLRF   x79
05772:  CLRF   x7A
05774:  CLRF   x7B
05776:  CLRF   x7C
05778:  CLRF   x7D
0577A:  CLRF   x7E
0577C:  CLRF   x7F
0577E:  CLRF   x80
05780:  CLRF   x81
05782:  CLRF   x82
05784:  CLRF   x83
05786:  CLRF   x84
05788:  CLRF   x85
0578A:  CLRF   x86
0578C:  CLRF   x87
0578E:  CLRF   x88
05790:  CLRF   x89
05792:  CLRF   x8A
05794:  CLRF   x8B
05796:  CLRF   x8C
05798:  CLRF   x8D
0579A:  CLRF   x8E
0579C:  CLRF   x8F
0579E:  CLRF   x90
057A0:  CLRF   x91
057A2:  CLRF   x92
057A4:  CLRF   x93
057A6:  CLRF   x94
057A8:  CLRF   x95
057AA:  CLRF   x96
057AC:  CLRF   x97
057AE:  CLRF   x98
057B0:  CLRF   x99
057B2:  CLRF   x9A
057B4:  CLRF   x9B
057B6:  CLRF   x9C
057B8:  CLRF   x9D
057BA:  CLRF   x9E
057BC:  CLRF   x9F
057BE:  CLRF   xA0
057C0:  CLRF   xA1
057C2:  CLRF   xA2
057C4:  CLRF   xA3
057C6:  CLRF   xA4
057C8:  CLRF   xA5
057CA:  CLRF   xA6
057CC:  CLRF   xA7
057CE:  CLRF   xA8
057D0:  CLRF   xA9
057D2:  CLRF   xAA
057D4:  CLRF   xAB
057D6:  CLRF   xAC
057D8:  CLRF   xAD
057DA:  CLRF   xAE
057DC:  CLRF   xAF
057DE:  CLRF   xB0
057E0:  CLRF   xB1
057E2:  CLRF   xB2
057E4:  CLRF   xB3
057E6:  CLRF   xB4
057E8:  CLRF   xB5
057EA:  CLRF   xB6
057EC:  CLRF   xB7
057EE:  CLRF   xB8
057F0:  CLRF   xB9
057F2:  CLRF   xBA
057F4:  CLRF   xBB
057F6:  CLRF   xBC
057F8:  CLRF   xBD
057FA:  CLRF   xBE
057FC:  CLRF   xBF
057FE:  CLRF   xC0
05800:  CLRF   xC1
05802:  CLRF   xC2
05804:  CLRF   xC3
05806:  CLRF   xC4
05808:  CLRF   xC5
0580A:  CLRF   xC6
0580C:  CLRF   xC7
0580E:  CLRF   xC8
05810:  CLRF   xC9
05812:  CLRF   xCA
05814:  CLRF   xCB
05816:  CLRF   xCC
05818:  CLRF   xCD
0581A:  CLRF   xCE
0581C:  CLRF   xCF
0581E:  CLRF   xD0
05820:  CLRF   xD1
05822:  CLRF   xD2
05824:  CLRF   xD3
05826:  CLRF   xD4
05828:  CLRF   xD5
0582A:  CLRF   xD6
0582C:  CLRF   xD7
0582E:  CLRF   xD8
05830:  CLRF   xD9
05832:  CLRF   xDA
05834:  CLRF   xDB
05836:  CLRF   xDC
05838:  CLRF   xDD
0583A:  CLRF   xDE
0583C:  CLRF   xDF
0583E:  CLRF   xE0
05840:  CLRF   xE1
05842:  CLRF   xE2
05844:  CLRF   xE3
05846:  CLRF   xE4
05848:  CLRF   xE5
0584A:  CLRF   xE6
0584C:  CLRF   xE7
0584E:  CLRF   xE8
05850:  CLRF   xE9
05852:  CLRF   xEA
05854:  CLRF   xEB
05856:  CLRF   xEC
05858:  CLRF   xED
0585A:  CLRF   xEE
0585C:  CLRF   xEF
0585E:  CLRF   xF0
05860:  CLRF   xF1
05862:  CLRF   xF2
05864:  CLRF   xF3
05866:  CLRF   xF4
05868:  CLRF   xF5
0586A:  CLRF   xF6
0586C:  CLRF   xF7
0586E:  CLRF   xF8
05870:  CLRF   xF9
05872:  CLRF   xFA
05874:  CLRF   xFB
05876:  CLRF   xFC
05878:  CLRF   xFD
0587A:  CLRF   xFE
0587C:  CLRF   xFF
0587E:  MOVLB  2
05880:  CLRF   x00
05882:  CLRF   x01
05884:  CLRF   x02
05886:  CLRF   x03
05888:  CLRF   x04
0588A:  CLRF   x05
0588C:  CLRF   x06
0588E:  CLRF   x07
05890:  CLRF   x08
05892:  CLRF   x09
05894:  CLRF   x0A
05896:  CLRF   x0B
05898:  CLRF   x0C
0589A:  CLRF   x0D
0589C:  CLRF   x0E
0589E:  CLRF   x0F
058A0:  CLRF   x10
058A2:  CLRF   x11
058A4:  CLRF   x12
058A6:  CLRF   x13
058A8:  CLRF   x14
058AA:  CLRF   x15
058AC:  CLRF   x16
058AE:  CLRF   x17
058B0:  CLRF   x18
058B2:  CLRF   x19
058B4:  CLRF   x1A
058B6:  CLRF   x1B
058B8:  CLRF   x1C
058BA:  CLRF   x1D
058BC:  CLRF   x1E
058BE:  CLRF   x1F
058C0:  CLRF   x20
058C2:  CLRF   x21
058C4:  CLRF   x22
058C6:  CLRF   x23
058C8:  CLRF   x24
058CA:  CLRF   x25
058CC:  CLRF   x26
058CE:  CLRF   x27
058D0:  CLRF   x28
058D2:  CLRF   x29
058D4:  CLRF   x2A
058D6:  CLRF   x2B
058D8:  CLRF   x2C
058DA:  CLRF   x2D
058DC:  CLRF   x2E
058DE:  CLRF   x2F
058E0:  CLRF   x30
058E2:  CLRF   x31
058E4:  CLRF   x32
058E6:  CLRF   x33
058E8:  CLRF   x34
058EA:  CLRF   x35
058EC:  CLRF   x36
058EE:  CLRF   x37
058F0:  CLRF   x38
058F2:  CLRF   x39
058F4:  CLRF   x3A
058F6:  CLRF   x3B
058F8:  CLRF   x3C
058FA:  CLRF   x3D
058FC:  CLRF   x3E
058FE:  CLRF   x3F
05900:  CLRF   x40
05902:  CLRF   x41
05904:  CLRF   x42
05906:  CLRF   x43
05908:  CLRF   x44
0590A:  CLRF   x45
0590C:  CLRF   x46
0590E:  CLRF   x47
05910:  CLRF   x48
05912:  CLRF   x49
05914:  CLRF   x4A
05916:  CLRF   x4B
05918:  CLRF   x4C
0591A:  CLRF   x4D
0591C:  CLRF   x4E
0591E:  CLRF   x4F
05920:  CLRF   x50
05922:  CLRF   x51
05924:  CLRF   x52
05926:  CLRF   x53
05928:  CLRF   x54
0592A:  CLRF   x55
0592C:  CLRF   x56
0592E:  CLRF   x57
05930:  CLRF   x58
05932:  CLRF   x59
05934:  CLRF   x5A
05936:  CLRF   x5B
05938:  CLRF   x5C
0593A:  CLRF   x5D
0593C:  CLRF   x5E
0593E:  CLRF   x5F
05940:  CLRF   x60
05942:  CLRF   x61
05944:  CLRF   x62
05946:  CLRF   x63
05948:  CLRF   x64
0594A:  CLRF   x65
0594C:  CLRF   x66
0594E:  CLRF   x67
05950:  CLRF   x68
05952:  CLRF   x69
05954:  CLRF   x6A
05956:  CLRF   x6B
05958:  CLRF   x6C
0595A:  CLRF   x6D
0595C:  CLRF   x6E
0595E:  CLRF   x6F
05960:  CLRF   x70
05962:  CLRF   x71
05964:  CLRF   x72
05966:  CLRF   x73
05968:  CLRF   x74
0596A:  CLRF   x75
0596C:  CLRF   x76
0596E:  CLRF   x77
05970:  CLRF   x78
05972:  CLRF   x79
05974:  CLRF   x7A
05976:  CLRF   x7B
05978:  CLRF   x7C
0597A:  CLRF   x7D
0597C:  CLRF   x7E
0597E:  CLRF   x7F
05980:  CLRF   x80
05982:  CLRF   x81
05984:  CLRF   x82
05986:  CLRF   x83
05988:  CLRF   x84
0598A:  CLRF   x85
0598C:  CLRF   x86
0598E:  CLRF   x87
05990:  CLRF   x88
05992:  CLRF   x89
05994:  CLRF   x8A
05996:  CLRF   x8B
05998:  CLRF   x8C
0599A:  CLRF   x8D
0599C:  CLRF   x8E
0599E:  CLRF   x8F
059A0:  CLRF   x90
059A2:  CLRF   x91
059A4:  CLRF   x92
059A6:  CLRF   x93
059A8:  CLRF   x94
059AA:  CLRF   x95
059AC:  CLRF   x96
059AE:  CLRF   x97
059B0:  CLRF   x98
059B2:  CLRF   x99
059B4:  CLRF   x9A
059B6:  CLRF   x9B
059B8:  CLRF   x9C
059BA:  CLRF   x9D
059BC:  CLRF   x9E
059BE:  CLRF   x9F
059C0:  CLRF   xA0
059C2:  CLRF   xA1
059C4:  CLRF   xA2
059C6:  CLRF   xB7
059C8:  CLRF   xB8
059CA:  CLRF   xB9
059CC:  CLRF   xBA
059CE:  CLRF   xBB
059D0:  CLRF   xBC
059D2:  CLRF   xBD
059D4:  CLRF   xBE
059D6:  MOVLB  3
059D8:  CLRF   x5E
059DA:  CLRF   x5F
059DC:  CLRF   x60
059DE:  CLRF   x61
059E0:  CLRF   x62
059E2:  CLRF   x63
059E4:  CLRF   x64
059E6:  CLRF   x65
059E8:  MOVLW  16
059EA:  MOVWF  x89
059EC:  MOVLW  3C
059EE:  MOVWF  x8A
059F0:  MOVLW  10
059F2:  MOVWF  x8B
059F4:  MOVLW  3B
059F6:  MOVWF  x8C
059F8:  MOVLW  17
059FA:  MOVWF  x8D
059FC:  MOVLW  1C
059FE:  MOVWF  x8E
05A00:  MOVLW  14
05A02:  MOVWF  x8F
05A04:  MOVLW  2E
05A06:  MOVWF  x90
05A08:  CLRF   x91
05A0A:  CLRF   x92
05A0C:  CLRF   x93
05A0E:  CLRF   x94
05A10:  CLRF   x95
05A12:  CLRF   x96
05A14:  CLRF   x97
05A16:  MOVLW  12
05A18:  MOVWF  x98
05A1A:  MOVLW  39
05A1C:  MOVWF  x99
05A1E:  MOVLW  24
05A20:  MOVWF  x9A
05A22:  MOVLW  3A
05A24:  MOVWF  x9B
05A26:  MOVLW  20
05A28:  MOVWF  x9C
05A2A:  MOVLW  26
05A2C:  MOVWF  x9D
05A2E:  MOVLW  13
05A30:  MOVWF  x9E
05A32:  MOVLW  11
05A34:  MOVWF  x9F
05A36:  CLRF   xA0
05A38:  CLRF   xA1
05A3A:  CLRF   xA2
05A3C:  CLRF   xA3
05A3E:  CLRF   xA4
05A40:  CLRF   xA5
05A42:  CLRF   xA6
....................     
....................    for (posicion=0;posicion<0x10;posicion++){ 
05A44:  MOVLB  0
05A46:  CLRF   x86
05A48:  MOVF   x86,W
05A4A:  SUBLW  0F
05A4C:  BNC   5A62
....................       SlaveA0Tx[posicion] = 0x00; 
05A4E:  CLRF   03
05A50:  MOVF   x86,W
05A52:  ADDLW  64
05A54:  MOVWF  FE9
05A56:  MOVLW  00
05A58:  ADDWFC 03,W
05A5A:  MOVWF  FEA
05A5C:  CLRF   FEF
....................    } 
05A5E:  INCF   x86,F
05A60:  BRA    5A48
....................    setup_timer_0(RTCC_8_BIT|RTCC_DIV_1); 
05A62:  MOVLW  C8
05A64:  MOVWF  FD5
....................    enable_interrupts(INT_TIMER0); 
05A66:  BSF    FF2.5
....................    setup_timer_1(T1_INTERNAL|T1_DIV_BY_1); 
05A68:  MOVLW  85
05A6A:  MOVWF  FCD
....................    enable_interrupts(INT_TIMER1); 
05A6C:  BSF    F9D.0
....................    setup_adc_ports(AN0_TO_AN3); 
05A6E:  MOVF   FC1,W
05A70:  ANDLW  C0
05A72:  IORLW  0B
05A74:  MOVWF  FC1
....................    setup_adc(ADC_CLOCK_DIV_32 ); 
05A76:  MOVF   FC0,W
05A78:  ANDLW  C0
05A7A:  IORLW  02
05A7C:  MOVWF  FC0
05A7E:  BSF    FC0.7
05A80:  BSF    FC2.0
....................    port_b_pullups(true); 
05A82:  BCF    FF1.7
....................    enable_interrupts(int_rda); 
05A84:  BSF    F9D.5
....................    setup_wdt(WDT_ON); 
05A86:  BSF    FD1.0
....................    enable_interrupts(global); 
05A88:  MOVLW  C0
05A8A:  IORWF  FF2,F
....................    LeeEEPROM(); 
05A8C:  GOTO   1C3A
....................    rtc_init(); 
05A90:  GOTO   2A0E
....................    delay_ms(1); 
05A94:  MOVLW  01
05A96:  MOVLB  3
05A98:  MOVWF  xE4
05A9A:  MOVLB  0
05A9C:  CALL   1806
....................    LimitaValores(); 
05AA0:  GOTO   2B28
....................    CalculoImpresion=timpresion*60; 
05AA4:  MOVLB  3
05AA6:  MOVF   x31,W
05AA8:  MULLW  3C
05AAA:  MOVFF  FF3,332
....................    printf("page Bienvenida"); 
05AAE:  MOVLW  B6
05AB0:  MOVWF  FF6
05AB2:  MOVLW  04
05AB4:  MOVWF  FF7
05AB6:  MOVLW  00
05AB8:  MOVWF  FF8
05ABA:  MOVLB  0
05ABC:  CALL   35D6
....................    SendDataDisplay(); 
05AC0:  CALL   3608
....................    printf("bkcmd=0"); 
05AC4:  MOVLW  C6
05AC6:  MOVWF  FF6
05AC8:  MOVLW  04
05ACA:  MOVWF  FF7
05ACC:  MOVLW  00
05ACE:  MOVWF  FF8
05AD0:  CALL   35D6
....................    SendDataDisplay(); 
05AD4:  CALL   3608
....................    delay_ms(1500); 
05AD8:  MOVLW  06
05ADA:  MOVLB  3
05ADC:  MOVWF  xCF
05ADE:  MOVLW  FA
05AE0:  MOVWF  xE4
05AE2:  MOVLB  0
05AE4:  CALL   1806
05AE8:  MOVLB  3
05AEA:  DECFSZ xCF,F
05AEC:  BRA    5ADE
....................    printf("page Clave"); 
05AEE:  MOVLW  CE
05AF0:  MOVWF  FF6
05AF2:  MOVLW  04
05AF4:  MOVWF  FF7
05AF6:  MOVLW  00
05AF8:  MOVWF  FF8
05AFA:  MOVLB  0
05AFC:  CALL   35D6
....................    SendDataDisplay(); 
05B00:  CALL   3608
....................    ApagaSalidas(); 
05B04:  CALL   363E
....................     
....................    for(i=0;i<MediaMovil;i++){ 
05B08:  MOVLB  3
05B0A:  CLRF   x3A
05B0C:  MOVLB  2
05B0E:  MOVF   xCF,W
05B10:  MOVLB  3
05B12:  SUBWF  x3A,W
05B14:  BC    5B36
....................       Temperatura=LeerPT100(MediaMovil); 
05B16:  MOVFF  2CF,3CF
05B1A:  MOVLB  0
05B1C:  CALL   37CC
05B20:  MOVFF  03,318
05B24:  MOVFF  02,317
05B28:  MOVFF  01,316
05B2C:  MOVFF  00,315
....................    } 
05B30:  MOVLB  3
05B32:  INCF   x3A,F
05B34:  BRA    5B0C
....................     
....................    if(UP && DOWN && RIGHT && LEFT)//Si oprime boton de Toma. 
05B36:  BSF    F93.0
05B38:  BTFSC  F81.0
05B3A:  BRA    5BC2
05B3C:  BSF    F93.1
05B3E:  BTFSC  F81.1
05B40:  BRA    5BC2
05B42:  BSF    F93.2
05B44:  BTFSC  F81.2
05B46:  BRA    5BC2
05B48:  BSF    F93.3
05B4A:  BTFSC  F81.3
05B4C:  BRA    5BC2
....................    { 
....................       write_eeprom(37,0); 
05B4E:  CLRF   FAA
05B50:  MOVLW  25
05B52:  MOVWF  FA9
05B54:  CLRF   FA8
05B56:  BCF    FA6.6
05B58:  BCF    FA6.7
05B5A:  BSF    FA6.2
05B5C:  MOVF   FF2,W
05B5E:  MOVWF  00
05B60:  BCF    FF2.6
05B62:  BCF    FF2.7
05B64:  MOVLB  F
05B66:  MOVLW  55
05B68:  MOVWF  FA7
05B6A:  MOVLW  AA
05B6C:  MOVWF  FA7
05B6E:  BSF    FA6.1
05B70:  BTFSC  FA6.1
05B72:  BRA    5B70
05B74:  BCF    FA6.2
05B76:  MOVF   00,W
05B78:  IORWF  FF2,F
....................       delay_ms(20); 
05B7A:  MOVLW  14
05B7C:  MOVLB  3
05B7E:  MOVWF  xE4
05B80:  MOVLB  0
05B82:  CALL   1806
....................       write_eeprom(38,0); 
05B86:  CLRF   FAA
05B88:  MOVLW  26
05B8A:  MOVWF  FA9
05B8C:  CLRF   FA8
05B8E:  BCF    FA6.6
05B90:  BCF    FA6.7
05B92:  BSF    FA6.2
05B94:  MOVF   FF2,W
05B96:  MOVWF  00
05B98:  BCF    FF2.6
05B9A:  BCF    FF2.7
05B9C:  MOVLB  F
05B9E:  MOVLW  55
05BA0:  MOVWF  FA7
05BA2:  MOVLW  AA
05BA4:  MOVWF  FA7
05BA6:  BSF    FA6.1
05BA8:  BTFSC  FA6.1
05BAA:  BRA    5BA8
05BAC:  BCF    FA6.2
05BAE:  MOVF   00,W
05BB0:  IORWF  FF2,F
....................       delay_ms(20); 
05BB2:  MOVLW  14
05BB4:  MOVLB  3
05BB6:  MOVWF  xE4
05BB8:  MOVLB  0
05BBA:  CALL   1806
....................       reset_cpu(); 
05BBE:  RESET
05BC0:  MOVLB  3
....................    } 
....................     
....................    while(true) 
....................    { 
....................       LeeDisplay(); 
05BC2:  MOVLB  0
05BC4:  GOTO   3B88
....................       Envio_Esclavos(); 
05BC8:  CALL   3F5C
....................       delay_ms(1); 
05BCC:  MOVLW  01
05BCE:  MOVLB  3
05BD0:  MOVWF  xE4
05BD2:  MOVLB  0
05BD4:  CALL   1806
....................       //Lectura_Esclavos(); 
....................       restart_wdt(); 
05BD8:  CLRWDT
....................        
....................       if(!Esterilizando || Desfogando){ 
05BDA:  BTFSS  xA0.2
05BDC:  BRA    5BE2
05BDE:  BTFSS  xA0.5
05BE0:  BRA    5BEC
....................          CalculoImpresion=180; 
05BE2:  MOVLW  B4
05BE4:  MOVLB  3
05BE6:  MOVWF  x32
....................       }else{ 
05BE8:  BRA    5BF2
05BEA:  MOVLB  0
....................          CalculoImpresion=60; 
05BEC:  MOVLW  3C
05BEE:  MOVLB  3
05BF0:  MOVWF  x32
....................       } 
....................        
....................       // Monitoreo Nivel de Agua//-------------------------------------- 
....................             if(!LOW){//Si no sensa agua en el nivel alto y no se ha llenado el calderin          
05BF2:  BSF    F94.1
05BF4:  BTFSC  F82.1
05BF6:  BRA    5C20
....................                TiempoSensadoNivel=0; 
05BF8:  MOVLB  0
05BFA:  CLRF   xAA
05BFC:  CLRF   xA9
....................                Controlando=0;    
05BFE:  MOVLB  3
05C00:  CLRF   x2F
....................                if(tiempoAgua<600){ 
05C02:  MOVF   x74,W
05C04:  SUBLW  02
05C06:  BNC   5C14
05C08:  BNZ   5C10
05C0A:  MOVF   x73,W
05C0C:  SUBLW  57
05C0E:  BNC   5C14
....................                   CalderinLleno=OFF; 
05C10:  MOVLB  0
05C12:  BCF    xA0.0
....................                } 
....................                SensadoNivel=OFF; 
05C14:  MOVLB  0
05C16:  BCF    xA0.4
....................                TiempoSensadoNivel=0; 
05C18:  CLRF   xAA
05C1A:  CLRF   xA9
....................             } else{ 
05C1C:  BRA    5C34
05C1E:  MOVLB  3
....................                SensadoNivel=ON; 
05C20:  MOVLB  0
05C22:  BSF    xA0.4
....................                if(TiempoSensadoNivel>5){ 
05C24:  MOVF   xAA,F
05C26:  BNZ   5C2E
05C28:  MOVF   xA9,W
05C2A:  SUBLW  05
05C2C:  BC    5C34
....................                   SensadoNivel=OFF; 
05C2E:  BCF    xA0.4
....................                   CalderinLleno=ON; 
05C30:  BSF    xA0.0
....................                   IniciaLlenado=OFF;                   
05C32:  BCF    x9F.7
....................                } 
....................             } 
.................... // Tiempo de Grafica//-------------------------------------- 
....................       if(tiempos2>=6400){ 
05C34:  MOVLB  3
05C36:  MOVF   x47,W
05C38:  SUBLW  18
05C3A:  BC    5C46
....................          Grafica=1; 
05C3C:  MOVLB  0
05C3E:  BSF    xA4.4
....................          tiempos2=0; 
05C40:  MOVLB  3
05C42:  CLRF   x47
05C44:  CLRF   x46
....................       } 
....................  
.................... // Tiempo de Muestreo//-------------------------------------- 
....................       if(tiempos3>=20){ 
05C46:  MOVF   x49,F
05C48:  BNZ   5C52
05C4A:  MOVF   x48,W
05C4C:  SUBLW  13
05C4E:  BTFSC  FD8.0
05C50:  BRA    5D86
....................          Temperatura=LeerPt100(MediaMovil); 
05C52:  MOVFF  2CF,3CF
05C56:  MOVLB  0
05C58:  CALL   37CC
05C5C:  MOVFF  03,318
05C60:  MOVFF  02,317
05C64:  MOVFF  01,316
05C68:  MOVFF  00,315
....................          PresionCamara=Leer_Sensor_Presion_Camara(10); 
05C6C:  MOVLW  0A
05C6E:  MOVLB  3
05C70:  MOVWF  xCF
05C72:  MOVLB  0
05C74:  GOTO   3F9C
05C78:  MOVFF  03,3E7
05C7C:  MOVFF  02,3E6
05C80:  MOVFF  01,3E5
05C84:  MOVFF  00,3E4
05C88:  CALL   3D02
05C8C:  MOVFF  02,351
05C90:  MOVFF  01,350
....................          PresionPreCamara=Leer_Sensor_Presion_PreCamara(10); 
05C94:  MOVLW  0A
05C96:  MOVLB  3
05C98:  MOVWF  xCF
05C9A:  MOVLB  0
05C9C:  GOTO   4194
05CA0:  MOVFF  03,3E7
05CA4:  MOVFF  02,3E6
05CA8:  MOVFF  01,3E5
05CAC:  MOVFF  00,3E4
05CB0:  CALL   3D02
05CB4:  MOVFF  02,353
05CB8:  MOVFF  01,352
....................          rtc_get_date(Dia,Mes,Year,dow); 
....................          rtc_get_time(Hora,Minuto,Segundo); 
....................          tiempos3=0; 
*
05D80:  MOVLB  3
05D82:  CLRF   x49
05D84:  CLRF   x48
....................       } 
....................        
.................... // Monitoreo Parada Emergencia//--------------------------------------       
....................       if(!STOP && !IniciaCiclo && !PruebaEstados){ 
05D86:  BSF    F93.7
05D88:  BTFSS  F81.7
05D8A:  BRA    5DEC
05D8C:  MOVLB  0
05D8E:  BTFSS  xA0.1
05D90:  BRA    5D96
05D92:  MOVLB  3
05D94:  BRA    5DEC
05D96:  BTFSS  xA1.2
05D98:  BRA    5D9E
05D9A:  MOVLB  3
05D9C:  BRA    5DEC
....................          if(!disp_Stop){ 
05D9E:  BTFSC  xA4.5
05DA0:  BRA    5DC0
....................             disp_Stop=1;Menu=255; 
05DA2:  BSF    xA4.5
05DA4:  MOVLW  FF
05DA6:  MOVLB  3
05DA8:  MOVWF  x37
....................             printf("page Emergencia"); 
05DAA:  MOVLW  DA
05DAC:  MOVWF  FF6
05DAE:  MOVLW  04
05DB0:  MOVWF  FF7
05DB2:  MOVLW  00
05DB4:  MOVWF  FF8
05DB6:  MOVLB  0
05DB8:  CALL   35D6
....................             SendDataDisplay(); 
05DBC:  CALL   3608
....................          } 
....................          Controlando=0; 
05DC0:  MOVLB  3
05DC2:  CLRF   x2F
....................          Desfogue_on; 
05DC4:  BSF    F8C.4
05DC6:  BCF    F95.4
....................          SSR_off; 
05DC8:  BSF    F8B.2
05DCA:  BCF    F94.2
....................          Bomba_off; 
05DCC:  BCF    F8C.6
05DCE:  BCF    F95.6
....................          Agua_off; 
05DD0:  BCF    F8C.5
05DD2:  BCF    F95.5
....................          DesfogueSuave=OFF; 
05DD4:  MOVLB  0
05DD6:  BCF    xA0.6
....................          ActivaAlarma(1); 
05DD8:  MOVLW  01
05DDA:  MOVLB  3
05DDC:  MOVWF  xCF
05DDE:  MOVLB  0
05DE0:  CALL   43BE
....................          BorraBuffer(); 
05DE4:  GOTO   448E
....................       }else{ 
05DE8:  BRA    5DF4
05DEA:  MOVLB  3
....................          if(disp_Stop){ 
05DEC:  MOVLB  0
05DEE:  BTFSS  xA4.5
05DF0:  BRA    5DF4
....................             reset_cpu(); 
05DF2:  RESET
....................          } 
....................       }            
....................    //Buzzer_off;    
.................... //_-------------------------------------------------------------------------------------------------------------------------------------------------------- 
....................    if(Menu==240){ //Menu de Bienvenida. 
05DF4:  MOVLB  3
05DF6:  MOVF   x37,W
05DF8:  SUBLW  F0
05DFA:  BNZ   5E44
....................       printf("bkcmd=0"); 
05DFC:  MOVLW  EA
05DFE:  MOVWF  FF6
05E00:  MOVLW  04
05E02:  MOVWF  FF7
05E04:  MOVLW  00
05E06:  MOVWF  FF8
05E08:  MOVLB  0
05E0A:  CALL   35D6
....................       SendDataDisplay(); 
05E0E:  CALL   3608
....................       delay_ms(1500); 
05E12:  MOVLW  06
05E14:  MOVLB  3
05E16:  MOVWF  xCF
05E18:  MOVLW  FA
05E1A:  MOVWF  xE4
05E1C:  MOVLB  0
05E1E:  CALL   1806
05E22:  MOVLB  3
05E24:  DECFSZ xCF,F
05E26:  BRA    5E18
....................       printf("page Clave"); 
05E28:  MOVLW  F2
05E2A:  MOVWF  FF6
05E2C:  MOVLW  04
05E2E:  MOVWF  FF7
05E30:  MOVLW  00
05E32:  MOVWF  FF8
05E34:  MOVLB  0
05E36:  CALL   35D6
....................       SendDataDisplay(); 
05E3A:  CALL   3608
....................       ApagaSalidas(); 
05E3E:  CALL   363E
05E42:  MOVLB  3
....................    } 
.................... //_-------------------------------------------------------------------------------------------------------------------------------------------------------- 
....................  
.................... //_-------------------------------------------------------------------------------------------------------------------------------------------------------- 
....................     if(Menu==0){ //Menu de Contrasea de acceso. 
05E44:  MOVF   x37,F
05E46:  BTFSS  FD8.2
05E48:  GOTO   68C2
....................       ApagaSalidas(); 
05E4C:  MOVLB  0
05E4E:  CALL   363E
....................       entro=OFF; 
05E52:  BCF    xA3.6
....................       if(Digito==1){ 
05E54:  MOVLB  2
05E56:  DECFSZ xD4,W
05E58:  BRA    5EA4
....................          printf("t0.txt=\"%u\"",Contrasena[0]); 
05E5A:  MOVLW  FE
05E5C:  MOVWF  FF6
05E5E:  MOVLW  04
05E60:  MOVWF  FF7
05E62:  MOVLW  00
05E64:  MOVWF  FF8
05E66:  MOVLW  08
05E68:  MOVLB  3
05E6A:  MOVWF  xD3
05E6C:  MOVLB  0
05E6E:  CALL   44BA
05E72:  MOVFF  35E,3D1
05E76:  MOVLW  1B
05E78:  MOVLB  3
05E7A:  MOVWF  xD2
05E7C:  MOVLB  0
05E7E:  CALL   4518
05E82:  MOVLW  22
05E84:  BTFSS  F9E.4
05E86:  BRA    5E84
05E88:  MOVWF  FAD
....................          SendDataDisplay(); 
05E8A:  CALL   3608
....................          printf("va0.val=1"); 
05E8E:  MOVLW  0A
05E90:  MOVWF  FF6
05E92:  MOVLW  05
05E94:  MOVWF  FF7
05E96:  MOVLW  00
05E98:  MOVWF  FF8
05E9A:  CALL   35D6
....................          SendDataDisplay(); 
05E9E:  CALL   3608
05EA2:  MOVLB  2
....................       } 
....................        
....................       if(Digito==2){ 
05EA4:  MOVF   xD4,W
05EA6:  SUBLW  02
05EA8:  BNZ   5F04
....................          printf("t0.txt=\"%u%u\"",Contrasena[0],Contrasena[1]); 
05EAA:  MOVLW  14
05EAC:  MOVWF  FF6
05EAE:  MOVLW  05
05EB0:  MOVWF  FF7
05EB2:  MOVLW  00
05EB4:  MOVWF  FF8
05EB6:  MOVLW  08
05EB8:  MOVLB  3
05EBA:  MOVWF  xD3
05EBC:  MOVLB  0
05EBE:  CALL   44BA
05EC2:  MOVFF  35E,3D1
05EC6:  MOVLW  1B
05EC8:  MOVLB  3
05ECA:  MOVWF  xD2
05ECC:  MOVLB  0
05ECE:  CALL   4518
05ED2:  MOVFF  35F,3D1
05ED6:  MOVLW  1B
05ED8:  MOVLB  3
05EDA:  MOVWF  xD2
05EDC:  MOVLB  0
05EDE:  CALL   4518
05EE2:  MOVLW  22
05EE4:  BTFSS  F9E.4
05EE6:  BRA    5EE4
05EE8:  MOVWF  FAD
....................          SendDataDisplay(); 
05EEA:  CALL   3608
....................          printf("va0.val=2"); 
05EEE:  MOVLW  22
05EF0:  MOVWF  FF6
05EF2:  MOVLW  05
05EF4:  MOVWF  FF7
05EF6:  MOVLW  00
05EF8:  MOVWF  FF8
05EFA:  CALL   35D6
....................          SendDataDisplay(); 
05EFE:  CALL   3608
05F02:  MOVLB  2
....................       } 
....................        
....................       if(Digito==3){ 
05F04:  MOVF   xD4,W
05F06:  SUBLW  03
05F08:  BNZ   5F74
....................          printf("t0.txt=\"%u%u%u\"",Contrasena[0],Contrasena[1],Contrasena[2]); 
05F0A:  MOVLW  2C
05F0C:  MOVWF  FF6
05F0E:  MOVLW  05
05F10:  MOVWF  FF7
05F12:  MOVLW  00
05F14:  MOVWF  FF8
05F16:  MOVLW  08
05F18:  MOVLB  3
05F1A:  MOVWF  xD3
05F1C:  MOVLB  0
05F1E:  CALL   44BA
05F22:  MOVFF  35E,3D1
05F26:  MOVLW  1B
05F28:  MOVLB  3
05F2A:  MOVWF  xD2
05F2C:  MOVLB  0
05F2E:  CALL   4518
05F32:  MOVFF  35F,3D1
05F36:  MOVLW  1B
05F38:  MOVLB  3
05F3A:  MOVWF  xD2
05F3C:  MOVLB  0
05F3E:  CALL   4518
05F42:  MOVFF  360,3D1
05F46:  MOVLW  1B
05F48:  MOVLB  3
05F4A:  MOVWF  xD2
05F4C:  MOVLB  0
05F4E:  CALL   4518
05F52:  MOVLW  22
05F54:  BTFSS  F9E.4
05F56:  BRA    5F54
05F58:  MOVWF  FAD
....................          SendDataDisplay(); 
05F5A:  CALL   3608
....................          printf("va0.val=3"); 
05F5E:  MOVLW  3C
05F60:  MOVWF  FF6
05F62:  MOVLW  05
05F64:  MOVWF  FF7
05F66:  MOVLW  00
05F68:  MOVWF  FF8
05F6A:  CALL   35D6
....................          SendDataDisplay(); 
05F6E:  CALL   3608
05F72:  MOVLB  2
....................       } 
....................        
....................       if(Digito==4){ 
05F74:  MOVF   xD4,W
05F76:  SUBLW  04
05F78:  BNZ   5FF4
....................          printf("t0.txt=\"%u%u%u%u\"",Contrasena[0],Contrasena[1],Contrasena[2],Contrasena[3]); 
05F7A:  MOVLW  46
05F7C:  MOVWF  FF6
05F7E:  MOVLW  05
05F80:  MOVWF  FF7
05F82:  MOVLW  00
05F84:  MOVWF  FF8
05F86:  MOVLW  08
05F88:  MOVLB  3
05F8A:  MOVWF  xD3
05F8C:  MOVLB  0
05F8E:  CALL   44BA
05F92:  MOVFF  35E,3D1
05F96:  MOVLW  1B
05F98:  MOVLB  3
05F9A:  MOVWF  xD2
05F9C:  MOVLB  0
05F9E:  CALL   4518
05FA2:  MOVFF  35F,3D1
05FA6:  MOVLW  1B
05FA8:  MOVLB  3
05FAA:  MOVWF  xD2
05FAC:  MOVLB  0
05FAE:  CALL   4518
05FB2:  MOVFF  360,3D1
05FB6:  MOVLW  1B
05FB8:  MOVLB  3
05FBA:  MOVWF  xD2
05FBC:  MOVLB  0
05FBE:  CALL   4518
05FC2:  MOVFF  361,3D1
05FC6:  MOVLW  1B
05FC8:  MOVLB  3
05FCA:  MOVWF  xD2
05FCC:  MOVLB  0
05FCE:  CALL   4518
05FD2:  MOVLW  22
05FD4:  BTFSS  F9E.4
05FD6:  BRA    5FD4
05FD8:  MOVWF  FAD
....................          SendDataDisplay(); 
05FDA:  CALL   3608
....................          printf("va0.val=4"); 
05FDE:  MOVLW  58
05FE0:  MOVWF  FF6
05FE2:  MOVLW  05
05FE4:  MOVWF  FF7
05FE6:  MOVLW  00
05FE8:  MOVWF  FF8
05FEA:  CALL   35D6
....................          SendDataDisplay(); 
05FEE:  CALL   3608
05FF2:  MOVLB  2
....................       } 
....................        
....................       if(UP){ 
05FF4:  BSF    F93.0
05FF6:  BTFSC  F81.0
05FF8:  BRA    6042
....................          delay_ms(100); 
05FFA:  MOVLW  64
05FFC:  MOVLB  3
05FFE:  MOVWF  xE4
06000:  MOVLB  0
06002:  CALL   1806
....................          if(UP){ 
06006:  BSF    F93.0
06008:  BTFSC  F81.0
0600A:  BRA    6044
....................          if(Digito==0) 
0600C:  MOVLB  2
0600E:  MOVF   xD4,F
06010:  BNZ   6016
....................             Digito=1; 
06012:  MOVLW  01
06014:  MOVWF  xD4
....................             if(Contrasena[Digito-1]<9) 
06016:  MOVLW  01
06018:  SUBWF  xD4,W
0601A:  CLRF   03
0601C:  ADDLW  5E
0601E:  MOVWF  FE9
06020:  MOVLW  03
06022:  ADDWFC 03,W
06024:  MOVWF  FEA
06026:  BTFSC  FEF.7
06028:  BRA    6030
0602A:  MOVF   FEF,W
0602C:  SUBLW  08
0602E:  BNC   6042
....................                Contrasena[Digito-1]++; 
06030:  MOVLW  01
06032:  SUBWF  xD4,W
06034:  CLRF   03
06036:  ADDLW  5E
06038:  MOVWF  FE9
0603A:  MOVLW  03
0603C:  ADDWFC 03,W
0603E:  MOVWF  FEA
06040:  INCF   FEF,F
06042:  MOVLB  0
....................          } 
....................       } 
....................        
....................       if(DOWN){ 
06044:  BSF    F93.1
06046:  BTFSC  F81.1
06048:  BRA    6094
....................          delay_ms(100); 
0604A:  MOVLW  64
0604C:  MOVLB  3
0604E:  MOVWF  xE4
06050:  MOVLB  0
06052:  CALL   1806
....................          if(Digito==0) 
06056:  MOVLB  2
06058:  MOVF   xD4,F
0605A:  BNZ   6060
....................             Digito=1; 
0605C:  MOVLW  01
0605E:  MOVWF  xD4
....................          if(DOWN){ 
06060:  BSF    F93.1
06062:  BTFSC  F81.1
06064:  BRA    6092
....................             if(Contrasena[Digito-1]>0) 
06066:  MOVLW  01
06068:  SUBWF  xD4,W
0606A:  CLRF   03
0606C:  ADDLW  5E
0606E:  MOVWF  FE9
06070:  MOVLW  03
06072:  ADDWFC 03,W
06074:  MOVWF  FEA
06076:  BTFSC  FEF.7
06078:  BRA    6092
0607A:  MOVF   FEF,W
0607C:  SUBLW  00
0607E:  BC    6092
....................                Contrasena[Digito-1]--; 
06080:  MOVLW  01
06082:  SUBWF  xD4,W
06084:  CLRF   03
06086:  ADDLW  5E
06088:  MOVWF  FE9
0608A:  MOVLW  03
0608C:  ADDWFC 03,W
0608E:  MOVWF  FEA
06090:  DECF   FEF,F
06092:  MOVLB  0
....................          } 
....................       } 
....................        
....................       if(RIGHT){ 
06094:  BSF    F93.2
06096:  BTFSC  F81.2
06098:  BRA    60B2
....................          delay_ms(100); 
0609A:  MOVLW  64
0609C:  MOVLB  3
0609E:  MOVWF  xE4
060A0:  MOVLB  0
060A2:  CALL   1806
....................          if(RIGHT){ 
060A6:  BSF    F93.2
060A8:  BTFSC  F81.2
060AA:  BRA    60B2
....................             Digito++; 
060AC:  MOVLB  2
060AE:  INCF   xD4,F
060B0:  MOVLB  0
....................          } 
....................       } 
....................        
....................       if(Digito>4){ 
060B2:  MOVLB  2
060B4:  MOVF   xD4,W
060B6:  SUBLW  04
060B8:  BTFSC  FD8.0
060BA:  BRA    640C
....................       Digito=0; 
060BC:  CLRF   xD4
....................       printf("t0.txt=\"\""); 
060BE:  MOVLW  62
060C0:  MOVWF  FF6
060C2:  MOVLW  05
060C4:  MOVWF  FF7
060C6:  MOVLW  00
060C8:  MOVWF  FF8
060CA:  MOVLB  0
060CC:  CALL   35D6
....................       SendDataDisplay(); 
060D0:  CALL   3608
....................          if(TipoClave==0){ 
060D4:  MOVLB  2
060D6:  MOVF   xD2,F
060D8:  BTFSS  FD8.2
060DA:  BRA    622A
....................             if(Contrasena[0]==3&&Contrasena[1]==8&&Contrasena[2]==9&&Contrasena[3]==2){ // Si Ingresa clave para reset general del sistema. 
060DC:  MOVLB  3
060DE:  MOVF   x5E,W
060E0:  SUBLW  03
060E2:  BTFSS  FD8.2
060E4:  BRA    61DE
060E6:  MOVF   x5F,W
060E8:  SUBLW  08
060EA:  BTFSS  FD8.2
060EC:  BRA    61DE
060EE:  MOVF   x60,W
060F0:  SUBLW  09
060F2:  BNZ   61DE
060F4:  MOVF   x61,W
060F6:  SUBLW  02
060F8:  BNZ   61DE
....................                write_eeprom(10,0);delay_ms(20);write_eeprom(11,0);delay_ms(20);// Reestablece a contrasea de Fabrica y reinicia Programa. 
060FA:  CLRF   FAA
060FC:  MOVLW  0A
060FE:  MOVWF  FA9
06100:  CLRF   FA8
06102:  BCF    FA6.6
06104:  BCF    FA6.7
06106:  BSF    FA6.2
06108:  MOVF   FF2,W
0610A:  MOVWF  00
0610C:  BCF    FF2.6
0610E:  BCF    FF2.7
06110:  MOVLB  F
06112:  MOVLW  55
06114:  MOVWF  FA7
06116:  MOVLW  AA
06118:  MOVWF  FA7
0611A:  BSF    FA6.1
0611C:  BTFSC  FA6.1
0611E:  BRA    611C
06120:  BCF    FA6.2
06122:  MOVF   00,W
06124:  IORWF  FF2,F
06126:  MOVLW  14
06128:  MOVLB  3
0612A:  MOVWF  xE4
0612C:  MOVLB  0
0612E:  CALL   1806
06132:  CLRF   FAA
06134:  MOVLW  0B
06136:  MOVWF  FA9
06138:  CLRF   FA8
0613A:  BCF    FA6.6
0613C:  BCF    FA6.7
0613E:  BSF    FA6.2
06140:  MOVF   FF2,W
06142:  MOVWF  00
06144:  BCF    FF2.6
06146:  BCF    FF2.7
06148:  MOVLB  F
0614A:  MOVLW  55
0614C:  MOVWF  FA7
0614E:  MOVLW  AA
06150:  MOVWF  FA7
06152:  BSF    FA6.1
06154:  BTFSC  FA6.1
06156:  BRA    6154
06158:  BCF    FA6.2
0615A:  MOVF   00,W
0615C:  IORWF  FF2,F
0615E:  MOVLW  14
06160:  MOVLB  3
06162:  MOVWF  xE4
06164:  MOVLB  0
06166:  CALL   1806
....................                write_eeprom(12,0);delay_ms(20);write_eeprom(13,0);delay_ms(20); 
0616A:  CLRF   FAA
0616C:  MOVLW  0C
0616E:  MOVWF  FA9
06170:  CLRF   FA8
06172:  BCF    FA6.6
06174:  BCF    FA6.7
06176:  BSF    FA6.2
06178:  MOVF   FF2,W
0617A:  MOVWF  00
0617C:  BCF    FF2.6
0617E:  BCF    FF2.7
06180:  MOVLB  F
06182:  MOVLW  55
06184:  MOVWF  FA7
06186:  MOVLW  AA
06188:  MOVWF  FA7
0618A:  BSF    FA6.1
0618C:  BTFSC  FA6.1
0618E:  BRA    618C
06190:  BCF    FA6.2
06192:  MOVF   00,W
06194:  IORWF  FF2,F
06196:  MOVLW  14
06198:  MOVLB  3
0619A:  MOVWF  xE4
0619C:  MOVLB  0
0619E:  CALL   1806
061A2:  CLRF   FAA
061A4:  MOVLW  0D
061A6:  MOVWF  FA9
061A8:  CLRF   FA8
061AA:  BCF    FA6.6
061AC:  BCF    FA6.7
061AE:  BSF    FA6.2
061B0:  MOVF   FF2,W
061B2:  MOVWF  00
061B4:  BCF    FF2.6
061B6:  BCF    FF2.7
061B8:  MOVLB  F
061BA:  MOVLW  55
061BC:  MOVWF  FA7
061BE:  MOVLW  AA
061C0:  MOVWF  FA7
061C2:  BSF    FA6.1
061C4:  BTFSC  FA6.1
061C6:  BRA    61C4
061C8:  BCF    FA6.2
061CA:  MOVF   00,W
061CC:  IORWF  FF2,F
061CE:  MOVLW  14
061D0:  MOVLB  3
061D2:  MOVWF  xE4
061D4:  MOVLB  0
061D6:  CALL   1806
....................                reset_cpu(); 
061DA:  RESET
061DC:  MOVLB  3
....................             } 
....................              
....................             if((Contrasena[0]==Password[0])&&(Contrasena[1]==Password[1])&&(Contrasena[2]==Password[2])&&(Contrasena[3]==Password[3])){ 
061DE:  MOVF   x62,W
061E0:  SUBWF  x5E,W
061E2:  BNZ   6210
061E4:  MOVF   x63,W
061E6:  SUBWF  x5F,W
061E8:  BNZ   6210
061EA:  MOVF   x64,W
061EC:  SUBWF  x60,W
061EE:  BNZ   6210
061F0:  MOVF   x65,W
061F2:  SUBWF  x61,W
061F4:  BNZ   6210
....................                //BorraBuffer(); 
....................                printf("page ClaveCorrecta"); 
061F6:  MOVLW  6C
061F8:  MOVWF  FF6
061FA:  MOVLW  05
061FC:  MOVWF  FF7
061FE:  MOVLW  00
06200:  MOVWF  FF8
06202:  MOVLB  0
06204:  CALL   35D6
....................                SendDataDisplay(); 
06208:  CALL   3608
....................             }else{ 
0620C:  BRA    6226
0620E:  MOVLB  3
....................                //BorraBuffer(); 
....................                printf("page ClaveBad"); 
06210:  MOVLW  80
06212:  MOVWF  FF6
06214:  MOVLW  05
06216:  MOVWF  FF7
06218:  MOVLW  00
0621A:  MOVWF  FF8
0621C:  MOVLB  0
0621E:  CALL   35D6
....................                SendDataDisplay(); 
06222:  CALL   3608
....................             }  
....................          }else if(TipoClave==1){ 
06226:  BRA    640A
06228:  MOVLB  2
0622A:  DECFSZ xD2,W
0622C:  BRA    627C
....................             if(Contrasena[0]==4&&Contrasena[1]==4&&Contrasena[2]==4&&Contrasena[3]==4){ // Si Ingresa clave de Servicio Tecnico 
0622E:  MOVLB  3
06230:  MOVF   x5E,W
06232:  SUBLW  04
06234:  BNZ   6262
06236:  MOVF   x5F,W
06238:  SUBLW  04
0623A:  BNZ   6262
0623C:  MOVF   x60,W
0623E:  SUBLW  04
06240:  BNZ   6262
06242:  MOVF   x61,W
06244:  SUBLW  04
06246:  BNZ   6262
....................                printf("page Config"); 
06248:  MOVLW  8E
0624A:  MOVWF  FF6
0624C:  MOVLW  05
0624E:  MOVWF  FF7
06250:  MOVLW  00
06252:  MOVWF  FF8
06254:  MOVLB  0
06256:  CALL   35D6
....................                SendDataDisplay(); 
0625A:  CALL   3608
....................             }else{ 
0625E:  BRA    6278
06260:  MOVLB  3
....................                printf("page MenuPrincipal"); 
06262:  MOVLW  9A
06264:  MOVWF  FF6
06266:  MOVLW  05
06268:  MOVWF  FF7
0626A:  MOVLW  00
0626C:  MOVWF  FF8
0626E:  MOVLB  0
06270:  CALL   35D6
....................                SendDataDisplay(); 
06274:  CALL   3608
....................             } 
....................          }else if(TipoClave==2){ 
06278:  BRA    640A
0627A:  MOVLB  2
0627C:  MOVF   xD2,W
0627E:  SUBLW  02
06280:  BNZ   62EA
....................             if((Contrasena[0]==Password[0])&&(Contrasena[1]==Password[1])&&(Contrasena[2]==Password[2])&&(Contrasena[3]==Password[3])){ 
06282:  MOVLB  3
06284:  MOVF   x62,W
06286:  SUBWF  x5E,W
06288:  BNZ   62D0
0628A:  MOVF   x63,W
0628C:  SUBWF  x5F,W
0628E:  BNZ   62D0
06290:  MOVF   x64,W
06292:  SUBWF  x60,W
06294:  BNZ   62D0
06296:  MOVF   x65,W
06298:  SUBWF  x61,W
0629A:  BNZ   62D0
....................                printf("page Clave"); 
0629C:  MOVLW  AE
0629E:  MOVWF  FF6
062A0:  MOVLW  05
062A2:  MOVWF  FF7
062A4:  MOVLW  00
062A6:  MOVWF  FF8
062A8:  MOVLB  0
062AA:  CALL   35D6
....................                SendDataDisplay(); 
062AE:  CALL   3608
....................                printf("titulo.txt=\"Clave Nueva\""); 
062B2:  MOVLW  BA
062B4:  MOVWF  FF6
062B6:  MOVLW  05
062B8:  MOVWF  FF7
062BA:  MOVLW  00
062BC:  MOVWF  FF8
062BE:  CALL   35D6
....................                SendDataDisplay(); 
062C2:  CALL   3608
....................                TipoClave=3; 
062C6:  MOVLW  03
062C8:  MOVLB  2
062CA:  MOVWF  xD2
....................             }else{ 
062CC:  BRA    62E8
062CE:  MOVLB  3
....................                printf("page MenuPrincipal"); 
062D0:  MOVLW  D4
062D2:  MOVWF  FF6
062D4:  MOVLW  05
062D6:  MOVWF  FF7
062D8:  MOVLW  00
062DA:  MOVWF  FF8
062DC:  MOVLB  0
062DE:  CALL   35D6
....................                SendDataDisplay(); 
062E2:  CALL   3608
062E6:  MOVLB  2
....................             }  
....................          }else if(TipoClave==3){ 
062E8:  BRA    640C
062EA:  MOVF   xD2,W
062EC:  SUBLW  03
062EE:  BTFSS  FD8.2
062F0:  BRA    640C
....................             printf("titulo.txt=\"Clave Nueva\""); 
062F2:  MOVLW  E8
062F4:  MOVWF  FF6
062F6:  MOVLW  05
062F8:  MOVWF  FF7
062FA:  MOVLW  00
062FC:  MOVWF  FF8
062FE:  MOVLB  0
06300:  CALL   35D6
....................             SendDataDisplay(); 
06304:  CALL   3608
....................             printf("page MenuPrincipal"); 
06308:  MOVLW  02
0630A:  MOVWF  FF6
0630C:  MOVLW  06
0630E:  MOVWF  FF7
06310:  MOVLW  00
06312:  MOVWF  FF8
06314:  CALL   35D6
....................             SendDataDisplay(); 
06318:  CALL   3608
....................             if(!GuardaEEPROM){ 
0631C:  BTFSC  xA2.4
0631E:  BRA    640A
....................                write_eeprom(10,Contrasena[0]);delay_ms(20);write_eeprom(11,Contrasena[1]);delay_ms(20); 
06320:  CLRF   FAA
06322:  MOVLW  0A
06324:  MOVWF  FA9
06326:  MOVFF  35E,FA8
0632A:  BCF    FA6.6
0632C:  BCF    FA6.7
0632E:  BSF    FA6.2
06330:  MOVF   FF2,W
06332:  MOVWF  00
06334:  BCF    FF2.6
06336:  BCF    FF2.7
06338:  MOVLB  F
0633A:  MOVLW  55
0633C:  MOVWF  FA7
0633E:  MOVLW  AA
06340:  MOVWF  FA7
06342:  BSF    FA6.1
06344:  BTFSC  FA6.1
06346:  BRA    6344
06348:  BCF    FA6.2
0634A:  MOVF   00,W
0634C:  IORWF  FF2,F
0634E:  MOVLW  14
06350:  MOVLB  3
06352:  MOVWF  xE4
06354:  MOVLB  0
06356:  CALL   1806
0635A:  CLRF   FAA
0635C:  MOVLW  0B
0635E:  MOVWF  FA9
06360:  MOVFF  35F,FA8
06364:  BCF    FA6.6
06366:  BCF    FA6.7
06368:  BSF    FA6.2
0636A:  MOVF   FF2,W
0636C:  MOVWF  00
0636E:  BCF    FF2.6
06370:  BCF    FF2.7
06372:  MOVLB  F
06374:  MOVLW  55
06376:  MOVWF  FA7
06378:  MOVLW  AA
0637A:  MOVWF  FA7
0637C:  BSF    FA6.1
0637E:  BTFSC  FA6.1
06380:  BRA    637E
06382:  BCF    FA6.2
06384:  MOVF   00,W
06386:  IORWF  FF2,F
06388:  MOVLW  14
0638A:  MOVLB  3
0638C:  MOVWF  xE4
0638E:  MOVLB  0
06390:  CALL   1806
....................                write_eeprom(12,Contrasena[2]);delay_ms(20);write_eeprom(13,Contrasena[3]);delay_ms(20); 
06394:  CLRF   FAA
06396:  MOVLW  0C
06398:  MOVWF  FA9
0639A:  MOVFF  360,FA8
0639E:  BCF    FA6.6
063A0:  BCF    FA6.7
063A2:  BSF    FA6.2
063A4:  MOVF   FF2,W
063A6:  MOVWF  00
063A8:  BCF    FF2.6
063AA:  BCF    FF2.7
063AC:  MOVLB  F
063AE:  MOVLW  55
063B0:  MOVWF  FA7
063B2:  MOVLW  AA
063B4:  MOVWF  FA7
063B6:  BSF    FA6.1
063B8:  BTFSC  FA6.1
063BA:  BRA    63B8
063BC:  BCF    FA6.2
063BE:  MOVF   00,W
063C0:  IORWF  FF2,F
063C2:  MOVLW  14
063C4:  MOVLB  3
063C6:  MOVWF  xE4
063C8:  MOVLB  0
063CA:  CALL   1806
063CE:  CLRF   FAA
063D0:  MOVLW  0D
063D2:  MOVWF  FA9
063D4:  MOVFF  361,FA8
063D8:  BCF    FA6.6
063DA:  BCF    FA6.7
063DC:  BSF    FA6.2
063DE:  MOVF   FF2,W
063E0:  MOVWF  00
063E2:  BCF    FF2.6
063E4:  BCF    FF2.7
063E6:  MOVLB  F
063E8:  MOVLW  55
063EA:  MOVWF  FA7
063EC:  MOVLW  AA
063EE:  MOVWF  FA7
063F0:  BSF    FA6.1
063F2:  BTFSC  FA6.1
063F4:  BRA    63F2
063F6:  BCF    FA6.2
063F8:  MOVF   00,W
063FA:  IORWF  FF2,F
063FC:  MOVLW  14
063FE:  MOVLB  3
06400:  MOVWF  xE4
06402:  MOVLB  0
06404:  CALL   1806
....................                GuardaEEPROM=ON; 
06408:  BSF    xA2.4
0640A:  MOVLB  2
....................             } 
....................          } 
....................       } 
....................        
....................       if(RX_Buffer[4]==0x11){//11 
0640C:  MOVF   34,W
0640E:  SUBLW  11
06410:  BNZ   6430
....................          if(TipoClave!=0){ 
06412:  MOVF   xD2,F
06414:  BZ    6430
....................             printf("page MenuPrincipal"); 
06416:  MOVLW  16
06418:  MOVWF  FF6
0641A:  MOVLW  06
0641C:  MOVWF  FF7
0641E:  MOVLW  00
06420:  MOVWF  FF8
06422:  MOVLB  0
06424:  CALL   35D6
....................             SendDataDisplay(); 
06428:  CALL   3608
....................             PantallaPrincipal=0; 
0642C:  MOVLB  2
0642E:  CLRF   xD1
....................          } 
....................       } 
....................        
....................       if(TipoClave==3){ 
06430:  MOVF   xD2,W
06432:  SUBLW  03
06434:  BNZ   6462
....................          printf("titulo.txt=\"Clave Nueva\""); 
06436:  MOVLW  2A
06438:  MOVWF  FF6
0643A:  MOVLW  06
0643C:  MOVWF  FF7
0643E:  MOVLW  00
06440:  MOVWF  FF8
06442:  MOVLB  0
06444:  CALL   35D6
....................          SendDataDisplay(); 
06448:  CALL   3608
....................          printf("doevents"); 
0644C:  MOVLW  44
0644E:  MOVWF  FF6
06450:  MOVLW  06
06452:  MOVWF  FF7
06454:  MOVLW  00
06456:  MOVWF  FF8
06458:  CALL   35D6
....................          SendDataDisplay(); 
0645C:  CALL   3608
06460:  MOVLB  2
....................       } 
....................        
....................       if(TipoClave==2){ 
06462:  MOVF   xD2,W
06464:  SUBLW  02
06466:  BNZ   6494
....................          printf("titulo.txt=\"Clave Actual\""); 
06468:  MOVLW  4E
0646A:  MOVWF  FF6
0646C:  MOVLW  06
0646E:  MOVWF  FF7
06470:  MOVLW  00
06472:  MOVWF  FF8
06474:  MOVLB  0
06476:  CALL   35D6
....................          SendDataDisplay(); 
0647A:  CALL   3608
....................          printf("doevents"); 
0647E:  MOVLW  68
06480:  MOVWF  FF6
06482:  MOVLW  06
06484:  MOVWF  FF7
06486:  MOVLW  00
06488:  MOVWF  FF8
0648A:  CALL   35D6
....................          SendDataDisplay(); 
0648E:  CALL   3608
06492:  MOVLB  2
....................       } 
....................        
....................       if(TipoClave==1){ 
06494:  DECFSZ xD2,W
06496:  BRA    64C4
....................          printf("titulo.txt=\"Clave Tecnico\""); 
06498:  MOVLW  72
0649A:  MOVWF  FF6
0649C:  MOVLW  06
0649E:  MOVWF  FF7
064A0:  MOVLW  00
064A2:  MOVWF  FF8
064A4:  MOVLB  0
064A6:  CALL   35D6
....................          SendDataDisplay(); 
064AA:  CALL   3608
....................          printf("doevents"); 
064AE:  MOVLW  8E
064B0:  MOVWF  FF6
064B2:  MOVLW  06
064B4:  MOVWF  FF7
064B6:  MOVLW  00
064B8:  MOVWF  FF8
064BA:  CALL   35D6
....................          SendDataDisplay(); 
064BE:  CALL   3608
064C2:  MOVLB  2
....................       } 
....................        
....................       if(TipoClave==0){ 
064C4:  MOVF   xD2,F
064C6:  BNZ   64E0
....................          printf("titulo.txt=\"Ingrese Contrasea\""); 
064C8:  MOVLW  98
064CA:  MOVWF  FF6
064CC:  MOVLW  06
064CE:  MOVWF  FF7
064D0:  MOVLW  00
064D2:  MOVWF  FF8
064D4:  MOVLB  0
064D6:  CALL   35D6
....................          SendDataDisplay(); 
064DA:  CALL   3608
064DE:  MOVLB  2
....................       } 
....................       if(RX_Buffer[3]==0x0f){//0f, recibe caracteres ingresados desde el Display 
064E0:  MOVF   33,W
064E2:  SUBLW  0F
064E4:  BTFSS  FD8.2
064E6:  BRA    68C0
....................          if(TipoClave==0){ 
064E8:  MOVF   xD2,F
064EA:  BTFSS  FD8.2
064EC:  BRA    667C
....................             if(RX_Buffer[4]==0x33&&RX_Buffer[5]==0x38&&RX_Buffer[6]==0x39&&RX_Buffer[7]==0x32){ // Si Ingresa clave para reset general del sistema. 
064EE:  MOVF   34,W
064F0:  SUBLW  33
064F2:  BTFSS  FD8.2
064F4:  BRA    65EE
064F6:  MOVF   35,W
064F8:  SUBLW  38
064FA:  BTFSS  FD8.2
064FC:  BRA    65EE
064FE:  MOVF   36,W
06500:  SUBLW  39
06502:  BNZ   65EE
06504:  MOVF   37,W
06506:  SUBLW  32
06508:  BNZ   65EE
....................                write_eeprom(10,0);delay_ms(20);write_eeprom(11,0);delay_ms(20);// Reestablece a contrasea de Fabrica y reinicia Programa. 
0650A:  CLRF   FAA
0650C:  MOVLW  0A
0650E:  MOVWF  FA9
06510:  CLRF   FA8
06512:  BCF    FA6.6
06514:  BCF    FA6.7
06516:  BSF    FA6.2
06518:  MOVF   FF2,W
0651A:  MOVWF  00
0651C:  BCF    FF2.6
0651E:  BCF    FF2.7
06520:  MOVLB  F
06522:  MOVLW  55
06524:  MOVWF  FA7
06526:  MOVLW  AA
06528:  MOVWF  FA7
0652A:  BSF    FA6.1
0652C:  BTFSC  FA6.1
0652E:  BRA    652C
06530:  BCF    FA6.2
06532:  MOVF   00,W
06534:  IORWF  FF2,F
06536:  MOVLW  14
06538:  MOVLB  3
0653A:  MOVWF  xE4
0653C:  MOVLB  0
0653E:  CALL   1806
06542:  CLRF   FAA
06544:  MOVLW  0B
06546:  MOVWF  FA9
06548:  CLRF   FA8
0654A:  BCF    FA6.6
0654C:  BCF    FA6.7
0654E:  BSF    FA6.2
06550:  MOVF   FF2,W
06552:  MOVWF  00
06554:  BCF    FF2.6
06556:  BCF    FF2.7
06558:  MOVLB  F
0655A:  MOVLW  55
0655C:  MOVWF  FA7
0655E:  MOVLW  AA
06560:  MOVWF  FA7
06562:  BSF    FA6.1
06564:  BTFSC  FA6.1
06566:  BRA    6564
06568:  BCF    FA6.2
0656A:  MOVF   00,W
0656C:  IORWF  FF2,F
0656E:  MOVLW  14
06570:  MOVLB  3
06572:  MOVWF  xE4
06574:  MOVLB  0
06576:  CALL   1806
....................                write_eeprom(12,0);delay_ms(20);write_eeprom(13,0);delay_ms(20); 
0657A:  CLRF   FAA
0657C:  MOVLW  0C
0657E:  MOVWF  FA9
06580:  CLRF   FA8
06582:  BCF    FA6.6
06584:  BCF    FA6.7
06586:  BSF    FA6.2
06588:  MOVF   FF2,W
0658A:  MOVWF  00
0658C:  BCF    FF2.6
0658E:  BCF    FF2.7
06590:  MOVLB  F
06592:  MOVLW  55
06594:  MOVWF  FA7
06596:  MOVLW  AA
06598:  MOVWF  FA7
0659A:  BSF    FA6.1
0659C:  BTFSC  FA6.1
0659E:  BRA    659C
065A0:  BCF    FA6.2
065A2:  MOVF   00,W
065A4:  IORWF  FF2,F
065A6:  MOVLW  14
065A8:  MOVLB  3
065AA:  MOVWF  xE4
065AC:  MOVLB  0
065AE:  CALL   1806
065B2:  CLRF   FAA
065B4:  MOVLW  0D
065B6:  MOVWF  FA9
065B8:  CLRF   FA8
065BA:  BCF    FA6.6
065BC:  BCF    FA6.7
065BE:  BSF    FA6.2
065C0:  MOVF   FF2,W
065C2:  MOVWF  00
065C4:  BCF    FF2.6
065C6:  BCF    FF2.7
065C8:  MOVLB  F
065CA:  MOVLW  55
065CC:  MOVWF  FA7
065CE:  MOVLW  AA
065D0:  MOVWF  FA7
065D2:  BSF    FA6.1
065D4:  BTFSC  FA6.1
065D6:  BRA    65D4
065D8:  BCF    FA6.2
065DA:  MOVF   00,W
065DC:  IORWF  FF2,F
065DE:  MOVLW  14
065E0:  MOVLB  3
065E2:  MOVWF  xE4
065E4:  MOVLB  0
065E6:  CALL   1806
....................                reset_cpu(); 
065EA:  RESET
065EC:  MOVLB  2
....................             } 
....................             if(RX_Buffer[4]>=0x30 && RX_Buffer[5]>=0x30 && RX_Buffer[6]>=0x30 && RX_Buffer[7]>=0x30 
....................             && RX_Buffer[4]<=0x39 && RX_Buffer[5]<=0x39 && RX_Buffer[6]<=0x39 && RX_Buffer[7]<=0x39){ 
065EE:  MOVF   34,W
065F0:  SUBLW  2F
065F2:  BC    667A
065F4:  MOVF   35,W
065F6:  SUBLW  2F
065F8:  BC    667A
065FA:  MOVF   36,W
065FC:  SUBLW  2F
065FE:  BC    667A
06600:  MOVF   37,W
06602:  SUBLW  2F
06604:  BC    667A
06606:  MOVF   34,W
06608:  SUBLW  39
0660A:  BNC   667A
0660C:  MOVF   35,W
0660E:  SUBLW  39
06610:  BNC   667A
06612:  MOVF   36,W
06614:  SUBLW  39
06616:  BNC   667A
06618:  MOVF   37,W
0661A:  SUBLW  39
0661C:  BNC   667A
....................             if((RX_Buffer[4]==Password[0]+0x30)&&(RX_Buffer[5]==Password[1]+0x30)&&(RX_Buffer[6]==Password[2]+0x30)&&(RX_Buffer[7]==Password[3]+0x30)){ 
0661E:  MOVLW  30
06620:  MOVLB  3
06622:  ADDWF  x62,W
06624:  SUBWF  34,W
06626:  BNZ   665E
06628:  MOVLW  30
0662A:  ADDWF  x63,W
0662C:  SUBWF  35,W
0662E:  BNZ   665E
06630:  MOVLW  30
06632:  ADDWF  x64,W
06634:  SUBWF  36,W
06636:  BNZ   665E
06638:  MOVLW  30
0663A:  ADDWF  x65,W
0663C:  SUBWF  37,W
0663E:  BNZ   665E
....................                   printf("page ClaveCorrecta"); 
06640:  MOVLW  B8
06642:  MOVWF  FF6
06644:  MOVLW  06
06646:  MOVWF  FF7
06648:  MOVLW  00
0664A:  MOVWF  FF8
0664C:  MOVLB  0
0664E:  CALL   35D6
....................                   //printf("page MenuPrincipal"); 
....................                   SendDataDisplay(); 
06652:  CALL   3608
....................                   RX_Buffer[3]=0x00;RX_Buffer2[3]=0x00;   
06656:  CLRF   33
06658:  CLRF   3E
....................                }else{ 
0665A:  BRA    6678
0665C:  MOVLB  3
....................                   printf("page ClaveBad"); 
0665E:  MOVLW  CC
06660:  MOVWF  FF6
06662:  MOVLW  06
06664:  MOVWF  FF7
06666:  MOVLW  00
06668:  MOVWF  FF8
0666A:  MOVLB  0
0666C:  CALL   35D6
....................                   SendDataDisplay(); 
06670:  CALL   3608
....................                   RX_Buffer[3]=0x00;RX_Buffer2[3]=0x00;   
06674:  CLRF   33
06676:  CLRF   3E
06678:  MOVLB  2
....................                }  
....................             } 
....................          }else if(TipoClave==1){ 
0667A:  BRA    68C0
0667C:  DECFSZ xD2,W
0667E:  BRA    66CC
....................             if(RX_Buffer[4]==0x34&&RX_Buffer[5]==0x34&&RX_Buffer[6]==0x34&&RX_Buffer[7]==0x34){ // Si Ingresa clave de Servicio Tecnico 
06680:  MOVF   34,W
06682:  SUBLW  34
06684:  BNZ   66B2
06686:  MOVF   35,W
06688:  SUBLW  34
0668A:  BNZ   66B2
0668C:  MOVF   36,W
0668E:  SUBLW  34
06690:  BNZ   66B2
06692:  MOVF   37,W
06694:  SUBLW  34
06696:  BNZ   66B2
....................                printf("page Config"); 
06698:  MOVLW  DA
0669A:  MOVWF  FF6
0669C:  MOVLW  06
0669E:  MOVWF  FF7
066A0:  MOVLW  00
066A2:  MOVWF  FF8
066A4:  MOVLB  0
066A6:  CALL   35D6
....................                SendDataDisplay(); 
066AA:  CALL   3608
....................             }else{ 
066AE:  BRA    66C8
066B0:  MOVLB  2
....................                printf("page MenuPrincipal"); 
066B2:  MOVLW  E6
066B4:  MOVWF  FF6
066B6:  MOVLW  06
066B8:  MOVWF  FF7
066BA:  MOVLW  00
066BC:  MOVWF  FF8
066BE:  MOVLB  0
066C0:  CALL   35D6
....................                SendDataDisplay(); 
066C4:  CALL   3608
....................             } 
....................          }else if(TipoClave==2){ 
066C8:  BRA    68BE
066CA:  MOVLB  2
066CC:  MOVF   xD2,W
066CE:  SUBLW  02
066D0:  BNZ   677A
....................             if(RX_Buffer[4]>=0x30 && RX_Buffer[5]>=0x30 && RX_Buffer[6]>=0x30 && RX_Buffer[7]>=0x30 
....................             && RX_Buffer[4]<=0x39 && RX_Buffer[5]<=0x39 && RX_Buffer[6]<=0x39 && RX_Buffer[7]<=0x39){ 
066D2:  MOVF   34,W
066D4:  SUBLW  2F
066D6:  BC    6778
066D8:  MOVF   35,W
066DA:  SUBLW  2F
066DC:  BC    6778
066DE:  MOVF   36,W
066E0:  SUBLW  2F
066E2:  BC    6778
066E4:  MOVF   37,W
066E6:  SUBLW  2F
066E8:  BC    6778
066EA:  MOVF   34,W
066EC:  SUBLW  39
066EE:  BNC   6778
066F0:  MOVF   35,W
066F2:  SUBLW  39
066F4:  BNC   6778
066F6:  MOVF   36,W
066F8:  SUBLW  39
066FA:  BNC   6778
066FC:  MOVF   37,W
066FE:  SUBLW  39
06700:  BNC   6778
....................             if((RX_Buffer[4]==Password[0]+0x30)&&(RX_Buffer[5]==Password[1]+0x30)&&(RX_Buffer[6]==Password[2]+0x30)&&(RX_Buffer[7]==Password[3]+0x30)){ 
06702:  MOVLW  30
06704:  MOVLB  3
06706:  ADDWF  x62,W
06708:  SUBWF  34,W
0670A:  BNZ   675C
0670C:  MOVLW  30
0670E:  ADDWF  x63,W
06710:  SUBWF  35,W
06712:  BNZ   675C
06714:  MOVLW  30
06716:  ADDWF  x64,W
06718:  SUBWF  36,W
0671A:  BNZ   675C
0671C:  MOVLW  30
0671E:  ADDWF  x65,W
06720:  SUBWF  37,W
06722:  BNZ   675C
....................                printf("page Clave"); 
06724:  MOVLW  FA
06726:  MOVWF  FF6
06728:  MOVLW  06
0672A:  MOVWF  FF7
0672C:  MOVLW  00
0672E:  MOVWF  FF8
06730:  MOVLB  0
06732:  CALL   35D6
....................                SendDataDisplay(); 
06736:  CALL   3608
....................                printf("titulo.txt=\"Clave Nueva\""); 
0673A:  MOVLW  06
0673C:  MOVWF  FF6
0673E:  MOVLW  07
06740:  MOVWF  FF7
06742:  MOVLW  00
06744:  MOVWF  FF8
06746:  CALL   35D6
....................                SendDataDisplay(); 
0674A:  CALL   3608
....................                TipoClave=3; 
0674E:  MOVLW  03
06750:  MOVLB  2
06752:  MOVWF  xD2
....................                RX_Buffer[3]=0x00; 
06754:  CLRF   33
....................                RX_Buffer2[3]=0x00; 
06756:  CLRF   3E
....................             }else{ 
06758:  BRA    6778
0675A:  MOVLB  3
....................                printf("page MenuPrincipal"); 
0675C:  MOVLW  20
0675E:  MOVWF  FF6
06760:  MOVLW  07
06762:  MOVWF  FF7
06764:  MOVLW  00
06766:  MOVWF  FF8
06768:  MOVLB  0
0676A:  CALL   35D6
....................                SendDataDisplay(); 
0676E:  CALL   3608
....................                RX_Buffer[3]=0x00; 
06772:  CLRF   33
....................                RX_Buffer2[3]=0x00; 
06774:  CLRF   3E
06776:  MOVLB  2
....................             }  
....................             } 
....................          }else if(TipoClave==3){ 
06778:  BRA    68C0
0677A:  MOVF   xD2,W
0677C:  SUBLW  03
0677E:  BTFSS  FD8.2
06780:  BRA    68C0
....................             printf("titulo.txt=\"Clave Nueva\""); 
06782:  MOVLW  34
06784:  MOVWF  FF6
06786:  MOVLW  07
06788:  MOVWF  FF7
0678A:  MOVLW  00
0678C:  MOVWF  FF8
0678E:  MOVLB  0
06790:  CALL   35D6
....................             SendDataDisplay(); 
06794:  CALL   3608
....................             printf("page MenuPrincipal"); 
06798:  MOVLW  4E
0679A:  MOVWF  FF6
0679C:  MOVLW  07
0679E:  MOVWF  FF7
067A0:  MOVLW  00
067A2:  MOVWF  FF8
067A4:  CALL   35D6
....................             SendDataDisplay(); 
067A8:  CALL   3608
....................             if(!GuardaEEPROM){ 
067AC:  BTFSC  xA2.4
067AE:  BRA    68BA
....................                write_eeprom(10,RX_Buffer[4]-0x30);delay_ms(20);write_eeprom(11,RX_Buffer[5]-0x30);delay_ms(20); 
067B0:  MOVLW  30
067B2:  SUBWF  34,W
067B4:  MOVLB  3
067B6:  MOVWF  xCF
067B8:  CLRF   FAA
067BA:  MOVLW  0A
067BC:  MOVWF  FA9
067BE:  MOVFF  3CF,FA8
067C2:  BCF    FA6.6
067C4:  BCF    FA6.7
067C6:  BSF    FA6.2
067C8:  MOVF   FF2,W
067CA:  MOVWF  00
067CC:  BCF    FF2.6
067CE:  BCF    FF2.7
067D0:  MOVLB  F
067D2:  MOVLW  55
067D4:  MOVWF  FA7
067D6:  MOVLW  AA
067D8:  MOVWF  FA7
067DA:  BSF    FA6.1
067DC:  BTFSC  FA6.1
067DE:  BRA    67DC
067E0:  BCF    FA6.2
067E2:  MOVF   00,W
067E4:  IORWF  FF2,F
067E6:  MOVLW  14
067E8:  MOVLB  3
067EA:  MOVWF  xE4
067EC:  MOVLB  0
067EE:  CALL   1806
067F2:  MOVLW  30
067F4:  SUBWF  35,W
067F6:  MOVLB  3
067F8:  MOVWF  xCF
067FA:  CLRF   FAA
067FC:  MOVLW  0B
067FE:  MOVWF  FA9
06800:  MOVFF  3CF,FA8
06804:  BCF    FA6.6
06806:  BCF    FA6.7
06808:  BSF    FA6.2
0680A:  MOVF   FF2,W
0680C:  MOVWF  00
0680E:  BCF    FF2.6
06810:  BCF    FF2.7
06812:  MOVLB  F
06814:  MOVLW  55
06816:  MOVWF  FA7
06818:  MOVLW  AA
0681A:  MOVWF  FA7
0681C:  BSF    FA6.1
0681E:  BTFSC  FA6.1
06820:  BRA    681E
06822:  BCF    FA6.2
06824:  MOVF   00,W
06826:  IORWF  FF2,F
06828:  MOVLW  14
0682A:  MOVLB  3
0682C:  MOVWF  xE4
0682E:  MOVLB  0
06830:  CALL   1806
....................                write_eeprom(12,RX_Buffer[6]-0x30);delay_ms(20);write_eeprom(13,RX_Buffer[7]-0x30);delay_ms(20); 
06834:  MOVLW  30
06836:  SUBWF  36,W
06838:  MOVLB  3
0683A:  MOVWF  xCF
0683C:  CLRF   FAA
0683E:  MOVLW  0C
06840:  MOVWF  FA9
06842:  MOVFF  3CF,FA8
06846:  BCF    FA6.6
06848:  BCF    FA6.7
0684A:  BSF    FA6.2
0684C:  MOVF   FF2,W
0684E:  MOVWF  00
06850:  BCF    FF2.6
06852:  BCF    FF2.7
06854:  MOVLB  F
06856:  MOVLW  55
06858:  MOVWF  FA7
0685A:  MOVLW  AA
0685C:  MOVWF  FA7
0685E:  BSF    FA6.1
06860:  BTFSC  FA6.1
06862:  BRA    6860
06864:  BCF    FA6.2
06866:  MOVF   00,W
06868:  IORWF  FF2,F
0686A:  MOVLW  14
0686C:  MOVLB  3
0686E:  MOVWF  xE4
06870:  MOVLB  0
06872:  CALL   1806
06876:  MOVLW  30
06878:  SUBWF  37,W
0687A:  MOVLB  3
0687C:  MOVWF  xCF
0687E:  CLRF   FAA
06880:  MOVLW  0D
06882:  MOVWF  FA9
06884:  MOVFF  3CF,FA8
06888:  BCF    FA6.6
0688A:  BCF    FA6.7
0688C:  BSF    FA6.2
0688E:  MOVF   FF2,W
06890:  MOVWF  00
06892:  BCF    FF2.6
06894:  BCF    FF2.7
06896:  MOVLB  F
06898:  MOVLW  55
0689A:  MOVWF  FA7
0689C:  MOVLW  AA
0689E:  MOVWF  FA7
068A0:  BSF    FA6.1
068A2:  BTFSC  FA6.1
068A4:  BRA    68A2
068A6:  BCF    FA6.2
068A8:  MOVF   00,W
068AA:  IORWF  FF2,F
068AC:  MOVLW  14
068AE:  MOVLB  3
068B0:  MOVWF  xE4
068B2:  MOVLB  0
068B4:  CALL   1806
....................                GuardaEEPROM=ON; 
068B8:  BSF    xA2.4
....................             } 
....................             RX_Buffer[3]=0x00; 
068BA:  CLRF   33
....................             RX_Buffer2[3]=0x00; 
068BC:  CLRF   3E
068BE:  MOVLB  2
068C0:  MOVLB  3
....................          } 
....................       } 
....................     } 
.................... //_--------------------------------------------------------------------------------------------------------------------------------------------------------        
....................  
.................... //_-------------------------------------------------------------------------------------------------------------------------------------------------------- 
....................    if(Menu==1){ //Menu Principal. 
068C2:  DECFSZ x37,W
068C4:  GOTO   7200
....................       printf("fecha.txt=\"Fecha:%02u/%02u/20%02u    Hora: %02u:%02u\"",Dia,Mes,Year,Hora,Minuto); 
068C8:  MOVLW  62
068CA:  MOVWF  FF6
068CC:  MOVLW  07
068CE:  MOVWF  FF7
068D0:  MOVLW  00
068D2:  MOVWF  FF8
068D4:  MOVLW  11
068D6:  MOVWF  xD3
068D8:  MOVLB  0
068DA:  CALL   44BA
068DE:  MOVFF  377,3D1
068E2:  MOVLW  01
068E4:  MOVLB  3
068E6:  MOVWF  xD2
068E8:  MOVLB  0
068EA:  CALL   4518
068EE:  MOVLW  2F
068F0:  BTFSS  F9E.4
068F2:  BRA    68F0
068F4:  MOVWF  FAD
068F6:  MOVFF  376,3D1
068FA:  MOVLW  01
068FC:  MOVLB  3
068FE:  MOVWF  xD2
06900:  MOVLB  0
06902:  CALL   4518
06906:  MOVLW  2F
06908:  BTFSS  F9E.4
0690A:  BRA    6908
0690C:  MOVWF  FAD
0690E:  MOVLW  32
06910:  BTFSS  F9E.4
06912:  BRA    6910
06914:  MOVWF  FAD
06916:  MOVLW  30
06918:  BTFSS  F9E.4
0691A:  BRA    6918
0691C:  MOVWF  FAD
0691E:  MOVFF  375,3D1
06922:  MOVLW  01
06924:  MOVLB  3
06926:  MOVWF  xD2
06928:  MOVLB  0
0692A:  CALL   4518
0692E:  MOVLW  83
06930:  MOVWF  FF6
06932:  MOVLW  07
06934:  MOVWF  FF7
06936:  MOVLW  00
06938:  MOVWF  FF8
0693A:  MOVLW  0A
0693C:  MOVLB  3
0693E:  MOVWF  xD3
06940:  MOVLB  0
06942:  CALL   44BA
06946:  MOVFF  378,3D1
0694A:  MOVLW  01
0694C:  MOVLB  3
0694E:  MOVWF  xD2
06950:  MOVLB  0
06952:  CALL   4518
06956:  MOVLW  3A
06958:  BTFSS  F9E.4
0695A:  BRA    6958
0695C:  MOVWF  FAD
0695E:  MOVFF  379,3D1
06962:  MOVLW  01
06964:  MOVLB  3
06966:  MOVWF  xD2
06968:  MOVLB  0
0696A:  CALL   4518
0696E:  MOVLW  22
06970:  BTFSS  F9E.4
06972:  BRA    6970
06974:  MOVWF  FAD
....................       SendDataDisplay(); 
06976:  CALL   3608
....................       GuardaEEPROM=OFF; 
0697A:  BCF    xA2.4
....................       if(RX_Buffer[3]==0x0f || UP){//0f, recibe caracteres ingresados desde el Display 
0697C:  MOVF   33,W
0697E:  SUBLW  0F
06980:  BZ    6988
06982:  BSF    F93.0
06984:  BTFSC  F81.0
06986:  BRA    6BDA
....................          delay_ms(5); 
06988:  MOVLW  05
0698A:  MOVLB  3
0698C:  MOVWF  xE4
0698E:  MOVLB  0
06990:  CALL   1806
....................          if(RX_Buffer[3]==0x0f || UP){ 
06994:  MOVF   33,W
06996:  SUBLW  0F
06998:  BZ    69A0
0699A:  BSF    F93.0
0699C:  BTFSC  F81.0
0699E:  BRA    6BD4
....................          if(PantallaPrincipal==0){//Si esta en menu principal 
069A0:  MOVLB  2
069A2:  MOVF   xD1,F
069A4:  BTFSS  FD8.2
069A6:  BRA    6BD8
....................             if(RX_Buffer[4]==0x37){//Ajustes y pasa a solicitud de password de tecnico 
069A8:  MOVF   34,W
069AA:  SUBLW  37
069AC:  BNZ   69DA
....................                printf("page Clave"); 
069AE:  MOVLW  98
069B0:  MOVWF  FF6
069B2:  MOVLW  07
069B4:  MOVWF  FF7
069B6:  MOVLW  00
069B8:  MOVWF  FF8
069BA:  MOVLB  0
069BC:  CALL   35D6
....................                SendDataDisplay();  
069C0:  CALL   3608
....................                Op=OFF; 
069C4:  BCF    xA2.0
....................                Op2=OFF; 
069C6:  BCF    xA2.1
....................                MenuAnt=Menu; 
069C8:  MOVFF  337,338
....................                TipoClave=1; 
069CC:  MOVLW  01
069CE:  MOVLB  2
069D0:  MOVWF  xD2
....................                RX_Buffer[3]=0x00; 
069D2:  CLRF   33
....................                RX_Buffer2[3]=0x00; 
069D4:  CLRF   3E
....................                Opcion=0; 
069D6:  MOVLB  3
069D8:  CLRF   x3F
....................             }  
....................             if(Opcion==8){// Cambio de Clave 
069DA:  MOVLB  3
069DC:  MOVF   x3F,W
069DE:  SUBLW  08
069E0:  BNZ   6A10
....................                printf("page Clave"); 
069E2:  MOVLW  A4
069E4:  MOVWF  FF6
069E6:  MOVLW  07
069E8:  MOVWF  FF7
069EA:  MOVLW  00
069EC:  MOVWF  FF8
069EE:  MOVLB  0
069F0:  CALL   35D6
....................                SendDataDisplay();  
069F4:  CALL   3608
....................                Op=OFF; 
069F8:  BCF    xA2.0
....................                Op2=OFF; 
069FA:  BCF    xA2.1
....................                MenuAnt=Menu; 
069FC:  MOVFF  337,338
....................                TipoClave=2; 
06A00:  MOVLW  02
06A02:  MOVLB  2
06A04:  MOVWF  xD2
....................                RX_Buffer[3]=0x00; 
06A06:  CLRF   33
....................                RX_Buffer2[3]=0x00; 
06A08:  CLRF   3E
....................                Opcion=0; 
06A0A:  MOVLB  3
06A0C:  CLRF   x3F
....................             }else if(Opcion==7){//Hora y Fecha 
06A0E:  BRA    6BD6
06A10:  MOVF   x3F,W
06A12:  SUBLW  07
06A14:  BNZ   6A52
....................                printf("page Fecha"); 
06A16:  MOVLW  B0
06A18:  MOVWF  FF6
06A1A:  MOVLW  07
06A1C:  MOVWF  FF7
06A1E:  MOVLW  00
06A20:  MOVWF  FF8
06A22:  MOVLB  0
06A24:  CALL   35D6
....................                SendDataDisplay();      
06A28:  CALL   3608
....................                PantallaPrincipal=0; 
06A2C:  MOVLB  2
06A2E:  CLRF   xD1
....................                MenuAnt=Menu; 
06A30:  MOVFF  337,338
....................                Op=OFF; 
06A34:  MOVLB  0
06A36:  BCF    xA2.0
....................                Op2=OFF; 
06A38:  BCF    xA2.1
....................                DiaTx=Dia; 
06A3A:  MOVFF  377,37E
....................                MesTx=Mes; 
06A3E:  MOVFF  376,37D
....................                YearTx=Year; 
06A42:  MOVFF  375,37C
....................                HoraTx=Hora; 
06A46:  MOVFF  378,37F
....................                MinutoTx=Minuto; 
06A4A:  MOVFF  379,380
....................             }else if(Opcion==6){//Test 
06A4E:  BRA    6BD4
06A50:  MOVLB  3
06A52:  MOVF   x3F,W
06A54:  SUBLW  06
06A56:  BNZ   6A80
....................                printf("page Test"); 
06A58:  MOVLW  BC
06A5A:  MOVWF  FF6
06A5C:  MOVLW  07
06A5E:  MOVWF  FF7
06A60:  MOVLW  00
06A62:  MOVWF  FF8
06A64:  MOVLB  0
06A66:  CALL   35D6
....................                SendDataDisplay();      
06A6A:  CALL   3608
....................                PantallaPrincipal=0; 
06A6E:  MOVLB  2
06A70:  CLRF   xD1
....................                MenuAnt=Menu; 
06A72:  MOVFF  337,338
....................                Op=OFF; 
06A76:  MOVLB  0
06A78:  BCF    xA2.0
....................                Op2=OFF; 
06A7A:  BCF    xA2.1
....................             }else if(Opcion==5){//Ciclo Personalizado 
06A7C:  BRA    6BD4
06A7E:  MOVLB  3
06A80:  MOVF   x3F,W
06A82:  SUBLW  05
06A84:  BNZ   6AA8
....................                printf("page CicloPersona"); 
06A86:  MOVLW  C6
06A88:  MOVWF  FF6
06A8A:  MOVLW  07
06A8C:  MOVWF  FF7
06A8E:  MOVLW  00
06A90:  MOVWF  FF8
06A92:  MOVLB  0
06A94:  CALL   35D6
....................                SendDataDisplay();  
06A98:  CALL   3608
....................                MenuAnt=Menu; 
06A9C:  MOVFF  337,338
....................                Op=OFF; 
06AA0:  BCF    xA2.0
....................                Op2=OFF; 
06AA2:  BCF    xA2.1
....................             }else if(Opcion==4){//Instrumental Delicado Envuelto 
06AA4:  BRA    6BD4
06AA6:  MOVLB  3
06AA8:  MOVF   x3F,W
06AAA:  SUBLW  04
06AAC:  BNZ   6AF4
....................                printf("page Funcionamiento"); 
06AAE:  MOVLW  D8
06AB0:  MOVWF  FF6
06AB2:  MOVLW  07
06AB4:  MOVWF  FF7
06AB6:  MOVLW  00
06AB8:  MOVWF  FF8
06ABA:  MOVLB  0
06ABC:  CALL   35D6
....................                SendDataDisplay();        
06AC0:  CALL   3608
....................                ConfiguraCiclo(0,0,0,2,0,0,0,2,0,4,121); 
06AC4:  MOVLB  3
06AC6:  CLRF   xD9
06AC8:  CLRF   xDA
06ACA:  CLRF   xDB
06ACC:  MOVLW  02
06ACE:  MOVWF  xDC
06AD0:  CLRF   xDD
06AD2:  CLRF   xDE
06AD4:  CLRF   xDF
06AD6:  MOVWF  xE0
06AD8:  CLRF   xE1
06ADA:  MOVLW  04
06ADC:  MOVWF  xE2
06ADE:  MOVLW  79
06AE0:  MOVWF  xE3
06AE2:  MOVLB  0
06AE4:  CALL   4596
....................                Op=OFF; 
06AE8:  BCF    xA2.0
....................                Op2=OFF; 
06AEA:  BCF    xA2.1
....................                MenuAnt=2; 
06AEC:  MOVLW  02
06AEE:  MOVLB  3
06AF0:  MOVWF  x38
....................             }else if(Opcion==1){//Instrumental no envuelto 
06AF2:  BRA    6BD6
06AF4:  DECFSZ x3F,W
06AF6:  BRA    6B3E
....................                printf("page Funcionamiento"); 
06AF8:  MOVLW  EC
06AFA:  MOVWF  FF6
06AFC:  MOVLW  07
06AFE:  MOVWF  FF7
06B00:  MOVLW  00
06B02:  MOVWF  FF8
06B04:  MOVLB  0
06B06:  CALL   35D6
....................                SendDataDisplay();        
06B0A:  CALL   3608
....................                ConfiguraCiclo(0,0,3,0,0,0,1,0,0,1,134); 
06B0E:  MOVLB  3
06B10:  CLRF   xD9
06B12:  CLRF   xDA
06B14:  MOVLW  03
06B16:  MOVWF  xDB
06B18:  CLRF   xDC
06B1A:  CLRF   xDD
06B1C:  CLRF   xDE
06B1E:  MOVLW  01
06B20:  MOVWF  xDF
06B22:  CLRF   xE0
06B24:  CLRF   xE1
06B26:  MOVWF  xE2
06B28:  MOVLW  86
06B2A:  MOVWF  xE3
06B2C:  MOVLB  0
06B2E:  CALL   4596
....................                Op=OFF; 
06B32:  BCF    xA2.0
....................                Op2=OFF; 
06B34:  BCF    xA2.1
....................                MenuAnt=2; 
06B36:  MOVLW  02
06B38:  MOVLB  3
06B3A:  MOVWF  x38
....................             }else if(Opcion==3){//Instrumental Delicado No Envuelto 
06B3C:  BRA    6BD6
06B3E:  MOVF   x3F,W
06B40:  SUBLW  03
06B42:  BNZ   6B8C
....................                printf("page Funcionamiento"); 
06B44:  MOVLW  00
06B46:  MOVWF  FF6
06B48:  MOVLW  08
06B4A:  MOVWF  FF7
06B4C:  MOVLW  00
06B4E:  MOVWF  FF8
06B50:  MOVLB  0
06B52:  CALL   35D6
....................                SendDataDisplay();        
06B56:  CALL   3608
....................                ConfiguraCiclo(0,0,5,1,0,0,1,0,0,3,121); 
06B5A:  MOVLB  3
06B5C:  CLRF   xD9
06B5E:  CLRF   xDA
06B60:  MOVLW  05
06B62:  MOVWF  xDB
06B64:  MOVLW  01
06B66:  MOVWF  xDC
06B68:  CLRF   xDD
06B6A:  CLRF   xDE
06B6C:  MOVWF  xDF
06B6E:  CLRF   xE0
06B70:  CLRF   xE1
06B72:  MOVLW  03
06B74:  MOVWF  xE2
06B76:  MOVLW  79
06B78:  MOVWF  xE3
06B7A:  MOVLB  0
06B7C:  CALL   4596
....................                Op=OFF; 
06B80:  BCF    xA2.0
....................                Op2=OFF; 
06B82:  BCF    xA2.1
....................                MenuAnt=Menu; 
06B84:  MOVFF  337,338
....................                //if(Temperatura>60)TTrampa=TTrampa+5; 
....................             }else if(Opcion==2){//Instrumental Envuelto 
06B88:  BRA    6BD4
06B8A:  MOVLB  3
06B8C:  MOVF   x3F,W
06B8E:  SUBLW  02
06B90:  BNZ   6BD6
....................                printf("page Funcionamiento"); 
06B92:  MOVLW  14
06B94:  MOVWF  FF6
06B96:  MOVLW  08
06B98:  MOVWF  FF7
06B9A:  MOVLW  00
06B9C:  MOVWF  FF8
06B9E:  MOVLB  0
06BA0:  CALL   35D6
....................                SendDataDisplay();        
06BA4:  CALL   3608
....................                ConfiguraCiclo(0,0,7,0,0,0,0,2,0,2,134); 
06BA8:  MOVLB  3
06BAA:  CLRF   xD9
06BAC:  CLRF   xDA
06BAE:  MOVLW  07
06BB0:  MOVWF  xDB
06BB2:  CLRF   xDC
06BB4:  CLRF   xDD
06BB6:  CLRF   xDE
06BB8:  CLRF   xDF
06BBA:  MOVLW  02
06BBC:  MOVWF  xE0
06BBE:  CLRF   xE1
06BC0:  MOVWF  xE2
06BC2:  MOVLW  86
06BC4:  MOVWF  xE3
06BC6:  MOVLB  0
06BC8:  CALL   4596
....................                Op=OFF; 
06BCC:  BCF    xA2.0
....................                Op2=OFF; 
06BCE:  BCF    xA2.1
....................                MenuAnt=Menu; 
06BD0:  MOVFF  337,338
06BD4:  MOVLB  3
06BD6:  MOVLB  2
....................                //if(Temperatura>60)TTrampa=TTrampa+5; 
....................             } 
....................          } 
....................          } 
....................       }else if(PantallaPrincipal==0){ 
06BD8:  BRA    71B2
06BDA:  MOVLB  2
06BDC:  MOVF   xD1,F
06BDE:  BTFSS  FD8.2
06BE0:  BRA    71B2
....................          if(Opcion>8) 
06BE2:  MOVLB  3
06BE4:  MOVF   x3F,W
06BE6:  SUBLW  08
06BE8:  BC    6BEE
....................             Opcion=1; 
06BEA:  MOVLW  01
06BEC:  MOVWF  x3F
....................              
....................          if(Opcion<1) 
06BEE:  MOVF   x3F,F
06BF0:  BNZ   6BF6
....................             Opcion=8; 
06BF2:  MOVLW  08
06BF4:  MOVWF  x3F
....................           
....................          if(Opcion==1){ 
06BF6:  DECFSZ x3F,W
06BF8:  BRA    6D9C
....................             printf("bc.pic=%u",iconoGrande[Opcion-1]); 
06BFA:  MOVLW  01
06BFC:  SUBWF  x3F,W
06BFE:  CLRF   03
06C00:  ADDLW  89
06C02:  MOVWF  FE9
06C04:  MOVLW  03
06C06:  ADDWFC 03,W
06C08:  MOVWF  FEA
06C0A:  MOVFF  FEF,3CF
06C0E:  MOVLW  28
06C10:  MOVWF  FF6
06C12:  MOVLW  08
06C14:  MOVWF  FF7
06C16:  MOVLW  00
06C18:  MOVWF  FF8
06C1A:  MOVLW  07
06C1C:  MOVWF  xD3
06C1E:  MOVLB  0
06C20:  CALL   44BA
06C24:  MOVFF  3CF,3D1
06C28:  MOVLW  1B
06C2A:  MOVLB  3
06C2C:  MOVWF  xD2
06C2E:  MOVLB  0
06C30:  CALL   4518
....................             SendDataDisplay(); 
06C34:  CALL   3608
....................             printf("bd.pic=%u",iconoPeque[Opcion]); 
06C38:  CLRF   03
06C3A:  MOVLB  3
06C3C:  MOVF   x3F,W
06C3E:  ADDLW  98
06C40:  MOVWF  FE9
06C42:  MOVLW  03
06C44:  ADDWFC 03,W
06C46:  MOVWF  FEA
06C48:  MOVFF  FEF,3CF
06C4C:  MOVLW  32
06C4E:  MOVWF  FF6
06C50:  MOVLW  08
06C52:  MOVWF  FF7
06C54:  MOVLW  00
06C56:  MOVWF  FF8
06C58:  MOVLW  07
06C5A:  MOVWF  xD3
06C5C:  MOVLB  0
06C5E:  CALL   44BA
06C62:  MOVFF  3CF,3D1
06C66:  MOVLW  1B
06C68:  MOVLB  3
06C6A:  MOVWF  xD2
06C6C:  MOVLB  0
06C6E:  CALL   4518
....................             SendDataDisplay(); 
06C72:  CALL   3608
....................             printf("bi.pic=%u",iconoPeque[7]); 
06C76:  MOVLW  3C
06C78:  MOVWF  FF6
06C7A:  MOVLW  08
06C7C:  MOVWF  FF7
06C7E:  MOVLW  00
06C80:  MOVWF  FF8
06C82:  MOVLW  07
06C84:  MOVLB  3
06C86:  MOVWF  xD3
06C88:  MOVLB  0
06C8A:  CALL   44BA
06C8E:  MOVFF  39F,3D1
06C92:  MOVLW  1B
06C94:  MOVLB  3
06C96:  MOVWF  xD2
06C98:  MOVLB  0
06C9A:  CALL   4518
....................             SendDataDisplay(); 
06C9E:  CALL   3608
....................             printf("bc.pic2=%u",iconoGrande[Opcion-1]); 
06CA2:  MOVLW  01
06CA4:  MOVLB  3
06CA6:  SUBWF  x3F,W
06CA8:  CLRF   03
06CAA:  ADDLW  89
06CAC:  MOVWF  FE9
06CAE:  MOVLW  03
06CB0:  ADDWFC 03,W
06CB2:  MOVWF  FEA
06CB4:  MOVFF  FEF,3CF
06CB8:  MOVLW  46
06CBA:  MOVWF  FF6
06CBC:  MOVLW  08
06CBE:  MOVWF  FF7
06CC0:  MOVLW  00
06CC2:  MOVWF  FF8
06CC4:  MOVLW  08
06CC6:  MOVWF  xD3
06CC8:  MOVLB  0
06CCA:  CALL   44BA
06CCE:  MOVFF  3CF,3D1
06CD2:  MOVLW  1B
06CD4:  MOVLB  3
06CD6:  MOVWF  xD2
06CD8:  MOVLB  0
06CDA:  CALL   4518
....................             SendDataDisplay(); 
06CDE:  CALL   3608
....................             printf("bd.pic2=%u",iconoPeque[Opcion]); 
06CE2:  CLRF   03
06CE4:  MOVLB  3
06CE6:  MOVF   x3F,W
06CE8:  ADDLW  98
06CEA:  MOVWF  FE9
06CEC:  MOVLW  03
06CEE:  ADDWFC 03,W
06CF0:  MOVWF  FEA
06CF2:  MOVFF  FEF,3CF
06CF6:  MOVLW  52
06CF8:  MOVWF  FF6
06CFA:  MOVLW  08
06CFC:  MOVWF  FF7
06CFE:  MOVLW  00
06D00:  MOVWF  FF8
06D02:  MOVLW  08
06D04:  MOVWF  xD3
06D06:  MOVLB  0
06D08:  CALL   44BA
06D0C:  MOVFF  3CF,3D1
06D10:  MOVLW  1B
06D12:  MOVLB  3
06D14:  MOVWF  xD2
06D16:  MOVLB  0
06D18:  CALL   4518
....................             SendDataDisplay(); 
06D1C:  CALL   3608
....................             printf("bi.pic2=%u",iconoPeque[7]); 
06D20:  MOVLW  5E
06D22:  MOVWF  FF6
06D24:  MOVLW  08
06D26:  MOVWF  FF7
06D28:  MOVLW  00
06D2A:  MOVWF  FF8
06D2C:  MOVLW  08
06D2E:  MOVLB  3
06D30:  MOVWF  xD3
06D32:  MOVLB  0
06D34:  CALL   44BA
06D38:  MOVFF  39F,3D1
06D3C:  MOVLW  1B
06D3E:  MOVLB  3
06D40:  MOVWF  xD2
06D42:  MOVLB  0
06D44:  CALL   4518
....................             SendDataDisplay(); 
06D48:  CALL   3608
....................             printf("textop.txt=\"%s\"",texto[Opcion-1]); 
06D4C:  MOVLW  01
06D4E:  MOVLB  3
06D50:  SUBWF  x3F,W
06D52:  MULLW  14
06D54:  MOVF   FF3,W
06D56:  CLRF   03
06D58:  MOVWF  xCF
06D5A:  MOVLW  6A
06D5C:  MOVWF  FF6
06D5E:  MOVLW  08
06D60:  MOVWF  FF7
06D62:  MOVLW  00
06D64:  MOVWF  FF8
06D66:  MOVLW  0C
06D68:  MOVWF  xD3
06D6A:  MOVLB  0
06D6C:  CALL   44BA
06D70:  MOVLW  50
06D72:  MOVWF  FF6
06D74:  MOVLW  01
06D76:  MOVWF  FF7
06D78:  MOVLW  00
06D7A:  MOVWF  FF8
06D7C:  MOVLB  3
06D7E:  MOVF   xCF,W
06D80:  ADDWF  FF6,F
06D82:  MOVLW  00
06D84:  ADDWFC FF7,F
06D86:  MOVLB  0
06D88:  CALL   35D6
06D8C:  MOVLW  22
06D8E:  BTFSS  F9E.4
06D90:  BRA    6D8E
06D92:  MOVWF  FAD
....................             SendDataDisplay(); 
06D94:  CALL   3608
....................          }else if(Opcion==8){ 
06D98:  BRA    7110
06D9A:  MOVLB  3
06D9C:  MOVF   x3F,W
06D9E:  SUBLW  08
06DA0:  BTFSS  FD8.2
06DA2:  BRA    6F4A
....................             printf("bc.pic=%u",iconoGrande[Opcion-1]); 
06DA4:  MOVLW  01
06DA6:  SUBWF  x3F,W
06DA8:  CLRF   03
06DAA:  ADDLW  89
06DAC:  MOVWF  FE9
06DAE:  MOVLW  03
06DB0:  ADDWFC 03,W
06DB2:  MOVWF  FEA
06DB4:  MOVFF  FEF,3CF
06DB8:  MOVLW  7A
06DBA:  MOVWF  FF6
06DBC:  MOVLW  08
06DBE:  MOVWF  FF7
06DC0:  MOVLW  00
06DC2:  MOVWF  FF8
06DC4:  MOVLW  07
06DC6:  MOVWF  xD3
06DC8:  MOVLB  0
06DCA:  CALL   44BA
06DCE:  MOVFF  3CF,3D1
06DD2:  MOVLW  1B
06DD4:  MOVLB  3
06DD6:  MOVWF  xD2
06DD8:  MOVLB  0
06DDA:  CALL   4518
....................             SendDataDisplay(); 
06DDE:  CALL   3608
....................             printf("bd.pic=%u",iconoPeque[0]); 
06DE2:  MOVLW  84
06DE4:  MOVWF  FF6
06DE6:  MOVLW  08
06DE8:  MOVWF  FF7
06DEA:  MOVLW  00
06DEC:  MOVWF  FF8
06DEE:  MOVLW  07
06DF0:  MOVLB  3
06DF2:  MOVWF  xD3
06DF4:  MOVLB  0
06DF6:  CALL   44BA
06DFA:  MOVFF  398,3D1
06DFE:  MOVLW  1B
06E00:  MOVLB  3
06E02:  MOVWF  xD2
06E04:  MOVLB  0
06E06:  CALL   4518
....................             SendDataDisplay(); 
06E0A:  CALL   3608
....................             printf("bi.pic=%u",iconoPeque[Opcion-2]); 
06E0E:  MOVLW  02
06E10:  MOVLB  3
06E12:  SUBWF  x3F,W
06E14:  CLRF   03
06E16:  ADDLW  98
06E18:  MOVWF  FE9
06E1A:  MOVLW  03
06E1C:  ADDWFC 03,W
06E1E:  MOVWF  FEA
06E20:  MOVFF  FEF,3CF
06E24:  MOVLW  8E
06E26:  MOVWF  FF6
06E28:  MOVLW  08
06E2A:  MOVWF  FF7
06E2C:  MOVLW  00
06E2E:  MOVWF  FF8
06E30:  MOVLW  07
06E32:  MOVWF  xD3
06E34:  MOVLB  0
06E36:  CALL   44BA
06E3A:  MOVFF  3CF,3D1
06E3E:  MOVLW  1B
06E40:  MOVLB  3
06E42:  MOVWF  xD2
06E44:  MOVLB  0
06E46:  CALL   4518
....................             SendDataDisplay(); 
06E4A:  CALL   3608
....................             printf("bc.pic2=%u",iconoGrande[Opcion-1]); 
06E4E:  MOVLW  01
06E50:  MOVLB  3
06E52:  SUBWF  x3F,W
06E54:  CLRF   03
06E56:  ADDLW  89
06E58:  MOVWF  FE9
06E5A:  MOVLW  03
06E5C:  ADDWFC 03,W
06E5E:  MOVWF  FEA
06E60:  MOVFF  FEF,3CF
06E64:  MOVLW  98
06E66:  MOVWF  FF6
06E68:  MOVLW  08
06E6A:  MOVWF  FF7
06E6C:  MOVLW  00
06E6E:  MOVWF  FF8
06E70:  MOVLW  08
06E72:  MOVWF  xD3
06E74:  MOVLB  0
06E76:  CALL   44BA
06E7A:  MOVFF  3CF,3D1
06E7E:  MOVLW  1B
06E80:  MOVLB  3
06E82:  MOVWF  xD2
06E84:  MOVLB  0
06E86:  CALL   4518
....................             SendDataDisplay(); 
06E8A:  CALL   3608
....................             printf("bd.pic2=%u",iconoPeque[0]); 
06E8E:  MOVLW  A4
06E90:  MOVWF  FF6
06E92:  MOVLW  08
06E94:  MOVWF  FF7
06E96:  MOVLW  00
06E98:  MOVWF  FF8
06E9A:  MOVLW  08
06E9C:  MOVLB  3
06E9E:  MOVWF  xD3
06EA0:  MOVLB  0
06EA2:  CALL   44BA
06EA6:  MOVFF  398,3D1
06EAA:  MOVLW  1B
06EAC:  MOVLB  3
06EAE:  MOVWF  xD2
06EB0:  MOVLB  0
06EB2:  CALL   4518
....................             SendDataDisplay(); 
06EB6:  CALL   3608
....................             printf("bi.pic2=%u",iconoPeque[Opcion-2]); 
06EBA:  MOVLW  02
06EBC:  MOVLB  3
06EBE:  SUBWF  x3F,W
06EC0:  CLRF   03
06EC2:  ADDLW  98
06EC4:  MOVWF  FE9
06EC6:  MOVLW  03
06EC8:  ADDWFC 03,W
06ECA:  MOVWF  FEA
06ECC:  MOVFF  FEF,3CF
06ED0:  MOVLW  B0
06ED2:  MOVWF  FF6
06ED4:  MOVLW  08
06ED6:  MOVWF  FF7
06ED8:  MOVLW  00
06EDA:  MOVWF  FF8
06EDC:  MOVLW  08
06EDE:  MOVWF  xD3
06EE0:  MOVLB  0
06EE2:  CALL   44BA
06EE6:  MOVFF  3CF,3D1
06EEA:  MOVLW  1B
06EEC:  MOVLB  3
06EEE:  MOVWF  xD2
06EF0:  MOVLB  0
06EF2:  CALL   4518
....................             SendDataDisplay(); 
06EF6:  CALL   3608
....................             printf("textop.txt=\"%s\"",texto[Opcion-1]); 
06EFA:  MOVLW  01
06EFC:  MOVLB  3
06EFE:  SUBWF  x3F,W
06F00:  MULLW  14
06F02:  MOVF   FF3,W
06F04:  CLRF   03
06F06:  MOVWF  xCF
06F08:  MOVLW  BC
06F0A:  MOVWF  FF6
06F0C:  MOVLW  08
06F0E:  MOVWF  FF7
06F10:  MOVLW  00
06F12:  MOVWF  FF8
06F14:  MOVLW  0C
06F16:  MOVWF  xD3
06F18:  MOVLB  0
06F1A:  CALL   44BA
06F1E:  MOVLW  50
06F20:  MOVWF  FF6
06F22:  MOVLW  01
06F24:  MOVWF  FF7
06F26:  MOVLW  00
06F28:  MOVWF  FF8
06F2A:  MOVLB  3
06F2C:  MOVF   xCF,W
06F2E:  ADDWF  FF6,F
06F30:  MOVLW  00
06F32:  ADDWFC FF7,F
06F34:  MOVLB  0
06F36:  CALL   35D6
06F3A:  MOVLW  22
06F3C:  BTFSS  F9E.4
06F3E:  BRA    6F3C
06F40:  MOVWF  FAD
....................             SendDataDisplay(); 
06F42:  CALL   3608
....................          }else{ 
06F46:  BRA    7110
06F48:  MOVLB  3
....................             printf("bc.pic=%u",iconoGrande[Opcion-1]); 
06F4A:  MOVLW  01
06F4C:  SUBWF  x3F,W
06F4E:  CLRF   03
06F50:  ADDLW  89
06F52:  MOVWF  FE9
06F54:  MOVLW  03
06F56:  ADDWFC 03,W
06F58:  MOVWF  FEA
06F5A:  MOVFF  FEF,3CF
06F5E:  MOVLW  CC
06F60:  MOVWF  FF6
06F62:  MOVLW  08
06F64:  MOVWF  FF7
06F66:  MOVLW  00
06F68:  MOVWF  FF8
06F6A:  MOVLW  07
06F6C:  MOVWF  xD3
06F6E:  MOVLB  0
06F70:  CALL   44BA
06F74:  MOVFF  3CF,3D1
06F78:  MOVLW  1B
06F7A:  MOVLB  3
06F7C:  MOVWF  xD2
06F7E:  MOVLB  0
06F80:  CALL   4518
....................             SendDataDisplay(); 
06F84:  CALL   3608
....................             printf("bd.pic=%u",iconoPeque[Opcion]); 
06F88:  CLRF   03
06F8A:  MOVLB  3
06F8C:  MOVF   x3F,W
06F8E:  ADDLW  98
06F90:  MOVWF  FE9
06F92:  MOVLW  03
06F94:  ADDWFC 03,W
06F96:  MOVWF  FEA
06F98:  MOVFF  FEF,3CF
06F9C:  MOVLW  D6
06F9E:  MOVWF  FF6
06FA0:  MOVLW  08
06FA2:  MOVWF  FF7
06FA4:  MOVLW  00
06FA6:  MOVWF  FF8
06FA8:  MOVLW  07
06FAA:  MOVWF  xD3
06FAC:  MOVLB  0
06FAE:  CALL   44BA
06FB2:  MOVFF  3CF,3D1
06FB6:  MOVLW  1B
06FB8:  MOVLB  3
06FBA:  MOVWF  xD2
06FBC:  MOVLB  0
06FBE:  CALL   4518
....................             SendDataDisplay(); 
06FC2:  CALL   3608
....................             printf("bi.pic=%u",iconoPeque[Opcion-2]); 
06FC6:  MOVLW  02
06FC8:  MOVLB  3
06FCA:  SUBWF  x3F,W
06FCC:  CLRF   03
06FCE:  ADDLW  98
06FD0:  MOVWF  FE9
06FD2:  MOVLW  03
06FD4:  ADDWFC 03,W
06FD6:  MOVWF  FEA
06FD8:  MOVFF  FEF,3CF
06FDC:  MOVLW  E0
06FDE:  MOVWF  FF6
06FE0:  MOVLW  08
06FE2:  MOVWF  FF7
06FE4:  MOVLW  00
06FE6:  MOVWF  FF8
06FE8:  MOVLW  07
06FEA:  MOVWF  xD3
06FEC:  MOVLB  0
06FEE:  CALL   44BA
06FF2:  MOVFF  3CF,3D1
06FF6:  MOVLW  1B
06FF8:  MOVLB  3
06FFA:  MOVWF  xD2
06FFC:  MOVLB  0
06FFE:  CALL   4518
....................             SendDataDisplay(); 
07002:  CALL   3608
....................             printf("bc.pic2=%u",iconoGrande[Opcion-1]); 
07006:  MOVLW  01
07008:  MOVLB  3
0700A:  SUBWF  x3F,W
0700C:  CLRF   03
0700E:  ADDLW  89
07010:  MOVWF  FE9
07012:  MOVLW  03
07014:  ADDWFC 03,W
07016:  MOVWF  FEA
07018:  MOVFF  FEF,3CF
0701C:  MOVLW  EA
0701E:  MOVWF  FF6
07020:  MOVLW  08
07022:  MOVWF  FF7
07024:  MOVLW  00
07026:  MOVWF  FF8
07028:  MOVLW  08
0702A:  MOVWF  xD3
0702C:  MOVLB  0
0702E:  CALL   44BA
07032:  MOVFF  3CF,3D1
07036:  MOVLW  1B
07038:  MOVLB  3
0703A:  MOVWF  xD2
0703C:  MOVLB  0
0703E:  CALL   4518
....................             SendDataDisplay(); 
07042:  CALL   3608
....................             printf("bd.pic2=%u",iconoPeque[Opcion]); 
07046:  CLRF   03
07048:  MOVLB  3
0704A:  MOVF   x3F,W
0704C:  ADDLW  98
0704E:  MOVWF  FE9
07050:  MOVLW  03
07052:  ADDWFC 03,W
07054:  MOVWF  FEA
07056:  MOVFF  FEF,3CF
0705A:  MOVLW  F6
0705C:  MOVWF  FF6
0705E:  MOVLW  08
07060:  MOVWF  FF7
07062:  MOVLW  00
07064:  MOVWF  FF8
07066:  MOVLW  08
07068:  MOVWF  xD3
0706A:  MOVLB  0
0706C:  CALL   44BA
07070:  MOVFF  3CF,3D1
07074:  MOVLW  1B
07076:  MOVLB  3
07078:  MOVWF  xD2
0707A:  MOVLB  0
0707C:  CALL   4518
....................             SendDataDisplay(); 
07080:  CALL   3608
....................             printf("bi.pic2=%u",iconoPeque[Opcion-2]); 
07084:  MOVLW  02
07086:  MOVLB  3
07088:  SUBWF  x3F,W
0708A:  CLRF   03
0708C:  ADDLW  98
0708E:  MOVWF  FE9
07090:  MOVLW  03
07092:  ADDWFC 03,W
07094:  MOVWF  FEA
07096:  MOVFF  FEF,3CF
0709A:  MOVLW  02
0709C:  MOVWF  FF6
0709E:  MOVLW  09
070A0:  MOVWF  FF7
070A2:  MOVLW  00
070A4:  MOVWF  FF8
070A6:  MOVLW  08
070A8:  MOVWF  xD3
070AA:  MOVLB  0
070AC:  CALL   44BA
070B0:  MOVFF  3CF,3D1
070B4:  MOVLW  1B
070B6:  MOVLB  3
070B8:  MOVWF  xD2
070BA:  MOVLB  0
070BC:  CALL   4518
....................             SendDataDisplay(); 
070C0:  CALL   3608
....................             printf("textop.txt=\"%s\"",texto[Opcion-1]); 
070C4:  MOVLW  01
070C6:  MOVLB  3
070C8:  SUBWF  x3F,W
070CA:  MULLW  14
070CC:  MOVF   FF3,W
070CE:  CLRF   03
070D0:  MOVWF  xCF
070D2:  MOVLW  0E
070D4:  MOVWF  FF6
070D6:  MOVLW  09
070D8:  MOVWF  FF7
070DA:  MOVLW  00
070DC:  MOVWF  FF8
070DE:  MOVLW  0C
070E0:  MOVWF  xD3
070E2:  MOVLB  0
070E4:  CALL   44BA
070E8:  MOVLW  50
070EA:  MOVWF  FF6
070EC:  MOVLW  01
070EE:  MOVWF  FF7
070F0:  MOVLW  00
070F2:  MOVWF  FF8
070F4:  MOVLB  3
070F6:  MOVF   xCF,W
070F8:  ADDWF  FF6,F
070FA:  MOVLW  00
070FC:  ADDWFC FF7,F
070FE:  MOVLB  0
07100:  CALL   35D6
07104:  MOVLW  22
07106:  BTFSS  F9E.4
07108:  BRA    7106
0710A:  MOVWF  FAD
....................             SendDataDisplay(); 
0710C:  CALL   3608
....................          } 
....................           
....................          printf("ttitulo.txt=\"SELECCIONE SU CICLO\""); 
07110:  MOVLW  1E
07112:  MOVWF  FF6
07114:  MOVLW  09
07116:  MOVWF  FF7
07118:  MOVLW  00
0711A:  MOVWF  FF8
0711C:  CALL   35D6
....................          SendDataDisplay(); 
07120:  CALL   3608
....................           
....................          if(RIGHT){ 
07124:  BSF    F93.2
07126:  BTFSC  F81.2
07128:  BRA    7142
....................             delay_ms(20); 
0712A:  MOVLW  14
0712C:  MOVLB  3
0712E:  MOVWF  xE4
07130:  MOVLB  0
07132:  CALL   1806
....................             if(RIGHT){ 
07136:  BSF    F93.2
07138:  BTFSC  F81.2
0713A:  BRA    7142
....................                Opcion++; 
0713C:  MOVLB  3
0713E:  INCF   x3F,F
07140:  MOVLB  0
....................             } 
....................          } 
....................           
....................          if(LEFT){ 
07142:  BSF    F93.3
07144:  BTFSC  F81.3
07146:  BRA    7160
....................             delay_ms(20); 
07148:  MOVLW  14
0714A:  MOVLB  3
0714C:  MOVWF  xE4
0714E:  MOVLB  0
07150:  CALL   1806
....................             if(LEFT){ 
07154:  BSF    F93.3
07156:  BTFSC  F81.3
07158:  BRA    7160
....................                Opcion--; 
0715A:  MOVLB  3
0715C:  DECF   x3F,F
0715E:  MOVLB  0
....................             } 
....................          } 
....................           
....................          if(RX_Buffer[4]==0x0d && !Op){//Tecla Derecha Oprimida 
07160:  MOVF   34,W
07162:  SUBLW  0D
07164:  BNZ   7174
07166:  BTFSC  xA2.0
07168:  BRA    7174
....................             Opcion++; 
0716A:  MOVLB  3
0716C:  INCF   x3F,F
....................             RX_Buffer[4]=0x00; 
0716E:  CLRF   34
....................             Op=ON; 
07170:  MOVLB  0
07172:  BSF    xA2.0
....................             //BorraBuffer(); 
....................          } 
....................           
....................          if(RX_Buffer[4]==0x0c && Op){//Tecla Derecha Oprimida 
07174:  MOVF   34,W
07176:  SUBLW  0C
07178:  BNZ   7188
0717A:  BTFSS  xA2.0
0717C:  BRA    7188
....................             Opcion++; 
0717E:  MOVLB  3
07180:  INCF   x3F,F
....................             RX_Buffer[4]=0x00; 
07182:  CLRF   34
....................             Op=OFF; 
07184:  MOVLB  0
07186:  BCF    xA2.0
....................             //BorraBuffer(); 
....................          } 
....................           
....................          if(RX_Buffer[4]==0x0e && !Op2){//Tecla Izquierda Oprimida 
07188:  MOVF   34,W
0718A:  SUBLW  0E
0718C:  BNZ   719C
0718E:  BTFSC  xA2.1
07190:  BRA    719C
....................             Opcion--; 
07192:  MOVLB  3
07194:  DECF   x3F,F
....................             RX_Buffer[4]=0x00; 
07196:  CLRF   34
....................             Op2=ON; 
07198:  MOVLB  0
0719A:  BSF    xA2.1
....................             //BorraBuffer(); 
....................          } 
....................           
....................          if(RX_Buffer[4]==0x0f && Op2){//Tecla Izquierda Oprimida 
0719C:  MOVF   34,W
0719E:  SUBLW  0F
071A0:  BNZ   71B0
071A2:  BTFSS  xA2.1
071A4:  BRA    71B0
....................             Opcion--; 
071A6:  MOVLB  3
071A8:  DECF   x3F,F
....................             RX_Buffer[4]=0x00; 
071AA:  CLRF   34
....................             Op2=OFF; 
071AC:  MOVLB  0
071AE:  BCF    xA2.1
071B0:  MOVLB  2
....................             //BorraBuffer(); 
....................          } 
....................           
....................       } 
....................          if(RIGHT && LEFT){ 
071B2:  BSF    F93.2
071B4:  BTFSC  F81.2
071B6:  BRA    7204
071B8:  BSF    F93.3
071BA:  BTFSC  F81.3
071BC:  BRA    7204
....................             delay_ms(20); 
071BE:  MOVLW  14
071C0:  MOVLB  3
071C2:  MOVWF  xE4
071C4:  MOVLB  0
071C6:  CALL   1806
....................             if(RIGHT && LEFT){ 
071CA:  BSF    F93.2
071CC:  BTFSC  F81.2
071CE:  BRA    7202
071D0:  BSF    F93.3
071D2:  BTFSC  F81.3
071D4:  BRA    7202
....................                printf("page Clave"); 
071D6:  MOVLW  40
071D8:  MOVWF  FF6
071DA:  MOVLW  09
071DC:  MOVWF  FF7
071DE:  MOVLW  00
071E0:  MOVWF  FF8
071E2:  CALL   35D6
....................                SendDataDisplay();  
071E6:  CALL   3608
....................                Op=OFF; 
071EA:  BCF    xA2.0
....................                Op2=OFF; 
071EC:  BCF    xA2.1
....................                MenuAnt=Menu; 
071EE:  MOVFF  337,338
....................                TipoClave=1; 
071F2:  MOVLW  01
071F4:  MOVLB  2
071F6:  MOVWF  xD2
....................                RX_Buffer[3]=0x00; 
071F8:  CLRF   33
....................                RX_Buffer2[3]=0x00; 
071FA:  CLRF   3E
....................                Opcion=0; 
071FC:  MOVLB  3
071FE:  CLRF   x3F
07200:  MOVLB  0
07202:  MOVLB  2
....................             } 
....................          } 
....................    } 
.................... //_--------------------------------------------------------------------------------------------------------------------------------------------------------        
....................  
.................... //_-------------------------------------------------------------------------------------------------------------------------------------------------------- 
....................     if(Menu==2){ //Menu de Tiempo Esterilizacion      
07204:  MOVLB  3
07206:  MOVF   x37,W
07208:  SUBLW  02
0720A:  BTFSS  FD8.2
0720C:  BRA    76DE
....................       printf("fecha.txt=\"Fecha:%02u/%02u/20%02u    Hora: %02u:%02u\"",Dia,Mes,Year,Hora,Minuto); 
0720E:  MOVLW  4C
07210:  MOVWF  FF6
07212:  MOVLW  09
07214:  MOVWF  FF7
07216:  MOVLW  00
07218:  MOVWF  FF8
0721A:  MOVLW  11
0721C:  MOVWF  xD3
0721E:  MOVLB  0
07220:  CALL   44BA
07224:  MOVFF  377,3D1
07228:  MOVLW  01
0722A:  MOVLB  3
0722C:  MOVWF  xD2
0722E:  MOVLB  0
07230:  CALL   4518
07234:  MOVLW  2F
07236:  BTFSS  F9E.4
07238:  BRA    7236
0723A:  MOVWF  FAD
0723C:  MOVFF  376,3D1
07240:  MOVLW  01
07242:  MOVLB  3
07244:  MOVWF  xD2
07246:  MOVLB  0
07248:  CALL   4518
0724C:  MOVLW  2F
0724E:  BTFSS  F9E.4
07250:  BRA    724E
07252:  MOVWF  FAD
07254:  MOVLW  32
07256:  BTFSS  F9E.4
07258:  BRA    7256
0725A:  MOVWF  FAD
0725C:  MOVLW  30
0725E:  BTFSS  F9E.4
07260:  BRA    725E
07262:  MOVWF  FAD
07264:  MOVFF  375,3D1
07268:  MOVLW  01
0726A:  MOVLB  3
0726C:  MOVWF  xD2
0726E:  MOVLB  0
07270:  CALL   4518
07274:  MOVLW  6D
07276:  MOVWF  FF6
07278:  MOVLW  09
0727A:  MOVWF  FF7
0727C:  MOVLW  00
0727E:  MOVWF  FF8
07280:  MOVLW  0A
07282:  MOVLB  3
07284:  MOVWF  xD3
07286:  MOVLB  0
07288:  CALL   44BA
0728C:  MOVFF  378,3D1
07290:  MOVLW  01
07292:  MOVLB  3
07294:  MOVWF  xD2
07296:  MOVLB  0
07298:  CALL   4518
0729C:  MOVLW  3A
0729E:  BTFSS  F9E.4
072A0:  BRA    729E
072A2:  MOVWF  FAD
072A4:  MOVFF  379,3D1
072A8:  MOVLW  01
072AA:  MOVLB  3
072AC:  MOVWF  xD2
072AE:  MOVLB  0
072B0:  CALL   4518
072B4:  MOVLW  22
072B6:  BTFSS  F9E.4
072B8:  BRA    72B6
072BA:  MOVWF  FAD
....................       SendDataDisplay(); 
072BC:  CALL   3608
....................          if(RX_Buffer[4]==0x0a){//Selecciono Minutos 
072C0:  MOVF   34,W
072C2:  SUBLW  0A
072C4:  BNZ   72CA
....................             Minutos=ON; 
072C6:  BSF    xA2.2
....................             Segundos=OFF; 
072C8:  BCF    xA2.3
....................          } 
....................           
....................          if(RX_Buffer[4]==0x0b){//Selecciono Segundos 
072CA:  MOVF   34,W
072CC:  SUBLW  0B
072CE:  BNZ   72D4
....................             Segundos=ON; 
072D0:  BSF    xA2.3
....................             Minutos=OFF; 
072D2:  BCF    xA2.2
....................          }            
....................           
....................          if(RX_Buffer[4]==0x11 || LEFT){//Selecciono Regresar 
072D4:  MOVF   34,W
072D6:  SUBLW  11
072D8:  BZ    72E0
072DA:  BSF    F93.3
072DC:  BTFSC  F81.3
072DE:  BRA    7462
....................             delay_ms(100); 
072E0:  MOVLW  64
072E2:  MOVLB  3
072E4:  MOVWF  xE4
072E6:  MOVLB  0
072E8:  CALL   1806
....................             if(RX_Buffer[4]==0x11 || LEFT){ 
072EC:  MOVF   34,W
072EE:  SUBLW  11
072F0:  BZ    72F8
072F2:  BSF    F93.3
072F4:  BTFSC  F81.3
072F6:  BRA    7462
....................                Segundos=OFF; 
072F8:  BCF    xA2.3
....................                Minutos=OFF; 
072FA:  BCF    xA2.2
....................                printf("page CicloPersona"); 
072FC:  MOVLW  82
072FE:  MOVWF  FF6
07300:  MOVLW  09
07302:  MOVWF  FF7
07304:  MOVLW  00
07306:  MOVWF  FF8
07308:  CALL   35D6
....................                SendDataDisplay();   
0730C:  CALL   3608
....................                PantallaPrincipal=1; 
07310:  MOVLW  01
07312:  MOVLB  2
07314:  MOVWF  xD1
....................                Op=OFF; 
07316:  MOVLB  0
07318:  BCF    xA2.0
....................                Op2=OFF; 
0731A:  BCF    xA2.1
....................                if(!GuardaEEPROM){ 
0731C:  BTFSC  xA2.4
0731E:  BRA    7462
....................                   CiclosPersonalizados[CicloLibre-1].Minutoest=Testerilizacionp[2]+(Testerilizacionp[3]*10); 
07320:  MOVLW  01
07322:  MOVLB  3
07324:  SUBWF  x2B,W
07326:  MULLW  0A
07328:  MOVF   FF3,W
0732A:  CLRF   xD0
0732C:  MOVWF  xCF
0732E:  MOVLW  09
07330:  ADDWF  xCF,W
07332:  MOVWF  01
07334:  MOVLW  00
07336:  ADDWFC xD0,W
07338:  MOVWF  03
0733A:  MOVF   01,W
0733C:  ADDLW  A7
0733E:  MOVWF  FE9
07340:  MOVLW  03
07342:  ADDWFC 03,W
07344:  MOVWF  FEA
07346:  MOVFF  B9,3D1
0734A:  MOVLW  0A
0734C:  MOVWF  xD2
0734E:  MOVLB  0
07350:  CALL   2ADA
07354:  MOVF   01,W
07356:  ADDWF  xB8,W
07358:  MOVWF  FEF
....................                   CiclosPersonalizados[CicloLibre-1].Segundoest=Testerilizacionp[0]+(Testerilizacionp[1]*10); 
0735A:  MOVLW  01
0735C:  MOVLB  3
0735E:  SUBWF  x2B,W
07360:  MULLW  0A
07362:  MOVF   FF3,W
07364:  CLRF   xD0
07366:  MOVWF  xCF
07368:  MOVLW  03
0736A:  ADDWF  xCF,W
0736C:  MOVWF  01
0736E:  MOVLW  00
07370:  ADDWFC xD0,W
07372:  MOVWF  03
07374:  MOVF   01,W
07376:  ADDLW  A7
07378:  MOVWF  FE9
0737A:  MOVLW  03
0737C:  ADDWFC 03,W
0737E:  MOVWF  FEA
07380:  MOVFF  B7,3D1
07384:  MOVLW  0A
07386:  MOVWF  xD2
07388:  MOVLB  0
0738A:  CALL   2ADA
0738E:  MOVF   01,W
07390:  ADDWF  xB6,W
07392:  MOVWF  FEF
....................                   write_eeprom(102+((CicloLibre-1)*8),Testerilizacionp[2]+(Testerilizacionp[3]*10)); 
07394:  MOVLW  01
07396:  MOVLB  3
07398:  SUBWF  x2B,W
0739A:  MULLW  08
0739C:  MOVF   FF3,W
0739E:  ADDLW  66
073A0:  MOVWF  xCF
073A2:  MOVFF  B9,3D1
073A6:  MOVLW  0A
073A8:  MOVWF  xD2
073AA:  MOVLB  0
073AC:  CALL   2ADA
073B0:  MOVF   01,W
073B2:  ADDWF  xB8,W
073B4:  MOVLB  3
073B6:  MOVWF  xD0
073B8:  CLRF   FAA
073BA:  MOVFF  3CF,FA9
073BE:  MOVFF  3D0,FA8
073C2:  BCF    FA6.6
073C4:  BCF    FA6.7
073C6:  BSF    FA6.2
073C8:  MOVF   FF2,W
073CA:  MOVWF  00
073CC:  BCF    FF2.6
073CE:  BCF    FF2.7
073D0:  MOVLB  F
073D2:  MOVLW  55
073D4:  MOVWF  FA7
073D6:  MOVLW  AA
073D8:  MOVWF  FA7
073DA:  BSF    FA6.1
073DC:  BTFSC  FA6.1
073DE:  BRA    73DC
073E0:  BCF    FA6.2
073E2:  MOVF   00,W
073E4:  IORWF  FF2,F
....................                   delay_ms(10); 
073E6:  MOVLW  0A
073E8:  MOVLB  3
073EA:  MOVWF  xE4
073EC:  MOVLB  0
073EE:  CALL   1806
....................                   write_eeprom(103+((CicloLibre-1)*8),Testerilizacionp[0]+(Testerilizacionp[1]*10)); 
073F2:  MOVLW  01
073F4:  MOVLB  3
073F6:  SUBWF  x2B,W
073F8:  MULLW  08
073FA:  MOVF   FF3,W
073FC:  ADDLW  67
073FE:  MOVWF  xCF
07400:  MOVFF  B7,3D1
07404:  MOVLW  0A
07406:  MOVWF  xD2
07408:  MOVLB  0
0740A:  CALL   2ADA
0740E:  MOVF   01,W
07410:  ADDWF  xB6,W
07412:  MOVLB  3
07414:  MOVWF  xD0
07416:  CLRF   FAA
07418:  MOVFF  3CF,FA9
0741C:  MOVFF  3D0,FA8
07420:  BCF    FA6.6
07422:  BCF    FA6.7
07424:  BSF    FA6.2
07426:  MOVF   FF2,W
07428:  MOVWF  00
0742A:  BCF    FF2.6
0742C:  BCF    FF2.7
0742E:  MOVLB  F
07430:  MOVLW  55
07432:  MOVWF  FA7
07434:  MOVLW  AA
07436:  MOVWF  FA7
07438:  BSF    FA6.1
0743A:  BTFSC  FA6.1
0743C:  BRA    743A
0743E:  BCF    FA6.2
07440:  MOVF   00,W
07442:  IORWF  FF2,F
....................                   delay_ms(10); 
07444:  MOVLW  0A
07446:  MOVLB  3
07448:  MOVWF  xE4
0744A:  MOVLB  0
0744C:  CALL   1806
....................                   Testerilizacion[0]=Testerilizacionp[0]; 
07450:  MOVFF  B6,B1
....................                   Testerilizacion[1]=Testerilizacionp[1]; 
07454:  MOVFF  B7,B2
....................                   Testerilizacion[2]=Testerilizacionp[2]; 
07458:  MOVFF  B8,B3
....................                   Testerilizacion[3]=Testerilizacionp[3];                   
0745C:  MOVFF  B9,B4
....................                   GuardaEEPROM=ON; 
07460:  BSF    xA2.4
....................                } 
....................             } 
....................          } 
....................           
....................          if(RIGHT){ 
07462:  BSF    F93.2
07464:  BTFSC  F81.2
07466:  BRA    74DC
....................             delay_ms(100); 
07468:  MOVLW  64
0746A:  MOVLB  3
0746C:  MOVWF  xE4
0746E:  MOVLB  0
07470:  CALL   1806
....................             if(RIGHT){ 
07474:  BSF    F93.2
07476:  BTFSC  F81.2
07478:  BRA    74DC
....................                if(!Segundos){ 
0747A:  BTFSC  xA2.3
0747C:  BRA    74AC
....................                   Segundos=ON; 
0747E:  BSF    xA2.3
....................                   Minutos=OFF; 
07480:  BCF    xA2.2
....................                   printf("tsecest.pco=65535"); 
07482:  MOVLW  94
07484:  MOVWF  FF6
07486:  MOVLW  09
07488:  MOVWF  FF7
0748A:  MOVLW  00
0748C:  MOVWF  FF8
0748E:  CALL   35D6
....................                   SendDataDisplay();   
07492:  CALL   3608
....................                   printf("tminest.pco=0"); 
07496:  MOVLW  A6
07498:  MOVWF  FF6
0749A:  MOVLW  09
0749C:  MOVWF  FF7
0749E:  MOVLW  00
074A0:  MOVWF  FF8
074A2:  CALL   35D6
....................                   SendDataDisplay();   
074A6:  CALL   3608
....................                }else if(!Minutos){ 
074AA:  BRA    74DC
074AC:  BTFSC  xA2.2
074AE:  BRA    74DC
....................                   Segundos=OFF; 
074B0:  BCF    xA2.3
....................                   Minutos=ON; 
074B2:  BSF    xA2.2
....................                   printf("tsecest.pco=0"); 
074B4:  MOVLW  B4
074B6:  MOVWF  FF6
074B8:  MOVLW  09
074BA:  MOVWF  FF7
074BC:  MOVLW  00
074BE:  MOVWF  FF8
074C0:  CALL   35D6
....................                   SendDataDisplay();   
074C4:  CALL   3608
....................                   printf("tminest.pco=65535"); 
074C8:  MOVLW  C2
074CA:  MOVWF  FF6
074CC:  MOVLW  09
074CE:  MOVWF  FF7
074D0:  MOVLW  00
074D2:  MOVWF  FF8
074D4:  CALL   35D6
....................                   SendDataDisplay();   
074D8:  CALL   3608
....................                } 
....................             } 
....................          } 
....................           
....................          if(UP){ 
074DC:  BSF    F93.0
074DE:  BTFSC  F81.0
074E0:  BRA    7528
....................             delay_ms(100); 
074E2:  MOVLW  64
074E4:  MOVLB  3
074E6:  MOVWF  xE4
074E8:  MOVLB  0
074EA:  CALL   1806
....................             if(UP){ 
074EE:  BSF    F93.0
074F0:  BTFSC  F81.0
074F2:  BRA    7528
....................                if(Segundos){ 
074F4:  BTFSS  xA2.3
074F6:  BRA    7508
....................                   Testerilizacionp[0]++; 
074F8:  INCF   xB6,F
....................                   if(Testerilizacionp[0]>9){ 
074FA:  BTFSC  xB6.7
074FC:  BRA    7508
074FE:  MOVF   xB6,W
07500:  SUBLW  09
07502:  BC    7508
....................                      Testerilizacionp[1]++; 
07504:  INCF   xB7,F
....................                      Testerilizacionp[0]=0; 
07506:  CLRF   xB6
....................                   } 
....................                } 
....................                if(Minutos){ 
07508:  BTFSS  xA2.2
0750A:  BRA    7528
....................                   Testerilizacionp[2]++; 
0750C:  INCF   xB8,F
....................                   if(Testerilizacionp[2]>9){ 
0750E:  BTFSC  xB8.7
07510:  BRA    751C
07512:  MOVF   xB8,W
07514:  SUBLW  09
07516:  BC    751C
....................                      Testerilizacionp[3]++; 
07518:  INCF   xB9,F
....................                      Testerilizacionp[2]=0; 
0751A:  CLRF   xB8
....................                   } 
....................                   if(Testerilizacionp[3]>9){                      
0751C:  BTFSC  xB9.7
0751E:  BRA    7528
07520:  MOVF   xB9,W
07522:  SUBLW  09
07524:  BC    7528
....................                      Testerilizacionp[3]=0; 
07526:  CLRF   xB9
....................                   } 
....................                }     
....................             } 
....................          } 
....................           
....................          if(DOWN){ 
07528:  BSF    F93.1
0752A:  BTFSC  F81.1
0752C:  BRA    756E
....................             delay_ms(100); 
0752E:  MOVLW  64
07530:  MOVLB  3
07532:  MOVWF  xE4
07534:  MOVLB  0
07536:  CALL   1806
....................             if(DOWN){ 
0753A:  BSF    F93.1
0753C:  BTFSC  F81.1
0753E:  BRA    756E
....................                if(Segundos){ 
07540:  BTFSS  xA2.3
07542:  BRA    7552
....................                   Testerilizacionp[0]--; 
07544:  DECF   xB6,F
....................                   if(Testerilizacionp[0]<0){ 
07546:  BTFSC  xB6.7
07548:  BRA    754C
0754A:  BRA    7552
....................                      Testerilizacionp[1]--; 
0754C:  DECF   xB7,F
....................                      Testerilizacionp[0]=9; 
0754E:  MOVLW  09
07550:  MOVWF  xB6
....................                   } 
....................                } 
....................                if(Minutos){ 
07552:  BTFSS  xA2.2
07554:  BRA    756E
....................                   Testerilizacionp[2]--; 
07556:  DECF   xB8,F
....................                   if(Testerilizacionp[2]<0){ 
07558:  BTFSC  xB8.7
0755A:  BRA    755E
0755C:  BRA    7564
....................                      Testerilizacionp[3]--; 
0755E:  DECF   xB9,F
....................                      Testerilizacionp[2]=9; 
07560:  MOVLW  09
07562:  MOVWF  xB8
....................                   } 
....................                   if(Testerilizacionp[3]<0){ 
07564:  BTFSC  xB9.7
07566:  BRA    756A
07568:  BRA    756E
....................                      Testerilizacionp[3]=9; 
0756A:  MOVLW  09
0756C:  MOVWF  xB9
....................                   } 
....................                }     
....................             } 
....................          } 
....................           
....................          if(RX_Buffer[4]==0x0c || RX_Buffer[4]==0x0d){//Tecla Derecha Oprimida 
0756E:  MOVF   34,W
07570:  SUBLW  0C
07572:  BZ    757A
07574:  MOVF   34,W
07576:  SUBLW  0D
07578:  BNZ   75B2
....................             if(Segundos){ 
0757A:  BTFSS  xA2.3
0757C:  BRA    758E
....................                Testerilizacionp[0]++; 
0757E:  INCF   xB6,F
....................                if(Testerilizacionp[0]>9){ 
07580:  BTFSC  xB6.7
07582:  BRA    758E
07584:  MOVF   xB6,W
07586:  SUBLW  09
07588:  BC    758E
....................                   Testerilizacionp[1]++; 
0758A:  INCF   xB7,F
....................                   Testerilizacionp[0]=0; 
0758C:  CLRF   xB6
....................                } 
....................             } 
....................             if(Minutos){ 
0758E:  BTFSS  xA2.2
07590:  BRA    75AE
....................                Testerilizacionp[2]++; 
07592:  INCF   xB8,F
....................                if(Testerilizacionp[2]>9){ 
07594:  BTFSC  xB8.7
07596:  BRA    75A2
07598:  MOVF   xB8,W
0759A:  SUBLW  09
0759C:  BC    75A2
....................                   Testerilizacionp[3]++; 
0759E:  INCF   xB9,F
....................                   Testerilizacionp[2]=0; 
075A0:  CLRF   xB8
....................                } 
....................                if(Testerilizacionp[3]>9){                   
075A2:  BTFSC  xB9.7
075A4:  BRA    75AE
075A6:  MOVF   xB9,W
075A8:  SUBLW  09
075AA:  BC    75AE
....................                   Testerilizacionp[3]=0; 
075AC:  CLRF   xB9
....................                } 
....................             } 
....................             RX_Buffer[4]=0x00;   
075AE:  CLRF   34
....................             RX_Buffer2[4]=0x00; 
075B0:  CLRF   3F
....................          } 
....................           
....................          if(RX_Buffer[4]==0x0f || RX_Buffer[4]==0x0e){//Tecla Izquierda Oprimida 
075B2:  MOVF   34,W
075B4:  SUBLW  0F
075B6:  BZ    75BE
075B8:  MOVF   34,W
075BA:  SUBLW  0E
075BC:  BNZ   75F0
....................              
....................             if(Segundos){ 
075BE:  BTFSS  xA2.3
075C0:  BRA    75D0
....................                Testerilizacionp[0]--; 
075C2:  DECF   xB6,F
....................                if(Testerilizacionp[0]<0){ 
075C4:  BTFSC  xB6.7
075C6:  BRA    75CA
075C8:  BRA    75D0
....................                   Testerilizacionp[1]--; 
075CA:  DECF   xB7,F
....................                   Testerilizacionp[0]=9; 
075CC:  MOVLW  09
075CE:  MOVWF  xB6
....................                } 
....................             } 
....................             if(Minutos){ 
075D0:  BTFSS  xA2.2
075D2:  BRA    75EC
....................                Testerilizacionp[2]--; 
075D4:  DECF   xB8,F
....................                if(Testerilizacionp[2]<0){ 
075D6:  BTFSC  xB8.7
075D8:  BRA    75DC
075DA:  BRA    75E2
....................                   Testerilizacionp[3]--; 
075DC:  DECF   xB9,F
....................                   Testerilizacionp[2]=9; 
075DE:  MOVLW  09
075E0:  MOVWF  xB8
....................                } 
....................                if(Testerilizacionp[3]<0){ 
075E2:  BTFSC  xB9.7
075E4:  BRA    75E8
075E6:  BRA    75EC
....................                   Testerilizacionp[3]=9; 
075E8:  MOVLW  09
075EA:  MOVWF  xB9
....................                } 
....................             } 
....................             RX_Buffer[4]=0x00;   
075EC:  CLRF   34
....................             RX_Buffer2[4]=0x00; 
075EE:  CLRF   3F
....................          } 
....................           
....................          if(Testerilizacionp[0]<0) 
075F0:  BTFSC  xB6.7
075F2:  BRA    75F6
075F4:  BRA    75FA
....................             Testerilizacionp[0]=9;             
075F6:  MOVLW  09
075F8:  MOVWF  xB6
....................          if(Testerilizacionp[1]<0) 
075FA:  BTFSC  xB7.7
075FC:  BRA    7600
075FE:  BRA    7604
....................             Testerilizacionp[1]=5;             
07600:  MOVLW  05
07602:  MOVWF  xB7
....................          if(Testerilizacionp[2]<0) 
07604:  BTFSC  xB8.7
07606:  BRA    760A
07608:  BRA    760E
....................             Testerilizacionp[2]=9;             
0760A:  MOVLW  09
0760C:  MOVWF  xB8
....................          if(Testerilizacionp[3]<0) 
0760E:  BTFSC  xB9.7
07610:  BRA    7614
07612:  BRA    7618
....................             Testerilizacionp[3]=9;             
07614:  MOVLW  09
07616:  MOVWF  xB9
....................           
....................          if(Testerilizacionp[0]>9) 
07618:  BTFSC  xB6.7
0761A:  BRA    7624
0761C:  MOVF   xB6,W
0761E:  SUBLW  09
07620:  BC    7624
....................             Testerilizacionp[0]=0;             
07622:  CLRF   xB6
....................          if(Testerilizacionp[1]>5) 
07624:  BTFSC  xB7.7
07626:  BRA    7630
07628:  MOVF   xB7,W
0762A:  SUBLW  05
0762C:  BC    7630
....................             Testerilizacionp[1]=0;             
0762E:  CLRF   xB7
....................          if(Testerilizacionp[2]>9) 
07630:  BTFSC  xB8.7
07632:  BRA    763C
07634:  MOVF   xB8,W
07636:  SUBLW  09
07638:  BC    763C
....................             Testerilizacionp[2]=0;             
0763A:  CLRF   xB8
....................          if(Testerilizacionp[3]>9) 
0763C:  BTFSC  xB9.7
0763E:  BRA    7648
07640:  MOVF   xB9,W
07642:  SUBLW  09
07644:  BC    7648
....................             Testerilizacionp[3]=0;  
07646:  CLRF   xB9
....................              
....................          printf("tminest.txt=\"%02u\"",((Testerilizacionp[3]*10)+Testerilizacionp[2])); 
07648:  MOVFF  B9,3D1
0764C:  MOVLW  0A
0764E:  MOVLB  3
07650:  MOVWF  xD2
07652:  MOVLB  0
07654:  CALL   2ADA
07658:  MOVF   xB8,W
0765A:  ADDWF  01,W
0765C:  MOVLB  3
0765E:  MOVWF  xCF
07660:  MOVLW  D4
07662:  MOVWF  FF6
07664:  MOVLW  09
07666:  MOVWF  FF7
07668:  MOVLW  00
0766A:  MOVWF  FF8
0766C:  MOVLW  0D
0766E:  MOVWF  xD3
07670:  MOVLB  0
07672:  CALL   44BA
07676:  MOVFF  3CF,3D1
0767A:  MOVLW  01
0767C:  MOVLB  3
0767E:  MOVWF  xD2
07680:  MOVLB  0
07682:  CALL   4518
07686:  MOVLW  22
07688:  BTFSS  F9E.4
0768A:  BRA    7688
0768C:  MOVWF  FAD
....................          SendDataDisplay(); 
0768E:  CALL   3608
....................          printf("tsecest.txt=\"%02u\"",((Testerilizacionp[1]*10)+Testerilizacionp[0])); 
07692:  MOVFF  B7,3D1
07696:  MOVLW  0A
07698:  MOVLB  3
0769A:  MOVWF  xD2
0769C:  MOVLB  0
0769E:  CALL   2ADA
076A2:  MOVF   xB6,W
076A4:  ADDWF  01,W
076A6:  MOVLB  3
076A8:  MOVWF  xCF
076AA:  MOVLW  E8
076AC:  MOVWF  FF6
076AE:  MOVLW  09
076B0:  MOVWF  FF7
076B2:  MOVLW  00
076B4:  MOVWF  FF8
076B6:  MOVLW  0D
076B8:  MOVWF  xD3
076BA:  MOVLB  0
076BC:  CALL   44BA
076C0:  MOVFF  3CF,3D1
076C4:  MOVLW  01
076C6:  MOVLB  3
076C8:  MOVWF  xD2
076CA:  MOVLB  0
076CC:  CALL   4518
076D0:  MOVLW  22
076D2:  BTFSS  F9E.4
076D4:  BRA    76D2
076D6:  MOVWF  FAD
....................          SendDataDisplay(); 
076D8:  CALL   3608
076DC:  MOVLB  3
....................     } 
.................... //_--------------------------------------------------------------------------------------------------------------------------------------------------------        
....................  
.................... //_-------------------------------------------------------------------------------------------------------------------------------------------------------- 
....................     if(Menu==3){ //Menu de Tiempo de Secado 
076DE:  MOVF   x37,W
076E0:  SUBLW  03
076E2:  BTFSS  FD8.2
076E4:  BRA    7B86
....................       printf("fecha.txt=\"Fecha:%02u/%02u/20%02u    Hora: %02u:%02u\"",Dia,Mes,Year,Hora,Minuto); 
076E6:  MOVLW  FC
076E8:  MOVWF  FF6
076EA:  MOVLW  09
076EC:  MOVWF  FF7
076EE:  MOVLW  00
076F0:  MOVWF  FF8
076F2:  MOVLW  11
076F4:  MOVWF  xD3
076F6:  MOVLB  0
076F8:  CALL   44BA
076FC:  MOVFF  377,3D1
07700:  MOVLW  01
07702:  MOVLB  3
07704:  MOVWF  xD2
07706:  MOVLB  0
07708:  CALL   4518
0770C:  MOVLW  2F
0770E:  BTFSS  F9E.4
07710:  BRA    770E
07712:  MOVWF  FAD
07714:  MOVFF  376,3D1
07718:  MOVLW  01
0771A:  MOVLB  3
0771C:  MOVWF  xD2
0771E:  MOVLB  0
07720:  CALL   4518
07724:  MOVLW  2F
07726:  BTFSS  F9E.4
07728:  BRA    7726
0772A:  MOVWF  FAD
0772C:  MOVLW  32
0772E:  BTFSS  F9E.4
07730:  BRA    772E
07732:  MOVWF  FAD
07734:  MOVLW  30
07736:  BTFSS  F9E.4
07738:  BRA    7736
0773A:  MOVWF  FAD
0773C:  MOVFF  375,3D1
07740:  MOVLW  01
07742:  MOVLB  3
07744:  MOVWF  xD2
07746:  MOVLB  0
07748:  CALL   4518
0774C:  MOVLW  1D
0774E:  MOVWF  FF6
07750:  MOVLW  0A
07752:  MOVWF  FF7
07754:  MOVLW  00
07756:  MOVWF  FF8
07758:  MOVLW  0A
0775A:  MOVLB  3
0775C:  MOVWF  xD3
0775E:  MOVLB  0
07760:  CALL   44BA
07764:  MOVFF  378,3D1
07768:  MOVLW  01
0776A:  MOVLB  3
0776C:  MOVWF  xD2
0776E:  MOVLB  0
07770:  CALL   4518
07774:  MOVLW  3A
07776:  BTFSS  F9E.4
07778:  BRA    7776
0777A:  MOVWF  FAD
0777C:  MOVFF  379,3D1
07780:  MOVLW  01
07782:  MOVLB  3
07784:  MOVWF  xD2
07786:  MOVLB  0
07788:  CALL   4518
0778C:  MOVLW  22
0778E:  BTFSS  F9E.4
07790:  BRA    778E
07792:  MOVWF  FAD
....................       SendDataDisplay();             
07794:  CALL   3608
....................              
....................          if(RX_Buffer[4]==0x0a){//Selecciono Minutos 
07798:  MOVF   34,W
0779A:  SUBLW  0A
0779C:  BNZ   77A2
....................             Minutos=ON; 
0779E:  BSF    xA2.2
....................             Segundos=OFF; 
077A0:  BCF    xA2.3
....................          } 
....................           
....................          if(RX_Buffer[4]==0x0b){//Selecciono Segundos 
077A2:  MOVF   34,W
077A4:  SUBLW  0B
077A6:  BNZ   77AC
....................             Segundos=ON; 
077A8:  BSF    xA2.3
....................             Minutos=OFF; 
077AA:  BCF    xA2.2
....................          } 
....................           
....................          if(RX_Buffer[4]==0x11 || LEFT){//Selecciono Regresar 
077AC:  MOVF   34,W
077AE:  SUBLW  11
077B0:  BZ    77B8
077B2:  BSF    F93.3
077B4:  BTFSC  F81.3
077B6:  BRA    791A
....................             Segundos=OFF; 
077B8:  BCF    xA2.3
....................             Minutos=OFF; 
077BA:  BCF    xA2.2
....................             printf("page CicloPersona"); 
077BC:  MOVLW  32
077BE:  MOVWF  FF6
077C0:  MOVLW  0A
077C2:  MOVWF  FF7
077C4:  MOVLW  00
077C6:  MOVWF  FF8
077C8:  CALL   35D6
....................             SendDataDisplay();   
077CC:  CALL   3608
....................             //PantallaPrincipal=1; 
....................             Op=OFF; 
077D0:  BCF    xA2.0
....................             Op2=OFF; 
077D2:  BCF    xA2.1
....................             if(!GuardaEEPROM){ 
077D4:  BTFSC  xA2.4
077D6:  BRA    791A
....................                CiclosPersonalizados[CicloLibre-1].Minutosec=Tsecadop[2]+(Tsecadop[3]*10); 
077D8:  MOVLW  01
077DA:  MOVLB  3
077DC:  SUBWF  x2B,W
077DE:  MULLW  0A
077E0:  MOVF   FF3,W
077E2:  CLRF   xD0
077E4:  MOVWF  xCF
077E6:  MOVLW  04
077E8:  ADDWF  xCF,W
077EA:  MOVWF  01
077EC:  MOVLW  00
077EE:  ADDWFC xD0,W
077F0:  MOVWF  03
077F2:  MOVF   01,W
077F4:  ADDLW  A7
077F6:  MOVWF  FE9
077F8:  MOVLW  03
077FA:  ADDWFC 03,W
077FC:  MOVWF  FEA
077FE:  MOVFF  C2,3D1
07802:  MOVLW  0A
07804:  MOVWF  xD2
07806:  MOVLB  0
07808:  CALL   2ADA
0780C:  MOVF   01,W
0780E:  ADDWF  xC1,W
07810:  MOVWF  FEF
....................                CiclosPersonalizados[CicloLibre-1].Segundosec=Tsecadop[0]+(Tsecadop[1]*10); 
07812:  MOVLW  01
07814:  MOVLB  3
07816:  SUBWF  x2B,W
07818:  MULLW  0A
0781A:  MOVF   FF3,W
0781C:  CLRF   xD0
0781E:  MOVWF  xCF
07820:  MOVLW  05
07822:  ADDWF  xCF,W
07824:  MOVWF  01
07826:  MOVLW  00
07828:  ADDWFC xD0,W
0782A:  MOVWF  03
0782C:  MOVF   01,W
0782E:  ADDLW  A7
07830:  MOVWF  FE9
07832:  MOVLW  03
07834:  ADDWFC 03,W
07836:  MOVWF  FEA
07838:  MOVFF  C0,3D1
0783C:  MOVLW  0A
0783E:  MOVWF  xD2
07840:  MOVLB  0
07842:  CALL   2ADA
07846:  MOVF   01,W
07848:  ADDWF  xBF,W
0784A:  MOVWF  FEF
....................                write_eeprom(104+((CicloLibre-1)*8),Tsecadop[2]+(Tsecadop[3]*10)); 
0784C:  MOVLW  01
0784E:  MOVLB  3
07850:  SUBWF  x2B,W
07852:  MULLW  08
07854:  MOVF   FF3,W
07856:  ADDLW  68
07858:  MOVWF  xCF
0785A:  MOVFF  C2,3D1
0785E:  MOVLW  0A
07860:  MOVWF  xD2
07862:  MOVLB  0
07864:  CALL   2ADA
07868:  MOVF   01,W
0786A:  ADDWF  xC1,W
0786C:  MOVLB  3
0786E:  MOVWF  xD0
07870:  CLRF   FAA
07872:  MOVFF  3CF,FA9
07876:  MOVFF  3D0,FA8
0787A:  BCF    FA6.6
0787C:  BCF    FA6.7
0787E:  BSF    FA6.2
07880:  MOVF   FF2,W
07882:  MOVWF  00
07884:  BCF    FF2.6
07886:  BCF    FF2.7
07888:  MOVLB  F
0788A:  MOVLW  55
0788C:  MOVWF  FA7
0788E:  MOVLW  AA
07890:  MOVWF  FA7
07892:  BSF    FA6.1
07894:  BTFSC  FA6.1
07896:  BRA    7894
07898:  BCF    FA6.2
0789A:  MOVF   00,W
0789C:  IORWF  FF2,F
....................                delay_ms(10); 
0789E:  MOVLW  0A
078A0:  MOVLB  3
078A2:  MOVWF  xE4
078A4:  MOVLB  0
078A6:  CALL   1806
....................                write_eeprom(105+((CicloLibre-1)*8),Tsecadop[0]+(Tsecadop[1]*10)); 
078AA:  MOVLW  01
078AC:  MOVLB  3
078AE:  SUBWF  x2B,W
078B0:  MULLW  08
078B2:  MOVF   FF3,W
078B4:  ADDLW  69
078B6:  MOVWF  xCF
078B8:  MOVFF  C0,3D1
078BC:  MOVLW  0A
078BE:  MOVWF  xD2
078C0:  MOVLB  0
078C2:  CALL   2ADA
078C6:  MOVF   01,W
078C8:  ADDWF  xBF,W
078CA:  MOVLB  3
078CC:  MOVWF  xD0
078CE:  CLRF   FAA
078D0:  MOVFF  3CF,FA9
078D4:  MOVFF  3D0,FA8
078D8:  BCF    FA6.6
078DA:  BCF    FA6.7
078DC:  BSF    FA6.2
078DE:  MOVF   FF2,W
078E0:  MOVWF  00
078E2:  BCF    FF2.6
078E4:  BCF    FF2.7
078E6:  MOVLB  F
078E8:  MOVLW  55
078EA:  MOVWF  FA7
078EC:  MOVLW  AA
078EE:  MOVWF  FA7
078F0:  BSF    FA6.1
078F2:  BTFSC  FA6.1
078F4:  BRA    78F2
078F6:  BCF    FA6.2
078F8:  MOVF   00,W
078FA:  IORWF  FF2,F
....................                delay_ms(10); 
078FC:  MOVLW  0A
078FE:  MOVLB  3
07900:  MOVWF  xE4
07902:  MOVLB  0
07904:  CALL   1806
....................                Tsecado[0]=Tsecadop[0]; 
07908:  MOVFF  BF,BB
....................                Tsecado[1]=Tsecadop[1]; 
0790C:  MOVFF  C0,BC
....................                Tsecado[2]=Tsecadop[2]; 
07910:  MOVFF  C1,BD
....................                Tsecado[3]=Tsecadop[3]; 
07914:  MOVFF  C2,BE
....................                GuardaEEPROM=ON; 
07918:  BSF    xA2.4
....................             } 
....................          } 
....................           
....................          if(RIGHT){ 
0791A:  BSF    F93.2
0791C:  BTFSC  F81.2
0791E:  BRA    7994
....................             delay_ms(100); 
07920:  MOVLW  64
07922:  MOVLB  3
07924:  MOVWF  xE4
07926:  MOVLB  0
07928:  CALL   1806
....................             if(RIGHT){ 
0792C:  BSF    F93.2
0792E:  BTFSC  F81.2
07930:  BRA    7994
....................                if(!Segundos){ 
07932:  BTFSC  xA2.3
07934:  BRA    7964
....................                   Segundos=ON; 
07936:  BSF    xA2.3
....................                   Minutos=OFF; 
07938:  BCF    xA2.2
....................                   printf("tminsec.pco=0"); 
0793A:  MOVLW  44
0793C:  MOVWF  FF6
0793E:  MOVLW  0A
07940:  MOVWF  FF7
07942:  MOVLW  00
07944:  MOVWF  FF8
07946:  CALL   35D6
....................                   SendDataDisplay();                    
0794A:  CALL   3608
....................                   printf("tsecsec.pco=65535"); 
0794E:  MOVLW  52
07950:  MOVWF  FF6
07952:  MOVLW  0A
07954:  MOVWF  FF7
07956:  MOVLW  00
07958:  MOVWF  FF8
0795A:  CALL   35D6
....................                   SendDataDisplay();   
0795E:  CALL   3608
....................                }else if(!Minutos){ 
07962:  BRA    7994
07964:  BTFSC  xA2.2
07966:  BRA    7994
....................                   Segundos=OFF; 
07968:  BCF    xA2.3
....................                   Minutos=ON; 
0796A:  BSF    xA2.2
....................                   printf("tminsec.pco=65535"); 
0796C:  MOVLW  64
0796E:  MOVWF  FF6
07970:  MOVLW  0A
07972:  MOVWF  FF7
07974:  MOVLW  00
07976:  MOVWF  FF8
07978:  CALL   35D6
....................                   SendDataDisplay();   
0797C:  CALL   3608
....................                   printf("tsecsec.pco=0"); 
07980:  MOVLW  76
07982:  MOVWF  FF6
07984:  MOVLW  0A
07986:  MOVWF  FF7
07988:  MOVLW  00
0798A:  MOVWF  FF8
0798C:  CALL   35D6
....................                   SendDataDisplay();   
07990:  CALL   3608
....................                } 
....................             } 
....................          } 
....................           
....................          if(UP){ 
07994:  BSF    F93.0
07996:  BTFSC  F81.0
07998:  BRA    79D4
....................             delay_ms(100); 
0799A:  MOVLW  64
0799C:  MOVLB  3
0799E:  MOVWF  xE4
079A0:  MOVLB  0
079A2:  CALL   1806
....................             if(UP){ 
079A6:  BSF    F93.0
079A8:  BTFSC  F81.0
079AA:  BRA    79D4
....................                if(Segundos){ 
079AC:  BTFSS  xA2.3
079AE:  BRA    79C0
....................                   Tsecadop[0]++; 
079B0:  INCF   xBF,F
....................                   if(Tsecadop[0]>9){ 
079B2:  BTFSC  xBF.7
079B4:  BRA    79C0
079B6:  MOVF   xBF,W
079B8:  SUBLW  09
079BA:  BC    79C0
....................                      Tsecadop[1]++; 
079BC:  INCF   xC0,F
....................                      Tsecadop[0]=0; 
079BE:  CLRF   xBF
....................                   } 
....................                } 
....................                if(Minutos){ 
079C0:  BTFSS  xA2.2
079C2:  BRA    79D4
....................                   Tsecado[2]++; 
079C4:  INCF   xBD,F
....................                   if(Tsecadop[2]>9){ 
079C6:  BTFSC  xC1.7
079C8:  BRA    79D4
079CA:  MOVF   xC1,W
079CC:  SUBLW  09
079CE:  BC    79D4
....................                      Tsecadop[3]++; 
079D0:  INCF   xC2,F
....................                      Tsecadop[2]=0; 
079D2:  CLRF   xC1
....................                   } 
....................                }   
....................             } 
....................          } 
....................           
....................          if(DOWN){ 
079D4:  BSF    F93.1
079D6:  BTFSC  F81.1
079D8:  BRA    7A1E
....................             delay_ms(100); 
079DA:  MOVLW  64
079DC:  MOVLB  3
079DE:  MOVWF  xE4
079E0:  MOVLB  0
079E2:  CALL   1806
....................             if(DOWN){ 
079E6:  BSF    F93.1
079E8:  BTFSC  F81.1
079EA:  BRA    7A1E
....................                if(Segundos){ 
079EC:  BTFSS  xA2.3
079EE:  BRA    7A0C
....................                   Tsecadop[0]--; 
079F0:  DECF   xBF,F
....................                   if(Tsecadop[0]<0){ 
079F2:  BTFSC  xBF.7
079F4:  BRA    79F8
079F6:  BRA    79FE
....................                      Tsecadop[1]--; 
079F8:  DECF   xC0,F
....................                      Tsecadop[0]=9; 
079FA:  MOVLW  09
079FC:  MOVWF  xBF
....................                   } 
....................                   if(Tsecadop[1]<0){ 
079FE:  BTFSC  xC0.7
07A00:  BRA    7A04
07A02:  BRA    7A0C
....................                      Tsecadop[1]=5; 
07A04:  MOVLW  05
07A06:  MOVWF  xC0
....................                      Tsecadop[0]=9; 
07A08:  MOVLW  09
07A0A:  MOVWF  xBF
....................                   } 
....................                } 
....................                if(Minutos){ 
07A0C:  BTFSS  xA2.2
07A0E:  BRA    7A1E
....................                   Tsecadop[2]--; 
07A10:  DECF   xC1,F
....................                   if(Tsecadop[2]<0){ 
07A12:  BTFSC  xC1.7
07A14:  BRA    7A18
07A16:  BRA    7A1E
....................                      Tsecadop[3]--; 
07A18:  DECF   xC2,F
....................                      Tsecadop[2]=9; 
07A1A:  MOVLW  09
07A1C:  MOVWF  xC1
....................                   } 
....................                }   
....................             } 
....................          } 
....................           
....................          if(RX_Buffer[4]==0x0c || RX_Buffer[4]==0x0d){//Tecla Derecha Oprimida 
07A1E:  MOVF   34,W
07A20:  SUBLW  0C
07A22:  BZ    7A2A
07A24:  MOVF   34,W
07A26:  SUBLW  0D
07A28:  BNZ   7A56
....................             if(Segundos){ 
07A2A:  BTFSS  xA2.3
07A2C:  BRA    7A3E
....................                Tsecadop[0]++; 
07A2E:  INCF   xBF,F
....................                if(Tsecadop[0]>9){ 
07A30:  BTFSC  xBF.7
07A32:  BRA    7A3E
07A34:  MOVF   xBF,W
07A36:  SUBLW  09
07A38:  BC    7A3E
....................                   Tsecadop[1]++; 
07A3A:  INCF   xC0,F
....................                   Tsecadop[0]=0; 
07A3C:  CLRF   xBF
....................                } 
....................             } 
....................             if(Minutos){ 
07A3E:  BTFSS  xA2.2
07A40:  BRA    7A52
....................                Tsecadop[2]++; 
07A42:  INCF   xC1,F
....................                if(Tsecadop[2]>9){ 
07A44:  BTFSC  xC1.7
07A46:  BRA    7A52
07A48:  MOVF   xC1,W
07A4A:  SUBLW  09
07A4C:  BC    7A52
....................                   Tsecadop[3]++; 
07A4E:  INCF   xC2,F
....................                   Tsecadop[2]=0; 
07A50:  CLRF   xC1
....................                } 
....................             } 
....................             RX_Buffer[4]=0x00;   
07A52:  CLRF   34
....................             RX_Buffer2[4]=0x00;  
07A54:  CLRF   3F
....................          } 
....................           
....................          if(RX_Buffer[4]==0x0f || RX_Buffer[4]==0x0e){//Tecla Izquierda Oprimida 
07A56:  MOVF   34,W
07A58:  SUBLW  0F
07A5A:  BZ    7A62
07A5C:  MOVF   34,W
07A5E:  SUBLW  0E
07A60:  BNZ   7A98
....................             if(Segundos){ 
07A62:  BTFSS  xA2.3
07A64:  BRA    7A82
....................                Tsecadop[0]--; 
07A66:  DECF   xBF,F
....................                if(Tsecadop[0]<0){ 
07A68:  BTFSC  xBF.7
07A6A:  BRA    7A6E
07A6C:  BRA    7A74
....................                   Tsecadop[1]--; 
07A6E:  DECF   xC0,F
....................                   Tsecadop[0]=9; 
07A70:  MOVLW  09
07A72:  MOVWF  xBF
....................                } 
....................                if(Tsecadop[1]<0){ 
07A74:  BTFSC  xC0.7
07A76:  BRA    7A7A
07A78:  BRA    7A82
....................                   Tsecadop[1]=5; 
07A7A:  MOVLW  05
07A7C:  MOVWF  xC0
....................                   Tsecadop[0]=9; 
07A7E:  MOVLW  09
07A80:  MOVWF  xBF
....................                } 
....................             } 
....................             if(Minutos){ 
07A82:  BTFSS  xA2.2
07A84:  BRA    7A94
....................                Tsecadop[2]--; 
07A86:  DECF   xC1,F
....................                if(Tsecadop[2]<0){ 
07A88:  BTFSC  xC1.7
07A8A:  BRA    7A8E
07A8C:  BRA    7A94
....................                   Tsecadop[3]--; 
07A8E:  DECF   xC2,F
....................                   Tsecadop[2]=9; 
07A90:  MOVLW  09
07A92:  MOVWF  xC1
....................                } 
....................             } 
....................             RX_Buffer[4]=0x00;   
07A94:  CLRF   34
....................             RX_Buffer2[4]=0x00;             
07A96:  CLRF   3F
....................          } 
....................        
....................          if(Tsecadop[0]<0) 
07A98:  BTFSC  xBF.7
07A9A:  BRA    7A9E
07A9C:  BRA    7AA2
....................             Tsecadop[0]=9;             
07A9E:  MOVLW  09
07AA0:  MOVWF  xBF
....................          if(Tsecadop[1]<0) 
07AA2:  BTFSC  xC0.7
07AA4:  BRA    7AA8
07AA6:  BRA    7AAC
....................             Tsecadop[1]=5;             
07AA8:  MOVLW  05
07AAA:  MOVWF  xC0
....................          if(Tsecadop[2]<0) 
07AAC:  BTFSC  xC1.7
07AAE:  BRA    7AB2
07AB0:  BRA    7AB6
....................             Tsecadop[2]=9;             
07AB2:  MOVLW  09
07AB4:  MOVWF  xC1
....................          if(Tsecadop[3]<0) 
07AB6:  BTFSC  xC2.7
07AB8:  BRA    7ABC
07ABA:  BRA    7AC0
....................             Tsecadop[3]=9;             
07ABC:  MOVLW  09
07ABE:  MOVWF  xC2
....................           
....................          if(Tsecadop[0]>9) 
07AC0:  BTFSC  xBF.7
07AC2:  BRA    7ACC
07AC4:  MOVF   xBF,W
07AC6:  SUBLW  09
07AC8:  BC    7ACC
....................             Tsecadop[0]=0;             
07ACA:  CLRF   xBF
....................          if(Tsecadop[1]>5) 
07ACC:  BTFSC  xC0.7
07ACE:  BRA    7AD8
07AD0:  MOVF   xC0,W
07AD2:  SUBLW  05
07AD4:  BC    7AD8
....................             Tsecadop[1]=0;             
07AD6:  CLRF   xC0
....................          if(Tsecadop[2]>9) 
07AD8:  BTFSC  xC1.7
07ADA:  BRA    7AE4
07ADC:  MOVF   xC1,W
07ADE:  SUBLW  09
07AE0:  BC    7AE4
....................             Tsecadop[2]=0;             
07AE2:  CLRF   xC1
....................          if(Tsecadop[3]>9) 
07AE4:  BTFSC  xC2.7
07AE6:  BRA    7AF0
07AE8:  MOVF   xC2,W
07AEA:  SUBLW  09
07AEC:  BC    7AF0
....................             Tsecadop[3]=0; 
07AEE:  CLRF   xC2
....................              
....................       printf("tminsec.txt=\"%02u\"",((Tsecadop[3]*10)+Tsecadop[2])); 
07AF0:  MOVFF  C2,3D1
07AF4:  MOVLW  0A
07AF6:  MOVLB  3
07AF8:  MOVWF  xD2
07AFA:  MOVLB  0
07AFC:  CALL   2ADA
07B00:  MOVF   xC1,W
07B02:  ADDWF  01,W
07B04:  MOVLB  3
07B06:  MOVWF  xCF
07B08:  MOVLW  84
07B0A:  MOVWF  FF6
07B0C:  MOVLW  0A
07B0E:  MOVWF  FF7
07B10:  MOVLW  00
07B12:  MOVWF  FF8
07B14:  MOVLW  0D
07B16:  MOVWF  xD3
07B18:  MOVLB  0
07B1A:  CALL   44BA
07B1E:  MOVFF  3CF,3D1
07B22:  MOVLW  01
07B24:  MOVLB  3
07B26:  MOVWF  xD2
07B28:  MOVLB  0
07B2A:  CALL   4518
07B2E:  MOVLW  22
07B30:  BTFSS  F9E.4
07B32:  BRA    7B30
07B34:  MOVWF  FAD
....................       SendDataDisplay(); 
07B36:  CALL   3608
....................       printf("tsecsec.txt=\"%02u\"",((Tsecadop[1]*10)+Tsecadop[0])); 
07B3A:  MOVFF  C0,3D1
07B3E:  MOVLW  0A
07B40:  MOVLB  3
07B42:  MOVWF  xD2
07B44:  MOVLB  0
07B46:  CALL   2ADA
07B4A:  MOVF   xBF,W
07B4C:  ADDWF  01,W
07B4E:  MOVLB  3
07B50:  MOVWF  xCF
07B52:  MOVLW  98
07B54:  MOVWF  FF6
07B56:  MOVLW  0A
07B58:  MOVWF  FF7
07B5A:  MOVLW  00
07B5C:  MOVWF  FF8
07B5E:  MOVLW  0D
07B60:  MOVWF  xD3
07B62:  MOVLB  0
07B64:  CALL   44BA
07B68:  MOVFF  3CF,3D1
07B6C:  MOVLW  01
07B6E:  MOVLB  3
07B70:  MOVWF  xD2
07B72:  MOVLB  0
07B74:  CALL   4518
07B78:  MOVLW  22
07B7A:  BTFSS  F9E.4
07B7C:  BRA    7B7A
07B7E:  MOVWF  FAD
....................       SendDataDisplay(); 
07B80:  CALL   3608
07B84:  MOVLB  3
....................     } 
.................... //_--------------------------------------------------------------------------------------------------------------------------------------------------------        
....................  
.................... //_-------------------------------------------------------------------------------------------------------------------------------------------------------- 
....................     if(Menu==4){ //Menu de Temperatura 
07B86:  MOVF   x37,W
07B88:  SUBLW  04
07B8A:  BTFSS  FD8.2
07B8C:  BRA    7D84
....................       printf("fecha.txt=\"Fecha:%02u/%02u/20%02u    Hora: %02u:%02u\"",Dia,Mes,Year,Hora,Minuto); 
07B8E:  MOVLW  AC
07B90:  MOVWF  FF6
07B92:  MOVLW  0A
07B94:  MOVWF  FF7
07B96:  MOVLW  00
07B98:  MOVWF  FF8
07B9A:  MOVLW  11
07B9C:  MOVWF  xD3
07B9E:  MOVLB  0
07BA0:  CALL   44BA
07BA4:  MOVFF  377,3D1
07BA8:  MOVLW  01
07BAA:  MOVLB  3
07BAC:  MOVWF  xD2
07BAE:  MOVLB  0
07BB0:  CALL   4518
07BB4:  MOVLW  2F
07BB6:  BTFSS  F9E.4
07BB8:  BRA    7BB6
07BBA:  MOVWF  FAD
07BBC:  MOVFF  376,3D1
07BC0:  MOVLW  01
07BC2:  MOVLB  3
07BC4:  MOVWF  xD2
07BC6:  MOVLB  0
07BC8:  CALL   4518
07BCC:  MOVLW  2F
07BCE:  BTFSS  F9E.4
07BD0:  BRA    7BCE
07BD2:  MOVWF  FAD
07BD4:  MOVLW  32
07BD6:  BTFSS  F9E.4
07BD8:  BRA    7BD6
07BDA:  MOVWF  FAD
07BDC:  MOVLW  30
07BDE:  BTFSS  F9E.4
07BE0:  BRA    7BDE
07BE2:  MOVWF  FAD
07BE4:  MOVFF  375,3D1
07BE8:  MOVLW  01
07BEA:  MOVLB  3
07BEC:  MOVWF  xD2
07BEE:  MOVLB  0
07BF0:  CALL   4518
07BF4:  MOVLW  CD
07BF6:  MOVWF  FF6
07BF8:  MOVLW  0A
07BFA:  MOVWF  FF7
07BFC:  MOVLW  00
07BFE:  MOVWF  FF8
07C00:  MOVLW  0A
07C02:  MOVLB  3
07C04:  MOVWF  xD3
07C06:  MOVLB  0
07C08:  CALL   44BA
07C0C:  MOVFF  378,3D1
07C10:  MOVLW  01
07C12:  MOVLB  3
07C14:  MOVWF  xD2
07C16:  MOVLB  0
07C18:  CALL   4518
07C1C:  MOVLW  3A
07C1E:  BTFSS  F9E.4
07C20:  BRA    7C1E
07C22:  MOVWF  FAD
07C24:  MOVFF  379,3D1
07C28:  MOVLW  01
07C2A:  MOVLB  3
07C2C:  MOVWF  xD2
07C2E:  MOVLB  0
07C30:  CALL   4518
07C34:  MOVLW  22
07C36:  BTFSS  F9E.4
07C38:  BRA    7C36
07C3A:  MOVWF  FAD
....................       SendDataDisplay(); 
07C3C:  CALL   3608
....................          if(Setpoint<105) 
07C40:  MOVLB  3
07C42:  MOVF   x3E,W
07C44:  SUBLW  68
07C46:  BNC   7C4C
....................             Setpoint=134; 
07C48:  MOVLW  86
07C4A:  MOVWF  x3E
....................          if(Setpoint>134) 
07C4C:  MOVF   x3E,W
07C4E:  SUBLW  86
07C50:  BC    7C56
....................             Setpoint=105; 
07C52:  MOVLW  69
07C54:  MOVWF  x3E
....................           
....................          if(RX_Buffer[4]==0x11 || LEFT){//Selecciono Regresar 
07C56:  MOVF   34,W
07C58:  SUBLW  11
07C5A:  BZ    7C62
07C5C:  BSF    F93.3
07C5E:  BTFSC  F81.3
07C60:  BRA    7CF4
....................             Segundos=OFF; 
07C62:  MOVLB  0
07C64:  BCF    xA2.3
....................             Minutos=OFF; 
07C66:  BCF    xA2.2
....................             printf("page CicloPersona"); 
07C68:  MOVLW  E2
07C6A:  MOVWF  FF6
07C6C:  MOVLW  0A
07C6E:  MOVWF  FF7
07C70:  MOVLW  00
07C72:  MOVWF  FF8
07C74:  CALL   35D6
....................             SendDataDisplay();   
07C78:  CALL   3608
....................             PantallaPrincipal=1; 
07C7C:  MOVLW  01
07C7E:  MOVLB  2
07C80:  MOVWF  xD1
....................             Op=OFF; 
07C82:  MOVLB  0
07C84:  BCF    xA2.0
....................             Op2=OFF; 
07C86:  BCF    xA2.1
....................             if(!GuardaEEPROM){ 
07C88:  BTFSC  xA2.4
07C8A:  BRA    7CF2
....................                CiclosPersonalizados[CicloLibre-1].Temperatura=Setpoint; 
07C8C:  MOVLW  01
07C8E:  MOVLB  3
07C90:  SUBWF  x2B,W
07C92:  MULLW  0A
07C94:  MOVF   FF3,W
07C96:  CLRF   xD0
07C98:  MOVWF  xCF
07C9A:  MOVLW  A7
07C9C:  ADDWF  xCF,W
07C9E:  MOVWF  FE9
07CA0:  MOVLW  03
07CA2:  ADDWFC xD0,W
07CA4:  MOVWF  FEA
07CA6:  MOVFF  33E,FEF
....................                write_eeprom(100+((CicloLibre-1)*8),Setpoint); 
07CAA:  MOVLW  01
07CAC:  SUBWF  x2B,W
07CAE:  MULLW  08
07CB0:  MOVF   FF3,W
07CB2:  ADDLW  64
07CB4:  MOVWF  xCF
07CB6:  CLRF   FAA
07CB8:  MOVFF  3CF,FA9
07CBC:  MOVFF  33E,FA8
07CC0:  BCF    FA6.6
07CC2:  BCF    FA6.7
07CC4:  BSF    FA6.2
07CC6:  MOVF   FF2,W
07CC8:  MOVWF  00
07CCA:  BCF    FF2.6
07CCC:  BCF    FF2.7
07CCE:  MOVLB  F
07CD0:  MOVLW  55
07CD2:  MOVWF  FA7
07CD4:  MOVLW  AA
07CD6:  MOVWF  FA7
07CD8:  BSF    FA6.1
07CDA:  BTFSC  FA6.1
07CDC:  BRA    7CDA
07CDE:  BCF    FA6.2
07CE0:  MOVF   00,W
07CE2:  IORWF  FF2,F
....................                delay_ms(10); 
07CE4:  MOVLW  0A
07CE6:  MOVLB  3
07CE8:  MOVWF  xE4
07CEA:  MOVLB  0
07CEC:  CALL   1806
....................                GuardaEEPROM=ON; 
07CF0:  BSF    xA2.4
07CF2:  MOVLB  3
....................             } 
....................          } 
....................           
....................          if(UP){ 
07CF4:  BSF    F93.0
07CF6:  BTFSC  F81.0
07CF8:  BRA    7D0E
....................             delay_ms(100); 
07CFA:  MOVLW  64
07CFC:  MOVWF  xE4
07CFE:  MOVLB  0
07D00:  CALL   1806
....................             if(UP){ 
07D04:  BSF    F93.0
07D06:  BTFSC  F81.0
07D08:  BRA    7D10
....................                Setpoint++; 
07D0A:  MOVLB  3
07D0C:  INCF   x3E,F
07D0E:  MOVLB  0
....................             } 
....................          } 
....................           
....................          if(DOWN){ 
07D10:  BSF    F93.1
07D12:  BTFSC  F81.1
07D14:  BRA    7D2E
....................             delay_ms(100); 
07D16:  MOVLW  64
07D18:  MOVLB  3
07D1A:  MOVWF  xE4
07D1C:  MOVLB  0
07D1E:  CALL   1806
....................             if(DOWN){ 
07D22:  BSF    F93.1
07D24:  BTFSC  F81.1
07D26:  BRA    7D2E
....................                Setpoint--; 
07D28:  MOVLB  3
07D2A:  DECF   x3E,F
07D2C:  MOVLB  0
....................             } 
....................          } 
....................           
....................          if(RX_Buffer[4]==0x0d){//Tecla Arriba Oprimida 
07D2E:  MOVF   34,W
07D30:  SUBLW  0D
07D32:  BNZ   7D3E
....................             Setpoint++; 
07D34:  MOVLB  3
07D36:  INCF   x3E,F
....................             RX_Buffer[4]=0x00;   
07D38:  CLRF   34
....................             RX_Buffer2[4]=0x00;             
07D3A:  CLRF   3F
07D3C:  MOVLB  0
....................             //BorraBuffer(); 
....................          } 
....................           
....................          if(RX_Buffer[4]==0x0c){//Tecla Abajo Oprimida 
07D3E:  MOVF   34,W
07D40:  SUBLW  0C
07D42:  BNZ   7D4E
....................             Setpoint--; 
07D44:  MOVLB  3
07D46:  DECF   x3E,F
....................             RX_Buffer[4]=0x00; 
07D48:  CLRF   34
....................             RX_Buffer2[4]=0x00;             
07D4A:  CLRF   3F
07D4C:  MOVLB  0
....................             //BorraBuffer(); 
....................          } 
....................           
....................       printf("tsettem.txt=\"%03u\"",Setpoint); 
07D4E:  MOVLW  F4
07D50:  MOVWF  FF6
07D52:  MOVLW  0A
07D54:  MOVWF  FF7
07D56:  MOVLW  00
07D58:  MOVWF  FF8
07D5A:  MOVLW  0D
07D5C:  MOVLB  3
07D5E:  MOVWF  xD3
07D60:  MOVLB  0
07D62:  CALL   44BA
07D66:  MOVFF  33E,3D1
07D6A:  MOVLW  03
07D6C:  MOVLB  3
07D6E:  MOVWF  xD2
07D70:  MOVLB  0
07D72:  CALL   4518
07D76:  MOVLW  22
07D78:  BTFSS  F9E.4
07D7A:  BRA    7D78
07D7C:  MOVWF  FAD
....................       SendDataDisplay(); 
07D7E:  CALL   3608
07D82:  MOVLB  3
....................     } 
.................... //_--------------------------------------------------------------------------------------------------------------------------------------------------------        
....................  
.................... //_--------------------------------------------------------------------------------------------------------------------------------------------------------       
....................    if(Menu==5){//Menu de Nivel 
07D84:  MOVF   x37,W
07D86:  SUBLW  05
07D88:  BTFSS  FD8.2
07D8A:  BRA    8004
....................       printf("fecha.txt=\"Fecha:%02u/%02u/20%02u    Hora: %02u:%02u\"",Dia,Mes,Year,Hora,Minuto); 
07D8C:  MOVLW  08
07D8E:  MOVWF  FF6
07D90:  MOVLW  0B
07D92:  MOVWF  FF7
07D94:  MOVLW  00
07D96:  MOVWF  FF8
07D98:  MOVLW  11
07D9A:  MOVWF  xD3
07D9C:  MOVLB  0
07D9E:  CALL   44BA
07DA2:  MOVFF  377,3D1
07DA6:  MOVLW  01
07DA8:  MOVLB  3
07DAA:  MOVWF  xD2
07DAC:  MOVLB  0
07DAE:  CALL   4518
07DB2:  MOVLW  2F
07DB4:  BTFSS  F9E.4
07DB6:  BRA    7DB4
07DB8:  MOVWF  FAD
07DBA:  MOVFF  376,3D1
07DBE:  MOVLW  01
07DC0:  MOVLB  3
07DC2:  MOVWF  xD2
07DC4:  MOVLB  0
07DC6:  CALL   4518
07DCA:  MOVLW  2F
07DCC:  BTFSS  F9E.4
07DCE:  BRA    7DCC
07DD0:  MOVWF  FAD
07DD2:  MOVLW  32
07DD4:  BTFSS  F9E.4
07DD6:  BRA    7DD4
07DD8:  MOVWF  FAD
07DDA:  MOVLW  30
07DDC:  BTFSS  F9E.4
07DDE:  BRA    7DDC
07DE0:  MOVWF  FAD
07DE2:  MOVFF  375,3D1
07DE6:  MOVLW  01
07DE8:  MOVLB  3
07DEA:  MOVWF  xD2
07DEC:  MOVLB  0
07DEE:  CALL   4518
07DF2:  MOVLW  29
07DF4:  MOVWF  FF6
07DF6:  MOVLW  0B
07DF8:  MOVWF  FF7
07DFA:  MOVLW  00
07DFC:  MOVWF  FF8
07DFE:  MOVLW  0A
07E00:  MOVLB  3
07E02:  MOVWF  xD3
07E04:  MOVLB  0
07E06:  CALL   44BA
07E0A:  MOVFF  378,3D1
07E0E:  MOVLW  01
07E10:  MOVLB  3
07E12:  MOVWF  xD2
07E14:  MOVLB  0
07E16:  CALL   4518
07E1A:  MOVLW  3A
07E1C:  BTFSS  F9E.4
07E1E:  BRA    7E1C
07E20:  MOVWF  FAD
07E22:  MOVFF  379,3D1
07E26:  MOVLW  01
07E28:  MOVLB  3
07E2A:  MOVWF  xD2
07E2C:  MOVLB  0
07E2E:  CALL   4518
07E32:  MOVLW  22
07E34:  BTFSS  F9E.4
07E36:  BRA    7E34
07E38:  MOVWF  FAD
....................       SendDataDisplay(); 
07E3A:  CALL   3608
....................          if(Nivel<1) 
07E3E:  MOVLB  3
07E40:  MOVF   x4C,F
07E42:  BNZ   7E4E
07E44:  MOVF   x4D,F
07E46:  BNZ   7E4E
....................             Nivel=6; 
07E48:  CLRF   x4D
07E4A:  MOVLW  06
07E4C:  MOVWF  x4C
....................          if(Nivel>6) 
07E4E:  MOVF   x4D,F
07E50:  BNZ   7E58
07E52:  MOVF   x4C,W
07E54:  SUBLW  06
07E56:  BC    7E5E
....................             Nivel=1; 
07E58:  CLRF   x4D
07E5A:  MOVLW  01
07E5C:  MOVWF  x4C
....................           
....................          if(RX_Buffer[4]==0x11 || LEFT){//Selecciono Regresar 
07E5E:  MOVF   34,W
07E60:  SUBLW  11
07E62:  BZ    7E6A
07E64:  BSF    F93.3
07E66:  BTFSC  F81.3
07E68:  BRA    7F60
....................             Segundos=OFF; 
07E6A:  MOVLB  0
07E6C:  BCF    xA2.3
....................             Minutos=OFF;             
07E6E:  BCF    xA2.2
....................             tiempo_secado=0; 
07E70:  MOVLB  3
07E72:  CLRF   x42
....................              
....................             if(!GuardaEEPROM){     
07E74:  MOVLB  0
07E76:  BTFSC  xA2.4
07E78:  BRA    7F0C
....................                CiclosPersonalizados[CicloLibre-1].NivelDesfogue=Nivel; 
07E7A:  MOVLW  01
07E7C:  MOVLB  3
07E7E:  SUBWF  x2B,W
07E80:  MULLW  0A
07E82:  MOVF   FF3,W
07E84:  CLRF   xD0
07E86:  MOVWF  xCF
07E88:  MOVLW  08
07E8A:  ADDWF  xCF,W
07E8C:  MOVWF  01
07E8E:  MOVLW  00
07E90:  ADDWFC xD0,W
07E92:  MOVWF  03
07E94:  MOVF   01,W
07E96:  ADDLW  A7
07E98:  MOVWF  FE9
07E9A:  MOVLW  03
07E9C:  ADDWFC 03,W
07E9E:  MOVWF  FEA
07EA0:  MOVFF  34C,FEF
....................                write_eeprom(107+((CicloLibre-1)*8),Nivel); 
07EA4:  MOVLW  01
07EA6:  SUBWF  x2B,W
07EA8:  MULLW  08
07EAA:  MOVF   FF3,W
07EAC:  ADDLW  6B
07EAE:  MOVWF  xCF
07EB0:  CLRF   FAA
07EB2:  MOVFF  3CF,FA9
07EB6:  MOVFF  34C,FA8
07EBA:  BCF    FA6.6
07EBC:  BCF    FA6.7
07EBE:  BSF    FA6.2
07EC0:  MOVF   FF2,W
07EC2:  MOVWF  00
07EC4:  BCF    FF2.6
07EC6:  BCF    FF2.7
07EC8:  MOVLB  F
07ECA:  MOVLW  55
07ECC:  MOVWF  FA7
07ECE:  MOVLW  AA
07ED0:  MOVWF  FA7
07ED2:  BSF    FA6.1
07ED4:  BTFSC  FA6.1
07ED6:  BRA    7ED4
07ED8:  BCF    FA6.2
07EDA:  MOVF   00,W
07EDC:  IORWF  FF2,F
....................                delay_ms(20);             
07EDE:  MOVLW  14
07EE0:  MOVLB  3
07EE2:  MOVWF  xE4
07EE4:  MOVLB  0
07EE6:  CALL   1806
....................                NivelSeleccionado=4995*Nivel; 
07EEA:  MOVLW  13
07EEC:  MOVLB  3
07EEE:  MOVWF  xD1
07EF0:  MOVLW  83
07EF2:  MOVWF  xD0
07EF4:  MOVFF  34D,3D3
07EF8:  MOVFF  34C,3D2
07EFC:  MOVLB  0
07EFE:  CALL   36B4
07F02:  MOVFF  02,357
07F06:  MOVFF  01,356
....................                GuardaEEPROM=ON; 
07F0A:  BSF    xA2.4
....................             } 
....................              
....................             if(Nivel<6) 
07F0C:  MOVLB  3
07F0E:  MOVF   x4D,F
07F10:  BNZ   7F1E
07F12:  MOVF   x4C,W
07F14:  SUBLW  05
07F16:  BNC   7F1E
....................                desfoguelento=1; 
07F18:  MOVLB  0
07F1A:  BSF    xA4.2
....................             else             
07F1C:  BRA    7F22
....................                desfoguelento=0; 
07F1E:  MOVLB  0
07F20:  BCF    xA4.2
....................  
....................             if(MenuAnt==1){ 
07F22:  MOVLB  3
07F24:  DECFSZ x38,W
07F26:  BRA    7F42
....................                //Buzzer_on; 
....................                printf("page CicloPersona"); 
07F28:  MOVLW  3E
07F2A:  MOVWF  FF6
07F2C:  MOVLW  0B
07F2E:  MOVWF  FF7
07F30:  MOVLW  00
07F32:  MOVWF  FF8
07F34:  MOVLB  0
07F36:  CALL   35D6
....................                SendDataDisplay();  
07F3A:  CALL   3608
....................                //PantallaPrincipal=1; 
....................             }else if(MenuAnt==2){ 
07F3E:  BRA    7F5E
07F40:  MOVLB  3
07F42:  MOVF   x38,W
07F44:  SUBLW  02
07F46:  BNZ   7F60
....................                printf("page Funcionamiento"); 
07F48:  MOVLW  50
07F4A:  MOVWF  FF6
07F4C:  MOVLW  0B
07F4E:  MOVWF  FF7
07F50:  MOVLW  00
07F52:  MOVWF  FF8
07F54:  MOVLB  0
07F56:  CALL   35D6
....................                SendDataDisplay();  
07F5A:  CALL   3608
07F5E:  MOVLB  3
....................                //if(Temperatura>60)TTrampa=TTrampa+5; 
....................             } 
....................          } 
....................           
....................          if(UP){ 
07F60:  BSF    F93.0
07F62:  BTFSC  F81.0
07F64:  BRA    7F7E
....................             delay_ms(100); 
07F66:  MOVLW  64
07F68:  MOVWF  xE4
07F6A:  MOVLB  0
07F6C:  CALL   1806
....................             if(UP){ 
07F70:  BSF    F93.0
07F72:  BTFSC  F81.0
07F74:  BRA    7F80
....................                Nivel++; 
07F76:  MOVLB  3
07F78:  INCF   x4C,F
07F7A:  BTFSC  FD8.2
07F7C:  INCF   x4D,F
07F7E:  MOVLB  0
....................             } 
....................          } 
....................           
....................          if(DOWN){ 
07F80:  BSF    F93.1
07F82:  BTFSC  F81.1
07F84:  BRA    7FA4
....................             delay_ms(100); 
07F86:  MOVLW  64
07F88:  MOVLB  3
07F8A:  MOVWF  xE4
07F8C:  MOVLB  0
07F8E:  CALL   1806
....................             if(DOWN){ 
07F92:  BSF    F93.1
07F94:  BTFSC  F81.1
07F96:  BRA    7FA4
....................                Nivel--; 
07F98:  MOVLB  3
07F9A:  MOVF   x4C,W
07F9C:  BTFSC  FD8.2
07F9E:  DECF   x4D,F
07FA0:  DECF   x4C,F
07FA2:  MOVLB  0
....................             } 
....................          } 
....................           
....................          if(RX_Buffer[4]==0x0d){//Tecla Arriba Oprimida 
07FA4:  MOVF   34,W
07FA6:  SUBLW  0D
07FA8:  BNZ   7FB8
....................             Nivel++; 
07FAA:  MOVLB  3
07FAC:  INCF   x4C,F
07FAE:  BTFSC  FD8.2
07FB0:  INCF   x4D,F
....................             RX_Buffer[4]=0x00;             
07FB2:  CLRF   34
....................             RX_Buffer2[4]=0x00;             
07FB4:  CLRF   3F
07FB6:  MOVLB  0
....................             //BorraBuffer(); 
....................          } 
....................           
....................          if(RX_Buffer[4]==0x0c){//Tecla Abajo Oprimida 
07FB8:  MOVF   34,W
07FBA:  SUBLW  0C
07FBC:  BNZ   7FCE
....................             Nivel--; 
07FBE:  MOVLB  3
07FC0:  MOVF   x4C,W
07FC2:  BTFSC  FD8.2
07FC4:  DECF   x4D,F
07FC6:  DECF   x4C,F
....................             RX_Buffer[4]=0x00; 
07FC8:  CLRF   34
....................             RX_Buffer2[4]=0x00;             
07FCA:  CLRF   3F
07FCC:  MOVLB  0
....................             //BorraBuffer(); 
....................          } 
....................           
....................       printf("tnivel.txt=\"%Lu\"",Nivel); 
07FCE:  MOVLW  64
07FD0:  MOVWF  FF6
07FD2:  MOVLW  0B
07FD4:  MOVWF  FF7
07FD6:  MOVLW  00
07FD8:  MOVWF  FF8
07FDA:  MOVLW  0C
07FDC:  MOVLB  3
07FDE:  MOVWF  xD3
07FE0:  MOVLB  0
07FE2:  CALL   44BA
07FE6:  MOVLW  10
07FE8:  MOVWF  FE9
07FEA:  MOVFF  34D,3D4
07FEE:  MOVFF  34C,3D3
07FF2:  CALL   4614
07FF6:  MOVLW  22
07FF8:  BTFSS  F9E.4
07FFA:  BRA    7FF8
07FFC:  MOVWF  FAD
....................       SendDataDisplay(); 
07FFE:  CALL   3608
08002:  MOVLB  3
....................    } 
.................... //_--------------------------------------------------------------------------------------------------------------------------------------------------------       
....................  
.................... //_--------------------------------------------------------------------------------------------------------------------------------------------------------       
....................       if(Menu==6){ // Menu de Prueba de Componentes 
08004:  MOVF   x37,W
08006:  SUBLW  06
08008:  BTFSS  FD8.2
0800A:  BRA    8752
....................          PruebaEstados=ON; 
0800C:  MOVLB  0
0800E:  BSF    xA1.2
....................           
....................          if(RX_Buffer[4]==0x02)//Oprimio EV Desfogue 
08010:  MOVF   34,W
08012:  SUBLW  02
08014:  BNZ   801C
....................          { 
....................             EstadoDesfogue=!EstadoDesfogue; 
08016:  BTG    xA0.7
....................             RX_Buffer[4]=0x00; 
08018:  CLRF   34
....................             RX_Buffer2[4]=0x00; 
0801A:  CLRF   3F
....................          } 
....................           
....................          if(EstadoDesfogue){ 
0801C:  BTFSS  xA0.7
0801E:  BRA    803A
....................             printf("b1.bco=2016"); 
08020:  MOVLW  76
08022:  MOVWF  FF6
08024:  MOVLW  0B
08026:  MOVWF  FF7
08028:  MOVLW  00
0802A:  MOVWF  FF8
0802C:  CALL   35D6
....................             SendDataDisplay();  
08030:  CALL   3608
....................             Desfogue_on; 
08034:  BSF    F8C.4
08036:  BCF    F95.4
....................          } 
....................          else{ 
08038:  BRA    8052
....................             printf("b1.bco=63488"); 
0803A:  MOVLW  82
0803C:  MOVWF  FF6
0803E:  MOVLW  0B
08040:  MOVWF  FF7
08042:  MOVLW  00
08044:  MOVWF  FF8
08046:  CALL   35D6
....................             SendDataDisplay();  
0804A:  CALL   3608
....................             Desfogue_off; 
0804E:  BCF    F8C.4
08050:  BCF    F95.4
....................          } 
....................           
....................          if(RX_Buffer[4]==0x01)//Oprimio EV Agua 
08052:  DECFSZ 34,W
08054:  BRA    805C
....................          { 
....................             EstadoAgua=!EstadoAgua; 
08056:  BTG    xA1.0
....................             RX_Buffer[4]=0x00; 
08058:  CLRF   34
....................             RX_Buffer2[4]=0x00; 
0805A:  CLRF   3F
....................          } 
....................           
....................          if(EstadoAgua){ 
0805C:  BTFSS  xA1.0
0805E:  BRA    807A
....................             printf("b0.bco=2016"); 
08060:  MOVLW  90
08062:  MOVWF  FF6
08064:  MOVLW  0B
08066:  MOVWF  FF7
08068:  MOVLW  00
0806A:  MOVWF  FF8
0806C:  CALL   35D6
....................             SendDataDisplay();  
08070:  CALL   3608
....................             Agua_on; 
08074:  BSF    F8C.5
08076:  BCF    F95.5
....................          } 
....................          else{ 
08078:  BRA    8092
....................             printf("b0.bco=63488"); 
0807A:  MOVLW  9C
0807C:  MOVWF  FF6
0807E:  MOVLW  0B
08080:  MOVWF  FF7
08082:  MOVLW  00
08084:  MOVWF  FF8
08086:  CALL   35D6
....................             SendDataDisplay();  
0808A:  CALL   3608
....................             Agua_off; 
0808E:  BCF    F8C.5
08090:  BCF    F95.5
....................          } 
....................           
....................          if(RX_Buffer[4]==0x03)//Oprimio EV Paso 
08092:  MOVF   34,W
08094:  SUBLW  03
08096:  BNZ   809E
....................          { 
....................             EstadoPaso=!EstadoPaso; 
08098:  BTG    xA2.5
....................             RX_Buffer[4]=0x00; 
0809A:  CLRF   34
....................             RX_Buffer2[4]=0x00; 
0809C:  CLRF   3F
....................          } 
....................           
....................          if(EstadoPaso){ 
0809E:  BTFSS  xA2.5
080A0:  BRA    80BC
....................             printf("b2.bco=2016"); 
080A2:  MOVLW  AA
080A4:  MOVWF  FF6
080A6:  MOVLW  0B
080A8:  MOVWF  FF7
080AA:  MOVLW  00
080AC:  MOVWF  FF8
080AE:  CALL   35D6
....................             SendDataDisplay();  
080B2:  CALL   3608
....................             Bomba_on; 
080B6:  BSF    F8C.6
080B8:  BCF    F95.6
....................          } 
....................          else{ 
080BA:  BRA    80D4
....................             printf("b2.bco=63488"); 
080BC:  MOVLW  B6
080BE:  MOVWF  FF6
080C0:  MOVLW  0B
080C2:  MOVWF  FF7
080C4:  MOVLW  00
080C6:  MOVWF  FF8
080C8:  CALL   35D6
....................             SendDataDisplay();  
080CC:  CALL   3608
....................             Bomba_off; 
080D0:  BCF    F8C.6
080D2:  BCF    F95.6
....................          } 
....................          
....................           
....................          if(RX_Buffer[4]==0x05)//Oprimio Bloqueo 
080D4:  MOVF   34,W
080D6:  SUBLW  05
080D8:  BNZ   80E0
....................          { 
....................             EstadoAire=!EstadoAire; 
080DA:  BTG    xA1.6
....................             RX_Buffer[4]=0x00; 
080DC:  CLRF   34
....................             RX_Buffer2[4]=0x00; 
080DE:  CLRF   3F
....................          } 
....................           
....................          if(EstadoAire){ 
080E0:  BTFSS  xA1.6
080E2:  BRA    80FC
....................             printf("b4.bco=2016"); 
080E4:  MOVLW  C4
080E6:  MOVWF  FF6
080E8:  MOVLW  0B
080EA:  MOVWF  FF7
080EC:  MOVLW  00
080EE:  MOVWF  FF8
080F0:  CALL   35D6
....................             SendDataDisplay();  
080F4:  CALL   3608
....................             Aire=ON;    
080F8:  BSF    xA3.7
....................          }else{ 
080FA:  BRA    8112
....................             printf("b4.bco=63488"); 
080FC:  MOVLW  D0
080FE:  MOVWF  FF6
08100:  MOVLW  0B
08102:  MOVWF  FF7
08104:  MOVLW  00
08106:  MOVWF  FF8
08108:  CALL   35D6
....................             SendDataDisplay();  
0810C:  CALL   3608
....................             Aire=OFF; 
08110:  BCF    xA3.7
....................          } 
....................           
....................           
....................          if(RX_Buffer[4]==0x04)//Oprimio SSR1 
08112:  MOVF   34,W
08114:  SUBLW  04
08116:  BNZ   811E
....................          { 
....................             EstadoSSR=!EstadoSSR; 
08118:  BTG    xA1.1
....................             RX_Buffer[4]=0x00; 
0811A:  CLRF   34
....................             RX_Buffer2[4]=0x00; 
0811C:  CLRF   3F
....................          } 
....................           
....................          if(EstadoSSR){ 
0811E:  BTFSS  xA1.1
08120:  BRA    813C
....................             printf("b3.bco=2016"); 
08122:  MOVLW  DE
08124:  MOVWF  FF6
08126:  MOVLW  0B
08128:  MOVWF  FF7
0812A:  MOVLW  00
0812C:  MOVWF  FF8
0812E:  CALL   35D6
....................             SendDataDisplay();  
08132:  CALL   3608
....................             SSR_on; 
08136:  BCF    F8B.2
08138:  BCF    F94.2
....................          } 
....................          else{ 
0813A:  BRA    8154
....................             printf("b3.bco=63488"); 
0813C:  MOVLW  EA
0813E:  MOVWF  FF6
08140:  MOVLW  0B
08142:  MOVWF  FF7
08144:  MOVLW  00
08146:  MOVWF  FF8
08148:  CALL   35D6
....................             SendDataDisplay();  
0814C:  CALL   3608
....................             SSR_off; 
08150:  BSF    F8B.2
08152:  BCF    F94.2
....................          } 
....................           
....................          if(DOOR){ 
08154:  BSF    F93.6
08156:  BTFSC  F81.6
08158:  BRA    8170
....................             printf("b8.bco=2016"); 
0815A:  MOVLW  F8
0815C:  MOVWF  FF6
0815E:  MOVLW  0B
08160:  MOVWF  FF7
08162:  MOVLW  00
08164:  MOVWF  FF8
08166:  CALL   35D6
....................             SendDataDisplay();  
0816A:  CALL   3608
....................          }else{ 
0816E:  BRA    8184
....................             printf("b8.bco=63488"); 
08170:  MOVLW  04
08172:  MOVWF  FF6
08174:  MOVLW  0C
08176:  MOVWF  FF7
08178:  MOVLW  00
0817A:  MOVWF  FF8
0817C:  CALL   35D6
....................             SendDataDisplay();  
08180:  CALL   3608
....................          } 
....................           
....................          if(TERM){ 
08184:  BSF    F93.5
08186:  BTFSC  F81.5
08188:  BRA    81A0
....................             printf("b9.bco=2016"); 
0818A:  MOVLW  12
0818C:  MOVWF  FF6
0818E:  MOVLW  0C
08190:  MOVWF  FF7
08192:  MOVLW  00
08194:  MOVWF  FF8
08196:  CALL   35D6
....................             SendDataDisplay();  
0819A:  CALL   3608
....................          }else{ 
0819E:  BRA    81B4
....................             printf("b9.bco=63488"); 
081A0:  MOVLW  1E
081A2:  MOVWF  FF6
081A4:  MOVLW  0C
081A6:  MOVWF  FF7
081A8:  MOVLW  00
081AA:  MOVWF  FF8
081AC:  CALL   35D6
....................             SendDataDisplay();  
081B0:  CALL   3608
....................          } 
....................           
....................          if(STOP){ 
081B4:  BSF    F93.7
081B6:  BTFSC  F81.7
081B8:  BRA    81D0
....................             printf("b10.bco=2016"); 
081BA:  MOVLW  2C
081BC:  MOVWF  FF6
081BE:  MOVLW  0C
081C0:  MOVWF  FF7
081C2:  MOVLW  00
081C4:  MOVWF  FF8
081C6:  CALL   35D6
....................             SendDataDisplay();  
081CA:  CALL   3608
....................          }else{ 
081CE:  BRA    81E4
....................             printf("b10.bco=63488"); 
081D0:  MOVLW  3A
081D2:  MOVWF  FF6
081D4:  MOVLW  0C
081D6:  MOVWF  FF7
081D8:  MOVLW  00
081DA:  MOVWF  FF8
081DC:  CALL   35D6
....................             SendDataDisplay();  
081E0:  CALL   3608
....................          } 
....................           
....................          /*if(PRES){ 
....................             printf("b11.bco=2016"); 
....................             SendDataDisplay();  
....................          }else{ 
....................             printf("b11.bco=63488"); 
....................             SendDataDisplay();  
....................          }*/ 
....................           
....................          if(RX_Buffer[4]==0x13)//Oprimio Buzzer 
081E4:  MOVF   34,W
081E6:  SUBLW  13
081E8:  BNZ   81F0
....................          { 
....................             EstadoBuzzer=!EstadoBuzzer; 
081EA:  BTG    xA2.6
....................             RX_Buffer[4]=0x00; 
081EC:  CLRF   34
....................             RX_Buffer2[4]=0x00; 
081EE:  CLRF   3F
....................          } 
....................           
....................          if(EstadoBuzzer){ 
081F0:  BTFSS  xA2.6
081F2:  BRA    820E
....................             printf("b12.bco=2016"); 
081F4:  MOVLW  48
081F6:  MOVWF  FF6
081F8:  MOVLW  0C
081FA:  MOVWF  FF7
081FC:  MOVLW  00
081FE:  MOVWF  FF8
08200:  CALL   35D6
....................             SendDataDisplay();  
08204:  CALL   3608
....................             Buzzer_on; 
08208:  BSF    F8C.0
0820A:  BCF    F95.0
....................          } 
....................          else{ 
0820C:  BRA    8226
....................             printf("b12.bco=63488"); 
0820E:  MOVLW  56
08210:  MOVWF  FF6
08212:  MOVLW  0C
08214:  MOVWF  FF7
08216:  MOVLW  00
08218:  MOVWF  FF8
0821A:  CALL   35D6
....................             SendDataDisplay();  
0821E:  CALL   3608
....................             Buzzer_off; 
08222:  BCF    F8C.0
08224:  BCF    F95.0
....................          } 
....................           
....................          if(HIG){ 
08226:  BSF    F94.0
08228:  BTFSS  F82.0
0822A:  BRA    8242
....................             printf("b16.bco=2016"); 
0822C:  MOVLW  64
0822E:  MOVWF  FF6
08230:  MOVLW  0C
08232:  MOVWF  FF7
08234:  MOVLW  00
08236:  MOVWF  FF8
08238:  CALL   35D6
....................             SendDataDisplay();  
0823C:  CALL   3608
....................          }else{ 
08240:  BRA    8256
....................             printf("b16.bco=63488"); 
08242:  MOVLW  72
08244:  MOVWF  FF6
08246:  MOVLW  0C
08248:  MOVWF  FF7
0824A:  MOVLW  00
0824C:  MOVWF  FF8
0824E:  CALL   35D6
....................             SendDataDisplay();  
08252:  CALL   3608
....................          } 
....................           
....................          if(LOW){ 
08256:  BSF    F94.1
08258:  BTFSS  F82.1
0825A:  BRA    8272
....................             printf("b17.bco=2016"); 
0825C:  MOVLW  80
0825E:  MOVWF  FF6
08260:  MOVLW  0C
08262:  MOVWF  FF7
08264:  MOVLW  00
08266:  MOVWF  FF8
08268:  CALL   35D6
....................             SendDataDisplay();  
0826C:  CALL   3608
....................          }else{ 
08270:  BRA    8286
....................             printf("b17.bco=63488"); 
08272:  MOVLW  8E
08274:  MOVWF  FF6
08276:  MOVLW  0C
08278:  MOVWF  FF7
0827A:  MOVLW  00
0827C:  MOVWF  FF8
0827E:  CALL   35D6
....................             SendDataDisplay();  
08282:  CALL   3608
....................          } 
....................           
....................          printf("b13.txt=\"ADC0:%3.0f\"",sensores(0));          
08286:  MOVLB  3
08288:  CLRF   xD0
0828A:  MOVLB  0
0828C:  CALL   365C
08290:  MOVFF  00,3CF
08294:  MOVFF  01,3D0
08298:  MOVFF  02,3D1
0829C:  MOVFF  03,3D2
082A0:  MOVLW  9C
082A2:  MOVWF  FF6
082A4:  MOVLW  0C
082A6:  MOVWF  FF7
082A8:  MOVLW  00
082AA:  MOVWF  FF8
082AC:  MOVLW  0E
082AE:  MOVLB  3
082B0:  MOVWF  xD3
082B2:  MOVLB  0
082B4:  CALL   44BA
082B8:  MOVLW  02
082BA:  MOVWF  FE9
082BC:  MOVFF  3D2,3D6
082C0:  MOVFF  3D1,3D5
082C4:  MOVFF  3D0,3D4
082C8:  MOVFF  3CF,3D3
082CC:  MOVLB  3
082CE:  CLRF   xD7
082D0:  MOVLB  0
082D2:  CALL   4782
082D6:  MOVLW  22
082D8:  BTFSS  F9E.4
082DA:  BRA    82D8
082DC:  MOVWF  FAD
....................          SendDataDisplay(); 
082DE:  CALL   3608
....................          printf("b14.txt=\"ADC1:%3.0f\"",sensores(1));          
082E2:  MOVLW  01
082E4:  MOVLB  3
082E6:  MOVWF  xD0
082E8:  MOVLB  0
082EA:  CALL   365C
082EE:  MOVFF  00,3CF
082F2:  MOVFF  01,3D0
082F6:  MOVFF  02,3D1
082FA:  MOVFF  03,3D2
082FE:  MOVLW  B2
08300:  MOVWF  FF6
08302:  MOVLW  0C
08304:  MOVWF  FF7
08306:  MOVLW  00
08308:  MOVWF  FF8
0830A:  MOVLW  0E
0830C:  MOVLB  3
0830E:  MOVWF  xD3
08310:  MOVLB  0
08312:  CALL   44BA
08316:  MOVLW  02
08318:  MOVWF  FE9
0831A:  MOVFF  3D2,3D6
0831E:  MOVFF  3D1,3D5
08322:  MOVFF  3D0,3D4
08326:  MOVFF  3CF,3D3
0832A:  MOVLB  3
0832C:  CLRF   xD7
0832E:  MOVLB  0
08330:  CALL   4782
08334:  MOVLW  22
08336:  BTFSS  F9E.4
08338:  BRA    8336
0833A:  MOVWF  FAD
....................          SendDataDisplay(); 
0833C:  CALL   3608
....................          printf("b15.txt=\"A2:%3.0f %03Lu\"",sensores(2),PresionCamara); 
08340:  MOVLW  02
08342:  MOVLB  3
08344:  MOVWF  xD0
08346:  MOVLB  0
08348:  CALL   365C
0834C:  MOVFF  00,3CF
08350:  MOVFF  01,3D0
08354:  MOVFF  02,3D1
08358:  MOVFF  03,3D2
0835C:  MOVLW  C8
0835E:  MOVWF  FF6
08360:  MOVLW  0C
08362:  MOVWF  FF7
08364:  MOVLW  00
08366:  MOVWF  FF8
08368:  MOVLW  0C
0836A:  MOVLB  3
0836C:  MOVWF  xD3
0836E:  MOVLB  0
08370:  CALL   44BA
08374:  MOVLW  02
08376:  MOVWF  FE9
08378:  MOVFF  3D2,3D6
0837C:  MOVFF  3D1,3D5
08380:  MOVFF  3D0,3D4
08384:  MOVFF  3CF,3D3
08388:  MOVLB  3
0838A:  CLRF   xD7
0838C:  MOVLB  0
0838E:  CALL   4782
08392:  MOVLW  20
08394:  BTFSS  F9E.4
08396:  BRA    8394
08398:  MOVWF  FAD
0839A:  MOVLW  0A
0839C:  MOVWF  FE9
0839E:  MOVFF  351,3D4
083A2:  MOVFF  350,3D3
083A6:  CALL   4614
083AA:  MOVLW  22
083AC:  BTFSS  F9E.4
083AE:  BRA    83AC
083B0:  MOVWF  FAD
....................          SendDataDisplay(); 
083B2:  CALL   3608
....................          printf("b18.txt=\"A3:%3.0f %03Lu\"",sensores(3),PresionPreCamara); 
083B6:  MOVLW  03
083B8:  MOVLB  3
083BA:  MOVWF  xD0
083BC:  MOVLB  0
083BE:  CALL   365C
083C2:  MOVFF  00,3CF
083C6:  MOVFF  01,3D0
083CA:  MOVFF  02,3D1
083CE:  MOVFF  03,3D2
083D2:  MOVLW  E2
083D4:  MOVWF  FF6
083D6:  MOVLW  0C
083D8:  MOVWF  FF7
083DA:  MOVLW  00
083DC:  MOVWF  FF8
083DE:  MOVLW  0C
083E0:  MOVLB  3
083E2:  MOVWF  xD3
083E4:  MOVLB  0
083E6:  CALL   44BA
083EA:  MOVLW  02
083EC:  MOVWF  FE9
083EE:  MOVFF  3D2,3D6
083F2:  MOVFF  3D1,3D5
083F6:  MOVFF  3D0,3D4
083FA:  MOVFF  3CF,3D3
083FE:  MOVLB  3
08400:  CLRF   xD7
08402:  MOVLB  0
08404:  CALL   4782
08408:  MOVLW  20
0840A:  BTFSS  F9E.4
0840C:  BRA    840A
0840E:  MOVWF  FAD
08410:  MOVLW  0A
08412:  MOVWF  FE9
08414:  MOVFF  353,3D4
08418:  MOVFF  352,3D3
0841C:  CALL   4614
08420:  MOVLW  22
08422:  BTFSS  F9E.4
08424:  BRA    8422
08426:  MOVWF  FAD
....................          SendDataDisplay(); 
08428:  CALL   3608
....................          printf("b20.txt=\"T1:%3.1f\"",Temperatura); 
0842C:  MOVLW  FC
0842E:  MOVWF  FF6
08430:  MOVLW  0C
08432:  MOVWF  FF7
08434:  MOVLW  00
08436:  MOVWF  FF8
08438:  MOVLW  0C
0843A:  MOVLB  3
0843C:  MOVWF  xD3
0843E:  MOVLB  0
08440:  CALL   44BA
08444:  MOVLW  02
08446:  MOVWF  FE9
08448:  MOVFF  318,3D6
0844C:  MOVFF  317,3D5
08450:  MOVFF  316,3D4
08454:  MOVFF  315,3D3
08458:  MOVLW  01
0845A:  MOVLB  3
0845C:  MOVWF  xD7
0845E:  MOVLB  0
08460:  CALL   4782
08464:  MOVLW  22
08466:  BTFSS  F9E.4
08468:  BRA    8466
0846A:  MOVWF  FAD
....................          SendDataDisplay(); 
0846C:  CALL   3608
....................           
....................          if(RX_Buffer[4]==0x21 || LEFT){//Oprimio salir 
08470:  MOVF   34,W
08472:  SUBLW  21
08474:  BZ    847C
08476:  BSF    F93.3
08478:  BTFSC  F81.3
0847A:  BRA    84C4
....................             delay_ms(100); 
0847C:  MOVLW  64
0847E:  MOVLB  3
08480:  MOVWF  xE4
08482:  MOVLB  0
08484:  CALL   1806
....................             if(RX_Buffer[4]==0x21 || LEFT){ 
08488:  MOVF   34,W
0848A:  SUBLW  21
0848C:  BZ    8494
0848E:  BSF    F93.3
08490:  BTFSC  F81.3
08492:  BRA    84C4
....................                printf("page MenuPrincipal"); 
08494:  MOVLW  10
08496:  MOVWF  FF6
08498:  MOVLW  0D
0849A:  MOVWF  FF7
0849C:  MOVLW  00
0849E:  MOVWF  FF8
084A0:  CALL   35D6
....................                SendDataDisplay(); 
084A4:  CALL   3608
....................                PantallaPrincipal=0; 
084A8:  MOVLB  2
084AA:  CLRF   xD1
....................                PruebaEstados=OFF;Desfogue_off;Agua_off;Bomba_off;SSR_off; 
084AC:  MOVLB  0
084AE:  BCF    xA1.2
084B0:  BCF    F8C.4
084B2:  BCF    F95.4
084B4:  BCF    F8C.5
084B6:  BCF    F95.5
084B8:  BCF    F8C.6
084BA:  BCF    F95.6
084BC:  BSF    F8B.2
084BE:  BCF    F94.2
....................                ApagaSalidas(); 
084C0:  CALL   363E
....................                // Falta apagar Todo 
....................             } 
....................          } 
....................           
....................          if(UP){ 
084C4:  BSF    F93.0
084C6:  BTFSC  F81.0
084C8:  BRA    860C
....................             delay_ms(100); 
084CA:  MOVLW  64
084CC:  MOVLB  3
084CE:  MOVWF  xE4
084D0:  MOVLB  0
084D2:  CALL   1806
....................             if(UP){ 
084D6:  BSF    F93.0
084D8:  BTFSC  F81.0
084DA:  BRA    860C
....................                G1=41-sensores(2); 
084DC:  MOVLW  02
084DE:  MOVLB  3
084E0:  MOVWF  xD0
084E2:  MOVLB  0
084E4:  CALL   365C
084E8:  MOVFF  FEA,3D0
084EC:  MOVFF  FE9,3CF
084F0:  BSF    FD8.1
084F2:  MOVLB  3
084F4:  CLRF   xE7
084F6:  CLRF   xE6
084F8:  MOVLW  24
084FA:  MOVWF  xE5
084FC:  MOVLW  84
084FE:  MOVWF  xE4
08500:  MOVFF  03,3EB
08504:  MOVFF  02,3EA
08508:  MOVFF  01,3E9
0850C:  MOVFF  00,3E8
08510:  MOVLB  0
08512:  CALL   19C2
08516:  MOVFF  3D0,FEA
0851A:  MOVFF  3CF,FE9
0851E:  MOVFF  03,3E7
08522:  MOVFF  02,3E6
08526:  MOVFF  01,3E5
0852A:  MOVFF  00,3E4
0852E:  CALL   3D02
08532:  MOVFF  01,385
....................                if(G1<0) 
08536:  MOVLB  3
08538:  BTFSC  x85.7
0853A:  BRA    853E
0853C:  BRA    8544
....................                   sg1=10; 
0853E:  MOVLW  0A
08540:  MOVWF  x87
....................                else 
08542:  BRA    8548
....................                   sg1=5; 
08544:  MOVLW  05
08546:  MOVWF  x87
....................                    
....................                write_eeprom(42,(int8)G1); 
08548:  CLRF   FAA
0854A:  MOVLW  2A
0854C:  MOVWF  FA9
0854E:  MOVFF  385,FA8
08552:  BCF    FA6.6
08554:  BCF    FA6.7
08556:  BSF    FA6.2
08558:  MOVF   FF2,W
0855A:  MOVWF  00
0855C:  BCF    FF2.6
0855E:  BCF    FF2.7
08560:  MOVLB  F
08562:  MOVLW  55
08564:  MOVWF  FA7
08566:  MOVLW  AA
08568:  MOVWF  FA7
0856A:  BSF    FA6.1
0856C:  BTFSC  FA6.1
0856E:  BRA    856C
08570:  BCF    FA6.2
08572:  MOVF   00,W
08574:  IORWF  FF2,F
....................                delay_ms(10); 
08576:  MOVLW  0A
08578:  MOVLB  3
0857A:  MOVWF  xE4
0857C:  MOVLB  0
0857E:  CALL   1806
....................                write_eeprom(44,(int8)sg1); 
08582:  CLRF   FAA
08584:  MOVLW  2C
08586:  MOVWF  FA9
08588:  MOVFF  387,FA8
0858C:  BCF    FA6.6
0858E:  BCF    FA6.7
08590:  BSF    FA6.2
08592:  MOVF   FF2,W
08594:  MOVWF  00
08596:  BCF    FF2.6
08598:  BCF    FF2.7
0859A:  MOVLB  F
0859C:  MOVLW  55
0859E:  MOVWF  FA7
085A0:  MOVLW  AA
085A2:  MOVWF  FA7
085A4:  BSF    FA6.1
085A6:  BTFSC  FA6.1
085A8:  BRA    85A6
085AA:  BCF    FA6.2
085AC:  MOVF   00,W
085AE:  IORWF  FF2,F
....................                delay_ms(10); 
085B0:  MOVLW  0A
085B2:  MOVLB  3
085B4:  MOVWF  xE4
085B6:  MOVLB  0
085B8:  CALL   1806
....................                Buzzer_on; 
085BC:  BSF    F8C.0
085BE:  BCF    F95.0
....................                delay_ms(1000); 
085C0:  MOVLW  04
085C2:  MOVLB  3
085C4:  MOVWF  xCF
085C6:  MOVLW  FA
085C8:  MOVWF  xE4
085CA:  MOVLB  0
085CC:  CALL   1806
085D0:  MOVLB  3
085D2:  DECFSZ xCF,F
085D4:  BRA    85C6
....................                Buzzer_off; 
085D6:  BCF    F8C.0
085D8:  BCF    F95.0
....................                delay_ms(1000); 
085DA:  MOVLW  04
085DC:  MOVWF  xCF
085DE:  MOVLW  FA
085E0:  MOVWF  xE4
085E2:  MOVLB  0
085E4:  CALL   1806
085E8:  MOVLB  3
085EA:  DECFSZ xCF,F
085EC:  BRA    85DE
....................                Buzzer_on; 
085EE:  BSF    F8C.0
085F0:  BCF    F95.0
....................                delay_ms(1000); 
085F2:  MOVLW  04
085F4:  MOVWF  xCF
085F6:  MOVLW  FA
085F8:  MOVWF  xE4
085FA:  MOVLB  0
085FC:  CALL   1806
08600:  MOVLB  3
08602:  DECFSZ xCF,F
08604:  BRA    85F6
....................                Buzzer_off; 
08606:  BCF    F8C.0
08608:  BCF    F95.0
0860A:  MOVLB  0
....................             } 
....................          } 
....................           
....................          if(DOWN){ 
0860C:  BSF    F93.1
0860E:  BTFSC  F81.1
08610:  BRA    8754
....................             delay_ms(100); 
08612:  MOVLW  64
08614:  MOVLB  3
08616:  MOVWF  xE4
08618:  MOVLB  0
0861A:  CALL   1806
....................             if(DOWN){ 
0861E:  BSF    F93.1
08620:  BTFSC  F81.1
08622:  BRA    8754
....................                G2=41-sensores(3); 
08624:  MOVLW  03
08626:  MOVLB  3
08628:  MOVWF  xD0
0862A:  MOVLB  0
0862C:  CALL   365C
08630:  MOVFF  FEA,3D0
08634:  MOVFF  FE9,3CF
08638:  BSF    FD8.1
0863A:  MOVLB  3
0863C:  CLRF   xE7
0863E:  CLRF   xE6
08640:  MOVLW  24
08642:  MOVWF  xE5
08644:  MOVLW  84
08646:  MOVWF  xE4
08648:  MOVFF  03,3EB
0864C:  MOVFF  02,3EA
08650:  MOVFF  01,3E9
08654:  MOVFF  00,3E8
08658:  MOVLB  0
0865A:  CALL   19C2
0865E:  MOVFF  3D0,FEA
08662:  MOVFF  3CF,FE9
08666:  MOVFF  03,3E7
0866A:  MOVFF  02,3E6
0866E:  MOVFF  01,3E5
08672:  MOVFF  00,3E4
08676:  CALL   3D02
0867A:  MOVFF  01,386
....................                if(G2<0) 
0867E:  MOVLB  3
08680:  BTFSC  x86.7
08682:  BRA    8686
08684:  BRA    868C
....................                   sg2=10; 
08686:  MOVLW  0A
08688:  MOVWF  x88
....................                else 
0868A:  BRA    8690
....................                   sg2=5; 
0868C:  MOVLW  05
0868E:  MOVWF  x88
....................                    
....................                write_eeprom(43,(int8)G2); 
08690:  CLRF   FAA
08692:  MOVLW  2B
08694:  MOVWF  FA9
08696:  MOVFF  386,FA8
0869A:  BCF    FA6.6
0869C:  BCF    FA6.7
0869E:  BSF    FA6.2
086A0:  MOVF   FF2,W
086A2:  MOVWF  00
086A4:  BCF    FF2.6
086A6:  BCF    FF2.7
086A8:  MOVLB  F
086AA:  MOVLW  55
086AC:  MOVWF  FA7
086AE:  MOVLW  AA
086B0:  MOVWF  FA7
086B2:  BSF    FA6.1
086B4:  BTFSC  FA6.1
086B6:  BRA    86B4
086B8:  BCF    FA6.2
086BA:  MOVF   00,W
086BC:  IORWF  FF2,F
....................                delay_ms(10); 
086BE:  MOVLW  0A
086C0:  MOVLB  3
086C2:  MOVWF  xE4
086C4:  MOVLB  0
086C6:  CALL   1806
....................                write_eeprom(45,(int8)sg2); 
086CA:  CLRF   FAA
086CC:  MOVLW  2D
086CE:  MOVWF  FA9
086D0:  MOVFF  388,FA8
086D4:  BCF    FA6.6
086D6:  BCF    FA6.7
086D8:  BSF    FA6.2
086DA:  MOVF   FF2,W
086DC:  MOVWF  00
086DE:  BCF    FF2.6
086E0:  BCF    FF2.7
086E2:  MOVLB  F
086E4:  MOVLW  55
086E6:  MOVWF  FA7
086E8:  MOVLW  AA
086EA:  MOVWF  FA7
086EC:  BSF    FA6.1
086EE:  BTFSC  FA6.1
086F0:  BRA    86EE
086F2:  BCF    FA6.2
086F4:  MOVF   00,W
086F6:  IORWF  FF2,F
....................                delay_ms(10); 
086F8:  MOVLW  0A
086FA:  MOVLB  3
086FC:  MOVWF  xE4
086FE:  MOVLB  0
08700:  CALL   1806
....................                Buzzer_on; 
08704:  BSF    F8C.0
08706:  BCF    F95.0
....................                delay_ms(1000); 
08708:  MOVLW  04
0870A:  MOVLB  3
0870C:  MOVWF  xCF
0870E:  MOVLW  FA
08710:  MOVWF  xE4
08712:  MOVLB  0
08714:  CALL   1806
08718:  MOVLB  3
0871A:  DECFSZ xCF,F
0871C:  BRA    870E
....................                Buzzer_off; 
0871E:  BCF    F8C.0
08720:  BCF    F95.0
....................                delay_ms(1000); 
08722:  MOVLW  04
08724:  MOVWF  xCF
08726:  MOVLW  FA
08728:  MOVWF  xE4
0872A:  MOVLB  0
0872C:  CALL   1806
08730:  MOVLB  3
08732:  DECFSZ xCF,F
08734:  BRA    8726
....................                Buzzer_on; 
08736:  BSF    F8C.0
08738:  BCF    F95.0
....................                delay_ms(1000); 
0873A:  MOVLW  04
0873C:  MOVWF  xCF
0873E:  MOVLW  FA
08740:  MOVWF  xE4
08742:  MOVLB  0
08744:  CALL   1806
08748:  MOVLB  3
0874A:  DECFSZ xCF,F
0874C:  BRA    873E
....................                Buzzer_off; 
0874E:  BCF    F8C.0
08750:  BCF    F95.0
08752:  MOVLB  0
....................             } 
....................          } 
....................      } 
.................... //_--------------------------------------------------------------------------------------------------------------------------------------------------------     
....................  
.................... //_--------------------------------------------------------------------------------------------------------------------------------------------------------       
....................       if(Menu==7){ //Menu de Configuracin de Fecha y Hora 
08754:  MOVLB  3
08756:  MOVF   x37,W
08758:  SUBLW  07
0875A:  BTFSS  FD8.2
0875C:  BRA    8B78
....................        
....................          if(RX_Buffer[4]==0x0a){//Selecciono Hora 
0875E:  MOVF   34,W
08760:  SUBLW  0A
08762:  BNZ   8768
....................             Opcion=4; 
08764:  MOVLW  04
08766:  MOVWF  x3F
....................          } 
....................           
....................          if(RX_Buffer[4]==0x0b){//Selecciono Minuto 
08768:  MOVF   34,W
0876A:  SUBLW  0B
0876C:  BNZ   8772
....................             Opcion=5; 
0876E:  MOVLW  05
08770:  MOVWF  x3F
....................          } 
....................           
....................          if(RX_Buffer[4]==0x0c){//Selecciono Dia 
08772:  MOVF   34,W
08774:  SUBLW  0C
08776:  BNZ   877C
....................             Opcion=1; 
08778:  MOVLW  01
0877A:  MOVWF  x3F
....................          } 
....................           
....................          if(RX_Buffer[4]==0x0d){//Selecciono Hora 
0877C:  MOVF   34,W
0877E:  SUBLW  0D
08780:  BNZ   8786
....................             Opcion=2; 
08782:  MOVLW  02
08784:  MOVWF  x3F
....................          } 
....................           
....................          if(RX_Buffer[4]==0x0e){//Selecciono Year 
08786:  MOVF   34,W
08788:  SUBLW  0E
0878A:  BNZ   8790
....................             Opcion=3; 
0878C:  MOVLW  03
0878E:  MOVWF  x3F
....................          } 
....................           
....................          if(RIGHT){ 
08790:  BSF    F93.2
08792:  BTFSC  F81.2
08794:  BRA    87AA
....................             delay_ms(200); 
08796:  MOVLW  C8
08798:  MOVWF  xE4
0879A:  MOVLB  0
0879C:  CALL   1806
....................             if(RIGHT){ 
087A0:  BSF    F93.2
087A2:  BTFSC  F81.2
087A4:  BRA    87AC
....................                Opcion++; 
087A6:  MOVLB  3
087A8:  INCF   x3F,F
087AA:  MOVLB  0
....................             } 
....................          } 
....................          if(Opcion>5) 
087AC:  MOVLB  3
087AE:  MOVF   x3F,W
087B0:  SUBLW  05
087B2:  BC    87B8
....................             Opcion=1; 
087B4:  MOVLW  01
087B6:  MOVWF  x3F
....................          if(Opcion<1) 
087B8:  MOVF   x3F,F
087BA:  BNZ   87C0
....................             Opcion=5; 
087BC:  MOVLW  05
087BE:  MOVWF  x3F
....................              
....................          if(RX_Buffer[4]==0x11 || LEFT){//Selecciono Regresar 
087C0:  MOVF   34,W
087C2:  SUBLW  11
087C4:  BZ    87CC
087C6:  BSF    F93.3
087C8:  BTFSC  F81.3
087CA:  BRA    88DC
....................             printf("page MenuPrincipal"); 
087CC:  MOVLW  24
087CE:  MOVWF  FF6
087D0:  MOVLW  0D
087D2:  MOVWF  FF7
087D4:  MOVLW  00
087D6:  MOVWF  FF8
087D8:  MOVLB  0
087DA:  CALL   35D6
....................             SendDataDisplay();   
087DE:  CALL   3608
....................             PantallaPrincipal=0; 
087E2:  MOVLB  2
087E4:  CLRF   xD1
....................             Op=OFF; 
087E6:  MOVLB  0
087E8:  BCF    xA2.0
....................             Op2=OFF; 
087EA:  BCF    xA2.1
....................              
....................             if(esBisiesto(YearTx)) 
087EC:  MOVFF  37C,3CF
087F0:  CALL   496E
087F4:  MOVF   01,F
087F6:  BZ    8812
....................                Modulo=Bisiesto[MesTx]; 
087F8:  CLRF   03
087FA:  MOVLB  3
087FC:  MOVF   x7D,W
087FE:  ADDLW  93
08800:  MOVWF  FE9
08802:  MOVLW  00
08804:  ADDWFC 03,W
08806:  MOVWF  FEA
08808:  MOVFF  FEF,2D3
0880C:  MOVLB  2
....................             else 
0880E:  BRA    8828
08810:  MOVLB  0
....................                Modulo=Regular[MesTx]; 
08812:  CLRF   03
08814:  MOVLB  3
08816:  MOVF   x7D,W
08818:  ADDLW  87
0881A:  MOVWF  FE9
0881C:  MOVLW  00
0881E:  ADDWFC 03,W
08820:  MOVWF  FEA
08822:  MOVFF  FEF,2D3
08826:  MOVLB  2
....................           
....................             dowTx=((YearTx-1)%7+((YearTx-1)/4-3*((YearTx-1)/100+1)/4)%7+Modulo+DiaTx%7)%7; 
08828:  MOVLW  01
0882A:  MOVLB  3
0882C:  SUBWF  x7C,W
0882E:  MOVWF  xD0
08830:  MOVWF  xD9
08832:  MOVLW  07
08834:  MOVWF  xDA
08836:  MOVLB  0
08838:  CALL   44EC
0883C:  MOVFF  00,3CF
08840:  MOVLW  01
08842:  MOVLB  3
08844:  SUBWF  x7C,W
08846:  MOVWF  00
08848:  RRCF   00,W
0884A:  MOVWF  xD0
0884C:  RRCF   xD0,F
0884E:  MOVLW  3F
08850:  ANDWF  xD0,F
08852:  MOVLW  01
08854:  SUBWF  x7C,W
08856:  MOVWF  xD2
08858:  MOVWF  xD9
0885A:  MOVLW  64
0885C:  MOVWF  xDA
0885E:  MOVLB  0
08860:  CALL   44EC
08864:  MOVLW  01
08866:  ADDWF  01,W
08868:  MULLW  03
0886A:  MOVFF  FF3,00
0886E:  RRCF   00,F
08870:  RRCF   00,F
08872:  MOVLW  3F
08874:  ANDWF  00,F
08876:  MOVF   00,W
08878:  MOVLB  3
0887A:  SUBWF  xD0,W
0887C:  MOVWF  xD1
0887E:  MOVWF  xD9
08880:  MOVLW  07
08882:  MOVWF  xDA
08884:  MOVLB  0
08886:  CALL   44EC
0888A:  MOVF   00,W
0888C:  MOVLB  3
0888E:  ADDWF  xCF,W
08890:  MOVLB  2
08892:  ADDWF  xD3,W
08894:  MOVLB  3
08896:  MOVWF  xCF
08898:  MOVFF  37E,3D9
0889C:  MOVLW  07
0889E:  MOVWF  xDA
088A0:  MOVLB  0
088A2:  CALL   44EC
088A6:  MOVF   00,W
088A8:  MOVLB  3
088AA:  ADDWF  xCF,W
088AC:  MOVWF  xD0
088AE:  MOVWF  xD9
088B0:  MOVLW  07
088B2:  MOVWF  xDA
088B4:  MOVLB  0
088B6:  CALL   44EC
088BA:  MOVFF  00,382
....................             rtc_set_datetime(DiaTx,MesTx,YearTx,dowTx,HoraTx,MinutoTx); 
088BE:  MOVFF  37E,3CF
088C2:  MOVFF  37D,3D0
088C6:  MOVFF  37C,3D1
088CA:  MOVFF  382,3D2
088CE:  MOVFF  37F,3D3
088D2:  MOVFF  380,3D4
088D6:  GOTO   49F0
088DA:  MOVLB  3
....................          } 
....................           
....................          if((RX_Buffer[4]==0x2a)|| UP){//Tecla Arriba Oprimida 
088DC:  MOVF   34,W
088DE:  SUBLW  2A
088E0:  BZ    88E8
088E2:  BSF    F93.0
088E4:  BTFSC  F81.0
088E6:  BRA    89E4
....................             delay_ms(200); 
088E8:  MOVLW  C8
088EA:  MOVWF  xE4
088EC:  MOVLB  0
088EE:  CALL   1806
....................             if((RX_Buffer[4]==0x2a)|| UP){    
088F2:  MOVF   34,W
088F4:  SUBLW  2A
088F6:  BZ    88FE
088F8:  BSF    F93.0
088FA:  BTFSC  F81.0
088FC:  BRA    89E6
....................                if(Opcion==1){ 
088FE:  MOVLB  3
08900:  DECFSZ x3F,W
08902:  BRA    8990
....................                   if(MesTx==2){ 
08904:  MOVF   x7D,W
08906:  SUBLW  02
08908:  BNZ   893E
....................                      if(esBisiesto(YearTx)){ 
0890A:  MOVFF  37C,3CF
0890E:  MOVLB  0
08910:  CALL   496E
08914:  MOVF   01,F
08916:  BZ    892C
....................                         if(DiaTx<29) 
08918:  MOVLB  3
0891A:  MOVF   x7E,W
0891C:  SUBLW  1C
0891E:  BNC   8924
....................                            DiaTx++; 
08920:  INCF   x7E,F
....................                         else 
08922:  BRA    8928
....................                            DiaTx=1;    
08924:  MOVLW  01
08926:  MOVWF  x7E
....................                      }else{ 
08928:  BRA    893C
0892A:  MOVLB  0
....................                         if(DiaTx<28) 
0892C:  MOVLB  3
0892E:  MOVF   x7E,W
08930:  SUBLW  1B
08932:  BNC   8938
....................                            DiaTx++; 
08934:  INCF   x7E,F
....................                         else 
08936:  BRA    893C
....................                            DiaTx=1;    
08938:  MOVLW  01
0893A:  MOVWF  x7E
....................                      } 
....................                   }else{ 
0893C:  BRA    898E
....................                      if(MesTx<=7){ 
0893E:  MOVF   x7D,W
08940:  SUBLW  07
08942:  BNC   896A
....................                         if(MesTx % 2 ==0){ 
08944:  MOVF   x7D,W
08946:  ANDLW  01
08948:  BNZ   895A
....................                            if(DiaTx<30) 
0894A:  MOVF   x7E,W
0894C:  SUBLW  1D
0894E:  BNC   8954
....................                               DiaTx++;     
08950:  INCF   x7E,F
....................                            else 
08952:  BRA    8958
....................                               DiaTx=1;    
08954:  MOVLW  01
08956:  MOVWF  x7E
....................                         }else{ 
08958:  BRA    8968
....................                            if(DiaTx<31) 
0895A:  MOVF   x7E,W
0895C:  SUBLW  1E
0895E:  BNC   8964
....................                               DiaTx++;     
08960:  INCF   x7E,F
....................                            else 
08962:  BRA    8968
....................                               DiaTx=1;    
08964:  MOVLW  01
08966:  MOVWF  x7E
....................                         }     
....................                      }else{ 
08968:  BRA    898E
....................                         if(MesTx % 2 ==0){ 
0896A:  MOVF   x7D,W
0896C:  ANDLW  01
0896E:  BNZ   8980
....................                            if(DiaTx<31) 
08970:  MOVF   x7E,W
08972:  SUBLW  1E
08974:  BNC   897A
....................                               DiaTx++;   
08976:  INCF   x7E,F
....................                            else 
08978:  BRA    897E
....................                               DiaTx=1; 
0897A:  MOVLW  01
0897C:  MOVWF  x7E
....................                         }else{ 
0897E:  BRA    898E
....................                            if(DiaTx<30) 
08980:  MOVF   x7E,W
08982:  SUBLW  1D
08984:  BNC   898A
....................                               DiaTx++;     
08986:  INCF   x7E,F
....................                            else 
08988:  BRA    898E
....................                               DiaTx=1; 
0898A:  MOVLW  01
0898C:  MOVWF  x7E
....................                         }     
....................                      } 
....................                   } 
....................                }else if(Opcion==2){ 
0898E:  BRA    89E0
08990:  MOVF   x3F,W
08992:  SUBLW  02
08994:  BNZ   89A6
....................                   if(MesTx<12) 
08996:  MOVF   x7D,W
08998:  SUBLW  0B
0899A:  BNC   89A0
....................                      MesTx++; 
0899C:  INCF   x7D,F
....................                   else 
0899E:  BRA    89A4
....................                      MesTx=1; 
089A0:  MOVLW  01
089A2:  MOVWF  x7D
....................                }else if(Opcion==3){ 
089A4:  BRA    89E0
089A6:  MOVF   x3F,W
089A8:  SUBLW  03
089AA:  BNZ   89BA
....................                   if(YearTx<99) 
089AC:  MOVF   x7C,W
089AE:  SUBLW  62
089B0:  BNC   89B6
....................                      YearTx++; 
089B2:  INCF   x7C,F
....................                   else  
089B4:  BRA    89B8
....................                      YearTx=0; 
089B6:  CLRF   x7C
....................                }else if(Opcion==4){ 
089B8:  BRA    89E0
089BA:  MOVF   x3F,W
089BC:  SUBLW  04
089BE:  BNZ   89CE
....................                   if(HoraTx<24) 
089C0:  MOVF   x7F,W
089C2:  SUBLW  17
089C4:  BNC   89CA
....................                      HoraTx++; 
089C6:  INCF   x7F,F
....................                   else 
089C8:  BRA    89CC
....................                      HoraTx=0; 
089CA:  CLRF   x7F
....................                }else if(Opcion==5){ 
089CC:  BRA    89E0
089CE:  MOVF   x3F,W
089D0:  SUBLW  05
089D2:  BNZ   89E0
....................                   if(MinutoTx<59) 
089D4:  MOVF   x80,W
089D6:  SUBLW  3A
089D8:  BNC   89DE
....................                      MinutoTx++; 
089DA:  INCF   x80,F
....................                   else 
089DC:  BRA    89E0
....................                      MinutoTx=0; 
089DE:  CLRF   x80
....................                } 
....................                RX_Buffer[4]=0x00; 
089E0:  CLRF   34
....................                RX_Buffer2[4]=0x00; 
089E2:  CLRF   3F
089E4:  MOVLB  0
....................             } 
....................          } 
....................           
....................          if(RX_Buffer[4]==0x2b || DOWN){//Tecla Abajo Oprimida 
089E6:  MOVF   34,W
089E8:  SUBLW  2B
089EA:  BZ    89F2
089EC:  BSF    F93.1
089EE:  BTFSC  F81.1
089F0:  BRA    8A6E
....................             delay_ms(200); 
089F2:  MOVLW  C8
089F4:  MOVLB  3
089F6:  MOVWF  xE4
089F8:  MOVLB  0
089FA:  CALL   1806
....................             if(RX_Buffer[4]==0x2b || DOWN){    
089FE:  MOVF   34,W
08A00:  SUBLW  2B
08A02:  BZ    8A0A
08A04:  BSF    F93.1
08A06:  BTFSC  F81.1
08A08:  BRA    8A6E
....................                if(Opcion==1){ 
08A0A:  MOVLB  3
08A0C:  DECFSZ x3F,W
08A0E:  BRA    8A18
....................                   if(DiaTx>0) 
08A10:  MOVF   x7E,F
08A12:  BZ    8A16
....................                      DiaTx--; 
08A14:  DECF   x7E,F
....................                }else if(Opcion==2){ 
08A16:  BRA    8A68
08A18:  MOVF   x3F,W
08A1A:  SUBLW  02
08A1C:  BNZ   8A2E
....................                   if(MesTx>1) 
08A1E:  MOVF   x7D,W
08A20:  SUBLW  01
08A22:  BC    8A28
....................                      MesTx--; 
08A24:  DECF   x7D,F
....................                   else 
08A26:  BRA    8A2C
....................                      MesTx=12; 
08A28:  MOVLW  0C
08A2A:  MOVWF  x7D
....................                }else if(Opcion==3){ 
08A2C:  BRA    8A68
08A2E:  MOVF   x3F,W
08A30:  SUBLW  03
08A32:  BNZ   8A42
....................                   if(YearTx>0) 
08A34:  MOVF   x7C,F
08A36:  BZ    8A3C
....................                      YearTx--; 
08A38:  DECF   x7C,F
....................                   else 
08A3A:  BRA    8A40
....................                      YearTx=99; 
08A3C:  MOVLW  63
08A3E:  MOVWF  x7C
....................                }else if(Opcion==4){ 
08A40:  BRA    8A68
08A42:  MOVF   x3F,W
08A44:  SUBLW  04
08A46:  BNZ   8A56
....................                   if(HoraTx>0) 
08A48:  MOVF   x7F,F
08A4A:  BZ    8A50
....................                      HoraTx--; 
08A4C:  DECF   x7F,F
....................                   else 
08A4E:  BRA    8A54
....................                      HoraTx=23; 
08A50:  MOVLW  17
08A52:  MOVWF  x7F
....................                }else if(Opcion==5){ 
08A54:  BRA    8A68
08A56:  MOVF   x3F,W
08A58:  SUBLW  05
08A5A:  BNZ   8A68
....................                   if(MinutoTx>0) 
08A5C:  MOVF   x80,F
08A5E:  BZ    8A64
....................                      MinutoTx--; 
08A60:  DECF   x80,F
....................                   else 
08A62:  BRA    8A68
....................                      MinutoTx=59; 
08A64:  MOVLW  3B
08A66:  MOVWF  x80
....................                } 
....................                RX_Buffer[4]=0x00; 
08A68:  CLRF   34
....................                RX_Buffer2[4]=0x00; 
08A6A:  CLRF   3F
08A6C:  MOVLB  0
....................             } 
....................          } 
....................        
....................       printf("thora.txt=\"%02u\"",HoraTx); 
08A6E:  MOVLW  38
08A70:  MOVWF  FF6
08A72:  MOVLW  0D
08A74:  MOVWF  FF7
08A76:  MOVLW  00
08A78:  MOVWF  FF8
08A7A:  MOVLW  0B
08A7C:  MOVLB  3
08A7E:  MOVWF  xD3
08A80:  MOVLB  0
08A82:  CALL   44BA
08A86:  MOVFF  37F,3D1
08A8A:  MOVLW  01
08A8C:  MOVLB  3
08A8E:  MOVWF  xD2
08A90:  MOVLB  0
08A92:  CALL   4518
08A96:  MOVLW  22
08A98:  BTFSS  F9E.4
08A9A:  BRA    8A98
08A9C:  MOVWF  FAD
....................       SendDataDisplay(); 
08A9E:  CALL   3608
....................       printf("tminutos.txt=\"%02u\"",MinutoTx); 
08AA2:  MOVLW  4A
08AA4:  MOVWF  FF6
08AA6:  MOVLW  0D
08AA8:  MOVWF  FF7
08AAA:  MOVLW  00
08AAC:  MOVWF  FF8
08AAE:  MOVLW  0E
08AB0:  MOVLB  3
08AB2:  MOVWF  xD3
08AB4:  MOVLB  0
08AB6:  CALL   44BA
08ABA:  MOVFF  380,3D1
08ABE:  MOVLW  01
08AC0:  MOVLB  3
08AC2:  MOVWF  xD2
08AC4:  MOVLB  0
08AC6:  CALL   4518
08ACA:  MOVLW  22
08ACC:  BTFSS  F9E.4
08ACE:  BRA    8ACC
08AD0:  MOVWF  FAD
....................       SendDataDisplay(); 
08AD2:  CALL   3608
....................       printf("tdia.txt=\"%02u\"",DiaTx); 
08AD6:  MOVLW  5E
08AD8:  MOVWF  FF6
08ADA:  MOVLW  0D
08ADC:  MOVWF  FF7
08ADE:  MOVLW  00
08AE0:  MOVWF  FF8
08AE2:  MOVLW  0A
08AE4:  MOVLB  3
08AE6:  MOVWF  xD3
08AE8:  MOVLB  0
08AEA:  CALL   44BA
08AEE:  MOVFF  37E,3D1
08AF2:  MOVLW  01
08AF4:  MOVLB  3
08AF6:  MOVWF  xD2
08AF8:  MOVLB  0
08AFA:  CALL   4518
08AFE:  MOVLW  22
08B00:  BTFSS  F9E.4
08B02:  BRA    8B00
08B04:  MOVWF  FAD
....................       SendDataDisplay(); 
08B06:  CALL   3608
....................       printf("tmes.txt=\"%02u\"",MesTx); 
08B0A:  MOVLW  6E
08B0C:  MOVWF  FF6
08B0E:  MOVLW  0D
08B10:  MOVWF  FF7
08B12:  MOVLW  00
08B14:  MOVWF  FF8
08B16:  MOVLW  0A
08B18:  MOVLB  3
08B1A:  MOVWF  xD3
08B1C:  MOVLB  0
08B1E:  CALL   44BA
08B22:  MOVFF  37D,3D1
08B26:  MOVLW  01
08B28:  MOVLB  3
08B2A:  MOVWF  xD2
08B2C:  MOVLB  0
08B2E:  CALL   4518
08B32:  MOVLW  22
08B34:  BTFSS  F9E.4
08B36:  BRA    8B34
08B38:  MOVWF  FAD
....................       SendDataDisplay(); 
08B3A:  CALL   3608
....................       printf("tyear.txt=\"%02u\"",YearTx); 
08B3E:  MOVLW  7E
08B40:  MOVWF  FF6
08B42:  MOVLW  0D
08B44:  MOVWF  FF7
08B46:  MOVLW  00
08B48:  MOVWF  FF8
08B4A:  MOVLW  0B
08B4C:  MOVLB  3
08B4E:  MOVWF  xD3
08B50:  MOVLB  0
08B52:  CALL   44BA
08B56:  MOVFF  37C,3D1
08B5A:  MOVLW  01
08B5C:  MOVLB  3
08B5E:  MOVWF  xD2
08B60:  MOVLB  0
08B62:  CALL   4518
08B66:  MOVLW  22
08B68:  BTFSS  F9E.4
08B6A:  BRA    8B68
08B6C:  MOVWF  FAD
....................       SendDataDisplay(); 
08B6E:  CALL   3608
....................       LimitaDia();   
08B72:  GOTO   4AAC
08B76:  MOVLB  3
....................     } 
.................... //_--------------------------------------------------------------------------------------------------------------------------------------------------------        
....................  
.................... //_-------------------------------------------------------------------------------------------------------------------------------------------------------- 
....................    if(Menu==8){ //Menu Ciclos Personalizados 
08B78:  MOVF   x37,W
08B7A:  SUBLW  08
08B7C:  BTFSS  FD8.2
08B7E:  GOTO   993C
....................       printf("fecha.txt=\"Fecha:%02u/%02u/20%02u Hora: %02u:%02u:%02u\"",Dia,Mes,Year,Hora,Minuto,Segundo); 
08B82:  MOVLW  90
08B84:  MOVWF  FF6
08B86:  MOVLW  0D
08B88:  MOVWF  FF7
08B8A:  MOVLW  00
08B8C:  MOVWF  FF8
08B8E:  MOVLW  11
08B90:  MOVWF  xD3
08B92:  MOVLB  0
08B94:  CALL   44BA
08B98:  MOVFF  377,3D1
08B9C:  MOVLW  01
08B9E:  MOVLB  3
08BA0:  MOVWF  xD2
08BA2:  MOVLB  0
08BA4:  CALL   4518
08BA8:  MOVLW  2F
08BAA:  BTFSS  F9E.4
08BAC:  BRA    8BAA
08BAE:  MOVWF  FAD
08BB0:  MOVFF  376,3D1
08BB4:  MOVLW  01
08BB6:  MOVLB  3
08BB8:  MOVWF  xD2
08BBA:  MOVLB  0
08BBC:  CALL   4518
08BC0:  MOVLW  2F
08BC2:  BTFSS  F9E.4
08BC4:  BRA    8BC2
08BC6:  MOVWF  FAD
08BC8:  MOVLW  32
08BCA:  BTFSS  F9E.4
08BCC:  BRA    8BCA
08BCE:  MOVWF  FAD
08BD0:  MOVLW  30
08BD2:  BTFSS  F9E.4
08BD4:  BRA    8BD2
08BD6:  MOVWF  FAD
08BD8:  MOVFF  375,3D1
08BDC:  MOVLW  01
08BDE:  MOVLB  3
08BE0:  MOVWF  xD2
08BE2:  MOVLB  0
08BE4:  CALL   4518
08BE8:  MOVLW  B1
08BEA:  MOVWF  FF6
08BEC:  MOVLW  0D
08BEE:  MOVWF  FF7
08BF0:  MOVLW  00
08BF2:  MOVWF  FF8
08BF4:  MOVLW  07
08BF6:  MOVLB  3
08BF8:  MOVWF  xD3
08BFA:  MOVLB  0
08BFC:  CALL   44BA
08C00:  MOVFF  378,3D1
08C04:  MOVLW  01
08C06:  MOVLB  3
08C08:  MOVWF  xD2
08C0A:  MOVLB  0
08C0C:  CALL   4518
08C10:  MOVLW  3A
08C12:  BTFSS  F9E.4
08C14:  BRA    8C12
08C16:  MOVWF  FAD
08C18:  MOVFF  379,3D1
08C1C:  MOVLW  01
08C1E:  MOVLB  3
08C20:  MOVWF  xD2
08C22:  MOVLB  0
08C24:  CALL   4518
08C28:  MOVLW  3A
08C2A:  BTFSS  F9E.4
08C2C:  BRA    8C2A
08C2E:  MOVWF  FAD
08C30:  MOVFF  37A,3D1
08C34:  MOVLW  01
08C36:  MOVLB  3
08C38:  MOVWF  xD2
08C3A:  MOVLB  0
08C3C:  CALL   4518
08C40:  MOVLW  22
08C42:  BTFSS  F9E.4
08C44:  BRA    8C42
08C46:  MOVWF  FAD
....................       SendDataDisplay(); 
08C48:  CALL   3608
....................       GuardaEEPROM=OFF; 
08C4C:  BCF    xA2.4
....................        
....................       if(RX_Buffer[4]>0x00 && RX_Buffer[4]<0x04){//Personalizados 
08C4E:  MOVF   34,F
08C50:  BTFSC  FD8.2
08C52:  BRA    8E80
08C54:  MOVF   34,W
08C56:  SUBLW  03
08C58:  BTFSS  FD8.0
08C5A:  BRA    8E80
....................          printf("ciclo.txt=\"CICLO P%02u\"",RX_Buffer[4]+0x04); 
08C5C:  MOVLW  04
08C5E:  ADDWF  34,W
08C60:  MOVLB  3
08C62:  MOVWF  xCF
08C64:  MOVLW  C8
08C66:  MOVWF  FF6
08C68:  MOVLW  0D
08C6A:  MOVWF  FF7
08C6C:  MOVLW  00
08C6E:  MOVWF  FF8
08C70:  MOVLW  12
08C72:  MOVWF  xD3
08C74:  MOVLB  0
08C76:  CALL   44BA
08C7A:  MOVFF  3CF,3D1
08C7E:  MOVLW  01
08C80:  MOVLB  3
08C82:  MOVWF  xD2
08C84:  MOVLB  0
08C86:  CALL   4518
08C8A:  MOVLW  22
08C8C:  BTFSS  F9E.4
08C8E:  BRA    8C8C
08C90:  MOVWF  FAD
....................          SendDataDisplay();           
08C92:  CALL   3608
....................          printf("temp.txt=\"%u\"",CiclosPersonalizados[RX_Buffer[4]-1].Temperatura); 
08C96:  MOVLW  01
08C98:  SUBWF  34,W
08C9A:  MULLW  0A
08C9C:  MOVF   FF3,W
08C9E:  MOVLB  3
08CA0:  CLRF   xD0
08CA2:  MOVWF  xCF
08CA4:  MOVLW  A7
08CA6:  ADDWF  xCF,W
08CA8:  MOVWF  FE9
08CAA:  MOVLW  03
08CAC:  ADDWFC xD0,W
08CAE:  MOVWF  FEA
08CB0:  MOVFF  FEF,3CF
08CB4:  MOVLW  E0
08CB6:  MOVWF  FF6
08CB8:  MOVLW  0D
08CBA:  MOVWF  FF7
08CBC:  MOVLW  00
08CBE:  MOVWF  FF8
08CC0:  MOVLW  0A
08CC2:  MOVWF  xD3
08CC4:  MOVLB  0
08CC6:  CALL   44BA
08CCA:  MOVFF  3CF,3D1
08CCE:  MOVLW  1B
08CD0:  MOVLB  3
08CD2:  MOVWF  xD2
08CD4:  MOVLB  0
08CD6:  CALL   4518
08CDA:  MOVLW  22
08CDC:  BTFSS  F9E.4
08CDE:  BRA    8CDC
08CE0:  MOVWF  FAD
....................          SendDataDisplay(); 
08CE2:  CALL   3608
....................          printf("test.txt=\"%02u:%02u\"",CiclosPersonalizados[RX_Buffer[4]-1].Minutoest,CiclosPersonalizados[RX_Buffer[4]-1].Segundoest); 
08CE6:  MOVLW  01
08CE8:  SUBWF  34,W
08CEA:  MULLW  0A
08CEC:  MOVF   FF3,W
08CEE:  MOVLB  3
08CF0:  CLRF   xD0
08CF2:  MOVWF  xCF
08CF4:  MOVLW  09
08CF6:  ADDWF  xCF,W
08CF8:  MOVWF  01
08CFA:  MOVLW  00
08CFC:  ADDWFC xD0,W
08CFE:  MOVWF  03
08D00:  MOVF   01,W
08D02:  ADDLW  A7
08D04:  MOVWF  FE9
08D06:  MOVLW  03
08D08:  ADDWFC 03,W
08D0A:  MOVWF  FEA
08D0C:  MOVFF  FEF,3CF
08D10:  MOVLW  01
08D12:  SUBWF  34,W
08D14:  MULLW  0A
08D16:  MOVF   FF3,W
08D18:  CLRF   xD1
08D1A:  MOVWF  xD0
08D1C:  MOVLW  03
08D1E:  ADDWF  xD0,W
08D20:  MOVWF  01
08D22:  MOVLW  00
08D24:  ADDWFC xD1,W
08D26:  MOVWF  03
08D28:  MOVF   01,W
08D2A:  ADDLW  A7
08D2C:  MOVWF  FE9
08D2E:  MOVLW  03
08D30:  ADDWFC 03,W
08D32:  MOVWF  FEA
08D34:  MOVFF  FEF,3D0
08D38:  MOVLW  EE
08D3A:  MOVWF  FF6
08D3C:  MOVLW  0D
08D3E:  MOVWF  FF7
08D40:  MOVLW  00
08D42:  MOVWF  FF8
08D44:  MOVLW  0A
08D46:  MOVWF  xD3
08D48:  MOVLB  0
08D4A:  CALL   44BA
08D4E:  MOVFF  3CF,3D1
08D52:  MOVLW  01
08D54:  MOVLB  3
08D56:  MOVWF  xD2
08D58:  MOVLB  0
08D5A:  CALL   4518
08D5E:  MOVLW  3A
08D60:  BTFSS  F9E.4
08D62:  BRA    8D60
08D64:  MOVWF  FAD
08D66:  MOVFF  3D0,3D1
08D6A:  MOVLW  01
08D6C:  MOVLB  3
08D6E:  MOVWF  xD2
08D70:  MOVLB  0
08D72:  CALL   4518
08D76:  MOVLW  22
08D78:  BTFSS  F9E.4
08D7A:  BRA    8D78
08D7C:  MOVWF  FAD
....................          SendDataDisplay(); 
08D7E:  CALL   3608
....................          printf("tsec.txt=\"%02u:%02u\"",CiclosPersonalizados[RX_Buffer[4]-1].Minutosec,CiclosPersonalizados[RX_Buffer[4]-1].Segundosec); 
08D82:  MOVLW  01
08D84:  SUBWF  34,W
08D86:  MULLW  0A
08D88:  MOVF   FF3,W
08D8A:  MOVLB  3
08D8C:  CLRF   xD0
08D8E:  MOVWF  xCF
08D90:  MOVLW  04
08D92:  ADDWF  xCF,W
08D94:  MOVWF  01
08D96:  MOVLW  00
08D98:  ADDWFC xD0,W
08D9A:  MOVWF  03
08D9C:  MOVF   01,W
08D9E:  ADDLW  A7
08DA0:  MOVWF  FE9
08DA2:  MOVLW  03
08DA4:  ADDWFC 03,W
08DA6:  MOVWF  FEA
08DA8:  MOVFF  FEF,3CF
08DAC:  MOVLW  01
08DAE:  SUBWF  34,W
08DB0:  MULLW  0A
08DB2:  MOVF   FF3,W
08DB4:  CLRF   xD1
08DB6:  MOVWF  xD0
08DB8:  MOVLW  05
08DBA:  ADDWF  xD0,W
08DBC:  MOVWF  01
08DBE:  MOVLW  00
08DC0:  ADDWFC xD1,W
08DC2:  MOVWF  03
08DC4:  MOVF   01,W
08DC6:  ADDLW  A7
08DC8:  MOVWF  FE9
08DCA:  MOVLW  03
08DCC:  ADDWFC 03,W
08DCE:  MOVWF  FEA
08DD0:  MOVFF  FEF,3D0
08DD4:  MOVLW  04
08DD6:  MOVWF  FF6
08DD8:  MOVLW  0E
08DDA:  MOVWF  FF7
08DDC:  MOVLW  00
08DDE:  MOVWF  FF8
08DE0:  MOVLW  0A
08DE2:  MOVWF  xD3
08DE4:  MOVLB  0
08DE6:  CALL   44BA
08DEA:  MOVFF  3CF,3D1
08DEE:  MOVLW  01
08DF0:  MOVLB  3
08DF2:  MOVWF  xD2
08DF4:  MOVLB  0
08DF6:  CALL   4518
08DFA:  MOVLW  3A
08DFC:  BTFSS  F9E.4
08DFE:  BRA    8DFC
08E00:  MOVWF  FAD
08E02:  MOVFF  3D0,3D1
08E06:  MOVLW  01
08E08:  MOVLB  3
08E0A:  MOVWF  xD2
08E0C:  MOVLB  0
08E0E:  CALL   4518
08E12:  MOVLW  22
08E14:  BTFSS  F9E.4
08E16:  BRA    8E14
08E18:  MOVWF  FAD
....................          SendDataDisplay(); 
08E1A:  CALL   3608
....................          printf("desfogue.txt=\"%u\"",CiclosPersonalizados[RX_Buffer[4]-1].NivelDesfogue); 
08E1E:  MOVLW  01
08E20:  SUBWF  34,W
08E22:  MULLW  0A
08E24:  MOVF   FF3,W
08E26:  MOVLB  3
08E28:  CLRF   xD0
08E2A:  MOVWF  xCF
08E2C:  MOVLW  08
08E2E:  ADDWF  xCF,W
08E30:  MOVWF  01
08E32:  MOVLW  00
08E34:  ADDWFC xD0,W
08E36:  MOVWF  03
08E38:  MOVF   01,W
08E3A:  ADDLW  A7
08E3C:  MOVWF  FE9
08E3E:  MOVLW  03
08E40:  ADDWFC 03,W
08E42:  MOVWF  FEA
08E44:  MOVFF  FEF,3CF
08E48:  MOVLW  1A
08E4A:  MOVWF  FF6
08E4C:  MOVLW  0E
08E4E:  MOVWF  FF7
08E50:  MOVLW  00
08E52:  MOVWF  FF8
08E54:  MOVLW  0E
08E56:  MOVWF  xD3
08E58:  MOVLB  0
08E5A:  CALL   44BA
08E5E:  MOVFF  3CF,3D1
08E62:  MOVLW  1B
08E64:  MOVLB  3
08E66:  MOVWF  xD2
08E68:  MOVLB  0
08E6A:  CALL   4518
08E6E:  MOVLW  22
08E70:  BTFSS  F9E.4
08E72:  BRA    8E70
08E74:  MOVWF  FAD
....................          SendDataDisplay(); 
08E76:  CALL   3608
....................          CicloLibre=RX_Buffer[4]; 
08E7A:  MOVFF  34,32B
....................       }else if(CicloLibre==0x00){ 
08E7E:  BRA    911A
08E80:  MOVLB  3
08E82:  MOVF   x2B,F
08E84:  BNZ   8EF0
....................          printf("ciclo.txt=\"CICLO P--\""); 
08E86:  MOVLW  2C
08E88:  MOVWF  FF6
08E8A:  MOVLW  0E
08E8C:  MOVWF  FF7
08E8E:  MOVLW  00
08E90:  MOVWF  FF8
08E92:  MOVLB  0
08E94:  CALL   35D6
....................          SendDataDisplay();           
08E98:  CALL   3608
....................          printf("temp.txt=\"--\""); 
08E9C:  MOVLW  42
08E9E:  MOVWF  FF6
08EA0:  MOVLW  0E
08EA2:  MOVWF  FF7
08EA4:  MOVLW  00
08EA6:  MOVWF  FF8
08EA8:  CALL   35D6
....................          SendDataDisplay(); 
08EAC:  CALL   3608
....................          printf("test.txt=\"--:--\""); 
08EB0:  MOVLW  50
08EB2:  MOVWF  FF6
08EB4:  MOVLW  0E
08EB6:  MOVWF  FF7
08EB8:  MOVLW  00
08EBA:  MOVWF  FF8
08EBC:  CALL   35D6
....................          SendDataDisplay(); 
08EC0:  CALL   3608
....................          printf("tsec.txt=\"--:--\""); 
08EC4:  MOVLW  62
08EC6:  MOVWF  FF6
08EC8:  MOVLW  0E
08ECA:  MOVWF  FF7
08ECC:  MOVLW  00
08ECE:  MOVWF  FF8
08ED0:  CALL   35D6
....................          SendDataDisplay(); 
08ED4:  CALL   3608
....................          printf("desfogue.txt=\"--\""); 
08ED8:  MOVLW  74
08EDA:  MOVWF  FF6
08EDC:  MOVLW  0E
08EDE:  MOVWF  FF7
08EE0:  MOVLW  00
08EE2:  MOVWF  FF8
08EE4:  CALL   35D6
....................          SendDataDisplay(); 
08EE8:  CALL   3608
....................       }else if(CicloLibre>0 && CicloLibre<4){ 
08EEC:  BRA    911A
08EEE:  MOVLB  3
08EF0:  MOVF   x2B,F
08EF2:  BTFSC  FD8.2
08EF4:  BRA    911C
08EF6:  MOVF   x2B,W
08EF8:  SUBLW  03
08EFA:  BTFSS  FD8.0
08EFC:  BRA    911C
....................          printf("ciclo.txt=\"CICLO P%02u\"",CicloLibre+0x04); 
08EFE:  MOVLW  04
08F00:  ADDWF  x2B,W
08F02:  MOVWF  xCF
08F04:  MOVLW  86
08F06:  MOVWF  FF6
08F08:  MOVLW  0E
08F0A:  MOVWF  FF7
08F0C:  MOVLW  00
08F0E:  MOVWF  FF8
08F10:  MOVLW  12
08F12:  MOVWF  xD3
08F14:  MOVLB  0
08F16:  CALL   44BA
08F1A:  MOVFF  3CF,3D1
08F1E:  MOVLW  01
08F20:  MOVLB  3
08F22:  MOVWF  xD2
08F24:  MOVLB  0
08F26:  CALL   4518
08F2A:  MOVLW  22
08F2C:  BTFSS  F9E.4
08F2E:  BRA    8F2C
08F30:  MOVWF  FAD
....................          SendDataDisplay();           
08F32:  CALL   3608
....................          printf("temp.txt=\"%u\"",CiclosPersonalizados[CicloLibre-1].Temperatura); 
08F36:  MOVLW  01
08F38:  MOVLB  3
08F3A:  SUBWF  x2B,W
08F3C:  MULLW  0A
08F3E:  MOVF   FF3,W
08F40:  CLRF   xD0
08F42:  MOVWF  xCF
08F44:  MOVLW  A7
08F46:  ADDWF  xCF,W
08F48:  MOVWF  FE9
08F4A:  MOVLW  03
08F4C:  ADDWFC xD0,W
08F4E:  MOVWF  FEA
08F50:  MOVFF  FEF,3CF
08F54:  MOVLW  9E
08F56:  MOVWF  FF6
08F58:  MOVLW  0E
08F5A:  MOVWF  FF7
08F5C:  MOVLW  00
08F5E:  MOVWF  FF8
08F60:  MOVLW  0A
08F62:  MOVWF  xD3
08F64:  MOVLB  0
08F66:  CALL   44BA
08F6A:  MOVFF  3CF,3D1
08F6E:  MOVLW  1B
08F70:  MOVLB  3
08F72:  MOVWF  xD2
08F74:  MOVLB  0
08F76:  CALL   4518
08F7A:  MOVLW  22
08F7C:  BTFSS  F9E.4
08F7E:  BRA    8F7C
08F80:  MOVWF  FAD
....................          SendDataDisplay(); 
08F82:  CALL   3608
....................          printf("test.txt=\"%02u:%02u\"",CiclosPersonalizados[CicloLibre-1].Minutoest,CiclosPersonalizados[CicloLibre-1].Segundoest); 
08F86:  MOVLW  01
08F88:  MOVLB  3
08F8A:  SUBWF  x2B,W
08F8C:  MULLW  0A
08F8E:  MOVF   FF3,W
08F90:  CLRF   xD0
08F92:  MOVWF  xCF
08F94:  MOVLW  09
08F96:  ADDWF  xCF,W
08F98:  MOVWF  01
08F9A:  MOVLW  00
08F9C:  ADDWFC xD0,W
08F9E:  MOVWF  03
08FA0:  MOVF   01,W
08FA2:  ADDLW  A7
08FA4:  MOVWF  FE9
08FA6:  MOVLW  03
08FA8:  ADDWFC 03,W
08FAA:  MOVWF  FEA
08FAC:  MOVFF  FEF,3CF
08FB0:  MOVLW  01
08FB2:  SUBWF  x2B,W
08FB4:  MULLW  0A
08FB6:  MOVF   FF3,W
08FB8:  CLRF   xD1
08FBA:  MOVWF  xD0
08FBC:  MOVLW  03
08FBE:  ADDWF  xD0,W
08FC0:  MOVWF  01
08FC2:  MOVLW  00
08FC4:  ADDWFC xD1,W
08FC6:  MOVWF  03
08FC8:  MOVF   01,W
08FCA:  ADDLW  A7
08FCC:  MOVWF  FE9
08FCE:  MOVLW  03
08FD0:  ADDWFC 03,W
08FD2:  MOVWF  FEA
08FD4:  MOVFF  FEF,3D0
08FD8:  MOVLW  AC
08FDA:  MOVWF  FF6
08FDC:  MOVLW  0E
08FDE:  MOVWF  FF7
08FE0:  MOVLW  00
08FE2:  MOVWF  FF8
08FE4:  MOVLW  0A
08FE6:  MOVWF  xD3
08FE8:  MOVLB  0
08FEA:  CALL   44BA
08FEE:  MOVFF  3CF,3D1
08FF2:  MOVLW  01
08FF4:  MOVLB  3
08FF6:  MOVWF  xD2
08FF8:  MOVLB  0
08FFA:  CALL   4518
08FFE:  MOVLW  3A
09000:  BTFSS  F9E.4
09002:  BRA    9000
09004:  MOVWF  FAD
09006:  MOVFF  3D0,3D1
0900A:  MOVLW  01
0900C:  MOVLB  3
0900E:  MOVWF  xD2
09010:  MOVLB  0
09012:  CALL   4518
09016:  MOVLW  22
09018:  BTFSS  F9E.4
0901A:  BRA    9018
0901C:  MOVWF  FAD
....................          SendDataDisplay(); 
0901E:  CALL   3608
....................          printf("tsec.txt=\"%02u:%02u\"",CiclosPersonalizados[CicloLibre-1].Minutosec,CiclosPersonalizados[CicloLibre-1].Segundosec); 
09022:  MOVLW  01
09024:  MOVLB  3
09026:  SUBWF  x2B,W
09028:  MULLW  0A
0902A:  MOVF   FF3,W
0902C:  CLRF   xD0
0902E:  MOVWF  xCF
09030:  MOVLW  04
09032:  ADDWF  xCF,W
09034:  MOVWF  01
09036:  MOVLW  00
09038:  ADDWFC xD0,W
0903A:  MOVWF  03
0903C:  MOVF   01,W
0903E:  ADDLW  A7
09040:  MOVWF  FE9
09042:  MOVLW  03
09044:  ADDWFC 03,W
09046:  MOVWF  FEA
09048:  MOVFF  FEF,3CF
0904C:  MOVLW  01
0904E:  SUBWF  x2B,W
09050:  MULLW  0A
09052:  MOVF   FF3,W
09054:  CLRF   xD1
09056:  MOVWF  xD0
09058:  MOVLW  05
0905A:  ADDWF  xD0,W
0905C:  MOVWF  01
0905E:  MOVLW  00
09060:  ADDWFC xD1,W
09062:  MOVWF  03
09064:  MOVF   01,W
09066:  ADDLW  A7
09068:  MOVWF  FE9
0906A:  MOVLW  03
0906C:  ADDWFC 03,W
0906E:  MOVWF  FEA
09070:  MOVFF  FEF,3D0
09074:  MOVLW  C2
09076:  MOVWF  FF6
09078:  MOVLW  0E
0907A:  MOVWF  FF7
0907C:  MOVLW  00
0907E:  MOVWF  FF8
09080:  MOVLW  0A
09082:  MOVWF  xD3
09084:  MOVLB  0
09086:  CALL   44BA
0908A:  MOVFF  3CF,3D1
0908E:  MOVLW  01
09090:  MOVLB  3
09092:  MOVWF  xD2
09094:  MOVLB  0
09096:  CALL   4518
0909A:  MOVLW  3A
0909C:  BTFSS  F9E.4
0909E:  BRA    909C
090A0:  MOVWF  FAD
090A2:  MOVFF  3D0,3D1
090A6:  MOVLW  01
090A8:  MOVLB  3
090AA:  MOVWF  xD2
090AC:  MOVLB  0
090AE:  CALL   4518
090B2:  MOVLW  22
090B4:  BTFSS  F9E.4
090B6:  BRA    90B4
090B8:  MOVWF  FAD
....................          SendDataDisplay(); 
090BA:  CALL   3608
....................          printf("desfogue.txt=\"%u\"",CiclosPersonalizados[CicloLibre-1].NivelDesfogue); 
090BE:  MOVLW  01
090C0:  MOVLB  3
090C2:  SUBWF  x2B,W
090C4:  MULLW  0A
090C6:  MOVF   FF3,W
090C8:  CLRF   xD0
090CA:  MOVWF  xCF
090CC:  MOVLW  08
090CE:  ADDWF  xCF,W
090D0:  MOVWF  01
090D2:  MOVLW  00
090D4:  ADDWFC xD0,W
090D6:  MOVWF  03
090D8:  MOVF   01,W
090DA:  ADDLW  A7
090DC:  MOVWF  FE9
090DE:  MOVLW  03
090E0:  ADDWFC 03,W
090E2:  MOVWF  FEA
090E4:  MOVFF  FEF,3CF
090E8:  MOVLW  D8
090EA:  MOVWF  FF6
090EC:  MOVLW  0E
090EE:  MOVWF  FF7
090F0:  MOVLW  00
090F2:  MOVWF  FF8
090F4:  MOVLW  0E
090F6:  MOVWF  xD3
090F8:  MOVLB  0
090FA:  CALL   44BA
090FE:  MOVFF  3CF,3D1
09102:  MOVLW  1B
09104:  MOVLB  3
09106:  MOVWF  xD2
09108:  MOVLB  0
0910A:  CALL   4518
0910E:  MOVLW  22
09110:  BTFSS  F9E.4
09112:  BRA    9110
09114:  MOVWF  FAD
....................          SendDataDisplay(); 
09116:  CALL   3608
0911A:  MOVLB  3
....................       } 
....................        
....................       if(RIGHT){ 
0911C:  BSF    F93.2
0911E:  BTFSC  F81.2
09120:  BRA    9136
....................          delay_ms(100); 
09122:  MOVLW  64
09124:  MOVWF  xE4
09126:  MOVLB  0
09128:  CALL   1806
....................          if(RIGHT){ 
0912C:  BSF    F93.2
0912E:  BTFSC  F81.2
09130:  BRA    9138
....................             CicloLibre++; 
09132:  MOVLB  3
09134:  INCF   x2B,F
09136:  MOVLB  0
....................          } 
....................       }       
....................        
....................       if(CicloLibre<1) 
09138:  MOVLB  3
0913A:  MOVF   x2B,F
0913C:  BNZ   9142
....................          CicloLibre=1; 
0913E:  MOVLW  01
09140:  MOVWF  x2B
....................       if(CicloLibre>4) 
09142:  MOVF   x2B,W
09144:  SUBLW  04
09146:  BC    914C
....................          CicloLibre=4; 
09148:  MOVLW  04
0914A:  MOVWF  x2B
....................        
....................       if(RX_Buffer[4]==0xa0 || LEFT){//a0, Menu Principal 
0914C:  MOVF   34,W
0914E:  SUBLW  A0
09150:  BZ    9158
09152:  BSF    F93.3
09154:  BTFSC  F81.3
09156:  BRA    918E
....................          delay_ms(100); 
09158:  MOVLW  64
0915A:  MOVWF  xE4
0915C:  MOVLB  0
0915E:  CALL   1806
....................          if(RX_Buffer[4]==0xa0 || LEFT){ 
09162:  MOVF   34,W
09164:  SUBLW  A0
09166:  BZ    916E
09168:  BSF    F93.3
0916A:  BTFSC  F81.3
0916C:  BRA    918C
....................             printf("page MenuPrincipal"); 
0916E:  MOVLW  EA
09170:  MOVWF  FF6
09172:  MOVLW  0E
09174:  MOVWF  FF7
09176:  MOVLW  00
09178:  MOVWF  FF8
0917A:  CALL   35D6
....................             SendDataDisplay();      
0917E:  CALL   3608
....................             PantallaPrincipal=0; 
09182:  MOVLB  2
09184:  CLRF   xD1
....................             Op=OFF; 
09186:  MOVLB  0
09188:  BCF    xA2.0
....................             Op2=OFF; 
0918A:  BCF    xA2.1
0918C:  MOVLB  3
....................          } 
....................       } 
....................        
....................       if(RX_Buffer[4]==0x20 && CicloLibre>0){//20, Temperatura 
0918E:  MOVF   34,W
09190:  SUBLW  20
09192:  BNZ   91CC
09194:  MOVF   x2B,F
09196:  BZ    91CC
....................             printf("page Temperatura"); 
09198:  MOVLW  FE
0919A:  MOVWF  FF6
0919C:  MOVLW  0E
0919E:  MOVWF  FF7
091A0:  MOVLW  00
091A2:  MOVWF  FF8
091A4:  MOVLB  0
091A6:  CALL   35D6
....................             SendDataDisplay();      
091AA:  CALL   3608
....................             Setpoint=CiclosPersonalizados[CicloLibre-1].Temperatura; 
091AE:  MOVLW  01
091B0:  MOVLB  3
091B2:  SUBWF  x2B,W
091B4:  MULLW  0A
091B6:  MOVF   FF3,W
091B8:  CLRF   xD0
091BA:  MOVWF  xCF
091BC:  MOVLW  A7
091BE:  ADDWF  xCF,W
091C0:  MOVWF  FE9
091C2:  MOVLW  03
091C4:  ADDWFC xD0,W
091C6:  MOVWF  FEA
091C8:  MOVFF  FEF,33E
....................       } 
....................        
....................       if(RX_Buffer[4]==0x30 && CicloLibre>0){//30, Test 
091CC:  MOVF   34,W
091CE:  SUBLW  30
091D0:  BTFSS  FD8.2
091D2:  BRA    92E6
091D4:  MOVF   x2B,F
091D6:  BTFSC  FD8.2
091D8:  BRA    92E6
....................             printf("page TiempoEst"); 
091DA:  MOVLW  10
091DC:  MOVWF  FF6
091DE:  MOVLW  0F
091E0:  MOVWF  FF7
091E2:  MOVLW  00
091E4:  MOVWF  FF8
091E6:  MOVLB  0
091E8:  CALL   35D6
....................             SendDataDisplay();      
091EC:  CALL   3608
....................             Testerilizacionp[3]=CiclosPersonalizados[CicloLibre-1].Minutoest/10; 
091F0:  MOVLW  01
091F2:  MOVLB  3
091F4:  SUBWF  x2B,W
091F6:  MULLW  0A
091F8:  MOVF   FF3,W
091FA:  CLRF   xD0
091FC:  MOVWF  xCF
091FE:  MOVLW  09
09200:  ADDWF  xCF,W
09202:  MOVWF  01
09204:  MOVLW  00
09206:  ADDWFC xD0,W
09208:  MOVWF  03
0920A:  MOVF   01,W
0920C:  ADDLW  A7
0920E:  MOVWF  FE9
09210:  MOVLW  03
09212:  ADDWFC 03,W
09214:  MOVWF  FEA
09216:  MOVFF  FEF,3D9
0921A:  MOVLW  0A
0921C:  MOVWF  xDA
0921E:  MOVLB  0
09220:  CALL   44EC
09224:  MOVFF  01,B9
....................             Testerilizacionp[2]=CiclosPersonalizados[CicloLibre-1].Minutoest-(Testerilizacionp[3]*10); 
09228:  MOVLW  01
0922A:  MOVLB  3
0922C:  SUBWF  x2B,W
0922E:  MULLW  0A
09230:  MOVF   FF3,W
09232:  CLRF   xD0
09234:  MOVWF  xCF
09236:  MOVLW  09
09238:  ADDWF  xCF,W
0923A:  MOVWF  01
0923C:  MOVLW  00
0923E:  ADDWFC xD0,W
09240:  MOVWF  03
09242:  MOVF   01,W
09244:  ADDLW  A7
09246:  MOVWF  FE9
09248:  MOVLW  03
0924A:  ADDWFC 03,W
0924C:  MOVWF  FEA
0924E:  MOVFF  FEF,3CF
09252:  MOVFF  B9,3D1
09256:  MOVLW  0A
09258:  MOVWF  xD2
0925A:  MOVLB  0
0925C:  CALL   2ADA
09260:  MOVF   01,W
09262:  MOVLB  3
09264:  SUBWF  xCF,W
09266:  MOVLB  0
09268:  MOVWF  xB8
....................             Testerilizacionp[1]=CiclosPersonalizados[CicloLibre-1].Segundoest/10; 
0926A:  MOVLW  01
0926C:  MOVLB  3
0926E:  SUBWF  x2B,W
09270:  MULLW  0A
09272:  MOVF   FF3,W
09274:  CLRF   xD0
09276:  MOVWF  xCF
09278:  MOVLW  03
0927A:  ADDWF  xCF,W
0927C:  MOVWF  01
0927E:  MOVLW  00
09280:  ADDWFC xD0,W
09282:  MOVWF  03
09284:  MOVF   01,W
09286:  ADDLW  A7
09288:  MOVWF  FE9
0928A:  MOVLW  03
0928C:  ADDWFC 03,W
0928E:  MOVWF  FEA
09290:  MOVFF  FEF,3D9
09294:  MOVLW  0A
09296:  MOVWF  xDA
09298:  MOVLB  0
0929A:  CALL   44EC
0929E:  MOVFF  01,B7
....................             Testerilizacionp[0]=CiclosPersonalizados[CicloLibre-1].Segundoest-(Testerilizacionp[1]*10); 
092A2:  MOVLW  01
092A4:  MOVLB  3
092A6:  SUBWF  x2B,W
092A8:  MULLW  0A
092AA:  MOVF   FF3,W
092AC:  CLRF   xD0
092AE:  MOVWF  xCF
092B0:  MOVLW  03
092B2:  ADDWF  xCF,W
092B4:  MOVWF  01
092B6:  MOVLW  00
092B8:  ADDWFC xD0,W
092BA:  MOVWF  03
092BC:  MOVF   01,W
092BE:  ADDLW  A7
092C0:  MOVWF  FE9
092C2:  MOVLW  03
092C4:  ADDWFC 03,W
092C6:  MOVWF  FEA
092C8:  MOVFF  FEF,3CF
092CC:  MOVFF  B7,3D1
092D0:  MOVLW  0A
092D2:  MOVWF  xD2
092D4:  MOVLB  0
092D6:  CALL   2ADA
092DA:  MOVF   01,W
092DC:  MOVLB  3
092DE:  SUBWF  xCF,W
092E0:  MOVLB  0
092E2:  MOVWF  xB6
092E4:  MOVLB  3
....................       } 
....................        
....................       if(RX_Buffer[4]==0x40 && CicloLibre>0){//30, Test 
092E6:  MOVF   34,W
092E8:  SUBLW  40
092EA:  BTFSS  FD8.2
092EC:  BRA    9400
092EE:  MOVF   x2B,F
092F0:  BTFSC  FD8.2
092F2:  BRA    9400
....................             printf("page TiempoSec"); 
092F4:  MOVLW  20
092F6:  MOVWF  FF6
092F8:  MOVLW  0F
092FA:  MOVWF  FF7
092FC:  MOVLW  00
092FE:  MOVWF  FF8
09300:  MOVLB  0
09302:  CALL   35D6
....................             SendDataDisplay();      
09306:  CALL   3608
....................             Tsecadop[3]=CiclosPersonalizados[CicloLibre-1].Minutosec/10; 
0930A:  MOVLW  01
0930C:  MOVLB  3
0930E:  SUBWF  x2B,W
09310:  MULLW  0A
09312:  MOVF   FF3,W
09314:  CLRF   xD0
09316:  MOVWF  xCF
09318:  MOVLW  04
0931A:  ADDWF  xCF,W
0931C:  MOVWF  01
0931E:  MOVLW  00
09320:  ADDWFC xD0,W
09322:  MOVWF  03
09324:  MOVF   01,W
09326:  ADDLW  A7
09328:  MOVWF  FE9
0932A:  MOVLW  03
0932C:  ADDWFC 03,W
0932E:  MOVWF  FEA
09330:  MOVFF  FEF,3D9
09334:  MOVLW  0A
09336:  MOVWF  xDA
09338:  MOVLB  0
0933A:  CALL   44EC
0933E:  MOVFF  01,C2
....................             Tsecadop[2]=CiclosPersonalizados[CicloLibre-1].Minutosec-(Tsecadop[3]*10); 
09342:  MOVLW  01
09344:  MOVLB  3
09346:  SUBWF  x2B,W
09348:  MULLW  0A
0934A:  MOVF   FF3,W
0934C:  CLRF   xD0
0934E:  MOVWF  xCF
09350:  MOVLW  04
09352:  ADDWF  xCF,W
09354:  MOVWF  01
09356:  MOVLW  00
09358:  ADDWFC xD0,W
0935A:  MOVWF  03
0935C:  MOVF   01,W
0935E:  ADDLW  A7
09360:  MOVWF  FE9
09362:  MOVLW  03
09364:  ADDWFC 03,W
09366:  MOVWF  FEA
09368:  MOVFF  FEF,3CF
0936C:  MOVFF  C2,3D1
09370:  MOVLW  0A
09372:  MOVWF  xD2
09374:  MOVLB  0
09376:  CALL   2ADA
0937A:  MOVF   01,W
0937C:  MOVLB  3
0937E:  SUBWF  xCF,W
09380:  MOVLB  0
09382:  MOVWF  xC1
....................             Tsecadop[1]=CiclosPersonalizados[CicloLibre-1].Segundosec/10; 
09384:  MOVLW  01
09386:  MOVLB  3
09388:  SUBWF  x2B,W
0938A:  MULLW  0A
0938C:  MOVF   FF3,W
0938E:  CLRF   xD0
09390:  MOVWF  xCF
09392:  MOVLW  05
09394:  ADDWF  xCF,W
09396:  MOVWF  01
09398:  MOVLW  00
0939A:  ADDWFC xD0,W
0939C:  MOVWF  03
0939E:  MOVF   01,W
093A0:  ADDLW  A7
093A2:  MOVWF  FE9
093A4:  MOVLW  03
093A6:  ADDWFC 03,W
093A8:  MOVWF  FEA
093AA:  MOVFF  FEF,3D9
093AE:  MOVLW  0A
093B0:  MOVWF  xDA
093B2:  MOVLB  0
093B4:  CALL   44EC
093B8:  MOVFF  01,C0
....................             Tsecadop[0]=CiclosPersonalizados[CicloLibre-1].Segundosec-(Tsecadop[1]*10); 
093BC:  MOVLW  01
093BE:  MOVLB  3
093C0:  SUBWF  x2B,W
093C2:  MULLW  0A
093C4:  MOVF   FF3,W
093C6:  CLRF   xD0
093C8:  MOVWF  xCF
093CA:  MOVLW  05
093CC:  ADDWF  xCF,W
093CE:  MOVWF  01
093D0:  MOVLW  00
093D2:  ADDWFC xD0,W
093D4:  MOVWF  03
093D6:  MOVF   01,W
093D8:  ADDLW  A7
093DA:  MOVWF  FE9
093DC:  MOVLW  03
093DE:  ADDWFC 03,W
093E0:  MOVWF  FEA
093E2:  MOVFF  FEF,3CF
093E6:  MOVFF  C0,3D1
093EA:  MOVLW  0A
093EC:  MOVWF  xD2
093EE:  MOVLB  0
093F0:  CALL   2ADA
093F4:  MOVF   01,W
093F6:  MOVLB  3
093F8:  SUBWF  xCF,W
093FA:  MOVLB  0
093FC:  MOVWF  xBF
093FE:  MOVLB  3
....................       } 
....................        
....................       if(RX_Buffer[4]==0x80 && CicloLibre>0){//80, NivelDesfogue          
09400:  MOVF   34,W
09402:  SUBLW  80
09404:  BNZ   9450
09406:  MOVF   x2B,F
09408:  BZ    9450
....................             printf("page Nivel"); 
0940A:  MOVLW  30
0940C:  MOVWF  FF6
0940E:  MOVLW  0F
09410:  MOVWF  FF7
09412:  MOVLW  00
09414:  MOVWF  FF8
09416:  MOVLB  0
09418:  CALL   35D6
....................             SendDataDisplay();      
0941C:  CALL   3608
....................             Nivel=CiclosPersonalizados[CicloLibre-1].NivelDesfogue;          
09420:  MOVLW  01
09422:  MOVLB  3
09424:  SUBWF  x2B,W
09426:  MULLW  0A
09428:  MOVF   FF3,W
0942A:  CLRF   xD0
0942C:  MOVWF  xCF
0942E:  MOVLW  08
09430:  ADDWF  xCF,W
09432:  MOVWF  01
09434:  MOVLW  00
09436:  ADDWFC xD0,W
09438:  MOVWF  03
0943A:  MOVF   01,W
0943C:  ADDLW  A7
0943E:  MOVWF  FE9
09440:  MOVLW  03
09442:  ADDWFC 03,W
09444:  MOVWF  FEA
09446:  MOVF   FEF,W
09448:  CLRF   03
0944A:  MOVWF  x4C
0944C:  MOVFF  03,34D
....................       } 
....................        
....................       if((RX_Buffer[4]==0x70 || UP)&& CicloLibre>0){//70, Iniciar Ciclo 
09450:  MOVF   34,W
09452:  SUBLW  70
09454:  BZ    945C
09456:  BSF    F93.0
09458:  BTFSC  F81.0
0945A:  BRA    993C
0945C:  MOVF   x2B,F
0945E:  BTFSC  FD8.2
09460:  BRA    993C
....................          delay_ms(100); 
09462:  MOVLW  64
09464:  MOVWF  xE4
09466:  MOVLB  0
09468:  CALL   1806
....................          if((RX_Buffer[4]==0x70 || UP)&& CicloLibre>0){ 
0946C:  MOVF   34,W
0946E:  SUBLW  70
09470:  BZ    9478
09472:  BSF    F93.0
09474:  BTFSC  F81.0
09476:  BRA    993A
09478:  MOVLB  3
0947A:  MOVF   x2B,F
0947C:  BTFSS  FD8.2
0947E:  BRA    9484
09480:  MOVLB  0
09482:  BRA    993A
....................             printf("page Funcionamiento"); 
09484:  MOVLW  3C
09486:  MOVWF  FF6
09488:  MOVLW  0F
0948A:  MOVWF  FF7
0948C:  MOVLW  00
0948E:  MOVWF  FF8
09490:  MOVLB  0
09492:  CALL   35D6
....................             SendDataDisplay();        
09496:  CALL   3608
....................             Libre=ON; 
0949A:  BSF    xA3.4
....................             if(CiclosPersonalizados[CicloLibre-1].NivelDesfogue>5){ 
0949C:  MOVLW  01
0949E:  MOVLB  3
094A0:  SUBWF  x2B,W
094A2:  MULLW  0A
094A4:  MOVF   FF3,W
094A6:  CLRF   xD0
094A8:  MOVWF  xCF
094AA:  MOVLW  08
094AC:  ADDWF  xCF,W
094AE:  MOVWF  01
094B0:  MOVLW  00
094B2:  ADDWFC xD0,W
094B4:  MOVWF  03
094B6:  MOVF   01,W
094B8:  ADDLW  A7
094BA:  MOVWF  FE9
094BC:  MOVLW  03
094BE:  ADDWFC 03,W
094C0:  MOVWF  FEA
094C2:  MOVF   FEF,W
094C4:  SUBLW  05
094C6:  BTFSC  FD8.0
094C8:  BRA    96E0
....................                ConfiguraCiclo(extraeDecima(CiclosPersonalizados[CicloLibre-1].Segundoest), 
....................                            CiclosPersonalizados[CicloLibre-1].Segundoest/10, 
....................                            extraeDecima(CiclosPersonalizados[CicloLibre-1].Minutoest), 
....................                            CiclosPersonalizados[CicloLibre-1].Minutoest/10, 
....................                            extraeDecima(CiclosPersonalizados[CicloLibre-1].Segundosec), 
....................                            CiclosPersonalizados[CicloLibre-1].Segundosec/10, 
....................                            extraeDecima(CiclosPersonalizados[CicloLibre-1].Minutosec), 
....................                            CiclosPersonalizados[CicloLibre-1].Minutosec/10,0,CicloLibre+4,CiclosPersonalizados[CicloLibre-1].Temperatura);             
094CA:  MOVLW  01
094CC:  SUBWF  x2B,W
094CE:  MULLW  0A
094D0:  MOVF   FF3,W
094D2:  CLRF   xD0
094D4:  MOVWF  xCF
094D6:  MOVLW  03
094D8:  ADDWF  xCF,W
094DA:  MOVWF  01
094DC:  MOVLW  00
094DE:  ADDWFC xD0,W
094E0:  MOVWF  03
094E2:  MOVF   01,W
094E4:  ADDLW  A7
094E6:  MOVWF  FE9
094E8:  MOVLW  03
094EA:  ADDWFC 03,W
094EC:  MOVWF  FEA
094EE:  MOVFF  FEF,3CF
094F2:  MOVFF  3CF,3D6
094F6:  MOVLB  0
094F8:  CALL   4B40
094FC:  MOVFF  01,3CF
09500:  MOVLW  01
09502:  MOVLB  3
09504:  SUBWF  x2B,W
09506:  MULLW  0A
09508:  MOVF   FF3,W
0950A:  CLRF   xD1
0950C:  MOVWF  xD0
0950E:  MOVLW  03
09510:  ADDWF  xD0,W
09512:  MOVWF  01
09514:  MOVLW  00
09516:  ADDWFC xD1,W
09518:  MOVWF  03
0951A:  MOVF   01,W
0951C:  ADDLW  A7
0951E:  MOVWF  FE9
09520:  MOVLW  03
09522:  ADDWFC 03,W
09524:  MOVWF  FEA
09526:  MOVFF  FEF,3D9
0952A:  MOVLW  0A
0952C:  MOVWF  xDA
0952E:  MOVLB  0
09530:  CALL   44EC
09534:  MOVFF  01,3D0
09538:  MOVLW  01
0953A:  MOVLB  3
0953C:  SUBWF  x2B,W
0953E:  MULLW  0A
09540:  MOVF   FF3,W
09542:  CLRF   xD2
09544:  MOVWF  xD1
09546:  MOVLW  09
09548:  ADDWF  xD1,W
0954A:  MOVWF  01
0954C:  MOVLW  00
0954E:  ADDWFC xD2,W
09550:  MOVWF  03
09552:  MOVF   01,W
09554:  ADDLW  A7
09556:  MOVWF  FE9
09558:  MOVLW  03
0955A:  ADDWFC 03,W
0955C:  MOVWF  FEA
0955E:  MOVFF  FEF,3D1
09562:  MOVFF  3D1,3D6
09566:  MOVLB  0
09568:  CALL   4B40
0956C:  MOVFF  01,3D1
09570:  MOVLW  01
09572:  MOVLB  3
09574:  SUBWF  x2B,W
09576:  MULLW  0A
09578:  MOVF   FF3,W
0957A:  CLRF   xD3
0957C:  MOVWF  xD2
0957E:  MOVLW  09
09580:  ADDWF  xD2,W
09582:  MOVWF  01
09584:  MOVLW  00
09586:  ADDWFC xD3,W
09588:  MOVWF  03
0958A:  MOVF   01,W
0958C:  ADDLW  A7
0958E:  MOVWF  FE9
09590:  MOVLW  03
09592:  ADDWFC 03,W
09594:  MOVWF  FEA
09596:  MOVFF  FEF,3D9
0959A:  MOVLW  0A
0959C:  MOVWF  xDA
0959E:  MOVLB  0
095A0:  CALL   44EC
095A4:  MOVFF  01,3D2
095A8:  MOVLW  01
095AA:  MOVLB  3
095AC:  SUBWF  x2B,W
095AE:  MULLW  0A
095B0:  MOVF   FF3,W
095B2:  CLRF   xD4
095B4:  MOVWF  xD3
095B6:  MOVLW  05
095B8:  ADDWF  xD3,W
095BA:  MOVWF  01
095BC:  MOVLW  00
095BE:  ADDWFC xD4,W
095C0:  MOVWF  03
095C2:  MOVF   01,W
095C4:  ADDLW  A7
095C6:  MOVWF  FE9
095C8:  MOVLW  03
095CA:  ADDWFC 03,W
095CC:  MOVWF  FEA
095CE:  MOVFF  FEF,3D3
095D2:  MOVFF  3D3,3D6
095D6:  MOVLB  0
095D8:  CALL   4B40
095DC:  MOVFF  01,3D3
095E0:  MOVLW  01
095E2:  MOVLB  3
095E4:  SUBWF  x2B,W
095E6:  MULLW  0A
095E8:  MOVF   FF3,W
095EA:  CLRF   xD5
095EC:  MOVWF  xD4
095EE:  MOVLW  05
095F0:  ADDWF  xD4,W
095F2:  MOVWF  01
095F4:  MOVLW  00
095F6:  ADDWFC xD5,W
095F8:  MOVWF  03
095FA:  MOVF   01,W
095FC:  ADDLW  A7
095FE:  MOVWF  FE9
09600:  MOVLW  03
09602:  ADDWFC 03,W
09604:  MOVWF  FEA
09606:  MOVFF  FEF,3D9
0960A:  MOVLW  0A
0960C:  MOVWF  xDA
0960E:  MOVLB  0
09610:  CALL   44EC
09614:  MOVFF  01,3D4
09618:  MOVLW  01
0961A:  MOVLB  3
0961C:  SUBWF  x2B,W
0961E:  MULLW  0A
09620:  MOVF   FF3,W
09622:  CLRF   xD6
09624:  MOVWF  xD5
09626:  MOVLW  04
09628:  ADDWF  xD5,W
0962A:  MOVWF  01
0962C:  MOVLW  00
0962E:  ADDWFC xD6,W
09630:  MOVWF  03
09632:  MOVF   01,W
09634:  ADDLW  A7
09636:  MOVWF  FE9
09638:  MOVLW  03
0963A:  ADDWFC 03,W
0963C:  MOVWF  FEA
0963E:  MOVFF  FEF,3D5
09642:  MOVFF  3D5,3D6
09646:  MOVLB  0
09648:  CALL   4B40
0964C:  MOVFF  01,3D5
09650:  MOVLW  01
09652:  MOVLB  3
09654:  SUBWF  x2B,W
09656:  MULLW  0A
09658:  MOVF   FF3,W
0965A:  CLRF   xD7
0965C:  MOVWF  xD6
0965E:  MOVLW  04
09660:  ADDWF  xD6,W
09662:  MOVWF  01
09664:  MOVLW  00
09666:  ADDWFC xD7,W
09668:  MOVWF  03
0966A:  MOVF   01,W
0966C:  ADDLW  A7
0966E:  MOVWF  FE9
09670:  MOVLW  03
09672:  ADDWFC 03,W
09674:  MOVWF  FEA
09676:  MOVFF  FEF,3D9
0967A:  MOVLW  0A
0967C:  MOVWF  xDA
0967E:  MOVLB  0
09680:  CALL   44EC
09684:  MOVFF  01,3D6
09688:  MOVLW  04
0968A:  MOVLB  3
0968C:  ADDWF  x2B,W
0968E:  MOVWF  xD7
09690:  MOVLW  01
09692:  SUBWF  x2B,W
09694:  MULLW  0A
09696:  MOVF   FF3,W
09698:  CLRF   xD9
0969A:  MOVWF  xD8
0969C:  MOVLW  A7
0969E:  ADDWF  xD8,W
096A0:  MOVWF  FE9
096A2:  MOVLW  03
096A4:  ADDWFC xD9,W
096A6:  MOVWF  FEA
096A8:  MOVFF  FEF,3D8
096AC:  MOVFF  3CF,3D9
096B0:  MOVFF  3D0,3DA
096B4:  MOVFF  3D1,3DB
096B8:  MOVFF  3D2,3DC
096BC:  MOVFF  3D3,3DD
096C0:  MOVFF  3D4,3DE
096C4:  MOVFF  3D5,3DF
096C8:  MOVFF  01,3E0
096CC:  CLRF   xE1
096CE:  MOVFF  3D7,3E2
096D2:  MOVFF  3D8,3E3
096D6:  MOVLB  0
096D8:  CALL   4596
....................             }else{ 
096DC:  BRA    993A
096DE:  MOVLB  3
....................                ConfiguraCiclo(extraeDecima(CiclosPersonalizados[CicloLibre-1].Segundoest), 
....................                            CiclosPersonalizados[CicloLibre-1].Segundoest/10, 
....................                            extraeDecima(CiclosPersonalizados[CicloLibre-1].Minutoest), 
....................                            CiclosPersonalizados[CicloLibre-1].Minutoest/10, 
....................                            extraeDecima(CiclosPersonalizados[CicloLibre-1].Segundosec), 
....................                            CiclosPersonalizados[CicloLibre-1].Segundosec/10, 
....................                            extraeDecima(CiclosPersonalizados[CicloLibre-1].Minutosec), 
....................                            CiclosPersonalizados[CicloLibre-1].Minutosec/10,1,CicloLibre+4,CiclosPersonalizados[CicloLibre-1].Temperatura);             
096E0:  MOVLW  01
096E2:  SUBWF  x2B,W
096E4:  MULLW  0A
096E6:  MOVF   FF3,W
096E8:  CLRF   xD0
096EA:  MOVWF  xCF
096EC:  MOVLW  03
096EE:  ADDWF  xCF,W
096F0:  MOVWF  01
096F2:  MOVLW  00
096F4:  ADDWFC xD0,W
096F6:  MOVWF  03
096F8:  MOVF   01,W
096FA:  ADDLW  A7
096FC:  MOVWF  FE9
096FE:  MOVLW  03
09700:  ADDWFC 03,W
09702:  MOVWF  FEA
09704:  MOVFF  FEF,3CF
09708:  MOVFF  3CF,3D6
0970C:  MOVLB  0
0970E:  CALL   4B40
09712:  MOVFF  01,3CF
09716:  MOVLW  01
09718:  MOVLB  3
0971A:  SUBWF  x2B,W
0971C:  MULLW  0A
0971E:  MOVF   FF3,W
09720:  CLRF   xD1
09722:  MOVWF  xD0
09724:  MOVLW  03
09726:  ADDWF  xD0,W
09728:  MOVWF  01
0972A:  MOVLW  00
0972C:  ADDWFC xD1,W
0972E:  MOVWF  03
09730:  MOVF   01,W
09732:  ADDLW  A7
09734:  MOVWF  FE9
09736:  MOVLW  03
09738:  ADDWFC 03,W
0973A:  MOVWF  FEA
0973C:  MOVFF  FEF,3D9
09740:  MOVLW  0A
09742:  MOVWF  xDA
09744:  MOVLB  0
09746:  CALL   44EC
0974A:  MOVFF  01,3D0
0974E:  MOVLW  01
09750:  MOVLB  3
09752:  SUBWF  x2B,W
09754:  MULLW  0A
09756:  MOVF   FF3,W
09758:  CLRF   xD2
0975A:  MOVWF  xD1
0975C:  MOVLW  09
0975E:  ADDWF  xD1,W
09760:  MOVWF  01
09762:  MOVLW  00
09764:  ADDWFC xD2,W
09766:  MOVWF  03
09768:  MOVF   01,W
0976A:  ADDLW  A7
0976C:  MOVWF  FE9
0976E:  MOVLW  03
09770:  ADDWFC 03,W
09772:  MOVWF  FEA
09774:  MOVFF  FEF,3D1
09778:  MOVFF  3D1,3D6
0977C:  MOVLB  0
0977E:  CALL   4B40
09782:  MOVFF  01,3D1
09786:  MOVLW  01
09788:  MOVLB  3
0978A:  SUBWF  x2B,W
0978C:  MULLW  0A
0978E:  MOVF   FF3,W
09790:  CLRF   xD3
09792:  MOVWF  xD2
09794:  MOVLW  09
09796:  ADDWF  xD2,W
09798:  MOVWF  01
0979A:  MOVLW  00
0979C:  ADDWFC xD3,W
0979E:  MOVWF  03
097A0:  MOVF   01,W
097A2:  ADDLW  A7
097A4:  MOVWF  FE9
097A6:  MOVLW  03
097A8:  ADDWFC 03,W
097AA:  MOVWF  FEA
097AC:  MOVFF  FEF,3D9
097B0:  MOVLW  0A
097B2:  MOVWF  xDA
097B4:  MOVLB  0
097B6:  CALL   44EC
097BA:  MOVFF  01,3D2
097BE:  MOVLW  01
097C0:  MOVLB  3
097C2:  SUBWF  x2B,W
097C4:  MULLW  0A
097C6:  MOVF   FF3,W
097C8:  CLRF   xD4
097CA:  MOVWF  xD3
097CC:  MOVLW  05
097CE:  ADDWF  xD3,W
097D0:  MOVWF  01
097D2:  MOVLW  00
097D4:  ADDWFC xD4,W
097D6:  MOVWF  03
097D8:  MOVF   01,W
097DA:  ADDLW  A7
097DC:  MOVWF  FE9
097DE:  MOVLW  03
097E0:  ADDWFC 03,W
097E2:  MOVWF  FEA
097E4:  MOVFF  FEF,3D3
097E8:  MOVFF  3D3,3D6
097EC:  MOVLB  0
097EE:  CALL   4B40
097F2:  MOVFF  01,3D3
097F6:  MOVLW  01
097F8:  MOVLB  3
097FA:  SUBWF  x2B,W
097FC:  MULLW  0A
097FE:  MOVF   FF3,W
09800:  CLRF   xD5
09802:  MOVWF  xD4
09804:  MOVLW  05
09806:  ADDWF  xD4,W
09808:  MOVWF  01
0980A:  MOVLW  00
0980C:  ADDWFC xD5,W
0980E:  MOVWF  03
09810:  MOVF   01,W
09812:  ADDLW  A7
09814:  MOVWF  FE9
09816:  MOVLW  03
09818:  ADDWFC 03,W
0981A:  MOVWF  FEA
0981C:  MOVFF  FEF,3D9
09820:  MOVLW  0A
09822:  MOVWF  xDA
09824:  MOVLB  0
09826:  CALL   44EC
0982A:  MOVFF  01,3D4
0982E:  MOVLW  01
09830:  MOVLB  3
09832:  SUBWF  x2B,W
09834:  MULLW  0A
09836:  MOVF   FF3,W
09838:  CLRF   xD6
0983A:  MOVWF  xD5
0983C:  MOVLW  04
0983E:  ADDWF  xD5,W
09840:  MOVWF  01
09842:  MOVLW  00
09844:  ADDWFC xD6,W
09846:  MOVWF  03
09848:  MOVF   01,W
0984A:  ADDLW  A7
0984C:  MOVWF  FE9
0984E:  MOVLW  03
09850:  ADDWFC 03,W
09852:  MOVWF  FEA
09854:  MOVFF  FEF,3D5
09858:  MOVFF  3D5,3D6
0985C:  MOVLB  0
0985E:  CALL   4B40
09862:  MOVFF  01,3D5
09866:  MOVLW  01
09868:  MOVLB  3
0986A:  SUBWF  x2B,W
0986C:  MULLW  0A
0986E:  MOVF   FF3,W
09870:  CLRF   xD7
09872:  MOVWF  xD6
09874:  MOVLW  04
09876:  ADDWF  xD6,W
09878:  MOVWF  01
0987A:  MOVLW  00
0987C:  ADDWFC xD7,W
0987E:  MOVWF  03
09880:  MOVF   01,W
09882:  ADDLW  A7
09884:  MOVWF  FE9
09886:  MOVLW  03
09888:  ADDWFC 03,W
0988A:  MOVWF  FEA
0988C:  MOVFF  FEF,3D9
09890:  MOVLW  0A
09892:  MOVWF  xDA
09894:  MOVLB  0
09896:  CALL   44EC
0989A:  MOVFF  01,3D6
0989E:  MOVLW  04
098A0:  MOVLB  3
098A2:  ADDWF  x2B,W
098A4:  MOVWF  xD7
098A6:  MOVLW  01
098A8:  SUBWF  x2B,W
098AA:  MULLW  0A
098AC:  MOVF   FF3,W
098AE:  CLRF   xD9
098B0:  MOVWF  xD8
098B2:  MOVLW  A7
098B4:  ADDWF  xD8,W
098B6:  MOVWF  FE9
098B8:  MOVLW  03
098BA:  ADDWFC xD9,W
098BC:  MOVWF  FEA
098BE:  MOVFF  FEF,3D8
098C2:  MOVFF  3CF,3D9
098C6:  MOVFF  3D0,3DA
098CA:  MOVFF  3D1,3DB
098CE:  MOVFF  3D2,3DC
098D2:  MOVFF  3D3,3DD
098D6:  MOVFF  3D4,3DE
098DA:  MOVFF  3D5,3DF
098DE:  MOVFF  01,3E0
098E2:  MOVLW  01
098E4:  MOVWF  xE1
098E6:  MOVFF  3D7,3E2
098EA:  MOVFF  3D8,3E3
098EE:  MOVLB  0
098F0:  CALL   4596
....................                NivelSeleccionado=4995*CiclosPersonalizados[CicloLibre-1].NivelDesfogue; 
098F4:  MOVLW  01
098F6:  MOVLB  3
098F8:  SUBWF  x2B,W
098FA:  MULLW  0A
098FC:  MOVF   FF3,W
098FE:  CLRF   xD0
09900:  MOVWF  xCF
09902:  MOVLW  08
09904:  ADDWF  xCF,W
09906:  MOVWF  01
09908:  MOVLW  00
0990A:  ADDWFC xD0,W
0990C:  MOVWF  03
0990E:  MOVF   01,W
09910:  ADDLW  A7
09912:  MOVWF  FE9
09914:  MOVLW  03
09916:  ADDWFC 03,W
09918:  MOVWF  FEA
0991A:  MOVFF  FEF,3CF
0991E:  MOVLW  13
09920:  MOVWF  xD1
09922:  MOVLW  83
09924:  MOVWF  xD0
09926:  CLRF   xD3
09928:  MOVFF  3CF,3D2
0992C:  MOVLB  0
0992E:  CALL   36B4
09932:  MOVFF  02,357
09936:  MOVFF  01,356
0993A:  MOVLB  3
....................             } 
....................          } 
....................       } 
....................    } 
.................... //_--------------------------------------------------------------------------------------------------------------------------------------------------------        
....................  
.................... //_--------------------------------------------------------------------------------------------------------------------------------------------------------       
....................     if(Menu==15){//Menu de Clave Correcta 
0993C:  MOVF   x37,W
0993E:  SUBLW  0F
09940:  BNZ   9978
....................       if(!entro){ 
09942:  MOVLB  0
09944:  BTFSC  xA3.6
09946:  BRA    9962
....................          delay_ms(2000); 
09948:  MOVLW  08
0994A:  MOVLB  3
0994C:  MOVWF  xCF
0994E:  MOVLW  FA
09950:  MOVWF  xE4
09952:  MOVLB  0
09954:  CALL   1806
09958:  MOVLB  3
0995A:  DECFSZ xCF,F
0995C:  BRA    994E
....................          entro=ON; 
0995E:  MOVLB  0
09960:  BSF    xA3.6
....................       } 
....................       printf("page MenuPrincipal"); 
09962:  MOVLW  50
09964:  MOVWF  FF6
09966:  MOVLW  0F
09968:  MOVWF  FF7
0996A:  MOVLW  00
0996C:  MOVWF  FF8
0996E:  CALL   35D6
....................       SendDataDisplay(); 
09972:  CALL   3608
09976:  MOVLB  3
....................    } 
.................... //_--------------------------------------------------------------------------------------------------------------------------------------------------------       
....................  
.................... //_--------------------------------------------------------------------------------------------------------------------------------------------------------       
....................     if(Menu==16){//Menu de Clave InCorrecta 
09978:  MOVF   x37,W
0997A:  SUBLW  10
0997C:  BNZ   99B4
....................       if(!entro){ 
0997E:  MOVLB  0
09980:  BTFSC  xA3.6
09982:  BRA    999E
....................          delay_ms(2000); 
09984:  MOVLW  08
09986:  MOVLB  3
09988:  MOVWF  xCF
0998A:  MOVLW  FA
0998C:  MOVWF  xE4
0998E:  MOVLB  0
09990:  CALL   1806
09994:  MOVLB  3
09996:  DECFSZ xCF,F
09998:  BRA    998A
....................          entro=ON; 
0999A:  MOVLB  0
0999C:  BSF    xA3.6
....................       } 
....................       printf("page Clave"); 
0999E:  MOVLW  64
099A0:  MOVWF  FF6
099A2:  MOVLW  0F
099A4:  MOVWF  FF7
099A6:  MOVLW  00
099A8:  MOVWF  FF8
099AA:  CALL   35D6
....................       SendDataDisplay(); 
099AE:  CALL   3608
099B2:  MOVLB  3
....................    } 
.................... //_--------------------------------------------------------------------------------------------------------------------------------------------------------       
....................  
.................... //_--------------------------------------------------------------------------------------------------------------------------------------------------------     
....................    if(Menu==20){ // Este es el menu de cuando el proceso se inicio. 
099B4:  MOVF   x37,W
099B6:  SUBLW  14
099B8:  BTFSS  FD8.2
099BA:  GOTO   A8AE
....................    //Lectura_Esclavos(); 
....................     
....................    if(!Libre){ 
099BE:  MOVLB  0
099C0:  BTFSC  xA3.4
099C2:  BRA    9A46
....................       printf("t2f.txt=\"%u\"",CicloSeleccionado); 
099C4:  MOVLW  70
099C6:  MOVWF  FF6
099C8:  MOVLW  0F
099CA:  MOVWF  FF7
099CC:  MOVLW  00
099CE:  MOVWF  FF8
099D0:  MOVLW  09
099D2:  MOVLB  3
099D4:  MOVWF  xD3
099D6:  MOVLB  0
099D8:  CALL   44BA
099DC:  MOVFF  33D,3D1
099E0:  MOVLW  1B
099E2:  MOVLB  3
099E4:  MOVWF  xD2
099E6:  MOVLB  0
099E8:  CALL   4518
099EC:  MOVLW  22
099EE:  BTFSS  F9E.4
099F0:  BRA    99EE
099F2:  MOVWF  FAD
....................       SendDataDisplay(); 
099F4:  CALL   3608
....................       printf("t3f.txt=\"%s\"",texto[CicloSeleccionado-1]); 
099F8:  MOVLW  01
099FA:  MOVLB  3
099FC:  SUBWF  x3D,W
099FE:  MULLW  14
09A00:  MOVF   FF3,W
09A02:  CLRF   03
09A04:  MOVWF  xCF
09A06:  MOVLW  7E
09A08:  MOVWF  FF6
09A0A:  MOVLW  0F
09A0C:  MOVWF  FF7
09A0E:  MOVLW  00
09A10:  MOVWF  FF8
09A12:  MOVLW  09
09A14:  MOVWF  xD3
09A16:  MOVLB  0
09A18:  CALL   44BA
09A1C:  MOVLW  50
09A1E:  MOVWF  FF6
09A20:  MOVLW  01
09A22:  MOVWF  FF7
09A24:  MOVLW  00
09A26:  MOVWF  FF8
09A28:  MOVLB  3
09A2A:  MOVF   xCF,W
09A2C:  ADDWF  FF6,F
09A2E:  MOVLW  00
09A30:  ADDWFC FF7,F
09A32:  MOVLB  0
09A34:  CALL   35D6
09A38:  MOVLW  22
09A3A:  BTFSS  F9E.4
09A3C:  BRA    9A3A
09A3E:  MOVWF  FAD
....................       SendDataDisplay(); 
09A40:  CALL   3608
....................    }else{ 
09A44:  BRA    9A94
....................       printf("t2f.txt=\"%u\"",CicloLibre+4); 
09A46:  MOVLW  04
09A48:  MOVLB  3
09A4A:  ADDWF  x2B,W
09A4C:  MOVWF  xCF
09A4E:  MOVLW  8C
09A50:  MOVWF  FF6
09A52:  MOVLW  0F
09A54:  MOVWF  FF7
09A56:  MOVLW  00
09A58:  MOVWF  FF8
09A5A:  MOVLW  09
09A5C:  MOVWF  xD3
09A5E:  MOVLB  0
09A60:  CALL   44BA
09A64:  MOVFF  3CF,3D1
09A68:  MOVLW  1B
09A6A:  MOVLB  3
09A6C:  MOVWF  xD2
09A6E:  MOVLB  0
09A70:  CALL   4518
09A74:  MOVLW  22
09A76:  BTFSS  F9E.4
09A78:  BRA    9A76
09A7A:  MOVWF  FAD
....................       SendDataDisplay(); 
09A7C:  CALL   3608
....................       printf("t3f.txt=\"Personalizado\""); 
09A80:  MOVLW  9A
09A82:  MOVWF  FF6
09A84:  MOVLW  0F
09A86:  MOVWF  FF7
09A88:  MOVLW  00
09A8A:  MOVWF  FF8
09A8C:  CALL   35D6
....................       SendDataDisplay(); 
09A90:  CALL   3608
....................    } 
....................     
....................    if(RIGHT){ 
09A94:  BSF    F93.2
09A96:  BTFSC  F81.2
09A98:  BRA    9AB0
....................       //glcd_init(ON); 
....................       delay_ms(1000); 
09A9A:  MOVLW  04
09A9C:  MOVLB  3
09A9E:  MOVWF  xCF
09AA0:  MOVLW  FA
09AA2:  MOVWF  xE4
09AA4:  MOVLB  0
09AA6:  CALL   1806
09AAA:  MOVLB  3
09AAC:  DECFSZ xCF,F
09AAE:  BRA    9AA0
....................       /*flagCalentando=OFF; 
....................       flagDesfogando=OFF; 
....................       flagEsterilizando=OFF;*/ 
....................    } 
....................     
....................    if(PresionCamara>275){ 
09AB0:  MOVLB  3
09AB2:  MOVF   x51,W
09AB4:  SUBLW  00
09AB6:  BC    9AC8
09AB8:  XORLW  FF
09ABA:  BNZ   9AC2
09ABC:  MOVF   x50,W
09ABE:  SUBLW  13
09AC0:  BC    9AC8
....................       AlarmaPresion=ON; 
09AC2:  MOVLB  0
09AC4:  BSF    xA3.3
09AC6:  MOVLB  3
....................    } 
....................     
....................    if(Temperatura>105 && PresionCamara<10 && !Desfogando){ 
09AC8:  CLRF   xD6
09ACA:  CLRF   xD5
09ACC:  MOVLW  52
09ACE:  MOVWF  xD4
09AD0:  MOVLW  85
09AD2:  MOVWF  xD3
09AD4:  MOVFF  318,3DA
09AD8:  MOVFF  317,3D9
09ADC:  MOVFF  316,3D8
09AE0:  MOVFF  315,3D7
09AE4:  MOVLB  0
09AE6:  CALL   2A60
09AEA:  BNC   9B0C
09AEC:  MOVLB  3
09AEE:  MOVF   x51,F
09AF0:  BTFSC  FD8.2
09AF2:  BRA    9AF8
09AF4:  MOVLB  0
09AF6:  BRA    9B0C
09AF8:  MOVF   x50,W
09AFA:  SUBLW  09
09AFC:  BTFSC  FD8.0
09AFE:  BRA    9B04
09B00:  MOVLB  0
09B02:  BRA    9B0C
09B04:  MOVLB  0
09B06:  BTFSC  xA0.5
09B08:  BRA    9B0C
....................       AlarmaCiclo=ON; 
09B0A:  BSF    x9F.6
....................    } 
....................     
....................    if(TiempoCiclo>3000){ 
09B0C:  MOVF   xA6,W
09B0E:  SUBLW  0A
09B10:  BC    9B44
09B12:  XORLW  FF
09B14:  BNZ   9B1C
09B16:  MOVF   xA5,W
09B18:  SUBLW  B8
09B1A:  BC    9B44
....................       if(TiempoCiclo>5000) 
09B1C:  MOVF   xA6,W
09B1E:  SUBLW  12
09B20:  BC    9B2E
09B22:  XORLW  FF
09B24:  BNZ   9B2C
09B26:  MOVF   xA5,W
09B28:  SUBLW  88
09B2A:  BC    9B2E
....................          AlarmaTiempoProlongado=ON; 
09B2C:  BSF    x9F.0
....................       if(PresionCamara<10){ 
09B2E:  MOVLB  3
09B30:  MOVF   x51,F
09B32:  BNZ   9B40
09B34:  MOVF   x50,W
09B36:  SUBLW  09
09B38:  BNC   9B40
....................          AlarmaTiempoProlongado=ON; 
09B3A:  MOVLB  0
09B3C:  BSF    x9F.0
09B3E:  MOVLB  3
....................       } 
....................    }else{ 
09B40:  BRA    9B48
09B42:  MOVLB  0
....................       AlarmaTiempoProlongado=OFF; 
09B44:  BCF    x9F.0
09B46:  MOVLB  3
....................    } 
....................     
....................    if(Temperatura>Setpoint+3.0){ 
09B48:  CLRF   xE5
09B4A:  MOVFF  33E,3E4
09B4E:  MOVLB  0
09B50:  CALL   182E
09B54:  BCF    FD8.1
09B56:  MOVFF  03,3E7
09B5A:  MOVFF  02,3E6
09B5E:  MOVFF  01,3E5
09B62:  MOVFF  00,3E4
09B66:  MOVLB  3
09B68:  CLRF   xEB
09B6A:  CLRF   xEA
09B6C:  MOVLW  40
09B6E:  MOVWF  xE9
09B70:  MOVLW  80
09B72:  MOVWF  xE8
09B74:  MOVLB  0
09B76:  CALL   19C2
09B7A:  MOVFF  03,3D6
09B7E:  MOVFF  02,3D5
09B82:  MOVFF  01,3D4
09B86:  MOVFF  00,3D3
09B8A:  MOVFF  318,3DA
09B8E:  MOVFF  317,3D9
09B92:  MOVFF  316,3D8
09B96:  MOVFF  315,3D7
09B9A:  CALL   2A60
09B9E:  BNC   9BA2
....................       AlarmaSobreTemperatura=ON; 
09BA0:  BSF    x9F.1
....................    } 
....................     
....................    if(TiempoLlenado>600){ 
09BA2:  MOVF   xA8,W
09BA4:  SUBLW  01
09BA6:  BC    9BB6
09BA8:  XORLW  FF
09BAA:  BNZ   9BB2
09BAC:  MOVF   xA7,W
09BAE:  SUBLW  58
09BB0:  BC    9BB6
....................       AlarmaLlenado=ON; 
09BB2:  BSF    x9F.2
....................    }else{ 
09BB4:  BRA    9BB8
....................       AlarmaLlenado=OFF; 
09BB6:  BCF    x9F.2
....................    } 
....................     
....................    if(tTermostato>=2000){ 
09BB8:  MOVLB  3
09BBA:  MOVF   x5D,W
09BBC:  SUBLW  06
09BBE:  BC    9BD0
09BC0:  XORLW  FF
09BC2:  BNZ   9BCA
09BC4:  MOVF   x5C,W
09BC6:  SUBLW  CF
09BC8:  BC    9BD0
....................       AlarmaTermostato=ON; 
09BCA:  MOVLB  0
09BCC:  BSF    x9F.3
09BCE:  MOVLB  3
....................    } 
....................     
....................    if(!DOOR){ 
09BD0:  BSF    F93.6
09BD2:  BTFSS  F81.6
09BD4:  BRA    9BEA
....................       //Desfogue_off; 
....................       //Solenoide_off; 
....................       //Agua_off; 
....................       //Bomba_off; 
....................       //Aire=OFF; 
....................       if(!Secando && !Finalizo && !Desfogando){ 
09BD6:  MOVLB  0
09BD8:  BTFSC  xA0.3
09BDA:  BRA    9BE6
09BDC:  BTFSC  xA3.2
09BDE:  BRA    9BE6
09BE0:  BTFSC  xA0.5
09BE2:  BRA    9BE6
....................          AlarmaPuerta=ON; 
09BE4:  BSF    x9F.4
....................       } 
....................    }else{ 
09BE6:  BRA    9BEE
09BE8:  MOVLB  3
....................       AlarmaPuerta=OFF; 
09BEA:  MOVLB  0
09BEC:  BCF    x9F.4
....................    } 
....................  
....................    if(tStop>=300){ 
09BEE:  MOVLB  3
09BF0:  MOVF   x5B,W
09BF2:  SUBLW  00
09BF4:  BC    9C06
09BF6:  XORLW  FF
09BF8:  BNZ   9C00
09BFA:  MOVF   x5A,W
09BFC:  SUBLW  2B
09BFE:  BC    9C06
....................       AlarmaEmergencia=ON; 
09C00:  MOVLB  0
09C02:  BSF    x9F.5
09C04:  MOVLB  3
....................    } 
....................     
....................    if(AlarmaPuerta || AlarmaTermostato || AlarmaLlenado || AlarmaSobreTemperatura || AlarmaTiempoProlongado || AlarmaEmergencia || AlarmaPresion 
....................    || AlarmaCiclo){ 
09C06:  MOVLB  0
09C08:  BTFSC  x9F.4
09C0A:  BRA    9C28
09C0C:  BTFSC  x9F.3
09C0E:  BRA    9C28
09C10:  BTFSC  x9F.2
09C12:  BRA    9C28
09C14:  BTFSC  x9F.1
09C16:  BRA    9C28
09C18:  BTFSC  x9F.0
09C1A:  BRA    9C28
09C1C:  BTFSC  x9F.5
09C1E:  BRA    9C28
09C20:  BTFSC  xA3.3
09C22:  BRA    9C28
09C24:  BTFSS  x9F.6
09C26:  BRA    9F8E
....................       ActivaAlarma(1); 
09C28:  MOVLW  01
09C2A:  MOVLB  3
09C2C:  MOVWF  xCF
09C2E:  MOVLB  0
09C30:  CALL   43BE
....................       if(AlarmaEmergencia){ 
09C34:  BTFSS  x9F.5
09C36:  BRA    9CA4
....................          printf("Funcionamiento.t4f.txt=\" Parada de Emergencia\""); 
09C38:  MOVLW  B2
09C3A:  MOVWF  FF6
09C3C:  MOVLW  0F
09C3E:  MOVWF  FF7
09C40:  MOVLW  00
09C42:  MOVWF  FF8
09C44:  CALL   35D6
....................          SendDataDisplay(); 
09C48:  CALL   3608
....................          printf("Funcionamiento.t5f.txt=\" Cancelado\""); 
09C4C:  MOVLW  E2
09C4E:  MOVWF  FF6
09C50:  MOVLW  0F
09C52:  MOVWF  FF7
09C54:  MOVLW  00
09C56:  MOVWF  FF8
09C58:  CALL   35D6
....................          SendDataDisplay(); 
09C5C:  CALL   3608
....................          Desfogue_on; 
09C60:  BSF    F8C.4
09C62:  BCF    F95.4
....................          SSR_off; 
09C64:  BSF    F8B.2
09C66:  BCF    F94.2
....................          Agua_off; 
09C68:  BCF    F8C.5
09C6A:  BCF    F95.5
....................          Bomba_off; 
09C6C:  BCF    F8C.6
09C6E:  BCF    F95.6
....................          Aire=OFF; 
09C70:  BCF    xA3.7
....................          Esterilizando=OFF; 
09C72:  BCF    xA0.2
....................          Desfogando=OFF; 
09C74:  BCF    xA0.5
....................          DesfogueSuave=OFF; 
09C76:  BCF    xA0.6
....................          Esterilizando=OFF; 
09C78:  BCF    xA0.2
....................          //IniciaCiclo=OFF; 
....................          Controlando=0; 
09C7A:  MOVLB  3
09C7C:  CLRF   x2F
....................          if(!flagImprimir){ 
09C7E:  BTFSC  x2C.0
09C80:  BRA    9CA0
....................             Imprime=20; 
09C82:  MOVLW  14
09C84:  MOVWF  x84
....................             Envio_Esclavos(); 
09C86:  MOVLB  0
09C88:  CALL   3F5C
....................             delay_ms(100); 
09C8C:  MOVLW  64
09C8E:  MOVLB  3
09C90:  MOVWF  xE4
09C92:  MOVLB  0
09C94:  CALL   1806
....................             Imprime=10; 
09C98:  MOVLW  0A
09C9A:  MOVLB  3
09C9C:  MOVWF  x84
....................             flagImprimir=1; 
09C9E:  BSF    x2C.0
....................          } 
....................       }else if(AlarmaPuerta){ 
09CA0:  BRA    9F8A
09CA2:  MOVLB  0
09CA4:  BTFSS  x9F.4
09CA6:  BRA    9CEC
....................             printf("Funcionamiento.t4f.txt=\" Puerta Abierta\""); 
09CA8:  MOVLW  06
09CAA:  MOVWF  FF6
09CAC:  MOVLW  10
09CAE:  MOVWF  FF7
09CB0:  MOVLW  00
09CB2:  MOVWF  FF8
09CB4:  CALL   35D6
....................             SendDataDisplay(); 
09CB8:  CALL   3608
....................             printf("Funcionamiento.t5f.txt=\" Pausado\""); 
09CBC:  MOVLW  30
09CBE:  MOVWF  FF6
09CC0:  MOVLW  10
09CC2:  MOVWF  FF7
09CC4:  MOVLW  00
09CC6:  MOVWF  FF8
09CC8:  CALL   35D6
....................             SendDataDisplay(); 
09CCC:  CALL   3608
....................             SSR_off; 
09CD0:  BSF    F8B.2
09CD2:  BCF    F94.2
....................             Agua_off; 
09CD4:  BCF    F8C.5
09CD6:  BCF    F95.5
....................             Bomba_off; 
09CD8:  BCF    F8C.6
09CDA:  BCF    F95.6
....................             Aire=OFF; 
09CDC:  BCF    xA3.7
....................             IniciaLlenado=OFF; 
09CDE:  BCF    x9F.7
....................             IniciaCiclo=OFF; 
09CE0:  BCF    xA0.1
....................             Esterilizando=OFF; 
09CE2:  BCF    xA0.2
....................             Controlando=0; 
09CE4:  MOVLB  3
09CE6:  CLRF   x2F
....................       }else if(AlarmaLlenado){ 
09CE8:  BRA    9F8A
09CEA:  MOVLB  0
09CEC:  BTFSS  x9F.2
09CEE:  BRA    9D5A
....................             printf("Funcionamiento.t4f.txt=\" Tiempo Llenado\""); 
09CF0:  MOVLW  52
09CF2:  MOVWF  FF6
09CF4:  MOVLW  10
09CF6:  MOVWF  FF7
09CF8:  MOVLW  00
09CFA:  MOVWF  FF8
09CFC:  CALL   35D6
....................             SendDataDisplay(); 
09D00:  CALL   3608
....................             printf("Funcionamiento.t5f.txt=\" Cancelado\""); 
09D04:  MOVLW  7C
09D06:  MOVWF  FF6
09D08:  MOVLW  10
09D0A:  MOVWF  FF7
09D0C:  MOVLW  00
09D0E:  MOVWF  FF8
09D10:  CALL   35D6
....................             SendDataDisplay(); 
09D14:  CALL   3608
....................             Desfogue_off; 
09D18:  BCF    F8C.4
09D1A:  BCF    F95.4
....................             SSR_off; 
09D1C:  BSF    F8B.2
09D1E:  BCF    F94.2
....................             Agua_off; 
09D20:  BCF    F8C.5
09D22:  BCF    F95.5
....................             Bomba_off; 
09D24:  BCF    F8C.6
09D26:  BCF    F95.6
....................             Aire=OFF; 
09D28:  BCF    xA3.7
....................             IniciaLlenado=OFF; 
09D2A:  BCF    x9F.7
....................             IniciaCiclo=OFF; 
09D2C:  BCF    xA0.1
....................             Esterilizando=OFF; 
09D2E:  BCF    xA0.2
....................             Controlando=0; 
09D30:  MOVLB  3
09D32:  CLRF   x2F
....................             if(!flagImprimir){ 
09D34:  BTFSC  x2C.0
09D36:  BRA    9D56
....................                Imprime=21; 
09D38:  MOVLW  15
09D3A:  MOVWF  x84
....................                Envio_Esclavos(); 
09D3C:  MOVLB  0
09D3E:  CALL   3F5C
....................                delay_ms(100); 
09D42:  MOVLW  64
09D44:  MOVLB  3
09D46:  MOVWF  xE4
09D48:  MOVLB  0
09D4A:  CALL   1806
....................                Imprime=10; 
09D4E:  MOVLW  0A
09D50:  MOVLB  3
09D52:  MOVWF  x84
....................                flagImprimir=1; 
09D54:  BSF    x2C.0
....................             } 
....................       }else if(AlarmaTermostato){ // Alarma de Termostato 
09D56:  BRA    9F8A
09D58:  MOVLB  0
09D5A:  BTFSS  x9F.3
09D5C:  BRA    9DD0
....................             tiempo_esterilizacion=0;tiempo_secado=0;          
09D5E:  MOVLB  3
09D60:  CLRF   x41
09D62:  CLRF   x42
....................             printf("Funcionamiento.t4f.txt=\" Termostato\""); 
09D64:  MOVLW  A0
09D66:  MOVWF  FF6
09D68:  MOVLW  10
09D6A:  MOVWF  FF7
09D6C:  MOVLW  00
09D6E:  MOVWF  FF8
09D70:  MOVLB  0
09D72:  CALL   35D6
....................             SendDataDisplay(); 
09D76:  CALL   3608
....................             printf("Funcionamiento.t5f.txt=\" Cancelado\""); 
09D7A:  MOVLW  C6
09D7C:  MOVWF  FF6
09D7E:  MOVLW  10
09D80:  MOVWF  FF7
09D82:  MOVLW  00
09D84:  MOVWF  FF8
09D86:  CALL   35D6
....................             SendDataDisplay(); 
09D8A:  CALL   3608
....................             Desfogue_on;             
09D8E:  BSF    F8C.4
09D90:  BCF    F95.4
....................             SSR_off; 
09D92:  BSF    F8B.2
09D94:  BCF    F94.2
....................             Agua_off; 
09D96:  BCF    F8C.5
09D98:  BCF    F95.5
....................             Bomba_off; 
09D9A:  BCF    F8C.6
09D9C:  BCF    F95.6
....................             Aire=OFF; 
09D9E:  BCF    xA3.7
....................             Esterilizando=OFF; 
09DA0:  BCF    xA0.2
....................             Desfogando=OFF; 
09DA2:  BCF    xA0.5
....................             IniciaCiclo=OFF; 
09DA4:  BCF    xA0.1
....................             Controlando=0; 
09DA6:  MOVLB  3
09DA8:  CLRF   x2F
....................             if(!flagImprimir){ 
09DAA:  BTFSC  x2C.0
09DAC:  BRA    9DCC
....................                Imprime=22; 
09DAE:  MOVLW  16
09DB0:  MOVWF  x84
....................                Envio_Esclavos(); 
09DB2:  MOVLB  0
09DB4:  CALL   3F5C
....................                delay_ms(100); 
09DB8:  MOVLW  64
09DBA:  MOVLB  3
09DBC:  MOVWF  xE4
09DBE:  MOVLB  0
09DC0:  CALL   1806
....................                Imprime=10; 
09DC4:  MOVLW  0A
09DC6:  MOVLB  3
09DC8:  MOVWF  x84
....................                flagImprimir=1; 
09DCA:  BSF    x2C.0
....................             } 
....................       }else if(AlarmaSobreTemperatura){ // Alarma de Sobre Temperatura 
09DCC:  BRA    9F8A
09DCE:  MOVLB  0
09DD0:  BTFSS  x9F.1
09DD2:  BRA    9E4A
....................          tiempo_esterilizacion=0;tiempo_secado=0;          
09DD4:  MOVLB  3
09DD6:  CLRF   x41
09DD8:  CLRF   x42
....................          printf("Funcionamiento.t4f.txt=\" Sobretemperatura\""); 
09DDA:  MOVLW  EA
09DDC:  MOVWF  FF6
09DDE:  MOVLW  10
09DE0:  MOVWF  FF7
09DE2:  MOVLW  00
09DE4:  MOVWF  FF8
09DE6:  MOVLB  0
09DE8:  CALL   35D6
....................          SendDataDisplay(); 
09DEC:  CALL   3608
....................          printf("Funcionamiento.t5f.txt=\" Cancelado\""); 
09DF0:  MOVLW  16
09DF2:  MOVWF  FF6
09DF4:  MOVLW  11
09DF6:  MOVWF  FF7
09DF8:  MOVLW  00
09DFA:  MOVWF  FF8
09DFC:  CALL   35D6
....................          SendDataDisplay();   
09E00:  CALL   3608
....................          Desfogue_on; 
09E04:  BSF    F8C.4
09E06:  BCF    F95.4
....................          SSR_off; 
09E08:  BSF    F8B.2
09E0A:  BCF    F94.2
....................          Agua_off; 
09E0C:  BCF    F8C.5
09E0E:  BCF    F95.5
....................          Bomba_off; 
09E10:  BCF    F8C.6
09E12:  BCF    F95.6
....................          Aire=OFF; 
09E14:  BCF    xA3.7
....................          Controlando=0; 
09E16:  MOVLB  3
09E18:  CLRF   x2F
....................          IniciaLlenado=OFF; 
09E1A:  MOVLB  0
09E1C:  BCF    x9F.7
....................          IniciaCiclo=OFF; 
09E1E:  BCF    xA0.1
....................          Esterilizando=OFF; 
09E20:  BCF    xA0.2
....................          if(!flagImprimir){ 
09E22:  MOVLB  3
09E24:  BTFSC  x2C.0
09E26:  BRA    9E46
....................             Imprime=23; 
09E28:  MOVLW  17
09E2A:  MOVWF  x84
....................             Envio_Esclavos(); 
09E2C:  MOVLB  0
09E2E:  CALL   3F5C
....................             delay_ms(100); 
09E32:  MOVLW  64
09E34:  MOVLB  3
09E36:  MOVWF  xE4
09E38:  MOVLB  0
09E3A:  CALL   1806
....................             Imprime=10; 
09E3E:  MOVLW  0A
09E40:  MOVLB  3
09E42:  MOVWF  x84
....................             flagImprimir=1; 
09E44:  BSF    x2C.0
....................          } 
....................       }else if(AlarmaTiempoProlongado){ // Alarma de Error de Tiempo: Error por exceso de tiempo de calentamiento. 
09E46:  BRA    9F8A
09E48:  MOVLB  0
09E4A:  BTFSS  x9F.0
09E4C:  BRA    9EBC
....................          printf("Funcionamiento.t4f.txt=\" Tiempo Prolongado\""); 
09E4E:  MOVLW  3A
09E50:  MOVWF  FF6
09E52:  MOVLW  11
09E54:  MOVWF  FF7
09E56:  MOVLW  00
09E58:  MOVWF  FF8
09E5A:  CALL   35D6
....................          SendDataDisplay(); 
09E5E:  CALL   3608
....................          printf("Funcionamiento.t5f.txt=\" Cancelado\""); 
09E62:  MOVLW  66
09E64:  MOVWF  FF6
09E66:  MOVLW  11
09E68:  MOVWF  FF7
09E6A:  MOVLW  00
09E6C:  MOVWF  FF8
09E6E:  CALL   35D6
....................          SendDataDisplay(); 
09E72:  CALL   3608
....................          Desfogue_on; 
09E76:  BSF    F8C.4
09E78:  BCF    F95.4
....................          SSR_off; 
09E7A:  BSF    F8B.2
09E7C:  BCF    F94.2
....................          Agua_off; 
09E7E:  BCF    F8C.5
09E80:  BCF    F95.5
....................          Bomba_off; 
09E82:  BCF    F8C.6
09E84:  BCF    F95.6
....................          Aire=OFF; 
09E86:  BCF    xA3.7
....................          Controlando=0; 
09E88:  MOVLB  3
09E8A:  CLRF   x2F
....................          IniciaLlenado=OFF; 
09E8C:  MOVLB  0
09E8E:  BCF    x9F.7
....................          IniciaCiclo=OFF; 
09E90:  BCF    xA0.1
....................          Esterilizando=OFF; 
09E92:  BCF    xA0.2
....................          if(!flagImprimir){ 
09E94:  MOVLB  3
09E96:  BTFSC  x2C.0
09E98:  BRA    9EB8
....................             Imprime=24; 
09E9A:  MOVLW  18
09E9C:  MOVWF  x84
....................             Envio_Esclavos(); 
09E9E:  MOVLB  0
09EA0:  CALL   3F5C
....................             delay_ms(100); 
09EA4:  MOVLW  64
09EA6:  MOVLB  3
09EA8:  MOVWF  xE4
09EAA:  MOVLB  0
09EAC:  CALL   1806
....................             Imprime=10; 
09EB0:  MOVLW  0A
09EB2:  MOVLB  3
09EB4:  MOVWF  x84
....................             flagImprimir=1; 
09EB6:  BSF    x2C.0
....................          } 
....................       }else if(AlarmaPresion){ // Alarma de Error de SobrePresion: Error por exceso de Presion. 
09EB8:  BRA    9F8A
09EBA:  MOVLB  0
09EBC:  BTFSS  xA3.3
09EBE:  BRA    9F2A
....................          printf("Funcionamiento.t4f.txt=\" SobrePresin\""); 
09EC0:  MOVLW  8A
09EC2:  MOVWF  FF6
09EC4:  MOVLW  11
09EC6:  MOVWF  FF7
09EC8:  MOVLW  00
09ECA:  MOVWF  FF8
09ECC:  CALL   35D6
....................          SendDataDisplay(); 
09ED0:  CALL   3608
....................          printf("Funcionamiento.t5f.txt=\" Cancelado\""); 
09ED4:  MOVLW  B2
09ED6:  MOVWF  FF6
09ED8:  MOVLW  11
09EDA:  MOVWF  FF7
09EDC:  MOVLW  00
09EDE:  MOVWF  FF8
09EE0:  CALL   35D6
....................          SendDataDisplay(); 
09EE4:  CALL   3608
....................          Desfogue_on; 
09EE8:  BSF    F8C.4
09EEA:  BCF    F95.4
....................          SSR_off; 
09EEC:  BSF    F8B.2
09EEE:  BCF    F94.2
....................          IniciaLlenado=OFF; 
09EF0:  BCF    x9F.7
....................          IniciaCiclo=OFF; 
09EF2:  BCF    xA0.1
....................          Esterilizando=OFF; 
09EF4:  BCF    xA0.2
....................          Agua_off; 
09EF6:  BCF    F8C.5
09EF8:  BCF    F95.5
....................          Bomba_off; 
09EFA:  BCF    F8C.6
09EFC:  BCF    F95.6
....................          Aire=OFF; 
09EFE:  BCF    xA3.7
....................          Controlando=0; 
09F00:  MOVLB  3
09F02:  CLRF   x2F
....................          if(!flagImprimir){ 
09F04:  BTFSC  x2C.0
09F06:  BRA    9F26
....................             Imprime=25; 
09F08:  MOVLW  19
09F0A:  MOVWF  x84
....................             Envio_Esclavos(); 
09F0C:  MOVLB  0
09F0E:  CALL   3F5C
....................             delay_ms(100); 
09F12:  MOVLW  64
09F14:  MOVLB  3
09F16:  MOVWF  xE4
09F18:  MOVLB  0
09F1A:  CALL   1806
....................             Imprime=10; 
09F1E:  MOVLW  0A
09F20:  MOVLB  3
09F22:  MOVWF  x84
....................             flagImprimir=1; 
09F24:  BSF    x2C.0
....................          } 
....................       }else if(AlarmaCiclo){ // Alarma de Error de SobrePresion: Error por exceso de Presion. 
09F26:  BRA    9F8A
09F28:  MOVLB  0
09F2A:  BTFSS  x9F.6
09F2C:  BRA    9F8C
....................          printf("Funcionamiento.t4f.txt=\" Error Ciclo\""); 
09F2E:  MOVLW  D6
09F30:  MOVWF  FF6
09F32:  MOVLW  11
09F34:  MOVWF  FF7
09F36:  MOVLW  00
09F38:  MOVWF  FF8
09F3A:  CALL   35D6
....................          SendDataDisplay(); 
09F3E:  CALL   3608
....................          printf("Funcionamiento.t5f.txt=\" Cancelado\""); 
09F42:  MOVLW  FC
09F44:  MOVWF  FF6
09F46:  MOVLW  11
09F48:  MOVWF  FF7
09F4A:  MOVLW  00
09F4C:  MOVWF  FF8
09F4E:  CALL   35D6
....................          SendDataDisplay(); 
09F52:  CALL   3608
....................          Desfogue_on; 
09F56:  BSF    F8C.4
09F58:  BCF    F95.4
....................          SSR_off; 
09F5A:  BSF    F8B.2
09F5C:  BCF    F94.2
....................          IniciaLlenado=OFF; 
09F5E:  BCF    x9F.7
....................          IniciaCiclo=OFF; 
09F60:  BCF    xA0.1
....................          Esterilizando=OFF; 
09F62:  BCF    xA0.2
....................          Controlando=0; 
09F64:  MOVLB  3
09F66:  CLRF   x2F
....................          if(!flagImprimir){ 
09F68:  BTFSC  x2C.0
09F6A:  BRA    9F8A
....................             Imprime=25; 
09F6C:  MOVLW  19
09F6E:  MOVWF  x84
....................             Envio_Esclavos(); 
09F70:  MOVLB  0
09F72:  CALL   3F5C
....................             delay_ms(100); 
09F76:  MOVLW  64
09F78:  MOVLB  3
09F7A:  MOVWF  xE4
09F7C:  MOVLB  0
09F7E:  CALL   1806
....................             Imprime=10; 
09F82:  MOVLW  0A
09F84:  MOVLB  3
09F86:  MOVWF  x84
....................             flagImprimir=1; 
09F88:  BSF    x2C.0
09F8A:  MOVLB  0
....................          } 
....................       } 
....................    } 
....................    else{   
09F8C:  BRA    A5A6
....................       Buzzer_off; 
09F8E:  BCF    F8C.0
09F90:  BCF    F95.0
....................       IniciaCiclo=ON; 
09F92:  BSF    xA0.1
....................       if(flagImprime){ 
09F94:  BTFSS  xA4.7
09F96:  BRA    9FBA
....................          Imprime=5; 
09F98:  MOVLW  05
09F9A:  MOVLB  3
09F9C:  MOVWF  x84
....................          Envio_Esclavos(); 
09F9E:  MOVLB  0
09FA0:  CALL   3F5C
....................          delay_ms(100); 
09FA4:  MOVLW  64
09FA6:  MOVLB  3
09FA8:  MOVWF  xE4
09FAA:  MOVLB  0
09FAC:  CALL   1806
....................          Imprime=10; 
09FB0:  MOVLW  0A
09FB2:  MOVLB  3
09FB4:  MOVWF  x84
....................          flagImprime=0; 
09FB6:  MOVLB  0
09FB8:  BCF    xA4.7
....................       } 
....................          if(!CalderinLleno){ 
09FBA:  BTFSC  xA0.0
09FBC:  BRA    A034
....................             if(!HIG){ 
09FBE:  BSF    F94.0
09FC0:  BTFSC  F82.0
09FC2:  BRA    9FEE
....................                printf("Funcionamiento.t4f.txt=\" Reservorio Vacio\""); 
09FC4:  MOVLW  20
09FC6:  MOVWF  FF6
09FC8:  MOVLW  12
09FCA:  MOVWF  FF7
09FCC:  MOVLW  00
09FCE:  MOVWF  FF8
09FD0:  CALL   35D6
....................                SendDataDisplay(); 
09FD4:  CALL   3608
....................                printf("Funcionamiento.t5f.txt=\" Llenando Camara\""); 
09FD8:  MOVLW  4C
09FDA:  MOVWF  FF6
09FDC:  MOVLW  12
09FDE:  MOVWF  FF7
09FE0:  MOVLW  00
09FE2:  MOVWF  FF8
09FE4:  CALL   35D6
....................                SendDataDisplay(); 
09FE8:  CALL   3608
....................             }else{ 
09FEC:  BRA    A016
....................                printf("Funcionamiento.t4f.txt=\" Ninguna\""); 
09FEE:  MOVLW  76
09FF0:  MOVWF  FF6
09FF2:  MOVLW  12
09FF4:  MOVWF  FF7
09FF6:  MOVLW  00
09FF8:  MOVWF  FF8
09FFA:  CALL   35D6
....................                SendDataDisplay(); 
09FFE:  CALL   3608
....................                printf("Funcionamiento.t5f.txt=\" Llenando Camara\""); 
0A002:  MOVLW  98
0A004:  MOVWF  FF6
0A006:  MOVLW  12
0A008:  MOVWF  FF7
0A00A:  MOVLW  00
0A00C:  MOVWF  FF8
0A00E:  CALL   35D6
....................                SendDataDisplay(); 
0A012:  CALL   3608
....................             } 
....................             Control=0; 
0A016:  MOVLB  3
0A018:  CLRF   x2D
....................             IniciaLlenado=ON; 
0A01A:  MOVLB  0
0A01C:  BSF    x9F.7
....................             Controlando=0; 
0A01E:  MOVLB  3
0A020:  CLRF   x2F
....................             Desfogue_off; 
0A022:  BCF    F8C.4
0A024:  BCF    F95.4
....................             Agua_on; 
0A026:  BSF    F8C.5
0A028:  BCF    F95.5
....................             Bomba_off; 
0A02A:  BCF    F8C.6
0A02C:  BCF    F95.6
....................             Aire=ON; 
0A02E:  MOVLB  0
0A030:  BSF    xA3.7
....................          } 
....................          else{ 
0A032:  BRA    A5A6
....................             Agua_off; 
0A034:  BCF    F8C.5
0A036:  BCF    F95.5
....................             if(Temperatura>=((float)Setpoint-0.3)){ 
0A038:  MOVLB  3
0A03A:  CLRF   xE5
0A03C:  MOVFF  33E,3E4
0A040:  MOVLB  0
0A042:  CALL   182E
0A046:  MOVFF  00,3CF
0A04A:  MOVFF  01,3D0
0A04E:  MOVFF  02,3D1
0A052:  MOVFF  03,3D2
0A056:  BSF    FD8.1
0A058:  MOVFF  03,3E7
0A05C:  MOVFF  02,3E6
0A060:  MOVFF  01,3E5
0A064:  MOVFF  00,3E4
0A068:  MOVLW  9A
0A06A:  MOVLB  3
0A06C:  MOVWF  xEB
0A06E:  MOVLW  99
0A070:  MOVWF  xEA
0A072:  MOVLW  19
0A074:  MOVWF  xE9
0A076:  MOVLW  7D
0A078:  MOVWF  xE8
0A07A:  MOVLB  0
0A07C:  CALL   19C2
0A080:  MOVFF  03,3D6
0A084:  MOVFF  02,3D5
0A088:  MOVFF  01,3D4
0A08C:  MOVFF  00,3D3
0A090:  MOVFF  318,3DA
0A094:  MOVFF  317,3D9
0A098:  MOVFF  316,3D8
0A09C:  MOVFF  315,3D7
0A0A0:  CALL   2A60
0A0A4:  BC    A0A8
0A0A6:  BNZ   A0AA
....................                Esterilizando=ON; 
0A0A8:  BSF    xA0.2
....................             } 
....................              
....................             if(Temperatura<((float)Setpoint-0.9) && !Desfogando){ 
0A0AA:  MOVLB  3
0A0AC:  CLRF   xE5
0A0AE:  MOVFF  33E,3E4
0A0B2:  MOVLB  0
0A0B4:  CALL   182E
0A0B8:  MOVFF  00,3CF
0A0BC:  MOVFF  01,3D0
0A0C0:  MOVFF  02,3D1
0A0C4:  MOVFF  03,3D2
0A0C8:  BSF    FD8.1
0A0CA:  MOVFF  03,3E7
0A0CE:  MOVFF  02,3E6
0A0D2:  MOVFF  01,3E5
0A0D6:  MOVFF  00,3E4
0A0DA:  MOVLW  66
0A0DC:  MOVLB  3
0A0DE:  MOVWF  xEB
0A0E0:  MOVWF  xEA
0A0E2:  MOVWF  xE9
0A0E4:  MOVLW  7E
0A0E6:  MOVWF  xE8
0A0E8:  MOVLB  0
0A0EA:  CALL   19C2
0A0EE:  MOVFF  318,3D6
0A0F2:  MOVFF  317,3D5
0A0F6:  MOVFF  316,3D4
0A0FA:  MOVFF  315,3D3
0A0FE:  MOVFF  03,3DA
0A102:  MOVFF  02,3D9
0A106:  MOVFF  01,3D8
0A10A:  MOVFF  00,3D7
0A10E:  CALL   2A60
0A112:  BNC   A11A
0A114:  BTFSC  xA0.5
0A116:  BRA    A11A
....................                Esterilizando=OFF; 
0A118:  BCF    xA0.2
....................             } 
....................              
....................             if(!Esterilizando){ 
0A11A:  BTFSC  xA0.2
0A11C:  BRA    A19A
....................                printf("Funcionamiento.t4f.txt=\" Ninguna\""); 
0A11E:  MOVLW  C2
0A120:  MOVWF  FF6
0A122:  MOVLW  12
0A124:  MOVWF  FF7
0A126:  MOVLW  00
0A128:  MOVWF  FF8
0A12A:  CALL   35D6
....................                SendDataDisplay(); 
0A12E:  CALL   3608
....................                printf("Funcionamiento.t5f.txt=\" Calentando\""); 
0A132:  MOVLW  E4
0A134:  MOVWF  FF6
0A136:  MOVLW  12
0A138:  MOVWF  FF7
0A13A:  MOVLW  00
0A13C:  MOVWF  FF8
0A13E:  CALL   35D6
....................                SendDataDisplay(); 
0A142:  CALL   3608
....................                Control=1; 
0A146:  MOVLW  01
0A148:  MOVLB  3
0A14A:  MOVWF  x2D
....................                Controla(); 
0A14C:  MOVLB  0
0A14E:  CALL   4BDC
....................                Bomba_off; 
0A152:  BCF    F8C.6
0A154:  BCF    F95.6
....................                Desfogue_off; 
0A156:  BCF    F8C.4
0A158:  BCF    F95.4
....................                if(Temperatura<=TTrampa){ 
0A15A:  MOVLB  3
0A15C:  CLRF   xE5
0A15E:  MOVFF  2D0,3E4
0A162:  MOVLB  0
0A164:  CALL   182E
0A168:  MOVFF  318,3D6
0A16C:  MOVFF  317,3D5
0A170:  MOVFF  316,3D4
0A174:  MOVFF  315,3D3
0A178:  MOVFF  03,3DA
0A17C:  MOVFF  02,3D9
0A180:  MOVFF  01,3D8
0A184:  MOVFF  00,3D7
0A188:  CALL   2A60
0A18C:  BC    A190
0A18E:  BNZ   A194
....................                   Aire=ON; 
0A190:  BSF    xA3.7
....................                }else{ 
0A192:  BRA    A198
....................                   //Aire=OFF; 
....................                   purgaAire(); 
0A194:  GOTO   516C
....................                } 
....................             }else{ 
0A198:  BRA    A5A6
....................                TiempoCiclo=0; 
0A19A:  CLRF   xA6
0A19C:  CLRF   xA5
....................                if((Testerilizacion[0]==0)&&(Testerilizacion[1]==0)&& 
....................                (Testerilizacion[2]==0)&&(Testerilizacion[3]==0)){  
0A19E:  MOVF   xB1,F
0A1A0:  BTFSS  FD8.2
0A1A2:  BRA    A568
0A1A4:  MOVF   xB2,F
0A1A6:  BTFSS  FD8.2
0A1A8:  BRA    A568
0A1AA:  MOVF   xB3,F
0A1AC:  BTFSS  FD8.2
0A1AE:  BRA    A568
0A1B0:  MOVF   xB4,F
0A1B2:  BTFSS  FD8.2
0A1B4:  BRA    A568
....................                   if(desfoguelento){ 
0A1B6:  BTFSS  xA4.2
0A1B8:  BRA    A342
....................                      Controlando=0; 
0A1BA:  MOVLB  3
0A1BC:  CLRF   x2F
....................                      if(PresionCamara<=25){ 
0A1BE:  MOVF   x51,F
0A1C0:  BTFSS  FD8.2
0A1C2:  BRA    A302
0A1C4:  MOVF   x50,W
0A1C6:  SUBLW  19
0A1C8:  BTFSS  FD8.0
0A1CA:  BRA    A302
....................                         Secando=OFF; 
0A1CC:  MOVLB  0
0A1CE:  BCF    xA0.3
....................                         DesfogueSuave=OFF; 
0A1D0:  BCF    xA0.6
....................                         if(!DOOR){ 
0A1D2:  BSF    F93.6
0A1D4:  BTFSS  F81.6
0A1D6:  BRA    A1DE
....................                            Desfogue_off;  
0A1D8:  BCF    F8C.4
0A1DA:  BCF    F95.4
....................                         }else{ 
0A1DC:  BRA    A1E2
....................                            Desfogue_on;                            
0A1DE:  BSF    F8C.4
0A1E0:  BCF    F95.4
....................                         } 
....................                         Bomba_off; 
0A1E2:  BCF    F8C.6
0A1E4:  BCF    F95.6
....................                         Aire=OFF; 
0A1E6:  BCF    xA3.7
....................                         if(PresionCamara<2){ 
0A1E8:  MOVLB  3
0A1EA:  MOVF   x51,F
0A1EC:  BTFSS  FD8.2
0A1EE:  BRA    A2FC
0A1F0:  MOVF   x50,W
0A1F2:  SUBLW  01
0A1F4:  BTFSS  FD8.0
0A1F6:  BRA    A2FC
....................                            if(Temperatura<=90){ 
0A1F8:  MOVFF  318,3D6
0A1FC:  MOVFF  317,3D5
0A200:  MOVFF  316,3D4
0A204:  MOVFF  315,3D3
0A208:  CLRF   xDA
0A20A:  CLRF   xD9
0A20C:  MOVLW  34
0A20E:  MOVWF  xD8
0A210:  MOVLW  85
0A212:  MOVWF  xD7
0A214:  MOVLB  0
0A216:  CALL   2A60
0A21A:  BC    A21E
0A21C:  BNZ   A254
....................                               ActivaAlarma(2); 
0A21E:  MOVLW  02
0A220:  MOVLB  3
0A222:  MOVWF  xCF
0A224:  MOVLB  0
0A226:  CALL   43BE
....................                               printf("Funcionamiento.t4f.txt=\" Ninguna\""); 
0A22A:  MOVLW  0A
0A22C:  MOVWF  FF6
0A22E:  MOVLW  13
0A230:  MOVWF  FF7
0A232:  MOVLW  00
0A234:  MOVWF  FF8
0A236:  CALL   35D6
....................                               SendDataDisplay(); 
0A23A:  CALL   3608
....................                               printf("Funcionamiento.t5f.txt=\" Finalizado\""); 
0A23E:  MOVLW  2C
0A240:  MOVWF  FF6
0A242:  MOVLW  13
0A244:  MOVWF  FF7
0A246:  MOVLW  00
0A248:  MOVWF  FF8
0A24A:  CALL   35D6
....................                               SendDataDisplay(); 
0A24E:  CALL   3608
....................                               Finalizo=ON; 
0A252:  BSF    xA3.2
....................                            } 
....................                            if(!Ciclo){ 
0A254:  BTFSC  xA1.3
0A256:  BRA    A2FE
....................                               Ciclo=ON; 
0A258:  BSF    xA1.3
....................                               Ciclos++; 
0A25A:  MOVLB  3
0A25C:  INCF   x54,F
0A25E:  BTFSC  FD8.2
0A260:  INCF   x55,F
....................                               CiclosL=make8(Ciclos,0); 
0A262:  MOVFF  354,33B
....................                               CiclosH=make8(Ciclos,1); 
0A266:  MOVFF  355,33C
....................                               write_eeprom(37,CiclosL); 
0A26A:  CLRF   FAA
0A26C:  MOVLW  25
0A26E:  MOVWF  FA9
0A270:  MOVFF  33B,FA8
0A274:  BCF    FA6.6
0A276:  BCF    FA6.7
0A278:  BSF    FA6.2
0A27A:  MOVF   FF2,W
0A27C:  MOVWF  00
0A27E:  BCF    FF2.6
0A280:  BCF    FF2.7
0A282:  MOVLB  F
0A284:  MOVLW  55
0A286:  MOVWF  FA7
0A288:  MOVLW  AA
0A28A:  MOVWF  FA7
0A28C:  BSF    FA6.1
0A28E:  BTFSC  FA6.1
0A290:  BRA    A28E
0A292:  BCF    FA6.2
0A294:  MOVF   00,W
0A296:  IORWF  FF2,F
....................                               delay_ms(20); 
0A298:  MOVLW  14
0A29A:  MOVLB  3
0A29C:  MOVWF  xE4
0A29E:  MOVLB  0
0A2A0:  CALL   1806
....................                               write_eeprom(38,CiclosH); 
0A2A4:  CLRF   FAA
0A2A6:  MOVLW  26
0A2A8:  MOVWF  FA9
0A2AA:  MOVFF  33C,FA8
0A2AE:  BCF    FA6.6
0A2B0:  BCF    FA6.7
0A2B2:  BSF    FA6.2
0A2B4:  MOVF   FF2,W
0A2B6:  MOVWF  00
0A2B8:  BCF    FF2.6
0A2BA:  BCF    FF2.7
0A2BC:  MOVLB  F
0A2BE:  MOVLW  55
0A2C0:  MOVWF  FA7
0A2C2:  MOVLW  AA
0A2C4:  MOVWF  FA7
0A2C6:  BSF    FA6.1
0A2C8:  BTFSC  FA6.1
0A2CA:  BRA    A2C8
0A2CC:  BCF    FA6.2
0A2CE:  MOVF   00,W
0A2D0:  IORWF  FF2,F
....................                               delay_ms(20); 
0A2D2:  MOVLW  14
0A2D4:  MOVLB  3
0A2D6:  MOVWF  xE4
0A2D8:  MOVLB  0
0A2DA:  CALL   1806
....................                                
....................                                  Imprime=28; 
0A2DE:  MOVLW  1C
0A2E0:  MOVLB  3
0A2E2:  MOVWF  x84
....................                                  Envio_Esclavos(); 
0A2E4:  MOVLB  0
0A2E6:  CALL   3F5C
....................                                  delay_ms(100); 
0A2EA:  MOVLW  64
0A2EC:  MOVLB  3
0A2EE:  MOVWF  xE4
0A2F0:  MOVLB  0
0A2F2:  CALL   1806
....................                                  Imprime=10; 
0A2F6:  MOVLW  0A
0A2F8:  MOVLB  3
0A2FA:  MOVWF  x84
0A2FC:  MOVLB  0
....................                                
....................                            } 
....................                         } 
....................                      }else{ 
0A2FE:  BRA    A340
0A300:  MOVLB  3
....................                         Desfogando=ON; 
0A302:  MOVLB  0
0A304:  BSF    xA0.5
....................                         DesfogueSuave=ON; 
0A306:  BSF    xA0.6
....................                         printf("Funcionamiento.t4f.txt=\" Ninguna\""); 
0A308:  MOVLW  52
0A30A:  MOVWF  FF6
0A30C:  MOVLW  13
0A30E:  MOVWF  FF7
0A310:  MOVLW  00
0A312:  MOVWF  FF8
0A314:  CALL   35D6
....................                         SendDataDisplay(); 
0A318:  CALL   3608
....................                         printf("Funcionamiento.t5f.txt=\" Despresurizando\""); 
0A31C:  MOVLW  74
0A31E:  MOVWF  FF6
0A320:  MOVLW  13
0A322:  MOVWF  FF7
0A324:  MOVLW  00
0A326:  MOVWF  FF8
0A328:  CALL   35D6
....................                         SendDataDisplay(); 
0A32C:  CALL   3608
....................                         Control=0; 
0A330:  MOVLB  3
0A332:  CLRF   x2D
....................                         SSR_off; 
0A334:  BSF    F8B.2
0A336:  BCF    F94.2
....................                         Bomba_off; 
0A338:  BCF    F8C.6
0A33A:  BCF    F95.6
....................                         Aire=OFF; 
0A33C:  MOVLB  0
0A33E:  BCF    xA3.7
....................                      } 
....................                   }else{ 
0A340:  BRA    A562
....................                      //SSR_off; 
....................                      Controlando=0; 
0A342:  MOVLB  3
0A344:  CLRF   x2F
....................                      Control=0; 
0A346:  CLRF   x2D
....................                      if(PresionCamara<=5){ 
0A348:  MOVF   x51,F
0A34A:  BTFSS  FD8.2
0A34C:  BRA    A51E
0A34E:  MOVF   x50,W
0A350:  SUBLW  05
0A352:  BTFSS  FD8.0
0A354:  BRA    A51E
....................                         if((Tsecado[0]==0)&&(Tsecado[1]==0)&&(Tsecado[2]==0)&&(Tsecado[3]==0)){ 
0A356:  MOVLB  0
0A358:  MOVF   xBB,F
0A35A:  BTFSS  FD8.2
0A35C:  BRA    A494
0A35E:  MOVF   xBC,F
0A360:  BTFSS  FD8.2
0A362:  BRA    A494
0A364:  MOVF   xBD,F
0A366:  BTFSS  FD8.2
0A368:  BRA    A494
0A36A:  MOVF   xBE,F
0A36C:  BTFSS  FD8.2
0A36E:  BRA    A494
....................                            SSR_off; 
0A370:  BSF    F8B.2
0A372:  BCF    F94.2
....................                            Secando=OFF; 
0A374:  BCF    xA0.3
....................                            if(!DOOR){ 
0A376:  BSF    F93.6
0A378:  BTFSS  F81.6
0A37A:  BRA    A386
....................                               Bomba_off; 
0A37C:  BCF    F8C.6
0A37E:  BCF    F95.6
....................                               Aire=OFF; 
0A380:  BCF    xA3.7
....................                               Desfogue_off; 
0A382:  BCF    F8C.4
0A384:  BCF    F95.4
....................                            } 
....................                            if(PresionCamara<=1){ 
0A386:  MOVLB  3
0A388:  MOVF   x51,F
0A38A:  BNZ   A3D0
0A38C:  MOVF   x50,W
0A38E:  SUBLW  01
0A390:  BNC   A3D0
....................                               ActivaAlarma(2); 
0A392:  MOVLW  02
0A394:  MOVWF  xCF
0A396:  MOVLB  0
0A398:  CALL   43BE
....................                               printf("Funcionamiento.t4f.txt=\" Ninguna\""); 
0A39C:  MOVLW  9E
0A39E:  MOVWF  FF6
0A3A0:  MOVLW  13
0A3A2:  MOVWF  FF7
0A3A4:  MOVLW  00
0A3A6:  MOVWF  FF8
0A3A8:  CALL   35D6
....................                               SendDataDisplay(); 
0A3AC:  CALL   3608
....................                               printf("Funcionamiento.t5f.txt=\" Finalizado\""); 
0A3B0:  MOVLW  C0
0A3B2:  MOVWF  FF6
0A3B4:  MOVLW  13
0A3B6:  MOVWF  FF7
0A3B8:  MOVLW  00
0A3BA:  MOVWF  FF8
0A3BC:  CALL   35D6
....................                               SendDataDisplay(); 
0A3C0:  CALL   3608
....................                               Finalizo=ON; 
0A3C4:  BSF    xA3.2
....................                               Bomba_off; 
0A3C6:  BCF    F8C.6
0A3C8:  BCF    F95.6
....................                               Aire=OFF; 
0A3CA:  BCF    xA3.7
....................                            }else{ 
0A3CC:  BRA    A3E2
0A3CE:  MOVLB  3
....................                               if(DOOR){ 
0A3D0:  BSF    F93.6
0A3D2:  BTFSC  F81.6
0A3D4:  BRA    A3E4
....................                                  Bomba_on; 
0A3D6:  BSF    F8C.6
0A3D8:  BCF    F95.6
....................                                  Aire=ON; 
0A3DA:  MOVLB  0
0A3DC:  BSF    xA3.7
....................                                  Desfogue_off; 
0A3DE:  BCF    F8C.4
0A3E0:  BCF    F95.4
0A3E2:  MOVLB  3
....................                               } 
....................                            } 
....................                            if(!Ciclo){ 
0A3E4:  MOVLB  0
0A3E6:  BTFSC  xA1.3
0A3E8:  BRA    A490
....................                               Ciclo=ON; 
0A3EA:  BSF    xA1.3
....................                               Ciclos++; 
0A3EC:  MOVLB  3
0A3EE:  INCF   x54,F
0A3F0:  BTFSC  FD8.2
0A3F2:  INCF   x55,F
....................                               CiclosL=make8(Ciclos,0); 
0A3F4:  MOVFF  354,33B
....................                               CiclosH=make8(Ciclos,1); 
0A3F8:  MOVFF  355,33C
....................                               write_eeprom(37,CiclosL); 
0A3FC:  CLRF   FAA
0A3FE:  MOVLW  25
0A400:  MOVWF  FA9
0A402:  MOVFF  33B,FA8
0A406:  BCF    FA6.6
0A408:  BCF    FA6.7
0A40A:  BSF    FA6.2
0A40C:  MOVF   FF2,W
0A40E:  MOVWF  00
0A410:  BCF    FF2.6
0A412:  BCF    FF2.7
0A414:  MOVLB  F
0A416:  MOVLW  55
0A418:  MOVWF  FA7
0A41A:  MOVLW  AA
0A41C:  MOVWF  FA7
0A41E:  BSF    FA6.1
0A420:  BTFSC  FA6.1
0A422:  BRA    A420
0A424:  BCF    FA6.2
0A426:  MOVF   00,W
0A428:  IORWF  FF2,F
....................                               delay_ms(20); 
0A42A:  MOVLW  14
0A42C:  MOVLB  3
0A42E:  MOVWF  xE4
0A430:  MOVLB  0
0A432:  CALL   1806
....................                               write_eeprom(38,CiclosH); 
0A436:  CLRF   FAA
0A438:  MOVLW  26
0A43A:  MOVWF  FA9
0A43C:  MOVFF  33C,FA8
0A440:  BCF    FA6.6
0A442:  BCF    FA6.7
0A444:  BSF    FA6.2
0A446:  MOVF   FF2,W
0A448:  MOVWF  00
0A44A:  BCF    FF2.6
0A44C:  BCF    FF2.7
0A44E:  MOVLB  F
0A450:  MOVLW  55
0A452:  MOVWF  FA7
0A454:  MOVLW  AA
0A456:  MOVWF  FA7
0A458:  BSF    FA6.1
0A45A:  BTFSC  FA6.1
0A45C:  BRA    A45A
0A45E:  BCF    FA6.2
0A460:  MOVF   00,W
0A462:  IORWF  FF2,F
....................                               delay_ms(20); 
0A464:  MOVLW  14
0A466:  MOVLB  3
0A468:  MOVWF  xE4
0A46A:  MOVLB  0
0A46C:  CALL   1806
....................                               Imprime=28; 
0A470:  MOVLW  1C
0A472:  MOVLB  3
0A474:  MOVWF  x84
....................                               Envio_Esclavos(); 
0A476:  MOVLB  0
0A478:  CALL   3F5C
....................                               delay_ms(100); 
0A47C:  MOVLW  64
0A47E:  MOVLB  3
0A480:  MOVWF  xE4
0A482:  MOVLB  0
0A484:  CALL   1806
....................                               Imprime=10; 
0A488:  MOVLW  0A
0A48A:  MOVLB  3
0A48C:  MOVWF  x84
0A48E:  MOVLB  0
....................                            } 
....................                            Secando=OFF; 
0A490:  BCF    xA0.3
....................                         }else{ 
0A492:  BRA    A51A
....................                            Secando=ON; 
0A494:  BSF    xA0.3
....................                            printf("Funcionamiento.t4f.txt=\" Ninguna\""); 
0A496:  MOVLW  E6
0A498:  MOVWF  FF6
0A49A:  MOVLW  13
0A49C:  MOVWF  FF7
0A49E:  MOVLW  00
0A4A0:  MOVWF  FF8
0A4A2:  CALL   35D6
....................                            SendDataDisplay(); 
0A4A6:  CALL   3608
....................                            printf("Funcionamiento.t5f.txt=\" Secando\""); 
0A4AA:  MOVLW  08
0A4AC:  MOVWF  FF6
0A4AE:  MOVLW  14
0A4B0:  MOVWF  FF7
0A4B2:  MOVLW  00
0A4B4:  MOVWF  FF8
0A4B6:  CALL   35D6
....................                            SendDataDisplay();                            
0A4BA:  CALL   3608
....................                            if(DOOR){ 
0A4BE:  BSF    F93.6
0A4C0:  BTFSC  F81.6
0A4C2:  BRA    A506
....................                               if(Temperatura<110){ 
0A4C4:  MOVFF  318,3D6
0A4C8:  MOVFF  317,3D5
0A4CC:  MOVFF  316,3D4
0A4D0:  MOVFF  315,3D3
0A4D4:  MOVLB  3
0A4D6:  CLRF   xDA
0A4D8:  CLRF   xD9
0A4DA:  MOVLW  5C
0A4DC:  MOVWF  xD8
0A4DE:  MOVLW  85
0A4E0:  MOVWF  xD7
0A4E2:  MOVLB  0
0A4E4:  CALL   2A60
0A4E8:  BNC   A4F0
....................                                  CalientaChaqueta(); 
0A4EA:  GOTO   526E
....................                               }else{ 
0A4EE:  BRA    A4FA
....................                                  SSR_off; 
0A4F0:  BSF    F8B.2
0A4F2:  BCF    F94.2
....................                                  Controlando=0; 
0A4F4:  MOVLB  3
0A4F6:  CLRF   x2F
0A4F8:  MOVLB  0
....................                               } 
....................                               Bomba_on; 
0A4FA:  BSF    F8C.6
0A4FC:  BCF    F95.6
....................                               Aire=ON; 
0A4FE:  BSF    xA3.7
....................                               Desfogue_off; 
0A500:  BCF    F8C.4
0A502:  BCF    F95.4
....................                            }else{ 
0A504:  BRA    A51A
....................                               Bomba_off; 
0A506:  BCF    F8C.6
0A508:  BCF    F95.6
....................                               Aire=OFF; 
0A50A:  BCF    xA3.7
....................                               Desfogue_off; 
0A50C:  BCF    F8C.4
0A50E:  BCF    F95.4
....................                               SSR_off; 
0A510:  BSF    F8B.2
0A512:  BCF    F94.2
....................                               Controlando=0; 
0A514:  MOVLB  3
0A516:  CLRF   x2F
0A518:  MOVLB  0
....................                            } 
....................                         } 
....................                      }else if(PresionCamara>6){ 
0A51A:  BRA    A562
0A51C:  MOVLB  3
0A51E:  MOVF   x51,F
0A520:  BNZ   A528
0A522:  MOVF   x50,W
0A524:  SUBLW  06
0A526:  BC    A564
....................                         Desfogando=ON; 
0A528:  MOVLB  0
0A52A:  BSF    xA0.5
....................                         printf("Funcionamiento.t4f.txt=\" Ninguna\""); 
0A52C:  MOVLW  2A
0A52E:  MOVWF  FF6
0A530:  MOVLW  14
0A532:  MOVWF  FF7
0A534:  MOVLW  00
0A536:  MOVWF  FF8
0A538:  CALL   35D6
....................                         SendDataDisplay(); 
0A53C:  CALL   3608
....................                         printf("Funcionamiento.t5f.txt=\" Despresurizando\""); 
0A540:  MOVLW  4C
0A542:  MOVWF  FF6
0A544:  MOVLW  14
0A546:  MOVWF  FF7
0A548:  MOVLW  00
0A54A:  MOVWF  FF8
0A54C:  CALL   35D6
....................                         SendDataDisplay();                         
0A550:  CALL   3608
....................                         //CalientaChaqueta(); 
....................                         Bomba_off; 
0A554:  BCF    F8C.6
0A556:  BCF    F95.6
....................                         Aire=OFF; 
0A558:  BCF    xA3.7
....................                         Desfogue_on; 
0A55A:  BSF    F8C.4
0A55C:  BCF    F95.4
....................                         SSR_off; 
0A55E:  BSF    F8B.2
0A560:  BCF    F94.2
0A562:  MOVLB  3
....................                      } 
....................                   } 
....................                    
....................                }else{ 
0A564:  BRA    A5A8
0A566:  MOVLB  0
....................                   printf("Funcionamiento.t4f.txt=\" Ninguna\""); 
0A568:  MOVLW  76
0A56A:  MOVWF  FF6
0A56C:  MOVLW  14
0A56E:  MOVWF  FF7
0A570:  MOVLW  00
0A572:  MOVWF  FF8
0A574:  CALL   35D6
....................                   SendDataDisplay(); 
0A578:  CALL   3608
....................                   printf("Funcionamiento.t5f.txt=\" Esterilizando\""); 
0A57C:  MOVLW  98
0A57E:  MOVWF  FF6
0A580:  MOVLW  14
0A582:  MOVWF  FF7
0A584:  MOVLW  00
0A586:  MOVWF  FF8
0A588:  CALL   35D6
....................                   SendDataDisplay(); 
0A58C:  CALL   3608
....................                   Bomba_off; 
0A590:  BCF    F8C.6
0A592:  BCF    F95.6
....................                   Aire=OFF; 
0A594:  BCF    xA3.7
....................                   Desfogue_off; 
0A596:  BCF    F8C.4
0A598:  BCF    F95.4
....................                   Control=1; 
0A59A:  MOVLW  01
0A59C:  MOVLB  3
0A59E:  MOVWF  x2D
....................                   Controla(); 
0A5A0:  MOVLB  0
0A5A2:  CALL   4BDC
0A5A6:  MOVLB  3
....................                } 
....................             } 
....................          } 
....................    } 
....................  
....................    if(Grafica==1){ 
0A5A8:  MOVLB  0
0A5AA:  BTFSS  xA4.4
0A5AC:  BRA    A5EA
....................       printf("add 14,0,%1.0f",Temperatura); 
0A5AE:  MOVLW  C0
0A5B0:  MOVWF  FF6
0A5B2:  MOVLW  14
0A5B4:  MOVWF  FF7
0A5B6:  MOVLW  00
0A5B8:  MOVWF  FF8
0A5BA:  MOVLW  09
0A5BC:  MOVLB  3
0A5BE:  MOVWF  xD3
0A5C0:  MOVLB  0
0A5C2:  CALL   44BA
0A5C6:  MOVLW  00
0A5C8:  MOVWF  FE9
0A5CA:  MOVFF  318,3D6
0A5CE:  MOVFF  317,3D5
0A5D2:  MOVFF  316,3D4
0A5D6:  MOVFF  315,3D3
0A5DA:  MOVLB  3
0A5DC:  CLRF   xD7
0A5DE:  MOVLB  0
0A5E0:  CALL   4782
....................       SendDataDisplay(); 
0A5E4:  CALL   3608
....................       Grafica=0; 
0A5E8:  BCF    xA4.4
....................    } 
....................    if(Lectura==1)// Utilizado para visualizar la lectura de la temperatura 
0A5EA:  BTFSS  xA4.3
0A5EC:  BRA    A8AC
....................    {                             
....................       Lectura=0; 
0A5EE:  BCF    xA4.3
....................       printf("t6f.txt=\"%3.1fC\"",Temperatura); 
0A5F0:  MOVLW  D0
0A5F2:  MOVWF  FF6
0A5F4:  MOVLW  14
0A5F6:  MOVWF  FF7
0A5F8:  MOVLW  00
0A5FA:  MOVWF  FF8
0A5FC:  MOVLW  09
0A5FE:  MOVLB  3
0A600:  MOVWF  xD3
0A602:  MOVLB  0
0A604:  CALL   44BA
0A608:  MOVLW  02
0A60A:  MOVWF  FE9
0A60C:  MOVFF  318,3D6
0A610:  MOVFF  317,3D5
0A614:  MOVFF  316,3D4
0A618:  MOVFF  315,3D3
0A61C:  MOVLW  01
0A61E:  MOVLB  3
0A620:  MOVWF  xD7
0A622:  MOVLB  0
0A624:  CALL   4782
0A628:  MOVLW  B0
0A62A:  BTFSS  F9E.4
0A62C:  BRA    A62A
0A62E:  MOVWF  FAD
0A630:  MOVLW  43
0A632:  BTFSS  F9E.4
0A634:  BRA    A632
0A636:  MOVWF  FAD
0A638:  MOVLW  22
0A63A:  BTFSS  F9E.4
0A63C:  BRA    A63A
0A63E:  MOVWF  FAD
....................       SendDataDisplay(); 
0A640:  CALL   3608
....................       printf("Funcionamiento.t7f.txt=\"%03LukPa\"",PresionCamara); 
0A644:  MOVLW  E2
0A646:  MOVWF  FF6
0A648:  MOVLW  14
0A64A:  MOVWF  FF7
0A64C:  MOVLW  00
0A64E:  MOVWF  FF8
0A650:  MOVLW  18
0A652:  MOVLB  3
0A654:  MOVWF  xD3
0A656:  MOVLB  0
0A658:  CALL   44BA
0A65C:  MOVLW  0A
0A65E:  MOVWF  FE9
0A660:  MOVFF  351,3D4
0A664:  MOVFF  350,3D3
0A668:  CALL   4614
0A66C:  MOVLW  FF
0A66E:  MOVWF  FF6
0A670:  MOVLW  14
0A672:  MOVWF  FF7
0A674:  MOVLW  00
0A676:  MOVWF  FF8
0A678:  MOVLW  04
0A67A:  MOVLB  3
0A67C:  MOVWF  xD3
0A67E:  MOVLB  0
0A680:  CALL   44BA
....................       SendDataDisplay(); 
0A684:  CALL   3608
....................       //printf("Funcionamiento.t12f.txt=\"%03LukPa\"",PresionPreCamara); 
....................       printf("Funcionamiento.t12f.txt=\"000kPa\""); 
0A688:  MOVLW  04
0A68A:  MOVWF  FF6
0A68C:  MOVLW  15
0A68E:  MOVWF  FF7
0A690:  MOVLW  00
0A692:  MOVWF  FF8
0A694:  CALL   35D6
....................       SendDataDisplay(); 
0A698:  CALL   3608
....................       printf("Funcionamiento.t9f.txt=\"%03u\"",Setpoint); 
0A69C:  MOVLW  26
0A69E:  MOVWF  FF6
0A6A0:  MOVLW  15
0A6A2:  MOVWF  FF7
0A6A4:  MOVLW  00
0A6A6:  MOVWF  FF8
0A6A8:  MOVLW  18
0A6AA:  MOVLB  3
0A6AC:  MOVWF  xD3
0A6AE:  MOVLB  0
0A6B0:  CALL   44BA
0A6B4:  MOVFF  33E,3D1
0A6B8:  MOVLW  03
0A6BA:  MOVLB  3
0A6BC:  MOVWF  xD2
0A6BE:  MOVLB  0
0A6C0:  CALL   4518
0A6C4:  MOVLW  22
0A6C6:  BTFSS  F9E.4
0A6C8:  BRA    A6C6
0A6CA:  MOVWF  FAD
....................       SendDataDisplay();       
0A6CC:  CALL   3608
....................       printf("Funcionamiento.t10f.txt=\"%02u\"",((Testerilizacion[3]*10)+Testerilizacion[2])); 
0A6D0:  MOVFF  B4,3D1
0A6D4:  MOVLW  0A
0A6D6:  MOVLB  3
0A6D8:  MOVWF  xD2
0A6DA:  MOVLB  0
0A6DC:  CALL   2ADA
0A6E0:  MOVF   xB3,W
0A6E2:  ADDWF  01,W
0A6E4:  MOVLB  3
0A6E6:  MOVWF  xCF
0A6E8:  MOVLW  44
0A6EA:  MOVWF  FF6
0A6EC:  MOVLW  15
0A6EE:  MOVWF  FF7
0A6F0:  MOVLW  00
0A6F2:  MOVWF  FF8
0A6F4:  MOVLW  19
0A6F6:  MOVWF  xD3
0A6F8:  MOVLB  0
0A6FA:  CALL   44BA
0A6FE:  MOVFF  3CF,3D1
0A702:  MOVLW  01
0A704:  MOVLB  3
0A706:  MOVWF  xD2
0A708:  MOVLB  0
0A70A:  CALL   4518
0A70E:  MOVLW  22
0A710:  BTFSS  F9E.4
0A712:  BRA    A710
0A714:  MOVWF  FAD
....................       SendDataDisplay();       
0A716:  CALL   3608
....................       printf("Funcionamiento.t13f.txt=\"%02u\"",((Testerilizacion[1]*10)+Testerilizacion[0])); 
0A71A:  MOVFF  B2,3D1
0A71E:  MOVLW  0A
0A720:  MOVLB  3
0A722:  MOVWF  xD2
0A724:  MOVLB  0
0A726:  CALL   2ADA
0A72A:  MOVF   xB1,W
0A72C:  ADDWF  01,W
0A72E:  MOVLB  3
0A730:  MOVWF  xCF
0A732:  MOVLW  64
0A734:  MOVWF  FF6
0A736:  MOVLW  15
0A738:  MOVWF  FF7
0A73A:  MOVLW  00
0A73C:  MOVWF  FF8
0A73E:  MOVLW  19
0A740:  MOVWF  xD3
0A742:  MOVLB  0
0A744:  CALL   44BA
0A748:  MOVFF  3CF,3D1
0A74C:  MOVLW  01
0A74E:  MOVLB  3
0A750:  MOVWF  xD2
0A752:  MOVLB  0
0A754:  CALL   4518
0A758:  MOVLW  22
0A75A:  BTFSS  F9E.4
0A75C:  BRA    A75A
0A75E:  MOVWF  FAD
....................       SendDataDisplay();       
0A760:  CALL   3608
....................       printf("Funcionamiento.t11f.txt=\"%02u\"",((Tsecado[3]*10)+Tsecado[2])); 
0A764:  MOVFF  BE,3D1
0A768:  MOVLW  0A
0A76A:  MOVLB  3
0A76C:  MOVWF  xD2
0A76E:  MOVLB  0
0A770:  CALL   2ADA
0A774:  MOVF   xBD,W
0A776:  ADDWF  01,W
0A778:  MOVLB  3
0A77A:  MOVWF  xCF
0A77C:  MOVLW  84
0A77E:  MOVWF  FF6
0A780:  MOVLW  15
0A782:  MOVWF  FF7
0A784:  MOVLW  00
0A786:  MOVWF  FF8
0A788:  MOVLW  19
0A78A:  MOVWF  xD3
0A78C:  MOVLB  0
0A78E:  CALL   44BA
0A792:  MOVFF  3CF,3D1
0A796:  MOVLW  01
0A798:  MOVLB  3
0A79A:  MOVWF  xD2
0A79C:  MOVLB  0
0A79E:  CALL   4518
0A7A2:  MOVLW  22
0A7A4:  BTFSS  F9E.4
0A7A6:  BRA    A7A4
0A7A8:  MOVWF  FAD
....................       SendDataDisplay();       
0A7AA:  CALL   3608
....................       printf("Funcionamiento.t16f.txt=\"%02u\"",((Tsecado[1]*10)+Tsecado[0])); 
0A7AE:  MOVFF  BC,3D1
0A7B2:  MOVLW  0A
0A7B4:  MOVLB  3
0A7B6:  MOVWF  xD2
0A7B8:  MOVLB  0
0A7BA:  CALL   2ADA
0A7BE:  MOVF   xBB,W
0A7C0:  ADDWF  01,W
0A7C2:  MOVLB  3
0A7C4:  MOVWF  xCF
0A7C6:  MOVLW  A4
0A7C8:  MOVWF  FF6
0A7CA:  MOVLW  15
0A7CC:  MOVWF  FF7
0A7CE:  MOVLW  00
0A7D0:  MOVWF  FF8
0A7D2:  MOVLW  19
0A7D4:  MOVWF  xD3
0A7D6:  MOVLB  0
0A7D8:  CALL   44BA
0A7DC:  MOVFF  3CF,3D1
0A7E0:  MOVLW  01
0A7E2:  MOVLB  3
0A7E4:  MOVWF  xD2
0A7E6:  MOVLB  0
0A7E8:  CALL   4518
0A7EC:  MOVLW  22
0A7EE:  BTFSS  F9E.4
0A7F0:  BRA    A7EE
0A7F2:  MOVWF  FAD
....................       SendDataDisplay();       
0A7F4:  CALL   3608
....................        
....................       printf("fecha.txt=\"Fecha:%02u/%02u/20%02u    Hora: %02u:%02u\"",Dia,Mes,Year,Hora,Minuto); 
0A7F8:  MOVLW  C4
0A7FA:  MOVWF  FF6
0A7FC:  MOVLW  15
0A7FE:  MOVWF  FF7
0A800:  MOVLW  00
0A802:  MOVWF  FF8
0A804:  MOVLW  11
0A806:  MOVLB  3
0A808:  MOVWF  xD3
0A80A:  MOVLB  0
0A80C:  CALL   44BA
0A810:  MOVFF  377,3D1
0A814:  MOVLW  01
0A816:  MOVLB  3
0A818:  MOVWF  xD2
0A81A:  MOVLB  0
0A81C:  CALL   4518
0A820:  MOVLW  2F
0A822:  BTFSS  F9E.4
0A824:  BRA    A822
0A826:  MOVWF  FAD
0A828:  MOVFF  376,3D1
0A82C:  MOVLW  01
0A82E:  MOVLB  3
0A830:  MOVWF  xD2
0A832:  MOVLB  0
0A834:  CALL   4518
0A838:  MOVLW  2F
0A83A:  BTFSS  F9E.4
0A83C:  BRA    A83A
0A83E:  MOVWF  FAD
0A840:  MOVLW  32
0A842:  BTFSS  F9E.4
0A844:  BRA    A842
0A846:  MOVWF  FAD
0A848:  MOVLW  30
0A84A:  BTFSS  F9E.4
0A84C:  BRA    A84A
0A84E:  MOVWF  FAD
0A850:  MOVFF  375,3D1
0A854:  MOVLW  01
0A856:  MOVLB  3
0A858:  MOVWF  xD2
0A85A:  MOVLB  0
0A85C:  CALL   4518
0A860:  MOVLW  E5
0A862:  MOVWF  FF6
0A864:  MOVLW  15
0A866:  MOVWF  FF7
0A868:  MOVLW  00
0A86A:  MOVWF  FF8
0A86C:  MOVLW  0A
0A86E:  MOVLB  3
0A870:  MOVWF  xD3
0A872:  MOVLB  0
0A874:  CALL   44BA
0A878:  MOVFF  378,3D1
0A87C:  MOVLW  01
0A87E:  MOVLB  3
0A880:  MOVWF  xD2
0A882:  MOVLB  0
0A884:  CALL   4518
0A888:  MOVLW  3A
0A88A:  BTFSS  F9E.4
0A88C:  BRA    A88A
0A88E:  MOVWF  FAD
0A890:  MOVFF  379,3D1
0A894:  MOVLW  01
0A896:  MOVLB  3
0A898:  MOVWF  xD2
0A89A:  MOVLB  0
0A89C:  CALL   4518
0A8A0:  MOVLW  22
0A8A2:  BTFSS  F9E.4
0A8A4:  BRA    A8A2
0A8A6:  MOVWF  FAD
....................       SendDataDisplay(); 
0A8A8:  CALL   3608
0A8AC:  MOVLB  3
....................    } 
....................  
....................  
.................... } 
.................... //_-------------------------------------------------------------------------------------------------------------------------------------------------------- 
....................  
.................... //_-------------------------------------------------------------------------------------------------------------------------------------------------------- 
....................       if(Menu==100){ //Menu de Configuracin de Parametros de Control 
0A8AE:  MOVF   x37,W
0A8B0:  SUBLW  64
0A8B2:  BTFSS  FD8.2
0A8B4:  GOTO   B7D6
....................       
....................       if(Opcion2>11) 
0A8B8:  MOVF   x40,W
0A8BA:  SUBLW  0B
0A8BC:  BC    A8C2
....................          Opcion2=1; 
0A8BE:  MOVLW  01
0A8C0:  MOVWF  x40
....................       if(Opcion2<1) 
0A8C2:  MOVF   x40,F
0A8C4:  BNZ   A8CA
....................          Opcion2=11; 
0A8C6:  MOVLW  0B
0A8C8:  MOVWF  x40
....................        
....................       if(Opcion2==1){ 
0A8CA:  DECFSZ x40,W
0A8CC:  BRA    AA4A
....................          printf("Config.t2c.txt=\"Proporcional\""); 
0A8CE:  MOVLW  FA
0A8D0:  MOVWF  FF6
0A8D2:  MOVLW  15
0A8D4:  MOVWF  FF7
0A8D6:  MOVLW  00
0A8D8:  MOVWF  FF8
0A8DA:  MOVLB  0
0A8DC:  CALL   35D6
....................          SendDataDisplay();       
0A8E0:  CALL   3608
....................          printf("t3c.txt=\"%2.0f\"",Ganancia); 
0A8E4:  MOVLW  18
0A8E6:  MOVWF  FF6
0A8E8:  MOVLW  16
0A8EA:  MOVWF  FF7
0A8EC:  MOVLW  00
0A8EE:  MOVWF  FF8
0A8F0:  MOVLW  09
0A8F2:  MOVLB  3
0A8F4:  MOVWF  xD3
0A8F6:  MOVLB  0
0A8F8:  CALL   44BA
0A8FC:  MOVLW  01
0A8FE:  MOVWF  FE9
0A900:  MOVFF  2F8,3D6
0A904:  MOVFF  2F7,3D5
0A908:  MOVFF  2F6,3D4
0A90C:  MOVFF  2F5,3D3
0A910:  MOVLB  3
0A912:  CLRF   xD7
0A914:  MOVLB  0
0A916:  CALL   4782
0A91A:  MOVLW  22
0A91C:  BTFSS  F9E.4
0A91E:  BRA    A91C
0A920:  MOVWF  FAD
....................          SendDataDisplay(); 
0A922:  CALL   3608
....................          if(RX_Buffer[4]==0x0a || UP){//Tecla Arriba Oprimida 
0A926:  MOVF   34,W
0A928:  SUBLW  0A
0A92A:  BZ    A932
0A92C:  BSF    F93.0
0A92E:  BTFSC  F81.0
0A930:  BRA    A982
....................             delay_ms(20); 
0A932:  MOVLW  14
0A934:  MOVLB  3
0A936:  MOVWF  xE4
0A938:  MOVLB  0
0A93A:  CALL   1806
....................             if(RX_Buffer[4]==0x0a || UP){ 
0A93E:  MOVF   34,W
0A940:  SUBLW  0A
0A942:  BZ    A94A
0A944:  BSF    F93.0
0A946:  BTFSC  F81.0
0A948:  BRA    A982
....................                Ganancia+=1.0; 
0A94A:  BCF    FD8.1
0A94C:  MOVFF  2F8,3E7
0A950:  MOVFF  2F7,3E6
0A954:  MOVFF  2F6,3E5
0A958:  MOVFF  2F5,3E4
0A95C:  MOVLB  3
0A95E:  CLRF   xEB
0A960:  CLRF   xEA
0A962:  CLRF   xE9
0A964:  MOVLW  7F
0A966:  MOVWF  xE8
0A968:  MOVLB  0
0A96A:  CALL   19C2
0A96E:  MOVFF  03,2F8
0A972:  MOVFF  02,2F7
0A976:  MOVFF  01,2F6
0A97A:  MOVFF  00,2F5
....................                RX_Buffer[4]=0x00;   
0A97E:  CLRF   34
....................                RX_Buffer2[4]=0x00;             
0A980:  CLRF   3F
....................                //BorraBuffer(); 
....................             } 
....................          } 
....................              
....................          if(RX_Buffer[4]==0x0b || DOWN){//Tecla Abajo Oprimida 
0A982:  MOVF   34,W
0A984:  SUBLW  0B
0A986:  BZ    A98E
0A988:  BSF    F93.1
0A98A:  BTFSC  F81.1
0A98C:  BRA    A9DE
....................             delay_ms(20); 
0A98E:  MOVLW  14
0A990:  MOVLB  3
0A992:  MOVWF  xE4
0A994:  MOVLB  0
0A996:  CALL   1806
....................             if(RX_Buffer[4]==0x0b || DOWN){ 
0A99A:  MOVF   34,W
0A99C:  SUBLW  0B
0A99E:  BZ    A9A6
0A9A0:  BSF    F93.1
0A9A2:  BTFSC  F81.1
0A9A4:  BRA    A9DE
....................                Ganancia-=1.0; 
0A9A6:  BSF    FD8.1
0A9A8:  MOVFF  2F8,3E7
0A9AC:  MOVFF  2F7,3E6
0A9B0:  MOVFF  2F6,3E5
0A9B4:  MOVFF  2F5,3E4
0A9B8:  MOVLB  3
0A9BA:  CLRF   xEB
0A9BC:  CLRF   xEA
0A9BE:  CLRF   xE9
0A9C0:  MOVLW  7F
0A9C2:  MOVWF  xE8
0A9C4:  MOVLB  0
0A9C6:  CALL   19C2
0A9CA:  MOVFF  03,2F8
0A9CE:  MOVFF  02,2F7
0A9D2:  MOVFF  01,2F6
0A9D6:  MOVFF  00,2F5
....................                RX_Buffer[4]=0x00; 
0A9DA:  CLRF   34
....................                RX_Buffer2[4]=0x00;             
0A9DC:  CLRF   3F
....................                //BorraBuffer(); 
....................             } 
....................          } 
....................           
....................          if(Ganancia>40) 
0A9DE:  MOVLB  3
0A9E0:  CLRF   xD6
0A9E2:  CLRF   xD5
0A9E4:  MOVLW  20
0A9E6:  MOVWF  xD4
0A9E8:  MOVLW  84
0A9EA:  MOVWF  xD3
0A9EC:  MOVFF  2F8,3DA
0A9F0:  MOVFF  2F7,3D9
0A9F4:  MOVFF  2F6,3D8
0A9F8:  MOVFF  2F5,3D7
0A9FC:  MOVLB  0
0A9FE:  CALL   2A60
0AA02:  BNC   AA10
....................             Ganancia=1; 
0AA04:  MOVLB  2
0AA06:  CLRF   xF8
0AA08:  CLRF   xF7
0AA0A:  CLRF   xF6
0AA0C:  MOVLW  7F
0AA0E:  MOVWF  xF5
....................          if(Ganancia<1) 
0AA10:  MOVFF  2F8,3D6
0AA14:  MOVFF  2F7,3D5
0AA18:  MOVFF  2F6,3D4
0AA1C:  MOVFF  2F5,3D3
0AA20:  MOVLB  3
0AA22:  CLRF   xDA
0AA24:  CLRF   xD9
0AA26:  CLRF   xD8
0AA28:  MOVLW  7F
0AA2A:  MOVWF  xD7
0AA2C:  MOVLB  0
0AA2E:  CALL   2A60
0AA32:  BNC   AA44
....................             Ganancia=40; 
0AA34:  MOVLB  2
0AA36:  CLRF   xF8
0AA38:  CLRF   xF7
0AA3A:  MOVLW  20
0AA3C:  MOVWF  xF6
0AA3E:  MOVLW  84
0AA40:  MOVWF  xF5
0AA42:  MOVLB  0
....................       }else if(Opcion2==2){ 
0AA44:  GOTO   B2CE
0AA48:  MOVLB  3
0AA4A:  MOVF   x40,W
0AA4C:  SUBLW  02
0AA4E:  BNZ   AB0E
....................          printf("Config.t2c.txt=\"Derivativo\""); 
0AA50:  MOVLW  28
0AA52:  MOVWF  FF6
0AA54:  MOVLW  16
0AA56:  MOVWF  FF7
0AA58:  MOVLW  00
0AA5A:  MOVWF  FF8
0AA5C:  MOVLB  0
0AA5E:  CALL   35D6
....................          SendDataDisplay();       
0AA62:  CALL   3608
....................          printf("t3c.txt=\"%u\"",Derivativo); 
0AA66:  MOVLW  44
0AA68:  MOVWF  FF6
0AA6A:  MOVLW  16
0AA6C:  MOVWF  FF7
0AA6E:  MOVLW  00
0AA70:  MOVWF  FF8
0AA72:  MOVLW  09
0AA74:  MOVLB  3
0AA76:  MOVWF  xD3
0AA78:  MOVLB  0
0AA7A:  CALL   44BA
0AA7E:  MOVFF  32A,3D1
0AA82:  MOVLW  1B
0AA84:  MOVLB  3
0AA86:  MOVWF  xD2
0AA88:  MOVLB  0
0AA8A:  CALL   4518
0AA8E:  MOVLW  22
0AA90:  BTFSS  F9E.4
0AA92:  BRA    AA90
0AA94:  MOVWF  FAD
....................          SendDataDisplay(); 
0AA96:  CALL   3608
....................          if(RX_Buffer[4]==0x0a || UP){//Tecla Arriba Oprimida 
0AA9A:  MOVF   34,W
0AA9C:  SUBLW  0A
0AA9E:  BZ    AAA6
0AAA0:  BSF    F93.0
0AAA2:  BTFSC  F81.0
0AAA4:  BRA    AAC8
....................             delay_ms(20); 
0AAA6:  MOVLW  14
0AAA8:  MOVLB  3
0AAAA:  MOVWF  xE4
0AAAC:  MOVLB  0
0AAAE:  CALL   1806
....................             if(RX_Buffer[4]==0x0a || UP){ 
0AAB2:  MOVF   34,W
0AAB4:  SUBLW  0A
0AAB6:  BZ    AABE
0AAB8:  BSF    F93.0
0AABA:  BTFSC  F81.0
0AABC:  BRA    AAC8
....................                Derivativo++; 
0AABE:  MOVLB  3
0AAC0:  INCF   x2A,F
....................                RX_Buffer[4]=0x00;   
0AAC2:  CLRF   34
....................                RX_Buffer2[4]=0x00;             
0AAC4:  CLRF   3F
0AAC6:  MOVLB  0
....................                //BorraBuffer(); 
....................             } 
....................          } 
....................              
....................          if(RX_Buffer[4]==0x0b || DOWN){//Tecla Abajo Oprimida 
0AAC8:  MOVF   34,W
0AACA:  SUBLW  0B
0AACC:  BZ    AAD4
0AACE:  BSF    F93.1
0AAD0:  BTFSC  F81.1
0AAD2:  BRA    AAF6
....................             delay_ms(20); 
0AAD4:  MOVLW  14
0AAD6:  MOVLB  3
0AAD8:  MOVWF  xE4
0AADA:  MOVLB  0
0AADC:  CALL   1806
....................             if(RX_Buffer[4]==0x0b || DOWN){ 
0AAE0:  MOVF   34,W
0AAE2:  SUBLW  0B
0AAE4:  BZ    AAEC
0AAE6:  BSF    F93.1
0AAE8:  BTFSC  F81.1
0AAEA:  BRA    AAF6
....................                Derivativo--; 
0AAEC:  MOVLB  3
0AAEE:  DECF   x2A,F
....................                RX_Buffer[4]=0x00; 
0AAF0:  CLRF   34
....................                RX_Buffer2[4]=0x00;             
0AAF2:  CLRF   3F
0AAF4:  MOVLB  0
....................                //BorraBuffer(); 
....................             } 
....................          } 
....................           
....................           
....................          if(Derivativo>40) 
0AAF6:  MOVLB  3
0AAF8:  MOVF   x2A,W
0AAFA:  SUBLW  28
0AAFC:  BC    AB02
....................             Derivativo=1; 
0AAFE:  MOVLW  01
0AB00:  MOVWF  x2A
....................          if(Derivativo<1) 
0AB02:  MOVF   x2A,F
0AB04:  BNZ   AB0A
....................             Derivativo=40; 
0AB06:  MOVLW  28
0AB08:  MOVWF  x2A
....................       }else if(Opcion2==3){ 
0AB0A:  GOTO   B2D0
0AB0E:  MOVF   x40,W
0AB10:  SUBLW  03
0AB12:  BNZ   ABD2
....................          printf("Config.t2c.txt=\"Integral\""); 
0AB14:  MOVLW  52
0AB16:  MOVWF  FF6
0AB18:  MOVLW  16
0AB1A:  MOVWF  FF7
0AB1C:  MOVLW  00
0AB1E:  MOVWF  FF8
0AB20:  MOVLB  0
0AB22:  CALL   35D6
....................          SendDataDisplay();       
0AB26:  CALL   3608
....................          printf("t3c.txt=\"%u\"",Integral); 
0AB2A:  MOVLW  6C
0AB2C:  MOVWF  FF6
0AB2E:  MOVLW  16
0AB30:  MOVWF  FF7
0AB32:  MOVLW  00
0AB34:  MOVWF  FF8
0AB36:  MOVLW  09
0AB38:  MOVLB  3
0AB3A:  MOVWF  xD3
0AB3C:  MOVLB  0
0AB3E:  CALL   44BA
0AB42:  MOVFF  329,3D1
0AB46:  MOVLW  1B
0AB48:  MOVLB  3
0AB4A:  MOVWF  xD2
0AB4C:  MOVLB  0
0AB4E:  CALL   4518
0AB52:  MOVLW  22
0AB54:  BTFSS  F9E.4
0AB56:  BRA    AB54
0AB58:  MOVWF  FAD
....................          SendDataDisplay(); 
0AB5A:  CALL   3608
....................          if(RX_Buffer[4]==0x0a || UP){//Tecla Arriba Oprimida 
0AB5E:  MOVF   34,W
0AB60:  SUBLW  0A
0AB62:  BZ    AB6A
0AB64:  BSF    F93.0
0AB66:  BTFSC  F81.0
0AB68:  BRA    AB8C
....................             delay_ms(20); 
0AB6A:  MOVLW  14
0AB6C:  MOVLB  3
0AB6E:  MOVWF  xE4
0AB70:  MOVLB  0
0AB72:  CALL   1806
....................             if(RX_Buffer[4]==0x0a || UP){ 
0AB76:  MOVF   34,W
0AB78:  SUBLW  0A
0AB7A:  BZ    AB82
0AB7C:  BSF    F93.0
0AB7E:  BTFSC  F81.0
0AB80:  BRA    AB8C
....................                Integral++; 
0AB82:  MOVLB  3
0AB84:  INCF   x29,F
....................                RX_Buffer[4]=0x00;   
0AB86:  CLRF   34
....................                RX_Buffer2[4]=0x00;             
0AB88:  CLRF   3F
0AB8A:  MOVLB  0
....................                //BorraBuffer(); 
....................             } 
....................          } 
....................              
....................          if(RX_Buffer[4]==0x0b || DOWN){//Tecla Abajo Oprimida 
0AB8C:  MOVF   34,W
0AB8E:  SUBLW  0B
0AB90:  BZ    AB98
0AB92:  BSF    F93.1
0AB94:  BTFSC  F81.1
0AB96:  BRA    ABBA
....................             delay_ms(20); 
0AB98:  MOVLW  14
0AB9A:  MOVLB  3
0AB9C:  MOVWF  xE4
0AB9E:  MOVLB  0
0ABA0:  CALL   1806
....................             if(RX_Buffer[4]==0x0b || DOWN){ 
0ABA4:  MOVF   34,W
0ABA6:  SUBLW  0B
0ABA8:  BZ    ABB0
0ABAA:  BSF    F93.1
0ABAC:  BTFSC  F81.1
0ABAE:  BRA    ABBA
....................                Integral--; 
0ABB0:  MOVLB  3
0ABB2:  DECF   x29,F
....................                RX_Buffer[4]=0x00; 
0ABB4:  CLRF   34
....................                RX_Buffer2[4]=0x00;             
0ABB6:  CLRF   3F
0ABB8:  MOVLB  0
....................                //BorraBuffer(); 
....................             } 
....................          } 
....................           
....................          if(Integral>40) 
0ABBA:  MOVLB  3
0ABBC:  MOVF   x29,W
0ABBE:  SUBLW  28
0ABC0:  BC    ABC6
....................             Integral=1; 
0ABC2:  MOVLW  01
0ABC4:  MOVWF  x29
....................          if(Integral<1) 
0ABC6:  MOVF   x29,F
0ABC8:  BNZ   ABCE
....................             Integral=40; 
0ABCA:  MOVLW  28
0ABCC:  MOVWF  x29
....................       }else if(Opcion2==4){ 
0ABCE:  GOTO   B2D0
0ABD2:  MOVF   x40,W
0ABD4:  SUBLW  04
0ABD6:  BTFSS  FD8.2
0ABD8:  BRA    AD58
....................          printf("Config.t2c.txt=\"Tciclo\""); 
0ABDA:  MOVLW  7A
0ABDC:  MOVWF  FF6
0ABDE:  MOVLW  16
0ABE0:  MOVWF  FF7
0ABE2:  MOVLW  00
0ABE4:  MOVWF  FF8
0ABE6:  MOVLB  0
0ABE8:  CALL   35D6
....................          SendDataDisplay();       
0ABEC:  CALL   3608
....................          printf("t3c.txt=\"%2.0f\"",Tciclo); 
0ABF0:  MOVLW  92
0ABF2:  MOVWF  FF6
0ABF4:  MOVLW  16
0ABF6:  MOVWF  FF7
0ABF8:  MOVLW  00
0ABFA:  MOVWF  FF8
0ABFC:  MOVLW  09
0ABFE:  MOVLB  3
0AC00:  MOVWF  xD3
0AC02:  MOVLB  0
0AC04:  CALL   44BA
0AC08:  MOVLW  01
0AC0A:  MOVWF  FE9
0AC0C:  MOVFF  2E0,3D6
0AC10:  MOVFF  2DF,3D5
0AC14:  MOVFF  2DE,3D4
0AC18:  MOVFF  2DD,3D3
0AC1C:  MOVLB  3
0AC1E:  CLRF   xD7
0AC20:  MOVLB  0
0AC22:  CALL   4782
0AC26:  MOVLW  22
0AC28:  BTFSS  F9E.4
0AC2A:  BRA    AC28
0AC2C:  MOVWF  FAD
....................          SendDataDisplay(); 
0AC2E:  CALL   3608
....................          if(RX_Buffer[4]==0x0a || UP){//Tecla Arriba Oprimida 
0AC32:  MOVF   34,W
0AC34:  SUBLW  0A
0AC36:  BZ    AC3E
0AC38:  BSF    F93.0
0AC3A:  BTFSC  F81.0
0AC3C:  BRA    AC8E
....................             delay_ms(20); 
0AC3E:  MOVLW  14
0AC40:  MOVLB  3
0AC42:  MOVWF  xE4
0AC44:  MOVLB  0
0AC46:  CALL   1806
....................             if(RX_Buffer[4]==0x0a || UP){ 
0AC4A:  MOVF   34,W
0AC4C:  SUBLW  0A
0AC4E:  BZ    AC56
0AC50:  BSF    F93.0
0AC52:  BTFSC  F81.0
0AC54:  BRA    AC8E
....................                Tciclo+=1.0; 
0AC56:  BCF    FD8.1
0AC58:  MOVFF  2E0,3E7
0AC5C:  MOVFF  2DF,3E6
0AC60:  MOVFF  2DE,3E5
0AC64:  MOVFF  2DD,3E4
0AC68:  MOVLB  3
0AC6A:  CLRF   xEB
0AC6C:  CLRF   xEA
0AC6E:  CLRF   xE9
0AC70:  MOVLW  7F
0AC72:  MOVWF  xE8
0AC74:  MOVLB  0
0AC76:  CALL   19C2
0AC7A:  MOVFF  03,2E0
0AC7E:  MOVFF  02,2DF
0AC82:  MOVFF  01,2DE
0AC86:  MOVFF  00,2DD
....................                RX_Buffer[4]=0x00;   
0AC8A:  CLRF   34
....................                RX_Buffer2[4]=0x00;             
0AC8C:  CLRF   3F
....................                //BorraBuffer(); 
....................             } 
....................          } 
....................              
....................          if(RX_Buffer[4]==0x0b || DOWN){//Tecla Abajo Oprimida 
0AC8E:  MOVF   34,W
0AC90:  SUBLW  0B
0AC92:  BZ    AC9A
0AC94:  BSF    F93.1
0AC96:  BTFSC  F81.1
0AC98:  BRA    ACEA
....................             delay_ms(20); 
0AC9A:  MOVLW  14
0AC9C:  MOVLB  3
0AC9E:  MOVWF  xE4
0ACA0:  MOVLB  0
0ACA2:  CALL   1806
....................             if(RX_Buffer[4]==0x0b || DOWN){ 
0ACA6:  MOVF   34,W
0ACA8:  SUBLW  0B
0ACAA:  BZ    ACB2
0ACAC:  BSF    F93.1
0ACAE:  BTFSC  F81.1
0ACB0:  BRA    ACEA
....................                Tciclo-=1.0; 
0ACB2:  BSF    FD8.1
0ACB4:  MOVFF  2E0,3E7
0ACB8:  MOVFF  2DF,3E6
0ACBC:  MOVFF  2DE,3E5
0ACC0:  MOVFF  2DD,3E4
0ACC4:  MOVLB  3
0ACC6:  CLRF   xEB
0ACC8:  CLRF   xEA
0ACCA:  CLRF   xE9
0ACCC:  MOVLW  7F
0ACCE:  MOVWF  xE8
0ACD0:  MOVLB  0
0ACD2:  CALL   19C2
0ACD6:  MOVFF  03,2E0
0ACDA:  MOVFF  02,2DF
0ACDE:  MOVFF  01,2DE
0ACE2:  MOVFF  00,2DD
....................                RX_Buffer[4]=0x00; 
0ACE6:  CLRF   34
....................                RX_Buffer2[4]=0x00;             
0ACE8:  CLRF   3F
....................                //BorraBuffer(); 
....................             } 
....................          } 
....................           
....................          if(Tciclo>20) 
0ACEA:  MOVLB  3
0ACEC:  CLRF   xD6
0ACEE:  CLRF   xD5
0ACF0:  MOVLW  20
0ACF2:  MOVWF  xD4
0ACF4:  MOVLW  83
0ACF6:  MOVWF  xD3
0ACF8:  MOVFF  2E0,3DA
0ACFC:  MOVFF  2DF,3D9
0AD00:  MOVFF  2DE,3D8
0AD04:  MOVFF  2DD,3D7
0AD08:  MOVLB  0
0AD0A:  CALL   2A60
0AD0E:  BNC   AD1E
....................             Tciclo=5; 
0AD10:  MOVLB  2
0AD12:  CLRF   xE0
0AD14:  CLRF   xDF
0AD16:  MOVLW  20
0AD18:  MOVWF  xDE
0AD1A:  MOVLW  81
0AD1C:  MOVWF  xDD
....................          if(Tciclo<5) 
0AD1E:  MOVFF  2E0,3D6
0AD22:  MOVFF  2DF,3D5
0AD26:  MOVFF  2DE,3D4
0AD2A:  MOVFF  2DD,3D3
0AD2E:  MOVLB  3
0AD30:  CLRF   xDA
0AD32:  CLRF   xD9
0AD34:  MOVLW  20
0AD36:  MOVWF  xD8
0AD38:  MOVLW  81
0AD3A:  MOVWF  xD7
0AD3C:  MOVLB  0
0AD3E:  CALL   2A60
0AD42:  BNC   AD54
....................             Tciclo=20; 
0AD44:  MOVLB  2
0AD46:  CLRF   xE0
0AD48:  CLRF   xDF
0AD4A:  MOVLW  20
0AD4C:  MOVWF  xDE
0AD4E:  MOVLW  83
0AD50:  MOVWF  xDD
0AD52:  MOVLB  0
....................       }else if(Opcion2==5){ 
0AD54:  BRA    B2CE
0AD56:  MOVLB  3
0AD58:  MOVF   x40,W
0AD5A:  SUBLW  05
0AD5C:  BNZ   AE12
....................          printf("Config.t2c.txt=\"Ajuste +\""); 
0AD5E:  MOVLW  A2
0AD60:  MOVWF  FF6
0AD62:  MOVLW  16
0AD64:  MOVWF  FF7
0AD66:  MOVLW  00
0AD68:  MOVWF  FF8
0AD6A:  MOVLB  0
0AD6C:  CALL   35D6
....................          SendDataDisplay();       
0AD70:  CALL   3608
....................          printf("t3c.txt=\"%u\"",Ajuste); 
0AD74:  MOVLW  BC
0AD76:  MOVWF  FF6
0AD78:  MOVLW  16
0AD7A:  MOVWF  FF7
0AD7C:  MOVLW  00
0AD7E:  MOVWF  FF8
0AD80:  MOVLW  09
0AD82:  MOVLB  3
0AD84:  MOVWF  xD3
0AD86:  MOVLB  0
0AD88:  CALL   44BA
0AD8C:  MOVFF  2CD,3D1
0AD90:  MOVLW  1B
0AD92:  MOVLB  3
0AD94:  MOVWF  xD2
0AD96:  MOVLB  0
0AD98:  CALL   4518
0AD9C:  MOVLW  22
0AD9E:  BTFSS  F9E.4
0ADA0:  BRA    AD9E
0ADA2:  MOVWF  FAD
....................          SendDataDisplay(); 
0ADA4:  CALL   3608
....................          if(RX_Buffer[4]==0x0a || UP){//Tecla Arriba Oprimida 
0ADA8:  MOVF   34,W
0ADAA:  SUBLW  0A
0ADAC:  BZ    ADB4
0ADAE:  BSF    F93.0
0ADB0:  BTFSC  F81.0
0ADB2:  BRA    ADDC
....................             delay_ms(20); 
0ADB4:  MOVLW  14
0ADB6:  MOVLB  3
0ADB8:  MOVWF  xE4
0ADBA:  MOVLB  0
0ADBC:  CALL   1806
....................             if(RX_Buffer[4]==0x0a || UP){ 
0ADC0:  MOVF   34,W
0ADC2:  SUBLW  0A
0ADC4:  BZ    ADCC
0ADC6:  BSF    F93.0
0ADC8:  BTFSC  F81.0
0ADCA:  BRA    ADDC
....................                if(Ajuste<40) 
0ADCC:  MOVLB  2
0ADCE:  MOVF   xCD,W
0ADD0:  SUBLW  27
0ADD2:  BNC   ADD6
....................                   Ajuste++; 
0ADD4:  INCF   xCD,F
....................                RX_Buffer[4]=0x00;   
0ADD6:  CLRF   34
....................                RX_Buffer2[4]=0x00;             
0ADD8:  CLRF   3F
0ADDA:  MOVLB  0
....................                //BorraBuffer(); 
....................             } 
....................          } 
....................              
....................          if(RX_Buffer[4]==0x0b || DOWN){//Tecla Abajo Oprimida 
0ADDC:  MOVF   34,W
0ADDE:  SUBLW  0B
0ADE0:  BZ    ADE8
0ADE2:  BSF    F93.1
0ADE4:  BTFSC  F81.1
0ADE6:  BRA    AE0E
....................             delay_ms(20); 
0ADE8:  MOVLW  14
0ADEA:  MOVLB  3
0ADEC:  MOVWF  xE4
0ADEE:  MOVLB  0
0ADF0:  CALL   1806
....................             if(RX_Buffer[4]==0x0b || DOWN){ 
0ADF4:  MOVF   34,W
0ADF6:  SUBLW  0B
0ADF8:  BZ    AE00
0ADFA:  BSF    F93.1
0ADFC:  BTFSC  F81.1
0ADFE:  BRA    AE0E
....................                if(Ajuste>0) 
0AE00:  MOVLB  2
0AE02:  MOVF   xCD,F
0AE04:  BZ    AE08
....................                   Ajuste--; 
0AE06:  DECF   xCD,F
....................                RX_Buffer[4]=0x00; 
0AE08:  CLRF   34
....................                RX_Buffer2[4]=0x00;             
0AE0A:  CLRF   3F
0AE0C:  MOVLB  0
....................                //BorraBuffer(); 
....................             } 
....................          } 
....................       }else if(Opcion2==6){ 
0AE0E:  BRA    B2CE
0AE10:  MOVLB  3
0AE12:  MOVF   x40,W
0AE14:  SUBLW  06
0AE16:  BNZ   AECC
....................          printf("Config.t2c.txt=\"Ajuste -\""); 
0AE18:  MOVLW  CA
0AE1A:  MOVWF  FF6
0AE1C:  MOVLW  16
0AE1E:  MOVWF  FF7
0AE20:  MOVLW  00
0AE22:  MOVWF  FF8
0AE24:  MOVLB  0
0AE26:  CALL   35D6
....................          SendDataDisplay();       
0AE2A:  CALL   3608
....................          printf("t3c.txt=\"%u\"",Ajusten); 
0AE2E:  MOVLW  E4
0AE30:  MOVWF  FF6
0AE32:  MOVLW  16
0AE34:  MOVWF  FF7
0AE36:  MOVLW  00
0AE38:  MOVWF  FF8
0AE3A:  MOVLW  09
0AE3C:  MOVLB  3
0AE3E:  MOVWF  xD3
0AE40:  MOVLB  0
0AE42:  CALL   44BA
0AE46:  MOVFF  2CE,3D1
0AE4A:  MOVLW  1B
0AE4C:  MOVLB  3
0AE4E:  MOVWF  xD2
0AE50:  MOVLB  0
0AE52:  CALL   4518
0AE56:  MOVLW  22
0AE58:  BTFSS  F9E.4
0AE5A:  BRA    AE58
0AE5C:  MOVWF  FAD
....................          SendDataDisplay(); 
0AE5E:  CALL   3608
....................          if(RX_Buffer[4]==0x0a || UP){//Tecla Arriba Oprimida 
0AE62:  MOVF   34,W
0AE64:  SUBLW  0A
0AE66:  BZ    AE6E
0AE68:  BSF    F93.0
0AE6A:  BTFSC  F81.0
0AE6C:  BRA    AE96
....................             delay_ms(20); 
0AE6E:  MOVLW  14
0AE70:  MOVLB  3
0AE72:  MOVWF  xE4
0AE74:  MOVLB  0
0AE76:  CALL   1806
....................             if(RX_Buffer[4]==0x0a || UP){ 
0AE7A:  MOVF   34,W
0AE7C:  SUBLW  0A
0AE7E:  BZ    AE86
0AE80:  BSF    F93.0
0AE82:  BTFSC  F81.0
0AE84:  BRA    AE96
....................                if(Ajusten<40) 
0AE86:  MOVLB  2
0AE88:  MOVF   xCE,W
0AE8A:  SUBLW  27
0AE8C:  BNC   AE90
....................                   Ajusten++; 
0AE8E:  INCF   xCE,F
....................                RX_Buffer[4]=0x00;   
0AE90:  CLRF   34
....................                RX_Buffer2[4]=0x00;             
0AE92:  CLRF   3F
0AE94:  MOVLB  0
....................                //BorraBuffer(); 
....................             } 
....................          } 
....................              
....................          if(RX_Buffer[4]==0x0b || DOWN){//Tecla Abajo Oprimida 
0AE96:  MOVF   34,W
0AE98:  SUBLW  0B
0AE9A:  BZ    AEA2
0AE9C:  BSF    F93.1
0AE9E:  BTFSC  F81.1
0AEA0:  BRA    AEC8
....................             delay_ms(20); 
0AEA2:  MOVLW  14
0AEA4:  MOVLB  3
0AEA6:  MOVWF  xE4
0AEA8:  MOVLB  0
0AEAA:  CALL   1806
....................             if(RX_Buffer[4]==0x0b || DOWN){ 
0AEAE:  MOVF   34,W
0AEB0:  SUBLW  0B
0AEB2:  BZ    AEBA
0AEB4:  BSF    F93.1
0AEB6:  BTFSC  F81.1
0AEB8:  BRA    AEC8
....................                if(Ajusten>0) 
0AEBA:  MOVLB  2
0AEBC:  MOVF   xCE,F
0AEBE:  BZ    AEC2
....................                   Ajusten--; 
0AEC0:  DECF   xCE,F
....................                RX_Buffer[4]=0x00; 
0AEC2:  CLRF   34
....................                RX_Buffer2[4]=0x00;             
0AEC4:  CLRF   3F
0AEC6:  MOVLB  0
....................                //BorraBuffer(); 
....................             } 
....................          } 
....................       }else if(Opcion2==7){ 
0AEC8:  BRA    B2CE
0AECA:  MOVLB  3
0AECC:  MOVF   x40,W
0AECE:  SUBLW  07
0AED0:  BNZ   AF88
....................          printf("Config.t2c.txt=\"Media\""); 
0AED2:  MOVLW  F2
0AED4:  MOVWF  FF6
0AED6:  MOVLW  16
0AED8:  MOVWF  FF7
0AEDA:  MOVLW  00
0AEDC:  MOVWF  FF8
0AEDE:  MOVLB  0
0AEE0:  CALL   35D6
....................          SendDataDisplay();       
0AEE4:  CALL   3608
....................          printf("t3c.txt=\"%u\"",MediaMovil); 
0AEE8:  MOVLW  0A
0AEEA:  MOVWF  FF6
0AEEC:  MOVLW  17
0AEEE:  MOVWF  FF7
0AEF0:  MOVLW  00
0AEF2:  MOVWF  FF8
0AEF4:  MOVLW  09
0AEF6:  MOVLB  3
0AEF8:  MOVWF  xD3
0AEFA:  MOVLB  0
0AEFC:  CALL   44BA
0AF00:  MOVFF  2CF,3D1
0AF04:  MOVLW  1B
0AF06:  MOVLB  3
0AF08:  MOVWF  xD2
0AF0A:  MOVLB  0
0AF0C:  CALL   4518
0AF10:  MOVLW  22
0AF12:  BTFSS  F9E.4
0AF14:  BRA    AF12
0AF16:  MOVWF  FAD
....................          SendDataDisplay(); 
0AF18:  CALL   3608
....................          if(RX_Buffer[4]==0x0a || UP){//Tecla Arriba Oprimida 
0AF1C:  MOVF   34,W
0AF1E:  SUBLW  0A
0AF20:  BZ    AF28
0AF22:  BSF    F93.0
0AF24:  BTFSC  F81.0
0AF26:  BRA    AF50
....................             delay_ms(20); 
0AF28:  MOVLW  14
0AF2A:  MOVLB  3
0AF2C:  MOVWF  xE4
0AF2E:  MOVLB  0
0AF30:  CALL   1806
....................             if(RX_Buffer[4]==0x0a || UP){ 
0AF34:  MOVF   34,W
0AF36:  SUBLW  0A
0AF38:  BZ    AF40
0AF3A:  BSF    F93.0
0AF3C:  BTFSC  F81.0
0AF3E:  BRA    AF50
....................                if(MediaMovil<80) 
0AF40:  MOVLB  2
0AF42:  MOVF   xCF,W
0AF44:  SUBLW  4F
0AF46:  BNC   AF4A
....................                   MediaMovil++; 
0AF48:  INCF   xCF,F
....................                RX_Buffer[4]=0x00;   
0AF4A:  CLRF   34
....................                RX_Buffer2[4]=0x00;             
0AF4C:  CLRF   3F
0AF4E:  MOVLB  0
....................                //BorraBuffer(); 
....................             } 
....................          } 
....................              
....................          if(RX_Buffer[4]==0x0b || DOWN){//Tecla Abajo Oprimida 
0AF50:  MOVF   34,W
0AF52:  SUBLW  0B
0AF54:  BZ    AF5C
0AF56:  BSF    F93.1
0AF58:  BTFSC  F81.1
0AF5A:  BRA    AF84
....................             delay_ms(20); 
0AF5C:  MOVLW  14
0AF5E:  MOVLB  3
0AF60:  MOVWF  xE4
0AF62:  MOVLB  0
0AF64:  CALL   1806
....................             if(RX_Buffer[4]==0x0b || DOWN){ 
0AF68:  MOVF   34,W
0AF6A:  SUBLW  0B
0AF6C:  BZ    AF74
0AF6E:  BSF    F93.1
0AF70:  BTFSC  F81.1
0AF72:  BRA    AF84
....................                if(MediaMovil>10) 
0AF74:  MOVLB  2
0AF76:  MOVF   xCF,W
0AF78:  SUBLW  0A
0AF7A:  BC    AF7E
....................                   MediaMovil--; 
0AF7C:  DECF   xCF,F
....................                RX_Buffer[4]=0x00; 
0AF7E:  CLRF   34
....................                RX_Buffer2[4]=0x00;             
0AF80:  CLRF   3F
0AF82:  MOVLB  0
....................                //BorraBuffer(); 
....................             } 
....................          } 
....................       }else if(Opcion2==8){ 
0AF84:  BRA    B2CE
0AF86:  MOVLB  3
0AF88:  MOVF   x40,W
0AF8A:  SUBLW  08
0AF8C:  BTFSS  FD8.2
0AF8E:  BRA    B0F6
....................          printf("Config.t2c.txt=\"RPT100B\""); 
0AF90:  MOVLW  18
0AF92:  MOVWF  FF6
0AF94:  MOVLW  17
0AF96:  MOVWF  FF7
0AF98:  MOVLW  00
0AF9A:  MOVWF  FF8
0AF9C:  MOVLB  0
0AF9E:  CALL   35D6
....................          SendDataDisplay();       
0AFA2:  CALL   3608
....................          printf("t3c.txt=\"%2.1f\"",RPT100); 
0AFA6:  MOVLW  32
0AFA8:  MOVWF  FF6
0AFAA:  MOVLW  17
0AFAC:  MOVWF  FF7
0AFAE:  MOVLW  00
0AFB0:  MOVWF  FF8
0AFB2:  MOVLW  09
0AFB4:  MOVLB  3
0AFB6:  MOVWF  xD3
0AFB8:  MOVLB  0
0AFBA:  CALL   44BA
0AFBE:  MOVLW  01
0AFC0:  MOVWF  FE9
0AFC2:  MOVFF  2AA,3D6
0AFC6:  MOVFF  2A9,3D5
0AFCA:  MOVFF  2A8,3D4
0AFCE:  MOVFF  2A7,3D3
0AFD2:  MOVLB  3
0AFD4:  MOVWF  xD7
0AFD6:  MOVLB  0
0AFD8:  CALL   4782
0AFDC:  MOVLW  22
0AFDE:  BTFSS  F9E.4
0AFE0:  BRA    AFDE
0AFE2:  MOVWF  FAD
....................          SendDataDisplay(); 
0AFE4:  CALL   3608
....................          if(RX_Buffer[4]==0x0a || UP){//Tecla Arriba Oprimida 
0AFE8:  MOVF   34,W
0AFEA:  SUBLW  0A
0AFEC:  BZ    AFF4
0AFEE:  BSF    F93.0
0AFF0:  BTFSC  F81.0
0AFF2:  BRA    B06E
....................             delay_ms(20); 
0AFF4:  MOVLW  14
0AFF6:  MOVLB  3
0AFF8:  MOVWF  xE4
0AFFA:  MOVLB  0
0AFFC:  CALL   1806
....................             if(RX_Buffer[4]==0x0a || UP){ 
0B000:  MOVF   34,W
0B002:  SUBLW  0A
0B004:  BZ    B00C
0B006:  BSF    F93.0
0B008:  BTFSC  F81.0
0B00A:  BRA    B06E
....................                if(RPT100<2.0) 
0B00C:  MOVFF  2AA,3D6
0B010:  MOVFF  2A9,3D5
0B014:  MOVFF  2A8,3D4
0B018:  MOVFF  2A7,3D3
0B01C:  MOVLB  3
0B01E:  CLRF   xDA
0B020:  CLRF   xD9
0B022:  CLRF   xD8
0B024:  MOVLW  80
0B026:  MOVWF  xD7
0B028:  MOVLB  0
0B02A:  CALL   2A60
0B02E:  BNC   B06A
....................                   RPT100+=0.1; 
0B030:  BCF    FD8.1
0B032:  MOVFF  2AA,3E7
0B036:  MOVFF  2A9,3E6
0B03A:  MOVFF  2A8,3E5
0B03E:  MOVFF  2A7,3E4
0B042:  MOVLW  CD
0B044:  MOVLB  3
0B046:  MOVWF  xEB
0B048:  MOVLW  CC
0B04A:  MOVWF  xEA
0B04C:  MOVLW  4C
0B04E:  MOVWF  xE9
0B050:  MOVLW  7B
0B052:  MOVWF  xE8
0B054:  MOVLB  0
0B056:  CALL   19C2
0B05A:  MOVFF  03,2AA
0B05E:  MOVFF  02,2A9
0B062:  MOVFF  01,2A8
0B066:  MOVFF  00,2A7
....................                RX_Buffer[4]=0x00;   
0B06A:  CLRF   34
....................                RX_Buffer2[4]=0x00;             
0B06C:  CLRF   3F
....................                //BorraBuffer(); 
....................             } 
....................          } 
....................              
....................          if(RX_Buffer[4]==0x0b || DOWN){//Tecla Abajo Oprimida 
0B06E:  MOVF   34,W
0B070:  SUBLW  0B
0B072:  BZ    B07A
0B074:  BSF    F93.1
0B076:  BTFSC  F81.1
0B078:  BRA    B0F2
....................             delay_ms(20); 
0B07A:  MOVLW  14
0B07C:  MOVLB  3
0B07E:  MOVWF  xE4
0B080:  MOVLB  0
0B082:  CALL   1806
....................             if(RX_Buffer[4]==0x0b || DOWN){ 
0B086:  MOVF   34,W
0B088:  SUBLW  0B
0B08A:  BZ    B092
0B08C:  BSF    F93.1
0B08E:  BTFSC  F81.1
0B090:  BRA    B0F2
....................                if(RPT100>0.0) 
0B092:  MOVLB  3
0B094:  CLRF   xD6
0B096:  CLRF   xD5
0B098:  CLRF   xD4
0B09A:  CLRF   xD3
0B09C:  MOVFF  2AA,3DA
0B0A0:  MOVFF  2A9,3D9
0B0A4:  MOVFF  2A8,3D8
0B0A8:  MOVFF  2A7,3D7
0B0AC:  MOVLB  0
0B0AE:  CALL   2A60
0B0B2:  BNC   B0EE
....................                   RPT100-=0.1; 
0B0B4:  BSF    FD8.1
0B0B6:  MOVFF  2AA,3E7
0B0BA:  MOVFF  2A9,3E6
0B0BE:  MOVFF  2A8,3E5
0B0C2:  MOVFF  2A7,3E4
0B0C6:  MOVLW  CD
0B0C8:  MOVLB  3
0B0CA:  MOVWF  xEB
0B0CC:  MOVLW  CC
0B0CE:  MOVWF  xEA
0B0D0:  MOVLW  4C
0B0D2:  MOVWF  xE9
0B0D4:  MOVLW  7B
0B0D6:  MOVWF  xE8
0B0D8:  MOVLB  0
0B0DA:  CALL   19C2
0B0DE:  MOVFF  03,2AA
0B0E2:  MOVFF  02,2A9
0B0E6:  MOVFF  01,2A8
0B0EA:  MOVFF  00,2A7
....................                RX_Buffer[4]=0x00; 
0B0EE:  CLRF   34
....................                RX_Buffer2[4]=0x00;             
0B0F0:  CLRF   3F
....................                //BorraBuffer(); 
....................             } 
....................          } 
....................       }else if(Opcion2==9){ 
0B0F2:  BRA    B2CE
0B0F4:  MOVLB  3
0B0F6:  MOVF   x40,W
0B0F8:  SUBLW  09
0B0FA:  BNZ   B1B2
....................          printf("Config.t2c.txt=\"TTrampa\""); 
0B0FC:  MOVLW  42
0B0FE:  MOVWF  FF6
0B100:  MOVLW  17
0B102:  MOVWF  FF7
0B104:  MOVLW  00
0B106:  MOVWF  FF8
0B108:  MOVLB  0
0B10A:  CALL   35D6
....................          SendDataDisplay();       
0B10E:  CALL   3608
....................          printf("t3c.txt=\"%02u\"",TTrampa); 
0B112:  MOVLW  5C
0B114:  MOVWF  FF6
0B116:  MOVLW  17
0B118:  MOVWF  FF7
0B11A:  MOVLW  00
0B11C:  MOVWF  FF8
0B11E:  MOVLW  09
0B120:  MOVLB  3
0B122:  MOVWF  xD3
0B124:  MOVLB  0
0B126:  CALL   44BA
0B12A:  MOVFF  2D0,3D1
0B12E:  MOVLW  01
0B130:  MOVLB  3
0B132:  MOVWF  xD2
0B134:  MOVLB  0
0B136:  CALL   4518
0B13A:  MOVLW  22
0B13C:  BTFSS  F9E.4
0B13E:  BRA    B13C
0B140:  MOVWF  FAD
....................          SendDataDisplay(); 
0B142:  CALL   3608
....................          if(RX_Buffer[4]==0x0a || UP){//Tecla Arriba Oprimida 
0B146:  MOVF   34,W
0B148:  SUBLW  0A
0B14A:  BZ    B152
0B14C:  BSF    F93.0
0B14E:  BTFSC  F81.0
0B150:  BRA    B17A
....................             delay_ms(20); 
0B152:  MOVLW  14
0B154:  MOVLB  3
0B156:  MOVWF  xE4
0B158:  MOVLB  0
0B15A:  CALL   1806
....................             if(RX_Buffer[4]==0x0a || UP){ 
0B15E:  MOVF   34,W
0B160:  SUBLW  0A
0B162:  BZ    B16A
0B164:  BSF    F93.0
0B166:  BTFSC  F81.0
0B168:  BRA    B17A
....................                if(TTrampa<100) 
0B16A:  MOVLB  2
0B16C:  MOVF   xD0,W
0B16E:  SUBLW  63
0B170:  BNC   B174
....................                   TTrampa++; 
0B172:  INCF   xD0,F
....................                RX_Buffer[4]=0x00;   
0B174:  CLRF   34
....................                RX_Buffer2[4]=0x00;             
0B176:  CLRF   3F
0B178:  MOVLB  0
....................                //BorraBuffer(); 
....................             } 
....................          } 
....................              
....................          if(RX_Buffer[4]==0x0b || DOWN){//Tecla Abajo Oprimida 
0B17A:  MOVF   34,W
0B17C:  SUBLW  0B
0B17E:  BZ    B186
0B180:  BSF    F93.1
0B182:  BTFSC  F81.1
0B184:  BRA    B1AE
....................             delay_ms(20); 
0B186:  MOVLW  14
0B188:  MOVLB  3
0B18A:  MOVWF  xE4
0B18C:  MOVLB  0
0B18E:  CALL   1806
....................             if(RX_Buffer[4]==0x0b || DOWN){ 
0B192:  MOVF   34,W
0B194:  SUBLW  0B
0B196:  BZ    B19E
0B198:  BSF    F93.1
0B19A:  BTFSC  F81.1
0B19C:  BRA    B1AE
....................                if(TTrampa>50) 
0B19E:  MOVLB  2
0B1A0:  MOVF   xD0,W
0B1A2:  SUBLW  32
0B1A4:  BC    B1A8
....................                   TTrampa--; 
0B1A6:  DECF   xD0,F
....................                RX_Buffer[4]=0x00; 
0B1A8:  CLRF   34
....................                RX_Buffer2[4]=0x00;             
0B1AA:  CLRF   3F
0B1AC:  MOVLB  0
....................                //BorraBuffer(); 
....................             } 
....................          } 
....................       }else if(Opcion2==10){ 
0B1AE:  BRA    B2CE
0B1B0:  MOVLB  3
0B1B2:  MOVF   x40,W
0B1B4:  SUBLW  0A
0B1B6:  BNZ   B206
....................          printf("Config.t2c.txt=\"Ciclos\""); 
0B1B8:  MOVLW  6C
0B1BA:  MOVWF  FF6
0B1BC:  MOVLW  17
0B1BE:  MOVWF  FF7
0B1C0:  MOVLW  00
0B1C2:  MOVWF  FF8
0B1C4:  MOVLB  0
0B1C6:  CALL   35D6
....................          SendDataDisplay();       
0B1CA:  CALL   3608
....................          printf("t3c.txt=\"%05Lu\"",Ciclos); 
0B1CE:  MOVLW  84
0B1D0:  MOVWF  FF6
0B1D2:  MOVLW  17
0B1D4:  MOVWF  FF7
0B1D6:  MOVLW  00
0B1D8:  MOVWF  FF8
0B1DA:  MOVLW  09
0B1DC:  MOVLB  3
0B1DE:  MOVWF  xD3
0B1E0:  MOVLB  0
0B1E2:  CALL   44BA
0B1E6:  MOVLW  08
0B1E8:  MOVWF  FE9
0B1EA:  MOVFF  355,3D4
0B1EE:  MOVFF  354,3D3
0B1F2:  CALL   4614
0B1F6:  MOVLW  22
0B1F8:  BTFSS  F9E.4
0B1FA:  BRA    B1F8
0B1FC:  MOVWF  FAD
....................          SendDataDisplay(); 
0B1FE:  CALL   3608
....................       }else if(Opcion2==11){ 
0B202:  BRA    B2CE
0B204:  MOVLB  3
0B206:  MOVF   x40,W
0B208:  SUBLW  0B
0B20A:  BNZ   B2D0
....................          printf("Config.t2c.txt=\"Secado\""); 
0B20C:  MOVLW  94
0B20E:  MOVWF  FF6
0B210:  MOVLW  17
0B212:  MOVWF  FF7
0B214:  MOVLW  00
0B216:  MOVWF  FF8
0B218:  MOVLB  0
0B21A:  CALL   35D6
....................          SendDataDisplay();       
0B21E:  CALL   3608
....................          printf("t3c.txt=\"%04Lu\"",tsecados); 
0B222:  MOVLW  AC
0B224:  MOVWF  FF6
0B226:  MOVLW  17
0B228:  MOVWF  FF7
0B22A:  MOVLW  00
0B22C:  MOVWF  FF8
0B22E:  MOVLW  09
0B230:  MOVLB  3
0B232:  MOVWF  xD3
0B234:  MOVLB  0
0B236:  CALL   44BA
0B23A:  MOVLW  09
0B23C:  MOVWF  FE9
0B23E:  MOVFF  B0,3D4
0B242:  MOVFF  AF,3D3
0B246:  CALL   4614
0B24A:  MOVLW  22
0B24C:  BTFSS  F9E.4
0B24E:  BRA    B24C
0B250:  MOVWF  FAD
....................          SendDataDisplay(); 
0B252:  CALL   3608
....................          if(RX_Buffer[4]==0x0a || UP){//Tecla Arriba Oprimida 
0B256:  MOVF   34,W
0B258:  SUBLW  0A
0B25A:  BZ    B262
0B25C:  BSF    F93.0
0B25E:  BTFSC  F81.0
0B260:  BRA    B294
....................             delay_ms(20); 
0B262:  MOVLW  14
0B264:  MOVLB  3
0B266:  MOVWF  xE4
0B268:  MOVLB  0
0B26A:  CALL   1806
....................             if(RX_Buffer[4]==0x0a || UP){ 
0B26E:  MOVF   34,W
0B270:  SUBLW  0A
0B272:  BZ    B27A
0B274:  BSF    F93.0
0B276:  BTFSC  F81.0
0B278:  BRA    B294
....................                if(tsecados<1000) 
0B27A:  MOVF   xB0,W
0B27C:  SUBLW  03
0B27E:  BNC   B290
0B280:  BNZ   B288
0B282:  MOVF   xAF,W
0B284:  SUBLW  E7
0B286:  BNC   B290
....................                   tsecados+=50; 
0B288:  MOVLW  32
0B28A:  ADDWF  xAF,F
0B28C:  MOVLW  00
0B28E:  ADDWFC xB0,F
....................                RX_Buffer[4]=0x00;   
0B290:  CLRF   34
....................                RX_Buffer2[4]=0x00;             
0B292:  CLRF   3F
....................                //BorraBuffer(); 
....................             } 
....................          } 
....................              
....................          if(RX_Buffer[4]==0x0b || DOWN){//Tecla Abajo Oprimida 
0B294:  MOVF   34,W
0B296:  SUBLW  0B
0B298:  BZ    B2A0
0B29A:  BSF    F93.1
0B29C:  BTFSC  F81.1
0B29E:  BRA    B2CE
....................             delay_ms(20); 
0B2A0:  MOVLW  14
0B2A2:  MOVLB  3
0B2A4:  MOVWF  xE4
0B2A6:  MOVLB  0
0B2A8:  CALL   1806
....................             if(RX_Buffer[4]==0x0b || DOWN){ 
0B2AC:  MOVF   34,W
0B2AE:  SUBLW  0B
0B2B0:  BZ    B2B8
0B2B2:  BSF    F93.1
0B2B4:  BTFSC  F81.1
0B2B6:  BRA    B2CE
....................                if(tsecados>150) 
0B2B8:  MOVF   xB0,F
0B2BA:  BNZ   B2C2
0B2BC:  MOVF   xAF,W
0B2BE:  SUBLW  96
0B2C0:  BC    B2CA
....................                   tsecados-=50; 
0B2C2:  MOVLW  32
0B2C4:  SUBWF  xAF,F
0B2C6:  MOVLW  00
0B2C8:  SUBWFB xB0,F
....................                RX_Buffer[4]=0x00; 
0B2CA:  CLRF   34
....................                RX_Buffer2[4]=0x00;             
0B2CC:  CLRF   3F
0B2CE:  MOVLB  3
....................                //BorraBuffer(); 
....................             } 
....................          } 
....................       } 
....................        
....................       if(RX_Buffer[4]==0x0c || LEFT){//Tecla Izquierda Oprimida 
0B2D0:  MOVF   34,W
0B2D2:  SUBLW  0C
0B2D4:  BZ    B2DC
0B2D6:  BSF    F93.3
0B2D8:  BTFSC  F81.3
0B2DA:  BRA    B2FA
....................          delay_ms(20); 
0B2DC:  MOVLW  14
0B2DE:  MOVWF  xE4
0B2E0:  MOVLB  0
0B2E2:  CALL   1806
....................          if(RX_Buffer[4]==0x0c || LEFT){ 
0B2E6:  MOVF   34,W
0B2E8:  SUBLW  0C
0B2EA:  BZ    B2F2
0B2EC:  BSF    F93.3
0B2EE:  BTFSC  F81.3
0B2F0:  BRA    B2FC
....................             Opcion2++; 
0B2F2:  MOVLB  3
0B2F4:  INCF   x40,F
....................             RX_Buffer[4]=0x00;   
0B2F6:  CLRF   34
....................             RX_Buffer2[4]=0x00;             
0B2F8:  CLRF   3F
0B2FA:  MOVLB  0
....................             //BorraBuffer(); 
....................          } 
....................       } 
....................           
....................       if(RX_Buffer[4]==0x0d || RIGHT){//Tecla Derecha Oprimida 
0B2FC:  MOVF   34,W
0B2FE:  SUBLW  0D
0B300:  BZ    B308
0B302:  BSF    F93.2
0B304:  BTFSC  F81.2
0B306:  BRA    B32A
....................          delay_ms(20); 
0B308:  MOVLW  14
0B30A:  MOVLB  3
0B30C:  MOVWF  xE4
0B30E:  MOVLB  0
0B310:  CALL   1806
....................          if(RX_Buffer[4]==0x0d || RIGHT){ 
0B314:  MOVF   34,W
0B316:  SUBLW  0D
0B318:  BZ    B320
0B31A:  BSF    F93.2
0B31C:  BTFSC  F81.2
0B31E:  BRA    B32A
....................             Opcion2--; 
0B320:  MOVLB  3
0B322:  DECF   x40,F
....................             RX_Buffer[4]=0x00; 
0B324:  CLRF   34
....................             RX_Buffer2[4]=0x00;             
0B326:  CLRF   3F
0B328:  MOVLB  0
....................             //BorraBuffer(); 
....................          } 
....................       } 
....................        
....................       if(RX_Buffer[4]==0x11 || (RIGHT && LEFT)){//Tecla Regresar 
0B32A:  MOVF   34,W
0B32C:  SUBLW  11
0B32E:  BZ    B33C
0B330:  BSF    F93.2
0B332:  BTFSC  F81.2
0B334:  BRA    B720
0B336:  BSF    F93.3
0B338:  BTFSC  F81.3
0B33A:  BRA    B720
....................          delay_ms(20); 
0B33C:  MOVLW  14
0B33E:  MOVLB  3
0B340:  MOVWF  xE4
0B342:  MOVLB  0
0B344:  CALL   1806
....................          if(RX_Buffer[4]==0x11 || (RIGHT && LEFT)){ 
0B348:  MOVF   34,W
0B34A:  SUBLW  11
0B34C:  BZ    B35A
0B34E:  BSF    F93.2
0B350:  BTFSC  F81.2
0B352:  BRA    B720
0B354:  BSF    F93.3
0B356:  BTFSC  F81.3
0B358:  BRA    B720
....................             if(!GuardaEEPROM){ 
0B35A:  BTFSC  xA2.4
0B35C:  BRA    B70C
....................                write_eeprom(20,(int8)Ganancia); 
0B35E:  MOVFF  2F8,3E7
0B362:  MOVFF  2F7,3E6
0B366:  MOVFF  2F6,3E5
0B36A:  MOVFF  2F5,3E4
0B36E:  CALL   3D02
0B372:  MOVFF  01,3CF
0B376:  CLRF   FAA
0B378:  MOVLW  14
0B37A:  MOVWF  FA9
0B37C:  MOVFF  3CF,FA8
0B380:  BCF    FA6.6
0B382:  BCF    FA6.7
0B384:  BSF    FA6.2
0B386:  MOVF   FF2,W
0B388:  MOVWF  00
0B38A:  BCF    FF2.6
0B38C:  BCF    FF2.7
0B38E:  MOVLB  F
0B390:  MOVLW  55
0B392:  MOVWF  FA7
0B394:  MOVLW  AA
0B396:  MOVWF  FA7
0B398:  BSF    FA6.1
0B39A:  BTFSC  FA6.1
0B39C:  BRA    B39A
0B39E:  BCF    FA6.2
0B3A0:  MOVF   00,W
0B3A2:  IORWF  FF2,F
....................                delay_ms(10); 
0B3A4:  MOVLW  0A
0B3A6:  MOVLB  3
0B3A8:  MOVWF  xE4
0B3AA:  MOVLB  0
0B3AC:  CALL   1806
....................                write_eeprom(26,(int8)Integral); 
0B3B0:  CLRF   FAA
0B3B2:  MOVLW  1A
0B3B4:  MOVWF  FA9
0B3B6:  MOVFF  329,FA8
0B3BA:  BCF    FA6.6
0B3BC:  BCF    FA6.7
0B3BE:  BSF    FA6.2
0B3C0:  MOVF   FF2,W
0B3C2:  MOVWF  00
0B3C4:  BCF    FF2.6
0B3C6:  BCF    FF2.7
0B3C8:  MOVLB  F
0B3CA:  MOVLW  55
0B3CC:  MOVWF  FA7
0B3CE:  MOVLW  AA
0B3D0:  MOVWF  FA7
0B3D2:  BSF    FA6.1
0B3D4:  BTFSC  FA6.1
0B3D6:  BRA    B3D4
0B3D8:  BCF    FA6.2
0B3DA:  MOVF   00,W
0B3DC:  IORWF  FF2,F
....................                delay_ms(10); 
0B3DE:  MOVLW  0A
0B3E0:  MOVLB  3
0B3E2:  MOVWF  xE4
0B3E4:  MOVLB  0
0B3E6:  CALL   1806
....................                write_eeprom(27,(int8)Derivativo); 
0B3EA:  CLRF   FAA
0B3EC:  MOVLW  1B
0B3EE:  MOVWF  FA9
0B3F0:  MOVFF  32A,FA8
0B3F4:  BCF    FA6.6
0B3F6:  BCF    FA6.7
0B3F8:  BSF    FA6.2
0B3FA:  MOVF   FF2,W
0B3FC:  MOVWF  00
0B3FE:  BCF    FF2.6
0B400:  BCF    FF2.7
0B402:  MOVLB  F
0B404:  MOVLW  55
0B406:  MOVWF  FA7
0B408:  MOVLW  AA
0B40A:  MOVWF  FA7
0B40C:  BSF    FA6.1
0B40E:  BTFSC  FA6.1
0B410:  BRA    B40E
0B412:  BCF    FA6.2
0B414:  MOVF   00,W
0B416:  IORWF  FF2,F
....................                delay_ms(10); 
0B418:  MOVLW  0A
0B41A:  MOVLB  3
0B41C:  MOVWF  xE4
0B41E:  MOVLB  0
0B420:  CALL   1806
....................                write_eeprom(25,(int8)Tciclo); 
0B424:  MOVFF  2E0,3E7
0B428:  MOVFF  2DF,3E6
0B42C:  MOVFF  2DE,3E5
0B430:  MOVFF  2DD,3E4
0B434:  CALL   3D02
0B438:  MOVFF  01,3CF
0B43C:  CLRF   FAA
0B43E:  MOVLW  19
0B440:  MOVWF  FA9
0B442:  MOVFF  3CF,FA8
0B446:  BCF    FA6.6
0B448:  BCF    FA6.7
0B44A:  BSF    FA6.2
0B44C:  MOVF   FF2,W
0B44E:  MOVWF  00
0B450:  BCF    FF2.6
0B452:  BCF    FF2.7
0B454:  MOVLB  F
0B456:  MOVLW  55
0B458:  MOVWF  FA7
0B45A:  MOVLW  AA
0B45C:  MOVWF  FA7
0B45E:  BSF    FA6.1
0B460:  BTFSC  FA6.1
0B462:  BRA    B460
0B464:  BCF    FA6.2
0B466:  MOVF   00,W
0B468:  IORWF  FF2,F
....................                delay_ms(10); 
0B46A:  MOVLW  0A
0B46C:  MOVLB  3
0B46E:  MOVWF  xE4
0B470:  MOVLB  0
0B472:  CALL   1806
....................                write_eeprom(21,Ajuste); 
0B476:  CLRF   FAA
0B478:  MOVLW  15
0B47A:  MOVWF  FA9
0B47C:  MOVFF  2CD,FA8
0B480:  BCF    FA6.6
0B482:  BCF    FA6.7
0B484:  BSF    FA6.2
0B486:  MOVF   FF2,W
0B488:  MOVWF  00
0B48A:  BCF    FF2.6
0B48C:  BCF    FF2.7
0B48E:  MOVLB  F
0B490:  MOVLW  55
0B492:  MOVWF  FA7
0B494:  MOVLW  AA
0B496:  MOVWF  FA7
0B498:  BSF    FA6.1
0B49A:  BTFSC  FA6.1
0B49C:  BRA    B49A
0B49E:  BCF    FA6.2
0B4A0:  MOVF   00,W
0B4A2:  IORWF  FF2,F
....................                delay_ms(10); 
0B4A4:  MOVLW  0A
0B4A6:  MOVLB  3
0B4A8:  MOVWF  xE4
0B4AA:  MOVLB  0
0B4AC:  CALL   1806
....................                write_eeprom(22,Ajusten); 
0B4B0:  CLRF   FAA
0B4B2:  MOVLW  16
0B4B4:  MOVWF  FA9
0B4B6:  MOVFF  2CE,FA8
0B4BA:  BCF    FA6.6
0B4BC:  BCF    FA6.7
0B4BE:  BSF    FA6.2
0B4C0:  MOVF   FF2,W
0B4C2:  MOVWF  00
0B4C4:  BCF    FF2.6
0B4C6:  BCF    FF2.7
0B4C8:  MOVLB  F
0B4CA:  MOVLW  55
0B4CC:  MOVWF  FA7
0B4CE:  MOVLW  AA
0B4D0:  MOVWF  FA7
0B4D2:  BSF    FA6.1
0B4D4:  BTFSC  FA6.1
0B4D6:  BRA    B4D4
0B4D8:  BCF    FA6.2
0B4DA:  MOVF   00,W
0B4DC:  IORWF  FF2,F
....................                delay_ms(10); 
0B4DE:  MOVLW  0A
0B4E0:  MOVLB  3
0B4E2:  MOVWF  xE4
0B4E4:  MOVLB  0
0B4E6:  CALL   1806
....................                write_eeprom(24,(int8)MediaMovil); 
0B4EA:  CLRF   FAA
0B4EC:  MOVLW  18
0B4EE:  MOVWF  FA9
0B4F0:  MOVFF  2CF,FA8
0B4F4:  BCF    FA6.6
0B4F6:  BCF    FA6.7
0B4F8:  BSF    FA6.2
0B4FA:  MOVF   FF2,W
0B4FC:  MOVWF  00
0B4FE:  BCF    FF2.6
0B500:  BCF    FF2.7
0B502:  MOVLB  F
0B504:  MOVLW  55
0B506:  MOVWF  FA7
0B508:  MOVLW  AA
0B50A:  MOVWF  FA7
0B50C:  BSF    FA6.1
0B50E:  BTFSC  FA6.1
0B510:  BRA    B50E
0B512:  BCF    FA6.2
0B514:  MOVF   00,W
0B516:  IORWF  FF2,F
....................                delay_ms(10); 
0B518:  MOVLW  0A
0B51A:  MOVLB  3
0B51C:  MOVWF  xE4
0B51E:  MOVLB  0
0B520:  CALL   1806
....................                write_eeprom(32,(int8)RPT100); 
0B524:  MOVFF  2AA,3E7
0B528:  MOVFF  2A9,3E6
0B52C:  MOVFF  2A8,3E5
0B530:  MOVFF  2A7,3E4
0B534:  CALL   3D02
0B538:  MOVFF  01,3CF
0B53C:  CLRF   FAA
0B53E:  MOVLW  20
0B540:  MOVWF  FA9
0B542:  MOVFF  3CF,FA8
0B546:  BCF    FA6.6
0B548:  BCF    FA6.7
0B54A:  BSF    FA6.2
0B54C:  MOVF   FF2,W
0B54E:  MOVWF  00
0B550:  BCF    FF2.6
0B552:  BCF    FF2.7
0B554:  MOVLB  F
0B556:  MOVLW  55
0B558:  MOVWF  FA7
0B55A:  MOVLW  AA
0B55C:  MOVWF  FA7
0B55E:  BSF    FA6.1
0B560:  BTFSC  FA6.1
0B562:  BRA    B560
0B564:  BCF    FA6.2
0B566:  MOVF   00,W
0B568:  IORWF  FF2,F
....................                delay_ms(10); 
0B56A:  MOVLW  0A
0B56C:  MOVLB  3
0B56E:  MOVWF  xE4
0B570:  MOVLB  0
0B572:  CALL   1806
....................                Temporal=RPT100-((int8)RPT100); 
0B576:  MOVFF  2AA,3E7
0B57A:  MOVFF  2A9,3E6
0B57E:  MOVFF  2A8,3E5
0B582:  MOVFF  2A7,3E4
0B586:  CALL   3D02
0B58A:  MOVLB  3
0B58C:  CLRF   xE5
0B58E:  MOVFF  01,3E4
0B592:  MOVLB  0
0B594:  CALL   182E
0B598:  BSF    FD8.1
0B59A:  MOVFF  2AA,3E7
0B59E:  MOVFF  2A9,3E6
0B5A2:  MOVFF  2A8,3E5
0B5A6:  MOVFF  2A7,3E4
0B5AA:  MOVFF  03,3EB
0B5AE:  MOVFF  02,3EA
0B5B2:  MOVFF  01,3E9
0B5B6:  MOVFF  00,3E8
0B5BA:  CALL   19C2
0B5BE:  MOVFF  03,2AE
0B5C2:  MOVFF  02,2AD
0B5C6:  MOVFF  01,2AC
0B5CA:  MOVFF  00,2AB
....................                Temporal=Temporal*10; 
0B5CE:  MOVFF  2AE,3EB
0B5D2:  MOVFF  2AD,3EA
0B5D6:  MOVFF  2AC,3E9
0B5DA:  MOVFF  2AB,3E8
0B5DE:  MOVLB  3
0B5E0:  CLRF   xEF
0B5E2:  CLRF   xEE
0B5E4:  MOVLW  20
0B5E6:  MOVWF  xED
0B5E8:  MOVLW  82
0B5EA:  MOVWF  xEC
0B5EC:  MOVLB  0
0B5EE:  CALL   36D6
0B5F2:  MOVFF  03,2AE
0B5F6:  MOVFF  02,2AD
0B5FA:  MOVFF  01,2AC
0B5FE:  MOVFF  00,2AB
....................                write_eeprom(33,(int8)Temporal); 
0B602:  MOVFF  2AE,3E7
0B606:  MOVFF  2AD,3E6
0B60A:  MOVFF  2AC,3E5
0B60E:  MOVFF  2AB,3E4
0B612:  CALL   3D02
0B616:  MOVFF  01,3CF
0B61A:  CLRF   FAA
0B61C:  MOVLW  21
0B61E:  MOVWF  FA9
0B620:  MOVFF  3CF,FA8
0B624:  BCF    FA6.6
0B626:  BCF    FA6.7
0B628:  BSF    FA6.2
0B62A:  MOVF   FF2,W
0B62C:  MOVWF  00
0B62E:  BCF    FF2.6
0B630:  BCF    FF2.7
0B632:  MOVLB  F
0B634:  MOVLW  55
0B636:  MOVWF  FA7
0B638:  MOVLW  AA
0B63A:  MOVWF  FA7
0B63C:  BSF    FA6.1
0B63E:  BTFSC  FA6.1
0B640:  BRA    B63E
0B642:  BCF    FA6.2
0B644:  MOVF   00,W
0B646:  IORWF  FF2,F
....................                delay_ms(10); 
0B648:  MOVLW  0A
0B64A:  MOVLB  3
0B64C:  MOVWF  xE4
0B64E:  MOVLB  0
0B650:  CALL   1806
....................                write_eeprom(39,TTrampa); 
0B654:  CLRF   FAA
0B656:  MOVLW  27
0B658:  MOVWF  FA9
0B65A:  MOVFF  2D0,FA8
0B65E:  BCF    FA6.6
0B660:  BCF    FA6.7
0B662:  BSF    FA6.2
0B664:  MOVF   FF2,W
0B666:  MOVWF  00
0B668:  BCF    FF2.6
0B66A:  BCF    FF2.7
0B66C:  MOVLB  F
0B66E:  MOVLW  55
0B670:  MOVWF  FA7
0B672:  MOVLW  AA
0B674:  MOVWF  FA7
0B676:  BSF    FA6.1
0B678:  BTFSC  FA6.1
0B67A:  BRA    B678
0B67C:  BCF    FA6.2
0B67E:  MOVF   00,W
0B680:  IORWF  FF2,F
....................                delay_ms(10); 
0B682:  MOVLW  0A
0B684:  MOVLB  3
0B686:  MOVWF  xE4
0B688:  MOVLB  0
0B68A:  CALL   1806
....................                write_eeprom(46,make8(tsecados,0)); 
0B68E:  MOVFF  AF,3CF
0B692:  CLRF   FAA
0B694:  MOVLW  2E
0B696:  MOVWF  FA9
0B698:  MOVFF  3CF,FA8
0B69C:  BCF    FA6.6
0B69E:  BCF    FA6.7
0B6A0:  BSF    FA6.2
0B6A2:  MOVF   FF2,W
0B6A4:  MOVWF  00
0B6A6:  BCF    FF2.6
0B6A8:  BCF    FF2.7
0B6AA:  MOVLB  F
0B6AC:  MOVLW  55
0B6AE:  MOVWF  FA7
0B6B0:  MOVLW  AA
0B6B2:  MOVWF  FA7
0B6B4:  BSF    FA6.1
0B6B6:  BTFSC  FA6.1
0B6B8:  BRA    B6B6
0B6BA:  BCF    FA6.2
0B6BC:  MOVF   00,W
0B6BE:  IORWF  FF2,F
....................                delay_ms(10); 
0B6C0:  MOVLW  0A
0B6C2:  MOVLB  3
0B6C4:  MOVWF  xE4
0B6C6:  MOVLB  0
0B6C8:  CALL   1806
....................                write_eeprom(47,make8(tsecados,1)); 
0B6CC:  MOVFF  B0,3CF
0B6D0:  CLRF   FAA
0B6D2:  MOVLW  2F
0B6D4:  MOVWF  FA9
0B6D6:  MOVFF  3CF,FA8
0B6DA:  BCF    FA6.6
0B6DC:  BCF    FA6.7
0B6DE:  BSF    FA6.2
0B6E0:  MOVF   FF2,W
0B6E2:  MOVWF  00
0B6E4:  BCF    FF2.6
0B6E6:  BCF    FF2.7
0B6E8:  MOVLB  F
0B6EA:  MOVLW  55
0B6EC:  MOVWF  FA7
0B6EE:  MOVLW  AA
0B6F0:  MOVWF  FA7
0B6F2:  BSF    FA6.1
0B6F4:  BTFSC  FA6.1
0B6F6:  BRA    B6F4
0B6F8:  BCF    FA6.2
0B6FA:  MOVF   00,W
0B6FC:  IORWF  FF2,F
....................                delay_ms(10); 
0B6FE:  MOVLW  0A
0B700:  MOVLB  3
0B702:  MOVWF  xE4
0B704:  MOVLB  0
0B706:  CALL   1806
....................                GuardaEEPROM=ON; 
0B70A:  BSF    xA2.4
....................             } 
....................             printf("page MenuPrincipal"); 
0B70C:  MOVLW  BC
0B70E:  MOVWF  FF6
0B710:  MOVLW  17
0B712:  MOVWF  FF7
0B714:  MOVLW  00
0B716:  MOVWF  FF8
0B718:  CALL   35D6
....................             SendDataDisplay(); 
0B71C:  CALL   3608
....................             //BorraBuffer(); 
....................          } 
....................       } 
....................       printf("fecha.txt=\"Fecha:%02u/%02u/20%02u    Hora: %02u:%02u\"",Dia,Mes,Year,Hora,Minuto); 
0B720:  MOVLW  D0
0B722:  MOVWF  FF6
0B724:  MOVLW  17
0B726:  MOVWF  FF7
0B728:  MOVLW  00
0B72A:  MOVWF  FF8
0B72C:  MOVLW  11
0B72E:  MOVLB  3
0B730:  MOVWF  xD3
0B732:  MOVLB  0
0B734:  CALL   44BA
0B738:  MOVFF  377,3D1
0B73C:  MOVLW  01
0B73E:  MOVLB  3
0B740:  MOVWF  xD2
0B742:  MOVLB  0
0B744:  CALL   4518
0B748:  MOVLW  2F
0B74A:  BTFSS  F9E.4
0B74C:  BRA    B74A
0B74E:  MOVWF  FAD
0B750:  MOVFF  376,3D1
0B754:  MOVLW  01
0B756:  MOVLB  3
0B758:  MOVWF  xD2
0B75A:  MOVLB  0
0B75C:  CALL   4518
0B760:  MOVLW  2F
0B762:  BTFSS  F9E.4
0B764:  BRA    B762
0B766:  MOVWF  FAD
0B768:  MOVLW  32
0B76A:  BTFSS  F9E.4
0B76C:  BRA    B76A
0B76E:  MOVWF  FAD
0B770:  MOVLW  30
0B772:  BTFSS  F9E.4
0B774:  BRA    B772
0B776:  MOVWF  FAD
0B778:  MOVFF  375,3D1
0B77C:  MOVLW  01
0B77E:  MOVLB  3
0B780:  MOVWF  xD2
0B782:  MOVLB  0
0B784:  CALL   4518
0B788:  MOVLW  F1
0B78A:  MOVWF  FF6
0B78C:  MOVLW  17
0B78E:  MOVWF  FF7
0B790:  MOVLW  00
0B792:  MOVWF  FF8
0B794:  MOVLW  0A
0B796:  MOVLB  3
0B798:  MOVWF  xD3
0B79A:  MOVLB  0
0B79C:  CALL   44BA
0B7A0:  MOVFF  378,3D1
0B7A4:  MOVLW  01
0B7A6:  MOVLB  3
0B7A8:  MOVWF  xD2
0B7AA:  MOVLB  0
0B7AC:  CALL   4518
0B7B0:  MOVLW  3A
0B7B2:  BTFSS  F9E.4
0B7B4:  BRA    B7B2
0B7B6:  MOVWF  FAD
0B7B8:  MOVFF  379,3D1
0B7BC:  MOVLW  01
0B7BE:  MOVLB  3
0B7C0:  MOVWF  xD2
0B7C2:  MOVLB  0
0B7C4:  CALL   4518
0B7C8:  MOVLW  22
0B7CA:  BTFSS  F9E.4
0B7CC:  BRA    B7CA
0B7CE:  MOVWF  FAD
....................       SendDataDisplay();  
0B7D0:  CALL   3608
0B7D4:  MOVLB  3
....................     } 
.................... //_--------------------------------------------------------------------------------------------------------------------------------------------------------        
....................  
....................    } 
0B7D6:  GOTO   5BC2
.................... } 
0B7DA:  SLEEP 

Configuration Fuses:
   Word  1: 0200   HS NOIESO NOFCMEN
   Word  2: 1B19   NOBROWNOUT WDT BORV20 NOPUT WDT8192
   Word  3: 0000   NOPBADEN NOLPT1OSC NOMCLR
   Word  4: 00B0   NOSTVREN NODEBUG NOLVP NOXINST BBSIZ4K
   Word  5: C03F   NOPROTECT NOCPD NOCPB
   Word  6: E03F   NOWRT NOWRTD NOWRTC NOWRTB
   Word  7: 403F   NOEBTR NOEBTRB
