CCS PCH C Compiler, Version 4.104, 5967               18-mar.-19 09:25

               Filename: H:\JP\JP\Laboratorio\Autoclave\Autoclave Horizontal\Con Precamara\2018\Autoclave 85L con vacio  #004587822\Firmware V4.0\GLCD_Controller\DIELEC-AUT002.lst

               ROM used: 67766 bytes (69%)
                         Largest free fragment is 27746
               RAM used: 1835 (55%) at main() level
                         1889 (57%) worst case
               Stack:    8 worst case (7 in main + 1 for interrupts)

*
00000:  GOTO   10000
*
00008:  MOVWF  04
0000A:  MOVFF  FD8,05
0000E:  MOVFF  FE0,06
00012:  MOVLB  0
00014:  MOVFF  FE9,0C
00018:  MOVFF  FEA,07
0001C:  MOVFF  FE1,08
00020:  MOVFF  FE2,09
00024:  MOVFF  FD9,0A
00028:  MOVFF  FDA,0B
0002C:  MOVFF  FF3,12
00030:  MOVFF  FF4,13
00034:  MOVFF  FFA,14
00038:  MOVFF  FFB,15
0003C:  MOVFF  00,0E
00040:  MOVFF  01,0F
00044:  MOVFF  02,10
00048:  MOVFF  03,11
0004C:  BTFSS  FF2.5
0004E:  GOTO   0058
00052:  BTFSC  FF2.2
00054:  GOTO   2F16
00058:  BTFSS  F9D.0
0005A:  GOTO   0064
0005E:  BTFSC  F9E.0
00060:  GOTO   2F7E
00064:  MOVFF  0E,00
00068:  MOVFF  0F,01
0006C:  MOVFF  10,02
00070:  MOVFF  11,03
00074:  MOVFF  0C,FE9
00078:  MOVFF  07,FEA
0007C:  BSF    07.7
0007E:  MOVFF  08,FE1
00082:  MOVFF  09,FE2
00086:  MOVFF  0A,FD9
0008A:  MOVFF  0B,FDA
0008E:  MOVFF  12,FF3
00092:  MOVFF  13,FF4
00096:  MOVFF  14,FFA
0009A:  MOVFF  15,FFB
0009E:  MOVF   04,W
000A0:  MOVFF  06,FE0
000A4:  MOVFF  05,FD8
000A8:  RETFIE 0
.................... //Falta crear menu de ajuste de variables y de norma CFR21 
....................  
.................... #include <18F4685.h> 
.................... //////// Standard Header file for the PIC18F4685 device //////////////// 
.................... #device PIC18F4685 
.................... #list 
....................  
.................... #device adc=10 
.................... #fuses HS,NOWDT,NOPROTECT,NOLVP,NODEBUG,NOSTVREN,NOPUT,NOCPD,NOWRT,NOIESO,NOFCMEN,NOPBADEN,NOWRTC,NOWRTB,NOEBTR,NOEBTRB,NOCPB,NOXINST,NOMCLR 
.................... #use delay(clock=20000000) 
*
030A6:  MOVLW  07
030A8:  MOVWF  FEA
030AA:  MOVLW  2D
030AC:  MOVWF  FE9
030AE:  MOVF   FEF,W
030B0:  BZ    30CC
030B2:  MOVLW  06
030B4:  MOVWF  01
030B6:  CLRF   00
030B8:  DECFSZ 00,F
030BA:  BRA    30B8
030BC:  DECFSZ 01,F
030BE:  BRA    30B6
030C0:  MOVLW  7B
030C2:  MOVWF  00
030C4:  DECFSZ 00,F
030C6:  BRA    30C4
030C8:  DECFSZ FEF,F
030CA:  BRA    30B2
030CC:  RETLW  00
.................... #use i2c(Master,slow,sda=PIN_C4,scl=PIN_C3) 
*
037F0:  MOVLW  08
037F2:  MOVWF  01
037F4:  MOVLW  05
037F6:  MOVWF  00
037F8:  DECFSZ 00,F
037FA:  BRA    37F8
037FC:  BCF    F8B.3
037FE:  BCF    F94.3
03800:  MOVLW  06
03802:  MOVWF  00
03804:  DECFSZ 00,F
03806:  BRA    3804
03808:  MOVLB  7
0380A:  RLCF   x2B,F
0380C:  BCF    F8B.4
0380E:  BTFSC  FD8.0
03810:  BSF    F94.4
03812:  BTFSS  FD8.0
03814:  BCF    F94.4
03816:  BSF    F94.3
03818:  BTFSS  F82.3
0381A:  BRA    3818
0381C:  DECFSZ 01,F
0381E:  BRA    3822
03820:  BRA    3826
03822:  MOVLB  0
03824:  BRA    37F4
03826:  MOVLW  05
03828:  MOVWF  00
0382A:  DECFSZ 00,F
0382C:  BRA    382A
0382E:  BCF    F8B.3
03830:  BCF    F94.3
03832:  NOP   
03834:  BSF    F94.4
03836:  MOVLW  06
03838:  MOVWF  00
0383A:  DECFSZ 00,F
0383C:  BRA    383A
0383E:  MOVLW  06
03840:  MOVWF  00
03842:  DECFSZ 00,F
03844:  BRA    3842
03846:  BSF    F94.3
03848:  BTFSS  F82.3
0384A:  BRA    3848
0384C:  CLRF   01
0384E:  MOVLW  06
03850:  MOVWF  00
03852:  DECFSZ 00,F
03854:  BRA    3852
03856:  BTFSC  F82.4
03858:  BSF    01.0
0385A:  BCF    F8B.3
0385C:  BCF    F94.3
0385E:  BCF    F8B.4
03860:  BCF    F94.4
03862:  MOVLB  0
03864:  RETLW  00
*
046C4:  MOVLW  08
046C6:  MOVLB  7
046C8:  MOVWF  x2B
046CA:  MOVFF  00,72C
046CE:  BSF    F94.4
046D0:  MOVLW  06
046D2:  MOVWF  00
046D4:  DECFSZ 00,F
046D6:  BRA    46D4
046D8:  BSF    F94.3
046DA:  BTFSS  F82.3
046DC:  BRA    46DA
046DE:  BTFSC  F82.4
046E0:  BSF    FD8.0
046E2:  BTFSS  F82.4
046E4:  BCF    FD8.0
046E6:  RLCF   01,F
046E8:  MOVLW  05
046EA:  MOVWF  00
046EC:  DECFSZ 00,F
046EE:  BRA    46EC
046F0:  BCF    F94.3
046F2:  BCF    F8B.3
046F4:  DECFSZ x2B,F
046F6:  BRA    46CE
046F8:  BSF    F94.4
046FA:  MOVLW  06
046FC:  MOVWF  00
046FE:  DECFSZ 00,F
04700:  BRA    46FE
04702:  BCF    F8B.4
04704:  MOVF   x2C,W
04706:  BTFSS  FD8.2
04708:  BCF    F94.4
0470A:  NOP   
0470C:  BSF    F94.3
0470E:  BTFSS  F82.3
04710:  BRA    470E
04712:  MOVLW  05
04714:  MOVWF  00
04716:  DECFSZ 00,F
04718:  BRA    4716
0471A:  BCF    F8B.3
0471C:  BCF    F94.3
0471E:  MOVLW  06
04720:  MOVWF  00
04722:  DECFSZ 00,F
04724:  BRA    4722
04726:  BCF    F8B.4
04728:  BCF    F94.4
0472A:  MOVLB  0
0472C:  GOTO   4C6E (RETURN)
.................... #include "HDM64GS12.c" 
.................... ///////////////////////////////////////////////////////////////////////// 
.................... ////                           HDM64GS12.c                           //// 
.................... ////                                                                 //// 
.................... //// This file contains drivers for using a Hantronix HDM64GS12 with //// 
.................... //// a KS0108 display controller. The HDM64GS12 is 128 by 64 pixels. //// 
.................... //// The driver treats the upper left pixel as (0,0).                //// 
.................... ////                                                                 //// 
.................... //// Use #define FAST_GLCD if the target chip has at least 1k of RAM //// 
.................... //// to decrease the time it takes to update the display.            //// 
.................... //// glcd_update() must then be called to update the display after   //// 
.................... //// changing the pixel information.                                 //// 
.................... //// See ex_glcd.c for suggested usage.                              //// 
.................... //// See KS0108.c for controlling a single 64 by 64 display          //// 
.................... ///////////////////////////////////////////////////////////////////////// 
.................... ////                                                                 //// 
.................... //// LCD Pin connections:                                            //// 
.................... //// (These can be changed as needed in the following defines).      //// 
.................... ////  * 1: VSS is connected to GND                                   //// 
.................... ////  * 2: VDD is connected to +5V                                   //// 
.................... ////  * 3: V0  - LCD operating voltage (Constrast adjustment)        //// 
.................... ////  * 4: D/I - Data or Instruction is connected to B2              //// 
.................... ////  * 5: R/W - Read or Write is connected to B4                    //// 
.................... ////  * 6: Enable is connected to B5                                 //// 
.................... ////  *7-14: Data Bus 0 to 7 is connected to port d                  //// 
.................... ////  *15: Chip Select 1 is connected to B0                          //// 
.................... ////  *16: Chip Select 2 is connected to B1                          //// 
.................... ////  *17: Reset is connected to C0                                  //// 
.................... ////  *18: Negative voltage is also connected to the 20k Ohm POT     //// 
.................... ////  *19: Positive voltage for LED backlight is connected to +5V    //// 
.................... ////  *20: Negavtive voltage for LED backlight is connected to GND   //// 
.................... ////                                                                 //// 
.................... ///////////////////////////////////////////////////////////////////////// 
.................... ////                                                                 //// 
.................... ////  glcd_init(mode)                                                //// 
.................... ////     * Must be called before any other function.                 //// 
.................... ////       - mode can be ON or OFF to turn the LCD on or off         //// 
.................... ////                                                                 //// 
.................... ////  glcd_pixel(x,y,color)                                          //// 
.................... ////     * Sets the pixel to the given color.                        //// 
.................... ////       - color can be ON or OFF                                  //// 
.................... ////                                                                 //// 
.................... ////  glcd_fillScreen(color)                                         //// 
.................... ////     * Fills the entire LCD with the given color.                //// 
.................... ////       - color can be ON or OFF                                  //// 
.................... ////                                                                 //// 
.................... ////  glcd_update()                                                  //// 
.................... ////     * Write the display data stored in RAM to the LCD           //// 
.................... ////     * Only available if FAST_GLCD is defined                    //// 
.................... ////                                                                 //// 
.................... ///////////////////////////////////////////////////////////////////////// 
.................... ////        (C) Copyright 1996, 2004 Custom Computer Services        //// 
.................... //// This source code may only be used by licensed users of the CCS  //// 
.................... //// C compiler.  This source code may only be distributed to other  //// 
.................... //// licensed users of the CCS C compiler.  No other use,            //// 
.................... //// reproduction or distribution is permitted without written       //// 
.................... //// permission.  Derivative programs created using this software    //// 
.................... //// in object code form are not restricted in any way.              //// 
.................... ///////////////////////////////////////////////////////////////////////// 
....................  
....................  
....................  
.................... #ifndef HDM64GS12 
.................... #define HDM64GS12 
....................  
.................... #ifndef FAST_GLCD 
.................... #define FAST_GLCD 
....................  
.................... #ifndef GLCD_WIDTH 
.................... #define GLCD_WIDTH   128 
.................... #endif 
....................  
.................... #ifndef GLCD_CS1 
.................... #define GLCD_CS1     PIN_B0   // Chip Selection 1 
.................... #endif 
....................  
.................... #ifndef GLCD_CS2 
.................... #define GLCD_CS2     PIN_B1   // Chip Selection 2 
.................... #endif 
....................  
.................... #ifndef GLCD_DI 
.................... #define GLCD_DI      PIN_B5   // Data or Instruction input 
.................... #endif 
....................  
.................... #ifndef GLCD_RW 
.................... #define GLCD_RW      PIN_B4   // Read/Write 
.................... #endif 
....................  
.................... #ifndef GLCD_E 
.................... #define GLCD_E       PIN_B3   // Enable 
.................... #endif 
....................  
.................... #ifndef GLCD_RST 
.................... #define GLCD_RST     PIN_B2   // Reset 
.................... #endif 
....................  
.................... #define GLCD_LEFT    0 
.................... #define GLCD_RIGHT   1 
....................  
.................... #ifndef ON 
.................... #define ON           1 
.................... #endif 
....................  
.................... #ifndef OFF 
.................... #define OFF          0 
.................... #endif 
....................  
.................... ///////////////////////////////////////////////////////////////////////// 
.................... // Function Prototypes 
.................... ///////////////////////////////////////////////////////////////////////// 
.................... void glcd_init(int1 mode); 
.................... void glcd_pixel(int8 x, int8 y, int1 color); 
.................... void glcd_fillScreen(int1 color); 
.................... void glcd_writeByte(int1 side, BYTE data); 
.................... BYTE glcd_readByte(int1 side); 
.................... void glcd_update(); 
.................... ///////////////////////////////////////////////////////////////////////// 
....................  
.................... #ifdef FAST_GLCD 
.................... struct 
.................... { 
....................    int8 left[512]; 
....................    int8 right[512]; 
.................... } displayData; 
.................... #endif 
....................  
....................  
.................... // Purpose:       Initialize the LCD. 
.................... //                Call before using any other LCD function. 
.................... // Inputs:        OFF - Turns the LCD off 
.................... //                ON  - Turns the LCD on 
.................... void glcd_init(int1 mode) 
.................... { 
....................    // Initialze some pins 
....................    output_high(GLCD_RST); 
*
03A48:  BCF    F93.2
03A4A:  BSF    F8A.2
....................    output_low(GLCD_E); 
03A4C:  BCF    F93.3
03A4E:  BCF    F8A.3
....................    output_low(GLCD_CS1); 
03A50:  BCF    F93.0
03A52:  BCF    F8A.0
....................    output_low(GLCD_CS2); 
03A54:  BCF    F93.1
03A56:  BCF    F8A.1
....................  
....................    output_low(GLCD_DI);                 // Set for instruction 
03A58:  BCF    F93.5
03A5A:  BCF    F8A.5
....................    glcd_writeByte(GLCD_LEFT,  0xC0);    // Specify first RAM line at the top 
03A5C:  MOVLB  7
03A5E:  CLRF   x3F
03A60:  MOVLW  C0
03A62:  MOVWF  x40
03A64:  MOVLB  0
03A66:  RCALL  3900
....................    glcd_writeByte(GLCD_RIGHT, 0xC0);    //   of the screen 
03A68:  MOVLW  01
03A6A:  MOVLB  7
03A6C:  MOVWF  x3F
03A6E:  MOVLW  C0
03A70:  MOVWF  x40
03A72:  MOVLB  0
03A74:  RCALL  3900
....................    glcd_writeByte(GLCD_LEFT,  0x40);    // Set the column address to 0 
03A76:  MOVLB  7
03A78:  CLRF   x3F
03A7A:  MOVLW  40
03A7C:  MOVWF  x40
03A7E:  MOVLB  0
03A80:  RCALL  3900
....................    glcd_writeByte(GLCD_RIGHT, 0x40); 
03A82:  MOVLW  01
03A84:  MOVLB  7
03A86:  MOVWF  x3F
03A88:  MOVLW  40
03A8A:  MOVWF  x40
03A8C:  MOVLB  0
03A8E:  RCALL  3900
....................    glcd_writeByte(GLCD_LEFT,  0xB8);    // Set the page address to 0 
03A90:  MOVLB  7
03A92:  CLRF   x3F
03A94:  MOVLW  B8
03A96:  MOVWF  x40
03A98:  MOVLB  0
03A9A:  RCALL  3900
....................    glcd_writeByte(GLCD_RIGHT, 0xB8); 
03A9C:  MOVLW  01
03A9E:  MOVLB  7
03AA0:  MOVWF  x3F
03AA2:  MOVLW  B8
03AA4:  MOVWF  x40
03AA6:  MOVLB  0
03AA8:  RCALL  3900
....................  
....................    if(mode == ON) 
03AAA:  MOVLB  7
03AAC:  DECFSZ x27,W
03AAE:  BRA    3ACC
....................    { 
....................       glcd_writeByte(GLCD_LEFT,  0x3F); // Turn the display on 
03AB0:  CLRF   x3F
03AB2:  MOVLW  3F
03AB4:  MOVWF  x40
03AB6:  MOVLB  0
03AB8:  RCALL  3900
....................       glcd_writeByte(GLCD_RIGHT, 0x3F); 
03ABA:  MOVLW  01
03ABC:  MOVLB  7
03ABE:  MOVWF  x3F
03AC0:  MOVLW  3F
03AC2:  MOVWF  x40
03AC4:  MOVLB  0
03AC6:  RCALL  3900
....................    } 
....................    else 
03AC8:  BRA    3AE4
03ACA:  MOVLB  7
....................    { 
....................       glcd_writeByte(GLCD_LEFT,  0x3E); // Turn the display off 
03ACC:  CLRF   x3F
03ACE:  MOVLW  3E
03AD0:  MOVWF  x40
03AD2:  MOVLB  0
03AD4:  RCALL  3900
....................       glcd_writeByte(GLCD_RIGHT, 0x3E); 
03AD6:  MOVLW  01
03AD8:  MOVLB  7
03ADA:  MOVWF  x3F
03ADC:  MOVLW  3E
03ADE:  MOVWF  x40
03AE0:  MOVLB  0
03AE2:  RCALL  3900
....................    } 
....................  
....................    glcd_fillScreen(OFF);                // Clear the display 
03AE4:  MOVLB  7
03AE6:  CLRF   x28
03AE8:  MOVLB  0
03AEA:  RCALL  3936
....................  
....................    #ifdef FAST_GLCD 
....................    glcd_update(); 
03AEC:  RCALL  3990
....................    #endif 
.................... } 
03AEE:  RETLW  00
....................  
....................  
.................... // Purpose:    Update the LCD with data from the display arrays 
.................... #ifdef FAST_GLCD 
.................... void glcd_update() 
.................... { 
....................    int8 i, j; 
....................    int8 *p1, *p2; 
....................  
....................    p1 = displayData.left; 
*
03990:  MOVLB  7
03992:  CLRF   x3B
03994:  MOVLW  17
03996:  MOVWF  x3A
....................    p2 = displayData.right; 
03998:  MOVLW  02
0399A:  MOVWF  x3D
0399C:  MOVLW  17
0399E:  MOVWF  x3C
....................  
....................    // Loop through the vertical pages 
....................    for(i = 0; i < 8; ++i) 
039A0:  CLRF   x38
039A2:  MOVF   x38,W
039A4:  SUBLW  07
039A6:  BNC   3A44
....................    { 
....................       output_low(GLCD_DI);                      // Set for instruction 
039A8:  BCF    F93.5
039AA:  BCF    F8A.5
....................       glcd_writeByte(GLCD_LEFT, 0x40);          // Set horizontal address to 0 
039AC:  CLRF   x3F
039AE:  MOVLW  40
039B0:  MOVWF  x40
039B2:  MOVLB  0
039B4:  RCALL  3900
....................       glcd_writeByte(GLCD_RIGHT, 0x40); 
039B6:  MOVLW  01
039B8:  MOVLB  7
039BA:  MOVWF  x3F
039BC:  MOVLW  40
039BE:  MOVWF  x40
039C0:  MOVLB  0
039C2:  RCALL  3900
....................       glcd_writeByte(GLCD_LEFT, i | 0xB8);      // Set page address 
039C4:  MOVLB  7
039C6:  MOVF   x38,W
039C8:  IORLW  B8
039CA:  MOVWF  x3E
039CC:  CLRF   x3F
039CE:  MOVWF  x40
039D0:  MOVLB  0
039D2:  RCALL  3900
....................       glcd_writeByte(GLCD_RIGHT, i | 0xB8); 
039D4:  MOVLB  7
039D6:  MOVF   x38,W
039D8:  IORLW  B8
039DA:  MOVWF  x3E
039DC:  MOVLW  01
039DE:  MOVWF  x3F
039E0:  MOVFF  73E,740
039E4:  MOVLB  0
039E6:  RCALL  3900
....................       output_high(GLCD_DI);                     // Set for data 
039E8:  BCF    F93.5
039EA:  BSF    F8A.5
....................  
....................       // Loop through the horizontal sections 
....................       for(j = 0; j < 64; ++j) 
039EC:  MOVLB  7
039EE:  CLRF   x39
039F0:  MOVF   x39,W
039F2:  SUBLW  3F
039F4:  BNC   3A40
....................       { 
....................          glcd_writeByte(GLCD_LEFT, *p1++);      // Turn pixels on or off 
039F6:  MOVFF  73B,03
039FA:  MOVF   x3A,W
039FC:  INCF   x3A,F
039FE:  BTFSC  FD8.2
03A00:  INCF   x3B,F
03A02:  MOVWF  FE9
03A04:  MOVFF  03,FEA
03A08:  MOVFF  FEF,73E
03A0C:  CLRF   x3F
03A0E:  MOVFF  73E,740
03A12:  MOVLB  0
03A14:  RCALL  3900
....................          glcd_writeByte(GLCD_RIGHT, *p2++);     // Turn pixels on or off 
03A16:  MOVLB  7
03A18:  MOVFF  73D,03
03A1C:  MOVF   x3C,W
03A1E:  INCF   x3C,F
03A20:  BTFSC  FD8.2
03A22:  INCF   x3D,F
03A24:  MOVWF  FE9
03A26:  MOVFF  03,FEA
03A2A:  MOVFF  FEF,73E
03A2E:  MOVLW  01
03A30:  MOVWF  x3F
03A32:  MOVFF  73E,740
03A36:  MOVLB  0
03A38:  RCALL  3900
....................       } 
03A3A:  MOVLB  7
03A3C:  INCF   x39,F
03A3E:  BRA    39F0
....................    } 
03A40:  INCF   x38,F
03A42:  BRA    39A2
.................... } 
03A44:  MOVLB  0
03A46:  RETLW  00
.................... #endif 
....................  
....................  
.................... // Purpose:    Turn a pixel on a graphic LCD on or off 
.................... // Inputs:     1) x - the x coordinate of the pixel 
.................... //             2) y - the y coordinate of the pixel 
.................... //             3) color - ON or OFF 
.................... void glcd_pixel(int8 x, int8 y, int1 color) 
.................... #ifdef FAST_GLCD 
.................... { 
....................    int8* p; 
....................    int16 temp; 
....................    temp =  y/8; 
*
03AF0:  MOVLB  7
03AF2:  CLRF   x5E
03AF4:  RRCF   x59,W
03AF6:  MOVWF  x5D
03AF8:  RRCF   x5D,F
03AFA:  RRCF   x5D,F
03AFC:  MOVLW  1F
03AFE:  ANDWF  x5D,F
....................    temp *= 64; 
03B00:  RLCF   x5D,F
03B02:  RLCF   x5E,F
03B04:  RLCF   x5D,F
03B06:  RLCF   x5E,F
03B08:  RLCF   x5D,F
03B0A:  RLCF   x5E,F
03B0C:  RLCF   x5D,F
03B0E:  RLCF   x5E,F
03B10:  RLCF   x5D,F
03B12:  RLCF   x5E,F
03B14:  RLCF   x5D,F
03B16:  RLCF   x5E,F
03B18:  MOVLW  C0
03B1A:  ANDWF  x5D,F
....................    temp += x; 
03B1C:  MOVF   x58,W
03B1E:  ADDWF  x5D,F
03B20:  MOVLW  00
03B22:  ADDWFC x5E,F
....................  
....................    if(x > 63) 
03B24:  MOVF   x58,W
03B26:  SUBLW  3F
03B28:  BC    3B44
....................    { 
....................       p = displayData.right + temp - 64; 
03B2A:  MOVLW  17
03B2C:  ADDWF  x5D,W
03B2E:  MOVWF  x5F
03B30:  MOVLW  02
03B32:  ADDWFC x5E,W
03B34:  MOVWF  x60
03B36:  MOVLW  40
03B38:  SUBWF  x5F,W
03B3A:  MOVWF  x5B
03B3C:  MOVLW  00
03B3E:  SUBWFB x60,W
03B40:  MOVWF  x5C
....................    } 
....................    else 
03B42:  BRA    3B50
....................    { 
....................       p = displayData.left + temp; 
03B44:  MOVLW  17
03B46:  ADDWF  x5D,W
03B48:  MOVWF  x5B
03B4A:  MOVLW  00
03B4C:  ADDWFC x5E,W
03B4E:  MOVWF  x5C
....................    } 
....................  
....................    if(color) 
03B50:  MOVF   x5A,F
03B52:  BZ    3B7E
....................    { 
....................       bit_set(*p, y%8); 
03B54:  MOVFF  75C,03
03B58:  MOVFF  75B,FE9
03B5C:  MOVFF  75C,FEA
03B60:  MOVF   x59,W
03B62:  ANDLW  07
03B64:  MOVWF  x5F
03B66:  MOVLW  01
03B68:  MOVWF  00
03B6A:  MOVF   x5F,W
03B6C:  MOVWF  01
03B6E:  BZ    3B78
03B70:  BCF    FD8.0
03B72:  RLCF   00,F
03B74:  DECFSZ 01,F
03B76:  BRA    3B70
03B78:  MOVF   00,W
03B7A:  IORWF  FEF,F
....................    } 
....................    else 
03B7C:  BRA    3BA8
....................    { 
....................       bit_clear(*p, y%8); 
03B7E:  MOVFF  75C,03
03B82:  MOVFF  75B,FE9
03B86:  MOVFF  75C,FEA
03B8A:  MOVF   x59,W
03B8C:  ANDLW  07
03B8E:  MOVWF  x5F
03B90:  MOVLW  01
03B92:  MOVWF  00
03B94:  MOVF   x5F,W
03B96:  MOVWF  01
03B98:  BZ    3BA2
03B9A:  BCF    FD8.0
03B9C:  RLCF   00,F
03B9E:  DECFSZ 01,F
03BA0:  BRA    3B9A
03BA2:  MOVF   00,W
03BA4:  XORLW  FF
03BA6:  ANDWF  FEF,F
....................    } 
.................... } 
03BA8:  MOVLB  0
03BAA:  RETLW  00
.................... #else 
.................... { 
....................    BYTE data; 
....................    int1 side = GLCD_LEFT;  // Stores which chip to use on the LCD 
....................  
....................    if(x > 63)              // Check for first or second display area 
....................    { 
....................       x -= 64; 
....................       side = GLCD_RIGHT; 
....................    } 
....................  
....................    output_low(GLCD_DI);                         // Set for instruction 
....................    bit_clear(x,7);                              // Clear the MSB. Part of an instruction code 
....................    bit_set(x,6);                                // Set bit 6. Also part of an instruction code 
....................    glcd_writeByte(side, x);                     // Set the horizontal address 
....................    glcd_writeByte(side, (y/8 & 0xBF) | 0xB8);   // Set the vertical page address 
....................    output_high(GLCD_DI);                        // Set for data 
....................    glcd_readByte(side);                         // Need two reads to get data 
....................    data = glcd_readByte(side);                  //  at new address 
....................  
....................    if(color == ON) 
....................       bit_set(data, y%8);        // Turn the pixel on 
....................    else                          // or 
....................       bit_clear(data, y%8);      // turn the pixel off 
....................  
....................    output_low(GLCD_DI);          // Set for instruction 
....................    glcd_writeByte(side, x);      // Set the horizontal address 
....................    output_high(GLCD_DI);         // Set for data 
....................    glcd_writeByte(side, data);   // Write the pixel data 
.................... } 
.................... #endif 
....................  
....................  
.................... // Purpose:    Fill the LCD screen with the passed in color 
.................... // Inputs:     ON  - turn all the pixels on 
.................... //             OFF - turn all the pixels off 
.................... void glcd_fillScreen(int1 color) 
.................... #ifdef FAST_GLCD 
.................... { 
....................    int8  data; 
....................    int8  *p1, *p2; 
....................    int16 i; 
....................  
....................    p1 = displayData.left; 
*
03936:  MOVLB  7
03938:  CLRF   x2B
0393A:  MOVLW  17
0393C:  MOVWF  x2A
....................    p2 = displayData.right; 
0393E:  MOVLW  02
03940:  MOVWF  x2D
03942:  MOVLW  17
03944:  MOVWF  x2C
....................    data = 0xFF * color; 
03946:  MOVF   x28,W
03948:  MULLW  FF
0394A:  MOVFF  FF3,729
....................  
....................    for(i=0; i<512; ++i) 
0394E:  CLRF   x2F
03950:  CLRF   x2E
03952:  MOVF   x2F,W
03954:  SUBLW  01
03956:  BNC   398C
....................    { 
....................       *p1++ = data; 
03958:  MOVFF  72B,03
0395C:  MOVF   x2A,W
0395E:  INCF   x2A,F
03960:  BTFSC  FD8.2
03962:  INCF   x2B,F
03964:  MOVWF  FE9
03966:  MOVFF  03,FEA
0396A:  MOVFF  729,FEF
....................       *p2++ = data; 
0396E:  MOVFF  72D,03
03972:  MOVF   x2C,W
03974:  INCF   x2C,F
03976:  BTFSC  FD8.2
03978:  INCF   x2D,F
0397A:  MOVWF  FE9
0397C:  MOVFF  03,FEA
03980:  MOVFF  729,FEF
....................    } 
03984:  INCF   x2E,F
03986:  BTFSC  FD8.2
03988:  INCF   x2F,F
0398A:  BRA    3952
.................... } 
0398C:  MOVLB  0
0398E:  RETLW  00
.................... #else 
.................... { 
....................    int8 i, j; 
....................  
....................    // Loop through the vertical pages 
....................    for(i = 0; i < 8; ++i) 
....................    { 
....................       output_low(GLCD_DI);                      // Set for instruction 
....................       glcd_writeByte(GLCD_LEFT, 0b01000000);    // Set horizontal address to 0 
....................       glcd_writeByte(GLCD_RIGHT, 0b01000000); 
....................       glcd_writeByte(GLCD_LEFT, i | 0b10111000);// Set page address 
....................       glcd_writeByte(GLCD_RIGHT, i | 0b10111000); 
....................       output_high(GLCD_DI);                     // Set for data 
....................  
....................       // Loop through the horizontal sections 
....................       for(j = 0; j < 64; ++j) 
....................       { 
....................          glcd_writeByte(GLCD_LEFT, 0xFF*color);  // Turn pixels on or off 
....................          glcd_writeByte(GLCD_RIGHT, 0xFF*color); // Turn pixels on or off 
....................       } 
....................    } 
.................... } 
.................... #endif 
....................  
....................  
.................... // Purpose:    Write a byte of data to the specified chip 
.................... // Inputs:     1) chipSelect - which chip to write the data to 
.................... //             2) data - the byte of data to write 
.................... void glcd_writeByte(int1 side, BYTE data) 
.................... { 
....................    if(side)                   // Choose which side to write to 
*
03900:  MOVLB  7
03902:  MOVF   x3F,F
03904:  BZ    390C
....................       output_high(GLCD_CS2); 
03906:  BCF    F93.1
03908:  BSF    F8A.1
....................    else 
0390A:  BRA    3910
....................       output_high(GLCD_CS1); 
0390C:  BCF    F93.0
0390E:  BSF    F8A.0
....................  
....................    output_low(GLCD_RW);       // Set for writing 
03910:  BCF    F93.4
03912:  BCF    F8A.4
....................    output_d(data);            // Put the data on the port 
03914:  CLRF   F95
03916:  MOVFF  740,F8C
....................    delay_cycles(1); 
0391A:  NOP   
....................    output_high(GLCD_E);       // Pulse the enable pin 
0391C:  BCF    F93.3
0391E:  BSF    F8A.3
....................    delay_cycles(5); 
03920:  BRA    3922
03922:  BRA    3924
03924:  NOP   
....................    output_low(GLCD_E); 
03926:  BCF    F93.3
03928:  BCF    F8A.3
....................  
....................    output_low(GLCD_CS1);      // Reset the chip select lines 
0392A:  BCF    F93.0
0392C:  BCF    F8A.0
....................    output_low(GLCD_CS2); 
0392E:  BCF    F93.1
03930:  BCF    F8A.1
.................... } 
03932:  MOVLB  0
03934:  RETLW  00
....................  
....................  
.................... // Purpose:    Reads a byte of data from the specified chip 
.................... // Ouputs:     A byte of data read from the chip 
.................... BYTE glcd_readByte(int1 side) 
.................... { 
....................    BYTE data;                 // Stores the data read from the LCD 
....................  
....................    set_tris_d(0xFF);          // Set port d to input 
....................    output_high(GLCD_RW);      // Set for reading 
....................  
....................    if(side)                   // Choose which side to write to 
....................       output_high(GLCD_CS2); 
....................    else 
....................       output_high(GLCD_CS1); 
....................  
....................    delay_cycles(1); 
....................    output_high(GLCD_E);       // Pulse the enable pin 
....................    delay_cycles(4); 
....................    data = input_d();          // Get the data from the display's output register 
....................    output_low(GLCD_E); 
....................  
....................    output_low(GLCD_CS1);      // Reset the chip select lines 
....................    output_low(GLCD_CS2); 
....................    return data;               // Return the read data 
.................... } 
....................  
.................... #endif 
....................  
.................... #include "GRAPHICS.c" 
.................... ///////////////////////////////////////////////////////////////////////// 
.................... ////                          graphics.c                             //// 
.................... ////                                                                 //// 
.................... ////   This file contains functions to draw lines, rectangles, bars, //// 
.................... ////   circles and text to a display. A function which draws a       //// 
.................... ////   single pixel must be defined before calling the functions in  //// 
.................... ////   this file. Call it glcd_pixel(x, y, color) where x is the     //// 
.................... ////   horizontal coordinate, y is the vertical coordinate, and      //// 
.................... ////   color is 1 bit to turn the pixel on or off.                   //// 
.................... ////                                                                 //// 
.................... ////   * Note: (0, 0) is treated as the upper left corner            //// 
.................... ////                                                                 //// 
.................... ///////////////////////////////////////////////////////////////////////// 
.................... ////                                                                 //// 
.................... ////  glcd_line(x1, y1, x2, y2, color)                               //// 
.................... ////     * Draws a line from the first point to the second point     //// 
.................... ////       with the given color                                      //// 
.................... ////       - color can be ON or OFF                                  //// 
.................... ////                                                                 //// 
.................... ////  glcd_rect(x1, y1, x2, y2, fill, color)                         //// 
.................... ////     * Draws a rectangle with one corner at point (x1,y1) and    //// 
.................... ////       the other corner at point (x2,y2)                         //// 
.................... ////       - fill can be YES or NO                                   //// 
.................... ////       - color can be ON or OFF                                  //// 
.................... ////                                                                 //// 
.................... ////  glcd_bar(x1, y1, x2, y2, width, color)                         //// 
.................... ////     * Draws a bar (wide line) from the first point to the       //// 
.................... ////       second point                                              //// 
.................... ////       - width is the number of pixels wide                      //// 
.................... ////       - color is ON or OFF                                      //// 
.................... ////                                                                 //// 
.................... ////  glcd_circle(x, y, radius, fill, color)                         //// 
.................... ////     * Draws a circle with center at (x,y)                       //// 
.................... ////       - fill can be YES or NO                                   //// 
.................... ////       - color can be ON or OFF                                  //// 
.................... ////                                                                 //// 
.................... ////  glcd_text57(x, y, textptr, size, color)                        //// 
.................... ////     * Write the null terminated text pointed to by textptr with //// 
.................... ////       the upper left coordinate of the first character at (x,y) //// 
.................... ////       Characters are 5 pixels wide and 7 pixels tall            //// 
.................... ////       - size is an integer that scales the size of the text     //// 
.................... ////       - color is ON or OFF                                      //// 
.................... ////     * Note - This function wraps characters to the next line    //// 
.................... ////              use #define GLCD_WIDTH to specify a display width  //// 
.................... ////                                                                 //// 
.................... ///////////////////////////////////////////////////////////////////////// 
.................... ////        (C) Copyright 1996, 2004 Custom Computer Services        //// 
.................... //// This source code may only be used by licensed users of the CCS  //// 
.................... //// C compiler.  This source code may only be distributed to other  //// 
.................... //// licensed users of the CCS C compiler.  No other use,            //// 
.................... //// reproduction or distribution is permitted without written       //// 
.................... //// permission.  Derivative programs created using this software    //// 
.................... //// in object code form are not restricted in any way.              //// 
.................... ///////////////////////////////////////////////////////////////////////// 
....................  
....................  
.................... ///////////////////////////////////////////////////////////////////////// 
.................... #ifndef GRAPHICS_DRAWING_FUNCTIONS 
.................... #define GRAPHICS_DRAWING_FUNCTIONS 
.................... ///////////////////////////////////////////////////////////////////////// 
....................  
....................  
.................... ///////////////////////////////////////////////////////////////////////// 
.................... #ifndef ON 
.................... #define ON  1 
.................... #endif 
....................  
.................... #ifndef OFF 
.................... #define OFF 0 
.................... #endif 
....................  
.................... #ifndef YES 
.................... #define YES 1 
.................... #endif 
....................  
.................... #ifndef NO 
.................... #define NO  0 
.................... #endif 
.................... ///////////////////////////////////////////////////////////////////////// 
....................  
....................  
.................... ///////////////////////////////////////////////////////////////////////// 
.................... //// Defines a 5x7 font 
.................... ///////////////////////////////////////////////////////////////////////// 
.................... const int8 FONT[51][5] ={0x00, 0x00, 0x00, 0x00, 0x00, // SPACE 
....................                          0x00, 0x00, 0x5F, 0x00, 0x00, // ! 
....................                          0x00, 0x03, 0x00, 0x03, 0x00, // " 
....................                          0x14, 0x3E, 0x14, 0x3E, 0x14, // # 
....................                          0x24, 0x2A, 0x7F, 0x2A, 0x12, // $ 
....................                          0x43, 0x33, 0x08, 0x66, 0x61, // % 
....................                          0x36, 0x49, 0x55, 0x22, 0x50, // & 
....................                          0x00, 0x05, 0x03, 0x00, 0x00, // ' 
....................                          0x00, 0x1C, 0x22, 0x41, 0x00, // ( 
....................                          0x00, 0x41, 0x22, 0x1C, 0x00, // ) 
....................                          0x14, 0x08, 0x3E, 0x08, 0x14, // * 
....................                          0x08, 0x08, 0x3E, 0x08, 0x08, // + 
....................                          0x00, 0x50, 0x30, 0x00, 0x00, // , 
....................                          0x08, 0x08, 0x08, 0x08, 0x08, // - 
....................                          0x00, 0x60, 0x60, 0x00, 0x00, // . 
....................                          0x20, 0x10, 0x08, 0x04, 0x02, // / 
....................                          0x3E, 0x51, 0x49, 0x45, 0x3E, // 0 
....................                          0x00, 0x04, 0x02, 0x7F, 0x00, // 1 
....................                          0x42, 0x61, 0x51, 0x49, 0x46, // 2 
....................                          0x22, 0x41, 0x49, 0x49, 0x36, // 3 
....................                          0x18, 0x14, 0x12, 0x7F, 0x10, // 4 
....................                          0x27, 0x45, 0x45, 0x45, 0x39, // 5 
....................                          0x3E, 0x49, 0x49, 0x49, 0x32, // 6 
....................                          0x01, 0x01, 0x71, 0x09, 0x07, // 7 
....................                          0x36, 0x49, 0x49, 0x49, 0x36, // 8 
....................                          0x26, 0x49, 0x49, 0x49, 0x3E, // 9 
....................                          0x00, 0x36, 0x36, 0x00, 0x00, // : 
....................                          0x00, 0x56, 0x36, 0x00, 0x00, // ; 
....................                          0x08, 0x14, 0x22, 0x41, 0x00, // < 
....................                          0x14, 0x14, 0x14, 0x14, 0x14, // = 
....................                          0x00, 0x41, 0x22, 0x14, 0x08, // > 
....................                          0x02, 0x01, 0x51, 0x09, 0x06, // ? 
....................                          0x3E, 0x41, 0x59, 0x55, 0x5E, // @ 
....................                          0x7E, 0x09, 0x09, 0x09, 0x7E, // A 
....................                          0x7F, 0x49, 0x49, 0x49, 0x36, // B 
....................                          0x3E, 0x41, 0x41, 0x41, 0x22, // C 
....................                          0x7F, 0x41, 0x41, 0x41, 0x3E, // D 
....................                          0x7F, 0x49, 0x49, 0x49, 0x41, // E 
....................                          0x7F, 0x09, 0x09, 0x09, 0x01, // F 
....................                          0x3E, 0x41, 0x41, 0x49, 0x3A, // G 
....................                          0x7F, 0x08, 0x08, 0x08, 0x7F, // H 
....................                          0x00, 0x41, 0x7F, 0x41, 0x00, // I 
....................                          0x30, 0x40, 0x40, 0x40, 0x3F, // J 
....................                          0x7F, 0x08, 0x14, 0x22, 0x41, // K 
....................                          0x7F, 0x40, 0x40, 0x40, 0x40, // L 
....................                          0x7F, 0x02, 0x0C, 0x02, 0x7F, // M 
....................                          0x7F, 0x02, 0x04, 0x08, 0x7F, // N 
....................                          0x3E, 0x41, 0x41, 0x41, 0x3E, // O 
....................                          0x7F, 0x09, 0x09, 0x09, 0x06, // P 
....................                          0x1E, 0x21, 0x21, 0x21, 0x5E, // Q 
....................                          0x7F, 0x09, 0x09, 0x09, 0x76};// R 
....................  
.................... const int8 FONT2[44][5]={0x26, 0x49, 0x49, 0x49, 0x32, // S 
....................                          0x01, 0x01, 0x7F, 0x01, 0x01, // T 
....................                          0x3F, 0x40, 0x40, 0x40, 0x3F, // U 
....................                          0x1F, 0x20, 0x40, 0x20, 0x1F, // V 
....................                          0x7F, 0x20, 0x10, 0x20, 0x7F, // W 
....................                          0x41, 0x22, 0x1C, 0x22, 0x41, // X 
....................                          0x07, 0x08, 0x70, 0x08, 0x07, // Y 
....................                          0x61, 0x51, 0x49, 0x45, 0x43, // Z 
....................                          0x00, 0x7F, 0x41, 0x00, 0x00, // [ 
....................                          0x02, 0x04, 0x08, 0x10, 0x20, // \ 
....................                          0x00, 0x00, 0x41, 0x7F, 0x00, // ] 
....................                          0x04, 0x02, 0x01, 0x02, 0x04, // ^ 
....................                          0x40, 0x40, 0x40, 0x40, 0x40, // _ 
....................                          0x00, 0x01, 0x02, 0x04, 0x00, // ` 
....................                          0x20, 0x54, 0x54, 0x54, 0x78, // a 
....................                          0x7F, 0x44, 0x44, 0x44, 0x38, // b 
....................                          0x38, 0x44, 0x44, 0x44, 0x44, // c 
....................                          0x38, 0x44, 0x44, 0x44, 0x7F, // d 
....................                          0x38, 0x54, 0x54, 0x54, 0x18, // e 
....................                          0x04, 0x04, 0x7E, 0x05, 0x05, // f 
....................                          0x08, 0x54, 0x54, 0x54, 0x3C, // g 
....................                          0x7F, 0x08, 0x04, 0x04, 0x78, // h 
....................                          0x00, 0x44, 0x7D, 0x40, 0x00, // i 
....................                          0x20, 0x40, 0x44, 0x3D, 0x00, // j 
....................                          0x7F, 0x10, 0x28, 0x44, 0x00, // k 
....................                          0x00, 0x41, 0x7F, 0x40, 0x00, // l 
....................                          0x7C, 0x04, 0x78, 0x04, 0x78, // m 
....................                          0x7C, 0x08, 0x04, 0x04, 0x78, // n 
....................                          0x38, 0x44, 0x44, 0x44, 0x38, // o 
....................                          0x7C, 0x14, 0x14, 0x14, 0x08, // p 
....................                          0x08, 0x14, 0x14, 0x14, 0x7C, // q 
....................                          0x00, 0x7C, 0x08, 0x04, 0x04, // r 
....................                          0x48, 0x54, 0x54, 0x54, 0x20, // s 
....................                          0x04, 0x04, 0x3F, 0x44, 0x44, // t 
....................                          0x3C, 0x40, 0x40, 0x20, 0x7C, // u 
....................                          0x1C, 0x20, 0x40, 0x20, 0x1C, // v 
....................                          0x3C, 0x40, 0x30, 0x40, 0x3C, // w 
....................                          0x44, 0x28, 0x10, 0x28, 0x44, // x 
....................                          0x0C, 0x50, 0x50, 0x50, 0x3C, // y 
....................                          0x44, 0x64, 0x54, 0x4C, 0x44, // z 
....................                          0x00, 0x08, 0x36, 0x41, 0x41, // { 
....................                          0x00, 0x00, 0x7F, 0x00, 0x00, // | 
....................                          0x41, 0x41, 0x36, 0x08, 0x00, // } 
....................                          0x02, 0x01, 0x02, 0x04, 0x02};// ~ 
.................... ///////////////////////////////////////////////////////////////////////// 
....................  
....................  
.................... ///////////////////////////////////////////////////////////////////////// 
.................... // Purpose:       Draw a line on a graphic LCD using Bresenham's 
.................... //                line drawing algorithm 
.................... // Inputs:        (x1, y1) - the start coordinate 
.................... //                (x2, y2) - the end coordinate 
.................... //                color - ON or OFF 
.................... // Dependencies:  glcd_pixel() 
.................... ///////////////////////////////////////////////////////////////////////// 
.................... #ifdef LARGE_LCD 
.................... void glcd_line(int16 x1, int16 y1, int16 x2, int16 y2, int1 color) 
.................... #else 
.................... void glcd_line(int8 x1, int8 y1, int8 x2, int8 y2, int1 color) 
.................... #endif 
.................... { 
*
03D64:  MOVLW  01
03D66:  MOVLB  7
03D68:  MOVWF  x51
03D6A:  MOVWF  x52
03D6C:  CLRF   x57
....................    int16        dy, dx; 
....................    signed int8  addx=1, addy=1; 
....................    signed int16 P, diff; 
....................  
....................    #ifdef LARGE_LCD 
....................    int16 i=0; 
....................    dx = abs((signed int16)(x2 - x1)); 
....................    dy = abs((signed int16)(y2 - y1)); 
....................    #else 
....................    int8 i=0; 
....................    dx = abs((signed int8)(x2 - x1)); 
03D6E:  MOVF   x48,W
03D70:  SUBWF  x4A,W
03D72:  MOVWF  x58
03D74:  MOVF   x58,W
03D76:  BTFSS  x58.7
03D78:  BRA    3D80
03D7A:  MOVLW  00
03D7C:  BSF    FD8.0
03D7E:  SUBFWB x58,W
03D80:  CLRF   03
03D82:  MOVWF  x4F
03D84:  MOVFF  03,750
....................    dy = abs((signed int8)(y2 - y1)); 
03D88:  MOVF   x49,W
03D8A:  SUBWF  x4B,W
03D8C:  MOVWF  x58
03D8E:  MOVF   x58,W
03D90:  BTFSS  x58.7
03D92:  BRA    3D9A
03D94:  MOVLW  00
03D96:  BSF    FD8.0
03D98:  SUBFWB x58,W
03D9A:  CLRF   03
03D9C:  MOVWF  x4D
03D9E:  MOVFF  03,74E
....................    #endif 
....................  
....................    if(x1 > x2) 
03DA2:  MOVF   x48,W
03DA4:  SUBWF  x4A,W
03DA6:  BC    3DAC
....................       addx = -1; 
03DA8:  MOVLW  FF
03DAA:  MOVWF  x51
....................    if(y1 > y2) 
03DAC:  MOVF   x49,W
03DAE:  SUBWF  x4B,W
03DB0:  BC    3DB6
....................       addy = -1; 
03DB2:  MOVLW  FF
03DB4:  MOVWF  x52
....................  
....................    if(dx >= dy) 
03DB6:  MOVF   x4E,W
03DB8:  SUBWF  x50,W
03DBA:  BNC   3E32
03DBC:  BNZ   3DC4
03DBE:  MOVF   x4D,W
03DC0:  SUBWF  x4F,W
03DC2:  BNC   3E32
....................    { 
....................       dy *= 2; 
03DC4:  BCF    FD8.0
03DC6:  RLCF   x4D,F
03DC8:  RLCF   x4E,F
....................       P = dy - dx; 
03DCA:  MOVF   x4F,W
03DCC:  SUBWF  x4D,W
03DCE:  MOVWF  00
03DD0:  MOVF   x50,W
03DD2:  SUBWFB x4E,W
03DD4:  MOVFF  00,753
03DD8:  MOVWF  x54
....................       diff = P - dx; 
03DDA:  MOVF   x4F,W
03DDC:  SUBWF  x53,W
03DDE:  MOVWF  x55
03DE0:  MOVF   x50,W
03DE2:  SUBWFB x54,W
03DE4:  MOVWF  x56
....................  
....................       for(; i<=dx; ++i) 
03DE6:  MOVF   x50,F
03DE8:  BNZ   3DF0
03DEA:  MOVF   x57,W
03DEC:  SUBWF  x4F,W
03DEE:  BNC   3E30
....................       { 
....................          glcd_pixel(x1, y1, color); 
03DF0:  MOVFF  748,758
03DF4:  MOVFF  749,759
03DF8:  MOVFF  74C,75A
03DFC:  MOVLB  0
03DFE:  RCALL  3AF0
....................  
....................          if(P < 0) 
03E00:  MOVLB  7
03E02:  BTFSC  x54.7
03E04:  BRA    3E08
03E06:  BRA    3E18
....................          { 
....................             P  += dy; 
03E08:  MOVF   x4D,W
03E0A:  ADDWF  x53,F
03E0C:  MOVF   x4E,W
03E0E:  ADDWFC x54,F
....................             x1 += addx; 
03E10:  MOVF   x51,W
03E12:  ADDWF  x48,W
03E14:  MOVWF  x48
....................          } 
....................          else 
03E16:  BRA    3E2C
....................          { 
....................             P  += diff; 
03E18:  MOVF   x55,W
03E1A:  ADDWF  x53,F
03E1C:  MOVF   x56,W
03E1E:  ADDWFC x54,F
....................             x1 += addx; 
03E20:  MOVF   x51,W
03E22:  ADDWF  x48,W
03E24:  MOVWF  x48
....................             y1 += addy; 
03E26:  MOVF   x52,W
03E28:  ADDWF  x49,W
03E2A:  MOVWF  x49
....................          } 
....................       } 
03E2C:  INCF   x57,F
03E2E:  BRA    3DE6
....................    } 
....................    else 
03E30:  BRA    3E9E
....................    { 
....................       dx *= 2; 
03E32:  BCF    FD8.0
03E34:  RLCF   x4F,F
03E36:  RLCF   x50,F
....................       P = dx - dy; 
03E38:  MOVF   x4D,W
03E3A:  SUBWF  x4F,W
03E3C:  MOVWF  00
03E3E:  MOVF   x4E,W
03E40:  SUBWFB x50,W
03E42:  MOVFF  00,753
03E46:  MOVWF  x54
....................       diff = P - dy; 
03E48:  MOVF   x4D,W
03E4A:  SUBWF  x53,W
03E4C:  MOVWF  x55
03E4E:  MOVF   x4E,W
03E50:  SUBWFB x54,W
03E52:  MOVWF  x56
....................  
....................       for(; i<=dy; ++i) 
03E54:  MOVF   x4E,F
03E56:  BNZ   3E5E
03E58:  MOVF   x57,W
03E5A:  SUBWF  x4D,W
03E5C:  BNC   3E9E
....................       { 
....................          glcd_pixel(x1, y1, color); 
03E5E:  MOVFF  748,758
03E62:  MOVFF  749,759
03E66:  MOVFF  74C,75A
03E6A:  MOVLB  0
03E6C:  RCALL  3AF0
....................  
....................          if(P < 0) 
03E6E:  MOVLB  7
03E70:  BTFSC  x54.7
03E72:  BRA    3E76
03E74:  BRA    3E86
....................          { 
....................             P  += dx; 
03E76:  MOVF   x4F,W
03E78:  ADDWF  x53,F
03E7A:  MOVF   x50,W
03E7C:  ADDWFC x54,F
....................             y1 += addy; 
03E7E:  MOVF   x52,W
03E80:  ADDWF  x49,W
03E82:  MOVWF  x49
....................          } 
....................          else 
03E84:  BRA    3E9A
....................          { 
....................             P  += diff; 
03E86:  MOVF   x55,W
03E88:  ADDWF  x53,F
03E8A:  MOVF   x56,W
03E8C:  ADDWFC x54,F
....................             x1 += addx; 
03E8E:  MOVF   x51,W
03E90:  ADDWF  x48,W
03E92:  MOVWF  x48
....................             y1 += addy; 
03E94:  MOVF   x52,W
03E96:  ADDWF  x49,W
03E98:  MOVWF  x49
....................          } 
....................       } 
03E9A:  INCF   x57,F
03E9C:  BRA    3E54
....................    } 
.................... } 
03E9E:  MOVLB  0
03EA0:  RETLW  00
....................  
....................  
.................... ///////////////////////////////////////////////////////////////////////// 
.................... // Purpose:       Draw a rectangle on a graphic LCD 
.................... // Inputs:        (x1, y1) - the start coordinate 
.................... //                (x2, y2) - the end coordinate 
.................... //                fill  - YES or NO 
.................... //                color - ON or OFF 
.................... // Dependencies:  glcd_pixel(), glcd_line() 
.................... ///////////////////////////////////////////////////////////////////////// 
.................... #ifdef LARGE_LCD 
.................... void glcd_rect(int16 x1, int16 y1, int16 x2, int16 y2, int1 fill, int1 color) 
.................... #else 
.................... void glcd_rect(int8 x1, int8 y1, int8 x2, int8 y2, int1 fill, int1 color) 
.................... #endif 
.................... { 
....................    if(fill) 
03EA2:  MOVLB  7
03EA4:  MOVF   x41,F
03EA6:  BZ    3F04
....................    { 
....................       #ifdef LARGE_LCD 
....................       int16 i, xmin, xmax, ymin, ymax; 
....................       #else 
....................       int8  i, xmin, xmax, ymin, ymax; 
....................       #endif 
....................  
....................       if(x1 < x2)                            //  Find x min and max 
03EA8:  MOVF   x3F,W
03EAA:  SUBWF  x3D,W
03EAC:  BC    3EB8
....................       { 
....................          xmin = x1; 
03EAE:  MOVFF  73D,744
....................          xmax = x2; 
03EB2:  MOVFF  73F,745
....................       } 
....................       else 
03EB6:  BRA    3EC0
....................       { 
....................          xmin = x2; 
03EB8:  MOVFF  73F,744
....................          xmax = x1; 
03EBC:  MOVFF  73D,745
....................       } 
....................  
....................       if(y1 < y2)                            // Find the y min and max 
03EC0:  MOVF   x40,W
03EC2:  SUBWF  x3E,W
03EC4:  BC    3ED0
....................       { 
....................          ymin = y1; 
03EC6:  MOVFF  73E,746
....................          ymax = y2; 
03ECA:  MOVFF  740,747
....................       } 
....................       else 
03ECE:  BRA    3ED8
....................       { 
....................          ymin = y2; 
03ED0:  MOVFF  740,746
....................          ymax = y1; 
03ED4:  MOVFF  73E,747
....................       } 
....................  
....................       for(; xmin <= xmax; ++xmin) 
03ED8:  MOVF   x44,W
03EDA:  SUBWF  x45,W
03EDC:  BNC   3F02
....................       { 
....................          for(i=ymin; i<=ymax; ++i) 
03EDE:  MOVFF  746,743
03EE2:  MOVF   x43,W
03EE4:  SUBWF  x47,W
03EE6:  BNC   3EFE
....................          { 
....................             glcd_pixel(xmin, i, color); 
03EE8:  MOVFF  744,758
03EEC:  MOVFF  743,759
03EF0:  MOVFF  742,75A
03EF4:  MOVLB  0
03EF6:  RCALL  3AF0
....................          } 
03EF8:  MOVLB  7
03EFA:  INCF   x43,F
03EFC:  BRA    3EE2
....................       } 
03EFE:  INCF   x44,F
03F00:  BRA    3ED8
....................    } 
....................    else 
03F02:  BRA    3F60
....................    { 
....................       glcd_line(x1, y1, x2, y1, color);      // Draw the 4 sides 
03F04:  MOVFF  73D,748
03F08:  MOVFF  73E,749
03F0C:  MOVFF  73F,74A
03F10:  MOVFF  73E,74B
03F14:  MOVFF  742,74C
03F18:  MOVLB  0
03F1A:  RCALL  3D64
....................       glcd_line(x1, y2, x2, y2, color); 
03F1C:  MOVFF  73D,748
03F20:  MOVFF  740,749
03F24:  MOVFF  73F,74A
03F28:  MOVFF  740,74B
03F2C:  MOVFF  742,74C
03F30:  RCALL  3D64
....................       glcd_line(x1, y1, x1, y2, color); 
03F32:  MOVFF  73D,748
03F36:  MOVFF  73E,749
03F3A:  MOVFF  73D,74A
03F3E:  MOVFF  740,74B
03F42:  MOVFF  742,74C
03F46:  RCALL  3D64
....................       glcd_line(x2, y1, x2, y2, color); 
03F48:  MOVFF  73F,748
03F4C:  MOVFF  73E,749
03F50:  MOVFF  73F,74A
03F54:  MOVFF  740,74B
03F58:  MOVFF  742,74C
03F5C:  RCALL  3D64
03F5E:  MOVLB  7
....................    } 
.................... } 
03F60:  MOVLB  0
03F62:  RETLW  00
....................  
.................... ///////////////////////////////////////////////////////////////////////// 
.................... // Purpose:       Draw a bar (wide line) on a graphic LCD 
.................... // Inputs:        (x1, y1) - the start coordinate 
.................... //                (x2, y2) - the end coordinate 
.................... //                width  - The number of pixels wide 
.................... //                color - ON or OFF 
.................... ///////////////////////////////////////////////////////////////////////// 
.................... #ifdef LARGE_LCD 
.................... void glcd_bar(int16 x1, int16 y1, int16 x2, int16 y2, int8 width, int1 color) 
.................... #else 
.................... void glcd_bar(int8 x1, int8 y1, int8 x2, int8 y2, int8 width, int1 color) 
.................... #endif 
.................... { 
....................    int8         half_width; 
....................    signed int16 dy, dx; 
....................    signed int8  addx=1, addy=1, j; 
....................    signed int16 P, diff, c1, c2; 
....................  
....................    #ifdef LARGE_LCD 
....................    int16 i=0; 
....................    dx = abs((signed int16)(x2 - x1)); 
....................    dy = abs((signed int16)(y2 - y1)); 
....................    #else 
....................    int8 i=0; 
....................    dx = abs((signed int8)(x2 - x1)); 
....................    dy = abs((signed int8)(y2 - y1)); 
....................    #endif 
....................  
....................    half_width = width/2; 
....................    c1 = -(dx*x1 + dy*y1); 
....................    c2 = -(dx*x2 + dy*y2); 
....................  
....................    if(x1 > x2) 
....................    { 
....................       signed int16 temp; 
....................       temp = c1; 
....................       c1 = c2; 
....................       c2 = temp; 
....................       addx = -1; 
....................    } 
....................    if(y1 > y2) 
....................    { 
....................       signed int16 temp; 
....................       temp = c1; 
....................       c1 = c2; 
....................       c2 = temp; 
....................       addy = -1; 
....................    } 
....................  
....................    if(dx >= dy) 
....................    { 
....................       P = 2*dy - dx; 
....................       diff = P - dx; 
....................  
....................       for(i=0; i<=dx; ++i) 
....................       { 
....................          for(j=-half_width; j<half_width+width%2; ++j) 
....................          { 
....................             #ifdef LARGE_LCD 
....................             int16 temp; 
....................             #else 
....................             int8 temp; 
....................             #endif 
....................  
....................             temp = dx*x1+dy*(y1+j);    // Use more RAM to increase speed 
....................             if(temp+c1 >= 0 && temp+c2 <=0) 
....................                glcd_pixel(x1, y1+j, color); 
....................          } 
....................          if(P < 0) 
....................          { 
....................             P  += 2*dy; 
....................             x1 += addx; 
....................          } 
....................          else 
....................          { 
....................             P  += diff; 
....................             x1 += addx; 
....................             y1 += addy; 
....................          } 
....................       } 
....................    } 
....................    else 
....................    { 
....................       P = 2*dx - dy; 
....................       diff = P - dy; 
....................  
....................       for(i=0; i<=dy; ++i) 
....................       { 
....................          if(P < 0) 
....................          { 
....................             P  += 2*dx; 
....................             y1 += addy; 
....................          } 
....................          else 
....................          { 
....................             P  += diff; 
....................             x1 += addx; 
....................             y1 += addy; 
....................          } 
....................          for(j=-half_width; j<half_width+width%2; ++j) 
....................          { 
....................             #ifdef LARGE_LCD 
....................             int16 temp; 
....................             #else 
....................             int8 temp; 
....................             #endif 
....................  
....................             temp = dx*x1+dy*(y1+j);    // Use more RAM to increase speed 
....................             if(temp+c1 >= 0 && temp+c2 <=0) 
....................                glcd_pixel(x1+j, y1, color); 
....................          } 
....................       } 
....................    } 
.................... } 
....................  
....................  
.................... ///////////////////////////////////////////////////////////////////////// 
.................... // Purpose:       Draw a circle on a graphic LCD 
.................... // Inputs:        (x,y) - the center of the circle 
.................... //                radius - the radius of the circle 
.................... //                fill - YES or NO 
.................... //                color - ON or OFF 
.................... ///////////////////////////////////////////////////////////////////////// 
.................... #ifdef LARGE_LCD 
.................... void glcd_circle(int16 x, int16 y, int16 radius, int1 fill, int1 color) 
.................... #else 
.................... void glcd_circle(int8 x, int8 y, int8 radius, int1 fill, int1 color) 
.................... #endif 
.................... { 
....................    #ifdef LARGE_LCD 
....................    signed int16 a, b, P; 
....................    #else 
....................    signed int8  a, b, P; 
....................    #endif 
....................  
....................    a = 0; 
*
062B8:  MOVLB  7
062BA:  CLRF   x2C
....................    b = radius; 
062BC:  MOVFF  729,72D
....................    P = 1 - radius; 
062C0:  MOVLW  01
062C2:  BSF    FD8.0
062C4:  SUBFWB x29,W
062C6:  MOVWF  x2E
....................  
....................    do 
....................    { 
....................       if(fill) 
062C8:  MOVF   x2A,F
062CA:  BZ    6396
....................       { 
....................          glcd_line(x-a, y+b, x+a, y+b, color); 
062CC:  MOVF   x2C,W
062CE:  SUBWF  x27,W
062D0:  MOVWF  x2F
062D2:  MOVF   x2D,W
062D4:  ADDWF  x28,W
062D6:  MOVWF  x30
062D8:  MOVF   x2C,W
062DA:  ADDWF  x27,W
062DC:  MOVWF  x31
062DE:  MOVF   x2D,W
062E0:  ADDWF  x28,W
062E2:  MOVWF  x32
062E4:  MOVFF  72F,748
062E8:  MOVFF  730,749
062EC:  MOVFF  731,74A
062F0:  MOVWF  x4B
062F2:  MOVFF  72B,74C
062F6:  MOVLB  0
062F8:  CALL   3D64
....................          glcd_line(x-a, y-b, x+a, y-b, color); 
062FC:  MOVLB  7
062FE:  MOVF   x2C,W
06300:  SUBWF  x27,W
06302:  MOVWF  x2F
06304:  MOVF   x2D,W
06306:  SUBWF  x28,W
06308:  MOVWF  x30
0630A:  MOVF   x2C,W
0630C:  ADDWF  x27,W
0630E:  MOVWF  x31
06310:  MOVF   x2D,W
06312:  SUBWF  x28,W
06314:  MOVWF  x32
06316:  MOVFF  72F,748
0631A:  MOVFF  730,749
0631E:  MOVFF  731,74A
06322:  MOVWF  x4B
06324:  MOVFF  72B,74C
06328:  MOVLB  0
0632A:  CALL   3D64
....................          glcd_line(x-b, y+a, x+b, y+a, color); 
0632E:  MOVLB  7
06330:  MOVF   x2D,W
06332:  SUBWF  x27,W
06334:  MOVWF  x2F
06336:  MOVF   x2C,W
06338:  ADDWF  x28,W
0633A:  MOVWF  x30
0633C:  MOVF   x2D,W
0633E:  ADDWF  x27,W
06340:  MOVWF  x31
06342:  MOVF   x2C,W
06344:  ADDWF  x28,W
06346:  MOVWF  x32
06348:  MOVFF  72F,748
0634C:  MOVFF  730,749
06350:  MOVFF  731,74A
06354:  MOVWF  x4B
06356:  MOVFF  72B,74C
0635A:  MOVLB  0
0635C:  CALL   3D64
....................          glcd_line(x-b, y-a, x+b, y-a, color); 
06360:  MOVLB  7
06362:  MOVF   x2D,W
06364:  SUBWF  x27,W
06366:  MOVWF  x2F
06368:  MOVF   x2C,W
0636A:  SUBWF  x28,W
0636C:  MOVWF  x30
0636E:  MOVF   x2D,W
06370:  ADDWF  x27,W
06372:  MOVWF  x31
06374:  MOVF   x2C,W
06376:  SUBWF  x28,W
06378:  MOVWF  x32
0637A:  MOVFF  72F,748
0637E:  MOVFF  730,749
06382:  MOVFF  731,74A
06386:  MOVWF  x4B
06388:  MOVFF  72B,74C
0638C:  MOVLB  0
0638E:  CALL   3D64
....................       } 
....................       else 
06392:  BRA    6484
06394:  MOVLB  7
....................       { 
....................          glcd_pixel(a+x, b+y, color); 
06396:  MOVF   x27,W
06398:  ADDWF  x2C,W
0639A:  MOVWF  x2F
0639C:  MOVF   x28,W
0639E:  ADDWF  x2D,W
063A0:  MOVWF  x30
063A2:  MOVFF  72F,758
063A6:  MOVWF  x59
063A8:  MOVFF  72B,75A
063AC:  MOVLB  0
063AE:  CALL   3AF0
....................          glcd_pixel(b+x, a+y, color); 
063B2:  MOVLB  7
063B4:  MOVF   x27,W
063B6:  ADDWF  x2D,W
063B8:  MOVWF  x2F
063BA:  MOVF   x28,W
063BC:  ADDWF  x2C,W
063BE:  MOVWF  x30
063C0:  MOVFF  72F,758
063C4:  MOVWF  x59
063C6:  MOVFF  72B,75A
063CA:  MOVLB  0
063CC:  CALL   3AF0
....................          glcd_pixel(x-a, b+y, color); 
063D0:  MOVLB  7
063D2:  MOVF   x2C,W
063D4:  SUBWF  x27,W
063D6:  MOVWF  x2F
063D8:  MOVF   x28,W
063DA:  ADDWF  x2D,W
063DC:  MOVWF  x30
063DE:  MOVFF  72F,758
063E2:  MOVWF  x59
063E4:  MOVFF  72B,75A
063E8:  MOVLB  0
063EA:  CALL   3AF0
....................          glcd_pixel(x-b, a+y, color); 
063EE:  MOVLB  7
063F0:  MOVF   x2D,W
063F2:  SUBWF  x27,W
063F4:  MOVWF  x2F
063F6:  MOVF   x28,W
063F8:  ADDWF  x2C,W
063FA:  MOVWF  x30
063FC:  MOVFF  72F,758
06400:  MOVWF  x59
06402:  MOVFF  72B,75A
06406:  MOVLB  0
06408:  CALL   3AF0
....................          glcd_pixel(b+x, y-a, color); 
0640C:  MOVLB  7
0640E:  MOVF   x27,W
06410:  ADDWF  x2D,W
06412:  MOVWF  x2F
06414:  MOVF   x2C,W
06416:  SUBWF  x28,W
06418:  MOVWF  x30
0641A:  MOVFF  72F,758
0641E:  MOVWF  x59
06420:  MOVFF  72B,75A
06424:  MOVLB  0
06426:  CALL   3AF0
....................          glcd_pixel(a+x, y-b, color); 
0642A:  MOVLB  7
0642C:  MOVF   x27,W
0642E:  ADDWF  x2C,W
06430:  MOVWF  x2F
06432:  MOVF   x2D,W
06434:  SUBWF  x28,W
06436:  MOVWF  x30
06438:  MOVFF  72F,758
0643C:  MOVWF  x59
0643E:  MOVFF  72B,75A
06442:  MOVLB  0
06444:  CALL   3AF0
....................          glcd_pixel(x-a, y-b, color); 
06448:  MOVLB  7
0644A:  MOVF   x2C,W
0644C:  SUBWF  x27,W
0644E:  MOVWF  x2F
06450:  MOVF   x2D,W
06452:  SUBWF  x28,W
06454:  MOVWF  x30
06456:  MOVFF  72F,758
0645A:  MOVWF  x59
0645C:  MOVFF  72B,75A
06460:  MOVLB  0
06462:  CALL   3AF0
....................          glcd_pixel(x-b, y-a, color); 
06466:  MOVLB  7
06468:  MOVF   x2D,W
0646A:  SUBWF  x27,W
0646C:  MOVWF  x2F
0646E:  MOVF   x2C,W
06470:  SUBWF  x28,W
06472:  MOVWF  x30
06474:  MOVFF  72F,758
06478:  MOVWF  x59
0647A:  MOVFF  72B,75A
0647E:  MOVLB  0
06480:  CALL   3AF0
....................       } 
....................  
....................       if(P < 0) 
06484:  MOVLB  7
06486:  BTFSC  x2E.7
06488:  BRA    648C
0648A:  BRA    64A8
....................          P += 3 + 2 * a++; 
0648C:  MOVF   x2C,W
0648E:  INCF   x2C,F
06490:  MOVWF  x2F
06492:  MOVLW  02
06494:  MOVWF  x30
06496:  MOVFF  72F,731
0649A:  MOVLB  0
0649C:  RCALL  626A
0649E:  MOVF   01,W
064A0:  ADDLW  03
064A2:  MOVLB  7
064A4:  ADDWF  x2E,F
....................       else 
064A6:  BRA    64CA
....................          P += 5 + 2 * (a++ - b--); 
064A8:  MOVF   x2C,W
064AA:  INCF   x2C,F
064AC:  MOVWF  x2F
064AE:  MOVF   x2D,W
064B0:  DECF   x2D,F
064B2:  SUBWF  x2F,W
064B4:  MOVWF  x2F
064B6:  MOVLW  02
064B8:  MOVWF  x30
064BA:  MOVFF  72F,731
064BE:  MOVLB  0
064C0:  RCALL  626A
064C2:  MOVF   01,W
064C4:  ADDLW  05
064C6:  MOVLB  7
064C8:  ADDWF  x2E,F
....................     } while(a <= b); 
064CA:  MOVF   x2C,W
064CC:  XORLW  80
064CE:  MOVWF  00
064D0:  MOVF   x2D,W
064D2:  XORLW  80
064D4:  SUBWF  00,W
064D6:  BTFSC  FD8.2
064D8:  BRA    62C8
064DA:  BTFSS  FD8.0
064DC:  BRA    62C8
.................... } 
064DE:  MOVLB  0
064E0:  RETLW  00
....................  
....................  
.................... ///////////////////////////////////////////////////////////////////////// 
.................... // Purpose:       Write text on a graphic LCD 
.................... // Inputs:        (x,y) - The upper left coordinate of the first letter 
.................... //                textptr - A pointer to an array of text to display 
.................... //                size - The size of the text: 1 = 5x7, 2 = 10x14, ... 
.................... //                color - ON or OFF 
.................... ///////////////////////////////////////////////////////////////////////// 
.................... #ifdef LARGE_LCD 
.................... void glcd_text57(int16 x, int16 y, char* textptr, int8 size, int1 color) 
.................... #else 
.................... void glcd_text57(int8 x, int8 y, char* textptr, int8 size, int1 color) 
.................... #endif 
.................... { 
....................    int8 j, k, l, m;                       // Loop counters 
....................    int8 pixelData[5];                     // Stores character data 
....................  
....................    for(; *textptr != '\0'; ++textptr, ++x)// Loop through the passed string 
*
03BAC:  MOVFF  73E,03
03BB0:  MOVLB  7
03BB2:  MOVFF  73D,FE9
03BB6:  MOVFF  73E,FEA
03BBA:  MOVF   FEF,F
03BBC:  BTFSC  FD8.2
03BBE:  BRA    3D60
....................    { 
....................       if(*textptr < 'S') // Checks if the letter is in the first font array 
03BC0:  MOVFF  73E,03
03BC4:  MOVFF  73D,FE9
03BC8:  MOVFF  73E,FEA
03BCC:  MOVF   FEF,W
03BCE:  SUBLW  52
03BD0:  BNC   3C20
....................          memcpy(pixelData, FONT[*textptr - ' '], 5); 
03BD2:  MOVFF  73E,03
03BD6:  MOVFF  73D,FE9
03BDA:  MOVFF  73E,FEA
03BDE:  MOVLW  20
03BE0:  SUBWF  FEF,W
03BE2:  MULLW  05
03BE4:  MOVF   FF3,W
03BE6:  CLRF   03
03BE8:  MOVWF  x4A
03BEA:  MOVLW  07
03BEC:  MOVWF  FEA
03BEE:  MOVLW  45
03BF0:  MOVWF  FE9
03BF2:  CLRF   x4E
03BF4:  MOVFF  74A,74D
03BF8:  MOVFF  FF2,74B
03BFC:  BCF    FF2.7
03BFE:  MOVLW  05
03C00:  MOVWF  01
03C02:  CLRF   FF7
03C04:  MOVF   x4A,W
03C06:  MOVLB  0
03C08:  CALL   00AA
03C0C:  TBLRD*-
03C0E:  TBLRD*+
03C10:  MOVFF  FF5,FEE
03C14:  DECFSZ 01,F
03C16:  BRA    3C0E
03C18:  MOVLB  7
03C1A:  BTFSC  x4B.7
03C1C:  BSF    FF2.7
....................       else if(*textptr <= '~') // Check if the letter is in the second font array 
03C1E:  BRA    3C8A
03C20:  MOVFF  73E,03
03C24:  MOVFF  73D,FE9
03C28:  MOVFF  73E,FEA
03C2C:  MOVF   FEF,W
03C2E:  SUBLW  7E
03C30:  BNC   3C80
....................          memcpy(pixelData, FONT2[*textptr - 'S'], 5); 
03C32:  MOVFF  73E,03
03C36:  MOVFF  73D,FE9
03C3A:  MOVFF  73E,FEA
03C3E:  MOVLW  53
03C40:  SUBWF  FEF,W
03C42:  MULLW  05
03C44:  MOVF   FF3,W
03C46:  CLRF   03
03C48:  MOVWF  x4A
03C4A:  MOVLW  07
03C4C:  MOVWF  FEA
03C4E:  MOVLW  45
03C50:  MOVWF  FE9
03C52:  CLRF   x4E
03C54:  MOVFF  74A,74D
03C58:  MOVFF  FF2,74B
03C5C:  BCF    FF2.7
03C5E:  MOVLW  05
03C60:  MOVWF  01
03C62:  CLRF   FF7
03C64:  MOVF   x4A,W
03C66:  MOVLB  0
03C68:  CALL   01C8
03C6C:  TBLRD*-
03C6E:  TBLRD*+
03C70:  MOVFF  FF5,FEE
03C74:  DECFSZ 01,F
03C76:  BRA    3C6E
03C78:  MOVLB  7
03C7A:  BTFSC  x4B.7
03C7C:  BSF    FF2.7
....................       else 
03C7E:  BRA    3C8A
....................          memcpy(pixelData, FONT[0], 5);   // Default to space 
03C80:  CLRF   x45
03C82:  CLRF   x46
03C84:  CLRF   x47
03C86:  CLRF   x48
03C88:  CLRF   x49
....................  
....................       // Handles newline and carriage returns 
....................       switch(*textptr) 
....................       { 
03C8A:  MOVFF  73E,03
03C8E:  MOVF   x3D,W
03C90:  MOVWF  FE9
03C92:  MOVFF  03,FEA
03C96:  MOVF   FEF,W
03C98:  XORLW  0A
03C9A:  MOVLB  0
03C9C:  BZ    3CA4
03C9E:  XORLW  07
03CA0:  BZ    3CB4
03CA2:  BRA    3CBA
....................          case '\n': 
....................             y += 7*size + 1; 
03CA4:  MOVLB  7
03CA6:  MOVF   x3F,W
03CA8:  MULLW  07
03CAA:  MOVF   FF3,W
03CAC:  ADDLW  01
03CAE:  ADDWF  x3C,F
....................             continue; 
03CB0:  BRA    3D52
03CB2:  MOVLB  0
....................          case '\r': 
....................             x = 0; 
03CB4:  MOVLB  7
03CB6:  CLRF   x3B
....................             continue; 
03CB8:  BRA    3D52
....................       } 
....................  
....................       if(x+5*size >= GLCD_WIDTH)          // Performs character wrapping 
03CBA:  MOVLB  7
03CBC:  MOVF   x3F,W
03CBE:  MULLW  05
03CC0:  MOVF   FF3,W
03CC2:  ADDWF  x3B,W
03CC4:  SUBLW  7F
03CC6:  BC    3CD4
....................       { 
....................          x = 0;                           // Set x at far left position 
03CC8:  CLRF   x3B
....................          y += 7*size + 1;                 // Set y at next position down 
03CCA:  MOVF   x3F,W
03CCC:  MULLW  07
03CCE:  MOVF   FF3,W
03CD0:  ADDLW  01
03CD2:  ADDWF  x3C,F
....................       } 
....................       for(j=0; j<5; ++j, x+=size)         // Loop through character byte data 
03CD4:  CLRF   x41
03CD6:  MOVF   x41,W
03CD8:  SUBLW  04
03CDA:  BNC   3D52
....................       { 
....................          for(k=0; k < 7; ++k)             // Loop through the vertical pixels 
03CDC:  CLRF   x42
03CDE:  MOVF   x42,W
03CE0:  SUBLW  06
03CE2:  BNC   3D4A
....................          { 
....................             if(bit_test(pixelData[j], k)) // Check if the pixel should be set 
03CE4:  CLRF   03
03CE6:  MOVF   x41,W
03CE8:  ADDLW  45
03CEA:  MOVWF  FE9
03CEC:  MOVLW  07
03CEE:  ADDWFC 03,W
03CF0:  MOVWF  FEA
03CF2:  MOVFF  FEF,74A
03CF6:  MOVFF  74A,00
03CFA:  MOVF   x42,W
03CFC:  MOVWF  01
03CFE:  BZ    3D08
03D00:  BCF    FD8.0
03D02:  RRCF   00,F
03D04:  DECFSZ 01,F
03D06:  BRA    3D00
03D08:  BTFSS  00.0
03D0A:  BRA    3D46
....................             { 
....................                for(l=0; l < size; ++l)    // These two loops change the 
03D0C:  CLRF   x43
03D0E:  MOVF   x3F,W
03D10:  SUBWF  x43,W
03D12:  BC    3D46
....................                {                          // character's size 
....................                   for(m=0; m < size; ++m) 
03D14:  CLRF   x44
03D16:  MOVF   x3F,W
03D18:  SUBWF  x44,W
03D1A:  BC    3D42
....................                   { 
....................                      glcd_pixel(x+m, y+k*size+l, color); // Draws the pixel 
03D1C:  MOVF   x44,W
03D1E:  ADDWF  x3B,W
03D20:  MOVWF  x4A
03D22:  MOVF   x42,W
03D24:  MULWF  x3F
03D26:  MOVF   FF3,W
03D28:  ADDWF  x3C,W
03D2A:  ADDWF  x43,W
03D2C:  MOVWF  x4B
03D2E:  MOVFF  74A,758
03D32:  MOVWF  x59
03D34:  MOVFF  740,75A
03D38:  MOVLB  0
03D3A:  RCALL  3AF0
....................                   } 
03D3C:  MOVLB  7
03D3E:  INCF   x44,F
03D40:  BRA    3D16
....................                } 
03D42:  INCF   x43,F
03D44:  BRA    3D0E
....................             } 
....................          } 
03D46:  INCF   x42,F
03D48:  BRA    3CDE
....................       } 
03D4A:  INCF   x41,F
03D4C:  MOVF   x3F,W
03D4E:  ADDWF  x3B,F
03D50:  BRA    3CD6
....................    } 
03D52:  INCF   x3D,F
03D54:  BTFSC  FD8.2
03D56:  INCF   x3E,F
03D58:  INCF   x3B,F
03D5A:  MOVLB  0
03D5C:  BRA    3BAC
03D5E:  MOVLB  7
.................... } 
03D60:  MOVLB  0
03D62:  RETLW  00
....................  
.................... #endif 
....................  
.................... #include "imagen.h" 
.................... const int8 GraficaVacio [64][16] = { 
.................... 0x00, 0x00, 0x00, 0x00, 0x00, 0x00, 0x00, 0x00, 0x00, 0x00, 0x00, 0x00, 0x00, 0x00, 0x00, 0x00, 
.................... 0x00, 0x00, 0x00, 0x00, 0x00, 0x00, 0x00, 0x00, 0x00, 0x00, 0x00, 0x00, 0x00, 0x00, 0x00, 0x00, 
.................... 0x00, 0x00, 0x00, 0x00, 0x00, 0x00, 0x00, 0x00, 0x00, 0x00, 0x00, 0x00, 0x00, 0x00, 0x00, 0x00, 
.................... 0x00, 0x00, 0x00, 0x00, 0x00, 0x00, 0x00, 0x00, 0x00, 0x00, 0x00, 0x00, 0x00, 0x00, 0x00, 0x00, 
.................... 0x00, 0x00, 0x00, 0x00, 0x00, 0x00, 0x00, 0x00, 0x00, 0x00, 0x00, 0x00, 0x00, 0x00, 0x00, 0x00, 
.................... 0x00, 0x00, 0x00, 0x00, 0x00, 0x00, 0x00, 0x00, 0x00, 0x00, 0x00, 0x00, 0x00, 0x00, 0x00, 0x00, 
.................... 0x00, 0x00, 0x00, 0x00, 0x00, 0x00, 0x00, 0x00, 0x00, 0x00, 0x00, 0x00, 0x00, 0x00, 0x00, 0x00, 
.................... 0x00, 0x00, 0x00, 0x00, 0x00, 0x00, 0x00, 0x00, 0x00, 0x00, 0x00, 0x00, 0x00, 0x00, 0x00, 0x00, 
.................... 0x00, 0x00, 0x00, 0x00, 0x00, 0x00, 0x00, 0x00, 0x00, 0x00, 0x00, 0x00, 0x00, 0x00, 0x00, 0x00, 
.................... 0x00, 0x00, 0x00, 0x00, 0x00, 0x00, 0x00, 0x00, 0x00, 0x00, 0x00, 0x00, 0x00, 0x00, 0x00, 0x00, 
.................... 0x00, 0x00, 0x00, 0x00, 0x00, 0x00, 0x00, 0x00, 0x00, 0x00, 0x00, 0x00, 0x00, 0x00, 0x00, 0x00, 
.................... 0x00, 0x00, 0x00, 0x00, 0x00, 0x00, 0x00, 0x00, 0x00, 0x00, 0x00, 0x00, 0x00, 0x00, 0x00, 0x00, 
.................... 0x00, 0x00, 0x00, 0x00, 0x00, 0x00, 0x00, 0x00, 0x00, 0x00, 0x00, 0x00, 0x00, 0x00, 0x00, 0x00, 
.................... 0x00, 0x00, 0x00, 0x00, 0x00, 0x00, 0x00, 0x00, 0x00, 0x00, 0x00, 0x00, 0x00, 0x00, 0x00, 0x00, 
.................... 0x00, 0x00, 0x00, 0x00, 0x00, 0x00, 0x00, 0x00, 0x00, 0x00, 0x00, 0x00, 0x00, 0x00, 0x00, 0x00, 
.................... 0x08, 0x00, 0x00, 0x00, 0x00, 0x00, 0x00, 0x00, 0x00, 0x00, 0x00, 0x00, 0x00, 0x00, 0x00, 0x00, 
.................... 0x1C, 0x00, 0x00, 0x00, 0x00, 0x00, 0x00, 0x00, 0x00, 0x00, 0x00, 0x00, 0x00, 0x00, 0x00, 0x00, 
.................... 0x3E, 0x00, 0x00, 0x00, 0x00, 0x00, 0x00, 0x00, 0x00, 0x00, 0x00, 0x00, 0x00, 0x00, 0x00, 0x00, 
.................... 0x08, 0x00, 0x00, 0x00, 0x00, 0x00, 0x00, 0x00, 0x00, 0x00, 0x00, 0x00, 0x00, 0x00, 0x00, 0x00, 
.................... 0x08, 0x00, 0x00, 0x00, 0x00, 0x00, 0x00, 0x00, 0x00, 0x00, 0x00, 0x00, 0x00, 0x00, 0x00, 0x00, 
.................... 0x08, 0x00, 0x00, 0x00, 0x00, 0x00, 0x00, 0x00, 0x00, 0x00, 0x00, 0x00, 0x00, 0x00, 0x00, 0x00, 
.................... 0x08, 0x00, 0x00, 0x00, 0x00, 0x00, 0x00, 0x00, 0x00, 0x00, 0x00, 0x00, 0x00, 0x00, 0x00, 0x00, 
.................... 0x08, 0x00, 0x00, 0x00, 0x3F, 0xFF, 0xFF, 0xFE, 0x00, 0x00, 0x00, 0x00, 0x00, 0x00, 0x00, 0x00, 
.................... 0x08, 0x00, 0x00, 0x00, 0x20, 0x00, 0x00, 0x02, 0x00, 0x00, 0x00, 0x00, 0x00, 0x00, 0x00, 0x00, 
.................... 0x08, 0x00, 0x00, 0x00, 0x60, 0x00, 0x00, 0x02, 0x00, 0x00, 0x00, 0x00, 0x00, 0x00, 0x00, 0x00, 
.................... 0x08, 0x00, 0x00, 0x00, 0x40, 0x00, 0x00, 0x02, 0x00, 0x00, 0x00, 0x00, 0x00, 0x00, 0x00, 0x00, 
.................... 0x08, 0x00, 0x00, 0x00, 0x40, 0x00, 0x00, 0x03, 0x00, 0x00, 0x00, 0x00, 0x00, 0x00, 0x00, 0x00, 
.................... 0x08, 0x00, 0x00, 0x00, 0xC0, 0x00, 0x00, 0x01, 0x00, 0x00, 0x00, 0x00, 0x00, 0x00, 0x00, 0x00, 
.................... 0x08, 0x00, 0x00, 0x00, 0x80, 0x00, 0x00, 0x01, 0x00, 0x00, 0x00, 0x00, 0x00, 0x00, 0x00, 0x00, 
.................... 0x08, 0x00, 0x00, 0x00, 0x80, 0x00, 0x00, 0x01, 0x00, 0x00, 0x00, 0x00, 0x00, 0x00, 0x00, 0x00, 
.................... 0x08, 0x00, 0x00, 0x01, 0x80, 0x00, 0x00, 0x01, 0x80, 0x00, 0x00, 0x00, 0x00, 0x00, 0x00, 0x00, 
.................... 0x08, 0x00, 0x00, 0x01, 0x00, 0x00, 0x00, 0x00, 0x80, 0x00, 0x00, 0x00, 0x00, 0x00, 0x00, 0x00, 
.................... 0x08, 0x00, 0x00, 0x01, 0x00, 0x00, 0x00, 0x00, 0x80, 0x00, 0x00, 0x00, 0x00, 0x00, 0x00, 0x00, 
.................... 0x08, 0x00, 0x00, 0x03, 0x00, 0x00, 0x00, 0x00, 0xC0, 0x00, 0x00, 0x00, 0x00, 0x00, 0x00, 0x00, 
.................... 0x08, 0x00, 0x00, 0x02, 0x00, 0x00, 0x00, 0x00, 0x40, 0x00, 0x00, 0x00, 0x00, 0x00, 0x00, 0x00, 
.................... 0x08, 0x00, 0x00, 0x02, 0x00, 0x00, 0x00, 0x00, 0x40, 0x00, 0x00, 0x00, 0x00, 0x00, 0x00, 0x00, 
.................... 0x08, 0xC1, 0x83, 0x02, 0x00, 0x00, 0x00, 0x00, 0x60, 0x00, 0x00, 0x00, 0x00, 0x00, 0x00, 0x00, 
.................... 0x08, 0xE1, 0xC3, 0x82, 0x00, 0x00, 0x00, 0x00, 0x30, 0x00, 0x03, 0xC0, 0x00, 0x00, 0x00, 0x00, 
.................... 0x08, 0xA1, 0x42, 0x82, 0x00, 0x00, 0x00, 0x00, 0x08, 0x00, 0x06, 0x00, 0x00, 0x00, 0x00, 0x00, 
.................... 0x08, 0xB1, 0x62, 0xC2, 0x00, 0x00, 0x00, 0x00, 0x08, 0x00, 0x0C, 0x00, 0x00, 0x00, 0x00, 0x00, 
.................... 0x08, 0x91, 0x22, 0x42, 0x00, 0x00, 0x00, 0x00, 0x08, 0x00, 0x08, 0x00, 0x00, 0x00, 0x00, 0x00, 
.................... 0x08, 0x91, 0x22, 0x42, 0x00, 0x00, 0x00, 0x00, 0x0C, 0x00, 0x08, 0x00, 0x00, 0x00, 0x00, 0x00, 
.................... 0x08, 0x99, 0x32, 0x62, 0x00, 0x00, 0x00, 0x00, 0x04, 0x00, 0x08, 0x00, 0x00, 0x00, 0x00, 0x00, 
.................... 0x08, 0x99, 0x32, 0x62, 0x00, 0x00, 0x00, 0x00, 0x04, 0x00, 0x18, 0x00, 0x00, 0x00, 0x00, 0x00, 
.................... 0x0C, 0x89, 0x12, 0x22, 0x00, 0x00, 0x00, 0x00, 0x04, 0x00, 0x10, 0x00, 0x00, 0x00, 0x00, 0x00, 
.................... 0x0A, 0x8D, 0x1A, 0x32, 0x00, 0x00, 0x00, 0x00, 0x06, 0x00, 0x30, 0x00, 0x00, 0x00, 0x00, 0x00, 
.................... 0x0A, 0x85, 0x0A, 0x12, 0x00, 0x00, 0x00, 0x00, 0x02, 0x00, 0x20, 0x00, 0x00, 0x00, 0x00, 0x00, 
.................... 0x0A, 0x85, 0x0A, 0x1A, 0x00, 0x00, 0x00, 0x00, 0x02, 0x00, 0x20, 0x00, 0x00, 0x00, 0x00, 0x00, 
.................... 0x09, 0x87, 0x0E, 0x1A, 0x00, 0x00, 0x00, 0x00, 0x03, 0x00, 0x20, 0x00, 0x00, 0x00, 0x00, 0x00, 
.................... 0x09, 0x83, 0x06, 0x0A, 0x00, 0x00, 0x00, 0x00, 0x01, 0x00, 0x20, 0x00, 0x00, 0x00, 0x00, 0x00, 
.................... 0x09, 0x83, 0x06, 0x0E, 0x00, 0x00, 0x00, 0x00, 0x01, 0x00, 0x60, 0x00, 0x00, 0x00, 0x00, 0x00, 
.................... 0x08, 0x81, 0x02, 0x06, 0x00, 0x00, 0x00, 0x00, 0x01, 0xFF, 0xC0, 0x00, 0x00, 0x00, 0x00, 0x00, 
.................... 0x08, 0x81, 0x02, 0x06, 0x00, 0x00, 0x00, 0x00, 0x00, 0x00, 0x00, 0x00, 0x00, 0x00, 0x00, 0x00, 
.................... 0x08, 0x00, 0x00, 0x00, 0x00, 0x00, 0x00, 0x00, 0x00, 0x00, 0x04, 0x00, 0x00, 0x00, 0x00, 0x00, 
.................... 0x0F, 0xFF, 0xFF, 0xFF, 0xFF, 0xFF, 0xFF, 0xFF, 0xFF, 0xFF, 0xFE, 0x00, 0x00, 0x00, 0x00, 0x00, 
.................... 0x00, 0x00, 0x00, 0x00, 0x00, 0x00, 0x00, 0x00, 0x00, 0x00, 0x0C, 0x00, 0x00, 0x00, 0x00, 0x00, 
.................... 0x00, 0x00, 0x00, 0x00, 0x00, 0x00, 0x00, 0x00, 0x00, 0x00, 0x08, 0x00, 0x00, 0x00, 0x00, 0x00, 
.................... 0x00, 0x00, 0x00, 0x00, 0x00, 0x00, 0x00, 0x00, 0x00, 0x00, 0x00, 0x00, 0x00, 0x00, 0x00, 0x00, 
.................... 0x00, 0x00, 0x00, 0x00, 0x00, 0x00, 0x00, 0x00, 0x00, 0x00, 0x00, 0x00, 0x00, 0x00, 0x00, 0x00, 
.................... 0x00, 0x00, 0x00, 0x00, 0x00, 0x00, 0x00, 0x00, 0x00, 0x00, 0x00, 0x00, 0x00, 0x00, 0x00, 0x00, 
.................... 0x00, 0x00, 0x00, 0x00, 0x00, 0x00, 0x00, 0x00, 0x00, 0x00, 0x00, 0x00, 0x00, 0x00, 0x00, 0x00, 
.................... 0x00, 0x00, 0x00, 0x00, 0x00, 0x00, 0x00, 0x00, 0x00, 0x00, 0x00, 0x00, 0x00, 0x00, 0x00, 0x00, 
.................... 0x00, 0x00, 0x00, 0x00, 0x00, 0x00, 0x00, 0x00, 0x00, 0x00, 0x00, 0x00, 0x00, 0x00, 0x00, 0x00, 
.................... 0x00, 0x00, 0x00, 0x00, 0x00, 0x00, 0x00, 0x00, 0x00, 0x00, 0x00, 0x00, 0x00, 0x00, 0x00, 0x00 
.................... }; 
....................  
.................... const int8 CuadradoVacio [64][16] = { 
.................... 0x00, 0x00, 0x00, 0x00, 0x00, 0x00, 0x00, 0x00, 0x00, 0x00, 0x00, 0x00, 0x00, 0x00, 0x00, 0x00, 
.................... 0x00, 0x00, 0x00, 0x00, 0x00, 0x00, 0x00, 0x00, 0x00, 0x00, 0x00, 0x00, 0x00, 0x00, 0x00, 0x00, 
.................... 0x00, 0x00, 0x00, 0x00, 0x00, 0x00, 0x00, 0x00, 0x00, 0x00, 0x00, 0x00, 0x00, 0x00, 0x00, 0x00, 
.................... 0x00, 0x00, 0x00, 0x00, 0x00, 0x00, 0x00, 0x00, 0x00, 0x00, 0x00, 0x00, 0x00, 0x00, 0x00, 0x00, 
.................... 0x00, 0x00, 0x00, 0x00, 0x00, 0x00, 0x00, 0x00, 0x00, 0x00, 0x00, 0x00, 0x00, 0x00, 0x00, 0x00, 
.................... 0x00, 0x00, 0x00, 0x00, 0x00, 0x00, 0x00, 0x00, 0x00, 0x00, 0x00, 0x00, 0x00, 0x00, 0x00, 0x00, 
.................... 0x00, 0x00, 0x00, 0x00, 0x00, 0x00, 0x00, 0x00, 0x00, 0x00, 0x00, 0x00, 0x00, 0x00, 0x00, 0x00, 
.................... 0x00, 0x00, 0x00, 0x00, 0x00, 0x00, 0x00, 0x00, 0x00, 0x00, 0x00, 0x00, 0x00, 0x00, 0x00, 0x00, 
.................... 0x00, 0x00, 0x00, 0x00, 0x00, 0x00, 0x00, 0x00, 0x00, 0x00, 0x00, 0x00, 0x00, 0x00, 0x00, 0x00, 
.................... 0x00, 0x00, 0x00, 0x00, 0x00, 0x00, 0x00, 0x00, 0x00, 0x00, 0x00, 0x00, 0x00, 0x00, 0x00, 0x00, 
.................... 0x00, 0x00, 0x00, 0x00, 0x00, 0x00, 0x00, 0x00, 0x00, 0x00, 0x00, 0x00, 0x00, 0x00, 0x00, 0x00, 
.................... 0x00, 0x00, 0x00, 0x00, 0x00, 0x00, 0x00, 0x00, 0x00, 0x00, 0x00, 0x00, 0x00, 0x00, 0x00, 0x00, 
.................... 0x00, 0x00, 0x00, 0x00, 0x00, 0x00, 0x00, 0x00, 0x00, 0x00, 0x00, 0x00, 0x00, 0x00, 0x00, 0x00, 
.................... 0x00, 0x00, 0x00, 0x00, 0x00, 0x00, 0x00, 0x00, 0x00, 0x00, 0x00, 0x00, 0x00, 0x00, 0x00, 0x00, 
.................... 0x00, 0x00, 0x00, 0x00, 0x00, 0x00, 0x00, 0x00, 0x00, 0x00, 0x00, 0x00, 0x00, 0x00, 0x00, 0x00, 
.................... 0x08, 0x00, 0x00, 0x00, 0x00, 0x00, 0x00, 0x00, 0x00, 0x00, 0x00, 0x00, 0x00, 0x00, 0x00, 0x00, 
.................... 0x1C, 0x00, 0x00, 0x00, 0x00, 0x00, 0x00, 0x00, 0x00, 0x00, 0x00, 0x00, 0x00, 0x00, 0x00, 0x00, 
.................... 0x3E, 0x00, 0x00, 0x00, 0x00, 0x00, 0x00, 0x00, 0x00, 0x00, 0x00, 0x00, 0x00, 0x00, 0x00, 0x00, 
.................... 0x08, 0x00, 0x00, 0x00, 0x00, 0x00, 0x00, 0x00, 0x00, 0x00, 0x00, 0x00, 0x00, 0x00, 0x00, 0x00, 
.................... 0x08, 0x00, 0x00, 0x00, 0x00, 0x00, 0x00, 0x00, 0x00, 0x00, 0x00, 0x00, 0x00, 0x00, 0x00, 0x00, 
.................... 0x08, 0x00, 0x00, 0x00, 0x00, 0x00, 0x00, 0x00, 0x00, 0x00, 0x00, 0x00, 0x00, 0x00, 0x00, 0x00, 
.................... 0x08, 0x00, 0x00, 0x00, 0x00, 0x00, 0x00, 0x00, 0x00, 0x00, 0x00, 0x00, 0x00, 0x00, 0x00, 0x00, 
.................... 0x08, 0x00, 0x00, 0x00, 0x3F, 0xFF, 0xFF, 0xFE, 0x00, 0x00, 0x00, 0x00, 0x00, 0x00, 0x00, 0x00, 
.................... 0x08, 0x00, 0x00, 0x00, 0x20, 0x00, 0x00, 0x02, 0x00, 0x00, 0x00, 0x00, 0x00, 0x00, 0x00, 0x00, 
.................... 0x08, 0x00, 0x00, 0x00, 0x60, 0x00, 0x00, 0x02, 0x00, 0x00, 0x00, 0x00, 0x00, 0x00, 0x00, 0x00, 
.................... 0x08, 0x00, 0x00, 0x00, 0x40, 0x00, 0x00, 0x02, 0x00, 0x00, 0x00, 0x00, 0x00, 0x00, 0x00, 0x00, 
.................... 0x08, 0x00, 0x00, 0x00, 0x40, 0x00, 0x00, 0x03, 0x00, 0x00, 0x00, 0x00, 0x00, 0x00, 0x00, 0x00, 
.................... 0x08, 0x00, 0x00, 0x00, 0xC0, 0x00, 0x00, 0x01, 0x00, 0x00, 0x00, 0x00, 0x00, 0x00, 0x00, 0x00, 
.................... 0x08, 0x00, 0x00, 0x00, 0x80, 0x00, 0x00, 0x01, 0x00, 0x00, 0x00, 0x00, 0x00, 0x00, 0x00, 0x00, 
.................... 0x08, 0x00, 0x00, 0x00, 0x80, 0x00, 0x00, 0x01, 0x00, 0x00, 0x00, 0x00, 0x00, 0x00, 0x00, 0x00, 
.................... 0x08, 0x00, 0x00, 0x01, 0x80, 0x00, 0x00, 0x01, 0x80, 0x00, 0x00, 0x00, 0x00, 0x00, 0x00, 0x00, 
.................... 0x08, 0x00, 0x00, 0x01, 0x00, 0x00, 0x00, 0x00, 0x80, 0x00, 0x00, 0x00, 0x00, 0x00, 0x00, 0x00, 
.................... 0x08, 0x00, 0x00, 0x01, 0x00, 0x00, 0x00, 0x00, 0x80, 0x00, 0x00, 0x00, 0x00, 0x00, 0x00, 0x00, 
.................... 0x08, 0x00, 0x00, 0x03, 0x00, 0x00, 0x00, 0x00, 0xC0, 0x00, 0x00, 0x00, 0x00, 0x00, 0x00, 0x00, 
.................... 0x08, 0x00, 0x00, 0x02, 0x00, 0x00, 0x00, 0x00, 0x40, 0x00, 0x00, 0x00, 0x00, 0x00, 0x00, 0x00, 
.................... 0x08, 0x00, 0x00, 0x02, 0x00, 0x00, 0x00, 0x00, 0x40, 0x00, 0x00, 0x00, 0x00, 0x00, 0x00, 0x00, 
.................... 0x0F, 0x3E, 0x7C, 0xFE, 0x00, 0x00, 0x00, 0x00, 0x60, 0x00, 0x00, 0x00, 0x00, 0x00, 0x00, 0x00, 
.................... 0x0F, 0x1E, 0x3C, 0x7E, 0x00, 0x00, 0x00, 0x00, 0x30, 0x00, 0x03, 0xC0, 0x00, 0x00, 0x00, 0x00, 
.................... 0x0F, 0x5E, 0xBD, 0x7E, 0x00, 0x00, 0x00, 0x00, 0x08, 0x00, 0x06, 0x00, 0x00, 0x00, 0x00, 0x00, 
.................... 0x0F, 0x4E, 0x9D, 0x3E, 0x00, 0x00, 0x00, 0x00, 0x08, 0x00, 0x0C, 0x00, 0x00, 0x00, 0x00, 0x00, 
.................... 0x0F, 0x6E, 0xDD, 0xBE, 0x00, 0x00, 0x00, 0x00, 0x08, 0x00, 0x08, 0x00, 0x00, 0x00, 0x00, 0x00, 
.................... 0x0F, 0x6E, 0xDD, 0xBE, 0x00, 0x00, 0x00, 0x00, 0x0C, 0x00, 0x08, 0x00, 0x00, 0x00, 0x00, 0x00, 
.................... 0x0F, 0x66, 0xCD, 0x9E, 0x00, 0x00, 0x00, 0x00, 0x04, 0x00, 0x08, 0x00, 0x00, 0x00, 0x00, 0x00, 
.................... 0x0F, 0x66, 0xCD, 0x9E, 0x00, 0x00, 0x00, 0x00, 0x04, 0x00, 0x18, 0x00, 0x00, 0x00, 0x00, 0x00, 
.................... 0x0B, 0x76, 0xED, 0xDE, 0x00, 0x00, 0x00, 0x00, 0x04, 0x00, 0x10, 0x00, 0x00, 0x00, 0x00, 0x00, 
.................... 0x0D, 0x72, 0xE5, 0xCE, 0x00, 0x00, 0x00, 0x00, 0x06, 0x00, 0x30, 0x00, 0x00, 0x00, 0x00, 0x00, 
.................... 0x0D, 0x7A, 0xF5, 0xEE, 0x00, 0x00, 0x00, 0x00, 0x02, 0x00, 0x20, 0x00, 0x00, 0x00, 0x00, 0x00, 
.................... 0x0D, 0x7A, 0xF5, 0xE6, 0x00, 0x00, 0x00, 0x00, 0x02, 0x00, 0x20, 0x00, 0x00, 0x00, 0x00, 0x00, 
.................... 0x0E, 0x78, 0xF1, 0xE6, 0x00, 0x00, 0x00, 0x00, 0x03, 0x00, 0x20, 0x00, 0x00, 0x00, 0x00, 0x00, 
.................... 0x0E, 0x7C, 0xF9, 0xF6, 0x00, 0x00, 0x00, 0x00, 0x01, 0x00, 0x20, 0x00, 0x00, 0x00, 0x00, 0x00, 
.................... 0x0E, 0x7C, 0xF9, 0xF2, 0x00, 0x00, 0x00, 0x00, 0x01, 0x00, 0x60, 0x00, 0x00, 0x00, 0x00, 0x00, 
.................... 0x0F, 0x7E, 0xFD, 0xFA, 0x00, 0x00, 0x00, 0x00, 0x01, 0xFF, 0xC0, 0x00, 0x00, 0x00, 0x00, 0x00, 
.................... 0x0F, 0x7E, 0xFD, 0xFA, 0x00, 0x00, 0x00, 0x00, 0x00, 0x00, 0x08, 0x00, 0x00, 0x00, 0x00, 0x00, 
.................... 0x08, 0x00, 0x00, 0x00, 0x00, 0x00, 0x00, 0x00, 0x00, 0x00, 0x0C, 0x00, 0x00, 0x00, 0x00, 0x00, 
.................... 0x0F, 0xFF, 0xFF, 0xFF, 0xFF, 0xFF, 0xFF, 0xFF, 0xFF, 0xFF, 0xFE, 0x00, 0x00, 0x00, 0x00, 0x00, 
.................... 0x00, 0x00, 0x00, 0x00, 0x00, 0x00, 0x00, 0x00, 0x00, 0x00, 0x00, 0x00, 0x00, 0x00, 0x00, 0x00, 
.................... 0x00, 0x00, 0x00, 0x00, 0x00, 0x00, 0x00, 0x00, 0x00, 0x00, 0x00, 0x00, 0x00, 0x00, 0x00, 0x00, 
.................... 0x00, 0x00, 0x00, 0x00, 0x00, 0x00, 0x00, 0x00, 0x00, 0x00, 0x00, 0x00, 0x00, 0x00, 0x00, 0x00, 
.................... 0x00, 0x00, 0x00, 0x00, 0x00, 0x00, 0x00, 0x00, 0x00, 0x00, 0x00, 0x00, 0x00, 0x00, 0x00, 0x00, 
.................... 0x00, 0x00, 0x00, 0x00, 0x00, 0x00, 0x00, 0x00, 0x00, 0x00, 0x00, 0x00, 0x00, 0x00, 0x00, 0x00, 
.................... 0x00, 0x00, 0x00, 0x00, 0x00, 0x00, 0x00, 0x00, 0x00, 0x00, 0x00, 0x00, 0x00, 0x00, 0x00, 0x00, 
.................... 0x00, 0x00, 0x00, 0x00, 0x00, 0x00, 0x00, 0x00, 0x00, 0x00, 0x00, 0x00, 0x00, 0x00, 0x00, 0x00, 
.................... 0x00, 0x00, 0x00, 0x00, 0x00, 0x00, 0x00, 0x00, 0x00, 0x00, 0x00, 0x00, 0x00, 0x00, 0x00, 0x00, 
.................... 0x00, 0x00, 0x00, 0x00, 0x00, 0x00, 0x00, 0x00, 0x00, 0x00, 0x00, 0x00, 0x00, 0x00, 0x00, 0x00 
.................... }; 
....................  
.................... const int8 CuadradoCalentando [64][16] = { 
.................... 0x00, 0x00, 0x00, 0x00, 0x00, 0x00, 0x00, 0x00, 0x00, 0x00, 0x00, 0x00, 0x00, 0x00, 0x00, 0x00, 
.................... 0x00, 0x00, 0x00, 0x00, 0x00, 0x00, 0x00, 0x00, 0x00, 0x00, 0x00, 0x00, 0x00, 0x00, 0x00, 0x00, 
.................... 0x00, 0x00, 0x00, 0x00, 0x00, 0x00, 0x00, 0x00, 0x00, 0x00, 0x00, 0x00, 0x00, 0x00, 0x00, 0x00, 
.................... 0x00, 0x00, 0x00, 0x00, 0x00, 0x00, 0x00, 0x00, 0x00, 0x00, 0x00, 0x00, 0x00, 0x00, 0x00, 0x00, 
.................... 0x00, 0x00, 0x00, 0x00, 0x00, 0x00, 0x00, 0x00, 0x00, 0x00, 0x00, 0x00, 0x00, 0x00, 0x00, 0x00, 
.................... 0x00, 0x00, 0x00, 0x00, 0x00, 0x00, 0x00, 0x00, 0x00, 0x00, 0x00, 0x00, 0x00, 0x00, 0x00, 0x00, 
.................... 0x00, 0x00, 0x00, 0x00, 0x00, 0x00, 0x00, 0x00, 0x00, 0x00, 0x00, 0x00, 0x00, 0x00, 0x00, 0x00, 
.................... 0x00, 0x00, 0x00, 0x00, 0x00, 0x00, 0x00, 0x00, 0x00, 0x00, 0x00, 0x00, 0x00, 0x00, 0x00, 0x00, 
.................... 0x00, 0x00, 0x00, 0x00, 0x00, 0x00, 0x00, 0x00, 0x00, 0x00, 0x00, 0x00, 0x00, 0x00, 0x00, 0x00, 
.................... 0x00, 0x00, 0x00, 0x00, 0x00, 0x00, 0x00, 0x00, 0x00, 0x00, 0x00, 0x00, 0x00, 0x00, 0x00, 0x00, 
.................... 0x00, 0x00, 0x00, 0x00, 0x00, 0x00, 0x00, 0x00, 0x00, 0x00, 0x00, 0x00, 0x00, 0x00, 0x00, 0x00, 
.................... 0x00, 0x00, 0x00, 0x00, 0x00, 0x00, 0x00, 0x00, 0x00, 0x00, 0x00, 0x00, 0x00, 0x00, 0x00, 0x00, 
.................... 0x00, 0x00, 0x00, 0x00, 0x00, 0x00, 0x00, 0x00, 0x00, 0x00, 0x00, 0x00, 0x00, 0x00, 0x00, 0x00, 
.................... 0x00, 0x00, 0x00, 0x00, 0x00, 0x00, 0x00, 0x00, 0x00, 0x00, 0x00, 0x00, 0x00, 0x00, 0x00, 0x00, 
.................... 0x00, 0x00, 0x00, 0x00, 0x00, 0x00, 0x00, 0x00, 0x00, 0x00, 0x00, 0x00, 0x00, 0x00, 0x00, 0x00, 
.................... 0x08, 0x00, 0x00, 0x00, 0x00, 0x00, 0x00, 0x00, 0x00, 0x00, 0x00, 0x00, 0x00, 0x00, 0x00, 0x00, 
.................... 0x1C, 0x00, 0x00, 0x00, 0x00, 0x00, 0x00, 0x00, 0x00, 0x00, 0x00, 0x00, 0x00, 0x00, 0x00, 0x00, 
.................... 0x3E, 0x00, 0x00, 0x00, 0x00, 0x00, 0x00, 0x00, 0x00, 0x00, 0x00, 0x00, 0x00, 0x00, 0x00, 0x00, 
.................... 0x08, 0x00, 0x00, 0x00, 0x00, 0x00, 0x00, 0x00, 0x00, 0x00, 0x00, 0x00, 0x00, 0x00, 0x00, 0x00, 
.................... 0x08, 0x00, 0x00, 0x00, 0x00, 0x00, 0x00, 0x00, 0x00, 0x00, 0x00, 0x00, 0x00, 0x00, 0x00, 0x00, 
.................... 0x08, 0x00, 0x00, 0x00, 0x00, 0x00, 0x00, 0x00, 0x00, 0x00, 0x00, 0x00, 0x00, 0x00, 0x00, 0x00, 
.................... 0x08, 0x00, 0x00, 0x00, 0x00, 0x00, 0x00, 0x00, 0x00, 0x00, 0x00, 0x00, 0x00, 0x00, 0x00, 0x00, 
.................... 0x08, 0x00, 0x00, 0x07, 0xCF, 0xFF, 0xFF, 0xFE, 0x00, 0x00, 0x00, 0x00, 0x00, 0x00, 0x00, 0x00, 
.................... 0x08, 0x00, 0x00, 0x07, 0xD0, 0x00, 0x00, 0x02, 0x00, 0x00, 0x00, 0x00, 0x00, 0x00, 0x00, 0x00, 
.................... 0x08, 0x00, 0x00, 0x07, 0x90, 0x00, 0x00, 0x02, 0x00, 0x00, 0x00, 0x00, 0x00, 0x00, 0x00, 0x00, 
.................... 0x08, 0x00, 0x00, 0x07, 0xB0, 0x00, 0x00, 0x02, 0x00, 0x00, 0x00, 0x00, 0x00, 0x00, 0x00, 0x00, 
.................... 0x08, 0x00, 0x00, 0x07, 0xB0, 0x00, 0x00, 0x03, 0x00, 0x00, 0x00, 0x00, 0x00, 0x00, 0x00, 0x00, 
.................... 0x08, 0x00, 0x00, 0x07, 0x30, 0x00, 0x00, 0x01, 0x00, 0x00, 0x00, 0x00, 0x00, 0x00, 0x00, 0x00, 
.................... 0x08, 0x00, 0x00, 0x07, 0x70, 0x00, 0x00, 0x01, 0x00, 0x00, 0x00, 0x00, 0x00, 0x00, 0x00, 0x00, 
.................... 0x08, 0x00, 0x00, 0x07, 0x70, 0x00, 0x00, 0x01, 0x00, 0x00, 0x00, 0x00, 0x00, 0x00, 0x00, 0x00, 
.................... 0x08, 0x00, 0x00, 0x06, 0x70, 0x00, 0x00, 0x01, 0x80, 0x00, 0x00, 0x00, 0x00, 0x00, 0x00, 0x00, 
.................... 0x08, 0x00, 0x00, 0x06, 0xF0, 0x00, 0x00, 0x00, 0x80, 0x00, 0x00, 0x00, 0x00, 0x00, 0x00, 0x00, 
.................... 0x08, 0x00, 0x00, 0x06, 0xF0, 0x00, 0x00, 0x00, 0x80, 0x00, 0x00, 0x00, 0x00, 0x00, 0x00, 0x00, 
.................... 0x08, 0x00, 0x00, 0x04, 0xF0, 0x00, 0x00, 0x00, 0xC0, 0x00, 0x00, 0x00, 0x00, 0x00, 0x00, 0x00, 
.................... 0x08, 0x00, 0x00, 0x05, 0xF0, 0x00, 0x00, 0x00, 0x40, 0x00, 0x00, 0x00, 0x00, 0x00, 0x00, 0x00, 
.................... 0x08, 0x00, 0x00, 0x02, 0x00, 0x00, 0x00, 0x00, 0x40, 0x00, 0x00, 0x00, 0x00, 0x00, 0x00, 0x00, 
.................... 0x08, 0xC1, 0x83, 0x02, 0x00, 0x00, 0x00, 0x00, 0x60, 0x00, 0x00, 0x00, 0x00, 0x00, 0x00, 0x00, 
.................... 0x08, 0xE1, 0xC3, 0x82, 0x00, 0x00, 0x00, 0x00, 0x30, 0x00, 0x03, 0xC0, 0x00, 0x00, 0x00, 0x00, 
.................... 0x08, 0xA1, 0x42, 0x82, 0x00, 0x00, 0x00, 0x00, 0x08, 0x00, 0x06, 0x00, 0x00, 0x00, 0x00, 0x00, 
.................... 0x08, 0xB1, 0x62, 0xC2, 0x00, 0x00, 0x00, 0x00, 0x08, 0x00, 0x0C, 0x00, 0x00, 0x00, 0x00, 0x00, 
.................... 0x08, 0x91, 0x22, 0x42, 0x00, 0x00, 0x00, 0x00, 0x08, 0x00, 0x08, 0x00, 0x00, 0x00, 0x00, 0x00, 
.................... 0x08, 0x91, 0x22, 0x42, 0x00, 0x00, 0x00, 0x00, 0x0C, 0x00, 0x08, 0x00, 0x00, 0x00, 0x00, 0x00, 
.................... 0x08, 0x99, 0x32, 0x62, 0x00, 0x00, 0x00, 0x00, 0x04, 0x00, 0x08, 0x00, 0x00, 0x00, 0x00, 0x00, 
.................... 0x08, 0x99, 0x32, 0x62, 0x00, 0x00, 0x00, 0x00, 0x04, 0x00, 0x18, 0x00, 0x00, 0x00, 0x00, 0x00, 
.................... 0x0C, 0x89, 0x12, 0x22, 0x00, 0x00, 0x00, 0x00, 0x04, 0x00, 0x10, 0x00, 0x00, 0x00, 0x00, 0x00, 
.................... 0x0A, 0x8D, 0x1A, 0x32, 0x00, 0x00, 0x00, 0x00, 0x06, 0x00, 0x30, 0x00, 0x00, 0x00, 0x00, 0x00, 
.................... 0x0A, 0x85, 0x0A, 0x12, 0x00, 0x00, 0x00, 0x00, 0x02, 0x00, 0x20, 0x00, 0x00, 0x00, 0x00, 0x00, 
.................... 0x0A, 0x85, 0x0A, 0x1A, 0x00, 0x00, 0x00, 0x00, 0x02, 0x00, 0x20, 0x00, 0x00, 0x00, 0x00, 0x00, 
.................... 0x09, 0x87, 0x0E, 0x1A, 0x00, 0x00, 0x00, 0x00, 0x03, 0x00, 0x20, 0x00, 0x00, 0x00, 0x00, 0x00, 
.................... 0x09, 0x83, 0x06, 0x0A, 0x00, 0x00, 0x00, 0x00, 0x01, 0x00, 0x20, 0x00, 0x00, 0x00, 0x00, 0x00, 
.................... 0x09, 0x83, 0x06, 0x0E, 0x00, 0x00, 0x00, 0x00, 0x01, 0x00, 0x60, 0x00, 0x00, 0x00, 0x00, 0x00, 
.................... 0x08, 0x81, 0x02, 0x06, 0x00, 0x00, 0x00, 0x00, 0x01, 0xFF, 0xC0, 0x00, 0x00, 0x00, 0x00, 0x00, 
.................... 0x08, 0x81, 0x02, 0x06, 0x00, 0x00, 0x00, 0x00, 0x00, 0x00, 0x08, 0x00, 0x00, 0x00, 0x00, 0x00, 
.................... 0x08, 0x00, 0x00, 0x00, 0x00, 0x00, 0x00, 0x00, 0x00, 0x00, 0x0C, 0x00, 0x00, 0x00, 0x00, 0x00, 
.................... 0x0F, 0xFF, 0xFF, 0xFF, 0xFF, 0xFF, 0xFF, 0xFF, 0xFF, 0xFF, 0xFE, 0x00, 0x00, 0x00, 0x00, 0x00, 
.................... 0x00, 0x00, 0x00, 0x00, 0x00, 0x00, 0x00, 0x00, 0x00, 0x00, 0x00, 0x00, 0x00, 0x00, 0x00, 0x00, 
.................... 0x00, 0x00, 0x00, 0x00, 0x00, 0x00, 0x00, 0x00, 0x00, 0x00, 0x00, 0x00, 0x00, 0x00, 0x00, 0x00, 
.................... 0x00, 0x00, 0x00, 0x00, 0x00, 0x00, 0x00, 0x00, 0x00, 0x00, 0x00, 0x00, 0x00, 0x00, 0x00, 0x00, 
.................... 0x00, 0x00, 0x00, 0x00, 0x00, 0x00, 0x00, 0x00, 0x00, 0x00, 0x00, 0x00, 0x00, 0x00, 0x00, 0x00, 
.................... 0x00, 0x00, 0x00, 0x00, 0x00, 0x00, 0x00, 0x00, 0x00, 0x00, 0x00, 0x00, 0x00, 0x00, 0x00, 0x00, 
.................... 0x00, 0x00, 0x00, 0x00, 0x00, 0x00, 0x00, 0x00, 0x00, 0x00, 0x00, 0x00, 0x00, 0x00, 0x00, 0x00, 
.................... 0x00, 0x00, 0x00, 0x00, 0x00, 0x00, 0x00, 0x00, 0x00, 0x00, 0x00, 0x00, 0x00, 0x00, 0x00, 0x00, 
.................... 0x00, 0x00, 0x00, 0x00, 0x00, 0x00, 0x00, 0x00, 0x00, 0x00, 0x00, 0x00, 0x00, 0x00, 0x00, 0x00, 
.................... 0x00, 0x00, 0x00, 0x00, 0x00, 0x00, 0x00, 0x00, 0x00, 0x00, 0x00, 0x00, 0x00, 0x00, 0x00, 0x00 
.................... }; 
....................  
....................  
.................... #include "imagen2.h" 
.................... const int8 CuadradoEsterilizando [64][16] = { 
.................... 0x00, 0x00, 0x00, 0x00, 0x00, 0x00, 0x00, 0x00, 0x00, 0x00, 0x00, 0x00, 0x00, 0x00, 0x00, 0x00, 
.................... 0x00, 0x00, 0x00, 0x00, 0x00, 0x00, 0x00, 0x00, 0x00, 0x00, 0x00, 0x00, 0x00, 0x00, 0x00, 0x00, 
.................... 0x00, 0x00, 0x00, 0x00, 0x00, 0x00, 0x00, 0x00, 0x00, 0x00, 0x00, 0x00, 0x00, 0x00, 0x00, 0x00, 
.................... 0x00, 0x00, 0x00, 0x00, 0x00, 0x00, 0x00, 0x00, 0x00, 0x00, 0x00, 0x00, 0x00, 0x00, 0x00, 0x00, 
.................... 0x00, 0x00, 0x00, 0x00, 0x00, 0x00, 0x00, 0x00, 0x00, 0x00, 0x00, 0x00, 0x00, 0x00, 0x00, 0x00, 
.................... 0x00, 0x00, 0x00, 0x00, 0x00, 0x00, 0x00, 0x00, 0x00, 0x00, 0x00, 0x00, 0x00, 0x00, 0x00, 0x00, 
.................... 0x00, 0x00, 0x00, 0x00, 0x00, 0x00, 0x00, 0x00, 0x00, 0x00, 0x00, 0x00, 0x00, 0x00, 0x00, 0x00, 
.................... 0x00, 0x00, 0x00, 0x00, 0x00, 0x00, 0x00, 0x00, 0x00, 0x00, 0x00, 0x00, 0x00, 0x00, 0x00, 0x00, 
.................... 0x00, 0x00, 0x00, 0x00, 0x00, 0x00, 0x00, 0x00, 0x00, 0x00, 0x00, 0x00, 0x00, 0x00, 0x00, 0x00, 
.................... 0x00, 0x00, 0x00, 0x00, 0x00, 0x00, 0x00, 0x00, 0x00, 0x00, 0x00, 0x00, 0x00, 0x00, 0x00, 0x00, 
.................... 0x00, 0x00, 0x00, 0x00, 0x00, 0x00, 0x00, 0x00, 0x00, 0x00, 0x00, 0x00, 0x00, 0x00, 0x00, 0x00, 
.................... 0x00, 0x00, 0x00, 0x00, 0x00, 0x00, 0x00, 0x00, 0x00, 0x00, 0x00, 0x00, 0x00, 0x00, 0x00, 0x00, 
.................... 0x00, 0x00, 0x00, 0x00, 0x00, 0x00, 0x00, 0x00, 0x00, 0x00, 0x00, 0x00, 0x00, 0x00, 0x00, 0x00, 
.................... 0x00, 0x00, 0x00, 0x00, 0x00, 0x00, 0x00, 0x00, 0x00, 0x00, 0x00, 0x00, 0x00, 0x00, 0x00, 0x00, 
.................... 0x00, 0x00, 0x00, 0x00, 0x00, 0x00, 0x00, 0x00, 0x00, 0x00, 0x00, 0x00, 0x00, 0x00, 0x00, 0x00, 
.................... 0x08, 0x00, 0x00, 0x00, 0x00, 0x00, 0x00, 0x00, 0x00, 0x00, 0x00, 0x00, 0x00, 0x00, 0x00, 0x00, 
.................... 0x1C, 0x00, 0x00, 0x00, 0x00, 0x00, 0x00, 0x00, 0x00, 0x00, 0x00, 0x00, 0x00, 0x00, 0x00, 0x00, 
.................... 0x3E, 0x00, 0x00, 0x00, 0x00, 0x00, 0x00, 0x00, 0x00, 0x00, 0x00, 0x00, 0x00, 0x00, 0x00, 0x00, 
.................... 0x08, 0x00, 0x00, 0x00, 0x00, 0x00, 0x00, 0x00, 0x00, 0x00, 0x00, 0x00, 0x00, 0x00, 0x00, 0x00, 
.................... 0x08, 0x00, 0x00, 0x00, 0xFF, 0xFF, 0xFF, 0xFF, 0x80, 0x00, 0x00, 0x00, 0x00, 0x00, 0x00, 0x00, 
.................... 0x08, 0x00, 0x00, 0x00, 0xFF, 0xFF, 0xFF, 0xFF, 0x80, 0x00, 0x00, 0x00, 0x00, 0x00, 0x00, 0x00, 
.................... 0x08, 0x00, 0x00, 0x00, 0xC0, 0x00, 0x00, 0x01, 0x80, 0x00, 0x00, 0x00, 0x00, 0x00, 0x00, 0x00, 
.................... 0x08, 0x00, 0x00, 0x00, 0xDF, 0xFF, 0xFF, 0xFD, 0x80, 0x00, 0x00, 0x00, 0x00, 0x00, 0x00, 0x00, 
.................... 0x08, 0x00, 0x00, 0x00, 0x9F, 0xFF, 0xFF, 0xFD, 0x80, 0x00, 0x00, 0x00, 0x00, 0x00, 0x00, 0x00, 
.................... 0x08, 0x00, 0x00, 0x00, 0x60, 0x00, 0x00, 0x02, 0x00, 0x00, 0x00, 0x00, 0x00, 0x00, 0x00, 0x00, 
.................... 0x08, 0x00, 0x00, 0x00, 0x40, 0x00, 0x00, 0x02, 0x00, 0x00, 0x00, 0x00, 0x00, 0x00, 0x00, 0x00, 
.................... 0x08, 0x00, 0x00, 0x00, 0x40, 0x00, 0x00, 0x03, 0x00, 0x00, 0x00, 0x00, 0x00, 0x00, 0x00, 0x00, 
.................... 0x08, 0x00, 0x00, 0x00, 0xC0, 0x00, 0x00, 0x01, 0x00, 0x00, 0x00, 0x00, 0x00, 0x00, 0x00, 0x00, 
.................... 0x08, 0x00, 0x00, 0x00, 0x80, 0x00, 0x00, 0x01, 0x00, 0x00, 0x00, 0x00, 0x00, 0x00, 0x00, 0x00, 
.................... 0x08, 0x00, 0x00, 0x00, 0x80, 0x00, 0x00, 0x01, 0x00, 0x00, 0x00, 0x00, 0x00, 0x00, 0x00, 0x00, 
.................... 0x08, 0x00, 0x00, 0x01, 0x80, 0x00, 0x00, 0x01, 0x80, 0x00, 0x00, 0x00, 0x00, 0x00, 0x00, 0x00, 
.................... 0x08, 0x00, 0x00, 0x01, 0x00, 0x00, 0x00, 0x00, 0x80, 0x00, 0x00, 0x00, 0x00, 0x00, 0x00, 0x00, 
.................... 0x08, 0x00, 0x00, 0x01, 0x00, 0x00, 0x00, 0x00, 0x80, 0x00, 0x00, 0x00, 0x00, 0x00, 0x00, 0x00, 
.................... 0x08, 0x00, 0x00, 0x03, 0x00, 0x00, 0x00, 0x00, 0xC0, 0x00, 0x00, 0x00, 0x00, 0x00, 0x00, 0x00, 
.................... 0x08, 0x00, 0x00, 0x02, 0x00, 0x00, 0x00, 0x00, 0x40, 0x00, 0x00, 0x00, 0x00, 0x00, 0x00, 0x00, 
.................... 0x08, 0x00, 0x00, 0x02, 0x00, 0x00, 0x00, 0x00, 0x40, 0x00, 0x00, 0x00, 0x00, 0x00, 0x00, 0x00, 
.................... 0x08, 0xC1, 0x83, 0x02, 0x00, 0x00, 0x00, 0x00, 0x60, 0x00, 0x00, 0x00, 0x00, 0x00, 0x00, 0x00, 
.................... 0x08, 0xE1, 0xC3, 0x82, 0x00, 0x00, 0x00, 0x00, 0x30, 0x00, 0x03, 0xC0, 0x00, 0x00, 0x00, 0x00, 
.................... 0x08, 0xA1, 0x42, 0x82, 0x00, 0x00, 0x00, 0x00, 0x08, 0x00, 0x06, 0x00, 0x00, 0x00, 0x00, 0x00, 
.................... 0x08, 0xB1, 0x62, 0xC2, 0x00, 0x00, 0x00, 0x00, 0x08, 0x00, 0x0C, 0x00, 0x00, 0x00, 0x00, 0x00, 
.................... 0x08, 0x91, 0x22, 0x42, 0x00, 0x00, 0x00, 0x00, 0x08, 0x00, 0x08, 0x00, 0x00, 0x00, 0x00, 0x00, 
.................... 0x08, 0x91, 0x22, 0x42, 0x00, 0x00, 0x00, 0x00, 0x0C, 0x00, 0x08, 0x00, 0x00, 0x00, 0x00, 0x00, 
.................... 0x08, 0x99, 0x32, 0x62, 0x00, 0x00, 0x00, 0x00, 0x04, 0x00, 0x08, 0x00, 0x00, 0x00, 0x00, 0x00, 
.................... 0x08, 0x99, 0x32, 0x62, 0x00, 0x00, 0x00, 0x00, 0x04, 0x00, 0x18, 0x00, 0x00, 0x00, 0x00, 0x00, 
.................... 0x0C, 0x89, 0x12, 0x22, 0x00, 0x00, 0x00, 0x00, 0x04, 0x00, 0x10, 0x00, 0x00, 0x00, 0x00, 0x00, 
.................... 0x0A, 0x8D, 0x1A, 0x32, 0x00, 0x00, 0x00, 0x00, 0x06, 0x00, 0x30, 0x00, 0x00, 0x00, 0x00, 0x00, 
.................... 0x0A, 0x85, 0x0A, 0x12, 0x00, 0x00, 0x00, 0x00, 0x02, 0x00, 0x20, 0x00, 0x00, 0x00, 0x00, 0x00, 
.................... 0x0A, 0x85, 0x0A, 0x1A, 0x00, 0x00, 0x00, 0x00, 0x02, 0x00, 0x20, 0x00, 0x00, 0x00, 0x00, 0x00, 
.................... 0x09, 0x87, 0x0E, 0x1A, 0x00, 0x00, 0x00, 0x00, 0x03, 0x00, 0x20, 0x00, 0x00, 0x00, 0x00, 0x00, 
.................... 0x09, 0x83, 0x06, 0x0A, 0x00, 0x00, 0x00, 0x00, 0x01, 0x00, 0x20, 0x00, 0x00, 0x00, 0x00, 0x00, 
.................... 0x09, 0x83, 0x06, 0x0E, 0x00, 0x00, 0x00, 0x00, 0x01, 0x00, 0x60, 0x00, 0x00, 0x00, 0x00, 0x00, 
.................... 0x08, 0x81, 0x02, 0x06, 0x00, 0x00, 0x00, 0x00, 0x01, 0xFF, 0xC0, 0x00, 0x00, 0x00, 0x00, 0x00, 
.................... 0x08, 0x81, 0x02, 0x06, 0x00, 0x00, 0x00, 0x00, 0x00, 0x00, 0x08, 0x00, 0x00, 0x00, 0x00, 0x00, 
.................... 0x08, 0x00, 0x00, 0x00, 0x00, 0x00, 0x00, 0x00, 0x00, 0x00, 0x0C, 0x00, 0x00, 0x00, 0x00, 0x00, 
.................... 0x0F, 0xFF, 0xFF, 0xFF, 0xFF, 0xFF, 0xFF, 0xFF, 0xFF, 0xFF, 0xFE, 0x00, 0x00, 0x00, 0x00, 0x00, 
.................... 0x00, 0x00, 0x00, 0x00, 0x00, 0x00, 0x00, 0x00, 0x00, 0x00, 0x00, 0x00, 0x00, 0x00, 0x00, 0x00, 
.................... 0x00, 0x00, 0x00, 0x00, 0x00, 0x00, 0x00, 0x00, 0x00, 0x00, 0x00, 0x00, 0x00, 0x00, 0x00, 0x00, 
.................... 0x00, 0x00, 0x00, 0x00, 0x00, 0x00, 0x00, 0x00, 0x00, 0x00, 0x00, 0x00, 0x00, 0x00, 0x00, 0x00, 
.................... 0x00, 0x00, 0x00, 0x00, 0x00, 0x00, 0x00, 0x00, 0x00, 0x00, 0x00, 0x00, 0x00, 0x00, 0x00, 0x00, 
.................... 0x00, 0x00, 0x00, 0x00, 0x00, 0x00, 0x00, 0x00, 0x00, 0x00, 0x00, 0x00, 0x00, 0x00, 0x00, 0x00, 
.................... 0x00, 0x00, 0x00, 0x00, 0x00, 0x00, 0x00, 0x00, 0x00, 0x00, 0x00, 0x00, 0x00, 0x00, 0x00, 0x00, 
.................... 0x00, 0x00, 0x00, 0x00, 0x00, 0x00, 0x00, 0x00, 0x00, 0x00, 0x00, 0x00, 0x00, 0x00, 0x00, 0x00, 
.................... 0x00, 0x00, 0x00, 0x00, 0x00, 0x00, 0x00, 0x00, 0x00, 0x00, 0x00, 0x00, 0x00, 0x00, 0x00, 0x00, 
.................... 0x00, 0x00, 0x00, 0x00, 0x00, 0x00, 0x00, 0x00, 0x00, 0x00, 0x00, 0x00, 0x00, 0x00, 0x00, 0x00 
.................... }; 
....................  
.................... const int8 CuadradoDesfogando [64][16] = { 
.................... 0x00, 0x00, 0x00, 0x00, 0x00, 0x00, 0x00, 0x00, 0x00, 0x00, 0x00, 0x00, 0x00, 0x00, 0x00, 0x00, 
.................... 0x00, 0x00, 0x00, 0x00, 0x00, 0x00, 0x00, 0x00, 0x00, 0x00, 0x00, 0x00, 0x00, 0x00, 0x00, 0x00, 
.................... 0x00, 0x00, 0x00, 0x00, 0x00, 0x00, 0x00, 0x00, 0x00, 0x00, 0x00, 0x00, 0x00, 0x00, 0x00, 0x00, 
.................... 0x00, 0x00, 0x00, 0x00, 0x00, 0x00, 0x00, 0x00, 0x00, 0x00, 0x00, 0x00, 0x00, 0x00, 0x00, 0x00, 
.................... 0x00, 0x00, 0x00, 0x00, 0x00, 0x00, 0x00, 0x00, 0x00, 0x00, 0x00, 0x00, 0x00, 0x00, 0x00, 0x00, 
.................... 0x00, 0x00, 0x00, 0x00, 0x00, 0x00, 0x00, 0x00, 0x00, 0x00, 0x00, 0x00, 0x00, 0x00, 0x00, 0x00, 
.................... 0x00, 0x00, 0x00, 0x00, 0x00, 0x00, 0x00, 0x00, 0x00, 0x00, 0x00, 0x00, 0x00, 0x00, 0x00, 0x00, 
.................... 0x00, 0x00, 0x00, 0x00, 0x00, 0x00, 0x00, 0x00, 0x00, 0x00, 0x00, 0x00, 0x00, 0x00, 0x00, 0x00, 
.................... 0x00, 0x00, 0x00, 0x00, 0x00, 0x00, 0x00, 0x00, 0x00, 0x00, 0x00, 0x00, 0x00, 0x00, 0x00, 0x00, 
.................... 0x00, 0x00, 0x00, 0x00, 0x00, 0x00, 0x00, 0x00, 0x00, 0x00, 0x00, 0x00, 0x00, 0x00, 0x00, 0x00, 
.................... 0x00, 0x00, 0x00, 0x00, 0x00, 0x00, 0x00, 0x00, 0x00, 0x00, 0x00, 0x00, 0x00, 0x00, 0x00, 0x00, 
.................... 0x00, 0x00, 0x00, 0x00, 0x00, 0x00, 0x00, 0x00, 0x00, 0x00, 0x00, 0x00, 0x00, 0x00, 0x00, 0x00, 
.................... 0x00, 0x00, 0x00, 0x00, 0x00, 0x00, 0x00, 0x00, 0x00, 0x00, 0x00, 0x00, 0x00, 0x00, 0x00, 0x00, 
.................... 0x00, 0x00, 0x00, 0x00, 0x00, 0x00, 0x00, 0x00, 0x00, 0x00, 0x00, 0x00, 0x00, 0x00, 0x00, 0x00, 
.................... 0x00, 0x00, 0x00, 0x00, 0x00, 0x00, 0x00, 0x00, 0x00, 0x00, 0x00, 0x00, 0x00, 0x00, 0x00, 0x00, 
.................... 0x08, 0x00, 0x00, 0x00, 0x00, 0x00, 0x00, 0x00, 0x00, 0x00, 0x00, 0x00, 0x00, 0x00, 0x00, 0x00, 
.................... 0x1C, 0x00, 0x00, 0x00, 0x00, 0x00, 0x00, 0x00, 0x00, 0x00, 0x00, 0x00, 0x00, 0x00, 0x00, 0x00, 
.................... 0x3E, 0x00, 0x00, 0x00, 0x00, 0x00, 0x00, 0x00, 0x00, 0x00, 0x00, 0x00, 0x00, 0x00, 0x00, 0x00, 
.................... 0x08, 0x00, 0x00, 0x00, 0x00, 0x00, 0x00, 0x00, 0x00, 0x00, 0x00, 0x00, 0x00, 0x00, 0x00, 0x00, 
.................... 0x08, 0x00, 0x00, 0x00, 0x00, 0x00, 0x00, 0x00, 0x00, 0x00, 0x00, 0x00, 0x00, 0x00, 0x00, 0x00, 
.................... 0x08, 0x00, 0x00, 0x00, 0x00, 0x00, 0x00, 0x0F, 0xF0, 0x00, 0x00, 0x00, 0x00, 0x00, 0x00, 0x00, 
.................... 0x08, 0x00, 0x00, 0x00, 0x00, 0x00, 0x00, 0x0F, 0xF0, 0x00, 0x00, 0x00, 0x00, 0x00, 0x00, 0x00, 
.................... 0x08, 0x00, 0x00, 0x00, 0x3F, 0xFF, 0xFF, 0xF1, 0xF0, 0x00, 0x00, 0x00, 0x00, 0x00, 0x00, 0x00, 
.................... 0x08, 0x00, 0x00, 0x00, 0x20, 0x00, 0x00, 0x0D, 0xF0, 0x00, 0x00, 0x00, 0x00, 0x00, 0x00, 0x00, 
.................... 0x08, 0x00, 0x00, 0x00, 0x60, 0x00, 0x00, 0x0D, 0xF0, 0x00, 0x00, 0x00, 0x00, 0x00, 0x00, 0x00, 
.................... 0x08, 0x00, 0x00, 0x00, 0x40, 0x00, 0x00, 0x0D, 0xF0, 0x00, 0x00, 0x00, 0x00, 0x00, 0x00, 0x00, 
.................... 0x08, 0x00, 0x00, 0x00, 0x40, 0x00, 0x00, 0x0C, 0xF0, 0x00, 0x00, 0x00, 0x00, 0x00, 0x00, 0x00, 
.................... 0x08, 0x00, 0x00, 0x00, 0xC0, 0x00, 0x00, 0x0E, 0xF0, 0x00, 0x00, 0x00, 0x00, 0x00, 0x00, 0x00, 
.................... 0x08, 0x00, 0x00, 0x00, 0x80, 0x00, 0x00, 0x0E, 0xF0, 0x00, 0x00, 0x00, 0x00, 0x00, 0x00, 0x00, 
.................... 0x08, 0x00, 0x00, 0x00, 0x80, 0x00, 0x00, 0x0E, 0xF0, 0x00, 0x00, 0x00, 0x00, 0x00, 0x00, 0x00, 
.................... 0x08, 0x00, 0x00, 0x01, 0x80, 0x00, 0x00, 0x0E, 0x70, 0x00, 0x00, 0x00, 0x00, 0x00, 0x00, 0x00, 
.................... 0x08, 0x00, 0x00, 0x01, 0x00, 0x00, 0x00, 0x0F, 0x70, 0x00, 0x00, 0x00, 0x00, 0x00, 0x00, 0x00, 
.................... 0x08, 0x00, 0x00, 0x01, 0x00, 0x00, 0x00, 0x0F, 0x70, 0x00, 0x00, 0x00, 0x00, 0x00, 0x00, 0x00, 
.................... 0x08, 0x00, 0x00, 0x03, 0x00, 0x00, 0x00, 0x0F, 0x30, 0x00, 0x00, 0x00, 0x00, 0x00, 0x00, 0x00, 
.................... 0x08, 0x00, 0x00, 0x02, 0x00, 0x00, 0x00, 0x0F, 0xB0, 0x00, 0x00, 0x00, 0x00, 0x00, 0x00, 0x00, 
.................... 0x08, 0x00, 0x00, 0x02, 0x00, 0x00, 0x00, 0x0F, 0xB0, 0x00, 0x00, 0x00, 0x00, 0x00, 0x00, 0x00, 
.................... 0x08, 0xC1, 0x83, 0x02, 0x00, 0x00, 0x00, 0x0F, 0x90, 0x00, 0x00, 0x00, 0x00, 0x00, 0x00, 0x00, 
.................... 0x08, 0xE1, 0xC3, 0x82, 0x00, 0x00, 0x00, 0x00, 0x30, 0x00, 0x03, 0xC0, 0x00, 0x00, 0x00, 0x00, 
.................... 0x08, 0xA1, 0x42, 0x82, 0x00, 0x00, 0x00, 0x00, 0x08, 0x00, 0x06, 0x00, 0x00, 0x00, 0x00, 0x00, 
.................... 0x08, 0xB1, 0x62, 0xC2, 0x00, 0x00, 0x00, 0x00, 0x08, 0x00, 0x0C, 0x00, 0x00, 0x00, 0x00, 0x00, 
.................... 0x08, 0x91, 0x22, 0x42, 0x00, 0x00, 0x00, 0x00, 0x08, 0x00, 0x08, 0x00, 0x00, 0x00, 0x00, 0x00, 
.................... 0x08, 0x91, 0x22, 0x42, 0x00, 0x00, 0x00, 0x00, 0x0C, 0x00, 0x08, 0x00, 0x00, 0x00, 0x00, 0x00, 
.................... 0x08, 0x99, 0x32, 0x62, 0x00, 0x00, 0x00, 0x00, 0x04, 0x00, 0x08, 0x00, 0x00, 0x00, 0x00, 0x00, 
.................... 0x08, 0x99, 0x32, 0x62, 0x00, 0x00, 0x00, 0x00, 0x04, 0x00, 0x18, 0x00, 0x00, 0x00, 0x00, 0x00, 
.................... 0x0C, 0x89, 0x12, 0x22, 0x00, 0x00, 0x00, 0x00, 0x04, 0x00, 0x10, 0x00, 0x00, 0x00, 0x00, 0x00, 
.................... 0x0A, 0x8D, 0x1A, 0x32, 0x00, 0x00, 0x00, 0x00, 0x06, 0x00, 0x30, 0x00, 0x00, 0x00, 0x00, 0x00, 
.................... 0x0A, 0x85, 0x0A, 0x12, 0x00, 0x00, 0x00, 0x00, 0x02, 0x00, 0x20, 0x00, 0x00, 0x00, 0x00, 0x00, 
.................... 0x0A, 0x85, 0x0A, 0x1A, 0x00, 0x00, 0x00, 0x00, 0x02, 0x00, 0x20, 0x00, 0x00, 0x00, 0x00, 0x00, 
.................... 0x09, 0x87, 0x0E, 0x1A, 0x00, 0x00, 0x00, 0x00, 0x03, 0x00, 0x20, 0x00, 0x00, 0x00, 0x00, 0x00, 
.................... 0x09, 0x83, 0x06, 0x0A, 0x00, 0x00, 0x00, 0x00, 0x01, 0x00, 0x20, 0x00, 0x00, 0x00, 0x00, 0x00, 
.................... 0x09, 0x83, 0x06, 0x0E, 0x00, 0x00, 0x00, 0x00, 0x01, 0x00, 0x60, 0x00, 0x00, 0x00, 0x00, 0x00, 
.................... 0x08, 0x81, 0x02, 0x06, 0x00, 0x00, 0x00, 0x00, 0x01, 0xFF, 0xC0, 0x00, 0x00, 0x00, 0x00, 0x00, 
.................... 0x08, 0x81, 0x02, 0x06, 0x00, 0x00, 0x00, 0x00, 0x00, 0x00, 0x08, 0x00, 0x00, 0x00, 0x00, 0x00, 
.................... 0x08, 0x00, 0x00, 0x00, 0x00, 0x00, 0x00, 0x00, 0x00, 0x00, 0x0C, 0x00, 0x00, 0x00, 0x00, 0x00, 
.................... 0x0F, 0xFF, 0xFF, 0xFF, 0xFF, 0xFF, 0xFF, 0xFF, 0xFF, 0xFF, 0xFE, 0x00, 0x00, 0x00, 0x00, 0x00, 
.................... 0x00, 0x00, 0x00, 0x00, 0x00, 0x00, 0x00, 0x00, 0x00, 0x00, 0x00, 0x00, 0x00, 0x00, 0x00, 0x00, 
.................... 0x00, 0x00, 0x00, 0x00, 0x00, 0x00, 0x00, 0x00, 0x00, 0x00, 0x00, 0x00, 0x00, 0x00, 0x00, 0x00, 
.................... 0x00, 0x00, 0x00, 0x00, 0x00, 0x00, 0x00, 0x00, 0x00, 0x00, 0x00, 0x00, 0x00, 0x00, 0x00, 0x00, 
.................... 0x00, 0x00, 0x00, 0x00, 0x00, 0x00, 0x00, 0x00, 0x00, 0x00, 0x00, 0x00, 0x00, 0x00, 0x00, 0x00, 
.................... 0x00, 0x00, 0x00, 0x00, 0x00, 0x00, 0x00, 0x00, 0x00, 0x00, 0x00, 0x00, 0x00, 0x00, 0x00, 0x00, 
.................... 0x00, 0x00, 0x00, 0x00, 0x00, 0x00, 0x00, 0x00, 0x00, 0x00, 0x00, 0x00, 0x00, 0x00, 0x00, 0x00, 
.................... 0x00, 0x00, 0x00, 0x00, 0x00, 0x00, 0x00, 0x00, 0x00, 0x00, 0x00, 0x00, 0x00, 0x00, 0x00, 0x00, 
.................... 0x00, 0x00, 0x00, 0x00, 0x00, 0x00, 0x00, 0x00, 0x00, 0x00, 0x00, 0x00, 0x00, 0x00, 0x00, 0x00, 
.................... 0x00, 0x00, 0x00, 0x00, 0x00, 0x00, 0x00, 0x00, 0x00, 0x00, 0x00, 0x00, 0x00, 0x00, 0x00, 0x00 
.................... }; 
....................  
.................... const int8 CuadradoSecando [64][16] = { 
.................... 0x00, 0x00, 0x00, 0x00, 0x00, 0x00, 0x00, 0x00, 0x00, 0x00, 0x00, 0x00, 0x00, 0x00, 0x00, 0x00, 
.................... 0x00, 0x00, 0x00, 0x00, 0x00, 0x00, 0x00, 0x00, 0x00, 0x00, 0x00, 0x00, 0x00, 0x00, 0x00, 0x00, 
.................... 0x00, 0x00, 0x00, 0x00, 0x00, 0x00, 0x00, 0x00, 0x00, 0x00, 0x00, 0x00, 0x00, 0x00, 0x00, 0x00, 
.................... 0x00, 0x00, 0x00, 0x00, 0x00, 0x00, 0x00, 0x00, 0x00, 0x00, 0x00, 0x00, 0x00, 0x00, 0x00, 0x00, 
.................... 0x00, 0x00, 0x00, 0x00, 0x00, 0x00, 0x00, 0x00, 0x00, 0x00, 0x00, 0x00, 0x00, 0x00, 0x00, 0x00, 
.................... 0x00, 0x00, 0x00, 0x00, 0x00, 0x00, 0x00, 0x00, 0x00, 0x00, 0x00, 0x00, 0x00, 0x00, 0x00, 0x00, 
.................... 0x00, 0x00, 0x00, 0x00, 0x00, 0x00, 0x00, 0x00, 0x00, 0x00, 0x00, 0x00, 0x00, 0x00, 0x00, 0x00, 
.................... 0x00, 0x00, 0x00, 0x00, 0x00, 0x00, 0x00, 0x00, 0x00, 0x00, 0x00, 0x00, 0x00, 0x00, 0x00, 0x00, 
.................... 0x00, 0x00, 0x00, 0x00, 0x00, 0x00, 0x00, 0x00, 0x00, 0x00, 0x00, 0x00, 0x00, 0x00, 0x00, 0x00, 
.................... 0x00, 0x00, 0x00, 0x00, 0x00, 0x00, 0x00, 0x00, 0x00, 0x00, 0x00, 0x00, 0x00, 0x00, 0x00, 0x00, 
.................... 0x00, 0x00, 0x00, 0x00, 0x00, 0x00, 0x00, 0x00, 0x00, 0x00, 0x00, 0x00, 0x00, 0x00, 0x00, 0x00, 
.................... 0x00, 0x00, 0x00, 0x00, 0x00, 0x00, 0x00, 0x00, 0x00, 0x00, 0x00, 0x00, 0x00, 0x00, 0x00, 0x00, 
.................... 0x00, 0x00, 0x00, 0x00, 0x00, 0x00, 0x00, 0x00, 0x00, 0x00, 0x00, 0x00, 0x00, 0x00, 0x00, 0x00, 
.................... 0x00, 0x00, 0x00, 0x00, 0x00, 0x00, 0x00, 0x00, 0x00, 0x00, 0x00, 0x00, 0x00, 0x00, 0x00, 0x00, 
.................... 0x00, 0x00, 0x00, 0x00, 0x00, 0x00, 0x00, 0x00, 0x00, 0x00, 0x00, 0x00, 0x00, 0x00, 0x00, 0x00, 
.................... 0x08, 0x00, 0x00, 0x00, 0x00, 0x00, 0x00, 0x00, 0x00, 0x00, 0x00, 0x00, 0x00, 0x00, 0x00, 0x00, 
.................... 0x1C, 0x00, 0x00, 0x00, 0x00, 0x00, 0x00, 0x00, 0x00, 0x00, 0x00, 0x00, 0x00, 0x00, 0x00, 0x00, 
.................... 0x3E, 0x00, 0x00, 0x00, 0x00, 0x00, 0x00, 0x00, 0x00, 0x00, 0x00, 0x00, 0x00, 0x00, 0x00, 0x00, 
.................... 0x08, 0x00, 0x00, 0x00, 0x00, 0x00, 0x00, 0x00, 0x00, 0x00, 0x00, 0x00, 0x00, 0x00, 0x00, 0x00, 
.................... 0x08, 0x00, 0x00, 0x00, 0x00, 0x00, 0x00, 0x00, 0x00, 0x00, 0x00, 0x00, 0x00, 0x00, 0x00, 0x00, 
.................... 0x08, 0x00, 0x00, 0x00, 0x00, 0x00, 0x00, 0x00, 0x00, 0x00, 0x00, 0x00, 0x00, 0x00, 0x00, 0x00, 
.................... 0x08, 0x00, 0x00, 0x00, 0x00, 0x00, 0x00, 0x00, 0x00, 0x00, 0x00, 0x00, 0x00, 0x00, 0x00, 0x00, 
.................... 0x08, 0x00, 0x00, 0x00, 0x3F, 0xFF, 0xFF, 0xFE, 0x00, 0x00, 0x00, 0x00, 0x00, 0x00, 0x00, 0x00, 
.................... 0x08, 0x00, 0x00, 0x00, 0x20, 0x00, 0x00, 0x02, 0x00, 0x00, 0x00, 0x00, 0x00, 0x00, 0x00, 0x00, 
.................... 0x08, 0x00, 0x00, 0x00, 0x60, 0x00, 0x00, 0x02, 0x00, 0x00, 0x00, 0x00, 0x00, 0x00, 0x00, 0x00, 
.................... 0x08, 0x00, 0x00, 0x00, 0x40, 0x00, 0x00, 0x02, 0x00, 0x00, 0x00, 0x00, 0x00, 0x00, 0x00, 0x00, 
.................... 0x08, 0x00, 0x00, 0x00, 0x40, 0x00, 0x00, 0x03, 0x00, 0x00, 0x00, 0x00, 0x00, 0x00, 0x00, 0x00, 
.................... 0x08, 0x00, 0x00, 0x00, 0xC0, 0x00, 0x00, 0x01, 0x00, 0x00, 0x00, 0x00, 0x00, 0x00, 0x00, 0x00, 
.................... 0x08, 0x00, 0x00, 0x00, 0x80, 0x00, 0x00, 0x01, 0x00, 0x00, 0x00, 0x00, 0x00, 0x00, 0x00, 0x00, 
.................... 0x08, 0x00, 0x00, 0x00, 0x80, 0x00, 0x00, 0x01, 0x00, 0x00, 0x00, 0x00, 0x00, 0x00, 0x00, 0x00, 
.................... 0x08, 0x00, 0x00, 0x01, 0x80, 0x00, 0x00, 0x01, 0x80, 0x00, 0x00, 0x00, 0x00, 0x00, 0x00, 0x00, 
.................... 0x08, 0x00, 0x00, 0x01, 0x00, 0x00, 0x00, 0x00, 0x80, 0x00, 0x00, 0x00, 0x00, 0x00, 0x00, 0x00, 
.................... 0x08, 0x00, 0x00, 0x01, 0x00, 0x00, 0x00, 0x00, 0x80, 0x00, 0x00, 0x00, 0x00, 0x00, 0x00, 0x00, 
.................... 0x08, 0x00, 0x00, 0x03, 0x00, 0x00, 0x00, 0x00, 0xC0, 0x00, 0x00, 0x00, 0x00, 0x00, 0x00, 0x00, 
.................... 0x08, 0x00, 0x00, 0x02, 0x00, 0x00, 0x00, 0x00, 0x40, 0x00, 0x00, 0x00, 0x00, 0x00, 0x00, 0x00, 
.................... 0x08, 0x00, 0x00, 0x02, 0x00, 0x00, 0x00, 0x00, 0x40, 0x00, 0x00, 0x00, 0x00, 0x00, 0x00, 0x00, 
.................... 0x08, 0xC1, 0x83, 0x02, 0x00, 0x00, 0x00, 0x00, 0x60, 0x00, 0x00, 0x00, 0x00, 0x00, 0x00, 0x00, 
.................... 0x08, 0xE1, 0xC3, 0x82, 0x00, 0x00, 0x00, 0x00, 0x30, 0x00, 0x03, 0xC0, 0x00, 0x00, 0x00, 0x00, 
.................... 0x08, 0xA1, 0x42, 0x82, 0x00, 0x00, 0x00, 0x00, 0x08, 0x00, 0x06, 0x00, 0x00, 0x00, 0x00, 0x00, 
.................... 0x08, 0xB1, 0x62, 0xC2, 0x00, 0x00, 0x00, 0x00, 0x08, 0x00, 0x0C, 0x00, 0x00, 0x00, 0x00, 0x00, 
.................... 0x08, 0x91, 0x22, 0x42, 0x00, 0x00, 0x00, 0x00, 0x08, 0x00, 0x08, 0x00, 0x00, 0x00, 0x00, 0x00, 
.................... 0x08, 0x91, 0x22, 0x42, 0x00, 0x00, 0x00, 0x00, 0x0C, 0x00, 0x08, 0x00, 0x00, 0x00, 0x00, 0x00, 
.................... 0x08, 0x99, 0x32, 0x62, 0x00, 0x00, 0x00, 0x00, 0x04, 0x00, 0x08, 0x00, 0x00, 0x00, 0x00, 0x00, 
.................... 0x08, 0x99, 0x32, 0x62, 0x00, 0x00, 0x00, 0x00, 0x04, 0x00, 0x18, 0x00, 0x00, 0x00, 0x00, 0x00, 
.................... 0x0C, 0x89, 0x12, 0x22, 0x00, 0x00, 0x00, 0x00, 0x04, 0x00, 0x10, 0x00, 0x00, 0x00, 0x00, 0x00, 
.................... 0x0A, 0x8D, 0x1A, 0x32, 0x00, 0x00, 0x00, 0x00, 0x06, 0x00, 0x30, 0x00, 0x00, 0x00, 0x00, 0x00, 
.................... 0x0A, 0x85, 0x0A, 0x12, 0x00, 0x00, 0x00, 0x00, 0x02, 0x00, 0x20, 0x00, 0x00, 0x00, 0x00, 0x00, 
.................... 0x0A, 0x85, 0x0A, 0x1A, 0x00, 0x00, 0x00, 0x00, 0x05, 0xFF, 0xD0, 0x00, 0x00, 0x00, 0x00, 0x00, 
.................... 0x09, 0x87, 0x0E, 0x1A, 0x00, 0x00, 0x00, 0x00, 0x04, 0xFF, 0xD0, 0x00, 0x00, 0x00, 0x00, 0x00, 
.................... 0x09, 0x83, 0x06, 0x0A, 0x00, 0x00, 0x00, 0x00, 0x06, 0xFF, 0xD0, 0x00, 0x00, 0x00, 0x00, 0x00, 
.................... 0x09, 0x83, 0x06, 0x0E, 0x00, 0x00, 0x00, 0x00, 0x06, 0xFF, 0x90, 0x00, 0x00, 0x00, 0x00, 0x00, 
.................... 0x08, 0x81, 0x02, 0x06, 0x00, 0x00, 0x00, 0x00, 0x06, 0x00, 0x30, 0x00, 0x00, 0x00, 0x00, 0x00, 
.................... 0x08, 0x81, 0x02, 0x06, 0x00, 0x00, 0x00, 0x00, 0x07, 0xFF, 0xF8, 0x00, 0x00, 0x00, 0x00, 0x00, 
.................... 0x08, 0x00, 0x00, 0x00, 0x00, 0x00, 0x00, 0x00, 0x00, 0x00, 0x0C, 0x00, 0x00, 0x00, 0x00, 0x00, 
.................... 0x0F, 0xFF, 0xFF, 0xFF, 0xFF, 0xFF, 0xFF, 0xFF, 0xFF, 0xFF, 0xFE, 0x00, 0x00, 0x00, 0x00, 0x00, 
.................... 0x00, 0x00, 0x00, 0x00, 0x00, 0x00, 0x00, 0x00, 0x00, 0x00, 0x00, 0x00, 0x00, 0x00, 0x00, 0x00, 
.................... 0x00, 0x00, 0x00, 0x00, 0x00, 0x00, 0x00, 0x00, 0x00, 0x00, 0x00, 0x00, 0x00, 0x00, 0x00, 0x00, 
.................... 0x00, 0x00, 0x00, 0x00, 0x00, 0x00, 0x00, 0x00, 0x00, 0x00, 0x00, 0x00, 0x00, 0x00, 0x00, 0x00, 
.................... 0x00, 0x00, 0x00, 0x00, 0x00, 0x00, 0x00, 0x00, 0x00, 0x00, 0x00, 0x00, 0x00, 0x00, 0x00, 0x00, 
.................... 0x00, 0x00, 0x00, 0x00, 0x00, 0x00, 0x00, 0x00, 0x00, 0x00, 0x00, 0x00, 0x00, 0x00, 0x00, 0x00, 
.................... 0x00, 0x00, 0x00, 0x00, 0x00, 0x00, 0x00, 0x00, 0x00, 0x00, 0x00, 0x00, 0x00, 0x00, 0x00, 0x00, 
.................... 0x00, 0x00, 0x00, 0x00, 0x00, 0x00, 0x00, 0x00, 0x00, 0x00, 0x00, 0x00, 0x00, 0x00, 0x00, 0x00, 
.................... 0x00, 0x00, 0x00, 0x00, 0x00, 0x00, 0x00, 0x00, 0x00, 0x00, 0x00, 0x00, 0x00, 0x00, 0x00, 0x00, 
.................... 0x00, 0x00, 0x00, 0x00, 0x00, 0x00, 0x00, 0x00, 0x00, 0x00, 0x00, 0x00, 0x00, 0x00, 0x00, 0x00 
.................... }; 
....................  
....................  
....................  
.................... #define   UP            !input(PIN_A4) 
.................... #define   DOWN          !input(PIN_A5) 
.................... #define   RIGHT         !input(PIN_E0) 
.................... #define   LEFT          !input(PIN_E1) 
....................  
.................... #define   DOOR          !input(PIN_E2) 
.................... #define   STOP          !input(PIN_B6) 
.................... #define   TERM          !input(PIN_B7) 
....................  
.................... #define   HIGH          input(PIN_C0) 
.................... #define   LOW           input(PIN_C1) 
....................  
.................... #define   Display_on       output_bit(PIN_C7,1) 
.................... #define   Display_off      output_bit(PIN_C7,0) 
....................  
.................... #define   SSR_on           output_bit(PIN_C2,0) 
.................... #define   SSR_off          output_bit(PIN_C2,1) 
....................  
.................... #define   Desfogue_on      output_bit(PIN_C5,0) 
.................... #define   Desfogue_off     output_bit(PIN_C5,1) 
....................  
.................... #define   Paso_on          output_bit(PIN_C6,0) 
.................... #define   Paso_off         output_bit(PIN_C6,1) 
....................  
.................... //Comunicacion//------------------------ 
.................... byte txbuf[0X20]; 
.................... byte SlaveA0Tx[0X20]; 
.................... byte dato=0;            //Contendr la informacin a enviar o recibir 
.................... byte direccion=0;       //Contendr la direccin del esclavo en el bus I2C 
.................... byte posicion=0;        //Contendr la posicin en el buffer de memoria del esclavo donde se almacenar o de donde se recuperar el dato 
.................... byte ByteConfig1=0,ByteConfig2=0,ByteConfig3=0; 
....................  
.................... //Alarmas//--------------------- 
.................... short AlarmaTiempoProlongado=OFF,AlarmaSobreTemperatura=OFF,AlarmaLlenado=OFF,AlarmaTermostato=OFF,AlarmaPuerta=OFF,AlarmaEmergencia=OFF,AlarmaVacio=OFF; 
.................... short AlarmaBomba=OFF; 
.................... int16 TiempoVacio=600; 
....................  
.................... //Banderas//-------------------- 
.................... short IniciaLlenado=OFF,CalderinLleno=OFF,IniciaCiclo=OFF,Esterilizando=OFF,Secando=OFF,SensadoNivel=OFF,Desfogando=OFF,DesfogueSuave=OFF; 
.................... short EstadoDesfogue=OFF,EstadoAgua=OFF,EstadoSSR=OFF,EstadoSSR2=OFF,EstadoSSR3=OFF,EstadoAire=OFF,PruebaEstados=OFF,disp_Guarda=OFF,IniciaVacio2=OFF; 
.................... short EstadoVacio=OFF,EstadoPaso=OFF,EstadoBuzzer=OFF,Vacio=OFF,flag_vacio=OFF,IniciaVacio=OFF,flag_vac=OFF,EstadoAireBomba=OFF,Ciclo=OFF; 
.................... short EnciendeBuzzer=OFF,BorraCuadro=OFF,PosVacio=OFF,PosCalentando=OFF,PosEsterilizando=OFF,PosDesfogando=OFF,PosSecando=OFF,Precalentamiento=OFF; 
....................  
.................... //Hardware//-------------------- 
.................... short EVVacio=OFF,EVAire=OFF,EVAgua=OFF,SSR2=OFF,SSR3=OFF,Buzzer=OFF,EVAireBomba=OFF; 
....................  
.................... //Tiempos//--------------------- 
.................... int16 TiempoCiclo=0,TiempoLlenado=0,TiempoSensadoNivel=0; 
.................... signed int  Testerilizacion[4]={0,0,0,0};   // Tiempo transcurrido 
.................... signed int  Testerilizacionp[4]={0,0,0,0};   // Tiempo transcurrido 
.................... signed int  Tsecado[4]={0,0,0,0};   // Tiempo transcurrido 
.................... signed int  Tsecadop[4]={0,0,0,0};   // Tiempo transcurrido 
....................  
.................... //Control//------------------------ 
.................... float promedio[80]={0.0,0.0,0.0,0.0,0.0,0.0,0.0,0.0,0.0,0.0,0.0,0.0,0.0,0.0,0.0,0.0,0.0,0.0,0.0,0.0,0.0,0.0,0.0,0.0,0.0,0.0,0.0,0.0,0.0,0.0,0.0,0.0,0.0,0.0,0.0,0.0,0.0,0.0,0.0,0.0,0.0,0.0,0.0,0.0,0.0,0.0,0.0,0.0,0.0,0.0,0.0,0.0,0.0,0.0,0.0,0.0,0.0,0.0,0.0,0.0,0.0,0.0,0.0,0.0}; 
.................... float PromPresion[20]={0.0,0.0,0.0,0.0,0.0,0.0,0.0,0.0,0.0,0.0,0.0,0.0,0.0,0.0,0.0,0.0,0.0,0.0,0.0,0.0}; 
.................... float PromPresionp[20]={0.0,0.0,0.0,0.0,0.0,0.0,0.0,0.0,0.0,0.0,0.0,0.0,0.0,0.0,0.0,0.0,0.0,0.0,0.0,0.0}; 
.................... float Gain=40.2,RPT100=0.5,Temporal=0.0; 
.................... float X[2]={0.0,0.0}; 
.................... float promediopresion=0.0,Aumento=0.0,promediopresionp=0.0; 
.................... int8 h=0,l=0,Ajuste=0,Ajusten=0,MediaMovil=20; 
.................... float V0=0.0,R1=6110.0,Pt,Tciclo=10.0,Tpulso=0.0,error=0.0,Prom=0.0,Temperature=0.0,tmp=0.0,Ganancia=25.0,Ganancia2=20.0,desvio=1.0; 
.................... float V1=0.0,Presion=0.0,V2=0.0,Presionp=0.0; 
.................... float Temperatura=0.0,K=0.006429; 
.................... float a=0.0011,b=2.3302,c=-244.0723; 
.................... int8 Integral=0,Derivativo=0; 
....................  
.................... //Varios//-------------------------------- 
.................... char kpa[]="kPa"; 
.................... short Flanco=0,Flanco1=0,Flanco2=0,visual=1,desfoguelento=0,Lectura=0; 
.................... short disp_Stop=0; 
.................... int8 Control=0,PulsosBuzzer=0,CantidadPulsos=4,NivelVacio=25,CiclosL=0,CiclosH=0; 
.................... int8 Menu=0, unidad=1,i=0,y=0; 
.................... int8 Setpoint=0,Atmosferica=71,Opcion=1,tiempo_esterilizacion=0,tiempo_secado=0; 
.................... int16 tiempos=0,tiempos3=0,tiempoctrl=0,Nivel=0,tinicio=0,PresionCamara=0,PresionPreCamara=0,Ciclos=0,NivelSeleccionado=0; 
.................... signed int  Contrasena[4]={0,0,0,0};      // Contrasena de 4 digitos 
.................... signed int  Password[4]={0,0,0,0};        // Contrasena Almacenada de 4 digitos 
.................... int8 r=0,t=0,r2=0,t2=0,TiempoControl=0,PulsoPositivo=10,PulsosVacio=0,flag_pulso=0; 
.................... int16 t_exhaust=0,tvacio=0,tbomba=0; 
....................     
.................... #include "Funciones.h"    
....................  
.................... typedef struct{ 
....................    char Letra[15]; 
....................    char Estado[4]; 
.................... }MENUU; 
....................  
.................... MENUU Menus; 
....................  
....................  
.................... void displayTemperatura(int16 digito, int x, int y, int sombreado, int tamano) 
.................... { 
....................    char voltage[9]; 
....................     
....................    if(sombreado==2) 
*
065A0:  MOVLB  7
065A2:  MOVF   x2D,W
065A4:  SUBLW  02
065A6:  BNZ   661C
....................    { 
....................       sprintf(voltage, "%04Lu", digito); 
065A8:  MOVLW  07
065AA:  MOVWF  x26
065AC:  MOVLW  2F
065AE:  MOVWF  x25
065B0:  MOVLW  09
065B2:  MOVWF  FE9
065B4:  MOVFF  72A,739
065B8:  MOVFF  729,738
065BC:  MOVLB  0
065BE:  RCALL  64E2
....................       glcd_rect(x, y, x+(tamano*18), y+(tamano*8), YES, ON); 
065C0:  MOVLB  7
065C2:  MOVF   x2E,W
065C4:  MULLW  12
065C6:  MOVF   FF3,W
065C8:  ADDWF  x2B,W
065CA:  MOVWF  x38
065CC:  MOVF   x2E,W
065CE:  MULLW  08
065D0:  MOVF   FF3,W
065D2:  ADDWF  x2C,W
065D4:  MOVWF  x39
065D6:  MOVFF  72B,73D
065DA:  MOVFF  72C,73E
065DE:  MOVFF  738,73F
065E2:  MOVWF  x40
065E4:  MOVLW  01
065E6:  MOVWF  x41
065E8:  MOVWF  x42
065EA:  MOVLB  0
065EC:  CALL   3EA2
....................       glcd_text57(x+1, y+1, voltage, tamano, OFF); 
065F0:  MOVLW  01
065F2:  MOVLB  7
065F4:  ADDWF  x2B,W
065F6:  MOVWF  x38
065F8:  MOVLW  01
065FA:  ADDWF  x2C,W
065FC:  MOVWF  x39
065FE:  MOVFF  738,73B
06602:  MOVWF  x3C
06604:  MOVLW  07
06606:  MOVWF  x3E
06608:  MOVLW  2F
0660A:  MOVWF  x3D
0660C:  MOVFF  72E,73F
06610:  CLRF   x40
06612:  MOVLB  0
06614:  CALL   3BAC
....................    } 
....................    else 
06618:  BRA    674E
0661A:  MOVLB  7
....................    { 
....................       sprintf(voltage, "%04Lu", digito); 
0661C:  MOVLW  07
0661E:  MOVWF  x26
06620:  MOVLW  2F
06622:  MOVWF  x25
06624:  MOVLW  09
06626:  MOVWF  FE9
06628:  MOVFF  72A,739
0662C:  MOVFF  729,738
06630:  MOVLB  0
06632:  RCALL  64E2
....................     
....................       if(sombreado==4) 
06634:  MOVLB  7
06636:  MOVF   x2D,W
06638:  SUBLW  04
0663A:  BNZ   6696
....................       { 
....................          glcd_rect(x, y, x+(tamano*16), y+(tamano*8), YES, OFF); 
0663C:  MOVF   x2E,W
0663E:  MULLW  10
06640:  MOVF   FF3,W
06642:  ADDWF  x2B,W
06644:  MOVWF  x38
06646:  MOVF   x2E,W
06648:  MULLW  08
0664A:  MOVF   FF3,W
0664C:  ADDWF  x2C,W
0664E:  MOVWF  x39
06650:  MOVFF  72B,73D
06654:  MOVFF  72C,73E
06658:  MOVFF  738,73F
0665C:  MOVWF  x40
0665E:  MOVLW  01
06660:  MOVWF  x41
06662:  CLRF   x42
06664:  MOVLB  0
06666:  CALL   3EA2
....................          glcd_text57(x+1, y+1, voltage, tamano, ON); 
0666A:  MOVLW  01
0666C:  MOVLB  7
0666E:  ADDWF  x2B,W
06670:  MOVWF  x38
06672:  MOVLW  01
06674:  ADDWF  x2C,W
06676:  MOVWF  x39
06678:  MOVFF  738,73B
0667C:  MOVWF  x3C
0667E:  MOVLW  07
06680:  MOVWF  x3E
06682:  MOVLW  2F
06684:  MOVWF  x3D
06686:  MOVFF  72E,73F
0668A:  MOVLW  01
0668C:  MOVWF  x40
0668E:  MOVLB  0
06690:  CALL   3BAC
06694:  MOVLB  7
....................       } 
....................       if(sombreado==1) 
06696:  DECFSZ x2D,W
06698:  BRA    66F2
....................          {glcd_rect(x, y, x+(tamano*5), y+(tamano*8), YES, ON);glcd_text57(x+1, y+1, voltage, tamano, OFF);} 
0669A:  MOVF   x2E,W
0669C:  MULLW  05
0669E:  MOVF   FF3,W
066A0:  ADDWF  x2B,W
066A2:  MOVWF  x38
066A4:  MOVF   x2E,W
066A6:  MULLW  08
066A8:  MOVF   FF3,W
066AA:  ADDWF  x2C,W
066AC:  MOVWF  x39
066AE:  MOVFF  72B,73D
066B2:  MOVFF  72C,73E
066B6:  MOVFF  738,73F
066BA:  MOVWF  x40
066BC:  MOVLW  01
066BE:  MOVWF  x41
066C0:  MOVWF  x42
066C2:  MOVLB  0
066C4:  CALL   3EA2
066C8:  MOVLW  01
066CA:  MOVLB  7
066CC:  ADDWF  x2B,W
066CE:  MOVWF  x38
066D0:  MOVLW  01
066D2:  ADDWF  x2C,W
066D4:  MOVWF  x39
066D6:  MOVFF  738,73B
066DA:  MOVWF  x3C
066DC:  MOVLW  07
066DE:  MOVWF  x3E
066E0:  MOVLW  2F
066E2:  MOVWF  x3D
066E4:  MOVFF  72E,73F
066E8:  CLRF   x40
066EA:  MOVLB  0
066EC:  CALL   3BAC
066F0:  MOVLB  7
....................       if(sombreado==0) 
066F2:  MOVF   x2D,F
066F4:  BNZ   6750
....................          {glcd_rect(x, y, x+(tamano*5), y+(tamano*8), YES, OFF);glcd_text57(x+1, y+1, voltage, tamano, ON);} 
066F6:  MOVF   x2E,W
066F8:  MULLW  05
066FA:  MOVF   FF3,W
066FC:  ADDWF  x2B,W
066FE:  MOVWF  x38
06700:  MOVF   x2E,W
06702:  MULLW  08
06704:  MOVF   FF3,W
06706:  ADDWF  x2C,W
06708:  MOVWF  x39
0670A:  MOVFF  72B,73D
0670E:  MOVFF  72C,73E
06712:  MOVFF  738,73F
06716:  MOVWF  x40
06718:  MOVLW  01
0671A:  MOVWF  x41
0671C:  CLRF   x42
0671E:  MOVLB  0
06720:  CALL   3EA2
06724:  MOVLW  01
06726:  MOVLB  7
06728:  ADDWF  x2B,W
0672A:  MOVWF  x38
0672C:  MOVLW  01
0672E:  ADDWF  x2C,W
06730:  MOVWF  x39
06732:  MOVFF  738,73B
06736:  MOVWF  x3C
06738:  MOVLW  07
0673A:  MOVWF  x3E
0673C:  MOVLW  2F
0673E:  MOVWF  x3D
06740:  MOVFF  72E,73F
06744:  MOVLW  01
06746:  MOVWF  x40
06748:  MOVLB  0
0674A:  CALL   3BAC
0674E:  MOVLB  7
....................    } 
....................    glcd_update(); 
06750:  MOVLB  0
06752:  CALL   3990
.................... } 
06756:  RETLW  00
....................  
....................  
.................... void displayTemps(char palabra[30], char digito[3], int x, int y, int sombreado, int tamano) 
.................... {   
....................    if(sombreado==1) 
*
05530:  MOVLB  7
05532:  DECFSZ x2D,W
05534:  BRA    55FC
....................    { 
....................       //sprintf(voltage, "%03Lu", digito); 
....................       glcd_rect(0, y, 127, y+(tamano*8), YES, ON); 
05536:  MOVF   x2E,W
05538:  MULLW  08
0553A:  MOVF   FF3,W
0553C:  ADDWF  x2C,W
0553E:  MOVWF  x2F
05540:  CLRF   x3D
05542:  MOVFF  72C,73E
05546:  MOVLW  7F
05548:  MOVWF  x3F
0554A:  MOVFF  72F,740
0554E:  MOVLW  01
05550:  MOVWF  x41
05552:  MOVWF  x42
05554:  MOVLB  0
05556:  CALL   3EA2
....................       strcpy(Menus.Letra,palabra); 
0555A:  MOVLB  7
0555C:  MOVFF  727,01
05560:  MOVFF  728,03
05564:  MOVFF  727,72F
05568:  MOVFF  728,730
0556C:  MOVLW  07
0556E:  MOVWF  FEA
05570:  MOVLW  12
05572:  MOVWF  FE9
05574:  MOVFF  728,FE2
05578:  MOVFF  727,FE1
0557C:  MOVF   FE7,F
0557E:  MOVFF  FE6,FEE
05582:  BNZ   557C
....................       glcd_text57(x+1, y+1, Menus.Letra, tamano, OFF); 
05584:  MOVLW  01
05586:  ADDWF  x2B,W
05588:  MOVWF  x2F
0558A:  MOVLW  01
0558C:  ADDWF  x2C,W
0558E:  MOVWF  x30
05590:  MOVFF  72F,73B
05594:  MOVWF  x3C
05596:  MOVLW  07
05598:  MOVWF  x3E
0559A:  MOVLW  12
0559C:  MOVWF  x3D
0559E:  MOVFF  72E,73F
055A2:  CLRF   x40
055A4:  MOVLB  0
055A6:  CALL   3BAC
....................       strcpy(Menus.Letra,digito); 
055AA:  MOVLB  7
055AC:  MOVFF  729,01
055B0:  MOVFF  72A,03
055B4:  MOVFF  729,72F
055B8:  MOVFF  72A,730
055BC:  MOVLW  07
055BE:  MOVWF  FEA
055C0:  MOVLW  12
055C2:  MOVWF  FE9
055C4:  MOVFF  72A,FE2
055C8:  MOVFF  729,FE1
055CC:  MOVF   FE7,F
055CE:  MOVFF  FE6,FEE
055D2:  BNZ   55CC
....................       glcd_text57(x+90, y+1, Menus.Letra, tamano, OFF); 
055D4:  MOVLW  5A
055D6:  ADDWF  x2B,W
055D8:  MOVWF  x2F
055DA:  MOVLW  01
055DC:  ADDWF  x2C,W
055DE:  MOVWF  x30
055E0:  MOVFF  72F,73B
055E4:  MOVWF  x3C
055E6:  MOVLW  07
055E8:  MOVWF  x3E
055EA:  MOVLW  12
055EC:  MOVWF  x3D
055EE:  MOVFF  72E,73F
055F2:  CLRF   x40
055F4:  MOVLB  0
055F6:  CALL   3BAC
055FA:  MOVLB  7
....................       //strcpy(Menus.Letra,"C"); 
....................       //glcd_text57(x+120, y+1, Menus.Letra, tamano, OFF); 
....................       //glcd_circle(x+115,y-1,1,NO,OFF); 
....................    } 
....................    if(sombreado==0) 
055FC:  MOVF   x2D,F
055FE:  BNZ   56C8
....................    { 
....................       //sprintf(voltage, "%03Lu", digito); 
....................       glcd_rect(0, y, 127, y+(tamano*8), YES, OFF); 
05600:  MOVF   x2E,W
05602:  MULLW  08
05604:  MOVF   FF3,W
05606:  ADDWF  x2C,W
05608:  MOVWF  x2F
0560A:  CLRF   x3D
0560C:  MOVFF  72C,73E
05610:  MOVLW  7F
05612:  MOVWF  x3F
05614:  MOVFF  72F,740
05618:  MOVLW  01
0561A:  MOVWF  x41
0561C:  CLRF   x42
0561E:  MOVLB  0
05620:  CALL   3EA2
....................       strcpy(Menus.Letra,palabra); 
05624:  MOVLB  7
05626:  MOVFF  727,01
0562A:  MOVFF  728,03
0562E:  MOVFF  727,72F
05632:  MOVFF  728,730
05636:  MOVLW  07
05638:  MOVWF  FEA
0563A:  MOVLW  12
0563C:  MOVWF  FE9
0563E:  MOVFF  728,FE2
05642:  MOVFF  727,FE1
05646:  MOVF   FE7,F
05648:  MOVFF  FE6,FEE
0564C:  BNZ   5646
....................       glcd_text57(x+1, y+1, Menus.Letra, tamano, ON); 
0564E:  MOVLW  01
05650:  ADDWF  x2B,W
05652:  MOVWF  x2F
05654:  MOVLW  01
05656:  ADDWF  x2C,W
05658:  MOVWF  x30
0565A:  MOVFF  72F,73B
0565E:  MOVWF  x3C
05660:  MOVLW  07
05662:  MOVWF  x3E
05664:  MOVLW  12
05666:  MOVWF  x3D
05668:  MOVFF  72E,73F
0566C:  MOVLW  01
0566E:  MOVWF  x40
05670:  MOVLB  0
05672:  CALL   3BAC
....................       strcpy(Menus.Letra,digito); 
05676:  MOVLB  7
05678:  MOVFF  729,01
0567C:  MOVFF  72A,03
05680:  MOVFF  729,72F
05684:  MOVFF  72A,730
05688:  MOVLW  07
0568A:  MOVWF  FEA
0568C:  MOVLW  12
0568E:  MOVWF  FE9
05690:  MOVFF  72A,FE2
05694:  MOVFF  729,FE1
05698:  MOVF   FE7,F
0569A:  MOVFF  FE6,FEE
0569E:  BNZ   5698
....................       glcd_text57(x+90, y+1, Menus.Letra, tamano, ON); 
056A0:  MOVLW  5A
056A2:  ADDWF  x2B,W
056A4:  MOVWF  x2F
056A6:  MOVLW  01
056A8:  ADDWF  x2C,W
056AA:  MOVWF  x30
056AC:  MOVFF  72F,73B
056B0:  MOVWF  x3C
056B2:  MOVLW  07
056B4:  MOVWF  x3E
056B6:  MOVLW  12
056B8:  MOVWF  x3D
056BA:  MOVFF  72E,73F
056BE:  MOVLW  01
056C0:  MOVWF  x40
056C2:  MOVLB  0
056C4:  CALL   3BAC
....................       //strcpy(Menus.Letra,"C"); 
....................       //glcd_text57(x+120, y+1, Menus.Letra, tamano, ON); 
....................       //glcd_circle(x+115,y-1,1,NO,ON); 
....................    } 
....................    glcd_update(); 
056C8:  MOVLB  0
056CA:  CALL   3990
.................... } 
056CE:  RETLW  00
....................  
.................... void displayTT(float adc,int x,int y,int w) { 
....................    char voltage[9];     
....................    sprintf(voltage, "%03.1f",adc); // Converts adc to text 
*
061F2:  MOVLW  07
061F4:  MOVLB  7
061F6:  MOVWF  x26
061F8:  MOVLW  2E
061FA:  MOVWF  x25
061FC:  MOVLW  42
061FE:  MOVWF  FE9
06200:  MOVFF  72A,73E
06204:  MOVFF  729,73D
06208:  MOVFF  728,73C
0620C:  MOVFF  727,73B
06210:  MOVLW  01
06212:  MOVWF  x3F
06214:  MOVLB  0
06216:  RCALL  5FC8
....................    glcd_rect(x, y, x+(w*27), y+(w*8), YES, OFF); 
06218:  MOVLB  7
0621A:  MOVF   x2D,W
0621C:  MULLW  1B
0621E:  MOVF   FF3,W
06220:  ADDWF  x2B,W
06222:  MOVWF  x37
06224:  MOVF   x2D,W
06226:  MULLW  08
06228:  MOVF   FF3,W
0622A:  ADDWF  x2C,W
0622C:  MOVWF  x38
0622E:  MOVFF  72B,73D
06232:  MOVFF  72C,73E
06236:  MOVFF  737,73F
0623A:  MOVWF  x40
0623C:  MOVLW  01
0623E:  MOVWF  x41
06240:  CLRF   x42
06242:  MOVLB  0
06244:  CALL   3EA2
....................    /*glcd_rect(x, y, x+53, y+15, YES, ON);*/glcd_text57(x, y, voltage, w, ON); 
06248:  MOVFF  72B,73B
0624C:  MOVFF  72C,73C
06250:  MOVLW  07
06252:  MOVLB  7
06254:  MOVWF  x3E
06256:  MOVLW  2E
06258:  MOVWF  x3D
0625A:  MOVFF  72D,73F
0625E:  MOVLW  01
06260:  MOVWF  x40
06262:  MOVLB  0
06264:  CALL   3BAC
.................... } 
06268:  RETLW  00
....................  
.................... void Limpia(int x1,int x2,int y){ 
....................    glcd_rect(x1, y, x2, y+7, YES, OFF); 
.................... } 
....................  
.................... void displayT(float adc,int x,int y,int w) { 
....................    char voltage[9];     
....................    sprintf(voltage, "%03.0f",adc); // Converts adc to text 
*
0617C:  MOVLW  07
0617E:  MOVLB  7
06180:  MOVWF  x26
06182:  MOVLW  32
06184:  MOVWF  x25
06186:  MOVLW  42
06188:  MOVWF  FE9
0618A:  MOVFF  72E,73E
0618E:  MOVFF  72D,73D
06192:  MOVFF  72C,73C
06196:  MOVFF  72B,73B
0619A:  CLRF   x3F
0619C:  MOVLB  0
0619E:  RCALL  5FC8
....................    glcd_rect(x, y, x+(w*27), y+(w*8), YES, OFF); 
061A0:  MOVLB  7
061A2:  MOVF   x31,W
061A4:  MULLW  1B
061A6:  MOVF   FF3,W
061A8:  ADDWF  x2F,W
061AA:  MOVWF  x3B
061AC:  MOVF   x31,W
061AE:  MULLW  08
061B0:  MOVF   FF3,W
061B2:  ADDWF  x30,W
061B4:  MOVWF  x3C
061B6:  MOVFF  72F,73D
061BA:  MOVFF  730,73E
061BE:  MOVFF  73B,73F
061C2:  MOVWF  x40
061C4:  MOVLW  01
061C6:  MOVWF  x41
061C8:  CLRF   x42
061CA:  MOVLB  0
061CC:  CALL   3EA2
....................    /*glcd_rect(x, y, x+53, y+15, YES, ON);*/glcd_text57(x, y, voltage, w, ON); 
061D0:  MOVFF  72F,73B
061D4:  MOVFF  730,73C
061D8:  MOVLW  07
061DA:  MOVLB  7
061DC:  MOVWF  x3E
061DE:  MOVLW  32
061E0:  MOVWF  x3D
061E2:  MOVFF  731,73F
061E6:  MOVLW  01
061E8:  MOVWF  x40
061EA:  MOVLB  0
061EC:  CALL   3BAC
.................... } 
061F0:  RETLW  00
....................  
.................... void displayContrasena(int digito, int x, int y, int sombreado) 
.................... { 
....................    char voltage[9]; 
....................    sprintf(voltage, "%i", digito); 
*
0418A:  MOVLW  07
0418C:  MOVLB  7
0418E:  MOVWF  x26
04190:  MOVLW  2D
04192:  MOVWF  x25
04194:  MOVFF  729,736
04198:  MOVLW  1F
0419A:  MOVWF  x37
0419C:  MOVLB  0
0419E:  BRA    40AA
....................     
....................    if(sombreado==1) 
041A0:  MOVLB  7
041A2:  DECFSZ x2C,W
041A4:  BRA    41F4
....................       {glcd_rect(x, y, x+18, y+24, YES, ON);glcd_text57(x+2, y+1, voltage, 2, OFF);} 
041A6:  MOVLW  12
041A8:  ADDWF  x2A,W
041AA:  MOVWF  x36
041AC:  MOVLW  18
041AE:  ADDWF  x2B,W
041B0:  MOVWF  x37
041B2:  MOVFF  72A,73D
041B6:  MOVFF  72B,73E
041BA:  MOVFF  736,73F
041BE:  MOVWF  x40
041C0:  MOVLW  01
041C2:  MOVWF  x41
041C4:  MOVWF  x42
041C6:  MOVLB  0
041C8:  RCALL  3EA2
041CA:  MOVLW  02
041CC:  MOVLB  7
041CE:  ADDWF  x2A,W
041D0:  MOVWF  x36
041D2:  MOVLW  01
041D4:  ADDWF  x2B,W
041D6:  MOVWF  x37
041D8:  MOVFF  736,73B
041DC:  MOVWF  x3C
041DE:  MOVLW  07
041E0:  MOVWF  x3E
041E2:  MOVLW  2D
041E4:  MOVWF  x3D
041E6:  MOVLW  02
041E8:  MOVWF  x3F
041EA:  CLRF   x40
041EC:  MOVLB  0
041EE:  RCALL  3BAC
....................    else    
041F0:  BRA    423E
041F2:  MOVLB  7
....................       {glcd_rect(x, y, x+18, y+24, NO, OFF);glcd_text57(x+2, y+1, voltage, 2, ON);} 
041F4:  MOVLW  12
041F6:  ADDWF  x2A,W
041F8:  MOVWF  x36
041FA:  MOVLW  18
041FC:  ADDWF  x2B,W
041FE:  MOVWF  x37
04200:  MOVFF  72A,73D
04204:  MOVFF  72B,73E
04208:  MOVFF  736,73F
0420C:  MOVWF  x40
0420E:  CLRF   x41
04210:  CLRF   x42
04212:  MOVLB  0
04214:  RCALL  3EA2
04216:  MOVLW  02
04218:  MOVLB  7
0421A:  ADDWF  x2A,W
0421C:  MOVWF  x36
0421E:  MOVLW  01
04220:  ADDWF  x2B,W
04222:  MOVWF  x37
04224:  MOVFF  736,73B
04228:  MOVWF  x3C
0422A:  MOVLW  07
0422C:  MOVWF  x3E
0422E:  MOVLW  2D
04230:  MOVWF  x3D
04232:  MOVLW  02
04234:  MOVWF  x3F
04236:  MOVLW  01
04238:  MOVWF  x40
0423A:  MOVLB  0
0423C:  RCALL  3BAC
....................  
.................... } 
0423E:  RETLW  00
....................  
.................... void displayMenu(char palabra[30], int x, int y, int sombreado, int tamano) 
.................... { 
....................    strcpy(Menus.Letra,palabra); 
*
03F64:  MOVLB  7
03F66:  MOVFF  727,01
03F6A:  MOVFF  728,03
03F6E:  MOVFF  727,72D
03F72:  MOVFF  728,72E
03F76:  MOVLW  07
03F78:  MOVWF  FEA
03F7A:  MOVLW  12
03F7C:  MOVWF  FE9
03F7E:  MOVFF  728,FE2
03F82:  MOVFF  727,FE1
03F86:  MOVF   FE7,F
03F88:  MOVFF  FE6,FEE
03F8C:  BNZ   3F86
....................    if(sombreado==2) 
03F8E:  MOVF   x2B,W
03F90:  SUBLW  02
03F92:  BNZ   3FBC
....................       {glcd_text57(x+1, y+1, Menus.Letra, tamano, ON);} 
03F94:  MOVLW  01
03F96:  ADDWF  x29,W
03F98:  MOVWF  x2D
03F9A:  MOVLW  01
03F9C:  ADDWF  x2A,W
03F9E:  MOVWF  x2E
03FA0:  MOVFF  72D,73B
03FA4:  MOVWF  x3C
03FA6:  MOVLW  07
03FA8:  MOVWF  x3E
03FAA:  MOVLW  12
03FAC:  MOVWF  x3D
03FAE:  MOVFF  72C,73F
03FB2:  MOVLW  01
03FB4:  MOVWF  x40
03FB6:  MOVLB  0
03FB8:  RCALL  3BAC
03FBA:  MOVLB  7
....................    if(sombreado==1) 
03FBC:  DECFSZ x2B,W
03FBE:  BRA    400A
....................       {glcd_rect(0, y, 127, y+(tamano*8), YES, ON);glcd_text57(x+1, y+1, Menus.Letra, tamano, OFF);} 
03FC0:  MOVF   x2C,W
03FC2:  MULLW  08
03FC4:  MOVF   FF3,W
03FC6:  ADDWF  x2A,W
03FC8:  MOVWF  x2D
03FCA:  CLRF   x3D
03FCC:  MOVFF  72A,73E
03FD0:  MOVLW  7F
03FD2:  MOVWF  x3F
03FD4:  MOVFF  72D,740
03FD8:  MOVLW  01
03FDA:  MOVWF  x41
03FDC:  MOVWF  x42
03FDE:  MOVLB  0
03FE0:  RCALL  3EA2
03FE2:  MOVLW  01
03FE4:  MOVLB  7
03FE6:  ADDWF  x29,W
03FE8:  MOVWF  x2D
03FEA:  MOVLW  01
03FEC:  ADDWF  x2A,W
03FEE:  MOVWF  x2E
03FF0:  MOVFF  72D,73B
03FF4:  MOVWF  x3C
03FF6:  MOVLW  07
03FF8:  MOVWF  x3E
03FFA:  MOVLW  12
03FFC:  MOVWF  x3D
03FFE:  MOVFF  72C,73F
04002:  CLRF   x40
04004:  MOVLB  0
04006:  RCALL  3BAC
04008:  MOVLB  7
....................    if(sombreado==0) 
0400A:  MOVF   x2B,F
0400C:  BNZ   4058
....................       {glcd_rect(0, y, 127, y+(tamano*8), YES, OFF);glcd_text57(x+1, y+1, Menus.Letra, tamano, ON);} 
0400E:  MOVF   x2C,W
04010:  MULLW  08
04012:  MOVF   FF3,W
04014:  ADDWF  x2A,W
04016:  MOVWF  x2D
04018:  CLRF   x3D
0401A:  MOVFF  72A,73E
0401E:  MOVLW  7F
04020:  MOVWF  x3F
04022:  MOVFF  72D,740
04026:  MOVLW  01
04028:  MOVWF  x41
0402A:  CLRF   x42
0402C:  MOVLB  0
0402E:  RCALL  3EA2
04030:  MOVLW  01
04032:  MOVLB  7
04034:  ADDWF  x29,W
04036:  MOVWF  x2D
04038:  MOVLW  01
0403A:  ADDWF  x2A,W
0403C:  MOVWF  x2E
0403E:  MOVFF  72D,73B
04042:  MOVWF  x3C
04044:  MOVLW  07
04046:  MOVWF  x3E
04048:  MOVLW  12
0404A:  MOVWF  x3D
0404C:  MOVFF  72C,73F
04050:  MOVLW  01
04052:  MOVWF  x40
04054:  MOVLB  0
04056:  RCALL  3BAC
....................    glcd_update(); 
04058:  MOVLB  0
0405A:  RCALL  3990
.................... } 
0405C:  RETLW  00
....................  
.................... void displayTiempo(int digito, int x, int y, int sombreado, int tamano) 
.................... { 
....................    char voltage[9]; 
....................     
....................    if(sombreado==2) 
*
05756:  MOVLB  7
05758:  MOVF   x2A,W
0575A:  SUBLW  02
0575C:  BNZ   57CE
....................    { 
....................       sprintf(voltage, "%03u", digito); 
0575E:  MOVLW  07
05760:  MOVWF  x26
05762:  MOVLW  2C
05764:  MOVWF  x25
05766:  MOVFF  727,735
0576A:  MOVLW  03
0576C:  MOVWF  x36
0576E:  MOVLB  0
05770:  RCALL  56D0
....................       glcd_rect(x, y, x+(tamano*18), y+(tamano*8), YES, ON); 
05772:  MOVLB  7
05774:  MOVF   x2B,W
05776:  MULLW  12
05778:  MOVF   FF3,W
0577A:  ADDWF  x28,W
0577C:  MOVWF  x35
0577E:  MOVF   x2B,W
05780:  MULLW  08
05782:  MOVF   FF3,W
05784:  ADDWF  x29,W
05786:  MOVWF  x36
05788:  MOVFF  728,73D
0578C:  MOVFF  729,73E
05790:  MOVFF  735,73F
05794:  MOVWF  x40
05796:  MOVLW  01
05798:  MOVWF  x41
0579A:  MOVWF  x42
0579C:  MOVLB  0
0579E:  CALL   3EA2
....................       glcd_text57(x+1, y+1, voltage, tamano, OFF); 
057A2:  MOVLW  01
057A4:  MOVLB  7
057A6:  ADDWF  x28,W
057A8:  MOVWF  x35
057AA:  MOVLW  01
057AC:  ADDWF  x29,W
057AE:  MOVWF  x36
057B0:  MOVFF  735,73B
057B4:  MOVWF  x3C
057B6:  MOVLW  07
057B8:  MOVWF  x3E
057BA:  MOVLW  2C
057BC:  MOVWF  x3D
057BE:  MOVFF  72B,73F
057C2:  CLRF   x40
057C4:  MOVLB  0
057C6:  CALL   3BAC
....................    } 
....................    else 
057CA:  BRA    589C
057CC:  MOVLB  7
....................    { 
....................       sprintf(voltage, "%u", digito); 
057CE:  MOVLW  07
057D0:  MOVWF  x26
057D2:  MOVLW  2C
057D4:  MOVWF  x25
057D6:  MOVFF  727,735
057DA:  MOVLW  1B
057DC:  MOVWF  x36
057DE:  MOVLB  0
057E0:  RCALL  56D0
....................     
....................       if(sombreado==1) 
057E2:  MOVLB  7
057E4:  DECFSZ x2A,W
057E6:  BRA    5840
....................          {glcd_rect(x, y, x+(tamano*5), y+(tamano*8), YES, ON);glcd_text57(x+1, y+1, voltage, tamano, OFF);} 
057E8:  MOVF   x2B,W
057EA:  MULLW  05
057EC:  MOVF   FF3,W
057EE:  ADDWF  x28,W
057F0:  MOVWF  x35
057F2:  MOVF   x2B,W
057F4:  MULLW  08
057F6:  MOVF   FF3,W
057F8:  ADDWF  x29,W
057FA:  MOVWF  x36
057FC:  MOVFF  728,73D
05800:  MOVFF  729,73E
05804:  MOVFF  735,73F
05808:  MOVWF  x40
0580A:  MOVLW  01
0580C:  MOVWF  x41
0580E:  MOVWF  x42
05810:  MOVLB  0
05812:  CALL   3EA2
05816:  MOVLW  01
05818:  MOVLB  7
0581A:  ADDWF  x28,W
0581C:  MOVWF  x35
0581E:  MOVLW  01
05820:  ADDWF  x29,W
05822:  MOVWF  x36
05824:  MOVFF  735,73B
05828:  MOVWF  x3C
0582A:  MOVLW  07
0582C:  MOVWF  x3E
0582E:  MOVLW  2C
05830:  MOVWF  x3D
05832:  MOVFF  72B,73F
05836:  CLRF   x40
05838:  MOVLB  0
0583A:  CALL   3BAC
0583E:  MOVLB  7
....................       if(sombreado==0) 
05840:  MOVF   x2A,F
05842:  BNZ   589E
....................          {glcd_rect(x, y, x+(tamano*5), y+(tamano*8), YES, OFF);glcd_text57(x+1, y+1, voltage, tamano, ON);} 
05844:  MOVF   x2B,W
05846:  MULLW  05
05848:  MOVF   FF3,W
0584A:  ADDWF  x28,W
0584C:  MOVWF  x35
0584E:  MOVF   x2B,W
05850:  MULLW  08
05852:  MOVF   FF3,W
05854:  ADDWF  x29,W
05856:  MOVWF  x36
05858:  MOVFF  728,73D
0585C:  MOVFF  729,73E
05860:  MOVFF  735,73F
05864:  MOVWF  x40
05866:  MOVLW  01
05868:  MOVWF  x41
0586A:  CLRF   x42
0586C:  MOVLB  0
0586E:  CALL   3EA2
05872:  MOVLW  01
05874:  MOVLB  7
05876:  ADDWF  x28,W
05878:  MOVWF  x35
0587A:  MOVLW  01
0587C:  ADDWF  x29,W
0587E:  MOVWF  x36
05880:  MOVFF  735,73B
05884:  MOVWF  x3C
05886:  MOVLW  07
05888:  MOVWF  x3E
0588A:  MOVLW  2C
0588C:  MOVWF  x3D
0588E:  MOVFF  72B,73F
05892:  MOVLW  01
05894:  MOVWF  x40
05896:  MOVLB  0
05898:  CALL   3BAC
0589C:  MOVLB  7
....................    } 
....................    glcd_update(); 
0589E:  MOVLB  0
058A0:  CALL   3990
.................... } 
058A4:  RETLW  00
....................  
.................... void glcd_imagen(int8 x) 
.................... { 
....................    char i,j; 
....................    signed char k;  
....................     
....................    if(x==6){ 
*
0509C:  MOVLB  7
0509E:  MOVF   x28,W
050A0:  SUBLW  06
050A2:  BNZ   5148
....................    for( i = 0 ; i < 64 ; i ++ ) 
050A4:  CLRF   x29
050A6:  MOVF   x29,W
050A8:  SUBLW  3F
050AA:  BNC   5148
....................    {   
....................       for( j = 0 ; j < 16 ; j ++) 
050AC:  CLRF   x2A
050AE:  MOVF   x2A,W
050B0:  SUBLW  0F
050B2:  BNC   5144
....................       {     
....................          for(k=7;k>-1;k--) 
050B4:  MOVLW  07
050B6:  MOVWF  x2B
050B8:  MOVF   x2B,W
050BA:  XORLW  80
050BC:  SUBLW  7F
050BE:  BC    5140
....................          {       
....................             if( bit_test(GraficaVacio[i][j] ,7-k ))  
050C0:  CLRF   x2D
050C2:  MOVFF  729,72C
050C6:  CLRF   x2F
050C8:  MOVLW  10
050CA:  MOVWF  x2E
050CC:  MOVLB  0
050CE:  CALL   3554
050D2:  MOVFF  02,72D
050D6:  MOVFF  01,72C
050DA:  MOVLB  7
050DC:  MOVF   x2A,W
050DE:  ADDWF  01,W
050E0:  MOVWF  01
050E2:  MOVLW  00
050E4:  ADDWFC 02,W
050E6:  MOVWF  03
050E8:  MOVF   01,W
050EA:  MOVFF  FF2,72C
050EE:  BCF    FF2.7
050F0:  MOVFF  03,FF7
050F4:  MOVLB  0
050F6:  CALL   02C2
050FA:  MOVLB  7
050FC:  BTFSC  x2C.7
050FE:  BSF    FF2.7
05100:  MOVWF  x2C
05102:  MOVLW  07
05104:  BSF    FD8.0
05106:  SUBFWB x2B,W
05108:  MOVWF  x2D
0510A:  MOVFF  72C,00
0510E:  MOVF   x2D,W
05110:  MOVWF  01
05112:  BZ    511C
05114:  BCF    FD8.0
05116:  RRCF   00,F
05118:  DECFSZ 01,F
0511A:  BRA    5114
0511C:  BTFSS  00.0
0511E:  BRA    513C
....................                glcd_pixel( j*8+k,i, ON ); 
05120:  MOVF   x2A,W
05122:  MULLW  08
05124:  MOVF   FF3,W
05126:  ADDWF  x2B,W
05128:  MOVWF  x2C
0512A:  MOVWF  x58
0512C:  MOVFF  729,759
05130:  MOVLW  01
05132:  MOVWF  x5A
05134:  MOVLB  0
05136:  CALL   3AF0
0513A:  MOVLB  7
....................          }   
0513C:  DECF   x2B,F
0513E:  BRA    50B8
....................       } 
05140:  INCF   x2A,F
05142:  BRA    50AE
....................    } 
05144:  INCF   x29,F
05146:  BRA    50A6
....................    } 
....................     
....................    if(x==7){ 
05148:  MOVF   x28,W
0514A:  SUBLW  07
0514C:  BNZ   51F2
....................    for( i = 0 ; i < 64 ; i ++ ) 
0514E:  CLRF   x29
05150:  MOVF   x29,W
05152:  SUBLW  3F
05154:  BNC   51F2
....................    {   
....................       for( j = 0 ; j < 16 ; j ++) 
05156:  CLRF   x2A
05158:  MOVF   x2A,W
0515A:  SUBLW  0F
0515C:  BNC   51EE
....................       {     
....................          for(k=7;k>-1;k--) 
0515E:  MOVLW  07
05160:  MOVWF  x2B
05162:  MOVF   x2B,W
05164:  XORLW  80
05166:  SUBLW  7F
05168:  BC    51EA
....................          {       
....................             if( bit_test(CuadradoVacio[i][j] ,7-k ))  
0516A:  CLRF   x2D
0516C:  MOVFF  729,72C
05170:  CLRF   x2F
05172:  MOVLW  10
05174:  MOVWF  x2E
05176:  MOVLB  0
05178:  CALL   3554
0517C:  MOVFF  02,72D
05180:  MOVFF  01,72C
05184:  MOVLB  7
05186:  MOVF   x2A,W
05188:  ADDWF  01,W
0518A:  MOVWF  01
0518C:  MOVLW  00
0518E:  ADDWFC 02,W
05190:  MOVWF  03
05192:  MOVF   01,W
05194:  MOVFF  FF2,72C
05198:  BCF    FF2.7
0519A:  MOVFF  03,FF7
0519E:  MOVLB  0
051A0:  CALL   06DE
051A4:  MOVLB  7
051A6:  BTFSC  x2C.7
051A8:  BSF    FF2.7
051AA:  MOVWF  x2C
051AC:  MOVLW  07
051AE:  BSF    FD8.0
051B0:  SUBFWB x2B,W
051B2:  MOVWF  x2D
051B4:  MOVFF  72C,00
051B8:  MOVF   x2D,W
051BA:  MOVWF  01
051BC:  BZ    51C6
051BE:  BCF    FD8.0
051C0:  RRCF   00,F
051C2:  DECFSZ 01,F
051C4:  BRA    51BE
051C6:  BTFSS  00.0
051C8:  BRA    51E6
....................                glcd_pixel( j*8+k,i, ON ); 
051CA:  MOVF   x2A,W
051CC:  MULLW  08
051CE:  MOVF   FF3,W
051D0:  ADDWF  x2B,W
051D2:  MOVWF  x2C
051D4:  MOVWF  x58
051D6:  MOVFF  729,759
051DA:  MOVLW  01
051DC:  MOVWF  x5A
051DE:  MOVLB  0
051E0:  CALL   3AF0
051E4:  MOVLB  7
....................          }   
051E6:  DECF   x2B,F
051E8:  BRA    5162
....................       } 
051EA:  INCF   x2A,F
051EC:  BRA    5158
....................    } 
051EE:  INCF   x29,F
051F0:  BRA    5150
....................    } 
....................     
....................    if(x==8){ 
051F2:  MOVF   x28,W
051F4:  SUBLW  08
051F6:  BNZ   529C
....................    for( i = 0 ; i < 64 ; i ++ ) 
051F8:  CLRF   x29
051FA:  MOVF   x29,W
051FC:  SUBLW  3F
051FE:  BNC   529C
....................    {   
....................       for( j = 0 ; j < 16 ; j ++) 
05200:  CLRF   x2A
05202:  MOVF   x2A,W
05204:  SUBLW  0F
05206:  BNC   5298
....................       {     
....................          for(k=7;k>-1;k--) 
05208:  MOVLW  07
0520A:  MOVWF  x2B
0520C:  MOVF   x2B,W
0520E:  XORLW  80
05210:  SUBLW  7F
05212:  BC    5294
....................          {       
....................             if( bit_test(CuadradoCalentando[i][j] ,7-k ))  
05214:  CLRF   x2D
05216:  MOVFF  729,72C
0521A:  CLRF   x2F
0521C:  MOVLW  10
0521E:  MOVWF  x2E
05220:  MOVLB  0
05222:  CALL   3554
05226:  MOVFF  02,72D
0522A:  MOVFF  01,72C
0522E:  MOVLB  7
05230:  MOVF   x2A,W
05232:  ADDWF  01,W
05234:  MOVWF  01
05236:  MOVLW  00
05238:  ADDWFC 02,W
0523A:  MOVWF  03
0523C:  MOVF   01,W
0523E:  MOVFF  FF2,72C
05242:  BCF    FF2.7
05244:  MOVFF  03,FF7
05248:  MOVLB  0
0524A:  CALL   0AFA
0524E:  MOVLB  7
05250:  BTFSC  x2C.7
05252:  BSF    FF2.7
05254:  MOVWF  x2C
05256:  MOVLW  07
05258:  BSF    FD8.0
0525A:  SUBFWB x2B,W
0525C:  MOVWF  x2D
0525E:  MOVFF  72C,00
05262:  MOVF   x2D,W
05264:  MOVWF  01
05266:  BZ    5270
05268:  BCF    FD8.0
0526A:  RRCF   00,F
0526C:  DECFSZ 01,F
0526E:  BRA    5268
05270:  BTFSS  00.0
05272:  BRA    5290
....................                glcd_pixel( j*8+k,i, ON ); 
05274:  MOVF   x2A,W
05276:  MULLW  08
05278:  MOVF   FF3,W
0527A:  ADDWF  x2B,W
0527C:  MOVWF  x2C
0527E:  MOVWF  x58
05280:  MOVFF  729,759
05284:  MOVLW  01
05286:  MOVWF  x5A
05288:  MOVLB  0
0528A:  CALL   3AF0
0528E:  MOVLB  7
....................          }   
05290:  DECF   x2B,F
05292:  BRA    520C
....................       } 
05294:  INCF   x2A,F
05296:  BRA    5202
....................    } 
05298:  INCF   x29,F
0529A:  BRA    51FA
....................    } 
....................     
....................    if(x==9){ 
0529C:  MOVF   x28,W
0529E:  SUBLW  09
052A0:  BNZ   5346
....................    for( i = 0 ; i < 64 ; i ++ ) 
052A2:  CLRF   x29
052A4:  MOVF   x29,W
052A6:  SUBLW  3F
052A8:  BNC   5346
....................    {   
....................       for( j = 0 ; j < 16 ; j ++) 
052AA:  CLRF   x2A
052AC:  MOVF   x2A,W
052AE:  SUBLW  0F
052B0:  BNC   5342
....................       {     
....................          for(k=7;k>-1;k--) 
052B2:  MOVLW  07
052B4:  MOVWF  x2B
052B6:  MOVF   x2B,W
052B8:  XORLW  80
052BA:  SUBLW  7F
052BC:  BC    533E
....................          {       
....................             if( bit_test(CuadradoEsterilizando[i][j] ,7-k ))  
052BE:  CLRF   x2D
052C0:  MOVFF  729,72C
052C4:  CLRF   x2F
052C6:  MOVLW  10
052C8:  MOVWF  x2E
052CA:  MOVLB  0
052CC:  CALL   3554
052D0:  MOVFF  02,72D
052D4:  MOVFF  01,72C
052D8:  MOVLB  7
052DA:  MOVF   x2A,W
052DC:  ADDWF  01,W
052DE:  MOVWF  01
052E0:  MOVLW  00
052E2:  ADDWFC 02,W
052E4:  MOVWF  03
052E6:  MOVF   01,W
052E8:  MOVFF  FF2,72C
052EC:  BCF    FF2.7
052EE:  MOVFF  03,FF7
052F2:  MOVLB  0
052F4:  CALL   0F16
052F8:  MOVLB  7
052FA:  BTFSC  x2C.7
052FC:  BSF    FF2.7
052FE:  MOVWF  x2C
05300:  MOVLW  07
05302:  BSF    FD8.0
05304:  SUBFWB x2B,W
05306:  MOVWF  x2D
05308:  MOVFF  72C,00
0530C:  MOVF   x2D,W
0530E:  MOVWF  01
05310:  BZ    531A
05312:  BCF    FD8.0
05314:  RRCF   00,F
05316:  DECFSZ 01,F
05318:  BRA    5312
0531A:  BTFSS  00.0
0531C:  BRA    533A
....................                glcd_pixel( j*8+k,i, ON ); 
0531E:  MOVF   x2A,W
05320:  MULLW  08
05322:  MOVF   FF3,W
05324:  ADDWF  x2B,W
05326:  MOVWF  x2C
05328:  MOVWF  x58
0532A:  MOVFF  729,759
0532E:  MOVLW  01
05330:  MOVWF  x5A
05332:  MOVLB  0
05334:  CALL   3AF0
05338:  MOVLB  7
....................          }   
0533A:  DECF   x2B,F
0533C:  BRA    52B6
....................       } 
0533E:  INCF   x2A,F
05340:  BRA    52AC
....................    } 
05342:  INCF   x29,F
05344:  BRA    52A4
....................    } 
....................     
....................    if(x==10){ 
05346:  MOVF   x28,W
05348:  SUBLW  0A
0534A:  BNZ   53F0
....................    for( i = 0 ; i < 64 ; i ++ ) 
0534C:  CLRF   x29
0534E:  MOVF   x29,W
05350:  SUBLW  3F
05352:  BNC   53F0
....................    {   
....................       for( j = 0 ; j < 16 ; j ++) 
05354:  CLRF   x2A
05356:  MOVF   x2A,W
05358:  SUBLW  0F
0535A:  BNC   53EC
....................       {     
....................          for(k=7;k>-1;k--) 
0535C:  MOVLW  07
0535E:  MOVWF  x2B
05360:  MOVF   x2B,W
05362:  XORLW  80
05364:  SUBLW  7F
05366:  BC    53E8
....................          {       
....................             if( bit_test(CuadradoDesfogando[i][j] ,7-k ))  
05368:  CLRF   x2D
0536A:  MOVFF  729,72C
0536E:  CLRF   x2F
05370:  MOVLW  10
05372:  MOVWF  x2E
05374:  MOVLB  0
05376:  CALL   3554
0537A:  MOVFF  02,72D
0537E:  MOVFF  01,72C
05382:  MOVLB  7
05384:  MOVF   x2A,W
05386:  ADDWF  01,W
05388:  MOVWF  01
0538A:  MOVLW  00
0538C:  ADDWFC 02,W
0538E:  MOVWF  03
05390:  MOVF   01,W
05392:  MOVFF  FF2,72C
05396:  BCF    FF2.7
05398:  MOVFF  03,FF7
0539C:  MOVLB  0
0539E:  CALL   1332
053A2:  MOVLB  7
053A4:  BTFSC  x2C.7
053A6:  BSF    FF2.7
053A8:  MOVWF  x2C
053AA:  MOVLW  07
053AC:  BSF    FD8.0
053AE:  SUBFWB x2B,W
053B0:  MOVWF  x2D
053B2:  MOVFF  72C,00
053B6:  MOVF   x2D,W
053B8:  MOVWF  01
053BA:  BZ    53C4
053BC:  BCF    FD8.0
053BE:  RRCF   00,F
053C0:  DECFSZ 01,F
053C2:  BRA    53BC
053C4:  BTFSS  00.0
053C6:  BRA    53E4
....................                glcd_pixel( j*8+k,i, ON ); 
053C8:  MOVF   x2A,W
053CA:  MULLW  08
053CC:  MOVF   FF3,W
053CE:  ADDWF  x2B,W
053D0:  MOVWF  x2C
053D2:  MOVWF  x58
053D4:  MOVFF  729,759
053D8:  MOVLW  01
053DA:  MOVWF  x5A
053DC:  MOVLB  0
053DE:  CALL   3AF0
053E2:  MOVLB  7
....................          }   
053E4:  DECF   x2B,F
053E6:  BRA    5360
....................       } 
053E8:  INCF   x2A,F
053EA:  BRA    5356
....................    } 
053EC:  INCF   x29,F
053EE:  BRA    534E
....................    } 
....................     
....................    if(x==11){ 
053F0:  MOVF   x28,W
053F2:  SUBLW  0B
053F4:  BNZ   549A
....................    for( i = 0 ; i < 64 ; i ++ ) 
053F6:  CLRF   x29
053F8:  MOVF   x29,W
053FA:  SUBLW  3F
053FC:  BNC   549A
....................    {   
....................       for( j = 0 ; j < 16 ; j ++) 
053FE:  CLRF   x2A
05400:  MOVF   x2A,W
05402:  SUBLW  0F
05404:  BNC   5496
....................       {     
....................          for(k=7;k>-1;k--) 
05406:  MOVLW  07
05408:  MOVWF  x2B
0540A:  MOVF   x2B,W
0540C:  XORLW  80
0540E:  SUBLW  7F
05410:  BC    5492
....................          {       
....................             if( bit_test(CuadradoSecando[i][j] ,7-k ))  
05412:  CLRF   x2D
05414:  MOVFF  729,72C
05418:  CLRF   x2F
0541A:  MOVLW  10
0541C:  MOVWF  x2E
0541E:  MOVLB  0
05420:  CALL   3554
05424:  MOVFF  02,72D
05428:  MOVFF  01,72C
0542C:  MOVLB  7
0542E:  MOVF   x2A,W
05430:  ADDWF  01,W
05432:  MOVWF  01
05434:  MOVLW  00
05436:  ADDWFC 02,W
05438:  MOVWF  03
0543A:  MOVF   01,W
0543C:  MOVFF  FF2,72C
05440:  BCF    FF2.7
05442:  MOVFF  03,FF7
05446:  MOVLB  0
05448:  CALL   174E
0544C:  MOVLB  7
0544E:  BTFSC  x2C.7
05450:  BSF    FF2.7
05452:  MOVWF  x2C
05454:  MOVLW  07
05456:  BSF    FD8.0
05458:  SUBFWB x2B,W
0545A:  MOVWF  x2D
0545C:  MOVFF  72C,00
05460:  MOVF   x2D,W
05462:  MOVWF  01
05464:  BZ    546E
05466:  BCF    FD8.0
05468:  RRCF   00,F
0546A:  DECFSZ 01,F
0546C:  BRA    5466
0546E:  BTFSS  00.0
05470:  BRA    548E
....................                glcd_pixel( j*8+k,i, ON ); 
05472:  MOVF   x2A,W
05474:  MULLW  08
05476:  MOVF   FF3,W
05478:  ADDWF  x2B,W
0547A:  MOVWF  x2C
0547C:  MOVWF  x58
0547E:  MOVFF  729,759
05482:  MOVLW  01
05484:  MOVWF  x5A
05486:  MOVLB  0
05488:  CALL   3AF0
0548C:  MOVLB  7
....................          }   
0548E:  DECF   x2B,F
05490:  BRA    540A
....................       } 
05492:  INCF   x2A,F
05494:  BRA    5400
....................    } 
05496:  INCF   x29,F
05498:  BRA    53F8
....................    } 
....................     
....................    if(x==12){ 
0549A:  MOVF   x28,W
0549C:  SUBLW  0C
0549E:  BNZ   552C
....................       glcd_line(4,54,4,15,ON); 
054A0:  MOVLW  04
054A2:  MOVWF  x48
054A4:  MOVLW  36
054A6:  MOVWF  x49
054A8:  MOVLW  04
054AA:  MOVWF  x4A
054AC:  MOVLW  0F
054AE:  MOVWF  x4B
054B0:  MOVLW  01
054B2:  MOVWF  x4C
054B4:  MOVLB  0
054B6:  CALL   3D64
....................       glcd_line(4,54,85,54,ON); 
054BA:  MOVLW  04
054BC:  MOVLB  7
054BE:  MOVWF  x48
054C0:  MOVLW  36
054C2:  MOVWF  x49
054C4:  MOVLW  55
054C6:  MOVWF  x4A
054C8:  MOVLW  36
054CA:  MOVWF  x4B
054CC:  MOVLW  01
054CE:  MOVWF  x4C
054D0:  MOVLB  0
054D2:  CALL   3D64
....................       glcd_line(4,35,18,51,ON); 
054D6:  MOVLW  04
054D8:  MOVLB  7
054DA:  MOVWF  x48
054DC:  MOVLW  23
054DE:  MOVWF  x49
054E0:  MOVLW  12
054E2:  MOVWF  x4A
054E4:  MOVLW  33
054E6:  MOVWF  x4B
054E8:  MOVLW  01
054EA:  MOVWF  x4C
054EC:  MOVLB  0
054EE:  CALL   3D64
....................       glcd_line(18,51,81,51,ON); 
054F2:  MOVLW  12
054F4:  MOVLB  7
054F6:  MOVWF  x48
054F8:  MOVLW  33
054FA:  MOVWF  x49
054FC:  MOVLW  51
054FE:  MOVWF  x4A
05500:  MOVLW  33
05502:  MOVWF  x4B
05504:  MOVLW  01
05506:  MOVWF  x4C
05508:  MOVLB  0
0550A:  CALL   3D64
....................       glcd_line(81,51,89,37,ON); 
0550E:  MOVLW  51
05510:  MOVLB  7
05512:  MOVWF  x48
05514:  MOVLW  33
05516:  MOVWF  x49
05518:  MOVLW  59
0551A:  MOVWF  x4A
0551C:  MOVLW  25
0551E:  MOVWF  x4B
05520:  MOVLW  01
05522:  MOVWF  x4C
05524:  MOVLB  0
05526:  CALL   3D64
0552A:  MOVLB  7
....................    } 
.................... } 
0552C:  MOVLB  0
0552E:  RETLW  00
....................  
.................... void CuadroVacio(short estado){ 
....................    if(estado){ 
*
05A2C:  MOVLB  7
05A2E:  MOVF   x27,F
05A30:  BZ    5A5C
....................       if(!PosVacio){ 
05A32:  MOVLB  4
05A34:  BTFSC  x63.4
05A36:  BRA    5A5A
....................          glcd_fillscreen(OFF); 
05A38:  MOVLB  7
05A3A:  CLRF   x28
05A3C:  MOVLB  0
05A3E:  CALL   3936
....................          glcd_imagen(7); 
05A42:  MOVLW  07
05A44:  MOVLB  7
05A46:  MOVWF  x28
05A48:  MOVLB  0
05A4A:  CALL   509C
....................          PosVacio=ON; 
05A4E:  MOVLB  4
05A50:  BSF    x63.4
....................          PosCalentando=OFF; 
05A52:  BCF    x63.5
....................          PosEsterilizando=OFF; 
05A54:  BCF    x63.6
....................          PosDesfogando=OFF; 
05A56:  BCF    x63.7
....................          PosSecando=OFF; 
05A58:  BCF    x64.0
05A5A:  MOVLB  7
....................       } 
....................    } 
.................... } 
05A5C:  MOVLB  0
05A5E:  RETLW  00
....................  
.................... void CuadroCalentando(short estado){ 
....................    if(estado){ 
05A60:  MOVLB  7
05A62:  MOVF   x27,F
05A64:  BZ    5A90
....................       if(!PosCalentando){ 
05A66:  MOVLB  4
05A68:  BTFSC  x63.5
05A6A:  BRA    5A8E
....................          glcd_fillscreen(OFF); 
05A6C:  MOVLB  7
05A6E:  CLRF   x28
05A70:  MOVLB  0
05A72:  CALL   3936
....................          glcd_imagen(8); 
05A76:  MOVLW  08
05A78:  MOVLB  7
05A7A:  MOVWF  x28
05A7C:  MOVLB  0
05A7E:  CALL   509C
....................          PosVacio=OFF; 
05A82:  MOVLB  4
05A84:  BCF    x63.4
....................          PosCalentando=ON; 
05A86:  BSF    x63.5
....................          PosEsterilizando=OFF; 
05A88:  BCF    x63.6
....................          PosDesfogando=OFF; 
05A8A:  BCF    x63.7
....................          PosSecando=OFF; 
05A8C:  BCF    x64.0
05A8E:  MOVLB  7
....................       } 
....................    } 
.................... } 
05A90:  MOVLB  0
05A92:  RETLW  00
....................  
.................... void CuadroEsterilizando(short estado){ 
....................    if(estado){ 
*
05ED0:  MOVLB  7
05ED2:  MOVF   x27,F
05ED4:  BZ    5F00
....................       if(!PosEsterilizando){ 
05ED6:  MOVLB  4
05ED8:  BTFSC  x63.6
05EDA:  BRA    5EFE
....................          glcd_fillscreen(OFF); 
05EDC:  MOVLB  7
05EDE:  CLRF   x28
05EE0:  MOVLB  0
05EE2:  CALL   3936
....................          glcd_imagen(9); 
05EE6:  MOVLW  09
05EE8:  MOVLB  7
05EEA:  MOVWF  x28
05EEC:  MOVLB  0
05EEE:  CALL   509C
....................          PosVacio=OFF; 
05EF2:  MOVLB  4
05EF4:  BCF    x63.4
....................          PosCalentando=OFF; 
05EF6:  BCF    x63.5
....................          PosEsterilizando=ON; 
05EF8:  BSF    x63.6
....................          PosDesfogando=OFF; 
05EFA:  BCF    x63.7
....................          PosSecando=OFF; 
05EFC:  BCF    x64.0
05EFE:  MOVLB  7
....................       } 
....................    } 
.................... } 
05F00:  MOVLB  0
05F02:  RETLW  00
....................  
.................... void CuadroDesfogando(short estado){ 
....................    if(estado){ 
*
05E68:  MOVLB  7
05E6A:  MOVF   x27,F
05E6C:  BZ    5E98
....................       if(!PosDesfogando){ 
05E6E:  MOVLB  4
05E70:  BTFSC  x63.7
05E72:  BRA    5E96
....................          glcd_fillscreen(OFF); 
05E74:  MOVLB  7
05E76:  CLRF   x28
05E78:  MOVLB  0
05E7A:  CALL   3936
....................          glcd_imagen(10); 
05E7E:  MOVLW  0A
05E80:  MOVLB  7
05E82:  MOVWF  x28
05E84:  MOVLB  0
05E86:  CALL   509C
....................          PosVacio=OFF; 
05E8A:  MOVLB  4
05E8C:  BCF    x63.4
....................          PosCalentando=OFF; 
05E8E:  BCF    x63.5
....................          PosEsterilizando=OFF; 
05E90:  BCF    x63.6
....................          PosDesfogando=ON; 
05E92:  BSF    x63.7
....................          PosSecando=OFF; 
05E94:  BCF    x64.0
05E96:  MOVLB  7
....................       } 
....................    } 
.................... } 
05E98:  MOVLB  0
05E9A:  RETLW  00
....................  
.................... void CuadroSecando(short estado){ 
....................    if(estado){ 
05E9C:  MOVLB  7
05E9E:  MOVF   x27,F
05EA0:  BZ    5ECC
....................       if(!PosSecando){ 
05EA2:  MOVLB  4
05EA4:  BTFSC  x64.0
05EA6:  BRA    5ECA
....................          glcd_fillscreen(OFF); 
05EA8:  MOVLB  7
05EAA:  CLRF   x28
05EAC:  MOVLB  0
05EAE:  CALL   3936
....................          glcd_imagen(11); 
05EB2:  MOVLW  0B
05EB4:  MOVLB  7
05EB6:  MOVWF  x28
05EB8:  MOVLB  0
05EBA:  CALL   509C
....................          PosVacio=OFF; 
05EBE:  MOVLB  4
05EC0:  BCF    x63.4
....................          PosCalentando=OFF; 
05EC2:  BCF    x63.5
....................          PosEsterilizando=OFF; 
05EC4:  BCF    x63.6
....................          PosDesfogando=OFF; 
05EC6:  BCF    x63.7
....................          PosSecando=ON; 
05EC8:  BSF    x64.0
05ECA:  MOVLB  7
....................       } 
....................    } 
.................... } 
05ECC:  MOVLB  0
05ECE:  RETLW  00
....................  
.................... void BorraStatus(){ 
....................    glcd_rect(0, 55, 127, 63, YES, OFF); 
*
059E6:  MOVLB  7
059E8:  CLRF   x3D
059EA:  MOVLW  37
059EC:  MOVWF  x3E
059EE:  MOVLW  7F
059F0:  MOVWF  x3F
059F2:  MOVLW  3F
059F4:  MOVWF  x40
059F6:  MOVLW  01
059F8:  MOVWF  x41
059FA:  CLRF   x42
059FC:  MOVLB  0
059FE:  CALL   3EA2
.................... } 
05A02:  RETLW  00
....................  
....................  
....................  
.................... //Funciones//---------------------------- 
.................... void MuestraTiemposProgramados(){ 
.................... // Muestra Valor de esterilizacion programado. 
....................    displayTiempo(Testerilizacionp[3],36,0,0,1);displayTiempo(Testerilizacionp[2],42,0,0,1); 
*
058A6:  MOVFF  473,727
058AA:  MOVLW  24
058AC:  MOVLB  7
058AE:  MOVWF  x28
058B0:  CLRF   x29
058B2:  CLRF   x2A
058B4:  MOVLW  01
058B6:  MOVWF  x2B
058B8:  MOVLB  0
058BA:  RCALL  5756
058BC:  MOVFF  472,727
058C0:  MOVLW  2A
058C2:  MOVLB  7
058C4:  MOVWF  x28
058C6:  CLRF   x29
058C8:  CLRF   x2A
058CA:  MOVLW  01
058CC:  MOVWF  x2B
058CE:  MOVLB  0
058D0:  RCALL  5756
....................    strcpy(Menus.Letra,":");displayMenu(Menus.Letra,49,0,2,1);  
058D2:  MOVLW  07
058D4:  MOVWF  FEA
058D6:  MOVLW  12
058D8:  MOVWF  FE9
058DA:  MOVFF  FF2,727
058DE:  BCF    FF2.7
058E0:  MOVLW  00
058E2:  CALL   1B6A
058E6:  TBLRD*-
058E8:  TBLRD*+
058EA:  MOVF   FF5,W
058EC:  MOVWF  FEE
058EE:  IORLW  00
058F0:  BNZ   58E8
058F2:  MOVLB  7
058F4:  BTFSC  x27.7
058F6:  BSF    FF2.7
058F8:  MOVLW  07
058FA:  MOVWF  x28
058FC:  MOVLW  12
058FE:  MOVWF  x27
05900:  MOVLW  31
05902:  MOVWF  x29
05904:  CLRF   x2A
05906:  MOVLW  02
05908:  MOVWF  x2B
0590A:  MOVLW  01
0590C:  MOVWF  x2C
0590E:  MOVLB  0
05910:  CALL   3F64
....................    displayTiempo(Testerilizacionp[1],54,0,0,1);displayTiempo(Testerilizacionp[0],60,0,0,1); 
05914:  MOVFF  471,727
05918:  MOVLW  36
0591A:  MOVLB  7
0591C:  MOVWF  x28
0591E:  CLRF   x29
05920:  CLRF   x2A
05922:  MOVLW  01
05924:  MOVWF  x2B
05926:  MOVLB  0
05928:  RCALL  5756
0592A:  MOVFF  470,727
0592E:  MOVLW  3C
05930:  MOVLB  7
05932:  MOVWF  x28
05934:  CLRF   x29
05936:  CLRF   x2A
05938:  MOVLW  01
0593A:  MOVWF  x2B
0593C:  MOVLB  0
0593E:  RCALL  5756
.................... // Muestra tiempo de secado programado. 
....................    displayTiempo(Tsecadop[3],36,8,0,1);displayTiempo(Tsecadop[2],42,8,0,1); 
05940:  MOVFF  47B,727
05944:  MOVLW  24
05946:  MOVLB  7
05948:  MOVWF  x28
0594A:  MOVLW  08
0594C:  MOVWF  x29
0594E:  CLRF   x2A
05950:  MOVLW  01
05952:  MOVWF  x2B
05954:  MOVLB  0
05956:  RCALL  5756
05958:  MOVFF  47A,727
0595C:  MOVLW  2A
0595E:  MOVLB  7
05960:  MOVWF  x28
05962:  MOVLW  08
05964:  MOVWF  x29
05966:  CLRF   x2A
05968:  MOVLW  01
0596A:  MOVWF  x2B
0596C:  MOVLB  0
0596E:  RCALL  5756
....................    strcpy(Menus.Letra,":");displayMenu(Menus.Letra,49,8,2,1);  
05970:  MOVLW  07
05972:  MOVWF  FEA
05974:  MOVLW  12
05976:  MOVWF  FE9
05978:  MOVFF  FF2,727
0597C:  BCF    FF2.7
0597E:  MOVLW  00
05980:  CALL   1B6A
05984:  TBLRD*-
05986:  TBLRD*+
05988:  MOVF   FF5,W
0598A:  MOVWF  FEE
0598C:  IORLW  00
0598E:  BNZ   5986
05990:  MOVLB  7
05992:  BTFSC  x27.7
05994:  BSF    FF2.7
05996:  MOVLW  07
05998:  MOVWF  x28
0599A:  MOVLW  12
0599C:  MOVWF  x27
0599E:  MOVLW  31
059A0:  MOVWF  x29
059A2:  MOVLW  08
059A4:  MOVWF  x2A
059A6:  MOVLW  02
059A8:  MOVWF  x2B
059AA:  MOVLW  01
059AC:  MOVWF  x2C
059AE:  MOVLB  0
059B0:  CALL   3F64
....................    displayTiempo(Tsecadop[1],54,8,0,1);displayTiempo(Tsecadop[0],60,8,0,1); 
059B4:  MOVFF  479,727
059B8:  MOVLW  36
059BA:  MOVLB  7
059BC:  MOVWF  x28
059BE:  MOVLW  08
059C0:  MOVWF  x29
059C2:  CLRF   x2A
059C4:  MOVLW  01
059C6:  MOVWF  x2B
059C8:  MOVLB  0
059CA:  RCALL  5756
059CC:  MOVFF  478,727
059D0:  MOVLW  3C
059D2:  MOVLB  7
059D4:  MOVWF  x28
059D6:  MOVLW  08
059D8:  MOVWF  x29
059DA:  CLRF   x2A
059DC:  MOVLW  01
059DE:  MOVWF  x2B
059E0:  MOVLB  0
059E2:  RCALL  5756
.................... } 
059E4:  RETLW  00
....................  
.................... void ActualizaRecta(){ 
....................    X[y]=Temperature; 
*
04298:  MOVLB  6
0429A:  MOVF   xE4,W
0429C:  MULLW  04
0429E:  MOVF   FF3,W
042A0:  CLRF   03
042A2:  ADDLW  68
042A4:  MOVWF  FE9
042A6:  MOVLW  06
042A8:  ADDWFC 03,W
042AA:  MOVWF  FEA
042AC:  MOVFF  69D,FEF
042B0:  MOVFF  69E,FEC
042B4:  MOVFF  69F,FEC
042B8:  MOVFF  6A0,FEC
....................    y++; 
042BC:  INCF   xE4,F
....................    if(y>=2) 
042BE:  MOVF   xE4,W
042C0:  SUBLW  01
042C2:  BC    4300
....................    { 
....................       y=0; 
042C4:  CLRF   xE4
....................       Aumento=X[1]-X[0]; 
042C6:  BSF    FD8.1
042C8:  MOVFF  66F,72F
042CC:  MOVFF  66E,72E
042D0:  MOVFF  66D,72D
042D4:  MOVFF  66C,72C
042D8:  MOVFF  66B,733
042DC:  MOVFF  66A,732
042E0:  MOVFF  669,731
042E4:  MOVFF  668,730
042E8:  MOVLB  0
042EA:  CALL   3262
042EE:  MOVFF  03,677
042F2:  MOVFF  02,676
042F6:  MOVFF  01,675
042FA:  MOVFF  00,674
042FE:  MOVLB  6
....................    } 
.................... } 
04300:  MOVLB  0
04302:  GOTO   4430 (RETURN)
....................  
.................... // Funcion para conversor analogo-digital 
.................... float sensores(int x){ 
.................... float y;set_adc_channel(x);delay_ms(1);y=read_adc();return (y); 
*
04240:  MOVLB  7
04242:  RLCF   x28,W
04244:  MOVWF  00
04246:  RLCF   00,F
04248:  MOVLW  FC
0424A:  ANDWF  00,F
0424C:  MOVFF  00,01
04250:  MOVF   FC2,W
04252:  ANDLW  C3
04254:  IORWF  00,W
04256:  MOVWF  FC2
04258:  MOVLW  01
0425A:  MOVWF  x2D
0425C:  MOVLB  0
0425E:  CALL   30A6
04262:  BSF    FC2.1
04264:  BTFSC  FC2.1
04266:  BRA    4264
04268:  MOVFF  FC4,72E
0426C:  MOVFF  FC3,72D
04270:  MOVLB  0
04272:  CALL   30CE
04276:  MOVFF  03,72C
0427A:  MOVFF  02,72B
0427E:  MOVFF  01,72A
04282:  MOVFF  00,729
04286:  MOVFF  729,00
0428A:  MOVFF  72A,01
0428E:  MOVFF  72B,02
04292:  MOVFF  72C,03
.................... }#separate  
04296:  RETLW  00
.................... float LeerPT100(int media) 
.................... { 
....................    Prom=0.0; 
*
04306:  MOVLB  6
04308:  CLRF   x9C
0430A:  CLRF   x9B
0430C:  CLRF   x9A
0430E:  CLRF   x99
....................    V0 = sensores(0);   //Lectura de Divisor de Voltaje de PT100 con resistencia de 6.18k (+-2%) 
04310:  MOVLB  7
04312:  CLRF   x28
04314:  MOVLB  0
04316:  RCALL  4240
04318:  MOVFF  03,684
0431C:  MOVFF  02,683
04320:  MOVFF  01,682
04324:  MOVFF  00,681
....................    V0 = V0/Gain; // Se elimina la ganancia 
04328:  MOVFF  684,72F
0432C:  MOVFF  683,72E
04330:  MOVFF  682,72D
04334:  MOVFF  681,72C
04338:  MOVFF  65F,733
0433C:  MOVFF  65E,732
04340:  MOVFF  65D,731
04344:  MOVFF  65C,730
04348:  CALL   3104
0434C:  MOVFF  03,684
04350:  MOVFF  02,683
04354:  MOVFF  01,682
04358:  MOVFF  00,681
....................    Pt=(R1)/((1024.0/V0)-1.0); // Se calcula el valor de la PT100 
0435C:  MOVLB  7
0435E:  CLRF   x2F
04360:  CLRF   x2E
04362:  CLRF   x2D
04364:  MOVLW  89
04366:  MOVWF  x2C
04368:  MOVFF  684,733
0436C:  MOVFF  683,732
04370:  MOVFF  682,731
04374:  MOVFF  681,730
04378:  MOVLB  0
0437A:  CALL   3104
0437E:  MOVFF  00,728
04382:  MOVFF  01,729
04386:  MOVFF  02,72A
0438A:  MOVFF  03,72B
0438E:  BSF    FD8.1
04390:  MOVFF  03,72F
04394:  MOVFF  02,72E
04398:  MOVFF  01,72D
0439C:  MOVFF  00,72C
043A0:  MOVLB  7
043A2:  CLRF   x33
043A4:  CLRF   x32
043A6:  CLRF   x31
043A8:  MOVLW  7F
043AA:  MOVWF  x30
043AC:  MOVLB  0
043AE:  CALL   3262
043B2:  MOVFF  688,72F
043B6:  MOVFF  687,72E
043BA:  MOVFF  686,72D
043BE:  MOVFF  685,72C
043C2:  MOVFF  03,733
043C6:  MOVFF  02,732
043CA:  MOVFF  01,731
043CE:  MOVFF  00,730
043D2:  CALL   3104
043D6:  MOVFF  03,68C
043DA:  MOVFF  02,68B
043DE:  MOVFF  01,68A
043E2:  MOVFF  00,689
....................    Pt=Pt-RPT100; //Ajuste de impedancia de cableado de PT100 
043E6:  BSF    FD8.1
043E8:  MOVFF  68C,72F
043EC:  MOVFF  68B,72E
043F0:  MOVFF  68A,72D
043F4:  MOVFF  689,72C
043F8:  MOVFF  663,733
043FC:  MOVFF  662,732
04400:  MOVFF  661,731
04404:  MOVFF  660,730
04408:  CALL   3262
0440C:  MOVFF  03,68C
04410:  MOVFF  02,68B
04414:  MOVFF  01,68A
04418:  MOVFF  00,689
....................    //Temperature=(Pt-100.0)/(0.385);  // Ecuacin determinada por linealizacin en Matlab. Revisar este polinomio.   
....................              
....................    if(l>(media-1)) 
0441C:  MOVLW  01
0441E:  MOVLB  7
04420:  SUBWF  x27,W
04422:  MOVLB  6
04424:  SUBWF  x7D,W
04426:  BZ    4430
04428:  BNC   4430
....................    {l=0;ActualizaRecta();} 
0442A:  CLRF   x7D
0442C:  MOVLB  0
0442E:  BRA    4298
....................    //promedio[l]=Temperature;l++; 
....................    promedio[l]=Pt;l++; 
04430:  MOVLB  7
04432:  CLRF   x2D
04434:  MOVFF  67D,72C
04438:  CLRF   x2F
0443A:  MOVLW  04
0443C:  MOVWF  x2E
0443E:  MOVLB  0
04440:  CALL   3554
04444:  MOVF   01,W
04446:  ADDLW  7C
04448:  MOVWF  FE9
0444A:  MOVLW  04
0444C:  ADDWFC 02,W
0444E:  MOVWF  FEA
04450:  MOVFF  689,FEF
04454:  MOVFF  68A,FEC
04458:  MOVFF  68B,FEC
0445C:  MOVFF  68C,FEC
04460:  MOVLB  6
04462:  INCF   x7D,F
....................           
....................    for(h=0;h<media;h++) 
04464:  CLRF   x7C
04466:  MOVLB  7
04468:  MOVF   x27,W
0446A:  MOVLB  6
0446C:  SUBWF  x7C,W
0446E:  BC    44F0
....................    { 
....................       Prom+=promedio[h]; 
04470:  MOVLB  7
04472:  CLRF   x2D
04474:  MOVFF  67C,72C
04478:  CLRF   x2F
0447A:  MOVLW  04
0447C:  MOVWF  x2E
0447E:  MOVLB  0
04480:  CALL   3554
04484:  MOVFF  02,03
04488:  MOVF   01,W
0448A:  ADDLW  7C
0448C:  MOVWF  FE9
0448E:  MOVLW  04
04490:  ADDWFC 02,W
04492:  MOVWF  FEA
04494:  MOVFF  FEF,00
04498:  MOVFF  FEC,01
0449C:  MOVFF  FEC,02
044A0:  MOVFF  FEC,03
044A4:  MOVFF  FEA,729
044A8:  MOVFF  FE9,728
044AC:  BCF    FD8.1
044AE:  MOVFF  69C,72F
044B2:  MOVFF  69B,72E
044B6:  MOVFF  69A,72D
044BA:  MOVFF  699,72C
044BE:  MOVFF  03,733
044C2:  MOVFF  02,732
044C6:  MOVFF  01,731
044CA:  MOVFF  00,730
044CE:  CALL   3262
044D2:  MOVFF  729,FEA
044D6:  MOVFF  728,FE9
044DA:  MOVFF  03,69C
044DE:  MOVFF  02,69B
044E2:  MOVFF  01,69A
044E6:  MOVFF  00,699
....................    }  
044EA:  MOVLB  6
044EC:  INCF   x7C,F
044EE:  BRA    4466
....................    Prom=Prom/media;    
044F0:  MOVLB  7
044F2:  CLRF   x2E
044F4:  MOVFF  727,72D
044F8:  MOVLB  0
044FA:  CALL   30CE
044FE:  MOVFF  69C,72F
04502:  MOVFF  69B,72E
04506:  MOVFF  69A,72D
0450A:  MOVFF  699,72C
0450E:  MOVFF  03,733
04512:  MOVFF  02,732
04516:  MOVFF  01,731
0451A:  MOVFF  00,730
0451E:  CALL   3104
04522:  MOVFF  03,69C
04526:  MOVFF  02,69B
0452A:  MOVFF  01,69A
0452E:  MOVFF  00,699
....................    //Temperature=(Prom-100.0)/(0.385);  // Ecuacin determinada por linealizacin en Matlab. Revisar este polinomio.   
....................    Temperature=((Prom*Prom)*a)+(Prom*b)+c;  // Ecuacin determinada por linealizacin en Matlab. Revisar este polinomio. 
04532:  MOVFF  69C,74B
04536:  MOVFF  69B,74A
0453A:  MOVFF  69A,749
0453E:  MOVFF  699,748
04542:  MOVFF  69C,74F
04546:  MOVFF  69B,74E
0454A:  MOVFF  69A,74D
0454E:  MOVFF  699,74C
04552:  CALL   35B2
04556:  MOVFF  00,728
0455A:  MOVFF  01,729
0455E:  MOVFF  02,72A
04562:  MOVFF  03,72B
04566:  MOVFF  03,74B
0456A:  MOVFF  02,74A
0456E:  MOVFF  01,749
04572:  MOVFF  00,748
04576:  MOVFF  6CC,74F
0457A:  MOVFF  6CB,74E
0457E:  MOVFF  6CA,74D
04582:  MOVFF  6C9,74C
04586:  CALL   35B2
0458A:  MOVFF  00,728
0458E:  MOVFF  01,729
04592:  MOVFF  02,72A
04596:  MOVFF  03,72B
0459A:  MOVFF  69C,74B
0459E:  MOVFF  69B,74A
045A2:  MOVFF  69A,749
045A6:  MOVFF  699,748
045AA:  MOVFF  6D0,74F
045AE:  MOVFF  6CF,74E
045B2:  MOVFF  6CE,74D
045B6:  MOVFF  6CD,74C
045BA:  CALL   35B2
045BE:  BCF    FD8.1
045C0:  MOVFF  72B,72F
045C4:  MOVFF  72A,72E
045C8:  MOVFF  729,72D
045CC:  MOVFF  728,72C
045D0:  MOVFF  03,733
045D4:  MOVFF  02,732
045D8:  MOVFF  01,731
045DC:  MOVFF  00,730
045E0:  CALL   3262
045E4:  MOVFF  00,728
045E8:  MOVFF  01,729
045EC:  MOVFF  02,72A
045F0:  MOVFF  03,72B
045F4:  BCF    FD8.1
045F6:  MOVFF  03,72F
045FA:  MOVFF  02,72E
045FE:  MOVFF  01,72D
04602:  MOVFF  00,72C
04606:  MOVFF  6D4,733
0460A:  MOVFF  6D3,732
0460E:  MOVFF  6D2,731
04612:  MOVFF  6D1,730
04616:  CALL   3262
0461A:  MOVFF  03,6A0
0461E:  MOVFF  02,69F
04622:  MOVFF  01,69E
04626:  MOVFF  00,69D
....................    Temperature+=((float)Ajuste-(float)Ajusten); 
0462A:  MOVLB  7
0462C:  CLRF   x2E
0462E:  MOVFF  67E,72D
04632:  MOVLB  0
04634:  CALL   30CE
04638:  MOVFF  00,728
0463C:  MOVFF  01,729
04640:  MOVFF  02,72A
04644:  MOVFF  03,72B
04648:  MOVLB  7
0464A:  CLRF   x2E
0464C:  MOVFF  67F,72D
04650:  MOVLB  0
04652:  CALL   30CE
04656:  BSF    FD8.1
04658:  MOVFF  72B,72F
0465C:  MOVFF  72A,72E
04660:  MOVFF  729,72D
04664:  MOVFF  728,72C
04668:  MOVFF  03,733
0466C:  MOVFF  02,732
04670:  MOVFF  01,731
04674:  MOVFF  00,730
04678:  CALL   3262
0467C:  BCF    FD8.1
0467E:  MOVFF  6A0,72F
04682:  MOVFF  69F,72E
04686:  MOVFF  69E,72D
0468A:  MOVFF  69D,72C
0468E:  MOVFF  03,733
04692:  MOVFF  02,732
04696:  MOVFF  01,731
0469A:  MOVFF  00,730
0469E:  CALL   3262
046A2:  MOVFF  03,6A0
046A6:  MOVFF  02,69F
046AA:  MOVFF  01,69E
046AE:  MOVFF  00,69D
....................     
....................    //return Prom; 
....................    return Temperature; 
046B2:  MOVFF  69D,00
046B6:  MOVFF  69E,01
046BA:  MOVFF  69F,02
046BE:  MOVFF  6A0,03
.................... } 
046C2:  RETLW  00
....................  
.................... float Leer_Sensor_Presion_Camara(int media){ 
....................    promediopresion=0.0; 
*
04CB0:  MOVLB  6
04CB2:  CLRF   x73
04CB4:  CLRF   x72
04CB6:  CLRF   x71
04CB8:  CLRF   x70
....................    V1 = sensores(3);   //Lectura de Divisor de Voltaje de PT100 con resistencia de 1k (+-10%) 
04CBA:  MOVLW  03
04CBC:  MOVLB  7
04CBE:  MOVWF  x28
04CC0:  MOVLB  0
04CC2:  CALL   4240
04CC6:  MOVFF  03,6B4
04CCA:  MOVFF  02,6B3
04CCE:  MOVFF  01,6B2
04CD2:  MOVFF  00,6B1
....................    V1 = V1*(5.0/1024.0); 
04CD6:  MOVFF  6B4,74B
04CDA:  MOVFF  6B3,74A
04CDE:  MOVFF  6B2,749
04CE2:  MOVFF  6B1,748
04CE6:  MOVLB  7
04CE8:  CLRF   x4F
04CEA:  CLRF   x4E
04CEC:  MOVLW  20
04CEE:  MOVWF  x4D
04CF0:  MOVLW  77
04CF2:  MOVWF  x4C
04CF4:  MOVLB  0
04CF6:  CALL   35B2
04CFA:  MOVFF  03,6B4
04CFE:  MOVFF  02,6B3
04D02:  MOVFF  01,6B2
04D06:  MOVFF  00,6B1
....................    Presion=(V1-0.2)/(K); 
04D0A:  BSF    FD8.1
04D0C:  MOVFF  6B4,72F
04D10:  MOVFF  6B3,72E
04D14:  MOVFF  6B2,72D
04D18:  MOVFF  6B1,72C
04D1C:  MOVLW  CD
04D1E:  MOVLB  7
04D20:  MOVWF  x33
04D22:  MOVLW  CC
04D24:  MOVWF  x32
04D26:  MOVLW  4C
04D28:  MOVWF  x31
04D2A:  MOVLW  7C
04D2C:  MOVWF  x30
04D2E:  MOVLB  0
04D30:  CALL   3262
04D34:  MOVFF  00,728
04D38:  MOVFF  01,729
04D3C:  MOVFF  02,72A
04D40:  MOVFF  03,72B
04D44:  MOVFF  03,72F
04D48:  MOVFF  02,72E
04D4C:  MOVFF  01,72D
04D50:  MOVFF  00,72C
04D54:  MOVFF  6C8,733
04D58:  MOVFF  6C7,732
04D5C:  MOVFF  6C6,731
04D60:  MOVFF  6C5,730
04D64:  CALL   3104
04D68:  MOVFF  03,6B8
04D6C:  MOVFF  02,6B7
04D70:  MOVFF  01,6B6
04D74:  MOVFF  00,6B5
....................     
....................    if(Presion<0.0) 
04D78:  MOVFF  6B8,72B
04D7C:  MOVFF  6B7,72A
04D80:  MOVFF  6B6,729
04D84:  MOVFF  6B5,728
04D88:  MOVLB  7
04D8A:  CLRF   x2F
04D8C:  CLRF   x2E
04D8E:  CLRF   x2D
04D90:  CLRF   x2C
04D92:  MOVLB  0
04D94:  CALL   34DA
04D98:  BNC   4DA4
....................    { 
....................       Presion=0.0; 
04D9A:  MOVLB  6
04D9C:  CLRF   xB8
04D9E:  CLRF   xB7
04DA0:  CLRF   xB6
04DA2:  CLRF   xB5
....................    } 
....................     
....................    if(r>media-1) 
04DA4:  MOVLW  01
04DA6:  MOVLB  7
04DA8:  SUBWF  x27,W
04DAA:  SUBWF  x04,W
04DAC:  BZ    4DB2
04DAE:  BNC   4DB2
....................    {r=0;} 
04DB0:  CLRF   x04
....................    PromPresion[r]=Presion;r++; 
04DB2:  MOVF   x04,W
04DB4:  MULLW  04
04DB6:  MOVF   FF3,W
04DB8:  CLRF   03
04DBA:  ADDLW  BC
04DBC:  MOVWF  FE9
04DBE:  MOVLW  05
04DC0:  ADDWFC 03,W
04DC2:  MOVWF  FEA
04DC4:  MOVFF  6B5,FEF
04DC8:  MOVFF  6B6,FEC
04DCC:  MOVFF  6B7,FEC
04DD0:  MOVFF  6B8,FEC
04DD4:  INCF   x04,F
....................           
....................    for(t=0;t<=(media-1);t++) 
04DD6:  CLRF   x05
04DD8:  MOVLW  01
04DDA:  SUBWF  x27,W
04DDC:  SUBWF  x05,W
04DDE:  BZ    4DE2
04DE0:  BC    4E52
....................    { 
....................       promediopresion+=PromPresion[t]; 
04DE2:  MOVF   x05,W
04DE4:  MULLW  04
04DE6:  MOVF   FF3,W
04DE8:  CLRF   03
04DEA:  ADDLW  BC
04DEC:  MOVWF  FE9
04DEE:  MOVLW  05
04DF0:  ADDWFC 03,W
04DF2:  MOVWF  FEA
04DF4:  MOVFF  FEF,00
04DF8:  MOVFF  FEC,01
04DFC:  MOVFF  FEC,02
04E00:  MOVFF  FEC,03
04E04:  MOVFF  FEA,729
04E08:  MOVFF  FE9,728
04E0C:  BCF    FD8.1
04E0E:  MOVFF  673,72F
04E12:  MOVFF  672,72E
04E16:  MOVFF  671,72D
04E1A:  MOVFF  670,72C
04E1E:  MOVFF  03,733
04E22:  MOVFF  02,732
04E26:  MOVFF  01,731
04E2A:  MOVFF  00,730
04E2E:  MOVLB  0
04E30:  CALL   3262
04E34:  MOVFF  729,FEA
04E38:  MOVFF  728,FE9
04E3C:  MOVFF  03,673
04E40:  MOVFF  02,672
04E44:  MOVFF  01,671
04E48:  MOVFF  00,670
....................    }  
04E4C:  MOVLB  7
04E4E:  INCF   x05,F
04E50:  BRA    4DD8
....................    promediopresion=promediopresion/media;    
04E52:  CLRF   x2E
04E54:  MOVFF  727,72D
04E58:  MOVLB  0
04E5A:  CALL   30CE
04E5E:  MOVFF  673,72F
04E62:  MOVFF  672,72E
04E66:  MOVFF  671,72D
04E6A:  MOVFF  670,72C
04E6E:  MOVFF  03,733
04E72:  MOVFF  02,732
04E76:  MOVFF  01,731
04E7A:  MOVFF  00,730
04E7E:  CALL   3104
04E82:  MOVFF  03,673
04E86:  MOVFF  02,672
04E8A:  MOVFF  01,671
04E8E:  MOVFF  00,670
....................     
....................    return promediopresion; 
04E92:  MOVFF  670,00
04E96:  MOVFF  671,01
04E9A:  MOVFF  672,02
04E9E:  MOVFF  673,03
.................... } 
04EA2:  GOTO   679E (RETURN)
....................  
.................... float Leer_Sensor_Presion_PreCamara(int media){ 
....................    promediopresionp=0.0; 
04EA6:  MOVLB  6
04EA8:  CLRF   x7B
04EAA:  CLRF   x7A
04EAC:  CLRF   x79
04EAE:  CLRF   x78
....................    V2 = sensores(2);   //Lectura de Divisor de Voltaje de PT100 con resistencia de 1k (+-10%) 
04EB0:  MOVLW  02
04EB2:  MOVLB  7
04EB4:  MOVWF  x28
04EB6:  MOVLB  0
04EB8:  CALL   4240
04EBC:  MOVFF  03,6BC
04EC0:  MOVFF  02,6BB
04EC4:  MOVFF  01,6BA
04EC8:  MOVFF  00,6B9
....................    V2 = V2*(5.0/1024.0); 
04ECC:  MOVFF  6BC,74B
04ED0:  MOVFF  6BB,74A
04ED4:  MOVFF  6BA,749
04ED8:  MOVFF  6B9,748
04EDC:  MOVLB  7
04EDE:  CLRF   x4F
04EE0:  CLRF   x4E
04EE2:  MOVLW  20
04EE4:  MOVWF  x4D
04EE6:  MOVLW  77
04EE8:  MOVWF  x4C
04EEA:  MOVLB  0
04EEC:  CALL   35B2
04EF0:  MOVFF  03,6BC
04EF4:  MOVFF  02,6BB
04EF8:  MOVFF  01,6BA
04EFC:  MOVFF  00,6B9
....................    Presionp=(V2-0.2)/(K); 
04F00:  BSF    FD8.1
04F02:  MOVFF  6BC,72F
04F06:  MOVFF  6BB,72E
04F0A:  MOVFF  6BA,72D
04F0E:  MOVFF  6B9,72C
04F12:  MOVLW  CD
04F14:  MOVLB  7
04F16:  MOVWF  x33
04F18:  MOVLW  CC
04F1A:  MOVWF  x32
04F1C:  MOVLW  4C
04F1E:  MOVWF  x31
04F20:  MOVLW  7C
04F22:  MOVWF  x30
04F24:  MOVLB  0
04F26:  CALL   3262
04F2A:  MOVFF  00,728
04F2E:  MOVFF  01,729
04F32:  MOVFF  02,72A
04F36:  MOVFF  03,72B
04F3A:  MOVFF  03,72F
04F3E:  MOVFF  02,72E
04F42:  MOVFF  01,72D
04F46:  MOVFF  00,72C
04F4A:  MOVFF  6C8,733
04F4E:  MOVFF  6C7,732
04F52:  MOVFF  6C6,731
04F56:  MOVFF  6C5,730
04F5A:  CALL   3104
04F5E:  MOVFF  03,6C0
04F62:  MOVFF  02,6BF
04F66:  MOVFF  01,6BE
04F6A:  MOVFF  00,6BD
....................     
....................    if(Presionp<0.0) 
04F6E:  MOVFF  6C0,72B
04F72:  MOVFF  6BF,72A
04F76:  MOVFF  6BE,729
04F7A:  MOVFF  6BD,728
04F7E:  MOVLB  7
04F80:  CLRF   x2F
04F82:  CLRF   x2E
04F84:  CLRF   x2D
04F86:  CLRF   x2C
04F88:  MOVLB  0
04F8A:  CALL   34DA
04F8E:  BNC   4F9A
....................    { 
....................       Presionp=0.0; 
04F90:  MOVLB  6
04F92:  CLRF   xC0
04F94:  CLRF   xBF
04F96:  CLRF   xBE
04F98:  CLRF   xBD
....................    } 
....................     
....................    if(r2>media-1) 
04F9A:  MOVLW  01
04F9C:  MOVLB  7
04F9E:  SUBWF  x27,W
04FA0:  SUBWF  x06,W
04FA2:  BZ    4FA8
04FA4:  BNC   4FA8
....................    {r2=0;} 
04FA6:  CLRF   x06
....................    PromPresionp[r2]=Presionp;r2++; 
04FA8:  MOVF   x06,W
04FAA:  MULLW  04
04FAC:  MOVF   FF3,W
04FAE:  CLRF   03
04FB0:  ADDLW  0C
04FB2:  MOVWF  FE9
04FB4:  MOVLW  06
04FB6:  ADDWFC 03,W
04FB8:  MOVWF  FEA
04FBA:  MOVFF  6BD,FEF
04FBE:  MOVFF  6BE,FEC
04FC2:  MOVFF  6BF,FEC
04FC6:  MOVFF  6C0,FEC
04FCA:  INCF   x06,F
....................           
....................    for(t2=0;t2<=(media-1);t2++) 
04FCC:  CLRF   x07
04FCE:  MOVLW  01
04FD0:  SUBWF  x27,W
04FD2:  SUBWF  x07,W
04FD4:  BZ    4FD8
04FD6:  BC    5048
....................    { 
....................       promediopresionp+=PromPresionp[t2]; 
04FD8:  MOVF   x07,W
04FDA:  MULLW  04
04FDC:  MOVF   FF3,W
04FDE:  CLRF   03
04FE0:  ADDLW  0C
04FE2:  MOVWF  FE9
04FE4:  MOVLW  06
04FE6:  ADDWFC 03,W
04FE8:  MOVWF  FEA
04FEA:  MOVFF  FEF,00
04FEE:  MOVFF  FEC,01
04FF2:  MOVFF  FEC,02
04FF6:  MOVFF  FEC,03
04FFA:  MOVFF  FEA,729
04FFE:  MOVFF  FE9,728
05002:  BCF    FD8.1
05004:  MOVFF  67B,72F
05008:  MOVFF  67A,72E
0500C:  MOVFF  679,72D
05010:  MOVFF  678,72C
05014:  MOVFF  03,733
05018:  MOVFF  02,732
0501C:  MOVFF  01,731
05020:  MOVFF  00,730
05024:  MOVLB  0
05026:  CALL   3262
0502A:  MOVFF  729,FEA
0502E:  MOVFF  728,FE9
05032:  MOVFF  03,67B
05036:  MOVFF  02,67A
0503A:  MOVFF  01,679
0503E:  MOVFF  00,678
....................    }  
05042:  MOVLB  7
05044:  INCF   x07,F
05046:  BRA    4FCE
....................    promediopresionp=promediopresionp/media;    
05048:  CLRF   x2E
0504A:  MOVFF  727,72D
0504E:  MOVLB  0
05050:  CALL   30CE
05054:  MOVFF  67B,72F
05058:  MOVFF  67A,72E
0505C:  MOVFF  679,72D
05060:  MOVFF  678,72C
05064:  MOVFF  03,733
05068:  MOVFF  02,732
0506C:  MOVFF  01,731
05070:  MOVFF  00,730
05074:  CALL   3104
05078:  MOVFF  03,67B
0507C:  MOVFF  02,67A
05080:  MOVFF  01,679
05084:  MOVFF  00,678
....................     
....................    return promediopresionp; 
05088:  MOVFF  678,00
0508C:  MOVFF  679,01
05090:  MOVFF  67A,02
05094:  MOVFF  67B,03
.................... } 
05098:  GOTO   67C6 (RETURN)
....................  
.................... void Controla(){ 
.................... //-------------------------------Control de Calentamiento------------------------------------------------------------//          
....................    error=desvio+Setpoint-Temperatura;      // Clculo del error ****** 
*
05A94:  MOVLB  7
05A96:  CLRF   x2E
05A98:  MOVFF  6E5,72D
05A9C:  MOVLB  0
05A9E:  CALL   30CE
05AA2:  BCF    FD8.1
05AA4:  MOVFF  6B0,72F
05AA8:  MOVFF  6AF,72E
05AAC:  MOVFF  6AE,72D
05AB0:  MOVFF  6AD,72C
05AB4:  MOVFF  03,733
05AB8:  MOVFF  02,732
05ABC:  MOVFF  01,731
05AC0:  MOVFF  00,730
05AC4:  CALL   3262
05AC8:  MOVFF  00,727
05ACC:  MOVFF  01,728
05AD0:  MOVFF  02,729
05AD4:  MOVFF  03,72A
05AD8:  BSF    FD8.1
05ADA:  MOVFF  03,72F
05ADE:  MOVFF  02,72E
05AE2:  MOVFF  01,72D
05AE6:  MOVFF  00,72C
05AEA:  MOVFF  6C4,733
05AEE:  MOVFF  6C3,732
05AF2:  MOVFF  6C2,731
05AF6:  MOVFF  6C1,730
05AFA:  CALL   3262
05AFE:  MOVFF  03,698
05B02:  MOVFF  02,697
05B06:  MOVFF  01,696
05B0A:  MOVFF  00,695
....................     
....................    if(error>0.9 && error<15 && Aumento<0.3) 
05B0E:  MOVLW  66
05B10:  MOVLB  7
05B12:  MOVWF  x2B
05B14:  MOVWF  x2A
05B16:  MOVWF  x29
05B18:  MOVLW  7E
05B1A:  MOVWF  x28
05B1C:  MOVFF  698,72F
05B20:  MOVFF  697,72E
05B24:  MOVFF  696,72D
05B28:  MOVFF  695,72C
05B2C:  MOVLB  0
05B2E:  CALL   34DA
05B32:  BNC   5BF8
05B34:  MOVFF  698,72B
05B38:  MOVFF  697,72A
05B3C:  MOVFF  696,729
05B40:  MOVFF  695,728
05B44:  MOVLB  7
05B46:  CLRF   x2F
05B48:  CLRF   x2E
05B4A:  MOVLW  70
05B4C:  MOVWF  x2D
05B4E:  MOVLW  82
05B50:  MOVWF  x2C
05B52:  MOVLB  0
05B54:  CALL   34DA
05B58:  BNC   5BF8
05B5A:  MOVFF  677,72B
05B5E:  MOVFF  676,72A
05B62:  MOVFF  675,729
05B66:  MOVFF  674,728
05B6A:  MOVLW  9A
05B6C:  MOVLB  7
05B6E:  MOVWF  x2F
05B70:  MOVLW  99
05B72:  MOVWF  x2E
05B74:  MOVLW  19
05B76:  MOVWF  x2D
05B78:  MOVLW  7D
05B7A:  MOVWF  x2C
05B7C:  MOVLB  0
05B7E:  CALL   34DA
05B82:  BNC   5BF8
....................    { 
....................       if(Tpulso<9.0) 
05B84:  MOVFF  694,72B
05B88:  MOVFF  693,72A
05B8C:  MOVFF  692,729
05B90:  MOVFF  691,728
05B94:  MOVLB  7
05B96:  CLRF   x2F
05B98:  CLRF   x2E
05B9A:  MOVLW  10
05B9C:  MOVWF  x2D
05B9E:  MOVLW  82
05BA0:  MOVWF  x2C
05BA2:  MOVLB  0
05BA4:  CALL   34DA
05BA8:  BNC   5BF8
....................       { 
....................          if(TiempoControl>=Derivativo) 
05BAA:  MOVLB  6
05BAC:  MOVF   xD6,W
05BAE:  MOVLB  7
05BB0:  SUBWF  x08,W
05BB2:  BNC   5BFA
....................          { 
....................             TiempoControl=0; 
05BB4:  CLRF   x08
....................             Ganancia+=Integral; 
05BB6:  CLRF   x2E
05BB8:  MOVFF  6D5,72D
05BBC:  MOVLB  0
05BBE:  CALL   30CE
05BC2:  BCF    FD8.1
05BC4:  MOVFF  6A8,72F
05BC8:  MOVFF  6A7,72E
05BCC:  MOVFF  6A6,72D
05BD0:  MOVFF  6A5,72C
05BD4:  MOVFF  03,733
05BD8:  MOVFF  02,732
05BDC:  MOVFF  01,731
05BE0:  MOVFF  00,730
05BE4:  CALL   3262
05BE8:  MOVFF  03,6A8
05BEC:  MOVFF  02,6A7
05BF0:  MOVFF  01,6A6
05BF4:  MOVFF  00,6A5
05BF8:  MOVLB  7
....................          } 
....................       } 
....................    } 
....................     
....................    if(error<-0.3) 
05BFA:  MOVFF  698,72B
05BFE:  MOVFF  697,72A
05C02:  MOVFF  696,729
05C06:  MOVFF  695,728
05C0A:  MOVLW  9A
05C0C:  MOVWF  x2F
05C0E:  MOVLW  99
05C10:  MOVWF  x2E
05C12:  MOVWF  x2D
05C14:  MOVLW  7D
05C16:  MOVWF  x2C
05C18:  MOVLB  0
05C1A:  CALL   34DA
05C1E:  BNC   5C30
....................    { 
....................       Ganancia=Ganancia2; 
05C20:  MOVFF  6AC,6A8
05C24:  MOVFF  6AB,6A7
05C28:  MOVFF  6AA,6A6
05C2C:  MOVFF  6A9,6A5
....................    } 
....................     
....................    if(Ganancia<1) 
05C30:  MOVFF  6A8,72B
05C34:  MOVFF  6A7,72A
05C38:  MOVFF  6A6,729
05C3C:  MOVFF  6A5,728
05C40:  MOVLB  7
05C42:  CLRF   x2F
05C44:  CLRF   x2E
05C46:  CLRF   x2D
05C48:  MOVLW  7F
05C4A:  MOVWF  x2C
05C4C:  MOVLB  0
05C4E:  CALL   34DA
05C52:  BNC   5C60
....................    { 
....................       Ganancia=1; 
05C54:  MOVLB  6
05C56:  CLRF   xA8
05C58:  CLRF   xA7
05C5A:  CLRF   xA6
05C5C:  MOVLW  7F
05C5E:  MOVWF  xA5
....................    } 
....................     
....................    if(error<0.0)     // Anti Wind_DOWN     
05C60:  MOVFF  698,72B
05C64:  MOVFF  697,72A
05C68:  MOVFF  696,729
05C6C:  MOVFF  695,728
05C70:  MOVLB  7
05C72:  CLRF   x2F
05C74:  CLRF   x2E
05C76:  CLRF   x2D
05C78:  CLRF   x2C
05C7A:  MOVLB  0
05C7C:  CALL   34DA
05C80:  BNC   5C8E
....................    { 
....................       error=0.0; 
05C82:  MOVLB  6
05C84:  CLRF   x98
05C86:  CLRF   x97
05C88:  CLRF   x96
05C8A:  CLRF   x95
05C8C:  MOVLB  0
....................    } 
....................    //tmp=(Setpoint-Prom)*Ganancia;  // Control Proporcional. 
....................    tmp=error*Ganancia;  // Control Proporcional. 
05C8E:  MOVFF  698,74B
05C92:  MOVFF  697,74A
05C96:  MOVFF  696,749
05C9A:  MOVFF  695,748
05C9E:  MOVFF  6A8,74F
05CA2:  MOVFF  6A7,74E
05CA6:  MOVFF  6A6,74D
05CAA:  MOVFF  6A5,74C
05CAE:  CALL   35B2
05CB2:  MOVFF  03,6A4
05CB6:  MOVFF  02,6A3
05CBA:  MOVFF  01,6A2
05CBE:  MOVFF  00,6A1
....................           
....................    if(tmp>Setpoint)   // Anti Wind-UP       
05CC2:  MOVLB  7
05CC4:  CLRF   x2E
05CC6:  MOVFF  6E5,72D
05CCA:  MOVLB  0
05CCC:  CALL   30CE
05CD0:  MOVFF  03,72B
05CD4:  MOVFF  02,72A
05CD8:  MOVFF  01,729
05CDC:  MOVFF  00,728
05CE0:  MOVFF  6A4,72F
05CE4:  MOVFF  6A3,72E
05CE8:  MOVFF  6A2,72D
05CEC:  MOVFF  6A1,72C
05CF0:  CALL   34DA
05CF4:  BNC   5D14
....................    { 
....................       tmp=Setpoint; 
05CF6:  MOVLB  7
05CF8:  CLRF   x2E
05CFA:  MOVFF  6E5,72D
05CFE:  MOVLB  0
05D00:  CALL   30CE
05D04:  MOVFF  03,6A4
05D08:  MOVFF  02,6A3
05D0C:  MOVFF  01,6A2
05D10:  MOVFF  00,6A1
....................    } 
....................                 
....................    if(tmp<0.0)     // Anti Wind_DOWN     
05D14:  MOVFF  6A4,72B
05D18:  MOVFF  6A3,72A
05D1C:  MOVFF  6A2,729
05D20:  MOVFF  6A1,728
05D24:  MOVLB  7
05D26:  CLRF   x2F
05D28:  CLRF   x2E
05D2A:  CLRF   x2D
05D2C:  CLRF   x2C
05D2E:  MOVLB  0
05D30:  CALL   34DA
05D34:  BNC   5D40
....................    { 
....................       tmp=0.0; 
05D36:  MOVLB  6
05D38:  CLRF   xA4
05D3A:  CLRF   xA3
05D3C:  CLRF   xA2
05D3E:  CLRF   xA1
....................    } 
....................     
....................    // Tpulso(t)= Tciclo*(y(t)-ymin)/(ymax - ymin); calculo de ciclo util para control de resistencia.ymax=140.ymin=0; 
....................    // Tpulso es float, hay que pasar ese ciclo a una salida de un puerto usando el TMR1. 
....................    Tpulso=(tmp/Setpoint)*Tciclo;   
05D40:  MOVLB  7
05D42:  CLRF   x2E
05D44:  MOVFF  6E5,72D
05D48:  MOVLB  0
05D4A:  CALL   30CE
05D4E:  MOVFF  6A4,72F
05D52:  MOVFF  6A3,72E
05D56:  MOVFF  6A2,72D
05D5A:  MOVFF  6A1,72C
05D5E:  MOVFF  03,733
05D62:  MOVFF  02,732
05D66:  MOVFF  01,731
05D6A:  MOVFF  00,730
05D6E:  CALL   3104
05D72:  MOVFF  00,727
05D76:  MOVFF  01,728
05D7A:  MOVFF  02,729
05D7E:  MOVFF  03,72A
05D82:  MOVFF  03,74B
05D86:  MOVFF  02,74A
05D8A:  MOVFF  01,749
05D8E:  MOVFF  00,748
05D92:  MOVFF  690,74F
05D96:  MOVFF  68F,74E
05D9A:  MOVFF  68E,74D
05D9E:  MOVFF  68D,74C
05DA2:  CALL   35B2
05DA6:  MOVFF  03,694
05DAA:  MOVFF  02,693
05DAE:  MOVFF  01,692
05DB2:  MOVFF  00,691
....................                                        
....................    if(tiempoctrl<=(int16)(Tpulso/0.005)) // Si el tiempo es menor o igual al tiempo de control se enciende la resistencia de lo contrario se apaga. 
05DB6:  MOVFF  694,72F
05DBA:  MOVFF  693,72E
05DBE:  MOVFF  692,72D
05DC2:  MOVFF  691,72C
05DC6:  MOVLW  0A
05DC8:  MOVLB  7
05DCA:  MOVWF  x33
05DCC:  MOVLW  D7
05DCE:  MOVWF  x32
05DD0:  MOVLW  23
05DD2:  MOVWF  x31
05DD4:  MOVLW  77
05DD6:  MOVWF  x30
05DD8:  MOVLB  0
05DDA:  CALL   3104
05DDE:  MOVFF  03,72A
05DE2:  MOVFF  02,729
05DE6:  MOVFF  01,728
05DEA:  MOVFF  00,727
05DEE:  CALL   3576
05DF2:  MOVFF  02,03
05DF6:  MOVF   01,W
05DF8:  MOVLB  6
05DFA:  MOVF   xEF,W
05DFC:  SUBWF  02,W
05DFE:  BNC   5E0E
05E00:  BNZ   5E08
05E02:  MOVF   xEE,W
05E04:  SUBWF  01,W
05E06:  BNC   5E0E
....................    { 
....................       SSR_on; 
05E08:  BCF    F8B.2
05E0A:  BCF    F94.2
....................    } 
....................    else          
05E0C:  BRA    5E12
....................    { 
....................       SSR_off; 
05E0E:  BSF    F8B.2
05E10:  BCF    F94.2
....................    } 
....................           
....................    if(tiempoctrl>=(int16)(Tciclo/0.005)) // Si el tiempo de control es mayor al tiempo de ciclo se reinicia tiempo de control 
05E12:  MOVFF  690,72F
05E16:  MOVFF  68F,72E
05E1A:  MOVFF  68E,72D
05E1E:  MOVFF  68D,72C
05E22:  MOVLW  0A
05E24:  MOVLB  7
05E26:  MOVWF  x33
05E28:  MOVLW  D7
05E2A:  MOVWF  x32
05E2C:  MOVLW  23
05E2E:  MOVWF  x31
05E30:  MOVLW  77
05E32:  MOVWF  x30
05E34:  MOVLB  0
05E36:  CALL   3104
05E3A:  MOVFF  03,72A
05E3E:  MOVFF  02,729
05E42:  MOVFF  01,728
05E46:  MOVFF  00,727
05E4A:  CALL   3576
05E4E:  MOVF   02,W
05E50:  MOVWF  03
05E52:  MOVLB  6
05E54:  SUBWF  xEF,W
05E56:  BNC   5E64
05E58:  BNZ   5E60
05E5A:  MOVF   01,W
05E5C:  SUBWF  xEE,W
05E5E:  BNC   5E64
....................    { 
....................       tiempoctrl=0; 
05E60:  CLRF   xEF
05E62:  CLRF   xEE
....................    } // tiempoctrl incrementa una unidad cada 5ms, por eso se dividen los tiempos por 0.005. 
.................... //--------------------------------------------------------------------------------------------------------------------//    
.................... } 
05E64:  MOVLB  0
05E66:  RETLW  00
....................  
.................... void Envio_I2C(direccion, posicion, dato){ 
....................  
....................    i2c_start();            // Comienzo comunicacin 
*
03866:  BSF    F94.4
03868:  MOVLW  05
0386A:  MOVWF  00
0386C:  DECFSZ 00,F
0386E:  BRA    386C
03870:  BSF    F94.3
03872:  MOVLW  06
03874:  MOVWF  00
03876:  DECFSZ 00,F
03878:  BRA    3876
0387A:  BCF    F8B.4
0387C:  BCF    F94.4
0387E:  MOVLW  05
03880:  MOVWF  00
03882:  DECFSZ 00,F
03884:  BRA    3882
03886:  BCF    F8B.3
03888:  BCF    F94.3
....................    i2c_write(direccion);   // Direccin del esclavo en el bus I2C 
0388A:  MOVFF  728,72B
0388E:  RCALL  37F0
....................    i2c_write(posicion);    // Posicin donde se guardara el dato transmitido 
03890:  MOVFF  729,72B
03894:  RCALL  37F0
....................    i2c_write(dato);        // Dato a transmitir 
03896:  MOVFF  72A,72B
0389A:  RCALL  37F0
....................    i2c_stop();             // Fin comunicacin 
0389C:  BCF    F94.4
0389E:  NOP   
038A0:  BSF    F94.3
038A2:  BTFSS  F82.3
038A4:  BRA    38A2
038A6:  MOVLW  05
038A8:  MOVWF  00
038AA:  DECFSZ 00,F
038AC:  BRA    38AA
038AE:  BRA    38B0
038B0:  NOP   
038B2:  BSF    F94.4
038B4:  MOVLW  05
038B6:  MOVWF  00
038B8:  DECFSZ 00,F
038BA:  BRA    38B8
....................  } 
038BC:  GOTO   38F6 (RETURN)
....................  
.................... void Lectura_I2C (byte direccion, byte posicion, byte &dato) { 
....................  
....................    i2c_start();            // Comienzo de la comunicacin 
*
04BFC:  BSF    F94.4
04BFE:  MOVLW  05
04C00:  MOVWF  00
04C02:  DECFSZ 00,F
04C04:  BRA    4C02
04C06:  BSF    F94.3
04C08:  MOVLW  06
04C0A:  MOVWF  00
04C0C:  DECFSZ 00,F
04C0E:  BRA    4C0C
04C10:  BCF    F8B.4
04C12:  BCF    F94.4
04C14:  MOVLW  05
04C16:  MOVWF  00
04C18:  DECFSZ 00,F
04C1A:  BRA    4C18
04C1C:  BCF    F8B.3
04C1E:  BCF    F94.3
....................    i2c_write(direccion);   // Direccin del esclavo en el bus I2C 
04C20:  MOVFF  727,72B
04C24:  MOVLB  0
04C26:  CALL   37F0
....................    i2c_write(posicion);    // Posicin de donde se leer el dato en el esclavo 
04C2A:  MOVFF  728,72B
04C2E:  CALL   37F0
....................    i2c_start();            // Reinicio 
04C32:  BSF    F94.4
04C34:  MOVLW  05
04C36:  MOVWF  00
04C38:  DECFSZ 00,F
04C3A:  BRA    4C38
04C3C:  BSF    F94.3
04C3E:  MOVLW  06
04C40:  MOVWF  00
04C42:  DECFSZ 00,F
04C44:  BRA    4C42
04C46:  BTFSS  F82.3
04C48:  BRA    4C46
04C4A:  BCF    F8B.4
04C4C:  BCF    F94.4
04C4E:  MOVLW  05
04C50:  MOVWF  00
04C52:  DECFSZ 00,F
04C54:  BRA    4C52
04C56:  BCF    F8B.3
04C58:  BCF    F94.3
....................    i2c_write(direccion+1); // Direccin del esclavo en modo lectura 
04C5A:  MOVLW  01
04C5C:  MOVLB  7
04C5E:  ADDWF  x27,W
04C60:  MOVWF  x29
04C62:  MOVWF  x2B
04C64:  MOVLB  0
04C66:  CALL   37F0
....................    dato=i2c_read(0);       // Lectura del dato 
04C6A:  CLRF   00
04C6C:  BRA    46C4
04C6E:  MOVFF  01,457
....................    i2c_stop();             // Fin comunicacin 
04C72:  BCF    F94.4
04C74:  NOP   
04C76:  BSF    F94.3
04C78:  BTFSS  F82.3
04C7A:  BRA    4C78
04C7C:  MOVLW  05
04C7E:  MOVWF  00
04C80:  DECFSZ 00,F
04C82:  BRA    4C80
04C84:  BRA    4C86
04C86:  NOP   
04C88:  BSF    F94.4
04C8A:  MOVLW  05
04C8C:  MOVWF  00
04C8E:  DECFSZ 00,F
04C90:  BRA    4C8E
.................... } 
....................  
.................... void Carga_Vector(void){ 
....................    SlaveA0Tx[0]=(int8)Temperatura; 
*
036A8:  MOVFF  6C4,72A
036AC:  MOVFF  6C3,729
036B0:  MOVFF  6C2,728
036B4:  MOVFF  6C1,727
036B8:  RCALL  3576
036BA:  MOVFF  01,437
....................    SlaveA0Tx[1]=(Temperatura-((int8)Temperatura))*10; 
036BE:  MOVFF  6C4,72A
036C2:  MOVFF  6C3,729
036C6:  MOVFF  6C2,728
036CA:  MOVFF  6C1,727
036CE:  RCALL  3576
036D0:  MOVLB  7
036D2:  CLRF   x2E
036D4:  MOVFF  01,72D
036D8:  MOVLB  0
036DA:  RCALL  30CE
036DC:  BSF    FD8.1
036DE:  MOVFF  6C4,72F
036E2:  MOVFF  6C3,72E
036E6:  MOVFF  6C2,72D
036EA:  MOVFF  6C1,72C
036EE:  MOVFF  03,733
036F2:  MOVFF  02,732
036F6:  MOVFF  01,731
036FA:  MOVFF  00,730
036FE:  RCALL  3262
03700:  MOVFF  00,727
03704:  MOVFF  01,728
03708:  MOVFF  02,729
0370C:  MOVFF  03,72A
03710:  MOVFF  03,74B
03714:  MOVFF  02,74A
03718:  MOVFF  01,749
0371C:  MOVFF  00,748
03720:  MOVLB  7
03722:  CLRF   x4F
03724:  CLRF   x4E
03726:  MOVLW  20
03728:  MOVWF  x4D
0372A:  MOVLW  82
0372C:  MOVWF  x4C
0372E:  MOVLB  0
03730:  RCALL  35B2
03732:  MOVFF  03,72A
03736:  MOVFF  02,729
0373A:  MOVFF  01,728
0373E:  MOVFF  00,727
03742:  RCALL  3576
03744:  MOVFF  01,438
....................    SlaveA0Tx[2]=make8((int16)PresionCamara,0); 
03748:  MOVFF  6F4,439
0374C:  MOVLB  4
....................    SlaveA0Tx[3]=make8((int16)PresionCamara,1); 
0374E:  MOVFF  6F5,43A
03752:  MOVLB  4
....................    SlaveA0Tx[4]=make8((int16)PresionPreCamara,0); 
03754:  MOVFF  6F6,43B
03758:  MOVLB  4
....................    SlaveA0Tx[5]=make8((int16)PresionPreCamara,1); 
0375A:  MOVFF  6F7,43C
0375E:  MOVLB  4
....................    SlaveA0Tx[6]=(int8)Tpulso*10; 
03760:  MOVFF  694,72A
03764:  MOVFF  693,729
03768:  MOVFF  692,728
0376C:  MOVFF  691,727
03770:  MOVLB  0
03772:  RCALL  3576
03774:  MOVF   01,W
03776:  MULLW  0A
03778:  MOVFF  FF3,43D
0377C:  MOVLB  4
....................    SlaveA0Tx[7]=HIGH; 
0377E:  BSF    F94.0
03780:  CLRF   x3E
03782:  BTFSC  F82.0
03784:  INCF   x3E,F
....................    SlaveA0Tx[8]=LOW; 
03786:  BSF    F94.1
03788:  CLRF   x3F
0378A:  BTFSC  F82.1
0378C:  INCF   x3F,F
....................    SlaveA0Tx[9]=TERM; 
0378E:  BSF    F93.7
03790:  CLRF   x40
03792:  BTFSS  F81.7
03794:  INCF   x40,F
....................    SlaveA0Tx[10]=DOOR; 
03796:  BSF    F96.2
03798:  CLRF   x41
0379A:  BTFSS  F84.2
0379C:  INCF   x41,F
....................    SlaveA0Tx[11]=STOP; 
0379E:  BSF    F93.6
037A0:  CLRF   x42
037A2:  BTFSS  F81.6
037A4:  INCF   x42,F
....................    SlaveA0Tx[12]=(int8)error; 
037A6:  MOVFF  698,72A
037AA:  MOVFF  697,729
037AE:  MOVFF  696,728
037B2:  MOVFF  695,727
037B6:  MOVLB  0
037B8:  RCALL  3576
037BA:  MOVFF  01,443
....................    SlaveA0Tx[13]=(int8)EVAgua; 
037BE:  MOVLB  4
037C0:  CLRF   x44
037C2:  BTFSC  x64.4
037C4:  INCF   x44,F
....................    SlaveA0Tx[14]=(int8)EVAire; 
037C6:  CLRF   x45
037C8:  BTFSC  x64.3
037CA:  INCF   x45,F
....................    SlaveA0Tx[15]=(int8)EVVacio; 
037CC:  CLRF   x46
037CE:  BTFSC  x64.2
037D0:  INCF   x46,F
....................    SlaveA0Tx[16]=(int8)SSR2; 
037D2:  CLRF   x47
037D4:  BTFSC  x64.5
037D6:  INCF   x47,F
....................    SlaveA0Tx[17]=(int8)SSR3; 
037D8:  CLRF   x48
037DA:  BTFSC  x64.6
037DC:  INCF   x48,F
....................    SlaveA0Tx[18]=(int8)Buzzer; 
037DE:  CLRF   x49
037E0:  BTFSC  x64.7
037E2:  INCF   x49,F
....................    SlaveA0Tx[19]=(int8)EVAireBomba; 
037E4:  CLRF   x4A
037E6:  BTFSC  x65.0
037E8:  INCF   x4A,F
.................... } 
037EA:  MOVLB  0
037EC:  GOTO   38C2 (RETURN)
....................  
.................... void Lee_Vector(void){ 
....................    ByteConfig1=txbuf[0]; 
*
04730:  MOVFF  417,45A
....................    ByteConfig2=txbuf[1]; 
04734:  MOVFF  418,45B
....................    ByteConfig3=txbuf[2]; 
04738:  MOVFF  419,45C
....................     
....................    if(ByteConfig1==10 && ByteConfig2==20 && ByteConfig3==30){ 
0473C:  MOVLB  4
0473E:  MOVF   x5A,W
04740:  SUBLW  0A
04742:  BTFSS  FD8.2
04744:  BRA    4846
04746:  MOVF   x5B,W
04748:  SUBLW  14
0474A:  BTFSS  FD8.2
0474C:  BRA    4846
0474E:  MOVF   x5C,W
04750:  SUBLW  1E
04752:  BNZ   4846
....................       Ganancia=txbuf[3]; 
04754:  MOVLB  7
04756:  CLRF   x2E
04758:  MOVFF  41A,72D
0475C:  MOVLB  0
0475E:  CALL   30CE
04762:  MOVFF  03,6A8
04766:  MOVFF  02,6A7
0476A:  MOVFF  01,6A6
0476E:  MOVFF  00,6A5
....................       Ajuste=txbuf[4]; 
04772:  MOVFF  41B,67E
....................       Ajusten=txbuf[5]; 
04776:  MOVFF  41C,67F
....................       Desvio=txbuf[6]; 
0477A:  MOVLB  7
0477C:  CLRF   x2E
0477E:  MOVFF  41D,72D
04782:  MOVLB  0
04784:  CALL   30CE
04788:  MOVFF  03,6B0
0478C:  MOVFF  02,6AF
04790:  MOVFF  01,6AE
04794:  MOVFF  00,6AD
....................       MediaMovil=txbuf[7]; 
04798:  MOVFF  41E,680
....................       Tciclo=txbuf[8]; 
0479C:  MOVLB  7
0479E:  CLRF   x2E
047A0:  MOVFF  41F,72D
047A4:  MOVLB  0
047A6:  CALL   30CE
047AA:  MOVFF  03,690
047AE:  MOVFF  02,68F
047B2:  MOVFF  01,68E
047B6:  MOVFF  00,68D
....................       Integral=txbuf[9]; 
047BA:  MOVFF  420,6D5
....................       Derivativo=txbuf[10]; 
047BE:  MOVFF  421,6D6
....................       Gain=txbuf[11]+(txbuf[12]/10); 
047C2:  MOVFF  423,73C
047C6:  MOVLW  0A
047C8:  MOVLB  7
047CA:  MOVWF  x3D
047CC:  MOVLB  0
047CE:  RCALL  405E
047D0:  MOVF   01,W
047D2:  MOVLB  4
047D4:  ADDWF  x22,W
047D6:  MOVLB  7
047D8:  CLRF   x2E
047DA:  MOVWF  x2D
047DC:  MOVLB  0
047DE:  CALL   30CE
047E2:  MOVFF  03,65F
047E6:  MOVFF  02,65E
047EA:  MOVFF  01,65D
047EE:  MOVFF  00,65C
....................       R1=make16(txbuf[14],txbuf[13]); 
047F2:  MOVFF  425,03
047F6:  MOVFF  424,72D
047FA:  MOVFF  425,72E
047FE:  MOVLB  0
04800:  CALL   30CE
04804:  MOVFF  03,688
04808:  MOVFF  02,687
0480C:  MOVFF  01,686
04810:  MOVFF  00,685
....................       RPT100=txbuf[15]+(txbuf[16]/10); 
04814:  MOVFF  427,73C
04818:  MOVLW  0A
0481A:  MOVLB  7
0481C:  MOVWF  x3D
0481E:  MOVLB  0
04820:  RCALL  405E
04822:  MOVF   01,W
04824:  MOVLB  4
04826:  ADDWF  x26,W
04828:  MOVLB  7
0482A:  CLRF   x2E
0482C:  MOVWF  x2D
0482E:  MOVLB  0
04830:  CALL   30CE
04834:  MOVFF  03,663
04838:  MOVFF  02,662
0483C:  MOVFF  01,661
04840:  MOVFF  00,660
04844:  MOVLB  4
....................    } 
....................     
....................    if(txbuf[17]==50){ 
04846:  MOVF   x28,W
04848:  SUBLW  32
0484A:  BTFSS  FD8.2
0484C:  BRA    4BD8
....................       if(!disp_Guarda){ 
0484E:  BTFSC  x61.7
04850:  BRA    48E4
....................          glcd_fillScreen(OFF);disp_Guarda=ON; 
04852:  MOVLB  7
04854:  CLRF   x28
04856:  MOVLB  0
04858:  CALL   3936
0485C:  MOVLB  4
0485E:  BSF    x61.7
....................          strcpy(Menus.Letra,"Configuracion");displayMenu(Menus.Letra,0,10,0,2); 
04860:  MOVLW  07
04862:  MOVWF  FEA
04864:  MOVLW  12
04866:  MOVWF  FE9
04868:  MOVFF  FF2,727
0486C:  BCF    FF2.7
0486E:  MOVLW  00
04870:  MOVLB  0
04872:  CALL   1B8A
04876:  TBLRD*-
04878:  TBLRD*+
0487A:  MOVF   FF5,W
0487C:  MOVWF  FEE
0487E:  IORLW  00
04880:  BNZ   4878
04882:  MOVLB  7
04884:  BTFSC  x27.7
04886:  BSF    FF2.7
04888:  MOVLW  07
0488A:  MOVWF  x28
0488C:  MOVLW  12
0488E:  MOVWF  x27
04890:  CLRF   x29
04892:  MOVLW  0A
04894:  MOVWF  x2A
04896:  CLRF   x2B
04898:  MOVLW  02
0489A:  MOVWF  x2C
0489C:  MOVLB  0
0489E:  CALL   3F64
....................          strcpy(Menus.Letra,"   Guardada  ");displayMenu(Menus.Letra,0,30,0,2); 
048A2:  MOVLW  07
048A4:  MOVWF  FEA
048A6:  MOVLW  12
048A8:  MOVWF  FE9
048AA:  MOVFF  FF2,727
048AE:  BCF    FF2.7
048B0:  MOVLW  00
048B2:  CALL   1BB6
048B6:  TBLRD*-
048B8:  TBLRD*+
048BA:  MOVF   FF5,W
048BC:  MOVWF  FEE
048BE:  IORLW  00
048C0:  BNZ   48B8
048C2:  MOVLB  7
048C4:  BTFSC  x27.7
048C6:  BSF    FF2.7
048C8:  MOVLW  07
048CA:  MOVWF  x28
048CC:  MOVLW  12
048CE:  MOVWF  x27
048D0:  CLRF   x29
048D2:  MOVLW  1E
048D4:  MOVWF  x2A
048D6:  CLRF   x2B
048D8:  MOVLW  02
048DA:  MOVWF  x2C
048DC:  MOVLB  0
048DE:  CALL   3F64
048E2:  MOVLB  4
....................       } 
....................       write_eeprom(20,Ganancia); 
048E4:  CLRF   FAA
048E6:  MOVLW  14
048E8:  MOVWF  FA9
048EA:  MOVFF  6A5,FA8
048EE:  BCF    FA6.6
048F0:  BCF    FA6.7
048F2:  BSF    FA6.2
048F4:  MOVF   FF2,W
048F6:  MOVWF  00
048F8:  BCF    FF2.7
048FA:  MOVLB  F
048FC:  MOVLW  55
048FE:  MOVWF  FA7
04900:  MOVLW  AA
04902:  MOVWF  FA7
04904:  BSF    FA6.1
04906:  BTFSC  FA6.1
04908:  BRA    4906
0490A:  BCF    FA6.2
0490C:  MOVF   00,W
0490E:  IORWF  FF2,F
....................       delay_ms(10); 
04910:  MOVLW  0A
04912:  MOVLB  7
04914:  MOVWF  x2D
04916:  MOVLB  0
04918:  CALL   30A6
....................       write_eeprom(21,(int8)Ajuste); 
0491C:  CLRF   FAA
0491E:  MOVLW  15
04920:  MOVWF  FA9
04922:  MOVFF  67E,FA8
04926:  BCF    FA6.6
04928:  BCF    FA6.7
0492A:  BSF    FA6.2
0492C:  MOVF   FF2,W
0492E:  MOVWF  00
04930:  BCF    FF2.7
04932:  MOVLB  F
04934:  MOVLW  55
04936:  MOVWF  FA7
04938:  MOVLW  AA
0493A:  MOVWF  FA7
0493C:  BSF    FA6.1
0493E:  BTFSC  FA6.1
04940:  BRA    493E
04942:  BCF    FA6.2
04944:  MOVF   00,W
04946:  IORWF  FF2,F
....................       delay_ms(10); 
04948:  MOVLW  0A
0494A:  MOVLB  7
0494C:  MOVWF  x2D
0494E:  MOVLB  0
04950:  CALL   30A6
....................       write_eeprom(22,(int8)Ajusten); 
04954:  CLRF   FAA
04956:  MOVLW  16
04958:  MOVWF  FA9
0495A:  MOVFF  67F,FA8
0495E:  BCF    FA6.6
04960:  BCF    FA6.7
04962:  BSF    FA6.2
04964:  MOVF   FF2,W
04966:  MOVWF  00
04968:  BCF    FF2.7
0496A:  MOVLB  F
0496C:  MOVLW  55
0496E:  MOVWF  FA7
04970:  MOVLW  AA
04972:  MOVWF  FA7
04974:  BSF    FA6.1
04976:  BTFSC  FA6.1
04978:  BRA    4976
0497A:  BCF    FA6.2
0497C:  MOVF   00,W
0497E:  IORWF  FF2,F
....................       delay_ms(10); 
04980:  MOVLW  0A
04982:  MOVLB  7
04984:  MOVWF  x2D
04986:  MOVLB  0
04988:  CALL   30A6
....................       //Desvio=read_eeprom(23); 
....................       write_eeprom(24,(int8)MediaMovil); 
0498C:  CLRF   FAA
0498E:  MOVLW  18
04990:  MOVWF  FA9
04992:  MOVFF  680,FA8
04996:  BCF    FA6.6
04998:  BCF    FA6.7
0499A:  BSF    FA6.2
0499C:  MOVF   FF2,W
0499E:  MOVWF  00
049A0:  BCF    FF2.7
049A2:  MOVLB  F
049A4:  MOVLW  55
049A6:  MOVWF  FA7
049A8:  MOVLW  AA
049AA:  MOVWF  FA7
049AC:  BSF    FA6.1
049AE:  BTFSC  FA6.1
049B0:  BRA    49AE
049B2:  BCF    FA6.2
049B4:  MOVF   00,W
049B6:  IORWF  FF2,F
....................       delay_ms(10); 
049B8:  MOVLW  0A
049BA:  MOVLB  7
049BC:  MOVWF  x2D
049BE:  MOVLB  0
049C0:  CALL   30A6
....................       write_eeprom(25,(int8)Tciclo); 
049C4:  MOVFF  690,72A
049C8:  MOVFF  68F,729
049CC:  MOVFF  68E,728
049D0:  MOVFF  68D,727
049D4:  CALL   3576
049D8:  MOVFF  01,727
049DC:  CLRF   FAA
049DE:  MOVLW  19
049E0:  MOVWF  FA9
049E2:  MOVFF  727,FA8
049E6:  BCF    FA6.6
049E8:  BCF    FA6.7
049EA:  BSF    FA6.2
049EC:  MOVF   FF2,W
049EE:  MOVWF  00
049F0:  BCF    FF2.7
049F2:  MOVLB  F
049F4:  MOVLW  55
049F6:  MOVWF  FA7
049F8:  MOVLW  AA
049FA:  MOVWF  FA7
049FC:  BSF    FA6.1
049FE:  BTFSC  FA6.1
04A00:  BRA    49FE
04A02:  BCF    FA6.2
04A04:  MOVF   00,W
04A06:  IORWF  FF2,F
....................       delay_ms(10); 
04A08:  MOVLW  0A
04A0A:  MOVLB  7
04A0C:  MOVWF  x2D
04A0E:  MOVLB  0
04A10:  CALL   30A6
....................       write_eeprom(26,(int8)Integral); 
04A14:  CLRF   FAA
04A16:  MOVLW  1A
04A18:  MOVWF  FA9
04A1A:  MOVFF  6D5,FA8
04A1E:  BCF    FA6.6
04A20:  BCF    FA6.7
04A22:  BSF    FA6.2
04A24:  MOVF   FF2,W
04A26:  MOVWF  00
04A28:  BCF    FF2.7
04A2A:  MOVLB  F
04A2C:  MOVLW  55
04A2E:  MOVWF  FA7
04A30:  MOVLW  AA
04A32:  MOVWF  FA7
04A34:  BSF    FA6.1
04A36:  BTFSC  FA6.1
04A38:  BRA    4A36
04A3A:  BCF    FA6.2
04A3C:  MOVF   00,W
04A3E:  IORWF  FF2,F
....................       delay_ms(10); 
04A40:  MOVLW  0A
04A42:  MOVLB  7
04A44:  MOVWF  x2D
04A46:  MOVLB  0
04A48:  CALL   30A6
....................       write_eeprom(27,(int8)Derivativo); 
04A4C:  CLRF   FAA
04A4E:  MOVLW  1B
04A50:  MOVWF  FA9
04A52:  MOVFF  6D6,FA8
04A56:  BCF    FA6.6
04A58:  BCF    FA6.7
04A5A:  BSF    FA6.2
04A5C:  MOVF   FF2,W
04A5E:  MOVWF  00
04A60:  BCF    FF2.7
04A62:  MOVLB  F
04A64:  MOVLW  55
04A66:  MOVWF  FA7
04A68:  MOVLW  AA
04A6A:  MOVWF  FA7
04A6C:  BSF    FA6.1
04A6E:  BTFSC  FA6.1
04A70:  BRA    4A6E
04A72:  BCF    FA6.2
04A74:  MOVF   00,W
04A76:  IORWF  FF2,F
....................       delay_ms(10); 
04A78:  MOVLW  0A
04A7A:  MOVLB  7
04A7C:  MOVWF  x2D
04A7E:  MOVLB  0
04A80:  CALL   30A6
....................       write_eeprom(28,(int8)txbuf[11]); 
04A84:  CLRF   FAA
04A86:  MOVLW  1C
04A88:  MOVWF  FA9
04A8A:  MOVFF  422,FA8
04A8E:  BCF    FA6.6
04A90:  BCF    FA6.7
04A92:  BSF    FA6.2
04A94:  MOVF   FF2,W
04A96:  MOVWF  00
04A98:  BCF    FF2.7
04A9A:  MOVLB  F
04A9C:  MOVLW  55
04A9E:  MOVWF  FA7
04AA0:  MOVLW  AA
04AA2:  MOVWF  FA7
04AA4:  BSF    FA6.1
04AA6:  BTFSC  FA6.1
04AA8:  BRA    4AA6
04AAA:  BCF    FA6.2
04AAC:  MOVF   00,W
04AAE:  IORWF  FF2,F
....................       delay_ms(10); 
04AB0:  MOVLW  0A
04AB2:  MOVLB  7
04AB4:  MOVWF  x2D
04AB6:  MOVLB  0
04AB8:  CALL   30A6
....................       write_eeprom(29,(int8)txbuf[12]); 
04ABC:  CLRF   FAA
04ABE:  MOVLW  1D
04AC0:  MOVWF  FA9
04AC2:  MOVFF  423,FA8
04AC6:  BCF    FA6.6
04AC8:  BCF    FA6.7
04ACA:  BSF    FA6.2
04ACC:  MOVF   FF2,W
04ACE:  MOVWF  00
04AD0:  BCF    FF2.7
04AD2:  MOVLB  F
04AD4:  MOVLW  55
04AD6:  MOVWF  FA7
04AD8:  MOVLW  AA
04ADA:  MOVWF  FA7
04ADC:  BSF    FA6.1
04ADE:  BTFSC  FA6.1
04AE0:  BRA    4ADE
04AE2:  BCF    FA6.2
04AE4:  MOVF   00,W
04AE6:  IORWF  FF2,F
....................       delay_ms(10); 
04AE8:  MOVLW  0A
04AEA:  MOVLB  7
04AEC:  MOVWF  x2D
04AEE:  MOVLB  0
04AF0:  CALL   30A6
....................       write_eeprom(30,(int8)txbuf[13]); 
04AF4:  CLRF   FAA
04AF6:  MOVLW  1E
04AF8:  MOVWF  FA9
04AFA:  MOVFF  424,FA8
04AFE:  BCF    FA6.6
04B00:  BCF    FA6.7
04B02:  BSF    FA6.2
04B04:  MOVF   FF2,W
04B06:  MOVWF  00
04B08:  BCF    FF2.7
04B0A:  MOVLB  F
04B0C:  MOVLW  55
04B0E:  MOVWF  FA7
04B10:  MOVLW  AA
04B12:  MOVWF  FA7
04B14:  BSF    FA6.1
04B16:  BTFSC  FA6.1
04B18:  BRA    4B16
04B1A:  BCF    FA6.2
04B1C:  MOVF   00,W
04B1E:  IORWF  FF2,F
....................       delay_ms(10); 
04B20:  MOVLW  0A
04B22:  MOVLB  7
04B24:  MOVWF  x2D
04B26:  MOVLB  0
04B28:  CALL   30A6
....................       write_eeprom(31,(int8)txbuf[14]); 
04B2C:  CLRF   FAA
04B2E:  MOVLW  1F
04B30:  MOVWF  FA9
04B32:  MOVFF  425,FA8
04B36:  BCF    FA6.6
04B38:  BCF    FA6.7
04B3A:  BSF    FA6.2
04B3C:  MOVF   FF2,W
04B3E:  MOVWF  00
04B40:  BCF    FF2.7
04B42:  MOVLB  F
04B44:  MOVLW  55
04B46:  MOVWF  FA7
04B48:  MOVLW  AA
04B4A:  MOVWF  FA7
04B4C:  BSF    FA6.1
04B4E:  BTFSC  FA6.1
04B50:  BRA    4B4E
04B52:  BCF    FA6.2
04B54:  MOVF   00,W
04B56:  IORWF  FF2,F
....................       delay_ms(10); 
04B58:  MOVLW  0A
04B5A:  MOVLB  7
04B5C:  MOVWF  x2D
04B5E:  MOVLB  0
04B60:  CALL   30A6
....................       write_eeprom(32,(int8)txbuf[15]); 
04B64:  CLRF   FAA
04B66:  MOVLW  20
04B68:  MOVWF  FA9
04B6A:  MOVFF  426,FA8
04B6E:  BCF    FA6.6
04B70:  BCF    FA6.7
04B72:  BSF    FA6.2
04B74:  MOVF   FF2,W
04B76:  MOVWF  00
04B78:  BCF    FF2.7
04B7A:  MOVLB  F
04B7C:  MOVLW  55
04B7E:  MOVWF  FA7
04B80:  MOVLW  AA
04B82:  MOVWF  FA7
04B84:  BSF    FA6.1
04B86:  BTFSC  FA6.1
04B88:  BRA    4B86
04B8A:  BCF    FA6.2
04B8C:  MOVF   00,W
04B8E:  IORWF  FF2,F
....................       delay_ms(10); 
04B90:  MOVLW  0A
04B92:  MOVLB  7
04B94:  MOVWF  x2D
04B96:  MOVLB  0
04B98:  CALL   30A6
....................       write_eeprom(33,(int8)txbuf[16]); 
04B9C:  CLRF   FAA
04B9E:  MOVLW  21
04BA0:  MOVWF  FA9
04BA2:  MOVFF  427,FA8
04BA6:  BCF    FA6.6
04BA8:  BCF    FA6.7
04BAA:  BSF    FA6.2
04BAC:  MOVF   FF2,W
04BAE:  MOVWF  00
04BB0:  BCF    FF2.7
04BB2:  MOVLB  F
04BB4:  MOVLW  55
04BB6:  MOVWF  FA7
04BB8:  MOVLW  AA
04BBA:  MOVWF  FA7
04BBC:  BSF    FA6.1
04BBE:  BTFSC  FA6.1
04BC0:  BRA    4BBE
04BC2:  BCF    FA6.2
04BC4:  MOVF   00,W
04BC6:  IORWF  FF2,F
....................       delay_ms(10); 
04BC8:  MOVLW  0A
04BCA:  MOVLB  7
04BCC:  MOVWF  x2D
04BCE:  MOVLB  0
04BD0:  CALL   30A6
....................    }else{ 
04BD4:  BRA    4BDA
04BD6:  MOVLB  4
....................       disp_Guarda=OFF; 
04BD8:  BCF    x61.7
04BDA:  MOVLB  0
....................    } 
.................... } 
04BDC:  GOTO   4CAE (RETURN)
....................  
.................... void Envio_Esclavos(void){ 
....................    Carga_Vector(); 
*
038C0:  BRA    36A8
....................    for(i=0;i<20;i++) 
038C2:  MOVLB  6
038C4:  CLRF   xE3
038C6:  MOVF   xE3,W
038C8:  SUBLW  13
038CA:  BNC   38FC
....................    { 
....................       direccion=0xA0; 
038CC:  MOVLW  A0
038CE:  MOVLB  4
038D0:  MOVWF  x58
....................       Envio_I2C(direccion,i,SlaveA0Tx[i]); 
038D2:  CLRF   03
038D4:  MOVLB  6
038D6:  MOVF   xE3,W
038D8:  ADDLW  37
038DA:  MOVWF  FE9
038DC:  MOVLW  04
038DE:  ADDWFC 03,W
038E0:  MOVWF  FEA
038E2:  MOVFF  FEF,727
038E6:  MOVFF  458,728
038EA:  MOVFF  6E3,729
038EE:  MOVFF  727,72A
038F2:  MOVLB  0
038F4:  BRA    3866
....................    }  
038F6:  MOVLB  6
038F8:  INCF   xE3,F
038FA:  BRA    38C6
.................... } 
038FC:  MOVLB  0
038FE:  RETLW  00
.................... void Lectura_Esclavos(void){ 
....................    for(i=0;i<18;i++) 
*
04BE0:  MOVLB  6
04BE2:  CLRF   xE3
04BE4:  MOVF   xE3,W
04BE6:  SUBLW  11
04BE8:  BNC   4CAA
....................    { 
....................       direccion=0xA0;                        //Direccin en el bus I2c 
04BEA:  MOVLW  A0
04BEC:  MOVLB  4
04BEE:  MOVWF  x58
....................       posicion=i;                         //Posicin de memoria a leer 
04BF0:  MOVFF  6E3,459
....................       Lectura_I2C(direccion, posicion, dato);    //Lectura por I2C 
04BF4:  MOVFF  458,727
04BF8:  MOVFF  459,728
....................       txbuf[i]=(int8)dato; 
*
04C92:  CLRF   03
04C94:  MOVLB  6
04C96:  MOVF   xE3,W
04C98:  ADDLW  17
04C9A:  MOVWF  FE9
04C9C:  MOVLW  04
04C9E:  ADDWFC 03,W
04CA0:  MOVWF  FEA
04CA2:  MOVFF  457,FEF
....................    } 
04CA6:  INCF   xE3,F
04CA8:  BRA    4BE4
....................    Lee_Vector(); 
04CAA:  MOVLB  0
04CAC:  BRA    4730
.................... } 
04CAE:  RETLW  00
....................  
.................... #int_TIMER0 
.................... void temp0s(void){ 
....................    set_timer0(0); 
*
02F16:  CLRF   FD7
02F18:  CLRF   FD6
....................    t_exhaust++; 
02F1A:  MOVLB  7
02F1C:  INCF   x0C,F
02F1E:  BTFSC  FD8.2
02F20:  INCF   x0D,F
....................    if(DesfogueSuave) 
02F22:  MOVLB  4
02F24:  BTFSS  x60.7
02F26:  BRA    2F76
....................    { 
....................       if(Nivel<6) 
02F28:  MOVLB  6
02F2A:  MOVF   xF1,F
02F2C:  BNZ   2F6E
02F2E:  MOVF   xF0,W
02F30:  SUBLW  05
02F32:  BNC   2F6E
....................       { 
....................          if(t_exhaust<=(NivelSeleccionado)) // Si el tiempo es menor o igual al tiempo de control se enciende la resistencia de lo contrario se apaga. 
02F34:  MOVLB  7
02F36:  MOVF   x0D,W
02F38:  MOVLB  6
02F3A:  SUBWF  xFB,W
02F3C:  BNC   2F50
02F3E:  BNZ   2F4A
02F40:  MOVLB  7
02F42:  MOVF   x0C,W
02F44:  MOVLB  6
02F46:  SUBWF  xFA,W
02F48:  BNC   2F50
....................          { 
....................             Desfogue_on; 
02F4A:  BCF    F8B.5
02F4C:  BCF    F94.5
....................          }else{             
02F4E:  BRA    2F54
....................             Desfogue_off; 
02F50:  BSF    F8B.5
02F52:  BCF    F94.5
....................          }    
....................        
....................          if(t_exhaust>=60000) // Si el tiempo de control es mayor al tiempo de ciclo se reinicia tiempo de control 
02F54:  MOVLB  7
02F56:  MOVF   x0D,W
02F58:  SUBLW  E9
02F5A:  BC    2F6A
02F5C:  XORLW  FF
02F5E:  BNZ   2F66
02F60:  MOVF   x0C,W
02F62:  SUBLW  5F
02F64:  BC    2F6A
....................          { 
....................             t_exhaust=0; 
02F66:  CLRF   x0D
02F68:  CLRF   x0C
....................          } // tiempoctrl incrementa una unidad cada Xms, por eso se dividen los tiempos por 0.005. 
....................       } 
....................       else 
02F6A:  BRA    2F74
02F6C:  MOVLB  6
....................       { 
....................          Desfogue_on; 
02F6E:  BCF    F8B.5
02F70:  BCF    F94.5
02F72:  MOVLB  7
02F74:  MOVLB  4
....................       } 
....................    }   
.................... } 
....................  
02F76:  BCF    FF2.2
02F78:  MOVLB  0
02F7A:  GOTO   0064
.................... #int_TIMER1 
.................... void temp1s(void){ 
....................     
....................    set_timer1(40536); // Se repite cada 5ms 
02F7E:  MOVLW  9E
02F80:  MOVWF  FCF
02F82:  MOVLW  58
02F84:  MOVWF  FCE
....................    tiempos++; 
02F86:  MOVLB  6
02F88:  INCF   xEA,F
02F8A:  BTFSC  FD8.2
02F8C:  INCF   xEB,F
....................    tiempos3++; 
02F8E:  INCF   xEC,F
02F90:  BTFSC  FD8.2
02F92:  INCF   xED,F
....................    tiempoctrl++; 
02F94:  INCF   xEE,F
02F96:  BTFSC  FD8.2
02F98:  INCF   xEF,F
....................     
....................    if(tiempos>=200)  // 12000 para que incremente cada minuto, 200para que incremente cada segundo. 
02F9A:  MOVF   xEB,F
02F9C:  BNZ   2FA6
02F9E:  MOVF   xEA,W
02FA0:  SUBLW  C7
02FA2:  BTFSC  FD8.0
02FA4:  BRA    309E
....................    {       
....................       TiempoControl++; 
02FA6:  MOVLB  7
02FA8:  INCF   x08,F
....................       if(IniciaCiclo && !Esterilizando){ 
02FAA:  MOVLB  4
02FAC:  BTFSS  x60.2
02FAE:  BRA    2FBA
02FB0:  BTFSC  x60.3
02FB2:  BRA    2FBA
....................          TiempoCiclo++; 
02FB4:  INCF   x66,F
02FB6:  BTFSC  FD8.2
02FB8:  INCF   x67,F
....................       } 
....................        
....................       if(IniciaLlenado && !CalderinLleno){ 
02FBA:  BTFSS  x60.0
02FBC:  BRA    2FC8
02FBE:  BTFSC  x60.1
02FC0:  BRA    2FC8
....................          TiempoLlenado++; 
02FC2:  INCF   x68,F
02FC4:  BTFSC  FD8.2
02FC6:  INCF   x69,F
....................       } 
....................        
....................       if(SensadoNivel){ 
02FC8:  BTFSS  x60.5
02FCA:  BRA    2FD2
....................          TiempoSensadoNivel++; 
02FCC:  INCF   x6A,F
02FCE:  BTFSC  FD8.2
02FD0:  INCF   x6B,F
....................       } 
....................        
....................       if(IniciaVacio){ 
02FD2:  BTFSS  x62.6
02FD4:  BRA    2FE0
....................          tvacio++;          
02FD6:  MOVLB  7
02FD8:  INCF   x0E,F
02FDA:  BTFSC  FD8.2
02FDC:  INCF   x0F,F
02FDE:  MOVLB  4
....................       } 
....................        
....................       if(IniciaVacio2){          
02FE0:  BTFSS  x62.0
02FE2:  BRA    2FEE
....................          tbomba++; 
02FE4:  MOVLB  7
02FE6:  INCF   x10,F
02FE8:  BTFSC  FD8.2
02FEA:  INCF   x11,F
02FEC:  MOVLB  4
....................       } 
....................        
....................       if(EnciendeBuzzer){ 
02FEE:  BTFSS  x63.2
02FF0:  BRA    300C
....................          if(PulsosBuzzer>10){ 
02FF2:  MOVLB  6
02FF4:  MOVF   xDC,W
02FF6:  SUBLW  0A
02FF8:  BC    3002
....................             Buzzer=OFF; 
02FFA:  MOVLB  4
02FFC:  BCF    x64.7
....................          }else{ 
02FFE:  BRA    300C
03000:  MOVLB  6
....................              Buzzer=!Buzzer; 
03002:  MOVLB  4
03004:  BTG    x64.7
....................              PulsosBuzzer++; 
03006:  MOVLB  6
03008:  INCF   xDC,F
0300A:  MOVLB  4
....................          } 
....................       } 
....................        
....................       tiempos=0;Lectura=1;tinicio++; 
0300C:  MOVLB  6
0300E:  CLRF   xEB
03010:  CLRF   xEA
03012:  MOVLB  4
03014:  BSF    x65.6
03016:  MOVLB  6
03018:  INCF   xF2,F
0301A:  BTFSC  FD8.2
0301C:  INCF   xF3,F
....................     
....................       if(Esterilizando && !Desfogando) 
0301E:  MOVLB  4
03020:  BTFSS  x60.3
03022:  BRA    3060
03024:  BTFSC  x60.6
03026:  BRA    3060
....................       {                
....................          Testerilizacion[0]++; 
03028:  INCF   x6C,F
....................          if(Testerilizacion[0]>9) 
0302A:  BTFSC  x6C.7
0302C:  BRA    3038
0302E:  MOVF   x6C,W
03030:  SUBLW  09
03032:  BC    3038
....................             {Testerilizacion[0]=0; 
03034:  CLRF   x6C
....................             Testerilizacion[1]++;} 
03036:  INCF   x6D,F
....................          if(Testerilizacion[1]>5) 
03038:  BTFSC  x6D.7
0303A:  BRA    3046
0303C:  MOVF   x6D,W
0303E:  SUBLW  05
03040:  BC    3046
....................             {Testerilizacion[1]=0; 
03042:  CLRF   x6D
....................              Testerilizacion[2]++;} 
03044:  INCF   x6E,F
....................             if(Testerilizacion[2]>9) 
03046:  BTFSC  x6E.7
03048:  BRA    3054
0304A:  MOVF   x6E,W
0304C:  SUBLW  09
0304E:  BC    3054
....................                {Testerilizacion[2]=0; 
03050:  CLRF   x6E
....................                 Testerilizacion[3]++;} 
03052:  INCF   x6F,F
....................                if(Testerilizacion[3]>5) 
03054:  BTFSC  x6F.7
03056:  BRA    3060
03058:  MOVF   x6F,W
0305A:  SUBLW  05
0305C:  BC    3060
....................                   {Testerilizacion[3]=0;} 
0305E:  CLRF   x6F
....................       }        
....................        
....................       if(Secando) 
03060:  BTFSS  x60.4
03062:  BRA    309C
....................       {                
....................          Tsecado[0]++; 
03064:  INCF   x74,F
....................          if(Tsecado[0]>9) 
03066:  BTFSC  x74.7
03068:  BRA    3074
0306A:  MOVF   x74,W
0306C:  SUBLW  09
0306E:  BC    3074
....................             {Tsecado[0]=0; 
03070:  CLRF   x74
....................              Tsecado[1]++;} 
03072:  INCF   x75,F
....................           if(Tsecado[1]>5) 
03074:  BTFSC  x75.7
03076:  BRA    3082
03078:  MOVF   x75,W
0307A:  SUBLW  05
0307C:  BC    3082
....................             {Tsecado[1]=0; 
0307E:  CLRF   x75
....................              Tsecado[2]++;} 
03080:  INCF   x76,F
....................             if(Tsecado[2]>9) 
03082:  BTFSC  x76.7
03084:  BRA    3090
03086:  MOVF   x76,W
03088:  SUBLW  09
0308A:  BC    3090
....................                {Tsecado[2]=0; 
0308C:  CLRF   x76
....................                 Tsecado[3]++;} 
0308E:  INCF   x77,F
....................                if(Tsecado[3]>5) 
03090:  BTFSC  x77.7
03092:  BRA    309C
03094:  MOVF   x77,W
03096:  SUBLW  05
03098:  BC    309C
....................                   {Tsecado[3]=0;} 
0309A:  CLRF   x77
0309C:  MOVLB  6
....................          }   
....................    } 
.................... } 
....................  
0309E:  BCF    F9E.0
030A0:  MOVLB  0
030A2:  GOTO   0064
.................... void ControlaPresion(){ 
....................    if(PresionPrecamara>=150) 
*
05A04:  MOVLB  6
05A06:  MOVF   xF7,F
05A08:  BNZ   5A10
05A0A:  MOVF   xF6,W
05A0C:  SUBLW  95
05A0E:  BC    5A1A
....................    { 
....................       SSR_off; 
05A10:  BSF    F8B.2
05A12:  BCF    F94.2
....................       Precalentamiento=ON; 
05A14:  MOVLB  4
05A16:  BSF    x64.1
05A18:  MOVLB  6
....................    } 
....................     
....................    if(PresionPrecamara<130) 
05A1A:  MOVF   xF7,F
05A1C:  BNZ   5A28
05A1E:  MOVF   xF6,W
05A20:  SUBLW  81
05A22:  BNC   5A28
....................    { 
....................       SSR_on; 
05A24:  BCF    F8B.2
05A26:  BCF    F94.2
....................    } 
....................  
.................... } 
05A28:  MOVLB  0
05A2A:  RETLW  00
....................  
.................... void CorrePrograma(){ 
.................... while(true) 
....................    { 
....................       Envio_Esclavos(); 
*
06758:  CALL   38C0
....................       delay_ms(1); 
0675C:  MOVLW  01
0675E:  MOVLB  7
06760:  MOVWF  x2D
06762:  MOVLB  0
06764:  CALL   30A6
....................       Lectura_Esclavos(); 
06768:  CALL   4BE0
....................  
.................... // Tiempo de Muestreo//-------------------------------------- 
....................       if(tiempos3>=20){ 
0676C:  MOVLB  6
0676E:  MOVF   xED,F
06770:  BNZ   6778
06772:  MOVF   xEC,W
06774:  SUBLW  13
06776:  BC    67E8
....................          Temperatura=LeerPt100(MediaMovil); 
06778:  MOVFF  680,727
0677C:  MOVLB  0
0677E:  CALL   4306
06782:  MOVFF  03,6C4
06786:  MOVFF  02,6C3
0678A:  MOVFF  01,6C2
0678E:  MOVFF  00,6C1
....................          PresionCamara=Leer_Sensor_Presion_Camara(5); 
06792:  MOVLW  05
06794:  MOVLB  7
06796:  MOVWF  x27
06798:  MOVLB  0
0679A:  GOTO   4CB0
0679E:  MOVFF  03,72A
067A2:  MOVFF  02,729
067A6:  MOVFF  01,728
067AA:  MOVFF  00,727
067AE:  CALL   3576
067B2:  MOVFF  02,6F5
067B6:  MOVFF  01,6F4
....................          PresionPreCamara=Leer_Sensor_Presion_PreCamara(5); 
067BA:  MOVLW  05
067BC:  MOVLB  7
067BE:  MOVWF  x27
067C0:  MOVLB  0
067C2:  GOTO   4EA6
067C6:  MOVFF  03,72A
067CA:  MOVFF  02,729
067CE:  MOVFF  01,728
067D2:  MOVFF  00,727
067D6:  CALL   3576
067DA:  MOVFF  02,6F7
067DE:  MOVFF  01,6F6
....................          tiempos3=0; 
067E2:  MOVLB  6
067E4:  CLRF   xED
067E6:  CLRF   xEC
....................       } 
....................  
.................... // Monitoreo Nivel de Agua//-------------------------------------- 
....................    if(!AlarmaLlenado && !PruebaEstados && STOP){ 
067E8:  MOVLB  4
067EA:  BTFSC  x5D.2
067EC:  BRA    6832
067EE:  BTFSC  x61.6
067F0:  BRA    6832
067F2:  BSF    F93.6
067F4:  BTFSC  F81.6
067F6:  BRA    6832
....................       if(!LOW && !Esterilizando){//Si no sensa agua en el nivel bajo 
067F8:  BSF    F94.1
067FA:  BTFSC  F82.1
067FC:  BRA    6808
067FE:  BTFSC  x60.3
06800:  BRA    6808
....................          EVAgua=ON; 
06802:  BSF    x64.4
....................          IniciaLlenado=ON; 
06804:  BSF    x60.0
....................       }else{ 
06806:  BRA    6832
....................          if(!HIGH && !CalderinLleno){//Si no sensa agua en el nivel alto y no se ha llenado el calderin 
06808:  BSF    F94.0
0680A:  BTFSC  F82.0
0680C:  BRA    681C
0680E:  BTFSC  x60.1
06810:  BRA    681C
....................             EVAgua=ON; 
06812:  BSF    x64.4
....................             IniciaLlenado=ON; 
06814:  BSF    x60.0
....................             TiempoSensadoNivel=0; 
06816:  CLRF   x6B
06818:  CLRF   x6A
....................          } else{ 
0681A:  BRA    6832
....................             if(TiempoSensadoNivel>2) 
0681C:  MOVF   x6B,F
0681E:  BNZ   6826
06820:  MOVF   x6A,W
06822:  SUBLW  02
06824:  BC    6830
....................             { 
....................                SensadoNivel=OFF; 
06826:  BCF    x60.5
....................                CalderinLleno=ON; 
06828:  BSF    x60.1
....................                IniciaLlenado=OFF; 
0682A:  BCF    x60.0
....................                EVAgua=OFF; 
0682C:  BCF    x64.4
....................             } 
....................             else 
0682E:  BRA    6832
....................             { 
....................                SensadoNivel=ON; 
06830:  BSF    x60.5
....................             } 
....................          } 
....................       } 
....................    } 
....................        
.................... // Monitoreo Parada Emergencia//--------------------------------------       
....................       if(!STOP && !IniciaCiclo && !PruebaEstados){ 
06832:  BSF    F93.6
06834:  BTFSS  F81.6
06836:  BRA    68EA
06838:  BTFSC  x60.2
0683A:  BRA    68EA
0683C:  BTFSC  x61.6
0683E:  BRA    68EA
....................          if(!disp_Stop) 
06840:  BTFSC  x65.7
06842:  BRA    685A
....................          { 
....................             glcd_fillScreen(OFF);disp_Stop=1;Menu=255; 
06844:  MOVLB  7
06846:  CLRF   x28
06848:  MOVLB  0
0684A:  CALL   3936
0684E:  MOVLB  4
06850:  BSF    x65.7
06852:  MOVLW  FF
06854:  MOVLB  6
06856:  MOVWF  xE1
06858:  MOVLB  4
....................          } 
....................          Desfogue_on; 
0685A:  BCF    F8B.5
0685C:  BCF    F94.5
....................          EVAgua=OFF; 
0685E:  BCF    x64.4
....................          SSR_off; 
06860:  BSF    F8B.2
06862:  BCF    F94.2
....................          strcpy(Menus.Letra,"  !Parada!");displayMenu(Menus.Letra,0,10,0,2); 
06864:  MOVLW  07
06866:  MOVWF  FEA
06868:  MOVLW  12
0686A:  MOVWF  FE9
0686C:  MOVFF  FF2,727
06870:  BCF    FF2.7
06872:  MOVLW  00
06874:  MOVLB  0
06876:  CALL   1BE2
0687A:  TBLRD*-
0687C:  TBLRD*+
0687E:  MOVF   FF5,W
06880:  MOVWF  FEE
06882:  IORLW  00
06884:  BNZ   687C
06886:  MOVLB  7
06888:  BTFSC  x27.7
0688A:  BSF    FF2.7
0688C:  MOVLW  07
0688E:  MOVWF  x28
06890:  MOVLW  12
06892:  MOVWF  x27
06894:  CLRF   x29
06896:  MOVLW  0A
06898:  MOVWF  x2A
0689A:  CLRF   x2B
0689C:  MOVLW  02
0689E:  MOVWF  x2C
068A0:  MOVLB  0
068A2:  CALL   3F64
....................          strcpy(Menus.Letra," !Activada!");displayMenu(Menus.Letra,0,30,0,2); 
068A6:  MOVLW  07
068A8:  MOVWF  FEA
068AA:  MOVLW  12
068AC:  MOVWF  FE9
068AE:  MOVFF  FF2,727
068B2:  BCF    FF2.7
068B4:  MOVLW  00
068B6:  CALL   1C0C
068BA:  TBLRD*-
068BC:  TBLRD*+
068BE:  MOVF   FF5,W
068C0:  MOVWF  FEE
068C2:  IORLW  00
068C4:  BNZ   68BC
068C6:  MOVLB  7
068C8:  BTFSC  x27.7
068CA:  BSF    FF2.7
068CC:  MOVLW  07
068CE:  MOVWF  x28
068D0:  MOVLW  12
068D2:  MOVWF  x27
068D4:  CLRF   x29
068D6:  MOVLW  1E
068D8:  MOVWF  x2A
068DA:  CLRF   x2B
068DC:  MOVLW  02
068DE:  MOVWF  x2C
068E0:  MOVLB  0
068E2:  CALL   3F64
....................       }else{ 
068E6:  BRA    68F2
068E8:  MOVLB  4
....................          if(disp_Stop){ 
068EA:  BTFSS  x65.7
068EC:  BRA    68F0
....................             reset_cpu(); 
068EE:  RESET
068F0:  MOVLB  0
....................          } 
....................       } 
....................        
....................       glcd_update(); 
068F2:  CALL   3990
....................        
....................       if(UP || DOWN || RIGHT || LEFT) 
068F6:  BSF    F92.4
068F8:  BTFSS  F80.4
068FA:  BRA    690E
068FC:  BSF    F92.5
068FE:  BTFSS  F80.5
06900:  BRA    690E
06902:  BSF    F96.0
06904:  BTFSS  F84.0
06906:  BRA    690E
06908:  BSF    F96.1
0690A:  BTFSC  F84.1
0690C:  BRA    6916
....................       { 
....................          tinicio=0; 
0690E:  MOVLB  6
06910:  CLRF   xF3
06912:  CLRF   xF2
06914:  MOVLB  0
....................       } 
....................  
....................       while(tinicio>=14400) 
....................       { 
06916:  MOVLB  6
06918:  MOVF   xF3,W
0691A:  SUBLW  37
0691C:  BC    693E
0691E:  XORLW  FF
06920:  BNZ   6928
06922:  MOVF   xF2,W
06924:  SUBLW  3F
06926:  BC    693E
....................          glcd_fillscreen(OFF); 
06928:  MOVLB  7
0692A:  CLRF   x28
0692C:  MOVLB  0
0692E:  CALL   3936
....................          Display_off;          
06932:  BCF    F8B.7
06934:  BCF    F94.7
....................          glcd_update(); 
06936:  CALL   3990
....................       } 
0693A:  BRA    6916
0693C:  MOVLB  6
....................        
....................        
.................... //_-------------------------------------------------------------------------------------------------------------------------------------------------------- 
....................       if(Menu==0){ //Menu de Contrasea. 
0693E:  MOVF   xE1,F
06940:  BTFSS  FD8.2
06942:  BRA    6EF8
....................        
....................       strcpy(Menus.Letra,"Clave"); 
06944:  MOVLW  07
06946:  MOVWF  FEA
06948:  MOVLW  12
0694A:  MOVWF  FE9
0694C:  MOVFF  FF2,727
06950:  BCF    FF2.7
06952:  MOVLW  00
06954:  MOVLB  0
06956:  CALL   1C36
0695A:  TBLRD*-
0695C:  TBLRD*+
0695E:  MOVF   FF5,W
06960:  MOVWF  FEE
06962:  IORLW  00
06964:  BNZ   695C
06966:  MOVLB  7
06968:  BTFSC  x27.7
0696A:  BSF    FF2.7
....................       displayMenu(Menus.Letra,30,0,1,2);      
0696C:  MOVLW  07
0696E:  MOVWF  x28
06970:  MOVLW  12
06972:  MOVWF  x27
06974:  MOVLW  1E
06976:  MOVWF  x29
06978:  CLRF   x2A
0697A:  MOVLW  01
0697C:  MOVWF  x2B
0697E:  MOVLW  02
06980:  MOVWF  x2C
06982:  MOVLB  0
06984:  CALL   3F64
....................        
....................       if(UP)//Si oprime hacia arriba 
06988:  BSF    F92.4
0698A:  BTFSC  F80.4
0698C:  BRA    6A66
....................       { 
....................          if(Flanco == 0) 
0698E:  MOVLB  4
06990:  BTFSC  x65.1
06992:  BRA    6A64
....................          { 
....................             Flanco = 1;delay_ms(30); 
06994:  BSF    x65.1
06996:  MOVLW  1E
06998:  MOVLB  7
0699A:  MOVWF  x2D
0699C:  MOVLB  0
0699E:  CALL   30A6
....................             for(i=1;i<=4;i++) 
069A2:  MOVLW  01
069A4:  MOVLB  6
069A6:  MOVWF  xE3
069A8:  MOVF   xE3,W
069AA:  SUBLW  04
069AC:  BNC   6A62
....................             { 
....................                if(unidad==i) 
069AE:  MOVF   xE3,W
069B0:  SUBWF  xE2,W
069B2:  BNZ   6A2A
....................                { 
....................                   Contrasena[i-1]++; 
069B4:  MOVLW  01
069B6:  SUBWF  xE3,W
069B8:  CLRF   03
069BA:  ADDLW  FC
069BC:  MOVWF  FE9
069BE:  MOVLW  06
069C0:  ADDWFC 03,W
069C2:  MOVWF  FEA
069C4:  INCF   FEF,F
....................                   if(Contrasena[i-1]>9)    
069C6:  MOVLW  01
069C8:  SUBWF  xE3,W
069CA:  CLRF   03
069CC:  ADDLW  FC
069CE:  MOVWF  FE9
069D0:  MOVLW  06
069D2:  ADDWFC 03,W
069D4:  MOVWF  FEA
069D6:  BTFSC  FEF.7
069D8:  BRA    69F2
069DA:  MOVF   FEF,W
069DC:  SUBLW  09
069DE:  BC    69F2
....................                   { 
....................                      Contrasena[i-1]=0; 
069E0:  MOVLW  01
069E2:  SUBWF  xE3,W
069E4:  CLRF   03
069E6:  ADDLW  FC
069E8:  MOVWF  FE9
069EA:  MOVLW  06
069EC:  ADDWFC 03,W
069EE:  MOVWF  FEA
069F0:  CLRF   FEF
....................                   } 
....................                   displayContrasena(Contrasena[i-1],i*20,30,1); 
069F2:  MOVLW  01
069F4:  SUBWF  xE3,W
069F6:  CLRF   03
069F8:  ADDLW  FC
069FA:  MOVWF  FE9
069FC:  MOVLW  06
069FE:  ADDWFC 03,W
06A00:  MOVWF  FEA
06A02:  MOVFF  FEF,727
06A06:  MOVF   xE3,W
06A08:  MULLW  14
06A0A:  MOVFF  FF3,728
06A0E:  MOVLB  7
06A10:  MOVFF  727,729
06A14:  MOVFF  728,72A
06A18:  MOVLW  1E
06A1A:  MOVWF  x2B
06A1C:  MOVLW  01
06A1E:  MOVWF  x2C
06A20:  MOVLB  0
06A22:  CALL   418A
....................                } 
....................                else 
06A26:  BRA    6A5C
06A28:  MOVLB  6
....................                { 
....................                   displayContrasena(Contrasena[i-1],i*20,30,0); 
06A2A:  MOVLW  01
06A2C:  SUBWF  xE3,W
06A2E:  CLRF   03
06A30:  ADDLW  FC
06A32:  MOVWF  FE9
06A34:  MOVLW  06
06A36:  ADDWFC 03,W
06A38:  MOVWF  FEA
06A3A:  MOVFF  FEF,727
06A3E:  MOVF   xE3,W
06A40:  MULLW  14
06A42:  MOVFF  FF3,728
06A46:  MOVLB  7
06A48:  MOVFF  727,729
06A4C:  MOVFF  728,72A
06A50:  MOVLW  1E
06A52:  MOVWF  x2B
06A54:  CLRF   x2C
06A56:  MOVLB  0
06A58:  CALL   418A
....................                } 
....................             } 
06A5C:  MOVLB  6
06A5E:  INCF   xE3,F
06A60:  BRA    69A8
06A62:  MOVLB  4
....................          } 
....................       } 
....................          else 
06A64:  BRA    6A6A
....................             {Flanco = 0;} 
06A66:  MOVLB  4
06A68:  BCF    x65.1
....................              
....................       if(DOWN)//Si oprime hacia abajo 
06A6A:  BSF    F92.5
06A6C:  BTFSC  F80.5
06A6E:  BRA    6B44
....................       { 
....................          if(Flanco2 == 0) 
06A70:  BTFSC  x65.3
06A72:  BRA    6B42
....................             {Flanco2 = 1;delay_ms(30); 
06A74:  BSF    x65.3
06A76:  MOVLW  1E
06A78:  MOVLB  7
06A7A:  MOVWF  x2D
06A7C:  MOVLB  0
06A7E:  CALL   30A6
....................                for(i=1;i<=4;i++) 
06A82:  MOVLW  01
06A84:  MOVLB  6
06A86:  MOVWF  xE3
06A88:  MOVF   xE3,W
06A8A:  SUBLW  04
06A8C:  BNC   6B40
....................                { 
....................                   if(unidad==i) 
06A8E:  MOVF   xE3,W
06A90:  SUBWF  xE2,W
06A92:  BNZ   6B08
....................                   {Contrasena[i-1]--;  
06A94:  MOVLW  01
06A96:  SUBWF  xE3,W
06A98:  CLRF   03
06A9A:  ADDLW  FC
06A9C:  MOVWF  FE9
06A9E:  MOVLW  06
06AA0:  ADDWFC 03,W
06AA2:  MOVWF  FEA
06AA4:  DECF   FEF,F
....................                      if(Contrasena[i-1]<0) 
06AA6:  MOVLW  01
06AA8:  SUBWF  xE3,W
06AAA:  CLRF   03
06AAC:  ADDLW  FC
06AAE:  MOVWF  FE9
06AB0:  MOVLW  06
06AB2:  ADDWFC 03,W
06AB4:  MOVWF  FEA
06AB6:  BTFSC  FEF.7
06AB8:  BRA    6ABC
06ABA:  BRA    6AD0
....................                         {Contrasena[i-1]=9;} 
06ABC:  MOVLW  01
06ABE:  SUBWF  xE3,W
06AC0:  CLRF   03
06AC2:  ADDLW  FC
06AC4:  MOVWF  FE9
06AC6:  MOVLW  06
06AC8:  ADDWFC 03,W
06ACA:  MOVWF  FEA
06ACC:  MOVLW  09
06ACE:  MOVWF  FEF
....................                    displayContrasena(Contrasena[i-1],i*20,30,1);} 
06AD0:  MOVLW  01
06AD2:  SUBWF  xE3,W
06AD4:  CLRF   03
06AD6:  ADDLW  FC
06AD8:  MOVWF  FE9
06ADA:  MOVLW  06
06ADC:  ADDWFC 03,W
06ADE:  MOVWF  FEA
06AE0:  MOVFF  FEF,727
06AE4:  MOVF   xE3,W
06AE6:  MULLW  14
06AE8:  MOVFF  FF3,728
06AEC:  MOVLB  7
06AEE:  MOVFF  727,729
06AF2:  MOVFF  728,72A
06AF6:  MOVLW  1E
06AF8:  MOVWF  x2B
06AFA:  MOVLW  01
06AFC:  MOVWF  x2C
06AFE:  MOVLB  0
06B00:  CALL   418A
....................                   else 
06B04:  BRA    6B3A
06B06:  MOVLB  6
....................                   {displayContrasena(Contrasena[i-1],i*20,30,0);} 
06B08:  MOVLW  01
06B0A:  SUBWF  xE3,W
06B0C:  CLRF   03
06B0E:  ADDLW  FC
06B10:  MOVWF  FE9
06B12:  MOVLW  06
06B14:  ADDWFC 03,W
06B16:  MOVWF  FEA
06B18:  MOVFF  FEF,727
06B1C:  MOVF   xE3,W
06B1E:  MULLW  14
06B20:  MOVFF  FF3,728
06B24:  MOVLB  7
06B26:  MOVFF  727,729
06B2A:  MOVFF  728,72A
06B2E:  MOVLW  1E
06B30:  MOVWF  x2B
06B32:  CLRF   x2C
06B34:  MOVLB  0
06B36:  CALL   418A
....................                }       
06B3A:  MOVLB  6
06B3C:  INCF   xE3,F
06B3E:  BRA    6A88
06B40:  MOVLB  4
....................             }      
....................       } 
....................          else 
06B42:  BRA    6B46
....................             {Flanco2 = 0;}   
06B44:  BCF    x65.3
....................              
....................       if(RIGHT)//Si oprime RIGHT 
06B46:  BSF    F96.0
06B48:  BTFSC  F84.0
06B4A:  BRA    6BE6
....................       { 
....................          if(Flanco1 == 0) 
06B4C:  BTFSC  x65.2
06B4E:  BRA    6BE4
....................             {Flanco1 = 1;delay_ms(30);unidad++; 
06B50:  BSF    x65.2
06B52:  MOVLW  1E
06B54:  MOVLB  7
06B56:  MOVWF  x2D
06B58:  MOVLB  0
06B5A:  CALL   30A6
06B5E:  MOVLB  6
06B60:  INCF   xE2,F
....................                for(i=1;i<=4;i++) 
06B62:  MOVLW  01
06B64:  MOVWF  xE3
06B66:  MOVF   xE3,W
06B68:  SUBLW  04
06B6A:  BNC   6BE2
....................                { 
....................                   if(unidad==i) 
06B6C:  MOVF   xE3,W
06B6E:  SUBWF  xE2,W
06B70:  BNZ   6BAA
....................                   {displayContrasena(Contrasena[i-1],i*20,30,1);} 
06B72:  MOVLW  01
06B74:  SUBWF  xE3,W
06B76:  CLRF   03
06B78:  ADDLW  FC
06B7A:  MOVWF  FE9
06B7C:  MOVLW  06
06B7E:  ADDWFC 03,W
06B80:  MOVWF  FEA
06B82:  MOVFF  FEF,727
06B86:  MOVF   xE3,W
06B88:  MULLW  14
06B8A:  MOVFF  FF3,728
06B8E:  MOVLB  7
06B90:  MOVFF  727,729
06B94:  MOVFF  728,72A
06B98:  MOVLW  1E
06B9A:  MOVWF  x2B
06B9C:  MOVLW  01
06B9E:  MOVWF  x2C
06BA0:  MOVLB  0
06BA2:  CALL   418A
....................                   else 
06BA6:  BRA    6BDC
06BA8:  MOVLB  6
....................                   {displayContrasena(Contrasena[i-1],i*20,30,0);} 
06BAA:  MOVLW  01
06BAC:  SUBWF  xE3,W
06BAE:  CLRF   03
06BB0:  ADDLW  FC
06BB2:  MOVWF  FE9
06BB4:  MOVLW  06
06BB6:  ADDWFC 03,W
06BB8:  MOVWF  FEA
06BBA:  MOVFF  FEF,727
06BBE:  MOVF   xE3,W
06BC0:  MULLW  14
06BC2:  MOVFF  FF3,728
06BC6:  MOVLB  7
06BC8:  MOVFF  727,729
06BCC:  MOVFF  728,72A
06BD0:  MOVLW  1E
06BD2:  MOVWF  x2B
06BD4:  CLRF   x2C
06BD6:  MOVLB  0
06BD8:  CALL   418A
....................                } 
06BDC:  MOVLB  6
06BDE:  INCF   xE3,F
06BE0:  BRA    6B66
06BE2:  MOVLB  4
....................             } 
....................       } 
....................          else 
06BE4:  BRA    6BE8
....................             {Flanco1 = 0;}   
06BE6:  BCF    x65.2
....................      
....................       if(unidad>4) 
06BE8:  MOVLB  6
06BEA:  MOVF   xE2,W
06BEC:  SUBLW  04
06BEE:  BTFSC  FD8.0
06BF0:  BRA    6EF8
....................       {glcd_fillScreen(OFF);unidad=4; 
06BF2:  MOVLB  7
06BF4:  CLRF   x28
06BF6:  MOVLB  0
06BF8:  CALL   3936
06BFC:  MOVLW  04
06BFE:  MOVLB  6
06C00:  MOVWF  xE2
....................          if(Contrasena[0]==3&&Contrasena[1]==8&&Contrasena[2]==9&&Contrasena[3]==2) // Si Ingresa clave para reset general del sistema. 
06C02:  MOVF   xFC,W
06C04:  SUBLW  03
06C06:  BTFSS  FD8.2
06C08:  BRA    6CF6
06C0A:  MOVF   xFD,W
06C0C:  SUBLW  08
06C0E:  BNZ   6CF6
06C10:  MOVF   xFE,W
06C12:  SUBLW  09
06C14:  BNZ   6CF6
06C16:  MOVF   xFF,W
06C18:  SUBLW  02
06C1A:  BNZ   6CF6
....................             {write_eeprom(10,0);delay_ms(20);write_eeprom(11,0);delay_ms(20);// Reestablece a contrasea de Fabrica y reinicia Programa. 
06C1C:  CLRF   FAA
06C1E:  MOVLW  0A
06C20:  MOVWF  FA9
06C22:  CLRF   FA8
06C24:  BCF    FA6.6
06C26:  BCF    FA6.7
06C28:  BSF    FA6.2
06C2A:  MOVF   FF2,W
06C2C:  MOVWF  00
06C2E:  BCF    FF2.7
06C30:  MOVLB  F
06C32:  MOVLW  55
06C34:  MOVWF  FA7
06C36:  MOVLW  AA
06C38:  MOVWF  FA7
06C3A:  BSF    FA6.1
06C3C:  BTFSC  FA6.1
06C3E:  BRA    6C3C
06C40:  BCF    FA6.2
06C42:  MOVF   00,W
06C44:  IORWF  FF2,F
06C46:  MOVLW  14
06C48:  MOVLB  7
06C4A:  MOVWF  x2D
06C4C:  MOVLB  0
06C4E:  CALL   30A6
06C52:  CLRF   FAA
06C54:  MOVLW  0B
06C56:  MOVWF  FA9
06C58:  CLRF   FA8
06C5A:  BCF    FA6.6
06C5C:  BCF    FA6.7
06C5E:  BSF    FA6.2
06C60:  MOVF   FF2,W
06C62:  MOVWF  00
06C64:  BCF    FF2.7
06C66:  MOVLB  F
06C68:  MOVLW  55
06C6A:  MOVWF  FA7
06C6C:  MOVLW  AA
06C6E:  MOVWF  FA7
06C70:  BSF    FA6.1
06C72:  BTFSC  FA6.1
06C74:  BRA    6C72
06C76:  BCF    FA6.2
06C78:  MOVF   00,W
06C7A:  IORWF  FF2,F
06C7C:  MOVLW  14
06C7E:  MOVLB  7
06C80:  MOVWF  x2D
06C82:  MOVLB  0
06C84:  CALL   30A6
....................              write_eeprom(12,0);delay_ms(20);write_eeprom(13,0);delay_ms(20); 
06C88:  CLRF   FAA
06C8A:  MOVLW  0C
06C8C:  MOVWF  FA9
06C8E:  CLRF   FA8
06C90:  BCF    FA6.6
06C92:  BCF    FA6.7
06C94:  BSF    FA6.2
06C96:  MOVF   FF2,W
06C98:  MOVWF  00
06C9A:  BCF    FF2.7
06C9C:  MOVLB  F
06C9E:  MOVLW  55
06CA0:  MOVWF  FA7
06CA2:  MOVLW  AA
06CA4:  MOVWF  FA7
06CA6:  BSF    FA6.1
06CA8:  BTFSC  FA6.1
06CAA:  BRA    6CA8
06CAC:  BCF    FA6.2
06CAE:  MOVF   00,W
06CB0:  IORWF  FF2,F
06CB2:  MOVLW  14
06CB4:  MOVLB  7
06CB6:  MOVWF  x2D
06CB8:  MOVLB  0
06CBA:  CALL   30A6
06CBE:  CLRF   FAA
06CC0:  MOVLW  0D
06CC2:  MOVWF  FA9
06CC4:  CLRF   FA8
06CC6:  BCF    FA6.6
06CC8:  BCF    FA6.7
06CCA:  BSF    FA6.2
06CCC:  MOVF   FF2,W
06CCE:  MOVWF  00
06CD0:  BCF    FF2.7
06CD2:  MOVLB  F
06CD4:  MOVLW  55
06CD6:  MOVWF  FA7
06CD8:  MOVLW  AA
06CDA:  MOVWF  FA7
06CDC:  BSF    FA6.1
06CDE:  BTFSC  FA6.1
06CE0:  BRA    6CDE
06CE2:  BCF    FA6.2
06CE4:  MOVF   00,W
06CE6:  IORWF  FF2,F
06CE8:  MOVLW  14
06CEA:  MOVLB  7
06CEC:  MOVWF  x2D
06CEE:  MOVLB  0
06CF0:  CALL   30A6
....................              reset_cpu();}         
06CF4:  RESET
....................           
....................          if((Contrasena[0]==Password[0])&&(Contrasena[1]==Password[1])&&(Contrasena[2]==Password[2])&&(Contrasena[3]==Password[3])) 
06CF6:  MOVLB  7
06CF8:  MOVF   x00,W
06CFA:  MOVLB  6
06CFC:  SUBWF  xFC,W
06CFE:  BNZ   6DDC
06D00:  MOVLB  7
06D02:  MOVF   x01,W
06D04:  MOVLB  6
06D06:  SUBWF  xFD,W
06D08:  BNZ   6DDC
06D0A:  MOVLB  7
06D0C:  MOVF   x02,W
06D0E:  MOVLB  6
06D10:  SUBWF  xFE,W
06D12:  BNZ   6DDC
06D14:  MOVLB  7
06D16:  MOVF   x03,W
06D18:  MOVLB  6
06D1A:  SUBWF  xFF,W
06D1C:  BNZ   6DDC
....................          { 
....................             glcd_fillScreen(OFF); 
06D1E:  MOVLB  7
06D20:  CLRF   x28
06D22:  MOVLB  0
06D24:  CALL   3936
....................             strcpy(Menus.Letra,"Clave"); 
06D28:  MOVLW  07
06D2A:  MOVWF  FEA
06D2C:  MOVLW  12
06D2E:  MOVWF  FE9
06D30:  MOVFF  FF2,727
06D34:  BCF    FF2.7
06D36:  MOVLW  00
06D38:  CALL   1C36
06D3C:  TBLRD*-
06D3E:  TBLRD*+
06D40:  MOVF   FF5,W
06D42:  MOVWF  FEE
06D44:  IORLW  00
06D46:  BNZ   6D3E
06D48:  MOVLB  7
06D4A:  BTFSC  x27.7
06D4C:  BSF    FF2.7
....................             displayMenu(Menus.Letra,30,0,0,2); 
06D4E:  MOVLW  07
06D50:  MOVWF  x28
06D52:  MOVLW  12
06D54:  MOVWF  x27
06D56:  MOVLW  1E
06D58:  MOVWF  x29
06D5A:  CLRF   x2A
06D5C:  CLRF   x2B
06D5E:  MOVLW  02
06D60:  MOVWF  x2C
06D62:  MOVLB  0
06D64:  CALL   3F64
....................             strcpy(Menus.Letra,"Correcta"); 
06D68:  MOVLW  07
06D6A:  MOVWF  FEA
06D6C:  MOVLW  12
06D6E:  MOVWF  FE9
06D70:  MOVFF  FF2,727
06D74:  BCF    FF2.7
06D76:  MOVLW  00
06D78:  CALL   1C5A
06D7C:  TBLRD*-
06D7E:  TBLRD*+
06D80:  MOVF   FF5,W
06D82:  MOVWF  FEE
06D84:  IORLW  00
06D86:  BNZ   6D7E
06D88:  MOVLB  7
06D8A:  BTFSC  x27.7
06D8C:  BSF    FF2.7
....................             displayMenu(Menus.Letra,15,30,0,2); 
06D8E:  MOVLW  07
06D90:  MOVWF  x28
06D92:  MOVLW  12
06D94:  MOVWF  x27
06D96:  MOVLW  0F
06D98:  MOVWF  x29
06D9A:  MOVLW  1E
06D9C:  MOVWF  x2A
06D9E:  CLRF   x2B
06DA0:  MOVLW  02
06DA2:  MOVWF  x2C
06DA4:  MOVLB  0
06DA6:  CALL   3F64
....................             Menu=1;glcd_update();delay_ms(1000); 
06DAA:  MOVLW  01
06DAC:  MOVLB  6
06DAE:  MOVWF  xE1
06DB0:  MOVLB  0
06DB2:  CALL   3990
06DB6:  MOVLW  04
06DB8:  MOVLB  7
06DBA:  MOVWF  x27
06DBC:  MOVLW  FA
06DBE:  MOVWF  x2D
06DC0:  MOVLB  0
06DC2:  CALL   30A6
06DC6:  MOVLB  7
06DC8:  DECFSZ x27,F
06DCA:  BRA    6DBC
....................             glcd_fillScreen(OFF);unidad=1; 
06DCC:  CLRF   x28
06DCE:  MOVLB  0
06DD0:  CALL   3936
06DD4:  MOVLW  01
06DD6:  MOVLB  6
06DD8:  MOVWF  xE2
....................          }// Esta parte se puede agregar en el Menu 1 dependiendo de la ubicacin del vidrio. 
....................          else 
06DDA:  BRA    6EF8
....................          { 
....................             glcd_fillScreen(OFF); 
06DDC:  MOVLB  7
06DDE:  CLRF   x28
06DE0:  MOVLB  0
06DE2:  CALL   3936
....................             strcpy(Menus.Letra,"Clave"); 
06DE6:  MOVLW  07
06DE8:  MOVWF  FEA
06DEA:  MOVLW  12
06DEC:  MOVWF  FE9
06DEE:  MOVFF  FF2,727
06DF2:  BCF    FF2.7
06DF4:  MOVLW  00
06DF6:  CALL   1C36
06DFA:  TBLRD*-
06DFC:  TBLRD*+
06DFE:  MOVF   FF5,W
06E00:  MOVWF  FEE
06E02:  IORLW  00
06E04:  BNZ   6DFC
06E06:  MOVLB  7
06E08:  BTFSC  x27.7
06E0A:  BSF    FF2.7
....................             displayMenu(Menus.Letra,30,0,0,2); 
06E0C:  MOVLW  07
06E0E:  MOVWF  x28
06E10:  MOVLW  12
06E12:  MOVWF  x27
06E14:  MOVLW  1E
06E16:  MOVWF  x29
06E18:  CLRF   x2A
06E1A:  CLRF   x2B
06E1C:  MOVLW  02
06E1E:  MOVWF  x2C
06E20:  MOVLB  0
06E22:  CALL   3F64
....................             strcpy(Menus.Letra,"Incorrecta"); 
06E26:  MOVLW  07
06E28:  MOVWF  FEA
06E2A:  MOVLW  12
06E2C:  MOVWF  FE9
06E2E:  MOVFF  FF2,727
06E32:  BCF    FF2.7
06E34:  MOVLW  00
06E36:  CALL   1C82
06E3A:  TBLRD*-
06E3C:  TBLRD*+
06E3E:  MOVF   FF5,W
06E40:  MOVWF  FEE
06E42:  IORLW  00
06E44:  BNZ   6E3C
06E46:  MOVLB  7
06E48:  BTFSC  x27.7
06E4A:  BSF    FF2.7
....................             displayMenu(Menus.Letra,0,30,0,2); 
06E4C:  MOVLW  07
06E4E:  MOVWF  x28
06E50:  MOVLW  12
06E52:  MOVWF  x27
06E54:  CLRF   x29
06E56:  MOVLW  1E
06E58:  MOVWF  x2A
06E5A:  CLRF   x2B
06E5C:  MOVLW  02
06E5E:  MOVWF  x2C
06E60:  MOVLB  0
06E62:  CALL   3F64
....................             Menu=0;glcd_update();delay_ms(1000); 
06E66:  MOVLB  6
06E68:  CLRF   xE1
06E6A:  MOVLB  0
06E6C:  CALL   3990
06E70:  MOVLW  04
06E72:  MOVLB  7
06E74:  MOVWF  x27
06E76:  MOVLW  FA
06E78:  MOVWF  x2D
06E7A:  MOVLB  0
06E7C:  CALL   30A6
06E80:  MOVLB  7
06E82:  DECFSZ x27,F
06E84:  BRA    6E76
....................             glcd_fillScreen(OFF);unidad=1; 
06E86:  CLRF   x28
06E88:  MOVLB  0
06E8A:  CALL   3936
06E8E:  MOVLW  01
06E90:  MOVLB  6
06E92:  MOVWF  xE2
....................             Contrasena[0]=0;Contrasena[1]=0;Contrasena[2]=0;Contrasena[3]=0; 
06E94:  CLRF   xFC
06E96:  CLRF   xFD
06E98:  CLRF   xFE
06E9A:  CLRF   xFF
....................             displayContrasena(Contrasena[0],20,30,1); 
06E9C:  MOVFF  6FC,729
06EA0:  MOVLW  14
06EA2:  MOVLB  7
06EA4:  MOVWF  x2A
06EA6:  MOVLW  1E
06EA8:  MOVWF  x2B
06EAA:  MOVLW  01
06EAC:  MOVWF  x2C
06EAE:  MOVLB  0
06EB0:  CALL   418A
....................             displayContrasena(Contrasena[1],40,30,0); 
06EB4:  MOVFF  6FD,729
06EB8:  MOVLW  28
06EBA:  MOVLB  7
06EBC:  MOVWF  x2A
06EBE:  MOVLW  1E
06EC0:  MOVWF  x2B
06EC2:  CLRF   x2C
06EC4:  MOVLB  0
06EC6:  CALL   418A
....................             displayContrasena(Contrasena[2],60,30,0); 
06ECA:  MOVFF  6FE,729
06ECE:  MOVLW  3C
06ED0:  MOVLB  7
06ED2:  MOVWF  x2A
06ED4:  MOVLW  1E
06ED6:  MOVWF  x2B
06ED8:  CLRF   x2C
06EDA:  MOVLB  0
06EDC:  CALL   418A
....................             displayContrasena(Contrasena[3],80,30,0); 
06EE0:  MOVFF  6FF,729
06EE4:  MOVLW  50
06EE6:  MOVLB  7
06EE8:  MOVWF  x2A
06EEA:  MOVLW  1E
06EEC:  MOVWF  x2B
06EEE:  CLRF   x2C
06EF0:  MOVLB  0
06EF2:  CALL   418A
06EF6:  MOVLB  6
....................          } 
....................       } 
....................     } 
.................... //_--------------------------------------------------------------------------------------------------------------------------------------------------------        
....................  
.................... //_-------------------------------------------------------------------------------------------------------------------------------------------------------- 
....................       if(Menu==1){ //Menu Principal.       
06EF8:  DECFSZ xE1,W
06EFA:  BRA    7606
....................        
....................       if(visual==1) 
06EFC:  MOVLB  4
06EFE:  BTFSS  x65.4
06F00:  BRA    7586
....................       { 
....................          if(Opcion>10) 
06F02:  MOVLB  6
06F04:  MOVF   xE7,W
06F06:  SUBLW  0A
06F08:  BC    6F0E
....................          {Opcion=1;} 
06F0A:  MOVLW  01
06F0C:  MOVWF  xE7
....................          if(Opcion<1) 
06F0E:  MOVF   xE7,F
06F10:  BNZ   6F16
....................          {Opcion=10;} 
06F12:  MOVLW  0A
06F14:  MOVWF  xE7
....................           
....................          strcpy(Menus.Letra,"Menu Principal"); 
06F16:  MOVLW  07
06F18:  MOVWF  FEA
06F1A:  MOVLW  12
06F1C:  MOVWF  FE9
06F1E:  MOVFF  FF2,727
06F22:  BCF    FF2.7
06F24:  MOVLW  00
06F26:  MOVLB  0
06F28:  CALL   1CAC
06F2C:  TBLRD*-
06F2E:  TBLRD*+
06F30:  MOVF   FF5,W
06F32:  MOVWF  FEE
06F34:  IORLW  00
06F36:  BNZ   6F2E
06F38:  MOVLB  7
06F3A:  BTFSC  x27.7
06F3C:  BSF    FF2.7
....................          displayMenu(Menus.Letra,30,0,1,1); 
06F3E:  MOVLW  07
06F40:  MOVWF  x28
06F42:  MOVLW  12
06F44:  MOVWF  x27
06F46:  MOVLW  1E
06F48:  MOVWF  x29
06F4A:  CLRF   x2A
06F4C:  MOVLW  01
06F4E:  MOVWF  x2B
06F50:  MOVWF  x2C
06F52:  MOVLB  0
06F54:  CALL   3F64
....................        
....................          if(Opcion<=6) 
06F58:  MOVLB  6
06F5A:  MOVF   xE7,W
06F5C:  SUBLW  06
06F5E:  BTFSS  FD8.0
06F60:  BRA    72C6
....................          { 
....................             if(Opcion==1) 
06F62:  DECFSZ xE7,W
06F64:  BRA    6FAC
....................                {strcpy(Menus.Letra,"Ins. Del. no Envuelto"); 
06F66:  MOVLW  07
06F68:  MOVWF  FEA
06F6A:  MOVLW  12
06F6C:  MOVWF  FE9
06F6E:  MOVFF  FF2,727
06F72:  BCF    FF2.7
06F74:  MOVLW  00
06F76:  MOVLB  0
06F78:  CALL   1CDA
06F7C:  TBLRD*-
06F7E:  TBLRD*+
06F80:  MOVF   FF5,W
06F82:  MOVWF  FEE
06F84:  IORLW  00
06F86:  BNZ   6F7E
06F88:  MOVLB  7
06F8A:  BTFSC  x27.7
06F8C:  BSF    FF2.7
....................                displayMenu(Menus.Letra,0,10,1,1);} 
06F8E:  MOVLW  07
06F90:  MOVWF  x28
06F92:  MOVLW  12
06F94:  MOVWF  x27
06F96:  CLRF   x29
06F98:  MOVLW  0A
06F9A:  MOVWF  x2A
06F9C:  MOVLW  01
06F9E:  MOVWF  x2B
06FA0:  MOVWF  x2C
06FA2:  MOVLB  0
06FA4:  CALL   3F64
....................             else 
06FA8:  BRA    6FEE
06FAA:  MOVLB  6
....................                {strcpy(Menus.Letra,"Ins. Del. no Envuelto"); 
06FAC:  MOVLW  07
06FAE:  MOVWF  FEA
06FB0:  MOVLW  12
06FB2:  MOVWF  FE9
06FB4:  MOVFF  FF2,727
06FB8:  BCF    FF2.7
06FBA:  MOVLW  00
06FBC:  MOVLB  0
06FBE:  CALL   1CDA
06FC2:  TBLRD*-
06FC4:  TBLRD*+
06FC6:  MOVF   FF5,W
06FC8:  MOVWF  FEE
06FCA:  IORLW  00
06FCC:  BNZ   6FC4
06FCE:  MOVLB  7
06FD0:  BTFSC  x27.7
06FD2:  BSF    FF2.7
....................                displayMenu(Menus.Letra,0,10,0,1);} 
06FD4:  MOVLW  07
06FD6:  MOVWF  x28
06FD8:  MOVLW  12
06FDA:  MOVWF  x27
06FDC:  CLRF   x29
06FDE:  MOVLW  0A
06FE0:  MOVWF  x2A
06FE2:  CLRF   x2B
06FE4:  MOVLW  01
06FE6:  MOVWF  x2C
06FE8:  MOVLB  0
06FEA:  CALL   3F64
....................              
....................             if(Opcion==2)    
06FEE:  MOVLB  6
06FF0:  MOVF   xE7,W
06FF2:  SUBLW  02
06FF4:  BNZ   703C
....................                {strcpy(Menus.Letra,"Ins. Del. Envuelto"); 
06FF6:  MOVLW  07
06FF8:  MOVWF  FEA
06FFA:  MOVLW  12
06FFC:  MOVWF  FE9
06FFE:  MOVFF  FF2,727
07002:  BCF    FF2.7
07004:  MOVLW  00
07006:  MOVLB  0
07008:  CALL   1D0E
0700C:  TBLRD*-
0700E:  TBLRD*+
07010:  MOVF   FF5,W
07012:  MOVWF  FEE
07014:  IORLW  00
07016:  BNZ   700E
07018:  MOVLB  7
0701A:  BTFSC  x27.7
0701C:  BSF    FF2.7
....................                displayMenu(Menus.Letra,0,19,1,1);} 
0701E:  MOVLW  07
07020:  MOVWF  x28
07022:  MOVLW  12
07024:  MOVWF  x27
07026:  CLRF   x29
07028:  MOVLW  13
0702A:  MOVWF  x2A
0702C:  MOVLW  01
0702E:  MOVWF  x2B
07030:  MOVWF  x2C
07032:  MOVLB  0
07034:  CALL   3F64
....................             else 
07038:  BRA    707E
0703A:  MOVLB  6
....................                {strcpy(Menus.Letra,"Ins. Del. Envuelto"); 
0703C:  MOVLW  07
0703E:  MOVWF  FEA
07040:  MOVLW  12
07042:  MOVWF  FE9
07044:  MOVFF  FF2,727
07048:  BCF    FF2.7
0704A:  MOVLW  00
0704C:  MOVLB  0
0704E:  CALL   1D0E
07052:  TBLRD*-
07054:  TBLRD*+
07056:  MOVF   FF5,W
07058:  MOVWF  FEE
0705A:  IORLW  00
0705C:  BNZ   7054
0705E:  MOVLB  7
07060:  BTFSC  x27.7
07062:  BSF    FF2.7
....................                displayMenu(Menus.Letra,0,19,0,1);}    
07064:  MOVLW  07
07066:  MOVWF  x28
07068:  MOVLW  12
0706A:  MOVWF  x27
0706C:  CLRF   x29
0706E:  MOVLW  13
07070:  MOVWF  x2A
07072:  CLRF   x2B
07074:  MOVLW  01
07076:  MOVWF  x2C
07078:  MOVLB  0
0707A:  CALL   3F64
....................                 
....................              if(Opcion==3)    
0707E:  MOVLB  6
07080:  MOVF   xE7,W
07082:  SUBLW  03
07084:  BNZ   70CC
....................                {strcpy(Menus.Letra,"Ins. no Envuelto"); 
07086:  MOVLW  07
07088:  MOVWF  FEA
0708A:  MOVLW  12
0708C:  MOVWF  FE9
0708E:  MOVFF  FF2,727
07092:  BCF    FF2.7
07094:  MOVLW  00
07096:  MOVLB  0
07098:  CALL   1D40
0709C:  TBLRD*-
0709E:  TBLRD*+
070A0:  MOVF   FF5,W
070A2:  MOVWF  FEE
070A4:  IORLW  00
070A6:  BNZ   709E
070A8:  MOVLB  7
070AA:  BTFSC  x27.7
070AC:  BSF    FF2.7
....................                displayMenu(Menus.Letra,0,28,1,1);} 
070AE:  MOVLW  07
070B0:  MOVWF  x28
070B2:  MOVLW  12
070B4:  MOVWF  x27
070B6:  CLRF   x29
070B8:  MOVLW  1C
070BA:  MOVWF  x2A
070BC:  MOVLW  01
070BE:  MOVWF  x2B
070C0:  MOVWF  x2C
070C2:  MOVLB  0
070C4:  CALL   3F64
....................             else 
070C8:  BRA    710E
070CA:  MOVLB  6
....................                {strcpy(Menus.Letra,"Ins. no Envuelto"); 
070CC:  MOVLW  07
070CE:  MOVWF  FEA
070D0:  MOVLW  12
070D2:  MOVWF  FE9
070D4:  MOVFF  FF2,727
070D8:  BCF    FF2.7
070DA:  MOVLW  00
070DC:  MOVLB  0
070DE:  CALL   1D40
070E2:  TBLRD*-
070E4:  TBLRD*+
070E6:  MOVF   FF5,W
070E8:  MOVWF  FEE
070EA:  IORLW  00
070EC:  BNZ   70E4
070EE:  MOVLB  7
070F0:  BTFSC  x27.7
070F2:  BSF    FF2.7
....................                displayMenu(Menus.Letra,0,28,0,1);} 
070F4:  MOVLW  07
070F6:  MOVWF  x28
070F8:  MOVLW  12
070FA:  MOVWF  x27
070FC:  CLRF   x29
070FE:  MOVLW  1C
07100:  MOVWF  x2A
07102:  CLRF   x2B
07104:  MOVLW  01
07106:  MOVWF  x2C
07108:  MOVLB  0
0710A:  CALL   3F64
....................                 
....................             if(Opcion==4)    
0710E:  MOVLB  6
07110:  MOVF   xE7,W
07112:  SUBLW  04
07114:  BNZ   715C
....................                {strcpy(Menus.Letra,"Ins. Envuelto"); 
07116:  MOVLW  07
07118:  MOVWF  FEA
0711A:  MOVLW  12
0711C:  MOVWF  FE9
0711E:  MOVFF  FF2,727
07122:  BCF    FF2.7
07124:  MOVLW  00
07126:  MOVLB  0
07128:  CALL   1D70
0712C:  TBLRD*-
0712E:  TBLRD*+
07130:  MOVF   FF5,W
07132:  MOVWF  FEE
07134:  IORLW  00
07136:  BNZ   712E
07138:  MOVLB  7
0713A:  BTFSC  x27.7
0713C:  BSF    FF2.7
....................                displayMenu(Menus.Letra,0,37,1,1);} 
0713E:  MOVLW  07
07140:  MOVWF  x28
07142:  MOVLW  12
07144:  MOVWF  x27
07146:  CLRF   x29
07148:  MOVLW  25
0714A:  MOVWF  x2A
0714C:  MOVLW  01
0714E:  MOVWF  x2B
07150:  MOVWF  x2C
07152:  MOVLB  0
07154:  CALL   3F64
....................             else 
07158:  BRA    719E
0715A:  MOVLB  6
....................                {strcpy(Menus.Letra,"Ins. Envuelto"); 
0715C:  MOVLW  07
0715E:  MOVWF  FEA
07160:  MOVLW  12
07162:  MOVWF  FE9
07164:  MOVFF  FF2,727
07168:  BCF    FF2.7
0716A:  MOVLW  00
0716C:  MOVLB  0
0716E:  CALL   1D70
07172:  TBLRD*-
07174:  TBLRD*+
07176:  MOVF   FF5,W
07178:  MOVWF  FEE
0717A:  IORLW  00
0717C:  BNZ   7174
0717E:  MOVLB  7
07180:  BTFSC  x27.7
07182:  BSF    FF2.7
....................                displayMenu(Menus.Letra,0,37,0,1);}    
07184:  MOVLW  07
07186:  MOVWF  x28
07188:  MOVLW  12
0718A:  MOVWF  x27
0718C:  CLRF   x29
0718E:  MOVLW  25
07190:  MOVWF  x2A
07192:  CLRF   x2B
07194:  MOVLW  01
07196:  MOVWF  x2C
07198:  MOVLB  0
0719A:  CALL   3F64
....................                 
....................             if(Opcion==5)    
0719E:  MOVLB  6
071A0:  MOVF   xE7,W
071A2:  SUBLW  05
071A4:  BNZ   71EC
....................                {strcpy(Menus.Letra,"Textil e Instrumental"); 
071A6:  MOVLW  07
071A8:  MOVWF  FEA
071AA:  MOVLW  12
071AC:  MOVWF  FE9
071AE:  MOVFF  FF2,727
071B2:  BCF    FF2.7
071B4:  MOVLW  00
071B6:  MOVLB  0
071B8:  CALL   1D9C
071BC:  TBLRD*-
071BE:  TBLRD*+
071C0:  MOVF   FF5,W
071C2:  MOVWF  FEE
071C4:  IORLW  00
071C6:  BNZ   71BE
071C8:  MOVLB  7
071CA:  BTFSC  x27.7
071CC:  BSF    FF2.7
....................                displayMenu(Menus.Letra,0,46,1,1);} 
071CE:  MOVLW  07
071D0:  MOVWF  x28
071D2:  MOVLW  12
071D4:  MOVWF  x27
071D6:  CLRF   x29
071D8:  MOVLW  2E
071DA:  MOVWF  x2A
071DC:  MOVLW  01
071DE:  MOVWF  x2B
071E0:  MOVWF  x2C
071E2:  MOVLB  0
071E4:  CALL   3F64
....................             else 
071E8:  BRA    722E
071EA:  MOVLB  6
....................                {strcpy(Menus.Letra,"Textil e Instrumental"); 
071EC:  MOVLW  07
071EE:  MOVWF  FEA
071F0:  MOVLW  12
071F2:  MOVWF  FE9
071F4:  MOVFF  FF2,727
071F8:  BCF    FF2.7
071FA:  MOVLW  00
071FC:  MOVLB  0
071FE:  CALL   1D9C
07202:  TBLRD*-
07204:  TBLRD*+
07206:  MOVF   FF5,W
07208:  MOVWF  FEE
0720A:  IORLW  00
0720C:  BNZ   7204
0720E:  MOVLB  7
07210:  BTFSC  x27.7
07212:  BSF    FF2.7
....................                displayMenu(Menus.Letra,0,46,0,1);}   
07214:  MOVLW  07
07216:  MOVWF  x28
07218:  MOVLW  12
0721A:  MOVWF  x27
0721C:  CLRF   x29
0721E:  MOVLW  2E
07220:  MOVWF  x2A
07222:  CLRF   x2B
07224:  MOVLW  01
07226:  MOVWF  x2C
07228:  MOVLB  0
0722A:  CALL   3F64
....................                 
....................             if(Opcion==6)    
0722E:  MOVLB  6
07230:  MOVF   xE7,W
07232:  SUBLW  06
07234:  BNZ   727C
....................                {strcpy(Menus.Letra,"Test Bowie-Dick"); 
07236:  MOVLW  07
07238:  MOVWF  FEA
0723A:  MOVLW  12
0723C:  MOVWF  FE9
0723E:  MOVFF  FF2,727
07242:  BCF    FF2.7
07244:  MOVLW  00
07246:  MOVLB  0
07248:  CALL   1DD0
0724C:  TBLRD*-
0724E:  TBLRD*+
07250:  MOVF   FF5,W
07252:  MOVWF  FEE
07254:  IORLW  00
07256:  BNZ   724E
07258:  MOVLB  7
0725A:  BTFSC  x27.7
0725C:  BSF    FF2.7
....................                displayMenu(Menus.Letra,0,55,1,1);} 
0725E:  MOVLW  07
07260:  MOVWF  x28
07262:  MOVLW  12
07264:  MOVWF  x27
07266:  CLRF   x29
07268:  MOVLW  37
0726A:  MOVWF  x2A
0726C:  MOVLW  01
0726E:  MOVWF  x2B
07270:  MOVWF  x2C
07272:  MOVLB  0
07274:  CALL   3F64
....................             else 
07278:  BRA    72BE
0727A:  MOVLB  6
....................                {strcpy(Menus.Letra,"Test Bowie-Dick"); 
0727C:  MOVLW  07
0727E:  MOVWF  FEA
07280:  MOVLW  12
07282:  MOVWF  FE9
07284:  MOVFF  FF2,727
07288:  BCF    FF2.7
0728A:  MOVLW  00
0728C:  MOVLB  0
0728E:  CALL   1DD0
07292:  TBLRD*-
07294:  TBLRD*+
07296:  MOVF   FF5,W
07298:  MOVWF  FEE
0729A:  IORLW  00
0729C:  BNZ   7294
0729E:  MOVLB  7
072A0:  BTFSC  x27.7
072A2:  BSF    FF2.7
....................                displayMenu(Menus.Letra,0,55,0,1);}      
072A4:  MOVLW  07
072A6:  MOVWF  x28
072A8:  MOVLW  12
072AA:  MOVWF  x27
072AC:  CLRF   x29
072AE:  MOVLW  37
072B0:  MOVWF  x2A
072B2:  CLRF   x2B
072B4:  MOVLW  01
072B6:  MOVWF  x2C
072B8:  MOVLB  0
072BA:  CALL   3F64
....................                visual=0; 
072BE:  MOVLB  4
072C0:  BCF    x65.4
....................          } 
....................          else 
072C2:  BRA    7586
072C4:  MOVLB  6
....................          { 
....................             if(Opcion==7) 
072C6:  MOVF   xE7,W
072C8:  SUBLW  07
072CA:  BNZ   7312
....................                {strcpy(Menus.Letra,"Test de Fugas"); 
072CC:  MOVLW  07
072CE:  MOVWF  FEA
072D0:  MOVLW  12
072D2:  MOVWF  FE9
072D4:  MOVFF  FF2,727
072D8:  BCF    FF2.7
072DA:  MOVLW  00
072DC:  MOVLB  0
072DE:  CALL   1DFE
072E2:  TBLRD*-
072E4:  TBLRD*+
072E6:  MOVF   FF5,W
072E8:  MOVWF  FEE
072EA:  IORLW  00
072EC:  BNZ   72E4
072EE:  MOVLB  7
072F0:  BTFSC  x27.7
072F2:  BSF    FF2.7
....................                displayMenu(Menus.Letra,0,10,1,1);} 
072F4:  MOVLW  07
072F6:  MOVWF  x28
072F8:  MOVLW  12
072FA:  MOVWF  x27
072FC:  CLRF   x29
072FE:  MOVLW  0A
07300:  MOVWF  x2A
07302:  MOVLW  01
07304:  MOVWF  x2B
07306:  MOVWF  x2C
07308:  MOVLB  0
0730A:  CALL   3F64
....................             else 
0730E:  BRA    7354
07310:  MOVLB  6
....................                {strcpy(Menus.Letra,"Test de Fugas"); 
07312:  MOVLW  07
07314:  MOVWF  FEA
07316:  MOVLW  12
07318:  MOVWF  FE9
0731A:  MOVFF  FF2,727
0731E:  BCF    FF2.7
07320:  MOVLW  00
07322:  MOVLB  0
07324:  CALL   1DFE
07328:  TBLRD*-
0732A:  TBLRD*+
0732C:  MOVF   FF5,W
0732E:  MOVWF  FEE
07330:  IORLW  00
07332:  BNZ   732A
07334:  MOVLB  7
07336:  BTFSC  x27.7
07338:  BSF    FF2.7
....................                displayMenu(Menus.Letra,0,10,0,1);} 
0733A:  MOVLW  07
0733C:  MOVWF  x28
0733E:  MOVLW  12
07340:  MOVWF  x27
07342:  CLRF   x29
07344:  MOVLW  0A
07346:  MOVWF  x2A
07348:  CLRF   x2B
0734A:  MOVLW  01
0734C:  MOVWF  x2C
0734E:  MOVLB  0
07350:  CALL   3F64
....................                 
....................             if(Opcion==8)    
07354:  MOVLB  6
07356:  MOVF   xE7,W
07358:  SUBLW  08
0735A:  BNZ   73A2
....................                {strcpy(Menus.Letra,"Personalizado"); 
0735C:  MOVLW  07
0735E:  MOVWF  FEA
07360:  MOVLW  12
07362:  MOVWF  FE9
07364:  MOVFF  FF2,727
07368:  BCF    FF2.7
0736A:  MOVLW  00
0736C:  MOVLB  0
0736E:  CALL   1E2A
07372:  TBLRD*-
07374:  TBLRD*+
07376:  MOVF   FF5,W
07378:  MOVWF  FEE
0737A:  IORLW  00
0737C:  BNZ   7374
0737E:  MOVLB  7
07380:  BTFSC  x27.7
07382:  BSF    FF2.7
....................                displayMenu(Menus.Letra,0,19,1,1);} 
07384:  MOVLW  07
07386:  MOVWF  x28
07388:  MOVLW  12
0738A:  MOVWF  x27
0738C:  CLRF   x29
0738E:  MOVLW  13
07390:  MOVWF  x2A
07392:  MOVLW  01
07394:  MOVWF  x2B
07396:  MOVWF  x2C
07398:  MOVLB  0
0739A:  CALL   3F64
....................             else 
0739E:  BRA    73E4
073A0:  MOVLB  6
....................                {strcpy(Menus.Letra,"Personalizado"); 
073A2:  MOVLW  07
073A4:  MOVWF  FEA
073A6:  MOVLW  12
073A8:  MOVWF  FE9
073AA:  MOVFF  FF2,727
073AE:  BCF    FF2.7
073B0:  MOVLW  00
073B2:  MOVLB  0
073B4:  CALL   1E2A
073B8:  TBLRD*-
073BA:  TBLRD*+
073BC:  MOVF   FF5,W
073BE:  MOVWF  FEE
073C0:  IORLW  00
073C2:  BNZ   73BA
073C4:  MOVLB  7
073C6:  BTFSC  x27.7
073C8:  BSF    FF2.7
....................                displayMenu(Menus.Letra,0,19,0,1);}    
073CA:  MOVLW  07
073CC:  MOVWF  x28
073CE:  MOVLW  12
073D0:  MOVWF  x27
073D2:  CLRF   x29
073D4:  MOVLW  13
073D6:  MOVWF  x2A
073D8:  CLRF   x2B
073DA:  MOVLW  01
073DC:  MOVWF  x2C
073DE:  MOVLB  0
073E0:  CALL   3F64
....................                 
....................              if(Opcion==9)    
073E4:  MOVLB  6
073E6:  MOVF   xE7,W
073E8:  SUBLW  09
073EA:  BNZ   7432
....................                {strcpy(Menus.Letra,"Cambio de Clave"); 
073EC:  MOVLW  07
073EE:  MOVWF  FEA
073F0:  MOVLW  12
073F2:  MOVWF  FE9
073F4:  MOVFF  FF2,727
073F8:  BCF    FF2.7
073FA:  MOVLW  00
073FC:  MOVLB  0
073FE:  CALL   1E56
07402:  TBLRD*-
07404:  TBLRD*+
07406:  MOVF   FF5,W
07408:  MOVWF  FEE
0740A:  IORLW  00
0740C:  BNZ   7404
0740E:  MOVLB  7
07410:  BTFSC  x27.7
07412:  BSF    FF2.7
....................                displayMenu(Menus.Letra,0,28,1,1);} 
07414:  MOVLW  07
07416:  MOVWF  x28
07418:  MOVLW  12
0741A:  MOVWF  x27
0741C:  CLRF   x29
0741E:  MOVLW  1C
07420:  MOVWF  x2A
07422:  MOVLW  01
07424:  MOVWF  x2B
07426:  MOVWF  x2C
07428:  MOVLB  0
0742A:  CALL   3F64
....................             else 
0742E:  BRA    7474
07430:  MOVLB  6
....................                {strcpy(Menus.Letra,"Cambio de Clave"); 
07432:  MOVLW  07
07434:  MOVWF  FEA
07436:  MOVLW  12
07438:  MOVWF  FE9
0743A:  MOVFF  FF2,727
0743E:  BCF    FF2.7
07440:  MOVLW  00
07442:  MOVLB  0
07444:  CALL   1E56
07448:  TBLRD*-
0744A:  TBLRD*+
0744C:  MOVF   FF5,W
0744E:  MOVWF  FEE
07450:  IORLW  00
07452:  BNZ   744A
07454:  MOVLB  7
07456:  BTFSC  x27.7
07458:  BSF    FF2.7
....................                displayMenu(Menus.Letra,0,28,0,1);} 
0745A:  MOVLW  07
0745C:  MOVWF  x28
0745E:  MOVLW  12
07460:  MOVWF  x27
07462:  CLRF   x29
07464:  MOVLW  1C
07466:  MOVWF  x2A
07468:  CLRF   x2B
0746A:  MOVLW  01
0746C:  MOVWF  x2C
0746E:  MOVLB  0
07470:  CALL   3F64
....................                 
....................             if(Opcion==10)    
07474:  MOVLB  6
07476:  MOVF   xE7,W
07478:  SUBLW  0A
0747A:  BNZ   74C2
....................                {strcpy(Menus.Letra,"Test Componentes"); 
0747C:  MOVLW  07
0747E:  MOVWF  FEA
07480:  MOVLW  12
07482:  MOVWF  FE9
07484:  MOVFF  FF2,727
07488:  BCF    FF2.7
0748A:  MOVLW  00
0748C:  MOVLB  0
0748E:  CALL   1E84
07492:  TBLRD*-
07494:  TBLRD*+
07496:  MOVF   FF5,W
07498:  MOVWF  FEE
0749A:  IORLW  00
0749C:  BNZ   7494
0749E:  MOVLB  7
074A0:  BTFSC  x27.7
074A2:  BSF    FF2.7
....................                displayMenu(Menus.Letra,0,37,1,1);} 
074A4:  MOVLW  07
074A6:  MOVWF  x28
074A8:  MOVLW  12
074AA:  MOVWF  x27
074AC:  CLRF   x29
074AE:  MOVLW  25
074B0:  MOVWF  x2A
074B2:  MOVLW  01
074B4:  MOVWF  x2B
074B6:  MOVWF  x2C
074B8:  MOVLB  0
074BA:  CALL   3F64
....................             else 
074BE:  BRA    7504
074C0:  MOVLB  6
....................                {strcpy(Menus.Letra,"Test Componentes"); 
074C2:  MOVLW  07
074C4:  MOVWF  FEA
074C6:  MOVLW  12
074C8:  MOVWF  FE9
074CA:  MOVFF  FF2,727
074CE:  BCF    FF2.7
074D0:  MOVLW  00
074D2:  MOVLB  0
074D4:  CALL   1E84
074D8:  TBLRD*-
074DA:  TBLRD*+
074DC:  MOVF   FF5,W
074DE:  MOVWF  FEE
074E0:  IORLW  00
074E2:  BNZ   74DA
074E4:  MOVLB  7
074E6:  BTFSC  x27.7
074E8:  BSF    FF2.7
....................                displayMenu(Menus.Letra,0,37,0,1);}  
074EA:  MOVLW  07
074EC:  MOVWF  x28
074EE:  MOVLW  12
074F0:  MOVWF  x27
074F2:  CLRF   x29
074F4:  MOVLW  25
074F6:  MOVWF  x2A
074F8:  CLRF   x2B
074FA:  MOVLW  01
074FC:  MOVWF  x2C
074FE:  MOVLB  0
07500:  CALL   3F64
....................                 
....................                strcpy(Menus.Letra,"           "); 
07504:  MOVLW  07
07506:  MOVWF  FEA
07508:  MOVLW  12
0750A:  MOVWF  FE9
0750C:  MOVFF  FF2,727
07510:  BCF    FF2.7
07512:  MOVLW  00
07514:  CALL   1EB4
07518:  TBLRD*-
0751A:  TBLRD*+
0751C:  MOVF   FF5,W
0751E:  MOVWF  FEE
07520:  IORLW  00
07522:  BNZ   751A
07524:  MOVLB  7
07526:  BTFSC  x27.7
07528:  BSF    FF2.7
....................                displayMenu(Menus.Letra,0,46,0,1); 
0752A:  MOVLW  07
0752C:  MOVWF  x28
0752E:  MOVLW  12
07530:  MOVWF  x27
07532:  CLRF   x29
07534:  MOVLW  2E
07536:  MOVWF  x2A
07538:  CLRF   x2B
0753A:  MOVLW  01
0753C:  MOVWF  x2C
0753E:  MOVLB  0
07540:  CALL   3F64
....................                 
....................                strcpy(Menus.Letra,"           "); 
07544:  MOVLW  07
07546:  MOVWF  FEA
07548:  MOVLW  12
0754A:  MOVWF  FE9
0754C:  MOVFF  FF2,727
07550:  BCF    FF2.7
07552:  MOVLW  00
07554:  CALL   1EB4
07558:  TBLRD*-
0755A:  TBLRD*+
0755C:  MOVF   FF5,W
0755E:  MOVWF  FEE
07560:  IORLW  00
07562:  BNZ   755A
07564:  MOVLB  7
07566:  BTFSC  x27.7
07568:  BSF    FF2.7
....................                displayMenu(Menus.Letra,0,55,0,1); 
0756A:  MOVLW  07
0756C:  MOVWF  x28
0756E:  MOVLW  12
07570:  MOVWF  x27
07572:  CLRF   x29
07574:  MOVLW  37
07576:  MOVWF  x2A
07578:  CLRF   x2B
0757A:  MOVLW  01
0757C:  MOVWF  x2C
0757E:  MOVLB  0
07580:  CALL   3F64
07584:  MOVLB  4
....................          } 
....................       } 
....................        
....................       if(UP){ 
07586:  BSF    F92.4
07588:  BTFSC  F80.4
0758A:  BRA    75A8
....................          if(Flanco == 0){ 
0758C:  BTFSC  x65.1
0758E:  BRA    75A6
....................             Flanco = 1;delay_ms(10);Opcion--;visual=1; 
07590:  BSF    x65.1
07592:  MOVLW  0A
07594:  MOVLB  7
07596:  MOVWF  x2D
07598:  MOVLB  0
0759A:  CALL   30A6
0759E:  MOVLB  6
075A0:  DECF   xE7,F
075A2:  MOVLB  4
075A4:  BSF    x65.4
....................          } 
....................       }else{ 
075A6:  BRA    75AA
....................          Flanco = 0; 
075A8:  BCF    x65.1
....................       } 
....................                    
....................       if(DOWN){ 
075AA:  BSF    F92.5
075AC:  BTFSC  F80.5
075AE:  BRA    75CC
....................          if(Flanco2 == 0){ 
075B0:  BTFSC  x65.3
075B2:  BRA    75CA
....................             Flanco2 = 1;delay_ms(10);Opcion++;visual=1; 
075B4:  BSF    x65.3
075B6:  MOVLW  0A
075B8:  MOVLB  7
075BA:  MOVWF  x2D
075BC:  MOVLB  0
075BE:  CALL   30A6
075C2:  MOVLB  6
075C4:  INCF   xE7,F
075C6:  MOVLB  4
075C8:  BSF    x65.4
....................          }      
....................       }else{ 
075CA:  BRA    75CE
....................          Flanco2 = 0; 
075CC:  BCF    x65.3
....................       } 
....................                 
....................        if(RIGHT)//Si oprime SET 
075CE:  BSF    F96.0
075D0:  BTFSC  F84.0
075D2:  BRA    7602
....................          {  if(Flanco1 == 0)  
075D4:  BTFSC  x65.2
075D6:  BRA    7600
....................                {Flanco1 = 1;delay_ms(30);Menu=Opcion+3;Opcion=1;glcd_fillscreen(OFF);visual=1; 
075D8:  BSF    x65.2
075DA:  MOVLW  1E
075DC:  MOVLB  7
075DE:  MOVWF  x2D
075E0:  MOVLB  0
075E2:  CALL   30A6
075E6:  MOVLW  03
075E8:  MOVLB  6
075EA:  ADDWF  xE7,W
075EC:  MOVWF  xE1
075EE:  MOVLW  01
075F0:  MOVWF  xE7
075F2:  MOVLB  7
075F4:  CLRF   x28
075F6:  MOVLB  0
075F8:  CALL   3936
075FC:  MOVLB  4
075FE:  BSF    x65.4
....................                } 
....................          } 
....................             else 
07600:  BRA    7604
....................                {Flanco1 = 0;}   
07602:  BCF    x65.2
07604:  MOVLB  6
....................    } 
.................... //_--------------------------------------------------------------------------------------------------------------------------------------------------------        
....................  
.................... //_--------------------------------------------------------------------------------------------------------------------------------------------------------       
....................       if(Menu==4){ // Menu de Instrumental Delicado no envuelto 
07606:  MOVF   xE1,W
07608:  SUBLW  04
0760A:  BTFSS  FD8.2
0760C:  BRA    77CE
....................        
....................       if(visual==1) 
0760E:  MOVLB  4
07610:  BTFSS  x65.4
07612:  BRA    7768
....................       { 
....................          glcd_imagen(2); //Guante 
07614:  MOVLW  02
07616:  MOVLB  7
07618:  MOVWF  x28
0761A:  MOVLB  0
0761C:  CALL   509C
....................          strcpy(Menus.Letra,"Ins. Del. NE"); 
07620:  MOVLW  07
07622:  MOVWF  FEA
07624:  MOVLW  12
07626:  MOVWF  FE9
07628:  MOVFF  FF2,727
0762C:  BCF    FF2.7
0762E:  MOVLW  00
07630:  CALL   1EDE
07634:  TBLRD*-
07636:  TBLRD*+
07638:  MOVF   FF5,W
0763A:  MOVWF  FEE
0763C:  IORLW  00
0763E:  BNZ   7636
07640:  MOVLB  7
07642:  BTFSC  x27.7
07644:  BSF    FF2.7
....................          displayMenu(Menus.Letra,20,0,1,2); 
07646:  MOVLW  07
07648:  MOVWF  x28
0764A:  MOVLW  12
0764C:  MOVWF  x27
0764E:  MOVLW  14
07650:  MOVWF  x29
07652:  CLRF   x2A
07654:  MOVLW  01
07656:  MOVWF  x2B
07658:  MOVLW  02
0765A:  MOVWF  x2C
0765C:  MOVLB  0
0765E:  CALL   3F64
....................          
....................          strcpy(Menus.Letra,"Ins. Del. NE"); 
07662:  MOVLW  07
07664:  MOVWF  FEA
07666:  MOVLW  12
07668:  MOVWF  FE9
0766A:  MOVFF  FF2,727
0766E:  BCF    FF2.7
07670:  MOVLW  00
07672:  CALL   1EDE
07676:  TBLRD*-
07678:  TBLRD*+
0767A:  MOVF   FF5,W
0767C:  MOVWF  FEE
0767E:  IORLW  00
07680:  BNZ   7678
07682:  MOVLB  7
07684:  BTFSC  x27.7
07686:  BSF    FF2.7
....................          displayMenu(Menus.Letra,7,55,0,1); 
07688:  MOVLW  07
0768A:  MOVWF  x28
0768C:  MOVLW  12
0768E:  MOVWF  x27
07690:  MOVLW  07
07692:  MOVWF  x29
07694:  MOVLW  37
07696:  MOVWF  x2A
07698:  CLRF   x2B
0769A:  MOVLW  01
0769C:  MOVWF  x2C
0769E:  MOVLB  0
076A0:  CALL   3F64
....................           
....................          strcpy(Menus.Letra,"Temperatura:121 C"); 
076A4:  MOVLW  07
076A6:  MOVWF  FEA
076A8:  MOVLW  12
076AA:  MOVWF  FE9
076AC:  MOVFF  FF2,727
076B0:  BCF    FF2.7
076B2:  MOVLW  00
076B4:  CALL   1F0A
076B8:  TBLRD*-
076BA:  TBLRD*+
076BC:  MOVF   FF5,W
076BE:  MOVWF  FEE
076C0:  IORLW  00
076C2:  BNZ   76BA
076C4:  MOVLB  7
076C6:  BTFSC  x27.7
076C8:  BSF    FF2.7
....................          displayMenu(Menus.Letra,0,26,0,1); 
076CA:  MOVLW  07
076CC:  MOVWF  x28
076CE:  MOVLW  12
076D0:  MOVWF  x27
076D2:  CLRF   x29
076D4:  MOVLW  1A
076D6:  MOVWF  x2A
076D8:  CLRF   x2B
076DA:  MOVLW  01
076DC:  MOVWF  x2C
076DE:  MOVLB  0
076E0:  CALL   3F64
....................          strcpy(Menus.Letra,"T. Esterilizacion:20m"); 
076E4:  MOVLW  07
076E6:  MOVWF  FEA
076E8:  MOVLW  12
076EA:  MOVWF  FE9
076EC:  MOVFF  FF2,727
076F0:  BCF    FF2.7
076F2:  MOVLW  00
076F4:  CALL   1F3A
076F8:  TBLRD*-
076FA:  TBLRD*+
076FC:  MOVF   FF5,W
076FE:  MOVWF  FEE
07700:  IORLW  00
07702:  BNZ   76FA
07704:  MOVLB  7
07706:  BTFSC  x27.7
07708:  BSF    FF2.7
....................          displayMenu(Menus.Letra,0,36,0,1); 
0770A:  MOVLW  07
0770C:  MOVWF  x28
0770E:  MOVLW  12
07710:  MOVWF  x27
07712:  CLRF   x29
07714:  MOVLW  24
07716:  MOVWF  x2A
07718:  CLRF   x2B
0771A:  MOVLW  01
0771C:  MOVWF  x2C
0771E:  MOVLB  0
07720:  CALL   3F64
....................          strcpy(Menus.Letra,"T. Secado= 15m"); 
07724:  MOVLW  07
07726:  MOVWF  FEA
07728:  MOVLW  12
0772A:  MOVWF  FE9
0772C:  MOVFF  FF2,727
07730:  BCF    FF2.7
07732:  MOVLW  00
07734:  CALL   1F6E
07738:  TBLRD*-
0773A:  TBLRD*+
0773C:  MOVF   FF5,W
0773E:  MOVWF  FEE
07740:  IORLW  00
07742:  BNZ   773A
07744:  MOVLB  7
07746:  BTFSC  x27.7
07748:  BSF    FF2.7
....................          displayMenu(Menus.Letra,0,46,0,1); 
0774A:  MOVLW  07
0774C:  MOVWF  x28
0774E:  MOVLW  12
07750:  MOVWF  x27
07752:  CLRF   x29
07754:  MOVLW  2E
07756:  MOVWF  x2A
07758:  CLRF   x2B
0775A:  MOVLW  01
0775C:  MOVWF  x2C
0775E:  MOVLB  0
07760:  CALL   3F64
....................          visual=0; 
07764:  MOVLB  4
07766:  BCF    x65.4
....................       } 
....................        
....................       if(LEFT)// Si oprime Izquier|da 
07768:  BSF    F96.1
0776A:  BTFSC  F84.1
0776C:  BRA    778E
....................       {  
....................          delay_ms(30);Menu=1;glcd_fillScreen(OFF);visual=1; 
0776E:  MOVLW  1E
07770:  MOVLB  7
07772:  MOVWF  x2D
07774:  MOVLB  0
07776:  CALL   30A6
0777A:  MOVLW  01
0777C:  MOVLB  6
0777E:  MOVWF  xE1
07780:  MOVLB  7
07782:  CLRF   x28
07784:  MOVLB  0
07786:  CALL   3936
0778A:  MOVLB  4
0778C:  BSF    x65.4
....................       } 
....................  
....................       if(RIGHT)// Si oprime derecha 
0778E:  BSF    F96.0
07790:  BTFSC  F84.0
07792:  BRA    77CC
....................       { 
....................          Testerilizacionp[0]=0;Testerilizacionp[1]=0;Testerilizacionp[2]=0;Testerilizacionp[3]=2; 
07794:  CLRF   x70
07796:  CLRF   x71
07798:  CLRF   x72
0779A:  MOVLW  02
0779C:  MOVWF  x73
....................          visual=1; 
0779E:  BSF    x65.4
....................          Tsecadop[0]=0;Tsecadop[1]=0;Tsecadop[2]=5;Tsecadop[3]=1; 
077A0:  CLRF   x78
077A2:  CLRF   x79
077A4:  MOVLW  05
077A6:  MOVWF  x7A
077A8:  MOVLW  01
077AA:  MOVWF  x7B
....................          Setpoint=121; 
077AC:  MOVLW  79
077AE:  MOVLB  6
077B0:  MOVWF  xE5
....................          Menu=20; 
077B2:  MOVLW  14
077B4:  MOVWF  xE1
....................          tiempo_secado=0; 
077B6:  CLRF   xE9
....................          glcd_fillScreen(OFF); 
077B8:  MOVLB  7
077BA:  CLRF   x28
077BC:  MOVLB  0
077BE:  CALL   3936
....................          desfoguelento=0; 
077C2:  MOVLB  4
077C4:  BCF    x65.5
....................          IniciaCiclo=ON; 
077C6:  BSF    x60.2
....................          enable_interrupts(global); 
077C8:  MOVLW  C0
077CA:  IORWF  FF2,F
077CC:  MOVLB  6
....................       } 
....................      
....................     }     
.................... //_--------------------------------------------------------------------------------------------------------------------------------------------------------     
....................  
.................... //_--------------------------------------------------------------------------------------------------------------------------------------------------------       
....................       if(Menu==5){ // Menu de Instrumental delicado Envuelto 
077CE:  MOVF   xE1,W
077D0:  SUBLW  05
077D2:  BTFSS  FD8.2
077D4:  BRA    7994
....................        
....................       if(visual==1) 
077D6:  MOVLB  4
077D8:  BTFSS  x65.4
077DA:  BRA    7932
....................       { 
....................          glcd_imagen(4); //ErlenMeyer con Liquido 
077DC:  MOVLW  04
077DE:  MOVLB  7
077E0:  MOVWF  x28
077E2:  MOVLB  0
077E4:  CALL   509C
....................          strcpy(Menus.Letra,"Ins. Del. E"); 
077E8:  MOVLW  07
077EA:  MOVWF  FEA
077EC:  MOVLW  12
077EE:  MOVWF  FE9
077F0:  MOVFF  FF2,727
077F4:  BCF    FF2.7
077F6:  MOVLW  00
077F8:  CALL   1F9C
077FC:  TBLRD*-
077FE:  TBLRD*+
07800:  MOVF   FF5,W
07802:  MOVWF  FEE
07804:  IORLW  00
07806:  BNZ   77FE
07808:  MOVLB  7
0780A:  BTFSC  x27.7
0780C:  BSF    FF2.7
....................          displayMenu(Menus.Letra,20,0,1,2); 
0780E:  MOVLW  07
07810:  MOVWF  x28
07812:  MOVLW  12
07814:  MOVWF  x27
07816:  MOVLW  14
07818:  MOVWF  x29
0781A:  CLRF   x2A
0781C:  MOVLW  01
0781E:  MOVWF  x2B
07820:  MOVLW  02
07822:  MOVWF  x2C
07824:  MOVLB  0
07826:  CALL   3F64
....................        
....................          strcpy(Menus.Letra,"Ins. Del. E"); 
0782A:  MOVLW  07
0782C:  MOVWF  FEA
0782E:  MOVLW  12
07830:  MOVWF  FE9
07832:  MOVFF  FF2,727
07836:  BCF    FF2.7
07838:  MOVLW  00
0783A:  CALL   1F9C
0783E:  TBLRD*-
07840:  TBLRD*+
07842:  MOVF   FF5,W
07844:  MOVWF  FEE
07846:  IORLW  00
07848:  BNZ   7840
0784A:  MOVLB  7
0784C:  BTFSC  x27.7
0784E:  BSF    FF2.7
....................          displayMenu(Menus.Letra,7,55,2,1); 
07850:  MOVLW  07
07852:  MOVWF  x28
07854:  MOVLW  12
07856:  MOVWF  x27
07858:  MOVLW  07
0785A:  MOVWF  x29
0785C:  MOVLW  37
0785E:  MOVWF  x2A
07860:  MOVLW  02
07862:  MOVWF  x2B
07864:  MOVLW  01
07866:  MOVWF  x2C
07868:  MOVLB  0
0786A:  CALL   3F64
....................           
....................          strcpy(Menus.Letra,"Temperatura:121 C"); 
0786E:  MOVLW  07
07870:  MOVWF  FEA
07872:  MOVLW  12
07874:  MOVWF  FE9
07876:  MOVFF  FF2,727
0787A:  BCF    FF2.7
0787C:  MOVLW  00
0787E:  CALL   1F0A
07882:  TBLRD*-
07884:  TBLRD*+
07886:  MOVF   FF5,W
07888:  MOVWF  FEE
0788A:  IORLW  00
0788C:  BNZ   7884
0788E:  MOVLB  7
07890:  BTFSC  x27.7
07892:  BSF    FF2.7
....................          displayMenu(Menus.Letra,0,26,0,1); 
07894:  MOVLW  07
07896:  MOVWF  x28
07898:  MOVLW  12
0789A:  MOVWF  x27
0789C:  CLRF   x29
0789E:  MOVLW  1A
078A0:  MOVWF  x2A
078A2:  CLRF   x2B
078A4:  MOVLW  01
078A6:  MOVWF  x2C
078A8:  MOVLB  0
078AA:  CALL   3F64
....................          strcpy(Menus.Letra,"T. Esterilizacion:20m"); 
078AE:  MOVLW  07
078B0:  MOVWF  FEA
078B2:  MOVLW  12
078B4:  MOVWF  FE9
078B6:  MOVFF  FF2,727
078BA:  BCF    FF2.7
078BC:  MOVLW  00
078BE:  CALL   1F3A
078C2:  TBLRD*-
078C4:  TBLRD*+
078C6:  MOVF   FF5,W
078C8:  MOVWF  FEE
078CA:  IORLW  00
078CC:  BNZ   78C4
078CE:  MOVLB  7
078D0:  BTFSC  x27.7
078D2:  BSF    FF2.7
....................          displayMenu(Menus.Letra,0,36,0,1); 
078D4:  MOVLW  07
078D6:  MOVWF  x28
078D8:  MOVLW  12
078DA:  MOVWF  x27
078DC:  CLRF   x29
078DE:  MOVLW  24
078E0:  MOVWF  x2A
078E2:  CLRF   x2B
078E4:  MOVLW  01
078E6:  MOVWF  x2C
078E8:  MOVLB  0
078EA:  CALL   3F64
....................          strcpy(Menus.Letra,"T. Secado= 20m"); 
078EE:  MOVLW  07
078F0:  MOVWF  FEA
078F2:  MOVLW  12
078F4:  MOVWF  FE9
078F6:  MOVFF  FF2,727
078FA:  BCF    FF2.7
078FC:  MOVLW  00
078FE:  CALL   1FC6
07902:  TBLRD*-
07904:  TBLRD*+
07906:  MOVF   FF5,W
07908:  MOVWF  FEE
0790A:  IORLW  00
0790C:  BNZ   7904
0790E:  MOVLB  7
07910:  BTFSC  x27.7
07912:  BSF    FF2.7
....................          displayMenu(Menus.Letra,0,46,0,1);     
07914:  MOVLW  07
07916:  MOVWF  x28
07918:  MOVLW  12
0791A:  MOVWF  x27
0791C:  CLRF   x29
0791E:  MOVLW  2E
07920:  MOVWF  x2A
07922:  CLRF   x2B
07924:  MOVLW  01
07926:  MOVWF  x2C
07928:  MOVLB  0
0792A:  CALL   3F64
....................          visual=0; 
0792E:  MOVLB  4
07930:  BCF    x65.4
....................       }    
....................           
....................       if(LEFT)// Si oprime Izquier|da 
07932:  BSF    F96.1
07934:  BTFSC  F84.1
07936:  BRA    7958
....................       {  
....................          delay_ms(30);Menu=1;glcd_fillScreen(OFF);visual=1; 
07938:  MOVLW  1E
0793A:  MOVLB  7
0793C:  MOVWF  x2D
0793E:  MOVLB  0
07940:  CALL   30A6
07944:  MOVLW  01
07946:  MOVLB  6
07948:  MOVWF  xE1
0794A:  MOVLB  7
0794C:  CLRF   x28
0794E:  MOVLB  0
07950:  CALL   3936
07954:  MOVLB  4
07956:  BSF    x65.4
....................       }                
....................  
....................       if(RIGHT)// Si oprime derecha 
07958:  BSF    F96.0
0795A:  BTFSC  F84.0
0795C:  BRA    7992
....................       { 
....................          Testerilizacionp[0]=0;Testerilizacionp[1]=0;Testerilizacionp[2]=0;Testerilizacionp[3]=2; 
0795E:  CLRF   x70
07960:  CLRF   x71
07962:  CLRF   x72
07964:  MOVLW  02
07966:  MOVWF  x73
....................          visual=1; 
07968:  BSF    x65.4
....................          Tsecadop[0]=0;Tsecadop[1]=0;Tsecadop[2]=0;Tsecadop[3]=2; 
0796A:  CLRF   x78
0796C:  CLRF   x79
0796E:  CLRF   x7A
07970:  MOVWF  x7B
....................          Setpoint=121; 
07972:  MOVLW  79
07974:  MOVLB  6
07976:  MOVWF  xE5
....................          Menu=20; 
07978:  MOVLW  14
0797A:  MOVWF  xE1
....................          tiempo_secado=0; 
0797C:  CLRF   xE9
....................          glcd_fillScreen(OFF); 
0797E:  MOVLB  7
07980:  CLRF   x28
07982:  MOVLB  0
07984:  CALL   3936
....................          desfoguelento=0; 
07988:  MOVLB  4
0798A:  BCF    x65.5
....................          IniciaCiclo=ON; 
0798C:  BSF    x60.2
....................          enable_interrupts(global); 
0798E:  MOVLW  C0
07990:  IORWF  FF2,F
07992:  MOVLB  6
....................       } 
....................     }     
.................... //_--------------------------------------------------------------------------------------------------------------------------------------------------------     
....................  
.................... //_--------------------------------------------------------------------------------------------------------------------------------------------------------       
....................       if(Menu==6){ // Menu de Instrumental no Envuelto 
07994:  MOVF   xE1,W
07996:  SUBLW  06
07998:  BTFSS  FD8.2
0799A:  BRA    7B5A
....................        
....................       if(visual==1) 
0799C:  MOVLB  4
0799E:  BTFSS  x65.4
079A0:  BRA    7AF6
....................       { 
....................          glcd_imagen(3); //Erlen Meyer 
079A2:  MOVLW  03
079A4:  MOVLB  7
079A6:  MOVWF  x28
079A8:  MOVLB  0
079AA:  CALL   509C
....................           
....................          strcpy(Menus.Letra,"Ins. NE"); 
079AE:  MOVLW  07
079B0:  MOVWF  FEA
079B2:  MOVLW  12
079B4:  MOVWF  FE9
079B6:  MOVFF  FF2,727
079BA:  BCF    FF2.7
079BC:  MOVLW  00
079BE:  CALL   1FF4
079C2:  TBLRD*-
079C4:  TBLRD*+
079C6:  MOVF   FF5,W
079C8:  MOVWF  FEE
079CA:  IORLW  00
079CC:  BNZ   79C4
079CE:  MOVLB  7
079D0:  BTFSC  x27.7
079D2:  BSF    FF2.7
....................          displayMenu(Menus.Letra,0,0,1,2); 
079D4:  MOVLW  07
079D6:  MOVWF  x28
079D8:  MOVLW  12
079DA:  MOVWF  x27
079DC:  CLRF   x29
079DE:  CLRF   x2A
079E0:  MOVLW  01
079E2:  MOVWF  x2B
079E4:  MOVLW  02
079E6:  MOVWF  x2C
079E8:  MOVLB  0
079EA:  CALL   3F64
....................           
....................          strcpy(Menus.Letra,"Ins. NE"); 
079EE:  MOVLW  07
079F0:  MOVWF  FEA
079F2:  MOVLW  12
079F4:  MOVWF  FE9
079F6:  MOVFF  FF2,727
079FA:  BCF    FF2.7
079FC:  MOVLW  00
079FE:  CALL   1FF4
07A02:  TBLRD*-
07A04:  TBLRD*+
07A06:  MOVF   FF5,W
07A08:  MOVWF  FEE
07A0A:  IORLW  00
07A0C:  BNZ   7A04
07A0E:  MOVLB  7
07A10:  BTFSC  x27.7
07A12:  BSF    FF2.7
....................          displayMenu(Menus.Letra,7,55,2,1); 
07A14:  MOVLW  07
07A16:  MOVWF  x28
07A18:  MOVLW  12
07A1A:  MOVWF  x27
07A1C:  MOVLW  07
07A1E:  MOVWF  x29
07A20:  MOVLW  37
07A22:  MOVWF  x2A
07A24:  MOVLW  02
07A26:  MOVWF  x2B
07A28:  MOVLW  01
07A2A:  MOVWF  x2C
07A2C:  MOVLB  0
07A2E:  CALL   3F64
....................           
....................          strcpy(Menus.Letra,"Temperatura:134 C"); 
07A32:  MOVLW  07
07A34:  MOVWF  FEA
07A36:  MOVLW  12
07A38:  MOVWF  FE9
07A3A:  MOVFF  FF2,727
07A3E:  BCF    FF2.7
07A40:  MOVLW  00
07A42:  CALL   201A
07A46:  TBLRD*-
07A48:  TBLRD*+
07A4A:  MOVF   FF5,W
07A4C:  MOVWF  FEE
07A4E:  IORLW  00
07A50:  BNZ   7A48
07A52:  MOVLB  7
07A54:  BTFSC  x27.7
07A56:  BSF    FF2.7
....................          displayMenu(Menus.Letra,0,26,0,1); 
07A58:  MOVLW  07
07A5A:  MOVWF  x28
07A5C:  MOVLW  12
07A5E:  MOVWF  x27
07A60:  CLRF   x29
07A62:  MOVLW  1A
07A64:  MOVWF  x2A
07A66:  CLRF   x2B
07A68:  MOVLW  01
07A6A:  MOVWF  x2C
07A6C:  MOVLB  0
07A6E:  CALL   3F64
....................          strcpy(Menus.Letra,"T. Esterilizacion:4m"); 
07A72:  MOVLW  07
07A74:  MOVWF  FEA
07A76:  MOVLW  12
07A78:  MOVWF  FE9
07A7A:  MOVFF  FF2,727
07A7E:  BCF    FF2.7
07A80:  MOVLW  00
07A82:  CALL   204A
07A86:  TBLRD*-
07A88:  TBLRD*+
07A8A:  MOVF   FF5,W
07A8C:  MOVWF  FEE
07A8E:  IORLW  00
07A90:  BNZ   7A88
07A92:  MOVLB  7
07A94:  BTFSC  x27.7
07A96:  BSF    FF2.7
....................          displayMenu(Menus.Letra,0,36,0,1); 
07A98:  MOVLW  07
07A9A:  MOVWF  x28
07A9C:  MOVLW  12
07A9E:  MOVWF  x27
07AA0:  CLRF   x29
07AA2:  MOVLW  24
07AA4:  MOVWF  x2A
07AA6:  CLRF   x2B
07AA8:  MOVLW  01
07AAA:  MOVWF  x2C
07AAC:  MOVLB  0
07AAE:  CALL   3F64
....................          strcpy(Menus.Letra,"T. Secado= 1m"); 
07AB2:  MOVLW  07
07AB4:  MOVWF  FEA
07AB6:  MOVLW  12
07AB8:  MOVWF  FE9
07ABA:  MOVFF  FF2,727
07ABE:  BCF    FF2.7
07AC0:  MOVLW  00
07AC2:  CALL   207E
07AC6:  TBLRD*-
07AC8:  TBLRD*+
07ACA:  MOVF   FF5,W
07ACC:  MOVWF  FEE
07ACE:  IORLW  00
07AD0:  BNZ   7AC8
07AD2:  MOVLB  7
07AD4:  BTFSC  x27.7
07AD6:  BSF    FF2.7
....................          displayMenu(Menus.Letra,0,46,0,1);            
07AD8:  MOVLW  07
07ADA:  MOVWF  x28
07ADC:  MOVLW  12
07ADE:  MOVWF  x27
07AE0:  CLRF   x29
07AE2:  MOVLW  2E
07AE4:  MOVWF  x2A
07AE6:  CLRF   x2B
07AE8:  MOVLW  01
07AEA:  MOVWF  x2C
07AEC:  MOVLB  0
07AEE:  CALL   3F64
....................          visual=0; 
07AF2:  MOVLB  4
07AF4:  BCF    x65.4
....................       } 
....................  
....................       if(LEFT)// Si oprime Izquier|da 
07AF6:  BSF    F96.1
07AF8:  BTFSC  F84.1
07AFA:  BRA    7B1C
....................       {  
....................          delay_ms(30);Menu=1;glcd_fillScreen(OFF);visual=1; 
07AFC:  MOVLW  1E
07AFE:  MOVLB  7
07B00:  MOVWF  x2D
07B02:  MOVLB  0
07B04:  CALL   30A6
07B08:  MOVLW  01
07B0A:  MOVLB  6
07B0C:  MOVWF  xE1
07B0E:  MOVLB  7
07B10:  CLRF   x28
07B12:  MOVLB  0
07B14:  CALL   3936
07B18:  MOVLB  4
07B1A:  BSF    x65.4
....................       }             
....................  
....................       if(RIGHT)// Si oprime derecha 
07B1C:  BSF    F96.0
07B1E:  BTFSC  F84.0
07B20:  BRA    7B58
....................       { 
....................          Testerilizacionp[0]=0;Testerilizacionp[1]=0;Testerilizacionp[2]=4;Testerilizacionp[3]=0; 
07B22:  CLRF   x70
07B24:  CLRF   x71
07B26:  MOVLW  04
07B28:  MOVWF  x72
07B2A:  CLRF   x73
....................          visual=1; 
07B2C:  BSF    x65.4
....................          Tsecadop[0]=0;Tsecadop[1]=0;Tsecadop[2]=1;Tsecadop[3]=0; 
07B2E:  CLRF   x78
07B30:  CLRF   x79
07B32:  MOVLW  01
07B34:  MOVWF  x7A
07B36:  CLRF   x7B
....................          Setpoint=134; 
07B38:  MOVLW  86
07B3A:  MOVLB  6
07B3C:  MOVWF  xE5
....................          Menu=20; 
07B3E:  MOVLW  14
07B40:  MOVWF  xE1
....................          tiempo_secado=0; 
07B42:  CLRF   xE9
....................          glcd_fillScreen(OFF); 
07B44:  MOVLB  7
07B46:  CLRF   x28
07B48:  MOVLB  0
07B4A:  CALL   3936
....................          desfoguelento=0; 
07B4E:  MOVLB  4
07B50:  BCF    x65.5
....................          IniciaCiclo=ON; 
07B52:  BSF    x60.2
....................          enable_interrupts(global); 
07B54:  MOVLW  C0
07B56:  IORWF  FF2,F
07B58:  MOVLB  6
....................       } 
....................      
....................     }     
.................... //_--------------------------------------------------------------------------------------------------------------------------------------------------------     
....................  
....................  //_-------------------------------------------------------------------------------------------------------------------------------------------------------- 
....................       if(Menu==7){ // Menu de Instrumental Envuelto 
07B5A:  MOVF   xE1,W
07B5C:  SUBLW  07
07B5E:  BTFSS  FD8.2
07B60:  BRA    7D1E
....................        
....................       if(visual==1) 
07B62:  MOVLB  4
07B64:  BTFSS  x65.4
07B66:  BRA    7CBA
....................       { 
....................          glcd_imagen(1); //Tijeras y Camisa 
07B68:  MOVLW  01
07B6A:  MOVLB  7
07B6C:  MOVWF  x28
07B6E:  MOVLB  0
07B70:  CALL   509C
....................          strcpy(Menus.Letra,"Ins. Env"); 
07B74:  MOVLW  07
07B76:  MOVWF  FEA
07B78:  MOVLW  12
07B7A:  MOVWF  FE9
07B7C:  MOVFF  FF2,727
07B80:  BCF    FF2.7
07B82:  MOVLW  00
07B84:  CALL   20AA
07B88:  TBLRD*-
07B8A:  TBLRD*+
07B8C:  MOVF   FF5,W
07B8E:  MOVWF  FEE
07B90:  IORLW  00
07B92:  BNZ   7B8A
07B94:  MOVLB  7
07B96:  BTFSC  x27.7
07B98:  BSF    FF2.7
....................          displayMenu(Menus.Letra,0,0,1,2); 
07B9A:  MOVLW  07
07B9C:  MOVWF  x28
07B9E:  MOVLW  12
07BA0:  MOVWF  x27
07BA2:  CLRF   x29
07BA4:  CLRF   x2A
07BA6:  MOVLW  01
07BA8:  MOVWF  x2B
07BAA:  MOVLW  02
07BAC:  MOVWF  x2C
07BAE:  MOVLB  0
07BB0:  CALL   3F64
....................        
....................          strcpy(Menus.Letra,"Ins. Env"); 
07BB4:  MOVLW  07
07BB6:  MOVWF  FEA
07BB8:  MOVLW  12
07BBA:  MOVWF  FE9
07BBC:  MOVFF  FF2,727
07BC0:  BCF    FF2.7
07BC2:  MOVLW  00
07BC4:  CALL   20AA
07BC8:  TBLRD*-
07BCA:  TBLRD*+
07BCC:  MOVF   FF5,W
07BCE:  MOVWF  FEE
07BD0:  IORLW  00
07BD2:  BNZ   7BCA
07BD4:  MOVLB  7
07BD6:  BTFSC  x27.7
07BD8:  BSF    FF2.7
....................          displayMenu(Menus.Letra,0,55,2,1); 
07BDA:  MOVLW  07
07BDC:  MOVWF  x28
07BDE:  MOVLW  12
07BE0:  MOVWF  x27
07BE2:  CLRF   x29
07BE4:  MOVLW  37
07BE6:  MOVWF  x2A
07BE8:  MOVLW  02
07BEA:  MOVWF  x2B
07BEC:  MOVLW  01
07BEE:  MOVWF  x2C
07BF0:  MOVLB  0
07BF2:  CALL   3F64
....................           
....................          strcpy(Menus.Letra,"Temperatura:134 C"); 
07BF6:  MOVLW  07
07BF8:  MOVWF  FEA
07BFA:  MOVLW  12
07BFC:  MOVWF  FE9
07BFE:  MOVFF  FF2,727
07C02:  BCF    FF2.7
07C04:  MOVLW  00
07C06:  CALL   201A
07C0A:  TBLRD*-
07C0C:  TBLRD*+
07C0E:  MOVF   FF5,W
07C10:  MOVWF  FEE
07C12:  IORLW  00
07C14:  BNZ   7C0C
07C16:  MOVLB  7
07C18:  BTFSC  x27.7
07C1A:  BSF    FF2.7
....................          displayMenu(Menus.Letra,0,26,0,1); 
07C1C:  MOVLW  07
07C1E:  MOVWF  x28
07C20:  MOVLW  12
07C22:  MOVWF  x27
07C24:  CLRF   x29
07C26:  MOVLW  1A
07C28:  MOVWF  x2A
07C2A:  CLRF   x2B
07C2C:  MOVLW  01
07C2E:  MOVWF  x2C
07C30:  MOVLB  0
07C32:  CALL   3F64
....................          strcpy(Menus.Letra,"T. Esterilizacion:4m"); 
07C36:  MOVLW  07
07C38:  MOVWF  FEA
07C3A:  MOVLW  12
07C3C:  MOVWF  FE9
07C3E:  MOVFF  FF2,727
07C42:  BCF    FF2.7
07C44:  MOVLW  00
07C46:  CALL   204A
07C4A:  TBLRD*-
07C4C:  TBLRD*+
07C4E:  MOVF   FF5,W
07C50:  MOVWF  FEE
07C52:  IORLW  00
07C54:  BNZ   7C4C
07C56:  MOVLB  7
07C58:  BTFSC  x27.7
07C5A:  BSF    FF2.7
....................          displayMenu(Menus.Letra,0,36,0,1); 
07C5C:  MOVLW  07
07C5E:  MOVWF  x28
07C60:  MOVLW  12
07C62:  MOVWF  x27
07C64:  CLRF   x29
07C66:  MOVLW  24
07C68:  MOVWF  x2A
07C6A:  CLRF   x2B
07C6C:  MOVLW  01
07C6E:  MOVWF  x2C
07C70:  MOVLB  0
07C72:  CALL   3F64
....................          strcpy(Menus.Letra,"T. Secado= 20m"); 
07C76:  MOVLW  07
07C78:  MOVWF  FEA
07C7A:  MOVLW  12
07C7C:  MOVWF  FE9
07C7E:  MOVFF  FF2,727
07C82:  BCF    FF2.7
07C84:  MOVLW  00
07C86:  CALL   1FC6
07C8A:  TBLRD*-
07C8C:  TBLRD*+
07C8E:  MOVF   FF5,W
07C90:  MOVWF  FEE
07C92:  IORLW  00
07C94:  BNZ   7C8C
07C96:  MOVLB  7
07C98:  BTFSC  x27.7
07C9A:  BSF    FF2.7
....................          displayMenu(Menus.Letra,0,46,0,1);            
07C9C:  MOVLW  07
07C9E:  MOVWF  x28
07CA0:  MOVLW  12
07CA2:  MOVWF  x27
07CA4:  CLRF   x29
07CA6:  MOVLW  2E
07CA8:  MOVWF  x2A
07CAA:  CLRF   x2B
07CAC:  MOVLW  01
07CAE:  MOVWF  x2C
07CB0:  MOVLB  0
07CB2:  CALL   3F64
....................          visual=0; 
07CB6:  MOVLB  4
07CB8:  BCF    x65.4
....................       } 
....................  
....................       if(LEFT)// Si oprime Izquier|da 
07CBA:  BSF    F96.1
07CBC:  BTFSC  F84.1
07CBE:  BRA    7CE0
....................       {  
....................          delay_ms(30);Menu=1;glcd_fillScreen(OFF);visual=1; 
07CC0:  MOVLW  1E
07CC2:  MOVLB  7
07CC4:  MOVWF  x2D
07CC6:  MOVLB  0
07CC8:  CALL   30A6
07CCC:  MOVLW  01
07CCE:  MOVLB  6
07CD0:  MOVWF  xE1
07CD2:  MOVLB  7
07CD4:  CLRF   x28
07CD6:  MOVLB  0
07CD8:  CALL   3936
07CDC:  MOVLB  4
07CDE:  BSF    x65.4
....................       }                  
....................  
....................       if(RIGHT)// Si oprime derecha 
07CE0:  BSF    F96.0
07CE2:  BTFSC  F84.0
07CE4:  BRA    7D1C
....................       { 
....................          Testerilizacionp[0]=0;Testerilizacionp[1]=0;Testerilizacionp[2]=4;Testerilizacionp[3]=0; 
07CE6:  CLRF   x70
07CE8:  CLRF   x71
07CEA:  MOVLW  04
07CEC:  MOVWF  x72
07CEE:  CLRF   x73
....................          visual=1; 
07CF0:  BSF    x65.4
....................          Tsecadop[0]=0;Tsecadop[1]=0;Tsecadop[2]=0;Tsecadop[3]=2; 
07CF2:  CLRF   x78
07CF4:  CLRF   x79
07CF6:  CLRF   x7A
07CF8:  MOVLW  02
07CFA:  MOVWF  x7B
....................          Setpoint=134; 
07CFC:  MOVLW  86
07CFE:  MOVLB  6
07D00:  MOVWF  xE5
....................          Menu=20; 
07D02:  MOVLW  14
07D04:  MOVWF  xE1
....................          tiempo_secado=0; 
07D06:  CLRF   xE9
....................          glcd_fillScreen(OFF); 
07D08:  MOVLB  7
07D0A:  CLRF   x28
07D0C:  MOVLB  0
07D0E:  CALL   3936
....................          desfoguelento=0; 
07D12:  MOVLB  4
07D14:  BCF    x65.5
....................          IniciaCiclo=ON; 
07D16:  BSF    x60.2
....................          enable_interrupts(global); 
07D18:  MOVLW  C0
07D1A:  IORWF  FF2,F
07D1C:  MOVLB  6
....................       } 
....................      
....................     }     
.................... //_--------------------------------------------------------------------------------------------------------------------------------------------------------     
....................  
....................  //_-------------------------------------------------------------------------------------------------------------------------------------------------------- 
....................       if(Menu==8){ // Menu de Textil Instrumental 
07D1E:  MOVF   xE1,W
07D20:  SUBLW  08
07D22:  BTFSS  FD8.2
07D24:  BRA    7EE2
....................        
....................       if(visual==1) 
07D26:  MOVLB  4
07D28:  BTFSS  x65.4
07D2A:  BRA    7E7E
....................       { 
....................          glcd_imagen(1); //Tijeras y Camisa 
07D2C:  MOVLW  01
07D2E:  MOVLB  7
07D30:  MOVWF  x28
07D32:  MOVLB  0
07D34:  CALL   509C
....................          strcpy(Menus.Letra,"Tex & Ins"); 
07D38:  MOVLW  07
07D3A:  MOVWF  FEA
07D3C:  MOVLW  12
07D3E:  MOVWF  FE9
07D40:  MOVFF  FF2,727
07D44:  BCF    FF2.7
07D46:  MOVLW  00
07D48:  CALL   20D2
07D4C:  TBLRD*-
07D4E:  TBLRD*+
07D50:  MOVF   FF5,W
07D52:  MOVWF  FEE
07D54:  IORLW  00
07D56:  BNZ   7D4E
07D58:  MOVLB  7
07D5A:  BTFSC  x27.7
07D5C:  BSF    FF2.7
....................          displayMenu(Menus.Letra,0,0,1,2); 
07D5E:  MOVLW  07
07D60:  MOVWF  x28
07D62:  MOVLW  12
07D64:  MOVWF  x27
07D66:  CLRF   x29
07D68:  CLRF   x2A
07D6A:  MOVLW  01
07D6C:  MOVWF  x2B
07D6E:  MOVLW  02
07D70:  MOVWF  x2C
07D72:  MOVLB  0
07D74:  CALL   3F64
....................        
....................          strcpy(Menus.Letra,"Tex & Ins"); 
07D78:  MOVLW  07
07D7A:  MOVWF  FEA
07D7C:  MOVLW  12
07D7E:  MOVWF  FE9
07D80:  MOVFF  FF2,727
07D84:  BCF    FF2.7
07D86:  MOVLW  00
07D88:  CALL   20D2
07D8C:  TBLRD*-
07D8E:  TBLRD*+
07D90:  MOVF   FF5,W
07D92:  MOVWF  FEE
07D94:  IORLW  00
07D96:  BNZ   7D8E
07D98:  MOVLB  7
07D9A:  BTFSC  x27.7
07D9C:  BSF    FF2.7
....................          displayMenu(Menus.Letra,0,55,2,1); 
07D9E:  MOVLW  07
07DA0:  MOVWF  x28
07DA2:  MOVLW  12
07DA4:  MOVWF  x27
07DA6:  CLRF   x29
07DA8:  MOVLW  37
07DAA:  MOVWF  x2A
07DAC:  MOVLW  02
07DAE:  MOVWF  x2B
07DB0:  MOVLW  01
07DB2:  MOVWF  x2C
07DB4:  MOVLB  0
07DB6:  CALL   3F64
....................           
....................          strcpy(Menus.Letra,"Temperatura:134 C"); 
07DBA:  MOVLW  07
07DBC:  MOVWF  FEA
07DBE:  MOVLW  12
07DC0:  MOVWF  FE9
07DC2:  MOVFF  FF2,727
07DC6:  BCF    FF2.7
07DC8:  MOVLW  00
07DCA:  CALL   201A
07DCE:  TBLRD*-
07DD0:  TBLRD*+
07DD2:  MOVF   FF5,W
07DD4:  MOVWF  FEE
07DD6:  IORLW  00
07DD8:  BNZ   7DD0
07DDA:  MOVLB  7
07DDC:  BTFSC  x27.7
07DDE:  BSF    FF2.7
....................          displayMenu(Menus.Letra,0,26,0,1); 
07DE0:  MOVLW  07
07DE2:  MOVWF  x28
07DE4:  MOVLW  12
07DE6:  MOVWF  x27
07DE8:  CLRF   x29
07DEA:  MOVLW  1A
07DEC:  MOVWF  x2A
07DEE:  CLRF   x2B
07DF0:  MOVLW  01
07DF2:  MOVWF  x2C
07DF4:  MOVLB  0
07DF6:  CALL   3F64
....................          strcpy(Menus.Letra,"T. Esterilizacion:5m"); 
07DFA:  MOVLW  07
07DFC:  MOVWF  FEA
07DFE:  MOVLW  12
07E00:  MOVWF  FE9
07E02:  MOVFF  FF2,727
07E06:  BCF    FF2.7
07E08:  MOVLW  00
07E0A:  CALL   20FA
07E0E:  TBLRD*-
07E10:  TBLRD*+
07E12:  MOVF   FF5,W
07E14:  MOVWF  FEE
07E16:  IORLW  00
07E18:  BNZ   7E10
07E1A:  MOVLB  7
07E1C:  BTFSC  x27.7
07E1E:  BSF    FF2.7
....................          displayMenu(Menus.Letra,0,36,0,1); 
07E20:  MOVLW  07
07E22:  MOVWF  x28
07E24:  MOVLW  12
07E26:  MOVWF  x27
07E28:  CLRF   x29
07E2A:  MOVLW  24
07E2C:  MOVWF  x2A
07E2E:  CLRF   x2B
07E30:  MOVLW  01
07E32:  MOVWF  x2C
07E34:  MOVLB  0
07E36:  CALL   3F64
....................          strcpy(Menus.Letra,"T. Secado= 15m"); 
07E3A:  MOVLW  07
07E3C:  MOVWF  FEA
07E3E:  MOVLW  12
07E40:  MOVWF  FE9
07E42:  MOVFF  FF2,727
07E46:  BCF    FF2.7
07E48:  MOVLW  00
07E4A:  CALL   1F6E
07E4E:  TBLRD*-
07E50:  TBLRD*+
07E52:  MOVF   FF5,W
07E54:  MOVWF  FEE
07E56:  IORLW  00
07E58:  BNZ   7E50
07E5A:  MOVLB  7
07E5C:  BTFSC  x27.7
07E5E:  BSF    FF2.7
....................          displayMenu(Menus.Letra,0,46,0,1);            
07E60:  MOVLW  07
07E62:  MOVWF  x28
07E64:  MOVLW  12
07E66:  MOVWF  x27
07E68:  CLRF   x29
07E6A:  MOVLW  2E
07E6C:  MOVWF  x2A
07E6E:  CLRF   x2B
07E70:  MOVLW  01
07E72:  MOVWF  x2C
07E74:  MOVLB  0
07E76:  CALL   3F64
....................          visual=0; 
07E7A:  MOVLB  4
07E7C:  BCF    x65.4
....................       } 
....................  
....................       if(LEFT)// Si oprime Izquier|da 
07E7E:  BSF    F96.1
07E80:  BTFSC  F84.1
07E82:  BRA    7EA4
....................       {  
....................          delay_ms(30);Menu=1;glcd_fillScreen(OFF);visual=1; 
07E84:  MOVLW  1E
07E86:  MOVLB  7
07E88:  MOVWF  x2D
07E8A:  MOVLB  0
07E8C:  CALL   30A6
07E90:  MOVLW  01
07E92:  MOVLB  6
07E94:  MOVWF  xE1
07E96:  MOVLB  7
07E98:  CLRF   x28
07E9A:  MOVLB  0
07E9C:  CALL   3936
07EA0:  MOVLB  4
07EA2:  BSF    x65.4
....................       }                  
....................  
....................       if(RIGHT)// Si oprime derecha 
07EA4:  BSF    F96.0
07EA6:  BTFSC  F84.0
07EA8:  BRA    7EE0
....................       { 
....................          Testerilizacionp[0]=0;Testerilizacionp[1]=0;Testerilizacionp[2]=5;Testerilizacionp[3]=0; 
07EAA:  CLRF   x70
07EAC:  CLRF   x71
07EAE:  MOVLW  05
07EB0:  MOVWF  x72
07EB2:  CLRF   x73
....................          visual=1; 
07EB4:  BSF    x65.4
....................          Tsecadop[0]=0;Tsecadop[1]=0;Tsecadop[2]=5;Tsecadop[3]=1; 
07EB6:  CLRF   x78
07EB8:  CLRF   x79
07EBA:  MOVWF  x7A
07EBC:  MOVLW  01
07EBE:  MOVWF  x7B
....................          Setpoint=134; 
07EC0:  MOVLW  86
07EC2:  MOVLB  6
07EC4:  MOVWF  xE5
....................          Menu=20; 
07EC6:  MOVLW  14
07EC8:  MOVWF  xE1
....................          tiempo_secado=0; 
07ECA:  CLRF   xE9
....................          glcd_fillScreen(OFF); 
07ECC:  MOVLB  7
07ECE:  CLRF   x28
07ED0:  MOVLB  0
07ED2:  CALL   3936
....................          desfoguelento=0; 
07ED6:  MOVLB  4
07ED8:  BCF    x65.5
....................          IniciaCiclo=ON; 
07EDA:  BSF    x60.2
....................          enable_interrupts(global); 
07EDC:  MOVLW  C0
07EDE:  IORWF  FF2,F
07EE0:  MOVLB  6
....................       } 
....................      
....................     }     
.................... //_--------------------------------------------------------------------------------------------------------------------------------------------------------     
....................  
....................  //_-------------------------------------------------------------------------------------------------------------------------------------------------------- 
....................       if(Menu==9){ // Menu de Bowie Dick 
07EE2:  MOVF   xE1,W
07EE4:  SUBLW  09
07EE6:  BTFSS  FD8.2
07EE8:  BRA    80A6
....................        
....................       if(visual==1) 
07EEA:  MOVLB  4
07EEC:  BTFSS  x65.4
07EEE:  BRA    8042
....................       { 
....................          glcd_imagen(1); //Tijeras y Camisa 
07EF0:  MOVLW  01
07EF2:  MOVLB  7
07EF4:  MOVWF  x28
07EF6:  MOVLB  0
07EF8:  CALL   509C
....................          strcpy(Menus.Letra,"Test B&D"); 
07EFC:  MOVLW  07
07EFE:  MOVWF  FEA
07F00:  MOVLW  12
07F02:  MOVWF  FE9
07F04:  MOVFF  FF2,727
07F08:  BCF    FF2.7
07F0A:  MOVLW  00
07F0C:  CALL   212E
07F10:  TBLRD*-
07F12:  TBLRD*+
07F14:  MOVF   FF5,W
07F16:  MOVWF  FEE
07F18:  IORLW  00
07F1A:  BNZ   7F12
07F1C:  MOVLB  7
07F1E:  BTFSC  x27.7
07F20:  BSF    FF2.7
....................          displayMenu(Menus.Letra,0,0,1,2); 
07F22:  MOVLW  07
07F24:  MOVWF  x28
07F26:  MOVLW  12
07F28:  MOVWF  x27
07F2A:  CLRF   x29
07F2C:  CLRF   x2A
07F2E:  MOVLW  01
07F30:  MOVWF  x2B
07F32:  MOVLW  02
07F34:  MOVWF  x2C
07F36:  MOVLB  0
07F38:  CALL   3F64
....................        
....................          strcpy(Menus.Letra,"Test B&D"); 
07F3C:  MOVLW  07
07F3E:  MOVWF  FEA
07F40:  MOVLW  12
07F42:  MOVWF  FE9
07F44:  MOVFF  FF2,727
07F48:  BCF    FF2.7
07F4A:  MOVLW  00
07F4C:  CALL   212E
07F50:  TBLRD*-
07F52:  TBLRD*+
07F54:  MOVF   FF5,W
07F56:  MOVWF  FEE
07F58:  IORLW  00
07F5A:  BNZ   7F52
07F5C:  MOVLB  7
07F5E:  BTFSC  x27.7
07F60:  BSF    FF2.7
....................          displayMenu(Menus.Letra,0,55,2,1); 
07F62:  MOVLW  07
07F64:  MOVWF  x28
07F66:  MOVLW  12
07F68:  MOVWF  x27
07F6A:  CLRF   x29
07F6C:  MOVLW  37
07F6E:  MOVWF  x2A
07F70:  MOVLW  02
07F72:  MOVWF  x2B
07F74:  MOVLW  01
07F76:  MOVWF  x2C
07F78:  MOVLB  0
07F7A:  CALL   3F64
....................           
....................          strcpy(Menus.Letra,"Temperatura:134 C"); 
07F7E:  MOVLW  07
07F80:  MOVWF  FEA
07F82:  MOVLW  12
07F84:  MOVWF  FE9
07F86:  MOVFF  FF2,727
07F8A:  BCF    FF2.7
07F8C:  MOVLW  00
07F8E:  CALL   201A
07F92:  TBLRD*-
07F94:  TBLRD*+
07F96:  MOVF   FF5,W
07F98:  MOVWF  FEE
07F9A:  IORLW  00
07F9C:  BNZ   7F94
07F9E:  MOVLB  7
07FA0:  BTFSC  x27.7
07FA2:  BSF    FF2.7
....................          displayMenu(Menus.Letra,0,26,0,1); 
07FA4:  MOVLW  07
07FA6:  MOVWF  x28
07FA8:  MOVLW  12
07FAA:  MOVWF  x27
07FAC:  CLRF   x29
07FAE:  MOVLW  1A
07FB0:  MOVWF  x2A
07FB2:  CLRF   x2B
07FB4:  MOVLW  01
07FB6:  MOVWF  x2C
07FB8:  MOVLB  0
07FBA:  CALL   3F64
....................          strcpy(Menus.Letra,"T. Esterilizacion:3.5m"); 
07FBE:  MOVLW  07
07FC0:  MOVWF  FEA
07FC2:  MOVLW  12
07FC4:  MOVWF  FE9
07FC6:  MOVFF  FF2,727
07FCA:  BCF    FF2.7
07FCC:  MOVLW  00
07FCE:  CALL   2156
07FD2:  TBLRD*-
07FD4:  TBLRD*+
07FD6:  MOVF   FF5,W
07FD8:  MOVWF  FEE
07FDA:  IORLW  00
07FDC:  BNZ   7FD4
07FDE:  MOVLB  7
07FE0:  BTFSC  x27.7
07FE2:  BSF    FF2.7
....................          displayMenu(Menus.Letra,0,36,0,1); 
07FE4:  MOVLW  07
07FE6:  MOVWF  x28
07FE8:  MOVLW  12
07FEA:  MOVWF  x27
07FEC:  CLRF   x29
07FEE:  MOVLW  24
07FF0:  MOVWF  x2A
07FF2:  CLRF   x2B
07FF4:  MOVLW  01
07FF6:  MOVWF  x2C
07FF8:  MOVLB  0
07FFA:  CALL   3F64
....................          strcpy(Menus.Letra,"T. Secado= 2m"); 
07FFE:  MOVLW  07
08000:  MOVWF  FEA
08002:  MOVLW  12
08004:  MOVWF  FE9
08006:  MOVFF  FF2,727
0800A:  BCF    FF2.7
0800C:  MOVLW  00
0800E:  CALL   218C
08012:  TBLRD*-
08014:  TBLRD*+
08016:  MOVF   FF5,W
08018:  MOVWF  FEE
0801A:  IORLW  00
0801C:  BNZ   8014
0801E:  MOVLB  7
08020:  BTFSC  x27.7
08022:  BSF    FF2.7
....................          displayMenu(Menus.Letra,0,46,0,1);            
08024:  MOVLW  07
08026:  MOVWF  x28
08028:  MOVLW  12
0802A:  MOVWF  x27
0802C:  CLRF   x29
0802E:  MOVLW  2E
08030:  MOVWF  x2A
08032:  CLRF   x2B
08034:  MOVLW  01
08036:  MOVWF  x2C
08038:  MOVLB  0
0803A:  CALL   3F64
....................          visual=0; 
0803E:  MOVLB  4
08040:  BCF    x65.4
....................       } 
....................  
....................       if(LEFT)// Si oprime Izquier|da 
08042:  BSF    F96.1
08044:  BTFSC  F84.1
08046:  BRA    8068
....................       {  
....................          delay_ms(30);Menu=1;glcd_fillScreen(OFF);visual=1; 
08048:  MOVLW  1E
0804A:  MOVLB  7
0804C:  MOVWF  x2D
0804E:  MOVLB  0
08050:  CALL   30A6
08054:  MOVLW  01
08056:  MOVLB  6
08058:  MOVWF  xE1
0805A:  MOVLB  7
0805C:  CLRF   x28
0805E:  MOVLB  0
08060:  CALL   3936
08064:  MOVLB  4
08066:  BSF    x65.4
....................       }                  
....................  
....................       if(RIGHT)// Si oprime derecha 
08068:  BSF    F96.0
0806A:  BTFSC  F84.0
0806C:  BRA    80A4
....................       { 
....................          Testerilizacionp[0]=0;Testerilizacionp[1]=3;Testerilizacionp[2]=3;Testerilizacionp[3]=0; 
0806E:  CLRF   x70
08070:  MOVLW  03
08072:  MOVWF  x71
08074:  MOVWF  x72
08076:  CLRF   x73
....................          visual=1; 
08078:  BSF    x65.4
....................          Tsecadop[0]=0;Tsecadop[1]=0;Tsecadop[2]=2;Tsecadop[3]=0; 
0807A:  CLRF   x78
0807C:  CLRF   x79
0807E:  MOVLW  02
08080:  MOVWF  x7A
08082:  CLRF   x7B
....................          Setpoint=134; 
08084:  MOVLW  86
08086:  MOVLB  6
08088:  MOVWF  xE5
....................          Menu=20; 
0808A:  MOVLW  14
0808C:  MOVWF  xE1
....................          tiempo_secado=0; 
0808E:  CLRF   xE9
....................          glcd_fillScreen(OFF); 
08090:  MOVLB  7
08092:  CLRF   x28
08094:  MOVLB  0
08096:  CALL   3936
....................          desfoguelento=0; 
0809A:  MOVLB  4
0809C:  BCF    x65.5
....................          IniciaCiclo=ON; 
0809E:  BSF    x60.2
....................          enable_interrupts(global); 
080A0:  MOVLW  C0
080A2:  IORWF  FF2,F
080A4:  MOVLB  6
....................       } 
....................      
....................     }     
.................... //_--------------------------------------------------------------------------------------------------------------------------------------------------------     
....................  
....................  //_-------------------------------------------------------------------------------------------------------------------------------------------------------- 
....................       if(Menu==10){ // Menu de Test de Fugas 
080A6:  MOVF   xE1,W
080A8:  SUBLW  0A
080AA:  BTFSS  FD8.2
080AC:  BRA    8266
....................        
....................       if(visual==1) 
080AE:  MOVLB  4
080B0:  BTFSS  x65.4
080B2:  BRA    8206
....................       { 
....................          glcd_imagen(1); //Tijeras y Camisa 
080B4:  MOVLW  01
080B6:  MOVLB  7
080B8:  MOVWF  x28
080BA:  MOVLB  0
080BC:  CALL   509C
....................          strcpy(Menus.Letra,"Test Fugas"); 
080C0:  MOVLW  07
080C2:  MOVWF  FEA
080C4:  MOVLW  12
080C6:  MOVWF  FE9
080C8:  MOVFF  FF2,727
080CC:  BCF    FF2.7
080CE:  MOVLW  00
080D0:  CALL   21B8
080D4:  TBLRD*-
080D6:  TBLRD*+
080D8:  MOVF   FF5,W
080DA:  MOVWF  FEE
080DC:  IORLW  00
080DE:  BNZ   80D6
080E0:  MOVLB  7
080E2:  BTFSC  x27.7
080E4:  BSF    FF2.7
....................          displayMenu(Menus.Letra,0,0,1,2); 
080E6:  MOVLW  07
080E8:  MOVWF  x28
080EA:  MOVLW  12
080EC:  MOVWF  x27
080EE:  CLRF   x29
080F0:  CLRF   x2A
080F2:  MOVLW  01
080F4:  MOVWF  x2B
080F6:  MOVLW  02
080F8:  MOVWF  x2C
080FA:  MOVLB  0
080FC:  CALL   3F64
....................        
....................          strcpy(Menus.Letra,"Test Fugas"); 
08100:  MOVLW  07
08102:  MOVWF  FEA
08104:  MOVLW  12
08106:  MOVWF  FE9
08108:  MOVFF  FF2,727
0810C:  BCF    FF2.7
0810E:  MOVLW  00
08110:  CALL   21B8
08114:  TBLRD*-
08116:  TBLRD*+
08118:  MOVF   FF5,W
0811A:  MOVWF  FEE
0811C:  IORLW  00
0811E:  BNZ   8116
08120:  MOVLB  7
08122:  BTFSC  x27.7
08124:  BSF    FF2.7
....................          displayMenu(Menus.Letra,0,55,2,1); 
08126:  MOVLW  07
08128:  MOVWF  x28
0812A:  MOVLW  12
0812C:  MOVWF  x27
0812E:  CLRF   x29
08130:  MOVLW  37
08132:  MOVWF  x2A
08134:  MOVLW  02
08136:  MOVWF  x2B
08138:  MOVLW  01
0813A:  MOVWF  x2C
0813C:  MOVLB  0
0813E:  CALL   3F64
....................           
....................          strcpy(Menus.Letra,"Temperatura: N/A"); 
08142:  MOVLW  07
08144:  MOVWF  FEA
08146:  MOVLW  12
08148:  MOVWF  FE9
0814A:  MOVFF  FF2,727
0814E:  BCF    FF2.7
08150:  MOVLW  00
08152:  CALL   21E2
08156:  TBLRD*-
08158:  TBLRD*+
0815A:  MOVF   FF5,W
0815C:  MOVWF  FEE
0815E:  IORLW  00
08160:  BNZ   8158
08162:  MOVLB  7
08164:  BTFSC  x27.7
08166:  BSF    FF2.7
....................          displayMenu(Menus.Letra,0,26,0,1); 
08168:  MOVLW  07
0816A:  MOVWF  x28
0816C:  MOVLW  12
0816E:  MOVWF  x27
08170:  CLRF   x29
08172:  MOVLW  1A
08174:  MOVWF  x2A
08176:  CLRF   x2B
08178:  MOVLW  01
0817A:  MOVWF  x2C
0817C:  MOVLB  0
0817E:  CALL   3F64
....................          strcpy(Menus.Letra,"T. Esterilizacion:10m"); 
08182:  MOVLW  07
08184:  MOVWF  FEA
08186:  MOVLW  12
08188:  MOVWF  FE9
0818A:  MOVFF  FF2,727
0818E:  BCF    FF2.7
08190:  MOVLW  00
08192:  CALL   2212
08196:  TBLRD*-
08198:  TBLRD*+
0819A:  MOVF   FF5,W
0819C:  MOVWF  FEE
0819E:  IORLW  00
081A0:  BNZ   8198
081A2:  MOVLB  7
081A4:  BTFSC  x27.7
081A6:  BSF    FF2.7
....................          displayMenu(Menus.Letra,0,36,0,1); 
081A8:  MOVLW  07
081AA:  MOVWF  x28
081AC:  MOVLW  12
081AE:  MOVWF  x27
081B0:  CLRF   x29
081B2:  MOVLW  24
081B4:  MOVWF  x2A
081B6:  CLRF   x2B
081B8:  MOVLW  01
081BA:  MOVWF  x2C
081BC:  MOVLB  0
081BE:  CALL   3F64
....................          strcpy(Menus.Letra,"T. Secado= N/A"); 
081C2:  MOVLW  07
081C4:  MOVWF  FEA
081C6:  MOVLW  12
081C8:  MOVWF  FE9
081CA:  MOVFF  FF2,727
081CE:  BCF    FF2.7
081D0:  MOVLW  00
081D2:  CALL   2246
081D6:  TBLRD*-
081D8:  TBLRD*+
081DA:  MOVF   FF5,W
081DC:  MOVWF  FEE
081DE:  IORLW  00
081E0:  BNZ   81D8
081E2:  MOVLB  7
081E4:  BTFSC  x27.7
081E6:  BSF    FF2.7
....................          displayMenu(Menus.Letra,0,46,0,1);            
081E8:  MOVLW  07
081EA:  MOVWF  x28
081EC:  MOVLW  12
081EE:  MOVWF  x27
081F0:  CLRF   x29
081F2:  MOVLW  2E
081F4:  MOVWF  x2A
081F6:  CLRF   x2B
081F8:  MOVLW  01
081FA:  MOVWF  x2C
081FC:  MOVLB  0
081FE:  CALL   3F64
....................          visual=0; 
08202:  MOVLB  4
08204:  BCF    x65.4
....................       } 
....................  
....................       if(LEFT)// Si oprime Izquier|da 
08206:  BSF    F96.1
08208:  BTFSC  F84.1
0820A:  BRA    822C
....................       {  
....................          delay_ms(30);Menu=1;glcd_fillScreen(OFF);visual=1; 
0820C:  MOVLW  1E
0820E:  MOVLB  7
08210:  MOVWF  x2D
08212:  MOVLB  0
08214:  CALL   30A6
08218:  MOVLW  01
0821A:  MOVLB  6
0821C:  MOVWF  xE1
0821E:  MOVLB  7
08220:  CLRF   x28
08222:  MOVLB  0
08224:  CALL   3936
08228:  MOVLB  4
0822A:  BSF    x65.4
....................       }                  
....................  
....................       if(RIGHT)// Si oprime derecha 
0822C:  BSF    F96.0
0822E:  BTFSC  F84.0
08230:  BRA    8264
....................       { 
....................          Testerilizacionp[0]=0;Testerilizacionp[1]=0;Testerilizacionp[2]=0;Testerilizacionp[3]=1; 
08232:  CLRF   x70
08234:  CLRF   x71
08236:  CLRF   x72
08238:  MOVLW  01
0823A:  MOVWF  x73
....................          visual=1; 
0823C:  BSF    x65.4
....................          Tsecadop[0]=0;Tsecadop[1]=0;Tsecadop[2]=0;Tsecadop[3]=0; 
0823E:  CLRF   x78
08240:  CLRF   x79
08242:  CLRF   x7A
08244:  CLRF   x7B
....................          Setpoint=30; 
08246:  MOVLW  1E
08248:  MOVLB  6
0824A:  MOVWF  xE5
....................          Menu=30; 
0824C:  MOVWF  xE1
....................          tiempo_secado=0; 
0824E:  CLRF   xE9
....................          glcd_fillScreen(OFF); 
08250:  MOVLB  7
08252:  CLRF   x28
08254:  MOVLB  0
08256:  CALL   3936
....................          desfoguelento=0; 
0825A:  MOVLB  4
0825C:  BCF    x65.5
....................          IniciaCiclo=ON; 
0825E:  BSF    x60.2
....................          enable_interrupts(global); 
08260:  MOVLW  C0
08262:  IORWF  FF2,F
08264:  MOVLB  6
....................       } 
....................      
....................     }     
.................... //_--------------------------------------------------------------------------------------------------------------------------------------------------------     
....................  
.................... //_--------------------------------------------------------------------------------------------------------------------------------------------------------       
....................       if(Menu==11){ // Menu de Proceso Personalizado 
08266:  MOVF   xE1,W
08268:  SUBLW  0B
0826A:  BTFSS  FD8.2
0826C:  BRA    8654
....................          
....................          if(visual==1) 
0826E:  MOVLB  4
08270:  BTFSS  x65.4
08272:  BRA    859A
....................          { 
....................             if(Opcion>5) 
08274:  MOVLB  6
08276:  MOVF   xE7,W
08278:  SUBLW  05
0827A:  BC    8280
....................             {Opcion=1;} 
0827C:  MOVLW  01
0827E:  MOVWF  xE7
....................             if(Opcion<1) 
08280:  MOVF   xE7,F
08282:  BNZ   8288
....................             {Opcion=5;} 
08284:  MOVLW  05
08286:  MOVWF  xE7
....................              
....................             strcpy(Menus.Letra,"Proceso Personalizado"); 
08288:  MOVLW  07
0828A:  MOVWF  FEA
0828C:  MOVLW  12
0828E:  MOVWF  FE9
08290:  MOVFF  FF2,727
08294:  BCF    FF2.7
08296:  MOVLW  00
08298:  MOVLB  0
0829A:  CALL   2274
0829E:  TBLRD*-
082A0:  TBLRD*+
082A2:  MOVF   FF5,W
082A4:  MOVWF  FEE
082A6:  IORLW  00
082A8:  BNZ   82A0
082AA:  MOVLB  7
082AC:  BTFSC  x27.7
082AE:  BSF    FF2.7
....................             displayMenu(Menus.Letra,0,0,1,1); 
082B0:  MOVLW  07
082B2:  MOVWF  x28
082B4:  MOVLW  12
082B6:  MOVWF  x27
082B8:  CLRF   x29
082BA:  CLRF   x2A
082BC:  MOVLW  01
082BE:  MOVWF  x2B
082C0:  MOVWF  x2C
082C2:  MOVLB  0
082C4:  CALL   3F64
....................        
....................             if(Opcion==1)    
082C8:  MOVLB  6
082CA:  DECFSZ xE7,W
082CC:  BRA    8314
....................                {strcpy(Menus.Letra,"T. Esterilizacion"); 
082CE:  MOVLW  07
082D0:  MOVWF  FEA
082D2:  MOVLW  12
082D4:  MOVWF  FE9
082D6:  MOVFF  FF2,727
082DA:  BCF    FF2.7
082DC:  MOVLW  00
082DE:  MOVLB  0
082E0:  CALL   22A8
082E4:  TBLRD*-
082E6:  TBLRD*+
082E8:  MOVF   FF5,W
082EA:  MOVWF  FEE
082EC:  IORLW  00
082EE:  BNZ   82E6
082F0:  MOVLB  7
082F2:  BTFSC  x27.7
082F4:  BSF    FF2.7
....................                displayMenu(Menus.Letra,0,10,1,1);} 
082F6:  MOVLW  07
082F8:  MOVWF  x28
082FA:  MOVLW  12
082FC:  MOVWF  x27
082FE:  CLRF   x29
08300:  MOVLW  0A
08302:  MOVWF  x2A
08304:  MOVLW  01
08306:  MOVWF  x2B
08308:  MOVWF  x2C
0830A:  MOVLB  0
0830C:  CALL   3F64
....................             else 
08310:  BRA    8356
08312:  MOVLB  6
....................                {strcpy(Menus.Letra,"T. Esterilizacion"); 
08314:  MOVLW  07
08316:  MOVWF  FEA
08318:  MOVLW  12
0831A:  MOVWF  FE9
0831C:  MOVFF  FF2,727
08320:  BCF    FF2.7
08322:  MOVLW  00
08324:  MOVLB  0
08326:  CALL   22A8
0832A:  TBLRD*-
0832C:  TBLRD*+
0832E:  MOVF   FF5,W
08330:  MOVWF  FEE
08332:  IORLW  00
08334:  BNZ   832C
08336:  MOVLB  7
08338:  BTFSC  x27.7
0833A:  BSF    FF2.7
....................                displayMenu(Menus.Letra,0,10,0,1);} 
0833C:  MOVLW  07
0833E:  MOVWF  x28
08340:  MOVLW  12
08342:  MOVWF  x27
08344:  CLRF   x29
08346:  MOVLW  0A
08348:  MOVWF  x2A
0834A:  CLRF   x2B
0834C:  MOVLW  01
0834E:  MOVWF  x2C
08350:  MOVLB  0
08352:  CALL   3F64
....................              
....................             if(Opcion==2)    
08356:  MOVLB  6
08358:  MOVF   xE7,W
0835A:  SUBLW  02
0835C:  BNZ   83A4
....................                {strcpy(Menus.Letra,"T. Secado"); 
0835E:  MOVLW  07
08360:  MOVWF  FEA
08362:  MOVLW  12
08364:  MOVWF  FE9
08366:  MOVFF  FF2,727
0836A:  BCF    FF2.7
0836C:  MOVLW  00
0836E:  MOVLB  0
08370:  CALL   22D8
08374:  TBLRD*-
08376:  TBLRD*+
08378:  MOVF   FF5,W
0837A:  MOVWF  FEE
0837C:  IORLW  00
0837E:  BNZ   8376
08380:  MOVLB  7
08382:  BTFSC  x27.7
08384:  BSF    FF2.7
....................                displayMenu(Menus.Letra,0,20,1,1);} 
08386:  MOVLW  07
08388:  MOVWF  x28
0838A:  MOVLW  12
0838C:  MOVWF  x27
0838E:  CLRF   x29
08390:  MOVLW  14
08392:  MOVWF  x2A
08394:  MOVLW  01
08396:  MOVWF  x2B
08398:  MOVWF  x2C
0839A:  MOVLB  0
0839C:  CALL   3F64
....................             else 
083A0:  BRA    83E6
083A2:  MOVLB  6
....................                {strcpy(Menus.Letra,"T. Secado"); 
083A4:  MOVLW  07
083A6:  MOVWF  FEA
083A8:  MOVLW  12
083AA:  MOVWF  FE9
083AC:  MOVFF  FF2,727
083B0:  BCF    FF2.7
083B2:  MOVLW  00
083B4:  MOVLB  0
083B6:  CALL   22D8
083BA:  TBLRD*-
083BC:  TBLRD*+
083BE:  MOVF   FF5,W
083C0:  MOVWF  FEE
083C2:  IORLW  00
083C4:  BNZ   83BC
083C6:  MOVLB  7
083C8:  BTFSC  x27.7
083CA:  BSF    FF2.7
....................                displayMenu(Menus.Letra,0,20,0,1);}    
083CC:  MOVLW  07
083CE:  MOVWF  x28
083D0:  MOVLW  12
083D2:  MOVWF  x27
083D4:  CLRF   x29
083D6:  MOVLW  14
083D8:  MOVWF  x2A
083DA:  CLRF   x2B
083DC:  MOVLW  01
083DE:  MOVWF  x2C
083E0:  MOVLB  0
083E2:  CALL   3F64
....................                 
....................              if(Opcion==3)    
083E6:  MOVLB  6
083E8:  MOVF   xE7,W
083EA:  SUBLW  03
083EC:  BNZ   8434
....................                {strcpy(Menus.Letra,"Temperatura"); 
083EE:  MOVLW  07
083F0:  MOVWF  FEA
083F2:  MOVLW  12
083F4:  MOVWF  FE9
083F6:  MOVFF  FF2,727
083FA:  BCF    FF2.7
083FC:  MOVLW  00
083FE:  MOVLB  0
08400:  CALL   2300
08404:  TBLRD*-
08406:  TBLRD*+
08408:  MOVF   FF5,W
0840A:  MOVWF  FEE
0840C:  IORLW  00
0840E:  BNZ   8406
08410:  MOVLB  7
08412:  BTFSC  x27.7
08414:  BSF    FF2.7
....................                displayMenu(Menus.Letra,0,30,1,1);} 
08416:  MOVLW  07
08418:  MOVWF  x28
0841A:  MOVLW  12
0841C:  MOVWF  x27
0841E:  CLRF   x29
08420:  MOVLW  1E
08422:  MOVWF  x2A
08424:  MOVLW  01
08426:  MOVWF  x2B
08428:  MOVWF  x2C
0842A:  MOVLB  0
0842C:  CALL   3F64
....................             else 
08430:  BRA    8476
08432:  MOVLB  6
....................                {strcpy(Menus.Letra,"Temperatura"); 
08434:  MOVLW  07
08436:  MOVWF  FEA
08438:  MOVLW  12
0843A:  MOVWF  FE9
0843C:  MOVFF  FF2,727
08440:  BCF    FF2.7
08442:  MOVLW  00
08444:  MOVLB  0
08446:  CALL   2300
0844A:  TBLRD*-
0844C:  TBLRD*+
0844E:  MOVF   FF5,W
08450:  MOVWF  FEE
08452:  IORLW  00
08454:  BNZ   844C
08456:  MOVLB  7
08458:  BTFSC  x27.7
0845A:  BSF    FF2.7
....................                displayMenu(Menus.Letra,0,30,0,1);} 
0845C:  MOVLW  07
0845E:  MOVWF  x28
08460:  MOVLW  12
08462:  MOVWF  x27
08464:  CLRF   x29
08466:  MOVLW  1E
08468:  MOVWF  x2A
0846A:  CLRF   x2B
0846C:  MOVLW  01
0846E:  MOVWF  x2C
08470:  MOVLB  0
08472:  CALL   3F64
....................                 
....................             if(Opcion==4)    
08476:  MOVLB  6
08478:  MOVF   xE7,W
0847A:  SUBLW  04
0847C:  BNZ   84C4
....................                {strcpy(Menus.Letra,"Nivel de desfogue"); 
0847E:  MOVLW  07
08480:  MOVWF  FEA
08482:  MOVLW  12
08484:  MOVWF  FE9
08486:  MOVFF  FF2,727
0848A:  BCF    FF2.7
0848C:  MOVLW  00
0848E:  MOVLB  0
08490:  CALL   232A
08494:  TBLRD*-
08496:  TBLRD*+
08498:  MOVF   FF5,W
0849A:  MOVWF  FEE
0849C:  IORLW  00
0849E:  BNZ   8496
084A0:  MOVLB  7
084A2:  BTFSC  x27.7
084A4:  BSF    FF2.7
....................                displayMenu(Menus.Letra,0,40,1,1);} 
084A6:  MOVLW  07
084A8:  MOVWF  x28
084AA:  MOVLW  12
084AC:  MOVWF  x27
084AE:  CLRF   x29
084B0:  MOVLW  28
084B2:  MOVWF  x2A
084B4:  MOVLW  01
084B6:  MOVWF  x2B
084B8:  MOVWF  x2C
084BA:  MOVLB  0
084BC:  CALL   3F64
....................             else 
084C0:  BRA    8506
084C2:  MOVLB  6
....................                {strcpy(Menus.Letra,"Nivel de desfogue"); 
084C4:  MOVLW  07
084C6:  MOVWF  FEA
084C8:  MOVLW  12
084CA:  MOVWF  FE9
084CC:  MOVFF  FF2,727
084D0:  BCF    FF2.7
084D2:  MOVLW  00
084D4:  MOVLB  0
084D6:  CALL   232A
084DA:  TBLRD*-
084DC:  TBLRD*+
084DE:  MOVF   FF5,W
084E0:  MOVWF  FEE
084E2:  IORLW  00
084E4:  BNZ   84DC
084E6:  MOVLB  7
084E8:  BTFSC  x27.7
084EA:  BSF    FF2.7
....................                displayMenu(Menus.Letra,0,40,0,1);}    
084EC:  MOVLW  07
084EE:  MOVWF  x28
084F0:  MOVLW  12
084F2:  MOVWF  x27
084F4:  CLRF   x29
084F6:  MOVLW  28
084F8:  MOVWF  x2A
084FA:  CLRF   x2B
084FC:  MOVLW  01
084FE:  MOVWF  x2C
08500:  MOVLB  0
08502:  CALL   3F64
....................                 
....................             if(Opcion==5)    
08506:  MOVLB  6
08508:  MOVF   xE7,W
0850A:  SUBLW  05
0850C:  BNZ   8554
....................                {strcpy(Menus.Letra,"Continuar"); 
0850E:  MOVLW  07
08510:  MOVWF  FEA
08512:  MOVLW  12
08514:  MOVWF  FE9
08516:  MOVFF  FF2,727
0851A:  BCF    FF2.7
0851C:  MOVLW  00
0851E:  MOVLB  0
08520:  CALL   235A
08524:  TBLRD*-
08526:  TBLRD*+
08528:  MOVF   FF5,W
0852A:  MOVWF  FEE
0852C:  IORLW  00
0852E:  BNZ   8526
08530:  MOVLB  7
08532:  BTFSC  x27.7
08534:  BSF    FF2.7
....................                displayMenu(Menus.Letra,0,50,1,1);} 
08536:  MOVLW  07
08538:  MOVWF  x28
0853A:  MOVLW  12
0853C:  MOVWF  x27
0853E:  CLRF   x29
08540:  MOVLW  32
08542:  MOVWF  x2A
08544:  MOVLW  01
08546:  MOVWF  x2B
08548:  MOVWF  x2C
0854A:  MOVLB  0
0854C:  CALL   3F64
....................             else 
08550:  BRA    8596
08552:  MOVLB  6
....................                {strcpy(Menus.Letra,"Continuar"); 
08554:  MOVLW  07
08556:  MOVWF  FEA
08558:  MOVLW  12
0855A:  MOVWF  FE9
0855C:  MOVFF  FF2,727
08560:  BCF    FF2.7
08562:  MOVLW  00
08564:  MOVLB  0
08566:  CALL   235A
0856A:  TBLRD*-
0856C:  TBLRD*+
0856E:  MOVF   FF5,W
08570:  MOVWF  FEE
08572:  IORLW  00
08574:  BNZ   856C
08576:  MOVLB  7
08578:  BTFSC  x27.7
0857A:  BSF    FF2.7
....................                displayMenu(Menus.Letra,0,50,0,1);}   
0857C:  MOVLW  07
0857E:  MOVWF  x28
08580:  MOVLW  12
08582:  MOVWF  x27
08584:  CLRF   x29
08586:  MOVLW  32
08588:  MOVWF  x2A
0858A:  CLRF   x2B
0858C:  MOVLW  01
0858E:  MOVWF  x2C
08590:  MOVLB  0
08592:  CALL   3F64
....................                           
....................             visual=0; 
08596:  MOVLB  4
08598:  BCF    x65.4
....................          } 
....................          if(UP)//Si oprime hacia arriba 
0859A:  BSF    F92.4
0859C:  BTFSC  F80.4
0859E:  BRA    85BC
....................          {  if(Flanco == 0)  
085A0:  BTFSC  x65.1
085A2:  BRA    85BA
....................                {Flanco = 1;delay_ms(30);Opcion--;visual=1; 
085A4:  BSF    x65.1
085A6:  MOVLW  1E
085A8:  MOVLB  7
085AA:  MOVWF  x2D
085AC:  MOVLB  0
085AE:  CALL   30A6
085B2:  MOVLB  6
085B4:  DECF   xE7,F
085B6:  MOVLB  4
085B8:  BSF    x65.4
....................                } 
....................          } 
....................             else 
085BA:  BRA    85BE
....................                {Flanco = 0;} 
085BC:  BCF    x65.1
....................                    
....................          if(DOWN)//Si oprime hacia abajo 
085BE:  BSF    F92.5
085C0:  BTFSC  F80.5
085C2:  BRA    85E0
....................          {  if(Flanco2 == 0)  
085C4:  BTFSC  x65.3
085C6:  BRA    85DE
....................                {Flanco2 = 1;delay_ms(30);Opcion++;visual=1; 
085C8:  BSF    x65.3
085CA:  MOVLW  1E
085CC:  MOVLB  7
085CE:  MOVWF  x2D
085D0:  MOVLB  0
085D2:  CALL   30A6
085D6:  MOVLB  6
085D8:  INCF   xE7,F
085DA:  MOVLB  4
085DC:  BSF    x65.4
....................                }      
....................          } 
....................             else 
085DE:  BRA    85E2
....................                {Flanco2 = 0;}   
085E0:  BCF    x65.3
....................                 
....................          if(RIGHT)//Si oprime SET 
085E2:  BSF    F96.0
085E4:  BTFSC  F84.0
085E6:  BRA    8620
....................          {  if(Flanco1 == 0)  
085E8:  BTFSC  x65.2
085EA:  BRA    861E
....................                {Flanco1 = 1;delay_ms(300);Menu=Opcion+40;Opcion=1;glcd_fillscreen(OFF);visual=1; 
085EC:  BSF    x65.2
085EE:  MOVLW  02
085F0:  MOVLB  7
085F2:  MOVWF  x27
085F4:  MOVLW  96
085F6:  MOVWF  x2D
085F8:  MOVLB  0
085FA:  CALL   30A6
085FE:  MOVLB  7
08600:  DECFSZ x27,F
08602:  BRA    85F4
08604:  MOVLW  28
08606:  MOVLB  6
08608:  ADDWF  xE7,W
0860A:  MOVWF  xE1
0860C:  MOVLW  01
0860E:  MOVWF  xE7
08610:  MOVLB  7
08612:  CLRF   x28
08614:  MOVLB  0
08616:  CALL   3936
0861A:  MOVLB  4
0861C:  BSF    x65.4
....................                } 
....................          } 
....................             else 
0861E:  BRA    8622
....................                {Flanco1 = 0;}   
08620:  BCF    x65.2
....................                 
....................          if(LEFT)//Si oprime boton de Toma. 
08622:  BSF    F96.1
08624:  BTFSC  F84.1
08626:  BRA    8652
....................          {delay_ms(700);Menu=1;glcd_fillscreen(OFF);visual=1;} 
08628:  MOVLW  04
0862A:  MOVLB  7
0862C:  MOVWF  x27
0862E:  MOVLW  AF
08630:  MOVWF  x2D
08632:  MOVLB  0
08634:  CALL   30A6
08638:  MOVLB  7
0863A:  DECFSZ x27,F
0863C:  BRA    862E
0863E:  MOVLW  01
08640:  MOVLB  6
08642:  MOVWF  xE1
08644:  MOVLB  7
08646:  CLRF   x28
08648:  MOVLB  0
0864A:  CALL   3936
0864E:  MOVLB  4
08650:  BSF    x65.4
08652:  MOVLB  6
....................           
....................     }     
.................... //_--------------------------------------------------------------------------------------------------------------------------------------------------------     
....................  
.................... //_--------------------------------------------------------------------------------------------------------------------------------------------------------       
....................       if(Menu==12){ // Menu de Cambio de Contrasea 
08654:  MOVF   xE1,W
08656:  SUBLW  0C
08658:  BTFSS  FD8.2
0865A:  BRA    8B2A
....................          
....................       strcpy(Menus.Letra,"Clave"); 
0865C:  MOVLW  07
0865E:  MOVWF  FEA
08660:  MOVLW  12
08662:  MOVWF  FE9
08664:  MOVFF  FF2,727
08668:  BCF    FF2.7
0866A:  MOVLW  00
0866C:  MOVLB  0
0866E:  CALL   1C36
08672:  TBLRD*-
08674:  TBLRD*+
08676:  MOVF   FF5,W
08678:  MOVWF  FEE
0867A:  IORLW  00
0867C:  BNZ   8674
0867E:  MOVLB  7
08680:  BTFSC  x27.7
08682:  BSF    FF2.7
....................       displayMenu(Menus.Letra,30,0,1,2);      
08684:  MOVLW  07
08686:  MOVWF  x28
08688:  MOVLW  12
0868A:  MOVWF  x27
0868C:  MOVLW  1E
0868E:  MOVWF  x29
08690:  CLRF   x2A
08692:  MOVLW  01
08694:  MOVWF  x2B
08696:  MOVLW  02
08698:  MOVWF  x2C
0869A:  MOVLB  0
0869C:  CALL   3F64
....................        
....................       if(unidad==1) 
086A0:  MOVLB  6
086A2:  DECFSZ xE2,W
086A4:  BRA    8704
....................       { 
....................          displayContrasena(Contrasena[0],20,30,1); 
086A6:  MOVFF  6FC,729
086AA:  MOVLW  14
086AC:  MOVLB  7
086AE:  MOVWF  x2A
086B0:  MOVLW  1E
086B2:  MOVWF  x2B
086B4:  MOVLW  01
086B6:  MOVWF  x2C
086B8:  MOVLB  0
086BA:  CALL   418A
....................          displayContrasena(Contrasena[1],40,30,0); 
086BE:  MOVFF  6FD,729
086C2:  MOVLW  28
086C4:  MOVLB  7
086C6:  MOVWF  x2A
086C8:  MOVLW  1E
086CA:  MOVWF  x2B
086CC:  CLRF   x2C
086CE:  MOVLB  0
086D0:  CALL   418A
....................          displayContrasena(Contrasena[2],60,30,0); 
086D4:  MOVFF  6FE,729
086D8:  MOVLW  3C
086DA:  MOVLB  7
086DC:  MOVWF  x2A
086DE:  MOVLW  1E
086E0:  MOVWF  x2B
086E2:  CLRF   x2C
086E4:  MOVLB  0
086E6:  CALL   418A
....................          displayContrasena(Contrasena[3],80,30,0); 
086EA:  MOVFF  6FF,729
086EE:  MOVLW  50
086F0:  MOVLB  7
086F2:  MOVWF  x2A
086F4:  MOVLW  1E
086F6:  MOVWF  x2B
086F8:  CLRF   x2C
086FA:  MOVLB  0
086FC:  CALL   418A
....................       } 
....................       else 
08700:  BRA    882C
08702:  MOVLB  6
....................       { 
....................          if(unidad==2) 
08704:  MOVF   xE2,W
08706:  SUBLW  02
08708:  BNZ   8768
....................          { 
....................             displayContrasena(Contrasena[0],20,30,0); 
0870A:  MOVFF  6FC,729
0870E:  MOVLW  14
08710:  MOVLB  7
08712:  MOVWF  x2A
08714:  MOVLW  1E
08716:  MOVWF  x2B
08718:  CLRF   x2C
0871A:  MOVLB  0
0871C:  CALL   418A
....................             displayContrasena(Contrasena[1],40,30,1); 
08720:  MOVFF  6FD,729
08724:  MOVLW  28
08726:  MOVLB  7
08728:  MOVWF  x2A
0872A:  MOVLW  1E
0872C:  MOVWF  x2B
0872E:  MOVLW  01
08730:  MOVWF  x2C
08732:  MOVLB  0
08734:  CALL   418A
....................             displayContrasena(Contrasena[2],60,30,0); 
08738:  MOVFF  6FE,729
0873C:  MOVLW  3C
0873E:  MOVLB  7
08740:  MOVWF  x2A
08742:  MOVLW  1E
08744:  MOVWF  x2B
08746:  CLRF   x2C
08748:  MOVLB  0
0874A:  CALL   418A
....................             displayContrasena(Contrasena[3],80,30,0); 
0874E:  MOVFF  6FF,729
08752:  MOVLW  50
08754:  MOVLB  7
08756:  MOVWF  x2A
08758:  MOVLW  1E
0875A:  MOVWF  x2B
0875C:  CLRF   x2C
0875E:  MOVLB  0
08760:  CALL   418A
....................          } 
....................          else 
08764:  BRA    882C
08766:  MOVLB  6
....................          { 
....................             if(unidad==3) 
08768:  MOVF   xE2,W
0876A:  SUBLW  03
0876C:  BNZ   87CC
....................             { 
....................                displayContrasena(Contrasena[0],20,30,0); 
0876E:  MOVFF  6FC,729
08772:  MOVLW  14
08774:  MOVLB  7
08776:  MOVWF  x2A
08778:  MOVLW  1E
0877A:  MOVWF  x2B
0877C:  CLRF   x2C
0877E:  MOVLB  0
08780:  CALL   418A
....................                displayContrasena(Contrasena[1],40,30,0); 
08784:  MOVFF  6FD,729
08788:  MOVLW  28
0878A:  MOVLB  7
0878C:  MOVWF  x2A
0878E:  MOVLW  1E
08790:  MOVWF  x2B
08792:  CLRF   x2C
08794:  MOVLB  0
08796:  CALL   418A
....................                displayContrasena(Contrasena[2],60,30,1); 
0879A:  MOVFF  6FE,729
0879E:  MOVLW  3C
087A0:  MOVLB  7
087A2:  MOVWF  x2A
087A4:  MOVLW  1E
087A6:  MOVWF  x2B
087A8:  MOVLW  01
087AA:  MOVWF  x2C
087AC:  MOVLB  0
087AE:  CALL   418A
....................                displayContrasena(Contrasena[3],80,30,0); 
087B2:  MOVFF  6FF,729
087B6:  MOVLW  50
087B8:  MOVLB  7
087BA:  MOVWF  x2A
087BC:  MOVLW  1E
087BE:  MOVWF  x2B
087C0:  CLRF   x2C
087C2:  MOVLB  0
087C4:  CALL   418A
....................             } 
....................             else 
087C8:  BRA    882C
087CA:  MOVLB  6
....................             { 
....................                if(unidad==4) 
087CC:  MOVF   xE2,W
087CE:  SUBLW  04
087D0:  BNZ   882E
....................                { 
....................                   displayContrasena(Contrasena[0],20,30,0); 
087D2:  MOVFF  6FC,729
087D6:  MOVLW  14
087D8:  MOVLB  7
087DA:  MOVWF  x2A
087DC:  MOVLW  1E
087DE:  MOVWF  x2B
087E0:  CLRF   x2C
087E2:  MOVLB  0
087E4:  CALL   418A
....................                   displayContrasena(Contrasena[1],40,30,0); 
087E8:  MOVFF  6FD,729
087EC:  MOVLW  28
087EE:  MOVLB  7
087F0:  MOVWF  x2A
087F2:  MOVLW  1E
087F4:  MOVWF  x2B
087F6:  CLRF   x2C
087F8:  MOVLB  0
087FA:  CALL   418A
....................                   displayContrasena(Contrasena[2],60,30,0); 
087FE:  MOVFF  6FE,729
08802:  MOVLW  3C
08804:  MOVLB  7
08806:  MOVWF  x2A
08808:  MOVLW  1E
0880A:  MOVWF  x2B
0880C:  CLRF   x2C
0880E:  MOVLB  0
08810:  CALL   418A
....................                   displayContrasena(Contrasena[3],80,30,1); 
08814:  MOVFF  6FF,729
08818:  MOVLW  50
0881A:  MOVLB  7
0881C:  MOVWF  x2A
0881E:  MOVLW  1E
08820:  MOVWF  x2B
08822:  MOVLW  01
08824:  MOVWF  x2C
08826:  MOVLB  0
08828:  CALL   418A
0882C:  MOVLB  6
....................                } 
....................             } 
....................          } 
....................       } 
....................        
....................       if(UP)//Si oprime hacia arriba 
0882E:  BSF    F92.4
08830:  BTFSC  F80.4
08832:  BRA    88A2
....................       { 
....................          if(Flanco == 0) 
08834:  MOVLB  4
08836:  BTFSC  x65.1
08838:  BRA    889E
....................          { 
....................             Flanco = 1;delay_ms(30); 
0883A:  BSF    x65.1
0883C:  MOVLW  1E
0883E:  MOVLB  7
08840:  MOVWF  x2D
08842:  MOVLB  0
08844:  CALL   30A6
....................             for(i=1;i<=4;i++) 
08848:  MOVLW  01
0884A:  MOVLB  6
0884C:  MOVWF  xE3
0884E:  MOVF   xE3,W
08850:  SUBLW  04
08852:  BNC   889C
....................             { 
....................                if(unidad==i) 
08854:  MOVF   xE3,W
08856:  SUBWF  xE2,W
08858:  BNZ   8898
....................                { 
....................                   Contrasena[i-1]++; 
0885A:  MOVLW  01
0885C:  SUBWF  xE3,W
0885E:  CLRF   03
08860:  ADDLW  FC
08862:  MOVWF  FE9
08864:  MOVLW  06
08866:  ADDWFC 03,W
08868:  MOVWF  FEA
0886A:  INCF   FEF,F
....................                   if(Contrasena[i-1]>9)    
0886C:  MOVLW  01
0886E:  SUBWF  xE3,W
08870:  CLRF   03
08872:  ADDLW  FC
08874:  MOVWF  FE9
08876:  MOVLW  06
08878:  ADDWFC 03,W
0887A:  MOVWF  FEA
0887C:  BTFSC  FEF.7
0887E:  BRA    8898
08880:  MOVF   FEF,W
08882:  SUBLW  09
08884:  BC    8898
....................                   { 
....................                      Contrasena[i-1]=0; 
08886:  MOVLW  01
08888:  SUBWF  xE3,W
0888A:  CLRF   03
0888C:  ADDLW  FC
0888E:  MOVWF  FE9
08890:  MOVLW  06
08892:  ADDWFC 03,W
08894:  MOVWF  FEA
08896:  CLRF   FEF
....................                   } 
....................                } 
....................             } 
08898:  INCF   xE3,F
0889A:  BRA    884E
0889C:  MOVLB  4
....................          } 
....................       } 
....................       else 
0889E:  BRA    88A6
088A0:  MOVLB  6
....................       { 
....................          Flanco = 0; 
088A2:  MOVLB  4
088A4:  BCF    x65.1
....................       } 
....................              
....................       if(DOWN)//Si oprime hacia abajo 
088A6:  BSF    F92.5
088A8:  BTFSC  F80.5
088AA:  BRA    8914
....................       { 
....................          if(Flanco2 == 0) 
088AC:  BTFSC  x65.3
088AE:  BRA    8912
....................             {Flanco2 = 1;delay_ms(30); 
088B0:  BSF    x65.3
088B2:  MOVLW  1E
088B4:  MOVLB  7
088B6:  MOVWF  x2D
088B8:  MOVLB  0
088BA:  CALL   30A6
....................                for(i=1;i<=4;i++) 
088BE:  MOVLW  01
088C0:  MOVLB  6
088C2:  MOVWF  xE3
088C4:  MOVF   xE3,W
088C6:  SUBLW  04
088C8:  BNC   8910
....................                { 
....................                   if(unidad==i) 
088CA:  MOVF   xE3,W
088CC:  SUBWF  xE2,W
088CE:  BNZ   890C
....................                   {Contrasena[i-1]--;  
088D0:  MOVLW  01
088D2:  SUBWF  xE3,W
088D4:  CLRF   03
088D6:  ADDLW  FC
088D8:  MOVWF  FE9
088DA:  MOVLW  06
088DC:  ADDWFC 03,W
088DE:  MOVWF  FEA
088E0:  DECF   FEF,F
....................                      if(Contrasena[i-1]<0) 
088E2:  MOVLW  01
088E4:  SUBWF  xE3,W
088E6:  CLRF   03
088E8:  ADDLW  FC
088EA:  MOVWF  FE9
088EC:  MOVLW  06
088EE:  ADDWFC 03,W
088F0:  MOVWF  FEA
088F2:  BTFSC  FEF.7
088F4:  BRA    88F8
088F6:  BRA    890C
....................                         {Contrasena[i-1]=9;} 
088F8:  MOVLW  01
088FA:  SUBWF  xE3,W
088FC:  CLRF   03
088FE:  ADDLW  FC
08900:  MOVWF  FE9
08902:  MOVLW  06
08904:  ADDWFC 03,W
08906:  MOVWF  FEA
08908:  MOVLW  09
0890A:  MOVWF  FEF
....................                   } 
....................                }       
0890C:  INCF   xE3,F
0890E:  BRA    88C4
08910:  MOVLB  4
....................             }      
....................       } 
....................       else 
08912:  BRA    8916
....................       { 
....................          Flanco2 = 0; 
08914:  BCF    x65.3
....................       } 
....................              
....................       if(RIGHT)//Si oprime RIGHT 
08916:  BSF    F96.0
08918:  BTFSC  F84.0
0891A:  BRA    8940
....................       { 
....................          if(Flanco1 == 0) 
0891C:  BTFSC  x65.2
0891E:  BRA    893E
....................             {Flanco1 = 1;delay_ms(300);unidad++;} 
08920:  BSF    x65.2
08922:  MOVLW  02
08924:  MOVLB  7
08926:  MOVWF  x27
08928:  MOVLW  96
0892A:  MOVWF  x2D
0892C:  MOVLB  0
0892E:  CALL   30A6
08932:  MOVLB  7
08934:  DECFSZ x27,F
08936:  BRA    8928
08938:  MOVLB  6
0893A:  INCF   xE2,F
0893C:  MOVLB  4
....................       } 
....................       else 
0893E:  BRA    8942
....................       { 
....................          Flanco1 = 0; 
08940:  BCF    x65.2
....................       } 
....................        
....................       if(LEFT)//Si oprime Izquierda 
08942:  BSF    F96.1
08944:  BTFSC  F84.1
08946:  BRA    896E
....................       { 
....................          delay_ms(700);Menu=1;glcd_fillscreen(OFF); 
08948:  MOVLW  04
0894A:  MOVLB  7
0894C:  MOVWF  x27
0894E:  MOVLW  AF
08950:  MOVWF  x2D
08952:  MOVLB  0
08954:  CALL   30A6
08958:  MOVLB  7
0895A:  DECFSZ x27,F
0895C:  BRA    894E
0895E:  MOVLW  01
08960:  MOVLB  6
08962:  MOVWF  xE1
08964:  MOVLB  7
08966:  CLRF   x28
08968:  MOVLB  0
0896A:  CALL   3936
....................       } 
....................        
....................       if(unidad>4) 
0896E:  MOVLB  6
08970:  MOVF   xE2,W
08972:  SUBLW  04
08974:  BTFSC  FD8.0
08976:  BRA    8B2A
....................       {glcd_fillScreen(OFF); 
08978:  MOVLB  7
0897A:  CLRF   x28
0897C:  MOVLB  0
0897E:  CALL   3936
....................           
....................          if((Contrasena[0]==Password[0])&&(Contrasena[1]==Password[1])&&(Contrasena[2]==Password[2])&&(Contrasena[3]==Password[3])) 
08982:  MOVLB  7
08984:  MOVF   x00,W
08986:  MOVLB  6
08988:  SUBWF  xFC,W
0898A:  BNZ   8A68
0898C:  MOVLB  7
0898E:  MOVF   x01,W
08990:  MOVLB  6
08992:  SUBWF  xFD,W
08994:  BNZ   8A68
08996:  MOVLB  7
08998:  MOVF   x02,W
0899A:  MOVLB  6
0899C:  SUBWF  xFE,W
0899E:  BNZ   8A68
089A0:  MOVLB  7
089A2:  MOVF   x03,W
089A4:  MOVLB  6
089A6:  SUBWF  xFF,W
089A8:  BNZ   8A68
....................          { 
....................             glcd_fillScreen(OFF); 
089AA:  MOVLB  7
089AC:  CLRF   x28
089AE:  MOVLB  0
089B0:  CALL   3936
....................             strcpy(Menus.Letra,"Clave"); 
089B4:  MOVLW  07
089B6:  MOVWF  FEA
089B8:  MOVLW  12
089BA:  MOVWF  FE9
089BC:  MOVFF  FF2,727
089C0:  BCF    FF2.7
089C2:  MOVLW  00
089C4:  CALL   1C36
089C8:  TBLRD*-
089CA:  TBLRD*+
089CC:  MOVF   FF5,W
089CE:  MOVWF  FEE
089D0:  IORLW  00
089D2:  BNZ   89CA
089D4:  MOVLB  7
089D6:  BTFSC  x27.7
089D8:  BSF    FF2.7
....................             displayMenu(Menus.Letra,30,0,0,2); 
089DA:  MOVLW  07
089DC:  MOVWF  x28
089DE:  MOVLW  12
089E0:  MOVWF  x27
089E2:  MOVLW  1E
089E4:  MOVWF  x29
089E6:  CLRF   x2A
089E8:  CLRF   x2B
089EA:  MOVLW  02
089EC:  MOVWF  x2C
089EE:  MOVLB  0
089F0:  CALL   3F64
....................             strcpy(Menus.Letra,"Correcta"); 
089F4:  MOVLW  07
089F6:  MOVWF  FEA
089F8:  MOVLW  12
089FA:  MOVWF  FE9
089FC:  MOVFF  FF2,727
08A00:  BCF    FF2.7
08A02:  MOVLW  00
08A04:  CALL   1C5A
08A08:  TBLRD*-
08A0A:  TBLRD*+
08A0C:  MOVF   FF5,W
08A0E:  MOVWF  FEE
08A10:  IORLW  00
08A12:  BNZ   8A0A
08A14:  MOVLB  7
08A16:  BTFSC  x27.7
08A18:  BSF    FF2.7
....................             displayMenu(Menus.Letra,15,30,0,2); 
08A1A:  MOVLW  07
08A1C:  MOVWF  x28
08A1E:  MOVLW  12
08A20:  MOVWF  x27
08A22:  MOVLW  0F
08A24:  MOVWF  x29
08A26:  MOVLW  1E
08A28:  MOVWF  x2A
08A2A:  CLRF   x2B
08A2C:  MOVLW  02
08A2E:  MOVWF  x2C
08A30:  MOVLB  0
08A32:  CALL   3F64
....................             Menu=91;glcd_update();delay_ms(1000); 
08A36:  MOVLW  5B
08A38:  MOVLB  6
08A3A:  MOVWF  xE1
08A3C:  MOVLB  0
08A3E:  CALL   3990
08A42:  MOVLW  04
08A44:  MOVLB  7
08A46:  MOVWF  x27
08A48:  MOVLW  FA
08A4A:  MOVWF  x2D
08A4C:  MOVLB  0
08A4E:  CALL   30A6
08A52:  MOVLB  7
08A54:  DECFSZ x27,F
08A56:  BRA    8A48
....................             glcd_fillScreen(OFF);unidad=1; 
08A58:  CLRF   x28
08A5A:  MOVLB  0
08A5C:  CALL   3936
08A60:  MOVLW  01
08A62:  MOVLB  6
08A64:  MOVWF  xE2
....................          }// Esta parte se puede agregar en el Menu 1 dependiendo de la ubicacin del vidrio. 
....................          else 
08A66:  BRA    8B2A
....................          { 
....................             glcd_fillScreen(OFF); 
08A68:  MOVLB  7
08A6A:  CLRF   x28
08A6C:  MOVLB  0
08A6E:  CALL   3936
....................             strcpy(Menus.Letra,"Clave"); 
08A72:  MOVLW  07
08A74:  MOVWF  FEA
08A76:  MOVLW  12
08A78:  MOVWF  FE9
08A7A:  MOVFF  FF2,727
08A7E:  BCF    FF2.7
08A80:  MOVLW  00
08A82:  CALL   1C36
08A86:  TBLRD*-
08A88:  TBLRD*+
08A8A:  MOVF   FF5,W
08A8C:  MOVWF  FEE
08A8E:  IORLW  00
08A90:  BNZ   8A88
08A92:  MOVLB  7
08A94:  BTFSC  x27.7
08A96:  BSF    FF2.7
....................             displayMenu(Menus.Letra,30,0,0,2); 
08A98:  MOVLW  07
08A9A:  MOVWF  x28
08A9C:  MOVLW  12
08A9E:  MOVWF  x27
08AA0:  MOVLW  1E
08AA2:  MOVWF  x29
08AA4:  CLRF   x2A
08AA6:  CLRF   x2B
08AA8:  MOVLW  02
08AAA:  MOVWF  x2C
08AAC:  MOVLB  0
08AAE:  CALL   3F64
....................             strcpy(Menus.Letra,"Incorrecta"); 
08AB2:  MOVLW  07
08AB4:  MOVWF  FEA
08AB6:  MOVLW  12
08AB8:  MOVWF  FE9
08ABA:  MOVFF  FF2,727
08ABE:  BCF    FF2.7
08AC0:  MOVLW  00
08AC2:  CALL   1C82
08AC6:  TBLRD*-
08AC8:  TBLRD*+
08ACA:  MOVF   FF5,W
08ACC:  MOVWF  FEE
08ACE:  IORLW  00
08AD0:  BNZ   8AC8
08AD2:  MOVLB  7
08AD4:  BTFSC  x27.7
08AD6:  BSF    FF2.7
....................             displayMenu(Menus.Letra,0,30,0,2); 
08AD8:  MOVLW  07
08ADA:  MOVWF  x28
08ADC:  MOVLW  12
08ADE:  MOVWF  x27
08AE0:  CLRF   x29
08AE2:  MOVLW  1E
08AE4:  MOVWF  x2A
08AE6:  CLRF   x2B
08AE8:  MOVLW  02
08AEA:  MOVWF  x2C
08AEC:  MOVLB  0
08AEE:  CALL   3F64
....................             Menu=1;glcd_update();delay_ms(1000); 
08AF2:  MOVLW  01
08AF4:  MOVLB  6
08AF6:  MOVWF  xE1
08AF8:  MOVLB  0
08AFA:  CALL   3990
08AFE:  MOVLW  04
08B00:  MOVLB  7
08B02:  MOVWF  x27
08B04:  MOVLW  FA
08B06:  MOVWF  x2D
08B08:  MOVLB  0
08B0A:  CALL   30A6
08B0E:  MOVLB  7
08B10:  DECFSZ x27,F
08B12:  BRA    8B04
....................             glcd_fillScreen(OFF);unidad=1; 
08B14:  CLRF   x28
08B16:  MOVLB  0
08B18:  CALL   3936
08B1C:  MOVLW  01
08B1E:  MOVLB  6
08B20:  MOVWF  xE2
....................             Contrasena[0]=0;Contrasena[1]=0;Contrasena[2]=0;Contrasena[3]=0; 
08B22:  CLRF   xFC
08B24:  CLRF   xFD
08B26:  CLRF   xFE
08B28:  CLRF   xFF
....................          } 
....................       } 
....................     }     
.................... //_--------------------------------------------------------------------------------------------------------------------------------------------------------     
....................  
.................... //_--------------------------------------------------------------------------------------------------------------------------------------------------------       
....................       if(Menu==91){ // Menu de Cambio de Contrasea 
08B2A:  MOVF   xE1,W
08B2C:  SUBLW  5B
08B2E:  BTFSS  FD8.2
08B30:  BRA    8F12
....................          
....................       strcpy(Menus.Letra,"Clave Nueva"); 
08B32:  MOVLW  07
08B34:  MOVWF  FEA
08B36:  MOVLW  12
08B38:  MOVWF  FE9
08B3A:  MOVFF  FF2,727
08B3E:  BCF    FF2.7
08B40:  MOVLW  00
08B42:  MOVLB  0
08B44:  CALL   2382
08B48:  TBLRD*-
08B4A:  TBLRD*+
08B4C:  MOVF   FF5,W
08B4E:  MOVWF  FEE
08B50:  IORLW  00
08B52:  BNZ   8B4A
08B54:  MOVLB  7
08B56:  BTFSC  x27.7
08B58:  BSF    FF2.7
....................       displayMenu(Menus.Letra,0,0,1,2);      
08B5A:  MOVLW  07
08B5C:  MOVWF  x28
08B5E:  MOVLW  12
08B60:  MOVWF  x27
08B62:  CLRF   x29
08B64:  CLRF   x2A
08B66:  MOVLW  01
08B68:  MOVWF  x2B
08B6A:  MOVLW  02
08B6C:  MOVWF  x2C
08B6E:  MOVLB  0
08B70:  CALL   3F64
....................        
....................       if(unidad==1) 
08B74:  MOVLB  6
08B76:  DECFSZ xE2,W
08B78:  BRA    8BD8
....................       { 
....................          displayContrasena(Password[0],20,30,1); 
08B7A:  MOVFF  700,729
08B7E:  MOVLW  14
08B80:  MOVLB  7
08B82:  MOVWF  x2A
08B84:  MOVLW  1E
08B86:  MOVWF  x2B
08B88:  MOVLW  01
08B8A:  MOVWF  x2C
08B8C:  MOVLB  0
08B8E:  CALL   418A
....................          displayContrasena(Password[1],40,30,0); 
08B92:  MOVFF  701,729
08B96:  MOVLW  28
08B98:  MOVLB  7
08B9A:  MOVWF  x2A
08B9C:  MOVLW  1E
08B9E:  MOVWF  x2B
08BA0:  CLRF   x2C
08BA2:  MOVLB  0
08BA4:  CALL   418A
....................          displayContrasena(Password[2],60,30,0); 
08BA8:  MOVFF  702,729
08BAC:  MOVLW  3C
08BAE:  MOVLB  7
08BB0:  MOVWF  x2A
08BB2:  MOVLW  1E
08BB4:  MOVWF  x2B
08BB6:  CLRF   x2C
08BB8:  MOVLB  0
08BBA:  CALL   418A
....................          displayContrasena(Password[3],80,30,0); 
08BBE:  MOVFF  703,729
08BC2:  MOVLW  50
08BC4:  MOVLB  7
08BC6:  MOVWF  x2A
08BC8:  MOVLW  1E
08BCA:  MOVWF  x2B
08BCC:  CLRF   x2C
08BCE:  MOVLB  0
08BD0:  CALL   418A
....................       } 
....................       else 
08BD4:  BRA    8D00
08BD6:  MOVLB  6
....................       { 
....................          if(unidad==2) 
08BD8:  MOVF   xE2,W
08BDA:  SUBLW  02
08BDC:  BNZ   8C3C
....................          { 
....................             displayContrasena(Password[0],20,30,0); 
08BDE:  MOVFF  700,729
08BE2:  MOVLW  14
08BE4:  MOVLB  7
08BE6:  MOVWF  x2A
08BE8:  MOVLW  1E
08BEA:  MOVWF  x2B
08BEC:  CLRF   x2C
08BEE:  MOVLB  0
08BF0:  CALL   418A
....................             displayContrasena(Password[1],40,30,1); 
08BF4:  MOVFF  701,729
08BF8:  MOVLW  28
08BFA:  MOVLB  7
08BFC:  MOVWF  x2A
08BFE:  MOVLW  1E
08C00:  MOVWF  x2B
08C02:  MOVLW  01
08C04:  MOVWF  x2C
08C06:  MOVLB  0
08C08:  CALL   418A
....................             displayContrasena(Password[2],60,30,0); 
08C0C:  MOVFF  702,729
08C10:  MOVLW  3C
08C12:  MOVLB  7
08C14:  MOVWF  x2A
08C16:  MOVLW  1E
08C18:  MOVWF  x2B
08C1A:  CLRF   x2C
08C1C:  MOVLB  0
08C1E:  CALL   418A
....................             displayContrasena(Password[3],80,30,0); 
08C22:  MOVFF  703,729
08C26:  MOVLW  50
08C28:  MOVLB  7
08C2A:  MOVWF  x2A
08C2C:  MOVLW  1E
08C2E:  MOVWF  x2B
08C30:  CLRF   x2C
08C32:  MOVLB  0
08C34:  CALL   418A
....................          } 
....................          else 
08C38:  BRA    8D00
08C3A:  MOVLB  6
....................          { 
....................             if(unidad==3) 
08C3C:  MOVF   xE2,W
08C3E:  SUBLW  03
08C40:  BNZ   8CA0
....................             { 
....................                displayContrasena(Password[0],20,30,0); 
08C42:  MOVFF  700,729
08C46:  MOVLW  14
08C48:  MOVLB  7
08C4A:  MOVWF  x2A
08C4C:  MOVLW  1E
08C4E:  MOVWF  x2B
08C50:  CLRF   x2C
08C52:  MOVLB  0
08C54:  CALL   418A
....................                displayContrasena(Password[1],40,30,0); 
08C58:  MOVFF  701,729
08C5C:  MOVLW  28
08C5E:  MOVLB  7
08C60:  MOVWF  x2A
08C62:  MOVLW  1E
08C64:  MOVWF  x2B
08C66:  CLRF   x2C
08C68:  MOVLB  0
08C6A:  CALL   418A
....................                displayContrasena(Password[2],60,30,1); 
08C6E:  MOVFF  702,729
08C72:  MOVLW  3C
08C74:  MOVLB  7
08C76:  MOVWF  x2A
08C78:  MOVLW  1E
08C7A:  MOVWF  x2B
08C7C:  MOVLW  01
08C7E:  MOVWF  x2C
08C80:  MOVLB  0
08C82:  CALL   418A
....................                displayContrasena(Password[3],80,30,0); 
08C86:  MOVFF  703,729
08C8A:  MOVLW  50
08C8C:  MOVLB  7
08C8E:  MOVWF  x2A
08C90:  MOVLW  1E
08C92:  MOVWF  x2B
08C94:  CLRF   x2C
08C96:  MOVLB  0
08C98:  CALL   418A
....................             } 
....................             else 
08C9C:  BRA    8D00
08C9E:  MOVLB  6
....................             { 
....................                if(unidad==4) 
08CA0:  MOVF   xE2,W
08CA2:  SUBLW  04
08CA4:  BNZ   8D02
....................                { 
....................                   displayContrasena(Password[0],20,30,0); 
08CA6:  MOVFF  700,729
08CAA:  MOVLW  14
08CAC:  MOVLB  7
08CAE:  MOVWF  x2A
08CB0:  MOVLW  1E
08CB2:  MOVWF  x2B
08CB4:  CLRF   x2C
08CB6:  MOVLB  0
08CB8:  CALL   418A
....................                   displayContrasena(Password[1],40,30,0); 
08CBC:  MOVFF  701,729
08CC0:  MOVLW  28
08CC2:  MOVLB  7
08CC4:  MOVWF  x2A
08CC6:  MOVLW  1E
08CC8:  MOVWF  x2B
08CCA:  CLRF   x2C
08CCC:  MOVLB  0
08CCE:  CALL   418A
....................                   displayContrasena(Password[2],60,30,0); 
08CD2:  MOVFF  702,729
08CD6:  MOVLW  3C
08CD8:  MOVLB  7
08CDA:  MOVWF  x2A
08CDC:  MOVLW  1E
08CDE:  MOVWF  x2B
08CE0:  CLRF   x2C
08CE2:  MOVLB  0
08CE4:  CALL   418A
....................                   displayContrasena(Password[3],80,30,1); 
08CE8:  MOVFF  703,729
08CEC:  MOVLW  50
08CEE:  MOVLB  7
08CF0:  MOVWF  x2A
08CF2:  MOVLW  1E
08CF4:  MOVWF  x2B
08CF6:  MOVLW  01
08CF8:  MOVWF  x2C
08CFA:  MOVLB  0
08CFC:  CALL   418A
08D00:  MOVLB  6
....................                } 
....................             } 
....................          } 
....................       } 
....................        
....................       if(UP)//Si oprime hacia arriba 
08D02:  BSF    F92.4
08D04:  BTFSC  F80.4
08D06:  BRA    8D70
....................       { 
....................          if(Flanco == 0) 
08D08:  MOVLB  4
08D0A:  BTFSC  x65.1
08D0C:  BRA    8D6C
....................          { 
....................             Flanco = 1;delay_ms(30); 
08D0E:  BSF    x65.1
08D10:  MOVLW  1E
08D12:  MOVLB  7
08D14:  MOVWF  x2D
08D16:  MOVLB  0
08D18:  CALL   30A6
....................             for(i=1;i<=4;i++) 
08D1C:  MOVLW  01
08D1E:  MOVLB  6
08D20:  MOVWF  xE3
08D22:  MOVF   xE3,W
08D24:  SUBLW  04
08D26:  BNC   8D6A
....................             { 
....................                if(unidad==i) 
08D28:  MOVF   xE3,W
08D2A:  SUBWF  xE2,W
08D2C:  BNZ   8D66
....................                { 
....................                   Password[i-1]++; 
08D2E:  MOVLW  01
08D30:  SUBWF  xE3,W
08D32:  CLRF   03
08D34:  MOVWF  FE9
08D36:  MOVLW  07
08D38:  ADDWF  03,W
08D3A:  MOVWF  FEA
08D3C:  INCF   FEF,F
....................                   if(Password[i-1]>9)    
08D3E:  MOVLW  01
08D40:  SUBWF  xE3,W
08D42:  CLRF   03
08D44:  MOVWF  FE9
08D46:  MOVLW  07
08D48:  ADDWF  03,W
08D4A:  MOVWF  FEA
08D4C:  BTFSC  FEF.7
08D4E:  BRA    8D66
08D50:  MOVF   FEF,W
08D52:  SUBLW  09
08D54:  BC    8D66
....................                   { 
....................                      Password[i-1]=0; 
08D56:  MOVLW  01
08D58:  SUBWF  xE3,W
08D5A:  CLRF   03
08D5C:  MOVWF  FE9
08D5E:  MOVLW  07
08D60:  ADDWF  03,W
08D62:  MOVWF  FEA
08D64:  CLRF   FEF
....................                   } 
....................                } 
....................             } 
08D66:  INCF   xE3,F
08D68:  BRA    8D22
08D6A:  MOVLB  4
....................          } 
....................       } 
....................       else 
08D6C:  BRA    8D74
08D6E:  MOVLB  6
....................       { 
....................          Flanco = 0; 
08D70:  MOVLB  4
08D72:  BCF    x65.1
....................       } 
....................              
....................       if(DOWN)//Si oprime hacia abajo 
08D74:  BSF    F92.5
08D76:  BTFSC  F80.5
08D78:  BRA    8DDC
....................       { 
....................          if(Flanco2 == 0) 
08D7A:  BTFSC  x65.3
08D7C:  BRA    8DDA
....................             {Flanco2 = 1;delay_ms(30); 
08D7E:  BSF    x65.3
08D80:  MOVLW  1E
08D82:  MOVLB  7
08D84:  MOVWF  x2D
08D86:  MOVLB  0
08D88:  CALL   30A6
....................                for(i=1;i<=4;i++) 
08D8C:  MOVLW  01
08D8E:  MOVLB  6
08D90:  MOVWF  xE3
08D92:  MOVF   xE3,W
08D94:  SUBLW  04
08D96:  BNC   8DD8
....................                { 
....................                   if(unidad==i) 
08D98:  MOVF   xE3,W
08D9A:  SUBWF  xE2,W
08D9C:  BNZ   8DD4
....................                   { 
....................                      Password[i-1]--; 
08D9E:  MOVLW  01
08DA0:  SUBWF  xE3,W
08DA2:  CLRF   03
08DA4:  MOVWF  FE9
08DA6:  MOVLW  07
08DA8:  ADDWF  03,W
08DAA:  MOVWF  FEA
08DAC:  DECF   FEF,F
....................                      if(Password[i-1]<0) 
08DAE:  MOVLW  01
08DB0:  SUBWF  xE3,W
08DB2:  CLRF   03
08DB4:  MOVWF  FE9
08DB6:  MOVLW  07
08DB8:  ADDWF  03,W
08DBA:  MOVWF  FEA
08DBC:  BTFSC  FEF.7
08DBE:  BRA    8DC2
08DC0:  BRA    8DD4
....................                      { 
....................                         Password[i-1]=9; 
08DC2:  MOVLW  01
08DC4:  SUBWF  xE3,W
08DC6:  CLRF   03
08DC8:  MOVWF  FE9
08DCA:  MOVLW  07
08DCC:  ADDWF  03,W
08DCE:  MOVWF  FEA
08DD0:  MOVLW  09
08DD2:  MOVWF  FEF
....................                      } 
....................                   } 
....................                }       
08DD4:  INCF   xE3,F
08DD6:  BRA    8D92
08DD8:  MOVLB  4
....................             }      
....................       } 
....................       else 
08DDA:  BRA    8DDE
....................       { 
....................          Flanco2 = 0; 
08DDC:  BCF    x65.3
....................       } 
....................              
....................       if(RIGHT)//Si oprime RIGHT 
08DDE:  BSF    F96.0
08DE0:  BTFSC  F84.0
08DE2:  BRA    8E08
....................       { 
....................          if(Flanco1 == 0) 
08DE4:  BTFSC  x65.2
08DE6:  BRA    8E06
....................             {Flanco1 = 1;delay_ms(300);unidad++;} 
08DE8:  BSF    x65.2
08DEA:  MOVLW  02
08DEC:  MOVLB  7
08DEE:  MOVWF  x27
08DF0:  MOVLW  96
08DF2:  MOVWF  x2D
08DF4:  MOVLB  0
08DF6:  CALL   30A6
08DFA:  MOVLB  7
08DFC:  DECFSZ x27,F
08DFE:  BRA    8DF0
08E00:  MOVLB  6
08E02:  INCF   xE2,F
08E04:  MOVLB  4
....................       } 
....................       else 
08E06:  BRA    8E0A
....................       { 
....................          Flanco1 = 0; 
08E08:  BCF    x65.2
....................       } 
....................        
....................       if(LEFT)//Si oprime Izquierda 
08E0A:  BSF    F96.1
08E0C:  BTFSC  F84.1
08E0E:  BRA    8E36
....................       { 
....................          delay_ms(700);Menu=1;glcd_fillscreen(OFF); 
08E10:  MOVLW  04
08E12:  MOVLB  7
08E14:  MOVWF  x27
08E16:  MOVLW  AF
08E18:  MOVWF  x2D
08E1A:  MOVLB  0
08E1C:  CALL   30A6
08E20:  MOVLB  7
08E22:  DECFSZ x27,F
08E24:  BRA    8E16
08E26:  MOVLW  01
08E28:  MOVLB  6
08E2A:  MOVWF  xE1
08E2C:  MOVLB  7
08E2E:  CLRF   x28
08E30:  MOVLB  0
08E32:  CALL   3936
....................       } 
....................        
....................       if(unidad>4) 
08E36:  MOVLB  6
08E38:  MOVF   xE2,W
08E3A:  SUBLW  04
08E3C:  BC    8F12
....................       { 
....................          Opcion=1;unidad=1; 
08E3E:  MOVLW  01
08E40:  MOVWF  xE7
08E42:  MOVWF  xE2
....................          write_eeprom(10,Password[0]);write_eeprom(11,Password[1]);write_eeprom(12,Password[2]);write_eeprom(13,Password[3]); 
08E44:  CLRF   FAA
08E46:  MOVLW  0A
08E48:  MOVWF  FA9
08E4A:  MOVFF  700,FA8
08E4E:  BCF    FA6.6
08E50:  BCF    FA6.7
08E52:  BSF    FA6.2
08E54:  MOVF   FF2,W
08E56:  MOVWF  00
08E58:  BCF    FF2.7
08E5A:  MOVLB  F
08E5C:  MOVLW  55
08E5E:  MOVWF  FA7
08E60:  MOVLW  AA
08E62:  MOVWF  FA7
08E64:  BSF    FA6.1
08E66:  BTFSC  FA6.1
08E68:  BRA    8E66
08E6A:  BCF    FA6.2
08E6C:  MOVF   00,W
08E6E:  IORWF  FF2,F
08E70:  CLRF   FAA
08E72:  MOVLW  0B
08E74:  MOVWF  FA9
08E76:  MOVFF  701,FA8
08E7A:  BCF    FA6.6
08E7C:  BCF    FA6.7
08E7E:  BSF    FA6.2
08E80:  MOVF   FF2,W
08E82:  MOVWF  00
08E84:  BCF    FF2.7
08E86:  MOVLW  55
08E88:  MOVWF  FA7
08E8A:  MOVLW  AA
08E8C:  MOVWF  FA7
08E8E:  BSF    FA6.1
08E90:  BTFSC  FA6.1
08E92:  BRA    8E90
08E94:  BCF    FA6.2
08E96:  MOVF   00,W
08E98:  IORWF  FF2,F
08E9A:  CLRF   FAA
08E9C:  MOVLW  0C
08E9E:  MOVWF  FA9
08EA0:  MOVFF  702,FA8
08EA4:  BCF    FA6.6
08EA6:  BCF    FA6.7
08EA8:  BSF    FA6.2
08EAA:  MOVF   FF2,W
08EAC:  MOVWF  00
08EAE:  BCF    FF2.7
08EB0:  MOVLW  55
08EB2:  MOVWF  FA7
08EB4:  MOVLW  AA
08EB6:  MOVWF  FA7
08EB8:  BSF    FA6.1
08EBA:  BTFSC  FA6.1
08EBC:  BRA    8EBA
08EBE:  BCF    FA6.2
08EC0:  MOVF   00,W
08EC2:  IORWF  FF2,F
08EC4:  CLRF   FAA
08EC6:  MOVLW  0D
08EC8:  MOVWF  FA9
08ECA:  MOVFF  703,FA8
08ECE:  BCF    FA6.6
08ED0:  BCF    FA6.7
08ED2:  BSF    FA6.2
08ED4:  MOVF   FF2,W
08ED6:  MOVWF  00
08ED8:  BCF    FF2.7
08EDA:  MOVLW  55
08EDC:  MOVWF  FA7
08EDE:  MOVLW  AA
08EE0:  MOVWF  FA7
08EE2:  BSF    FA6.1
08EE4:  BTFSC  FA6.1
08EE6:  BRA    8EE4
08EE8:  BCF    FA6.2
08EEA:  MOVF   00,W
08EEC:  IORWF  FF2,F
....................          delay_ms(1000);glcd_fillScreen(OFF);Menu=1; 
08EEE:  MOVLW  04
08EF0:  MOVLB  7
08EF2:  MOVWF  x27
08EF4:  MOVLW  FA
08EF6:  MOVWF  x2D
08EF8:  MOVLB  0
08EFA:  CALL   30A6
08EFE:  MOVLB  7
08F00:  DECFSZ x27,F
08F02:  BRA    8EF4
08F04:  CLRF   x28
08F06:  MOVLB  0
08F08:  CALL   3936
08F0C:  MOVLW  01
08F0E:  MOVLB  6
08F10:  MOVWF  xE1
....................       } 
....................     }     
.................... //_--------------------------------------------------------------------------------------------------------------------------------------------------------     
....................  
.................... //_--------------------------------------------------------------------------------------------------------------------------------------------------------       
....................       if(Menu==13){ // Menu de Prueba de Componentes 
08F12:  MOVF   xE1,W
08F14:  SUBLW  0D
08F16:  BTFSS  FD8.2
08F18:  GOTO   A8D0
....................        
....................       PruebaEstados=ON; 
08F1C:  MOVLB  4
08F1E:  BSF    x61.6
....................          if(Opcion>15) 
08F20:  MOVLB  6
08F22:  MOVF   xE7,W
08F24:  SUBLW  0F
08F26:  BC    8F2C
....................          {Opcion=1;} 
08F28:  MOVLW  01
08F2A:  MOVWF  xE7
....................          if(Opcion<1) 
08F2C:  MOVF   xE7,F
08F2E:  BNZ   8F34
....................          {Opcion=15;} 
08F30:  MOVLW  0F
08F32:  MOVWF  xE7
....................           
....................       if(Opcion<7){ 
08F34:  MOVF   xE7,W
08F36:  SUBLW  06
08F38:  BTFSS  FD8.0
08F3A:  GOTO   98E6
....................          if(Opcion==1)    
08F3E:  DECFSZ xE7,W
08F40:  BRA    9014
....................          { 
....................             strcpy(Menus.Letra,"EV Desfogue"); 
08F42:  MOVLW  07
08F44:  MOVWF  FEA
08F46:  MOVLW  12
08F48:  MOVWF  FE9
08F4A:  MOVFF  FF2,727
08F4E:  BCF    FF2.7
08F50:  MOVLW  00
08F52:  MOVLB  0
08F54:  CALL   23AC
08F58:  TBLRD*-
08F5A:  TBLRD*+
08F5C:  MOVF   FF5,W
08F5E:  MOVWF  FEE
08F60:  IORLW  00
08F62:  BNZ   8F5A
08F64:  MOVLB  7
08F66:  BTFSC  x27.7
08F68:  BSF    FF2.7
....................             if(EstadoDesfogue){ 
08F6A:  MOVLB  4
08F6C:  BTFSS  x61.0
08F6E:  BRA    8FC2
....................                strcpy(Menus.Estado,"ON"); 
08F70:  MOVLW  07
08F72:  MOVWF  FEA
08F74:  MOVLW  21
08F76:  MOVWF  FE9
08F78:  MOVFF  FF2,727
08F7C:  BCF    FF2.7
08F7E:  MOVLW  00
08F80:  MOVLB  0
08F82:  CALL   23D6
08F86:  TBLRD*-
08F88:  TBLRD*+
08F8A:  MOVF   FF5,W
08F8C:  MOVWF  FEE
08F8E:  IORLW  00
08F90:  BNZ   8F88
08F92:  MOVLB  7
08F94:  BTFSC  x27.7
08F96:  BSF    FF2.7
....................                displayTemps(Menus.Letra,Menus.Estado,0,9,1,1); 
08F98:  MOVLW  07
08F9A:  MOVWF  x28
08F9C:  MOVLW  12
08F9E:  MOVWF  x27
08FA0:  MOVLW  07
08FA2:  MOVWF  x2A
08FA4:  MOVLW  21
08FA6:  MOVWF  x29
08FA8:  CLRF   x2B
08FAA:  MOVLW  09
08FAC:  MOVWF  x2C
08FAE:  MOVLW  01
08FB0:  MOVWF  x2D
08FB2:  MOVWF  x2E
08FB4:  MOVLB  0
08FB6:  CALL   5530
....................                Desfogue_on; 
08FBA:  BCF    F8B.5
08FBC:  BCF    F94.5
....................             } 
....................             else{ 
08FBE:  BRA    9010
08FC0:  MOVLB  4
....................                strcpy(Menus.Estado,"OFF"); 
08FC2:  MOVLW  07
08FC4:  MOVWF  FEA
08FC6:  MOVLW  21
08FC8:  MOVWF  FE9
08FCA:  MOVFF  FF2,727
08FCE:  BCF    FF2.7
08FD0:  MOVLW  00
08FD2:  MOVLB  0
08FD4:  CALL   23F8
08FD8:  TBLRD*-
08FDA:  TBLRD*+
08FDC:  MOVF   FF5,W
08FDE:  MOVWF  FEE
08FE0:  IORLW  00
08FE2:  BNZ   8FDA
08FE4:  MOVLB  7
08FE6:  BTFSC  x27.7
08FE8:  BSF    FF2.7
....................                displayTemps(Menus.Letra,Menus.Estado,0,9,1,1); 
08FEA:  MOVLW  07
08FEC:  MOVWF  x28
08FEE:  MOVLW  12
08FF0:  MOVWF  x27
08FF2:  MOVLW  07
08FF4:  MOVWF  x2A
08FF6:  MOVLW  21
08FF8:  MOVWF  x29
08FFA:  CLRF   x2B
08FFC:  MOVLW  09
08FFE:  MOVWF  x2C
09000:  MOVLW  01
09002:  MOVWF  x2D
09004:  MOVWF  x2E
09006:  MOVLB  0
09008:  CALL   5530
....................                Desfogue_off; 
0900C:  BSF    F8B.5
0900E:  BCF    F94.5
....................             } 
....................          } 
....................          else 
09010:  BRA    90DA
09012:  MOVLB  6
....................          { 
....................             strcpy(Menus.Letra,"EV Desfogue"); 
09014:  MOVLW  07
09016:  MOVWF  FEA
09018:  MOVLW  12
0901A:  MOVWF  FE9
0901C:  MOVFF  FF2,727
09020:  BCF    FF2.7
09022:  MOVLW  00
09024:  MOVLB  0
09026:  CALL   23AC
0902A:  TBLRD*-
0902C:  TBLRD*+
0902E:  MOVF   FF5,W
09030:  MOVWF  FEE
09032:  IORLW  00
09034:  BNZ   902C
09036:  MOVLB  7
09038:  BTFSC  x27.7
0903A:  BSF    FF2.7
....................             if(EstadoDesfogue){ 
0903C:  MOVLB  4
0903E:  BTFSS  x61.0
09040:  BRA    9090
....................                strcpy(Menus.Estado,"ON"); 
09042:  MOVLW  07
09044:  MOVWF  FEA
09046:  MOVLW  21
09048:  MOVWF  FE9
0904A:  MOVFF  FF2,727
0904E:  BCF    FF2.7
09050:  MOVLW  00
09052:  MOVLB  0
09054:  CALL   23D6
09058:  TBLRD*-
0905A:  TBLRD*+
0905C:  MOVF   FF5,W
0905E:  MOVWF  FEE
09060:  IORLW  00
09062:  BNZ   905A
09064:  MOVLB  7
09066:  BTFSC  x27.7
09068:  BSF    FF2.7
....................                displayTemps(Menus.Letra,Menus.Estado,0,9,0,1); 
0906A:  MOVLW  07
0906C:  MOVWF  x28
0906E:  MOVLW  12
09070:  MOVWF  x27
09072:  MOVLW  07
09074:  MOVWF  x2A
09076:  MOVLW  21
09078:  MOVWF  x29
0907A:  CLRF   x2B
0907C:  MOVLW  09
0907E:  MOVWF  x2C
09080:  CLRF   x2D
09082:  MOVLW  01
09084:  MOVWF  x2E
09086:  MOVLB  0
09088:  CALL   5530
....................             } 
....................             else{ 
0908C:  BRA    90DA
0908E:  MOVLB  4
....................                strcpy(Menus.Estado,"OFF"); 
09090:  MOVLW  07
09092:  MOVWF  FEA
09094:  MOVLW  21
09096:  MOVWF  FE9
09098:  MOVFF  FF2,727
0909C:  BCF    FF2.7
0909E:  MOVLW  00
090A0:  MOVLB  0
090A2:  CALL   23F8
090A6:  TBLRD*-
090A8:  TBLRD*+
090AA:  MOVF   FF5,W
090AC:  MOVWF  FEE
090AE:  IORLW  00
090B0:  BNZ   90A8
090B2:  MOVLB  7
090B4:  BTFSC  x27.7
090B6:  BSF    FF2.7
....................                displayTemps(Menus.Letra,Menus.Estado,0,9,0,1); 
090B8:  MOVLW  07
090BA:  MOVWF  x28
090BC:  MOVLW  12
090BE:  MOVWF  x27
090C0:  MOVLW  07
090C2:  MOVWF  x2A
090C4:  MOVLW  21
090C6:  MOVWF  x29
090C8:  CLRF   x2B
090CA:  MOVLW  09
090CC:  MOVWF  x2C
090CE:  CLRF   x2D
090D0:  MOVLW  01
090D2:  MOVWF  x2E
090D4:  MOVLB  0
090D6:  CALL   5530
....................             } 
....................          } 
....................           
....................          if(Opcion==2)    
090DA:  MOVLB  6
090DC:  MOVF   xE7,W
090DE:  SUBLW  02
090E0:  BNZ   91B2
....................          { 
....................             strcpy(Menus.Letra,"EV Agua"); 
090E2:  MOVLW  07
090E4:  MOVWF  FEA
090E6:  MOVLW  12
090E8:  MOVWF  FE9
090EA:  MOVFF  FF2,727
090EE:  BCF    FF2.7
090F0:  MOVLW  00
090F2:  MOVLB  0
090F4:  CALL   241A
090F8:  TBLRD*-
090FA:  TBLRD*+
090FC:  MOVF   FF5,W
090FE:  MOVWF  FEE
09100:  IORLW  00
09102:  BNZ   90FA
09104:  MOVLB  7
09106:  BTFSC  x27.7
09108:  BSF    FF2.7
....................             if(EstadoAgua){ 
0910A:  MOVLB  4
0910C:  BTFSS  x61.1
0910E:  BRA    9160
....................                strcpy(Menus.Estado,"ON"); 
09110:  MOVLW  07
09112:  MOVWF  FEA
09114:  MOVLW  21
09116:  MOVWF  FE9
09118:  MOVFF  FF2,727
0911C:  BCF    FF2.7
0911E:  MOVLW  00
09120:  MOVLB  0
09122:  CALL   23D6
09126:  TBLRD*-
09128:  TBLRD*+
0912A:  MOVF   FF5,W
0912C:  MOVWF  FEE
0912E:  IORLW  00
09130:  BNZ   9128
09132:  MOVLB  7
09134:  BTFSC  x27.7
09136:  BSF    FF2.7
....................                displayTemps(Menus.Letra,Menus.Estado,0,18,1,1); 
09138:  MOVLW  07
0913A:  MOVWF  x28
0913C:  MOVLW  12
0913E:  MOVWF  x27
09140:  MOVLW  07
09142:  MOVWF  x2A
09144:  MOVLW  21
09146:  MOVWF  x29
09148:  CLRF   x2B
0914A:  MOVLW  12
0914C:  MOVWF  x2C
0914E:  MOVLW  01
09150:  MOVWF  x2D
09152:  MOVWF  x2E
09154:  MOVLB  0
09156:  CALL   5530
....................                EVAgua=ON; 
0915A:  MOVLB  4
0915C:  BSF    x64.4
....................             } 
....................             else{ 
0915E:  BRA    91AE
....................                strcpy(Menus.Estado,"OFF"); 
09160:  MOVLW  07
09162:  MOVWF  FEA
09164:  MOVLW  21
09166:  MOVWF  FE9
09168:  MOVFF  FF2,727
0916C:  BCF    FF2.7
0916E:  MOVLW  00
09170:  MOVLB  0
09172:  CALL   23F8
09176:  TBLRD*-
09178:  TBLRD*+
0917A:  MOVF   FF5,W
0917C:  MOVWF  FEE
0917E:  IORLW  00
09180:  BNZ   9178
09182:  MOVLB  7
09184:  BTFSC  x27.7
09186:  BSF    FF2.7
....................                displayTemps(Menus.Letra,Menus.Estado,0,18,1,1); 
09188:  MOVLW  07
0918A:  MOVWF  x28
0918C:  MOVLW  12
0918E:  MOVWF  x27
09190:  MOVLW  07
09192:  MOVWF  x2A
09194:  MOVLW  21
09196:  MOVWF  x29
09198:  CLRF   x2B
0919A:  MOVLW  12
0919C:  MOVWF  x2C
0919E:  MOVLW  01
091A0:  MOVWF  x2D
091A2:  MOVWF  x2E
091A4:  MOVLB  0
091A6:  CALL   5530
....................                EVAgua=OFF; 
091AA:  MOVLB  4
091AC:  BCF    x64.4
....................             } 
....................          } 
....................          else 
091AE:  BRA    9278
091B0:  MOVLB  6
....................          { 
....................             strcpy(Menus.Letra,"EV Agua"); 
091B2:  MOVLW  07
091B4:  MOVWF  FEA
091B6:  MOVLW  12
091B8:  MOVWF  FE9
091BA:  MOVFF  FF2,727
091BE:  BCF    FF2.7
091C0:  MOVLW  00
091C2:  MOVLB  0
091C4:  CALL   241A
091C8:  TBLRD*-
091CA:  TBLRD*+
091CC:  MOVF   FF5,W
091CE:  MOVWF  FEE
091D0:  IORLW  00
091D2:  BNZ   91CA
091D4:  MOVLB  7
091D6:  BTFSC  x27.7
091D8:  BSF    FF2.7
....................             if(EstadoAgua){ 
091DA:  MOVLB  4
091DC:  BTFSS  x61.1
091DE:  BRA    922E
....................                strcpy(Menus.Estado,"ON"); 
091E0:  MOVLW  07
091E2:  MOVWF  FEA
091E4:  MOVLW  21
091E6:  MOVWF  FE9
091E8:  MOVFF  FF2,727
091EC:  BCF    FF2.7
091EE:  MOVLW  00
091F0:  MOVLB  0
091F2:  CALL   23D6
091F6:  TBLRD*-
091F8:  TBLRD*+
091FA:  MOVF   FF5,W
091FC:  MOVWF  FEE
091FE:  IORLW  00
09200:  BNZ   91F8
09202:  MOVLB  7
09204:  BTFSC  x27.7
09206:  BSF    FF2.7
....................                displayTemps(Menus.Letra,Menus.Estado,0,18,0,1); 
09208:  MOVLW  07
0920A:  MOVWF  x28
0920C:  MOVLW  12
0920E:  MOVWF  x27
09210:  MOVLW  07
09212:  MOVWF  x2A
09214:  MOVLW  21
09216:  MOVWF  x29
09218:  CLRF   x2B
0921A:  MOVLW  12
0921C:  MOVWF  x2C
0921E:  CLRF   x2D
09220:  MOVLW  01
09222:  MOVWF  x2E
09224:  MOVLB  0
09226:  CALL   5530
....................             }else{ 
0922A:  BRA    9278
0922C:  MOVLB  4
....................                strcpy(Menus.Estado,"OFF"); 
0922E:  MOVLW  07
09230:  MOVWF  FEA
09232:  MOVLW  21
09234:  MOVWF  FE9
09236:  MOVFF  FF2,727
0923A:  BCF    FF2.7
0923C:  MOVLW  00
0923E:  MOVLB  0
09240:  CALL   23F8
09244:  TBLRD*-
09246:  TBLRD*+
09248:  MOVF   FF5,W
0924A:  MOVWF  FEE
0924C:  IORLW  00
0924E:  BNZ   9246
09250:  MOVLB  7
09252:  BTFSC  x27.7
09254:  BSF    FF2.7
....................                displayTemps(Menus.Letra,Menus.Estado,0,18,0,1); 
09256:  MOVLW  07
09258:  MOVWF  x28
0925A:  MOVLW  12
0925C:  MOVWF  x27
0925E:  MOVLW  07
09260:  MOVWF  x2A
09262:  MOVLW  21
09264:  MOVWF  x29
09266:  CLRF   x2B
09268:  MOVLW  12
0926A:  MOVWF  x2C
0926C:  CLRF   x2D
0926E:  MOVLW  01
09270:  MOVWF  x2E
09272:  MOVLB  0
09274:  CALL   5530
....................             } 
....................          } 
....................              
....................          if(Opcion==3)    
09278:  MOVLB  6
0927A:  MOVF   xE7,W
0927C:  SUBLW  03
0927E:  BNZ   9352
....................          { 
....................             strcpy(Menus.Letra,"SSR"); 
09280:  MOVLW  07
09282:  MOVWF  FEA
09284:  MOVLW  12
09286:  MOVWF  FE9
09288:  MOVFF  FF2,727
0928C:  BCF    FF2.7
0928E:  MOVLW  00
09290:  MOVLB  0
09292:  CALL   2440
09296:  TBLRD*-
09298:  TBLRD*+
0929A:  MOVF   FF5,W
0929C:  MOVWF  FEE
0929E:  IORLW  00
092A0:  BNZ   9298
092A2:  MOVLB  7
092A4:  BTFSC  x27.7
092A6:  BSF    FF2.7
....................             if(EstadoSSR){ 
092A8:  MOVLB  4
092AA:  BTFSS  x61.2
092AC:  BRA    9300
....................                strcpy(Menus.Estado,"ON"); 
092AE:  MOVLW  07
092B0:  MOVWF  FEA
092B2:  MOVLW  21
092B4:  MOVWF  FE9
092B6:  MOVFF  FF2,727
092BA:  BCF    FF2.7
092BC:  MOVLW  00
092BE:  MOVLB  0
092C0:  CALL   23D6
092C4:  TBLRD*-
092C6:  TBLRD*+
092C8:  MOVF   FF5,W
092CA:  MOVWF  FEE
092CC:  IORLW  00
092CE:  BNZ   92C6
092D0:  MOVLB  7
092D2:  BTFSC  x27.7
092D4:  BSF    FF2.7
....................                displayTemps(Menus.Letra,Menus.Estado,0,27,1,1); 
092D6:  MOVLW  07
092D8:  MOVWF  x28
092DA:  MOVLW  12
092DC:  MOVWF  x27
092DE:  MOVLW  07
092E0:  MOVWF  x2A
092E2:  MOVLW  21
092E4:  MOVWF  x29
092E6:  CLRF   x2B
092E8:  MOVLW  1B
092EA:  MOVWF  x2C
092EC:  MOVLW  01
092EE:  MOVWF  x2D
092F0:  MOVWF  x2E
092F2:  MOVLB  0
092F4:  CALL   5530
....................                SSR_on; 
092F8:  BCF    F8B.2
092FA:  BCF    F94.2
....................             }else{ 
092FC:  BRA    934E
092FE:  MOVLB  4
....................                strcpy(Menus.Estado,"OFF"); 
09300:  MOVLW  07
09302:  MOVWF  FEA
09304:  MOVLW  21
09306:  MOVWF  FE9
09308:  MOVFF  FF2,727
0930C:  BCF    FF2.7
0930E:  MOVLW  00
09310:  MOVLB  0
09312:  CALL   23F8
09316:  TBLRD*-
09318:  TBLRD*+
0931A:  MOVF   FF5,W
0931C:  MOVWF  FEE
0931E:  IORLW  00
09320:  BNZ   9318
09322:  MOVLB  7
09324:  BTFSC  x27.7
09326:  BSF    FF2.7
....................                displayTemps(Menus.Letra,Menus.Estado,0,27,1,1); 
09328:  MOVLW  07
0932A:  MOVWF  x28
0932C:  MOVLW  12
0932E:  MOVWF  x27
09330:  MOVLW  07
09332:  MOVWF  x2A
09334:  MOVLW  21
09336:  MOVWF  x29
09338:  CLRF   x2B
0933A:  MOVLW  1B
0933C:  MOVWF  x2C
0933E:  MOVLW  01
09340:  MOVWF  x2D
09342:  MOVWF  x2E
09344:  MOVLB  0
09346:  CALL   5530
....................                SSR_off; 
0934A:  BSF    F8B.2
0934C:  BCF    F94.2
....................             } 
....................          } 
....................          else 
0934E:  BRA    9418
09350:  MOVLB  6
....................          { 
....................             strcpy(Menus.Letra,"SSR"); 
09352:  MOVLW  07
09354:  MOVWF  FEA
09356:  MOVLW  12
09358:  MOVWF  FE9
0935A:  MOVFF  FF2,727
0935E:  BCF    FF2.7
09360:  MOVLW  00
09362:  MOVLB  0
09364:  CALL   2440
09368:  TBLRD*-
0936A:  TBLRD*+
0936C:  MOVF   FF5,W
0936E:  MOVWF  FEE
09370:  IORLW  00
09372:  BNZ   936A
09374:  MOVLB  7
09376:  BTFSC  x27.7
09378:  BSF    FF2.7
....................             if(EstadoSSR){ 
0937A:  MOVLB  4
0937C:  BTFSS  x61.2
0937E:  BRA    93CE
....................                strcpy(Menus.Estado,"ON"); 
09380:  MOVLW  07
09382:  MOVWF  FEA
09384:  MOVLW  21
09386:  MOVWF  FE9
09388:  MOVFF  FF2,727
0938C:  BCF    FF2.7
0938E:  MOVLW  00
09390:  MOVLB  0
09392:  CALL   23D6
09396:  TBLRD*-
09398:  TBLRD*+
0939A:  MOVF   FF5,W
0939C:  MOVWF  FEE
0939E:  IORLW  00
093A0:  BNZ   9398
093A2:  MOVLB  7
093A4:  BTFSC  x27.7
093A6:  BSF    FF2.7
....................                displayTemps(Menus.Letra,Menus.Estado,0,27,0,1); 
093A8:  MOVLW  07
093AA:  MOVWF  x28
093AC:  MOVLW  12
093AE:  MOVWF  x27
093B0:  MOVLW  07
093B2:  MOVWF  x2A
093B4:  MOVLW  21
093B6:  MOVWF  x29
093B8:  CLRF   x2B
093BA:  MOVLW  1B
093BC:  MOVWF  x2C
093BE:  CLRF   x2D
093C0:  MOVLW  01
093C2:  MOVWF  x2E
093C4:  MOVLB  0
093C6:  CALL   5530
....................             }else{ 
093CA:  BRA    9418
093CC:  MOVLB  4
....................                strcpy(Menus.Estado,"OFF"); 
093CE:  MOVLW  07
093D0:  MOVWF  FEA
093D2:  MOVLW  21
093D4:  MOVWF  FE9
093D6:  MOVFF  FF2,727
093DA:  BCF    FF2.7
093DC:  MOVLW  00
093DE:  MOVLB  0
093E0:  CALL   23F8
093E4:  TBLRD*-
093E6:  TBLRD*+
093E8:  MOVF   FF5,W
093EA:  MOVWF  FEE
093EC:  IORLW  00
093EE:  BNZ   93E6
093F0:  MOVLB  7
093F2:  BTFSC  x27.7
093F4:  BSF    FF2.7
....................                displayTemps(Menus.Letra,Menus.Estado,0,27,0,1); 
093F6:  MOVLW  07
093F8:  MOVWF  x28
093FA:  MOVLW  12
093FC:  MOVWF  x27
093FE:  MOVLW  07
09400:  MOVWF  x2A
09402:  MOVLW  21
09404:  MOVWF  x29
09406:  CLRF   x2B
09408:  MOVLW  1B
0940A:  MOVWF  x2C
0940C:  CLRF   x2D
0940E:  MOVLW  01
09410:  MOVWF  x2E
09412:  MOVLB  0
09414:  CALL   5530
....................             } 
....................          } 
....................           
....................          if(Opcion==4)    
09418:  MOVLB  6
0941A:  MOVF   xE7,W
0941C:  SUBLW  04
0941E:  BNZ   94EA
....................          { 
....................             strcpy(Menus.Letra,"Nivel Alto"); 
09420:  MOVLW  07
09422:  MOVWF  FEA
09424:  MOVLW  12
09426:  MOVWF  FE9
09428:  MOVFF  FF2,727
0942C:  BCF    FF2.7
0942E:  MOVLW  00
09430:  MOVLB  0
09432:  CALL   2462
09436:  TBLRD*-
09438:  TBLRD*+
0943A:  MOVF   FF5,W
0943C:  MOVWF  FEE
0943E:  IORLW  00
09440:  BNZ   9438
09442:  MOVLB  7
09444:  BTFSC  x27.7
09446:  BSF    FF2.7
....................             if(HIGH){ 
09448:  BSF    F94.0
0944A:  BTFSS  F82.0
0944C:  BRA    949C
....................                strcpy(Menus.Estado,"ON"); 
0944E:  MOVLW  07
09450:  MOVWF  FEA
09452:  MOVLW  21
09454:  MOVWF  FE9
09456:  MOVFF  FF2,727
0945A:  BCF    FF2.7
0945C:  MOVLW  00
0945E:  MOVLB  0
09460:  CALL   23D6
09464:  TBLRD*-
09466:  TBLRD*+
09468:  MOVF   FF5,W
0946A:  MOVWF  FEE
0946C:  IORLW  00
0946E:  BNZ   9466
09470:  MOVLB  7
09472:  BTFSC  x27.7
09474:  BSF    FF2.7
....................                displayTemps(Menus.Letra,Menus.Estado,0,36,1,1); 
09476:  MOVLW  07
09478:  MOVWF  x28
0947A:  MOVLW  12
0947C:  MOVWF  x27
0947E:  MOVLW  07
09480:  MOVWF  x2A
09482:  MOVLW  21
09484:  MOVWF  x29
09486:  CLRF   x2B
09488:  MOVLW  24
0948A:  MOVWF  x2C
0948C:  MOVLW  01
0948E:  MOVWF  x2D
09490:  MOVWF  x2E
09492:  MOVLB  0
09494:  CALL   5530
....................             }else{ 
09498:  BRA    94E6
0949A:  MOVLB  7
....................                strcpy(Menus.Estado,"OFF"); 
0949C:  MOVLW  07
0949E:  MOVWF  FEA
094A0:  MOVLW  21
094A2:  MOVWF  FE9
094A4:  MOVFF  FF2,727
094A8:  BCF    FF2.7
094AA:  MOVLW  00
094AC:  MOVLB  0
094AE:  CALL   23F8
094B2:  TBLRD*-
094B4:  TBLRD*+
094B6:  MOVF   FF5,W
094B8:  MOVWF  FEE
094BA:  IORLW  00
094BC:  BNZ   94B4
094BE:  MOVLB  7
094C0:  BTFSC  x27.7
094C2:  BSF    FF2.7
....................                displayTemps(Menus.Letra,Menus.Estado,0,36,1,1); 
094C4:  MOVLW  07
094C6:  MOVWF  x28
094C8:  MOVLW  12
094CA:  MOVWF  x27
094CC:  MOVLW  07
094CE:  MOVWF  x2A
094D0:  MOVLW  21
094D2:  MOVWF  x29
094D4:  CLRF   x2B
094D6:  MOVLW  24
094D8:  MOVWF  x2C
094DA:  MOVLW  01
094DC:  MOVWF  x2D
094DE:  MOVWF  x2E
094E0:  MOVLB  0
094E2:  CALL   5530
....................             } 
....................          } 
....................          else 
094E6:  BRA    95B0
094E8:  MOVLB  6
....................          { 
....................             strcpy(Menus.Letra,"Nivel Alto"); 
094EA:  MOVLW  07
094EC:  MOVWF  FEA
094EE:  MOVLW  12
094F0:  MOVWF  FE9
094F2:  MOVFF  FF2,727
094F6:  BCF    FF2.7
094F8:  MOVLW  00
094FA:  MOVLB  0
094FC:  CALL   2462
09500:  TBLRD*-
09502:  TBLRD*+
09504:  MOVF   FF5,W
09506:  MOVWF  FEE
09508:  IORLW  00
0950A:  BNZ   9502
0950C:  MOVLB  7
0950E:  BTFSC  x27.7
09510:  BSF    FF2.7
....................             if(HIGH){ 
09512:  BSF    F94.0
09514:  BTFSS  F82.0
09516:  BRA    9566
....................                strcpy(Menus.Estado,"ON"); 
09518:  MOVLW  07
0951A:  MOVWF  FEA
0951C:  MOVLW  21
0951E:  MOVWF  FE9
09520:  MOVFF  FF2,727
09524:  BCF    FF2.7
09526:  MOVLW  00
09528:  MOVLB  0
0952A:  CALL   23D6
0952E:  TBLRD*-
09530:  TBLRD*+
09532:  MOVF   FF5,W
09534:  MOVWF  FEE
09536:  IORLW  00
09538:  BNZ   9530
0953A:  MOVLB  7
0953C:  BTFSC  x27.7
0953E:  BSF    FF2.7
....................                displayTemps(Menus.Letra,Menus.Estado,0,36,0,1); 
09540:  MOVLW  07
09542:  MOVWF  x28
09544:  MOVLW  12
09546:  MOVWF  x27
09548:  MOVLW  07
0954A:  MOVWF  x2A
0954C:  MOVLW  21
0954E:  MOVWF  x29
09550:  CLRF   x2B
09552:  MOVLW  24
09554:  MOVWF  x2C
09556:  CLRF   x2D
09558:  MOVLW  01
0955A:  MOVWF  x2E
0955C:  MOVLB  0
0955E:  CALL   5530
....................             }else{ 
09562:  BRA    95B0
09564:  MOVLB  7
....................                strcpy(Menus.Estado,"OFF"); 
09566:  MOVLW  07
09568:  MOVWF  FEA
0956A:  MOVLW  21
0956C:  MOVWF  FE9
0956E:  MOVFF  FF2,727
09572:  BCF    FF2.7
09574:  MOVLW  00
09576:  MOVLB  0
09578:  CALL   23F8
0957C:  TBLRD*-
0957E:  TBLRD*+
09580:  MOVF   FF5,W
09582:  MOVWF  FEE
09584:  IORLW  00
09586:  BNZ   957E
09588:  MOVLB  7
0958A:  BTFSC  x27.7
0958C:  BSF    FF2.7
....................                displayTemps(Menus.Letra,Menus.Estado,0,36,0,1); 
0958E:  MOVLW  07
09590:  MOVWF  x28
09592:  MOVLW  12
09594:  MOVWF  x27
09596:  MOVLW  07
09598:  MOVWF  x2A
0959A:  MOVLW  21
0959C:  MOVWF  x29
0959E:  CLRF   x2B
095A0:  MOVLW  24
095A2:  MOVWF  x2C
095A4:  CLRF   x2D
095A6:  MOVLW  01
095A8:  MOVWF  x2E
095AA:  MOVLB  0
095AC:  CALL   5530
....................             } 
....................          } 
....................                 
....................          if(Opcion==5)    
095B0:  MOVLB  6
095B2:  MOVF   xE7,W
095B4:  SUBLW  05
095B6:  BNZ   9682
....................          { 
....................             strcpy(Menus.Letra,"Nivel Bajo"); 
095B8:  MOVLW  07
095BA:  MOVWF  FEA
095BC:  MOVLW  12
095BE:  MOVWF  FE9
095C0:  MOVFF  FF2,727
095C4:  BCF    FF2.7
095C6:  MOVLW  00
095C8:  MOVLB  0
095CA:  CALL   248C
095CE:  TBLRD*-
095D0:  TBLRD*+
095D2:  MOVF   FF5,W
095D4:  MOVWF  FEE
095D6:  IORLW  00
095D8:  BNZ   95D0
095DA:  MOVLB  7
095DC:  BTFSC  x27.7
095DE:  BSF    FF2.7
....................             if(LOW){ 
095E0:  BSF    F94.1
095E2:  BTFSS  F82.1
095E4:  BRA    9634
....................                strcpy(Menus.Estado,"ON"); 
095E6:  MOVLW  07
095E8:  MOVWF  FEA
095EA:  MOVLW  21
095EC:  MOVWF  FE9
095EE:  MOVFF  FF2,727
095F2:  BCF    FF2.7
095F4:  MOVLW  00
095F6:  MOVLB  0
095F8:  CALL   23D6
095FC:  TBLRD*-
095FE:  TBLRD*+
09600:  MOVF   FF5,W
09602:  MOVWF  FEE
09604:  IORLW  00
09606:  BNZ   95FE
09608:  MOVLB  7
0960A:  BTFSC  x27.7
0960C:  BSF    FF2.7
....................                displayTemps(Menus.Letra,Menus.Estado,0,45,1,1); 
0960E:  MOVLW  07
09610:  MOVWF  x28
09612:  MOVLW  12
09614:  MOVWF  x27
09616:  MOVLW  07
09618:  MOVWF  x2A
0961A:  MOVLW  21
0961C:  MOVWF  x29
0961E:  CLRF   x2B
09620:  MOVLW  2D
09622:  MOVWF  x2C
09624:  MOVLW  01
09626:  MOVWF  x2D
09628:  MOVWF  x2E
0962A:  MOVLB  0
0962C:  CALL   5530
....................             }else{ 
09630:  BRA    967E
09632:  MOVLB  7
....................                strcpy(Menus.Estado,"OFF"); 
09634:  MOVLW  07
09636:  MOVWF  FEA
09638:  MOVLW  21
0963A:  MOVWF  FE9
0963C:  MOVFF  FF2,727
09640:  BCF    FF2.7
09642:  MOVLW  00
09644:  MOVLB  0
09646:  CALL   23F8
0964A:  TBLRD*-
0964C:  TBLRD*+
0964E:  MOVF   FF5,W
09650:  MOVWF  FEE
09652:  IORLW  00
09654:  BNZ   964C
09656:  MOVLB  7
09658:  BTFSC  x27.7
0965A:  BSF    FF2.7
....................                displayTemps(Menus.Letra,Menus.Estado,0,45,1,1); 
0965C:  MOVLW  07
0965E:  MOVWF  x28
09660:  MOVLW  12
09662:  MOVWF  x27
09664:  MOVLW  07
09666:  MOVWF  x2A
09668:  MOVLW  21
0966A:  MOVWF  x29
0966C:  CLRF   x2B
0966E:  MOVLW  2D
09670:  MOVWF  x2C
09672:  MOVLW  01
09674:  MOVWF  x2D
09676:  MOVWF  x2E
09678:  MOVLB  0
0967A:  CALL   5530
....................             } 
....................          } 
....................          else 
0967E:  BRA    9748
09680:  MOVLB  6
....................          { 
....................             strcpy(Menus.Letra,"Nivel Bajo"); 
09682:  MOVLW  07
09684:  MOVWF  FEA
09686:  MOVLW  12
09688:  MOVWF  FE9
0968A:  MOVFF  FF2,727
0968E:  BCF    FF2.7
09690:  MOVLW  00
09692:  MOVLB  0
09694:  CALL   248C
09698:  TBLRD*-
0969A:  TBLRD*+
0969C:  MOVF   FF5,W
0969E:  MOVWF  FEE
096A0:  IORLW  00
096A2:  BNZ   969A
096A4:  MOVLB  7
096A6:  BTFSC  x27.7
096A8:  BSF    FF2.7
....................             if(LOW){ 
096AA:  BSF    F94.1
096AC:  BTFSS  F82.1
096AE:  BRA    96FE
....................                strcpy(Menus.Estado,"ON"); 
096B0:  MOVLW  07
096B2:  MOVWF  FEA
096B4:  MOVLW  21
096B6:  MOVWF  FE9
096B8:  MOVFF  FF2,727
096BC:  BCF    FF2.7
096BE:  MOVLW  00
096C0:  MOVLB  0
096C2:  CALL   23D6
096C6:  TBLRD*-
096C8:  TBLRD*+
096CA:  MOVF   FF5,W
096CC:  MOVWF  FEE
096CE:  IORLW  00
096D0:  BNZ   96C8
096D2:  MOVLB  7
096D4:  BTFSC  x27.7
096D6:  BSF    FF2.7
....................                displayTemps(Menus.Letra,Menus.Estado,0,45,0,1); 
096D8:  MOVLW  07
096DA:  MOVWF  x28
096DC:  MOVLW  12
096DE:  MOVWF  x27
096E0:  MOVLW  07
096E2:  MOVWF  x2A
096E4:  MOVLW  21
096E6:  MOVWF  x29
096E8:  CLRF   x2B
096EA:  MOVLW  2D
096EC:  MOVWF  x2C
096EE:  CLRF   x2D
096F0:  MOVLW  01
096F2:  MOVWF  x2E
096F4:  MOVLB  0
096F6:  CALL   5530
....................             }else{ 
096FA:  BRA    9748
096FC:  MOVLB  7
....................                strcpy(Menus.Estado,"OFF"); 
096FE:  MOVLW  07
09700:  MOVWF  FEA
09702:  MOVLW  21
09704:  MOVWF  FE9
09706:  MOVFF  FF2,727
0970A:  BCF    FF2.7
0970C:  MOVLW  00
0970E:  MOVLB  0
09710:  CALL   23F8
09714:  TBLRD*-
09716:  TBLRD*+
09718:  MOVF   FF5,W
0971A:  MOVWF  FEE
0971C:  IORLW  00
0971E:  BNZ   9716
09720:  MOVLB  7
09722:  BTFSC  x27.7
09724:  BSF    FF2.7
....................                displayTemps(Menus.Letra,Menus.Estado,0,45,0,1); 
09726:  MOVLW  07
09728:  MOVWF  x28
0972A:  MOVLW  12
0972C:  MOVWF  x27
0972E:  MOVLW  07
09730:  MOVWF  x2A
09732:  MOVLW  21
09734:  MOVWF  x29
09736:  CLRF   x2B
09738:  MOVLW  2D
0973A:  MOVWF  x2C
0973C:  CLRF   x2D
0973E:  MOVLW  01
09740:  MOVWF  x2E
09742:  MOVLB  0
09744:  CALL   5530
....................             } 
....................          } 
....................           
....................          if(Opcion==6)    
09748:  MOVLB  6
0974A:  MOVF   xE7,W
0974C:  SUBLW  06
0974E:  BNZ   981A
....................          { 
....................             strcpy(Menus.Letra,"Switch Puerta"); 
09750:  MOVLW  07
09752:  MOVWF  FEA
09754:  MOVLW  12
09756:  MOVWF  FE9
09758:  MOVFF  FF2,727
0975C:  BCF    FF2.7
0975E:  MOVLW  00
09760:  MOVLB  0
09762:  CALL   24B6
09766:  TBLRD*-
09768:  TBLRD*+
0976A:  MOVF   FF5,W
0976C:  MOVWF  FEE
0976E:  IORLW  00
09770:  BNZ   9768
09772:  MOVLB  7
09774:  BTFSC  x27.7
09776:  BSF    FF2.7
....................             if(DOOR){ 
09778:  BSF    F96.2
0977A:  BTFSC  F84.2
0977C:  BRA    97CC
....................                strcpy(Menus.Estado,"OFF"); 
0977E:  MOVLW  07
09780:  MOVWF  FEA
09782:  MOVLW  21
09784:  MOVWF  FE9
09786:  MOVFF  FF2,727
0978A:  BCF    FF2.7
0978C:  MOVLW  00
0978E:  MOVLB  0
09790:  CALL   23F8
09794:  TBLRD*-
09796:  TBLRD*+
09798:  MOVF   FF5,W
0979A:  MOVWF  FEE
0979C:  IORLW  00
0979E:  BNZ   9796
097A0:  MOVLB  7
097A2:  BTFSC  x27.7
097A4:  BSF    FF2.7
....................                displayTemps(Menus.Letra,Menus.Estado,0,54,1,1); 
097A6:  MOVLW  07
097A8:  MOVWF  x28
097AA:  MOVLW  12
097AC:  MOVWF  x27
097AE:  MOVLW  07
097B0:  MOVWF  x2A
097B2:  MOVLW  21
097B4:  MOVWF  x29
097B6:  CLRF   x2B
097B8:  MOVLW  36
097BA:  MOVWF  x2C
097BC:  MOVLW  01
097BE:  MOVWF  x2D
097C0:  MOVWF  x2E
097C2:  MOVLB  0
097C4:  CALL   5530
....................             }else{ 
097C8:  BRA    9816
097CA:  MOVLB  7
....................                strcpy(Menus.Estado,"ON"); 
097CC:  MOVLW  07
097CE:  MOVWF  FEA
097D0:  MOVLW  21
097D2:  MOVWF  FE9
097D4:  MOVFF  FF2,727
097D8:  BCF    FF2.7
097DA:  MOVLW  00
097DC:  MOVLB  0
097DE:  CALL   23D6
097E2:  TBLRD*-
097E4:  TBLRD*+
097E6:  MOVF   FF5,W
097E8:  MOVWF  FEE
097EA:  IORLW  00
097EC:  BNZ   97E4
097EE:  MOVLB  7
097F0:  BTFSC  x27.7
097F2:  BSF    FF2.7
....................                displayTemps(Menus.Letra,Menus.Estado,0,54,1,1); 
097F4:  MOVLW  07
097F6:  MOVWF  x28
097F8:  MOVLW  12
097FA:  MOVWF  x27
097FC:  MOVLW  07
097FE:  MOVWF  x2A
09800:  MOVLW  21
09802:  MOVWF  x29
09804:  CLRF   x2B
09806:  MOVLW  36
09808:  MOVWF  x2C
0980A:  MOVLW  01
0980C:  MOVWF  x2D
0980E:  MOVWF  x2E
09810:  MOVLB  0
09812:  CALL   5530
....................             } 
....................          } 
....................          else 
09816:  BRA    98E0
09818:  MOVLB  6
....................          { 
....................             strcpy(Menus.Letra,"Switch Puerta"); 
0981A:  MOVLW  07
0981C:  MOVWF  FEA
0981E:  MOVLW  12
09820:  MOVWF  FE9
09822:  MOVFF  FF2,727
09826:  BCF    FF2.7
09828:  MOVLW  00
0982A:  MOVLB  0
0982C:  CALL   24B6
09830:  TBLRD*-
09832:  TBLRD*+
09834:  MOVF   FF5,W
09836:  MOVWF  FEE
09838:  IORLW  00
0983A:  BNZ   9832
0983C:  MOVLB  7
0983E:  BTFSC  x27.7
09840:  BSF    FF2.7
....................             if(DOOR){ 
09842:  BSF    F96.2
09844:  BTFSC  F84.2
09846:  BRA    9896
....................                strcpy(Menus.Estado,"OFF"); 
09848:  MOVLW  07
0984A:  MOVWF  FEA
0984C:  MOVLW  21
0984E:  MOVWF  FE9
09850:  MOVFF  FF2,727
09854:  BCF    FF2.7
09856:  MOVLW  00
09858:  MOVLB  0
0985A:  CALL   23F8
0985E:  TBLRD*-
09860:  TBLRD*+
09862:  MOVF   FF5,W
09864:  MOVWF  FEE
09866:  IORLW  00
09868:  BNZ   9860
0986A:  MOVLB  7
0986C:  BTFSC  x27.7
0986E:  BSF    FF2.7
....................                displayTemps(Menus.Letra,Menus.Estado,0,54,0,1); 
09870:  MOVLW  07
09872:  MOVWF  x28
09874:  MOVLW  12
09876:  MOVWF  x27
09878:  MOVLW  07
0987A:  MOVWF  x2A
0987C:  MOVLW  21
0987E:  MOVWF  x29
09880:  CLRF   x2B
09882:  MOVLW  36
09884:  MOVWF  x2C
09886:  CLRF   x2D
09888:  MOVLW  01
0988A:  MOVWF  x2E
0988C:  MOVLB  0
0988E:  CALL   5530
....................             }else{ 
09892:  BRA    98E0
09894:  MOVLB  7
....................                strcpy(Menus.Estado,"ON"); 
09896:  MOVLW  07
09898:  MOVWF  FEA
0989A:  MOVLW  21
0989C:  MOVWF  FE9
0989E:  MOVFF  FF2,727
098A2:  BCF    FF2.7
098A4:  MOVLW  00
098A6:  MOVLB  0
098A8:  CALL   23D6
098AC:  TBLRD*-
098AE:  TBLRD*+
098B0:  MOVF   FF5,W
098B2:  MOVWF  FEE
098B4:  IORLW  00
098B6:  BNZ   98AE
098B8:  MOVLB  7
098BA:  BTFSC  x27.7
098BC:  BSF    FF2.7
....................                displayTemps(Menus.Letra,Menus.Estado,0,54,0,1); 
098BE:  MOVLW  07
098C0:  MOVWF  x28
098C2:  MOVLW  12
098C4:  MOVWF  x27
098C6:  MOVLW  07
098C8:  MOVWF  x2A
098CA:  MOVLW  21
098CC:  MOVWF  x29
098CE:  CLRF   x2B
098D0:  MOVLW  36
098D2:  MOVWF  x2C
098D4:  CLRF   x2D
098D6:  MOVLW  01
098D8:  MOVWF  x2E
098DA:  MOVLB  0
098DC:  CALL   5530
....................             } 
....................          } 
....................       }else{ 
098E0:  GOTO   A780
098E4:  MOVLB  6
....................        
....................          if(Opcion>=7 && Opcion<13){ 
098E6:  MOVF   xE7,W
098E8:  SUBLW  06
098EA:  BTFSC  FD8.0
098EC:  GOTO   A2A8
098F0:  MOVF   xE7,W
098F2:  SUBLW  0C
098F4:  BTFSS  FD8.0
098F6:  GOTO   A2A8
....................             if(Opcion==7)    
098FA:  MOVF   xE7,W
098FC:  SUBLW  07
098FE:  BNZ   99CA
....................             { 
....................                strcpy(Menus.Letra,"Termostato"); 
09900:  MOVLW  07
09902:  MOVWF  FEA
09904:  MOVLW  12
09906:  MOVWF  FE9
09908:  MOVFF  FF2,727
0990C:  BCF    FF2.7
0990E:  MOVLW  00
09910:  MOVLB  0
09912:  CALL   24E2
09916:  TBLRD*-
09918:  TBLRD*+
0991A:  MOVF   FF5,W
0991C:  MOVWF  FEE
0991E:  IORLW  00
09920:  BNZ   9918
09922:  MOVLB  7
09924:  BTFSC  x27.7
09926:  BSF    FF2.7
....................                if(TERM){ 
09928:  BSF    F93.7
0992A:  BTFSC  F81.7
0992C:  BRA    997C
....................                   strcpy(Menus.Estado,"OFF"); 
0992E:  MOVLW  07
09930:  MOVWF  FEA
09932:  MOVLW  21
09934:  MOVWF  FE9
09936:  MOVFF  FF2,727
0993A:  BCF    FF2.7
0993C:  MOVLW  00
0993E:  MOVLB  0
09940:  CALL   23F8
09944:  TBLRD*-
09946:  TBLRD*+
09948:  MOVF   FF5,W
0994A:  MOVWF  FEE
0994C:  IORLW  00
0994E:  BNZ   9946
09950:  MOVLB  7
09952:  BTFSC  x27.7
09954:  BSF    FF2.7
....................                   displayTemps(Menus.Letra,Menus.Estado,0,9,1,1); 
09956:  MOVLW  07
09958:  MOVWF  x28
0995A:  MOVLW  12
0995C:  MOVWF  x27
0995E:  MOVLW  07
09960:  MOVWF  x2A
09962:  MOVLW  21
09964:  MOVWF  x29
09966:  CLRF   x2B
09968:  MOVLW  09
0996A:  MOVWF  x2C
0996C:  MOVLW  01
0996E:  MOVWF  x2D
09970:  MOVWF  x2E
09972:  MOVLB  0
09974:  CALL   5530
....................                }else{ 
09978:  BRA    99C6
0997A:  MOVLB  7
....................                   strcpy(Menus.Estado,"ON"); 
0997C:  MOVLW  07
0997E:  MOVWF  FEA
09980:  MOVLW  21
09982:  MOVWF  FE9
09984:  MOVFF  FF2,727
09988:  BCF    FF2.7
0998A:  MOVLW  00
0998C:  MOVLB  0
0998E:  CALL   23D6
09992:  TBLRD*-
09994:  TBLRD*+
09996:  MOVF   FF5,W
09998:  MOVWF  FEE
0999A:  IORLW  00
0999C:  BNZ   9994
0999E:  MOVLB  7
099A0:  BTFSC  x27.7
099A2:  BSF    FF2.7
....................                   displayTemps(Menus.Letra,Menus.Estado,0,9,1,1); 
099A4:  MOVLW  07
099A6:  MOVWF  x28
099A8:  MOVLW  12
099AA:  MOVWF  x27
099AC:  MOVLW  07
099AE:  MOVWF  x2A
099B0:  MOVLW  21
099B2:  MOVWF  x29
099B4:  CLRF   x2B
099B6:  MOVLW  09
099B8:  MOVWF  x2C
099BA:  MOVLW  01
099BC:  MOVWF  x2D
099BE:  MOVWF  x2E
099C0:  MOVLB  0
099C2:  CALL   5530
....................                } 
....................             } 
....................             else 
099C6:  BRA    9A90
099C8:  MOVLB  6
....................             { 
....................                strcpy(Menus.Letra,"Termostato"); 
099CA:  MOVLW  07
099CC:  MOVWF  FEA
099CE:  MOVLW  12
099D0:  MOVWF  FE9
099D2:  MOVFF  FF2,727
099D6:  BCF    FF2.7
099D8:  MOVLW  00
099DA:  MOVLB  0
099DC:  CALL   24E2
099E0:  TBLRD*-
099E2:  TBLRD*+
099E4:  MOVF   FF5,W
099E6:  MOVWF  FEE
099E8:  IORLW  00
099EA:  BNZ   99E2
099EC:  MOVLB  7
099EE:  BTFSC  x27.7
099F0:  BSF    FF2.7
....................                if(TERM){ 
099F2:  BSF    F93.7
099F4:  BTFSC  F81.7
099F6:  BRA    9A46
....................                   strcpy(Menus.Estado,"OFF"); 
099F8:  MOVLW  07
099FA:  MOVWF  FEA
099FC:  MOVLW  21
099FE:  MOVWF  FE9
09A00:  MOVFF  FF2,727
09A04:  BCF    FF2.7
09A06:  MOVLW  00
09A08:  MOVLB  0
09A0A:  CALL   23F8
09A0E:  TBLRD*-
09A10:  TBLRD*+
09A12:  MOVF   FF5,W
09A14:  MOVWF  FEE
09A16:  IORLW  00
09A18:  BNZ   9A10
09A1A:  MOVLB  7
09A1C:  BTFSC  x27.7
09A1E:  BSF    FF2.7
....................                   displayTemps(Menus.Letra,Menus.Estado,0,9,0,1); 
09A20:  MOVLW  07
09A22:  MOVWF  x28
09A24:  MOVLW  12
09A26:  MOVWF  x27
09A28:  MOVLW  07
09A2A:  MOVWF  x2A
09A2C:  MOVLW  21
09A2E:  MOVWF  x29
09A30:  CLRF   x2B
09A32:  MOVLW  09
09A34:  MOVWF  x2C
09A36:  CLRF   x2D
09A38:  MOVLW  01
09A3A:  MOVWF  x2E
09A3C:  MOVLB  0
09A3E:  CALL   5530
....................                }else{ 
09A42:  BRA    9A90
09A44:  MOVLB  7
....................                   strcpy(Menus.Estado,"ON"); 
09A46:  MOVLW  07
09A48:  MOVWF  FEA
09A4A:  MOVLW  21
09A4C:  MOVWF  FE9
09A4E:  MOVFF  FF2,727
09A52:  BCF    FF2.7
09A54:  MOVLW  00
09A56:  MOVLB  0
09A58:  CALL   23D6
09A5C:  TBLRD*-
09A5E:  TBLRD*+
09A60:  MOVF   FF5,W
09A62:  MOVWF  FEE
09A64:  IORLW  00
09A66:  BNZ   9A5E
09A68:  MOVLB  7
09A6A:  BTFSC  x27.7
09A6C:  BSF    FF2.7
....................                   displayTemps(Menus.Letra,Menus.Estado,0,9,0,1); 
09A6E:  MOVLW  07
09A70:  MOVWF  x28
09A72:  MOVLW  12
09A74:  MOVWF  x27
09A76:  MOVLW  07
09A78:  MOVWF  x2A
09A7A:  MOVLW  21
09A7C:  MOVWF  x29
09A7E:  CLRF   x2B
09A80:  MOVLW  09
09A82:  MOVWF  x2C
09A84:  CLRF   x2D
09A86:  MOVLW  01
09A88:  MOVWF  x2E
09A8A:  MOVLB  0
09A8C:  CALL   5530
....................                } 
....................             } 
....................              
....................             if(Opcion==8)    
09A90:  MOVLB  6
09A92:  MOVF   xE7,W
09A94:  SUBLW  08
09A96:  BNZ   9B62
....................             { 
....................                strcpy(Menus.Letra,"Parada Emer."); 
09A98:  MOVLW  07
09A9A:  MOVWF  FEA
09A9C:  MOVLW  12
09A9E:  MOVWF  FE9
09AA0:  MOVFF  FF2,727
09AA4:  BCF    FF2.7
09AA6:  MOVLW  00
09AA8:  MOVLB  0
09AAA:  CALL   250C
09AAE:  TBLRD*-
09AB0:  TBLRD*+
09AB2:  MOVF   FF5,W
09AB4:  MOVWF  FEE
09AB6:  IORLW  00
09AB8:  BNZ   9AB0
09ABA:  MOVLB  7
09ABC:  BTFSC  x27.7
09ABE:  BSF    FF2.7
....................                if(STOP){ 
09AC0:  BSF    F93.6
09AC2:  BTFSC  F81.6
09AC4:  BRA    9B14
....................                   strcpy(Menus.Estado,"OFF"); 
09AC6:  MOVLW  07
09AC8:  MOVWF  FEA
09ACA:  MOVLW  21
09ACC:  MOVWF  FE9
09ACE:  MOVFF  FF2,727
09AD2:  BCF    FF2.7
09AD4:  MOVLW  00
09AD6:  MOVLB  0
09AD8:  CALL   23F8
09ADC:  TBLRD*-
09ADE:  TBLRD*+
09AE0:  MOVF   FF5,W
09AE2:  MOVWF  FEE
09AE4:  IORLW  00
09AE6:  BNZ   9ADE
09AE8:  MOVLB  7
09AEA:  BTFSC  x27.7
09AEC:  BSF    FF2.7
....................                   displayTemps(Menus.Letra,Menus.Estado,0,18,1,1); 
09AEE:  MOVLW  07
09AF0:  MOVWF  x28
09AF2:  MOVLW  12
09AF4:  MOVWF  x27
09AF6:  MOVLW  07
09AF8:  MOVWF  x2A
09AFA:  MOVLW  21
09AFC:  MOVWF  x29
09AFE:  CLRF   x2B
09B00:  MOVLW  12
09B02:  MOVWF  x2C
09B04:  MOVLW  01
09B06:  MOVWF  x2D
09B08:  MOVWF  x2E
09B0A:  MOVLB  0
09B0C:  CALL   5530
....................                }else{ 
09B10:  BRA    9B5E
09B12:  MOVLB  7
....................                   strcpy(Menus.Estado,"ON"); 
09B14:  MOVLW  07
09B16:  MOVWF  FEA
09B18:  MOVLW  21
09B1A:  MOVWF  FE9
09B1C:  MOVFF  FF2,727
09B20:  BCF    FF2.7
09B22:  MOVLW  00
09B24:  MOVLB  0
09B26:  CALL   23D6
09B2A:  TBLRD*-
09B2C:  TBLRD*+
09B2E:  MOVF   FF5,W
09B30:  MOVWF  FEE
09B32:  IORLW  00
09B34:  BNZ   9B2C
09B36:  MOVLB  7
09B38:  BTFSC  x27.7
09B3A:  BSF    FF2.7
....................                   displayTemps(Menus.Letra,Menus.Estado,0,18,1,1); 
09B3C:  MOVLW  07
09B3E:  MOVWF  x28
09B40:  MOVLW  12
09B42:  MOVWF  x27
09B44:  MOVLW  07
09B46:  MOVWF  x2A
09B48:  MOVLW  21
09B4A:  MOVWF  x29
09B4C:  CLRF   x2B
09B4E:  MOVLW  12
09B50:  MOVWF  x2C
09B52:  MOVLW  01
09B54:  MOVWF  x2D
09B56:  MOVWF  x2E
09B58:  MOVLB  0
09B5A:  CALL   5530
....................                } 
....................             } 
....................             else 
09B5E:  BRA    9C28
09B60:  MOVLB  6
....................             { 
....................                strcpy(Menus.Letra,"Parada Emer."); 
09B62:  MOVLW  07
09B64:  MOVWF  FEA
09B66:  MOVLW  12
09B68:  MOVWF  FE9
09B6A:  MOVFF  FF2,727
09B6E:  BCF    FF2.7
09B70:  MOVLW  00
09B72:  MOVLB  0
09B74:  CALL   250C
09B78:  TBLRD*-
09B7A:  TBLRD*+
09B7C:  MOVF   FF5,W
09B7E:  MOVWF  FEE
09B80:  IORLW  00
09B82:  BNZ   9B7A
09B84:  MOVLB  7
09B86:  BTFSC  x27.7
09B88:  BSF    FF2.7
....................                if(STOP){ 
09B8A:  BSF    F93.6
09B8C:  BTFSC  F81.6
09B8E:  BRA    9BDE
....................                   strcpy(Menus.Estado,"OFF"); 
09B90:  MOVLW  07
09B92:  MOVWF  FEA
09B94:  MOVLW  21
09B96:  MOVWF  FE9
09B98:  MOVFF  FF2,727
09B9C:  BCF    FF2.7
09B9E:  MOVLW  00
09BA0:  MOVLB  0
09BA2:  CALL   23F8
09BA6:  TBLRD*-
09BA8:  TBLRD*+
09BAA:  MOVF   FF5,W
09BAC:  MOVWF  FEE
09BAE:  IORLW  00
09BB0:  BNZ   9BA8
09BB2:  MOVLB  7
09BB4:  BTFSC  x27.7
09BB6:  BSF    FF2.7
....................                   displayTemps(Menus.Letra,Menus.Estado,0,18,0,1); 
09BB8:  MOVLW  07
09BBA:  MOVWF  x28
09BBC:  MOVLW  12
09BBE:  MOVWF  x27
09BC0:  MOVLW  07
09BC2:  MOVWF  x2A
09BC4:  MOVLW  21
09BC6:  MOVWF  x29
09BC8:  CLRF   x2B
09BCA:  MOVLW  12
09BCC:  MOVWF  x2C
09BCE:  CLRF   x2D
09BD0:  MOVLW  01
09BD2:  MOVWF  x2E
09BD4:  MOVLB  0
09BD6:  CALL   5530
....................                }else{ 
09BDA:  BRA    9C28
09BDC:  MOVLB  7
....................                   strcpy(Menus.Estado,"ON"); 
09BDE:  MOVLW  07
09BE0:  MOVWF  FEA
09BE2:  MOVLW  21
09BE4:  MOVWF  FE9
09BE6:  MOVFF  FF2,727
09BEA:  BCF    FF2.7
09BEC:  MOVLW  00
09BEE:  MOVLB  0
09BF0:  CALL   23D6
09BF4:  TBLRD*-
09BF6:  TBLRD*+
09BF8:  MOVF   FF5,W
09BFA:  MOVWF  FEE
09BFC:  IORLW  00
09BFE:  BNZ   9BF6
09C00:  MOVLB  7
09C02:  BTFSC  x27.7
09C04:  BSF    FF2.7
....................                   displayTemps(Menus.Letra,Menus.Estado,0,18,0,1); 
09C06:  MOVLW  07
09C08:  MOVWF  x28
09C0A:  MOVLW  12
09C0C:  MOVWF  x27
09C0E:  MOVLW  07
09C10:  MOVWF  x2A
09C12:  MOVLW  21
09C14:  MOVWF  x29
09C16:  CLRF   x2B
09C18:  MOVLW  12
09C1A:  MOVWF  x2C
09C1C:  CLRF   x2D
09C1E:  MOVLW  01
09C20:  MOVWF  x2E
09C22:  MOVLB  0
09C24:  CALL   5530
....................                } 
....................             } 
....................              
....................             if(Opcion==9)    
09C28:  MOVLB  6
09C2A:  MOVF   xE7,W
09C2C:  SUBLW  09
09C2E:  BNZ   9D02
....................             { 
....................                strcpy(Menus.Letra,"EV Paso"); 
09C30:  MOVLW  07
09C32:  MOVWF  FEA
09C34:  MOVLW  12
09C36:  MOVWF  FE9
09C38:  MOVFF  FF2,727
09C3C:  BCF    FF2.7
09C3E:  MOVLW  00
09C40:  MOVLB  0
09C42:  CALL   2538
09C46:  TBLRD*-
09C48:  TBLRD*+
09C4A:  MOVF   FF5,W
09C4C:  MOVWF  FEE
09C4E:  IORLW  00
09C50:  BNZ   9C48
09C52:  MOVLB  7
09C54:  BTFSC  x27.7
09C56:  BSF    FF2.7
....................                if(EstadoPaso){ 
09C58:  MOVLB  4
09C5A:  BTFSS  x62.2
09C5C:  BRA    9CB0
....................                   strcpy(Menus.Estado,"ON"); 
09C5E:  MOVLW  07
09C60:  MOVWF  FEA
09C62:  MOVLW  21
09C64:  MOVWF  FE9
09C66:  MOVFF  FF2,727
09C6A:  BCF    FF2.7
09C6C:  MOVLW  00
09C6E:  MOVLB  0
09C70:  CALL   23D6
09C74:  TBLRD*-
09C76:  TBLRD*+
09C78:  MOVF   FF5,W
09C7A:  MOVWF  FEE
09C7C:  IORLW  00
09C7E:  BNZ   9C76
09C80:  MOVLB  7
09C82:  BTFSC  x27.7
09C84:  BSF    FF2.7
....................                   displayTemps(Menus.Letra,Menus.Estado,0,27,1,1); 
09C86:  MOVLW  07
09C88:  MOVWF  x28
09C8A:  MOVLW  12
09C8C:  MOVWF  x27
09C8E:  MOVLW  07
09C90:  MOVWF  x2A
09C92:  MOVLW  21
09C94:  MOVWF  x29
09C96:  CLRF   x2B
09C98:  MOVLW  1B
09C9A:  MOVWF  x2C
09C9C:  MOVLW  01
09C9E:  MOVWF  x2D
09CA0:  MOVWF  x2E
09CA2:  MOVLB  0
09CA4:  CALL   5530
....................                   Paso_on; 
09CA8:  BCF    F8B.6
09CAA:  BCF    F94.6
....................                } 
....................                else{ 
09CAC:  BRA    9CFE
09CAE:  MOVLB  4
....................                   strcpy(Menus.Estado,"OFF"); 
09CB0:  MOVLW  07
09CB2:  MOVWF  FEA
09CB4:  MOVLW  21
09CB6:  MOVWF  FE9
09CB8:  MOVFF  FF2,727
09CBC:  BCF    FF2.7
09CBE:  MOVLW  00
09CC0:  MOVLB  0
09CC2:  CALL   23F8
09CC6:  TBLRD*-
09CC8:  TBLRD*+
09CCA:  MOVF   FF5,W
09CCC:  MOVWF  FEE
09CCE:  IORLW  00
09CD0:  BNZ   9CC8
09CD2:  MOVLB  7
09CD4:  BTFSC  x27.7
09CD6:  BSF    FF2.7
....................                   displayTemps(Menus.Letra,Menus.Estado,0,27,1,1); 
09CD8:  MOVLW  07
09CDA:  MOVWF  x28
09CDC:  MOVLW  12
09CDE:  MOVWF  x27
09CE0:  MOVLW  07
09CE2:  MOVWF  x2A
09CE4:  MOVLW  21
09CE6:  MOVWF  x29
09CE8:  CLRF   x2B
09CEA:  MOVLW  1B
09CEC:  MOVWF  x2C
09CEE:  MOVLW  01
09CF0:  MOVWF  x2D
09CF2:  MOVWF  x2E
09CF4:  MOVLB  0
09CF6:  CALL   5530
....................                   Paso_off; 
09CFA:  BSF    F8B.6
09CFC:  BCF    F94.6
....................                } 
....................             } 
....................             else 
09CFE:  BRA    9DC8
09D00:  MOVLB  6
....................             { 
....................                strcpy(Menus.Letra,"EV Paso"); 
09D02:  MOVLW  07
09D04:  MOVWF  FEA
09D06:  MOVLW  12
09D08:  MOVWF  FE9
09D0A:  MOVFF  FF2,727
09D0E:  BCF    FF2.7
09D10:  MOVLW  00
09D12:  MOVLB  0
09D14:  CALL   2538
09D18:  TBLRD*-
09D1A:  TBLRD*+
09D1C:  MOVF   FF5,W
09D1E:  MOVWF  FEE
09D20:  IORLW  00
09D22:  BNZ   9D1A
09D24:  MOVLB  7
09D26:  BTFSC  x27.7
09D28:  BSF    FF2.7
....................                if(EstadoPaso){ 
09D2A:  MOVLB  4
09D2C:  BTFSS  x62.2
09D2E:  BRA    9D7E
....................                   strcpy(Menus.Estado,"ON"); 
09D30:  MOVLW  07
09D32:  MOVWF  FEA
09D34:  MOVLW  21
09D36:  MOVWF  FE9
09D38:  MOVFF  FF2,727
09D3C:  BCF    FF2.7
09D3E:  MOVLW  00
09D40:  MOVLB  0
09D42:  CALL   23D6
09D46:  TBLRD*-
09D48:  TBLRD*+
09D4A:  MOVF   FF5,W
09D4C:  MOVWF  FEE
09D4E:  IORLW  00
09D50:  BNZ   9D48
09D52:  MOVLB  7
09D54:  BTFSC  x27.7
09D56:  BSF    FF2.7
....................                   displayTemps(Menus.Letra,Menus.Estado,0,27,0,1); 
09D58:  MOVLW  07
09D5A:  MOVWF  x28
09D5C:  MOVLW  12
09D5E:  MOVWF  x27
09D60:  MOVLW  07
09D62:  MOVWF  x2A
09D64:  MOVLW  21
09D66:  MOVWF  x29
09D68:  CLRF   x2B
09D6A:  MOVLW  1B
09D6C:  MOVWF  x2C
09D6E:  CLRF   x2D
09D70:  MOVLW  01
09D72:  MOVWF  x2E
09D74:  MOVLB  0
09D76:  CALL   5530
....................                }else{ 
09D7A:  BRA    9DC8
09D7C:  MOVLB  4
....................                   strcpy(Menus.Estado,"OFF"); 
09D7E:  MOVLW  07
09D80:  MOVWF  FEA
09D82:  MOVLW  21
09D84:  MOVWF  FE9
09D86:  MOVFF  FF2,727
09D8A:  BCF    FF2.7
09D8C:  MOVLW  00
09D8E:  MOVLB  0
09D90:  CALL   23F8
09D94:  TBLRD*-
09D96:  TBLRD*+
09D98:  MOVF   FF5,W
09D9A:  MOVWF  FEE
09D9C:  IORLW  00
09D9E:  BNZ   9D96
09DA0:  MOVLB  7
09DA2:  BTFSC  x27.7
09DA4:  BSF    FF2.7
....................                   displayTemps(Menus.Letra,Menus.Estado,0,27,0,1); 
09DA6:  MOVLW  07
09DA8:  MOVWF  x28
09DAA:  MOVLW  12
09DAC:  MOVWF  x27
09DAE:  MOVLW  07
09DB0:  MOVWF  x2A
09DB2:  MOVLW  21
09DB4:  MOVWF  x29
09DB6:  CLRF   x2B
09DB8:  MOVLW  1B
09DBA:  MOVWF  x2C
09DBC:  CLRF   x2D
09DBE:  MOVLW  01
09DC0:  MOVWF  x2E
09DC2:  MOVLB  0
09DC4:  CALL   5530
....................                } 
....................             } 
....................              
....................             if(Opcion==10)    
09DC8:  MOVLB  6
09DCA:  MOVF   xE7,W
09DCC:  SUBLW  0A
09DCE:  BNZ   9EA0
....................             { 
....................                strcpy(Menus.Letra,"EV Vacio"); 
09DD0:  MOVLW  07
09DD2:  MOVWF  FEA
09DD4:  MOVLW  12
09DD6:  MOVWF  FE9
09DD8:  MOVFF  FF2,727
09DDC:  BCF    FF2.7
09DDE:  MOVLW  00
09DE0:  MOVLB  0
09DE2:  CALL   255E
09DE6:  TBLRD*-
09DE8:  TBLRD*+
09DEA:  MOVF   FF5,W
09DEC:  MOVWF  FEE
09DEE:  IORLW  00
09DF0:  BNZ   9DE8
09DF2:  MOVLB  7
09DF4:  BTFSC  x27.7
09DF6:  BSF    FF2.7
....................                if(EstadoVacio){ 
09DF8:  MOVLB  4
09DFA:  BTFSS  x62.1
09DFC:  BRA    9E4E
....................                   strcpy(Menus.Estado,"ON"); 
09DFE:  MOVLW  07
09E00:  MOVWF  FEA
09E02:  MOVLW  21
09E04:  MOVWF  FE9
09E06:  MOVFF  FF2,727
09E0A:  BCF    FF2.7
09E0C:  MOVLW  00
09E0E:  MOVLB  0
09E10:  CALL   23D6
09E14:  TBLRD*-
09E16:  TBLRD*+
09E18:  MOVF   FF5,W
09E1A:  MOVWF  FEE
09E1C:  IORLW  00
09E1E:  BNZ   9E16
09E20:  MOVLB  7
09E22:  BTFSC  x27.7
09E24:  BSF    FF2.7
....................                   displayTemps(Menus.Letra,Menus.Estado,0,36,1,1); 
09E26:  MOVLW  07
09E28:  MOVWF  x28
09E2A:  MOVLW  12
09E2C:  MOVWF  x27
09E2E:  MOVLW  07
09E30:  MOVWF  x2A
09E32:  MOVLW  21
09E34:  MOVWF  x29
09E36:  CLRF   x2B
09E38:  MOVLW  24
09E3A:  MOVWF  x2C
09E3C:  MOVLW  01
09E3E:  MOVWF  x2D
09E40:  MOVWF  x2E
09E42:  MOVLB  0
09E44:  CALL   5530
....................                   EVVacio=ON; 
09E48:  MOVLB  4
09E4A:  BSF    x64.2
....................                } 
....................                else{ 
09E4C:  BRA    9E9C
....................                   strcpy(Menus.Estado,"OFF"); 
09E4E:  MOVLW  07
09E50:  MOVWF  FEA
09E52:  MOVLW  21
09E54:  MOVWF  FE9
09E56:  MOVFF  FF2,727
09E5A:  BCF    FF2.7
09E5C:  MOVLW  00
09E5E:  MOVLB  0
09E60:  CALL   23F8
09E64:  TBLRD*-
09E66:  TBLRD*+
09E68:  MOVF   FF5,W
09E6A:  MOVWF  FEE
09E6C:  IORLW  00
09E6E:  BNZ   9E66
09E70:  MOVLB  7
09E72:  BTFSC  x27.7
09E74:  BSF    FF2.7
....................                   displayTemps(Menus.Letra,Menus.Estado,0,36,1,1); 
09E76:  MOVLW  07
09E78:  MOVWF  x28
09E7A:  MOVLW  12
09E7C:  MOVWF  x27
09E7E:  MOVLW  07
09E80:  MOVWF  x2A
09E82:  MOVLW  21
09E84:  MOVWF  x29
09E86:  CLRF   x2B
09E88:  MOVLW  24
09E8A:  MOVWF  x2C
09E8C:  MOVLW  01
09E8E:  MOVWF  x2D
09E90:  MOVWF  x2E
09E92:  MOVLB  0
09E94:  CALL   5530
....................                   EVVacio=OFF; 
09E98:  MOVLB  4
09E9A:  BCF    x64.2
....................                } 
....................             } 
....................             else 
09E9C:  BRA    9F66
09E9E:  MOVLB  6
....................             { 
....................                strcpy(Menus.Letra,"EV Vacio"); 
09EA0:  MOVLW  07
09EA2:  MOVWF  FEA
09EA4:  MOVLW  12
09EA6:  MOVWF  FE9
09EA8:  MOVFF  FF2,727
09EAC:  BCF    FF2.7
09EAE:  MOVLW  00
09EB0:  MOVLB  0
09EB2:  CALL   255E
09EB6:  TBLRD*-
09EB8:  TBLRD*+
09EBA:  MOVF   FF5,W
09EBC:  MOVWF  FEE
09EBE:  IORLW  00
09EC0:  BNZ   9EB8
09EC2:  MOVLB  7
09EC4:  BTFSC  x27.7
09EC6:  BSF    FF2.7
....................                if(EstadoVacio){ 
09EC8:  MOVLB  4
09ECA:  BTFSS  x62.1
09ECC:  BRA    9F1C
....................                   strcpy(Menus.Estado,"ON"); 
09ECE:  MOVLW  07
09ED0:  MOVWF  FEA
09ED2:  MOVLW  21
09ED4:  MOVWF  FE9
09ED6:  MOVFF  FF2,727
09EDA:  BCF    FF2.7
09EDC:  MOVLW  00
09EDE:  MOVLB  0
09EE0:  CALL   23D6
09EE4:  TBLRD*-
09EE6:  TBLRD*+
09EE8:  MOVF   FF5,W
09EEA:  MOVWF  FEE
09EEC:  IORLW  00
09EEE:  BNZ   9EE6
09EF0:  MOVLB  7
09EF2:  BTFSC  x27.7
09EF4:  BSF    FF2.7
....................                   displayTemps(Menus.Letra,Menus.Estado,0,36,0,1); 
09EF6:  MOVLW  07
09EF8:  MOVWF  x28
09EFA:  MOVLW  12
09EFC:  MOVWF  x27
09EFE:  MOVLW  07
09F00:  MOVWF  x2A
09F02:  MOVLW  21
09F04:  MOVWF  x29
09F06:  CLRF   x2B
09F08:  MOVLW  24
09F0A:  MOVWF  x2C
09F0C:  CLRF   x2D
09F0E:  MOVLW  01
09F10:  MOVWF  x2E
09F12:  MOVLB  0
09F14:  CALL   5530
....................                }else{ 
09F18:  BRA    9F66
09F1A:  MOVLB  4
....................                   strcpy(Menus.Estado,"OFF"); 
09F1C:  MOVLW  07
09F1E:  MOVWF  FEA
09F20:  MOVLW  21
09F22:  MOVWF  FE9
09F24:  MOVFF  FF2,727
09F28:  BCF    FF2.7
09F2A:  MOVLW  00
09F2C:  MOVLB  0
09F2E:  CALL   23F8
09F32:  TBLRD*-
09F34:  TBLRD*+
09F36:  MOVF   FF5,W
09F38:  MOVWF  FEE
09F3A:  IORLW  00
09F3C:  BNZ   9F34
09F3E:  MOVLB  7
09F40:  BTFSC  x27.7
09F42:  BSF    FF2.7
....................                   displayTemps(Menus.Letra,Menus.Estado,0,36,0,1); 
09F44:  MOVLW  07
09F46:  MOVWF  x28
09F48:  MOVLW  12
09F4A:  MOVWF  x27
09F4C:  MOVLW  07
09F4E:  MOVWF  x2A
09F50:  MOVLW  21
09F52:  MOVWF  x29
09F54:  CLRF   x2B
09F56:  MOVLW  24
09F58:  MOVWF  x2C
09F5A:  CLRF   x2D
09F5C:  MOVLW  01
09F5E:  MOVWF  x2E
09F60:  MOVLB  0
09F62:  CALL   5530
....................                } 
....................             } 
....................              
....................             if(Opcion==11)    
09F66:  MOVLB  6
09F68:  MOVF   xE7,W
09F6A:  SUBLW  0B
09F6C:  BNZ   A03E
....................             { 
....................                strcpy(Menus.Letra,"EV Aire"); 
09F6E:  MOVLW  07
09F70:  MOVWF  FEA
09F72:  MOVLW  12
09F74:  MOVWF  FE9
09F76:  MOVFF  FF2,727
09F7A:  BCF    FF2.7
09F7C:  MOVLW  00
09F7E:  MOVLB  0
09F80:  CALL   2586
09F84:  TBLRD*-
09F86:  TBLRD*+
09F88:  MOVF   FF5,W
09F8A:  MOVWF  FEE
09F8C:  IORLW  00
09F8E:  BNZ   9F86
09F90:  MOVLB  7
09F92:  BTFSC  x27.7
09F94:  BSF    FF2.7
....................                if(EstadoAire){ 
09F96:  MOVLB  4
09F98:  BTFSS  x61.5
09F9A:  BRA    9FEC
....................                   strcpy(Menus.Estado,"ON"); 
09F9C:  MOVLW  07
09F9E:  MOVWF  FEA
09FA0:  MOVLW  21
09FA2:  MOVWF  FE9
09FA4:  MOVFF  FF2,727
09FA8:  BCF    FF2.7
09FAA:  MOVLW  00
09FAC:  MOVLB  0
09FAE:  CALL   23D6
09FB2:  TBLRD*-
09FB4:  TBLRD*+
09FB6:  MOVF   FF5,W
09FB8:  MOVWF  FEE
09FBA:  IORLW  00
09FBC:  BNZ   9FB4
09FBE:  MOVLB  7
09FC0:  BTFSC  x27.7
09FC2:  BSF    FF2.7
....................                   displayTemps(Menus.Letra,Menus.Estado,0,45,1,1); 
09FC4:  MOVLW  07
09FC6:  MOVWF  x28
09FC8:  MOVLW  12
09FCA:  MOVWF  x27
09FCC:  MOVLW  07
09FCE:  MOVWF  x2A
09FD0:  MOVLW  21
09FD2:  MOVWF  x29
09FD4:  CLRF   x2B
09FD6:  MOVLW  2D
09FD8:  MOVWF  x2C
09FDA:  MOVLW  01
09FDC:  MOVWF  x2D
09FDE:  MOVWF  x2E
09FE0:  MOVLB  0
09FE2:  CALL   5530
....................                   EVAire=ON; 
09FE6:  MOVLB  4
09FE8:  BSF    x64.3
....................                } 
....................                else{ 
09FEA:  BRA    A03A
....................                   strcpy(Menus.Estado,"OFF"); 
09FEC:  MOVLW  07
09FEE:  MOVWF  FEA
09FF0:  MOVLW  21
09FF2:  MOVWF  FE9
09FF4:  MOVFF  FF2,727
09FF8:  BCF    FF2.7
09FFA:  MOVLW  00
09FFC:  MOVLB  0
09FFE:  CALL   23F8
0A002:  TBLRD*-
0A004:  TBLRD*+
0A006:  MOVF   FF5,W
0A008:  MOVWF  FEE
0A00A:  IORLW  00
0A00C:  BNZ   A004
0A00E:  MOVLB  7
0A010:  BTFSC  x27.7
0A012:  BSF    FF2.7
....................                   displayTemps(Menus.Letra,Menus.Estado,0,45,1,1); 
0A014:  MOVLW  07
0A016:  MOVWF  x28
0A018:  MOVLW  12
0A01A:  MOVWF  x27
0A01C:  MOVLW  07
0A01E:  MOVWF  x2A
0A020:  MOVLW  21
0A022:  MOVWF  x29
0A024:  CLRF   x2B
0A026:  MOVLW  2D
0A028:  MOVWF  x2C
0A02A:  MOVLW  01
0A02C:  MOVWF  x2D
0A02E:  MOVWF  x2E
0A030:  MOVLB  0
0A032:  CALL   5530
....................                   EVAire=OFF; 
0A036:  MOVLB  4
0A038:  BCF    x64.3
....................                } 
....................             } 
....................             else 
0A03A:  BRA    A104
0A03C:  MOVLB  6
....................             { 
....................                strcpy(Menus.Letra,"EV Aire"); 
0A03E:  MOVLW  07
0A040:  MOVWF  FEA
0A042:  MOVLW  12
0A044:  MOVWF  FE9
0A046:  MOVFF  FF2,727
0A04A:  BCF    FF2.7
0A04C:  MOVLW  00
0A04E:  MOVLB  0
0A050:  CALL   2586
0A054:  TBLRD*-
0A056:  TBLRD*+
0A058:  MOVF   FF5,W
0A05A:  MOVWF  FEE
0A05C:  IORLW  00
0A05E:  BNZ   A056
0A060:  MOVLB  7
0A062:  BTFSC  x27.7
0A064:  BSF    FF2.7
....................                if(EstadoAire){ 
0A066:  MOVLB  4
0A068:  BTFSS  x61.5
0A06A:  BRA    A0BA
....................                   strcpy(Menus.Estado,"ON"); 
0A06C:  MOVLW  07
0A06E:  MOVWF  FEA
0A070:  MOVLW  21
0A072:  MOVWF  FE9
0A074:  MOVFF  FF2,727
0A078:  BCF    FF2.7
0A07A:  MOVLW  00
0A07C:  MOVLB  0
0A07E:  CALL   23D6
0A082:  TBLRD*-
0A084:  TBLRD*+
0A086:  MOVF   FF5,W
0A088:  MOVWF  FEE
0A08A:  IORLW  00
0A08C:  BNZ   A084
0A08E:  MOVLB  7
0A090:  BTFSC  x27.7
0A092:  BSF    FF2.7
....................                   displayTemps(Menus.Letra,Menus.Estado,0,45,0,1); 
0A094:  MOVLW  07
0A096:  MOVWF  x28
0A098:  MOVLW  12
0A09A:  MOVWF  x27
0A09C:  MOVLW  07
0A09E:  MOVWF  x2A
0A0A0:  MOVLW  21
0A0A2:  MOVWF  x29
0A0A4:  CLRF   x2B
0A0A6:  MOVLW  2D
0A0A8:  MOVWF  x2C
0A0AA:  CLRF   x2D
0A0AC:  MOVLW  01
0A0AE:  MOVWF  x2E
0A0B0:  MOVLB  0
0A0B2:  CALL   5530
....................                }else{ 
0A0B6:  BRA    A104
0A0B8:  MOVLB  4
....................                   strcpy(Menus.Estado,"OFF"); 
0A0BA:  MOVLW  07
0A0BC:  MOVWF  FEA
0A0BE:  MOVLW  21
0A0C0:  MOVWF  FE9
0A0C2:  MOVFF  FF2,727
0A0C6:  BCF    FF2.7
0A0C8:  MOVLW  00
0A0CA:  MOVLB  0
0A0CC:  CALL   23F8
0A0D0:  TBLRD*-
0A0D2:  TBLRD*+
0A0D4:  MOVF   FF5,W
0A0D6:  MOVWF  FEE
0A0D8:  IORLW  00
0A0DA:  BNZ   A0D2
0A0DC:  MOVLB  7
0A0DE:  BTFSC  x27.7
0A0E0:  BSF    FF2.7
....................                   displayTemps(Menus.Letra,Menus.Estado,0,45,0,1); 
0A0E2:  MOVLW  07
0A0E4:  MOVWF  x28
0A0E6:  MOVLW  12
0A0E8:  MOVWF  x27
0A0EA:  MOVLW  07
0A0EC:  MOVWF  x2A
0A0EE:  MOVLW  21
0A0F0:  MOVWF  x29
0A0F2:  CLRF   x2B
0A0F4:  MOVLW  2D
0A0F6:  MOVWF  x2C
0A0F8:  CLRF   x2D
0A0FA:  MOVLW  01
0A0FC:  MOVWF  x2E
0A0FE:  MOVLB  0
0A100:  CALL   5530
....................                } 
....................             } 
....................              
....................             if(Opcion==12)    
0A104:  MOVLB  6
0A106:  MOVF   xE7,W
0A108:  SUBLW  0C
0A10A:  BNZ   A1DC
....................             { 
....................                strcpy(Menus.Letra,"SSR 2"); 
0A10C:  MOVLW  07
0A10E:  MOVWF  FEA
0A110:  MOVLW  12
0A112:  MOVWF  FE9
0A114:  MOVFF  FF2,727
0A118:  BCF    FF2.7
0A11A:  MOVLW  00
0A11C:  MOVLB  0
0A11E:  CALL   25AC
0A122:  TBLRD*-
0A124:  TBLRD*+
0A126:  MOVF   FF5,W
0A128:  MOVWF  FEE
0A12A:  IORLW  00
0A12C:  BNZ   A124
0A12E:  MOVLB  7
0A130:  BTFSC  x27.7
0A132:  BSF    FF2.7
....................                if(EstadoSSR2){ 
0A134:  MOVLB  4
0A136:  BTFSS  x61.3
0A138:  BRA    A18A
....................                   strcpy(Menus.Estado,"ON"); 
0A13A:  MOVLW  07
0A13C:  MOVWF  FEA
0A13E:  MOVLW  21
0A140:  MOVWF  FE9
0A142:  MOVFF  FF2,727
0A146:  BCF    FF2.7
0A148:  MOVLW  00
0A14A:  MOVLB  0
0A14C:  CALL   23D6
0A150:  TBLRD*-
0A152:  TBLRD*+
0A154:  MOVF   FF5,W
0A156:  MOVWF  FEE
0A158:  IORLW  00
0A15A:  BNZ   A152
0A15C:  MOVLB  7
0A15E:  BTFSC  x27.7
0A160:  BSF    FF2.7
....................                   displayTemps(Menus.Letra,Menus.Estado,0,54,1,1); 
0A162:  MOVLW  07
0A164:  MOVWF  x28
0A166:  MOVLW  12
0A168:  MOVWF  x27
0A16A:  MOVLW  07
0A16C:  MOVWF  x2A
0A16E:  MOVLW  21
0A170:  MOVWF  x29
0A172:  CLRF   x2B
0A174:  MOVLW  36
0A176:  MOVWF  x2C
0A178:  MOVLW  01
0A17A:  MOVWF  x2D
0A17C:  MOVWF  x2E
0A17E:  MOVLB  0
0A180:  CALL   5530
....................                   SSR2=ON; 
0A184:  MOVLB  4
0A186:  BSF    x64.5
....................                } 
....................                else{ 
0A188:  BRA    A1D8
....................                   strcpy(Menus.Estado,"OFF"); 
0A18A:  MOVLW  07
0A18C:  MOVWF  FEA
0A18E:  MOVLW  21
0A190:  MOVWF  FE9
0A192:  MOVFF  FF2,727
0A196:  BCF    FF2.7
0A198:  MOVLW  00
0A19A:  MOVLB  0
0A19C:  CALL   23F8
0A1A0:  TBLRD*-
0A1A2:  TBLRD*+
0A1A4:  MOVF   FF5,W
0A1A6:  MOVWF  FEE
0A1A8:  IORLW  00
0A1AA:  BNZ   A1A2
0A1AC:  MOVLB  7
0A1AE:  BTFSC  x27.7
0A1B0:  BSF    FF2.7
....................                   displayTemps(Menus.Letra,Menus.Estado,0,54,1,1); 
0A1B2:  MOVLW  07
0A1B4:  MOVWF  x28
0A1B6:  MOVLW  12
0A1B8:  MOVWF  x27
0A1BA:  MOVLW  07
0A1BC:  MOVWF  x2A
0A1BE:  MOVLW  21
0A1C0:  MOVWF  x29
0A1C2:  CLRF   x2B
0A1C4:  MOVLW  36
0A1C6:  MOVWF  x2C
0A1C8:  MOVLW  01
0A1CA:  MOVWF  x2D
0A1CC:  MOVWF  x2E
0A1CE:  MOVLB  0
0A1D0:  CALL   5530
....................                   SSR2=OFF; 
0A1D4:  MOVLB  4
0A1D6:  BCF    x64.5
....................                } 
....................             } 
....................             else 
0A1D8:  BRA    A2A4
0A1DA:  MOVLB  6
....................             { 
....................                strcpy(Menus.Letra,"SSR 2"); 
0A1DC:  MOVLW  07
0A1DE:  MOVWF  FEA
0A1E0:  MOVLW  12
0A1E2:  MOVWF  FE9
0A1E4:  MOVFF  FF2,727
0A1E8:  BCF    FF2.7
0A1EA:  MOVLW  00
0A1EC:  MOVLB  0
0A1EE:  CALL   25AC
0A1F2:  TBLRD*-
0A1F4:  TBLRD*+
0A1F6:  MOVF   FF5,W
0A1F8:  MOVWF  FEE
0A1FA:  IORLW  00
0A1FC:  BNZ   A1F4
0A1FE:  MOVLB  7
0A200:  BTFSC  x27.7
0A202:  BSF    FF2.7
....................                if(EstadoSSR2){ 
0A204:  MOVLB  4
0A206:  BTFSS  x61.3
0A208:  BRA    A258
....................                   strcpy(Menus.Estado,"ON"); 
0A20A:  MOVLW  07
0A20C:  MOVWF  FEA
0A20E:  MOVLW  21
0A210:  MOVWF  FE9
0A212:  MOVFF  FF2,727
0A216:  BCF    FF2.7
0A218:  MOVLW  00
0A21A:  MOVLB  0
0A21C:  CALL   23D6
0A220:  TBLRD*-
0A222:  TBLRD*+
0A224:  MOVF   FF5,W
0A226:  MOVWF  FEE
0A228:  IORLW  00
0A22A:  BNZ   A222
0A22C:  MOVLB  7
0A22E:  BTFSC  x27.7
0A230:  BSF    FF2.7
....................                   displayTemps(Menus.Letra,Menus.Estado,0,54,0,1); 
0A232:  MOVLW  07
0A234:  MOVWF  x28
0A236:  MOVLW  12
0A238:  MOVWF  x27
0A23A:  MOVLW  07
0A23C:  MOVWF  x2A
0A23E:  MOVLW  21
0A240:  MOVWF  x29
0A242:  CLRF   x2B
0A244:  MOVLW  36
0A246:  MOVWF  x2C
0A248:  CLRF   x2D
0A24A:  MOVLW  01
0A24C:  MOVWF  x2E
0A24E:  MOVLB  0
0A250:  CALL   5530
....................                }else{ 
0A254:  BRA    A2A2
0A256:  MOVLB  4
....................                   strcpy(Menus.Estado,"OFF"); 
0A258:  MOVLW  07
0A25A:  MOVWF  FEA
0A25C:  MOVLW  21
0A25E:  MOVWF  FE9
0A260:  MOVFF  FF2,727
0A264:  BCF    FF2.7
0A266:  MOVLW  00
0A268:  MOVLB  0
0A26A:  CALL   23F8
0A26E:  TBLRD*-
0A270:  TBLRD*+
0A272:  MOVF   FF5,W
0A274:  MOVWF  FEE
0A276:  IORLW  00
0A278:  BNZ   A270
0A27A:  MOVLB  7
0A27C:  BTFSC  x27.7
0A27E:  BSF    FF2.7
....................                   displayTemps(Menus.Letra,Menus.Estado,0,54,0,1); 
0A280:  MOVLW  07
0A282:  MOVWF  x28
0A284:  MOVLW  12
0A286:  MOVWF  x27
0A288:  MOVLW  07
0A28A:  MOVWF  x2A
0A28C:  MOVLW  21
0A28E:  MOVWF  x29
0A290:  CLRF   x2B
0A292:  MOVLW  36
0A294:  MOVWF  x2C
0A296:  CLRF   x2D
0A298:  MOVLW  01
0A29A:  MOVWF  x2E
0A29C:  MOVLB  0
0A29E:  CALL   5530
0A2A2:  MOVLB  4
....................                } 
....................             } 
....................          }else{ 
0A2A4:  BRA    A782
0A2A6:  MOVLB  6
....................             if(Opcion==13)    
0A2A8:  MOVF   xE7,W
0A2AA:  SUBLW  0D
0A2AC:  BNZ   A37E
....................             { 
....................                strcpy(Menus.Letra,"SSR 3"); 
0A2AE:  MOVLW  07
0A2B0:  MOVWF  FEA
0A2B2:  MOVLW  12
0A2B4:  MOVWF  FE9
0A2B6:  MOVFF  FF2,727
0A2BA:  BCF    FF2.7
0A2BC:  MOVLW  00
0A2BE:  MOVLB  0
0A2C0:  CALL   25D0
0A2C4:  TBLRD*-
0A2C6:  TBLRD*+
0A2C8:  MOVF   FF5,W
0A2CA:  MOVWF  FEE
0A2CC:  IORLW  00
0A2CE:  BNZ   A2C6
0A2D0:  MOVLB  7
0A2D2:  BTFSC  x27.7
0A2D4:  BSF    FF2.7
....................                if(EstadoSSR3){ 
0A2D6:  MOVLB  4
0A2D8:  BTFSS  x61.4
0A2DA:  BRA    A32C
....................                   strcpy(Menus.Estado,"ON"); 
0A2DC:  MOVLW  07
0A2DE:  MOVWF  FEA
0A2E0:  MOVLW  21
0A2E2:  MOVWF  FE9
0A2E4:  MOVFF  FF2,727
0A2E8:  BCF    FF2.7
0A2EA:  MOVLW  00
0A2EC:  MOVLB  0
0A2EE:  CALL   23D6
0A2F2:  TBLRD*-
0A2F4:  TBLRD*+
0A2F6:  MOVF   FF5,W
0A2F8:  MOVWF  FEE
0A2FA:  IORLW  00
0A2FC:  BNZ   A2F4
0A2FE:  MOVLB  7
0A300:  BTFSC  x27.7
0A302:  BSF    FF2.7
....................                   displayTemps(Menus.Letra,Menus.Estado,0,9,1,1); 
0A304:  MOVLW  07
0A306:  MOVWF  x28
0A308:  MOVLW  12
0A30A:  MOVWF  x27
0A30C:  MOVLW  07
0A30E:  MOVWF  x2A
0A310:  MOVLW  21
0A312:  MOVWF  x29
0A314:  CLRF   x2B
0A316:  MOVLW  09
0A318:  MOVWF  x2C
0A31A:  MOVLW  01
0A31C:  MOVWF  x2D
0A31E:  MOVWF  x2E
0A320:  MOVLB  0
0A322:  CALL   5530
....................                   SSR3=ON; 
0A326:  MOVLB  4
0A328:  BSF    x64.6
....................                } 
....................                else{ 
0A32A:  BRA    A37A
....................                   strcpy(Menus.Estado,"OFF"); 
0A32C:  MOVLW  07
0A32E:  MOVWF  FEA
0A330:  MOVLW  21
0A332:  MOVWF  FE9
0A334:  MOVFF  FF2,727
0A338:  BCF    FF2.7
0A33A:  MOVLW  00
0A33C:  MOVLB  0
0A33E:  CALL   23F8
0A342:  TBLRD*-
0A344:  TBLRD*+
0A346:  MOVF   FF5,W
0A348:  MOVWF  FEE
0A34A:  IORLW  00
0A34C:  BNZ   A344
0A34E:  MOVLB  7
0A350:  BTFSC  x27.7
0A352:  BSF    FF2.7
....................                   displayTemps(Menus.Letra,Menus.Estado,0,9,1,1); 
0A354:  MOVLW  07
0A356:  MOVWF  x28
0A358:  MOVLW  12
0A35A:  MOVWF  x27
0A35C:  MOVLW  07
0A35E:  MOVWF  x2A
0A360:  MOVLW  21
0A362:  MOVWF  x29
0A364:  CLRF   x2B
0A366:  MOVLW  09
0A368:  MOVWF  x2C
0A36A:  MOVLW  01
0A36C:  MOVWF  x2D
0A36E:  MOVWF  x2E
0A370:  MOVLB  0
0A372:  CALL   5530
....................                   SSR3=OFF; 
0A376:  MOVLB  4
0A378:  BCF    x64.6
....................                } 
....................             } 
....................             else 
0A37A:  BRA    A444
0A37C:  MOVLB  6
....................             { 
....................                strcpy(Menus.Letra,"SSR 3"); 
0A37E:  MOVLW  07
0A380:  MOVWF  FEA
0A382:  MOVLW  12
0A384:  MOVWF  FE9
0A386:  MOVFF  FF2,727
0A38A:  BCF    FF2.7
0A38C:  MOVLW  00
0A38E:  MOVLB  0
0A390:  CALL   25D0
0A394:  TBLRD*-
0A396:  TBLRD*+
0A398:  MOVF   FF5,W
0A39A:  MOVWF  FEE
0A39C:  IORLW  00
0A39E:  BNZ   A396
0A3A0:  MOVLB  7
0A3A2:  BTFSC  x27.7
0A3A4:  BSF    FF2.7
....................                if(EstadoSSR3){ 
0A3A6:  MOVLB  4
0A3A8:  BTFSS  x61.4
0A3AA:  BRA    A3FA
....................                   strcpy(Menus.Estado,"ON"); 
0A3AC:  MOVLW  07
0A3AE:  MOVWF  FEA
0A3B0:  MOVLW  21
0A3B2:  MOVWF  FE9
0A3B4:  MOVFF  FF2,727
0A3B8:  BCF    FF2.7
0A3BA:  MOVLW  00
0A3BC:  MOVLB  0
0A3BE:  CALL   23D6
0A3C2:  TBLRD*-
0A3C4:  TBLRD*+
0A3C6:  MOVF   FF5,W
0A3C8:  MOVWF  FEE
0A3CA:  IORLW  00
0A3CC:  BNZ   A3C4
0A3CE:  MOVLB  7
0A3D0:  BTFSC  x27.7
0A3D2:  BSF    FF2.7
....................                   displayTemps(Menus.Letra,Menus.Estado,0,9,0,1); 
0A3D4:  MOVLW  07
0A3D6:  MOVWF  x28
0A3D8:  MOVLW  12
0A3DA:  MOVWF  x27
0A3DC:  MOVLW  07
0A3DE:  MOVWF  x2A
0A3E0:  MOVLW  21
0A3E2:  MOVWF  x29
0A3E4:  CLRF   x2B
0A3E6:  MOVLW  09
0A3E8:  MOVWF  x2C
0A3EA:  CLRF   x2D
0A3EC:  MOVLW  01
0A3EE:  MOVWF  x2E
0A3F0:  MOVLB  0
0A3F2:  CALL   5530
....................                }else{ 
0A3F6:  BRA    A444
0A3F8:  MOVLB  4
....................                   strcpy(Menus.Estado,"OFF"); 
0A3FA:  MOVLW  07
0A3FC:  MOVWF  FEA
0A3FE:  MOVLW  21
0A400:  MOVWF  FE9
0A402:  MOVFF  FF2,727
0A406:  BCF    FF2.7
0A408:  MOVLW  00
0A40A:  MOVLB  0
0A40C:  CALL   23F8
0A410:  TBLRD*-
0A412:  TBLRD*+
0A414:  MOVF   FF5,W
0A416:  MOVWF  FEE
0A418:  IORLW  00
0A41A:  BNZ   A412
0A41C:  MOVLB  7
0A41E:  BTFSC  x27.7
0A420:  BSF    FF2.7
....................                   displayTemps(Menus.Letra,Menus.Estado,0,9,0,1); 
0A422:  MOVLW  07
0A424:  MOVWF  x28
0A426:  MOVLW  12
0A428:  MOVWF  x27
0A42A:  MOVLW  07
0A42C:  MOVWF  x2A
0A42E:  MOVLW  21
0A430:  MOVWF  x29
0A432:  CLRF   x2B
0A434:  MOVLW  09
0A436:  MOVWF  x2C
0A438:  CLRF   x2D
0A43A:  MOVLW  01
0A43C:  MOVWF  x2E
0A43E:  MOVLB  0
0A440:  CALL   5530
....................                } 
....................             } 
....................           
....................             if(Opcion==14)    
0A444:  MOVLB  6
0A446:  MOVF   xE7,W
0A448:  SUBLW  0E
0A44A:  BNZ   A51C
....................             { 
....................                strcpy(Menus.Letra,"Buzzer"); 
0A44C:  MOVLW  07
0A44E:  MOVWF  FEA
0A450:  MOVLW  12
0A452:  MOVWF  FE9
0A454:  MOVFF  FF2,727
0A458:  BCF    FF2.7
0A45A:  MOVLW  00
0A45C:  MOVLB  0
0A45E:  CALL   25F4
0A462:  TBLRD*-
0A464:  TBLRD*+
0A466:  MOVF   FF5,W
0A468:  MOVWF  FEE
0A46A:  IORLW  00
0A46C:  BNZ   A464
0A46E:  MOVLB  7
0A470:  BTFSC  x27.7
0A472:  BSF    FF2.7
....................                if(EstadoBuzzer){ 
0A474:  MOVLB  4
0A476:  BTFSS  x62.3
0A478:  BRA    A4CA
....................                   strcpy(Menus.Estado,"ON"); 
0A47A:  MOVLW  07
0A47C:  MOVWF  FEA
0A47E:  MOVLW  21
0A480:  MOVWF  FE9
0A482:  MOVFF  FF2,727
0A486:  BCF    FF2.7
0A488:  MOVLW  00
0A48A:  MOVLB  0
0A48C:  CALL   23D6
0A490:  TBLRD*-
0A492:  TBLRD*+
0A494:  MOVF   FF5,W
0A496:  MOVWF  FEE
0A498:  IORLW  00
0A49A:  BNZ   A492
0A49C:  MOVLB  7
0A49E:  BTFSC  x27.7
0A4A0:  BSF    FF2.7
....................                   displayTemps(Menus.Letra,Menus.Estado,0,18,1,1); 
0A4A2:  MOVLW  07
0A4A4:  MOVWF  x28
0A4A6:  MOVLW  12
0A4A8:  MOVWF  x27
0A4AA:  MOVLW  07
0A4AC:  MOVWF  x2A
0A4AE:  MOVLW  21
0A4B0:  MOVWF  x29
0A4B2:  CLRF   x2B
0A4B4:  MOVLW  12
0A4B6:  MOVWF  x2C
0A4B8:  MOVLW  01
0A4BA:  MOVWF  x2D
0A4BC:  MOVWF  x2E
0A4BE:  MOVLB  0
0A4C0:  CALL   5530
....................                   Buzzer=ON; 
0A4C4:  MOVLB  4
0A4C6:  BSF    x64.7
....................                } 
....................                else{ 
0A4C8:  BRA    A518
....................                   strcpy(Menus.Estado,"OFF"); 
0A4CA:  MOVLW  07
0A4CC:  MOVWF  FEA
0A4CE:  MOVLW  21
0A4D0:  MOVWF  FE9
0A4D2:  MOVFF  FF2,727
0A4D6:  BCF    FF2.7
0A4D8:  MOVLW  00
0A4DA:  MOVLB  0
0A4DC:  CALL   23F8
0A4E0:  TBLRD*-
0A4E2:  TBLRD*+
0A4E4:  MOVF   FF5,W
0A4E6:  MOVWF  FEE
0A4E8:  IORLW  00
0A4EA:  BNZ   A4E2
0A4EC:  MOVLB  7
0A4EE:  BTFSC  x27.7
0A4F0:  BSF    FF2.7
....................                   displayTemps(Menus.Letra,Menus.Estado,0,18,1,1); 
0A4F2:  MOVLW  07
0A4F4:  MOVWF  x28
0A4F6:  MOVLW  12
0A4F8:  MOVWF  x27
0A4FA:  MOVLW  07
0A4FC:  MOVWF  x2A
0A4FE:  MOVLW  21
0A500:  MOVWF  x29
0A502:  CLRF   x2B
0A504:  MOVLW  12
0A506:  MOVWF  x2C
0A508:  MOVLW  01
0A50A:  MOVWF  x2D
0A50C:  MOVWF  x2E
0A50E:  MOVLB  0
0A510:  CALL   5530
....................                   Buzzer=OFF; 
0A514:  MOVLB  4
0A516:  BCF    x64.7
....................                } 
....................             } 
....................             else 
0A518:  BRA    A5E2
0A51A:  MOVLB  6
....................             { 
....................                strcpy(Menus.Letra,"Buzzer"); 
0A51C:  MOVLW  07
0A51E:  MOVWF  FEA
0A520:  MOVLW  12
0A522:  MOVWF  FE9
0A524:  MOVFF  FF2,727
0A528:  BCF    FF2.7
0A52A:  MOVLW  00
0A52C:  MOVLB  0
0A52E:  CALL   25F4
0A532:  TBLRD*-
0A534:  TBLRD*+
0A536:  MOVF   FF5,W
0A538:  MOVWF  FEE
0A53A:  IORLW  00
0A53C:  BNZ   A534
0A53E:  MOVLB  7
0A540:  BTFSC  x27.7
0A542:  BSF    FF2.7
....................                if(EstadoBuzzer){ 
0A544:  MOVLB  4
0A546:  BTFSS  x62.3
0A548:  BRA    A598
....................                   strcpy(Menus.Estado,"ON"); 
0A54A:  MOVLW  07
0A54C:  MOVWF  FEA
0A54E:  MOVLW  21
0A550:  MOVWF  FE9
0A552:  MOVFF  FF2,727
0A556:  BCF    FF2.7
0A558:  MOVLW  00
0A55A:  MOVLB  0
0A55C:  CALL   23D6
0A560:  TBLRD*-
0A562:  TBLRD*+
0A564:  MOVF   FF5,W
0A566:  MOVWF  FEE
0A568:  IORLW  00
0A56A:  BNZ   A562
0A56C:  MOVLB  7
0A56E:  BTFSC  x27.7
0A570:  BSF    FF2.7
....................                   displayTemps(Menus.Letra,Menus.Estado,0,18,0,1); 
0A572:  MOVLW  07
0A574:  MOVWF  x28
0A576:  MOVLW  12
0A578:  MOVWF  x27
0A57A:  MOVLW  07
0A57C:  MOVWF  x2A
0A57E:  MOVLW  21
0A580:  MOVWF  x29
0A582:  CLRF   x2B
0A584:  MOVLW  12
0A586:  MOVWF  x2C
0A588:  CLRF   x2D
0A58A:  MOVLW  01
0A58C:  MOVWF  x2E
0A58E:  MOVLB  0
0A590:  CALL   5530
....................                }else{ 
0A594:  BRA    A5E2
0A596:  MOVLB  4
....................                   strcpy(Menus.Estado,"OFF"); 
0A598:  MOVLW  07
0A59A:  MOVWF  FEA
0A59C:  MOVLW  21
0A59E:  MOVWF  FE9
0A5A0:  MOVFF  FF2,727
0A5A4:  BCF    FF2.7
0A5A6:  MOVLW  00
0A5A8:  MOVLB  0
0A5AA:  CALL   23F8
0A5AE:  TBLRD*-
0A5B0:  TBLRD*+
0A5B2:  MOVF   FF5,W
0A5B4:  MOVWF  FEE
0A5B6:  IORLW  00
0A5B8:  BNZ   A5B0
0A5BA:  MOVLB  7
0A5BC:  BTFSC  x27.7
0A5BE:  BSF    FF2.7
....................                   displayTemps(Menus.Letra,Menus.Estado,0,18,0,1); 
0A5C0:  MOVLW  07
0A5C2:  MOVWF  x28
0A5C4:  MOVLW  12
0A5C6:  MOVWF  x27
0A5C8:  MOVLW  07
0A5CA:  MOVWF  x2A
0A5CC:  MOVLW  21
0A5CE:  MOVWF  x29
0A5D0:  CLRF   x2B
0A5D2:  MOVLW  12
0A5D4:  MOVWF  x2C
0A5D6:  CLRF   x2D
0A5D8:  MOVLW  01
0A5DA:  MOVWF  x2E
0A5DC:  MOVLB  0
0A5DE:  CALL   5530
....................                } 
....................             } 
....................              
....................             if(Opcion==15)    
0A5E2:  MOVLB  6
0A5E4:  MOVF   xE7,W
0A5E6:  SUBLW  0F
0A5E8:  BNZ   A6BA
....................             { 
....................                strcpy(Menus.Letra,"EV Aire Bomba"); 
0A5EA:  MOVLW  07
0A5EC:  MOVWF  FEA
0A5EE:  MOVLW  12
0A5F0:  MOVWF  FE9
0A5F2:  MOVFF  FF2,727
0A5F6:  BCF    FF2.7
0A5F8:  MOVLW  00
0A5FA:  MOVLB  0
0A5FC:  CALL   261A
0A600:  TBLRD*-
0A602:  TBLRD*+
0A604:  MOVF   FF5,W
0A606:  MOVWF  FEE
0A608:  IORLW  00
0A60A:  BNZ   A602
0A60C:  MOVLB  7
0A60E:  BTFSC  x27.7
0A610:  BSF    FF2.7
....................                if(EstadoAireBomba){ 
0A612:  MOVLB  4
0A614:  BTFSS  x63.0
0A616:  BRA    A668
....................                   strcpy(Menus.Estado,"ON"); 
0A618:  MOVLW  07
0A61A:  MOVWF  FEA
0A61C:  MOVLW  21
0A61E:  MOVWF  FE9
0A620:  MOVFF  FF2,727
0A624:  BCF    FF2.7
0A626:  MOVLW  00
0A628:  MOVLB  0
0A62A:  CALL   23D6
0A62E:  TBLRD*-
0A630:  TBLRD*+
0A632:  MOVF   FF5,W
0A634:  MOVWF  FEE
0A636:  IORLW  00
0A638:  BNZ   A630
0A63A:  MOVLB  7
0A63C:  BTFSC  x27.7
0A63E:  BSF    FF2.7
....................                   displayTemps(Menus.Letra,Menus.Estado,0,27,1,1); 
0A640:  MOVLW  07
0A642:  MOVWF  x28
0A644:  MOVLW  12
0A646:  MOVWF  x27
0A648:  MOVLW  07
0A64A:  MOVWF  x2A
0A64C:  MOVLW  21
0A64E:  MOVWF  x29
0A650:  CLRF   x2B
0A652:  MOVLW  1B
0A654:  MOVWF  x2C
0A656:  MOVLW  01
0A658:  MOVWF  x2D
0A65A:  MOVWF  x2E
0A65C:  MOVLB  0
0A65E:  CALL   5530
....................                   EVAireBomba=ON; 
0A662:  MOVLB  4
0A664:  BSF    x65.0
....................                } 
....................                else{ 
0A666:  BRA    A6B6
....................                   strcpy(Menus.Estado,"OFF"); 
0A668:  MOVLW  07
0A66A:  MOVWF  FEA
0A66C:  MOVLW  21
0A66E:  MOVWF  FE9
0A670:  MOVFF  FF2,727
0A674:  BCF    FF2.7
0A676:  MOVLW  00
0A678:  MOVLB  0
0A67A:  CALL   23F8
0A67E:  TBLRD*-
0A680:  TBLRD*+
0A682:  MOVF   FF5,W
0A684:  MOVWF  FEE
0A686:  IORLW  00
0A688:  BNZ   A680
0A68A:  MOVLB  7
0A68C:  BTFSC  x27.7
0A68E:  BSF    FF2.7
....................                   displayTemps(Menus.Letra,Menus.Estado,0,27,1,1); 
0A690:  MOVLW  07
0A692:  MOVWF  x28
0A694:  MOVLW  12
0A696:  MOVWF  x27
0A698:  MOVLW  07
0A69A:  MOVWF  x2A
0A69C:  MOVLW  21
0A69E:  MOVWF  x29
0A6A0:  CLRF   x2B
0A6A2:  MOVLW  1B
0A6A4:  MOVWF  x2C
0A6A6:  MOVLW  01
0A6A8:  MOVWF  x2D
0A6AA:  MOVWF  x2E
0A6AC:  MOVLB  0
0A6AE:  CALL   5530
....................                   EVAireBomba=OFF; 
0A6B2:  MOVLB  4
0A6B4:  BCF    x65.0
....................                } 
....................             } 
....................             else 
0A6B6:  BRA    A782
0A6B8:  MOVLB  6
....................             { 
....................                strcpy(Menus.Letra,"EV Aire Bomba"); 
0A6BA:  MOVLW  07
0A6BC:  MOVWF  FEA
0A6BE:  MOVLW  12
0A6C0:  MOVWF  FE9
0A6C2:  MOVFF  FF2,727
0A6C6:  BCF    FF2.7
0A6C8:  MOVLW  00
0A6CA:  MOVLB  0
0A6CC:  CALL   261A
0A6D0:  TBLRD*-
0A6D2:  TBLRD*+
0A6D4:  MOVF   FF5,W
0A6D6:  MOVWF  FEE
0A6D8:  IORLW  00
0A6DA:  BNZ   A6D2
0A6DC:  MOVLB  7
0A6DE:  BTFSC  x27.7
0A6E0:  BSF    FF2.7
....................                if(EstadoAireBomba){ 
0A6E2:  MOVLB  4
0A6E4:  BTFSS  x63.0
0A6E6:  BRA    A736
....................                   strcpy(Menus.Estado,"ON"); 
0A6E8:  MOVLW  07
0A6EA:  MOVWF  FEA
0A6EC:  MOVLW  21
0A6EE:  MOVWF  FE9
0A6F0:  MOVFF  FF2,727
0A6F4:  BCF    FF2.7
0A6F6:  MOVLW  00
0A6F8:  MOVLB  0
0A6FA:  CALL   23D6
0A6FE:  TBLRD*-
0A700:  TBLRD*+
0A702:  MOVF   FF5,W
0A704:  MOVWF  FEE
0A706:  IORLW  00
0A708:  BNZ   A700
0A70A:  MOVLB  7
0A70C:  BTFSC  x27.7
0A70E:  BSF    FF2.7
....................                   displayTemps(Menus.Letra,Menus.Estado,0,27,0,1); 
0A710:  MOVLW  07
0A712:  MOVWF  x28
0A714:  MOVLW  12
0A716:  MOVWF  x27
0A718:  MOVLW  07
0A71A:  MOVWF  x2A
0A71C:  MOVLW  21
0A71E:  MOVWF  x29
0A720:  CLRF   x2B
0A722:  MOVLW  1B
0A724:  MOVWF  x2C
0A726:  CLRF   x2D
0A728:  MOVLW  01
0A72A:  MOVWF  x2E
0A72C:  MOVLB  0
0A72E:  CALL   5530
....................                }else{ 
0A732:  BRA    A780
0A734:  MOVLB  4
....................                   strcpy(Menus.Estado,"OFF"); 
0A736:  MOVLW  07
0A738:  MOVWF  FEA
0A73A:  MOVLW  21
0A73C:  MOVWF  FE9
0A73E:  MOVFF  FF2,727
0A742:  BCF    FF2.7
0A744:  MOVLW  00
0A746:  MOVLB  0
0A748:  CALL   23F8
0A74C:  TBLRD*-
0A74E:  TBLRD*+
0A750:  MOVF   FF5,W
0A752:  MOVWF  FEE
0A754:  IORLW  00
0A756:  BNZ   A74E
0A758:  MOVLB  7
0A75A:  BTFSC  x27.7
0A75C:  BSF    FF2.7
....................                   displayTemps(Menus.Letra,Menus.Estado,0,27,0,1); 
0A75E:  MOVLW  07
0A760:  MOVWF  x28
0A762:  MOVLW  12
0A764:  MOVWF  x27
0A766:  MOVLW  07
0A768:  MOVWF  x2A
0A76A:  MOVLW  21
0A76C:  MOVWF  x29
0A76E:  CLRF   x2B
0A770:  MOVLW  1B
0A772:  MOVWF  x2C
0A774:  CLRF   x2D
0A776:  MOVLW  01
0A778:  MOVWF  x2E
0A77A:  MOVLB  0
0A77C:  CALL   5530
0A780:  MOVLB  4
....................                } 
....................             } 
....................          } 
....................       } 
....................           
....................          if(RIGHT)//Si oprime SET 
0A782:  BSF    F96.0
0A784:  BTFSC  F84.0
0A786:  BRA    A80C
....................          {  
....................             if(Opcion==1) 
0A788:  MOVLB  6
0A78A:  DECFSZ xE7,W
0A78C:  BRA    A794
....................                EstadoDesfogue=!EstadoDesfogue; 
0A78E:  MOVLB  4
0A790:  BTG    x61.0
0A792:  MOVLB  6
....................              
....................             if(Opcion==2) 
0A794:  MOVF   xE7,W
0A796:  SUBLW  02
0A798:  BNZ   A7A0
....................                EstadoAgua=!EstadoAgua; 
0A79A:  MOVLB  4
0A79C:  BTG    x61.1
0A79E:  MOVLB  6
....................                 
....................             if(Opcion==3) 
0A7A0:  MOVF   xE7,W
0A7A2:  SUBLW  03
0A7A4:  BNZ   A7AC
....................                EstadoSSR=!EstadoSSR; 
0A7A6:  MOVLB  4
0A7A8:  BTG    x61.2
0A7AA:  MOVLB  6
....................              
....................             if(Opcion==9) 
0A7AC:  MOVF   xE7,W
0A7AE:  SUBLW  09
0A7B0:  BNZ   A7B8
....................                EstadoPaso=!EstadoPaso; 
0A7B2:  MOVLB  4
0A7B4:  BTG    x62.2
0A7B6:  MOVLB  6
....................              
....................             if(Opcion==10) 
0A7B8:  MOVF   xE7,W
0A7BA:  SUBLW  0A
0A7BC:  BNZ   A7C4
....................                EstadoVacio=!EstadoVacio; 
0A7BE:  MOVLB  4
0A7C0:  BTG    x62.1
0A7C2:  MOVLB  6
....................                 
....................             if(Opcion==11) 
0A7C4:  MOVF   xE7,W
0A7C6:  SUBLW  0B
0A7C8:  BNZ   A7D0
....................                EstadoAire=!EstadoAire;    
0A7CA:  MOVLB  4
0A7CC:  BTG    x61.5
0A7CE:  MOVLB  6
....................                 
....................             if(Opcion==12) 
0A7D0:  MOVF   xE7,W
0A7D2:  SUBLW  0C
0A7D4:  BNZ   A7DC
....................                EstadoSSR2=!EstadoSSR2; 
0A7D6:  MOVLB  4
0A7D8:  BTG    x61.3
0A7DA:  MOVLB  6
....................                 
....................             if(Opcion==13) 
0A7DC:  MOVF   xE7,W
0A7DE:  SUBLW  0D
0A7E0:  BNZ   A7E8
....................                EstadoSSR3=!EstadoSSR3; 
0A7E2:  MOVLB  4
0A7E4:  BTG    x61.4
0A7E6:  MOVLB  6
....................              
....................             if(Opcion==14) 
0A7E8:  MOVF   xE7,W
0A7EA:  SUBLW  0E
0A7EC:  BNZ   A7F4
....................                EstadoBuzzer=!EstadoBuzzer; 
0A7EE:  MOVLB  4
0A7F0:  BTG    x62.3
0A7F2:  MOVLB  6
....................                 
....................             if(Opcion==15) 
0A7F4:  MOVF   xE7,W
0A7F6:  SUBLW  0F
0A7F8:  BNZ   A7FE
....................                EstadoAireBomba=!EstadoAireBomba; 
0A7FA:  MOVLB  4
0A7FC:  BTG    x63.0
....................             delay_ms(100); 
0A7FE:  MOVLW  64
0A800:  MOVLB  7
0A802:  MOVWF  x2D
0A804:  MOVLB  0
0A806:  CALL   30A6
0A80A:  MOVLB  4
....................          } 
....................        
....................          strcpy(Menus.Letra,"Estados"); 
0A80C:  MOVLW  07
0A80E:  MOVWF  FEA
0A810:  MOVLW  12
0A812:  MOVWF  FE9
0A814:  MOVFF  FF2,727
0A818:  BCF    FF2.7
0A81A:  MOVLW  00
0A81C:  MOVLB  0
0A81E:  CALL   2646
0A822:  TBLRD*-
0A824:  TBLRD*+
0A826:  MOVF   FF5,W
0A828:  MOVWF  FEE
0A82A:  IORLW  00
0A82C:  BNZ   A824
0A82E:  MOVLB  7
0A830:  BTFSC  x27.7
0A832:  BSF    FF2.7
....................          displayMenu(Menus.Letra,0,0,1,1); 
0A834:  MOVLW  07
0A836:  MOVWF  x28
0A838:  MOVLW  12
0A83A:  MOVWF  x27
0A83C:  CLRF   x29
0A83E:  CLRF   x2A
0A840:  MOVLW  01
0A842:  MOVWF  x2B
0A844:  MOVWF  x2C
0A846:  MOVLB  0
0A848:  CALL   3F64
....................           
....................        
....................          if(UP)//Si oprime hacia arriba 
0A84C:  BSF    F92.4
0A84E:  BTFSC  F80.4
0A850:  BRA    A86C
....................          {   
....................             Opcion--;delay_ms(100);glcd_fillscreen(OFF); 
0A852:  MOVLB  6
0A854:  DECF   xE7,F
0A856:  MOVLW  64
0A858:  MOVLB  7
0A85A:  MOVWF  x2D
0A85C:  MOVLB  0
0A85E:  CALL   30A6
0A862:  MOVLB  7
0A864:  CLRF   x28
0A866:  MOVLB  0
0A868:  CALL   3936
....................          } 
....................                 
....................          if(DOWN)//Si oprime hacia abajo 
0A86C:  BSF    F92.5
0A86E:  BTFSC  F80.5
0A870:  BRA    A88C
....................          {   
....................             Opcion++;delay_ms(100);glcd_fillscreen(OFF); 
0A872:  MOVLB  6
0A874:  INCF   xE7,F
0A876:  MOVLW  64
0A878:  MOVLB  7
0A87A:  MOVWF  x2D
0A87C:  MOVLB  0
0A87E:  CALL   30A6
0A882:  MOVLB  7
0A884:  CLRF   x28
0A886:  MOVLB  0
0A888:  CALL   3936
....................          } 
....................                            
....................          if(LEFT)//Si oprime boton de Toma. 
0A88C:  BSF    F96.1
0A88E:  BTFSC  F84.1
0A890:  BRA    A8CE
....................          { 
....................             PruebaEstados=OFF;Desfogue_off;EVAgua=OFF;SSR_off;EVAireBomba=OFF;EVAire=OFF;EVVacio=OFF; 
0A892:  MOVLB  4
0A894:  BCF    x61.6
0A896:  BSF    F8B.5
0A898:  BCF    F94.5
0A89A:  BCF    x64.4
0A89C:  BSF    F8B.2
0A89E:  BCF    F94.2
0A8A0:  BCF    x65.0
0A8A2:  BCF    x64.3
0A8A4:  BCF    x64.2
....................             glcd_fillscreen(OFF);Menu=1;delay_ms(500); 
0A8A6:  MOVLB  7
0A8A8:  CLRF   x28
0A8AA:  MOVLB  0
0A8AC:  CALL   3936
0A8B0:  MOVLW  01
0A8B2:  MOVLB  6
0A8B4:  MOVWF  xE1
0A8B6:  MOVLW  02
0A8B8:  MOVLB  7
0A8BA:  MOVWF  x27
0A8BC:  MOVLW  FA
0A8BE:  MOVWF  x2D
0A8C0:  MOVLB  0
0A8C2:  CALL   30A6
0A8C6:  MOVLB  7
0A8C8:  DECFSZ x27,F
0A8CA:  BRA    A8BC
0A8CC:  MOVLB  0
0A8CE:  MOVLB  6
....................          } 
.................... } 
.................... //_--------------------------------------------------------------------------------------------------------------------------------------------------------     
....................  
.................... //_--------------------------------------------------------------------------------------------------------------------------------------------------------       
....................       if(Menu==41){ // Menu de Tiempo de Esterilizacin 
0A8D0:  MOVF   xE1,W
0A8D2:  SUBLW  29
0A8D4:  BTFSS  FD8.2
0A8D6:  BRA    ABF4
....................       
....................       if(visual==1) 
0A8D8:  MOVLB  4
0A8DA:  BTFSS  x65.4
0A8DC:  BRA    AA6A
....................       { 
....................          if(unidad<1) 
0A8DE:  MOVLB  6
0A8E0:  MOVF   xE2,F
0A8E2:  BNZ   A8E8
....................          {unidad=4;} 
0A8E4:  MOVLW  04
0A8E6:  MOVWF  xE2
....................           
....................          strcpy(Menus.Letra,"T. Ester."); 
0A8E8:  MOVLW  07
0A8EA:  MOVWF  FEA
0A8EC:  MOVLW  12
0A8EE:  MOVWF  FE9
0A8F0:  MOVFF  FF2,727
0A8F4:  BCF    FF2.7
0A8F6:  MOVLW  00
0A8F8:  MOVLB  0
0A8FA:  CALL   266C
0A8FE:  TBLRD*-
0A900:  TBLRD*+
0A902:  MOVF   FF5,W
0A904:  MOVWF  FEE
0A906:  IORLW  00
0A908:  BNZ   A900
0A90A:  MOVLB  7
0A90C:  BTFSC  x27.7
0A90E:  BSF    FF2.7
....................          displayMenu(Menus.Letra,0,0,1,2); 
0A910:  MOVLW  07
0A912:  MOVWF  x28
0A914:  MOVLW  12
0A916:  MOVWF  x27
0A918:  CLRF   x29
0A91A:  CLRF   x2A
0A91C:  MOVLW  01
0A91E:  MOVWF  x2B
0A920:  MOVLW  02
0A922:  MOVWF  x2C
0A924:  MOVLB  0
0A926:  CALL   3F64
....................           
....................          if(unidad==4) 
0A92A:  MOVLB  6
0A92C:  MOVF   xE2,W
0A92E:  SUBLW  04
0A930:  BNZ   A950
....................          {displayTiempo(Testerilizacionp[3],20,40,1,2);} 
0A932:  MOVFF  473,727
0A936:  MOVLW  14
0A938:  MOVLB  7
0A93A:  MOVWF  x28
0A93C:  MOVLW  28
0A93E:  MOVWF  x29
0A940:  MOVLW  01
0A942:  MOVWF  x2A
0A944:  MOVLW  02
0A946:  MOVWF  x2B
0A948:  MOVLB  0
0A94A:  CALL   5756
....................          else 
0A94E:  BRA    A96A
....................          {displayTiempo(Testerilizacionp[3],20,40,0,2);} 
0A950:  MOVFF  473,727
0A954:  MOVLW  14
0A956:  MOVLB  7
0A958:  MOVWF  x28
0A95A:  MOVLW  28
0A95C:  MOVWF  x29
0A95E:  CLRF   x2A
0A960:  MOVLW  02
0A962:  MOVWF  x2B
0A964:  MOVLB  0
0A966:  CALL   5756
....................           
....................          if(unidad==3) 
0A96A:  MOVLB  6
0A96C:  MOVF   xE2,W
0A96E:  SUBLW  03
0A970:  BNZ   A98E
....................          {displayTiempo(Testerilizacionp[2],40,40,1,2);} 
0A972:  MOVFF  472,727
0A976:  MOVLW  28
0A978:  MOVLB  7
0A97A:  MOVWF  x28
0A97C:  MOVWF  x29
0A97E:  MOVLW  01
0A980:  MOVWF  x2A
0A982:  MOVLW  02
0A984:  MOVWF  x2B
0A986:  MOVLB  0
0A988:  CALL   5756
....................          else 
0A98C:  BRA    A9A6
....................          {displayTiempo(Testerilizacionp[2],40,40,0,2);} 
0A98E:  MOVFF  472,727
0A992:  MOVLW  28
0A994:  MOVLB  7
0A996:  MOVWF  x28
0A998:  MOVWF  x29
0A99A:  CLRF   x2A
0A99C:  MOVLW  02
0A99E:  MOVWF  x2B
0A9A0:  MOVLB  0
0A9A2:  CALL   5756
....................           
....................          if(unidad==2) 
0A9A6:  MOVLB  6
0A9A8:  MOVF   xE2,W
0A9AA:  SUBLW  02
0A9AC:  BNZ   A9CC
....................          {displayTiempo(Testerilizacionp[1],70,40,1,2);} 
0A9AE:  MOVFF  471,727
0A9B2:  MOVLW  46
0A9B4:  MOVLB  7
0A9B6:  MOVWF  x28
0A9B8:  MOVLW  28
0A9BA:  MOVWF  x29
0A9BC:  MOVLW  01
0A9BE:  MOVWF  x2A
0A9C0:  MOVLW  02
0A9C2:  MOVWF  x2B
0A9C4:  MOVLB  0
0A9C6:  CALL   5756
....................          else 
0A9CA:  BRA    A9E6
....................          {displayTiempo(Testerilizacionp[1],70,40,0,2);} 
0A9CC:  MOVFF  471,727
0A9D0:  MOVLW  46
0A9D2:  MOVLB  7
0A9D4:  MOVWF  x28
0A9D6:  MOVLW  28
0A9D8:  MOVWF  x29
0A9DA:  CLRF   x2A
0A9DC:  MOVLW  02
0A9DE:  MOVWF  x2B
0A9E0:  MOVLB  0
0A9E2:  CALL   5756
....................           
....................          if(unidad==1) 
0A9E6:  MOVLB  6
0A9E8:  DECFSZ xE2,W
0A9EA:  BRA    AA0A
....................          {displayTiempo(Testerilizacionp[0],90,40,1,2);} 
0A9EC:  MOVFF  470,727
0A9F0:  MOVLW  5A
0A9F2:  MOVLB  7
0A9F4:  MOVWF  x28
0A9F6:  MOVLW  28
0A9F8:  MOVWF  x29
0A9FA:  MOVLW  01
0A9FC:  MOVWF  x2A
0A9FE:  MOVLW  02
0AA00:  MOVWF  x2B
0AA02:  MOVLB  0
0AA04:  CALL   5756
....................          else 
0AA08:  BRA    AA24
....................          {displayTiempo(Testerilizacionp[0],90,40,0,2);} 
0AA0A:  MOVFF  470,727
0AA0E:  MOVLW  5A
0AA10:  MOVLB  7
0AA12:  MOVWF  x28
0AA14:  MOVLW  28
0AA16:  MOVWF  x29
0AA18:  CLRF   x2A
0AA1A:  MOVLW  02
0AA1C:  MOVWF  x2B
0AA1E:  MOVLB  0
0AA20:  CALL   5756
....................           
....................          strcpy(Menus.Letra,":"); 
0AA24:  MOVLW  07
0AA26:  MOVWF  FEA
0AA28:  MOVLW  12
0AA2A:  MOVWF  FE9
0AA2C:  MOVFF  FF2,727
0AA30:  BCF    FF2.7
0AA32:  MOVLW  00
0AA34:  CALL   1B6A
0AA38:  TBLRD*-
0AA3A:  TBLRD*+
0AA3C:  MOVF   FF5,W
0AA3E:  MOVWF  FEE
0AA40:  IORLW  00
0AA42:  BNZ   AA3A
0AA44:  MOVLB  7
0AA46:  BTFSC  x27.7
0AA48:  BSF    FF2.7
....................          displayMenu(Menus.Letra,60,42,2,2);      
0AA4A:  MOVLW  07
0AA4C:  MOVWF  x28
0AA4E:  MOVLW  12
0AA50:  MOVWF  x27
0AA52:  MOVLW  3C
0AA54:  MOVWF  x29
0AA56:  MOVLW  2A
0AA58:  MOVWF  x2A
0AA5A:  MOVLW  02
0AA5C:  MOVWF  x2B
0AA5E:  MOVWF  x2C
0AA60:  MOVLB  0
0AA62:  CALL   3F64
....................           
....................          visual=0; 
0AA66:  MOVLB  4
0AA68:  BCF    x65.4
....................       } 
....................        
....................        
....................          if(UP)//Si oprime hacia arriba 
0AA6A:  BSF    F92.4
0AA6C:  BTFSC  F80.4
0AA6E:  BRA    AAB0
....................          {   
....................             if(Testerilizacionp[unidad-1]<9) 
0AA70:  MOVLW  01
0AA72:  MOVLB  6
0AA74:  SUBWF  xE2,W
0AA76:  CLRF   03
0AA78:  ADDLW  70
0AA7A:  MOVWF  FE9
0AA7C:  MOVLW  04
0AA7E:  ADDWFC 03,W
0AA80:  MOVWF  FEA
0AA82:  BTFSC  FEF.7
0AA84:  BRA    AA8C
0AA86:  MOVF   FEF,W
0AA88:  SUBLW  08
0AA8A:  BNC   AAB2
....................             { 
....................                delay_ms(30);Testerilizacionp[unidad-1]++;visual=1; 
0AA8C:  MOVLW  1E
0AA8E:  MOVLB  7
0AA90:  MOVWF  x2D
0AA92:  MOVLB  0
0AA94:  CALL   30A6
0AA98:  MOVLW  01
0AA9A:  MOVLB  6
0AA9C:  SUBWF  xE2,W
0AA9E:  CLRF   03
0AAA0:  ADDLW  70
0AAA2:  MOVWF  FE9
0AAA4:  MOVLW  04
0AAA6:  ADDWFC 03,W
0AAA8:  MOVWF  FEA
0AAAA:  INCF   FEF,F
0AAAC:  MOVLB  4
0AAAE:  BSF    x65.4
0AAB0:  MOVLB  6
....................             } 
....................          } 
....................                 
....................          if(DOWN)//Si oprime hacia abajo 
0AAB2:  BSF    F92.5
0AAB4:  BTFSC  F80.5
0AAB6:  BRA    AAF8
....................          {   
....................             if(Testerilizacionp[unidad-1]>0) 
0AAB8:  MOVLW  01
0AABA:  SUBWF  xE2,W
0AABC:  CLRF   03
0AABE:  ADDLW  70
0AAC0:  MOVWF  FE9
0AAC2:  MOVLW  04
0AAC4:  ADDWFC 03,W
0AAC6:  MOVWF  FEA
0AAC8:  BTFSC  FEF.7
0AACA:  BRA    AAF8
0AACC:  MOVF   FEF,W
0AACE:  SUBLW  00
0AAD0:  BC    AAF8
....................             { 
....................                delay_ms(30);Testerilizacionp[unidad-1]--;visual=1;      
0AAD2:  MOVLW  1E
0AAD4:  MOVLB  7
0AAD6:  MOVWF  x2D
0AAD8:  MOVLB  0
0AADA:  CALL   30A6
0AADE:  MOVLW  01
0AAE0:  MOVLB  6
0AAE2:  SUBWF  xE2,W
0AAE4:  CLRF   03
0AAE6:  ADDLW  70
0AAE8:  MOVWF  FE9
0AAEA:  MOVLW  04
0AAEC:  ADDWFC 03,W
0AAEE:  MOVWF  FEA
0AAF0:  DECF   FEF,F
0AAF2:  MOVLB  4
0AAF4:  BSF    x65.4
0AAF6:  MOVLB  6
....................             } 
....................          } 
....................                 
....................          if(RIGHT)//Si oprime SET 
0AAF8:  BSF    F96.0
0AAFA:  BTFSC  F84.0
0AAFC:  BRA    AB14
....................          {   
....................             delay_ms(30);unidad--;visual=1; 
0AAFE:  MOVLW  1E
0AB00:  MOVLB  7
0AB02:  MOVWF  x2D
0AB04:  MOVLB  0
0AB06:  CALL   30A6
0AB0A:  MOVLB  6
0AB0C:  DECF   xE2,F
0AB0E:  MOVLB  4
0AB10:  BSF    x65.4
0AB12:  MOVLB  6
....................          }  
....................                    
....................          if(LEFT)//Si oprime boton de Toma. 
0AB14:  BSF    F96.1
0AB16:  BTFSC  F84.1
0AB18:  BRA    ABF4
....................          { 
....................             delay_ms(700);Menu=11;glcd_fillscreen(OFF);Opcion=1;visual=1; 
0AB1A:  MOVLW  04
0AB1C:  MOVLB  7
0AB1E:  MOVWF  x27
0AB20:  MOVLW  AF
0AB22:  MOVWF  x2D
0AB24:  MOVLB  0
0AB26:  CALL   30A6
0AB2A:  MOVLB  7
0AB2C:  DECFSZ x27,F
0AB2E:  BRA    AB20
0AB30:  MOVLW  0B
0AB32:  MOVLB  6
0AB34:  MOVWF  xE1
0AB36:  MOVLB  7
0AB38:  CLRF   x28
0AB3A:  MOVLB  0
0AB3C:  CALL   3936
0AB40:  MOVLW  01
0AB42:  MOVLB  6
0AB44:  MOVWF  xE7
0AB46:  MOVLB  4
0AB48:  BSF    x65.4
....................             write_eeprom(0,Testerilizacionp[0]);write_eeprom(1,Testerilizacionp[1]); 
0AB4A:  CLRF   FAA
0AB4C:  CLRF   FA9
0AB4E:  MOVFF  470,FA8
0AB52:  BCF    FA6.6
0AB54:  BCF    FA6.7
0AB56:  BSF    FA6.2
0AB58:  MOVF   FF2,W
0AB5A:  MOVWF  00
0AB5C:  BCF    FF2.7
0AB5E:  MOVLB  F
0AB60:  MOVLW  55
0AB62:  MOVWF  FA7
0AB64:  MOVLW  AA
0AB66:  MOVWF  FA7
0AB68:  BSF    FA6.1
0AB6A:  BTFSC  FA6.1
0AB6C:  BRA    AB6A
0AB6E:  BCF    FA6.2
0AB70:  MOVF   00,W
0AB72:  IORWF  FF2,F
0AB74:  CLRF   FAA
0AB76:  MOVLW  01
0AB78:  MOVWF  FA9
0AB7A:  MOVFF  471,FA8
0AB7E:  BCF    FA6.6
0AB80:  BCF    FA6.7
0AB82:  BSF    FA6.2
0AB84:  MOVF   FF2,W
0AB86:  MOVWF  00
0AB88:  BCF    FF2.7
0AB8A:  MOVLW  55
0AB8C:  MOVWF  FA7
0AB8E:  MOVLW  AA
0AB90:  MOVWF  FA7
0AB92:  BSF    FA6.1
0AB94:  BTFSC  FA6.1
0AB96:  BRA    AB94
0AB98:  BCF    FA6.2
0AB9A:  MOVF   00,W
0AB9C:  IORWF  FF2,F
....................             write_eeprom(2,Testerilizacionp[2]);write_eeprom(3,Testerilizacionp[3]); 
0AB9E:  CLRF   FAA
0ABA0:  MOVLW  02
0ABA2:  MOVWF  FA9
0ABA4:  MOVFF  472,FA8
0ABA8:  BCF    FA6.6
0ABAA:  BCF    FA6.7
0ABAC:  BSF    FA6.2
0ABAE:  MOVFF  FF2,00
0ABB2:  BCF    FF2.7
0ABB4:  MOVLW  55
0ABB6:  MOVWF  FA7
0ABB8:  MOVLW  AA
0ABBA:  MOVWF  FA7
0ABBC:  BSF    FA6.1
0ABBE:  BTFSC  FA6.1
0ABC0:  BRA    ABBE
0ABC2:  BCF    FA6.2
0ABC4:  MOVF   00,W
0ABC6:  IORWF  FF2,F
0ABC8:  CLRF   FAA
0ABCA:  MOVLW  03
0ABCC:  MOVWF  FA9
0ABCE:  MOVFF  473,FA8
0ABD2:  BCF    FA6.6
0ABD4:  BCF    FA6.7
0ABD6:  BSF    FA6.2
0ABD8:  MOVFF  FF2,00
0ABDC:  BCF    FF2.7
0ABDE:  MOVLW  55
0ABE0:  MOVWF  FA7
0ABE2:  MOVLW  AA
0ABE4:  MOVWF  FA7
0ABE6:  BSF    FA6.1
0ABE8:  BTFSC  FA6.1
0ABEA:  BRA    ABE8
0ABEC:  BCF    FA6.2
0ABEE:  MOVF   00,W
0ABF0:  IORWF  FF2,F
0ABF2:  MOVLB  6
....................          } 
....................      } 
.................... //_--------------------------------------------------------------------------------------------------------------------------------------------------------     
....................  
.................... //_--------------------------------------------------------------------------------------------------------------------------------------------------------       
....................       if(Menu==42){ // Menu de Tiempo de Secado 
0ABF4:  MOVF   xE1,W
0ABF6:  SUBLW  2A
0ABF8:  BTFSS  FD8.2
0ABFA:  BRA    AF1A
....................       
....................       if(visual==1) 
0ABFC:  MOVLB  4
0ABFE:  BTFSS  x65.4
0AC00:  BRA    AD8E
....................       { 
....................          if(unidad<1) 
0AC02:  MOVLB  6
0AC04:  MOVF   xE2,F
0AC06:  BNZ   AC0C
....................          {unidad=4;} 
0AC08:  MOVLW  04
0AC0A:  MOVWF  xE2
....................           
....................          strcpy(Menus.Letra," Secado"); 
0AC0C:  MOVLW  07
0AC0E:  MOVWF  FEA
0AC10:  MOVLW  12
0AC12:  MOVWF  FE9
0AC14:  MOVFF  FF2,727
0AC18:  BCF    FF2.7
0AC1A:  MOVLW  00
0AC1C:  MOVLB  0
0AC1E:  CALL   2694
0AC22:  TBLRD*-
0AC24:  TBLRD*+
0AC26:  MOVF   FF5,W
0AC28:  MOVWF  FEE
0AC2A:  IORLW  00
0AC2C:  BNZ   AC24
0AC2E:  MOVLB  7
0AC30:  BTFSC  x27.7
0AC32:  BSF    FF2.7
....................          displayMenu(Menus.Letra,0,0,1,2); 
0AC34:  MOVLW  07
0AC36:  MOVWF  x28
0AC38:  MOVLW  12
0AC3A:  MOVWF  x27
0AC3C:  CLRF   x29
0AC3E:  CLRF   x2A
0AC40:  MOVLW  01
0AC42:  MOVWF  x2B
0AC44:  MOVLW  02
0AC46:  MOVWF  x2C
0AC48:  MOVLB  0
0AC4A:  CALL   3F64
....................           
....................          if(unidad==4) 
0AC4E:  MOVLB  6
0AC50:  MOVF   xE2,W
0AC52:  SUBLW  04
0AC54:  BNZ   AC74
....................          {displayTiempo(Tsecadop[3],20,40,1,2);} 
0AC56:  MOVFF  47B,727
0AC5A:  MOVLW  14
0AC5C:  MOVLB  7
0AC5E:  MOVWF  x28
0AC60:  MOVLW  28
0AC62:  MOVWF  x29
0AC64:  MOVLW  01
0AC66:  MOVWF  x2A
0AC68:  MOVLW  02
0AC6A:  MOVWF  x2B
0AC6C:  MOVLB  0
0AC6E:  CALL   5756
....................          else 
0AC72:  BRA    AC8E
....................          {displayTiempo(Tsecadop[3],20,40,0,2);} 
0AC74:  MOVFF  47B,727
0AC78:  MOVLW  14
0AC7A:  MOVLB  7
0AC7C:  MOVWF  x28
0AC7E:  MOVLW  28
0AC80:  MOVWF  x29
0AC82:  CLRF   x2A
0AC84:  MOVLW  02
0AC86:  MOVWF  x2B
0AC88:  MOVLB  0
0AC8A:  CALL   5756
....................           
....................          if(unidad==3) 
0AC8E:  MOVLB  6
0AC90:  MOVF   xE2,W
0AC92:  SUBLW  03
0AC94:  BNZ   ACB2
....................          {displayTiempo(Tsecadop[2],40,40,1,2);} 
0AC96:  MOVFF  47A,727
0AC9A:  MOVLW  28
0AC9C:  MOVLB  7
0AC9E:  MOVWF  x28
0ACA0:  MOVWF  x29
0ACA2:  MOVLW  01
0ACA4:  MOVWF  x2A
0ACA6:  MOVLW  02
0ACA8:  MOVWF  x2B
0ACAA:  MOVLB  0
0ACAC:  CALL   5756
....................          else 
0ACB0:  BRA    ACCA
....................          {displayTiempo(Tsecadop[2],40,40,0,2);} 
0ACB2:  MOVFF  47A,727
0ACB6:  MOVLW  28
0ACB8:  MOVLB  7
0ACBA:  MOVWF  x28
0ACBC:  MOVWF  x29
0ACBE:  CLRF   x2A
0ACC0:  MOVLW  02
0ACC2:  MOVWF  x2B
0ACC4:  MOVLB  0
0ACC6:  CALL   5756
....................           
....................          if(unidad==2) 
0ACCA:  MOVLB  6
0ACCC:  MOVF   xE2,W
0ACCE:  SUBLW  02
0ACD0:  BNZ   ACF0
....................          {displayTiempo(Tsecadop[1],70,40,1,2);} 
0ACD2:  MOVFF  479,727
0ACD6:  MOVLW  46
0ACD8:  MOVLB  7
0ACDA:  MOVWF  x28
0ACDC:  MOVLW  28
0ACDE:  MOVWF  x29
0ACE0:  MOVLW  01
0ACE2:  MOVWF  x2A
0ACE4:  MOVLW  02
0ACE6:  MOVWF  x2B
0ACE8:  MOVLB  0
0ACEA:  CALL   5756
....................          else 
0ACEE:  BRA    AD0A
....................          {displayTiempo(Tsecadop[1],70,40,0,2);} 
0ACF0:  MOVFF  479,727
0ACF4:  MOVLW  46
0ACF6:  MOVLB  7
0ACF8:  MOVWF  x28
0ACFA:  MOVLW  28
0ACFC:  MOVWF  x29
0ACFE:  CLRF   x2A
0AD00:  MOVLW  02
0AD02:  MOVWF  x2B
0AD04:  MOVLB  0
0AD06:  CALL   5756
....................           
....................          if(unidad==1) 
0AD0A:  MOVLB  6
0AD0C:  DECFSZ xE2,W
0AD0E:  BRA    AD2E
....................          {displayTiempo(Tsecadop[0],90,40,1,2);} 
0AD10:  MOVFF  478,727
0AD14:  MOVLW  5A
0AD16:  MOVLB  7
0AD18:  MOVWF  x28
0AD1A:  MOVLW  28
0AD1C:  MOVWF  x29
0AD1E:  MOVLW  01
0AD20:  MOVWF  x2A
0AD22:  MOVLW  02
0AD24:  MOVWF  x2B
0AD26:  MOVLB  0
0AD28:  CALL   5756
....................          else 
0AD2C:  BRA    AD48
....................          {displayTiempo(Tsecadop[0],90,40,0,2);} 
0AD2E:  MOVFF  478,727
0AD32:  MOVLW  5A
0AD34:  MOVLB  7
0AD36:  MOVWF  x28
0AD38:  MOVLW  28
0AD3A:  MOVWF  x29
0AD3C:  CLRF   x2A
0AD3E:  MOVLW  02
0AD40:  MOVWF  x2B
0AD42:  MOVLB  0
0AD44:  CALL   5756
....................           
....................          strcpy(Menus.Letra,":"); 
0AD48:  MOVLW  07
0AD4A:  MOVWF  FEA
0AD4C:  MOVLW  12
0AD4E:  MOVWF  FE9
0AD50:  MOVFF  FF2,727
0AD54:  BCF    FF2.7
0AD56:  MOVLW  00
0AD58:  CALL   1B6A
0AD5C:  TBLRD*-
0AD5E:  TBLRD*+
0AD60:  MOVF   FF5,W
0AD62:  MOVWF  FEE
0AD64:  IORLW  00
0AD66:  BNZ   AD5E
0AD68:  MOVLB  7
0AD6A:  BTFSC  x27.7
0AD6C:  BSF    FF2.7
....................          displayMenu(Menus.Letra,60,42,2,2);  
0AD6E:  MOVLW  07
0AD70:  MOVWF  x28
0AD72:  MOVLW  12
0AD74:  MOVWF  x27
0AD76:  MOVLW  3C
0AD78:  MOVWF  x29
0AD7A:  MOVLW  2A
0AD7C:  MOVWF  x2A
0AD7E:  MOVLW  02
0AD80:  MOVWF  x2B
0AD82:  MOVWF  x2C
0AD84:  MOVLB  0
0AD86:  CALL   3F64
....................           
....................          visual=0; 
0AD8A:  MOVLB  4
0AD8C:  BCF    x65.4
....................       } 
....................        
....................        
....................          if(UP)//Si oprime hacia arriba 
0AD8E:  BSF    F92.4
0AD90:  BTFSC  F80.4
0AD92:  BRA    ADD4
....................          {   
....................             if(Tsecadop[unidad-1]<9) 
0AD94:  MOVLW  01
0AD96:  MOVLB  6
0AD98:  SUBWF  xE2,W
0AD9A:  CLRF   03
0AD9C:  ADDLW  78
0AD9E:  MOVWF  FE9
0ADA0:  MOVLW  04
0ADA2:  ADDWFC 03,W
0ADA4:  MOVWF  FEA
0ADA6:  BTFSC  FEF.7
0ADA8:  BRA    ADB0
0ADAA:  MOVF   FEF,W
0ADAC:  SUBLW  08
0ADAE:  BNC   ADD6
....................             { 
....................                delay_ms(30);Tsecadop[unidad-1]++;visual=1; 
0ADB0:  MOVLW  1E
0ADB2:  MOVLB  7
0ADB4:  MOVWF  x2D
0ADB6:  MOVLB  0
0ADB8:  CALL   30A6
0ADBC:  MOVLW  01
0ADBE:  MOVLB  6
0ADC0:  SUBWF  xE2,W
0ADC2:  CLRF   03
0ADC4:  ADDLW  78
0ADC6:  MOVWF  FE9
0ADC8:  MOVLW  04
0ADCA:  ADDWFC 03,W
0ADCC:  MOVWF  FEA
0ADCE:  INCF   FEF,F
0ADD0:  MOVLB  4
0ADD2:  BSF    x65.4
0ADD4:  MOVLB  6
....................             } 
....................          } 
....................                 
....................          if(DOWN)//Si oprime hacia abajo 
0ADD6:  BSF    F92.5
0ADD8:  BTFSC  F80.5
0ADDA:  BRA    AE1C
....................          {   
....................             if(Tsecadop[unidad-1]>0) 
0ADDC:  MOVLW  01
0ADDE:  SUBWF  xE2,W
0ADE0:  CLRF   03
0ADE2:  ADDLW  78
0ADE4:  MOVWF  FE9
0ADE6:  MOVLW  04
0ADE8:  ADDWFC 03,W
0ADEA:  MOVWF  FEA
0ADEC:  BTFSC  FEF.7
0ADEE:  BRA    AE1C
0ADF0:  MOVF   FEF,W
0ADF2:  SUBLW  00
0ADF4:  BC    AE1C
....................             { 
....................                delay_ms(30);Tsecadop[unidad-1]--;visual=1;      
0ADF6:  MOVLW  1E
0ADF8:  MOVLB  7
0ADFA:  MOVWF  x2D
0ADFC:  MOVLB  0
0ADFE:  CALL   30A6
0AE02:  MOVLW  01
0AE04:  MOVLB  6
0AE06:  SUBWF  xE2,W
0AE08:  CLRF   03
0AE0A:  ADDLW  78
0AE0C:  MOVWF  FE9
0AE0E:  MOVLW  04
0AE10:  ADDWFC 03,W
0AE12:  MOVWF  FEA
0AE14:  DECF   FEF,F
0AE16:  MOVLB  4
0AE18:  BSF    x65.4
0AE1A:  MOVLB  6
....................             } 
....................          } 
....................                 
....................          if(RIGHT)//Si oprime SET 
0AE1C:  BSF    F96.0
0AE1E:  BTFSC  F84.0
0AE20:  BRA    AE38
....................          {   
....................             delay_ms(30);unidad--;visual=1; 
0AE22:  MOVLW  1E
0AE24:  MOVLB  7
0AE26:  MOVWF  x2D
0AE28:  MOVLB  0
0AE2A:  CALL   30A6
0AE2E:  MOVLB  6
0AE30:  DECF   xE2,F
0AE32:  MOVLB  4
0AE34:  BSF    x65.4
0AE36:  MOVLB  6
....................          }  
....................                    
....................          if(LEFT)//Si oprime boton de Toma. 
0AE38:  BSF    F96.1
0AE3A:  BTFSC  F84.1
0AE3C:  BRA    AF1A
....................          { 
....................             delay_ms(700);Menu=11;glcd_fillscreen(OFF);Opcion=1;visual=1; 
0AE3E:  MOVLW  04
0AE40:  MOVLB  7
0AE42:  MOVWF  x27
0AE44:  MOVLW  AF
0AE46:  MOVWF  x2D
0AE48:  MOVLB  0
0AE4A:  CALL   30A6
0AE4E:  MOVLB  7
0AE50:  DECFSZ x27,F
0AE52:  BRA    AE44
0AE54:  MOVLW  0B
0AE56:  MOVLB  6
0AE58:  MOVWF  xE1
0AE5A:  MOVLB  7
0AE5C:  CLRF   x28
0AE5E:  MOVLB  0
0AE60:  CALL   3936
0AE64:  MOVLW  01
0AE66:  MOVLB  6
0AE68:  MOVWF  xE7
0AE6A:  MOVLB  4
0AE6C:  BSF    x65.4
....................             write_eeprom(4,Tsecadop[0]);write_eeprom(5,Tsecadop[1]); 
0AE6E:  CLRF   FAA
0AE70:  MOVLW  04
0AE72:  MOVWF  FA9
0AE74:  MOVFF  478,FA8
0AE78:  BCF    FA6.6
0AE7A:  BCF    FA6.7
0AE7C:  BSF    FA6.2
0AE7E:  MOVF   FF2,W
0AE80:  MOVWF  00
0AE82:  BCF    FF2.7
0AE84:  MOVLB  F
0AE86:  MOVLW  55
0AE88:  MOVWF  FA7
0AE8A:  MOVLW  AA
0AE8C:  MOVWF  FA7
0AE8E:  BSF    FA6.1
0AE90:  BTFSC  FA6.1
0AE92:  BRA    AE90
0AE94:  BCF    FA6.2
0AE96:  MOVF   00,W
0AE98:  IORWF  FF2,F
0AE9A:  CLRF   FAA
0AE9C:  MOVLW  05
0AE9E:  MOVWF  FA9
0AEA0:  MOVFF  479,FA8
0AEA4:  BCF    FA6.6
0AEA6:  BCF    FA6.7
0AEA8:  BSF    FA6.2
0AEAA:  MOVF   FF2,W
0AEAC:  MOVWF  00
0AEAE:  BCF    FF2.7
0AEB0:  MOVLW  55
0AEB2:  MOVWF  FA7
0AEB4:  MOVLW  AA
0AEB6:  MOVWF  FA7
0AEB8:  BSF    FA6.1
0AEBA:  BTFSC  FA6.1
0AEBC:  BRA    AEBA
0AEBE:  BCF    FA6.2
0AEC0:  MOVF   00,W
0AEC2:  IORWF  FF2,F
....................             write_eeprom(6,Tsecadop[2]);write_eeprom(7,Tsecadop[3]); 
0AEC4:  CLRF   FAA
0AEC6:  MOVLW  06
0AEC8:  MOVWF  FA9
0AECA:  MOVFF  47A,FA8
0AECE:  BCF    FA6.6
0AED0:  BCF    FA6.7
0AED2:  BSF    FA6.2
0AED4:  MOVFF  FF2,00
0AED8:  BCF    FF2.7
0AEDA:  MOVLW  55
0AEDC:  MOVWF  FA7
0AEDE:  MOVLW  AA
0AEE0:  MOVWF  FA7
0AEE2:  BSF    FA6.1
0AEE4:  BTFSC  FA6.1
0AEE6:  BRA    AEE4
0AEE8:  BCF    FA6.2
0AEEA:  MOVF   00,W
0AEEC:  IORWF  FF2,F
0AEEE:  CLRF   FAA
0AEF0:  MOVLW  07
0AEF2:  MOVWF  FA9
0AEF4:  MOVFF  47B,FA8
0AEF8:  BCF    FA6.6
0AEFA:  BCF    FA6.7
0AEFC:  BSF    FA6.2
0AEFE:  MOVFF  FF2,00
0AF02:  BCF    FF2.7
0AF04:  MOVLW  55
0AF06:  MOVWF  FA7
0AF08:  MOVLW  AA
0AF0A:  MOVWF  FA7
0AF0C:  BSF    FA6.1
0AF0E:  BTFSC  FA6.1
0AF10:  BRA    AF0E
0AF12:  BCF    FA6.2
0AF14:  MOVF   00,W
0AF16:  IORWF  FF2,F
0AF18:  MOVLB  6
....................          } 
....................      } 
.................... //_--------------------------------------------------------------------------------------------------------------------------------------------------------     
....................  
.................... //_--------------------------------------------------------------------------------------------------------------------------------------------------------       
....................       if(Menu==43){ // Menu de Temperatura 
0AF1A:  MOVF   xE1,W
0AF1C:  SUBLW  2B
0AF1E:  BTFSS  FD8.2
0AF20:  BRA    B06C
....................       
....................       if(visual==1) 
0AF22:  MOVLB  4
0AF24:  BTFSS  x65.4
0AF26:  BRA    AF8E
....................       { 
....................          glcd_fillScreen(OFF); 
0AF28:  MOVLB  7
0AF2A:  CLRF   x28
0AF2C:  MOVLB  0
0AF2E:  CALL   3936
....................          strcpy(Menus.Letra,"Temperatura"); 
0AF32:  MOVLW  07
0AF34:  MOVWF  FEA
0AF36:  MOVLW  12
0AF38:  MOVWF  FE9
0AF3A:  MOVFF  FF2,727
0AF3E:  BCF    FF2.7
0AF40:  MOVLW  00
0AF42:  CALL   2300
0AF46:  TBLRD*-
0AF48:  TBLRD*+
0AF4A:  MOVF   FF5,W
0AF4C:  MOVWF  FEE
0AF4E:  IORLW  00
0AF50:  BNZ   AF48
0AF52:  MOVLB  7
0AF54:  BTFSC  x27.7
0AF56:  BSF    FF2.7
....................          displayMenu(Menus.Letra,0,0,1,2); 
0AF58:  MOVLW  07
0AF5A:  MOVWF  x28
0AF5C:  MOVLW  12
0AF5E:  MOVWF  x27
0AF60:  CLRF   x29
0AF62:  CLRF   x2A
0AF64:  MOVLW  01
0AF66:  MOVWF  x2B
0AF68:  MOVLW  02
0AF6A:  MOVWF  x2C
0AF6C:  MOVLB  0
0AF6E:  CALL   3F64
....................           
....................          displayTiempo(Setpoint,30,30,0,3); 
0AF72:  MOVFF  6E5,727
0AF76:  MOVLW  1E
0AF78:  MOVLB  7
0AF7A:  MOVWF  x28
0AF7C:  MOVWF  x29
0AF7E:  CLRF   x2A
0AF80:  MOVLW  03
0AF82:  MOVWF  x2B
0AF84:  MOVLB  0
0AF86:  CALL   5756
....................           
....................          visual=0; 
0AF8A:  MOVLB  4
0AF8C:  BCF    x65.4
....................       } 
....................        
....................          if(UP)//Si oprime hacia arriba 
0AF8E:  BSF    F92.4
0AF90:  BTFSC  F80.4
0AF92:  BRA    AFCC
....................          {   
....................             if(Setpoint<134) 
0AF94:  MOVLB  6
0AF96:  MOVF   xE5,W
0AF98:  SUBLW  85
0AF9A:  BNC   AFCE
....................             { 
....................                if(Setpoint<100) 
0AF9C:  MOVF   xE5,W
0AF9E:  SUBLW  63
0AFA0:  BNC   AFB8
....................                { 
....................                   Setpoint=100;delay_ms(100);visual=1; 
0AFA2:  MOVLW  64
0AFA4:  MOVWF  xE5
0AFA6:  MOVLB  7
0AFA8:  MOVWF  x2D
0AFAA:  MOVLB  0
0AFAC:  CALL   30A6
0AFB0:  MOVLB  4
0AFB2:  BSF    x65.4
....................                } 
....................                else 
0AFB4:  BRA    AFCC
0AFB6:  MOVLB  6
....................                { 
....................                   delay_ms(30);Setpoint++;visual=1; 
0AFB8:  MOVLW  1E
0AFBA:  MOVLB  7
0AFBC:  MOVWF  x2D
0AFBE:  MOVLB  0
0AFC0:  CALL   30A6
0AFC4:  MOVLB  6
0AFC6:  INCF   xE5,F
0AFC8:  MOVLB  4
0AFCA:  BSF    x65.4
0AFCC:  MOVLB  6
....................                } 
....................             } 
....................          } 
....................                 
....................          if(DOWN)//Si oprime hacia abajo 
0AFCE:  BSF    F92.5
0AFD0:  BTFSC  F80.5
0AFD2:  BRA    AFF0
....................          {   
....................             if(Setpoint>105) 
0AFD4:  MOVF   xE5,W
0AFD6:  SUBLW  69
0AFD8:  BC    AFF0
....................             { 
....................                delay_ms(30);Setpoint--;visual=1;      
0AFDA:  MOVLW  1E
0AFDC:  MOVLB  7
0AFDE:  MOVWF  x2D
0AFE0:  MOVLB  0
0AFE2:  CALL   30A6
0AFE6:  MOVLB  6
0AFE8:  DECF   xE5,F
0AFEA:  MOVLB  4
0AFEC:  BSF    x65.4
0AFEE:  MOVLB  6
....................             } 
....................          } 
....................                 
....................          if(RIGHT)//Si oprime SET 
0AFF0:  BSF    F96.0
0AFF2:  BTFSC  F84.0
0AFF4:  BRA    B008
....................          {   
....................             delay_ms(30);visual=1; 
0AFF6:  MOVLW  1E
0AFF8:  MOVLB  7
0AFFA:  MOVWF  x2D
0AFFC:  MOVLB  0
0AFFE:  CALL   30A6
0B002:  MOVLB  4
0B004:  BSF    x65.4
0B006:  MOVLB  6
....................          }  
....................                    
....................          if(LEFT)//Si oprime boton de Toma. 
0B008:  BSF    F96.1
0B00A:  BTFSC  F84.1
0B00C:  BRA    B06C
....................          { 
....................             delay_ms(700);Menu=11;glcd_fillscreen(OFF);Opcion=1;visual=1; 
0B00E:  MOVLW  04
0B010:  MOVLB  7
0B012:  MOVWF  x27
0B014:  MOVLW  AF
0B016:  MOVWF  x2D
0B018:  MOVLB  0
0B01A:  CALL   30A6
0B01E:  MOVLB  7
0B020:  DECFSZ x27,F
0B022:  BRA    B014
0B024:  MOVLW  0B
0B026:  MOVLB  6
0B028:  MOVWF  xE1
0B02A:  MOVLB  7
0B02C:  CLRF   x28
0B02E:  MOVLB  0
0B030:  CALL   3936
0B034:  MOVLW  01
0B036:  MOVLB  6
0B038:  MOVWF  xE7
0B03A:  MOVLB  4
0B03C:  BSF    x65.4
....................             write_eeprom(8,Setpoint); 
0B03E:  CLRF   FAA
0B040:  MOVLW  08
0B042:  MOVWF  FA9
0B044:  MOVFF  6E5,FA8
0B048:  BCF    FA6.6
0B04A:  BCF    FA6.7
0B04C:  BSF    FA6.2
0B04E:  MOVF   FF2,W
0B050:  MOVWF  00
0B052:  BCF    FF2.7
0B054:  MOVLB  F
0B056:  MOVLW  55
0B058:  MOVWF  FA7
0B05A:  MOVLW  AA
0B05C:  MOVWF  FA7
0B05E:  BSF    FA6.1
0B060:  BTFSC  FA6.1
0B062:  BRA    B060
0B064:  BCF    FA6.2
0B066:  MOVF   00,W
0B068:  IORWF  FF2,F
0B06A:  MOVLB  6
....................          } 
....................      } 
.................... //_--------------------------------------------------------------------------------------------------------------------------------------------------------     
....................  
.................... //_--------------------------------------------------------------------------------------------------------------------------------------------------------       
....................       if(Menu==44){ // Menu de Desfogue 
0B06C:  MOVF   xE1,W
0B06E:  SUBLW  2C
0B070:  BTFSS  FD8.2
0B072:  BRA    B282
....................       if(Nivel>6) 
0B074:  MOVF   xF1,F
0B076:  BNZ   B07E
0B078:  MOVF   xF0,W
0B07A:  SUBLW  06
0B07C:  BC    B084
....................          Nivel=6; 
0B07E:  CLRF   xF1
0B080:  MOVLW  06
0B082:  MOVWF  xF0
....................           
....................       if(visual==1) 
0B084:  MOVLB  4
0B086:  BTFSS  x65.4
0B088:  BRA    B0EA
....................       {          
....................          strcpy(Menus.Letra," Desfogue"); 
0B08A:  MOVLW  07
0B08C:  MOVWF  FEA
0B08E:  MOVLW  12
0B090:  MOVWF  FE9
0B092:  MOVFF  FF2,727
0B096:  BCF    FF2.7
0B098:  MOVLW  00
0B09A:  MOVLB  0
0B09C:  CALL   26BA
0B0A0:  TBLRD*-
0B0A2:  TBLRD*+
0B0A4:  MOVF   FF5,W
0B0A6:  MOVWF  FEE
0B0A8:  IORLW  00
0B0AA:  BNZ   B0A2
0B0AC:  MOVLB  7
0B0AE:  BTFSC  x27.7
0B0B0:  BSF    FF2.7
....................          displayMenu(Menus.Letra,0,0,1,2); 
0B0B2:  MOVLW  07
0B0B4:  MOVWF  x28
0B0B6:  MOVLW  12
0B0B8:  MOVWF  x27
0B0BA:  CLRF   x29
0B0BC:  CLRF   x2A
0B0BE:  MOVLW  01
0B0C0:  MOVWF  x2B
0B0C2:  MOVLW  02
0B0C4:  MOVWF  x2C
0B0C6:  MOVLB  0
0B0C8:  CALL   3F64
....................           
....................          displayTiempo(Nivel,50,40,0,2); 
0B0CC:  MOVFF  6F0,727
0B0D0:  MOVLW  32
0B0D2:  MOVLB  7
0B0D4:  MOVWF  x28
0B0D6:  MOVLW  28
0B0D8:  MOVWF  x29
0B0DA:  CLRF   x2A
0B0DC:  MOVLW  02
0B0DE:  MOVWF  x2B
0B0E0:  MOVLB  0
0B0E2:  CALL   5756
....................           
....................          visual=0; 
0B0E6:  MOVLB  4
0B0E8:  BCF    x65.4
....................       } 
....................        
....................        
....................          if(UP)//Si oprime hacia arriba 
0B0EA:  BSF    F92.4
0B0EC:  BTFSC  F80.4
0B0EE:  BRA    B114
....................          {   
....................             if(Nivel<6) 
0B0F0:  MOVLB  6
0B0F2:  MOVF   xF1,F
0B0F4:  BNZ   B116
0B0F6:  MOVF   xF0,W
0B0F8:  SUBLW  05
0B0FA:  BNC   B116
....................             { 
....................                delay_ms(30);Nivel++;visual=1; 
0B0FC:  MOVLW  1E
0B0FE:  MOVLB  7
0B100:  MOVWF  x2D
0B102:  MOVLB  0
0B104:  CALL   30A6
0B108:  MOVLB  6
0B10A:  INCF   xF0,F
0B10C:  BTFSC  FD8.2
0B10E:  INCF   xF1,F
0B110:  MOVLB  4
0B112:  BSF    x65.4
0B114:  MOVLB  6
....................             } 
....................          } 
....................                 
....................          if(DOWN)//Si oprime hacia abajo 
0B116:  BSF    F92.5
0B118:  BTFSC  F80.5
0B11A:  BRA    B142
....................          {   
....................             if(Nivel>1) 
0B11C:  MOVF   xF1,F
0B11E:  BNZ   B126
0B120:  MOVF   xF0,W
0B122:  SUBLW  01
0B124:  BC    B142
....................             { 
....................                delay_ms(30);Nivel--;visual=1;      
0B126:  MOVLW  1E
0B128:  MOVLB  7
0B12A:  MOVWF  x2D
0B12C:  MOVLB  0
0B12E:  CALL   30A6
0B132:  MOVLB  6
0B134:  MOVF   xF0,W
0B136:  BTFSC  FD8.2
0B138:  DECF   xF1,F
0B13A:  DECF   xF0,F
0B13C:  MOVLB  4
0B13E:  BSF    x65.4
0B140:  MOVLB  6
....................             } 
....................          } 
....................           
....................          if(desfoguelento==1) 
0B142:  MOVLB  4
0B144:  BTFSS  x65.5
0B146:  BRA    B1E4
....................          { 
....................             if(RIGHT)//Si oprime SET 
0B148:  BSF    F96.0
0B14A:  BTFSC  F84.0
0B14C:  BRA    B1E2
....................             {   
....................                write_eeprom(9,Nivel); 
0B14E:  CLRF   FAA
0B150:  MOVLW  09
0B152:  MOVWF  FA9
0B154:  MOVFF  6F0,FA8
0B158:  BCF    FA6.6
0B15A:  BCF    FA6.7
0B15C:  BSF    FA6.2
0B15E:  MOVF   FF2,W
0B160:  MOVWF  00
0B162:  BCF    FF2.7
0B164:  MOVLB  F
0B166:  MOVLW  55
0B168:  MOVWF  FA7
0B16A:  MOVLW  AA
0B16C:  MOVWF  FA7
0B16E:  BSF    FA6.1
0B170:  BTFSC  FA6.1
0B172:  BRA    B170
0B174:  BCF    FA6.2
0B176:  MOVF   00,W
0B178:  IORWF  FF2,F
....................                delay_ms(20); 
0B17A:  MOVLW  14
0B17C:  MOVLB  7
0B17E:  MOVWF  x2D
0B180:  MOVLB  0
0B182:  CALL   30A6
....................                Menu=20;glcd_rect(15, 18, 30, 53, NO, ON);tiempo_secado=0;glcd_fillScreen(OFF); 
0B186:  MOVLW  14
0B188:  MOVLB  6
0B18A:  MOVWF  xE1
0B18C:  MOVLW  0F
0B18E:  MOVLB  7
0B190:  MOVWF  x3D
0B192:  MOVLW  12
0B194:  MOVWF  x3E
0B196:  MOVLW  1E
0B198:  MOVWF  x3F
0B19A:  MOVLW  35
0B19C:  MOVWF  x40
0B19E:  CLRF   x41
0B1A0:  MOVLW  01
0B1A2:  MOVWF  x42
0B1A4:  MOVLB  0
0B1A6:  CALL   3EA2
0B1AA:  MOVLB  6
0B1AC:  CLRF   xE9
0B1AE:  MOVLB  7
0B1B0:  CLRF   x28
0B1B2:  MOVLB  0
0B1B4:  CALL   3936
....................                MuestraTiemposProgramados(); 
0B1B8:  CALL   58A6
....................                IniciaCiclo=ON; 
0B1BC:  MOVLB  4
0B1BE:  BSF    x60.2
....................                NivelSeleccionado=9990*Nivel; 
0B1C0:  MOVLW  27
0B1C2:  MOVLB  7
0B1C4:  MOVWF  x2D
0B1C6:  MOVLW  06
0B1C8:  MOVWF  x2C
0B1CA:  MOVFF  6F1,72F
0B1CE:  MOVFF  6F0,72E
0B1D2:  MOVLB  0
0B1D4:  CALL   3554
0B1D8:  MOVFF  02,6FB
0B1DC:  MOVFF  01,6FA
0B1E0:  MOVLB  4
....................             }       
....................          } 
....................          else 
0B1E2:  BRA    B280
....................          { 
....................             if(LEFT)//Si oprime boton de Toma. 
0B1E4:  BSF    F96.1
0B1E6:  BTFSC  F84.1
0B1E8:  BRA    B280
....................             { 
....................                if(Nivel<6) 
0B1EA:  MOVLB  6
0B1EC:  MOVF   xF1,F
0B1EE:  BNZ   B1FE
0B1F0:  MOVF   xF0,W
0B1F2:  SUBLW  05
0B1F4:  BNC   B1FE
....................                { 
....................                   desfoguelento=1; 
0B1F6:  MOVLB  4
0B1F8:  BSF    x65.5
....................                } 
....................                else 
0B1FA:  BRA    B202
0B1FC:  MOVLB  6
....................                { 
....................                   desfoguelento=0; 
0B1FE:  MOVLB  4
0B200:  BCF    x65.5
....................                } 
....................                delay_ms(700);Menu=11;glcd_fillscreen(OFF);Opcion=1;visual=1; 
0B202:  MOVLW  04
0B204:  MOVLB  7
0B206:  MOVWF  x27
0B208:  MOVLW  AF
0B20A:  MOVWF  x2D
0B20C:  MOVLB  0
0B20E:  CALL   30A6
0B212:  MOVLB  7
0B214:  DECFSZ x27,F
0B216:  BRA    B208
0B218:  MOVLW  0B
0B21A:  MOVLB  6
0B21C:  MOVWF  xE1
0B21E:  MOVLB  7
0B220:  CLRF   x28
0B222:  MOVLB  0
0B224:  CALL   3936
0B228:  MOVLW  01
0B22A:  MOVLB  6
0B22C:  MOVWF  xE7
0B22E:  MOVLB  4
0B230:  BSF    x65.4
....................                write_eeprom(9,Nivel); 
0B232:  CLRF   FAA
0B234:  MOVLW  09
0B236:  MOVWF  FA9
0B238:  MOVFF  6F0,FA8
0B23C:  BCF    FA6.6
0B23E:  BCF    FA6.7
0B240:  BSF    FA6.2
0B242:  MOVF   FF2,W
0B244:  MOVWF  00
0B246:  BCF    FF2.7
0B248:  MOVLB  F
0B24A:  MOVLW  55
0B24C:  MOVWF  FA7
0B24E:  MOVLW  AA
0B250:  MOVWF  FA7
0B252:  BSF    FA6.1
0B254:  BTFSC  FA6.1
0B256:  BRA    B254
0B258:  BCF    FA6.2
0B25A:  MOVF   00,W
0B25C:  IORWF  FF2,F
....................                NivelSeleccionado=9990*Nivel; 
0B25E:  MOVLW  27
0B260:  MOVLB  7
0B262:  MOVWF  x2D
0B264:  MOVLW  06
0B266:  MOVWF  x2C
0B268:  MOVFF  6F1,72F
0B26C:  MOVFF  6F0,72E
0B270:  MOVLB  0
0B272:  CALL   3554
0B276:  MOVFF  02,6FB
0B27A:  MOVFF  01,6FA
0B27E:  MOVLB  4
0B280:  MOVLB  6
....................             } 
....................          } 
....................      } 
.................... //_--------------------------------------------------------------------------------------------------------------------------------------------------------     
....................  
.................... //_-------------------------------------------------------------------------------------------------------------------------------------------------------- 
....................       if(Menu==45){ //Menu de Continuar 
0B282:  MOVF   xE1,W
0B284:  SUBLW  2D
0B286:  BTFSS  FD8.2
0B288:  BRA    B5B2
....................        
....................       if(visual==1) 
0B28A:  MOVLB  4
0B28C:  BTFSS  x65.4
0B28E:  BRA    B3F4
....................       { 
....................          strcpy(Menus.Letra,"Continuar"); 
0B290:  MOVLW  07
0B292:  MOVWF  FEA
0B294:  MOVLW  12
0B296:  MOVWF  FE9
0B298:  MOVFF  FF2,727
0B29C:  BCF    FF2.7
0B29E:  MOVLW  00
0B2A0:  MOVLB  0
0B2A2:  CALL   235A
0B2A6:  TBLRD*-
0B2A8:  TBLRD*+
0B2AA:  MOVF   FF5,W
0B2AC:  MOVWF  FEE
0B2AE:  IORLW  00
0B2B0:  BNZ   B2A8
0B2B2:  MOVLB  7
0B2B4:  BTFSC  x27.7
0B2B6:  BSF    FF2.7
....................          displayMenu(Menus.Letra,0,0,1,2); 
0B2B8:  MOVLW  07
0B2BA:  MOVWF  x28
0B2BC:  MOVLW  12
0B2BE:  MOVWF  x27
0B2C0:  CLRF   x29
0B2C2:  CLRF   x2A
0B2C4:  MOVLW  01
0B2C6:  MOVWF  x2B
0B2C8:  MOVLW  02
0B2CA:  MOVWF  x2C
0B2CC:  MOVLB  0
0B2CE:  CALL   3F64
....................           
....................          if(Opcion==2) 
0B2D2:  MOVLB  6
0B2D4:  MOVF   xE7,W
0B2D6:  SUBLW  02
0B2D8:  BNZ   B364
....................          {strcpy(Menus.Letra,"SI"); 
0B2DA:  MOVLW  07
0B2DC:  MOVWF  FEA
0B2DE:  MOVLW  12
0B2E0:  MOVWF  FE9
0B2E2:  MOVFF  FF2,727
0B2E6:  BCF    FF2.7
0B2E8:  MOVLW  00
0B2EA:  MOVLB  0
0B2EC:  CALL   26E2
0B2F0:  TBLRD*-
0B2F2:  TBLRD*+
0B2F4:  MOVF   FF5,W
0B2F6:  MOVWF  FEE
0B2F8:  IORLW  00
0B2FA:  BNZ   B2F2
0B2FC:  MOVLB  7
0B2FE:  BTFSC  x27.7
0B300:  BSF    FF2.7
....................          displayMenu(Menus.Letra,50,25,1,2); 
0B302:  MOVLW  07
0B304:  MOVWF  x28
0B306:  MOVLW  12
0B308:  MOVWF  x27
0B30A:  MOVLW  32
0B30C:  MOVWF  x29
0B30E:  MOVLW  19
0B310:  MOVWF  x2A
0B312:  MOVLW  01
0B314:  MOVWF  x2B
0B316:  MOVLW  02
0B318:  MOVWF  x2C
0B31A:  MOVLB  0
0B31C:  CALL   3F64
....................          strcpy(Menus.Letra,"NO"); 
0B320:  MOVLW  07
0B322:  MOVWF  FEA
0B324:  MOVLW  12
0B326:  MOVWF  FE9
0B328:  MOVFF  FF2,727
0B32C:  BCF    FF2.7
0B32E:  MOVLW  00
0B330:  CALL   2704
0B334:  TBLRD*-
0B336:  TBLRD*+
0B338:  MOVF   FF5,W
0B33A:  MOVWF  FEE
0B33C:  IORLW  00
0B33E:  BNZ   B336
0B340:  MOVLB  7
0B342:  BTFSC  x27.7
0B344:  BSF    FF2.7
....................          displayMenu(Menus.Letra,50,45,0,2); 
0B346:  MOVLW  07
0B348:  MOVWF  x28
0B34A:  MOVLW  12
0B34C:  MOVWF  x27
0B34E:  MOVLW  32
0B350:  MOVWF  x29
0B352:  MOVLW  2D
0B354:  MOVWF  x2A
0B356:  CLRF   x2B
0B358:  MOVLW  02
0B35A:  MOVWF  x2C
0B35C:  MOVLB  0
0B35E:  CALL   3F64
0B362:  MOVLB  6
....................          } 
....................          if(Opcion==1) 
0B364:  DECFSZ xE7,W
0B366:  BRA    B3F0
....................          {strcpy(Menus.Letra,"SI"); 
0B368:  MOVLW  07
0B36A:  MOVWF  FEA
0B36C:  MOVLW  12
0B36E:  MOVWF  FE9
0B370:  MOVFF  FF2,727
0B374:  BCF    FF2.7
0B376:  MOVLW  00
0B378:  MOVLB  0
0B37A:  CALL   26E2
0B37E:  TBLRD*-
0B380:  TBLRD*+
0B382:  MOVF   FF5,W
0B384:  MOVWF  FEE
0B386:  IORLW  00
0B388:  BNZ   B380
0B38A:  MOVLB  7
0B38C:  BTFSC  x27.7
0B38E:  BSF    FF2.7
....................          displayMenu(Menus.Letra,50,25,0,2); 
0B390:  MOVLW  07
0B392:  MOVWF  x28
0B394:  MOVLW  12
0B396:  MOVWF  x27
0B398:  MOVLW  32
0B39A:  MOVWF  x29
0B39C:  MOVLW  19
0B39E:  MOVWF  x2A
0B3A0:  CLRF   x2B
0B3A2:  MOVLW  02
0B3A4:  MOVWF  x2C
0B3A6:  MOVLB  0
0B3A8:  CALL   3F64
....................          strcpy(Menus.Letra,"NO"); 
0B3AC:  MOVLW  07
0B3AE:  MOVWF  FEA
0B3B0:  MOVLW  12
0B3B2:  MOVWF  FE9
0B3B4:  MOVFF  FF2,727
0B3B8:  BCF    FF2.7
0B3BA:  MOVLW  00
0B3BC:  CALL   2704
0B3C0:  TBLRD*-
0B3C2:  TBLRD*+
0B3C4:  MOVF   FF5,W
0B3C6:  MOVWF  FEE
0B3C8:  IORLW  00
0B3CA:  BNZ   B3C2
0B3CC:  MOVLB  7
0B3CE:  BTFSC  x27.7
0B3D0:  BSF    FF2.7
....................          displayMenu(Menus.Letra,50,45,1,2); 
0B3D2:  MOVLW  07
0B3D4:  MOVWF  x28
0B3D6:  MOVLW  12
0B3D8:  MOVWF  x27
0B3DA:  MOVLW  32
0B3DC:  MOVWF  x29
0B3DE:  MOVLW  2D
0B3E0:  MOVWF  x2A
0B3E2:  MOVLW  01
0B3E4:  MOVWF  x2B
0B3E6:  MOVLW  02
0B3E8:  MOVWF  x2C
0B3EA:  MOVLB  0
0B3EC:  CALL   3F64
....................          } 
....................          visual=0; 
0B3F0:  MOVLB  4
0B3F2:  BCF    x65.4
....................       } 
....................        
....................          
....................       if(UP)//Si oprime hacia arriba 
0B3F4:  BSF    F92.4
0B3F6:  BTFSC  F80.4
0B3F8:  BRA    B408
....................       { 
....................          if(Opcion<2) 
0B3FA:  MOVLB  6
0B3FC:  MOVF   xE7,W
0B3FE:  SUBLW  01
0B400:  BNC   B404
....................          { 
....................             Opcion++; 
0B402:  INCF   xE7,F
....................          } 
....................          visual=1; 
0B404:  MOVLB  4
0B406:  BSF    x65.4
....................       } 
....................              
....................       if(DOWN)//Si oprime hacia abajo 
0B408:  BSF    F92.5
0B40A:  BTFSC  F80.5
0B40C:  BRA    B41C
....................       {   
....................          if(Opcion>1) 
0B40E:  MOVLB  6
0B410:  MOVF   xE7,W
0B412:  SUBLW  01
0B414:  BC    B418
....................          { 
....................             Opcion--; 
0B416:  DECF   xE7,F
....................          }   
....................          visual=1; 
0B418:  MOVLB  4
0B41A:  BSF    x65.4
....................       } 
....................              
....................       if(RIGHT)//Si oprime SET 
0B41C:  BSF    F96.0
0B41E:  BTFSC  F84.0
0B420:  BRA    B57A
....................       {   
....................          if(Opcion==2) 
0B422:  MOVLB  6
0B424:  MOVF   xE7,W
0B426:  SUBLW  02
0B428:  BTFSS  FD8.2
0B42A:  BRA    B54A
....................          { 
....................             Menu=20;glcd_rect(15, 18, 30, 53, NO, ON);tiempo_secado=0;enable_interrupts(global);glcd_fillScreen(OFF); 
0B42C:  MOVLW  14
0B42E:  MOVWF  xE1
0B430:  MOVLW  0F
0B432:  MOVLB  7
0B434:  MOVWF  x3D
0B436:  MOVLW  12
0B438:  MOVWF  x3E
0B43A:  MOVLW  1E
0B43C:  MOVWF  x3F
0B43E:  MOVLW  35
0B440:  MOVWF  x40
0B442:  CLRF   x41
0B444:  MOVLW  01
0B446:  MOVWF  x42
0B448:  MOVLB  0
0B44A:  CALL   3EA2
0B44E:  MOVLB  6
0B450:  CLRF   xE9
0B452:  MOVLW  C0
0B454:  IORWF  FF2,F
0B456:  MOVLB  7
0B458:  CLRF   x28
0B45A:  MOVLB  0
0B45C:  CALL   3936
....................             strcpy(Menus.Letra,"Calentando"); 
0B460:  MOVLW  07
0B462:  MOVWF  FEA
0B464:  MOVLW  12
0B466:  MOVWF  FE9
0B468:  MOVFF  FF2,727
0B46C:  BCF    FF2.7
0B46E:  MOVLW  00
0B470:  CALL   2726
0B474:  TBLRD*-
0B476:  TBLRD*+
0B478:  MOVF   FF5,W
0B47A:  MOVWF  FEE
0B47C:  IORLW  00
0B47E:  BNZ   B476
0B480:  MOVLB  7
0B482:  BTFSC  x27.7
0B484:  BSF    FF2.7
....................             displayMenu(Menus.Letra,0,55,2,1); 
0B486:  MOVLW  07
0B488:  MOVWF  x28
0B48A:  MOVLW  12
0B48C:  MOVWF  x27
0B48E:  CLRF   x29
0B490:  MOVLW  37
0B492:  MOVWF  x2A
0B494:  MOVLW  02
0B496:  MOVWF  x2B
0B498:  MOVLW  01
0B49A:  MOVWF  x2C
0B49C:  MOVLB  0
0B49E:  CALL   3F64
....................             strcpy(Menus.Letra,"T est:");displayMenu(Menus.Letra,0,0,2,1); 
0B4A2:  MOVLW  07
0B4A4:  MOVWF  FEA
0B4A6:  MOVLW  12
0B4A8:  MOVWF  FE9
0B4AA:  MOVFF  FF2,727
0B4AE:  BCF    FF2.7
0B4B0:  MOVLW  00
0B4B2:  CALL   2750
0B4B6:  TBLRD*-
0B4B8:  TBLRD*+
0B4BA:  MOVF   FF5,W
0B4BC:  MOVWF  FEE
0B4BE:  IORLW  00
0B4C0:  BNZ   B4B8
0B4C2:  MOVLB  7
0B4C4:  BTFSC  x27.7
0B4C6:  BSF    FF2.7
0B4C8:  MOVLW  07
0B4CA:  MOVWF  x28
0B4CC:  MOVLW  12
0B4CE:  MOVWF  x27
0B4D0:  CLRF   x29
0B4D2:  CLRF   x2A
0B4D4:  MOVLW  02
0B4D6:  MOVWF  x2B
0B4D8:  MOVLW  01
0B4DA:  MOVWF  x2C
0B4DC:  MOVLB  0
0B4DE:  CALL   3F64
....................             strcpy(Menus.Letra,"T sec:");displayMenu(Menus.Letra,0,8,2,1); 
0B4E2:  MOVLW  07
0B4E4:  MOVWF  FEA
0B4E6:  MOVLW  12
0B4E8:  MOVWF  FE9
0B4EA:  MOVFF  FF2,727
0B4EE:  BCF    FF2.7
0B4F0:  MOVLW  00
0B4F2:  CALL   2776
0B4F6:  TBLRD*-
0B4F8:  TBLRD*+
0B4FA:  MOVF   FF5,W
0B4FC:  MOVWF  FEE
0B4FE:  IORLW  00
0B500:  BNZ   B4F8
0B502:  MOVLB  7
0B504:  BTFSC  x27.7
0B506:  BSF    FF2.7
0B508:  MOVLW  07
0B50A:  MOVWF  x28
0B50C:  MOVLW  12
0B50E:  MOVWF  x27
0B510:  CLRF   x29
0B512:  MOVLW  08
0B514:  MOVWF  x2A
0B516:  MOVLW  02
0B518:  MOVWF  x2B
0B51A:  MOVLW  01
0B51C:  MOVWF  x2C
0B51E:  MOVLB  0
0B520:  CALL   3F64
....................             MuestraTiemposProgramados(); 
0B524:  CALL   58A6
....................             if(Nivel<6) 
0B528:  MOVLB  6
0B52A:  MOVF   xF1,F
0B52C:  BNZ   B53C
0B52E:  MOVF   xF0,W
0B530:  SUBLW  05
0B532:  BNC   B53C
....................                { 
....................                   desfoguelento=1; 
0B534:  MOVLB  4
0B536:  BSF    x65.5
....................                } 
....................                else 
0B538:  BRA    B540
0B53A:  MOVLB  6
....................                { 
....................                   desfoguelento=0; 
0B53C:  MOVLB  4
0B53E:  BCF    x65.5
....................                } 
....................                IniciaCiclo=ON; 
0B540:  BSF    x60.2
....................                enable_interrupts(global); 
0B542:  MOVLW  C0
0B544:  IORWF  FF2,F
....................          } 
....................          else 
0B546:  BRA    B57A
0B548:  MOVLB  6
....................          { 
....................             delay_ms(700);Menu=8;glcd_fillscreen(OFF);Opcion=1;visual=1; 
0B54A:  MOVLW  04
0B54C:  MOVLB  7
0B54E:  MOVWF  x27
0B550:  MOVLW  AF
0B552:  MOVWF  x2D
0B554:  MOVLB  0
0B556:  CALL   30A6
0B55A:  MOVLB  7
0B55C:  DECFSZ x27,F
0B55E:  BRA    B550
0B560:  MOVLW  08
0B562:  MOVLB  6
0B564:  MOVWF  xE1
0B566:  MOVLB  7
0B568:  CLRF   x28
0B56A:  MOVLB  0
0B56C:  CALL   3936
0B570:  MOVLW  01
0B572:  MOVLB  6
0B574:  MOVWF  xE7
0B576:  MOVLB  4
0B578:  BSF    x65.4
....................          }          
....................       }  
....................                    
....................       if(LEFT)//Si oprime boton de Toma. 
0B57A:  BSF    F96.1
0B57C:  BTFSC  F84.1
0B57E:  BRA    B5B0
....................       { 
....................          delay_ms(700);Menu=11;glcd_fillscreen(OFF);Opcion=1;visual=1; 
0B580:  MOVLW  04
0B582:  MOVLB  7
0B584:  MOVWF  x27
0B586:  MOVLW  AF
0B588:  MOVWF  x2D
0B58A:  MOVLB  0
0B58C:  CALL   30A6
0B590:  MOVLB  7
0B592:  DECFSZ x27,F
0B594:  BRA    B586
0B596:  MOVLW  0B
0B598:  MOVLB  6
0B59A:  MOVWF  xE1
0B59C:  MOVLB  7
0B59E:  CLRF   x28
0B5A0:  MOVLB  0
0B5A2:  CALL   3936
0B5A6:  MOVLW  01
0B5A8:  MOVLB  6
0B5AA:  MOVWF  xE7
0B5AC:  MOVLB  4
0B5AE:  BSF    x65.4
0B5B0:  MOVLB  6
....................       } 
....................      
....................      
....................     } 
.................... //_--------------------------------------------------------------------------------------------------------------------------------------------------------        
....................  
.................... //_--------------------------------------------------------------------------------------------------------------------------------------------------------     
....................    if(Menu==20){ // Este es el menu de cuando el proceso se inicio. 
0B5B2:  MOVF   xE1,W
0B5B4:  SUBLW  14
0B5B6:  BTFSS  FD8.2
0B5B8:  GOTO   C732
....................     
....................    if(RIGHT){ 
0B5BC:  BSF    F96.0
0B5BE:  BTFSC  F84.0
0B5C0:  BRA    B5F0
....................       glcd_init(ON); 
0B5C2:  MOVLW  01
0B5C4:  MOVLB  7
0B5C6:  MOVWF  x27
0B5C8:  MOVLB  0
0B5CA:  CALL   3A48
....................       delay_ms(1000); 
0B5CE:  MOVLW  04
0B5D0:  MOVLB  7
0B5D2:  MOVWF  x27
0B5D4:  MOVLW  FA
0B5D6:  MOVWF  x2D
0B5D8:  MOVLB  0
0B5DA:  CALL   30A6
0B5DE:  MOVLB  7
0B5E0:  DECFSZ x27,F
0B5E2:  BRA    B5D4
....................       PosVacio=OFF; 
0B5E4:  MOVLB  4
0B5E6:  BCF    x63.4
....................       PosCalentando=OFF; 
0B5E8:  BCF    x63.5
....................       PosEsterilizando=OFF; 
0B5EA:  BCF    x63.6
....................       PosDesfogando=OFF; 
0B5EC:  BCF    x63.7
....................       PosSecando=OFF; 
0B5EE:  BCF    x64.0
....................    } 
....................     
....................    if(TiempoCiclo>5400){ 
0B5F0:  MOVLB  4
0B5F2:  MOVF   x67,W
0B5F4:  SUBLW  14
0B5F6:  BC    B606
0B5F8:  XORLW  FF
0B5FA:  BNZ   B602
0B5FC:  MOVF   x66,W
0B5FE:  SUBLW  18
0B600:  BC    B606
....................       AlarmaTiempoProlongado=ON; 
0B602:  BSF    x5D.0
....................    }else{ 
0B604:  BRA    B608
....................       AlarmaTiempoProlongado=OFF; 
0B606:  BCF    x5D.0
....................    } 
....................     
....................    if(Temperatura>Setpoint+3.0){ 
0B608:  MOVLB  7
0B60A:  CLRF   x2E
0B60C:  MOVFF  6E5,72D
0B610:  MOVLB  0
0B612:  CALL   30CE
0B616:  BCF    FD8.1
0B618:  MOVFF  03,72F
0B61C:  MOVFF  02,72E
0B620:  MOVFF  01,72D
0B624:  MOVFF  00,72C
0B628:  MOVLB  7
0B62A:  CLRF   x33
0B62C:  CLRF   x32
0B62E:  MOVLW  40
0B630:  MOVWF  x31
0B632:  MOVLW  80
0B634:  MOVWF  x30
0B636:  MOVLB  0
0B638:  CALL   3262
0B63C:  MOVFF  03,72B
0B640:  MOVFF  02,72A
0B644:  MOVFF  01,729
0B648:  MOVFF  00,728
0B64C:  MOVFF  6C4,72F
0B650:  MOVFF  6C3,72E
0B654:  MOVFF  6C2,72D
0B658:  MOVFF  6C1,72C
0B65C:  CALL   34DA
0B660:  BNC   B666
....................       AlarmaSobreTemperatura=ON; 
0B662:  MOVLB  4
0B664:  BSF    x5D.1
....................    } 
....................     
....................    if(TiempoLlenado>600){ 
0B666:  MOVLB  4
0B668:  MOVF   x69,W
0B66A:  SUBLW  01
0B66C:  BC    B67C
0B66E:  XORLW  FF
0B670:  BNZ   B678
0B672:  MOVF   x68,W
0B674:  SUBLW  58
0B676:  BC    B67C
....................       AlarmaLlenado=ON; 
0B678:  BSF    x5D.2
....................    }else{ 
0B67A:  BRA    B67E
....................       AlarmaLlenado=OFF; 
0B67C:  BCF    x5D.2
....................    } 
....................     
....................    if(!TERM){ 
0B67E:  BSF    F93.7
0B680:  BTFSS  F81.7
0B682:  BRA    B688
....................       AlarmaTermostato=ON; 
0B684:  BSF    x5D.3
....................    }else{ 
0B686:  BRA    B68A
....................       AlarmaTermostato=OFF; 
0B688:  BCF    x5D.3
....................    } 
....................     
....................    if(!DOOR){ 
0B68A:  BSF    F96.2
0B68C:  BTFSS  F84.2
0B68E:  BRA    B694
....................       AlarmaPuerta=ON; 
0B690:  BSF    x5D.4
....................    }else{ 
0B692:  BRA    B696
....................       AlarmaPuerta=OFF; 
0B694:  BCF    x5D.4
....................    } 
....................  
....................    if(!STOP){ 
0B696:  BSF    F93.6
0B698:  BTFSS  F81.6
0B69A:  BRA    B69E
....................       AlarmaEmergencia=ON; 
0B69C:  BSF    x5D.5
....................    } 
....................     
....................    if(AlarmaPuerta || AlarmaTermostato || AlarmaLlenado || AlarmaSobreTemperatura || AlarmaTiempoProlongado || AlarmaEmergencia || AlarmaVacio || AlarmaBomba){ 
0B69E:  BTFSC  x5D.4
0B6A0:  BRA    B6BE
0B6A2:  BTFSC  x5D.3
0B6A4:  BRA    B6BE
0B6A6:  BTFSC  x5D.2
0B6A8:  BRA    B6BE
0B6AA:  BTFSC  x5D.1
0B6AC:  BRA    B6BE
0B6AE:  BTFSC  x5D.0
0B6B0:  BRA    B6BE
0B6B2:  BTFSC  x5D.5
0B6B4:  BRA    B6BE
0B6B6:  BTFSC  x5D.6
0B6B8:  BRA    B6BE
0B6BA:  BTFSS  x5D.7
0B6BC:  BRA    BB2C
....................       if(AlarmaEmergencia) 
0B6BE:  BTFSS  x5D.5
0B6C0:  BRA    B750
....................       { 
....................          BorraStatus(); 
0B6C2:  MOVLB  0
0B6C4:  CALL   59E6
....................          strcpy(Menus.Letra,"Parada Emergencia");displayMenu(Menus.Letra,0,55,2,1); 
0B6C8:  MOVLW  07
0B6CA:  MOVWF  FEA
0B6CC:  MOVLW  12
0B6CE:  MOVWF  FE9
0B6D0:  MOVFF  FF2,727
0B6D4:  BCF    FF2.7
0B6D6:  MOVLW  00
0B6D8:  CALL   279C
0B6DC:  TBLRD*-
0B6DE:  TBLRD*+
0B6E0:  MOVF   FF5,W
0B6E2:  MOVWF  FEE
0B6E4:  IORLW  00
0B6E6:  BNZ   B6DE
0B6E8:  MOVLB  7
0B6EA:  BTFSC  x27.7
0B6EC:  BSF    FF2.7
0B6EE:  MOVLW  07
0B6F0:  MOVWF  x28
0B6F2:  MOVLW  12
0B6F4:  MOVWF  x27
0B6F6:  CLRF   x29
0B6F8:  MOVLW  37
0B6FA:  MOVWF  x2A
0B6FC:  MOVLW  02
0B6FE:  MOVWF  x2B
0B700:  MOVLW  01
0B702:  MOVWF  x2C
0B704:  MOVLB  0
0B706:  CALL   3F64
....................          SSR2=OFF; 
0B70A:  MOVLB  4
0B70C:  BCF    x64.5
....................          SSR3=OFF; 
0B70E:  BCF    x64.6
....................          EVVacio=OFF; 
0B710:  BCF    x64.2
....................          Desfogue_on; 
0B712:  BCF    F8B.5
0B714:  BCF    F94.5
....................          EVAire=OFF;                      
0B716:  BCF    x64.3
....................          Paso_off; 
0B718:  BSF    F8B.6
0B71A:  BCF    F94.6
....................          EVAgua=OFF; 
0B71C:  BCF    x64.4
....................          EVAireBomba=OFF; 
0B71E:  BCF    x65.0
....................          SSR_off; 
0B720:  BSF    F8B.2
0B722:  BCF    F94.2
....................          if(!BorraCuadro){ 
0B724:  BTFSC  x63.3
0B726:  BRA    B74E
....................             glcd_fillscreen(OFF); 
0B728:  MOVLB  7
0B72A:  CLRF   x28
0B72C:  MOVLB  0
0B72E:  CALL   3936
....................             PosVacio=OFF; 
0B732:  MOVLB  4
0B734:  BCF    x63.4
....................             PosCalentando=OFF; 
0B736:  BCF    x63.5
....................             PosEsterilizando=OFF; 
0B738:  BCF    x63.6
....................             PosDesfogando=OFF; 
0B73A:  BCF    x63.7
....................             PosSecando=OFF; 
0B73C:  BCF    x64.0
....................             glcd_imagen(6); 
0B73E:  MOVLW  06
0B740:  MOVLB  7
0B742:  MOVWF  x28
0B744:  MOVLB  0
0B746:  CALL   509C
....................             BorraCuadro=ON; 
0B74A:  MOVLB  4
0B74C:  BSF    x63.3
....................          } 
....................       }else{ 
0B74E:  BRA    BB28
....................          if(AlarmaPuerta) 
0B750:  BTFSS  x5D.4
0B752:  BRA    B7E2
....................          { 
....................             BorraStatus(); 
0B754:  MOVLB  0
0B756:  CALL   59E6
....................             strcpy(Menus.Letra,"Puerta Abierta");displayMenu(Menus.Letra,0,55,2,1); 
0B75A:  MOVLW  07
0B75C:  MOVWF  FEA
0B75E:  MOVLW  12
0B760:  MOVWF  FE9
0B762:  MOVFF  FF2,727
0B766:  BCF    FF2.7
0B768:  MOVLW  00
0B76A:  CALL   27CC
0B76E:  TBLRD*-
0B770:  TBLRD*+
0B772:  MOVF   FF5,W
0B774:  MOVWF  FEE
0B776:  IORLW  00
0B778:  BNZ   B770
0B77A:  MOVLB  7
0B77C:  BTFSC  x27.7
0B77E:  BSF    FF2.7
0B780:  MOVLW  07
0B782:  MOVWF  x28
0B784:  MOVLW  12
0B786:  MOVWF  x27
0B788:  CLRF   x29
0B78A:  MOVLW  37
0B78C:  MOVWF  x2A
0B78E:  MOVLW  02
0B790:  MOVWF  x2B
0B792:  MOVLW  01
0B794:  MOVWF  x2C
0B796:  MOVLB  0
0B798:  CALL   3F64
....................             SSR2=OFF; 
0B79C:  MOVLB  4
0B79E:  BCF    x64.5
....................             SSR3=OFF; 
0B7A0:  BCF    x64.6
....................             EVVacio=OFF; 
0B7A2:  BCF    x64.2
....................             Desfogue_on; 
0B7A4:  BCF    F8B.5
0B7A6:  BCF    F94.5
....................             EVAire=OFF;                      
0B7A8:  BCF    x64.3
....................             Paso_off; 
0B7AA:  BSF    F8B.6
0B7AC:  BCF    F94.6
....................             EVAgua=OFF; 
0B7AE:  BCF    x64.4
....................             EVAireBomba=OFF; 
0B7B0:  BCF    x65.0
....................             SSR_off; 
0B7B2:  BSF    F8B.2
0B7B4:  BCF    F94.2
....................             if(!BorraCuadro){ 
0B7B6:  BTFSC  x63.3
0B7B8:  BRA    B7E0
....................                glcd_fillscreen(OFF); 
0B7BA:  MOVLB  7
0B7BC:  CLRF   x28
0B7BE:  MOVLB  0
0B7C0:  CALL   3936
....................                PosVacio=OFF; 
0B7C4:  MOVLB  4
0B7C6:  BCF    x63.4
....................                PosCalentando=OFF; 
0B7C8:  BCF    x63.5
....................                PosEsterilizando=OFF; 
0B7CA:  BCF    x63.6
....................                PosDesfogando=OFF; 
0B7CC:  BCF    x63.7
....................                PosSecando=OFF; 
0B7CE:  BCF    x64.0
....................                glcd_imagen(6); 
0B7D0:  MOVLW  06
0B7D2:  MOVLB  7
0B7D4:  MOVWF  x28
0B7D6:  MOVLB  0
0B7D8:  CALL   509C
....................                BorraCuadro=ON; 
0B7DC:  MOVLB  4
0B7DE:  BSF    x63.3
....................             } 
....................          }else{ 
0B7E0:  BRA    BB28
....................             if(AlarmaLlenado) 
0B7E2:  BTFSS  x5D.2
0B7E4:  BRA    B874
....................             { 
....................                BorraStatus(); 
0B7E6:  MOVLB  0
0B7E8:  CALL   59E6
....................                strcpy(Menus.Letra,"Error:EA01");displayMenu(Menus.Letra,0,55,2,1); 
0B7EC:  MOVLW  07
0B7EE:  MOVWF  FEA
0B7F0:  MOVLW  12
0B7F2:  MOVWF  FE9
0B7F4:  MOVFF  FF2,727
0B7F8:  BCF    FF2.7
0B7FA:  MOVLW  00
0B7FC:  CALL   27FA
0B800:  TBLRD*-
0B802:  TBLRD*+
0B804:  MOVF   FF5,W
0B806:  MOVWF  FEE
0B808:  IORLW  00
0B80A:  BNZ   B802
0B80C:  MOVLB  7
0B80E:  BTFSC  x27.7
0B810:  BSF    FF2.7
0B812:  MOVLW  07
0B814:  MOVWF  x28
0B816:  MOVLW  12
0B818:  MOVWF  x27
0B81A:  CLRF   x29
0B81C:  MOVLW  37
0B81E:  MOVWF  x2A
0B820:  MOVLW  02
0B822:  MOVWF  x2B
0B824:  MOVLW  01
0B826:  MOVWF  x2C
0B828:  MOVLB  0
0B82A:  CALL   3F64
....................                SSR2=OFF; 
0B82E:  MOVLB  4
0B830:  BCF    x64.5
....................                SSR3=OFF; 
0B832:  BCF    x64.6
....................                EVVacio=OFF; 
0B834:  BCF    x64.2
....................                Desfogue_off; 
0B836:  BSF    F8B.5
0B838:  BCF    F94.5
....................                EVAire=OFF;                      
0B83A:  BCF    x64.3
....................                Paso_off; 
0B83C:  BSF    F8B.6
0B83E:  BCF    F94.6
....................                EVAgua=OFF; 
0B840:  BCF    x64.4
....................                EVAireBomba=OFF; 
0B842:  BCF    x65.0
....................                SSR_off; 
0B844:  BSF    F8B.2
0B846:  BCF    F94.2
....................                if(!BorraCuadro){ 
0B848:  BTFSC  x63.3
0B84A:  BRA    B872
....................                   glcd_fillscreen(OFF); 
0B84C:  MOVLB  7
0B84E:  CLRF   x28
0B850:  MOVLB  0
0B852:  CALL   3936
....................                   PosVacio=OFF; 
0B856:  MOVLB  4
0B858:  BCF    x63.4
....................                   PosCalentando=OFF; 
0B85A:  BCF    x63.5
....................                   PosEsterilizando=OFF; 
0B85C:  BCF    x63.6
....................                   PosDesfogando=OFF; 
0B85E:  BCF    x63.7
....................                   PosSecando=OFF; 
0B860:  BCF    x64.0
....................                   glcd_imagen(6); 
0B862:  MOVLW  06
0B864:  MOVLB  7
0B866:  MOVWF  x28
0B868:  MOVLB  0
0B86A:  CALL   509C
....................                   BorraCuadro=ON; 
0B86E:  MOVLB  4
0B870:  BSF    x63.3
....................                } 
....................             }else{ 
0B872:  BRA    BB28
....................                if(AlarmaTermostato) // Alarma de Termostato 
0B874:  BTFSS  x5D.3
0B876:  BRA    B8FA
....................                { 
....................                   BorraStatus(); 
0B878:  MOVLB  0
0B87A:  CALL   59E6
....................                   tiempo_esterilizacion=0;tiempo_secado=0;          
0B87E:  MOVLB  6
0B880:  CLRF   xE8
0B882:  CLRF   xE9
....................                   strcpy(Menus.Letra,"Error:EA02");displayMenu(Menus.Letra,0,55,2,1);           
0B884:  MOVLW  07
0B886:  MOVWF  FEA
0B888:  MOVLW  12
0B88A:  MOVWF  FE9
0B88C:  MOVFF  FF2,727
0B890:  BCF    FF2.7
0B892:  MOVLW  00
0B894:  MOVLB  0
0B896:  CALL   2824
0B89A:  TBLRD*-
0B89C:  TBLRD*+
0B89E:  MOVF   FF5,W
0B8A0:  MOVWF  FEE
0B8A2:  IORLW  00
0B8A4:  BNZ   B89C
0B8A6:  MOVLB  7
0B8A8:  BTFSC  x27.7
0B8AA:  BSF    FF2.7
0B8AC:  MOVLW  07
0B8AE:  MOVWF  x28
0B8B0:  MOVLW  12
0B8B2:  MOVWF  x27
0B8B4:  CLRF   x29
0B8B6:  MOVLW  37
0B8B8:  MOVWF  x2A
0B8BA:  MOVLW  02
0B8BC:  MOVWF  x2B
0B8BE:  MOVLW  01
0B8C0:  MOVWF  x2C
0B8C2:  MOVLB  0
0B8C4:  CALL   3F64
....................                   //AguaIn_off; 
....................                   SSR_off; 
0B8C8:  BSF    F8B.2
0B8CA:  BCF    F94.2
....................                   if(!BorraCuadro){ 
0B8CC:  MOVLB  4
0B8CE:  BTFSC  x63.3
0B8D0:  BRA    B8F8
....................                      glcd_fillscreen(OFF); 
0B8D2:  MOVLB  7
0B8D4:  CLRF   x28
0B8D6:  MOVLB  0
0B8D8:  CALL   3936
....................                      PosVacio=OFF; 
0B8DC:  MOVLB  4
0B8DE:  BCF    x63.4
....................                      PosCalentando=OFF; 
0B8E0:  BCF    x63.5
....................                      PosEsterilizando=OFF; 
0B8E2:  BCF    x63.6
....................                      PosDesfogando=OFF; 
0B8E4:  BCF    x63.7
....................                      PosSecando=OFF; 
0B8E6:  BCF    x64.0
....................                      glcd_imagen(6); 
0B8E8:  MOVLW  06
0B8EA:  MOVLB  7
0B8EC:  MOVWF  x28
0B8EE:  MOVLB  0
0B8F0:  CALL   509C
....................                      BorraCuadro=ON; 
0B8F4:  MOVLB  4
0B8F6:  BSF    x63.3
....................                   } 
....................                }else{ 
0B8F8:  BRA    BB28
....................                   if(AlarmaSobreTemperatura) // Alarma de Sobre Temperatura 
0B8FA:  BTFSS  x5D.1
0B8FC:  BRA    B984
....................                   { 
....................                      BorraStatus(); 
0B8FE:  MOVLB  0
0B900:  CALL   59E6
....................                      tiempo_esterilizacion=0;tiempo_secado=0;          
0B904:  MOVLB  6
0B906:  CLRF   xE8
0B908:  CLRF   xE9
....................                      strcpy(Menus.Letra,"Error:ET02");displayMenu(Menus.Letra,0,55,2,1); 
0B90A:  MOVLW  07
0B90C:  MOVWF  FEA
0B90E:  MOVLW  12
0B910:  MOVWF  FE9
0B912:  MOVFF  FF2,727
0B916:  BCF    FF2.7
0B918:  MOVLW  00
0B91A:  MOVLB  0
0B91C:  CALL   284E
0B920:  TBLRD*-
0B922:  TBLRD*+
0B924:  MOVF   FF5,W
0B926:  MOVWF  FEE
0B928:  IORLW  00
0B92A:  BNZ   B922
0B92C:  MOVLB  7
0B92E:  BTFSC  x27.7
0B930:  BSF    FF2.7
0B932:  MOVLW  07
0B934:  MOVWF  x28
0B936:  MOVLW  12
0B938:  MOVWF  x27
0B93A:  CLRF   x29
0B93C:  MOVLW  37
0B93E:  MOVWF  x2A
0B940:  MOVLW  02
0B942:  MOVWF  x2B
0B944:  MOVLW  01
0B946:  MOVWF  x2C
0B948:  MOVLB  0
0B94A:  CALL   3F64
....................                      Desfogue_on; 
0B94E:  BCF    F8B.5
0B950:  BCF    F94.5
....................                      //AguaIn_off; 
....................                      SSR_off; 
0B952:  BSF    F8B.2
0B954:  BCF    F94.2
....................                      if(!BorraCuadro){ 
0B956:  MOVLB  4
0B958:  BTFSC  x63.3
0B95A:  BRA    B982
....................                         glcd_fillscreen(OFF); 
0B95C:  MOVLB  7
0B95E:  CLRF   x28
0B960:  MOVLB  0
0B962:  CALL   3936
....................                         PosVacio=OFF; 
0B966:  MOVLB  4
0B968:  BCF    x63.4
....................                         PosCalentando=OFF; 
0B96A:  BCF    x63.5
....................                         PosEsterilizando=OFF; 
0B96C:  BCF    x63.6
....................                         PosDesfogando=OFF; 
0B96E:  BCF    x63.7
....................                         PosSecando=OFF; 
0B970:  BCF    x64.0
....................                         glcd_imagen(6); 
0B972:  MOVLW  06
0B974:  MOVLB  7
0B976:  MOVWF  x28
0B978:  MOVLB  0
0B97A:  CALL   509C
....................                         BorraCuadro=ON; 
0B97E:  MOVLB  4
0B980:  BSF    x63.3
....................                      } 
....................                   }else{ 
0B982:  BRA    BB28
....................                      if(AlarmaTiempoProlongado) // Alarma de Error de Tiempo: Error por exceso de tiempo de calentamiento. 
0B984:  BTFSS  x5D.0
0B986:  BRA    BA06
....................                      { 
....................                         BorraStatus(); 
0B988:  MOVLB  0
0B98A:  CALL   59E6
....................                         strcpy(Menus.Letra,"Error:ET01");displayMenu(Menus.Letra,0,55,2,1); 
0B98E:  MOVLW  07
0B990:  MOVWF  FEA
0B992:  MOVLW  12
0B994:  MOVWF  FE9
0B996:  MOVFF  FF2,727
0B99A:  BCF    FF2.7
0B99C:  MOVLW  00
0B99E:  CALL   2878
0B9A2:  TBLRD*-
0B9A4:  TBLRD*+
0B9A6:  MOVF   FF5,W
0B9A8:  MOVWF  FEE
0B9AA:  IORLW  00
0B9AC:  BNZ   B9A4
0B9AE:  MOVLB  7
0B9B0:  BTFSC  x27.7
0B9B2:  BSF    FF2.7
0B9B4:  MOVLW  07
0B9B6:  MOVWF  x28
0B9B8:  MOVLW  12
0B9BA:  MOVWF  x27
0B9BC:  CLRF   x29
0B9BE:  MOVLW  37
0B9C0:  MOVWF  x2A
0B9C2:  MOVLW  02
0B9C4:  MOVWF  x2B
0B9C6:  MOVLW  01
0B9C8:  MOVWF  x2C
0B9CA:  MOVLB  0
0B9CC:  CALL   3F64
....................                         Desfogue_on; 
0B9D0:  BCF    F8B.5
0B9D2:  BCF    F94.5
....................                         //AguaIn_off; 
....................                         SSR_off; 
0B9D4:  BSF    F8B.2
0B9D6:  BCF    F94.2
....................                         if(!BorraCuadro){ 
0B9D8:  MOVLB  4
0B9DA:  BTFSC  x63.3
0B9DC:  BRA    BA04
....................                            glcd_fillscreen(OFF); 
0B9DE:  MOVLB  7
0B9E0:  CLRF   x28
0B9E2:  MOVLB  0
0B9E4:  CALL   3936
....................                            PosVacio=OFF; 
0B9E8:  MOVLB  4
0B9EA:  BCF    x63.4
....................                            PosCalentando=OFF; 
0B9EC:  BCF    x63.5
....................                            PosEsterilizando=OFF; 
0B9EE:  BCF    x63.6
....................                            PosDesfogando=OFF; 
0B9F0:  BCF    x63.7
....................                            PosSecando=OFF; 
0B9F2:  BCF    x64.0
....................                            glcd_imagen(6); 
0B9F4:  MOVLW  06
0B9F6:  MOVLB  7
0B9F8:  MOVWF  x28
0B9FA:  MOVLB  0
0B9FC:  CALL   509C
....................                            BorraCuadro=ON; 
0BA00:  MOVLB  4
0BA02:  BSF    x63.3
....................                         } 
....................                      }else{ 
0BA04:  BRA    BB28
....................                         if(AlarmaVacio) // Alarma de Tiempo prolongado para hacer vacio 
0BA06:  BTFSS  x5D.6
0BA08:  BRA    BB28
....................                         { 
....................                            BorraStatus(); 
0BA0A:  MOVLB  0
0BA0C:  CALL   59E6
....................                            strcpy(Menus.Letra,"Error Ciclo");displayMenu(Menus.Letra,0,55,2,1); 
0BA10:  MOVLW  07
0BA12:  MOVWF  FEA
0BA14:  MOVLW  12
0BA16:  MOVWF  FE9
0BA18:  MOVFF  FF2,727
0BA1C:  BCF    FF2.7
0BA1E:  MOVLW  00
0BA20:  CALL   28A2
0BA24:  TBLRD*-
0BA26:  TBLRD*+
0BA28:  MOVF   FF5,W
0BA2A:  MOVWF  FEE
0BA2C:  IORLW  00
0BA2E:  BNZ   BA26
0BA30:  MOVLB  7
0BA32:  BTFSC  x27.7
0BA34:  BSF    FF2.7
0BA36:  MOVLW  07
0BA38:  MOVWF  x28
0BA3A:  MOVLW  12
0BA3C:  MOVWF  x27
0BA3E:  CLRF   x29
0BA40:  MOVLW  37
0BA42:  MOVWF  x2A
0BA44:  MOVLW  02
0BA46:  MOVWF  x2B
0BA48:  MOVLW  01
0BA4A:  MOVWF  x2C
0BA4C:  MOVLB  0
0BA4E:  CALL   3F64
....................                            Vacio=ON; 
0BA52:  MOVLB  4
0BA54:  BSF    x62.4
....................                            SSR2=OFF; 
0BA56:  BCF    x64.5
....................                            SSR3=OFF; 
0BA58:  BCF    x64.6
....................                            EVVacio=OFF; 
0BA5A:  BCF    x64.2
....................                            Desfogue_on; 
0BA5C:  BCF    F8B.5
0BA5E:  BCF    F94.5
....................                            EVAire=ON;                      
0BA60:  BSF    x64.3
....................                            EVAgua=OFF; 
0BA62:  BCF    x64.4
....................                            EVAireBomba=OFF; 
0BA64:  BCF    x65.0
....................                            IniciaVacio=OFF; 
0BA66:  BCF    x62.6
....................                            //AguaIn_off; 
....................                            SSR_off; 
0BA68:  BSF    F8B.2
0BA6A:  BCF    F94.2
....................                            if(!BorraCuadro){ 
0BA6C:  BTFSC  x63.3
0BA6E:  BRA    BA98
....................                               glcd_fillscreen(OFF); 
0BA70:  MOVLB  7
0BA72:  CLRF   x28
0BA74:  MOVLB  0
0BA76:  CALL   3936
....................                               PosVacio=OFF; 
0BA7A:  MOVLB  4
0BA7C:  BCF    x63.4
....................                               PosCalentando=OFF; 
0BA7E:  BCF    x63.5
....................                               PosEsterilizando=OFF; 
0BA80:  BCF    x63.6
....................                               PosDesfogando=OFF; 
0BA82:  BCF    x63.7
....................                               PosSecando=OFF; 
0BA84:  BCF    x64.0
....................                               glcd_imagen(6); 
0BA86:  MOVLW  06
0BA88:  MOVLB  7
0BA8A:  MOVWF  x28
0BA8C:  MOVLB  0
0BA8E:  CALL   509C
....................                               BorraCuadro=ON; 
0BA92:  MOVLB  4
0BA94:  BSF    x63.3
....................                            }else{ 
0BA96:  BRA    BB28
....................                               if(AlarmaBomba) // Alarma de Tiempo prolongado para hacer vacio 
0BA98:  BTFSS  x5D.7
0BA9A:  BRA    BB28
....................                               { 
....................                                  BorraStatus(); 
0BA9C:  MOVLB  0
0BA9E:  CALL   59E6
....................                                  strcpy(Menus.Letra,"Error Bomba");displayMenu(Menus.Letra,0,55,2,1); 
0BAA2:  MOVLW  07
0BAA4:  MOVWF  FEA
0BAA6:  MOVLW  12
0BAA8:  MOVWF  FE9
0BAAA:  MOVFF  FF2,727
0BAAE:  BCF    FF2.7
0BAB0:  MOVLW  00
0BAB2:  CALL   28CC
0BAB6:  TBLRD*-
0BAB8:  TBLRD*+
0BABA:  MOVF   FF5,W
0BABC:  MOVWF  FEE
0BABE:  IORLW  00
0BAC0:  BNZ   BAB8
0BAC2:  MOVLB  7
0BAC4:  BTFSC  x27.7
0BAC6:  BSF    FF2.7
0BAC8:  MOVLW  07
0BACA:  MOVWF  x28
0BACC:  MOVLW  12
0BACE:  MOVWF  x27
0BAD0:  CLRF   x29
0BAD2:  MOVLW  37
0BAD4:  MOVWF  x2A
0BAD6:  MOVLW  02
0BAD8:  MOVWF  x2B
0BADA:  MOVLW  01
0BADC:  MOVWF  x2C
0BADE:  MOVLB  0
0BAE0:  CALL   3F64
....................                                  Vacio=ON; 
0BAE4:  MOVLB  4
0BAE6:  BSF    x62.4
....................                                  SSR2=OFF; 
0BAE8:  BCF    x64.5
....................                                  SSR3=OFF; 
0BAEA:  BCF    x64.6
....................                                  EVVacio=OFF; 
0BAEC:  BCF    x64.2
....................                                  Desfogue_on; 
0BAEE:  BCF    F8B.5
0BAF0:  BCF    F94.5
....................                                  EVAire=ON;                      
0BAF2:  BSF    x64.3
....................                                  EVAgua=OFF; 
0BAF4:  BCF    x64.4
....................                                  EVAireBomba=OFF; 
0BAF6:  BCF    x65.0
....................                                  IniciaVacio=OFF; 
0BAF8:  BCF    x62.6
....................                                  //AguaIn_off; 
....................                                  SSR_off; 
0BAFA:  BSF    F8B.2
0BAFC:  BCF    F94.2
....................                                  if(!BorraCuadro){ 
0BAFE:  BTFSC  x63.3
0BB00:  BRA    BB28
....................                                     glcd_fillscreen(OFF); 
0BB02:  MOVLB  7
0BB04:  CLRF   x28
0BB06:  MOVLB  0
0BB08:  CALL   3936
....................                                     PosVacio=OFF; 
0BB0C:  MOVLB  4
0BB0E:  BCF    x63.4
....................                                     PosCalentando=OFF; 
0BB10:  BCF    x63.5
....................                                     PosEsterilizando=OFF; 
0BB12:  BCF    x63.6
....................                                     PosDesfogando=OFF; 
0BB14:  BCF    x63.7
....................                                     PosSecando=OFF; 
0BB16:  BCF    x64.0
....................                                     glcd_imagen(6); 
0BB18:  MOVLW  06
0BB1A:  MOVLB  7
0BB1C:  MOVWF  x28
0BB1E:  MOVLB  0
0BB20:  CALL   509C
....................                                     BorraCuadro=ON; 
0BB24:  MOVLB  4
0BB26:  BSF    x63.3
....................                                  } 
....................                               } 
....................                            } 
....................                         }    
....................                      } 
....................                   } 
....................                } 
....................             } 
....................          } 
....................       } 
....................    } 
....................    else 
0BB28:  GOTO   C3BA
....................    { 
....................       BorraCuadro=OFF; 
0BB2C:  BCF    x63.3
....................          if(!CalderinLleno || !Precalentamiento) 
0BB2E:  BTFSS  x60.1
0BB30:  BRA    BB36
0BB32:  BTFSC  x64.1
0BB34:  BRA    BBF0
....................          {       
....................             glcd_imagen(6); 
0BB36:  MOVLW  06
0BB38:  MOVLB  7
0BB3A:  MOVWF  x28
0BB3C:  MOVLB  0
0BB3E:  CALL   509C
....................             BorraStatus(); 
0BB42:  CALL   59E6
....................             if(!CalderinLleno){ 
0BB46:  MOVLB  4
0BB48:  BTFSC  x60.1
0BB4A:  BRA    BB94
....................                strcpy(Menus.Letra,"Llenando");displayMenu(Menus.Letra,0,55,2,1); 
0BB4C:  MOVLW  07
0BB4E:  MOVWF  FEA
0BB50:  MOVLW  12
0BB52:  MOVWF  FE9
0BB54:  MOVFF  FF2,727
0BB58:  BCF    FF2.7
0BB5A:  MOVLW  00
0BB5C:  MOVLB  0
0BB5E:  CALL   28F6
0BB62:  TBLRD*-
0BB64:  TBLRD*+
0BB66:  MOVF   FF5,W
0BB68:  MOVWF  FEE
0BB6A:  IORLW  00
0BB6C:  BNZ   BB64
0BB6E:  MOVLB  7
0BB70:  BTFSC  x27.7
0BB72:  BSF    FF2.7
0BB74:  MOVLW  07
0BB76:  MOVWF  x28
0BB78:  MOVLW  12
0BB7A:  MOVWF  x27
0BB7C:  CLRF   x29
0BB7E:  MOVLW  37
0BB80:  MOVWF  x2A
0BB82:  MOVLW  02
0BB84:  MOVWF  x2B
0BB86:  MOVLW  01
0BB88:  MOVWF  x2C
0BB8A:  MOVLB  0
0BB8C:  CALL   3F64
....................             }else{ 
0BB90:  BRA    BBE0
0BB92:  MOVLB  4
....................                if(!Precalentamiento){ 
0BB94:  BTFSC  x64.1
0BB96:  BRA    BBE2
....................                   strcpy(Menus.Letra,"Pre-Calentando");displayMenu(Menus.Letra,0,55,2,1); 
0BB98:  MOVLW  07
0BB9A:  MOVWF  FEA
0BB9C:  MOVLW  12
0BB9E:  MOVWF  FE9
0BBA0:  MOVFF  FF2,727
0BBA4:  BCF    FF2.7
0BBA6:  MOVLW  00
0BBA8:  MOVLB  0
0BBAA:  CALL   291E
0BBAE:  TBLRD*-
0BBB0:  TBLRD*+
0BBB2:  MOVF   FF5,W
0BBB4:  MOVWF  FEE
0BBB6:  IORLW  00
0BBB8:  BNZ   BBB0
0BBBA:  MOVLB  7
0BBBC:  BTFSC  x27.7
0BBBE:  BSF    FF2.7
0BBC0:  MOVLW  07
0BBC2:  MOVWF  x28
0BBC4:  MOVLW  12
0BBC6:  MOVWF  x27
0BBC8:  CLRF   x29
0BBCA:  MOVLW  37
0BBCC:  MOVWF  x2A
0BBCE:  MOVLW  02
0BBD0:  MOVWF  x2B
0BBD2:  MOVLW  01
0BBD4:  MOVWF  x2C
0BBD6:  MOVLB  0
0BBD8:  CALL   3F64
....................                   ControlaPresion(); 
0BBDC:  CALL   5A04
0BBE0:  MOVLB  4
....................                } 
....................             } 
....................             Control=0; 
0BBE2:  MOVLB  6
0BBE4:  CLRF   xDB
....................             IniciaVacio=OFF; 
0BBE6:  MOVLB  4
0BBE8:  BCF    x62.6
....................             IniciaVacio2=OFF; 
0BBEA:  BCF    x62.0
....................          } 
....................          else 
0BBEC:  GOTO   C3BA
....................          { 
....................             if(!Vacio){ 
0BBF0:  BTFSC  x62.4
0BBF2:  BRA    BD80
....................                if(!flag_vac){ 
0BBF4:  BTFSC  x62.7
0BBF6:  BRA    BC32
....................                   flag_vac=ON; 
0BBF8:  BSF    x62.7
....................                   SSR2=ON; 
0BBFA:  BSF    x64.5
....................                   SSR3=ON; 
0BBFC:  BSF    x64.6
....................                   EVVacio=OFF; 
0BBFE:  BCF    x64.2
....................                   Desfogue_off; 
0BC00:  BSF    F8B.5
0BC02:  BCF    F94.5
....................                   EVAire=OFF; 
0BC04:  BCF    x64.3
....................                   EVAireBomba=ON; 
0BC06:  BSF    x65.0
....................                   Paso_off; 
0BC08:  BSF    F8B.6
0BC0A:  BCF    F94.6
....................                   EVAgua=OFF; 
0BC0C:  BCF    x64.4
....................                   glcd_update(); 
0BC0E:  MOVLB  0
0BC10:  CALL   3990
....................                   Envio_Esclavos(); 
0BC14:  CALL   38C0
....................                   delay_ms(7000); 
0BC18:  MOVLW  1C
0BC1A:  MOVLB  7
0BC1C:  MOVWF  x27
0BC1E:  MOVLW  FA
0BC20:  MOVWF  x2D
0BC22:  MOVLB  0
0BC24:  CALL   30A6
0BC28:  MOVLB  7
0BC2A:  DECFSZ x27,F
0BC2C:  BRA    BC1E
....................                   IniciaVacio2=ON; 
0BC2E:  MOVLB  4
0BC30:  BSF    x62.0
....................                } 
....................                CuadroVacio(ON); 
0BC32:  MOVLW  01
0BC34:  MOVLB  7
0BC36:  MOVWF  x27
0BC38:  MOVLB  0
0BC3A:  CALL   5A2C
....................                BorraStatus(); 
0BC3E:  CALL   59E6
....................                strcpy(Menus.Letra,"Prevacio");displayMenu(Menus.Letra,0,55,2,1); 
0BC42:  MOVLW  07
0BC44:  MOVWF  FEA
0BC46:  MOVLW  12
0BC48:  MOVWF  FE9
0BC4A:  MOVFF  FF2,727
0BC4E:  BCF    FF2.7
0BC50:  MOVLW  00
0BC52:  CALL   294C
0BC56:  TBLRD*-
0BC58:  TBLRD*+
0BC5A:  MOVF   FF5,W
0BC5C:  MOVWF  FEE
0BC5E:  IORLW  00
0BC60:  BNZ   BC58
0BC62:  MOVLB  7
0BC64:  BTFSC  x27.7
0BC66:  BSF    FF2.7
0BC68:  MOVLW  07
0BC6A:  MOVWF  x28
0BC6C:  MOVLW  12
0BC6E:  MOVWF  x27
0BC70:  CLRF   x29
0BC72:  MOVLW  37
0BC74:  MOVWF  x2A
0BC76:  MOVLW  02
0BC78:  MOVWF  x2B
0BC7A:  MOVLW  01
0BC7C:  MOVWF  x2C
0BC7E:  MOVLB  0
0BC80:  CALL   3F64
....................                ControlaPresion(); 
0BC84:  CALL   5A04
....................                IniciaVacio=ON; 
0BC88:  MOVLB  4
0BC8A:  BSF    x62.6
....................                 
....................                if(PresionCamara>NivelVacio && PulsoPositivo==10){ 
0BC8C:  MOVLB  6
0BC8E:  MOVF   xF5,F
0BC90:  BNZ   BC98
0BC92:  MOVF   xF4,W
0BC94:  SUBWF  xDE,W
0BC96:  BC    BCC6
0BC98:  MOVLB  7
0BC9A:  MOVF   x09,W
0BC9C:  SUBLW  0A
0BC9E:  BTFSC  FD8.2
0BCA0:  BRA    BCA6
0BCA2:  MOVLB  6
0BCA4:  BRA    BCC6
....................                   flag_vacio=1; 
0BCA6:  MOVLB  4
0BCA8:  BSF    x62.5
....................                   SSR2=ON; 
0BCAA:  BSF    x64.5
....................                   SSR3=ON; 
0BCAC:  BSF    x64.6
....................                   EVVacio=ON; 
0BCAE:  BSF    x64.2
....................                   Desfogue_off; 
0BCB0:  BSF    F8B.5
0BCB2:  BCF    F94.5
....................                   EVAire=OFF;                      
0BCB4:  BCF    x64.3
....................                   Paso_off; 
0BCB6:  BSF    F8B.6
0BCB8:  BCF    F94.6
....................                   EVAgua=OFF; 
0BCBA:  BCF    x64.4
....................                   EVAireBomba=OFF; 
0BCBC:  BCF    x65.0
....................                   flag_pulso=0; 
0BCBE:  MOVLB  7
0BCC0:  CLRF   x0B
....................                }else{ 
0BCC2:  BRA    BCCC
0BCC4:  MOVLB  6
....................                   PulsoPositivo=5; 
0BCC6:  MOVLW  05
0BCC8:  MOVLB  7
0BCCA:  MOVWF  x09
....................                } 
....................             
....................                if(PulsoPositivo==5){ 
0BCCC:  MOVF   x09,W
0BCCE:  SUBLW  05
0BCD0:  BNZ   BD0A
....................                   if(flag_pulso==0){ 
0BCD2:  MOVF   x0B,F
0BCD4:  BNZ   BCDC
....................                      PulsosVacio++; 
0BCD6:  INCF   x0A,F
....................                      flag_pulso=1; 
0BCD8:  MOVLW  01
0BCDA:  MOVWF  x0B
....................                   } 
....................                   SSR2=ON; 
0BCDC:  MOVLB  4
0BCDE:  BSF    x64.5
....................                   SSR3=ON; 
0BCE0:  BSF    x64.6
....................                   EVVacio=OFF; 
0BCE2:  BCF    x64.2
....................                   Desfogue_off; 
0BCE4:  BSF    F8B.5
0BCE6:  BCF    F94.5
....................                   EVAire=OFF;                      
0BCE8:  BCF    x64.3
....................                   Paso_on; 
0BCEA:  BCF    F8B.6
0BCEC:  BCF    F94.6
....................                   EVAgua=OFF; 
0BCEE:  BCF    x64.4
....................                   EVAireBomba=ON; 
0BCF0:  BSF    x65.0
....................                   if(PresionCamara>=Atmosferica+25){ 
0BCF2:  MOVLW  19
0BCF4:  MOVLB  6
0BCF6:  ADDWF  xE6,W
0BCF8:  MOVF   xF5,F
0BCFA:  BNZ   BD00
0BCFC:  SUBWF  xF4,W
0BCFE:  BNC   BD0C
....................                     Paso_off; 
0BD00:  BSF    F8B.6
0BD02:  BCF    F94.6
....................                     PulsoPositivo=10; 
0BD04:  MOVLW  0A
0BD06:  MOVLB  7
0BD08:  MOVWF  x09
0BD0A:  MOVLB  6
....................                   }   
....................                } 
....................                 
....................                if(tbomba>=120){ 
0BD0C:  MOVLB  7
0BD0E:  MOVF   x11,F
0BD10:  BNZ   BD18
0BD12:  MOVF   x10,W
0BD14:  SUBLW  77
0BD16:  BC    BD36
....................                   if(PresionCamara>Atmosferica){ 
0BD18:  MOVLB  6
0BD1A:  MOVF   xF5,F
0BD1C:  BNZ   BD24
0BD1E:  MOVF   xF4,W
0BD20:  SUBWF  xE6,W
0BD22:  BC    BD2C
....................                      AlarmaBomba=ON; 
0BD24:  MOVLB  4
0BD26:  BSF    x5D.7
....................                   }else{ 
0BD28:  BRA    BD36
0BD2A:  MOVLB  6
....................                      tbomba=0; 
0BD2C:  MOVLB  7
0BD2E:  CLRF   x11
0BD30:  CLRF   x10
....................                      IniciaVacio2=OFF; 
0BD32:  MOVLB  4
0BD34:  BCF    x62.0
....................                   } 
....................                } 
....................                 
....................                if(tvacio>=TiempoVacio){             
0BD36:  MOVLB  4
0BD38:  MOVF   x5F,W
0BD3A:  MOVLB  7
0BD3C:  SUBWF  x0F,W
0BD3E:  BNC   BD50
0BD40:  BNZ   BD4C
0BD42:  MOVLB  4
0BD44:  MOVF   x5E,W
0BD46:  MOVLB  7
0BD48:  SUBWF  x0E,W
0BD4A:  BNC   BD50
....................                   AlarmaVacio=ON; 
0BD4C:  MOVLB  4
0BD4E:  BSF    x5D.6
....................                } 
....................                    
....................                if(PulsosVacio>=CantidadPulsos) 
0BD50:  MOVLB  6
0BD52:  MOVF   xDD,W
0BD54:  MOVLB  7
0BD56:  SUBWF  x0A,W
0BD58:  BNC   BD7C
....................                { 
....................                   Vacio=ON; 
0BD5A:  MOVLB  4
0BD5C:  BSF    x62.4
....................                   SSR2=OFF; 
0BD5E:  BCF    x64.5
....................                   SSR3=OFF; 
0BD60:  BCF    x64.6
....................                   EVVacio=OFF; 
0BD62:  BCF    x64.2
....................                   Desfogue_off; 
0BD64:  BSF    F8B.5
0BD66:  BCF    F94.5
....................                   EVAire=OFF;                      
0BD68:  BCF    x64.3
....................                   EVAgua=OFF; 
0BD6A:  BCF    x64.4
....................                   EVAireBomba=OFF; 
0BD6C:  BCF    x65.0
....................                   IniciaVacio=OFF; 
0BD6E:  BCF    x62.6
....................                   CuadroVacio(OFF); 
0BD70:  MOVLB  7
0BD72:  CLRF   x27
0BD74:  MOVLB  0
0BD76:  CALL   5A2C
0BD7A:  MOVLB  7
....................                } 
....................                 
....................             }else{ 
0BD7C:  BRA    C3BC
0BD7E:  MOVLB  4
....................                IniciaVacio=OFF; 
0BD80:  BCF    x62.6
....................                if(Temperatura>=((float)Setpoint-0.3)){ 
0BD82:  MOVLB  7
0BD84:  CLRF   x2E
0BD86:  MOVFF  6E5,72D
0BD8A:  MOVLB  0
0BD8C:  CALL   30CE
0BD90:  MOVFF  00,727
0BD94:  MOVFF  01,728
0BD98:  MOVFF  02,729
0BD9C:  MOVFF  03,72A
0BDA0:  BSF    FD8.1
0BDA2:  MOVFF  03,72F
0BDA6:  MOVFF  02,72E
0BDAA:  MOVFF  01,72D
0BDAE:  MOVFF  00,72C
0BDB2:  MOVLW  9A
0BDB4:  MOVLB  7
0BDB6:  MOVWF  x33
0BDB8:  MOVLW  99
0BDBA:  MOVWF  x32
0BDBC:  MOVLW  19
0BDBE:  MOVWF  x31
0BDC0:  MOVLW  7D
0BDC2:  MOVWF  x30
0BDC4:  MOVLB  0
0BDC6:  CALL   3262
0BDCA:  MOVFF  03,72B
0BDCE:  MOVFF  02,72A
0BDD2:  MOVFF  01,729
0BDD6:  MOVFF  00,728
0BDDA:  MOVFF  6C4,72F
0BDDE:  MOVFF  6C3,72E
0BDE2:  MOVFF  6C2,72D
0BDE6:  MOVFF  6C1,72C
0BDEA:  CALL   34DA
0BDEE:  BC    BDF2
0BDF0:  BNZ   BDF6
....................                   Esterilizando=ON; 
0BDF2:  MOVLB  4
0BDF4:  BSF    x60.3
....................                } 
....................                 
....................                if(Temperatura<((float)Setpoint-0.9) && !Desfogando){ 
0BDF6:  MOVLB  7
0BDF8:  CLRF   x2E
0BDFA:  MOVFF  6E5,72D
0BDFE:  MOVLB  0
0BE00:  CALL   30CE
0BE04:  MOVFF  00,727
0BE08:  MOVFF  01,728
0BE0C:  MOVFF  02,729
0BE10:  MOVFF  03,72A
0BE14:  BSF    FD8.1
0BE16:  MOVFF  03,72F
0BE1A:  MOVFF  02,72E
0BE1E:  MOVFF  01,72D
0BE22:  MOVFF  00,72C
0BE26:  MOVLW  66
0BE28:  MOVLB  7
0BE2A:  MOVWF  x33
0BE2C:  MOVWF  x32
0BE2E:  MOVWF  x31
0BE30:  MOVLW  7E
0BE32:  MOVWF  x30
0BE34:  MOVLB  0
0BE36:  CALL   3262
0BE3A:  MOVFF  6C4,72B
0BE3E:  MOVFF  6C3,72A
0BE42:  MOVFF  6C2,729
0BE46:  MOVFF  6C1,728
0BE4A:  MOVFF  03,72F
0BE4E:  MOVFF  02,72E
0BE52:  MOVFF  01,72D
0BE56:  MOVFF  00,72C
0BE5A:  CALL   34DA
0BE5E:  BNC   BE6C
0BE60:  MOVLB  4
0BE62:  BTFSS  x60.6
0BE64:  BRA    BE6A
0BE66:  MOVLB  0
0BE68:  BRA    BE6C
....................                   Esterilizando=OFF; 
0BE6A:  BCF    x60.3
....................                } 
....................              
....................                if(!Esterilizando) 
0BE6C:  MOVLB  4
0BE6E:  BTFSC  x60.3
0BE70:  BRA    BEDC
....................                { 
....................                   flag_vac=OFF; 
0BE72:  BCF    x62.7
....................                   Paso_on; 
0BE74:  BCF    F8B.6
0BE76:  BCF    F94.6
....................                   CuadroCalentando(ON); 
0BE78:  MOVLW  01
0BE7A:  MOVLB  7
0BE7C:  MOVWF  x27
0BE7E:  MOVLB  0
0BE80:  CALL   5A60
....................                   BorraStatus(); 
0BE84:  CALL   59E6
....................                   strcpy(Menus.Letra,"Calentando");displayMenu(Menus.Letra,0,55,2,1); 
0BE88:  MOVLW  07
0BE8A:  MOVWF  FEA
0BE8C:  MOVLW  12
0BE8E:  MOVWF  FE9
0BE90:  MOVFF  FF2,727
0BE94:  BCF    FF2.7
0BE96:  MOVLW  00
0BE98:  CALL   2726
0BE9C:  TBLRD*-
0BE9E:  TBLRD*+
0BEA0:  MOVF   FF5,W
0BEA2:  MOVWF  FEE
0BEA4:  IORLW  00
0BEA6:  BNZ   BE9E
0BEA8:  MOVLB  7
0BEAA:  BTFSC  x27.7
0BEAC:  BSF    FF2.7
0BEAE:  MOVLW  07
0BEB0:  MOVWF  x28
0BEB2:  MOVLW  12
0BEB4:  MOVWF  x27
0BEB6:  CLRF   x29
0BEB8:  MOVLW  37
0BEBA:  MOVWF  x2A
0BEBC:  MOVLW  02
0BEBE:  MOVWF  x2B
0BEC0:  MOVLW  01
0BEC2:  MOVWF  x2C
0BEC4:  MOVLB  0
0BEC6:  CALL   3F64
....................                   Control=1; 
0BECA:  MOVLW  01
0BECC:  MOVLB  6
0BECE:  MOVWF  xDB
....................                   Controla(); 
0BED0:  MOVLB  0
0BED2:  CALL   5A94
....................                   BorraCuadro=OFF; 
0BED6:  MOVLB  4
0BED8:  BCF    x63.3
....................                }else{ 
0BEDA:  BRA    C3BA
....................                   if((Testerilizacion[0]>=Testerilizacionp[0])&&(Testerilizacion[1]>=Testerilizacionp[1])&& 
....................                   (Testerilizacion[2]>=Testerilizacionp[2])&&(Testerilizacion[3]>=Testerilizacionp[3])){  
0BEDC:  MOVF   x70,W
0BEDE:  XORLW  80
0BEE0:  MOVWF  00
0BEE2:  MOVF   x6C,W
0BEE4:  XORLW  80
0BEE6:  SUBWF  00,W
0BEE8:  BZ    BEEE
0BEEA:  BTFSC  FD8.0
0BEEC:  BRA    C34A
0BEEE:  MOVF   x71,W
0BEF0:  XORLW  80
0BEF2:  MOVWF  00
0BEF4:  MOVF   x6D,W
0BEF6:  XORLW  80
0BEF8:  SUBWF  00,W
0BEFA:  BZ    BF00
0BEFC:  BTFSC  FD8.0
0BEFE:  BRA    C34A
0BF00:  MOVF   x72,W
0BF02:  XORLW  80
0BF04:  MOVWF  00
0BF06:  MOVF   x6E,W
0BF08:  XORLW  80
0BF0A:  SUBWF  00,W
0BF0C:  BZ    BF12
0BF0E:  BTFSC  FD8.0
0BF10:  BRA    C34A
0BF12:  MOVF   x73,W
0BF14:  XORLW  80
0BF16:  MOVWF  00
0BF18:  MOVF   x6F,W
0BF1A:  XORLW  80
0BF1C:  SUBWF  00,W
0BF1E:  BZ    BF24
0BF20:  BTFSC  FD8.0
0BF22:  BRA    C34A
....................                      if(desfoguelento){ 
0BF24:  BTFSS  x65.5
0BF26:  BRA    C0AA
....................                         if(PresionCamara<(Atmosferica+4)){ 
0BF28:  MOVLW  04
0BF2A:  MOVLB  6
0BF2C:  ADDWF  xE6,W
0BF2E:  MOVF   xF5,F
0BF30:  BTFSS  FD8.2
0BF32:  BRA    C030
0BF34:  SUBWF  xF4,W
0BF36:  BTFSC  FD8.0
0BF38:  BRA    C030
....................                            SSR2=OFF; 
0BF3A:  MOVLB  4
0BF3C:  BCF    x64.5
....................                            SSR3=OFF; 
0BF3E:  BCF    x64.6
....................                            EVVacio=OFF; 
0BF40:  BCF    x64.2
....................                            Desfogue_on; 
0BF42:  BCF    F8B.5
0BF44:  BCF    F94.5
....................                            EVAire=OFF;                      
0BF46:  BCF    x64.3
....................                            Paso_off; 
0BF48:  BSF    F8B.6
0BF4A:  BCF    F94.6
....................                            EVAgua=OFF; 
0BF4C:  BCF    x64.4
....................                            EVAireBomba=OFF; 
0BF4E:  BCF    x65.0
....................                            Secando=OFF; 
0BF50:  BCF    x60.4
....................                            SSR_off; 
0BF52:  BSF    F8B.2
0BF54:  BCF    F94.2
....................                            EnciendeBuzzer=ON; 
0BF56:  BSF    x63.2
....................                            DesfogueSuave=OFF; 
0BF58:  BCF    x60.7
....................                            BorraStatus(); 
0BF5A:  MOVLB  0
0BF5C:  CALL   59E6
....................                            strcpy(Menus.Letra,"Ciclo Finalizado");displayMenu(Menus.Letra,0,55,2,1); 
0BF60:  MOVLW  07
0BF62:  MOVWF  FEA
0BF64:  MOVLW  12
0BF66:  MOVWF  FE9
0BF68:  MOVFF  FF2,727
0BF6C:  BCF    FF2.7
0BF6E:  MOVLW  00
0BF70:  CALL   2974
0BF74:  TBLRD*-
0BF76:  TBLRD*+
0BF78:  MOVF   FF5,W
0BF7A:  MOVWF  FEE
0BF7C:  IORLW  00
0BF7E:  BNZ   BF76
0BF80:  MOVLB  7
0BF82:  BTFSC  x27.7
0BF84:  BSF    FF2.7
0BF86:  MOVLW  07
0BF88:  MOVWF  x28
0BF8A:  MOVLW  12
0BF8C:  MOVWF  x27
0BF8E:  CLRF   x29
0BF90:  MOVLW  37
0BF92:  MOVWF  x2A
0BF94:  MOVLW  02
0BF96:  MOVWF  x2B
0BF98:  MOVLW  01
0BF9A:  MOVWF  x2C
0BF9C:  MOVLB  0
0BF9E:  CALL   3F64
....................                            if(!Ciclo){ 
0BFA2:  MOVLB  4
0BFA4:  BTFSC  x63.1
0BFA6:  BRA    C02C
....................                               Ciclo=ON; 
0BFA8:  BSF    x63.1
....................                               Ciclos++; 
0BFAA:  MOVLB  6
0BFAC:  INCF   xF8,F
0BFAE:  BTFSC  FD8.2
0BFB0:  INCF   xF9,F
....................                               CiclosL=make8(Ciclos,0); 
0BFB2:  MOVFF  6F8,6DF
....................                               CiclosH=make8(Ciclos,1); 
0BFB6:  MOVFF  6F9,6E0
....................                               write_eeprom(37,CiclosL); 
0BFBA:  CLRF   FAA
0BFBC:  MOVLW  25
0BFBE:  MOVWF  FA9
0BFC0:  MOVFF  6DF,FA8
0BFC4:  BCF    FA6.6
0BFC6:  BCF    FA6.7
0BFC8:  BSF    FA6.2
0BFCA:  MOVF   FF2,W
0BFCC:  MOVWF  00
0BFCE:  BCF    FF2.7
0BFD0:  MOVLB  F
0BFD2:  MOVLW  55
0BFD4:  MOVWF  FA7
0BFD6:  MOVLW  AA
0BFD8:  MOVWF  FA7
0BFDA:  BSF    FA6.1
0BFDC:  BTFSC  FA6.1
0BFDE:  BRA    BFDC
0BFE0:  BCF    FA6.2
0BFE2:  MOVF   00,W
0BFE4:  IORWF  FF2,F
....................                               delay_ms(20); 
0BFE6:  MOVLW  14
0BFE8:  MOVLB  7
0BFEA:  MOVWF  x2D
0BFEC:  MOVLB  0
0BFEE:  CALL   30A6
....................                               write_eeprom(38,CiclosH); 
0BFF2:  CLRF   FAA
0BFF4:  MOVLW  26
0BFF6:  MOVWF  FA9
0BFF8:  MOVFF  6E0,FA8
0BFFC:  BCF    FA6.6
0BFFE:  BCF    FA6.7
0C000:  BSF    FA6.2
0C002:  MOVF   FF2,W
0C004:  MOVWF  00
0C006:  BCF    FF2.7
0C008:  MOVLB  F
0C00A:  MOVLW  55
0C00C:  MOVWF  FA7
0C00E:  MOVLW  AA
0C010:  MOVWF  FA7
0C012:  BSF    FA6.1
0C014:  BTFSC  FA6.1
0C016:  BRA    C014
0C018:  BCF    FA6.2
0C01A:  MOVF   00,W
0C01C:  IORWF  FF2,F
....................                               delay_ms(20); 
0C01E:  MOVLW  14
0C020:  MOVLB  7
0C022:  MOVWF  x2D
0C024:  MOVLB  0
0C026:  CALL   30A6
0C02A:  MOVLB  4
....................                            } 
....................                             
....................                         }else{ 
0C02C:  BRA    C0A8
0C02E:  MOVLB  6
....................                            Paso_off; 
0C030:  BSF    F8B.6
0C032:  BCF    F94.6
....................                            SSR2=OFF; 
0C034:  MOVLB  4
0C036:  BCF    x64.5
....................                            SSR3=OFF; 
0C038:  BCF    x64.6
....................                            EVVacio=OFF;                            
0C03A:  BCF    x64.2
....................                            EVAire=OFF;                      
0C03C:  BCF    x64.3
....................                            Paso_off; 
0C03E:  BSF    F8B.6
0C040:  BCF    F94.6
....................                            EVAgua=OFF; 
0C042:  BCF    x64.4
....................                            EVAireBomba=OFF; 
0C044:  BCF    x65.0
....................                            Secando=OFF; 
0C046:  BCF    x60.4
....................                            SSR_off; 
0C048:  BSF    F8B.2
0C04A:  BCF    F94.2
....................                            Desfogando=ON; 
0C04C:  BSF    x60.6
....................                            DesfogueSuave=ON; 
0C04E:  BSF    x60.7
....................                            CuadroDesfogando(ON); 
0C050:  MOVLW  01
0C052:  MOVLB  7
0C054:  MOVWF  x27
0C056:  MOVLB  0
0C058:  CALL   5E68
....................                            BorraStatus(); 
0C05C:  CALL   59E6
....................                            strcpy(Menus.Letra,"Despresurizando");displayMenu(Menus.Letra,0,55,2,1); 
0C060:  MOVLW  07
0C062:  MOVWF  FEA
0C064:  MOVLW  12
0C066:  MOVWF  FE9
0C068:  MOVFF  FF2,727
0C06C:  BCF    FF2.7
0C06E:  MOVLW  00
0C070:  CALL   29A4
0C074:  TBLRD*-
0C076:  TBLRD*+
0C078:  MOVF   FF5,W
0C07A:  MOVWF  FEE
0C07C:  IORLW  00
0C07E:  BNZ   C076
0C080:  MOVLB  7
0C082:  BTFSC  x27.7
0C084:  BSF    FF2.7
0C086:  MOVLW  07
0C088:  MOVWF  x28
0C08A:  MOVLW  12
0C08C:  MOVWF  x27
0C08E:  CLRF   x29
0C090:  MOVLW  37
0C092:  MOVWF  x2A
0C094:  MOVLW  02
0C096:  MOVWF  x2B
0C098:  MOVLW  01
0C09A:  MOVWF  x2C
0C09C:  MOVLB  0
0C09E:  CALL   3F64
....................                            Control=0; 
0C0A2:  MOVLB  6
0C0A4:  CLRF   xDB
0C0A6:  MOVLB  4
....................                         } 
....................                      }else{ 
0C0A8:  BRA    C344
....................                         Control=0; 
0C0AA:  MOVLB  6
0C0AC:  CLRF   xDB
....................                         if(PresionCamara<(Atmosferica+20)){ 
0C0AE:  MOVLW  14
0C0B0:  ADDWF  xE6,W
0C0B2:  MOVF   xF5,F
0C0B4:  BTFSS  FD8.2
0C0B6:  BRA    C2CA
0C0B8:  SUBWF  xF4,W
0C0BA:  BTFSC  FD8.0
0C0BC:  BRA    C2CA
....................                            if((Tsecado[0]>=Tsecadop[0])&&(Tsecado[1]>=Tsecadop[1])&&(Tsecado[2]>=Tsecadop[2])&&(Tsecado[3]>=Tsecadop[3])){ 
0C0BE:  MOVLB  4
0C0C0:  MOVF   x78,W
0C0C2:  XORLW  80
0C0C4:  MOVWF  00
0C0C6:  MOVF   x74,W
0C0C8:  XORLW  80
0C0CA:  SUBWF  00,W
0C0CC:  BZ    C0D2
0C0CE:  BTFSC  FD8.0
0C0D0:  BRA    C214
0C0D2:  MOVF   x79,W
0C0D4:  XORLW  80
0C0D6:  MOVWF  00
0C0D8:  MOVF   x75,W
0C0DA:  XORLW  80
0C0DC:  SUBWF  00,W
0C0DE:  BZ    C0E4
0C0E0:  BTFSC  FD8.0
0C0E2:  BRA    C214
0C0E4:  MOVF   x7A,W
0C0E6:  XORLW  80
0C0E8:  MOVWF  00
0C0EA:  MOVF   x76,W
0C0EC:  XORLW  80
0C0EE:  SUBWF  00,W
0C0F0:  BZ    C0F6
0C0F2:  BTFSC  FD8.0
0C0F4:  BRA    C214
0C0F6:  MOVF   x7B,W
0C0F8:  XORLW  80
0C0FA:  MOVWF  00
0C0FC:  MOVF   x77,W
0C0FE:  XORLW  80
0C100:  SUBWF  00,W
0C102:  BZ    C108
0C104:  BTFSC  FD8.0
0C106:  BRA    C214
....................                               SSR2=OFF; 
0C108:  BCF    x64.5
....................                               SSR3=OFF; 
0C10A:  BCF    x64.6
....................                               EVVacio=OFF; 
0C10C:  BCF    x64.2
....................                               Desfogue_off; 
0C10E:  BSF    F8B.5
0C110:  BCF    F94.5
....................                               EVAire=ON;                      
0C112:  BSF    x64.3
....................                               Paso_off; 
0C114:  BSF    F8B.6
0C116:  BCF    F94.6
....................                               EVAgua=OFF; 
0C118:  BCF    x64.4
....................                               EVAireBomba=OFF; 
0C11A:  BCF    x65.0
....................                               Secando=OFF; 
0C11C:  BCF    x60.4
....................                               SSR_off; 
0C11E:  BSF    F8B.2
0C120:  BCF    F94.2
....................                               CuadroSecando(OFF); 
0C122:  MOVLB  7
0C124:  CLRF   x27
0C126:  MOVLB  0
0C128:  CALL   5E9C
....................                               if(PresionCamara>(Atmosferica-5)){ 
0C12C:  MOVLW  05
0C12E:  MOVLB  6
0C130:  SUBWF  xE6,W
0C132:  MOVF   xF5,F
0C134:  BNZ   C13C
0C136:  SUBWF  xF4,W
0C138:  BZ    C188
0C13A:  BNC   C188
....................                                  EnciendeBuzzer=ON; 
0C13C:  MOVLB  4
0C13E:  BSF    x63.2
....................                                  BorraStatus(); 
0C140:  MOVLB  0
0C142:  CALL   59E6
....................                                  strcpy(Menus.Letra,"Ciclo Finalizado");displayMenu(Menus.Letra,0,55,2,1); 
0C146:  MOVLW  07
0C148:  MOVWF  FEA
0C14A:  MOVLW  12
0C14C:  MOVWF  FE9
0C14E:  MOVFF  FF2,727
0C152:  BCF    FF2.7
0C154:  MOVLW  00
0C156:  CALL   2974
0C15A:  TBLRD*-
0C15C:  TBLRD*+
0C15E:  MOVF   FF5,W
0C160:  MOVWF  FEE
0C162:  IORLW  00
0C164:  BNZ   C15C
0C166:  MOVLB  7
0C168:  BTFSC  x27.7
0C16A:  BSF    FF2.7
0C16C:  MOVLW  07
0C16E:  MOVWF  x28
0C170:  MOVLW  12
0C172:  MOVWF  x27
0C174:  CLRF   x29
0C176:  MOVLW  37
0C178:  MOVWF  x2A
0C17A:  MOVLW  02
0C17C:  MOVWF  x2B
0C17E:  MOVLW  01
0C180:  MOVWF  x2C
0C182:  MOVLB  0
0C184:  CALL   3F64
....................                               } 
....................  
....................                               if(!Ciclo){ 
0C188:  MOVLB  4
0C18A:  BTFSC  x63.1
0C18C:  BRA    C212
....................                                  Ciclo=ON; 
0C18E:  BSF    x63.1
....................                                  Ciclos++; 
0C190:  MOVLB  6
0C192:  INCF   xF8,F
0C194:  BTFSC  FD8.2
0C196:  INCF   xF9,F
....................                                  CiclosL=make8(Ciclos,0); 
0C198:  MOVFF  6F8,6DF
....................                                  CiclosH=make8(Ciclos,1); 
0C19C:  MOVFF  6F9,6E0
....................                                  write_eeprom(37,CiclosL); 
0C1A0:  CLRF   FAA
0C1A2:  MOVLW  25
0C1A4:  MOVWF  FA9
0C1A6:  MOVFF  6DF,FA8
0C1AA:  BCF    FA6.6
0C1AC:  BCF    FA6.7
0C1AE:  BSF    FA6.2
0C1B0:  MOVF   FF2,W
0C1B2:  MOVWF  00
0C1B4:  BCF    FF2.7
0C1B6:  MOVLB  F
0C1B8:  MOVLW  55
0C1BA:  MOVWF  FA7
0C1BC:  MOVLW  AA
0C1BE:  MOVWF  FA7
0C1C0:  BSF    FA6.1
0C1C2:  BTFSC  FA6.1
0C1C4:  BRA    C1C2
0C1C6:  BCF    FA6.2
0C1C8:  MOVF   00,W
0C1CA:  IORWF  FF2,F
....................                                  delay_ms(20); 
0C1CC:  MOVLW  14
0C1CE:  MOVLB  7
0C1D0:  MOVWF  x2D
0C1D2:  MOVLB  0
0C1D4:  CALL   30A6
....................                                  write_eeprom(38,CiclosH); 
0C1D8:  CLRF   FAA
0C1DA:  MOVLW  26
0C1DC:  MOVWF  FA9
0C1DE:  MOVFF  6E0,FA8
0C1E2:  BCF    FA6.6
0C1E4:  BCF    FA6.7
0C1E6:  BSF    FA6.2
0C1E8:  MOVF   FF2,W
0C1EA:  MOVWF  00
0C1EC:  BCF    FF2.7
0C1EE:  MOVLB  F
0C1F0:  MOVLW  55
0C1F2:  MOVWF  FA7
0C1F4:  MOVLW  AA
0C1F6:  MOVWF  FA7
0C1F8:  BSF    FA6.1
0C1FA:  BTFSC  FA6.1
0C1FC:  BRA    C1FA
0C1FE:  BCF    FA6.2
0C200:  MOVF   00,W
0C202:  IORWF  FF2,F
....................                                  delay_ms(20); 
0C204:  MOVLW  14
0C206:  MOVLB  7
0C208:  MOVWF  x2D
0C20A:  MOVLB  0
0C20C:  CALL   30A6
0C210:  MOVLB  4
....................                               } 
....................                            }else{ 
0C212:  BRA    C2C6
....................                               ControlaPresion(); 
0C214:  MOVLB  0
0C216:  CALL   5A04
....................                               Paso_off; 
0C21A:  BSF    F8B.6
0C21C:  BCF    F94.6
....................                               Secando=ON; 
0C21E:  MOVLB  4
0C220:  BSF    x60.4
....................                               CuadroDesfogando(OFF); 
0C222:  MOVLB  7
0C224:  CLRF   x27
0C226:  MOVLB  0
0C228:  CALL   5E68
....................                               CuadroSecando(ON); 
0C22C:  MOVLW  01
0C22E:  MOVLB  7
0C230:  MOVWF  x27
0C232:  MOVLB  0
0C234:  CALL   5E9C
....................                               BorraStatus(); 
0C238:  CALL   59E6
....................                               strcpy(Menus.Letra,"Secando");displayMenu(Menus.Letra,0,55,2,1); 
0C23C:  MOVLW  07
0C23E:  MOVWF  FEA
0C240:  MOVLW  12
0C242:  MOVWF  FE9
0C244:  MOVFF  FF2,727
0C248:  BCF    FF2.7
0C24A:  MOVLW  00
0C24C:  CALL   29D2
0C250:  TBLRD*-
0C252:  TBLRD*+
0C254:  MOVF   FF5,W
0C256:  MOVWF  FEE
0C258:  IORLW  00
0C25A:  BNZ   C252
0C25C:  MOVLB  7
0C25E:  BTFSC  x27.7
0C260:  BSF    FF2.7
0C262:  MOVLW  07
0C264:  MOVWF  x28
0C266:  MOVLW  12
0C268:  MOVWF  x27
0C26A:  CLRF   x29
0C26C:  MOVLW  37
0C26E:  MOVWF  x2A
0C270:  MOVLW  02
0C272:  MOVWF  x2B
0C274:  MOVLW  01
0C276:  MOVWF  x2C
0C278:  MOVLB  0
0C27A:  CALL   3F64
....................                                
....................                               if(PresionCamara>NivelVacio+5){ 
0C27E:  MOVLW  05
0C280:  MOVLB  6
0C282:  ADDWF  xDE,W
0C284:  MOVF   xF5,F
0C286:  BNZ   C28E
0C288:  SUBWF  xF4,W
0C28A:  BZ    C2A6
0C28C:  BNC   C2A6
....................                                  SSR2=ON; 
0C28E:  MOVLB  4
0C290:  BSF    x64.5
....................                                  SSR3=ON; 
0C292:  BSF    x64.6
....................                                  EVVacio=ON; 
0C294:  BSF    x64.2
....................                                  Desfogue_off; 
0C296:  BSF    F8B.5
0C298:  BCF    F94.5
....................                                  EVAire=OFF;                      
0C29A:  BCF    x64.3
....................                                  Paso_off; 
0C29C:  BSF    F8B.6
0C29E:  BCF    F94.6
....................                                  EVAgua=OFF; 
0C2A0:  BCF    x64.4
....................                                  EVAireBomba=OFF; 
0C2A2:  BCF    x65.0
0C2A4:  MOVLB  6
....................                               } 
....................           
....................                               if(PresionCamara<NivelVacio){ 
0C2A6:  MOVF   xF5,F
0C2A8:  BNZ   C2C8
0C2AA:  MOVF   xDE,W
0C2AC:  SUBWF  xF4,W
0C2AE:  BC    C2C8
....................                                  SSR2=ON; 
0C2B0:  MOVLB  4
0C2B2:  BSF    x64.5
....................                                  SSR3=ON; 
0C2B4:  BSF    x64.6
....................                                  EVVacio=OFF; 
0C2B6:  BCF    x64.2
....................                                  Desfogue_off; 
0C2B8:  BSF    F8B.5
0C2BA:  BCF    F94.5
....................                                  EVAire=ON;                      
0C2BC:  BSF    x64.3
....................                                  Paso_off; 
0C2BE:  BSF    F8B.6
0C2C0:  BCF    F94.6
....................                                  EVAgua=OFF; 
0C2C2:  BCF    x64.4
....................                                  EVAireBomba=ON; 
0C2C4:  BSF    x65.0
0C2C6:  MOVLB  6
....................                               } 
....................                            } 
....................                         }else{ 
0C2C8:  BRA    C346
....................                            Paso_off; 
0C2CA:  BSF    F8B.6
0C2CC:  BCF    F94.6
....................                            Desfogando=ON;                            
0C2CE:  MOVLB  4
0C2D0:  BSF    x60.6
....................                            CuadroEsterilizando(OFF); 
0C2D2:  MOVLB  7
0C2D4:  CLRF   x27
0C2D6:  MOVLB  0
0C2D8:  CALL   5ED0
....................                            CuadroDesfogando(ON); 
0C2DC:  MOVLW  01
0C2DE:  MOVLB  7
0C2E0:  MOVWF  x27
0C2E2:  MOVLB  0
0C2E4:  CALL   5E68
....................                            BorraStatus(); 
0C2E8:  CALL   59E6
....................                            strcpy(Menus.Letra,"Despresurizando");displayMenu(Menus.Letra,0,55,2,1); 
0C2EC:  MOVLW  07
0C2EE:  MOVWF  FEA
0C2F0:  MOVLW  12
0C2F2:  MOVWF  FE9
0C2F4:  MOVFF  FF2,727
0C2F8:  BCF    FF2.7
0C2FA:  MOVLW  00
0C2FC:  CALL   29A4
0C300:  TBLRD*-
0C302:  TBLRD*+
0C304:  MOVF   FF5,W
0C306:  MOVWF  FEE
0C308:  IORLW  00
0C30A:  BNZ   C302
0C30C:  MOVLB  7
0C30E:  BTFSC  x27.7
0C310:  BSF    FF2.7
0C312:  MOVLW  07
0C314:  MOVWF  x28
0C316:  MOVLW  12
0C318:  MOVWF  x27
0C31A:  CLRF   x29
0C31C:  MOVLW  37
0C31E:  MOVWF  x2A
0C320:  MOVLW  02
0C322:  MOVWF  x2B
0C324:  MOVLW  01
0C326:  MOVWF  x2C
0C328:  MOVLB  0
0C32A:  CALL   3F64
....................                            Control=0; 
0C32E:  MOVLB  6
0C330:  CLRF   xDB
....................                            SSR_off; 
0C332:  BSF    F8B.2
0C334:  BCF    F94.2
....................                            SSR2=ON; 
0C336:  MOVLB  4
0C338:  BSF    x64.5
....................                            SSR3=ON; 
0C33A:  BSF    x64.6
....................                            EVVacio=OFF; 
0C33C:  BCF    x64.2
....................                            EVAireBomba=ON; 
0C33E:  BSF    x65.0
....................                            Desfogue_on; 
0C340:  BCF    F8B.5
0C342:  BCF    F94.5
0C344:  MOVLB  6
....................                         } 
....................                      } 
....................                       
....................                   }else{ 
0C346:  BRA    C3B8
0C348:  MOVLB  4
....................                      Paso_on;                      
0C34A:  BCF    F8B.6
0C34C:  BCF    F94.6
....................                      CuadroCalentando(OFF); 
0C34E:  MOVLB  7
0C350:  CLRF   x27
0C352:  MOVLB  0
0C354:  CALL   5A60
....................                      CuadroEsterilizando(ON); 
0C358:  MOVLW  01
0C35A:  MOVLB  7
0C35C:  MOVWF  x27
0C35E:  MOVLB  0
0C360:  CALL   5ED0
....................                      BorraStatus(); 
0C364:  CALL   59E6
....................                      strcpy(Menus.Letra,"Esterilizando");displayMenu(Menus.Letra,0,55,2,1); 
0C368:  MOVLW  07
0C36A:  MOVWF  FEA
0C36C:  MOVLW  12
0C36E:  MOVWF  FE9
0C370:  MOVFF  FF2,727
0C374:  BCF    FF2.7
0C376:  MOVLW  00
0C378:  CALL   29F8
0C37C:  TBLRD*-
0C37E:  TBLRD*+
0C380:  MOVF   FF5,W
0C382:  MOVWF  FEE
0C384:  IORLW  00
0C386:  BNZ   C37E
0C388:  MOVLB  7
0C38A:  BTFSC  x27.7
0C38C:  BSF    FF2.7
0C38E:  MOVLW  07
0C390:  MOVWF  x28
0C392:  MOVLW  12
0C394:  MOVWF  x27
0C396:  CLRF   x29
0C398:  MOVLW  37
0C39A:  MOVWF  x2A
0C39C:  MOVLW  02
0C39E:  MOVWF  x2B
0C3A0:  MOVLW  01
0C3A2:  MOVWF  x2C
0C3A4:  MOVLB  0
0C3A6:  CALL   3F64
....................                      Control=1; 
0C3AA:  MOVLW  01
0C3AC:  MOVLB  6
0C3AE:  MOVWF  xDB
....................                      Controla(); 
0C3B0:  MOVLB  0
0C3B2:  CALL   5A94
0C3B6:  MOVLB  6
0C3B8:  MOVLB  4
0C3BA:  MOVLB  7
....................                   } 
....................                }  
....................             }  
....................          } 
....................    } 
....................  
....................    if(Lectura==1)// Utilizado para visualizar la lectura de la temperatura 
0C3BC:  MOVLB  4
0C3BE:  BTFSS  x65.6
0C3C0:  BRA    C730
....................    {                       
....................       Lectura=0; 
0C3C2:  BCF    x65.6
....................       displayT(PresionCamara,31,35,1); 
0C3C4:  MOVFF  6F5,72E
0C3C8:  MOVFF  6F4,72D
0C3CC:  MOVLB  0
0C3CE:  CALL   30CE
0C3D2:  MOVFF  00,727
0C3D6:  MOVFF  01,728
0C3DA:  MOVFF  02,729
0C3DE:  MOVFF  03,72A
0C3E2:  MOVFF  03,72E
0C3E6:  MOVFF  02,72D
0C3EA:  MOVFF  01,72C
0C3EE:  MOVFF  00,72B
0C3F2:  MOVLW  1F
0C3F4:  MOVLB  7
0C3F6:  MOVWF  x2F
0C3F8:  MOVLW  23
0C3FA:  MOVWF  x30
0C3FC:  MOVLW  01
0C3FE:  MOVWF  x31
0C400:  MOVLB  0
0C402:  CALL   617C
....................       displayT(PresionPreCamara,31,44,1); 
0C406:  MOVFF  6F7,72E
0C40A:  MOVFF  6F6,72D
0C40E:  CALL   30CE
0C412:  MOVFF  00,727
0C416:  MOVFF  01,728
0C41A:  MOVFF  02,729
0C41E:  MOVFF  03,72A
0C422:  MOVFF  03,72E
0C426:  MOVFF  02,72D
0C42A:  MOVFF  01,72C
0C42E:  MOVFF  00,72B
0C432:  MOVLW  1F
0C434:  MOVLB  7
0C436:  MOVWF  x2F
0C438:  MOVLW  2C
0C43A:  MOVWF  x30
0C43C:  MOVLW  01
0C43E:  MOVWF  x31
0C440:  MOVLB  0
0C442:  CALL   617C
....................       glcd_rect(49, 35, 62, 48, YES, OFF);glcd_text57(49, 35, kpa, 1, ON); 
0C446:  MOVLW  31
0C448:  MOVLB  7
0C44A:  MOVWF  x3D
0C44C:  MOVLW  23
0C44E:  MOVWF  x3E
0C450:  MOVLW  3E
0C452:  MOVWF  x3F
0C454:  MOVLW  30
0C456:  MOVWF  x40
0C458:  MOVLW  01
0C45A:  MOVWF  x41
0C45C:  CLRF   x42
0C45E:  MOVLB  0
0C460:  CALL   3EA2
0C464:  MOVLW  31
0C466:  MOVLB  7
0C468:  MOVWF  x3B
0C46A:  MOVLW  23
0C46C:  MOVWF  x3C
0C46E:  MOVLW  06
0C470:  MOVWF  x3E
0C472:  MOVLW  D7
0C474:  MOVWF  x3D
0C476:  MOVLW  01
0C478:  MOVWF  x3F
0C47A:  MOVWF  x40
0C47C:  MOVLB  0
0C47E:  CALL   3BAC
....................       glcd_rect(49, 44, 62, 48, YES, OFF);glcd_text57(49, 44, kpa, 1, ON); 
0C482:  MOVLW  31
0C484:  MOVLB  7
0C486:  MOVWF  x3D
0C488:  MOVLW  2C
0C48A:  MOVWF  x3E
0C48C:  MOVLW  3E
0C48E:  MOVWF  x3F
0C490:  MOVLW  30
0C492:  MOVWF  x40
0C494:  MOVLW  01
0C496:  MOVWF  x41
0C498:  CLRF   x42
0C49A:  MOVLB  0
0C49C:  CALL   3EA2
0C4A0:  MOVLW  31
0C4A2:  MOVLB  7
0C4A4:  MOVWF  x3B
0C4A6:  MOVLW  2C
0C4A8:  MOVWF  x3C
0C4AA:  MOVLW  06
0C4AC:  MOVWF  x3E
0C4AE:  MOVLW  D7
0C4B0:  MOVWF  x3D
0C4B2:  MOVLW  01
0C4B4:  MOVWF  x3F
0C4B6:  MOVWF  x40
0C4B8:  MOVLB  0
0C4BA:  CALL   3BAC
....................       displayTT(Temperatura,69,20,2); 
0C4BE:  MOVFF  6C4,72A
0C4C2:  MOVFF  6C3,729
0C4C6:  MOVFF  6C2,728
0C4CA:  MOVFF  6C1,727
0C4CE:  MOVLW  45
0C4D0:  MOVLB  7
0C4D2:  MOVWF  x2B
0C4D4:  MOVLW  14
0C4D6:  MOVWF  x2C
0C4D8:  MOVLW  02
0C4DA:  MOVWF  x2D
0C4DC:  MOVLB  0
0C4DE:  CALL   61F2
....................       glcd_circle(95,40,2,NO,ON); 
0C4E2:  MOVLW  5F
0C4E4:  MOVLB  7
0C4E6:  MOVWF  x27
0C4E8:  MOVLW  28
0C4EA:  MOVWF  x28
0C4EC:  MOVLW  02
0C4EE:  MOVWF  x29
0C4F0:  CLRF   x2A
0C4F2:  MOVLW  01
0C4F4:  MOVWF  x2B
0C4F6:  MOVLB  0
0C4F8:  CALL   62B8
....................       strcpy(Menus.Letra,"C");displayMenu(Menus.Letra,102,40,2,2); 
0C4FC:  MOVLW  07
0C4FE:  MOVWF  FEA
0C500:  MOVLW  12
0C502:  MOVWF  FE9
0C504:  MOVFF  FF2,727
0C508:  BCF    FF2.7
0C50A:  MOVLW  00
0C50C:  CALL   2A24
0C510:  TBLRD*-
0C512:  TBLRD*+
0C514:  MOVF   FF5,W
0C516:  MOVWF  FEE
0C518:  IORLW  00
0C51A:  BNZ   C512
0C51C:  MOVLB  7
0C51E:  BTFSC  x27.7
0C520:  BSF    FF2.7
0C522:  MOVLW  07
0C524:  MOVWF  x28
0C526:  MOVLW  12
0C528:  MOVWF  x27
0C52A:  MOVLW  66
0C52C:  MOVWF  x29
0C52E:  MOVLW  28
0C530:  MOVWF  x2A
0C532:  MOVLW  02
0C534:  MOVWF  x2B
0C536:  MOVWF  x2C
0C538:  MOVLB  0
0C53A:  CALL   3F64
....................       displayTiempo(Setpoint,5,20,2,1); 
0C53E:  MOVFF  6E5,727
0C542:  MOVLW  05
0C544:  MOVLB  7
0C546:  MOVWF  x28
0C548:  MOVLW  14
0C54A:  MOVWF  x29
0C54C:  MOVLW  02
0C54E:  MOVWF  x2A
0C550:  MOVLW  01
0C552:  MOVWF  x2B
0C554:  MOVLB  0
0C556:  CALL   5756
....................        
....................       strcpy(Menus.Letra,"T est:");displayMenu(Menus.Letra,0,0,2,1); 
0C55A:  MOVLW  07
0C55C:  MOVWF  FEA
0C55E:  MOVLW  12
0C560:  MOVWF  FE9
0C562:  MOVFF  FF2,727
0C566:  BCF    FF2.7
0C568:  MOVLW  00
0C56A:  CALL   2750
0C56E:  TBLRD*-
0C570:  TBLRD*+
0C572:  MOVF   FF5,W
0C574:  MOVWF  FEE
0C576:  IORLW  00
0C578:  BNZ   C570
0C57A:  MOVLB  7
0C57C:  BTFSC  x27.7
0C57E:  BSF    FF2.7
0C580:  MOVLW  07
0C582:  MOVWF  x28
0C584:  MOVLW  12
0C586:  MOVWF  x27
0C588:  CLRF   x29
0C58A:  CLRF   x2A
0C58C:  MOVLW  02
0C58E:  MOVWF  x2B
0C590:  MOVLW  01
0C592:  MOVWF  x2C
0C594:  MOVLB  0
0C596:  CALL   3F64
....................       strcpy(Menus.Letra,"T sec:");displayMenu(Menus.Letra,0,8,2,1); 
0C59A:  MOVLW  07
0C59C:  MOVWF  FEA
0C59E:  MOVLW  12
0C5A0:  MOVWF  FE9
0C5A2:  MOVFF  FF2,727
0C5A6:  BCF    FF2.7
0C5A8:  MOVLW  00
0C5AA:  CALL   2776
0C5AE:  TBLRD*-
0C5B0:  TBLRD*+
0C5B2:  MOVF   FF5,W
0C5B4:  MOVWF  FEE
0C5B6:  IORLW  00
0C5B8:  BNZ   C5B0
0C5BA:  MOVLB  7
0C5BC:  BTFSC  x27.7
0C5BE:  BSF    FF2.7
0C5C0:  MOVLW  07
0C5C2:  MOVWF  x28
0C5C4:  MOVLW  12
0C5C6:  MOVWF  x27
0C5C8:  CLRF   x29
0C5CA:  MOVLW  08
0C5CC:  MOVWF  x2A
0C5CE:  MOVLW  02
0C5D0:  MOVWF  x2B
0C5D2:  MOVLW  01
0C5D4:  MOVWF  x2C
0C5D6:  MOVLB  0
0C5D8:  CALL   3F64
....................       MuestraTiemposProgramados(); 
0C5DC:  CALL   58A6
....................       // Muestra Valor de esterilizacion actual. 
....................       displayTiempo(Testerilizacion[3],80,0,0,1);displayTiempo(Testerilizacion[2],86,0,0,1); 
0C5E0:  MOVFF  46F,727
0C5E4:  MOVLW  50
0C5E6:  MOVLB  7
0C5E8:  MOVWF  x28
0C5EA:  CLRF   x29
0C5EC:  CLRF   x2A
0C5EE:  MOVLW  01
0C5F0:  MOVWF  x2B
0C5F2:  MOVLB  0
0C5F4:  CALL   5756
0C5F8:  MOVFF  46E,727
0C5FC:  MOVLW  56
0C5FE:  MOVLB  7
0C600:  MOVWF  x28
0C602:  CLRF   x29
0C604:  CLRF   x2A
0C606:  MOVLW  01
0C608:  MOVWF  x2B
0C60A:  MOVLB  0
0C60C:  CALL   5756
....................       strcpy(Menus.Letra,":");displayMenu(Menus.Letra,92,0,2,1);  
0C610:  MOVLW  07
0C612:  MOVWF  FEA
0C614:  MOVLW  12
0C616:  MOVWF  FE9
0C618:  MOVFF  FF2,727
0C61C:  BCF    FF2.7
0C61E:  MOVLW  00
0C620:  CALL   1B6A
0C624:  TBLRD*-
0C626:  TBLRD*+
0C628:  MOVF   FF5,W
0C62A:  MOVWF  FEE
0C62C:  IORLW  00
0C62E:  BNZ   C626
0C630:  MOVLB  7
0C632:  BTFSC  x27.7
0C634:  BSF    FF2.7
0C636:  MOVLW  07
0C638:  MOVWF  x28
0C63A:  MOVLW  12
0C63C:  MOVWF  x27
0C63E:  MOVLW  5C
0C640:  MOVWF  x29
0C642:  CLRF   x2A
0C644:  MOVLW  02
0C646:  MOVWF  x2B
0C648:  MOVLW  01
0C64A:  MOVWF  x2C
0C64C:  MOVLB  0
0C64E:  CALL   3F64
....................       displayTiempo(Testerilizacion[1],98,0,0,1);displayTiempo(Testerilizacion[0],104,0,0,1); 
0C652:  MOVFF  46D,727
0C656:  MOVLW  62
0C658:  MOVLB  7
0C65A:  MOVWF  x28
0C65C:  CLRF   x29
0C65E:  CLRF   x2A
0C660:  MOVLW  01
0C662:  MOVWF  x2B
0C664:  MOVLB  0
0C666:  CALL   5756
0C66A:  MOVFF  46C,727
0C66E:  MOVLW  68
0C670:  MOVLB  7
0C672:  MOVWF  x28
0C674:  CLRF   x29
0C676:  CLRF   x2A
0C678:  MOVLW  01
0C67A:  MOVWF  x2B
0C67C:  MOVLB  0
0C67E:  CALL   5756
....................       // Muestra tiempo de secado actual. 
....................       displayTiempo(Tsecado[3],80,8,0,1);displayTiempo(Tsecado[2],86,8,0,1); 
0C682:  MOVFF  477,727
0C686:  MOVLW  50
0C688:  MOVLB  7
0C68A:  MOVWF  x28
0C68C:  MOVLW  08
0C68E:  MOVWF  x29
0C690:  CLRF   x2A
0C692:  MOVLW  01
0C694:  MOVWF  x2B
0C696:  MOVLB  0
0C698:  CALL   5756
0C69C:  MOVFF  476,727
0C6A0:  MOVLW  56
0C6A2:  MOVLB  7
0C6A4:  MOVWF  x28
0C6A6:  MOVLW  08
0C6A8:  MOVWF  x29
0C6AA:  CLRF   x2A
0C6AC:  MOVLW  01
0C6AE:  MOVWF  x2B
0C6B0:  MOVLB  0
0C6B2:  CALL   5756
....................       strcpy(Menus.Letra,":");displayMenu(Menus.Letra,92,8,2,1);  
0C6B6:  MOVLW  07
0C6B8:  MOVWF  FEA
0C6BA:  MOVLW  12
0C6BC:  MOVWF  FE9
0C6BE:  MOVFF  FF2,727
0C6C2:  BCF    FF2.7
0C6C4:  MOVLW  00
0C6C6:  CALL   1B6A
0C6CA:  TBLRD*-
0C6CC:  TBLRD*+
0C6CE:  MOVF   FF5,W
0C6D0:  MOVWF  FEE
0C6D2:  IORLW  00
0C6D4:  BNZ   C6CC
0C6D6:  MOVLB  7
0C6D8:  BTFSC  x27.7
0C6DA:  BSF    FF2.7
0C6DC:  MOVLW  07
0C6DE:  MOVWF  x28
0C6E0:  MOVLW  12
0C6E2:  MOVWF  x27
0C6E4:  MOVLW  5C
0C6E6:  MOVWF  x29
0C6E8:  MOVLW  08
0C6EA:  MOVWF  x2A
0C6EC:  MOVLW  02
0C6EE:  MOVWF  x2B
0C6F0:  MOVLW  01
0C6F2:  MOVWF  x2C
0C6F4:  MOVLB  0
0C6F6:  CALL   3F64
....................       displayTiempo(Tsecado[1],98,8,0,1);displayTiempo(Tsecado[0],104,8,0,1); 
0C6FA:  MOVFF  475,727
0C6FE:  MOVLW  62
0C700:  MOVLB  7
0C702:  MOVWF  x28
0C704:  MOVLW  08
0C706:  MOVWF  x29
0C708:  CLRF   x2A
0C70A:  MOVLW  01
0C70C:  MOVWF  x2B
0C70E:  MOVLB  0
0C710:  CALL   5756
0C714:  MOVFF  474,727
0C718:  MOVLW  68
0C71A:  MOVLB  7
0C71C:  MOVWF  x28
0C71E:  MOVLW  08
0C720:  MOVWF  x29
0C722:  CLRF   x2A
0C724:  MOVLW  01
0C726:  MOVWF  x2B
0C728:  MOVLB  0
0C72A:  CALL   5756
0C72E:  MOVLB  4
0C730:  MOVLB  6
....................    } 
.................... } 
.................... //_-------------------------------------------------------------------------------------------------------------------------------------------------------- 
....................  
.................... //_--------------------------------------------------------------------------------------------------------------------------------------------------------     
....................    if(Menu==30){ // Este es el menu de cuando el proceso se inicio. 
0C732:  MOVF   xE1,W
0C734:  SUBLW  1E
0C736:  BTFSS  FD8.2
0C738:  GOTO   CF62
....................     
....................    //Lectura_Esclavos(); 
....................     
....................    //Envio_Esclavos(); 
....................    // Nuevo Flujo de Programa con logica 2018 para ajustar ciclos de Pre-Vacio y de Vacio al final del ciclo//    
....................     
....................    if(RIGHT){ 
0C73C:  BSF    F96.0
0C73E:  BTFSC  F84.0
0C740:  BRA    C772
....................       glcd_init(ON); 
0C742:  MOVLW  01
0C744:  MOVLB  7
0C746:  MOVWF  x27
0C748:  MOVLB  0
0C74A:  CALL   3A48
....................       delay_ms(1000); 
0C74E:  MOVLW  04
0C750:  MOVLB  7
0C752:  MOVWF  x27
0C754:  MOVLW  FA
0C756:  MOVWF  x2D
0C758:  MOVLB  0
0C75A:  CALL   30A6
0C75E:  MOVLB  7
0C760:  DECFSZ x27,F
0C762:  BRA    C754
....................       PosVacio=OFF; 
0C764:  MOVLB  4
0C766:  BCF    x63.4
....................       PosCalentando=OFF; 
0C768:  BCF    x63.5
....................       PosEsterilizando=OFF; 
0C76A:  BCF    x63.6
....................       PosDesfogando=OFF; 
0C76C:  BCF    x63.7
....................       PosSecando=OFF; 
0C76E:  BCF    x64.0
0C770:  MOVLB  6
....................    } 
....................     
....................    if(!TERM){ 
0C772:  BSF    F93.7
0C774:  BTFSS  F81.7
0C776:  BRA    C780
....................       AlarmaTermostato=ON; 
0C778:  MOVLB  4
0C77A:  BSF    x5D.3
....................    }else{ 
0C77C:  BRA    C784
0C77E:  MOVLB  6
....................       AlarmaTermostato=OFF; 
0C780:  MOVLB  4
0C782:  BCF    x5D.3
....................    } 
....................     
....................    if(!DOOR){ 
0C784:  BSF    F96.2
0C786:  BTFSS  F84.2
0C788:  BRA    C78E
....................       AlarmaPuerta=ON; 
0C78A:  BSF    x5D.4
....................    }else{ 
0C78C:  BRA    C790
....................       AlarmaPuerta=OFF; 
0C78E:  BCF    x5D.4
....................    } 
....................  
....................    if(!STOP){ 
0C790:  BSF    F93.6
0C792:  BTFSS  F81.6
0C794:  BRA    C798
....................       AlarmaEmergencia=ON; 
0C796:  BSF    x5D.5
....................    } 
....................     
....................    if(AlarmaPuerta || AlarmaTermostato || AlarmaLlenado || AlarmaSobreTemperatura || AlarmaTiempoProlongado || AlarmaEmergencia || AlarmaBomba){ 
0C798:  BTFSC  x5D.4
0C79A:  BRA    C7B4
0C79C:  BTFSC  x5D.3
0C79E:  BRA    C7B4
0C7A0:  BTFSC  x5D.2
0C7A2:  BRA    C7B4
0C7A4:  BTFSC  x5D.1
0C7A6:  BRA    C7B4
0C7A8:  BTFSC  x5D.0
0C7AA:  BRA    C7B4
0C7AC:  BTFSC  x5D.5
0C7AE:  BRA    C7B4
0C7B0:  BTFSS  x5D.7
0C7B2:  BRA    C978
....................        
....................       if(AlarmaEmergencia){ 
0C7B4:  BTFSS  x5D.5
0C7B6:  BRA    C81E
....................          BorraStatus(); 
0C7B8:  MOVLB  0
0C7BA:  CALL   59E6
....................          strcpy(Menus.Letra,"Parada Emergencia");displayMenu(Menus.Letra,0,55,2,1); 
0C7BE:  MOVLW  07
0C7C0:  MOVWF  FEA
0C7C2:  MOVLW  12
0C7C4:  MOVWF  FE9
0C7C6:  MOVFF  FF2,727
0C7CA:  BCF    FF2.7
0C7CC:  MOVLW  00
0C7CE:  CALL   279C
0C7D2:  TBLRD*-
0C7D4:  TBLRD*+
0C7D6:  MOVF   FF5,W
0C7D8:  MOVWF  FEE
0C7DA:  IORLW  00
0C7DC:  BNZ   C7D4
0C7DE:  MOVLB  7
0C7E0:  BTFSC  x27.7
0C7E2:  BSF    FF2.7
0C7E4:  MOVLW  07
0C7E6:  MOVWF  x28
0C7E8:  MOVLW  12
0C7EA:  MOVWF  x27
0C7EC:  CLRF   x29
0C7EE:  MOVLW  37
0C7F0:  MOVWF  x2A
0C7F2:  MOVLW  02
0C7F4:  MOVWF  x2B
0C7F6:  MOVLW  01
0C7F8:  MOVWF  x2C
0C7FA:  MOVLB  0
0C7FC:  CALL   3F64
....................          SSR2=OFF; 
0C800:  MOVLB  4
0C802:  BCF    x64.5
....................          SSR3=OFF; 
0C804:  BCF    x64.6
....................          EVVacio=OFF; 
0C806:  BCF    x64.2
....................          Desfogue_on; 
0C808:  BCF    F8B.5
0C80A:  BCF    F94.5
....................          EVAire=OFF;                      
0C80C:  BCF    x64.3
....................          Paso_off; 
0C80E:  BSF    F8B.6
0C810:  BCF    F94.6
....................          EVAgua=OFF; 
0C812:  BCF    x64.4
....................          EVAireBomba=OFF; 
0C814:  BCF    x65.0
....................          SSR_off; 
0C816:  BSF    F8B.2
0C818:  BCF    F94.2
....................          flag_vac=OFF; 
0C81A:  BCF    x62.7
....................       }else{ 
0C81C:  BRA    C976
....................          if(AlarmaPuerta) 
0C81E:  BTFSS  x5D.4
0C820:  BRA    C888
....................          { 
....................             BorraStatus(); 
0C822:  MOVLB  0
0C824:  CALL   59E6
....................             strcpy(Menus.Letra,"Puerta Abierta");displayMenu(Menus.Letra,0,55,2,1); 
0C828:  MOVLW  07
0C82A:  MOVWF  FEA
0C82C:  MOVLW  12
0C82E:  MOVWF  FE9
0C830:  MOVFF  FF2,727
0C834:  BCF    FF2.7
0C836:  MOVLW  00
0C838:  CALL   27CC
0C83C:  TBLRD*-
0C83E:  TBLRD*+
0C840:  MOVF   FF5,W
0C842:  MOVWF  FEE
0C844:  IORLW  00
0C846:  BNZ   C83E
0C848:  MOVLB  7
0C84A:  BTFSC  x27.7
0C84C:  BSF    FF2.7
0C84E:  MOVLW  07
0C850:  MOVWF  x28
0C852:  MOVLW  12
0C854:  MOVWF  x27
0C856:  CLRF   x29
0C858:  MOVLW  37
0C85A:  MOVWF  x2A
0C85C:  MOVLW  02
0C85E:  MOVWF  x2B
0C860:  MOVLW  01
0C862:  MOVWF  x2C
0C864:  MOVLB  0
0C866:  CALL   3F64
....................             SSR2=OFF; 
0C86A:  MOVLB  4
0C86C:  BCF    x64.5
....................             SSR3=OFF; 
0C86E:  BCF    x64.6
....................             EVVacio=OFF; 
0C870:  BCF    x64.2
....................             Desfogue_on; 
0C872:  BCF    F8B.5
0C874:  BCF    F94.5
....................             EVAire=OFF;                      
0C876:  BCF    x64.3
....................             Paso_off; 
0C878:  BSF    F8B.6
0C87A:  BCF    F94.6
....................             EVAgua=OFF; 
0C87C:  BCF    x64.4
....................             EVAireBomba=OFF; 
0C87E:  BCF    x65.0
....................             SSR_off; 
0C880:  BSF    F8B.2
0C882:  BCF    F94.2
....................             flag_vac=OFF; 
0C884:  BCF    x62.7
....................          }else{ 
0C886:  BRA    C976
....................             if(AlarmaTermostato) // Alarma de Termostato 
0C888:  BTFSS  x5D.3
0C88A:  BRA    C8E6
....................             { 
....................                BorraStatus(); 
0C88C:  MOVLB  0
0C88E:  CALL   59E6
....................                tiempo_esterilizacion=0;tiempo_secado=0;          
0C892:  MOVLB  6
0C894:  CLRF   xE8
0C896:  CLRF   xE9
....................                strcpy(Menus.Letra,"Error:EA02");displayMenu(Menus.Letra,0,55,2,1);           
0C898:  MOVLW  07
0C89A:  MOVWF  FEA
0C89C:  MOVLW  12
0C89E:  MOVWF  FE9
0C8A0:  MOVFF  FF2,727
0C8A4:  BCF    FF2.7
0C8A6:  MOVLW  00
0C8A8:  MOVLB  0
0C8AA:  CALL   2824
0C8AE:  TBLRD*-
0C8B0:  TBLRD*+
0C8B2:  MOVF   FF5,W
0C8B4:  MOVWF  FEE
0C8B6:  IORLW  00
0C8B8:  BNZ   C8B0
0C8BA:  MOVLB  7
0C8BC:  BTFSC  x27.7
0C8BE:  BSF    FF2.7
0C8C0:  MOVLW  07
0C8C2:  MOVWF  x28
0C8C4:  MOVLW  12
0C8C6:  MOVWF  x27
0C8C8:  CLRF   x29
0C8CA:  MOVLW  37
0C8CC:  MOVWF  x2A
0C8CE:  MOVLW  02
0C8D0:  MOVWF  x2B
0C8D2:  MOVLW  01
0C8D4:  MOVWF  x2C
0C8D6:  MOVLB  0
0C8D8:  CALL   3F64
....................                //AguaIn_off; 
....................                SSR_off; 
0C8DC:  BSF    F8B.2
0C8DE:  BCF    F94.2
....................                flag_vac=OFF; 
0C8E0:  MOVLB  4
0C8E2:  BCF    x62.7
....................             }else{ 
0C8E4:  BRA    C976
....................                if(AlarmaBomba) // Alarma de Tiempo prolongado para hacer vacio 
0C8E6:  BTFSS  x5D.7
0C8E8:  BRA    C976
....................                { 
....................                   BorraStatus(); 
0C8EA:  MOVLB  0
0C8EC:  CALL   59E6
....................                   strcpy(Menus.Letra,"Error Bomba");displayMenu(Menus.Letra,0,55,2,1); 
0C8F0:  MOVLW  07
0C8F2:  MOVWF  FEA
0C8F4:  MOVLW  12
0C8F6:  MOVWF  FE9
0C8F8:  MOVFF  FF2,727
0C8FC:  BCF    FF2.7
0C8FE:  MOVLW  00
0C900:  CALL   28CC
0C904:  TBLRD*-
0C906:  TBLRD*+
0C908:  MOVF   FF5,W
0C90A:  MOVWF  FEE
0C90C:  IORLW  00
0C90E:  BNZ   C906
0C910:  MOVLB  7
0C912:  BTFSC  x27.7
0C914:  BSF    FF2.7
0C916:  MOVLW  07
0C918:  MOVWF  x28
0C91A:  MOVLW  12
0C91C:  MOVWF  x27
0C91E:  CLRF   x29
0C920:  MOVLW  37
0C922:  MOVWF  x2A
0C924:  MOVLW  02
0C926:  MOVWF  x2B
0C928:  MOVLW  01
0C92A:  MOVWF  x2C
0C92C:  MOVLB  0
0C92E:  CALL   3F64
....................                   Vacio=ON; 
0C932:  MOVLB  4
0C934:  BSF    x62.4
....................                   SSR2=OFF; 
0C936:  BCF    x64.5
....................                   SSR3=OFF; 
0C938:  BCF    x64.6
....................                   EVVacio=OFF; 
0C93A:  BCF    x64.2
....................                   Desfogue_on; 
0C93C:  BCF    F8B.5
0C93E:  BCF    F94.5
....................                   EVAire=ON;                      
0C940:  BSF    x64.3
....................                   EVAgua=OFF; 
0C942:  BCF    x64.4
....................                   EVAireBomba=OFF; 
0C944:  BCF    x65.0
....................                   IniciaVacio=OFF; 
0C946:  BCF    x62.6
....................                   //AguaIn_off; 
....................                   SSR_off; 
0C948:  BSF    F8B.2
0C94A:  BCF    F94.2
....................                   if(!BorraCuadro){ 
0C94C:  BTFSC  x63.3
0C94E:  BRA    C976
....................                      glcd_fillscreen(OFF); 
0C950:  MOVLB  7
0C952:  CLRF   x28
0C954:  MOVLB  0
0C956:  CALL   3936
....................                      PosVacio=OFF; 
0C95A:  MOVLB  4
0C95C:  BCF    x63.4
....................                      PosCalentando=OFF; 
0C95E:  BCF    x63.5
....................                      PosEsterilizando=OFF; 
0C960:  BCF    x63.6
....................                      PosDesfogando=OFF; 
0C962:  BCF    x63.7
....................                      PosSecando=OFF; 
0C964:  BCF    x64.0
....................                      glcd_imagen(6); 
0C966:  MOVLW  06
0C968:  MOVLB  7
0C96A:  MOVWF  x28
0C96C:  MOVLB  0
0C96E:  CALL   509C
....................                      BorraCuadro=ON; 
0C972:  MOVLB  4
0C974:  BSF    x63.3
....................                   } 
....................                } 
....................             }       
....................          } 
....................       } 
....................    } 
....................    else 
0C976:  BRA    CC00
....................    {       
....................       if(!flag_vac){ 
0C978:  BTFSC  x62.7
0C97A:  BRA    CA02
....................          flag_vac=ON; 
0C97C:  BSF    x62.7
....................          SSR2=ON; 
0C97E:  BSF    x64.5
....................          SSR3=ON; 
0C980:  BSF    x64.6
....................          EVVacio=OFF; 
0C982:  BCF    x64.2
....................          Desfogue_off; 
0C984:  BSF    F8B.5
0C986:  BCF    F94.5
....................          EVAire=OFF; 
0C988:  BCF    x64.3
....................          EVAireBomba=ON; 
0C98A:  BSF    x65.0
....................          Paso_off; 
0C98C:  BSF    F8B.6
0C98E:  BCF    F94.6
....................          EVAgua=OFF; 
0C990:  BCF    x64.4
....................          SSR_off; 
0C992:  BSF    F8B.2
0C994:  BCF    F94.2
....................          Envio_Esclavos(); 
0C996:  MOVLB  0
0C998:  CALL   38C0
....................          EVAireBomba=OFF; 
0C99C:  MOVLB  4
0C99E:  BCF    x65.0
....................          BorraStatus(); 
0C9A0:  MOVLB  0
0C9A2:  CALL   59E6
....................          strcpy(Menus.Letra,"Test Vacio");displayMenu(Menus.Letra,0,55,2,1); 
0C9A6:  MOVLW  07
0C9A8:  MOVWF  FEA
0C9AA:  MOVLW  12
0C9AC:  MOVWF  FE9
0C9AE:  MOVFF  FF2,727
0C9B2:  BCF    FF2.7
0C9B4:  MOVLW  00
0C9B6:  CALL   2A44
0C9BA:  TBLRD*-
0C9BC:  TBLRD*+
0C9BE:  MOVF   FF5,W
0C9C0:  MOVWF  FEE
0C9C2:  IORLW  00
0C9C4:  BNZ   C9BC
0C9C6:  MOVLB  7
0C9C8:  BTFSC  x27.7
0C9CA:  BSF    FF2.7
0C9CC:  MOVLW  07
0C9CE:  MOVWF  x28
0C9D0:  MOVLW  12
0C9D2:  MOVWF  x27
0C9D4:  CLRF   x29
0C9D6:  MOVLW  37
0C9D8:  MOVWF  x2A
0C9DA:  MOVLW  02
0C9DC:  MOVWF  x2B
0C9DE:  MOVLW  01
0C9E0:  MOVWF  x2C
0C9E2:  MOVLB  0
0C9E4:  CALL   3F64
....................          delay_ms(7000); 
0C9E8:  MOVLW  1C
0C9EA:  MOVLB  7
0C9EC:  MOVWF  x27
0C9EE:  MOVLW  FA
0C9F0:  MOVWF  x2D
0C9F2:  MOVLB  0
0C9F4:  CALL   30A6
0C9F8:  MOVLB  7
0C9FA:  DECFSZ x27,F
0C9FC:  BRA    C9EE
....................          IniciaVacio2=ON; 
0C9FE:  MOVLB  4
0CA00:  BSF    x62.0
....................       } 
....................        
....................       if(tbomba>=120){ 
0CA02:  MOVLB  7
0CA04:  MOVF   x11,F
0CA06:  BNZ   CA0E
0CA08:  MOVF   x10,W
0CA0A:  SUBLW  77
0CA0C:  BC    CA2C
....................          if(PresionCamara>Atmosferica){ 
0CA0E:  MOVLB  6
0CA10:  MOVF   xF5,F
0CA12:  BNZ   CA1A
0CA14:  MOVF   xF4,W
0CA16:  SUBWF  xE6,W
0CA18:  BC    CA22
....................             AlarmaBomba=ON; 
0CA1A:  MOVLB  4
0CA1C:  BSF    x5D.7
....................          }else{ 
0CA1E:  BRA    CA2C
0CA20:  MOVLB  6
....................             tbomba=0; 
0CA22:  MOVLB  7
0CA24:  CLRF   x11
0CA26:  CLRF   x10
....................             IniciaVacio2=OFF; 
0CA28:  MOVLB  4
0CA2A:  BCF    x62.0
....................          } 
....................       } 
....................        
....................       if(PresionCamara<17){ 
0CA2C:  MOVLB  6
0CA2E:  MOVF   xF5,F
0CA30:  BNZ   CA5C
0CA32:  MOVF   xF4,W
0CA34:  SUBLW  10
0CA36:  BNC   CA5C
....................          SSR2=OFF; 
0CA38:  MOVLB  4
0CA3A:  BCF    x64.5
....................          SSR3=OFF; 
0CA3C:  BCF    x64.6
....................          EVVacio=OFF; 
0CA3E:  BCF    x64.2
....................          Desfogue_off; 
0CA40:  BSF    F8B.5
0CA42:  BCF    F94.5
....................          EVAire=OFF; 
0CA44:  BCF    x64.3
....................          EVAireBomba=OFF; 
0CA46:  BCF    x65.0
....................          Paso_off; 
0CA48:  BSF    F8B.6
0CA4A:  BCF    F94.6
....................          SSR_off; 
0CA4C:  BSF    F8B.2
0CA4E:  BCF    F94.2
....................          Esterilizando=ON; 
0CA50:  BSF    x60.3
....................          IniciaVacio=OFF; 
0CA52:  BCF    x62.6
....................          tbomba=0; 
0CA54:  MOVLB  7
0CA56:  CLRF   x11
0CA58:  CLRF   x10
0CA5A:  MOVLB  6
....................       }  
....................       if((Testerilizacion[0]>=Testerilizacionp[0])&&(Testerilizacion[1]>=Testerilizacionp[1])&& 
....................       (Testerilizacion[2]>=Testerilizacionp[2])&&(Testerilizacion[3]>=Testerilizacionp[3])){                 
0CA5C:  MOVLB  4
0CA5E:  MOVF   x70,W
0CA60:  XORLW  80
0CA62:  MOVWF  00
0CA64:  MOVF   x6C,W
0CA66:  XORLW  80
0CA68:  SUBWF  00,W
0CA6A:  BZ    CA70
0CA6C:  BTFSC  FD8.0
0CA6E:  BRA    CC00
0CA70:  MOVF   x71,W
0CA72:  XORLW  80
0CA74:  MOVWF  00
0CA76:  MOVF   x6D,W
0CA78:  XORLW  80
0CA7A:  SUBWF  00,W
0CA7C:  BZ    CA82
0CA7E:  BTFSC  FD8.0
0CA80:  BRA    CC00
0CA82:  MOVF   x72,W
0CA84:  XORLW  80
0CA86:  MOVWF  00
0CA88:  MOVF   x6E,W
0CA8A:  XORLW  80
0CA8C:  SUBWF  00,W
0CA8E:  BZ    CA94
0CA90:  BTFSC  FD8.0
0CA92:  BRA    CC00
0CA94:  MOVF   x73,W
0CA96:  XORLW  80
0CA98:  MOVWF  00
0CA9A:  MOVF   x6F,W
0CA9C:  XORLW  80
0CA9E:  SUBWF  00,W
0CAA0:  BZ    CAA6
0CAA2:  BTFSC  FD8.0
0CAA4:  BRA    CC00
....................          IniciaVacio=OFF; 
0CAA6:  BCF    x62.6
....................          tbomba=0; 
0CAA8:  MOVLB  7
0CAAA:  CLRF   x11
0CAAC:  CLRF   x10
....................          SSR2=OFF; 
0CAAE:  MOVLB  4
0CAB0:  BCF    x64.5
....................          SSR3=OFF; 
0CAB2:  BCF    x64.6
....................          EVVacio=OFF; 
0CAB4:  BCF    x64.2
....................          Desfogue_off; 
0CAB6:  BSF    F8B.5
0CAB8:  BCF    F94.5
....................          EVAire=ON; 
0CABA:  BSF    x64.3
....................          EVAireBomba=OFF; 
0CABC:  BCF    x65.0
....................          Paso_off; 
0CABE:  BSF    F8B.6
0CAC0:  BCF    F94.6
....................          SSR_off; 
0CAC2:  BSF    F8B.2
0CAC4:  BCF    F94.2
....................          EnciendeBuzzer=ON; 
0CAC6:  BSF    x63.2
....................          if(PresionCamara<=20 && !Desfogando){ 
0CAC8:  MOVLB  6
0CACA:  MOVF   xF5,F
0CACC:  BNZ   CB2A
0CACE:  MOVF   xF4,W
0CAD0:  SUBLW  14
0CAD2:  BNC   CB2A
0CAD4:  MOVLB  4
0CAD6:  BTFSS  x60.6
0CAD8:  BRA    CADE
0CADA:  MOVLB  6
0CADC:  BRA    CB2A
....................             BorraStatus(); 
0CADE:  MOVLB  0
0CAE0:  CALL   59E6
....................             strcpy(Menus.Letra,"Ciclo Finalizado");displayMenu(Menus.Letra,0,55,2,1); 
0CAE4:  MOVLW  07
0CAE6:  MOVWF  FEA
0CAE8:  MOVLW  12
0CAEA:  MOVWF  FE9
0CAEC:  MOVFF  FF2,727
0CAF0:  BCF    FF2.7
0CAF2:  MOVLW  00
0CAF4:  CALL   2974
0CAF8:  TBLRD*-
0CAFA:  TBLRD*+
0CAFC:  MOVF   FF5,W
0CAFE:  MOVWF  FEE
0CB00:  IORLW  00
0CB02:  BNZ   CAFA
0CB04:  MOVLB  7
0CB06:  BTFSC  x27.7
0CB08:  BSF    FF2.7
0CB0A:  MOVLW  07
0CB0C:  MOVWF  x28
0CB0E:  MOVLW  12
0CB10:  MOVWF  x27
0CB12:  CLRF   x29
0CB14:  MOVLW  37
0CB16:  MOVWF  x2A
0CB18:  MOVLW  02
0CB1A:  MOVWF  x2B
0CB1C:  MOVLW  01
0CB1E:  MOVWF  x2C
0CB20:  MOVLB  0
0CB22:  CALL   3F64
....................          }else{ 
0CB26:  BRA    CB72
0CB28:  MOVLB  6
....................             BorraStatus(); 
0CB2A:  MOVLB  0
0CB2C:  CALL   59E6
....................             strcpy(Menus.Letra,"Error Ciclo");displayMenu(Menus.Letra,0,55,2,1); 
0CB30:  MOVLW  07
0CB32:  MOVWF  FEA
0CB34:  MOVLW  12
0CB36:  MOVWF  FE9
0CB38:  MOVFF  FF2,727
0CB3C:  BCF    FF2.7
0CB3E:  MOVLW  00
0CB40:  CALL   28A2
0CB44:  TBLRD*-
0CB46:  TBLRD*+
0CB48:  MOVF   FF5,W
0CB4A:  MOVWF  FEE
0CB4C:  IORLW  00
0CB4E:  BNZ   CB46
0CB50:  MOVLB  7
0CB52:  BTFSC  x27.7
0CB54:  BSF    FF2.7
0CB56:  MOVLW  07
0CB58:  MOVWF  x28
0CB5A:  MOVLW  12
0CB5C:  MOVWF  x27
0CB5E:  CLRF   x29
0CB60:  MOVLW  37
0CB62:  MOVWF  x2A
0CB64:  MOVLW  02
0CB66:  MOVWF  x2B
0CB68:  MOVLW  01
0CB6A:  MOVWF  x2C
0CB6C:  MOVLB  0
0CB6E:  CALL   3F64
....................          } 
....................          if(!Ciclo){ 
0CB72:  MOVLB  4
0CB74:  BTFSC  x63.1
0CB76:  BRA    CBFC
....................             Ciclo=ON; 
0CB78:  BSF    x63.1
....................             Ciclos++; 
0CB7A:  MOVLB  6
0CB7C:  INCF   xF8,F
0CB7E:  BTFSC  FD8.2
0CB80:  INCF   xF9,F
....................             CiclosL=make8(Ciclos,0); 
0CB82:  MOVFF  6F8,6DF
....................             CiclosH=make8(Ciclos,1); 
0CB86:  MOVFF  6F9,6E0
....................             write_eeprom(37,CiclosL); 
0CB8A:  CLRF   FAA
0CB8C:  MOVLW  25
0CB8E:  MOVWF  FA9
0CB90:  MOVFF  6DF,FA8
0CB94:  BCF    FA6.6
0CB96:  BCF    FA6.7
0CB98:  BSF    FA6.2
0CB9A:  MOVF   FF2,W
0CB9C:  MOVWF  00
0CB9E:  BCF    FF2.7
0CBA0:  MOVLB  F
0CBA2:  MOVLW  55
0CBA4:  MOVWF  FA7
0CBA6:  MOVLW  AA
0CBA8:  MOVWF  FA7
0CBAA:  BSF    FA6.1
0CBAC:  BTFSC  FA6.1
0CBAE:  BRA    CBAC
0CBB0:  BCF    FA6.2
0CBB2:  MOVF   00,W
0CBB4:  IORWF  FF2,F
....................             delay_ms(20); 
0CBB6:  MOVLW  14
0CBB8:  MOVLB  7
0CBBA:  MOVWF  x2D
0CBBC:  MOVLB  0
0CBBE:  CALL   30A6
....................             write_eeprom(38,CiclosH); 
0CBC2:  CLRF   FAA
0CBC4:  MOVLW  26
0CBC6:  MOVWF  FA9
0CBC8:  MOVFF  6E0,FA8
0CBCC:  BCF    FA6.6
0CBCE:  BCF    FA6.7
0CBD0:  BSF    FA6.2
0CBD2:  MOVF   FF2,W
0CBD4:  MOVWF  00
0CBD6:  BCF    FF2.7
0CBD8:  MOVLB  F
0CBDA:  MOVLW  55
0CBDC:  MOVWF  FA7
0CBDE:  MOVLW  AA
0CBE0:  MOVWF  FA7
0CBE2:  BSF    FA6.1
0CBE4:  BTFSC  FA6.1
0CBE6:  BRA    CBE4
0CBE8:  BCF    FA6.2
0CBEA:  MOVF   00,W
0CBEC:  IORWF  FF2,F
....................             delay_ms(20); 
0CBEE:  MOVLW  14
0CBF0:  MOVLB  7
0CBF2:  MOVWF  x2D
0CBF4:  MOVLB  0
0CBF6:  CALL   30A6
0CBFA:  MOVLB  4
....................          } 
....................          Desfogando=ON; 
0CBFC:  BSF    x60.6
....................          Esterilizando=OFF; 
0CBFE:  BCF    x60.3
....................       } 
....................    }  
....................     
....................     
....................    if(Lectura==1)// Utilizado para visualizar la lectura de la temperatura 
0CC00:  BTFSS  x65.6
0CC02:  BRA    CF60
....................    {      
....................       Lectura=0; 
0CC04:  BCF    x65.6
....................       glcd_imagen(12); 
0CC06:  MOVLW  0C
0CC08:  MOVLB  7
0CC0A:  MOVWF  x28
0CC0C:  MOVLB  0
0CC0E:  CALL   509C
....................       displayT(PresionCamara,31,33,1); 
0CC12:  MOVFF  6F5,72E
0CC16:  MOVFF  6F4,72D
0CC1A:  CALL   30CE
0CC1E:  MOVFF  00,727
0CC22:  MOVFF  01,728
0CC26:  MOVFF  02,729
0CC2A:  MOVFF  03,72A
0CC2E:  MOVFF  03,72E
0CC32:  MOVFF  02,72D
0CC36:  MOVFF  01,72C
0CC3A:  MOVFF  00,72B
0CC3E:  MOVLW  1F
0CC40:  MOVLB  7
0CC42:  MOVWF  x2F
0CC44:  MOVLW  21
0CC46:  MOVWF  x30
0CC48:  MOVLW  01
0CC4A:  MOVWF  x31
0CC4C:  MOVLB  0
0CC4E:  CALL   617C
....................       displayT(PresionPreCamara,31,42,1); 
0CC52:  MOVFF  6F7,72E
0CC56:  MOVFF  6F6,72D
0CC5A:  CALL   30CE
0CC5E:  MOVFF  00,727
0CC62:  MOVFF  01,728
0CC66:  MOVFF  02,729
0CC6A:  MOVFF  03,72A
0CC6E:  MOVFF  03,72E
0CC72:  MOVFF  02,72D
0CC76:  MOVFF  01,72C
0CC7A:  MOVFF  00,72B
0CC7E:  MOVLW  1F
0CC80:  MOVLB  7
0CC82:  MOVWF  x2F
0CC84:  MOVLW  2A
0CC86:  MOVWF  x30
0CC88:  MOVLW  01
0CC8A:  MOVWF  x31
0CC8C:  MOVLB  0
0CC8E:  CALL   617C
....................       glcd_rect(51, 33, 62, 46, YES, OFF);glcd_text57(52, 33, kpa, 1, ON); 
0CC92:  MOVLW  33
0CC94:  MOVLB  7
0CC96:  MOVWF  x3D
0CC98:  MOVLW  21
0CC9A:  MOVWF  x3E
0CC9C:  MOVLW  3E
0CC9E:  MOVWF  x3F
0CCA0:  MOVLW  2E
0CCA2:  MOVWF  x40
0CCA4:  MOVLW  01
0CCA6:  MOVWF  x41
0CCA8:  CLRF   x42
0CCAA:  MOVLB  0
0CCAC:  CALL   3EA2
0CCB0:  MOVLW  34
0CCB2:  MOVLB  7
0CCB4:  MOVWF  x3B
0CCB6:  MOVLW  21
0CCB8:  MOVWF  x3C
0CCBA:  MOVLW  06
0CCBC:  MOVWF  x3E
0CCBE:  MOVLW  D7
0CCC0:  MOVWF  x3D
0CCC2:  MOVLW  01
0CCC4:  MOVWF  x3F
0CCC6:  MOVWF  x40
0CCC8:  MOVLB  0
0CCCA:  CALL   3BAC
....................       glcd_rect(51, 42, 62, 46, YES, OFF);glcd_text57(52, 42, kpa, 1, ON); 
0CCCE:  MOVLW  33
0CCD0:  MOVLB  7
0CCD2:  MOVWF  x3D
0CCD4:  MOVLW  2A
0CCD6:  MOVWF  x3E
0CCD8:  MOVLW  3E
0CCDA:  MOVWF  x3F
0CCDC:  MOVLW  2E
0CCDE:  MOVWF  x40
0CCE0:  MOVLW  01
0CCE2:  MOVWF  x41
0CCE4:  CLRF   x42
0CCE6:  MOVLB  0
0CCE8:  CALL   3EA2
0CCEC:  MOVLW  34
0CCEE:  MOVLB  7
0CCF0:  MOVWF  x3B
0CCF2:  MOVLW  2A
0CCF4:  MOVWF  x3C
0CCF6:  MOVLW  06
0CCF8:  MOVWF  x3E
0CCFA:  MOVLW  D7
0CCFC:  MOVWF  x3D
0CCFE:  MOVLW  01
0CD00:  MOVWF  x3F
0CD02:  MOVWF  x40
0CD04:  MOVLB  0
0CD06:  CALL   3BAC
....................       displayTT(Temperatura,69,20,2); 
0CD0A:  MOVFF  6C4,72A
0CD0E:  MOVFF  6C3,729
0CD12:  MOVFF  6C2,728
0CD16:  MOVFF  6C1,727
0CD1A:  MOVLW  45
0CD1C:  MOVLB  7
0CD1E:  MOVWF  x2B
0CD20:  MOVLW  14
0CD22:  MOVWF  x2C
0CD24:  MOVLW  02
0CD26:  MOVWF  x2D
0CD28:  MOVLB  0
0CD2A:  CALL   61F2
....................       glcd_circle(95,40,2,NO,ON); 
0CD2E:  MOVLW  5F
0CD30:  MOVLB  7
0CD32:  MOVWF  x27
0CD34:  MOVLW  28
0CD36:  MOVWF  x28
0CD38:  MOVLW  02
0CD3A:  MOVWF  x29
0CD3C:  CLRF   x2A
0CD3E:  MOVLW  01
0CD40:  MOVWF  x2B
0CD42:  MOVLB  0
0CD44:  CALL   62B8
....................       strcpy(Menus.Letra,"C");displayMenu(Menus.Letra,102,40,2,2); 
0CD48:  MOVLW  07
0CD4A:  MOVWF  FEA
0CD4C:  MOVLW  12
0CD4E:  MOVWF  FE9
0CD50:  MOVFF  FF2,727
0CD54:  BCF    FF2.7
0CD56:  MOVLW  00
0CD58:  CALL   2A24
0CD5C:  TBLRD*-
0CD5E:  TBLRD*+
0CD60:  MOVF   FF5,W
0CD62:  MOVWF  FEE
0CD64:  IORLW  00
0CD66:  BNZ   CD5E
0CD68:  MOVLB  7
0CD6A:  BTFSC  x27.7
0CD6C:  BSF    FF2.7
0CD6E:  MOVLW  07
0CD70:  MOVWF  x28
0CD72:  MOVLW  12
0CD74:  MOVWF  x27
0CD76:  MOVLW  66
0CD78:  MOVWF  x29
0CD7A:  MOVLW  28
0CD7C:  MOVWF  x2A
0CD7E:  MOVLW  02
0CD80:  MOVWF  x2B
0CD82:  MOVWF  x2C
0CD84:  MOVLB  0
0CD86:  CALL   3F64
....................   
....................       strcpy(Menus.Letra,"T est:");displayMenu(Menus.Letra,0,0,2,1); 
0CD8A:  MOVLW  07
0CD8C:  MOVWF  FEA
0CD8E:  MOVLW  12
0CD90:  MOVWF  FE9
0CD92:  MOVFF  FF2,727
0CD96:  BCF    FF2.7
0CD98:  MOVLW  00
0CD9A:  CALL   2750
0CD9E:  TBLRD*-
0CDA0:  TBLRD*+
0CDA2:  MOVF   FF5,W
0CDA4:  MOVWF  FEE
0CDA6:  IORLW  00
0CDA8:  BNZ   CDA0
0CDAA:  MOVLB  7
0CDAC:  BTFSC  x27.7
0CDAE:  BSF    FF2.7
0CDB0:  MOVLW  07
0CDB2:  MOVWF  x28
0CDB4:  MOVLW  12
0CDB6:  MOVWF  x27
0CDB8:  CLRF   x29
0CDBA:  CLRF   x2A
0CDBC:  MOVLW  02
0CDBE:  MOVWF  x2B
0CDC0:  MOVLW  01
0CDC2:  MOVWF  x2C
0CDC4:  MOVLB  0
0CDC6:  CALL   3F64
....................       strcpy(Menus.Letra,"T sec:");displayMenu(Menus.Letra,0,8,2,1); 
0CDCA:  MOVLW  07
0CDCC:  MOVWF  FEA
0CDCE:  MOVLW  12
0CDD0:  MOVWF  FE9
0CDD2:  MOVFF  FF2,727
0CDD6:  BCF    FF2.7
0CDD8:  MOVLW  00
0CDDA:  CALL   2776
0CDDE:  TBLRD*-
0CDE0:  TBLRD*+
0CDE2:  MOVF   FF5,W
0CDE4:  MOVWF  FEE
0CDE6:  IORLW  00
0CDE8:  BNZ   CDE0
0CDEA:  MOVLB  7
0CDEC:  BTFSC  x27.7
0CDEE:  BSF    FF2.7
0CDF0:  MOVLW  07
0CDF2:  MOVWF  x28
0CDF4:  MOVLW  12
0CDF6:  MOVWF  x27
0CDF8:  CLRF   x29
0CDFA:  MOVLW  08
0CDFC:  MOVWF  x2A
0CDFE:  MOVLW  02
0CE00:  MOVWF  x2B
0CE02:  MOVLW  01
0CE04:  MOVWF  x2C
0CE06:  MOVLB  0
0CE08:  CALL   3F64
....................       MuestraTiemposProgramados(); 
0CE0C:  CALL   58A6
....................       // Muestra Valor de esterilizacion actual. 
....................       displayTiempo(Testerilizacion[3],80,0,0,1);displayTiempo(Testerilizacion[2],86,0,0,1); 
0CE10:  MOVFF  46F,727
0CE14:  MOVLW  50
0CE16:  MOVLB  7
0CE18:  MOVWF  x28
0CE1A:  CLRF   x29
0CE1C:  CLRF   x2A
0CE1E:  MOVLW  01
0CE20:  MOVWF  x2B
0CE22:  MOVLB  0
0CE24:  CALL   5756
0CE28:  MOVFF  46E,727
0CE2C:  MOVLW  56
0CE2E:  MOVLB  7
0CE30:  MOVWF  x28
0CE32:  CLRF   x29
0CE34:  CLRF   x2A
0CE36:  MOVLW  01
0CE38:  MOVWF  x2B
0CE3A:  MOVLB  0
0CE3C:  CALL   5756
....................       strcpy(Menus.Letra,":");displayMenu(Menus.Letra,92,0,2,1);  
0CE40:  MOVLW  07
0CE42:  MOVWF  FEA
0CE44:  MOVLW  12
0CE46:  MOVWF  FE9
0CE48:  MOVFF  FF2,727
0CE4C:  BCF    FF2.7
0CE4E:  MOVLW  00
0CE50:  CALL   1B6A
0CE54:  TBLRD*-
0CE56:  TBLRD*+
0CE58:  MOVF   FF5,W
0CE5A:  MOVWF  FEE
0CE5C:  IORLW  00
0CE5E:  BNZ   CE56
0CE60:  MOVLB  7
0CE62:  BTFSC  x27.7
0CE64:  BSF    FF2.7
0CE66:  MOVLW  07
0CE68:  MOVWF  x28
0CE6A:  MOVLW  12
0CE6C:  MOVWF  x27
0CE6E:  MOVLW  5C
0CE70:  MOVWF  x29
0CE72:  CLRF   x2A
0CE74:  MOVLW  02
0CE76:  MOVWF  x2B
0CE78:  MOVLW  01
0CE7A:  MOVWF  x2C
0CE7C:  MOVLB  0
0CE7E:  CALL   3F64
....................       displayTiempo(Testerilizacion[1],98,0,0,1);displayTiempo(Testerilizacion[0],104,0,0,1); 
0CE82:  MOVFF  46D,727
0CE86:  MOVLW  62
0CE88:  MOVLB  7
0CE8A:  MOVWF  x28
0CE8C:  CLRF   x29
0CE8E:  CLRF   x2A
0CE90:  MOVLW  01
0CE92:  MOVWF  x2B
0CE94:  MOVLB  0
0CE96:  CALL   5756
0CE9A:  MOVFF  46C,727
0CE9E:  MOVLW  68
0CEA0:  MOVLB  7
0CEA2:  MOVWF  x28
0CEA4:  CLRF   x29
0CEA6:  CLRF   x2A
0CEA8:  MOVLW  01
0CEAA:  MOVWF  x2B
0CEAC:  MOVLB  0
0CEAE:  CALL   5756
....................       // Muestra tiempo de secado actual. 
....................       displayTiempo(Tsecado[3],80,8,0,1);displayTiempo(Tsecado[2],86,8,0,1); 
0CEB2:  MOVFF  477,727
0CEB6:  MOVLW  50
0CEB8:  MOVLB  7
0CEBA:  MOVWF  x28
0CEBC:  MOVLW  08
0CEBE:  MOVWF  x29
0CEC0:  CLRF   x2A
0CEC2:  MOVLW  01
0CEC4:  MOVWF  x2B
0CEC6:  MOVLB  0
0CEC8:  CALL   5756
0CECC:  MOVFF  476,727
0CED0:  MOVLW  56
0CED2:  MOVLB  7
0CED4:  MOVWF  x28
0CED6:  MOVLW  08
0CED8:  MOVWF  x29
0CEDA:  CLRF   x2A
0CEDC:  MOVLW  01
0CEDE:  MOVWF  x2B
0CEE0:  MOVLB  0
0CEE2:  CALL   5756
....................       strcpy(Menus.Letra,":");displayMenu(Menus.Letra,92,8,2,1);  
0CEE6:  MOVLW  07
0CEE8:  MOVWF  FEA
0CEEA:  MOVLW  12
0CEEC:  MOVWF  FE9
0CEEE:  MOVFF  FF2,727
0CEF2:  BCF    FF2.7
0CEF4:  MOVLW  00
0CEF6:  CALL   1B6A
0CEFA:  TBLRD*-
0CEFC:  TBLRD*+
0CEFE:  MOVF   FF5,W
0CF00:  MOVWF  FEE
0CF02:  IORLW  00
0CF04:  BNZ   CEFC
0CF06:  MOVLB  7
0CF08:  BTFSC  x27.7
0CF0A:  BSF    FF2.7
0CF0C:  MOVLW  07
0CF0E:  MOVWF  x28
0CF10:  MOVLW  12
0CF12:  MOVWF  x27
0CF14:  MOVLW  5C
0CF16:  MOVWF  x29
0CF18:  MOVLW  08
0CF1A:  MOVWF  x2A
0CF1C:  MOVLW  02
0CF1E:  MOVWF  x2B
0CF20:  MOVLW  01
0CF22:  MOVWF  x2C
0CF24:  MOVLB  0
0CF26:  CALL   3F64
....................       displayTiempo(Tsecado[1],98,8,0,1);displayTiempo(Tsecado[0],104,8,0,1); 
0CF2A:  MOVFF  475,727
0CF2E:  MOVLW  62
0CF30:  MOVLB  7
0CF32:  MOVWF  x28
0CF34:  MOVLW  08
0CF36:  MOVWF  x29
0CF38:  CLRF   x2A
0CF3A:  MOVLW  01
0CF3C:  MOVWF  x2B
0CF3E:  MOVLB  0
0CF40:  CALL   5756
0CF44:  MOVFF  474,727
0CF48:  MOVLW  68
0CF4A:  MOVLB  7
0CF4C:  MOVWF  x28
0CF4E:  MOVLW  08
0CF50:  MOVWF  x29
0CF52:  CLRF   x2A
0CF54:  MOVLW  01
0CF56:  MOVWF  x2B
0CF58:  MOVLB  0
0CF5A:  CALL   5756
0CF5E:  MOVLB  4
0CF60:  MOVLB  6
....................    } 
.................... } 
.................... //_-------------------------------------------------------------------------------------------------------------------------------------------------------- 
....................   
.................... //_-------------------------------------------------------------------------------------------------------------------------------------------------------- 
....................       if(Menu==100){ //Menu de Configuracin de Parametros de Control 
0CF62:  MOVF   xE1,W
0CF64:  SUBLW  64
0CF66:  BTFSS  FD8.2
0CF68:  GOTO   D70A
....................        
....................       if(Opcion>12) 
0CF6C:  MOVF   xE7,W
0CF6E:  SUBLW  0C
0CF70:  BC    CF76
....................       {Opcion=1;} 
0CF72:  MOVLW  01
0CF74:  MOVWF  xE7
....................       if(Opcion<1) 
0CF76:  MOVF   xE7,F
0CF78:  BNZ   CF7E
....................       {Opcion=12;} 
0CF7A:  MOVLW  0C
0CF7C:  MOVWF  xE7
....................        
....................       if(Opcion<=6){ 
0CF7E:  MOVF   xE7,W
0CF80:  SUBLW  06
0CF82:  BTFSS  FD8.0
0CF84:  BRA    D2DE
....................          if(Opcion==1)    
0CF86:  DECFSZ xE7,W
0CF88:  BRA    CFCE
....................             {strcpy(Menus.Letra,"Proporcional"); 
0CF8A:  MOVLW  07
0CF8C:  MOVWF  FEA
0CF8E:  MOVLW  12
0CF90:  MOVWF  FE9
0CF92:  MOVFF  FF2,727
0CF96:  BCF    FF2.7
0CF98:  MOVLW  00
0CF9A:  MOVLB  0
0CF9C:  CALL   2A6E
0CFA0:  TBLRD*-
0CFA2:  TBLRD*+
0CFA4:  MOVF   FF5,W
0CFA6:  MOVWF  FEE
0CFA8:  IORLW  00
0CFAA:  BNZ   CFA2
0CFAC:  MOVLB  7
0CFAE:  BTFSC  x27.7
0CFB0:  BSF    FF2.7
....................             displayMenu(Menus.Letra,0,0,1,1);} 
0CFB2:  MOVLW  07
0CFB4:  MOVWF  x28
0CFB6:  MOVLW  12
0CFB8:  MOVWF  x27
0CFBA:  CLRF   x29
0CFBC:  CLRF   x2A
0CFBE:  MOVLW  01
0CFC0:  MOVWF  x2B
0CFC2:  MOVWF  x2C
0CFC4:  MOVLB  0
0CFC6:  CALL   3F64
....................          else 
0CFCA:  BRA    D00E
0CFCC:  MOVLB  6
....................             {strcpy(Menus.Letra,"Proporcional"); 
0CFCE:  MOVLW  07
0CFD0:  MOVWF  FEA
0CFD2:  MOVLW  12
0CFD4:  MOVWF  FE9
0CFD6:  MOVFF  FF2,727
0CFDA:  BCF    FF2.7
0CFDC:  MOVLW  00
0CFDE:  MOVLB  0
0CFE0:  CALL   2A6E
0CFE4:  TBLRD*-
0CFE6:  TBLRD*+
0CFE8:  MOVF   FF5,W
0CFEA:  MOVWF  FEE
0CFEC:  IORLW  00
0CFEE:  BNZ   CFE6
0CFF0:  MOVLB  7
0CFF2:  BTFSC  x27.7
0CFF4:  BSF    FF2.7
....................             displayMenu(Menus.Letra,0,0,0,1);} 
0CFF6:  MOVLW  07
0CFF8:  MOVWF  x28
0CFFA:  MOVLW  12
0CFFC:  MOVWF  x27
0CFFE:  CLRF   x29
0D000:  CLRF   x2A
0D002:  CLRF   x2B
0D004:  MOVLW  01
0D006:  MOVWF  x2C
0D008:  MOVLB  0
0D00A:  CALL   3F64
....................           
....................          if(Opcion==2)    
0D00E:  MOVLB  6
0D010:  MOVF   xE7,W
0D012:  SUBLW  02
0D014:  BNZ   D05C
....................             {strcpy(Menus.Letra,"Integral"); 
0D016:  MOVLW  07
0D018:  MOVWF  FEA
0D01A:  MOVLW  12
0D01C:  MOVWF  FE9
0D01E:  MOVFF  FF2,727
0D022:  BCF    FF2.7
0D024:  MOVLW  00
0D026:  MOVLB  0
0D028:  CALL   2A9A
0D02C:  TBLRD*-
0D02E:  TBLRD*+
0D030:  MOVF   FF5,W
0D032:  MOVWF  FEE
0D034:  IORLW  00
0D036:  BNZ   D02E
0D038:  MOVLB  7
0D03A:  BTFSC  x27.7
0D03C:  BSF    FF2.7
....................             displayMenu(Menus.Letra,0,9,1,1);} 
0D03E:  MOVLW  07
0D040:  MOVWF  x28
0D042:  MOVLW  12
0D044:  MOVWF  x27
0D046:  CLRF   x29
0D048:  MOVLW  09
0D04A:  MOVWF  x2A
0D04C:  MOVLW  01
0D04E:  MOVWF  x2B
0D050:  MOVWF  x2C
0D052:  MOVLB  0
0D054:  CALL   3F64
....................          else 
0D058:  BRA    D09E
0D05A:  MOVLB  6
....................             {strcpy(Menus.Letra,"Integral"); 
0D05C:  MOVLW  07
0D05E:  MOVWF  FEA
0D060:  MOVLW  12
0D062:  MOVWF  FE9
0D064:  MOVFF  FF2,727
0D068:  BCF    FF2.7
0D06A:  MOVLW  00
0D06C:  MOVLB  0
0D06E:  CALL   2A9A
0D072:  TBLRD*-
0D074:  TBLRD*+
0D076:  MOVF   FF5,W
0D078:  MOVWF  FEE
0D07A:  IORLW  00
0D07C:  BNZ   D074
0D07E:  MOVLB  7
0D080:  BTFSC  x27.7
0D082:  BSF    FF2.7
....................             displayMenu(Menus.Letra,0,9,0,1);} 
0D084:  MOVLW  07
0D086:  MOVWF  x28
0D088:  MOVLW  12
0D08A:  MOVWF  x27
0D08C:  CLRF   x29
0D08E:  MOVLW  09
0D090:  MOVWF  x2A
0D092:  CLRF   x2B
0D094:  MOVLW  01
0D096:  MOVWF  x2C
0D098:  MOVLB  0
0D09A:  CALL   3F64
....................              
....................          if(Opcion==3)    
0D09E:  MOVLB  6
0D0A0:  MOVF   xE7,W
0D0A2:  SUBLW  03
0D0A4:  BNZ   D0EA
....................             {strcpy(Menus.Letra,"Derivativo"); 
0D0A6:  MOVLW  07
0D0A8:  MOVWF  FEA
0D0AA:  MOVLW  12
0D0AC:  MOVWF  FE9
0D0AE:  MOVFF  FF2,727
0D0B2:  BCF    FF2.7
0D0B4:  MOVLW  00
0D0B6:  MOVLB  0
0D0B8:  CALL   2AC2
0D0BC:  TBLRD*-
0D0BE:  TBLRD*+
0D0C0:  MOVF   FF5,W
0D0C2:  MOVWF  FEE
0D0C4:  IORLW  00
0D0C6:  BNZ   D0BE
0D0C8:  MOVLB  7
0D0CA:  BTFSC  x27.7
0D0CC:  BSF    FF2.7
....................             displayMenu(Menus.Letra,0,18,1,1);} 
0D0CE:  MOVLW  07
0D0D0:  MOVWF  x28
0D0D2:  MOVLW  12
0D0D4:  MOVWF  x27
0D0D6:  CLRF   x29
0D0D8:  MOVWF  x2A
0D0DA:  MOVLW  01
0D0DC:  MOVWF  x2B
0D0DE:  MOVWF  x2C
0D0E0:  MOVLB  0
0D0E2:  CALL   3F64
....................          else 
0D0E6:  BRA    D12A
0D0E8:  MOVLB  6
....................             {strcpy(Menus.Letra,"Derivativo"); 
0D0EA:  MOVLW  07
0D0EC:  MOVWF  FEA
0D0EE:  MOVLW  12
0D0F0:  MOVWF  FE9
0D0F2:  MOVFF  FF2,727
0D0F6:  BCF    FF2.7
0D0F8:  MOVLW  00
0D0FA:  MOVLB  0
0D0FC:  CALL   2AC2
0D100:  TBLRD*-
0D102:  TBLRD*+
0D104:  MOVF   FF5,W
0D106:  MOVWF  FEE
0D108:  IORLW  00
0D10A:  BNZ   D102
0D10C:  MOVLB  7
0D10E:  BTFSC  x27.7
0D110:  BSF    FF2.7
....................             displayMenu(Menus.Letra,0,18,0,1);}    
0D112:  MOVLW  07
0D114:  MOVWF  x28
0D116:  MOVLW  12
0D118:  MOVWF  x27
0D11A:  CLRF   x29
0D11C:  MOVWF  x2A
0D11E:  CLRF   x2B
0D120:  MOVLW  01
0D122:  MOVWF  x2C
0D124:  MOVLB  0
0D126:  CALL   3F64
....................           
....................          if(Opcion==4)    
0D12A:  MOVLB  6
0D12C:  MOVF   xE7,W
0D12E:  SUBLW  04
0D130:  BNZ   D178
....................             {strcpy(Menus.Letra,"Tciclo"); 
0D132:  MOVLW  07
0D134:  MOVWF  FEA
0D136:  MOVLW  12
0D138:  MOVWF  FE9
0D13A:  MOVFF  FF2,727
0D13E:  BCF    FF2.7
0D140:  MOVLW  00
0D142:  MOVLB  0
0D144:  CALL   2AEC
0D148:  TBLRD*-
0D14A:  TBLRD*+
0D14C:  MOVF   FF5,W
0D14E:  MOVWF  FEE
0D150:  IORLW  00
0D152:  BNZ   D14A
0D154:  MOVLB  7
0D156:  BTFSC  x27.7
0D158:  BSF    FF2.7
....................             displayMenu(Menus.Letra,0,27,1,1);} 
0D15A:  MOVLW  07
0D15C:  MOVWF  x28
0D15E:  MOVLW  12
0D160:  MOVWF  x27
0D162:  CLRF   x29
0D164:  MOVLW  1B
0D166:  MOVWF  x2A
0D168:  MOVLW  01
0D16A:  MOVWF  x2B
0D16C:  MOVWF  x2C
0D16E:  MOVLB  0
0D170:  CALL   3F64
....................          else 
0D174:  BRA    D1BA
0D176:  MOVLB  6
....................             {strcpy(Menus.Letra,"Tciclo"); 
0D178:  MOVLW  07
0D17A:  MOVWF  FEA
0D17C:  MOVLW  12
0D17E:  MOVWF  FE9
0D180:  MOVFF  FF2,727
0D184:  BCF    FF2.7
0D186:  MOVLW  00
0D188:  MOVLB  0
0D18A:  CALL   2AEC
0D18E:  TBLRD*-
0D190:  TBLRD*+
0D192:  MOVF   FF5,W
0D194:  MOVWF  FEE
0D196:  IORLW  00
0D198:  BNZ   D190
0D19A:  MOVLB  7
0D19C:  BTFSC  x27.7
0D19E:  BSF    FF2.7
....................             displayMenu(Menus.Letra,0,27,0,1);} 
0D1A0:  MOVLW  07
0D1A2:  MOVWF  x28
0D1A4:  MOVLW  12
0D1A6:  MOVWF  x27
0D1A8:  CLRF   x29
0D1AA:  MOVLW  1B
0D1AC:  MOVWF  x2A
0D1AE:  CLRF   x2B
0D1B0:  MOVLW  01
0D1B2:  MOVWF  x2C
0D1B4:  MOVLB  0
0D1B6:  CALL   3F64
....................              
....................          if(Opcion==5)    
0D1BA:  MOVLB  6
0D1BC:  MOVF   xE7,W
0D1BE:  SUBLW  05
0D1C0:  BNZ   D208
....................             {strcpy(Menus.Letra,"Ajuste +"); 
0D1C2:  MOVLW  07
0D1C4:  MOVWF  FEA
0D1C6:  MOVLW  12
0D1C8:  MOVWF  FE9
0D1CA:  MOVFF  FF2,727
0D1CE:  BCF    FF2.7
0D1D0:  MOVLW  00
0D1D2:  MOVLB  0
0D1D4:  CALL   2B12
0D1D8:  TBLRD*-
0D1DA:  TBLRD*+
0D1DC:  MOVF   FF5,W
0D1DE:  MOVWF  FEE
0D1E0:  IORLW  00
0D1E2:  BNZ   D1DA
0D1E4:  MOVLB  7
0D1E6:  BTFSC  x27.7
0D1E8:  BSF    FF2.7
....................             displayMenu(Menus.Letra,0,36,1,1);} 
0D1EA:  MOVLW  07
0D1EC:  MOVWF  x28
0D1EE:  MOVLW  12
0D1F0:  MOVWF  x27
0D1F2:  CLRF   x29
0D1F4:  MOVLW  24
0D1F6:  MOVWF  x2A
0D1F8:  MOVLW  01
0D1FA:  MOVWF  x2B
0D1FC:  MOVWF  x2C
0D1FE:  MOVLB  0
0D200:  CALL   3F64
....................          else 
0D204:  BRA    D24A
0D206:  MOVLB  6
....................             {strcpy(Menus.Letra,"Ajuste +"); 
0D208:  MOVLW  07
0D20A:  MOVWF  FEA
0D20C:  MOVLW  12
0D20E:  MOVWF  FE9
0D210:  MOVFF  FF2,727
0D214:  BCF    FF2.7
0D216:  MOVLW  00
0D218:  MOVLB  0
0D21A:  CALL   2B12
0D21E:  TBLRD*-
0D220:  TBLRD*+
0D222:  MOVF   FF5,W
0D224:  MOVWF  FEE
0D226:  IORLW  00
0D228:  BNZ   D220
0D22A:  MOVLB  7
0D22C:  BTFSC  x27.7
0D22E:  BSF    FF2.7
....................             displayMenu(Menus.Letra,0,36,0,1);}    
0D230:  MOVLW  07
0D232:  MOVWF  x28
0D234:  MOVLW  12
0D236:  MOVWF  x27
0D238:  CLRF   x29
0D23A:  MOVLW  24
0D23C:  MOVWF  x2A
0D23E:  CLRF   x2B
0D240:  MOVLW  01
0D242:  MOVWF  x2C
0D244:  MOVLB  0
0D246:  CALL   3F64
....................                          
....................          if(Opcion==6)    
0D24A:  MOVLB  6
0D24C:  MOVF   xE7,W
0D24E:  SUBLW  06
0D250:  BNZ   D298
....................             {strcpy(Menus.Letra,"Ajuste -"); 
0D252:  MOVLW  07
0D254:  MOVWF  FEA
0D256:  MOVLW  12
0D258:  MOVWF  FE9
0D25A:  MOVFF  FF2,727
0D25E:  BCF    FF2.7
0D260:  MOVLW  00
0D262:  MOVLB  0
0D264:  CALL   2B3A
0D268:  TBLRD*-
0D26A:  TBLRD*+
0D26C:  MOVF   FF5,W
0D26E:  MOVWF  FEE
0D270:  IORLW  00
0D272:  BNZ   D26A
0D274:  MOVLB  7
0D276:  BTFSC  x27.7
0D278:  BSF    FF2.7
....................             displayMenu(Menus.Letra,0,45,1,1);} 
0D27A:  MOVLW  07
0D27C:  MOVWF  x28
0D27E:  MOVLW  12
0D280:  MOVWF  x27
0D282:  CLRF   x29
0D284:  MOVLW  2D
0D286:  MOVWF  x2A
0D288:  MOVLW  01
0D28A:  MOVWF  x2B
0D28C:  MOVWF  x2C
0D28E:  MOVLB  0
0D290:  CALL   3F64
....................          else 
0D294:  BRA    D2DA
0D296:  MOVLB  6
....................             {strcpy(Menus.Letra,"Ajuste -"); 
0D298:  MOVLW  07
0D29A:  MOVWF  FEA
0D29C:  MOVLW  12
0D29E:  MOVWF  FE9
0D2A0:  MOVFF  FF2,727
0D2A4:  BCF    FF2.7
0D2A6:  MOVLW  00
0D2A8:  MOVLB  0
0D2AA:  CALL   2B3A
0D2AE:  TBLRD*-
0D2B0:  TBLRD*+
0D2B2:  MOVF   FF5,W
0D2B4:  MOVWF  FEE
0D2B6:  IORLW  00
0D2B8:  BNZ   D2B0
0D2BA:  MOVLB  7
0D2BC:  BTFSC  x27.7
0D2BE:  BSF    FF2.7
....................             displayMenu(Menus.Letra,0,45,0,1);}      
0D2C0:  MOVLW  07
0D2C2:  MOVWF  x28
0D2C4:  MOVLW  12
0D2C6:  MOVWF  x27
0D2C8:  CLRF   x29
0D2CA:  MOVLW  2D
0D2CC:  MOVWF  x2A
0D2CE:  CLRF   x2B
0D2D0:  MOVLW  01
0D2D2:  MOVWF  x2C
0D2D4:  MOVLB  0
0D2D6:  CALL   3F64
....................       } 
....................       else{ 
0D2DA:  BRA    D634
0D2DC:  MOVLB  6
....................          if(Opcion==7)    
0D2DE:  MOVF   xE7,W
0D2E0:  SUBLW  07
0D2E2:  BNZ   D328
....................             {strcpy(Menus.Letra,"Media Movil"); 
0D2E4:  MOVLW  07
0D2E6:  MOVWF  FEA
0D2E8:  MOVLW  12
0D2EA:  MOVWF  FE9
0D2EC:  MOVFF  FF2,727
0D2F0:  BCF    FF2.7
0D2F2:  MOVLW  00
0D2F4:  MOVLB  0
0D2F6:  CALL   2B62
0D2FA:  TBLRD*-
0D2FC:  TBLRD*+
0D2FE:  MOVF   FF5,W
0D300:  MOVWF  FEE
0D302:  IORLW  00
0D304:  BNZ   D2FC
0D306:  MOVLB  7
0D308:  BTFSC  x27.7
0D30A:  BSF    FF2.7
....................             displayMenu(Menus.Letra,0,0,1,1);} 
0D30C:  MOVLW  07
0D30E:  MOVWF  x28
0D310:  MOVLW  12
0D312:  MOVWF  x27
0D314:  CLRF   x29
0D316:  CLRF   x2A
0D318:  MOVLW  01
0D31A:  MOVWF  x2B
0D31C:  MOVWF  x2C
0D31E:  MOVLB  0
0D320:  CALL   3F64
....................          else 
0D324:  BRA    D368
0D326:  MOVLB  6
....................             {strcpy(Menus.Letra,"Media Movil"); 
0D328:  MOVLW  07
0D32A:  MOVWF  FEA
0D32C:  MOVLW  12
0D32E:  MOVWF  FE9
0D330:  MOVFF  FF2,727
0D334:  BCF    FF2.7
0D336:  MOVLW  00
0D338:  MOVLB  0
0D33A:  CALL   2B62
0D33E:  TBLRD*-
0D340:  TBLRD*+
0D342:  MOVF   FF5,W
0D344:  MOVWF  FEE
0D346:  IORLW  00
0D348:  BNZ   D340
0D34A:  MOVLB  7
0D34C:  BTFSC  x27.7
0D34E:  BSF    FF2.7
....................             displayMenu(Menus.Letra,0,0,0,1);}      
0D350:  MOVLW  07
0D352:  MOVWF  x28
0D354:  MOVLW  12
0D356:  MOVWF  x27
0D358:  CLRF   x29
0D35A:  CLRF   x2A
0D35C:  CLRF   x2B
0D35E:  MOVLW  01
0D360:  MOVWF  x2C
0D362:  MOVLB  0
0D364:  CALL   3F64
....................              
....................          if(Opcion==8)    
0D368:  MOVLB  6
0D36A:  MOVF   xE7,W
0D36C:  SUBLW  08
0D36E:  BNZ   D3B6
....................             {strcpy(Menus.Letra,"Ganancia    "); 
0D370:  MOVLW  07
0D372:  MOVWF  FEA
0D374:  MOVLW  12
0D376:  MOVWF  FE9
0D378:  MOVFF  FF2,727
0D37C:  BCF    FF2.7
0D37E:  MOVLW  00
0D380:  MOVLB  0
0D382:  CALL   2B8C
0D386:  TBLRD*-
0D388:  TBLRD*+
0D38A:  MOVF   FF5,W
0D38C:  MOVWF  FEE
0D38E:  IORLW  00
0D390:  BNZ   D388
0D392:  MOVLB  7
0D394:  BTFSC  x27.7
0D396:  BSF    FF2.7
....................             displayMenu(Menus.Letra,0,9,1,1);} 
0D398:  MOVLW  07
0D39A:  MOVWF  x28
0D39C:  MOVLW  12
0D39E:  MOVWF  x27
0D3A0:  CLRF   x29
0D3A2:  MOVLW  09
0D3A4:  MOVWF  x2A
0D3A6:  MOVLW  01
0D3A8:  MOVWF  x2B
0D3AA:  MOVWF  x2C
0D3AC:  MOVLB  0
0D3AE:  CALL   3F64
....................          else 
0D3B2:  BRA    D3F8
0D3B4:  MOVLB  6
....................             {strcpy(Menus.Letra,"Ganancia    "); 
0D3B6:  MOVLW  07
0D3B8:  MOVWF  FEA
0D3BA:  MOVLW  12
0D3BC:  MOVWF  FE9
0D3BE:  MOVFF  FF2,727
0D3C2:  BCF    FF2.7
0D3C4:  MOVLW  00
0D3C6:  MOVLB  0
0D3C8:  CALL   2B8C
0D3CC:  TBLRD*-
0D3CE:  TBLRD*+
0D3D0:  MOVF   FF5,W
0D3D2:  MOVWF  FEE
0D3D4:  IORLW  00
0D3D6:  BNZ   D3CE
0D3D8:  MOVLB  7
0D3DA:  BTFSC  x27.7
0D3DC:  BSF    FF2.7
....................             displayMenu(Menus.Letra,0,9,0,1);}   
0D3DE:  MOVLW  07
0D3E0:  MOVWF  x28
0D3E2:  MOVLW  12
0D3E4:  MOVWF  x27
0D3E6:  CLRF   x29
0D3E8:  MOVLW  09
0D3EA:  MOVWF  x2A
0D3EC:  CLRF   x2B
0D3EE:  MOVLW  01
0D3F0:  MOVWF  x2C
0D3F2:  MOVLB  0
0D3F4:  CALL   3F64
....................              
....................          if(Opcion==9)    
0D3F8:  MOVLB  6
0D3FA:  MOVF   xE7,W
0D3FC:  SUBLW  09
0D3FE:  BNZ   D444
....................             {strcpy(Menus.Letra,"R51         "); 
0D400:  MOVLW  07
0D402:  MOVWF  FEA
0D404:  MOVLW  12
0D406:  MOVWF  FE9
0D408:  MOVFF  FF2,727
0D40C:  BCF    FF2.7
0D40E:  MOVLW  00
0D410:  MOVLB  0
0D412:  CALL   2BB8
0D416:  TBLRD*-
0D418:  TBLRD*+
0D41A:  MOVF   FF5,W
0D41C:  MOVWF  FEE
0D41E:  IORLW  00
0D420:  BNZ   D418
0D422:  MOVLB  7
0D424:  BTFSC  x27.7
0D426:  BSF    FF2.7
....................             displayMenu(Menus.Letra,0,18,1,1);} 
0D428:  MOVLW  07
0D42A:  MOVWF  x28
0D42C:  MOVLW  12
0D42E:  MOVWF  x27
0D430:  CLRF   x29
0D432:  MOVWF  x2A
0D434:  MOVLW  01
0D436:  MOVWF  x2B
0D438:  MOVWF  x2C
0D43A:  MOVLB  0
0D43C:  CALL   3F64
....................          else 
0D440:  BRA    D484
0D442:  MOVLB  6
....................             {strcpy(Menus.Letra,"R51         "); 
0D444:  MOVLW  07
0D446:  MOVWF  FEA
0D448:  MOVLW  12
0D44A:  MOVWF  FE9
0D44C:  MOVFF  FF2,727
0D450:  BCF    FF2.7
0D452:  MOVLW  00
0D454:  MOVLB  0
0D456:  CALL   2BB8
0D45A:  TBLRD*-
0D45C:  TBLRD*+
0D45E:  MOVF   FF5,W
0D460:  MOVWF  FEE
0D462:  IORLW  00
0D464:  BNZ   D45C
0D466:  MOVLB  7
0D468:  BTFSC  x27.7
0D46A:  BSF    FF2.7
....................             displayMenu(Menus.Letra,0,18,0,1);}      
0D46C:  MOVLW  07
0D46E:  MOVWF  x28
0D470:  MOVLW  12
0D472:  MOVWF  x27
0D474:  CLRF   x29
0D476:  MOVWF  x2A
0D478:  CLRF   x2B
0D47A:  MOVLW  01
0D47C:  MOVWF  x2C
0D47E:  MOVLB  0
0D480:  CALL   3F64
....................           
....................          if(Opcion==10)    
0D484:  MOVLB  6
0D486:  MOVF   xE7,W
0D488:  SUBLW  0A
0D48A:  BNZ   D4D2
....................             {strcpy(Menus.Letra,"RPT100 B     "); 
0D48C:  MOVLW  07
0D48E:  MOVWF  FEA
0D490:  MOVLW  12
0D492:  MOVWF  FE9
0D494:  MOVFF  FF2,727
0D498:  BCF    FF2.7
0D49A:  MOVLW  00
0D49C:  MOVLB  0
0D49E:  CALL   2BE4
0D4A2:  TBLRD*-
0D4A4:  TBLRD*+
0D4A6:  MOVF   FF5,W
0D4A8:  MOVWF  FEE
0D4AA:  IORLW  00
0D4AC:  BNZ   D4A4
0D4AE:  MOVLB  7
0D4B0:  BTFSC  x27.7
0D4B2:  BSF    FF2.7
....................             displayMenu(Menus.Letra,0,27,1,1);} 
0D4B4:  MOVLW  07
0D4B6:  MOVWF  x28
0D4B8:  MOVLW  12
0D4BA:  MOVWF  x27
0D4BC:  CLRF   x29
0D4BE:  MOVLW  1B
0D4C0:  MOVWF  x2A
0D4C2:  MOVLW  01
0D4C4:  MOVWF  x2B
0D4C6:  MOVWF  x2C
0D4C8:  MOVLB  0
0D4CA:  CALL   3F64
....................          else 
0D4CE:  BRA    D514
0D4D0:  MOVLB  6
....................             {strcpy(Menus.Letra,"RPT100 B     "); 
0D4D2:  MOVLW  07
0D4D4:  MOVWF  FEA
0D4D6:  MOVLW  12
0D4D8:  MOVWF  FE9
0D4DA:  MOVFF  FF2,727
0D4DE:  BCF    FF2.7
0D4E0:  MOVLW  00
0D4E2:  MOVLB  0
0D4E4:  CALL   2BE4
0D4E8:  TBLRD*-
0D4EA:  TBLRD*+
0D4EC:  MOVF   FF5,W
0D4EE:  MOVWF  FEE
0D4F0:  IORLW  00
0D4F2:  BNZ   D4EA
0D4F4:  MOVLB  7
0D4F6:  BTFSC  x27.7
0D4F8:  BSF    FF2.7
....................             displayMenu(Menus.Letra,0,27,0,1);}      
0D4FA:  MOVLW  07
0D4FC:  MOVWF  x28
0D4FE:  MOVLW  12
0D500:  MOVWF  x27
0D502:  CLRF   x29
0D504:  MOVLW  1B
0D506:  MOVWF  x2A
0D508:  CLRF   x2B
0D50A:  MOVLW  01
0D50C:  MOVWF  x2C
0D50E:  MOVLB  0
0D510:  CALL   3F64
....................              
....................          if(Opcion==11)    
0D514:  MOVLB  6
0D516:  MOVF   xE7,W
0D518:  SUBLW  0B
0D51A:  BNZ   D562
....................             {strcpy(Menus.Letra,"Pulsos Vacio"); 
0D51C:  MOVLW  07
0D51E:  MOVWF  FEA
0D520:  MOVLW  12
0D522:  MOVWF  FE9
0D524:  MOVFF  FF2,727
0D528:  BCF    FF2.7
0D52A:  MOVLW  00
0D52C:  MOVLB  0
0D52E:  CALL   2C10
0D532:  TBLRD*-
0D534:  TBLRD*+
0D536:  MOVF   FF5,W
0D538:  MOVWF  FEE
0D53A:  IORLW  00
0D53C:  BNZ   D534
0D53E:  MOVLB  7
0D540:  BTFSC  x27.7
0D542:  BSF    FF2.7
....................             displayMenu(Menus.Letra,0,36,1,1);} 
0D544:  MOVLW  07
0D546:  MOVWF  x28
0D548:  MOVLW  12
0D54A:  MOVWF  x27
0D54C:  CLRF   x29
0D54E:  MOVLW  24
0D550:  MOVWF  x2A
0D552:  MOVLW  01
0D554:  MOVWF  x2B
0D556:  MOVWF  x2C
0D558:  MOVLB  0
0D55A:  CALL   3F64
....................          else 
0D55E:  BRA    D5A4
0D560:  MOVLB  6
....................             {strcpy(Menus.Letra,"Pulsos Vacio"); 
0D562:  MOVLW  07
0D564:  MOVWF  FEA
0D566:  MOVLW  12
0D568:  MOVWF  FE9
0D56A:  MOVFF  FF2,727
0D56E:  BCF    FF2.7
0D570:  MOVLW  00
0D572:  MOVLB  0
0D574:  CALL   2C10
0D578:  TBLRD*-
0D57A:  TBLRD*+
0D57C:  MOVF   FF5,W
0D57E:  MOVWF  FEE
0D580:  IORLW  00
0D582:  BNZ   D57A
0D584:  MOVLB  7
0D586:  BTFSC  x27.7
0D588:  BSF    FF2.7
....................             displayMenu(Menus.Letra,0,36,0,1);}    
0D58A:  MOVLW  07
0D58C:  MOVWF  x28
0D58E:  MOVLW  12
0D590:  MOVWF  x27
0D592:  CLRF   x29
0D594:  MOVLW  24
0D596:  MOVWF  x2A
0D598:  CLRF   x2B
0D59A:  MOVLW  01
0D59C:  MOVWF  x2C
0D59E:  MOVLB  0
0D5A0:  CALL   3F64
....................                          
....................          if(Opcion==12)    
0D5A4:  MOVLB  6
0D5A6:  MOVF   xE7,W
0D5A8:  SUBLW  0C
0D5AA:  BNZ   D5F2
....................             {strcpy(Menus.Letra,"Nivel Vacio"); 
0D5AC:  MOVLW  07
0D5AE:  MOVWF  FEA
0D5B0:  MOVLW  12
0D5B2:  MOVWF  FE9
0D5B4:  MOVFF  FF2,727
0D5B8:  BCF    FF2.7
0D5BA:  MOVLW  00
0D5BC:  MOVLB  0
0D5BE:  CALL   2C3C
0D5C2:  TBLRD*-
0D5C4:  TBLRD*+
0D5C6:  MOVF   FF5,W
0D5C8:  MOVWF  FEE
0D5CA:  IORLW  00
0D5CC:  BNZ   D5C4
0D5CE:  MOVLB  7
0D5D0:  BTFSC  x27.7
0D5D2:  BSF    FF2.7
....................             displayMenu(Menus.Letra,0,45,1,1);} 
0D5D4:  MOVLW  07
0D5D6:  MOVWF  x28
0D5D8:  MOVLW  12
0D5DA:  MOVWF  x27
0D5DC:  CLRF   x29
0D5DE:  MOVLW  2D
0D5E0:  MOVWF  x2A
0D5E2:  MOVLW  01
0D5E4:  MOVWF  x2B
0D5E6:  MOVWF  x2C
0D5E8:  MOVLB  0
0D5EA:  CALL   3F64
....................          else 
0D5EE:  BRA    D634
0D5F0:  MOVLB  6
....................             {strcpy(Menus.Letra,"Nivel Vacio"); 
0D5F2:  MOVLW  07
0D5F4:  MOVWF  FEA
0D5F6:  MOVLW  12
0D5F8:  MOVWF  FE9
0D5FA:  MOVFF  FF2,727
0D5FE:  BCF    FF2.7
0D600:  MOVLW  00
0D602:  MOVLB  0
0D604:  CALL   2C3C
0D608:  TBLRD*-
0D60A:  TBLRD*+
0D60C:  MOVF   FF5,W
0D60E:  MOVWF  FEE
0D610:  IORLW  00
0D612:  BNZ   D60A
0D614:  MOVLB  7
0D616:  BTFSC  x27.7
0D618:  BSF    FF2.7
....................             displayMenu(Menus.Letra,0,45,0,1);}   
0D61A:  MOVLW  07
0D61C:  MOVWF  x28
0D61E:  MOVLW  12
0D620:  MOVWF  x27
0D622:  CLRF   x29
0D624:  MOVLW  2D
0D626:  MOVWF  x2A
0D628:  CLRF   x2B
0D62A:  MOVLW  01
0D62C:  MOVWF  x2C
0D62E:  MOVLB  0
0D630:  CALL   3F64
....................       }    
....................        
....................          if(UP)//Si oprime hacia arriba 
0D634:  BSF    F92.4
0D636:  BTFSC  F80.4
0D638:  BRA    D658
....................          { 
....................             delay_ms(10); 
0D63A:  MOVLW  0A
0D63C:  MOVLB  7
0D63E:  MOVWF  x2D
0D640:  MOVLB  0
0D642:  CALL   30A6
....................             if(Flanco == 0) 
0D646:  MOVLB  4
0D648:  BTFSC  x65.1
0D64A:  BRA    D656
....................                {Flanco = 1;Opcion--;visual=1; 
0D64C:  BSF    x65.1
0D64E:  MOVLB  6
0D650:  DECF   xE7,F
0D652:  MOVLB  4
0D654:  BSF    x65.4
....................                } 
....................          } 
....................             else 
0D656:  BRA    D65C
....................                {Flanco = 0;} 
0D658:  MOVLB  4
0D65A:  BCF    x65.1
....................                    
....................          if(DOWN)//Si oprime hacia abajo 
0D65C:  BSF    F92.5
0D65E:  BTFSC  F80.5
0D660:  BRA    D680
....................          { 
....................             delay_ms(10); 
0D662:  MOVLW  0A
0D664:  MOVLB  7
0D666:  MOVWF  x2D
0D668:  MOVLB  0
0D66A:  CALL   30A6
....................             if(Flanco2 == 0) 
0D66E:  MOVLB  4
0D670:  BTFSC  x65.3
0D672:  BRA    D67E
....................                {Flanco2 = 1;Opcion++;visual=1; 
0D674:  BSF    x65.3
0D676:  MOVLB  6
0D678:  INCF   xE7,F
0D67A:  MOVLB  4
0D67C:  BSF    x65.4
....................                }      
....................          } 
....................             else 
0D67E:  BRA    D682
....................                {Flanco2 = 0;}   
0D680:  BCF    x65.3
....................                 
....................          if(RIGHT)//Si oprime SET 
0D682:  BSF    F96.0
0D684:  BTFSC  F84.0
0D686:  BRA    D6C4
....................          {   
....................             delay_ms(10); 
0D688:  MOVLW  0A
0D68A:  MOVLB  7
0D68C:  MOVWF  x2D
0D68E:  MOVLB  0
0D690:  CALL   30A6
....................             if(Flanco1 == 0) 
0D694:  MOVLB  4
0D696:  BTFSC  x65.2
0D698:  BRA    D6C2
....................                {Flanco1 = 1;delay_ms(30);Menu=Opcion+100;Opcion=1;glcd_fillscreen(OFF);visual=1; 
0D69A:  BSF    x65.2
0D69C:  MOVLW  1E
0D69E:  MOVLB  7
0D6A0:  MOVWF  x2D
0D6A2:  MOVLB  0
0D6A4:  CALL   30A6
0D6A8:  MOVLW  64
0D6AA:  MOVLB  6
0D6AC:  ADDWF  xE7,W
0D6AE:  MOVWF  xE1
0D6B0:  MOVLW  01
0D6B2:  MOVWF  xE7
0D6B4:  MOVLB  7
0D6B6:  CLRF   x28
0D6B8:  MOVLB  0
0D6BA:  CALL   3936
0D6BE:  MOVLB  4
0D6C0:  BSF    x65.4
....................                } 
....................          } 
....................             else 
0D6C2:  BRA    D6C6
....................                {Flanco1 = 0;}  
0D6C4:  BCF    x65.2
....................                 
....................          if(LEFT)//Si oprime boton de Toma. 
0D6C6:  BSF    F96.1
0D6C8:  BTFSC  F84.1
0D6CA:  BRA    D708
....................          { 
....................             delay_ms(10); 
0D6CC:  MOVLW  0A
0D6CE:  MOVLB  7
0D6D0:  MOVWF  x2D
0D6D2:  MOVLB  0
0D6D4:  CALL   30A6
....................             delay_ms(700);Menu=1;glcd_fillscreen(OFF);Opcion=1;visual=1;             
0D6D8:  MOVLW  04
0D6DA:  MOVLB  7
0D6DC:  MOVWF  x27
0D6DE:  MOVLW  AF
0D6E0:  MOVWF  x2D
0D6E2:  MOVLB  0
0D6E4:  CALL   30A6
0D6E8:  MOVLB  7
0D6EA:  DECFSZ x27,F
0D6EC:  BRA    D6DE
0D6EE:  MOVLW  01
0D6F0:  MOVLB  6
0D6F2:  MOVWF  xE1
0D6F4:  MOVLB  7
0D6F6:  CLRF   x28
0D6F8:  MOVLB  0
0D6FA:  CALL   3936
0D6FE:  MOVLW  01
0D700:  MOVLB  6
0D702:  MOVWF  xE7
0D704:  MOVLB  4
0D706:  BSF    x65.4
0D708:  MOVLB  6
....................          }       
....................          
....................     } 
.................... //_--------------------------------------------------------------------------------------------------------------------------------------------------------        
....................  
.................... //_--------------------------------------------------------------------------------------------------------------------------------------------------------       
....................       if(Menu==101){ // Menu de Ajuste de Ganancia 
0D70A:  MOVF   xE1,W
0D70C:  SUBLW  65
0D70E:  BTFSS  FD8.2
0D710:  BRA    D99A
....................        
....................       if(Ganancia>40) 
0D712:  MOVLB  7
0D714:  CLRF   x2B
0D716:  CLRF   x2A
0D718:  MOVLW  20
0D71A:  MOVWF  x29
0D71C:  MOVLW  84
0D71E:  MOVWF  x28
0D720:  MOVFF  6A8,72F
0D724:  MOVFF  6A7,72E
0D728:  MOVFF  6A6,72D
0D72C:  MOVFF  6A5,72C
0D730:  MOVLB  0
0D732:  CALL   34DA
0D736:  BNC   D744
....................       { 
....................          Ganancia=2; 
0D738:  MOVLB  6
0D73A:  CLRF   xA8
0D73C:  CLRF   xA7
0D73E:  CLRF   xA6
0D740:  MOVLW  80
0D742:  MOVWF  xA5
....................       } 
....................        
....................       if(visual==1) 
0D744:  MOVLB  4
0D746:  BTFSS  x65.4
0D748:  BRA    D7D0
....................       { 
....................          glcd_fillScreen(OFF); 
0D74A:  MOVLB  7
0D74C:  CLRF   x28
0D74E:  MOVLB  0
0D750:  CALL   3936
....................          strcpy(Menus.Letra,"P"); 
0D754:  MOVLW  07
0D756:  MOVWF  FEA
0D758:  MOVLW  12
0D75A:  MOVWF  FE9
0D75C:  MOVFF  FF2,727
0D760:  BCF    FF2.7
0D762:  MOVLW  00
0D764:  CALL   2C66
0D768:  TBLRD*-
0D76A:  TBLRD*+
0D76C:  MOVF   FF5,W
0D76E:  MOVWF  FEE
0D770:  IORLW  00
0D772:  BNZ   D76A
0D774:  MOVLB  7
0D776:  BTFSC  x27.7
0D778:  BSF    FF2.7
....................          displayMenu(Menus.Letra,0,0,1,2); 
0D77A:  MOVLW  07
0D77C:  MOVWF  x28
0D77E:  MOVLW  12
0D780:  MOVWF  x27
0D782:  CLRF   x29
0D784:  CLRF   x2A
0D786:  MOVLW  01
0D788:  MOVWF  x2B
0D78A:  MOVLW  02
0D78C:  MOVWF  x2C
0D78E:  MOVLB  0
0D790:  CALL   3F64
....................           
....................          displayTemperatura(Ganancia,30,30,0,3); 
0D794:  MOVFF  6A8,72A
0D798:  MOVFF  6A7,729
0D79C:  MOVFF  6A6,728
0D7A0:  MOVFF  6A5,727
0D7A4:  CALL   3576
0D7A8:  MOVFF  02,728
0D7AC:  MOVFF  01,727
0D7B0:  MOVFF  02,72A
0D7B4:  MOVFF  01,729
0D7B8:  MOVLW  1E
0D7BA:  MOVLB  7
0D7BC:  MOVWF  x2B
0D7BE:  MOVWF  x2C
0D7C0:  CLRF   x2D
0D7C2:  MOVLW  03
0D7C4:  MOVWF  x2E
0D7C6:  MOVLB  0
0D7C8:  CALL   65A0
....................           
....................          visual=0; 
0D7CC:  MOVLB  4
0D7CE:  BCF    x65.4
....................       } 
....................        
....................          if(UP)//Si oprime hacia arriba 
0D7D0:  BSF    F92.4
0D7D2:  BTFSC  F80.4
0D7D4:  BRA    D86E
....................          {   
....................             delay_ms(10); 
0D7D6:  MOVLW  0A
0D7D8:  MOVLB  7
0D7DA:  MOVWF  x2D
0D7DC:  MOVLB  0
0D7DE:  CALL   30A6
....................             if(Ganancia>40) 
0D7E2:  MOVLB  7
0D7E4:  CLRF   x2B
0D7E6:  CLRF   x2A
0D7E8:  MOVLW  20
0D7EA:  MOVWF  x29
0D7EC:  MOVLW  84
0D7EE:  MOVWF  x28
0D7F0:  MOVFF  6A8,72F
0D7F4:  MOVFF  6A7,72E
0D7F8:  MOVFF  6A6,72D
0D7FC:  MOVFF  6A5,72C
0D800:  MOVLB  0
0D802:  CALL   34DA
0D806:  BNC   D82A
....................             { 
....................                Ganancia=40;delay_ms(100);visual=1; 
0D808:  MOVLB  6
0D80A:  CLRF   xA8
0D80C:  CLRF   xA7
0D80E:  MOVLW  20
0D810:  MOVWF  xA6
0D812:  MOVLW  84
0D814:  MOVWF  xA5
0D816:  MOVLW  64
0D818:  MOVLB  7
0D81A:  MOVWF  x2D
0D81C:  MOVLB  0
0D81E:  CALL   30A6
0D822:  MOVLB  4
0D824:  BSF    x65.4
....................             } 
....................             else 
0D826:  BRA    D86E
0D828:  MOVLB  0
....................             { 
....................                delay_ms(30);Ganancia+=1.0;visual=1; 
0D82A:  MOVLW  1E
0D82C:  MOVLB  7
0D82E:  MOVWF  x2D
0D830:  MOVLB  0
0D832:  CALL   30A6
0D836:  BCF    FD8.1
0D838:  MOVFF  6A8,72F
0D83C:  MOVFF  6A7,72E
0D840:  MOVFF  6A6,72D
0D844:  MOVFF  6A5,72C
0D848:  MOVLB  7
0D84A:  CLRF   x33
0D84C:  CLRF   x32
0D84E:  CLRF   x31
0D850:  MOVLW  7F
0D852:  MOVWF  x30
0D854:  MOVLB  0
0D856:  CALL   3262
0D85A:  MOVFF  03,6A8
0D85E:  MOVFF  02,6A7
0D862:  MOVFF  01,6A6
0D866:  MOVFF  00,6A5
0D86A:  MOVLB  4
0D86C:  BSF    x65.4
....................             } 
....................          } 
....................                 
....................          if(DOWN)//Si oprime hacia abajo 
0D86E:  BSF    F92.5
0D870:  BTFSC  F80.5
0D872:  BRA    D8E8
....................          {   
....................             delay_ms(10); 
0D874:  MOVLW  0A
0D876:  MOVLB  7
0D878:  MOVWF  x2D
0D87A:  MOVLB  0
0D87C:  CALL   30A6
....................             if(Ganancia>1) 
0D880:  MOVLB  7
0D882:  CLRF   x2B
0D884:  CLRF   x2A
0D886:  CLRF   x29
0D888:  MOVLW  7F
0D88A:  MOVWF  x28
0D88C:  MOVFF  6A8,72F
0D890:  MOVFF  6A7,72E
0D894:  MOVFF  6A6,72D
0D898:  MOVFF  6A5,72C
0D89C:  MOVLB  0
0D89E:  CALL   34DA
0D8A2:  BNC   D8EA
....................             { 
....................                delay_ms(30);Ganancia-=1.0;visual=1;      
0D8A4:  MOVLW  1E
0D8A6:  MOVLB  7
0D8A8:  MOVWF  x2D
0D8AA:  MOVLB  0
0D8AC:  CALL   30A6
0D8B0:  BSF    FD8.1
0D8B2:  MOVFF  6A8,72F
0D8B6:  MOVFF  6A7,72E
0D8BA:  MOVFF  6A6,72D
0D8BE:  MOVFF  6A5,72C
0D8C2:  MOVLB  7
0D8C4:  CLRF   x33
0D8C6:  CLRF   x32
0D8C8:  CLRF   x31
0D8CA:  MOVLW  7F
0D8CC:  MOVWF  x30
0D8CE:  MOVLB  0
0D8D0:  CALL   3262
0D8D4:  MOVFF  03,6A8
0D8D8:  MOVFF  02,6A7
0D8DC:  MOVFF  01,6A6
0D8E0:  MOVFF  00,6A5
0D8E4:  MOVLB  4
0D8E6:  BSF    x65.4
0D8E8:  MOVLB  0
....................             } 
....................          } 
....................                 
....................          if(RIGHT)//Si oprime SET 
0D8EA:  BSF    F96.0
0D8EC:  BTFSC  F84.0
0D8EE:  BRA    D90E
....................          {   
....................             delay_ms(10); 
0D8F0:  MOVLW  0A
0D8F2:  MOVLB  7
0D8F4:  MOVWF  x2D
0D8F6:  MOVLB  0
0D8F8:  CALL   30A6
....................             delay_ms(30);visual=1; 
0D8FC:  MOVLW  1E
0D8FE:  MOVLB  7
0D900:  MOVWF  x2D
0D902:  MOVLB  0
0D904:  CALL   30A6
0D908:  MOVLB  4
0D90A:  BSF    x65.4
0D90C:  MOVLB  0
....................          }  
....................                    
....................          if(LEFT)//Si oprime boton de Toma. 
0D90E:  BSF    F96.1
0D910:  BTFSC  F84.1
0D912:  BRA    D998
....................          { 
....................             delay_ms(10); 
0D914:  MOVLW  0A
0D916:  MOVLB  7
0D918:  MOVWF  x2D
0D91A:  MOVLB  0
0D91C:  CALL   30A6
....................             delay_ms(700);Menu=100;glcd_fillscreen(OFF);Opcion=1;visual=1; 
0D920:  MOVLW  04
0D922:  MOVLB  7
0D924:  MOVWF  x27
0D926:  MOVLW  AF
0D928:  MOVWF  x2D
0D92A:  MOVLB  0
0D92C:  CALL   30A6
0D930:  MOVLB  7
0D932:  DECFSZ x27,F
0D934:  BRA    D926
0D936:  MOVLW  64
0D938:  MOVLB  6
0D93A:  MOVWF  xE1
0D93C:  MOVLB  7
0D93E:  CLRF   x28
0D940:  MOVLB  0
0D942:  CALL   3936
0D946:  MOVLW  01
0D948:  MOVLB  6
0D94A:  MOVWF  xE7
0D94C:  MOVLB  4
0D94E:  BSF    x65.4
....................             write_eeprom(20,(int8)Ganancia); 
0D950:  MOVFF  6A8,72A
0D954:  MOVFF  6A7,729
0D958:  MOVFF  6A6,728
0D95C:  MOVFF  6A5,727
0D960:  MOVLB  0
0D962:  CALL   3576
0D966:  MOVFF  01,727
0D96A:  CLRF   FAA
0D96C:  MOVLW  14
0D96E:  MOVWF  FA9
0D970:  MOVFF  727,FA8
0D974:  BCF    FA6.6
0D976:  BCF    FA6.7
0D978:  BSF    FA6.2
0D97A:  MOVF   FF2,W
0D97C:  MOVWF  00
0D97E:  BCF    FF2.7
0D980:  MOVLB  F
0D982:  MOVLW  55
0D984:  MOVWF  FA7
0D986:  MOVLW  AA
0D988:  MOVWF  FA7
0D98A:  BSF    FA6.1
0D98C:  BTFSC  FA6.1
0D98E:  BRA    D98C
0D990:  BCF    FA6.2
0D992:  MOVF   00,W
0D994:  IORWF  FF2,F
0D996:  MOVLB  0
0D998:  MOVLB  6
....................          } 
....................      } 
.................... //_-------------------------------------------------------------------------------------------------------------------------------------------------------- 
....................  
.................... //_--------------------------------------------------------------------------------------------------------------------------------------------------------       
....................       if(Menu==102){ // Menu de Ajuste de Integral 
0D99A:  MOVF   xE1,W
0D99C:  SUBLW  66
0D99E:  BTFSS  FD8.2
0D9A0:  BRA    DBB0
....................        
....................       if(Integral>40) 
0D9A2:  MOVF   xD5,W
0D9A4:  SUBLW  28
0D9A6:  BC    D9AC
....................       { 
....................          Integral=1; 
0D9A8:  MOVLW  01
0D9AA:  MOVWF  xD5
....................       } 
....................        
....................       if(visual==1) 
0D9AC:  MOVLB  4
0D9AE:  BTFSS  x65.4
0D9B0:  BRA    DA1A
....................       { 
....................          glcd_fillScreen(OFF); 
0D9B2:  MOVLB  7
0D9B4:  CLRF   x28
0D9B6:  MOVLB  0
0D9B8:  CALL   3936
....................          strcpy(Menus.Letra,"I"); 
0D9BC:  MOVLW  07
0D9BE:  MOVWF  FEA
0D9C0:  MOVLW  12
0D9C2:  MOVWF  FE9
0D9C4:  MOVFF  FF2,727
0D9C8:  BCF    FF2.7
0D9CA:  MOVLW  00
0D9CC:  CALL   2C86
0D9D0:  TBLRD*-
0D9D2:  TBLRD*+
0D9D4:  MOVF   FF5,W
0D9D6:  MOVWF  FEE
0D9D8:  IORLW  00
0D9DA:  BNZ   D9D2
0D9DC:  MOVLB  7
0D9DE:  BTFSC  x27.7
0D9E0:  BSF    FF2.7
....................          displayMenu(Menus.Letra,0,0,1,2); 
0D9E2:  MOVLW  07
0D9E4:  MOVWF  x28
0D9E6:  MOVLW  12
0D9E8:  MOVWF  x27
0D9EA:  CLRF   x29
0D9EC:  CLRF   x2A
0D9EE:  MOVLW  01
0D9F0:  MOVWF  x2B
0D9F2:  MOVLW  02
0D9F4:  MOVWF  x2C
0D9F6:  MOVLB  0
0D9F8:  CALL   3F64
....................           
....................          displayTemperatura(Integral,30,30,0,3); 
0D9FC:  MOVLB  7
0D9FE:  CLRF   x2A
0DA00:  MOVFF  6D5,729
0DA04:  MOVLW  1E
0DA06:  MOVWF  x2B
0DA08:  MOVWF  x2C
0DA0A:  CLRF   x2D
0DA0C:  MOVLW  03
0DA0E:  MOVWF  x2E
0DA10:  MOVLB  0
0DA12:  CALL   65A0
....................           
....................          visual=0; 
0DA16:  MOVLB  4
0DA18:  BCF    x65.4
....................       } 
....................        
....................          if(UP)//Si oprime hacia arriba 
0DA1A:  BSF    F92.4
0DA1C:  BTFSC  F80.4
0DA1E:  BRA    DAA6
....................          {   
....................             delay_ms(10); 
0DA20:  MOVLW  0A
0DA22:  MOVLB  7
0DA24:  MOVWF  x2D
0DA26:  MOVLB  0
0DA28:  CALL   30A6
....................             if(Integral>40) 
0DA2C:  MOVLB  6
0DA2E:  MOVF   xD5,W
0DA30:  SUBLW  28
0DA32:  BC    DA4C
....................             { 
....................                Integral=40;delay_ms(100);visual=1; 
0DA34:  MOVLW  28
0DA36:  MOVWF  xD5
0DA38:  MOVLW  64
0DA3A:  MOVLB  7
0DA3C:  MOVWF  x2D
0DA3E:  MOVLB  0
0DA40:  CALL   30A6
0DA44:  MOVLB  4
0DA46:  BSF    x65.4
....................             } 
....................             else 
0DA48:  BRA    DAA6
0DA4A:  MOVLB  6
....................             { 
....................                delay_ms(30);Integral+=1.0;visual=1; 
0DA4C:  MOVLW  1E
0DA4E:  MOVLB  7
0DA50:  MOVWF  x2D
0DA52:  MOVLB  0
0DA54:  CALL   30A6
0DA58:  MOVLB  7
0DA5A:  CLRF   x2E
0DA5C:  MOVFF  6D5,72D
0DA60:  MOVLB  0
0DA62:  CALL   30CE
0DA66:  BCF    FD8.1
0DA68:  MOVFF  03,72F
0DA6C:  MOVFF  02,72E
0DA70:  MOVFF  01,72D
0DA74:  MOVFF  00,72C
0DA78:  MOVLB  7
0DA7A:  CLRF   x33
0DA7C:  CLRF   x32
0DA7E:  CLRF   x31
0DA80:  MOVLW  7F
0DA82:  MOVWF  x30
0DA84:  MOVLB  0
0DA86:  CALL   3262
0DA8A:  MOVFF  03,72A
0DA8E:  MOVFF  02,729
0DA92:  MOVFF  01,728
0DA96:  MOVFF  00,727
0DA9A:  CALL   3576
0DA9E:  MOVFF  01,6D5
0DAA2:  MOVLB  4
0DAA4:  BSF    x65.4
....................             } 
....................          } 
....................                 
....................          if(DOWN)//Si oprime hacia abajo 
0DAA6:  BSF    F92.5
0DAA8:  BTFSC  F80.5
0DAAA:  BRA    DB1A
....................          {   
....................             delay_ms(10); 
0DAAC:  MOVLW  0A
0DAAE:  MOVLB  7
0DAB0:  MOVWF  x2D
0DAB2:  MOVLB  0
0DAB4:  CALL   30A6
....................             if(Integral>1) 
0DAB8:  MOVLB  6
0DABA:  MOVF   xD5,W
0DABC:  SUBLW  01
0DABE:  BC    DB1C
....................             { 
....................                delay_ms(30);Integral-=1.0;visual=1;      
0DAC0:  MOVLW  1E
0DAC2:  MOVLB  7
0DAC4:  MOVWF  x2D
0DAC6:  MOVLB  0
0DAC8:  CALL   30A6
0DACC:  MOVLB  7
0DACE:  CLRF   x2E
0DAD0:  MOVFF  6D5,72D
0DAD4:  MOVLB  0
0DAD6:  CALL   30CE
0DADA:  BSF    FD8.1
0DADC:  MOVFF  03,72F
0DAE0:  MOVFF  02,72E
0DAE4:  MOVFF  01,72D
0DAE8:  MOVFF  00,72C
0DAEC:  MOVLB  7
0DAEE:  CLRF   x33
0DAF0:  CLRF   x32
0DAF2:  CLRF   x31
0DAF4:  MOVLW  7F
0DAF6:  MOVWF  x30
0DAF8:  MOVLB  0
0DAFA:  CALL   3262
0DAFE:  MOVFF  03,72A
0DB02:  MOVFF  02,729
0DB06:  MOVFF  01,728
0DB0A:  MOVFF  00,727
0DB0E:  CALL   3576
0DB12:  MOVFF  01,6D5
0DB16:  MOVLB  4
0DB18:  BSF    x65.4
0DB1A:  MOVLB  6
....................             } 
....................          } 
....................                 
....................          if(RIGHT)//Si oprime SET 
0DB1C:  BSF    F96.0
0DB1E:  BTFSC  F84.0
0DB20:  BRA    DB40
....................          {   
....................             delay_ms(10); 
0DB22:  MOVLW  0A
0DB24:  MOVLB  7
0DB26:  MOVWF  x2D
0DB28:  MOVLB  0
0DB2A:  CALL   30A6
....................             delay_ms(30);visual=1; 
0DB2E:  MOVLW  1E
0DB30:  MOVLB  7
0DB32:  MOVWF  x2D
0DB34:  MOVLB  0
0DB36:  CALL   30A6
0DB3A:  MOVLB  4
0DB3C:  BSF    x65.4
0DB3E:  MOVLB  6
....................          }  
....................                    
....................          if(LEFT)//Si oprime boton de Toma. 
0DB40:  BSF    F96.1
0DB42:  BTFSC  F84.1
0DB44:  BRA    DBB0
....................          { 
....................             delay_ms(10); 
0DB46:  MOVLW  0A
0DB48:  MOVLB  7
0DB4A:  MOVWF  x2D
0DB4C:  MOVLB  0
0DB4E:  CALL   30A6
....................             delay_ms(700);Menu=100;glcd_fillscreen(OFF);Opcion=1;visual=1; 
0DB52:  MOVLW  04
0DB54:  MOVLB  7
0DB56:  MOVWF  x27
0DB58:  MOVLW  AF
0DB5A:  MOVWF  x2D
0DB5C:  MOVLB  0
0DB5E:  CALL   30A6
0DB62:  MOVLB  7
0DB64:  DECFSZ x27,F
0DB66:  BRA    DB58
0DB68:  MOVLW  64
0DB6A:  MOVLB  6
0DB6C:  MOVWF  xE1
0DB6E:  MOVLB  7
0DB70:  CLRF   x28
0DB72:  MOVLB  0
0DB74:  CALL   3936
0DB78:  MOVLW  01
0DB7A:  MOVLB  6
0DB7C:  MOVWF  xE7
0DB7E:  MOVLB  4
0DB80:  BSF    x65.4
....................             write_eeprom(26,(int8)Integral); 
0DB82:  CLRF   FAA
0DB84:  MOVLW  1A
0DB86:  MOVWF  FA9
0DB88:  MOVFF  6D5,FA8
0DB8C:  BCF    FA6.6
0DB8E:  BCF    FA6.7
0DB90:  BSF    FA6.2
0DB92:  MOVF   FF2,W
0DB94:  MOVWF  00
0DB96:  BCF    FF2.7
0DB98:  MOVLB  F
0DB9A:  MOVLW  55
0DB9C:  MOVWF  FA7
0DB9E:  MOVLW  AA
0DBA0:  MOVWF  FA7
0DBA2:  BSF    FA6.1
0DBA4:  BTFSC  FA6.1
0DBA6:  BRA    DBA4
0DBA8:  BCF    FA6.2
0DBAA:  MOVF   00,W
0DBAC:  IORWF  FF2,F
0DBAE:  MOVLB  6
....................          } 
....................      } 
.................... //_-------------------------------------------------------------------------------------------------------------------------------------------------------- 
....................  
.................... //_--------------------------------------------------------------------------------------------------------------------------------------------------------       
....................       if(Menu==103){ // Menu de Ajuste de Derivativo 
0DBB0:  MOVF   xE1,W
0DBB2:  SUBLW  67
0DBB4:  BTFSS  FD8.2
0DBB6:  BRA    DDC6
....................        
....................       if(Derivativo>200) 
0DBB8:  MOVF   xD6,W
0DBBA:  SUBLW  C8
0DBBC:  BC    DBC2
....................       { 
....................          Derivativo=2; 
0DBBE:  MOVLW  02
0DBC0:  MOVWF  xD6
....................       } 
....................        
....................       if(visual==1) 
0DBC2:  MOVLB  4
0DBC4:  BTFSS  x65.4
0DBC6:  BRA    DC30
....................       { 
....................          glcd_fillScreen(OFF); 
0DBC8:  MOVLB  7
0DBCA:  CLRF   x28
0DBCC:  MOVLB  0
0DBCE:  CALL   3936
....................          strcpy(Menus.Letra,"D"); 
0DBD2:  MOVLW  07
0DBD4:  MOVWF  FEA
0DBD6:  MOVLW  12
0DBD8:  MOVWF  FE9
0DBDA:  MOVFF  FF2,727
0DBDE:  BCF    FF2.7
0DBE0:  MOVLW  00
0DBE2:  CALL   2CA6
0DBE6:  TBLRD*-
0DBE8:  TBLRD*+
0DBEA:  MOVF   FF5,W
0DBEC:  MOVWF  FEE
0DBEE:  IORLW  00
0DBF0:  BNZ   DBE8
0DBF2:  MOVLB  7
0DBF4:  BTFSC  x27.7
0DBF6:  BSF    FF2.7
....................          displayMenu(Menus.Letra,0,0,1,2); 
0DBF8:  MOVLW  07
0DBFA:  MOVWF  x28
0DBFC:  MOVLW  12
0DBFE:  MOVWF  x27
0DC00:  CLRF   x29
0DC02:  CLRF   x2A
0DC04:  MOVLW  01
0DC06:  MOVWF  x2B
0DC08:  MOVLW  02
0DC0A:  MOVWF  x2C
0DC0C:  MOVLB  0
0DC0E:  CALL   3F64
....................           
....................          displayTemperatura(Derivativo,30,30,0,3); 
0DC12:  MOVLB  7
0DC14:  CLRF   x2A
0DC16:  MOVFF  6D6,729
0DC1A:  MOVLW  1E
0DC1C:  MOVWF  x2B
0DC1E:  MOVWF  x2C
0DC20:  CLRF   x2D
0DC22:  MOVLW  03
0DC24:  MOVWF  x2E
0DC26:  MOVLB  0
0DC28:  CALL   65A0
....................           
....................          visual=0; 
0DC2C:  MOVLB  4
0DC2E:  BCF    x65.4
....................       } 
....................        
....................          if(UP)//Si oprime hacia arriba 
0DC30:  BSF    F92.4
0DC32:  BTFSC  F80.4
0DC34:  BRA    DCBC
....................          {   
....................             delay_ms(10); 
0DC36:  MOVLW  0A
0DC38:  MOVLB  7
0DC3A:  MOVWF  x2D
0DC3C:  MOVLB  0
0DC3E:  CALL   30A6
....................             if(Derivativo>200) 
0DC42:  MOVLB  6
0DC44:  MOVF   xD6,W
0DC46:  SUBLW  C8
0DC48:  BC    DC62
....................             { 
....................                Derivativo=200;delay_ms(100);visual=1; 
0DC4A:  MOVLW  C8
0DC4C:  MOVWF  xD6
0DC4E:  MOVLW  64
0DC50:  MOVLB  7
0DC52:  MOVWF  x2D
0DC54:  MOVLB  0
0DC56:  CALL   30A6
0DC5A:  MOVLB  4
0DC5C:  BSF    x65.4
....................             } 
....................             else 
0DC5E:  BRA    DCBC
0DC60:  MOVLB  6
....................             { 
....................                delay_ms(30);Derivativo+=1.0;visual=1; 
0DC62:  MOVLW  1E
0DC64:  MOVLB  7
0DC66:  MOVWF  x2D
0DC68:  MOVLB  0
0DC6A:  CALL   30A6
0DC6E:  MOVLB  7
0DC70:  CLRF   x2E
0DC72:  MOVFF  6D6,72D
0DC76:  MOVLB  0
0DC78:  CALL   30CE
0DC7C:  BCF    FD8.1
0DC7E:  MOVFF  03,72F
0DC82:  MOVFF  02,72E
0DC86:  MOVFF  01,72D
0DC8A:  MOVFF  00,72C
0DC8E:  MOVLB  7
0DC90:  CLRF   x33
0DC92:  CLRF   x32
0DC94:  CLRF   x31
0DC96:  MOVLW  7F
0DC98:  MOVWF  x30
0DC9A:  MOVLB  0
0DC9C:  CALL   3262
0DCA0:  MOVFF  03,72A
0DCA4:  MOVFF  02,729
0DCA8:  MOVFF  01,728
0DCAC:  MOVFF  00,727
0DCB0:  CALL   3576
0DCB4:  MOVFF  01,6D6
0DCB8:  MOVLB  4
0DCBA:  BSF    x65.4
....................             } 
....................          } 
....................                 
....................          if(DOWN)//Si oprime hacia abajo 
0DCBC:  BSF    F92.5
0DCBE:  BTFSC  F80.5
0DCC0:  BRA    DD30
....................          {   
....................             delay_ms(10); 
0DCC2:  MOVLW  0A
0DCC4:  MOVLB  7
0DCC6:  MOVWF  x2D
0DCC8:  MOVLB  0
0DCCA:  CALL   30A6
....................             if(Derivativo>1) 
0DCCE:  MOVLB  6
0DCD0:  MOVF   xD6,W
0DCD2:  SUBLW  01
0DCD4:  BC    DD32
....................             { 
....................                delay_ms(30);Derivativo-=1.0;visual=1;      
0DCD6:  MOVLW  1E
0DCD8:  MOVLB  7
0DCDA:  MOVWF  x2D
0DCDC:  MOVLB  0
0DCDE:  CALL   30A6
0DCE2:  MOVLB  7
0DCE4:  CLRF   x2E
0DCE6:  MOVFF  6D6,72D
0DCEA:  MOVLB  0
0DCEC:  CALL   30CE
0DCF0:  BSF    FD8.1
0DCF2:  MOVFF  03,72F
0DCF6:  MOVFF  02,72E
0DCFA:  MOVFF  01,72D
0DCFE:  MOVFF  00,72C
0DD02:  MOVLB  7
0DD04:  CLRF   x33
0DD06:  CLRF   x32
0DD08:  CLRF   x31
0DD0A:  MOVLW  7F
0DD0C:  MOVWF  x30
0DD0E:  MOVLB  0
0DD10:  CALL   3262
0DD14:  MOVFF  03,72A
0DD18:  MOVFF  02,729
0DD1C:  MOVFF  01,728
0DD20:  MOVFF  00,727
0DD24:  CALL   3576
0DD28:  MOVFF  01,6D6
0DD2C:  MOVLB  4
0DD2E:  BSF    x65.4
0DD30:  MOVLB  6
....................             } 
....................          } 
....................                 
....................          if(RIGHT)//Si oprime SET 
0DD32:  BSF    F96.0
0DD34:  BTFSC  F84.0
0DD36:  BRA    DD56
....................          {   
....................             delay_ms(10); 
0DD38:  MOVLW  0A
0DD3A:  MOVLB  7
0DD3C:  MOVWF  x2D
0DD3E:  MOVLB  0
0DD40:  CALL   30A6
....................             delay_ms(30);visual=1; 
0DD44:  MOVLW  1E
0DD46:  MOVLB  7
0DD48:  MOVWF  x2D
0DD4A:  MOVLB  0
0DD4C:  CALL   30A6
0DD50:  MOVLB  4
0DD52:  BSF    x65.4
0DD54:  MOVLB  6
....................          }  
....................                    
....................          if(LEFT)//Si oprime boton de Toma. 
0DD56:  BSF    F96.1
0DD58:  BTFSC  F84.1
0DD5A:  BRA    DDC6
....................          { 
....................             delay_ms(10); 
0DD5C:  MOVLW  0A
0DD5E:  MOVLB  7
0DD60:  MOVWF  x2D
0DD62:  MOVLB  0
0DD64:  CALL   30A6
....................             delay_ms(700);Menu=100;glcd_fillscreen(OFF);Opcion=1;visual=1; 
0DD68:  MOVLW  04
0DD6A:  MOVLB  7
0DD6C:  MOVWF  x27
0DD6E:  MOVLW  AF
0DD70:  MOVWF  x2D
0DD72:  MOVLB  0
0DD74:  CALL   30A6
0DD78:  MOVLB  7
0DD7A:  DECFSZ x27,F
0DD7C:  BRA    DD6E
0DD7E:  MOVLW  64
0DD80:  MOVLB  6
0DD82:  MOVWF  xE1
0DD84:  MOVLB  7
0DD86:  CLRF   x28
0DD88:  MOVLB  0
0DD8A:  CALL   3936
0DD8E:  MOVLW  01
0DD90:  MOVLB  6
0DD92:  MOVWF  xE7
0DD94:  MOVLB  4
0DD96:  BSF    x65.4
....................             write_eeprom(27,(int8)Derivativo); 
0DD98:  CLRF   FAA
0DD9A:  MOVLW  1B
0DD9C:  MOVWF  FA9
0DD9E:  MOVFF  6D6,FA8
0DDA2:  BCF    FA6.6
0DDA4:  BCF    FA6.7
0DDA6:  BSF    FA6.2
0DDA8:  MOVF   FF2,W
0DDAA:  MOVWF  00
0DDAC:  BCF    FF2.7
0DDAE:  MOVLB  F
0DDB0:  MOVLW  55
0DDB2:  MOVWF  FA7
0DDB4:  MOVLW  AA
0DDB6:  MOVWF  FA7
0DDB8:  BSF    FA6.1
0DDBA:  BTFSC  FA6.1
0DDBC:  BRA    DDBA
0DDBE:  BCF    FA6.2
0DDC0:  MOVF   00,W
0DDC2:  IORWF  FF2,F
0DDC4:  MOVLB  6
....................          } 
....................      } 
.................... //_-------------------------------------------------------------------------------------------------------------------------------------------------------- 
....................  
.................... //_--------------------------------------------------------------------------------------------------------------------------------------------------------       
....................       if(Menu==104){ // Menu de Tiempo de Ciclo 
0DDC6:  MOVF   xE1,W
0DDC8:  SUBLW  68
0DDCA:  BTFSS  FD8.2
0DDCC:  BRA    E058
....................        
....................       if(Tciclo>40) 
0DDCE:  MOVLB  7
0DDD0:  CLRF   x2B
0DDD2:  CLRF   x2A
0DDD4:  MOVLW  20
0DDD6:  MOVWF  x29
0DDD8:  MOVLW  84
0DDDA:  MOVWF  x28
0DDDC:  MOVFF  690,72F
0DDE0:  MOVFF  68F,72E
0DDE4:  MOVFF  68E,72D
0DDE8:  MOVFF  68D,72C
0DDEC:  MOVLB  0
0DDEE:  CALL   34DA
0DDF2:  BNC   DE02
....................       { 
....................          Tciclo=40; 
0DDF4:  MOVLB  6
0DDF6:  CLRF   x90
0DDF8:  CLRF   x8F
0DDFA:  MOVLW  20
0DDFC:  MOVWF  x8E
0DDFE:  MOVLW  84
0DE00:  MOVWF  x8D
....................       } 
....................        
....................       if(visual==1) 
0DE02:  MOVLB  4
0DE04:  BTFSS  x65.4
0DE06:  BRA    DE8E
....................       { 
....................          glcd_fillScreen(OFF); 
0DE08:  MOVLB  7
0DE0A:  CLRF   x28
0DE0C:  MOVLB  0
0DE0E:  CALL   3936
....................          strcpy(Menus.Letra,"Tciclo"); 
0DE12:  MOVLW  07
0DE14:  MOVWF  FEA
0DE16:  MOVLW  12
0DE18:  MOVWF  FE9
0DE1A:  MOVFF  FF2,727
0DE1E:  BCF    FF2.7
0DE20:  MOVLW  00
0DE22:  CALL   2AEC
0DE26:  TBLRD*-
0DE28:  TBLRD*+
0DE2A:  MOVF   FF5,W
0DE2C:  MOVWF  FEE
0DE2E:  IORLW  00
0DE30:  BNZ   DE28
0DE32:  MOVLB  7
0DE34:  BTFSC  x27.7
0DE36:  BSF    FF2.7
....................          displayMenu(Menus.Letra,0,0,1,2); 
0DE38:  MOVLW  07
0DE3A:  MOVWF  x28
0DE3C:  MOVLW  12
0DE3E:  MOVWF  x27
0DE40:  CLRF   x29
0DE42:  CLRF   x2A
0DE44:  MOVLW  01
0DE46:  MOVWF  x2B
0DE48:  MOVLW  02
0DE4A:  MOVWF  x2C
0DE4C:  MOVLB  0
0DE4E:  CALL   3F64
....................           
....................          displayTemperatura(Tciclo,30,30,0,3); 
0DE52:  MOVFF  690,72A
0DE56:  MOVFF  68F,729
0DE5A:  MOVFF  68E,728
0DE5E:  MOVFF  68D,727
0DE62:  CALL   3576
0DE66:  MOVFF  02,728
0DE6A:  MOVFF  01,727
0DE6E:  MOVFF  02,72A
0DE72:  MOVFF  01,729
0DE76:  MOVLW  1E
0DE78:  MOVLB  7
0DE7A:  MOVWF  x2B
0DE7C:  MOVWF  x2C
0DE7E:  CLRF   x2D
0DE80:  MOVLW  03
0DE82:  MOVWF  x2E
0DE84:  MOVLB  0
0DE86:  CALL   65A0
....................           
....................          visual=0; 
0DE8A:  MOVLB  4
0DE8C:  BCF    x65.4
....................       } 
....................        
....................          if(UP)//Si oprime hacia arriba 
0DE8E:  BSF    F92.4
0DE90:  BTFSC  F80.4
0DE92:  BRA    DF2C
....................          {   
....................             delay_ms(10); 
0DE94:  MOVLW  0A
0DE96:  MOVLB  7
0DE98:  MOVWF  x2D
0DE9A:  MOVLB  0
0DE9C:  CALL   30A6
....................             if(Tciclo>40) 
0DEA0:  MOVLB  7
0DEA2:  CLRF   x2B
0DEA4:  CLRF   x2A
0DEA6:  MOVLW  20
0DEA8:  MOVWF  x29
0DEAA:  MOVLW  84
0DEAC:  MOVWF  x28
0DEAE:  MOVFF  690,72F
0DEB2:  MOVFF  68F,72E
0DEB6:  MOVFF  68E,72D
0DEBA:  MOVFF  68D,72C
0DEBE:  MOVLB  0
0DEC0:  CALL   34DA
0DEC4:  BNC   DEE8
....................             { 
....................                Tciclo=40;delay_ms(100);visual=1; 
0DEC6:  MOVLB  6
0DEC8:  CLRF   x90
0DECA:  CLRF   x8F
0DECC:  MOVLW  20
0DECE:  MOVWF  x8E
0DED0:  MOVLW  84
0DED2:  MOVWF  x8D
0DED4:  MOVLW  64
0DED6:  MOVLB  7
0DED8:  MOVWF  x2D
0DEDA:  MOVLB  0
0DEDC:  CALL   30A6
0DEE0:  MOVLB  4
0DEE2:  BSF    x65.4
....................             } 
....................             else 
0DEE4:  BRA    DF2C
0DEE6:  MOVLB  0
....................             { 
....................                delay_ms(30);Tciclo+=1.0;visual=1; 
0DEE8:  MOVLW  1E
0DEEA:  MOVLB  7
0DEEC:  MOVWF  x2D
0DEEE:  MOVLB  0
0DEF0:  CALL   30A6
0DEF4:  BCF    FD8.1
0DEF6:  MOVFF  690,72F
0DEFA:  MOVFF  68F,72E
0DEFE:  MOVFF  68E,72D
0DF02:  MOVFF  68D,72C
0DF06:  MOVLB  7
0DF08:  CLRF   x33
0DF0A:  CLRF   x32
0DF0C:  CLRF   x31
0DF0E:  MOVLW  7F
0DF10:  MOVWF  x30
0DF12:  MOVLB  0
0DF14:  CALL   3262
0DF18:  MOVFF  03,690
0DF1C:  MOVFF  02,68F
0DF20:  MOVFF  01,68E
0DF24:  MOVFF  00,68D
0DF28:  MOVLB  4
0DF2A:  BSF    x65.4
....................             } 
....................          } 
....................                 
....................          if(DOWN)//Si oprime hacia abajo 
0DF2C:  BSF    F92.5
0DF2E:  BTFSC  F80.5
0DF30:  BRA    DFA6
....................          {   
....................             delay_ms(10); 
0DF32:  MOVLW  0A
0DF34:  MOVLB  7
0DF36:  MOVWF  x2D
0DF38:  MOVLB  0
0DF3A:  CALL   30A6
....................             if(Tciclo>1) 
0DF3E:  MOVLB  7
0DF40:  CLRF   x2B
0DF42:  CLRF   x2A
0DF44:  CLRF   x29
0DF46:  MOVLW  7F
0DF48:  MOVWF  x28
0DF4A:  MOVFF  690,72F
0DF4E:  MOVFF  68F,72E
0DF52:  MOVFF  68E,72D
0DF56:  MOVFF  68D,72C
0DF5A:  MOVLB  0
0DF5C:  CALL   34DA
0DF60:  BNC   DFA8
....................             { 
....................                delay_ms(30);Tciclo-=1.0;visual=1;      
0DF62:  MOVLW  1E
0DF64:  MOVLB  7
0DF66:  MOVWF  x2D
0DF68:  MOVLB  0
0DF6A:  CALL   30A6
0DF6E:  BSF    FD8.1
0DF70:  MOVFF  690,72F
0DF74:  MOVFF  68F,72E
0DF78:  MOVFF  68E,72D
0DF7C:  MOVFF  68D,72C
0DF80:  MOVLB  7
0DF82:  CLRF   x33
0DF84:  CLRF   x32
0DF86:  CLRF   x31
0DF88:  MOVLW  7F
0DF8A:  MOVWF  x30
0DF8C:  MOVLB  0
0DF8E:  CALL   3262
0DF92:  MOVFF  03,690
0DF96:  MOVFF  02,68F
0DF9A:  MOVFF  01,68E
0DF9E:  MOVFF  00,68D
0DFA2:  MOVLB  4
0DFA4:  BSF    x65.4
0DFA6:  MOVLB  0
....................             } 
....................          } 
....................                 
....................          if(RIGHT)//Si oprime SET 
0DFA8:  BSF    F96.0
0DFAA:  BTFSC  F84.0
0DFAC:  BRA    DFCC
....................          {   
....................             delay_ms(10); 
0DFAE:  MOVLW  0A
0DFB0:  MOVLB  7
0DFB2:  MOVWF  x2D
0DFB4:  MOVLB  0
0DFB6:  CALL   30A6
....................             delay_ms(30);visual=1; 
0DFBA:  MOVLW  1E
0DFBC:  MOVLB  7
0DFBE:  MOVWF  x2D
0DFC0:  MOVLB  0
0DFC2:  CALL   30A6
0DFC6:  MOVLB  4
0DFC8:  BSF    x65.4
0DFCA:  MOVLB  0
....................          }  
....................                    
....................          if(LEFT)//Si oprime boton de Toma. 
0DFCC:  BSF    F96.1
0DFCE:  BTFSC  F84.1
0DFD0:  BRA    E056
....................          { 
....................             delay_ms(10); 
0DFD2:  MOVLW  0A
0DFD4:  MOVLB  7
0DFD6:  MOVWF  x2D
0DFD8:  MOVLB  0
0DFDA:  CALL   30A6
....................             delay_ms(700);Menu=100;glcd_fillscreen(OFF);Opcion=1;visual=1; 
0DFDE:  MOVLW  04
0DFE0:  MOVLB  7
0DFE2:  MOVWF  x27
0DFE4:  MOVLW  AF
0DFE6:  MOVWF  x2D
0DFE8:  MOVLB  0
0DFEA:  CALL   30A6
0DFEE:  MOVLB  7
0DFF0:  DECFSZ x27,F
0DFF2:  BRA    DFE4
0DFF4:  MOVLW  64
0DFF6:  MOVLB  6
0DFF8:  MOVWF  xE1
0DFFA:  MOVLB  7
0DFFC:  CLRF   x28
0DFFE:  MOVLB  0
0E000:  CALL   3936
0E004:  MOVLW  01
0E006:  MOVLB  6
0E008:  MOVWF  xE7
0E00A:  MOVLB  4
0E00C:  BSF    x65.4
....................             write_eeprom(25,(int8)Tciclo); 
0E00E:  MOVFF  690,72A
0E012:  MOVFF  68F,729
0E016:  MOVFF  68E,728
0E01A:  MOVFF  68D,727
0E01E:  MOVLB  0
0E020:  CALL   3576
0E024:  MOVFF  01,727
0E028:  CLRF   FAA
0E02A:  MOVLW  19
0E02C:  MOVWF  FA9
0E02E:  MOVFF  727,FA8
0E032:  BCF    FA6.6
0E034:  BCF    FA6.7
0E036:  BSF    FA6.2
0E038:  MOVF   FF2,W
0E03A:  MOVWF  00
0E03C:  BCF    FF2.7
0E03E:  MOVLB  F
0E040:  MOVLW  55
0E042:  MOVWF  FA7
0E044:  MOVLW  AA
0E046:  MOVWF  FA7
0E048:  BSF    FA6.1
0E04A:  BTFSC  FA6.1
0E04C:  BRA    E04A
0E04E:  BCF    FA6.2
0E050:  MOVF   00,W
0E052:  IORWF  FF2,F
0E054:  MOVLB  0
0E056:  MOVLB  6
....................          } 
....................      } 
.................... //_-------------------------------------------------------------------------------------------------------------------------------------------------------- 
....................  
.................... //_--------------------------------------------------------------------------------------------------------------------------------------------------------       
....................       if(Menu==105){ // Menu de Ajuste de Ajuste+ 
0E058:  MOVF   xE1,W
0E05A:  SUBLW  69
0E05C:  BTFSS  FD8.2
0E05E:  BRA    E268
....................        
....................       if(Ajuste>100) 
0E060:  MOVF   x7E,W
0E062:  SUBLW  64
0E064:  BC    E068
....................       { 
....................          Ajuste=0; 
0E066:  CLRF   x7E
....................       } 
....................        
....................       if(visual==1) 
0E068:  MOVLB  4
0E06A:  BTFSS  x65.4
0E06C:  BRA    E0D6
....................       { 
....................          glcd_fillScreen(OFF); 
0E06E:  MOVLB  7
0E070:  CLRF   x28
0E072:  MOVLB  0
0E074:  CALL   3936
....................          strcpy(Menus.Letra,"Ajuste"); 
0E078:  MOVLW  07
0E07A:  MOVWF  FEA
0E07C:  MOVLW  12
0E07E:  MOVWF  FE9
0E080:  MOVFF  FF2,727
0E084:  BCF    FF2.7
0E086:  MOVLW  00
0E088:  CALL   2CC6
0E08C:  TBLRD*-
0E08E:  TBLRD*+
0E090:  MOVF   FF5,W
0E092:  MOVWF  FEE
0E094:  IORLW  00
0E096:  BNZ   E08E
0E098:  MOVLB  7
0E09A:  BTFSC  x27.7
0E09C:  BSF    FF2.7
....................          displayMenu(Menus.Letra,0,0,1,2); 
0E09E:  MOVLW  07
0E0A0:  MOVWF  x28
0E0A2:  MOVLW  12
0E0A4:  MOVWF  x27
0E0A6:  CLRF   x29
0E0A8:  CLRF   x2A
0E0AA:  MOVLW  01
0E0AC:  MOVWF  x2B
0E0AE:  MOVLW  02
0E0B0:  MOVWF  x2C
0E0B2:  MOVLB  0
0E0B4:  CALL   3F64
....................           
....................          displayTemperatura(Ajuste,30,30,0,3); 
0E0B8:  MOVLB  7
0E0BA:  CLRF   x2A
0E0BC:  MOVFF  67E,729
0E0C0:  MOVLW  1E
0E0C2:  MOVWF  x2B
0E0C4:  MOVWF  x2C
0E0C6:  CLRF   x2D
0E0C8:  MOVLW  03
0E0CA:  MOVWF  x2E
0E0CC:  MOVLB  0
0E0CE:  CALL   65A0
....................           
....................          visual=0; 
0E0D2:  MOVLB  4
0E0D4:  BCF    x65.4
....................       } 
....................        
....................          if(UP)//Si oprime hacia arriba 
0E0D6:  BSF    F92.4
0E0D8:  BTFSC  F80.4
0E0DA:  BRA    E160
....................          {   
....................             delay_ms(10); 
0E0DC:  MOVLW  0A
0E0DE:  MOVLB  7
0E0E0:  MOVWF  x2D
0E0E2:  MOVLB  0
0E0E4:  CALL   30A6
....................             if(Ajuste>100) 
0E0E8:  MOVLB  6
0E0EA:  MOVF   x7E,W
0E0EC:  SUBLW  64
0E0EE:  BC    E106
....................             { 
....................                Ajuste=100;delay_ms(100);visual=1; 
0E0F0:  MOVLW  64
0E0F2:  MOVWF  x7E
0E0F4:  MOVLB  7
0E0F6:  MOVWF  x2D
0E0F8:  MOVLB  0
0E0FA:  CALL   30A6
0E0FE:  MOVLB  4
0E100:  BSF    x65.4
....................             } 
....................             else 
0E102:  BRA    E160
0E104:  MOVLB  6
....................             { 
....................                delay_ms(30);Ajuste+=1.0;visual=1; 
0E106:  MOVLW  1E
0E108:  MOVLB  7
0E10A:  MOVWF  x2D
0E10C:  MOVLB  0
0E10E:  CALL   30A6
0E112:  MOVLB  7
0E114:  CLRF   x2E
0E116:  MOVFF  67E,72D
0E11A:  MOVLB  0
0E11C:  CALL   30CE
0E120:  BCF    FD8.1
0E122:  MOVFF  03,72F
0E126:  MOVFF  02,72E
0E12A:  MOVFF  01,72D
0E12E:  MOVFF  00,72C
0E132:  MOVLB  7
0E134:  CLRF   x33
0E136:  CLRF   x32
0E138:  CLRF   x31
0E13A:  MOVLW  7F
0E13C:  MOVWF  x30
0E13E:  MOVLB  0
0E140:  CALL   3262
0E144:  MOVFF  03,72A
0E148:  MOVFF  02,729
0E14C:  MOVFF  01,728
0E150:  MOVFF  00,727
0E154:  CALL   3576
0E158:  MOVFF  01,67E
0E15C:  MOVLB  4
0E15E:  BSF    x65.4
....................             } 
....................          } 
....................                 
....................          if(DOWN)//Si oprime hacia abajo 
0E160:  BSF    F92.5
0E162:  BTFSC  F80.5
0E164:  BRA    E1D2
....................          {   
....................             delay_ms(10); 
0E166:  MOVLW  0A
0E168:  MOVLB  7
0E16A:  MOVWF  x2D
0E16C:  MOVLB  0
0E16E:  CALL   30A6
....................             if(Ajuste>0) 
0E172:  MOVLB  6
0E174:  MOVF   x7E,F
0E176:  BZ    E1D4
....................             { 
....................                delay_ms(30);Ajuste-=1.0;visual=1;      
0E178:  MOVLW  1E
0E17A:  MOVLB  7
0E17C:  MOVWF  x2D
0E17E:  MOVLB  0
0E180:  CALL   30A6
0E184:  MOVLB  7
0E186:  CLRF   x2E
0E188:  MOVFF  67E,72D
0E18C:  MOVLB  0
0E18E:  CALL   30CE
0E192:  BSF    FD8.1
0E194:  MOVFF  03,72F
0E198:  MOVFF  02,72E
0E19C:  MOVFF  01,72D
0E1A0:  MOVFF  00,72C
0E1A4:  MOVLB  7
0E1A6:  CLRF   x33
0E1A8:  CLRF   x32
0E1AA:  CLRF   x31
0E1AC:  MOVLW  7F
0E1AE:  MOVWF  x30
0E1B0:  MOVLB  0
0E1B2:  CALL   3262
0E1B6:  MOVFF  03,72A
0E1BA:  MOVFF  02,729
0E1BE:  MOVFF  01,728
0E1C2:  MOVFF  00,727
0E1C6:  CALL   3576
0E1CA:  MOVFF  01,67E
0E1CE:  MOVLB  4
0E1D0:  BSF    x65.4
0E1D2:  MOVLB  6
....................             } 
....................          } 
....................                 
....................          if(RIGHT)//Si oprime SET 
0E1D4:  BSF    F96.0
0E1D6:  BTFSC  F84.0
0E1D8:  BRA    E1F8
....................          {   
....................             delay_ms(10); 
0E1DA:  MOVLW  0A
0E1DC:  MOVLB  7
0E1DE:  MOVWF  x2D
0E1E0:  MOVLB  0
0E1E2:  CALL   30A6
....................             delay_ms(30);visual=1; 
0E1E6:  MOVLW  1E
0E1E8:  MOVLB  7
0E1EA:  MOVWF  x2D
0E1EC:  MOVLB  0
0E1EE:  CALL   30A6
0E1F2:  MOVLB  4
0E1F4:  BSF    x65.4
0E1F6:  MOVLB  6
....................          }  
....................                    
....................          if(LEFT)//Si oprime boton de Toma. 
0E1F8:  BSF    F96.1
0E1FA:  BTFSC  F84.1
0E1FC:  BRA    E268
....................          { 
....................             delay_ms(10); 
0E1FE:  MOVLW  0A
0E200:  MOVLB  7
0E202:  MOVWF  x2D
0E204:  MOVLB  0
0E206:  CALL   30A6
....................             delay_ms(700);Menu=100;glcd_fillscreen(OFF);Opcion=1;visual=1; 
0E20A:  MOVLW  04
0E20C:  MOVLB  7
0E20E:  MOVWF  x27
0E210:  MOVLW  AF
0E212:  MOVWF  x2D
0E214:  MOVLB  0
0E216:  CALL   30A6
0E21A:  MOVLB  7
0E21C:  DECFSZ x27,F
0E21E:  BRA    E210
0E220:  MOVLW  64
0E222:  MOVLB  6
0E224:  MOVWF  xE1
0E226:  MOVLB  7
0E228:  CLRF   x28
0E22A:  MOVLB  0
0E22C:  CALL   3936
0E230:  MOVLW  01
0E232:  MOVLB  6
0E234:  MOVWF  xE7
0E236:  MOVLB  4
0E238:  BSF    x65.4
....................             write_eeprom(21,Ajuste); 
0E23A:  CLRF   FAA
0E23C:  MOVLW  15
0E23E:  MOVWF  FA9
0E240:  MOVFF  67E,FA8
0E244:  BCF    FA6.6
0E246:  BCF    FA6.7
0E248:  BSF    FA6.2
0E24A:  MOVF   FF2,W
0E24C:  MOVWF  00
0E24E:  BCF    FF2.7
0E250:  MOVLB  F
0E252:  MOVLW  55
0E254:  MOVWF  FA7
0E256:  MOVLW  AA
0E258:  MOVWF  FA7
0E25A:  BSF    FA6.1
0E25C:  BTFSC  FA6.1
0E25E:  BRA    E25C
0E260:  BCF    FA6.2
0E262:  MOVF   00,W
0E264:  IORWF  FF2,F
0E266:  MOVLB  6
....................          } 
....................      } 
.................... //_-------------------------------------------------------------------------------------------------------------------------------------------------------- 
....................  
.................... //_--------------------------------------------------------------------------------------------------------------------------------------------------------       
....................       if(Menu==106){ // Menu de Ajuste de Ajuste - 
0E268:  MOVF   xE1,W
0E26A:  SUBLW  6A
0E26C:  BTFSS  FD8.2
0E26E:  BRA    E478
....................        
....................       if(Ajusten>100) 
0E270:  MOVF   x7F,W
0E272:  SUBLW  64
0E274:  BC    E278
....................       { 
....................          Ajusten=0; 
0E276:  CLRF   x7F
....................       } 
....................        
....................       if(visual==1) 
0E278:  MOVLB  4
0E27A:  BTFSS  x65.4
0E27C:  BRA    E2E6
....................       { 
....................          glcd_fillScreen(OFF); 
0E27E:  MOVLB  7
0E280:  CLRF   x28
0E282:  MOVLB  0
0E284:  CALL   3936
....................          strcpy(Menus.Letra,"Ajusten"); 
0E288:  MOVLW  07
0E28A:  MOVWF  FEA
0E28C:  MOVLW  12
0E28E:  MOVWF  FE9
0E290:  MOVFF  FF2,727
0E294:  BCF    FF2.7
0E296:  MOVLW  00
0E298:  CALL   2CEC
0E29C:  TBLRD*-
0E29E:  TBLRD*+
0E2A0:  MOVF   FF5,W
0E2A2:  MOVWF  FEE
0E2A4:  IORLW  00
0E2A6:  BNZ   E29E
0E2A8:  MOVLB  7
0E2AA:  BTFSC  x27.7
0E2AC:  BSF    FF2.7
....................          displayMenu(Menus.Letra,0,0,1,2); 
0E2AE:  MOVLW  07
0E2B0:  MOVWF  x28
0E2B2:  MOVLW  12
0E2B4:  MOVWF  x27
0E2B6:  CLRF   x29
0E2B8:  CLRF   x2A
0E2BA:  MOVLW  01
0E2BC:  MOVWF  x2B
0E2BE:  MOVLW  02
0E2C0:  MOVWF  x2C
0E2C2:  MOVLB  0
0E2C4:  CALL   3F64
....................           
....................          displayTemperatura(Ajusten,30,30,0,3); 
0E2C8:  MOVLB  7
0E2CA:  CLRF   x2A
0E2CC:  MOVFF  67F,729
0E2D0:  MOVLW  1E
0E2D2:  MOVWF  x2B
0E2D4:  MOVWF  x2C
0E2D6:  CLRF   x2D
0E2D8:  MOVLW  03
0E2DA:  MOVWF  x2E
0E2DC:  MOVLB  0
0E2DE:  CALL   65A0
....................           
....................          visual=0; 
0E2E2:  MOVLB  4
0E2E4:  BCF    x65.4
....................       } 
....................        
....................          if(UP)//Si oprime hacia arriba 
0E2E6:  BSF    F92.4
0E2E8:  BTFSC  F80.4
0E2EA:  BRA    E370
....................          {   
....................             delay_ms(10); 
0E2EC:  MOVLW  0A
0E2EE:  MOVLB  7
0E2F0:  MOVWF  x2D
0E2F2:  MOVLB  0
0E2F4:  CALL   30A6
....................             if(Ajusten>100) 
0E2F8:  MOVLB  6
0E2FA:  MOVF   x7F,W
0E2FC:  SUBLW  64
0E2FE:  BC    E316
....................             { 
....................                Ajusten=100;delay_ms(100);visual=1; 
0E300:  MOVLW  64
0E302:  MOVWF  x7F
0E304:  MOVLB  7
0E306:  MOVWF  x2D
0E308:  MOVLB  0
0E30A:  CALL   30A6
0E30E:  MOVLB  4
0E310:  BSF    x65.4
....................             } 
....................             else 
0E312:  BRA    E370
0E314:  MOVLB  6
....................             { 
....................                delay_ms(30);Ajusten+=1.0;visual=1; 
0E316:  MOVLW  1E
0E318:  MOVLB  7
0E31A:  MOVWF  x2D
0E31C:  MOVLB  0
0E31E:  CALL   30A6
0E322:  MOVLB  7
0E324:  CLRF   x2E
0E326:  MOVFF  67F,72D
0E32A:  MOVLB  0
0E32C:  CALL   30CE
0E330:  BCF    FD8.1
0E332:  MOVFF  03,72F
0E336:  MOVFF  02,72E
0E33A:  MOVFF  01,72D
0E33E:  MOVFF  00,72C
0E342:  MOVLB  7
0E344:  CLRF   x33
0E346:  CLRF   x32
0E348:  CLRF   x31
0E34A:  MOVLW  7F
0E34C:  MOVWF  x30
0E34E:  MOVLB  0
0E350:  CALL   3262
0E354:  MOVFF  03,72A
0E358:  MOVFF  02,729
0E35C:  MOVFF  01,728
0E360:  MOVFF  00,727
0E364:  CALL   3576
0E368:  MOVFF  01,67F
0E36C:  MOVLB  4
0E36E:  BSF    x65.4
....................             } 
....................          } 
....................                 
....................          if(DOWN)//Si oprime hacia abajo 
0E370:  BSF    F92.5
0E372:  BTFSC  F80.5
0E374:  BRA    E3E2
....................          {   
....................             delay_ms(10); 
0E376:  MOVLW  0A
0E378:  MOVLB  7
0E37A:  MOVWF  x2D
0E37C:  MOVLB  0
0E37E:  CALL   30A6
....................             if(Ajusten>0) 
0E382:  MOVLB  6
0E384:  MOVF   x7F,F
0E386:  BZ    E3E4
....................             { 
....................                delay_ms(30);Ajusten-=1.0;visual=1;      
0E388:  MOVLW  1E
0E38A:  MOVLB  7
0E38C:  MOVWF  x2D
0E38E:  MOVLB  0
0E390:  CALL   30A6
0E394:  MOVLB  7
0E396:  CLRF   x2E
0E398:  MOVFF  67F,72D
0E39C:  MOVLB  0
0E39E:  CALL   30CE
0E3A2:  BSF    FD8.1
0E3A4:  MOVFF  03,72F
0E3A8:  MOVFF  02,72E
0E3AC:  MOVFF  01,72D
0E3B0:  MOVFF  00,72C
0E3B4:  MOVLB  7
0E3B6:  CLRF   x33
0E3B8:  CLRF   x32
0E3BA:  CLRF   x31
0E3BC:  MOVLW  7F
0E3BE:  MOVWF  x30
0E3C0:  MOVLB  0
0E3C2:  CALL   3262
0E3C6:  MOVFF  03,72A
0E3CA:  MOVFF  02,729
0E3CE:  MOVFF  01,728
0E3D2:  MOVFF  00,727
0E3D6:  CALL   3576
0E3DA:  MOVFF  01,67F
0E3DE:  MOVLB  4
0E3E0:  BSF    x65.4
0E3E2:  MOVLB  6
....................             } 
....................          } 
....................                 
....................          if(RIGHT)//Si oprime SET 
0E3E4:  BSF    F96.0
0E3E6:  BTFSC  F84.0
0E3E8:  BRA    E408
....................          {   
....................             delay_ms(10); 
0E3EA:  MOVLW  0A
0E3EC:  MOVLB  7
0E3EE:  MOVWF  x2D
0E3F0:  MOVLB  0
0E3F2:  CALL   30A6
....................             delay_ms(30);visual=1; 
0E3F6:  MOVLW  1E
0E3F8:  MOVLB  7
0E3FA:  MOVWF  x2D
0E3FC:  MOVLB  0
0E3FE:  CALL   30A6
0E402:  MOVLB  4
0E404:  BSF    x65.4
0E406:  MOVLB  6
....................          }  
....................                    
....................          if(LEFT)//Si oprime boton de Toma. 
0E408:  BSF    F96.1
0E40A:  BTFSC  F84.1
0E40C:  BRA    E478
....................          { 
....................             delay_ms(10); 
0E40E:  MOVLW  0A
0E410:  MOVLB  7
0E412:  MOVWF  x2D
0E414:  MOVLB  0
0E416:  CALL   30A6
....................             delay_ms(700);Menu=100;glcd_fillscreen(OFF);Opcion=1;visual=1; 
0E41A:  MOVLW  04
0E41C:  MOVLB  7
0E41E:  MOVWF  x27
0E420:  MOVLW  AF
0E422:  MOVWF  x2D
0E424:  MOVLB  0
0E426:  CALL   30A6
0E42A:  MOVLB  7
0E42C:  DECFSZ x27,F
0E42E:  BRA    E420
0E430:  MOVLW  64
0E432:  MOVLB  6
0E434:  MOVWF  xE1
0E436:  MOVLB  7
0E438:  CLRF   x28
0E43A:  MOVLB  0
0E43C:  CALL   3936
0E440:  MOVLW  01
0E442:  MOVLB  6
0E444:  MOVWF  xE7
0E446:  MOVLB  4
0E448:  BSF    x65.4
....................             write_eeprom(22,Ajusten); 
0E44A:  CLRF   FAA
0E44C:  MOVLW  16
0E44E:  MOVWF  FA9
0E450:  MOVFF  67F,FA8
0E454:  BCF    FA6.6
0E456:  BCF    FA6.7
0E458:  BSF    FA6.2
0E45A:  MOVF   FF2,W
0E45C:  MOVWF  00
0E45E:  BCF    FF2.7
0E460:  MOVLB  F
0E462:  MOVLW  55
0E464:  MOVWF  FA7
0E466:  MOVLW  AA
0E468:  MOVWF  FA7
0E46A:  BSF    FA6.1
0E46C:  BTFSC  FA6.1
0E46E:  BRA    E46C
0E470:  BCF    FA6.2
0E472:  MOVF   00,W
0E474:  IORWF  FF2,F
0E476:  MOVLB  6
....................          } 
....................      } 
.................... //_-------------------------------------------------------------------------------------------------------------------------------------------------------- 
....................  
.................... //_--------------------------------------------------------------------------------------------------------------------------------------------------------       
....................       if(Menu==107){ // Menu de Ajuste de Media Movil 
0E478:  MOVF   xE1,W
0E47A:  SUBLW  6B
0E47C:  BTFSS  FD8.2
0E47E:  BRA    E68E
....................        
....................       if(MediaMovil>80) 
0E480:  MOVF   x80,W
0E482:  SUBLW  50
0E484:  BC    E48A
....................       { 
....................          MediaMovil=10; 
0E486:  MOVLW  0A
0E488:  MOVWF  x80
....................       } 
....................        
....................       if(visual==1) 
0E48A:  MOVLB  4
0E48C:  BTFSS  x65.4
0E48E:  BRA    E4F8
....................       { 
....................          glcd_fillScreen(OFF); 
0E490:  MOVLB  7
0E492:  CLRF   x28
0E494:  MOVLB  0
0E496:  CALL   3936
....................          strcpy(Menus.Letra,"Media"); 
0E49A:  MOVLW  07
0E49C:  MOVWF  FEA
0E49E:  MOVLW  12
0E4A0:  MOVWF  FE9
0E4A2:  MOVFF  FF2,727
0E4A6:  BCF    FF2.7
0E4A8:  MOVLW  00
0E4AA:  CALL   2D12
0E4AE:  TBLRD*-
0E4B0:  TBLRD*+
0E4B2:  MOVF   FF5,W
0E4B4:  MOVWF  FEE
0E4B6:  IORLW  00
0E4B8:  BNZ   E4B0
0E4BA:  MOVLB  7
0E4BC:  BTFSC  x27.7
0E4BE:  BSF    FF2.7
....................          displayMenu(Menus.Letra,0,0,1,2); 
0E4C0:  MOVLW  07
0E4C2:  MOVWF  x28
0E4C4:  MOVLW  12
0E4C6:  MOVWF  x27
0E4C8:  CLRF   x29
0E4CA:  CLRF   x2A
0E4CC:  MOVLW  01
0E4CE:  MOVWF  x2B
0E4D0:  MOVLW  02
0E4D2:  MOVWF  x2C
0E4D4:  MOVLB  0
0E4D6:  CALL   3F64
....................           
....................          displayTemperatura(MediaMovil,30,30,0,3); 
0E4DA:  MOVLB  7
0E4DC:  CLRF   x2A
0E4DE:  MOVFF  680,729
0E4E2:  MOVLW  1E
0E4E4:  MOVWF  x2B
0E4E6:  MOVWF  x2C
0E4E8:  CLRF   x2D
0E4EA:  MOVLW  03
0E4EC:  MOVWF  x2E
0E4EE:  MOVLB  0
0E4F0:  CALL   65A0
....................           
....................          visual=0; 
0E4F4:  MOVLB  4
0E4F6:  BCF    x65.4
....................       } 
....................        
....................          if(UP)//Si oprime hacia arriba 
0E4F8:  BSF    F92.4
0E4FA:  BTFSC  F80.4
0E4FC:  BRA    E584
....................          {   
....................             delay_ms(10); 
0E4FE:  MOVLW  0A
0E500:  MOVLB  7
0E502:  MOVWF  x2D
0E504:  MOVLB  0
0E506:  CALL   30A6
....................             if(MediaMovil>79) 
0E50A:  MOVLB  6
0E50C:  MOVF   x80,W
0E50E:  SUBLW  4F
0E510:  BC    E52A
....................             { 
....................                MediaMovil=79;delay_ms(100);visual=1; 
0E512:  MOVLW  4F
0E514:  MOVWF  x80
0E516:  MOVLW  64
0E518:  MOVLB  7
0E51A:  MOVWF  x2D
0E51C:  MOVLB  0
0E51E:  CALL   30A6
0E522:  MOVLB  4
0E524:  BSF    x65.4
....................             } 
....................             else 
0E526:  BRA    E584
0E528:  MOVLB  6
....................             { 
....................                delay_ms(30);MediaMovil+=1.0;visual=1; 
0E52A:  MOVLW  1E
0E52C:  MOVLB  7
0E52E:  MOVWF  x2D
0E530:  MOVLB  0
0E532:  CALL   30A6
0E536:  MOVLB  7
0E538:  CLRF   x2E
0E53A:  MOVFF  680,72D
0E53E:  MOVLB  0
0E540:  CALL   30CE
0E544:  BCF    FD8.1
0E546:  MOVFF  03,72F
0E54A:  MOVFF  02,72E
0E54E:  MOVFF  01,72D
0E552:  MOVFF  00,72C
0E556:  MOVLB  7
0E558:  CLRF   x33
0E55A:  CLRF   x32
0E55C:  CLRF   x31
0E55E:  MOVLW  7F
0E560:  MOVWF  x30
0E562:  MOVLB  0
0E564:  CALL   3262
0E568:  MOVFF  03,72A
0E56C:  MOVFF  02,729
0E570:  MOVFF  01,728
0E574:  MOVFF  00,727
0E578:  CALL   3576
0E57C:  MOVFF  01,680
0E580:  MOVLB  4
0E582:  BSF    x65.4
....................             } 
....................          } 
....................                 
....................          if(DOWN)//Si oprime hacia abajo 
0E584:  BSF    F92.5
0E586:  BTFSC  F80.5
0E588:  BRA    E5F8
....................          {   
....................             delay_ms(10); 
0E58A:  MOVLW  0A
0E58C:  MOVLB  7
0E58E:  MOVWF  x2D
0E590:  MOVLB  0
0E592:  CALL   30A6
....................             if(MediaMovil>1) 
0E596:  MOVLB  6
0E598:  MOVF   x80,W
0E59A:  SUBLW  01
0E59C:  BC    E5FA
....................             { 
....................                delay_ms(30);MediaMovil-=1.0;visual=1;      
0E59E:  MOVLW  1E
0E5A0:  MOVLB  7
0E5A2:  MOVWF  x2D
0E5A4:  MOVLB  0
0E5A6:  CALL   30A6
0E5AA:  MOVLB  7
0E5AC:  CLRF   x2E
0E5AE:  MOVFF  680,72D
0E5B2:  MOVLB  0
0E5B4:  CALL   30CE
0E5B8:  BSF    FD8.1
0E5BA:  MOVFF  03,72F
0E5BE:  MOVFF  02,72E
0E5C2:  MOVFF  01,72D
0E5C6:  MOVFF  00,72C
0E5CA:  MOVLB  7
0E5CC:  CLRF   x33
0E5CE:  CLRF   x32
0E5D0:  CLRF   x31
0E5D2:  MOVLW  7F
0E5D4:  MOVWF  x30
0E5D6:  MOVLB  0
0E5D8:  CALL   3262
0E5DC:  MOVFF  03,72A
0E5E0:  MOVFF  02,729
0E5E4:  MOVFF  01,728
0E5E8:  MOVFF  00,727
0E5EC:  CALL   3576
0E5F0:  MOVFF  01,680
0E5F4:  MOVLB  4
0E5F6:  BSF    x65.4
0E5F8:  MOVLB  6
....................             } 
....................          } 
....................                 
....................          if(RIGHT)//Si oprime SET 
0E5FA:  BSF    F96.0
0E5FC:  BTFSC  F84.0
0E5FE:  BRA    E61E
....................          {   
....................             delay_ms(10); 
0E600:  MOVLW  0A
0E602:  MOVLB  7
0E604:  MOVWF  x2D
0E606:  MOVLB  0
0E608:  CALL   30A6
....................             delay_ms(30);visual=1; 
0E60C:  MOVLW  1E
0E60E:  MOVLB  7
0E610:  MOVWF  x2D
0E612:  MOVLB  0
0E614:  CALL   30A6
0E618:  MOVLB  4
0E61A:  BSF    x65.4
0E61C:  MOVLB  6
....................          }  
....................                    
....................          if(LEFT)//Si oprime boton de Toma. 
0E61E:  BSF    F96.1
0E620:  BTFSC  F84.1
0E622:  BRA    E68E
....................          { 
....................             delay_ms(10); 
0E624:  MOVLW  0A
0E626:  MOVLB  7
0E628:  MOVWF  x2D
0E62A:  MOVLB  0
0E62C:  CALL   30A6
....................             delay_ms(700);Menu=100;glcd_fillscreen(OFF);Opcion=1;visual=1; 
0E630:  MOVLW  04
0E632:  MOVLB  7
0E634:  MOVWF  x27
0E636:  MOVLW  AF
0E638:  MOVWF  x2D
0E63A:  MOVLB  0
0E63C:  CALL   30A6
0E640:  MOVLB  7
0E642:  DECFSZ x27,F
0E644:  BRA    E636
0E646:  MOVLW  64
0E648:  MOVLB  6
0E64A:  MOVWF  xE1
0E64C:  MOVLB  7
0E64E:  CLRF   x28
0E650:  MOVLB  0
0E652:  CALL   3936
0E656:  MOVLW  01
0E658:  MOVLB  6
0E65A:  MOVWF  xE7
0E65C:  MOVLB  4
0E65E:  BSF    x65.4
....................             write_eeprom(24,(int8)MediaMovil); 
0E660:  CLRF   FAA
0E662:  MOVLW  18
0E664:  MOVWF  FA9
0E666:  MOVFF  680,FA8
0E66A:  BCF    FA6.6
0E66C:  BCF    FA6.7
0E66E:  BSF    FA6.2
0E670:  MOVF   FF2,W
0E672:  MOVWF  00
0E674:  BCF    FF2.7
0E676:  MOVLB  F
0E678:  MOVLW  55
0E67A:  MOVWF  FA7
0E67C:  MOVLW  AA
0E67E:  MOVWF  FA7
0E680:  BSF    FA6.1
0E682:  BTFSC  FA6.1
0E684:  BRA    E682
0E686:  BCF    FA6.2
0E688:  MOVF   00,W
0E68A:  IORWF  FF2,F
0E68C:  MOVLB  6
....................          } 
....................      } 
.................... //_-------------------------------------------------------------------------------------------------------------------------------------------------------- 
....................  
.................... //_--------------------------------------------------------------------------------------------------------------------------------------------------------       
....................       if(Menu==108){ // Menu de Ganancia Instrumentacion 
0E68E:  MOVF   xE1,W
0E690:  SUBLW  6C
0E692:  BTFSS  FD8.2
0E694:  BRA    E982
....................        
....................       if(Gain>50 || Gain<30) 
0E696:  MOVLB  7
0E698:  CLRF   x2B
0E69A:  CLRF   x2A
0E69C:  MOVLW  48
0E69E:  MOVWF  x29
0E6A0:  MOVLW  84
0E6A2:  MOVWF  x28
0E6A4:  MOVFF  65F,72F
0E6A8:  MOVFF  65E,72E
0E6AC:  MOVFF  65D,72D
0E6B0:  MOVFF  65C,72C
0E6B4:  MOVLB  0
0E6B6:  CALL   34DA
0E6BA:  BC    E6E2
0E6BC:  MOVFF  65F,72B
0E6C0:  MOVFF  65E,72A
0E6C4:  MOVFF  65D,729
0E6C8:  MOVFF  65C,728
0E6CC:  MOVLB  7
0E6CE:  CLRF   x2F
0E6D0:  CLRF   x2E
0E6D2:  MOVLW  70
0E6D4:  MOVWF  x2D
0E6D6:  MOVLW  83
0E6D8:  MOVWF  x2C
0E6DA:  MOVLB  0
0E6DC:  CALL   34DA
0E6E0:  BNC   E6F2
....................       { 
....................          Gain=40; 
0E6E2:  MOVLB  6
0E6E4:  CLRF   x5F
0E6E6:  CLRF   x5E
0E6E8:  MOVLW  20
0E6EA:  MOVWF  x5D
0E6EC:  MOVLW  84
0E6EE:  MOVWF  x5C
0E6F0:  MOVLB  0
....................       } 
....................          strcpy(Menus.Letra,"Ganancia"); 
0E6F2:  MOVLW  07
0E6F4:  MOVWF  FEA
0E6F6:  MOVLW  12
0E6F8:  MOVWF  FE9
0E6FA:  MOVFF  FF2,727
0E6FE:  BCF    FF2.7
0E700:  MOVLW  00
0E702:  CALL   2D36
0E706:  TBLRD*-
0E708:  TBLRD*+
0E70A:  MOVF   FF5,W
0E70C:  MOVWF  FEE
0E70E:  IORLW  00
0E710:  BNZ   E708
0E712:  MOVLB  7
0E714:  BTFSC  x27.7
0E716:  BSF    FF2.7
....................          displayMenu(Menus.Letra,0,0,1,2); 
0E718:  MOVLW  07
0E71A:  MOVWF  x28
0E71C:  MOVLW  12
0E71E:  MOVWF  x27
0E720:  CLRF   x29
0E722:  CLRF   x2A
0E724:  MOVLW  01
0E726:  MOVWF  x2B
0E728:  MOVLW  02
0E72A:  MOVWF  x2C
0E72C:  MOVLB  0
0E72E:  CALL   3F64
....................           
....................          displayTT(Gain,30,30,2); 
0E732:  MOVFF  65F,72A
0E736:  MOVFF  65E,729
0E73A:  MOVFF  65D,728
0E73E:  MOVFF  65C,727
0E742:  MOVLW  1E
0E744:  MOVLB  7
0E746:  MOVWF  x2B
0E748:  MOVWF  x2C
0E74A:  MOVLW  02
0E74C:  MOVWF  x2D
0E74E:  MOVLB  0
0E750:  CALL   61F2
....................  
....................        
....................          if(UP)//Si oprime hacia arriba 
0E754:  BSF    F92.4
0E756:  BTFSC  F80.4
0E758:  BRA    E7A0
....................          {   
....................             delay_ms(10); 
0E75A:  MOVLW  0A
0E75C:  MOVLB  7
0E75E:  MOVWF  x2D
0E760:  MOVLB  0
0E762:  CALL   30A6
....................             Gain+=0.1; 
0E766:  BCF    FD8.1
0E768:  MOVFF  65F,72F
0E76C:  MOVFF  65E,72E
0E770:  MOVFF  65D,72D
0E774:  MOVFF  65C,72C
0E778:  MOVLW  CD
0E77A:  MOVLB  7
0E77C:  MOVWF  x33
0E77E:  MOVLW  CC
0E780:  MOVWF  x32
0E782:  MOVLW  4C
0E784:  MOVWF  x31
0E786:  MOVLW  7B
0E788:  MOVWF  x30
0E78A:  MOVLB  0
0E78C:  CALL   3262
0E790:  MOVFF  03,65F
0E794:  MOVFF  02,65E
0E798:  MOVFF  01,65D
0E79C:  MOVFF  00,65C
....................          } 
....................                 
....................          if(DOWN)//Si oprime hacia abajo 
0E7A0:  BSF    F92.5
0E7A2:  BTFSC  F80.5
0E7A4:  BRA    E7EC
....................          {   
....................             delay_ms(10); 
0E7A6:  MOVLW  0A
0E7A8:  MOVLB  7
0E7AA:  MOVWF  x2D
0E7AC:  MOVLB  0
0E7AE:  CALL   30A6
....................             Gain-=0.1; 
0E7B2:  BSF    FD8.1
0E7B4:  MOVFF  65F,72F
0E7B8:  MOVFF  65E,72E
0E7BC:  MOVFF  65D,72D
0E7C0:  MOVFF  65C,72C
0E7C4:  MOVLW  CD
0E7C6:  MOVLB  7
0E7C8:  MOVWF  x33
0E7CA:  MOVLW  CC
0E7CC:  MOVWF  x32
0E7CE:  MOVLW  4C
0E7D0:  MOVWF  x31
0E7D2:  MOVLW  7B
0E7D4:  MOVWF  x30
0E7D6:  MOVLB  0
0E7D8:  CALL   3262
0E7DC:  MOVFF  03,65F
0E7E0:  MOVFF  02,65E
0E7E4:  MOVFF  01,65D
0E7E8:  MOVFF  00,65C
....................          } 
....................                 
....................          if(RIGHT)//Si oprime SET 
0E7EC:  BSF    F96.0
0E7EE:  BTFSC  F84.0
0E7F0:  BRA    E810
....................          {   
....................             delay_ms(10); 
0E7F2:  MOVLW  0A
0E7F4:  MOVLB  7
0E7F6:  MOVWF  x2D
0E7F8:  MOVLB  0
0E7FA:  CALL   30A6
....................             delay_ms(30);visual=1; 
0E7FE:  MOVLW  1E
0E800:  MOVLB  7
0E802:  MOVWF  x2D
0E804:  MOVLB  0
0E806:  CALL   30A6
0E80A:  MOVLB  4
0E80C:  BSF    x65.4
0E80E:  MOVLB  0
....................          }  
....................                    
....................          if(LEFT)//Si oprime boton de Toma. 
0E810:  BSF    F96.1
0E812:  BTFSC  F84.1
0E814:  BRA    E980
....................          { 
....................             delay_ms(10); 
0E816:  MOVLW  0A
0E818:  MOVLB  7
0E81A:  MOVWF  x2D
0E81C:  MOVLB  0
0E81E:  CALL   30A6
....................             delay_ms(700);Menu=100;glcd_fillscreen(OFF);Opcion=1;visual=1; 
0E822:  MOVLW  04
0E824:  MOVLB  7
0E826:  MOVWF  x27
0E828:  MOVLW  AF
0E82A:  MOVWF  x2D
0E82C:  MOVLB  0
0E82E:  CALL   30A6
0E832:  MOVLB  7
0E834:  DECFSZ x27,F
0E836:  BRA    E828
0E838:  MOVLW  64
0E83A:  MOVLB  6
0E83C:  MOVWF  xE1
0E83E:  MOVLB  7
0E840:  CLRF   x28
0E842:  MOVLB  0
0E844:  CALL   3936
0E848:  MOVLW  01
0E84A:  MOVLB  6
0E84C:  MOVWF  xE7
0E84E:  MOVLB  4
0E850:  BSF    x65.4
....................             write_eeprom(28,(int8)Gain); 
0E852:  MOVFF  65F,72A
0E856:  MOVFF  65E,729
0E85A:  MOVFF  65D,728
0E85E:  MOVFF  65C,727
0E862:  MOVLB  0
0E864:  CALL   3576
0E868:  MOVFF  01,727
0E86C:  CLRF   FAA
0E86E:  MOVLW  1C
0E870:  MOVWF  FA9
0E872:  MOVFF  727,FA8
0E876:  BCF    FA6.6
0E878:  BCF    FA6.7
0E87A:  BSF    FA6.2
0E87C:  MOVF   FF2,W
0E87E:  MOVWF  00
0E880:  BCF    FF2.7
0E882:  MOVLB  F
0E884:  MOVLW  55
0E886:  MOVWF  FA7
0E888:  MOVLW  AA
0E88A:  MOVWF  FA7
0E88C:  BSF    FA6.1
0E88E:  BTFSC  FA6.1
0E890:  BRA    E88E
0E892:  BCF    FA6.2
0E894:  MOVF   00,W
0E896:  IORWF  FF2,F
....................             delay_ms(10); 
0E898:  MOVLW  0A
0E89A:  MOVLB  7
0E89C:  MOVWF  x2D
0E89E:  MOVLB  0
0E8A0:  CALL   30A6
....................             Temporal=Gain-((int8)Gain); 
0E8A4:  MOVFF  65F,72A
0E8A8:  MOVFF  65E,729
0E8AC:  MOVFF  65D,728
0E8B0:  MOVFF  65C,727
0E8B4:  CALL   3576
0E8B8:  MOVLB  7
0E8BA:  CLRF   x2E
0E8BC:  MOVFF  01,72D
0E8C0:  MOVLB  0
0E8C2:  CALL   30CE
0E8C6:  BSF    FD8.1
0E8C8:  MOVFF  65F,72F
0E8CC:  MOVFF  65E,72E
0E8D0:  MOVFF  65D,72D
0E8D4:  MOVFF  65C,72C
0E8D8:  MOVFF  03,733
0E8DC:  MOVFF  02,732
0E8E0:  MOVFF  01,731
0E8E4:  MOVFF  00,730
0E8E8:  CALL   3262
0E8EC:  MOVFF  03,667
0E8F0:  MOVFF  02,666
0E8F4:  MOVFF  01,665
0E8F8:  MOVFF  00,664
....................             Temporal=Temporal*10; 
0E8FC:  MOVFF  667,74B
0E900:  MOVFF  666,74A
0E904:  MOVFF  665,749
0E908:  MOVFF  664,748
0E90C:  MOVLB  7
0E90E:  CLRF   x4F
0E910:  CLRF   x4E
0E912:  MOVLW  20
0E914:  MOVWF  x4D
0E916:  MOVLW  82
0E918:  MOVWF  x4C
0E91A:  MOVLB  0
0E91C:  CALL   35B2
0E920:  MOVFF  03,667
0E924:  MOVFF  02,666
0E928:  MOVFF  01,665
0E92C:  MOVFF  00,664
....................             write_eeprom(29,(int8)Temporal); 
0E930:  MOVFF  667,72A
0E934:  MOVFF  666,729
0E938:  MOVFF  665,728
0E93C:  MOVFF  664,727
0E940:  CALL   3576
0E944:  MOVFF  01,727
0E948:  CLRF   FAA
0E94A:  MOVLW  1D
0E94C:  MOVWF  FA9
0E94E:  MOVFF  727,FA8
0E952:  BCF    FA6.6
0E954:  BCF    FA6.7
0E956:  BSF    FA6.2
0E958:  MOVF   FF2,W
0E95A:  MOVWF  00
0E95C:  BCF    FF2.7
0E95E:  MOVLB  F
0E960:  MOVLW  55
0E962:  MOVWF  FA7
0E964:  MOVLW  AA
0E966:  MOVWF  FA7
0E968:  BSF    FA6.1
0E96A:  BTFSC  FA6.1
0E96C:  BRA    E96A
0E96E:  BCF    FA6.2
0E970:  MOVF   00,W
0E972:  IORWF  FF2,F
....................             delay_ms(10); 
0E974:  MOVLW  0A
0E976:  MOVLB  7
0E978:  MOVWF  x2D
0E97A:  MOVLB  0
0E97C:  CALL   30A6
0E980:  MOVLB  6
....................          } 
....................      } 
.................... //_-------------------------------------------------------------------------------------------------------------------------------------------------------- 
....................  
.................... //_--------------------------------------------------------------------------------------------------------------------------------------------------------       
....................       if(Menu==109){ // Menu de Ajuste R1 
0E982:  MOVF   xE1,W
0E984:  SUBLW  6D
0E986:  BTFSS  FD8.2
0E988:  BRA    EC1C
....................        
....................       if(R1>6400 || R1<6000) 
0E98A:  MOVLB  7
0E98C:  CLRF   x2B
0E98E:  CLRF   x2A
0E990:  MOVLW  48
0E992:  MOVWF  x29
0E994:  MOVLW  8B
0E996:  MOVWF  x28
0E998:  MOVFF  688,72F
0E99C:  MOVFF  687,72E
0E9A0:  MOVFF  686,72D
0E9A4:  MOVFF  685,72C
0E9A8:  MOVLB  0
0E9AA:  CALL   34DA
0E9AE:  BC    E9D8
0E9B0:  MOVFF  688,72B
0E9B4:  MOVFF  687,72A
0E9B8:  MOVFF  686,729
0E9BC:  MOVFF  685,728
0E9C0:  MOVLB  7
0E9C2:  CLRF   x2F
0E9C4:  MOVLW  80
0E9C6:  MOVWF  x2E
0E9C8:  MOVLW  3B
0E9CA:  MOVWF  x2D
0E9CC:  MOVLW  8B
0E9CE:  MOVWF  x2C
0E9D0:  MOVLB  0
0E9D2:  CALL   34DA
0E9D6:  BNC   E9EA
....................       { 
....................          R1=6200; 
0E9D8:  MOVLB  6
0E9DA:  CLRF   x88
0E9DC:  MOVLW  C0
0E9DE:  MOVWF  x87
0E9E0:  MOVLW  41
0E9E2:  MOVWF  x86
0E9E4:  MOVLW  8B
0E9E6:  MOVWF  x85
0E9E8:  MOVLB  0
....................       } 
....................  
....................          strcpy(Menus.Letra,"R51"); 
0E9EA:  MOVLW  07
0E9EC:  MOVWF  FEA
0E9EE:  MOVLW  12
0E9F0:  MOVWF  FE9
0E9F2:  MOVFF  FF2,727
0E9F6:  BCF    FF2.7
0E9F8:  MOVLW  00
0E9FA:  CALL   2D5E
0E9FE:  TBLRD*-
0EA00:  TBLRD*+
0EA02:  MOVF   FF5,W
0EA04:  MOVWF  FEE
0EA06:  IORLW  00
0EA08:  BNZ   EA00
0EA0A:  MOVLB  7
0EA0C:  BTFSC  x27.7
0EA0E:  BSF    FF2.7
....................          displayMenu(Menus.Letra,0,0,1,2); 
0EA10:  MOVLW  07
0EA12:  MOVWF  x28
0EA14:  MOVLW  12
0EA16:  MOVWF  x27
0EA18:  CLRF   x29
0EA1A:  CLRF   x2A
0EA1C:  MOVLW  01
0EA1E:  MOVWF  x2B
0EA20:  MOVLW  02
0EA22:  MOVWF  x2C
0EA24:  MOVLB  0
0EA26:  CALL   3F64
....................           
....................          displayTemperatura(R1,30,30,0,3); 
0EA2A:  MOVFF  688,72A
0EA2E:  MOVFF  687,729
0EA32:  MOVFF  686,728
0EA36:  MOVFF  685,727
0EA3A:  CALL   3576
0EA3E:  MOVFF  02,728
0EA42:  MOVFF  01,727
0EA46:  MOVFF  02,72A
0EA4A:  MOVFF  01,729
0EA4E:  MOVLW  1E
0EA50:  MOVLB  7
0EA52:  MOVWF  x2B
0EA54:  MOVWF  x2C
0EA56:  CLRF   x2D
0EA58:  MOVLW  03
0EA5A:  MOVWF  x2E
0EA5C:  MOVLB  0
0EA5E:  CALL   65A0
....................  
....................          if(UP)//Si oprime hacia arriba 
0EA62:  BSF    F92.4
0EA64:  BTFSC  F80.4
0EA66:  BRA    EAB2
....................          {   
....................             delay_ms(10); 
0EA68:  MOVLW  0A
0EA6A:  MOVLB  7
0EA6C:  MOVWF  x2D
0EA6E:  MOVLB  0
0EA70:  CALL   30A6
....................             R1+=1.0; 
0EA74:  BCF    FD8.1
0EA76:  MOVFF  688,72F
0EA7A:  MOVFF  687,72E
0EA7E:  MOVFF  686,72D
0EA82:  MOVFF  685,72C
0EA86:  MOVLB  7
0EA88:  CLRF   x33
0EA8A:  CLRF   x32
0EA8C:  CLRF   x31
0EA8E:  MOVLW  7F
0EA90:  MOVWF  x30
0EA92:  MOVLB  0
0EA94:  CALL   3262
0EA98:  MOVFF  03,688
0EA9C:  MOVFF  02,687
0EAA0:  MOVFF  01,686
0EAA4:  MOVFF  00,685
....................             glcd_fillscreen(OFF); 
0EAA8:  MOVLB  7
0EAAA:  CLRF   x28
0EAAC:  MOVLB  0
0EAAE:  CALL   3936
....................          } 
....................                 
....................          if(DOWN)//Si oprime hacia abajo 
0EAB2:  BSF    F92.5
0EAB4:  BTFSC  F80.5
0EAB6:  BRA    EB02
....................          {   
....................             delay_ms(10); 
0EAB8:  MOVLW  0A
0EABA:  MOVLB  7
0EABC:  MOVWF  x2D
0EABE:  MOVLB  0
0EAC0:  CALL   30A6
....................             R1-=1.0; 
0EAC4:  BSF    FD8.1
0EAC6:  MOVFF  688,72F
0EACA:  MOVFF  687,72E
0EACE:  MOVFF  686,72D
0EAD2:  MOVFF  685,72C
0EAD6:  MOVLB  7
0EAD8:  CLRF   x33
0EADA:  CLRF   x32
0EADC:  CLRF   x31
0EADE:  MOVLW  7F
0EAE0:  MOVWF  x30
0EAE2:  MOVLB  0
0EAE4:  CALL   3262
0EAE8:  MOVFF  03,688
0EAEC:  MOVFF  02,687
0EAF0:  MOVFF  01,686
0EAF4:  MOVFF  00,685
....................             glcd_fillscreen(OFF); 
0EAF8:  MOVLB  7
0EAFA:  CLRF   x28
0EAFC:  MOVLB  0
0EAFE:  CALL   3936
....................          } 
....................                 
....................          if(RIGHT)//Si oprime SET 
0EB02:  BSF    F96.0
0EB04:  BTFSC  F84.0
0EB06:  BRA    EB26
....................          {   
....................             delay_ms(10); 
0EB08:  MOVLW  0A
0EB0A:  MOVLB  7
0EB0C:  MOVWF  x2D
0EB0E:  MOVLB  0
0EB10:  CALL   30A6
....................             delay_ms(30);visual=1; 
0EB14:  MOVLW  1E
0EB16:  MOVLB  7
0EB18:  MOVWF  x2D
0EB1A:  MOVLB  0
0EB1C:  CALL   30A6
0EB20:  MOVLB  4
0EB22:  BSF    x65.4
0EB24:  MOVLB  0
....................          }  
....................                    
....................          if(LEFT)//Si oprime boton de Toma. 
0EB26:  BSF    F96.1
0EB28:  BTFSC  F84.1
0EB2A:  BRA    EC1A
....................          { 
....................             delay_ms(10); 
0EB2C:  MOVLW  0A
0EB2E:  MOVLB  7
0EB30:  MOVWF  x2D
0EB32:  MOVLB  0
0EB34:  CALL   30A6
....................             delay_ms(700);Menu=100;glcd_fillscreen(OFF);Opcion=1;visual=1; 
0EB38:  MOVLW  04
0EB3A:  MOVLB  7
0EB3C:  MOVWF  x27
0EB3E:  MOVLW  AF
0EB40:  MOVWF  x2D
0EB42:  MOVLB  0
0EB44:  CALL   30A6
0EB48:  MOVLB  7
0EB4A:  DECFSZ x27,F
0EB4C:  BRA    EB3E
0EB4E:  MOVLW  64
0EB50:  MOVLB  6
0EB52:  MOVWF  xE1
0EB54:  MOVLB  7
0EB56:  CLRF   x28
0EB58:  MOVLB  0
0EB5A:  CALL   3936
0EB5E:  MOVLW  01
0EB60:  MOVLB  6
0EB62:  MOVWF  xE7
0EB64:  MOVLB  4
0EB66:  BSF    x65.4
....................             write_eeprom(30,make8((int16)R1,0)); 
0EB68:  MOVFF  688,72A
0EB6C:  MOVFF  687,729
0EB70:  MOVFF  686,728
0EB74:  MOVFF  685,727
0EB78:  MOVLB  0
0EB7A:  CALL   3576
0EB7E:  MOVFF  02,728
0EB82:  MOVFF  01,727
0EB86:  MOVFF  727,729
0EB8A:  CLRF   FAA
0EB8C:  MOVLW  1E
0EB8E:  MOVWF  FA9
0EB90:  MOVFF  729,FA8
0EB94:  BCF    FA6.6
0EB96:  BCF    FA6.7
0EB98:  BSF    FA6.2
0EB9A:  MOVF   FF2,W
0EB9C:  MOVWF  00
0EB9E:  BCF    FF2.7
0EBA0:  MOVLB  F
0EBA2:  MOVLW  55
0EBA4:  MOVWF  FA7
0EBA6:  MOVLW  AA
0EBA8:  MOVWF  FA7
0EBAA:  BSF    FA6.1
0EBAC:  BTFSC  FA6.1
0EBAE:  BRA    EBAC
0EBB0:  BCF    FA6.2
0EBB2:  MOVF   00,W
0EBB4:  IORWF  FF2,F
....................             delay_ms(10); 
0EBB6:  MOVLW  0A
0EBB8:  MOVLB  7
0EBBA:  MOVWF  x2D
0EBBC:  MOVLB  0
0EBBE:  CALL   30A6
....................             write_eeprom(31,make8((int16)R1,1)); 
0EBC2:  MOVFF  688,72A
0EBC6:  MOVFF  687,729
0EBCA:  MOVFF  686,728
0EBCE:  MOVFF  685,727
0EBD2:  CALL   3576
0EBD6:  MOVFF  02,728
0EBDA:  MOVFF  01,727
0EBDE:  MOVFF  728,729
0EBE2:  CLRF   FAA
0EBE4:  MOVLW  1F
0EBE6:  MOVWF  FA9
0EBE8:  MOVFF  729,FA8
0EBEC:  BCF    FA6.6
0EBEE:  BCF    FA6.7
0EBF0:  BSF    FA6.2
0EBF2:  MOVF   FF2,W
0EBF4:  MOVWF  00
0EBF6:  BCF    FF2.7
0EBF8:  MOVLB  F
0EBFA:  MOVLW  55
0EBFC:  MOVWF  FA7
0EBFE:  MOVLW  AA
0EC00:  MOVWF  FA7
0EC02:  BSF    FA6.1
0EC04:  BTFSC  FA6.1
0EC06:  BRA    EC04
0EC08:  BCF    FA6.2
0EC0A:  MOVF   00,W
0EC0C:  IORWF  FF2,F
....................             delay_ms(10); 
0EC0E:  MOVLW  0A
0EC10:  MOVLB  7
0EC12:  MOVWF  x2D
0EC14:  MOVLB  0
0EC16:  CALL   30A6
0EC1A:  MOVLB  6
....................          } 
....................      } 
.................... //_-------------------------------------------------------------------------------------------------------------------------------------------------------- 
....................  
.................... //_--------------------------------------------------------------------------------------------------------------------------------------------------------       
....................       if(Menu==110){ // Menu de Ajuste RPT100 
0EC1C:  MOVF   xE1,W
0EC1E:  SUBLW  6E
0EC20:  BTFSS  FD8.2
0EC22:  BRA    EEE6
....................        
....................       if(RPT100>2.0) 
0EC24:  MOVLB  7
0EC26:  CLRF   x2B
0EC28:  CLRF   x2A
0EC2A:  CLRF   x29
0EC2C:  MOVLW  80
0EC2E:  MOVWF  x28
0EC30:  MOVFF  663,72F
0EC34:  MOVFF  662,72E
0EC38:  MOVFF  661,72D
0EC3C:  MOVFF  660,72C
0EC40:  MOVLB  0
0EC42:  CALL   34DA
0EC46:  BNC   EC56
....................       { 
....................          RPT100=0.5; 
0EC48:  MOVLB  6
0EC4A:  CLRF   x63
0EC4C:  CLRF   x62
0EC4E:  CLRF   x61
0EC50:  MOVLW  7E
0EC52:  MOVWF  x60
0EC54:  MOVLB  0
....................       } 
....................     
....................          strcpy(Menus.Letra,"RPT100"); 
0EC56:  MOVLW  07
0EC58:  MOVWF  FEA
0EC5A:  MOVLW  12
0EC5C:  MOVWF  FE9
0EC5E:  MOVFF  FF2,727
0EC62:  BCF    FF2.7
0EC64:  MOVLW  00
0EC66:  CALL   2D80
0EC6A:  TBLRD*-
0EC6C:  TBLRD*+
0EC6E:  MOVF   FF5,W
0EC70:  MOVWF  FEE
0EC72:  IORLW  00
0EC74:  BNZ   EC6C
0EC76:  MOVLB  7
0EC78:  BTFSC  x27.7
0EC7A:  BSF    FF2.7
....................          displayMenu(Menus.Letra,0,0,1,2); 
0EC7C:  MOVLW  07
0EC7E:  MOVWF  x28
0EC80:  MOVLW  12
0EC82:  MOVWF  x27
0EC84:  CLRF   x29
0EC86:  CLRF   x2A
0EC88:  MOVLW  01
0EC8A:  MOVWF  x2B
0EC8C:  MOVLW  02
0EC8E:  MOVWF  x2C
0EC90:  MOVLB  0
0EC92:  CALL   3F64
....................           
....................          displayTT(RPT100,30,30,2); 
0EC96:  MOVFF  663,72A
0EC9A:  MOVFF  662,729
0EC9E:  MOVFF  661,728
0ECA2:  MOVFF  660,727
0ECA6:  MOVLW  1E
0ECA8:  MOVLB  7
0ECAA:  MOVWF  x2B
0ECAC:  MOVWF  x2C
0ECAE:  MOVLW  02
0ECB0:  MOVWF  x2D
0ECB2:  MOVLB  0
0ECB4:  CALL   61F2
....................  
....................          if(UP)//Si oprime hacia arriba 
0ECB8:  BSF    F92.4
0ECBA:  BTFSC  F80.4
0ECBC:  BRA    ED04
....................          {   
....................             delay_ms(10); 
0ECBE:  MOVLW  0A
0ECC0:  MOVLB  7
0ECC2:  MOVWF  x2D
0ECC4:  MOVLB  0
0ECC6:  CALL   30A6
....................             RPT100+=0.1; 
0ECCA:  BCF    FD8.1
0ECCC:  MOVFF  663,72F
0ECD0:  MOVFF  662,72E
0ECD4:  MOVFF  661,72D
0ECD8:  MOVFF  660,72C
0ECDC:  MOVLW  CD
0ECDE:  MOVLB  7
0ECE0:  MOVWF  x33
0ECE2:  MOVLW  CC
0ECE4:  MOVWF  x32
0ECE6:  MOVLW  4C
0ECE8:  MOVWF  x31
0ECEA:  MOVLW  7B
0ECEC:  MOVWF  x30
0ECEE:  MOVLB  0
0ECF0:  CALL   3262
0ECF4:  MOVFF  03,663
0ECF8:  MOVFF  02,662
0ECFC:  MOVFF  01,661
0ED00:  MOVFF  00,660
....................          } 
....................                 
....................          if(DOWN)//Si oprime hacia abajo 
0ED04:  BSF    F92.5
0ED06:  BTFSC  F80.5
0ED08:  BRA    ED50
....................          {   
....................             delay_ms(10); 
0ED0A:  MOVLW  0A
0ED0C:  MOVLB  7
0ED0E:  MOVWF  x2D
0ED10:  MOVLB  0
0ED12:  CALL   30A6
....................             RPT100-=0.1; 
0ED16:  BSF    FD8.1
0ED18:  MOVFF  663,72F
0ED1C:  MOVFF  662,72E
0ED20:  MOVFF  661,72D
0ED24:  MOVFF  660,72C
0ED28:  MOVLW  CD
0ED2A:  MOVLB  7
0ED2C:  MOVWF  x33
0ED2E:  MOVLW  CC
0ED30:  MOVWF  x32
0ED32:  MOVLW  4C
0ED34:  MOVWF  x31
0ED36:  MOVLW  7B
0ED38:  MOVWF  x30
0ED3A:  MOVLB  0
0ED3C:  CALL   3262
0ED40:  MOVFF  03,663
0ED44:  MOVFF  02,662
0ED48:  MOVFF  01,661
0ED4C:  MOVFF  00,660
....................          } 
....................                 
....................          if(RIGHT)//Si oprime SET 
0ED50:  BSF    F96.0
0ED52:  BTFSC  F84.0
0ED54:  BRA    ED74
....................          {   
....................             delay_ms(10); 
0ED56:  MOVLW  0A
0ED58:  MOVLB  7
0ED5A:  MOVWF  x2D
0ED5C:  MOVLB  0
0ED5E:  CALL   30A6
....................             delay_ms(30);visual=1; 
0ED62:  MOVLW  1E
0ED64:  MOVLB  7
0ED66:  MOVWF  x2D
0ED68:  MOVLB  0
0ED6A:  CALL   30A6
0ED6E:  MOVLB  4
0ED70:  BSF    x65.4
0ED72:  MOVLB  0
....................          }  
....................                    
....................          if(LEFT)//Si oprime boton de Toma. 
0ED74:  BSF    F96.1
0ED76:  BTFSC  F84.1
0ED78:  BRA    EEE4
....................          { 
....................             delay_ms(10); 
0ED7A:  MOVLW  0A
0ED7C:  MOVLB  7
0ED7E:  MOVWF  x2D
0ED80:  MOVLB  0
0ED82:  CALL   30A6
....................             delay_ms(700);Menu=100;glcd_fillscreen(OFF);Opcion=1;visual=1; 
0ED86:  MOVLW  04
0ED88:  MOVLB  7
0ED8A:  MOVWF  x27
0ED8C:  MOVLW  AF
0ED8E:  MOVWF  x2D
0ED90:  MOVLB  0
0ED92:  CALL   30A6
0ED96:  MOVLB  7
0ED98:  DECFSZ x27,F
0ED9A:  BRA    ED8C
0ED9C:  MOVLW  64
0ED9E:  MOVLB  6
0EDA0:  MOVWF  xE1
0EDA2:  MOVLB  7
0EDA4:  CLRF   x28
0EDA6:  MOVLB  0
0EDA8:  CALL   3936
0EDAC:  MOVLW  01
0EDAE:  MOVLB  6
0EDB0:  MOVWF  xE7
0EDB2:  MOVLB  4
0EDB4:  BSF    x65.4
....................             write_eeprom(32,(int8)RPT100); 
0EDB6:  MOVFF  663,72A
0EDBA:  MOVFF  662,729
0EDBE:  MOVFF  661,728
0EDC2:  MOVFF  660,727
0EDC6:  MOVLB  0
0EDC8:  CALL   3576
0EDCC:  MOVFF  01,727
0EDD0:  CLRF   FAA
0EDD2:  MOVLW  20
0EDD4:  MOVWF  FA9
0EDD6:  MOVFF  727,FA8
0EDDA:  BCF    FA6.6
0EDDC:  BCF    FA6.7
0EDDE:  BSF    FA6.2
0EDE0:  MOVF   FF2,W
0EDE2:  MOVWF  00
0EDE4:  BCF    FF2.7
0EDE6:  MOVLB  F
0EDE8:  MOVLW  55
0EDEA:  MOVWF  FA7
0EDEC:  MOVLW  AA
0EDEE:  MOVWF  FA7
0EDF0:  BSF    FA6.1
0EDF2:  BTFSC  FA6.1
0EDF4:  BRA    EDF2
0EDF6:  BCF    FA6.2
0EDF8:  MOVF   00,W
0EDFA:  IORWF  FF2,F
....................             delay_ms(10); 
0EDFC:  MOVLW  0A
0EDFE:  MOVLB  7
0EE00:  MOVWF  x2D
0EE02:  MOVLB  0
0EE04:  CALL   30A6
....................             Temporal=RPT100-((int8)RPT100); 
0EE08:  MOVFF  663,72A
0EE0C:  MOVFF  662,729
0EE10:  MOVFF  661,728
0EE14:  MOVFF  660,727
0EE18:  CALL   3576
0EE1C:  MOVLB  7
0EE1E:  CLRF   x2E
0EE20:  MOVFF  01,72D
0EE24:  MOVLB  0
0EE26:  CALL   30CE
0EE2A:  BSF    FD8.1
0EE2C:  MOVFF  663,72F
0EE30:  MOVFF  662,72E
0EE34:  MOVFF  661,72D
0EE38:  MOVFF  660,72C
0EE3C:  MOVFF  03,733
0EE40:  MOVFF  02,732
0EE44:  MOVFF  01,731
0EE48:  MOVFF  00,730
0EE4C:  CALL   3262
0EE50:  MOVFF  03,667
0EE54:  MOVFF  02,666
0EE58:  MOVFF  01,665
0EE5C:  MOVFF  00,664
....................             Temporal=Temporal*10; 
0EE60:  MOVFF  667,74B
0EE64:  MOVFF  666,74A
0EE68:  MOVFF  665,749
0EE6C:  MOVFF  664,748
0EE70:  MOVLB  7
0EE72:  CLRF   x4F
0EE74:  CLRF   x4E
0EE76:  MOVLW  20
0EE78:  MOVWF  x4D
0EE7A:  MOVLW  82
0EE7C:  MOVWF  x4C
0EE7E:  MOVLB  0
0EE80:  CALL   35B2
0EE84:  MOVFF  03,667
0EE88:  MOVFF  02,666
0EE8C:  MOVFF  01,665
0EE90:  MOVFF  00,664
....................             write_eeprom(33,(int8)Temporal); 
0EE94:  MOVFF  667,72A
0EE98:  MOVFF  666,729
0EE9C:  MOVFF  665,728
0EEA0:  MOVFF  664,727
0EEA4:  CALL   3576
0EEA8:  MOVFF  01,727
0EEAC:  CLRF   FAA
0EEAE:  MOVLW  21
0EEB0:  MOVWF  FA9
0EEB2:  MOVFF  727,FA8
0EEB6:  BCF    FA6.6
0EEB8:  BCF    FA6.7
0EEBA:  BSF    FA6.2
0EEBC:  MOVF   FF2,W
0EEBE:  MOVWF  00
0EEC0:  BCF    FF2.7
0EEC2:  MOVLB  F
0EEC4:  MOVLW  55
0EEC6:  MOVWF  FA7
0EEC8:  MOVLW  AA
0EECA:  MOVWF  FA7
0EECC:  BSF    FA6.1
0EECE:  BTFSC  FA6.1
0EED0:  BRA    EECE
0EED2:  BCF    FA6.2
0EED4:  MOVF   00,W
0EED6:  IORWF  FF2,F
....................             delay_ms(10); 
0EED8:  MOVLW  0A
0EEDA:  MOVLB  7
0EEDC:  MOVWF  x2D
0EEDE:  MOVLB  0
0EEE0:  CALL   30A6
0EEE4:  MOVLB  6
....................          } 
....................      } 
.................... //_-------------------------------------------------------------------------------------------------------------------------------------------------------- 
....................  
.................... //_--------------------------------------------------------------------------------------------------------------------------------------------------------       
....................       if(Menu==111){ // Menu de Pulsos de Vacio 
0EEE6:  MOVF   xE1,W
0EEE8:  SUBLW  6F
0EEEA:  BTFSS  FD8.2
0EEEC:  BRA    F03A
....................        
....................       if(CantidadPulsos>10) 
0EEEE:  MOVF   xDD,W
0EEF0:  SUBLW  0A
0EEF2:  BC    EEF8
....................          CantidadPulsos=1; 
0EEF4:  MOVLW  01
0EEF6:  MOVWF  xDD
....................       if(CantidadPulsos<1) 
0EEF8:  MOVF   xDD,F
0EEFA:  BNZ   EF00
....................          CantidadPulsos=10; 
0EEFC:  MOVLW  0A
0EEFE:  MOVWF  xDD
....................        
....................       if(visual==1) 
0EF00:  MOVLB  4
0EF02:  BTFSS  x65.4
0EF04:  BRA    EF6E
....................       { 
....................          glcd_fillScreen(OFF); 
0EF06:  MOVLB  7
0EF08:  CLRF   x28
0EF0A:  MOVLB  0
0EF0C:  CALL   3936
....................          strcpy(Menus.Letra,"Pulsos Vac."); 
0EF10:  MOVLW  07
0EF12:  MOVWF  FEA
0EF14:  MOVLW  12
0EF16:  MOVWF  FE9
0EF18:  MOVFF  FF2,727
0EF1C:  BCF    FF2.7
0EF1E:  MOVLW  00
0EF20:  CALL   2DA6
0EF24:  TBLRD*-
0EF26:  TBLRD*+
0EF28:  MOVF   FF5,W
0EF2A:  MOVWF  FEE
0EF2C:  IORLW  00
0EF2E:  BNZ   EF26
0EF30:  MOVLB  7
0EF32:  BTFSC  x27.7
0EF34:  BSF    FF2.7
....................          displayMenu(Menus.Letra,0,0,1,2); 
0EF36:  MOVLW  07
0EF38:  MOVWF  x28
0EF3A:  MOVLW  12
0EF3C:  MOVWF  x27
0EF3E:  CLRF   x29
0EF40:  CLRF   x2A
0EF42:  MOVLW  01
0EF44:  MOVWF  x2B
0EF46:  MOVLW  02
0EF48:  MOVWF  x2C
0EF4A:  MOVLB  0
0EF4C:  CALL   3F64
....................           
....................          displayTemperatura(CantidadPulsos,30,30,0,3); 
0EF50:  MOVLB  7
0EF52:  CLRF   x2A
0EF54:  MOVFF  6DD,729
0EF58:  MOVLW  1E
0EF5A:  MOVWF  x2B
0EF5C:  MOVWF  x2C
0EF5E:  CLRF   x2D
0EF60:  MOVLW  03
0EF62:  MOVWF  x2E
0EF64:  MOVLB  0
0EF66:  CALL   65A0
....................           
....................          visual=0; 
0EF6A:  MOVLB  4
0EF6C:  BCF    x65.4
....................       } 
....................        
....................          if(UP)//Si oprime hacia arriba 
0EF6E:  BSF    F92.4
0EF70:  BTFSC  F80.4
0EF72:  BRA    EF8A
....................          {   
....................             delay_ms(10); 
0EF74:  MOVLW  0A
0EF76:  MOVLB  7
0EF78:  MOVWF  x2D
0EF7A:  MOVLB  0
0EF7C:  CALL   30A6
....................             visual=1; 
0EF80:  MOVLB  4
0EF82:  BSF    x65.4
....................             CantidadPulsos++; 
0EF84:  MOVLB  6
0EF86:  INCF   xDD,F
0EF88:  MOVLB  4
....................          } 
....................                 
....................          if(DOWN)//Si oprime hacia abajo 
0EF8A:  BSF    F92.5
0EF8C:  BTFSC  F80.5
0EF8E:  BRA    EFA6
....................          {   
....................             delay_ms(10); 
0EF90:  MOVLW  0A
0EF92:  MOVLB  7
0EF94:  MOVWF  x2D
0EF96:  MOVLB  0
0EF98:  CALL   30A6
....................             visual=1; 
0EF9C:  MOVLB  4
0EF9E:  BSF    x65.4
....................             CantidadPulsos--; 
0EFA0:  MOVLB  6
0EFA2:  DECF   xDD,F
0EFA4:  MOVLB  4
....................          } 
....................                 
....................          if(RIGHT)//Si oprime SET 
0EFA6:  BSF    F96.0
0EFA8:  BTFSC  F84.0
0EFAA:  BRA    EFBC
....................          {               
....................             delay_ms(30);visual=1; 
0EFAC:  MOVLW  1E
0EFAE:  MOVLB  7
0EFB0:  MOVWF  x2D
0EFB2:  MOVLB  0
0EFB4:  CALL   30A6
0EFB8:  MOVLB  4
0EFBA:  BSF    x65.4
....................          }  
....................                    
....................          if(LEFT)//Si oprime boton de Toma. 
0EFBC:  BSF    F96.1
0EFBE:  BTFSC  F84.1
0EFC0:  BRA    F038
....................          { 
....................             delay_ms(10); 
0EFC2:  MOVLW  0A
0EFC4:  MOVLB  7
0EFC6:  MOVWF  x2D
0EFC8:  MOVLB  0
0EFCA:  CALL   30A6
....................             delay_ms(700);Menu=100;glcd_fillscreen(OFF);Opcion=1;visual=1; 
0EFCE:  MOVLW  04
0EFD0:  MOVLB  7
0EFD2:  MOVWF  x27
0EFD4:  MOVLW  AF
0EFD6:  MOVWF  x2D
0EFD8:  MOVLB  0
0EFDA:  CALL   30A6
0EFDE:  MOVLB  7
0EFE0:  DECFSZ x27,F
0EFE2:  BRA    EFD4
0EFE4:  MOVLW  64
0EFE6:  MOVLB  6
0EFE8:  MOVWF  xE1
0EFEA:  MOVLB  7
0EFEC:  CLRF   x28
0EFEE:  MOVLB  0
0EFF0:  CALL   3936
0EFF4:  MOVLW  01
0EFF6:  MOVLB  6
0EFF8:  MOVWF  xE7
0EFFA:  MOVLB  4
0EFFC:  BSF    x65.4
....................             write_eeprom(35,CantidadPulsos); 
0EFFE:  CLRF   FAA
0F000:  MOVLW  23
0F002:  MOVWF  FA9
0F004:  MOVFF  6DD,FA8
0F008:  BCF    FA6.6
0F00A:  BCF    FA6.7
0F00C:  BSF    FA6.2
0F00E:  MOVF   FF2,W
0F010:  MOVWF  00
0F012:  BCF    FF2.7
0F014:  MOVLB  F
0F016:  MOVLW  55
0F018:  MOVWF  FA7
0F01A:  MOVLW  AA
0F01C:  MOVWF  FA7
0F01E:  BSF    FA6.1
0F020:  BTFSC  FA6.1
0F022:  BRA    F020
0F024:  BCF    FA6.2
0F026:  MOVF   00,W
0F028:  IORWF  FF2,F
....................             delay_ms(10); 
0F02A:  MOVLW  0A
0F02C:  MOVLB  7
0F02E:  MOVWF  x2D
0F030:  MOVLB  0
0F032:  CALL   30A6
0F036:  MOVLB  4
0F038:  MOVLB  6
....................          } 
....................      } 
.................... //_-------------------------------------------------------------------------------------------------------------------------------------------------------- 
....................  
.................... //_--------------------------------------------------------------------------------------------------------------------------------------------------------       
....................       if(Menu==112){ // Menu de Nivel de Vacio 
0F03A:  MOVF   xE1,W
0F03C:  SUBLW  70
0F03E:  BTFSS  FD8.2
0F040:  BRA    F1D0
....................        
....................       if(NivelVacio>100) 
0F042:  MOVF   xDE,W
0F044:  SUBLW  64
0F046:  BC    F04C
....................          NivelVacio=1; 
0F048:  MOVLW  01
0F04A:  MOVWF  xDE
....................       if(NivelVacio<1) 
0F04C:  MOVF   xDE,F
0F04E:  BNZ   F054
....................          NivelVacio=100; 
0F050:  MOVLW  64
0F052:  MOVWF  xDE
....................        
....................       if(visual==1) 
0F054:  MOVLB  4
0F056:  BTFSS  x65.4
0F058:  BRA    F104
....................       { 
....................          glcd_fillScreen(OFF); 
0F05A:  MOVLB  7
0F05C:  CLRF   x28
0F05E:  MOVLB  0
0F060:  CALL   3936
....................          strcpy(Menus.Letra,"Nivel Vacio"); 
0F064:  MOVLW  07
0F066:  MOVWF  FEA
0F068:  MOVLW  12
0F06A:  MOVWF  FE9
0F06C:  MOVFF  FF2,727
0F070:  BCF    FF2.7
0F072:  MOVLW  00
0F074:  CALL   2C3C
0F078:  TBLRD*-
0F07A:  TBLRD*+
0F07C:  MOVF   FF5,W
0F07E:  MOVWF  FEE
0F080:  IORLW  00
0F082:  BNZ   F07A
0F084:  MOVLB  7
0F086:  BTFSC  x27.7
0F088:  BSF    FF2.7
....................          displayMenu(Menus.Letra,0,0,1,2); 
0F08A:  MOVLW  07
0F08C:  MOVWF  x28
0F08E:  MOVLW  12
0F090:  MOVWF  x27
0F092:  CLRF   x29
0F094:  CLRF   x2A
0F096:  MOVLW  01
0F098:  MOVWF  x2B
0F09A:  MOVLW  02
0F09C:  MOVWF  x2C
0F09E:  MOVLB  0
0F0A0:  CALL   3F64
....................           
....................          displayTemperatura(NivelVacio,30,30,0,3); 
0F0A4:  MOVLB  7
0F0A6:  CLRF   x2A
0F0A8:  MOVFF  6DE,729
0F0AC:  MOVLW  1E
0F0AE:  MOVWF  x2B
0F0B0:  MOVWF  x2C
0F0B2:  CLRF   x2D
0F0B4:  MOVLW  03
0F0B6:  MOVWF  x2E
0F0B8:  MOVLB  0
0F0BA:  CALL   65A0
....................          strcpy(Menus.Letra,"kPa"); 
0F0BE:  MOVLW  07
0F0C0:  MOVWF  FEA
0F0C2:  MOVLW  12
0F0C4:  MOVWF  FE9
0F0C6:  MOVFF  FF2,727
0F0CA:  BCF    FF2.7
0F0CC:  MOVLW  00
0F0CE:  CALL   2DD0
0F0D2:  TBLRD*-
0F0D4:  TBLRD*+
0F0D6:  MOVF   FF5,W
0F0D8:  MOVWF  FEE
0F0DA:  IORLW  00
0F0DC:  BNZ   F0D4
0F0DE:  MOVLB  7
0F0E0:  BTFSC  x27.7
0F0E2:  BSF    FF2.7
....................          displayMenu(Menus.Letra,90,50,0,1); 
0F0E4:  MOVLW  07
0F0E6:  MOVWF  x28
0F0E8:  MOVLW  12
0F0EA:  MOVWF  x27
0F0EC:  MOVLW  5A
0F0EE:  MOVWF  x29
0F0F0:  MOVLW  32
0F0F2:  MOVWF  x2A
0F0F4:  CLRF   x2B
0F0F6:  MOVLW  01
0F0F8:  MOVWF  x2C
0F0FA:  MOVLB  0
0F0FC:  CALL   3F64
....................           
....................          visual=0; 
0F100:  MOVLB  4
0F102:  BCF    x65.4
....................       } 
....................        
....................          if(UP)//Si oprime hacia arriba 
0F104:  BSF    F92.4
0F106:  BTFSC  F80.4
0F108:  BRA    F120
....................          {   
....................             delay_ms(10); 
0F10A:  MOVLW  0A
0F10C:  MOVLB  7
0F10E:  MOVWF  x2D
0F110:  MOVLB  0
0F112:  CALL   30A6
....................             visual=1; 
0F116:  MOVLB  4
0F118:  BSF    x65.4
....................             NivelVacio++; 
0F11A:  MOVLB  6
0F11C:  INCF   xDE,F
0F11E:  MOVLB  4
....................          } 
....................                 
....................          if(DOWN)//Si oprime hacia abajo 
0F120:  BSF    F92.5
0F122:  BTFSC  F80.5
0F124:  BRA    F13C
....................          {   
....................             delay_ms(10); 
0F126:  MOVLW  0A
0F128:  MOVLB  7
0F12A:  MOVWF  x2D
0F12C:  MOVLB  0
0F12E:  CALL   30A6
....................             visual=1; 
0F132:  MOVLB  4
0F134:  BSF    x65.4
....................             NivelVacio--; 
0F136:  MOVLB  6
0F138:  DECF   xDE,F
0F13A:  MOVLB  4
....................          } 
....................                 
....................          if(RIGHT)//Si oprime SET 
0F13C:  BSF    F96.0
0F13E:  BTFSC  F84.0
0F140:  BRA    F152
....................          {               
....................             delay_ms(30);visual=1; 
0F142:  MOVLW  1E
0F144:  MOVLB  7
0F146:  MOVWF  x2D
0F148:  MOVLB  0
0F14A:  CALL   30A6
0F14E:  MOVLB  4
0F150:  BSF    x65.4
....................          }  
....................                    
....................          if(LEFT)//Si oprime boton de Toma. 
0F152:  BSF    F96.1
0F154:  BTFSC  F84.1
0F156:  BRA    F1CE
....................          { 
....................             delay_ms(10); 
0F158:  MOVLW  0A
0F15A:  MOVLB  7
0F15C:  MOVWF  x2D
0F15E:  MOVLB  0
0F160:  CALL   30A6
....................             delay_ms(700);Menu=100;glcd_fillscreen(OFF);Opcion=1;visual=1; 
0F164:  MOVLW  04
0F166:  MOVLB  7
0F168:  MOVWF  x27
0F16A:  MOVLW  AF
0F16C:  MOVWF  x2D
0F16E:  MOVLB  0
0F170:  CALL   30A6
0F174:  MOVLB  7
0F176:  DECFSZ x27,F
0F178:  BRA    F16A
0F17A:  MOVLW  64
0F17C:  MOVLB  6
0F17E:  MOVWF  xE1
0F180:  MOVLB  7
0F182:  CLRF   x28
0F184:  MOVLB  0
0F186:  CALL   3936
0F18A:  MOVLW  01
0F18C:  MOVLB  6
0F18E:  MOVWF  xE7
0F190:  MOVLB  4
0F192:  BSF    x65.4
....................             write_eeprom(36,NivelVacio); 
0F194:  CLRF   FAA
0F196:  MOVLW  24
0F198:  MOVWF  FA9
0F19A:  MOVFF  6DE,FA8
0F19E:  BCF    FA6.6
0F1A0:  BCF    FA6.7
0F1A2:  BSF    FA6.2
0F1A4:  MOVF   FF2,W
0F1A6:  MOVWF  00
0F1A8:  BCF    FF2.7
0F1AA:  MOVLB  F
0F1AC:  MOVLW  55
0F1AE:  MOVWF  FA7
0F1B0:  MOVLW  AA
0F1B2:  MOVWF  FA7
0F1B4:  BSF    FA6.1
0F1B6:  BTFSC  FA6.1
0F1B8:  BRA    F1B6
0F1BA:  BCF    FA6.2
0F1BC:  MOVF   00,W
0F1BE:  IORWF  FF2,F
....................             delay_ms(10); 
0F1C0:  MOVLW  0A
0F1C2:  MOVLB  7
0F1C4:  MOVWF  x2D
0F1C6:  MOVLB  0
0F1C8:  CALL   30A6
0F1CC:  MOVLB  4
0F1CE:  MOVLB  6
....................          } 
....................      } 
.................... //_-------------------------------------------------------------------------------------------------------------------------------------------------------- 
....................  
....................  
....................   while(Menu==200) 
....................  { 
0F1D0:  MOVF   xE1,W
0F1D2:  SUBLW  C8
0F1D4:  BNZ   F2C0
....................     
....................    displayTiempo(txbuf[0],0,10,2,1); 
0F1D6:  MOVFF  417,727
0F1DA:  MOVLB  7
0F1DC:  CLRF   x28
0F1DE:  MOVLW  0A
0F1E0:  MOVWF  x29
0F1E2:  MOVLW  02
0F1E4:  MOVWF  x2A
0F1E6:  MOVLW  01
0F1E8:  MOVWF  x2B
0F1EA:  MOVLB  0
0F1EC:  CALL   5756
....................    displayTiempo(txbuf[1],0,20,2,1); 
0F1F0:  MOVFF  418,727
0F1F4:  MOVLB  7
0F1F6:  CLRF   x28
0F1F8:  MOVLW  14
0F1FA:  MOVWF  x29
0F1FC:  MOVLW  02
0F1FE:  MOVWF  x2A
0F200:  MOVLW  01
0F202:  MOVWF  x2B
0F204:  MOVLB  0
0F206:  CALL   5756
....................    displayTiempo(txbuf[2],0,30,2,1); 
0F20A:  MOVFF  419,727
0F20E:  MOVLB  7
0F210:  CLRF   x28
0F212:  MOVLW  1E
0F214:  MOVWF  x29
0F216:  MOVLW  02
0F218:  MOVWF  x2A
0F21A:  MOVLW  01
0F21C:  MOVWF  x2B
0F21E:  MOVLB  0
0F220:  CALL   5756
....................    displayTiempo(txbuf[3],0,40,2,1); 
0F224:  MOVFF  41A,727
0F228:  MOVLB  7
0F22A:  CLRF   x28
0F22C:  MOVLW  28
0F22E:  MOVWF  x29
0F230:  MOVLW  02
0F232:  MOVWF  x2A
0F234:  MOVLW  01
0F236:  MOVWF  x2B
0F238:  MOVLB  0
0F23A:  CALL   5756
....................    displayTiempo(SlaveA0Tx[0],0,50,2,1); 
0F23E:  MOVFF  437,727
0F242:  MOVLB  7
0F244:  CLRF   x28
0F246:  MOVLW  32
0F248:  MOVWF  x29
0F24A:  MOVLW  02
0F24C:  MOVWF  x2A
0F24E:  MOVLW  01
0F250:  MOVWF  x2B
0F252:  MOVLB  0
0F254:  CALL   5756
....................    Lectura_Esclavos(); 
0F258:  CALL   4BE0
....................    Envio_Esclavos(); 
0F25C:  CALL   38C0
....................    Opcion++; 
0F260:  MOVLB  6
0F262:  INCF   xE7,F
....................    displayTiempo(SlaveA0Tx[1],50,10,2,1); 
0F264:  MOVFF  438,727
0F268:  MOVLW  32
0F26A:  MOVLB  7
0F26C:  MOVWF  x28
0F26E:  MOVLW  0A
0F270:  MOVWF  x29
0F272:  MOVLW  02
0F274:  MOVWF  x2A
0F276:  MOVLW  01
0F278:  MOVWF  x2B
0F27A:  MOVLB  0
0F27C:  CALL   5756
....................    displayTiempo(SlaveA0Tx[2],50,20,2,1); 
0F280:  MOVFF  439,727
0F284:  MOVLW  32
0F286:  MOVLB  7
0F288:  MOVWF  x28
0F28A:  MOVLW  14
0F28C:  MOVWF  x29
0F28E:  MOVLW  02
0F290:  MOVWF  x2A
0F292:  MOVLW  01
0F294:  MOVWF  x2B
0F296:  MOVLB  0
0F298:  CALL   5756
....................    displayTiempo(SlaveA0Tx[3],50,30,2,1);      
0F29C:  MOVFF  43A,727
0F2A0:  MOVLW  32
0F2A2:  MOVLB  7
0F2A4:  MOVWF  x28
0F2A6:  MOVLW  1E
0F2A8:  MOVWF  x29
0F2AA:  MOVLW  02
0F2AC:  MOVWF  x2A
0F2AE:  MOVLW  01
0F2B0:  MOVWF  x2B
0F2B2:  MOVLB  0
0F2B4:  CALL   5756
....................    glcd_update(); 
0F2B8:  CALL   3990
....................  } 
0F2BC:  MOVLB  6
0F2BE:  BRA    F1D0
....................   
.................... //_--------------------------------------------------------------------------------------------------------------------------------------------------------       
....................       if(Menu==210){ // Menu de Presion Atmosferica   
0F2C0:  MOVF   xE1,W
0F2C2:  SUBLW  D2
0F2C4:  BTFSS  FD8.2
0F2C6:  BRA    F438
....................          strcpy(Menus.Letra,"Atmosfera"); 
0F2C8:  MOVLW  07
0F2CA:  MOVWF  FEA
0F2CC:  MOVLW  12
0F2CE:  MOVWF  FE9
0F2D0:  MOVFF  FF2,727
0F2D4:  BCF    FF2.7
0F2D6:  MOVLW  00
0F2D8:  MOVLB  0
0F2DA:  CALL   2DF2
0F2DE:  TBLRD*-
0F2E0:  TBLRD*+
0F2E2:  MOVF   FF5,W
0F2E4:  MOVWF  FEE
0F2E6:  IORLW  00
0F2E8:  BNZ   F2E0
0F2EA:  MOVLB  7
0F2EC:  BTFSC  x27.7
0F2EE:  BSF    FF2.7
....................          displayMenu(Menus.Letra,0,0,1,2); 
0F2F0:  MOVLW  07
0F2F2:  MOVWF  x28
0F2F4:  MOVLW  12
0F2F6:  MOVWF  x27
0F2F8:  CLRF   x29
0F2FA:  CLRF   x2A
0F2FC:  MOVLW  01
0F2FE:  MOVWF  x2B
0F300:  MOVLW  02
0F302:  MOVWF  x2C
0F304:  MOVLB  0
0F306:  CALL   3F64
....................          strcpy(Menus.Letra,"kpa");displayMenu(Menus.Letra,92,30,2,1); 
0F30A:  MOVLW  07
0F30C:  MOVWF  FEA
0F30E:  MOVLW  12
0F310:  MOVWF  FE9
0F312:  MOVFF  FF2,727
0F316:  BCF    FF2.7
0F318:  MOVLW  00
0F31A:  CALL   2E1A
0F31E:  TBLRD*-
0F320:  TBLRD*+
0F322:  MOVF   FF5,W
0F324:  MOVWF  FEE
0F326:  IORLW  00
0F328:  BNZ   F320
0F32A:  MOVLB  7
0F32C:  BTFSC  x27.7
0F32E:  BSF    FF2.7
0F330:  MOVLW  07
0F332:  MOVWF  x28
0F334:  MOVLW  12
0F336:  MOVWF  x27
0F338:  MOVLW  5C
0F33A:  MOVWF  x29
0F33C:  MOVLW  1E
0F33E:  MOVWF  x2A
0F340:  MOVLW  02
0F342:  MOVWF  x2B
0F344:  MOVLW  01
0F346:  MOVWF  x2C
0F348:  MOVLB  0
0F34A:  CALL   3F64
....................           
....................          displayTiempo(Atmosferica,30,30,0,3);  
0F34E:  MOVFF  6E6,727
0F352:  MOVLW  1E
0F354:  MOVLB  7
0F356:  MOVWF  x28
0F358:  MOVWF  x29
0F35A:  CLRF   x2A
0F35C:  MOVLW  03
0F35E:  MOVWF  x2B
0F360:  MOVLB  0
0F362:  CALL   5756
....................        
....................          if(UP)//Si oprime hacia arriba 
0F366:  BSF    F92.4
0F368:  BTFSC  F80.4
0F36A:  BRA    F38A
....................          {   
....................             delay_ms(30);Atmosferica++;visual=1; 
0F36C:  MOVLW  1E
0F36E:  MOVLB  7
0F370:  MOVWF  x2D
0F372:  MOVLB  0
0F374:  CALL   30A6
0F378:  MOVLB  6
0F37A:  INCF   xE6,F
0F37C:  MOVLB  4
0F37E:  BSF    x65.4
....................             glcd_fillscreen(OFF); 
0F380:  MOVLB  7
0F382:  CLRF   x28
0F384:  MOVLB  0
0F386:  CALL   3936
....................          } 
....................                 
....................          if(DOWN)//Si oprime hacia abajo 
0F38A:  BSF    F92.5
0F38C:  BTFSC  F80.5
0F38E:  BRA    F3AE
....................          {   
....................             delay_ms(30);Atmosferica--;visual=1;      
0F390:  MOVLW  1E
0F392:  MOVLB  7
0F394:  MOVWF  x2D
0F396:  MOVLB  0
0F398:  CALL   30A6
0F39C:  MOVLB  6
0F39E:  DECF   xE6,F
0F3A0:  MOVLB  4
0F3A2:  BSF    x65.4
....................             glcd_fillscreen(OFF); 
0F3A4:  MOVLB  7
0F3A6:  CLRF   x28
0F3A8:  MOVLB  0
0F3AA:  CALL   3936
....................          } 
....................                 
....................          if(RIGHT)//Si oprime SET 
0F3AE:  BSF    F96.0
0F3B0:  BTFSC  F84.0
0F3B2:  BRA    F3C6
....................          {   
....................             delay_ms(30);visual=1; 
0F3B4:  MOVLW  1E
0F3B6:  MOVLB  7
0F3B8:  MOVWF  x2D
0F3BA:  MOVLB  0
0F3BC:  CALL   30A6
0F3C0:  MOVLB  4
0F3C2:  BSF    x65.4
0F3C4:  MOVLB  0
....................          }  
....................                    
....................          if(LEFT)//Si oprime boton de Toma. 
0F3C6:  BSF    F96.1
0F3C8:  BTFSC  F84.1
0F3CA:  BRA    F436
....................          { 
....................             delay_ms(700);Menu=1;glcd_fillscreen(OFF);Opcion=1;visual=1; 
0F3CC:  MOVLW  04
0F3CE:  MOVLB  7
0F3D0:  MOVWF  x27
0F3D2:  MOVLW  AF
0F3D4:  MOVWF  x2D
0F3D6:  MOVLB  0
0F3D8:  CALL   30A6
0F3DC:  MOVLB  7
0F3DE:  DECFSZ x27,F
0F3E0:  BRA    F3D2
0F3E2:  MOVLW  01
0F3E4:  MOVLB  6
0F3E6:  MOVWF  xE1
0F3E8:  MOVLB  7
0F3EA:  CLRF   x28
0F3EC:  MOVLB  0
0F3EE:  CALL   3936
0F3F2:  MOVLW  01
0F3F4:  MOVLB  6
0F3F6:  MOVWF  xE7
0F3F8:  MOVLB  4
0F3FA:  BSF    x65.4
....................             write_eeprom(34,Atmosferica);delay_ms(10); 
0F3FC:  CLRF   FAA
0F3FE:  MOVLW  22
0F400:  MOVWF  FA9
0F402:  MOVFF  6E6,FA8
0F406:  BCF    FA6.6
0F408:  BCF    FA6.7
0F40A:  BSF    FA6.2
0F40C:  MOVF   FF2,W
0F40E:  MOVWF  00
0F410:  BCF    FF2.7
0F412:  MOVLB  F
0F414:  MOVLW  55
0F416:  MOVWF  FA7
0F418:  MOVLW  AA
0F41A:  MOVWF  FA7
0F41C:  BSF    FA6.1
0F41E:  BTFSC  FA6.1
0F420:  BRA    F41E
0F422:  BCF    FA6.2
0F424:  MOVF   00,W
0F426:  IORWF  FF2,F
0F428:  MOVLW  0A
0F42A:  MOVLB  7
0F42C:  MOVWF  x2D
0F42E:  MOVLB  0
0F430:  CALL   30A6
....................             reset_cpu(); 
0F434:  RESET
0F436:  MOVLB  6
....................          } 
....................      } 
.................... //_--------------------------------------------------------------------------------------------------------------------------------------------------------     
....................  
.................... //_--------------------------------------------------------------------------------------------------------------------------------------------------------       
....................       if(Menu==211){ // Menu de Ciclos 
0F438:  MOVF   xE1,W
0F43A:  SUBLW  D3
0F43C:  BNZ   F512
....................          strcpy(Menus.Letra,"Ciclos"); 
0F43E:  MOVLW  07
0F440:  MOVWF  FEA
0F442:  MOVLW  12
0F444:  MOVWF  FE9
0F446:  MOVFF  FF2,727
0F44A:  BCF    FF2.7
0F44C:  MOVLW  00
0F44E:  MOVLB  0
0F450:  CALL   2E3C
0F454:  TBLRD*-
0F456:  TBLRD*+
0F458:  MOVF   FF5,W
0F45A:  MOVWF  FEE
0F45C:  IORLW  00
0F45E:  BNZ   F456
0F460:  MOVLB  7
0F462:  BTFSC  x27.7
0F464:  BSF    FF2.7
....................          displayMenu(Menus.Letra,0,0,1,2); 
0F466:  MOVLW  07
0F468:  MOVWF  x28
0F46A:  MOVLW  12
0F46C:  MOVWF  x27
0F46E:  CLRF   x29
0F470:  CLRF   x2A
0F472:  MOVLW  01
0F474:  MOVWF  x2B
0F476:  MOVLW  02
0F478:  MOVWF  x2C
0F47A:  MOVLB  0
0F47C:  CALL   3F64
....................           
....................          displayTiempo(Ciclos,30,30,0,3);  
0F480:  MOVFF  6F8,727
0F484:  MOVLW  1E
0F486:  MOVLB  7
0F488:  MOVWF  x28
0F48A:  MOVWF  x29
0F48C:  CLRF   x2A
0F48E:  MOVLW  03
0F490:  MOVWF  x2B
0F492:  MOVLB  0
0F494:  CALL   5756
....................                    
....................          if(RIGHT && LEFT)//Si oprime boton de Toma. 
0F498:  BSF    F96.0
0F49A:  BTFSC  F84.0
0F49C:  BRA    F512
0F49E:  BSF    F96.1
0F4A0:  BTFSC  F84.1
0F4A2:  BRA    F512
....................          { 
....................             write_eeprom(37,0); 
0F4A4:  CLRF   FAA
0F4A6:  MOVLW  25
0F4A8:  MOVWF  FA9
0F4AA:  CLRF   FA8
0F4AC:  BCF    FA6.6
0F4AE:  BCF    FA6.7
0F4B0:  BSF    FA6.2
0F4B2:  MOVF   FF2,W
0F4B4:  MOVWF  00
0F4B6:  BCF    FF2.7
0F4B8:  MOVLB  F
0F4BA:  MOVLW  55
0F4BC:  MOVWF  FA7
0F4BE:  MOVLW  AA
0F4C0:  MOVWF  FA7
0F4C2:  BSF    FA6.1
0F4C4:  BTFSC  FA6.1
0F4C6:  BRA    F4C4
0F4C8:  BCF    FA6.2
0F4CA:  MOVF   00,W
0F4CC:  IORWF  FF2,F
....................             delay_ms(20); 
0F4CE:  MOVLW  14
0F4D0:  MOVLB  7
0F4D2:  MOVWF  x2D
0F4D4:  MOVLB  0
0F4D6:  CALL   30A6
....................             write_eeprom(38,0); 
0F4DA:  CLRF   FAA
0F4DC:  MOVLW  26
0F4DE:  MOVWF  FA9
0F4E0:  CLRF   FA8
0F4E2:  BCF    FA6.6
0F4E4:  BCF    FA6.7
0F4E6:  BSF    FA6.2
0F4E8:  MOVF   FF2,W
0F4EA:  MOVWF  00
0F4EC:  BCF    FF2.7
0F4EE:  MOVLB  F
0F4F0:  MOVLW  55
0F4F2:  MOVWF  FA7
0F4F4:  MOVLW  AA
0F4F6:  MOVWF  FA7
0F4F8:  BSF    FA6.1
0F4FA:  BTFSC  FA6.1
0F4FC:  BRA    F4FA
0F4FE:  BCF    FA6.2
0F500:  MOVF   00,W
0F502:  IORWF  FF2,F
....................             delay_ms(20); 
0F504:  MOVLW  14
0F506:  MOVLB  7
0F508:  MOVWF  x2D
0F50A:  MOVLB  0
0F50C:  CALL   30A6
....................             reset_cpu(); 
0F510:  RESET
....................          } 
....................      } 
.................... //_--------------------------------------------------------------------------------------------------------------------------------------------------------     
....................  
....................    } 
0F512:  MOVLB  0
0F514:  GOTO   6758
.................... } 
0F518:  GOTO   1139C (RETURN)
....................  
....................  
.................... void main() 
.................... { 
*
10000:  CLRF   FF8
10002:  BCF    FD0.7
10004:  BSF    07.7
10006:  CLRF   FEA
10008:  CLRF   FE9
1000A:  MOVLB  4
1000C:  CLRF   x57
1000E:  CLRF   x58
10010:  CLRF   x59
10012:  CLRF   x5A
10014:  CLRF   x5B
10016:  CLRF   x5C
10018:  BCF    x5D.0
1001A:  BCF    x5D.1
1001C:  BCF    x5D.2
1001E:  BCF    x5D.3
10020:  BCF    x5D.4
10022:  BCF    x5D.5
10024:  BCF    x5D.6
10026:  BCF    x5D.7
10028:  MOVLW  02
1002A:  MOVWF  x5F
1002C:  MOVLW  58
1002E:  MOVWF  x5E
10030:  BCF    x60.0
10032:  BCF    x60.1
10034:  BCF    x60.2
10036:  BCF    x60.3
10038:  BCF    x60.4
1003A:  BCF    x60.5
1003C:  BCF    x60.6
1003E:  BCF    x60.7
10040:  BCF    x61.0
10042:  BCF    x61.1
10044:  BCF    x61.2
10046:  BCF    x61.3
10048:  BCF    x61.4
1004A:  BCF    x61.5
1004C:  BCF    x61.6
1004E:  BCF    x61.7
10050:  BCF    x62.0
10052:  BCF    x62.1
10054:  BCF    x62.2
10056:  BCF    x62.3
10058:  BCF    x62.4
1005A:  BCF    x62.5
1005C:  BCF    x62.6
1005E:  BCF    x62.7
10060:  BCF    x63.0
10062:  BCF    x63.1
10064:  BCF    x63.2
10066:  BCF    x63.3
10068:  BCF    x63.4
1006A:  BCF    x63.5
1006C:  BCF    x63.6
1006E:  BCF    x63.7
10070:  BCF    x64.0
10072:  BCF    x64.1
10074:  BCF    x64.2
10076:  BCF    x64.3
10078:  BCF    x64.4
1007A:  BCF    x64.5
1007C:  BCF    x64.6
1007E:  BCF    x64.7
10080:  BCF    x65.0
10082:  CLRF   x67
10084:  CLRF   x66
10086:  CLRF   x69
10088:  CLRF   x68
1008A:  CLRF   x6B
1008C:  CLRF   x6A
1008E:  MOVLW  CD
10090:  MOVLB  6
10092:  MOVWF  x5F
10094:  MOVLW  CC
10096:  MOVWF  x5E
10098:  MOVLW  20
1009A:  MOVWF  x5D
1009C:  MOVLW  84
1009E:  MOVWF  x5C
100A0:  CLRF   x63
100A2:  CLRF   x62
100A4:  CLRF   x61
100A6:  MOVLW  7E
100A8:  MOVWF  x60
100AA:  CLRF   x67
100AC:  CLRF   x66
100AE:  CLRF   x65
100B0:  CLRF   x64
100B2:  CLRF   x73
100B4:  CLRF   x72
100B6:  CLRF   x71
100B8:  CLRF   x70
100BA:  CLRF   x77
100BC:  CLRF   x76
100BE:  CLRF   x75
100C0:  CLRF   x74
100C2:  CLRF   x7B
100C4:  CLRF   x7A
100C6:  CLRF   x79
100C8:  CLRF   x78
100CA:  CLRF   x7C
100CC:  CLRF   x7D
100CE:  CLRF   x7E
100D0:  CLRF   x7F
100D2:  MOVLW  14
100D4:  MOVWF  x80
100D6:  CLRF   x84
100D8:  CLRF   x83
100DA:  CLRF   x82
100DC:  CLRF   x81
100DE:  CLRF   x88
100E0:  MOVLW  F0
100E2:  MOVWF  x87
100E4:  MOVLW  3E
100E6:  MOVWF  x86
100E8:  MOVLW  8B
100EA:  MOVWF  x85
100EC:  CLRF   x90
100EE:  CLRF   x8F
100F0:  MOVLW  20
100F2:  MOVWF  x8E
100F4:  MOVLW  82
100F6:  MOVWF  x8D
100F8:  CLRF   x94
100FA:  CLRF   x93
100FC:  CLRF   x92
100FE:  CLRF   x91
10100:  CLRF   x98
10102:  CLRF   x97
10104:  CLRF   x96
10106:  CLRF   x95
10108:  CLRF   x9C
1010A:  CLRF   x9B
1010C:  CLRF   x9A
1010E:  CLRF   x99
10110:  CLRF   xA0
10112:  CLRF   x9F
10114:  CLRF   x9E
10116:  CLRF   x9D
10118:  CLRF   xA4
1011A:  CLRF   xA3
1011C:  CLRF   xA2
1011E:  CLRF   xA1
10120:  CLRF   xA8
10122:  CLRF   xA7
10124:  MOVLW  48
10126:  MOVWF  xA6
10128:  MOVLW  83
1012A:  MOVWF  xA5
1012C:  CLRF   xAC
1012E:  CLRF   xAB
10130:  MOVLW  20
10132:  MOVWF  xAA
10134:  MOVLW  83
10136:  MOVWF  xA9
10138:  CLRF   xB0
1013A:  CLRF   xAF
1013C:  CLRF   xAE
1013E:  MOVLW  7F
10140:  MOVWF  xAD
10142:  CLRF   xB4
10144:  CLRF   xB3
10146:  CLRF   xB2
10148:  CLRF   xB1
1014A:  CLRF   xB8
1014C:  CLRF   xB7
1014E:  CLRF   xB6
10150:  CLRF   xB5
10152:  CLRF   xBC
10154:  CLRF   xBB
10156:  CLRF   xBA
10158:  CLRF   xB9
1015A:  CLRF   xC0
1015C:  CLRF   xBF
1015E:  CLRF   xBE
10160:  CLRF   xBD
10162:  CLRF   xC4
10164:  CLRF   xC3
10166:  CLRF   xC2
10168:  CLRF   xC1
1016A:  MOVLW  5C
1016C:  MOVWF  xC8
1016E:  MOVLW  AA
10170:  MOVWF  xC7
10172:  MOVLW  52
10174:  MOVWF  xC6
10176:  MOVLW  77
10178:  MOVWF  xC5
1017A:  MOVLW  E0
1017C:  MOVWF  xCC
1017E:  MOVLW  2D
10180:  MOVWF  xCB
10182:  MOVLW  10
10184:  MOVWF  xCA
10186:  MOVLW  75
10188:  MOVWF  xC9
1018A:  MOVLW  FF
1018C:  MOVWF  xD0
1018E:  MOVLW  21
10190:  MOVWF  xCF
10192:  MOVLW  15
10194:  MOVWF  xCE
10196:  MOVLW  80
10198:  MOVWF  xCD
1019A:  MOVLW  82
1019C:  MOVWF  xD4
1019E:  MOVLW  12
101A0:  MOVWF  xD3
101A2:  MOVLW  F4
101A4:  MOVWF  xD2
101A6:  MOVLW  86
101A8:  MOVWF  xD1
101AA:  CLRF   xD5
101AC:  CLRF   xD6
101AE:  MOVLB  4
101B0:  BCF    x65.1
101B2:  BCF    x65.2
101B4:  BCF    x65.3
101B6:  BSF    x65.4
101B8:  BCF    x65.5
101BA:  BCF    x65.6
101BC:  BCF    x65.7
101BE:  MOVLB  6
101C0:  CLRF   xDB
101C2:  CLRF   xDC
101C4:  MOVLW  04
101C6:  MOVWF  xDD
101C8:  MOVLW  19
101CA:  MOVWF  xDE
101CC:  CLRF   xDF
101CE:  CLRF   xE0
101D0:  CLRF   xE1
101D2:  MOVLW  01
101D4:  MOVWF  xE2
101D6:  CLRF   xE3
101D8:  CLRF   xE4
101DA:  CLRF   xE5
101DC:  MOVLW  47
101DE:  MOVWF  xE6
101E0:  MOVLW  01
101E2:  MOVWF  xE7
101E4:  CLRF   xE8
101E6:  CLRF   xE9
101E8:  CLRF   xEB
101EA:  CLRF   xEA
101EC:  CLRF   xED
101EE:  CLRF   xEC
101F0:  CLRF   xEF
101F2:  CLRF   xEE
101F4:  CLRF   xF1
101F6:  CLRF   xF0
101F8:  CLRF   xF3
101FA:  CLRF   xF2
101FC:  CLRF   xF5
101FE:  CLRF   xF4
10200:  CLRF   xF7
10202:  CLRF   xF6
10204:  CLRF   xF9
10206:  CLRF   xF8
10208:  CLRF   xFB
1020A:  CLRF   xFA
1020C:  MOVLB  7
1020E:  CLRF   x04
10210:  CLRF   x05
10212:  CLRF   x06
10214:  CLRF   x07
10216:  CLRF   x08
10218:  MOVLW  0A
1021A:  MOVWF  x09
1021C:  CLRF   x0A
1021E:  CLRF   x0B
10220:  CLRF   x0D
10222:  CLRF   x0C
10224:  CLRF   x0F
10226:  CLRF   x0E
10228:  CLRF   x11
1022A:  CLRF   x10
1022C:  MOVF   FC1,W
1022E:  ANDLW  C0
10230:  IORLW  0F
10232:  MOVWF  FC1
10234:  MOVLW  07
10236:  MOVWF  FB4
10238:  MOVLB  4
1023A:  CLRF   x6C
1023C:  CLRF   x6D
1023E:  CLRF   x6E
10240:  CLRF   x6F
10242:  CLRF   x70
10244:  CLRF   x71
10246:  CLRF   x72
10248:  CLRF   x73
1024A:  CLRF   x74
1024C:  CLRF   x75
1024E:  CLRF   x76
10250:  CLRF   x77
10252:  CLRF   x78
10254:  CLRF   x79
10256:  CLRF   x7A
10258:  CLRF   x7B
1025A:  CLRF   x7C
1025C:  CLRF   x7D
1025E:  CLRF   x7E
10260:  CLRF   x7F
10262:  CLRF   x80
10264:  CLRF   x81
10266:  CLRF   x82
10268:  CLRF   x83
1026A:  CLRF   x84
1026C:  CLRF   x85
1026E:  CLRF   x86
10270:  CLRF   x87
10272:  CLRF   x88
10274:  CLRF   x89
10276:  CLRF   x8A
10278:  CLRF   x8B
1027A:  CLRF   x8C
1027C:  CLRF   x8D
1027E:  CLRF   x8E
10280:  CLRF   x8F
10282:  CLRF   x90
10284:  CLRF   x91
10286:  CLRF   x92
10288:  CLRF   x93
1028A:  CLRF   x94
1028C:  CLRF   x95
1028E:  CLRF   x96
10290:  CLRF   x97
10292:  CLRF   x98
10294:  CLRF   x99
10296:  CLRF   x9A
10298:  CLRF   x9B
1029A:  CLRF   x9C
1029C:  CLRF   x9D
1029E:  CLRF   x9E
102A0:  CLRF   x9F
102A2:  CLRF   xA0
102A4:  CLRF   xA1
102A6:  CLRF   xA2
102A8:  CLRF   xA3
102AA:  CLRF   xA4
102AC:  CLRF   xA5
102AE:  CLRF   xA6
102B0:  CLRF   xA7
102B2:  CLRF   xA8
102B4:  CLRF   xA9
102B6:  CLRF   xAA
102B8:  CLRF   xAB
102BA:  CLRF   xAC
102BC:  CLRF   xAD
102BE:  CLRF   xAE
102C0:  CLRF   xAF
102C2:  CLRF   xB0
102C4:  CLRF   xB1
102C6:  CLRF   xB2
102C8:  CLRF   xB3
102CA:  CLRF   xB4
102CC:  CLRF   xB5
102CE:  CLRF   xB6
102D0:  CLRF   xB7
102D2:  CLRF   xB8
102D4:  CLRF   xB9
102D6:  CLRF   xBA
102D8:  CLRF   xBB
102DA:  CLRF   xBC
102DC:  CLRF   xBD
102DE:  CLRF   xBE
102E0:  CLRF   xBF
102E2:  CLRF   xC0
102E4:  CLRF   xC1
102E6:  CLRF   xC2
102E8:  CLRF   xC3
102EA:  CLRF   xC4
102EC:  CLRF   xC5
102EE:  CLRF   xC6
102F0:  CLRF   xC7
102F2:  CLRF   xC8
102F4:  CLRF   xC9
102F6:  CLRF   xCA
102F8:  CLRF   xCB
102FA:  CLRF   xCC
102FC:  CLRF   xCD
102FE:  CLRF   xCE
10300:  CLRF   xCF
10302:  CLRF   xD0
10304:  CLRF   xD1
10306:  CLRF   xD2
10308:  CLRF   xD3
1030A:  CLRF   xD4
1030C:  CLRF   xD5
1030E:  CLRF   xD6
10310:  CLRF   xD7
10312:  CLRF   xD8
10314:  CLRF   xD9
10316:  CLRF   xDA
10318:  CLRF   xDB
1031A:  CLRF   xDC
1031C:  CLRF   xDD
1031E:  CLRF   xDE
10320:  CLRF   xDF
10322:  CLRF   xE0
10324:  CLRF   xE1
10326:  CLRF   xE2
10328:  CLRF   xE3
1032A:  CLRF   xE4
1032C:  CLRF   xE5
1032E:  CLRF   xE6
10330:  CLRF   xE7
10332:  CLRF   xE8
10334:  CLRF   xE9
10336:  CLRF   xEA
10338:  CLRF   xEB
1033A:  CLRF   xEC
1033C:  CLRF   xED
1033E:  CLRF   xEE
10340:  CLRF   xEF
10342:  CLRF   xF0
10344:  CLRF   xF1
10346:  CLRF   xF2
10348:  CLRF   xF3
1034A:  CLRF   xF4
1034C:  CLRF   xF5
1034E:  CLRF   xF6
10350:  CLRF   xF7
10352:  CLRF   xF8
10354:  CLRF   xF9
10356:  CLRF   xFA
10358:  CLRF   xFB
1035A:  CLRF   xFC
1035C:  CLRF   xFD
1035E:  CLRF   xFE
10360:  CLRF   xFF
10362:  MOVLB  5
10364:  CLRF   x00
10366:  CLRF   x01
10368:  CLRF   x02
1036A:  CLRF   x03
1036C:  CLRF   x04
1036E:  CLRF   x05
10370:  CLRF   x06
10372:  CLRF   x07
10374:  CLRF   x08
10376:  CLRF   x09
10378:  CLRF   x0A
1037A:  CLRF   x0B
1037C:  CLRF   x0C
1037E:  CLRF   x0D
10380:  CLRF   x0E
10382:  CLRF   x0F
10384:  CLRF   x10
10386:  CLRF   x11
10388:  CLRF   x12
1038A:  CLRF   x13
1038C:  CLRF   x14
1038E:  CLRF   x15
10390:  CLRF   x16
10392:  CLRF   x17
10394:  CLRF   x18
10396:  CLRF   x19
10398:  CLRF   x1A
1039A:  CLRF   x1B
1039C:  CLRF   x1C
1039E:  CLRF   x1D
103A0:  CLRF   x1E
103A2:  CLRF   x1F
103A4:  CLRF   x20
103A6:  CLRF   x21
103A8:  CLRF   x22
103AA:  CLRF   x23
103AC:  CLRF   x24
103AE:  CLRF   x25
103B0:  CLRF   x26
103B2:  CLRF   x27
103B4:  CLRF   x28
103B6:  CLRF   x29
103B8:  CLRF   x2A
103BA:  CLRF   x2B
103BC:  CLRF   x2C
103BE:  CLRF   x2D
103C0:  CLRF   x2E
103C2:  CLRF   x2F
103C4:  CLRF   x30
103C6:  CLRF   x31
103C8:  CLRF   x32
103CA:  CLRF   x33
103CC:  CLRF   x34
103CE:  CLRF   x35
103D0:  CLRF   x36
103D2:  CLRF   x37
103D4:  CLRF   x38
103D6:  CLRF   x39
103D8:  CLRF   x3A
103DA:  CLRF   x3B
103DC:  CLRF   x3C
103DE:  CLRF   x3D
103E0:  CLRF   x3E
103E2:  CLRF   x3F
103E4:  CLRF   x40
103E6:  CLRF   x41
103E8:  CLRF   x42
103EA:  CLRF   x43
103EC:  CLRF   x44
103EE:  CLRF   x45
103F0:  CLRF   x46
103F2:  CLRF   x47
103F4:  CLRF   x48
103F6:  CLRF   x49
103F8:  CLRF   x4A
103FA:  CLRF   x4B
103FC:  CLRF   x4C
103FE:  CLRF   x4D
10400:  CLRF   x4E
10402:  CLRF   x4F
10404:  CLRF   x50
10406:  CLRF   x51
10408:  CLRF   x52
1040A:  CLRF   x53
1040C:  CLRF   x54
1040E:  CLRF   x55
10410:  CLRF   x56
10412:  CLRF   x57
10414:  CLRF   x58
10416:  CLRF   x59
10418:  CLRF   x5A
1041A:  CLRF   x5B
1041C:  CLRF   x5C
1041E:  CLRF   x5D
10420:  CLRF   x5E
10422:  CLRF   x5F
10424:  CLRF   x60
10426:  CLRF   x61
10428:  CLRF   x62
1042A:  CLRF   x63
1042C:  CLRF   x64
1042E:  CLRF   x65
10430:  CLRF   x66
10432:  CLRF   x67
10434:  CLRF   x68
10436:  CLRF   x69
10438:  CLRF   x6A
1043A:  CLRF   x6B
1043C:  CLRF   x6C
1043E:  CLRF   x6D
10440:  CLRF   x6E
10442:  CLRF   x6F
10444:  CLRF   x70
10446:  CLRF   x71
10448:  CLRF   x72
1044A:  CLRF   x73
1044C:  CLRF   x74
1044E:  CLRF   x75
10450:  CLRF   x76
10452:  CLRF   x77
10454:  CLRF   x78
10456:  CLRF   x79
10458:  CLRF   x7A
1045A:  CLRF   x7B
1045C:  CLRF   x7C
1045E:  CLRF   x7D
10460:  CLRF   x7E
10462:  CLRF   x7F
10464:  CLRF   x80
10466:  CLRF   x81
10468:  CLRF   x82
1046A:  CLRF   x83
1046C:  CLRF   x84
1046E:  CLRF   x85
10470:  CLRF   x86
10472:  CLRF   x87
10474:  CLRF   x88
10476:  CLRF   x89
10478:  CLRF   x8A
1047A:  CLRF   x8B
1047C:  CLRF   x8C
1047E:  CLRF   x8D
10480:  CLRF   x8E
10482:  CLRF   x8F
10484:  CLRF   x90
10486:  CLRF   x91
10488:  CLRF   x92
1048A:  CLRF   x93
1048C:  CLRF   x94
1048E:  CLRF   x95
10490:  CLRF   x96
10492:  CLRF   x97
10494:  CLRF   x98
10496:  CLRF   x99
10498:  CLRF   x9A
1049A:  CLRF   x9B
1049C:  CLRF   x9C
1049E:  CLRF   x9D
104A0:  CLRF   x9E
104A2:  CLRF   x9F
104A4:  CLRF   xA0
104A6:  CLRF   xA1
104A8:  CLRF   xA2
104AA:  CLRF   xA3
104AC:  CLRF   xA4
104AE:  CLRF   xA5
104B0:  CLRF   xA6
104B2:  CLRF   xA7
104B4:  CLRF   xA8
104B6:  CLRF   xA9
104B8:  CLRF   xAA
104BA:  CLRF   xAB
104BC:  CLRF   xAC
104BE:  CLRF   xAD
104C0:  CLRF   xAE
104C2:  CLRF   xAF
104C4:  CLRF   xB0
104C6:  CLRF   xB1
104C8:  CLRF   xB2
104CA:  CLRF   xB3
104CC:  CLRF   xB4
104CE:  CLRF   xB5
104D0:  CLRF   xB6
104D2:  CLRF   xB7
104D4:  CLRF   xB8
104D6:  CLRF   xB9
104D8:  CLRF   xBA
104DA:  CLRF   xBB
104DC:  CLRF   xBC
104DE:  CLRF   xBD
104E0:  CLRF   xBE
104E2:  CLRF   xBF
104E4:  CLRF   xC0
104E6:  CLRF   xC1
104E8:  CLRF   xC2
104EA:  CLRF   xC3
104EC:  CLRF   xC4
104EE:  CLRF   xC5
104F0:  CLRF   xC6
104F2:  CLRF   xC7
104F4:  CLRF   xC8
104F6:  CLRF   xC9
104F8:  CLRF   xCA
104FA:  CLRF   xCB
104FC:  CLRF   xCC
104FE:  CLRF   xCD
10500:  CLRF   xCE
10502:  CLRF   xCF
10504:  CLRF   xD0
10506:  CLRF   xD1
10508:  CLRF   xD2
1050A:  CLRF   xD3
1050C:  CLRF   xD4
1050E:  CLRF   xD5
10510:  CLRF   xD6
10512:  CLRF   xD7
10514:  CLRF   xD8
10516:  CLRF   xD9
10518:  CLRF   xDA
1051A:  CLRF   xDB
1051C:  CLRF   xDC
1051E:  CLRF   xDD
10520:  CLRF   xDE
10522:  CLRF   xDF
10524:  CLRF   xE0
10526:  CLRF   xE1
10528:  CLRF   xE2
1052A:  CLRF   xE3
1052C:  CLRF   xE4
1052E:  CLRF   xE5
10530:  CLRF   xE6
10532:  CLRF   xE7
10534:  CLRF   xE8
10536:  CLRF   xE9
10538:  CLRF   xEA
1053A:  CLRF   xEB
1053C:  CLRF   xEC
1053E:  CLRF   xED
10540:  CLRF   xEE
10542:  CLRF   xEF
10544:  CLRF   xF0
10546:  CLRF   xF1
10548:  CLRF   xF2
1054A:  CLRF   xF3
1054C:  CLRF   xF4
1054E:  CLRF   xF5
10550:  CLRF   xF6
10552:  CLRF   xF7
10554:  CLRF   xF8
10556:  CLRF   xF9
10558:  CLRF   xFA
1055A:  CLRF   xFB
1055C:  CLRF   xFC
1055E:  CLRF   xFD
10560:  CLRF   xFE
10562:  CLRF   xFF
10564:  MOVLB  6
10566:  CLRF   x00
10568:  CLRF   x01
1056A:  CLRF   x02
1056C:  CLRF   x03
1056E:  CLRF   x04
10570:  CLRF   x05
10572:  CLRF   x06
10574:  CLRF   x07
10576:  CLRF   x08
10578:  CLRF   x09
1057A:  CLRF   x0A
1057C:  CLRF   x0B
1057E:  CLRF   x0C
10580:  CLRF   x0D
10582:  CLRF   x0E
10584:  CLRF   x0F
10586:  CLRF   x10
10588:  CLRF   x11
1058A:  CLRF   x12
1058C:  CLRF   x13
1058E:  CLRF   x14
10590:  CLRF   x15
10592:  CLRF   x16
10594:  CLRF   x17
10596:  CLRF   x18
10598:  CLRF   x19
1059A:  CLRF   x1A
1059C:  CLRF   x1B
1059E:  CLRF   x1C
105A0:  CLRF   x1D
105A2:  CLRF   x1E
105A4:  CLRF   x1F
105A6:  CLRF   x20
105A8:  CLRF   x21
105AA:  CLRF   x22
105AC:  CLRF   x23
105AE:  CLRF   x24
105B0:  CLRF   x25
105B2:  CLRF   x26
105B4:  CLRF   x27
105B6:  CLRF   x28
105B8:  CLRF   x29
105BA:  CLRF   x2A
105BC:  CLRF   x2B
105BE:  CLRF   x2C
105C0:  CLRF   x2D
105C2:  CLRF   x2E
105C4:  CLRF   x2F
105C6:  CLRF   x30
105C8:  CLRF   x31
105CA:  CLRF   x32
105CC:  CLRF   x33
105CE:  CLRF   x34
105D0:  CLRF   x35
105D2:  CLRF   x36
105D4:  CLRF   x37
105D6:  CLRF   x38
105D8:  CLRF   x39
105DA:  CLRF   x3A
105DC:  CLRF   x3B
105DE:  CLRF   x3C
105E0:  CLRF   x3D
105E2:  CLRF   x3E
105E4:  CLRF   x3F
105E6:  CLRF   x40
105E8:  CLRF   x41
105EA:  CLRF   x42
105EC:  CLRF   x43
105EE:  CLRF   x44
105F0:  CLRF   x45
105F2:  CLRF   x46
105F4:  CLRF   x47
105F6:  CLRF   x48
105F8:  CLRF   x49
105FA:  CLRF   x4A
105FC:  CLRF   x4B
105FE:  CLRF   x4C
10600:  CLRF   x4D
10602:  CLRF   x4E
10604:  CLRF   x4F
10606:  CLRF   x50
10608:  CLRF   x51
1060A:  CLRF   x52
1060C:  CLRF   x53
1060E:  CLRF   x54
10610:  CLRF   x55
10612:  CLRF   x56
10614:  CLRF   x57
10616:  CLRF   x58
10618:  CLRF   x59
1061A:  CLRF   x5A
1061C:  CLRF   x5B
1061E:  CLRF   x68
10620:  CLRF   x69
10622:  CLRF   x6A
10624:  CLRF   x6B
10626:  CLRF   x6C
10628:  CLRF   x6D
1062A:  CLRF   x6E
1062C:  CLRF   x6F
1062E:  MOVLW  6B
10630:  MOVWF  xD7
10632:  MOVLW  50
10634:  MOVWF  xD8
10636:  MOVLW  61
10638:  MOVWF  xD9
1063A:  CLRF   xDA
1063C:  CLRF   xFC
1063E:  CLRF   xFD
10640:  CLRF   xFE
10642:  CLRF   xFF
10644:  MOVLB  7
10646:  CLRF   x00
10648:  CLRF   x01
1064A:  CLRF   x02
1064C:  CLRF   x03
1064E:  CLRF   x25
10650:  CLRF   x26
....................    Display_on; 
10652:  BSF    F8B.7
10654:  BCF    F94.7
....................    for (posicion=0;posicion<0x10;posicion++) 
10656:  MOVLB  4
10658:  CLRF   x59
1065A:  MOVF   x59,W
1065C:  SUBLW  0F
1065E:  BTFSS  FD8.0
10660:  GOTO   1067A
....................    { 
....................       SlaveA0Tx[posicion] = 0x00; 
10664:  CLRF   03
10666:  MOVF   x59,W
10668:  ADDLW  37
1066A:  MOVWF  FE9
1066C:  MOVLW  04
1066E:  ADDWFC 03,W
10670:  MOVWF  FEA
10672:  CLRF   FEF
....................    } 
10674:  INCF   x59,F
10676:  GOTO   1065A
....................     
....................    delay_ms(1000);    
1067A:  MOVLW  04
1067C:  MOVLB  7
1067E:  MOVWF  x27
10680:  MOVLW  FA
10682:  MOVWF  x2D
10684:  MOVLB  0
10686:  CALL   30A6
1068A:  MOVLB  7
1068C:  DECFSZ x27,F
1068E:  BRA    10680
....................    setup_timer_0(RTCC_8_BIT|RTCC_DIV_1); 
10690:  MOVLW  C8
10692:  MOVWF  FD5
....................    enable_interrupts(INT_TIMER0); 
10694:  BSF    FF2.5
....................    setup_timer_1(T1_INTERNAL|T1_DIV_BY_1); 
10696:  MOVLW  85
10698:  MOVWF  FCD
....................    enable_interrupts(INT_TIMER1); 
1069A:  BSF    F9D.0
....................    setup_adc_ports(AN0_TO_AN3); 
1069C:  MOVF   FC1,W
1069E:  ANDLW  C0
106A0:  IORLW  0B
106A2:  MOVWF  FC1
....................    setup_adc(ADC_CLOCK_DIV_32 ); 
106A4:  MOVF   FC0,W
106A6:  ANDLW  C0
106A8:  IORLW  02
106AA:  MOVWF  FC0
106AC:  BSF    FC0.7
106AE:  BSF    FC2.0
....................    enable_interrupts(global); 
106B0:  MOVLW  C0
106B2:  IORWF  FF2,F
....................  
.................... //Lectura EEPROM//-------------------------- 
....................    Testerilizacionp[0]=read_eeprom(0); 
106B4:  MOVFF  FF2,727
106B8:  BCF    FF2.7
106BA:  CLRF   FAA
106BC:  CLRF   FA9
106BE:  BCF    FA6.6
106C0:  BCF    FA6.7
106C2:  BSF    FA6.0
106C4:  MOVF   FA8,W
106C6:  BTFSC  x27.7
106C8:  BSF    FF2.7
106CA:  MOVLB  4
106CC:  MOVWF  x70
....................    delay_ms(10); 
106CE:  MOVLW  0A
106D0:  MOVLB  7
106D2:  MOVWF  x2D
106D4:  MOVLB  0
106D6:  CALL   30A6
....................    Testerilizacionp[1]=read_eeprom(1); 
106DA:  MOVFF  FF2,727
106DE:  BCF    FF2.7
106E0:  CLRF   FAA
106E2:  MOVLW  01
106E4:  MOVWF  FA9
106E6:  BCF    FA6.6
106E8:  BCF    FA6.7
106EA:  BSF    FA6.0
106EC:  MOVF   FA8,W
106EE:  MOVLB  7
106F0:  BTFSC  x27.7
106F2:  BSF    FF2.7
106F4:  MOVLB  4
106F6:  MOVWF  x71
....................    delay_ms(10); 
106F8:  MOVLW  0A
106FA:  MOVLB  7
106FC:  MOVWF  x2D
106FE:  MOVLB  0
10700:  CALL   30A6
....................    Testerilizacionp[2]=read_eeprom(2); 
10704:  MOVFF  FF2,727
10708:  BCF    FF2.7
1070A:  CLRF   FAA
1070C:  MOVLW  02
1070E:  MOVWF  FA9
10710:  BCF    FA6.6
10712:  BCF    FA6.7
10714:  BSF    FA6.0
10716:  MOVF   FA8,W
10718:  MOVLB  7
1071A:  BTFSC  x27.7
1071C:  BSF    FF2.7
1071E:  MOVLB  4
10720:  MOVWF  x72
....................    delay_ms(10); 
10722:  MOVLW  0A
10724:  MOVLB  7
10726:  MOVWF  x2D
10728:  MOVLB  0
1072A:  CALL   30A6
....................    Testerilizacionp[3]=read_eeprom(3); 
1072E:  MOVFF  FF2,727
10732:  BCF    FF2.7
10734:  CLRF   FAA
10736:  MOVLW  03
10738:  MOVWF  FA9
1073A:  BCF    FA6.6
1073C:  BCF    FA6.7
1073E:  BSF    FA6.0
10740:  MOVF   FA8,W
10742:  MOVLB  7
10744:  BTFSC  x27.7
10746:  BSF    FF2.7
10748:  MOVLB  4
1074A:  MOVWF  x73
....................    delay_ms(10); 
1074C:  MOVLW  0A
1074E:  MOVLB  7
10750:  MOVWF  x2D
10752:  MOVLB  0
10754:  CALL   30A6
....................    Tsecadop[0]=read_eeprom(4); 
10758:  MOVFF  FF2,727
1075C:  BCF    FF2.7
1075E:  CLRF   FAA
10760:  MOVLW  04
10762:  MOVWF  FA9
10764:  BCF    FA6.6
10766:  BCF    FA6.7
10768:  BSF    FA6.0
1076A:  MOVF   FA8,W
1076C:  MOVLB  7
1076E:  BTFSC  x27.7
10770:  BSF    FF2.7
10772:  MOVLB  4
10774:  MOVWF  x78
....................    delay_ms(10); 
10776:  MOVLW  0A
10778:  MOVLB  7
1077A:  MOVWF  x2D
1077C:  MOVLB  0
1077E:  CALL   30A6
....................    Tsecadop[1]=read_eeprom(5); 
10782:  MOVFF  FF2,727
10786:  BCF    FF2.7
10788:  CLRF   FAA
1078A:  MOVLW  05
1078C:  MOVWF  FA9
1078E:  BCF    FA6.6
10790:  BCF    FA6.7
10792:  BSF    FA6.0
10794:  MOVF   FA8,W
10796:  MOVLB  7
10798:  BTFSC  x27.7
1079A:  BSF    FF2.7
1079C:  MOVLB  4
1079E:  MOVWF  x79
....................    delay_ms(10); 
107A0:  MOVLW  0A
107A2:  MOVLB  7
107A4:  MOVWF  x2D
107A6:  MOVLB  0
107A8:  CALL   30A6
....................    Tsecadop[2]=read_eeprom(6); 
107AC:  MOVFF  FF2,727
107B0:  BCF    FF2.7
107B2:  CLRF   FAA
107B4:  MOVLW  06
107B6:  MOVWF  FA9
107B8:  BCF    FA6.6
107BA:  BCF    FA6.7
107BC:  BSF    FA6.0
107BE:  MOVF   FA8,W
107C0:  MOVLB  7
107C2:  BTFSC  x27.7
107C4:  BSF    FF2.7
107C6:  MOVLB  4
107C8:  MOVWF  x7A
....................    delay_ms(10); 
107CA:  MOVLW  0A
107CC:  MOVLB  7
107CE:  MOVWF  x2D
107D0:  MOVLB  0
107D2:  CALL   30A6
....................    Tsecadop[3]=read_eeprom(7); 
107D6:  MOVFF  FF2,727
107DA:  BCF    FF2.7
107DC:  CLRF   FAA
107DE:  MOVLW  07
107E0:  MOVWF  FA9
107E2:  BCF    FA6.6
107E4:  BCF    FA6.7
107E6:  BSF    FA6.0
107E8:  MOVF   FA8,W
107EA:  MOVLB  7
107EC:  BTFSC  x27.7
107EE:  BSF    FF2.7
107F0:  MOVLB  4
107F2:  MOVWF  x7B
....................    delay_ms(10); 
107F4:  MOVLW  0A
107F6:  MOVLB  7
107F8:  MOVWF  x2D
107FA:  MOVLB  0
107FC:  CALL   30A6
....................    Setpoint=read_eeprom(8); 
10800:  MOVFF  FF2,727
10804:  BCF    FF2.7
10806:  CLRF   FAA
10808:  MOVLW  08
1080A:  MOVWF  FA9
1080C:  BCF    FA6.6
1080E:  BCF    FA6.7
10810:  BSF    FA6.0
10812:  MOVF   FA8,W
10814:  MOVLB  7
10816:  BTFSC  x27.7
10818:  BSF    FF2.7
1081A:  MOVLB  6
1081C:  MOVWF  xE5
....................    delay_ms(10); 
1081E:  MOVLW  0A
10820:  MOVLB  7
10822:  MOVWF  x2D
10824:  MOVLB  0
10826:  CALL   30A6
....................    Nivel=read_eeprom(9); 
1082A:  MOVFF  FF2,727
1082E:  BCF    FF2.7
10830:  CLRF   FAA
10832:  MOVLW  09
10834:  MOVWF  FA9
10836:  BCF    FA6.6
10838:  BCF    FA6.7
1083A:  BSF    FA6.0
1083C:  MOVF   FA8,W
1083E:  MOVLB  7
10840:  BTFSC  x27.7
10842:  BSF    FF2.7
10844:  MOVLB  6
10846:  CLRF   xF1
10848:  MOVWF  xF0
....................    delay_ms(10); 
1084A:  MOVLW  0A
1084C:  MOVLB  7
1084E:  MOVWF  x2D
10850:  MOVLB  0
10852:  CALL   30A6
....................    Password[0]=read_eeprom(10); 
10856:  MOVFF  FF2,727
1085A:  BCF    FF2.7
1085C:  CLRF   FAA
1085E:  MOVLW  0A
10860:  MOVWF  FA9
10862:  BCF    FA6.6
10864:  BCF    FA6.7
10866:  BSF    FA6.0
10868:  MOVF   FA8,W
1086A:  MOVLB  7
1086C:  BTFSC  x27.7
1086E:  BSF    FF2.7
10870:  MOVWF  x00
....................    delay_ms(10); 
10872:  MOVLW  0A
10874:  MOVWF  x2D
10876:  MOVLB  0
10878:  CALL   30A6
....................    Password[1]=read_eeprom(11); 
1087C:  MOVFF  FF2,727
10880:  BCF    FF2.7
10882:  CLRF   FAA
10884:  MOVLW  0B
10886:  MOVWF  FA9
10888:  BCF    FA6.6
1088A:  BCF    FA6.7
1088C:  BSF    FA6.0
1088E:  MOVF   FA8,W
10890:  MOVLB  7
10892:  BTFSC  x27.7
10894:  BSF    FF2.7
10896:  MOVWF  x01
....................    delay_ms(10); 
10898:  MOVLW  0A
1089A:  MOVWF  x2D
1089C:  MOVLB  0
1089E:  CALL   30A6
....................    Password[2]=read_eeprom(12); 
108A2:  MOVFF  FF2,727
108A6:  BCF    FF2.7
108A8:  CLRF   FAA
108AA:  MOVLW  0C
108AC:  MOVWF  FA9
108AE:  BCF    FA6.6
108B0:  BCF    FA6.7
108B2:  BSF    FA6.0
108B4:  MOVF   FA8,W
108B6:  MOVLB  7
108B8:  BTFSC  x27.7
108BA:  BSF    FF2.7
108BC:  MOVWF  x02
....................    delay_ms(10); 
108BE:  MOVLW  0A
108C0:  MOVWF  x2D
108C2:  MOVLB  0
108C4:  CALL   30A6
....................    Password[3]=read_eeprom(13); 
108C8:  MOVFF  FF2,727
108CC:  BCF    FF2.7
108CE:  CLRF   FAA
108D0:  MOVLW  0D
108D2:  MOVWF  FA9
108D4:  BCF    FA6.6
108D6:  BCF    FA6.7
108D8:  BSF    FA6.0
108DA:  MOVF   FA8,W
108DC:  MOVLB  7
108DE:  BTFSC  x27.7
108E0:  BSF    FF2.7
108E2:  MOVWF  x03
....................    delay_ms(10); 
108E4:  MOVLW  0A
108E6:  MOVWF  x2D
108E8:  MOVLB  0
108EA:  CALL   30A6
....................    Ganancia=read_eeprom(20); 
108EE:  MOVFF  FF2,727
108F2:  BCF    FF2.7
108F4:  CLRF   FAA
108F6:  MOVLW  14
108F8:  MOVWF  FA9
108FA:  BCF    FA6.6
108FC:  BCF    FA6.7
108FE:  BSF    FA6.0
10900:  MOVF   FA8,W
10902:  MOVLB  7
10904:  BTFSC  x27.7
10906:  BSF    FF2.7
10908:  CLRF   x2E
1090A:  MOVWF  x2D
1090C:  MOVLB  0
1090E:  CALL   30CE
10912:  MOVFF  03,6A8
10916:  MOVFF  02,6A7
1091A:  MOVFF  01,6A6
1091E:  MOVFF  00,6A5
....................    delay_ms(10); 
10922:  MOVLW  0A
10924:  MOVLB  7
10926:  MOVWF  x2D
10928:  MOVLB  0
1092A:  CALL   30A6
....................    Ajuste=read_eeprom(21); 
1092E:  MOVFF  FF2,727
10932:  BCF    FF2.7
10934:  CLRF   FAA
10936:  MOVLW  15
10938:  MOVWF  FA9
1093A:  BCF    FA6.6
1093C:  BCF    FA6.7
1093E:  BSF    FA6.0
10940:  MOVF   FA8,W
10942:  MOVLB  7
10944:  BTFSC  x27.7
10946:  BSF    FF2.7
10948:  MOVLB  6
1094A:  MOVWF  x7E
....................    delay_ms(10); 
1094C:  MOVLW  0A
1094E:  MOVLB  7
10950:  MOVWF  x2D
10952:  MOVLB  0
10954:  CALL   30A6
....................    Ajusten=read_eeprom(22); 
10958:  MOVFF  FF2,727
1095C:  BCF    FF2.7
1095E:  CLRF   FAA
10960:  MOVLW  16
10962:  MOVWF  FA9
10964:  BCF    FA6.6
10966:  BCF    FA6.7
10968:  BSF    FA6.0
1096A:  MOVF   FA8,W
1096C:  MOVLB  7
1096E:  BTFSC  x27.7
10970:  BSF    FF2.7
10972:  MOVLB  6
10974:  MOVWF  x7F
....................    delay_ms(10); 
10976:  MOVLW  0A
10978:  MOVLB  7
1097A:  MOVWF  x2D
1097C:  MOVLB  0
1097E:  CALL   30A6
....................    //Desvio=read_eeprom(23); 
....................    MediaMovil=read_eeprom(24); 
10982:  MOVFF  FF2,727
10986:  BCF    FF2.7
10988:  CLRF   FAA
1098A:  MOVLW  18
1098C:  MOVWF  FA9
1098E:  BCF    FA6.6
10990:  BCF    FA6.7
10992:  BSF    FA6.0
10994:  MOVF   FA8,W
10996:  MOVLB  7
10998:  BTFSC  x27.7
1099A:  BSF    FF2.7
1099C:  MOVLB  6
1099E:  MOVWF  x80
....................    delay_ms(10); 
109A0:  MOVLW  0A
109A2:  MOVLB  7
109A4:  MOVWF  x2D
109A6:  MOVLB  0
109A8:  CALL   30A6
....................    Tciclo=read_eeprom(25); 
109AC:  MOVFF  FF2,727
109B0:  BCF    FF2.7
109B2:  CLRF   FAA
109B4:  MOVLW  19
109B6:  MOVWF  FA9
109B8:  BCF    FA6.6
109BA:  BCF    FA6.7
109BC:  BSF    FA6.0
109BE:  MOVF   FA8,W
109C0:  MOVLB  7
109C2:  BTFSC  x27.7
109C4:  BSF    FF2.7
109C6:  CLRF   x2E
109C8:  MOVWF  x2D
109CA:  MOVLB  0
109CC:  CALL   30CE
109D0:  MOVFF  03,690
109D4:  MOVFF  02,68F
109D8:  MOVFF  01,68E
109DC:  MOVFF  00,68D
....................    delay_ms(10); 
109E0:  MOVLW  0A
109E2:  MOVLB  7
109E4:  MOVWF  x2D
109E6:  MOVLB  0
109E8:  CALL   30A6
....................    Integral=read_eeprom(26); 
109EC:  MOVFF  FF2,727
109F0:  BCF    FF2.7
109F2:  CLRF   FAA
109F4:  MOVLW  1A
109F6:  MOVWF  FA9
109F8:  BCF    FA6.6
109FA:  BCF    FA6.7
109FC:  BSF    FA6.0
109FE:  MOVF   FA8,W
10A00:  MOVLB  7
10A02:  BTFSC  x27.7
10A04:  BSF    FF2.7
10A06:  MOVLB  6
10A08:  MOVWF  xD5
....................    delay_ms(10); 
10A0A:  MOVLW  0A
10A0C:  MOVLB  7
10A0E:  MOVWF  x2D
10A10:  MOVLB  0
10A12:  CALL   30A6
....................    Derivativo=read_eeprom(27); 
10A16:  MOVFF  FF2,727
10A1A:  BCF    FF2.7
10A1C:  CLRF   FAA
10A1E:  MOVLW  1B
10A20:  MOVWF  FA9
10A22:  BCF    FA6.6
10A24:  BCF    FA6.7
10A26:  BSF    FA6.0
10A28:  MOVF   FA8,W
10A2A:  MOVLB  7
10A2C:  BTFSC  x27.7
10A2E:  BSF    FF2.7
10A30:  MOVLB  6
10A32:  MOVWF  xD6
....................    delay_ms(10); 
10A34:  MOVLW  0A
10A36:  MOVLB  7
10A38:  MOVWF  x2D
10A3A:  MOVLB  0
10A3C:  CALL   30A6
....................    Temporal=read_eeprom(29); 
10A40:  MOVFF  FF2,727
10A44:  BCF    FF2.7
10A46:  CLRF   FAA
10A48:  MOVLW  1D
10A4A:  MOVWF  FA9
10A4C:  BCF    FA6.6
10A4E:  BCF    FA6.7
10A50:  BSF    FA6.0
10A52:  MOVF   FA8,W
10A54:  MOVLB  7
10A56:  BTFSC  x27.7
10A58:  BSF    FF2.7
10A5A:  CLRF   x2E
10A5C:  MOVWF  x2D
10A5E:  MOVLB  0
10A60:  CALL   30CE
10A64:  MOVFF  03,667
10A68:  MOVFF  02,666
10A6C:  MOVFF  01,665
10A70:  MOVFF  00,664
....................    Temporal=Temporal/10.0; 
10A74:  MOVFF  667,72F
10A78:  MOVFF  666,72E
10A7C:  MOVFF  665,72D
10A80:  MOVFF  664,72C
10A84:  MOVLB  7
10A86:  CLRF   x33
10A88:  CLRF   x32
10A8A:  MOVLW  20
10A8C:  MOVWF  x31
10A8E:  MOVLW  82
10A90:  MOVWF  x30
10A92:  MOVLB  0
10A94:  CALL   3104
10A98:  MOVFF  03,667
10A9C:  MOVFF  02,666
10AA0:  MOVFF  01,665
10AA4:  MOVFF  00,664
....................    delay_ms(10); 
10AA8:  MOVLW  0A
10AAA:  MOVLB  7
10AAC:  MOVWF  x2D
10AAE:  MOVLB  0
10AB0:  CALL   30A6
....................    Gain=read_eeprom(28)+Temporal; 
10AB4:  MOVFF  FF2,727
10AB8:  BCF    FF2.7
10ABA:  CLRF   FAA
10ABC:  MOVLW  1C
10ABE:  MOVWF  FA9
10AC0:  BCF    FA6.6
10AC2:  BCF    FA6.7
10AC4:  BSF    FA6.0
10AC6:  MOVF   FA8,W
10AC8:  MOVLB  7
10ACA:  BTFSC  x27.7
10ACC:  BSF    FF2.7
10ACE:  CLRF   x2E
10AD0:  MOVWF  x2D
10AD2:  MOVLB  0
10AD4:  CALL   30CE
10AD8:  BCF    FD8.1
10ADA:  MOVFF  03,72F
10ADE:  MOVFF  02,72E
10AE2:  MOVFF  01,72D
10AE6:  MOVFF  00,72C
10AEA:  MOVFF  667,733
10AEE:  MOVFF  666,732
10AF2:  MOVFF  665,731
10AF6:  MOVFF  664,730
10AFA:  CALL   3262
10AFE:  MOVFF  03,65F
10B02:  MOVFF  02,65E
10B06:  MOVFF  01,65D
10B0A:  MOVFF  00,65C
....................    delay_ms(10); 
10B0E:  MOVLW  0A
10B10:  MOVLB  7
10B12:  MOVWF  x2D
10B14:  MOVLB  0
10B16:  CALL   30A6
....................    R1=make16(read_eeprom(31),read_eeprom(30)); 
10B1A:  MOVFF  FF2,727
10B1E:  BCF    FF2.7
10B20:  CLRF   FAA
10B22:  MOVLW  1F
10B24:  MOVWF  FA9
10B26:  BCF    FA6.6
10B28:  BCF    FA6.7
10B2A:  BSF    FA6.0
10B2C:  MOVF   FA8,W
10B2E:  MOVLB  7
10B30:  BTFSC  x27.7
10B32:  BSF    FF2.7
10B34:  MOVWF  x28
10B36:  MOVFF  FF2,729
10B3A:  BCF    FF2.7
10B3C:  CLRF   FAA
10B3E:  MOVLW  1E
10B40:  MOVWF  FA9
10B42:  BCF    FA6.6
10B44:  BCF    FA6.7
10B46:  BSF    FA6.0
10B48:  MOVF   FA8,W
10B4A:  BTFSC  x29.7
10B4C:  BSF    FF2.7
10B4E:  MOVWF  x2A
10B50:  MOVFF  728,03
10B54:  MOVF   x2A,W
10B56:  MOVWF  x2D
10B58:  MOVFF  03,72E
10B5C:  MOVLB  0
10B5E:  CALL   30CE
10B62:  MOVFF  03,688
10B66:  MOVFF  02,687
10B6A:  MOVFF  01,686
10B6E:  MOVFF  00,685
....................    delay_ms(10); 
10B72:  MOVLW  0A
10B74:  MOVLB  7
10B76:  MOVWF  x2D
10B78:  MOVLB  0
10B7A:  CALL   30A6
....................    Temporal=read_eeprom(33); 
10B7E:  MOVFF  FF2,727
10B82:  BCF    FF2.7
10B84:  CLRF   FAA
10B86:  MOVLW  21
10B88:  MOVWF  FA9
10B8A:  BCF    FA6.6
10B8C:  BCF    FA6.7
10B8E:  BSF    FA6.0
10B90:  MOVF   FA8,W
10B92:  MOVLB  7
10B94:  BTFSC  x27.7
10B96:  BSF    FF2.7
10B98:  CLRF   x2E
10B9A:  MOVWF  x2D
10B9C:  MOVLB  0
10B9E:  CALL   30CE
10BA2:  MOVFF  03,667
10BA6:  MOVFF  02,666
10BAA:  MOVFF  01,665
10BAE:  MOVFF  00,664
....................    Temporal=Temporal/10.0; 
10BB2:  MOVFF  667,72F
10BB6:  MOVFF  666,72E
10BBA:  MOVFF  665,72D
10BBE:  MOVFF  664,72C
10BC2:  MOVLB  7
10BC4:  CLRF   x33
10BC6:  CLRF   x32
10BC8:  MOVLW  20
10BCA:  MOVWF  x31
10BCC:  MOVLW  82
10BCE:  MOVWF  x30
10BD0:  MOVLB  0
10BD2:  CALL   3104
10BD6:  MOVFF  03,667
10BDA:  MOVFF  02,666
10BDE:  MOVFF  01,665
10BE2:  MOVFF  00,664
....................    delay_ms(10); 
10BE6:  MOVLW  0A
10BE8:  MOVLB  7
10BEA:  MOVWF  x2D
10BEC:  MOVLB  0
10BEE:  CALL   30A6
....................    RPT100=read_eeprom(32)+Temporal; 
10BF2:  MOVFF  FF2,727
10BF6:  BCF    FF2.7
10BF8:  CLRF   FAA
10BFA:  MOVLW  20
10BFC:  MOVWF  FA9
10BFE:  BCF    FA6.6
10C00:  BCF    FA6.7
10C02:  BSF    FA6.0
10C04:  MOVF   FA8,W
10C06:  MOVLB  7
10C08:  BTFSC  x27.7
10C0A:  BSF    FF2.7
10C0C:  CLRF   x2E
10C0E:  MOVWF  x2D
10C10:  MOVLB  0
10C12:  CALL   30CE
10C16:  BCF    FD8.1
10C18:  MOVFF  03,72F
10C1C:  MOVFF  02,72E
10C20:  MOVFF  01,72D
10C24:  MOVFF  00,72C
10C28:  MOVFF  667,733
10C2C:  MOVFF  666,732
10C30:  MOVFF  665,731
10C34:  MOVFF  664,730
10C38:  CALL   3262
10C3C:  MOVFF  03,663
10C40:  MOVFF  02,662
10C44:  MOVFF  01,661
10C48:  MOVFF  00,660
....................    delay_ms(10); 
10C4C:  MOVLW  0A
10C4E:  MOVLB  7
10C50:  MOVWF  x2D
10C52:  MOVLB  0
10C54:  CALL   30A6
....................    Atmosferica=(int8)read_eeprom(34); 
10C58:  MOVFF  FF2,727
10C5C:  BCF    FF2.7
10C5E:  CLRF   FAA
10C60:  MOVLW  22
10C62:  MOVWF  FA9
10C64:  BCF    FA6.6
10C66:  BCF    FA6.7
10C68:  BSF    FA6.0
10C6A:  MOVF   FA8,W
10C6C:  MOVLB  7
10C6E:  BTFSC  x27.7
10C70:  BSF    FF2.7
10C72:  MOVLB  6
10C74:  MOVWF  xE6
....................    delay_ms(10); 
10C76:  MOVLW  0A
10C78:  MOVLB  7
10C7A:  MOVWF  x2D
10C7C:  MOVLB  0
10C7E:  CALL   30A6
....................    CantidadPulsos=read_eeprom(35); 
10C82:  MOVFF  FF2,727
10C86:  BCF    FF2.7
10C88:  CLRF   FAA
10C8A:  MOVLW  23
10C8C:  MOVWF  FA9
10C8E:  BCF    FA6.6
10C90:  BCF    FA6.7
10C92:  BSF    FA6.0
10C94:  MOVF   FA8,W
10C96:  MOVLB  7
10C98:  BTFSC  x27.7
10C9A:  BSF    FF2.7
10C9C:  MOVLB  6
10C9E:  MOVWF  xDD
....................    delay_ms(10); 
10CA0:  MOVLW  0A
10CA2:  MOVLB  7
10CA4:  MOVWF  x2D
10CA6:  MOVLB  0
10CA8:  CALL   30A6
....................    NivelVacio=read_eeprom(36); 
10CAC:  MOVFF  FF2,727
10CB0:  BCF    FF2.7
10CB2:  CLRF   FAA
10CB4:  MOVLW  24
10CB6:  MOVWF  FA9
10CB8:  BCF    FA6.6
10CBA:  BCF    FA6.7
10CBC:  BSF    FA6.0
10CBE:  MOVF   FA8,W
10CC0:  MOVLB  7
10CC2:  BTFSC  x27.7
10CC4:  BSF    FF2.7
10CC6:  MOVLB  6
10CC8:  MOVWF  xDE
....................    delay_ms(10); 
10CCA:  MOVLW  0A
10CCC:  MOVLB  7
10CCE:  MOVWF  x2D
10CD0:  MOVLB  0
10CD2:  CALL   30A6
....................    CiclosL=read_eeprom(37); 
10CD6:  MOVFF  FF2,727
10CDA:  BCF    FF2.7
10CDC:  CLRF   FAA
10CDE:  MOVLW  25
10CE0:  MOVWF  FA9
10CE2:  BCF    FA6.6
10CE4:  BCF    FA6.7
10CE6:  BSF    FA6.0
10CE8:  MOVF   FA8,W
10CEA:  MOVLB  7
10CEC:  BTFSC  x27.7
10CEE:  BSF    FF2.7
10CF0:  MOVLB  6
10CF2:  MOVWF  xDF
....................    delay_ms(10); 
10CF4:  MOVLW  0A
10CF6:  MOVLB  7
10CF8:  MOVWF  x2D
10CFA:  MOVLB  0
10CFC:  CALL   30A6
....................    CiclosH=read_eeprom(38); 
10D00:  MOVFF  FF2,727
10D04:  BCF    FF2.7
10D06:  CLRF   FAA
10D08:  MOVLW  26
10D0A:  MOVWF  FA9
10D0C:  BCF    FA6.6
10D0E:  BCF    FA6.7
10D10:  BSF    FA6.0
10D12:  MOVF   FA8,W
10D14:  MOVLB  7
10D16:  BTFSC  x27.7
10D18:  BSF    FF2.7
10D1A:  MOVLB  6
10D1C:  MOVWF  xE0
....................    delay_ms(10); 
10D1E:  MOVLW  0A
10D20:  MOVLB  7
10D22:  MOVWF  x2D
10D24:  MOVLB  0
10D26:  CALL   30A6
....................    Ciclos=make16(CiclosH,CiclosL); 
10D2A:  MOVFF  6E0,6F9
10D2E:  MOVFF  6DF,6F8
....................     
....................    if(Testerilizacionp[0]>9)Testerilizacionp[0]=0; 
10D32:  MOVLB  4
10D34:  BTFSC  x70.7
10D36:  GOTO   10D42
10D3A:  MOVF   x70,W
10D3C:  SUBLW  09
10D3E:  BTFSS  FD8.0
10D40:  CLRF   x70
....................    if(Testerilizacionp[1]>9)Testerilizacionp[1]=0; 
10D42:  BTFSC  x71.7
10D44:  GOTO   10D50
10D48:  MOVF   x71,W
10D4A:  SUBLW  09
10D4C:  BTFSS  FD8.0
10D4E:  CLRF   x71
....................    if(Testerilizacionp[2]>9)Testerilizacionp[2]=0; 
10D50:  BTFSC  x72.7
10D52:  GOTO   10D5E
10D56:  MOVF   x72,W
10D58:  SUBLW  09
10D5A:  BTFSS  FD8.0
10D5C:  CLRF   x72
....................    if(Testerilizacionp[3]>9)Testerilizacionp[3]=0; 
10D5E:  BTFSC  x73.7
10D60:  GOTO   10D6C
10D64:  MOVF   x73,W
10D66:  SUBLW  09
10D68:  BTFSS  FD8.0
10D6A:  CLRF   x73
....................    if(Password[0]>9)Password[0]=0; 
10D6C:  MOVLB  7
10D6E:  BTFSC  x00.7
10D70:  GOTO   10D7C
10D74:  MOVF   x00,W
10D76:  SUBLW  09
10D78:  BTFSS  FD8.0
10D7A:  CLRF   x00
....................    if(Password[1]>9)Password[1]=0; 
10D7C:  BTFSC  x01.7
10D7E:  GOTO   10D8A
10D82:  MOVF   x01,W
10D84:  SUBLW  09
10D86:  BTFSS  FD8.0
10D88:  CLRF   x01
....................    if(Password[2]>9)Password[2]=0; 
10D8A:  BTFSC  x02.7
10D8C:  GOTO   10D98
10D90:  MOVF   x02,W
10D92:  SUBLW  09
10D94:  BTFSS  FD8.0
10D96:  CLRF   x02
....................    if(Password[3]>9)Password[3]=0; 
10D98:  BTFSC  x03.7
10D9A:  GOTO   10DA6
10D9E:  MOVF   x03,W
10DA0:  SUBLW  09
10DA2:  BTFSS  FD8.0
10DA4:  CLRF   x03
....................    if(Ganancia>20.0)Ganancia=15.0; 
10DA6:  CLRF   x2B
10DA8:  CLRF   x2A
10DAA:  MOVLW  20
10DAC:  MOVWF  x29
10DAE:  MOVLW  83
10DB0:  MOVWF  x28
10DB2:  MOVFF  6A8,72F
10DB6:  MOVFF  6A7,72E
10DBA:  MOVFF  6A6,72D
10DBE:  MOVFF  6A5,72C
10DC2:  MOVLB  0
10DC4:  CALL   34DA
10DC8:  BTFSS  FD8.0
10DCA:  GOTO   10DDC
10DCE:  MOVLB  6
10DD0:  CLRF   xA8
10DD2:  CLRF   xA7
10DD4:  MOVLW  70
10DD6:  MOVWF  xA6
10DD8:  MOVLW  82
10DDA:  MOVWF  xA5
....................    if(Integral>10.0)Integral=1.0; 
10DDC:  MOVLB  7
10DDE:  CLRF   x2E
10DE0:  MOVFF  6D5,72D
10DE4:  MOVLB  0
10DE6:  CALL   30CE
10DEA:  MOVLB  7
10DEC:  CLRF   x2B
10DEE:  CLRF   x2A
10DF0:  MOVLW  20
10DF2:  MOVWF  x29
10DF4:  MOVLW  82
10DF6:  MOVWF  x28
10DF8:  MOVFF  03,72F
10DFC:  MOVFF  02,72E
10E00:  MOVFF  01,72D
10E04:  MOVFF  00,72C
10E08:  MOVLB  0
10E0A:  CALL   34DA
10E0E:  BTFSS  FD8.0
10E10:  GOTO   10E1A
10E14:  MOVLW  01
10E16:  MOVLB  6
10E18:  MOVWF  xD5
....................    if(Derivativo>90.0)Derivativo=15.0; 
10E1A:  MOVLB  7
10E1C:  CLRF   x2E
10E1E:  MOVFF  6D6,72D
10E22:  MOVLB  0
10E24:  CALL   30CE
10E28:  MOVLB  7
10E2A:  CLRF   x2B
10E2C:  CLRF   x2A
10E2E:  MOVLW  34
10E30:  MOVWF  x29
10E32:  MOVLW  85
10E34:  MOVWF  x28
10E36:  MOVFF  03,72F
10E3A:  MOVFF  02,72E
10E3E:  MOVFF  01,72D
10E42:  MOVFF  00,72C
10E46:  MOVLB  0
10E48:  CALL   34DA
10E4C:  BTFSS  FD8.0
10E4E:  GOTO   10E58
10E52:  MOVLW  0F
10E54:  MOVLB  6
10E56:  MOVWF  xD6
....................    if(Tciclo>10)Tciclo=10; 
10E58:  MOVLB  7
10E5A:  CLRF   x2B
10E5C:  CLRF   x2A
10E5E:  MOVLW  20
10E60:  MOVWF  x29
10E62:  MOVLW  82
10E64:  MOVWF  x28
10E66:  MOVFF  690,72F
10E6A:  MOVFF  68F,72E
10E6E:  MOVFF  68E,72D
10E72:  MOVFF  68D,72C
10E76:  MOVLB  0
10E78:  CALL   34DA
10E7C:  BTFSS  FD8.0
10E7E:  GOTO   10E90
10E82:  MOVLB  6
10E84:  CLRF   x90
10E86:  CLRF   x8F
10E88:  MOVLW  20
10E8A:  MOVWF  x8E
10E8C:  MOVLW  82
10E8E:  MOVWF  x8D
....................    if(Ajuste>50)Ajuste=0; 
10E90:  MOVLB  6
10E92:  MOVF   x7E,W
10E94:  SUBLW  32
10E96:  BTFSS  FD8.0
10E98:  CLRF   x7E
....................    if(Ajusten>50)Ajusten=0; 
10E9A:  MOVF   x7F,W
10E9C:  SUBLW  32
10E9E:  BTFSS  FD8.0
10EA0:  CLRF   x7F
....................    if(MediaMovil>80)MediaMovil=80; 
10EA2:  MOVF   x80,W
10EA4:  SUBLW  50
10EA6:  BTFSC  FD8.0
10EA8:  GOTO   10EB0
10EAC:  MOVLW  50
10EAE:  MOVWF  x80
....................    if(Gain>50)Gain=40.2; 
10EB0:  MOVLB  7
10EB2:  CLRF   x2B
10EB4:  CLRF   x2A
10EB6:  MOVLW  48
10EB8:  MOVWF  x29
10EBA:  MOVLW  84
10EBC:  MOVWF  x28
10EBE:  MOVFF  65F,72F
10EC2:  MOVFF  65E,72E
10EC6:  MOVFF  65D,72D
10ECA:  MOVFF  65C,72C
10ECE:  MOVLB  0
10ED0:  CALL   34DA
10ED4:  BTFSS  FD8.0
10ED6:  GOTO   10EEC
10EDA:  MOVLW  CD
10EDC:  MOVLB  6
10EDE:  MOVWF  x5F
10EE0:  MOVLW  CC
10EE2:  MOVWF  x5E
10EE4:  MOVLW  20
10EE6:  MOVWF  x5D
10EE8:  MOVLW  84
10EEA:  MOVWF  x5C
....................    if(R1>6400)R1=6200; 
10EEC:  MOVLB  7
10EEE:  CLRF   x2B
10EF0:  CLRF   x2A
10EF2:  MOVLW  48
10EF4:  MOVWF  x29
10EF6:  MOVLW  8B
10EF8:  MOVWF  x28
10EFA:  MOVFF  688,72F
10EFE:  MOVFF  687,72E
10F02:  MOVFF  686,72D
10F06:  MOVFF  685,72C
10F0A:  MOVLB  0
10F0C:  CALL   34DA
10F10:  BTFSS  FD8.0
10F12:  GOTO   10F26
10F16:  MOVLB  6
10F18:  CLRF   x88
10F1A:  MOVLW  C0
10F1C:  MOVWF  x87
10F1E:  MOVLW  41
10F20:  MOVWF  x86
10F22:  MOVLW  8B
10F24:  MOVWF  x85
....................    if(RPT100>2.0)RPT100=0.5; 
10F26:  MOVLB  7
10F28:  CLRF   x2B
10F2A:  CLRF   x2A
10F2C:  CLRF   x29
10F2E:  MOVLW  80
10F30:  MOVWF  x28
10F32:  MOVFF  663,72F
10F36:  MOVFF  662,72E
10F3A:  MOVFF  661,72D
10F3E:  MOVFF  660,72C
10F42:  MOVLB  0
10F44:  CALL   34DA
10F48:  BTFSS  FD8.0
10F4A:  GOTO   10F5A
10F4E:  MOVLB  6
10F50:  CLRF   x63
10F52:  CLRF   x62
10F54:  CLRF   x61
10F56:  MOVLW  7E
10F58:  MOVWF  x60
....................    if(CantidadPulsos>10)CantidadPulsos=4; 
10F5A:  MOVLB  6
10F5C:  MOVF   xDD,W
10F5E:  SUBLW  0A
10F60:  BTFSC  FD8.0
10F62:  GOTO   10F6A
10F66:  MOVLW  04
10F68:  MOVWF  xDD
....................    if(NivelVacio>100)NivelVacio=25; 
10F6A:  MOVF   xDE,W
10F6C:  SUBLW  64
10F6E:  BTFSC  FD8.0
10F70:  GOTO   10F78
10F74:  MOVLW  19
10F76:  MOVWF  xDE
....................    if(Ciclos>60000)Ciclos=0; 
10F78:  MOVF   xF9,W
10F7A:  SUBLW  E9
10F7C:  BTFSC  FD8.0
10F7E:  GOTO   10F98
10F82:  XORLW  FF
10F84:  BTFSS  FD8.2
10F86:  GOTO   10F94
10F8A:  MOVF   xF8,W
10F8C:  SUBLW  60
10F8E:  BTFSC  FD8.0
10F90:  GOTO   10F98
10F94:  CLRF   xF9
10F96:  CLRF   xF8
....................     
....................    TiempoVacio=CantidadPulsos*1200; 
10F98:  MOVLB  7
10F9A:  CLRF   x2D
10F9C:  MOVFF  6DD,72C
10FA0:  MOVLW  04
10FA2:  MOVWF  x2F
10FA4:  MOVLW  B0
10FA6:  MOVWF  x2E
10FA8:  MOVLB  0
10FAA:  CALL   3554
10FAE:  MOVFF  02,45F
10FB2:  MOVFF  01,45E
....................     
....................    EVVacio=OFF;EVAire=OFF;EVAgua=OFF;SSR2=OFF;SSR3=OFF;Buzzer=OFF;EVAireBomba=OFF; 
10FB6:  MOVLB  4
10FB8:  BCF    x64.2
10FBA:  BCF    x64.3
10FBC:  BCF    x64.4
10FBE:  BCF    x64.5
10FC0:  BCF    x64.6
10FC2:  BCF    x64.7
10FC4:  BCF    x65.0
....................    Envio_Esclavos(); 
10FC6:  MOVLB  0
10FC8:  CALL   38C0
.................... //Mensaje Bienvenida//-----------------------------    
....................    glcd_init(ON);             //Inicializa la glcd 
10FCC:  MOVLW  01
10FCE:  MOVLB  7
10FD0:  MOVWF  x27
10FD2:  MOVLB  0
10FD4:  CALL   3A48
....................    glcd_fillScreen(OFF);      //Limpia la pantalla 
10FD8:  MOVLB  7
10FDA:  CLRF   x28
10FDC:  MOVLB  0
10FDE:  CALL   3936
....................    strcpy(Menus.Letra,"JP Inglobal"); 
10FE2:  MOVLW  07
10FE4:  MOVWF  FEA
10FE6:  MOVLW  12
10FE8:  MOVWF  FE9
10FEA:  MOVFF  FF2,727
10FEE:  BCF    FF2.7
10FF0:  MOVLW  00
10FF2:  CALL   2E62
10FF6:  TBLRD*-
10FF8:  TBLRD*+
10FFA:  MOVF   FF5,W
10FFC:  MOVWF  FEE
10FFE:  IORLW  00
11000:  BTFSS  FD8.2
11002:  GOTO   10FF8
11006:  MOVLB  7
11008:  BTFSC  x27.7
1100A:  BSF    FF2.7
....................    displayMenu(Menus.Letra,0,0,0,2);      
1100C:  MOVLW  07
1100E:  MOVWF  x28
11010:  MOVLW  12
11012:  MOVWF  x27
11014:  CLRF   x29
11016:  CLRF   x2A
11018:  CLRF   x2B
1101A:  MOVLW  02
1101C:  MOVWF  x2C
1101E:  MOVLB  0
11020:  CALL   3F64
....................    strcpy(Menus.Letra,"Autoclave Horizontal"); 
11024:  MOVLW  07
11026:  MOVWF  FEA
11028:  MOVLW  12
1102A:  MOVWF  FE9
1102C:  MOVFF  FF2,727
11030:  BCF    FF2.7
11032:  MOVLW  00
11034:  CALL   2E8C
11038:  TBLRD*-
1103A:  TBLRD*+
1103C:  MOVF   FF5,W
1103E:  MOVWF  FEE
11040:  IORLW  00
11042:  BTFSS  FD8.2
11044:  GOTO   1103A
11048:  MOVLB  7
1104A:  BTFSC  x27.7
1104C:  BSF    FF2.7
....................    displayMenu(Menus.Letra,0,20,0,1);        
1104E:  MOVLW  07
11050:  MOVWF  x28
11052:  MOVLW  12
11054:  MOVWF  x27
11056:  CLRF   x29
11058:  MOVLW  14
1105A:  MOVWF  x2A
1105C:  CLRF   x2B
1105E:  MOVLW  01
11060:  MOVWF  x2C
11062:  MOVLB  0
11064:  CALL   3F64
....................    strcpy(Menus.Letra," 85 Litros  "); 
11068:  MOVLW  07
1106A:  MOVWF  FEA
1106C:  MOVLW  12
1106E:  MOVWF  FE9
11070:  MOVFF  FF2,727
11074:  BCF    FF2.7
11076:  MOVLW  00
11078:  CALL   2EC0
1107C:  TBLRD*-
1107E:  TBLRD*+
11080:  MOVF   FF5,W
11082:  MOVWF  FEE
11084:  IORLW  00
11086:  BTFSS  FD8.2
11088:  GOTO   1107E
1108C:  MOVLB  7
1108E:  BTFSC  x27.7
11090:  BSF    FF2.7
....................    displayMenu(Menus.Letra,0,35,0,2); 
11092:  MOVLW  07
11094:  MOVWF  x28
11096:  MOVLW  12
11098:  MOVWF  x27
1109A:  CLRF   x29
1109C:  MOVLW  23
1109E:  MOVWF  x2A
110A0:  CLRF   x2B
110A2:  MOVLW  02
110A4:  MOVWF  x2C
110A6:  MOVLB  0
110A8:  CALL   3F64
....................    delay_ms(3000); 
110AC:  MOVLW  0C
110AE:  MOVLB  7
110B0:  MOVWF  x27
110B2:  MOVLW  FA
110B4:  MOVWF  x2D
110B6:  MOVLB  0
110B8:  CALL   30A6
110BC:  MOVLB  7
110BE:  DECFSZ x27,F
110C0:  BRA    110B2
....................    glcd_fillScreen(OFF);      //Limpia la pantalla 
110C2:  CLRF   x28
110C4:  MOVLB  0
110C6:  CALL   3936
....................    displayContrasena(Contrasena[0],20,30,1); 
110CA:  MOVFF  6FC,729
110CE:  MOVLW  14
110D0:  MOVLB  7
110D2:  MOVWF  x2A
110D4:  MOVLW  1E
110D6:  MOVWF  x2B
110D8:  MOVLW  01
110DA:  MOVWF  x2C
110DC:  MOVLB  0
110DE:  CALL   418A
....................    displayContrasena(Contrasena[1],40,30,0); 
110E2:  MOVFF  6FD,729
110E6:  MOVLW  28
110E8:  MOVLB  7
110EA:  MOVWF  x2A
110EC:  MOVLW  1E
110EE:  MOVWF  x2B
110F0:  CLRF   x2C
110F2:  MOVLB  0
110F4:  CALL   418A
....................    displayContrasena(Contrasena[2],60,30,0); 
110F8:  MOVFF  6FE,729
110FC:  MOVLW  3C
110FE:  MOVLB  7
11100:  MOVWF  x2A
11102:  MOVLW  1E
11104:  MOVWF  x2B
11106:  CLRF   x2C
11108:  MOVLB  0
1110A:  CALL   418A
....................    displayContrasena(Contrasena[3],80,30,0); 
1110E:  MOVFF  6FF,729
11112:  MOVLW  50
11114:  MOVLB  7
11116:  MOVWF  x2A
11118:  MOVLW  1E
1111A:  MOVWF  x2B
1111C:  CLRF   x2C
1111E:  MOVLB  0
11120:  CALL   418A
....................     
....................    if(UP){ 
11124:  BSF    F92.4
11126:  BTFSC  F80.4
11128:  GOTO   111B4
....................       delay_ms(500); 
1112C:  MOVLW  02
1112E:  MOVLB  7
11130:  MOVWF  x27
11132:  MOVLW  FA
11134:  MOVWF  x2D
11136:  MOVLB  0
11138:  CALL   30A6
1113C:  MOVLB  7
1113E:  DECFSZ x27,F
11140:  BRA    11132
....................       glcd_fillScreen(OFF); 
11142:  CLRF   x28
11144:  MOVLB  0
11146:  CALL   3936
....................       strcpy(Menus.Letra,"Cargando.."); 
1114A:  MOVLW  07
1114C:  MOVWF  FEA
1114E:  MOVLW  12
11150:  MOVWF  FE9
11152:  MOVFF  FF2,727
11156:  BCF    FF2.7
11158:  MOVLW  00
1115A:  CALL   2EEC
1115E:  TBLRD*-
11160:  TBLRD*+
11162:  MOVF   FF5,W
11164:  MOVWF  FEE
11166:  IORLW  00
11168:  BTFSS  FD8.2
1116A:  GOTO   11160
1116E:  MOVLB  7
11170:  BTFSC  x27.7
11172:  BSF    FF2.7
....................       displayMenu(Menus.Letra,0,30,1,1); 
11174:  MOVLW  07
11176:  MOVWF  x28
11178:  MOVLW  12
1117A:  MOVWF  x27
1117C:  CLRF   x29
1117E:  MOVLW  1E
11180:  MOVWF  x2A
11182:  MOVLW  01
11184:  MOVWF  x2B
11186:  MOVWF  x2C
11188:  MOVLB  0
1118A:  CALL   3F64
....................       delay_ms(2000); 
1118E:  MOVLW  08
11190:  MOVLB  7
11192:  MOVWF  x27
11194:  MOVLW  FA
11196:  MOVWF  x2D
11198:  MOVLB  0
1119A:  CALL   30A6
1119E:  MOVLB  7
111A0:  DECFSZ x27,F
111A2:  BRA    11194
....................       Menu=211; 
111A4:  MOVLW  D3
111A6:  MOVLB  6
111A8:  MOVWF  xE1
....................       glcd_fillScreen(OFF); 
111AA:  MOVLB  7
111AC:  CLRF   x28
111AE:  MOVLB  0
111B0:  CALL   3936
....................    } 
....................     
....................    if(DOWN)// && RIGHT && LEFT) 
111B4:  BSF    F92.5
111B6:  BTFSC  F80.5
111B8:  GOTO   11244
....................    { 
....................       delay_ms(500); 
111BC:  MOVLW  02
111BE:  MOVLB  7
111C0:  MOVWF  x27
111C2:  MOVLW  FA
111C4:  MOVWF  x2D
111C6:  MOVLB  0
111C8:  CALL   30A6
111CC:  MOVLB  7
111CE:  DECFSZ x27,F
111D0:  BRA    111C2
....................       glcd_fillScreen(OFF); 
111D2:  CLRF   x28
111D4:  MOVLB  0
111D6:  CALL   3936
....................       strcpy(Menus.Letra,"Cargando.."); 
111DA:  MOVLW  07
111DC:  MOVWF  FEA
111DE:  MOVLW  12
111E0:  MOVWF  FE9
111E2:  MOVFF  FF2,727
111E6:  BCF    FF2.7
111E8:  MOVLW  00
111EA:  CALL   2EEC
111EE:  TBLRD*-
111F0:  TBLRD*+
111F2:  MOVF   FF5,W
111F4:  MOVWF  FEE
111F6:  IORLW  00
111F8:  BTFSS  FD8.2
111FA:  GOTO   111F0
111FE:  MOVLB  7
11200:  BTFSC  x27.7
11202:  BSF    FF2.7
....................       displayMenu(Menus.Letra,0,30,1,1); 
11204:  MOVLW  07
11206:  MOVWF  x28
11208:  MOVLW  12
1120A:  MOVWF  x27
1120C:  CLRF   x29
1120E:  MOVLW  1E
11210:  MOVWF  x2A
11212:  MOVLW  01
11214:  MOVWF  x2B
11216:  MOVWF  x2C
11218:  MOVLB  0
1121A:  CALL   3F64
....................       delay_ms(2000); 
1121E:  MOVLW  08
11220:  MOVLB  7
11222:  MOVWF  x27
11224:  MOVLW  FA
11226:  MOVWF  x2D
11228:  MOVLB  0
1122A:  CALL   30A6
1122E:  MOVLB  7
11230:  DECFSZ x27,F
11232:  BRA    11224
....................       Menu=100; 
11234:  MOVLW  64
11236:  MOVLB  6
11238:  MOVWF  xE1
....................       glcd_fillScreen(OFF); 
1123A:  MOVLB  7
1123C:  CLRF   x28
1123E:  MOVLB  0
11240:  CALL   3936
....................    } 
....................     
....................    for(i=0;i<MediaMovil;i++){ 
11244:  MOVLB  6
11246:  CLRF   xE3
11248:  MOVF   x80,W
1124A:  SUBWF  xE3,W
1124C:  BTFSC  FD8.0
1124E:  GOTO   11274
....................       Temperatura=LeerPT100(MediaMovil); 
11252:  MOVFF  680,727
11256:  MOVLB  0
11258:  CALL   4306
1125C:  MOVFF  03,6C4
11260:  MOVFF  02,6C3
11264:  MOVFF  01,6C2
11268:  MOVFF  00,6C1
....................    } 
1126C:  MOVLB  6
1126E:  INCF   xE3,F
11270:  GOTO   11248
....................     
....................    if(LEFT){ 
11274:  BSF    F96.1
11276:  BTFSC  F84.1
11278:  GOTO   11306
....................       delay_ms(500); 
1127C:  MOVLW  02
1127E:  MOVLB  7
11280:  MOVWF  x27
11282:  MOVLW  FA
11284:  MOVWF  x2D
11286:  MOVLB  0
11288:  CALL   30A6
1128C:  MOVLB  7
1128E:  DECFSZ x27,F
11290:  BRA    11282
....................       glcd_fillScreen(OFF); 
11292:  CLRF   x28
11294:  MOVLB  0
11296:  CALL   3936
....................       strcpy(Menus.Letra,"Cargando.."); 
1129A:  MOVLW  07
1129C:  MOVWF  FEA
1129E:  MOVLW  12
112A0:  MOVWF  FE9
112A2:  MOVFF  FF2,727
112A6:  BCF    FF2.7
112A8:  MOVLW  00
112AA:  CALL   2EEC
112AE:  TBLRD*-
112B0:  TBLRD*+
112B2:  MOVF   FF5,W
112B4:  MOVWF  FEE
112B6:  IORLW  00
112B8:  BTFSS  FD8.2
112BA:  GOTO   112B0
112BE:  MOVLB  7
112C0:  BTFSC  x27.7
112C2:  BSF    FF2.7
....................       displayMenu(Menus.Letra,0,30,1,1); 
112C4:  MOVLW  07
112C6:  MOVWF  x28
112C8:  MOVLW  12
112CA:  MOVWF  x27
112CC:  CLRF   x29
112CE:  MOVLW  1E
112D0:  MOVWF  x2A
112D2:  MOVLW  01
112D4:  MOVWF  x2B
112D6:  MOVWF  x2C
112D8:  MOVLB  0
112DA:  CALL   3F64
....................       delay_ms(2000); 
112DE:  MOVLW  08
112E0:  MOVLB  7
112E2:  MOVWF  x27
112E4:  MOVLW  FA
112E6:  MOVWF  x2D
112E8:  MOVLB  0
112EA:  CALL   30A6
112EE:  MOVLB  7
112F0:  DECFSZ x27,F
112F2:  BRA    112E4
....................       Menu=200; 
112F4:  MOVLW  C8
112F6:  MOVLB  6
112F8:  MOVWF  xE1
....................       glcd_fillScreen(OFF); 
112FA:  MOVLB  7
112FC:  CLRF   x28
112FE:  MOVLB  0
11300:  CALL   3936
11304:  MOVLB  6
....................    } 
....................     
....................    if(RIGHT){ 
11306:  BSF    F96.0
11308:  BTFSC  F84.0
1130A:  GOTO   11396
....................       delay_ms(500); 
1130E:  MOVLW  02
11310:  MOVLB  7
11312:  MOVWF  x27
11314:  MOVLW  FA
11316:  MOVWF  x2D
11318:  MOVLB  0
1131A:  CALL   30A6
1131E:  MOVLB  7
11320:  DECFSZ x27,F
11322:  BRA    11314
....................       glcd_fillScreen(OFF); 
11324:  CLRF   x28
11326:  MOVLB  0
11328:  CALL   3936
....................       strcpy(Menus.Letra,"Cargando.."); 
1132C:  MOVLW  07
1132E:  MOVWF  FEA
11330:  MOVLW  12
11332:  MOVWF  FE9
11334:  MOVFF  FF2,727
11338:  BCF    FF2.7
1133A:  MOVLW  00
1133C:  CALL   2EEC
11340:  TBLRD*-
11342:  TBLRD*+
11344:  MOVF   FF5,W
11346:  MOVWF  FEE
11348:  IORLW  00
1134A:  BTFSS  FD8.2
1134C:  GOTO   11342
11350:  MOVLB  7
11352:  BTFSC  x27.7
11354:  BSF    FF2.7
....................       displayMenu(Menus.Letra,0,30,1,1); 
11356:  MOVLW  07
11358:  MOVWF  x28
1135A:  MOVLW  12
1135C:  MOVWF  x27
1135E:  CLRF   x29
11360:  MOVLW  1E
11362:  MOVWF  x2A
11364:  MOVLW  01
11366:  MOVWF  x2B
11368:  MOVWF  x2C
1136A:  MOVLB  0
1136C:  CALL   3F64
....................       delay_ms(2000); 
11370:  MOVLW  08
11372:  MOVLB  7
11374:  MOVWF  x27
11376:  MOVLW  FA
11378:  MOVWF  x2D
1137A:  MOVLB  0
1137C:  CALL   30A6
11380:  MOVLB  7
11382:  DECFSZ x27,F
11384:  BRA    11376
....................       Menu=210; 
11386:  MOVLW  D2
11388:  MOVLB  6
1138A:  MOVWF  xE1
....................       glcd_fillScreen(OFF); 
1138C:  MOVLB  7
1138E:  CLRF   x28
11390:  MOVLB  0
11392:  CALL   3936
....................    } 
....................  
....................    CorrePrograma(); 
11396:  MOVLB  0
11398:  GOTO   6758
.................... }    
....................  
....................  
1139C:  SLEEP 

Configuration Fuses:
   Word  1: 0200   HS NOIESO NOFCMEN
   Word  2: 1E1F   BROWNOUT NOWDT BORV20 NOPUT WDT32768
   Word  3: 0400   NOPBADEN LPT1OSC NOMCLR
   Word  4: 00B0   NOSTVREN NODEBUG NOLVP NOXINST BBSIZ4K
   Word  5: C03F   NOPROTECT NOCPD NOCPB
   Word  6: E03F   NOWRT NOWRTD NOWRTC NOWRTB
   Word  7: 403F   NOEBTR NOEBTRB
