CCS PCH C Compiler, Version 4.104, 5967               26-oct.-20 08:42

               Filename: D:\Laboratorio\Autoclave\Autoclaves Vertical\Sin Precamara\2020\Autoclave 50L Avantika Impresora Enfriamiento #0045883XX OP202085\Firmware V4.0\GLCD_Controller\GLCD_Controller.lst

               ROM used: 57098 bytes (58%)
                         Largest free fragment is 32768
               RAM used: 1793 (54%) at main() level
                         1846 (55%) worst case
               Stack:    5 worst case (4 in main + 1 for interrupts)

*
00000:  GOTO   7BAE
*
00008:  GOTO   00BA
0000C:  NOP   
0000E:  NOP   
00010:  NOP   
00012:  NOP   
00014:  NOP   
00016:  NOP   
00018:  MOVWF  04
0001A:  MOVFF  FD8,05
0001E:  MOVFF  FE0,06
00022:  MOVLB  0
00024:  MOVFF  FE9,0C
00028:  MOVFF  FEA,07
0002C:  MOVFF  FE1,08
00030:  MOVFF  FE2,09
00034:  MOVFF  FD9,0A
00038:  MOVFF  FDA,0B
0003C:  MOVFF  FF3,12
00040:  MOVFF  FF4,13
00044:  MOVFF  FFA,14
00048:  MOVFF  FFB,15
0004C:  MOVFF  00,0E
00050:  MOVFF  01,0F
00054:  MOVFF  02,10
00058:  MOVFF  03,11
0005C:  BTFSS  FF2.5
0005E:  GOTO   0068
00062:  BTFSC  FF2.2
00064:  GOTO   03B4
00068:  BTFSS  F9D.0
0006A:  GOTO   0074
0006E:  BTFSC  F9E.0
00070:  GOTO   040C
00074:  MOVFF  0E,00
00078:  MOVFF  0F,01
0007C:  MOVFF  10,02
00080:  MOVFF  11,03
00084:  MOVFF  0C,FE9
00088:  MOVFF  07,FEA
0008C:  BSF    07.7
0008E:  MOVFF  08,FE1
00092:  MOVFF  09,FE2
00096:  MOVFF  0A,FD9
0009A:  MOVFF  0B,FDA
0009E:  MOVFF  12,FF3
000A2:  MOVFF  13,FF4
000A6:  MOVFF  14,FFA
000AA:  MOVFF  15,FFB
000AE:  MOVF   04,W
000B0:  MOVFF  06,FE0
000B4:  MOVFF  05,FD8
000B8:  RETFIE 0
000BA:  MOVWF  17
000BC:  MOVFF  FD8,18
000C0:  MOVFF  FE0,19
000C4:  MOVLB  0
000C6:  MOVFF  FE9,1F
000CA:  MOVFF  FEA,1A
000CE:  MOVFF  FE1,1B
000D2:  MOVFF  FE2,1C
000D6:  MOVFF  FD9,1D
000DA:  MOVFF  FDA,1E
000DE:  MOVFF  FF3,25
000E2:  MOVFF  FF4,26
000E6:  MOVFF  FFA,27
000EA:  MOVFF  FFB,28
000EE:  MOVFF  00,21
000F2:  MOVFF  01,22
000F6:  MOVFF  02,23
000FA:  MOVFF  03,24
000FE:  BTFSS  F9D.5
00100:  GOTO   010A
00104:  BTFSC  F9E.5
00106:  GOTO   0346
0010A:  MOVFF  21,00
0010E:  MOVFF  22,01
00112:  MOVFF  23,02
00116:  MOVFF  24,03
0011A:  MOVFF  1F,FE9
0011E:  MOVFF  1A,FEA
00122:  BSF    1A.7
00124:  MOVFF  1B,FE1
00128:  MOVFF  1C,FE2
0012C:  MOVFF  1D,FD9
00130:  MOVFF  1E,FDA
00134:  MOVFF  25,FF3
00138:  MOVFF  26,FF4
0013C:  MOVFF  27,FFA
00140:  MOVFF  28,FFB
00144:  MOVF   17,W
00146:  MOVFF  19,FE0
0014A:  MOVFF  18,FD8
0014E:  RETFIE 0
.................... //Falta crear menu de ajuste de variables y de norma CFR21 
....................  
.................... #include <18F4685.h> 
.................... //////// Standard Header file for the PIC18F4685 device //////////////// 
.................... #device PIC18F4685 
.................... #list 
....................  
.................... #device adc=10 
.................... #device HIGH_INTS=TRUE //Activamos niveles de prioridad 
.................... #fuses HS,WDT8192,NOPROTECT,NOLVP,NODEBUG,NOSTVREN,NOPUT,NOCPD,NOWRT,NOIESO,NOFCMEN,NOPBADEN,NOWRTC,NOWRTB,NOEBTR,NOEBTRB,NOCPB,NOXINST,NOLPT1OSC,NOMCLR 
.................... #use delay(clock=20000000) 
*
01992:  MOVLW  07
01994:  MOVWF  FEA
01996:  MOVLW  10
01998:  MOVWF  FE9
0199A:  MOVF   FEF,W
0199C:  BZ    19B8
0199E:  MOVLW  06
019A0:  MOVWF  01
019A2:  CLRF   00
019A4:  DECFSZ 00,F
019A6:  BRA    19A4
019A8:  DECFSZ 01,F
019AA:  BRA    19A2
019AC:  MOVLW  7B
019AE:  MOVWF  00
019B0:  DECFSZ 00,F
019B2:  BRA    19B0
019B4:  DECFSZ FEF,F
019B6:  BRA    199E
019B8:  RETLW  00
.................... #use i2c(Master,slow,sda=PIN_C4,scl=PIN_C3) 
*
01A12:  MOVLW  08
01A14:  MOVWF  01
01A16:  MOVLW  05
01A18:  MOVWF  00
01A1A:  DECFSZ 00,F
01A1C:  BRA    1A1A
01A1E:  BCF    F8B.3
01A20:  BCF    F94.3
01A22:  MOVLW  06
01A24:  MOVWF  00
01A26:  DECFSZ 00,F
01A28:  BRA    1A26
01A2A:  MOVLB  7
01A2C:  RLCF   x11,F
01A2E:  BCF    F8B.4
01A30:  BTFSC  FD8.0
01A32:  BSF    F94.4
01A34:  BTFSS  FD8.0
01A36:  BCF    F94.4
01A38:  BSF    F94.3
01A3A:  BTFSS  F82.3
01A3C:  BRA    1A3A
01A3E:  DECFSZ 01,F
01A40:  BRA    1A44
01A42:  BRA    1A48
01A44:  MOVLB  0
01A46:  BRA    1A16
01A48:  MOVLW  05
01A4A:  MOVWF  00
01A4C:  DECFSZ 00,F
01A4E:  BRA    1A4C
01A50:  BCF    F8B.3
01A52:  BCF    F94.3
01A54:  NOP   
01A56:  BSF    F94.4
01A58:  MOVLW  06
01A5A:  MOVWF  00
01A5C:  DECFSZ 00,F
01A5E:  BRA    1A5C
01A60:  MOVLW  06
01A62:  MOVWF  00
01A64:  DECFSZ 00,F
01A66:  BRA    1A64
01A68:  BSF    F94.3
01A6A:  BTFSS  F82.3
01A6C:  BRA    1A6A
01A6E:  CLRF   01
01A70:  MOVLW  06
01A72:  MOVWF  00
01A74:  DECFSZ 00,F
01A76:  BRA    1A74
01A78:  BTFSC  F82.4
01A7A:  BSF    01.0
01A7C:  BCF    F8B.3
01A7E:  BCF    F94.3
01A80:  BCF    F8B.4
01A82:  BCF    F94.4
01A84:  MOVLB  0
01A86:  RETLW  00
01A88:  MOVLW  08
01A8A:  MOVLB  7
01A8C:  MOVWF  x09
01A8E:  MOVFF  00,70A
01A92:  BSF    F94.4
01A94:  MOVLW  06
01A96:  MOVWF  00
01A98:  DECFSZ 00,F
01A9A:  BRA    1A98
01A9C:  BSF    F94.3
01A9E:  BTFSS  F82.3
01AA0:  BRA    1A9E
01AA2:  BTFSC  F82.4
01AA4:  BSF    FD8.0
01AA6:  BTFSS  F82.4
01AA8:  BCF    FD8.0
01AAA:  RLCF   01,F
01AAC:  MOVLW  05
01AAE:  MOVWF  00
01AB0:  DECFSZ 00,F
01AB2:  BRA    1AB0
01AB4:  BCF    F94.3
01AB6:  BCF    F8B.3
01AB8:  DECFSZ x09,F
01ABA:  BRA    1A92
01ABC:  BSF    F94.4
01ABE:  MOVLW  06
01AC0:  MOVWF  00
01AC2:  DECFSZ 00,F
01AC4:  BRA    1AC2
01AC6:  BCF    F8B.4
01AC8:  MOVF   x0A,W
01ACA:  BTFSS  FD8.2
01ACC:  BCF    F94.4
01ACE:  NOP   
01AD0:  BSF    F94.3
01AD2:  BTFSS  F82.3
01AD4:  BRA    1AD2
01AD6:  MOVLW  05
01AD8:  MOVWF  00
01ADA:  DECFSZ 00,F
01ADC:  BRA    1ADA
01ADE:  BCF    F8B.3
01AE0:  BCF    F94.3
01AE2:  MOVLW  06
01AE4:  MOVWF  00
01AE6:  DECFSZ 00,F
01AE8:  BRA    1AE6
01AEA:  BCF    F8B.4
01AEC:  BCF    F94.4
01AEE:  MOVLB  0
01AF0:  GOTO   1B6E (RETURN)
.................... #use rs232(baud=9600, xmit=PIN_C6, rcv=PIN_C7, bits=8, parity=N) 
*
038F0:  BTFSS  F9E.4
038F2:  BRA    38F0
038F4:  MOVWF  FAD
038F6:  RETLW  00
....................  
.................... #include <stdio.h> 
.................... /////////////////////////////////////////////////////////////////////////// 
.................... ////        (C) Copyright 1996,2003 Custom Computer Services           //// 
.................... //// This source code may only be used by licensed users of the CCS C  //// 
.................... //// compiler.  This source code may only be distributed to other      //// 
.................... //// licensed users of the CCS C compiler.  No other use, reproduction //// 
.................... //// or distribution is permitted without written permission.          //// 
.................... //// Derivative programs created using this software in object code    //// 
.................... //// form are not restricted in any way.                               //// 
.................... /////////////////////////////////////////////////////////////////////////// 
....................  
.................... #ifndef _STDIO 
.................... #define _STDIO 
.................... #include <string.h> 
.................... //////////////////////////////////////////////////////////////////////////// 
.................... ////        (C) Copyright 1996,2008 Custom Computer Services            //// 
.................... //// This source code may only be used by licensed users of the CCS C   //// 
.................... //// compiler.  This source code may only be distributed to other       //// 
.................... //// licensed users of the CCS C compiler.  No other use, reproduction  //// 
.................... //// or distribution is permitted without written permission.           //// 
.................... //// Derivative programs created using this software in object code     //// 
.................... //// form are not restricted in any way.                                //// 
.................... //////////////////////////////////////////////////////////////////////////// 
....................  
.................... #ifndef _STRING 
.................... #define _STRING 
.................... #include <stddef.h> 
.................... /////////////////////////////////////////////////////////////////////////// 
.................... ////        (C) Copyright 1996,2003 Custom Computer Services           //// 
.................... //// This source code may only be used by licensed users of the CCS C  //// 
.................... //// compiler.  This source code may only be distributed to other      //// 
.................... //// licensed users of the CCS C compiler.  No other use, reproduction //// 
.................... //// or distribution is permitted without written permission.          //// 
.................... //// Derivative programs created using this software in object code    //// 
.................... //// form are not restricted in any way.                               //// 
.................... /////////////////////////////////////////////////////////////////////////// 
....................  
.................... #ifndef _STDDEF 
....................  
.................... #define _STDDEF 
....................  
.................... #if sizeof(unsigned int8 *)==1 
.................... #define ptrdiff_t unsigned int8 
.................... #else 
.................... #define ptrdiff_t unsigned int16 
.................... #endif 
....................  
.................... #define size_t unsigned int8 
.................... #define wchar_t char 
.................... #define NULL 0 
....................  
.................... #define offsetof(s,f) (offsetofbit(s,f)/8) 
....................  
.................... #endif 
....................  
.................... #include <ctype.h> 
.................... //////////////////////////////////////////////////////////////////////////// 
.................... ////        (C) Copyright 1996,2003 Custom Computer Services            //// 
.................... //// This source code may only be used by licensed users of the CCS C   //// 
.................... //// compiler.  This source code may only be distributed to other       //// 
.................... //// licensed users of the CCS C compiler.  No other use, reproduction  //// 
.................... //// or distribution is permitted without written permission.           //// 
.................... //// Derivative programs created using this software in object code     //// 
.................... //// form are not restricted in any way.                                //// 
.................... //////////////////////////////////////////////////////////////////////////// 
....................  
.................... #ifndef _CTYPE 
.................... #define _CTYPE 
....................  
.................... #define islower(x)  isamong(x,"abcdefghijklmnopqrstuvwxyz") 
.................... #define isupper(x)  isamong(x,"ABCDEFGHIJKLMNOPQRSTUVWXYZ") 
.................... #define isalnum(x)  isamong(x,"0123456789ABCDEFGHIJKLMNOPQRSTUVWXYZabcdefghijklmnopqrstuvwxyz") 
.................... #define isalpha(x)  isamong(x,"ABCDEFGHIJKLMNOPQRSTUVWXYZabcdefghijklmnopqrstuvwxyz") 
.................... #define isdigit(x)  isamong(x,"0123456789") 
.................... #define isspace(x)  ((x)==' ') 
.................... #define isxdigit(x) isamong(x,"0123456789ABCDEFabcdef") 
.................... #define iscntrl(x)  ((x)<' ') 
.................... #define isprint(x)  ((x)>=' ') 
.................... #define isgraph(x)  ((x)>' ') 
.................... #define ispunct(x)  (((x)>' ')&&!isalnum(x)) 
....................  
.................... #endif 
....................  
....................  
....................  
....................  
....................  
.................... ////////////////////////////////////////////// 
.................... //// Uncomment the following define to    //// 
.................... //// allow some functions to use a        //// 
.................... //// quicker algorithm, but use more ROM  //// 
.................... ////                                      //// 
.................... //// #define FASTER_BUT_MORE_ROM          //// 
.................... ////////////////////////////////////////////// 
....................  
....................  
....................  
.................... /*Copying functions*/ 
.................... /* standard template: 
....................    void *memmove(void *s1, void *s2, size_t n). 
....................    Copies max of n characters safely (not following ending '\0') 
....................    from s2 in s1; if s2 has less than n characters, appends 0 */ 
....................  
.................... char *memmove(void *s1,char *s2,size_t n) 
.................... { 
....................    char *sc1; 
....................    char *sc2; 
....................    sc1=s1; 
....................    sc2=s2; 
....................    if(sc2<sc1 && sc1 <sc2 +n) 
....................       for(sc1+=n,sc2+=n;0<n;--n) 
....................          *--sc1=*--sc2; 
....................    else 
....................       for(;0<n;--n) 
....................          *sc1++=*sc2++; 
....................   return s1; 
....................   } 
....................  
.................... /* Standard template: char *strcpy(char *s1, const char *s2) 
....................    copies the string s2 including the null character to s1. 
....................    This is a compiler built in to handle the different address 
....................    spaces */ 
....................  
.................... #define strcopy strcpy 
....................  
.................... /* standard template: 
....................    char *strncpy(char *s1, const char *s2, size_t n). 
....................    Copies max of n characters (not following ending '\0') 
....................    from s2 in s1; if s2 has less than n characters, appends 0 */ 
....................  
.................... char *strncpy(char *s1, char *s2, size_t n) 
.................... { 
....................   char *s; 
....................  
....................   for (s = s1; n > 0 && *s2 != '\0'; n--) 
....................      *s++ = *s2++; 
....................   for (; n > 0; n--) 
....................      *s++ = '\0'; 
....................  
....................   return(s1); 
.................... } 
.................... /***********************************************************/ 
....................  
.................... /*concatenation functions*/ 
.................... /* standard template: char *strcat(char *s1, const char *s2) 
.................... appends s2 to s1*/ 
....................  
.................... char *strcat(char *s1, char *s2) 
.................... { 
....................    char *s; 
....................  
....................    for (s = s1; *s != '\0'; ++s); 
....................    while(*s2 != '\0') 
....................    { 
....................       *s = *s2; 
....................       ++s; 
....................       ++s2; 
....................    } 
....................  
....................    *s = '\0'; 
....................    return(s1); 
.................... } 
.................... /* standard template: char *strncat(char *s1, char *s2,size_t n) 
.................... appends not more than n characters from s2 to s1*/ 
....................  
.................... char *strncat(char *s1, char *s2, size_t n) 
.................... { 
....................    char *s; 
....................  
....................    for (s = s1; *s != '\0'; ++s); 
....................    while(*s2 != '\0' && 0<n) 
....................    { 
....................       *s = *s2; 
....................       ++s; 
....................       ++s2; 
....................       --n; 
....................    } 
....................  
....................    *s = '\0'; 
....................    return(s1); 
.................... } 
....................  
.................... /***********************************************************/ 
....................  
....................  
.................... /*comparison functions*/ 
.................... /* standard template: signed int memcmp(void *s1, void *s2). 
....................    Compares s1 & s2; returns -1 if s1<s2, 0 if s1=s2, 1 if s1>s2 */ 
....................  
.................... signed int8 memcmp(void * s1,char *s2,size_t n) 
.................... { 
.................... char *su1, *su2; 
.................... for(su1=s1, su2=s2; 0<n; ++su1, ++su2, --n) 
.................... { 
....................    if(*su1!=*su2) 
....................       return ((*su1<*su2)?-1:+1); 
.................... } 
.................... return 0; 
.................... } 
....................  
.................... /* standard template: int strcmp(const char *s1, const char *s2). 
....................    Compares s1 & s2; returns -1 if s1<s2, 0 if s1=s2, 1 if s1>s2 */ 
....................  
.................... signed int8 strcmp(char *s1, char *s2) 
.................... { 
....................    for (; *s1 == *s2; s1++, s2++) 
....................       if (*s1 == '\0') 
....................          return(0); 
....................    return((*s1 < *s2) ? -1: 1); 
.................... } 
.................... /* standard template: int strcoll(const char *s1, const char *s2). 
....................    Compares s1 & s2; returns -1 if s1<s2, 0 if s1=s2, 1 if s1>s2 */ 
....................  
.................... signed int8 strcoll(char *s1, char *s2) 
.................... { 
....................    for (; *s1 == *s2; s1++, s2++) 
....................       if (*s1 == '\0') 
....................          return(0); 
....................    return((*s1 < *s2) ? -1: 1); 
.................... } 
....................  
.................... /* standard template: 
....................    int strncmp(const char *s1, const char *s2, size_t n). 
....................    Compares max of n characters (not following 0) from s1 to s2; 
....................    returns same as strcmp */ 
....................  
.................... signed int8 strncmp(char *s1, char *s2, size_t n) 
.................... { 
....................    for (; n > 0; s1++, s2++, n--) 
....................       if (*s1 != *s2) 
....................          return((*s1 <*s2) ? -1: 1); 
....................       else if (*s1 == '\0') 
....................          return(0); 
....................    return(0); 
.................... } 
.................... /* standard template: 
....................    int strxfrm(const char *s1, const char *s2, size_t n). 
....................    transforms maximum of n characters from s2 and places them into s1*/ 
.................... size_t strxfrm(char *s1, char *s2, size_t n) 
.................... { 
....................   char *s; 
....................   unsigned int8 n1; 
....................   n1=n; 
....................   for (s = s1; n > 0 && *s2 != '\0'; n--) 
....................      *s++ = *s2++; 
....................   for (; n > 0; n--) 
....................      *s++ = '\0'; 
....................  
....................   return(n1); 
.................... } 
....................  
....................  
....................  
....................  
....................  
.................... /***********************************************************/ 
.................... /*Search functions*/ 
.................... /* standard template: void *memchr(const char *s, int c). 
....................    Finds first occurrence of c in n characters of s */ 
....................  
.................... char *memchr(void *s,unsigned int8 c,size_t n) 
.................... { 
....................    char uc; 
....................    char *su; 
....................    uc=c; 
....................    for(su=s;0<n;++su,--n) 
....................       if(*su==uc) 
....................       return su; 
....................    return NULL; 
.................... } 
....................  
.................... /* standard template: char *strchr(const char *s, int c). 
....................    Finds first occurrence of c in s */ 
....................  
.................... char *strchr(char *s, unsigned int8 c) 
.................... { 
....................    for (; *s != c; s++) 
....................       if (*s == '\0') 
....................          return(0); 
....................    return(s); 
.................... } 
.................... /* standard template: 
....................    size_t strcspn(const char *s1, const char *s2). 
....................    Computes length of max initial segment of s1 that 
....................    consists entirely of characters NOT from s2*/ 
....................  
.................... unsigned int8  strcspn(char *s1, char *s2) 
.................... { 
....................    char *sc1, *sc2; 
....................  
....................    for (sc1 = s1; *sc1 != 0; sc1++) 
....................       for (sc2 = s2; *sc2 != 0; sc2++) 
....................          if (*sc1 == *sc2) 
....................             return(sc1 - s1); 
....................    return(sc1 - s1); 
.................... } 
.................... /* standard template: 
....................    char *strpbrk(const char *s1, const char *s2). 
....................    Locates first occurence of any character from s2 in s1; 
....................    returns s1 if s2 is empty string */ 
....................  
.................... char *strpbrk(char *s1, char *s2) 
.................... { 
....................    char *sc1, *sc2; 
....................  
....................    for (sc1 = s1; *sc1 != 0; sc1++) 
....................       for (sc2 = s2; *sc2 != 0; sc2++) 
....................          if (*sc1 == *sc2) 
....................             return(sc1); 
....................    return(0); 
.................... } 
....................  
....................  
.................... /* standard template: char *strrchr(const char *s, int c). 
....................    Finds last occurrence of c in s */ 
....................  
.................... char *strrchr(char *s, unsigned int8 c) 
.................... { 
....................    char *p; 
....................  
....................    for (p = 0; ; s++) 
....................    { 
....................       if (*s == c) 
....................          p = s; 
....................       if (*s == '\0') 
....................          return(p); 
....................    } 
.................... } 
.................... /* computes length of max initial segment of s1 consisting 
....................    entirely of characters from s2 */ 
....................  
.................... unsigned int8  strspn(char *s1, char *s2) 
.................... { 
....................    char *sc1, *sc2; 
....................  
....................    for (sc1 = s1; *sc1 != 0; sc1++) 
....................       for (sc2 = s2; ; sc2++) 
....................     if (*sc2 == '\0') 
....................        return(sc1 - s1); 
....................          else if (*sc1 == *sc2) 
....................             break; 
....................    return(sc1 - s1); 
.................... } 
.................... /* standard template: 
....................    char *strstr(const char *s1, const char *s2); 
....................    Locates first occurence of character sequence s2 in s1; 
....................    returns 0 if s2 is empty string 
....................  
....................    Uncomment #define FASTER_BUT_MORE_ROM at the top of the 
....................    file to use the faster algorithm */ 
.................... char *strstr(char *s1, char *s2) 
.................... { 
....................    char *s, *t; 
....................  
....................    #ifdef FASTER_BUT_MORE_ROM 
....................    if (*s2 == '\0') 
....................          return(s1); 
....................    #endif 
....................  
....................    while (*s1) 
....................    { 
....................       for(s = s1, t = s2; *t && (*s == *t); ++s, ++t); 
....................  
....................       if (*t == '\0') 
....................          return s1; 
....................       ++s1; 
....................       #ifdef FASTER_BUT_MORE_ROM 
....................          while(*s1 != '\0' && *s1 != *s2) 
....................             ++s1; 
....................       #endif 
....................    } 
....................    return 0; 
.................... } 
....................  
.................... /* standard template: char *strtok(char *s1, const char *s2). 
....................  
....................    Finds next token in s1 delimited by a character from separator 
....................    string s2 (which can be different from call to call).  First call 
....................    starts at beginning of s1 searching for first character NOT 
....................    contained in s2; returns 0 if none is found. 
....................    If one is found, it is the start of first token (return value). 
....................    Function then searches from there for a character contained in s2. 
....................    If none is found, current token extends to end of s1, and subsequent 
....................    searches for a token will return 0.  If one is found, it is 
....................    overwritten by '\0', which terminates current token.  Function saves 
....................    pointer to following character from which next search will start. 
....................    Each subsequent call, with 0 as first argument, starts searching 
....................    from saved pointer */ 
....................  
.................... char *strtok(char *s1, char *s2) 
.................... { 
....................    char *beg, *end; 
....................    static char *save; 
....................  
....................    beg = (s1)? s1: save; 
....................    beg += strspn(beg, s2); 
....................    if (*beg == '\0') 
....................    { 
....................       *save = ' '; 
....................       return(0); 
....................    } 
....................    end = strpbrk(beg, s2); 
....................    if (*end != '\0') 
....................    { 
....................       *end = '\0'; 
....................       end++; 
....................    } 
....................    save = end; 
....................    return(beg); 
.................... } 
....................  
.................... /*****************************************************************/ 
.................... /*Miscellaneous functions*/ 
.................... /* standard template 
.................... maps error number in errnum to an error message string 
.................... Returns: Pointer to string 
.................... */ 
.................... #ifdef _ERRNO 
.................... char * strerror(unsigned int8 errnum) 
.................... { 
.................... char s[15]; 
.................... switch( errnum) 
.................... { 
.................... case 0: 
....................    strcpy(s,"no errors"); 
....................    return s; 
.................... case EDOM : 
....................    strcpy(s,"domain error"); 
....................    return s; 
.................... case ERANGE: 
....................    strcpy(s,"range error"); 
....................    return s; 
.................... } 
.................... } 
.................... #ENDIF 
.................... /* standard template: size_t strlen(const char *s). 
....................    Computes length of s1 (preceding terminating 0) */ 
....................  
.................... unsigned int8 strlen(char *s) 
.................... { 
....................    char *sc; 
....................  
....................    for (sc = s; *sc != 0; sc++); 
....................    return(sc - s); 
.................... } 
....................  
.................... /* standard template: size_t stricmp(const char *s1, const char *s2). 
....................    Compares s1 to s2 ignoring case (upper vs. lower) */ 
....................  
.................... signed int8 stricmp(char *s1, char *s2) 
.................... { 
....................  for(; *s1==*s2||(isalpha(*s1)&&isalpha(*s2)&&(*s1==*s2+32||*s2==*s1+32)); 
....................     s1++, s2++) 
....................     if (*s1 == '\0') 
....................        return(0); 
....................  return((*s1 < *s2) ? -1: 1); 
.................... } 
....................  
....................  
.................... /* standard template: char *strlwr(char *s). 
....................    Replaces uppercase letters by lowercase; 
....................    returns pointer to new string s */ 
....................  
.................... char *strlwr(char *s) 
.................... { 
....................    char *p; 
....................  
....................    for (p = s; *p != '\0'; p++) 
....................       if (*p >= 'A' && *p <='Z') 
....................          *p += 'a' - 'A'; 
....................    return(s); 
.................... } 
....................  
....................  
.................... /************************************************************/ 
....................  
....................  
.................... #endif 
....................  
.................... #ifndef getc 
.................... #define getc getch 
.................... #define getchar getch 
.................... #define puts(s) {printf(s); putchar(13); putchar(10);} 
.................... #define putc putchar 
.................... #endif 
.................... /* maps error number to an error message. Writes a sequence of characters to 
.................... stderr stream thus: if s is not null then string pointed to by s follwed by 
.................... a colon (:) and a space and the appropriate error message returned by strerror 
.................... function with argument errno 
....................  
.................... Returns: no value 
.................... */ 
....................  
.................... #ifdef _ERRNO 
.................... void perror(char *s) 
.................... { 
....................   if(s) 
....................   fprintf(STDERR,"%s: ",s); 
....................   fprintf(STDERR,"%s\r\n",strerror(errno)); 
.................... } 
.................... #endif 
.................... #endif 
....................  
.................... #include <string.h> 
.................... //////////////////////////////////////////////////////////////////////////// 
.................... ////        (C) Copyright 1996,2008 Custom Computer Services            //// 
.................... //// This source code may only be used by licensed users of the CCS C   //// 
.................... //// compiler.  This source code may only be distributed to other       //// 
.................... //// licensed users of the CCS C compiler.  No other use, reproduction  //// 
.................... //// or distribution is permitted without written permission.           //// 
.................... //// Derivative programs created using this software in object code     //// 
.................... //// form are not restricted in any way.                                //// 
.................... //////////////////////////////////////////////////////////////////////////// 
....................  
.................... #ifndef _STRING 
.................... #define _STRING 
.................... #include <stddef.h> 
.................... #include <ctype.h> 
....................  
....................  
....................  
.................... ////////////////////////////////////////////// 
.................... //// Uncomment the following define to    //// 
.................... //// allow some functions to use a        //// 
.................... //// quicker algorithm, but use more ROM  //// 
.................... ////                                      //// 
.................... //// #define FASTER_BUT_MORE_ROM          //// 
.................... ////////////////////////////////////////////// 
....................  
....................  
....................  
.................... /*Copying functions*/ 
.................... /* standard template: 
....................    void *memmove(void *s1, void *s2, size_t n). 
....................    Copies max of n characters safely (not following ending '\0') 
....................    from s2 in s1; if s2 has less than n characters, appends 0 */ 
....................  
.................... char *memmove(void *s1,char *s2,size_t n) 
.................... { 
....................    char *sc1; 
....................    char *sc2; 
....................    sc1=s1; 
....................    sc2=s2; 
....................    if(sc2<sc1 && sc1 <sc2 +n) 
....................       for(sc1+=n,sc2+=n;0<n;--n) 
....................          *--sc1=*--sc2; 
....................    else 
....................       for(;0<n;--n) 
....................          *sc1++=*sc2++; 
....................   return s1; 
....................   } 
....................  
.................... /* Standard template: char *strcpy(char *s1, const char *s2) 
....................    copies the string s2 including the null character to s1. 
....................    This is a compiler built in to handle the different address 
....................    spaces */ 
....................  
.................... #define strcopy strcpy 
....................  
.................... /* standard template: 
....................    char *strncpy(char *s1, const char *s2, size_t n). 
....................    Copies max of n characters (not following ending '\0') 
....................    from s2 in s1; if s2 has less than n characters, appends 0 */ 
....................  
.................... char *strncpy(char *s1, char *s2, size_t n) 
.................... { 
....................   char *s; 
....................  
....................   for (s = s1; n > 0 && *s2 != '\0'; n--) 
....................      *s++ = *s2++; 
....................   for (; n > 0; n--) 
....................      *s++ = '\0'; 
....................  
....................   return(s1); 
.................... } 
.................... /***********************************************************/ 
....................  
.................... /*concatenation functions*/ 
.................... /* standard template: char *strcat(char *s1, const char *s2) 
.................... appends s2 to s1*/ 
....................  
.................... char *strcat(char *s1, char *s2) 
.................... { 
....................    char *s; 
....................  
....................    for (s = s1; *s != '\0'; ++s); 
....................    while(*s2 != '\0') 
....................    { 
....................       *s = *s2; 
....................       ++s; 
....................       ++s2; 
....................    } 
....................  
....................    *s = '\0'; 
....................    return(s1); 
.................... } 
.................... /* standard template: char *strncat(char *s1, char *s2,size_t n) 
.................... appends not more than n characters from s2 to s1*/ 
....................  
.................... char *strncat(char *s1, char *s2, size_t n) 
.................... { 
....................    char *s; 
....................  
....................    for (s = s1; *s != '\0'; ++s); 
....................    while(*s2 != '\0' && 0<n) 
....................    { 
....................       *s = *s2; 
....................       ++s; 
....................       ++s2; 
....................       --n; 
....................    } 
....................  
....................    *s = '\0'; 
....................    return(s1); 
.................... } 
....................  
.................... /***********************************************************/ 
....................  
....................  
.................... /*comparison functions*/ 
.................... /* standard template: signed int memcmp(void *s1, void *s2). 
....................    Compares s1 & s2; returns -1 if s1<s2, 0 if s1=s2, 1 if s1>s2 */ 
....................  
.................... signed int8 memcmp(void * s1,char *s2,size_t n) 
.................... { 
.................... char *su1, *su2; 
.................... for(su1=s1, su2=s2; 0<n; ++su1, ++su2, --n) 
.................... { 
....................    if(*su1!=*su2) 
....................       return ((*su1<*su2)?-1:+1); 
.................... } 
.................... return 0; 
.................... } 
....................  
.................... /* standard template: int strcmp(const char *s1, const char *s2). 
....................    Compares s1 & s2; returns -1 if s1<s2, 0 if s1=s2, 1 if s1>s2 */ 
....................  
.................... signed int8 strcmp(char *s1, char *s2) 
.................... { 
....................    for (; *s1 == *s2; s1++, s2++) 
....................       if (*s1 == '\0') 
....................          return(0); 
....................    return((*s1 < *s2) ? -1: 1); 
.................... } 
.................... /* standard template: int strcoll(const char *s1, const char *s2). 
....................    Compares s1 & s2; returns -1 if s1<s2, 0 if s1=s2, 1 if s1>s2 */ 
....................  
.................... signed int8 strcoll(char *s1, char *s2) 
.................... { 
....................    for (; *s1 == *s2; s1++, s2++) 
....................       if (*s1 == '\0') 
....................          return(0); 
....................    return((*s1 < *s2) ? -1: 1); 
.................... } 
....................  
.................... /* standard template: 
....................    int strncmp(const char *s1, const char *s2, size_t n). 
....................    Compares max of n characters (not following 0) from s1 to s2; 
....................    returns same as strcmp */ 
....................  
.................... signed int8 strncmp(char *s1, char *s2, size_t n) 
.................... { 
....................    for (; n > 0; s1++, s2++, n--) 
....................       if (*s1 != *s2) 
....................          return((*s1 <*s2) ? -1: 1); 
....................       else if (*s1 == '\0') 
....................          return(0); 
....................    return(0); 
.................... } 
.................... /* standard template: 
....................    int strxfrm(const char *s1, const char *s2, size_t n). 
....................    transforms maximum of n characters from s2 and places them into s1*/ 
.................... size_t strxfrm(char *s1, char *s2, size_t n) 
.................... { 
....................   char *s; 
....................   unsigned int8 n1; 
....................   n1=n; 
....................   for (s = s1; n > 0 && *s2 != '\0'; n--) 
....................      *s++ = *s2++; 
....................   for (; n > 0; n--) 
....................      *s++ = '\0'; 
....................  
....................   return(n1); 
.................... } 
....................  
....................  
....................  
....................  
....................  
.................... /***********************************************************/ 
.................... /*Search functions*/ 
.................... /* standard template: void *memchr(const char *s, int c). 
....................    Finds first occurrence of c in n characters of s */ 
....................  
.................... char *memchr(void *s,unsigned int8 c,size_t n) 
.................... { 
....................    char uc; 
....................    char *su; 
....................    uc=c; 
....................    for(su=s;0<n;++su,--n) 
....................       if(*su==uc) 
....................       return su; 
....................    return NULL; 
.................... } 
....................  
.................... /* standard template: char *strchr(const char *s, int c). 
....................    Finds first occurrence of c in s */ 
....................  
.................... char *strchr(char *s, unsigned int8 c) 
.................... { 
....................    for (; *s != c; s++) 
....................       if (*s == '\0') 
....................          return(0); 
....................    return(s); 
.................... } 
.................... /* standard template: 
....................    size_t strcspn(const char *s1, const char *s2). 
....................    Computes length of max initial segment of s1 that 
....................    consists entirely of characters NOT from s2*/ 
....................  
.................... unsigned int8  strcspn(char *s1, char *s2) 
.................... { 
....................    char *sc1, *sc2; 
....................  
....................    for (sc1 = s1; *sc1 != 0; sc1++) 
....................       for (sc2 = s2; *sc2 != 0; sc2++) 
....................          if (*sc1 == *sc2) 
....................             return(sc1 - s1); 
....................    return(sc1 - s1); 
.................... } 
.................... /* standard template: 
....................    char *strpbrk(const char *s1, const char *s2). 
....................    Locates first occurence of any character from s2 in s1; 
....................    returns s1 if s2 is empty string */ 
....................  
.................... char *strpbrk(char *s1, char *s2) 
.................... { 
....................    char *sc1, *sc2; 
....................  
....................    for (sc1 = s1; *sc1 != 0; sc1++) 
....................       for (sc2 = s2; *sc2 != 0; sc2++) 
....................          if (*sc1 == *sc2) 
....................             return(sc1); 
....................    return(0); 
.................... } 
....................  
....................  
.................... /* standard template: char *strrchr(const char *s, int c). 
....................    Finds last occurrence of c in s */ 
....................  
.................... char *strrchr(char *s, unsigned int8 c) 
.................... { 
....................    char *p; 
....................  
....................    for (p = 0; ; s++) 
....................    { 
....................       if (*s == c) 
....................          p = s; 
....................       if (*s == '\0') 
....................          return(p); 
....................    } 
.................... } 
.................... /* computes length of max initial segment of s1 consisting 
....................    entirely of characters from s2 */ 
....................  
.................... unsigned int8  strspn(char *s1, char *s2) 
.................... { 
....................    char *sc1, *sc2; 
....................  
....................    for (sc1 = s1; *sc1 != 0; sc1++) 
....................       for (sc2 = s2; ; sc2++) 
....................     if (*sc2 == '\0') 
....................        return(sc1 - s1); 
....................          else if (*sc1 == *sc2) 
....................             break; 
....................    return(sc1 - s1); 
.................... } 
.................... /* standard template: 
....................    char *strstr(const char *s1, const char *s2); 
....................    Locates first occurence of character sequence s2 in s1; 
....................    returns 0 if s2 is empty string 
....................  
....................    Uncomment #define FASTER_BUT_MORE_ROM at the top of the 
....................    file to use the faster algorithm */ 
.................... char *strstr(char *s1, char *s2) 
.................... { 
....................    char *s, *t; 
....................  
....................    #ifdef FASTER_BUT_MORE_ROM 
....................    if (*s2 == '\0') 
....................          return(s1); 
....................    #endif 
....................  
....................    while (*s1) 
....................    { 
....................       for(s = s1, t = s2; *t && (*s == *t); ++s, ++t); 
....................  
....................       if (*t == '\0') 
....................          return s1; 
....................       ++s1; 
....................       #ifdef FASTER_BUT_MORE_ROM 
....................          while(*s1 != '\0' && *s1 != *s2) 
....................             ++s1; 
....................       #endif 
....................    } 
....................    return 0; 
.................... } 
....................  
.................... /* standard template: char *strtok(char *s1, const char *s2). 
....................  
....................    Finds next token in s1 delimited by a character from separator 
....................    string s2 (which can be different from call to call).  First call 
....................    starts at beginning of s1 searching for first character NOT 
....................    contained in s2; returns 0 if none is found. 
....................    If one is found, it is the start of first token (return value). 
....................    Function then searches from there for a character contained in s2. 
....................    If none is found, current token extends to end of s1, and subsequent 
....................    searches for a token will return 0.  If one is found, it is 
....................    overwritten by '\0', which terminates current token.  Function saves 
....................    pointer to following character from which next search will start. 
....................    Each subsequent call, with 0 as first argument, starts searching 
....................    from saved pointer */ 
....................  
.................... char *strtok(char *s1, char *s2) 
.................... { 
....................    char *beg, *end; 
....................    static char *save; 
....................  
....................    beg = (s1)? s1: save; 
....................    beg += strspn(beg, s2); 
....................    if (*beg == '\0') 
....................    { 
....................       *save = ' '; 
....................       return(0); 
....................    } 
....................    end = strpbrk(beg, s2); 
....................    if (*end != '\0') 
....................    { 
....................       *end = '\0'; 
....................       end++; 
....................    } 
....................    save = end; 
....................    return(beg); 
.................... } 
....................  
.................... /*****************************************************************/ 
.................... /*Miscellaneous functions*/ 
.................... /* standard template 
.................... maps error number in errnum to an error message string 
.................... Returns: Pointer to string 
.................... */ 
.................... #ifdef _ERRNO 
.................... char * strerror(unsigned int8 errnum) 
.................... { 
.................... char s[15]; 
.................... switch( errnum) 
.................... { 
.................... case 0: 
....................    strcpy(s,"no errors"); 
....................    return s; 
.................... case EDOM : 
....................    strcpy(s,"domain error"); 
....................    return s; 
.................... case ERANGE: 
....................    strcpy(s,"range error"); 
....................    return s; 
.................... } 
.................... } 
.................... #ENDIF 
.................... /* standard template: size_t strlen(const char *s). 
....................    Computes length of s1 (preceding terminating 0) */ 
....................  
.................... unsigned int8 strlen(char *s) 
.................... { 
....................    char *sc; 
....................  
....................    for (sc = s; *sc != 0; sc++); 
....................    return(sc - s); 
.................... } 
....................  
.................... /* standard template: size_t stricmp(const char *s1, const char *s2). 
....................    Compares s1 to s2 ignoring case (upper vs. lower) */ 
....................  
.................... signed int8 stricmp(char *s1, char *s2) 
.................... { 
....................  for(; *s1==*s2||(isalpha(*s1)&&isalpha(*s2)&&(*s1==*s2+32||*s2==*s1+32)); 
....................     s1++, s2++) 
....................     if (*s1 == '\0') 
....................        return(0); 
....................  return((*s1 < *s2) ? -1: 1); 
.................... } 
....................  
....................  
.................... /* standard template: char *strlwr(char *s). 
....................    Replaces uppercase letters by lowercase; 
....................    returns pointer to new string s */ 
....................  
.................... char *strlwr(char *s) 
.................... { 
....................    char *p; 
....................  
....................    for (p = s; *p != '\0'; p++) 
....................       if (*p >= 'A' && *p <='Z') 
....................          *p += 'a' - 'A'; 
....................    return(s); 
.................... } 
....................  
....................  
.................... /************************************************************/ 
....................  
....................  
.................... #endif 
....................  
.................... #include <stdlib.h> 
.................... /////////////////////////////////////////////////////////////////////////// 
.................... ////        (C) Copyright 1996,2007 Custom Computer Services           //// 
.................... //// This source code may only be used by licensed users of the CCS C  //// 
.................... //// compiler.  This source code may only be distributed to other      //// 
.................... //// licensed users of the CCS C compiler.  No other use, reproduction //// 
.................... //// or distribution is permitted without written permission.          //// 
.................... //// Derivative programs created using this software in object code    //// 
.................... //// form are not restricted in any way.                               //// 
.................... /////////////////////////////////////////////////////////////////////////// 
....................  
.................... #ifndef _STDLIB 
.................... #define _STDLIB 
....................  
.................... //--------------------------------------------------------------------------- 
.................... // Definitions and types 
.................... //--------------------------------------------------------------------------- 
....................  
.................... #ifndef RAND_MAX 
.................... #define RAND_MAX  32767    // The value of which is the maximum value 
....................                            // ... returned by the rand function 
.................... #endif 
....................  
....................  
.................... #IF (sizeof(int16*)>1) 
.................... #DEFINE LONG_POINTERS 1 
.................... #ELSE  
.................... #DEFINE LONG_POINTERS 0 
.................... #ENDIF 
....................  
.................... typedef struct { 
....................    signed int quot; 
....................    signed int rem; 
.................... } div_t; 
....................  
.................... typedef struct { 
....................    signed long quot; 
....................    signed long rem; 
.................... } ldiv_t; 
....................  
.................... #include <stddef.h> 
.................... /////////////////////////////////////////////////////////////////////////// 
.................... ////        (C) Copyright 1996,2003 Custom Computer Services           //// 
.................... //// This source code may only be used by licensed users of the CCS C  //// 
.................... //// compiler.  This source code may only be distributed to other      //// 
.................... //// licensed users of the CCS C compiler.  No other use, reproduction //// 
.................... //// or distribution is permitted without written permission.          //// 
.................... //// Derivative programs created using this software in object code    //// 
.................... //// form are not restricted in any way.                               //// 
.................... /////////////////////////////////////////////////////////////////////////// 
....................  
.................... #ifndef _STDDEF 
....................  
.................... #define _STDDEF 
....................  
.................... #if sizeof(unsigned int8 *)==1 
.................... #define ptrdiff_t unsigned int8 
.................... #else 
.................... #define ptrdiff_t unsigned int16 
.................... #endif 
....................  
.................... #define size_t unsigned int8 
.................... #define wchar_t char 
.................... #define NULL 0 
....................  
.................... #define offsetof(s,f) (offsetofbit(s,f)/8) 
....................  
.................... #endif 
....................  
....................  
.................... //--------------------------------------------------------------------------- 
.................... // String conversion functions 
.................... //--------------------------------------------------------------------------- 
....................  
.................... /* Standard template: signed int  atoi(char * s) 
....................  * converts the initial portion of the string s to a signed int 
....................  * returns the converted value if any, 0 otherwise 
....................  */ 
.................... signed int atoi(char *s); 
....................  
.................... /* Syntax: signed int32  atoi32(char * s) 
....................    converts the initial portion of the string s to a signed int32 
....................    returns the converted value if any, 0 otherwise*/ 
.................... #if (sizeof(long)==4) 
....................  #define atoi32(s) atol(s) 
.................... #else  
....................  signed int32 atoi32(char *s); 
.................... #endif 
....................  
.................... #if defined(__PCD__) 
.................... // The following functions only work on the 24 bit compiler 
.................... // for the 30F, 33F, 24F and 24H parts 
.................... /* Syntax: signed int48  atoi48(char * s) 
....................    converts the initial portion of the string s to a signed int48 
....................    returns the converted value if any, 0 otherwise*/ 
....................     
.................... signed int48 atoi48(char *s); 
....................  
.................... /* Syntax: signed int64  atoi64(char * s) 
....................    converts the initial portion of the string s to a signed int64 
....................    returns the converted value if any, 0 otherwise*/ 
.................... signed int64 atoi64(char *s); 
.................... #endif 
....................  
.................... /* Syntax: char *  itoa(signed int32 num, int8 base, char * s) 
....................    converts the signed int32 to a string and 
....................    returns the converted value if any, 0 otherwise*/ 
.................... char * itoa(signed int32 num, unsigned int base, char * s); 
....................  
.................... /* Standard template: signed int16  atol(char * s) 
....................  * converts the initial portion of the string s to a signed int16 
....................  * returns the converted value if any, 0 otherwise 
....................  */ 
.................... signed long atol(char *s); 
....................  
.................... /* Standard template: int16 strtoul(char * s,char *endptr,signed int base) 
....................  * converts the initial portion of the string s, represented as an 
....................  * integral value of radix base  to a signed long. 
....................  * Returns the converted value if any, 0 otherwise 
....................  * the final string is returned in the endptr, if endptr is not null 
....................  */ 
.................... signed long strtol(char *s,char *endptr, signed int base); 
....................  
.................... /* Standard template: int16 strtoul(char * s,char *endptr,signed int base) 
....................  * converts the initial portion of the string s, represented as an 
....................  * integral value of radix base to a unsigned long. 
....................  * returns the converted value if any, 0 otherwise 
....................  * the final string is returned in the endptr, if endptr is not null 
....................  */ 
.................... unsigned long strtoul(char *s,char *endptr, signed int base); 
....................  
.................... /* Standart template: float strtof(char * s,char *endptr) 
....................                       float48 strtof48(char *s,char *endptr); 
....................                       float64 strtod(char *s,char *endptr); 
....................  * converts the initial portion of the string s to a float32, float48 or float64, 
....................  * returns the converted value if any, 0 otherwise 
....................  * the final string is returned in the endptr, if endptr is not null                    
.................... */ 
.................... float strtof(char *s,char *endptr); 
.................... #if defined(__PCD__) 
.................... float48 strtof48(char *s,char *endptr); 
.................... float64 strtod(char *s,char *endptr); 
.................... #else 
.................... //provided for compatibility 
.................... #define strtof48(s, e) strtof(s, e) 
.................... #define strtod(s, e) strtof(s, e) 
.................... #endif 
....................  
.................... /* Standard template: float32 atof(char * s) 
....................  * converts the initial portion of the string s to a float. 
....................  * returns the converted value if any, 0 otherwise 
....................  */ 
.................... #define atof(s)   strtof(s, 0) 
....................  
.................... #if defined(__PCD__) 
.................... // The following functions only work on the 24 bit compiler 
.................... // for the 30F, 33F, 24F and 24H parts 
....................  
.................... /* Standard template: float48 atof48(char * s) 
....................  * converts the initial portion of the string s to a float. 
....................  * returns the converted value if any, 0 otherwise 
....................  */ 
.................... #define atof48(s) strtof48(s, 0) 
....................  
.................... /* Standard template: float64 atof64(char * s) 
....................  * converts the initial portion of the string s to a float. 
....................  * returns the converted value if any, 0 otherwise 
....................  */ 
.................... #define atof64(s) strtod(s, 0) 
.................... #endif 
....................  
.................... /* Standard template: float32 atoe(char * s) 
....................  * converts the initial portion of the string s to a float. 
....................  * returns the converted value if any, 0 otherwise 
....................  * also handles E format numbers 
....................  */ 
.................... #if !defined(__PCD__) 
.................... float atoe(char * s); 
.................... #endif 
....................  
.................... #if defined(__PCD__) 
.................... float32 atoe(char * s); 
.................... #endif 
....................  
.................... //--------------------------------------------------------------------------- 
.................... // Pseudo-random sequence generation functions 
.................... //--------------------------------------------------------------------------- 
....................  
.................... /* The rand function computes a sequence of pseudo-random integers in 
....................  * the range 0 to RAND_MAX 
....................  * 
....................  * Parameters: 
....................  *       (none) 
....................  * 
....................  * Returns: 
....................  *       The pseudo-random integer 
....................  */ 
.................... unsigned int16 rand(void); 
....................  
.................... /* The srand function uses the argument as a seed for a new sequence of 
....................  * pseudo-random numbers to be returned by subsequent calls to rand. 
....................  * 
....................  * Parameters: 
....................  *       [in] seed: The seed value to start from. You might need to pass 
....................  * 
....................  * Returns: 
....................  *       (none) 
....................  * 
....................  * Remarks 
....................  *          The srand function sets the starting point for generating 
....................  *       a series of pseudorandom integers. To reinitialize the 
....................  *       generator, use 1 as the seed argument. Any other value for 
....................  *       seed sets the generator to a random starting point. rand 
....................  *       retrieves the pseudorandom numbers that are generated. 
....................  *       Calling rand before any call to srand generates the same 
....................  *       sequence as calling srand with seed passed as 1. 
....................  *          Usually, you need to pass a time here from outer source 
....................  *       so that the numbers will be different every time you run. 
....................  */ 
.................... void srand(unsigned int32 seed); 
....................  
.................... //--------------------------------------------------------------------------- 
.................... // Memory management functions 
.................... //--------------------------------------------------------------------------- 
....................  
.................... // Comming soon 
....................  
.................... //--------------------------------------------------------------------------- 
.................... // Communication with the environment 
.................... //--------------------------------------------------------------------------- 
....................  
.................... /* The function returns 0 always 
....................  */ 
.................... signed int8 system(char *string); 
....................  
.................... //--------------------------------------------------------------------------- 
.................... // Searching and sorting utilities 
.................... //--------------------------------------------------------------------------- 
....................  
.................... /* Performs a binary search of a sorted array.. 
....................  * 
....................  * Parameters: 
....................  *       [in] key: Object to search for 
....................  *       [in] base: Pointer to base of search data 
....................  *       [in] num: Number of elements 
....................  *       [in] width: Width of elements 
....................  *       [in] compare: Function that compares two elements 
....................  * 
....................  * Returns: 
....................  *       bsearch returns a pointer to an occurrence of key in the array pointed 
....................  *       to by base. If key is not found, the function returns NULL. If the 
....................  *       array is not in order or contains duplicate records with identical keys, 
....................  *       the result is unpredictable. 
....................  */ 
.................... //void *bsearch(const void *key, const void *base, size_t num, size_t width, 
.................... //              int (*compare)(const void *, const void *)); 
....................  
.................... /* Performs the shell-metzner sort (not the quick sort algorithm). The contents 
....................  * of the array are sorted into ascending order according to a comparison 
....................  * function pointed to by compar. 
....................  * 
....................  * Parameters: 
....................  *       [in] base: Pointer to base of search data 
....................  *       [in] num: Number of elements 
....................  *       [in] width: Width of elements 
....................  *       [in] compare: Function that compares two elements 
....................  * 
....................  * Returns: 
....................  *       (none) 
....................  */ 
.................... //void *qsort(const void *base, size_t num, size_t width, 
.................... //              int (*compare)(const void *, const void *)); 
....................  
.................... //--------------------------------------------------------------------------- 
.................... // Integer arithmetic functions 
.................... //--------------------------------------------------------------------------- 
....................  
.................... #define labs abs 
....................  
.................... div_t div(signed int numer, signed int denom); 
.................... ldiv_t ldiv(signed long numer, signed long denom); 
....................  
.................... //--------------------------------------------------------------------------- 
.................... // Multibyte character functions 
.................... //--------------------------------------------------------------------------- 
....................  
.................... // Not supported 
....................  
.................... //--------------------------------------------------------------------------- 
.................... // Multibyte string functions 
.................... //--------------------------------------------------------------------------- 
....................  
.................... // Not supported 
....................  
....................  
.................... //--------------------------------------------------------------------------- 
.................... // Internal implementation 
.................... //--------------------------------------------------------------------------- 
....................  
.................... #include <stddef.h> 
.................... /////////////////////////////////////////////////////////////////////////// 
.................... ////        (C) Copyright 1996,2003 Custom Computer Services           //// 
.................... //// This source code may only be used by licensed users of the CCS C  //// 
.................... //// compiler.  This source code may only be distributed to other      //// 
.................... //// licensed users of the CCS C compiler.  No other use, reproduction //// 
.................... //// or distribution is permitted without written permission.          //// 
.................... //// Derivative programs created using this software in object code    //// 
.................... //// form are not restricted in any way.                               //// 
.................... /////////////////////////////////////////////////////////////////////////// 
....................  
.................... #ifndef _STDDEF 
....................  
.................... #define _STDDEF 
....................  
.................... #if sizeof(unsigned int8 *)==1 
.................... #define ptrdiff_t unsigned int8 
.................... #else 
.................... #define ptrdiff_t unsigned int16 
.................... #endif 
....................  
.................... #define size_t unsigned int8 
.................... #define wchar_t char 
.................... #define NULL 0 
....................  
.................... #define offsetof(s,f) (offsetofbit(s,f)/8) 
....................  
.................... #endif 
....................  
.................... #include <string.h> 
.................... //////////////////////////////////////////////////////////////////////////// 
.................... ////        (C) Copyright 1996,2008 Custom Computer Services            //// 
.................... //// This source code may only be used by licensed users of the CCS C   //// 
.................... //// compiler.  This source code may only be distributed to other       //// 
.................... //// licensed users of the CCS C compiler.  No other use, reproduction  //// 
.................... //// or distribution is permitted without written permission.           //// 
.................... //// Derivative programs created using this software in object code     //// 
.................... //// form are not restricted in any way.                                //// 
.................... //////////////////////////////////////////////////////////////////////////// 
....................  
.................... #ifndef _STRING 
.................... #define _STRING 
.................... #include <stddef.h> 
.................... #include <ctype.h> 
....................  
....................  
....................  
.................... ////////////////////////////////////////////// 
.................... //// Uncomment the following define to    //// 
.................... //// allow some functions to use a        //// 
.................... //// quicker algorithm, but use more ROM  //// 
.................... ////                                      //// 
.................... //// #define FASTER_BUT_MORE_ROM          //// 
.................... ////////////////////////////////////////////// 
....................  
....................  
....................  
.................... /*Copying functions*/ 
.................... /* standard template: 
....................    void *memmove(void *s1, void *s2, size_t n). 
....................    Copies max of n characters safely (not following ending '\0') 
....................    from s2 in s1; if s2 has less than n characters, appends 0 */ 
....................  
.................... char *memmove(void *s1,char *s2,size_t n) 
.................... { 
....................    char *sc1; 
....................    char *sc2; 
....................    sc1=s1; 
....................    sc2=s2; 
....................    if(sc2<sc1 && sc1 <sc2 +n) 
....................       for(sc1+=n,sc2+=n;0<n;--n) 
....................          *--sc1=*--sc2; 
....................    else 
....................       for(;0<n;--n) 
....................          *sc1++=*sc2++; 
....................   return s1; 
....................   } 
....................  
.................... /* Standard template: char *strcpy(char *s1, const char *s2) 
....................    copies the string s2 including the null character to s1. 
....................    This is a compiler built in to handle the different address 
....................    spaces */ 
....................  
.................... #define strcopy strcpy 
....................  
.................... /* standard template: 
....................    char *strncpy(char *s1, const char *s2, size_t n). 
....................    Copies max of n characters (not following ending '\0') 
....................    from s2 in s1; if s2 has less than n characters, appends 0 */ 
....................  
.................... char *strncpy(char *s1, char *s2, size_t n) 
.................... { 
....................   char *s; 
....................  
....................   for (s = s1; n > 0 && *s2 != '\0'; n--) 
....................      *s++ = *s2++; 
....................   for (; n > 0; n--) 
....................      *s++ = '\0'; 
....................  
....................   return(s1); 
.................... } 
.................... /***********************************************************/ 
....................  
.................... /*concatenation functions*/ 
.................... /* standard template: char *strcat(char *s1, const char *s2) 
.................... appends s2 to s1*/ 
....................  
.................... char *strcat(char *s1, char *s2) 
.................... { 
....................    char *s; 
....................  
....................    for (s = s1; *s != '\0'; ++s); 
....................    while(*s2 != '\0') 
....................    { 
....................       *s = *s2; 
....................       ++s; 
....................       ++s2; 
....................    } 
....................  
....................    *s = '\0'; 
....................    return(s1); 
.................... } 
.................... /* standard template: char *strncat(char *s1, char *s2,size_t n) 
.................... appends not more than n characters from s2 to s1*/ 
....................  
.................... char *strncat(char *s1, char *s2, size_t n) 
.................... { 
....................    char *s; 
....................  
....................    for (s = s1; *s != '\0'; ++s); 
....................    while(*s2 != '\0' && 0<n) 
....................    { 
....................       *s = *s2; 
....................       ++s; 
....................       ++s2; 
....................       --n; 
....................    } 
....................  
....................    *s = '\0'; 
....................    return(s1); 
.................... } 
....................  
.................... /***********************************************************/ 
....................  
....................  
.................... /*comparison functions*/ 
.................... /* standard template: signed int memcmp(void *s1, void *s2). 
....................    Compares s1 & s2; returns -1 if s1<s2, 0 if s1=s2, 1 if s1>s2 */ 
....................  
.................... signed int8 memcmp(void * s1,char *s2,size_t n) 
.................... { 
.................... char *su1, *su2; 
.................... for(su1=s1, su2=s2; 0<n; ++su1, ++su2, --n) 
.................... { 
....................    if(*su1!=*su2) 
....................       return ((*su1<*su2)?-1:+1); 
.................... } 
.................... return 0; 
.................... } 
....................  
.................... /* standard template: int strcmp(const char *s1, const char *s2). 
....................    Compares s1 & s2; returns -1 if s1<s2, 0 if s1=s2, 1 if s1>s2 */ 
....................  
.................... signed int8 strcmp(char *s1, char *s2) 
.................... { 
....................    for (; *s1 == *s2; s1++, s2++) 
....................       if (*s1 == '\0') 
....................          return(0); 
....................    return((*s1 < *s2) ? -1: 1); 
.................... } 
.................... /* standard template: int strcoll(const char *s1, const char *s2). 
....................    Compares s1 & s2; returns -1 if s1<s2, 0 if s1=s2, 1 if s1>s2 */ 
....................  
.................... signed int8 strcoll(char *s1, char *s2) 
.................... { 
....................    for (; *s1 == *s2; s1++, s2++) 
....................       if (*s1 == '\0') 
....................          return(0); 
....................    return((*s1 < *s2) ? -1: 1); 
.................... } 
....................  
.................... /* standard template: 
....................    int strncmp(const char *s1, const char *s2, size_t n). 
....................    Compares max of n characters (not following 0) from s1 to s2; 
....................    returns same as strcmp */ 
....................  
.................... signed int8 strncmp(char *s1, char *s2, size_t n) 
.................... { 
....................    for (; n > 0; s1++, s2++, n--) 
....................       if (*s1 != *s2) 
....................          return((*s1 <*s2) ? -1: 1); 
....................       else if (*s1 == '\0') 
....................          return(0); 
....................    return(0); 
.................... } 
.................... /* standard template: 
....................    int strxfrm(const char *s1, const char *s2, size_t n). 
....................    transforms maximum of n characters from s2 and places them into s1*/ 
.................... size_t strxfrm(char *s1, char *s2, size_t n) 
.................... { 
....................   char *s; 
....................   unsigned int8 n1; 
....................   n1=n; 
....................   for (s = s1; n > 0 && *s2 != '\0'; n--) 
....................      *s++ = *s2++; 
....................   for (; n > 0; n--) 
....................      *s++ = '\0'; 
....................  
....................   return(n1); 
.................... } 
....................  
....................  
....................  
....................  
....................  
.................... /***********************************************************/ 
.................... /*Search functions*/ 
.................... /* standard template: void *memchr(const char *s, int c). 
....................    Finds first occurrence of c in n characters of s */ 
....................  
.................... char *memchr(void *s,unsigned int8 c,size_t n) 
.................... { 
....................    char uc; 
....................    char *su; 
....................    uc=c; 
....................    for(su=s;0<n;++su,--n) 
....................       if(*su==uc) 
....................       return su; 
....................    return NULL; 
.................... } 
....................  
.................... /* standard template: char *strchr(const char *s, int c). 
....................    Finds first occurrence of c in s */ 
....................  
.................... char *strchr(char *s, unsigned int8 c) 
.................... { 
....................    for (; *s != c; s++) 
....................       if (*s == '\0') 
....................          return(0); 
....................    return(s); 
.................... } 
.................... /* standard template: 
....................    size_t strcspn(const char *s1, const char *s2). 
....................    Computes length of max initial segment of s1 that 
....................    consists entirely of characters NOT from s2*/ 
....................  
.................... unsigned int8  strcspn(char *s1, char *s2) 
.................... { 
....................    char *sc1, *sc2; 
....................  
....................    for (sc1 = s1; *sc1 != 0; sc1++) 
....................       for (sc2 = s2; *sc2 != 0; sc2++) 
....................          if (*sc1 == *sc2) 
....................             return(sc1 - s1); 
....................    return(sc1 - s1); 
.................... } 
.................... /* standard template: 
....................    char *strpbrk(const char *s1, const char *s2). 
....................    Locates first occurence of any character from s2 in s1; 
....................    returns s1 if s2 is empty string */ 
....................  
.................... char *strpbrk(char *s1, char *s2) 
.................... { 
....................    char *sc1, *sc2; 
....................  
....................    for (sc1 = s1; *sc1 != 0; sc1++) 
....................       for (sc2 = s2; *sc2 != 0; sc2++) 
....................          if (*sc1 == *sc2) 
....................             return(sc1); 
....................    return(0); 
.................... } 
....................  
....................  
.................... /* standard template: char *strrchr(const char *s, int c). 
....................    Finds last occurrence of c in s */ 
....................  
.................... char *strrchr(char *s, unsigned int8 c) 
.................... { 
....................    char *p; 
....................  
....................    for (p = 0; ; s++) 
....................    { 
....................       if (*s == c) 
....................          p = s; 
....................       if (*s == '\0') 
....................          return(p); 
....................    } 
.................... } 
.................... /* computes length of max initial segment of s1 consisting 
....................    entirely of characters from s2 */ 
....................  
.................... unsigned int8  strspn(char *s1, char *s2) 
.................... { 
....................    char *sc1, *sc2; 
....................  
....................    for (sc1 = s1; *sc1 != 0; sc1++) 
....................       for (sc2 = s2; ; sc2++) 
....................     if (*sc2 == '\0') 
....................        return(sc1 - s1); 
....................          else if (*sc1 == *sc2) 
....................             break; 
....................    return(sc1 - s1); 
.................... } 
.................... /* standard template: 
....................    char *strstr(const char *s1, const char *s2); 
....................    Locates first occurence of character sequence s2 in s1; 
....................    returns 0 if s2 is empty string 
....................  
....................    Uncomment #define FASTER_BUT_MORE_ROM at the top of the 
....................    file to use the faster algorithm */ 
.................... char *strstr(char *s1, char *s2) 
.................... { 
....................    char *s, *t; 
....................  
....................    #ifdef FASTER_BUT_MORE_ROM 
....................    if (*s2 == '\0') 
....................          return(s1); 
....................    #endif 
....................  
....................    while (*s1) 
....................    { 
....................       for(s = s1, t = s2; *t && (*s == *t); ++s, ++t); 
....................  
....................       if (*t == '\0') 
....................          return s1; 
....................       ++s1; 
....................       #ifdef FASTER_BUT_MORE_ROM 
....................          while(*s1 != '\0' && *s1 != *s2) 
....................             ++s1; 
....................       #endif 
....................    } 
....................    return 0; 
.................... } 
....................  
.................... /* standard template: char *strtok(char *s1, const char *s2). 
....................  
....................    Finds next token in s1 delimited by a character from separator 
....................    string s2 (which can be different from call to call).  First call 
....................    starts at beginning of s1 searching for first character NOT 
....................    contained in s2; returns 0 if none is found. 
....................    If one is found, it is the start of first token (return value). 
....................    Function then searches from there for a character contained in s2. 
....................    If none is found, current token extends to end of s1, and subsequent 
....................    searches for a token will return 0.  If one is found, it is 
....................    overwritten by '\0', which terminates current token.  Function saves 
....................    pointer to following character from which next search will start. 
....................    Each subsequent call, with 0 as first argument, starts searching 
....................    from saved pointer */ 
....................  
.................... char *strtok(char *s1, char *s2) 
.................... { 
....................    char *beg, *end; 
....................    static char *save; 
....................  
....................    beg = (s1)? s1: save; 
....................    beg += strspn(beg, s2); 
....................    if (*beg == '\0') 
....................    { 
....................       *save = ' '; 
....................       return(0); 
....................    } 
....................    end = strpbrk(beg, s2); 
....................    if (*end != '\0') 
....................    { 
....................       *end = '\0'; 
....................       end++; 
....................    } 
....................    save = end; 
....................    return(beg); 
.................... } 
....................  
.................... /*****************************************************************/ 
.................... /*Miscellaneous functions*/ 
.................... /* standard template 
.................... maps error number in errnum to an error message string 
.................... Returns: Pointer to string 
.................... */ 
.................... #ifdef _ERRNO 
.................... char * strerror(unsigned int8 errnum) 
.................... { 
.................... char s[15]; 
.................... switch( errnum) 
.................... { 
.................... case 0: 
....................    strcpy(s,"no errors"); 
....................    return s; 
.................... case EDOM : 
....................    strcpy(s,"domain error"); 
....................    return s; 
.................... case ERANGE: 
....................    strcpy(s,"range error"); 
....................    return s; 
.................... } 
.................... } 
.................... #ENDIF 
.................... /* standard template: size_t strlen(const char *s). 
....................    Computes length of s1 (preceding terminating 0) */ 
....................  
.................... unsigned int8 strlen(char *s) 
.................... { 
....................    char *sc; 
....................  
....................    for (sc = s; *sc != 0; sc++); 
....................    return(sc - s); 
.................... } 
....................  
.................... /* standard template: size_t stricmp(const char *s1, const char *s2). 
....................    Compares s1 to s2 ignoring case (upper vs. lower) */ 
....................  
.................... signed int8 stricmp(char *s1, char *s2) 
.................... { 
....................  for(; *s1==*s2||(isalpha(*s1)&&isalpha(*s2)&&(*s1==*s2+32||*s2==*s1+32)); 
....................     s1++, s2++) 
....................     if (*s1 == '\0') 
....................        return(0); 
....................  return((*s1 < *s2) ? -1: 1); 
.................... } 
....................  
....................  
.................... /* standard template: char *strlwr(char *s). 
....................    Replaces uppercase letters by lowercase; 
....................    returns pointer to new string s */ 
....................  
.................... char *strlwr(char *s) 
.................... { 
....................    char *p; 
....................  
....................    for (p = s; *p != '\0'; p++) 
....................       if (*p >= 'A' && *p <='Z') 
....................          *p += 'a' - 'A'; 
....................    return(s); 
.................... } 
....................  
....................  
.................... /************************************************************/ 
....................  
....................  
.................... #endif 
....................  
....................  
.................... div_t div(signed int numer, signed int denom) 
.................... { 
....................    div_t val; 
....................    val.quot = numer / denom; 
....................    val.rem = numer - (denom * val.quot); 
....................    return (val); 
.................... } 
....................  
.................... ldiv_t ldiv(signed long numer, signed long denom) 
.................... { 
....................    ldiv_t val; 
....................  
....................    val.quot = numer / denom; 
....................    val.rem = numer - (denom * val.quot); 
....................    return (val); 
.................... } 
....................  
.................... #if defined(__PCD__) 
.................... float32 atoe(char * s) 
.................... { 
....................    float32 pow10 = 1.0; 
....................    float32 result = 0.0; 
....................    unsigned int8 sign = 0; 
....................    unsigned int8 expsign = 0; 
....................    char c; 
....................    unsigned int8 ptr = 0; 
....................    unsigned int8 i; 
....................    float32 exp = 1.0; 
....................    unsigned int8 expcnt = 0; 
....................  
....................    c = s[ptr++]; 
....................  
....................    if ((c>='0' && c<='9') || c=='+' || c=='-' || c=='.' || c=='E' || c=='e') { 
....................       if(c == '-') { 
....................          sign = 1; 
....................          c = s[ptr++]; 
....................       } 
....................       if(c == '+') 
....................          c = s[ptr++]; 
....................  
....................       while((c >= '0' && c <= '9')) { 
....................          result = 10*result + c - '0'; 
....................          c = s[ptr++]; 
....................       } 
....................  
....................       if (c == '.') { 
....................          c = s[ptr++]; 
....................          while((c >= '0' && c <= '9')) { 
....................              pow10 = pow10*10; 
....................              result += (c - '0')/pow10; 
....................              c = s[ptr++]; 
....................          } 
....................       } 
....................  
....................       // Handling the exponent 
....................       if (c=='e' || c=='E') { 
....................          c = s[ptr++]; 
....................  
....................          if(c == '-') { 
....................             expsign = 1; 
....................             c = s[ptr++]; 
....................          } 
....................          if(c == '+') 
....................             c = s[ptr++]; 
....................  
....................          while((c >= '0' && c <= '9')) { 
....................             expcnt = 10*expcnt + c - '0'; 
....................             c = s[ptr++]; 
....................          } 
....................  
....................          for(i=0;i<expcnt;i++) 
....................             exp*=10; 
....................  
....................          if(expsign==1) 
....................             result/=exp; 
....................          else 
....................             result*=exp; 
....................       } 
....................    } 
....................  
....................    if (sign == 1) 
....................       result = -1*result; 
....................    return(result); 
.................... } 
.................... #endif 
....................  
.................... #if !defined(__PCD__) 
.................... float atoe(char * s) 
.................... { 
....................    float pow10 = 1.0; 
....................    float result = 0.0; 
....................    unsigned int8 sign = 0; 
....................    unsigned int8 expsign = 0; 
....................    char c; 
....................    unsigned int8 ptr = 0; 
....................    unsigned int8 i; 
....................    float exp = 1.0; 
....................    unsigned int8 expcnt = 0; 
....................  
....................    c = s[ptr++]; 
....................  
....................    if ((c>='0' && c<='9') || c=='+' || c=='-' || c=='.' || c=='E' || c=='e') { 
....................       if(c == '-') { 
....................          sign = 1; 
....................          c = s[ptr++]; 
....................       } 
....................       if(c == '+') 
....................          c = s[ptr++]; 
....................  
....................       while((c >= '0' && c <= '9')) { 
....................          result = 10*result + c - '0'; 
....................          c = s[ptr++]; 
....................       } 
....................  
....................       if (c == '.') { 
....................          c = s[ptr++]; 
....................          while((c >= '0' && c <= '9')) { 
....................              pow10 = pow10*10; 
....................              result += (c - '0')/pow10; 
....................              c = s[ptr++]; 
....................          } 
....................       } 
....................  
....................       // Handling the exponent 
....................       if (c=='e' || c=='E') { 
....................          c = s[ptr++]; 
....................  
....................          if(c == '-') { 
....................             expsign = 1; 
....................             c = s[ptr++]; 
....................          } 
....................          if(c == '+') 
....................             c = s[ptr++]; 
....................  
....................          while((c >= '0' && c <= '9')) { 
....................             expcnt = 10*expcnt + c - '0'; 
....................             c = s[ptr++]; 
....................          } 
....................  
....................          for(i=0;i<expcnt;i++) 
....................             exp*=10; 
....................  
....................          if(expsign==1) 
....................             result/=exp; 
....................          else 
....................             result*=exp; 
....................       } 
....................    } 
....................  
....................    if (sign == 1) 
....................       result = -1*result; 
....................    return(result); 
.................... } 
.................... #endif 
....................  
.................... signed int atoi(char *s) 
.................... { 
....................    signed int result; 
....................    unsigned int sign, base, index; 
....................    char c; 
....................  
....................    index = 0; 
....................    sign = 0; 
....................    base = 10; 
....................    result = 0; 
....................  
....................    if (!s) 
....................       return 0; 
....................    // Omit all preceeding alpha characters 
....................    c = s[index++]; 
....................  
....................    // increase index if either positive or negative sign is detected 
....................    if (c == '-') 
....................    { 
....................       sign = 1;         // Set the sign to negative 
....................       c = s[index++]; 
....................    } 
....................    else if (c == '+') 
....................    { 
....................       c = s[index++]; 
....................    } 
....................  
....................    if (c >= '0' && c <= '9') 
....................    { 
....................  
....................       // Check for hexa number 
....................       if (c == '0' && (s[index] == 'x' || s[index] == 'X')) 
....................       { 
....................          base = 16; 
....................          index++; 
....................          c = s[index++]; 
....................       } 
....................  
....................       // The number is a decimal number 
....................       if (base == 10) 
....................       { 
....................          while (c >= '0' && c <= '9') 
....................          { 
....................             result = 10*result + (c - '0'); 
....................             c = s[index++]; 
....................          } 
....................       } 
....................       else if (base == 16)    // The number is a hexa number 
....................       { 
....................          c = toupper(c); 
....................          while ( (c >= '0' && c <= '9') || (c >= 'A' && c<='F')) 
....................          { 
....................             if (c >= '0' && c <= '9') 
....................                result = (result << 4) + (c - '0'); 
....................             else 
....................                result = (result << 4) + (c - 'A' + 10); 
....................  
....................             c = s[index++]; 
....................             c = toupper(c); 
....................          } 
....................       } 
....................    } 
....................  
....................    if (sign == 1 && base == 10) 
....................        result = -result; 
....................  
....................    return(result); 
.................... } 
....................  
.................... signed long atol(char *s) 
.................... { 
....................    signed long result; 
....................    unsigned int sign, base, index; 
....................    char c; 
....................  
....................    index = 0; 
....................    sign = 0; 
....................    base = 10; 
....................    result = 0; 
....................  
....................    if (!s) 
....................       return 0; 
....................    c = s[index++]; 
....................  
....................    // increase index if either positive or negative sign is detected 
....................    if (c == '-') 
....................    { 
....................       sign = 1;         // Set the sign to negative 
....................       c = s[index++]; 
....................    } 
....................    else if (c == '+') 
....................    { 
....................       c = s[index++]; 
....................    } 
....................  
....................    if (c >= '0' && c <= '9') 
....................    { 
....................       if (c == '0' && (s[index] == 'x' || s[index] == 'X')) 
....................       { 
....................          base = 16; 
....................          index++; 
....................          c = s[index++]; 
....................       } 
....................  
....................       // The number is a decimal number 
....................       if (base == 10) 
....................       { 
....................          while (c >= '0' && c <= '9') 
....................          { 
....................             result = 10*result + (c - '0'); 
....................             c = s[index++]; 
....................          } 
....................       } 
....................       else if (base == 16)    // The number is a hexa number 
....................       { 
....................          c = toupper(c); 
....................          while ( (c >= '0' && c <= '9') || (c >= 'A' && c <='F')) 
....................          { 
....................             if (c >= '0' && c <= '9') 
....................                result = (result << 4) + (c - '0'); 
....................             else 
....................                result = (result << 4) + (c - 'A' + 10); 
....................  
....................             c = s[index++];c = toupper(c); 
....................          } 
....................       } 
....................    } 
....................  
....................    if (base == 10 && sign == 1) 
....................       result = -result; 
....................  
....................    return(result); 
.................... } 
....................  
.................... /* A fast routine to multiply by 10 
....................  */ 
.................... signed int32 mult_with10(int32 num) 
.................... { 
....................    return ( (num << 1) + (num << 3) ); 
.................... } 
....................  
.................... #if sizeof(long)==2 
.................... signed int32 atoi32(char *s) 
.................... { 
....................    signed int32 result; 
....................    int8 sign, base, index; 
....................    char c; 
....................  
....................    index = 0; 
....................    sign = 0; 
....................    base = 10; 
....................    result = 0; 
....................  
....................    if (!s) 
....................       return 0; 
....................    c = s[index++]; 
....................  
....................    // increase index if either positive or negative sign is detected 
....................    if (c == '-') 
....................    { 
....................       sign = 1;         // Set the sign to negative 
....................       c = s[index++]; 
....................    } 
....................    else if (c == '+') 
....................    { 
....................       c = s[index++]; 
....................    } 
....................  
....................    if (c >= '0' && c <= '9') 
....................    { 
....................       if (c == '0' && (s[index] == 'x' || s[index] == 'X')) 
....................       { 
....................          base = 16; 
....................          index++; 
....................          c = s[index++]; 
....................       } 
....................  
....................       // The number is a decimal number 
....................       if (base == 10) 
....................       { 
....................          while (c >= '0' && c <= '9') { 
....................             result = (result << 1) + (result << 3);  // result *= 10; 
....................             result += (c - '0'); 
....................             c = s[index++]; 
....................          } 
....................       } 
....................       else if (base == 16)    // The number is a hexa number 
....................       { 
....................          c = toupper(c); 
....................          while ((c >= '0' && c <= '9') || (c >= 'A' && c <='F')) 
....................          { 
....................             if (c >= '0' && c <= '9') 
....................                result = (result << 4) + (c - '0'); 
....................             else 
....................                result = (result << 4) + (c - 'A' + 10); 
....................  
....................             c = s[index++];c = toupper(c); 
....................          } 
....................       } 
....................    } 
....................  
....................    if (base == 10 && sign == 1) 
....................       result = -result; 
....................  
....................    return(result); 
.................... } 
.................... #endif 
....................  
.................... #if defined(__PCD__) 
....................  
.................... signed int48 atoi48(char *s) 
.................... { 
....................    signed int48 result; 
....................    int8 sign, base, index; 
....................    char c; 
....................  
....................    index = 0; 
....................    sign = 0; 
....................    base = 10; 
....................    result = 0; 
....................  
....................    if (!s) 
....................       return 0; 
....................    c = s[index++]; 
....................  
....................    // increase index if either positive or negative sign is detected 
....................    if (c == '-') 
....................    { 
....................       sign = 1;         // Set the sign to negative 
....................       c = s[index++]; 
....................    } 
....................    else if (c == '+') 
....................    { 
....................       c = s[index++]; 
....................    } 
....................  
....................    if (c >= '0' && c <= '9') 
....................    { 
....................       if (c == '0' && (s[index] == 'x' || s[index] == 'X')) 
....................       { 
....................          base = 16; 
....................          index++; 
....................          c = s[index++]; 
....................       } 
....................  
....................       // The number is a decimal number 
....................       if (base == 10) 
....................       { 
....................          while (c >= '0' && c <= '9') { 
....................             result = (result << 1) + (result << 3);  // result *= 10; 
....................             result += (c - '0'); 
....................             c = s[index++]; 
....................          } 
....................       } 
....................       else if (base == 16)    // The number is a hexa number 
....................       { 
....................          c = toupper(c); 
....................          while ((c >= '0' && c <= '9') || (c >= 'A' && c <='F')) 
....................          { 
....................             if (c >= '0' && c <= '9') 
....................                result = (result << 4) + (c - '0'); 
....................             else 
....................                result = (result << 4) + (c - 'A' + 10); 
....................  
....................             c = s[index++];c = toupper(c); 
....................          } 
....................       } 
....................    } 
....................  
....................    if (base == 10 && sign == 1) 
....................       result = -result; 
....................  
....................    return(result); 
.................... } 
....................  
.................... signed int64 atoi64(char *s) 
.................... { 
....................    signed int64 result; 
....................    int8 sign, base, index; 
....................    char c; 
....................  
....................    index = 0; 
....................    sign = 0; 
....................    base = 10; 
....................    result = 0; 
....................  
....................    if (!s) 
....................       return 0; 
....................    c = s[index++]; 
....................  
....................    // increase index if either positive or negative sign is detected 
....................    if (c == '-') 
....................    { 
....................       sign = 1;         // Set the sign to negative 
....................       c = s[index++]; 
....................    } 
....................    else if (c == '+') 
....................    { 
....................       c = s[index++]; 
....................    } 
....................  
....................    if (c >= '0' && c <= '9') 
....................    { 
....................       if (c == '0' && (s[index] == 'x' || s[index] == 'X')) 
....................       { 
....................          base = 16; 
....................          index++; 
....................          c = s[index++]; 
....................       } 
....................  
....................       // The number is a decimal number 
....................       if (base == 10) 
....................       { 
....................          while (c >= '0' && c <= '9') { 
....................             result = (result << 1) + (result << 3);  // result *= 10; 
....................             result += (c - '0'); 
....................             c = s[index++]; 
....................          } 
....................       } 
....................       else if (base == 16)    // The number is a hexa number 
....................       { 
....................          c = toupper(c); 
....................          while ((c >= '0' && c <= '9') || (c >= 'A' && c <='F')) 
....................          { 
....................             if (c >= '0' && c <= '9') 
....................                result = (result << 4) + (c - '0'); 
....................             else 
....................                result = (result << 4) + (c - 'A' + 10); 
....................  
....................             c = s[index++];c = toupper(c); 
....................          } 
....................       } 
....................    } 
....................  
....................    if (base == 10 && sign == 1) 
....................       result = -result; 
....................  
....................    return(result); 
.................... } 
.................... #endif 
....................  
.................... char * itoa(signed int32 num, unsigned int base, char * s) 
.................... { 
....................      unsigned int32 temp=1; 
....................      unsigned int8 i,sign=0,cnt=0; 
....................      char c; 
....................  
....................      if(num<0) { 
....................          sign=1;        // Check for negative number 
....................          num*=-1; 
....................      } 
....................  
....................      while(temp>0) { 
....................          temp=(num/base); 
....................          s[cnt]=(num%base)+'0';    // Conversion 
....................  
....................          if(s[cnt]>0x39) 
....................             s[cnt]+=0x7; 
....................  
....................          cnt++; 
....................          num=temp; 
....................      } 
....................  
....................      if(sign==1) { 
....................          s[cnt]=0x2D;      // Negative sign 
....................          cnt++; 
....................      } 
....................  
....................      for(i = 0;i<(int8)(cnt/2);i++) { 
....................  
....................          c=s[i]; 
....................          s[i]=s[cnt-i-1];        // Reverse the number 
....................          s[cnt-i-1]=c; 
....................      } 
....................      s[cnt]='\0';     // End the string 
....................      return s; 
.................... } 
....................  
.................... float strtof(char *s, char *endptr) 
.................... { 
....................    float pow10 = 1.0; 
....................    float result = 0.0; 
....................    int1 skip = 1, sign = 0, point = 0; 
....................    char c; 
....................    unsigned int8 ptr = 0; 
....................  
....................    if (!s) 
....................       return 0; 
....................  
....................    for(c=s[ptr++]; c!=0; c=s[ptr++]) 
....................    { 
....................       if (skip && !isspace(c)) 
....................       { 
....................          skip = 0; 
....................          if (c == '+') 
....................          { 
....................             sign = 0; 
....................             continue; 
....................          }             
....................          else if (c == '-') 
....................          { 
....................             sign = 1; 
....................             continue; 
....................          } 
....................       } 
....................       if (!skip && (c == '.') && !point) 
....................          point = 1; 
....................       else if (!skip && isdigit(c)) 
....................       { 
....................          c -= '0'; 
....................          if (point) 
....................          { 
....................             pow10 = pow10 * 10.0; 
....................             result += (float)c / pow10;    
....................          } 
....................          else 
....................          { 
....................             result = 10.0 * result + (float)c; 
....................          } 
....................       } 
....................       else if (!skip) 
....................          break; 
....................    } 
....................  
....................    if (sign) 
....................       result = -1*result; 
....................        
....................    if(endptr) 
....................    { 
....................       if (ptr) { 
....................          ptr--; 
....................        #IF LONG_POINTERS  
....................          *((long *)endptr)= s+ptr;  
....................        #ELSE 
....................          *((char *)endptr)=s+ptr; 
....................        #ENDIF 
....................       } 
....................       else 
....................       { 
....................       #IF LONG_POINTERS 
....................       *((long *)endptr)= s;  
....................       #ELSE 
....................       *((char *)endptr)=s; 
....................       #ENDIF 
....................       } 
....................    } 
....................  
....................    return(result); 
.................... } 
....................  
.................... #if defined(__PCD__) 
.................... float48 strtof48(char *s, char *endptr) 
.................... { 
....................    float48 pow10 = 1.0; 
....................    float48 result = 0.0; 
....................    int1 skip = 1, sign = 0, point = 0; 
....................    char c; 
....................    unsigned int8 ptr = 0; 
....................  
....................    if (!s) 
....................       return 0; 
....................  
....................    for(c=s[ptr++]; c!=0; c=s[ptr++]) 
....................    { 
....................       if (skip && !isspace(c)) 
....................       { 
....................          skip = 0; 
....................          if (c == '+') 
....................          { 
....................             sign = 0; 
....................             continue; 
....................          }             
....................          else if (c == '-') 
....................          { 
....................             sign = 1; 
....................             continue; 
....................          } 
....................       } 
....................       if (!skip && (c == '.') && !point) 
....................          point = 1; 
....................       else if (!skip && isdigit(c)) 
....................       { 
....................          c -= '0'; 
....................          if (point) 
....................          { 
....................             pow10 = pow10 * 10.0; 
....................             result += (float48)c / pow10;    
....................          } 
....................          else 
....................          { 
....................             result = 10.0 * result + (float48)c; 
....................          } 
....................       } 
....................       else if (!skip) 
....................          break; 
....................    } 
....................  
....................    if (sign) 
....................       result = -1*result; 
....................        
....................    if(endptr) 
....................    { 
....................       if (ptr) { 
....................          ptr--; 
....................        #IF LONG_POINTERS  
....................          *((long *)endptr)= s+ptr;  
....................        #ELSE 
....................          *((char *)endptr)=s+ptr; 
....................        #ENDIF 
....................       } 
....................       else 
....................       { 
....................       #IF LONG_POINTERS 
....................       *((long *)endptr)= s;  
....................       #ELSE 
....................       *((char *)endptr)=s; 
....................       #ENDIF 
....................       } 
....................    } 
....................  
....................    return(result); 
.................... } 
....................  
.................... float64 strtod(char *s, char *endptr) 
.................... { 
....................    float64 pow10 = 1.0; 
....................    float64 result = 0.0; 
....................    int1 skip = 1, sign = 0, point = 0; 
....................    char c; 
....................    unsigned int8 ptr = 0; 
....................  
....................    if (!s) 
....................       return 0; 
....................  
....................    for(c=s[ptr++]; c!=0; c=s[ptr++]) 
....................    { 
....................       if (skip && !isspace(c)) 
....................       { 
....................          skip = 0; 
....................          if (c == '+') 
....................          { 
....................             sign = 0; 
....................             continue; 
....................          }             
....................          else if (c == '-') 
....................          { 
....................             sign = 1; 
....................             continue; 
....................          } 
....................       } 
....................       if (!skip && (c == '.') && !point) 
....................          point = 1; 
....................       else if (!skip && isdigit(c)) 
....................       { 
....................          c -= '0'; 
....................          if (point) 
....................          { 
....................             pow10 = pow10 * 10.0; 
....................             result += (float64)c / pow10;    
....................          } 
....................          else 
....................          { 
....................             result = 10.0 * result + (float64)c; 
....................          } 
....................       } 
....................       else if (!skip) 
....................          break; 
....................    } 
....................  
....................    if (sign) 
....................       result = -1*result; 
....................        
....................    if(endptr) 
....................    { 
....................       if (ptr) { 
....................          ptr--; 
....................        #IF LONG_POINTERS  
....................          *((long *)endptr)= s+ptr;  
....................        #ELSE 
....................          *((char *)endptr)=s+ptr; 
....................        #ENDIF 
....................       } 
....................       else 
....................       { 
....................       #IF LONG_POINTERS 
....................       *((long *)endptr)= s;  
....................       #ELSE 
....................       *((char *)endptr)=s; 
....................       #ENDIF 
....................       } 
....................    } 
....................  
....................    return(result); 
.................... } 
.................... #endif 
....................  
.................... unsigned long strtoul(char *s, char *endptr, signed int base) 
.................... { 
....................    char *sc,*s1,*sd; 
....................    unsigned long x=0; 
....................    char sign; 
....................    char digits[]="0123456789abcdefghijklmnopqstuvwxyz"; 
....................    for(sc=s;isspace(*sc);++sc); 
....................    sign=*sc=='-'||*sc=='+'?*sc++:'+'; 
....................    if(sign=='-' || base <0 || base ==1|| base >36) // invalid base 
....................    goto StrtoulGO; 
....................  
....................    else if (base) 
....................    { 
....................       if(base==16 && *sc =='0'&&(sc[1]=='x' || sc[1]=='X')) 
....................          sc+=2; 
....................       if(base==8 && *sc =='0') 
....................          sc+=1; 
....................       if(base==2 && *sc =='0'&&sc[1]=='b') 
....................          sc+=2; 
....................  
....................    } 
....................    else if(*sc!='0') // base is 0, find base 
....................       base=10; 
....................    else if (sc[1]=='x' || sc[1]=='X') 
....................       base =16,sc+=2; 
....................    else if(sc[1]=='b') 
....................       base=2,sc+=2; 
....................    else 
....................       base=8; 
....................    for (s1=sc;*sc=='0';++sc);// skip leading zeroes 
....................    sd=memchr(digits,tolower(*sc),base); 
....................    for(; sd!=0; ) 
....................    { 
....................       x=x*base+(int16)(sd-digits); 
....................       ++sc; 
....................       sd=memchr(digits,tolower(*sc),base); 
....................    } 
....................    if(s1==sc) 
....................    { 
....................    StrtoulGO: 
....................       if (endptr) 
....................       { 
....................          #IF LONG_POINTERS 
....................          *((long *)endptr)= s;  
....................          #ELSE 
....................          *((char *)endptr)=s; 
....................          #ENDIF 
....................          } 
....................    return 0; 
....................    } 
....................    if (endptr) 
....................    { 
....................          #IF LONG_POINTERS 
....................          *((long *)endptr)= sc;  
....................          #ELSE 
....................          *((char *)endptr)=sc;  
....................          #ENDIF 
....................    } 
....................    return x; 
.................... } 
....................  
....................  
.................... signed long strtol(char *s,char *endptr, signed int base) 
.................... { 
....................    char *sc,*s1,*sd; 
....................    signed long x=0; 
....................    char sign; 
....................    char digits[]="0123456789abcdefghijklmnopqstuvwxyz"; 
....................    for(sc=s;isspace(*sc);++sc); 
....................    sign=*sc=='-'||*sc=='+'?*sc++:'+'; 
....................    if (base <0 || base ==1|| base >36) // invalid base 
....................    goto StrtolGO; 
....................    else if (base) 
....................    { 
....................       if(base==16 && *sc =='0'&&(sc[1]=='x' || sc[1]=='X')) 
....................          sc+=2; 
....................       if(base==8 && *sc =='0') 
....................          sc+=1; 
....................       if(base==2 && *sc =='0'&&sc[1]=='b') 
....................          sc+=2; 
....................  
....................    } 
....................    else if(*sc!='0') // base is 0, find base 
....................       base=10; 
....................    else if (sc[1]=='x' || sc[1]=='X') 
....................       base =16,sc+=2; 
....................    else if(sc[1]=='b') 
....................       base=2,sc+=2; 
....................    else 
....................       base=8; 
....................    for (s1=sc;*sc=='0';++sc);// skip leading zeroes 
....................  
....................    sd=memchr(digits,tolower(*sc),base); 
....................    for(;sd!=0;) 
....................    { 
....................       x=x*base+(int16)(sd-digits); 
....................       ++sc; 
....................       sd=memchr(digits,tolower(*sc),base); 
....................    } 
....................    if(s1==sc) 
....................    { 
....................    StrtolGO: 
....................       if (endptr) 
....................       { 
....................          #IF LONG_POINTERS 
....................          *((long *)endptr)= s;  
....................          #ELSE 
....................          *((char *)endptr)=s; 
....................          #ENDIF 
....................       } 
....................    return 0; 
....................    } 
....................    if(sign=='-') 
....................       x  =-x; 
....................    if (endptr) 
....................    { 
....................         #IF LONG_POINTERS 
....................          *((long *)endptr)= sc;  
....................         #ELSE 
....................         *((char *)endptr)=sc; 
....................         #ENDIF 
....................    } 
....................    return x; 
.................... } 
....................  
.................... signed int8 system(char *string) 
.................... { 
....................    return 0; 
.................... } 
....................  
.................... int8 mblen(char *s,size_t n) 
.................... { 
....................    return strlen(s); 
.................... } 
....................  
.................... int8 mbtowc(wchar_t *pwc,char *s,size_t n) 
.................... { 
....................    *pwc=*s; 
....................    return 1; 
.................... } 
....................  
.................... int8 wctomb(char *s,wchar_t wchar) 
.................... { 
....................    *s=wchar; 
....................    return 1; 
.................... } 
....................  
.................... size_t mbstowcs(wchar_t *pwcs,char *s,size_t n) 
.................... { 
....................    strncpy(pwcs,s,n); 
....................    return strlen(pwcs); 
.................... } 
....................  
.................... size_t wcstombs(char *s,wchar_t *pwcs,size_t n) 
.................... { 
....................    strncpy(s,pwcs,n); 
....................    return strlen(s); 
.................... } 
....................  
.................... //--------------------------------------------------------------------------- 
.................... // The random number implementation 
.................... //--------------------------------------------------------------------------- 
....................  
.................... unsigned int32 _Randseed; 
....................  
.................... unsigned int16 rand(void) 
.................... { 
....................    _Randseed = _Randseed * 1103515245 + 12345; 
....................    return ((unsigned int16)(_Randseed >> 16) % RAND_MAX); 
.................... } 
....................  
.................... void srand(unsigned int32 seed) 
.................... { 
....................    _Randseed = seed; 
.................... } 
....................  
.................... //--------------------------------------------------------------------------- 
.................... // Searching and sorting utilities implementation 
.................... //--------------------------------------------------------------------------- 
....................  
.................... #if !defined(__PCD__) 
.................... typedef signed int8 (*_Cmpfun)(char * p1,char * p2);  
.................... #else  
.................... typedef signed int16 (*_Cmpfun)(char * p1,char * p2);  
.................... #endif 
....................  
....................  
....................  
.................... void qsort(char * qdata, unsigned int qitems, unsigned int qsize, _Cmpfun cmp) { 
....................    unsigned int m,j,i,l; 
....................    int1 done; 
....................    unsigned int8 t[16]; 
....................  
....................    m = qitems/2; 
....................    while( m > 0 ) { 
....................      for(j=0; j<(qitems-m); ++j) { 
....................         i = j; 
....................         do 
....................         { 
....................            done=1; 
....................            l = i+m; 
....................            if( (*cmp)(qdata+i*qsize, qdata+l*qsize) > 0 ) { 
....................               memcpy(t, qdata+i*qsize, qsize); 
....................               memcpy(qdata+i*qsize, qdata+l*qsize, qsize); 
....................               memcpy(qdata+l*qsize, t, qsize); 
....................               if(m <= i) 
....................                 i -= m; 
....................                 done = 0; 
....................            } 
....................         } while(!done); 
....................      } 
....................      m = m/2; 
....................    } 
.................... } 
....................  
....................  
.................... char *bsearch(char *key, char *base, size_t num, size_t width,_Cmpfun cmp) 
.................... { 
....................    char *p, *q; 
....................    size_t n; 
....................    size_t pivot; 
....................    signed int val; 
....................  
....................    p = base; 
....................    n = num; 
....................  
....................    while (n > 0) 
....................    { 
....................       pivot = n >> 1; 
....................       q = p + width * pivot; 
....................  
....................       val = (*cmp)(key, q); 
....................  
....................       if (val < 0) 
....................          n = pivot; 
....................       else if (val == 0) 
....................          return ((char *)q); 
....................       else { 
....................          p = q + width; 
....................          n -= pivot + 1; 
....................       } 
....................    } 
....................  
....................    return NULL;      // There's no match 
.................... } 
....................  
....................  
.................... #endif 
....................  
.................... #include <DS1302.c> 
.................... ////////////////////////////////////////////////////////////////////////// 
.................... ////                               DS1302.C                           //// 
.................... ////                     Driver for Real Time Clock                   //// 
.................... ////                                                                  //// 
.................... ////  rtc_init()                                   Call after power up//// 
.................... ////                                                                  //// 
.................... ////  rtc_set_datetime(day,mth,year,dow,hour,min)  Set the date/time  //// 
.................... ////                                                                  //// 
.................... ////  rtc_get_date(day,mth,year,dow)               Get the date       //// 
.................... ////                                                                  //// 
.................... ////  rtc_get_time(hr,min,sec)                     Get the time       //// 
.................... ////                                                                  //// 
.................... ////  rtc_write_nvr(address,data)                  Write to NVR       //// 
.................... ////                                                                  //// 
.................... ////  data = rtc_read_nvr(address)                 Read from NVR      //// 
.................... ////                                                                  //// 
.................... ////  get_bcd(data)                              Convert data to BCD  //// 
.................... ////                                                                  //// 
.................... ////  rm_bcd(data)                               Convert data to int  //// 
.................... ////                                                                  //// 
.................... ////////////////////////////////////////////////////////////////////////// 
.................... ////        (C) Copyright 1996,2003 Custom Computer Services          //// 
.................... //// This source code may only be used by licensed users of the CCS C //// 
.................... //// compiler.  This source code may only be distributed to other     //// 
.................... //// licensed users of the CCS C compiler.  No other use, reproduction//// 
.................... //// or distribution is permitted without written permission.         //// 
.................... //// Derivative programs created using this software in object code   //// 
.................... //// form are not restricted in any way.                              //// 
.................... ////////////////////////////////////////////////////////////////////////// 
....................  
.................... //#ifndef RTC_SCLK 
....................  
.................... #define RTC_SCLK PIN_D4 
.................... #define RTC_IO   PIN_D5 
.................... #define RTC_RST  PIN_D6 
....................  
.................... //#endif 
....................  
.................... void write_ds1302_byte(BYTE cmd) { 
....................    BYTE i; 
....................  
....................    for(i=0;i<=7;++i) { 
*
0311C:  MOVLB  7
0311E:  CLRF   x0A
03120:  MOVF   x0A,W
03122:  SUBLW  07
03124:  BNC   3140
....................       output_bit(RTC_IO, shift_right(&cmd,1,0) ); 
03126:  BCF    FD8.0
03128:  RRCF   x09,F
0312A:  BC    3130
0312C:  BCF    F8C.5
0312E:  BRA    3132
03130:  BSF    F8C.5
03132:  BCF    F95.5
....................       output_high(RTC_SCLK); 
03134:  BCF    F95.4
03136:  BSF    F8C.4
....................       output_low(RTC_SCLK); 
03138:  BCF    F95.4
0313A:  BCF    F8C.4
....................    } 
0313C:  INCF   x0A,F
0313E:  BRA    3120
.................... } 
03140:  MOVLB  0
03142:  RETLW  00
....................  
.................... void write_ds1302(BYTE cmd, BYTE data) { 
....................  
....................    output_high(RTC_RST); 
03144:  BCF    F95.6
03146:  BSF    F8C.6
....................    write_ds1302_byte(cmd); 
03148:  MOVFF  707,709
0314C:  RCALL  311C
....................    write_ds1302_byte(data); 
0314E:  MOVFF  708,709
03152:  RCALL  311C
....................    output_low(RTC_RST); 
03154:  BCF    F95.6
03156:  BCF    F8C.6
.................... } 
03158:  RETLW  00
....................  
.................... BYTE read_ds1302(BYTE cmd) { 
....................    BYTE i,data; 
....................  
....................    output_high(RTC_RST); 
0315A:  BCF    F95.6
0315C:  BSF    F8C.6
....................    write_ds1302_byte(cmd); 
0315E:  MOVFF  706,709
03162:  RCALL  311C
....................     
....................    input(RTC_IO); 
03164:  BSF    F95.5
....................    delay_us(10); 
03166:  MOVLW  10
03168:  MOVWF  00
0316A:  DECFSZ 00,F
0316C:  BRA    316A
0316E:  NOP   
....................           
....................    for(i=0;i<=7;++i) { 
03170:  MOVLB  7
03172:  CLRF   x07
03174:  MOVF   x07,W
03176:  SUBLW  07
03178:  BNC   31A4
....................       shift_right(&data,1,input(RTC_IO)); 
0317A:  BSF    F95.5
0317C:  BTFSC  F83.5
0317E:  BRA    3184
03180:  BCF    FD8.0
03182:  BRA    3186
03184:  BSF    FD8.0
03186:  RRCF   x08,F
....................       output_high(RTC_SCLK); 
03188:  BCF    F95.4
0318A:  BSF    F8C.4
....................       delay_us(20); 
0318C:  MOVLW  21
0318E:  MOVWF  00
03190:  DECFSZ 00,F
03192:  BRA    3190
....................       output_low(RTC_SCLK); 
03194:  BCF    F95.4
03196:  BCF    F8C.4
....................       delay_us(20); 
03198:  MOVLW  21
0319A:  MOVWF  00
0319C:  DECFSZ 00,F
0319E:  BRA    319C
....................    } 
031A0:  INCF   x07,F
031A2:  BRA    3174
....................    output_low(RTC_RST); 
031A4:  BCF    F95.6
031A6:  BCF    F8C.6
....................  
....................    return(data); 
031A8:  MOVFF  708,01
.................... } 
031AC:  MOVLB  0
031AE:  RETLW  00
....................  
.................... void rtc_init() { 
....................    BYTE x; 
....................    output_low(RTC_RST); 
031B0:  BCF    F95.6
031B2:  BCF    F8C.6
....................    delay_us(20); 
031B4:  MOVLW  21
031B6:  MOVWF  00
031B8:  DECFSZ 00,F
031BA:  BRA    31B8
....................    output_low(RTC_SCLK); 
031BC:  BCF    F95.4
031BE:  BCF    F8C.4
....................    write_ds1302(0x8e,0); 
031C0:  MOVLW  8E
031C2:  MOVLB  7
031C4:  MOVWF  x07
031C6:  CLRF   x08
031C8:  MOVLB  0
031CA:  RCALL  3144
....................    write_ds1302(0x90,0xa4); 
031CC:  MOVLW  90
031CE:  MOVLB  7
031D0:  MOVWF  x07
031D2:  MOVLW  A4
031D4:  MOVWF  x08
031D6:  MOVLB  0
031D8:  RCALL  3144
....................    x=read_ds1302(0x81); 
031DA:  MOVLW  81
031DC:  MOVLB  7
031DE:  MOVWF  x06
031E0:  MOVLB  0
031E2:  RCALL  315A
031E4:  MOVFF  01,6FA
....................    if((x & 0x80)!=0) 
031E8:  MOVLB  6
031EA:  MOVF   xFA,W
031EC:  ANDLW  80
031EE:  BZ    31FE
....................      write_ds1302(0x80,0); 
031F0:  MOVLW  80
031F2:  MOVLB  7
031F4:  MOVWF  x07
031F6:  CLRF   x08
031F8:  MOVLB  0
031FA:  RCALL  3144
031FC:  MOVLB  6
.................... } 
031FE:  MOVLB  0
03200:  GOTO   83C6 (RETURN)
....................  
.................... byte get_bcd(BYTE data) 
.................... { 
....................    byte nibh; 
....................    byte nibl; 
....................  
....................    nibh=data/10; 
*
053C0:  MOVFF  706,709
053C4:  MOVLW  0A
053C6:  MOVLB  7
053C8:  MOVWF  x0A
053CA:  MOVLB  0
053CC:  RCALL  4F0E
053CE:  MOVFF  01,707
....................    nibl=data-(nibh*10); 
053D2:  MOVLB  7
053D4:  MOVF   x07,W
053D6:  MULLW  0A
053D8:  MOVF   FF3,W
053DA:  SUBWF  x06,W
053DC:  MOVWF  x08
....................  
....................    return((nibh<<4)|nibl); 
053DE:  SWAPF  x07,W
053E0:  MOVWF  00
053E2:  MOVLW  F0
053E4:  ANDWF  00,F
053E6:  MOVF   00,W
053E8:  IORWF  x08,W
053EA:  MOVWF  01
.................... } 
053EC:  MOVLB  0
053EE:  RETLW  00
....................  
.................... byte rm_bcd(BYTE data) 
.................... { 
....................    byte i; 
....................  
....................    i=data; 
*
04B52:  MOVFF  707,708
....................    data=(i>>4)*10; 
04B56:  MOVLB  7
04B58:  SWAPF  x08,W
04B5A:  MOVWF  00
04B5C:  MOVLW  0F
04B5E:  ANDWF  00,F
04B60:  MOVF   00,W
04B62:  MULLW  0A
04B64:  MOVFF  FF3,707
....................    data=data+(i<<4>>4); 
04B68:  SWAPF  x08,W
04B6A:  MOVWF  00
04B6C:  MOVLW  F0
04B6E:  ANDWF  00,F
04B70:  MOVF   00,W
04B72:  SWAPF  00,F
04B74:  MOVLW  0F
04B76:  ANDWF  00,F
04B78:  MOVF   00,W
04B7A:  ADDWF  x07,F
....................  
....................    return data; 
04B7C:  MOVFF  707,01
.................... } 
04B80:  MOVLB  0
04B82:  RETLW  00
....................  
.................... void rtc_set_datetime(BYTE day, BYTE mth, BYTE year, BYTE dow, BYTE hr, BYTE min) { 
....................  
....................    write_ds1302(0x86,get_bcd(day)); 
*
053F0:  MOVFF  6FA,706
053F4:  RCALL  53C0
053F6:  MOVFF  01,700
053FA:  MOVLW  86
053FC:  MOVLB  7
053FE:  MOVWF  x07
05400:  MOVFF  01,708
05404:  MOVLB  0
05406:  CALL   3144
....................    write_ds1302(0x88,get_bcd(mth)); 
0540A:  MOVFF  6FB,706
0540E:  RCALL  53C0
05410:  MOVFF  01,700
05414:  MOVLW  88
05416:  MOVLB  7
05418:  MOVWF  x07
0541A:  MOVFF  01,708
0541E:  MOVLB  0
05420:  CALL   3144
....................    write_ds1302(0x8c,get_bcd(year)); 
05424:  MOVFF  6FC,706
05428:  RCALL  53C0
0542A:  MOVFF  01,700
0542E:  MOVLW  8C
05430:  MOVLB  7
05432:  MOVWF  x07
05434:  MOVFF  01,708
05438:  MOVLB  0
0543A:  CALL   3144
....................    write_ds1302(0x8a,get_bcd(dow)); 
0543E:  MOVFF  6FD,706
05442:  RCALL  53C0
05444:  MOVFF  01,700
05448:  MOVLW  8A
0544A:  MOVLB  7
0544C:  MOVWF  x07
0544E:  MOVFF  01,708
05452:  MOVLB  0
05454:  CALL   3144
....................    write_ds1302(0x84,get_bcd(hr)); 
05458:  MOVFF  6FE,706
0545C:  RCALL  53C0
0545E:  MOVFF  01,700
05462:  MOVLW  84
05464:  MOVLB  7
05466:  MOVWF  x07
05468:  MOVFF  01,708
0546C:  MOVLB  0
0546E:  CALL   3144
....................    write_ds1302(0x82,get_bcd(min)); 
05472:  MOVFF  6FF,706
05476:  RCALL  53C0
05478:  MOVFF  01,700
0547C:  MOVLW  82
0547E:  MOVLB  7
05480:  MOVWF  x07
05482:  MOVFF  01,708
05486:  MOVLB  0
05488:  CALL   3144
....................    write_ds1302(0x80,get_bcd(0)); 
0548C:  MOVLB  7
0548E:  CLRF   x06
05490:  MOVLB  0
05492:  RCALL  53C0
05494:  MOVFF  01,700
05498:  MOVLW  80
0549A:  MOVLB  7
0549C:  MOVWF  x07
0549E:  MOVFF  01,708
054A2:  MOVLB  0
054A4:  CALL   3144
.................... } 
054A8:  GOTO   AF38 (RETURN)
....................  
.................... void rtc_get_date(BYTE& day, BYTE& mth, BYTE& year, BYTE& dow) { 
....................    day = rm_bcd(read_ds1302(0x87)); 
*
04C08:  MOVLW  87
04C0A:  MOVLB  7
04C0C:  MOVWF  x06
04C0E:  MOVLB  0
04C10:  CALL   315A
04C14:  MOVFF  01,702
04C18:  MOVFF  01,707
04C1C:  RCALL  4B52
04C1E:  MOVFF  01,38D
....................    mth = rm_bcd(read_ds1302(0x89)); 
04C22:  MOVLW  89
04C24:  MOVLB  7
04C26:  MOVWF  x06
04C28:  MOVLB  0
04C2A:  CALL   315A
04C2E:  MOVFF  01,702
04C32:  MOVFF  01,707
04C36:  RCALL  4B52
04C38:  MOVFF  01,38C
....................    year = rm_bcd(read_ds1302(0x8d)); 
04C3C:  MOVLW  8D
04C3E:  MOVLB  7
04C40:  MOVWF  x06
04C42:  MOVLB  0
04C44:  CALL   315A
04C48:  MOVFF  01,702
04C4C:  MOVFF  01,707
04C50:  RCALL  4B52
04C52:  MOVFF  01,38B
....................    dow = rm_bcd(read_ds1302(0x8b)); 
04C56:  MOVLW  8B
04C58:  MOVLB  7
04C5A:  MOVWF  x06
04C5C:  MOVLB  0
04C5E:  CALL   315A
04C62:  MOVFF  01,702
04C66:  MOVFF  01,707
04C6A:  RCALL  4B52
04C6C:  MOVFF  01,391
.................... } 
....................  
.................... void rtc_get_time(BYTE& hr, BYTE& min, BYTE& sec) { 
....................    hr = rm_bcd(read_ds1302(0x85)); 
04C70:  MOVLW  85
04C72:  MOVLB  7
04C74:  MOVWF  x06
04C76:  MOVLB  0
04C78:  CALL   315A
04C7C:  MOVFF  01,702
04C80:  MOVFF  01,707
04C84:  RCALL  4B52
04C86:  MOVFF  01,38E
....................    min = rm_bcd(read_ds1302(0x83)); 
04C8A:  MOVLW  83
04C8C:  MOVLB  7
04C8E:  MOVWF  x06
04C90:  MOVLB  0
04C92:  CALL   315A
04C96:  MOVFF  01,702
04C9A:  MOVFF  01,707
04C9E:  RCALL  4B52
04CA0:  MOVFF  01,38F
....................    sec = rm_bcd(read_ds1302(0x81)); 
04CA4:  MOVLW  81
04CA6:  MOVLB  7
04CA8:  MOVWF  x06
04CAA:  MOVLB  0
04CAC:  CALL   315A
04CB0:  MOVFF  01,702
04CB4:  MOVFF  01,707
04CB8:  RCALL  4B52
04CBA:  MOVFF  01,390
.................... } 
....................  
.................... void rtc_write_nvr(BYTE address, BYTE data) { 
....................    write_ds1302(address|0xc0,data); 
.................... } 
....................  
.................... BYTE rtc_read_nvr(BYTE address) { 
....................     return(read_ds1302(address|0xc1)); 
.................... } 
....................  
.................... #include <24512.c> 
.................... /////////////////////////////////////////////////////////////////////////// 
.................... ////   Library for a 24LC512 serial EEPROM                             //// 
.................... ////                                                                   //// 
.................... ////   init_ext_eeprom();    Call before the other functions are used  //// 
.................... ////                                                                   //// 
.................... ////   write_ext_eeprom(a, d);  Write the byte d to the address a      //// 
.................... ////                                                                   //// 
.................... ////   d = read_ext_eeprom(a);   Read the byte d from the address a    //// 
.................... ////                                                                   //// 
.................... ////   The main program may define eeprom_sda                          //// 
.................... ////   and eeprom_scl to override the defaults below.                  //// 
.................... ////                                                                   //// 
.................... /////////////////////////////////////////////////////////////////////////// 
.................... ////        (C) Copyright 1996,2003 Custom Computer Services           //// 
.................... //// This source code may only be used by licensed users of the CCS C  //// 
.................... //// compiler.  This source code may only be distributed to other      //// 
.................... //// licensed users of the CCS C compiler.  No other use, reproduction //// 
.................... //// or distribution is permitted without written permission.          //// 
.................... //// Derivative programs created using this software in object code    //// 
.................... //// form are not restricted in any way.                               //// 
.................... /////////////////////////////////////////////////////////////////////////// 
....................  
.................... #ifndef EEPROM_SDA 
....................  
.................... #define EEPROM_SDA  PIN_C4 
.................... #define EEPROM_SCL  PIN_C3 
....................  
.................... #endif 
....................  
.................... //#use i2c(master, sda=EEPROM_SDA, scl=EEPROM_SCL) 
....................  
.................... #define EEPROM_ADDRESS long int 
.................... #define EEPROM_SIZE   65535 
....................  
.................... void init_ext_eeprom() 
.................... { 
....................    output_float(EEPROM_SCL); 
....................    output_float(EEPROM_SDA); 
....................  
.................... } 
....................  
.................... void write_ext_eeprom(long int address, BYTE data) 
.................... { 
....................    short int status; 
....................    i2c_start(); 
*
0651E:  BSF    F94.4
06520:  MOVLW  05
06522:  MOVWF  00
06524:  DECFSZ 00,F
06526:  BRA    6524
06528:  BSF    F94.3
0652A:  MOVLW  06
0652C:  MOVWF  00
0652E:  DECFSZ 00,F
06530:  BRA    652E
06532:  BCF    F8B.4
06534:  BCF    F94.4
06536:  MOVLW  05
06538:  MOVWF  00
0653A:  DECFSZ 00,F
0653C:  BRA    653A
0653E:  BCF    F8B.3
06540:  BCF    F94.3
....................    i2c_write(0xa0); 
06542:  MOVLW  A0
06544:  MOVLB  7
06546:  MOVWF  x11
06548:  MOVLB  0
0654A:  CALL   1A12
....................    i2c_write(address>>8); 
0654E:  MOVFF  708,70B
06552:  MOVLB  7
06554:  CLRF   x0C
06556:  MOVFF  708,711
0655A:  MOVLB  0
0655C:  CALL   1A12
....................    i2c_write(address); 
06560:  MOVFF  707,711
06564:  CALL   1A12
....................    i2c_write(data); 
06568:  MOVFF  709,711
0656C:  CALL   1A12
....................    i2c_stop(); 
06570:  BCF    F94.4
06572:  NOP   
06574:  BSF    F94.3
06576:  BTFSS  F82.3
06578:  BRA    6576
0657A:  MOVLW  05
0657C:  MOVWF  00
0657E:  DECFSZ 00,F
06580:  BRA    657E
06582:  BRA    6584
06584:  NOP   
06586:  BSF    F94.4
06588:  MOVLW  05
0658A:  MOVWF  00
0658C:  DECFSZ 00,F
0658E:  BRA    658C
....................    i2c_start(); 
06590:  BSF    F94.4
06592:  MOVLW  05
06594:  MOVWF  00
06596:  DECFSZ 00,F
06598:  BRA    6596
0659A:  BSF    F94.3
0659C:  MOVLW  06
0659E:  MOVWF  00
065A0:  DECFSZ 00,F
065A2:  BRA    65A0
065A4:  BCF    F8B.4
065A6:  BCF    F94.4
065A8:  MOVLW  05
065AA:  MOVWF  00
065AC:  DECFSZ 00,F
065AE:  BRA    65AC
065B0:  BCF    F8B.3
065B2:  BCF    F94.3
....................    status=i2c_write(0xa0); 
065B4:  MOVLW  A0
065B6:  MOVLB  7
065B8:  MOVWF  x11
065BA:  MOVLB  0
065BC:  CALL   1A12
065C0:  MOVF   01,W
065C2:  MOVLB  7
065C4:  BCF    x0A.0
065C6:  BTFSC  01.0
065C8:  BSF    x0A.0
....................    while(status==1) 
....................    { 
065CA:  BTFSS  x0A.0
065CC:  BRA    660C
....................       i2c_start(); 
065CE:  BSF    F94.4
065D0:  MOVLW  05
065D2:  MOVWF  00
065D4:  DECFSZ 00,F
065D6:  BRA    65D4
065D8:  BSF    F94.3
065DA:  MOVLW  06
065DC:  MOVWF  00
065DE:  DECFSZ 00,F
065E0:  BRA    65DE
065E2:  BTFSS  F82.3
065E4:  BRA    65E2
065E6:  BCF    F8B.4
065E8:  BCF    F94.4
065EA:  MOVLW  05
065EC:  MOVWF  00
065EE:  DECFSZ 00,F
065F0:  BRA    65EE
065F2:  BCF    F8B.3
065F4:  BCF    F94.3
....................       status=i2c_write(0xa0); 
065F6:  MOVLW  A0
065F8:  MOVWF  x11
065FA:  MOVLB  0
065FC:  CALL   1A12
06600:  MOVF   01,W
06602:  MOVLB  7
06604:  BCF    x0A.0
06606:  BTFSC  01.0
06608:  BSF    x0A.0
....................    } 
0660A:  BRA    65CA
....................    i2c_stop(); 
0660C:  BCF    F94.4
0660E:  NOP   
06610:  BSF    F94.3
06612:  BTFSS  F82.3
06614:  BRA    6612
06616:  MOVLW  05
06618:  MOVWF  00
0661A:  DECFSZ 00,F
0661C:  BRA    661A
0661E:  BRA    6620
06620:  NOP   
06622:  BSF    F94.4
06624:  MOVLW  05
06626:  MOVWF  00
06628:  DECFSZ 00,F
0662A:  BRA    6628
.................... } 
0662C:  MOVLB  0
0662E:  RETLW  00
....................  
.................... BYTE read_ext_eeprom(long int address) { 
....................    BYTE data; 
....................    i2c_start(); 
*
01AF4:  BSF    F94.4
01AF6:  MOVLW  05
01AF8:  MOVWF  00
01AFA:  DECFSZ 00,F
01AFC:  BRA    1AFA
01AFE:  BSF    F94.3
01B00:  MOVLW  06
01B02:  MOVWF  00
01B04:  DECFSZ 00,F
01B06:  BRA    1B04
01B08:  BCF    F8B.4
01B0A:  BCF    F94.4
01B0C:  MOVLW  05
01B0E:  MOVWF  00
01B10:  DECFSZ 00,F
01B12:  BRA    1B10
01B14:  BCF    F8B.3
01B16:  BCF    F94.3
....................    i2c_write(0xa0); 
01B18:  MOVLW  A0
01B1A:  MOVLB  7
01B1C:  MOVWF  x11
01B1E:  MOVLB  0
01B20:  RCALL  1A12
....................    i2c_write(address>>8); 
01B22:  MOVFF  706,708
01B26:  MOVLB  7
01B28:  CLRF   x09
01B2A:  MOVFF  706,711
01B2E:  MOVLB  0
01B30:  RCALL  1A12
....................    i2c_write(address); 
01B32:  MOVFF  705,711
01B36:  RCALL  1A12
....................    i2c_start(); 
01B38:  BSF    F94.4
01B3A:  MOVLW  05
01B3C:  MOVWF  00
01B3E:  DECFSZ 00,F
01B40:  BRA    1B3E
01B42:  BSF    F94.3
01B44:  MOVLW  06
01B46:  MOVWF  00
01B48:  DECFSZ 00,F
01B4A:  BRA    1B48
01B4C:  BTFSS  F82.3
01B4E:  BRA    1B4C
01B50:  BCF    F8B.4
01B52:  BCF    F94.4
01B54:  MOVLW  05
01B56:  MOVWF  00
01B58:  DECFSZ 00,F
01B5A:  BRA    1B58
01B5C:  BCF    F8B.3
01B5E:  BCF    F94.3
....................    i2c_write(0xa1); 
01B60:  MOVLW  A1
01B62:  MOVLB  7
01B64:  MOVWF  x11
01B66:  MOVLB  0
01B68:  RCALL  1A12
....................    data=i2c_read(0); 
01B6A:  CLRF   00
01B6C:  BRA    1A88
01B6E:  MOVFF  01,707
....................    i2c_stop(); 
01B72:  BCF    F94.4
01B74:  NOP   
01B76:  BSF    F94.3
01B78:  BTFSS  F82.3
01B7A:  BRA    1B78
01B7C:  MOVLW  05
01B7E:  MOVWF  00
01B80:  DECFSZ 00,F
01B82:  BRA    1B80
01B84:  BRA    1B86
01B86:  NOP   
01B88:  BSF    F94.4
01B8A:  MOVLW  05
01B8C:  MOVWF  00
01B8E:  DECFSZ 00,F
01B90:  BRA    1B8E
....................    return(data); 
01B92:  MOVLB  7
01B94:  MOVFF  707,01
.................... } 
01B98:  MOVLB  0
01B9A:  RETLW  00
....................  
....................  
.................... #define   UP            !input(PIN_B0) 
.................... #define   DOWN          !input(PIN_B1) 
.................... #define   RIGHT         !input(PIN_B2) 
.................... #define   LEFT          !input(PIN_B3) 
....................  
.................... #define   PRES          !input(PIN_B7) 
.................... #define   DOOR          !input(PIN_B6) 
.................... #define   STOP          !input(PIN_B5) 
.................... #define   TERM          !input(PIN_B4) 
....................  
.................... //#define   LOW           input(PIN_C1) 
.................... //#define   HIG           input(PIN_C0) 
....................  
.................... #define   SSR_on           output_bit(PIN_E1,1) 
.................... #define   SSR_off          output_bit(PIN_E1,0) 
....................  
.................... #define   SSR2_on          output_bit(PIN_E2,1) 
.................... #define   SSR2_off         output_bit(PIN_E2,0) 
....................  
.................... #define   Buzzer_on        output_bit(PIN_D7,1) 
.................... #define   Buzzer_off       output_bit(PIN_D7,0) 
....................  
.................... #define   Agua_on          output_bit(PIN_C0,0) 
.................... #define   Agua_off         output_bit(PIN_C0,1) 
....................  
.................... #define   Desfogue_on      output_bit(PIN_C1,0) 
.................... #define   Desfogue_off     output_bit(PIN_C1,1) 
....................  
.................... #define   AireEnf_on       output_bit(PIN_C2,0) 
.................... #define   AireEnf_off      output_bit(PIN_C2,1) 
....................  
.................... #define   Aire_on          output_bit(PIN_D0,0) 
.................... #define   Aire_off         output_bit(PIN_D0,1) 
....................  
.................... #define OFF 0 
.................... #define ON  1 
.................... #define RX_BUFFER_SIZE  10 
.................... char Rx_Buffer[RX_BUFFER_SIZE+1]; 
.................... char Rx_Buffer2[RX_BUFFER_SIZE+1]; 
.................... char RX_Wr_Index=0; 
.................... char RX_Rd_Index=0; 
.................... char RX_Counter=0; 
....................  
.................... #define TX_BUFFER_SIZE  24 
.................... char Tx_Buffer[TX_BUFFER_SIZE+1]; 
.................... char TX_Wr_Index=0; 
.................... char TX_Counter=0; 
.................... //int1 RX_Buffer_Overflow=0; 
....................  
.................... //Comunicacion//------------------------ 
.................... int8 SlaveA0Tx[0X20]; 
.................... int8 dato=0;            //Contendr la informacin a enviar o recibir 
.................... int8 direccion=0;       //Contendr la direccin del esclavo en el bus I2C 
.................... int8 posicion=0;        //Contendr la posicin en el buffer de memoria del esclavo donde se almacenar o de donde se recuperar el dato 
....................  
.................... /* Tabla de Modulos, Primera Fila Ao Regular y el siguiente ao Bisiesto 
.................... E   F   M   A   M   J   J   A   S   O   N   D 
.................... 0   3   3   6   1   4   6   2   5   0   3   5 
.................... 0   3   4   0   2   5   0   3   6   1   4   6 
.................... */ 
.................... int8 Regular[12]={0,3,3,6,1,4,6,2,5,0,3,5}; 
.................... int8 Bisiesto[12]={0,3,4,0,2,5,0,3,6,1,4,6}; 
....................  
.................... //Alarmas//--------------------- 
.................... short AlarmaTiempoProlongado=OFF,AlarmaSobreTemperatura=OFF,AlarmaLlenado=OFF,AlarmaTermostato=OFF,AlarmaPuerta=OFF,AlarmaEmergencia=OFF,AlarmaCiclo=OFF; 
....................  
.................... //Banderas//-------------------- 
.................... short IniciaLlenado=OFF,CalderinLleno=OFF,IniciaCiclo=OFF,Esterilizando=OFF,Secando=OFF,SensadoNivel=OFF,Desfogando=OFF,DesfogueSuave=OFF; 
.................... short EstadoDesfogue=OFF,EstadoAgua=OFF,EstadoSSR=OFF,PruebaEstados=OFF,Ciclo=OFF,Enfriando=OFF; 
.................... short Op=OFF,Op2=OFF,Minutos=OFF,Segundos=OFF,GuardaEEPROM=OFF,EstadoPaso=OFF,EstadoBuzzer=OFF,flagAlarma=OFF,guardaCiclo=OFF,estadoAire=OFF; 
.................... short flagBuzzer=OFF,flagSilencio=OFF,Finalizo=OFF,AlarmaPresion=OFF,Libre=OFF,purga=OFF,entro=OFF,LOW=OFF,HIG=OFF,disp_Guarda=OFF,SensadoNivelL=OFF; 
....................  
.................... //Tiempos//--------------------- 
.................... int16 TiempoCiclo=0,TiempoLlenado=0,TiempoSensadoNivel=0,Tp=0,Tc=0,tNivelBajo=0,tguarda=0; 
.................... int8 sEst=0,mEst=0,sSec=0,mSec=0,sEstp=0,mEstp=0,sSecp=0,mSecp=0;// Tiempo transcurrido 
....................  
.................... //Control//------------------------ 
.................... float promedio[80]={0.0,0.0,0.0,0.0,0.0,0.0,0.0,0.0,0.0,0.0,0.0,0.0,0.0,0.0,0.0,0.0,0.0,0.0,0.0,0.0,0.0,0.0,0.0,0.0,0.0,0.0,0.0,0.0,0.0,0.0,0.0,0.0,0.0,0.0,0.0,0.0,0.0,0.0,0.0,0.0,0.0,0.0,0.0,0.0,0.0,0.0,0.0,0.0,0.0,0.0,0.0,0.0,0.0,0.0,0.0,0.0,0.0,0.0,0.0,0.0,0.0,0.0,0.0,0.0}; 
.................... float PromPresion[20]={0.0,0.0,0.0,0.0,0.0,0.0,0.0,0.0,0.0,0.0,0.0,0.0,0.0,0.0,0.0,0.0,0.0,0.0,0.0,0.0}; 
.................... float PromPresionp[20]={0.0,0.0,0.0,0.0,0.0,0.0,0.0,0.0,0.0,0.0,0.0,0.0,0.0,0.0,0.0,0.0,0.0,0.0,0.0,0.0}; 
.................... float Gain=141.6,RPT100=0.5,Temporal=0.0; 
.................... float R10=6810; 
.................... float X[2]={0.0,0.0}; 
.................... float Xx[2]={0.0,0.0}; 
.................... float promediopresion=0.0,Aumento=0.0,promediopresionp=0.0,Aumento2=0.0; 
.................... int8 h=0,l=0,Ajuste=0,Ajusten=0,MediaMovil=20,TTrampa=0,PantallaPrincipal=0,TipoClave=0,Modulo=0,Digito=0,yy=0; 
.................... float V0=0.0,Pt,Tciclo=10.0,Tpulso=0.0,error=0.0,Prom=0.0,Temperature=0.0,tmp=0.0,Ganancia=25.0,Ganancia2=20.0,desvio=1.0,tmp2=0.0; 
.................... float V1=0.0,Presion=0.0,V2=0.0,Presionp=0.0; 
.................... float Temperatura=0.0,K=0.0012858,Temperatura2=0.0; 
.................... float a=0.0011,b=2.3302,c=-244.0723; 
.................... int8 Integral=0,Derivativo=0,CicloLibre=0; 
.................... float p1=0.0000011617,p2=-0.0010575,p3=0.44114,p4=65.043,Tactual=0.0; 
....................  
.................... //Varios//-------------------------------- 
.................... short desfoguelento=0,Lectura=0,Grafica=0; 
.................... short disp_Stop=0,flagTC=0,flagImprime=0,flagImprimir=0; 
.................... int8 Control=0,tiemporecta=0,Controlando=0,timpresion=2,CalculoImpresion=0,Inicio=1,Dato_Exitoso=0,Dato2=0,z=0; 
.................... int8 Menu=0, MenuAnt=0,MenuAntt=240,i=0,CiclosL=0,CiclosH=0,CicloSeleccionado=0; 
.................... int8 Setpoint=0,Opcion=1,Opcion2=1,tiempo_esterilizacion=0,tiempo_secado=0,tiempoImpresion=0; 
.................... int16 tiempos=0,tiempos2=0,tiempos3=0,tiempoctrl=0,Nivel=0,tinicio=0,PresionCamara=0,PresionPreCamara=0,Ciclos=0,NivelSeleccionado=0,tstop=0,tterm=0,tdoor=0; 
.................... signed int  Contrasena[4]={0,0,0,0};      // Contrasena de 4 digitos 
.................... signed int  Password[4]={0,0,0,0};        // Contrasena Almacenada de 4 digitos 
.................... int8 r=0,t=0,r22=0,t2=0,TiempoControl=0; 
.................... int8 y=0,ConteoBuzzer=0; 
.................... int16 t_exhaust=0,tbuzzer=0,tsilencio=0; 
.................... int8 Year=18,Mes=9,Dia=13,Hora=0,Minuto=0,Segundo=0,dow=0,Atmosferica=75,Tapertura=0,cicloVisto=0,cicloVisualizado=0,posicionDato=0,j=0,codigoAlarma=0,codigoAnt=0; 
.................... int8 YearTx=0,MesTx=0,DiaTx=0,HoraTx=0,MinutoTx=0,dowTx=0,SetTime=0,Imprime=0; 
.................... signed int8 G1=0,G2=0,sg1=0,sg2=0; 
.................... int8 iconoGrande[9]={25,16,22,24,23,28,20,46,69}; 
.................... int8 iconoPeque[9]={34,36,18,33,32,38,19,17,68}; 
.................... char const texto[9][20]={"LIQUIDOS A","CAUCHO","INSTRUMENTAL","LIQUIDOS B","LIBRE","TEST","HORA Y FECHA","CLAVE","DATOS"}; 
....................  
.................... float TCiclos[7]; 
.................... int16 PcCiclos[7]; 
.................... int16 PpcCiclos[7]; 
.................... int8 horaCiclos[7]; 
.................... int8 minutoCiclos[7]; 
.................... int8 ACiclos[7]; 
.................... int8 diaCiclos=0,mesCiclos=0,yearCiclos=0,usuarioCiclos=0,cicloCiclos=0; 
....................  
.................... typedef struct{ 
....................    int8 Temperatura; 
....................    int8 MinutoestH; 
....................    int8 MinutoestL; 
....................    int8 Segundoest; 
....................    int8 Minutosec; 
....................    int8 Segundosec; 
....................    int8 PulsosVacio; 
....................    int8 NivelVacio; 
....................    int8 NivelDesfogue; 
....................    int8 Minutoest; 
.................... }Personalizado; 
....................  
.................... typedef struct{ 
....................    float BN; 
....................    float AN; 
....................    float V0; 
....................    float Pt; 
....................    float RPT100; 
....................    int8 l; 
....................    int8 h; 
....................    float Prom; 
....................    float Temperature; 
....................    int8 Ajuste; 
....................    int8 Ajusten; 
....................    float promedio[80]; 
....................    float Gain; 
.................... }SensorPT100; 
....................  
.................... SensorPT100 Sensor[2]; 
.................... Personalizado CiclosPersonalizados[4]; 
....................  
.................... #include "Funciones.h" 
.................... void BorraBuffer(void){ 
.................... RX_Buffer[0]=0; 
*
04E58:  CLRF   30
.................... RX_Buffer[1]=0; 
04E5A:  CLRF   31
.................... RX_Buffer[2]=0; 
04E5C:  CLRF   32
.................... RX_Buffer[3]=0; 
04E5E:  CLRF   33
.................... RX_Buffer[4]=0; 
04E60:  CLRF   34
.................... RX_Buffer[5]=0; 
04E62:  CLRF   35
.................... RX_Buffer[6]=0; 
04E64:  CLRF   36
.................... RX_Buffer[7]=0; 
04E66:  CLRF   37
.................... RX_Buffer[8]=0; 
04E68:  CLRF   38
.................... RX_Buffer[9]=0; 
04E6A:  CLRF   39
....................  
.................... RX_Buffer2[0]=0; 
04E6C:  CLRF   3B
.................... RX_Buffer2[1]=0; 
04E6E:  CLRF   3C
.................... RX_Buffer2[2]=0; 
04E70:  CLRF   3D
.................... RX_Buffer2[3]=0; 
04E72:  CLRF   3E
.................... RX_Buffer2[4]=0; 
04E74:  CLRF   3F
.................... RX_Buffer2[5]=0; 
04E76:  CLRF   40
.................... RX_Buffer2[6]=0; 
04E78:  CLRF   41
.................... RX_Buffer2[7]=0; 
04E7A:  CLRF   42
.................... RX_Buffer2[8]=0; 
04E7C:  CLRF   43
.................... RX_Buffer2[9]=0; 
04E7E:  CLRF   44
....................  
.................... } 
04E80:  GOTO   4ED0 (RETURN)
....................  
.................... char bgetc(void){ 
....................    char c; 
....................    while(RX_Counter==0) 
....................       ; 
....................    c=Rx_Buffer2[RX_Rd_Index]; 
....................    if(++RX_Rd_Index>RX_BUFFER_SIZE) 
....................       RX_Rd_Index=0; 
....................    if(RX_Counter) 
....................       RX_Counter--; 
....................    return c; 
.................... } 
....................  
.................... void bputc(char c){ 
....................    char restart=0; 
....................    while(TX_Counter> (TX_BUFFER_SIZE-1)) 
....................       ; 
....................    if(TX_Counter==0) 
....................       restart=1; 
....................    TX_Buffer[TX_Wr_Index++]=c; 
....................    if(TX_Wr_Index>TX_BUFFER_SIZE) 
....................       TX_Wr_Index=0; 
....................     
....................    TX_Counter++; 
....................     
....................    if(restart==1) 
....................       enable_interrupts(int_tbe); 
.................... } 
....................  
.................... void SendDataDisplay(void){ 
.................... delay_us(10); 
*
038F8:  MOVLW  10
038FA:  MOVWF  00
038FC:  DECFSZ 00,F
038FE:  BRA    38FC
03900:  NOP   
.................... putc(0xFF); 
03902:  MOVLW  FF
03904:  RCALL  38F0
.................... delay_us(10); 
03906:  MOVLW  10
03908:  MOVWF  00
0390A:  DECFSZ 00,F
0390C:  BRA    390A
0390E:  NOP   
.................... putc(0xFF); 
03910:  MOVLW  FF
03912:  RCALL  38F0
.................... delay_us(10); 
03914:  MOVLW  10
03916:  MOVWF  00
03918:  DECFSZ 00,F
0391A:  BRA    3918
0391C:  NOP   
.................... putc(0xFF); 
0391E:  MOVLW  FF
03920:  RCALL  38F0
.................... delay_us(10); 
03922:  MOVLW  10
03924:  MOVWF  00
03926:  DECFSZ 00,F
03928:  BRA    3926
0392A:  NOP   
.................... } 
0392C:  RETLW  00
....................  
.................... short esBisiesto(int8 year) { 
....................      return ((year % 4 == 0 && year % 100 != 0) || year % 400 == 0); 
*
0536C:  MOVLB  6
0536E:  MOVF   xFA,W
05370:  ANDLW  03
05372:  BNZ   5386
05374:  MOVFF  6FA,709
05378:  MOVLW  64
0537A:  MOVLB  7
0537C:  MOVWF  x0A
0537E:  MOVLB  0
05380:  RCALL  4F0E
05382:  MOVF   00,F
05384:  BNZ   53B6
05386:  MOVLB  7
05388:  CLRF   x05
0538A:  MOVFF  6FA,704
0538E:  MOVLW  01
05390:  MOVWF  x07
05392:  MOVLW  90
05394:  MOVWF  x06
05396:  MOVLB  0
05398:  RCALL  5326
0539A:  MOVFF  00,6FB
0539E:  MOVLB  6
053A0:  MOVFF  03,6FC
053A4:  MOVF   xFB,F
053A6:  BNZ   53B2
053A8:  MOVF   xFC,F
053AA:  BTFSS  FD8.2
053AC:  BRA    53B2
053AE:  MOVLB  0
053B0:  BRA    53B6
053B2:  MOVLW  00
053B4:  BRA    53BA
053B6:  MOVLW  01
053B8:  MOVLB  6
053BA:  MOVWF  01
.................... } 
053BC:  MOVLB  0
053BE:  RETLW  00
....................  
.................... void LimitaDia(){ 
....................    if(MesTx>12) 
*
054AC:  MOVLB  3
054AE:  MOVF   x9B,W
054B0:  SUBLW  0C
054B2:  BC    54B8
....................       MesTx=10; 
054B4:  MOVLW  0A
054B6:  MOVWF  x9B
....................    if(DiaTx>31) 
054B8:  MOVF   x9C,W
054BA:  SUBLW  1F
054BC:  BC    54C2
....................       DiaTx=16; 
054BE:  MOVLW  10
054C0:  MOVWF  x9C
....................    if(YearTx>99) 
054C2:  MOVF   x9A,W
054C4:  SUBLW  63
054C6:  BC    54CC
....................       YearTx=18;    
054C8:  MOVLW  12
054CA:  MOVWF  x9A
....................    if(HoraTx>24) 
054CC:  MOVF   x9D,W
054CE:  SUBLW  18
054D0:  BC    54D6
....................       HoraTx=11;       
054D2:  MOVLW  0B
054D4:  MOVWF  x9D
....................    if(MinutoTx>59) 
054D6:  MOVF   x9E,W
054D8:  SUBLW  3B
054DA:  BC    54E0
....................       MinutoTx=30;       
054DC:  MOVLW  1E
054DE:  MOVWF  x9E
....................     
....................       if(MesTx==2){ 
054E0:  MOVF   x9B,W
054E2:  SUBLW  02
054E4:  BNZ   5510
....................          if(esBisiesto(YearTx)){ 
054E6:  MOVFF  39A,6FA
054EA:  MOVLB  0
054EC:  RCALL  536C
054EE:  MOVF   01,F
054F0:  BZ    5502
....................             if(DiaTx>29){ 
054F2:  MOVLB  3
054F4:  MOVF   x9C,W
054F6:  SUBLW  1D
054F8:  BC    54FE
....................                DiaTx=29; 
054FA:  MOVLW  1D
054FC:  MOVWF  x9C
....................                //glcd_fillScreen(OFF); 
....................             } 
....................          }else{ 
054FE:  BRA    550E
05500:  MOVLB  0
....................             if(DiaTx>28){ 
05502:  MOVLB  3
05504:  MOVF   x9C,W
05506:  SUBLW  1C
05508:  BC    550E
....................                DiaTx=28; 
0550A:  MOVLW  1C
0550C:  MOVWF  x9C
....................                //glcd_fillScreen(OFF); 
....................             } 
....................          } 
....................       }else{ 
0550E:  BRA    553A
....................          if(MesTx<=7){ 
05510:  MOVF   x9B,W
05512:  SUBLW  07
05514:  BNC   5528
....................             if(MesTx % 2 ==0){ 
05516:  MOVF   x9B,W
05518:  ANDLW  01
0551A:  BNZ   5526
....................                if(DiaTx>30){ 
0551C:  MOVF   x9C,W
0551E:  SUBLW  1E
05520:  BC    5526
....................                   DiaTx=30;  
05522:  MOVLW  1E
05524:  MOVWF  x9C
....................                   //glcd_fillScreen(OFF); 
....................                } 
....................             } 
....................          }else{ 
05526:  BRA    553A
....................             if(MesTx % 2 ==1){ 
05528:  MOVF   x9B,W
0552A:  ANDLW  01
0552C:  SUBLW  01
0552E:  BNZ   553A
....................                if(DiaTx>30){ 
05530:  MOVF   x9C,W
05532:  SUBLW  1E
05534:  BC    553A
....................                   DiaTx=30;  
05536:  MOVLW  1E
05538:  MOVWF  x9C
....................                   //glcd_fillScreen(OFF); 
....................                } 
....................             } 
....................          } 
....................       } 
.................... } 
0553A:  MOVLB  0
0553C:  GOTO   B1D6 (RETURN)
....................  
.................... void ActualizaRecta(){ 
....................    X[y]=Temperature; 
*
06D2A:  MOVLB  3
06D2C:  MOVF   x83,W
06D2E:  MULLW  04
06D30:  MOVF   FF3,W
06D32:  CLRF   03
06D34:  ADDLW  AB
06D36:  MOVWF  FE9
06D38:  MOVLW  02
06D3A:  ADDWFC 03,W
06D3C:  MOVWF  FEA
06D3E:  MOVFF  2EE,FEF
06D42:  MOVFF  2EF,FEC
06D46:  MOVFF  2F0,FEC
06D4A:  MOVFF  2F1,FEC
....................    y++; 
06D4E:  INCF   x83,F
....................    if(y>=2) 
06D50:  MOVF   x83,W
06D52:  SUBLW  01
06D54:  BC    6D92
....................    { 
....................       y=0; 
06D56:  CLRF   x83
....................       Aumento=X[1]-X[0]; 
06D58:  BSF    FD8.1
06D5A:  MOVFF  2B2,715
06D5E:  MOVFF  2B1,714
06D62:  MOVFF  2B0,713
06D66:  MOVFF  2AF,712
06D6A:  MOVFF  2AE,719
06D6E:  MOVFF  2AD,718
06D72:  MOVFF  2AC,717
06D76:  MOVFF  2AB,716
06D7A:  MOVLB  0
06D7C:  CALL   1D3A
06D80:  MOVFF  03,2C2
06D84:  MOVFF  02,2C1
06D88:  MOVFF  01,2C0
06D8C:  MOVFF  00,2BF
06D90:  MOVLB  3
....................    } 
.................... } 
06D92:  MOVLB  0
06D94:  GOTO   6E10 (RETURN)
....................  
.................... void ActualizaRectaPresion(){ 
....................    Xx[yy]=Tactual; 
*
072E0:  MOVLB  2
072E2:  MOVF   xD5,W
072E4:  MULLW  04
072E6:  MOVF   FF3,W
072E8:  CLRF   03
072EA:  ADDLW  B3
072EC:  MOVWF  FE9
072EE:  MOVLW  02
072F0:  ADDWFC 03,W
072F2:  MOVWF  FEA
072F4:  MOVFF  341,FEF
072F8:  MOVFF  342,FEC
072FC:  MOVFF  343,FEC
07300:  MOVFF  344,FEC
....................    yy++; 
07304:  INCF   xD5,F
....................    if(yy>=2){ 
07306:  MOVF   xD5,W
07308:  SUBLW  01
0730A:  BC    7348
....................       yy=0; 
0730C:  CLRF   xD5
....................       Aumento2=Xx[1]-Xx[0]; 
0730E:  BSF    FD8.1
07310:  MOVFF  2BA,715
07314:  MOVFF  2B9,714
07318:  MOVFF  2B8,713
0731C:  MOVFF  2B7,712
07320:  MOVFF  2B6,719
07324:  MOVFF  2B5,718
07328:  MOVFF  2B4,717
0732C:  MOVFF  2B3,716
07330:  MOVLB  0
07332:  CALL   1D3A
07336:  MOVFF  03,2CA
0733A:  MOVFF  02,2C9
0733E:  MOVFF  01,2C8
07342:  MOVFF  00,2C7
07346:  MOVLB  2
....................    } 
.................... } 
07348:  MOVLB  0
0734A:  GOTO   73D0 (RETURN)
.................... // Funcion para conversor analogo-digital 
.................... float sensores(int x){ 
.................... float y;set_adc_channel(x);delay_ms(1);y=read_adc();return (y); 
*
03956:  MOVLB  7
03958:  RLCF   x06,W
0395A:  MOVWF  00
0395C:  RLCF   00,F
0395E:  MOVLW  FC
03960:  ANDWF  00,F
03962:  MOVFF  00,01
03966:  MOVF   FC2,W
03968:  ANDLW  C3
0396A:  IORWF  00,W
0396C:  MOVWF  FC2
0396E:  MOVLW  01
03970:  MOVWF  x10
03972:  MOVLB  0
03974:  CALL   1992
03978:  BSF    FC2.1
0397A:  BTFSC  FC2.1
0397C:  BRA    397A
0397E:  MOVFF  FC4,713
03982:  MOVFF  FC3,712
03986:  MOVLB  0
03988:  CALL   19BA
0398C:  MOVFF  03,70A
03990:  MOVFF  02,709
03994:  MOVFF  01,708
03998:  MOVFF  00,707
0399C:  MOVFF  707,00
039A0:  MOVFF  708,01
039A4:  MOVFF  709,02
039A8:  MOVFF  70A,03
.................... } 
039AC:  RETLW  00
....................  
.................... float LeerPT100(int8 canal,int media) 
.................... { 
....................    Prom=0.0;  
*
03AA4:  MOVLB  2
03AA6:  CLRF   xED
03AA8:  CLRF   xEC
03AAA:  CLRF   xEB
03AAC:  CLRF   xEA
....................    Sensor[canal].V0 = sensores(canal);   //Lectura de Divisor de Voltaje de PT100 con resistencia de 6.18k (+-2%) 
03AAE:  MOVLB  7
03AB0:  CLRF   x0B
03AB2:  MOVFF  702,70A
03AB6:  MOVLW  01
03AB8:  MOVWF  x0D
03ABA:  MOVLW  64
03ABC:  MOVWF  x0C
03ABE:  MOVLB  0
03AC0:  CALL   19F0
03AC4:  MOVFF  01,704
03AC8:  MOVLW  08
03ACA:  MOVLB  7
03ACC:  ADDWF  01,W
03ACE:  MOVWF  01
03AD0:  MOVLW  00
03AD2:  ADDWFC 02,W
03AD4:  MOVWF  03
03AD6:  MOVF   01,W
03AD8:  ADDLW  0A
03ADA:  MOVWF  01
03ADC:  MOVLW  04
03ADE:  ADDWFC 03,F
03AE0:  MOVFF  01,704
03AE4:  MOVFF  03,705
03AE8:  MOVFF  702,706
03AEC:  MOVLB  0
03AEE:  RCALL  3956
03AF0:  MOVFF  705,FEA
03AF4:  MOVFF  704,FE9
03AF8:  MOVFF  00,FEF
03AFC:  MOVFF  01,FEC
03B00:  MOVFF  02,FEC
03B04:  MOVFF  03,FEC
....................    Sensor[canal].V0 = Sensor[canal].V0/Sensor[canal].Gain; // Se elimina la ganancia 
03B08:  MOVLB  7
03B0A:  CLRF   x0B
03B0C:  MOVFF  702,70A
03B10:  MOVLW  01
03B12:  MOVWF  x0D
03B14:  MOVLW  64
03B16:  MOVWF  x0C
03B18:  MOVLB  0
03B1A:  CALL   19F0
03B1E:  MOVFF  01,704
03B22:  MOVLW  08
03B24:  MOVLB  7
03B26:  ADDWF  01,W
03B28:  MOVWF  01
03B2A:  MOVLW  00
03B2C:  ADDWFC 02,W
03B2E:  MOVWF  03
03B30:  MOVF   01,W
03B32:  ADDLW  0A
03B34:  MOVWF  01
03B36:  MOVLW  04
03B38:  ADDWFC 03,F
03B3A:  MOVFF  01,704
03B3E:  MOVFF  03,705
03B42:  CLRF   x0B
03B44:  MOVFF  702,70A
03B48:  MOVLW  01
03B4A:  MOVWF  x0D
03B4C:  MOVLW  64
03B4E:  MOVWF  x0C
03B50:  MOVLB  0
03B52:  CALL   19F0
03B56:  MOVFF  01,706
03B5A:  MOVLW  08
03B5C:  MOVLB  7
03B5E:  ADDWF  01,W
03B60:  MOVWF  01
03B62:  MOVLW  00
03B64:  ADDWFC 02,W
03B66:  MOVWF  03
03B68:  MOVF   01,W
03B6A:  ADDLW  0A
03B6C:  MOVWF  FE9
03B6E:  MOVLW  04
03B70:  ADDWFC 03,W
03B72:  MOVWF  FEA
03B74:  MOVFF  FEF,706
03B78:  MOVFF  FEC,707
03B7C:  MOVFF  FEC,708
03B80:  MOVFF  FEC,709
03B84:  CLRF   x0B
03B86:  MOVFF  702,70A
03B8A:  MOVLW  01
03B8C:  MOVWF  x0D
03B8E:  MOVLW  64
03B90:  MOVWF  x0C
03B92:  MOVLB  0
03B94:  CALL   19F0
03B98:  MOVFF  02,70B
03B9C:  MOVFF  01,70A
03BA0:  MOVLW  60
03BA2:  MOVLB  7
03BA4:  ADDWF  01,W
03BA6:  MOVWF  01
03BA8:  MOVLW  01
03BAA:  ADDWFC 02,W
03BAC:  MOVWF  03
03BAE:  MOVF   01,W
03BB0:  ADDLW  0A
03BB2:  MOVWF  FE9
03BB4:  MOVLW  04
03BB6:  ADDWFC 03,W
03BB8:  MOVWF  FEA
03BBA:  MOVFF  FEF,00
03BBE:  MOVFF  FEC,01
03BC2:  MOVFF  FEC,02
03BC6:  MOVFF  FEC,03
03BCA:  MOVFF  709,70F
03BCE:  MOVFF  708,70E
03BD2:  MOVFF  707,70D
03BD6:  MOVFF  706,70C
03BDA:  MOVFF  03,713
03BDE:  MOVFF  02,712
03BE2:  MOVFF  01,711
03BE6:  MOVFF  00,710
03BEA:  MOVLB  0
03BEC:  CALL   1B9C
03BF0:  MOVFF  705,FEA
03BF4:  MOVFF  704,FE9
03BF8:  MOVFF  00,FEF
03BFC:  MOVFF  01,FEC
03C00:  MOVFF  02,FEC
03C04:  MOVFF  03,FEC
....................    Sensor[canal].V0 = Sensor[canal].V0+14.79; // Se suma voltaje de divisor fijo 
03C08:  MOVLB  7
03C0A:  CLRF   x0B
03C0C:  MOVFF  702,70A
03C10:  MOVLW  01
03C12:  MOVWF  x0D
03C14:  MOVLW  64
03C16:  MOVWF  x0C
03C18:  MOVLB  0
03C1A:  CALL   19F0
03C1E:  MOVFF  01,704
03C22:  MOVLW  08
03C24:  MOVLB  7
03C26:  ADDWF  01,W
03C28:  MOVWF  01
03C2A:  MOVLW  00
03C2C:  ADDWFC 02,W
03C2E:  MOVWF  03
03C30:  MOVF   01,W
03C32:  ADDLW  0A
03C34:  MOVWF  01
03C36:  MOVLW  04
03C38:  ADDWFC 03,F
03C3A:  MOVFF  01,704
03C3E:  MOVFF  03,705
03C42:  CLRF   x0B
03C44:  MOVFF  702,70A
03C48:  MOVLW  01
03C4A:  MOVWF  x0D
03C4C:  MOVLW  64
03C4E:  MOVWF  x0C
03C50:  MOVLB  0
03C52:  CALL   19F0
03C56:  MOVFF  01,706
03C5A:  MOVLW  08
03C5C:  MOVLB  7
03C5E:  ADDWF  01,W
03C60:  MOVWF  01
03C62:  MOVLW  00
03C64:  ADDWFC 02,W
03C66:  MOVWF  03
03C68:  MOVF   01,W
03C6A:  ADDLW  0A
03C6C:  MOVWF  FE9
03C6E:  MOVLW  04
03C70:  ADDWFC 03,W
03C72:  MOVWF  FEA
03C74:  MOVFF  FEF,706
03C78:  MOVFF  FEC,707
03C7C:  MOVFF  FEC,708
03C80:  MOVFF  FEC,709
03C84:  MOVFF  FEA,70B
03C88:  MOVFF  FE9,70A
03C8C:  BCF    FD8.1
03C8E:  MOVFF  709,715
03C92:  MOVFF  708,714
03C96:  MOVFF  707,713
03C9A:  MOVFF  706,712
03C9E:  MOVLW  D7
03CA0:  MOVWF  x19
03CA2:  MOVLW  A3
03CA4:  MOVWF  x18
03CA6:  MOVLW  6C
03CA8:  MOVWF  x17
03CAA:  MOVLW  82
03CAC:  MOVWF  x16
03CAE:  MOVLB  0
03CB0:  CALL   1D3A
03CB4:  MOVFF  70B,FEA
03CB8:  MOVFF  70A,FE9
03CBC:  MOVFF  705,FEA
03CC0:  MOVFF  704,FE9
03CC4:  MOVFF  00,FEF
03CC8:  MOVFF  01,FEC
03CCC:  MOVFF  02,FEC
03CD0:  MOVFF  03,FEC
....................    //Sensor[canal].BN=(Sensor[canal].V0*(R8+R9))+(1023*R9); 
....................    Sensor[canal].Pt = R10/((1023/Sensor[canal].V0)-1); 
03CD4:  MOVLB  7
03CD6:  CLRF   x0B
03CD8:  MOVFF  702,70A
03CDC:  MOVLW  01
03CDE:  MOVWF  x0D
03CE0:  MOVLW  64
03CE2:  MOVWF  x0C
03CE4:  MOVLB  0
03CE6:  CALL   19F0
03CEA:  MOVFF  01,704
03CEE:  MOVLW  0C
03CF0:  MOVLB  7
03CF2:  ADDWF  01,W
03CF4:  MOVWF  01
03CF6:  MOVLW  00
03CF8:  ADDWFC 02,W
03CFA:  MOVWF  03
03CFC:  MOVF   01,W
03CFE:  ADDLW  0A
03D00:  MOVWF  01
03D02:  MOVLW  04
03D04:  ADDWFC 03,F
03D06:  MOVFF  01,704
03D0A:  MOVFF  03,705
03D0E:  CLRF   x0B
03D10:  MOVFF  702,70A
03D14:  MOVLW  01
03D16:  MOVWF  x0D
03D18:  MOVLW  64
03D1A:  MOVWF  x0C
03D1C:  MOVLB  0
03D1E:  CALL   19F0
03D22:  MOVFF  02,707
03D26:  MOVFF  01,706
03D2A:  MOVLW  08
03D2C:  MOVLB  7
03D2E:  ADDWF  01,W
03D30:  MOVWF  01
03D32:  MOVLW  00
03D34:  ADDWFC 02,W
03D36:  MOVWF  03
03D38:  MOVF   01,W
03D3A:  ADDLW  0A
03D3C:  MOVWF  FE9
03D3E:  MOVLW  04
03D40:  ADDWFC 03,W
03D42:  MOVWF  FEA
03D44:  MOVFF  FEF,00
03D48:  MOVFF  FEC,01
03D4C:  MOVFF  FEC,02
03D50:  MOVFF  FEC,03
03D54:  CLRF   x0F
03D56:  MOVLW  C0
03D58:  MOVWF  x0E
03D5A:  MOVLW  7F
03D5C:  MOVWF  x0D
03D5E:  MOVLW  88
03D60:  MOVWF  x0C
03D62:  MOVFF  03,713
03D66:  MOVFF  02,712
03D6A:  MOVFF  01,711
03D6E:  MOVFF  00,710
03D72:  MOVLB  0
03D74:  CALL   1B9C
03D78:  MOVFF  00,706
03D7C:  MOVFF  01,707
03D80:  MOVFF  02,708
03D84:  MOVFF  03,709
03D88:  MOVFF  FEA,70B
03D8C:  MOVFF  FE9,70A
03D90:  BSF    FD8.1
03D92:  MOVFF  03,715
03D96:  MOVFF  02,714
03D9A:  MOVFF  01,713
03D9E:  MOVFF  00,712
03DA2:  MOVLB  7
03DA4:  CLRF   x19
03DA6:  CLRF   x18
03DA8:  CLRF   x17
03DAA:  MOVLW  7F
03DAC:  MOVWF  x16
03DAE:  MOVLB  0
03DB0:  CALL   1D3A
03DB4:  MOVFF  70B,FEA
03DB8:  MOVFF  70A,FE9
03DBC:  MOVFF  2AA,70F
03DC0:  MOVFF  2A9,70E
03DC4:  MOVFF  2A8,70D
03DC8:  MOVFF  2A7,70C
03DCC:  MOVFF  03,713
03DD0:  MOVFF  02,712
03DD4:  MOVFF  01,711
03DD8:  MOVFF  00,710
03DDC:  CALL   1B9C
03DE0:  MOVFF  705,FEA
03DE4:  MOVFF  704,FE9
03DE8:  MOVFF  00,FEF
03DEC:  MOVFF  01,FEC
03DF0:  MOVFF  02,FEC
03DF4:  MOVFF  03,FEC
....................    //Sensor[canal].Pt=Sensor[canal].Pt-Sensor[canal].RPT100; //Ajuste de impedancia de cableado de PT100    
....................              
....................    if(Sensor[canal].l>(media-1)) 
03DF8:  MOVLB  7
03DFA:  CLRF   x0B
03DFC:  MOVFF  702,70A
03E00:  MOVLW  01
03E02:  MOVWF  x0D
03E04:  MOVLW  64
03E06:  MOVWF  x0C
03E08:  MOVLB  0
03E0A:  CALL   19F0
03E0E:  MOVFF  02,705
03E12:  MOVFF  01,704
03E16:  MOVLW  14
03E18:  MOVLB  7
03E1A:  ADDWF  01,W
03E1C:  MOVWF  01
03E1E:  MOVLW  00
03E20:  ADDWFC 02,W
03E22:  MOVWF  03
03E24:  MOVF   01,W
03E26:  ADDLW  0A
03E28:  MOVWF  FE9
03E2A:  MOVLW  04
03E2C:  ADDWFC 03,W
03E2E:  MOVWF  FEA
03E30:  MOVFF  FEF,704
03E34:  MOVLW  01
03E36:  SUBWF  x03,W
03E38:  SUBWF  x04,W
03E3A:  BZ    3E72
03E3C:  BNC   3E72
....................    {Sensor[canal].l=0;} 
03E3E:  CLRF   x0B
03E40:  MOVFF  702,70A
03E44:  MOVLW  01
03E46:  MOVWF  x0D
03E48:  MOVLW  64
03E4A:  MOVWF  x0C
03E4C:  MOVLB  0
03E4E:  CALL   19F0
03E52:  MOVFF  01,704
03E56:  MOVLW  14
03E58:  MOVLB  7
03E5A:  ADDWF  01,W
03E5C:  MOVWF  01
03E5E:  MOVLW  00
03E60:  ADDWFC 02,W
03E62:  MOVWF  03
03E64:  MOVF   01,W
03E66:  ADDLW  0A
03E68:  MOVWF  FE9
03E6A:  MOVLW  04
03E6C:  ADDWFC 03,W
03E6E:  MOVWF  FEA
03E70:  CLRF   FEF
....................     
....................    Sensor[canal].promedio[Sensor[canal].l]=Sensor[canal].Pt;Sensor[canal].l++; 
03E72:  CLRF   x0B
03E74:  MOVFF  702,70A
03E78:  MOVLW  01
03E7A:  MOVWF  x0D
03E7C:  MOVLW  64
03E7E:  MOVWF  x0C
03E80:  MOVLB  0
03E82:  CALL   19F0
03E86:  MOVFF  02,705
03E8A:  MOVFF  01,704
03E8E:  MOVLW  20
03E90:  MOVLB  7
03E92:  ADDWF  x04,F
03E94:  MOVLW  00
03E96:  ADDWFC x05,F
03E98:  CLRF   x0B
03E9A:  MOVFF  702,70A
03E9E:  MOVLW  01
03EA0:  MOVWF  x0D
03EA2:  MOVLW  64
03EA4:  MOVWF  x0C
03EA6:  MOVLB  0
03EA8:  CALL   19F0
03EAC:  MOVFF  02,707
03EB0:  MOVFF  01,706
03EB4:  MOVLW  14
03EB6:  MOVLB  7
03EB8:  ADDWF  01,W
03EBA:  MOVWF  01
03EBC:  MOVLW  00
03EBE:  ADDWFC 02,W
03EC0:  MOVWF  03
03EC2:  MOVF   01,W
03EC4:  ADDLW  0A
03EC6:  MOVWF  FE9
03EC8:  MOVLW  04
03ECA:  ADDWFC 03,W
03ECC:  MOVWF  FEA
03ECE:  CLRF   x0B
03ED0:  MOVFF  FEF,70A
03ED4:  CLRF   x0D
03ED6:  MOVLW  04
03ED8:  MOVWF  x0C
03EDA:  MOVLB  0
03EDC:  CALL   19F0
03EE0:  MOVFF  02,03
03EE4:  MOVF   01,W
03EE6:  MOVLB  7
03EE8:  ADDWF  x04,W
03EEA:  MOVWF  01
03EEC:  MOVF   x05,W
03EEE:  ADDWFC 03,F
03EF0:  MOVF   01,W
03EF2:  ADDLW  0A
03EF4:  MOVWF  01
03EF6:  MOVLW  04
03EF8:  ADDWFC 03,F
03EFA:  MOVFF  01,704
03EFE:  MOVFF  03,705
03F02:  CLRF   x0B
03F04:  MOVFF  702,70A
03F08:  MOVLW  01
03F0A:  MOVWF  x0D
03F0C:  MOVLW  64
03F0E:  MOVWF  x0C
03F10:  MOVLB  0
03F12:  CALL   19F0
03F16:  MOVFF  02,707
03F1A:  MOVFF  01,706
03F1E:  MOVLW  0C
03F20:  MOVLB  7
03F22:  ADDWF  01,W
03F24:  MOVWF  01
03F26:  MOVLW  00
03F28:  ADDWFC 02,W
03F2A:  MOVWF  03
03F2C:  MOVF   01,W
03F2E:  ADDLW  0A
03F30:  MOVWF  FE9
03F32:  MOVLW  04
03F34:  ADDWFC 03,W
03F36:  MOVWF  FEA
03F38:  MOVFF  FEF,00
03F3C:  MOVFF  FEC,01
03F40:  MOVFF  FEC,02
03F44:  MOVFF  FEC,03
03F48:  MOVFF  705,FEA
03F4C:  MOVFF  704,FE9
03F50:  MOVFF  00,FEF
03F54:  MOVFF  01,FEC
03F58:  MOVFF  02,FEC
03F5C:  MOVFF  03,FEC
03F60:  CLRF   x0B
03F62:  MOVFF  702,70A
03F66:  MOVLW  01
03F68:  MOVWF  x0D
03F6A:  MOVLW  64
03F6C:  MOVWF  x0C
03F6E:  MOVLB  0
03F70:  CALL   19F0
03F74:  MOVFF  01,704
03F78:  MOVLW  14
03F7A:  MOVLB  7
03F7C:  ADDWF  01,W
03F7E:  MOVWF  01
03F80:  MOVLW  00
03F82:  ADDWFC 02,W
03F84:  MOVWF  03
03F86:  MOVF   01,W
03F88:  ADDLW  0A
03F8A:  MOVWF  FE9
03F8C:  MOVLW  04
03F8E:  ADDWFC 03,W
03F90:  MOVWF  FEA
03F92:  INCF   FEF,F
....................           
....................    for(Sensor[canal].h=0;Sensor[canal].h<media;Sensor[canal].h++) 
03F94:  CLRF   x0B
03F96:  MOVFF  702,70A
03F9A:  MOVLW  01
03F9C:  MOVWF  x0D
03F9E:  MOVLW  64
03FA0:  MOVWF  x0C
03FA2:  MOVLB  0
03FA4:  CALL   19F0
03FA8:  MOVFF  02,705
03FAC:  MOVFF  01,704
03FB0:  MOVLW  15
03FB2:  MOVLB  7
03FB4:  ADDWF  01,W
03FB6:  MOVWF  01
03FB8:  MOVLW  00
03FBA:  ADDWFC 02,W
03FBC:  MOVWF  03
03FBE:  MOVF   01,W
03FC0:  ADDLW  0A
03FC2:  MOVWF  FE9
03FC4:  MOVLW  04
03FC6:  ADDWFC 03,W
03FC8:  MOVWF  FEA
03FCA:  CLRF   FEF
03FCC:  CLRF   x0B
03FCE:  MOVFF  702,70A
03FD2:  MOVLW  01
03FD4:  MOVWF  x0D
03FD6:  MOVLW  64
03FD8:  MOVWF  x0C
03FDA:  MOVLB  0
03FDC:  CALL   19F0
03FE0:  MOVFF  02,705
03FE4:  MOVFF  01,704
03FE8:  MOVLW  15
03FEA:  MOVLB  7
03FEC:  ADDWF  01,W
03FEE:  MOVWF  01
03FF0:  MOVLW  00
03FF2:  ADDWFC 02,W
03FF4:  MOVWF  03
03FF6:  MOVF   01,W
03FF8:  ADDLW  0A
03FFA:  MOVWF  FE9
03FFC:  MOVLW  04
03FFE:  ADDWFC 03,W
04000:  MOVWF  FEA
04002:  MOVF   x03,W
04004:  SUBWF  FEF,W
04006:  BTFSC  FD8.0
04008:  BRA    4128
....................    { 
....................       Prom+=Sensor[canal].promedio[Sensor[canal].h]; 
0400A:  CLRF   x0B
0400C:  MOVFF  702,70A
04010:  MOVLW  01
04012:  MOVWF  x0D
04014:  MOVLW  64
04016:  MOVWF  x0C
04018:  MOVLB  0
0401A:  CALL   19F0
0401E:  MOVFF  02,705
04022:  MOVFF  01,704
04026:  MOVLW  20
04028:  MOVLB  7
0402A:  ADDWF  x04,F
0402C:  MOVLW  00
0402E:  ADDWFC x05,F
04030:  CLRF   x0B
04032:  MOVFF  702,70A
04036:  MOVLW  01
04038:  MOVWF  x0D
0403A:  MOVLW  64
0403C:  MOVWF  x0C
0403E:  MOVLB  0
04040:  CALL   19F0
04044:  MOVFF  02,707
04048:  MOVFF  01,706
0404C:  MOVLW  15
0404E:  MOVLB  7
04050:  ADDWF  01,W
04052:  MOVWF  01
04054:  MOVLW  00
04056:  ADDWFC 02,W
04058:  MOVWF  03
0405A:  MOVF   01,W
0405C:  ADDLW  0A
0405E:  MOVWF  FE9
04060:  MOVLW  04
04062:  ADDWFC 03,W
04064:  MOVWF  FEA
04066:  CLRF   x0B
04068:  MOVFF  FEF,70A
0406C:  CLRF   x0D
0406E:  MOVLW  04
04070:  MOVWF  x0C
04072:  MOVLB  0
04074:  CALL   19F0
04078:  MOVFF  02,03
0407C:  MOVF   01,W
0407E:  MOVLB  7
04080:  ADDWF  x04,W
04082:  MOVWF  01
04084:  MOVF   x05,W
04086:  ADDWFC 03,F
04088:  MOVF   01,W
0408A:  ADDLW  0A
0408C:  MOVWF  FE9
0408E:  MOVLW  04
04090:  ADDWFC 03,W
04092:  MOVWF  FEA
04094:  MOVFF  FEF,00
04098:  MOVFF  FEC,01
0409C:  MOVFF  FEC,02
040A0:  MOVFF  FEC,03
040A4:  MOVFF  FEA,705
040A8:  MOVFF  FE9,704
040AC:  BCF    FD8.1
040AE:  MOVFF  2ED,715
040B2:  MOVFF  2EC,714
040B6:  MOVFF  2EB,713
040BA:  MOVFF  2EA,712
040BE:  MOVFF  03,719
040C2:  MOVFF  02,718
040C6:  MOVFF  01,717
040CA:  MOVFF  00,716
040CE:  MOVLB  0
040D0:  CALL   1D3A
040D4:  MOVFF  705,FEA
040D8:  MOVFF  704,FE9
040DC:  MOVFF  03,2ED
040E0:  MOVFF  02,2EC
040E4:  MOVFF  01,2EB
040E8:  MOVFF  00,2EA
....................    }  
040EC:  MOVLB  7
040EE:  CLRF   x0B
040F0:  MOVFF  702,70A
040F4:  MOVLW  01
040F6:  MOVWF  x0D
040F8:  MOVLW  64
040FA:  MOVWF  x0C
040FC:  MOVLB  0
040FE:  CALL   19F0
04102:  MOVFF  02,705
04106:  MOVFF  01,704
0410A:  MOVLW  15
0410C:  MOVLB  7
0410E:  ADDWF  01,W
04110:  MOVWF  01
04112:  MOVLW  00
04114:  ADDWFC 02,W
04116:  MOVWF  03
04118:  MOVF   01,W
0411A:  ADDLW  0A
0411C:  MOVWF  FE9
0411E:  MOVLW  04
04120:  ADDWFC 03,W
04122:  MOVWF  FEA
04124:  INCF   FEF,F
04126:  BRA    3FCC
....................    Prom=Prom/media;    
04128:  CLRF   x13
0412A:  MOVFF  703,712
0412E:  MOVLB  0
04130:  CALL   19BA
04134:  MOVFF  2ED,70F
04138:  MOVFF  2EC,70E
0413C:  MOVFF  2EB,70D
04140:  MOVFF  2EA,70C
04144:  MOVFF  03,713
04148:  MOVFF  02,712
0414C:  MOVFF  01,711
04150:  MOVFF  00,710
04154:  CALL   1B9C
04158:  MOVFF  03,2ED
0415C:  MOVFF  02,2EC
04160:  MOVFF  01,2EB
04164:  MOVFF  00,2EA
....................    //Temperature=(Prom-100.0)/(0.385);  // Ecuacin determinada por linealizacin en Matlab. Revisar este polinomio.   
....................    Temperature=((Prom*Prom)*a)+(Prom*b)+c;  // Ecuacin determinada por linealizacin en Matlab. Revisar este polinomio. 
04168:  MOVFF  2ED,719
0416C:  MOVFF  2EC,718
04170:  MOVFF  2EB,717
04174:  MOVFF  2EA,716
04178:  MOVFF  2ED,71D
0417C:  MOVFF  2EC,71C
04180:  MOVFF  2EB,71B
04184:  MOVFF  2EA,71A
04188:  RCALL  39AE
0418A:  MOVFF  00,704
0418E:  MOVFF  01,705
04192:  MOVFF  02,706
04196:  MOVFF  03,707
0419A:  MOVFF  03,719
0419E:  MOVFF  02,718
041A2:  MOVFF  01,717
041A6:  MOVFF  00,716
041AA:  MOVFF  325,71D
041AE:  MOVFF  324,71C
041B2:  MOVFF  323,71B
041B6:  MOVFF  322,71A
041BA:  CALL   39AE
041BE:  MOVFF  00,704
041C2:  MOVFF  01,705
041C6:  MOVFF  02,706
041CA:  MOVFF  03,707
041CE:  MOVFF  2ED,719
041D2:  MOVFF  2EC,718
041D6:  MOVFF  2EB,717
041DA:  MOVFF  2EA,716
041DE:  MOVFF  329,71D
041E2:  MOVFF  328,71C
041E6:  MOVFF  327,71B
041EA:  MOVFF  326,71A
041EE:  CALL   39AE
041F2:  BCF    FD8.1
041F4:  MOVFF  707,715
041F8:  MOVFF  706,714
041FC:  MOVFF  705,713
04200:  MOVFF  704,712
04204:  MOVFF  03,719
04208:  MOVFF  02,718
0420C:  MOVFF  01,717
04210:  MOVFF  00,716
04214:  CALL   1D3A
04218:  MOVFF  00,704
0421C:  MOVFF  01,705
04220:  MOVFF  02,706
04224:  MOVFF  03,707
04228:  BCF    FD8.1
0422A:  MOVFF  03,715
0422E:  MOVFF  02,714
04232:  MOVFF  01,713
04236:  MOVFF  00,712
0423A:  MOVFF  32D,719
0423E:  MOVFF  32C,718
04242:  MOVFF  32B,717
04246:  MOVFF  32A,716
0424A:  CALL   1D3A
0424E:  MOVFF  03,2F1
04252:  MOVFF  02,2F0
04256:  MOVFF  01,2EF
0425A:  MOVFF  00,2EE
....................    Temperature+=((float)Sensor[canal].Ajuste-(float)Sensor[canal].Ajusten); 
0425E:  MOVLB  7
04260:  CLRF   x0B
04262:  MOVFF  702,70A
04266:  MOVLW  01
04268:  MOVWF  x0D
0426A:  MOVLW  64
0426C:  MOVWF  x0C
0426E:  MOVLB  0
04270:  CALL   19F0
04274:  MOVFF  02,705
04278:  MOVFF  01,704
0427C:  MOVLW  1E
0427E:  MOVLB  7
04280:  ADDWF  01,W
04282:  MOVWF  01
04284:  MOVLW  00
04286:  ADDWFC 02,W
04288:  MOVWF  03
0428A:  MOVF   01,W
0428C:  ADDLW  0A
0428E:  MOVWF  FE9
04290:  MOVLW  04
04292:  ADDWFC 03,W
04294:  MOVWF  FEA
04296:  MOVF   FEF,W
04298:  CLRF   x13
0429A:  MOVWF  x12
0429C:  MOVLB  0
0429E:  CALL   19BA
042A2:  MOVFF  00,704
042A6:  MOVFF  01,705
042AA:  MOVFF  02,706
042AE:  MOVFF  03,707
042B2:  MOVLB  7
042B4:  CLRF   x0B
042B6:  MOVFF  702,70A
042BA:  MOVLW  01
042BC:  MOVWF  x0D
042BE:  MOVLW  64
042C0:  MOVWF  x0C
042C2:  MOVLB  0
042C4:  CALL   19F0
042C8:  MOVFF  02,709
042CC:  MOVFF  01,708
042D0:  MOVLW  1F
042D2:  MOVLB  7
042D4:  ADDWF  01,W
042D6:  MOVWF  01
042D8:  MOVLW  00
042DA:  ADDWFC 02,W
042DC:  MOVWF  03
042DE:  MOVF   01,W
042E0:  ADDLW  0A
042E2:  MOVWF  FE9
042E4:  MOVLW  04
042E6:  ADDWFC 03,W
042E8:  MOVWF  FEA
042EA:  MOVF   FEF,W
042EC:  CLRF   x13
042EE:  MOVWF  x12
042F0:  MOVLB  0
042F2:  CALL   19BA
042F6:  MOVFF  FEA,709
042FA:  MOVFF  FE9,708
042FE:  BSF    FD8.1
04300:  MOVFF  707,715
04304:  MOVFF  706,714
04308:  MOVFF  705,713
0430C:  MOVFF  704,712
04310:  MOVFF  03,719
04314:  MOVFF  02,718
04318:  MOVFF  01,717
0431C:  MOVFF  00,716
04320:  CALL   1D3A
04324:  MOVFF  709,FEA
04328:  MOVFF  708,FE9
0432C:  MOVFF  FEA,705
04330:  MOVFF  FE9,704
04334:  BCF    FD8.1
04336:  MOVFF  2F1,715
0433A:  MOVFF  2F0,714
0433E:  MOVFF  2EF,713
04342:  MOVFF  2EE,712
04346:  MOVFF  03,719
0434A:  MOVFF  02,718
0434E:  MOVFF  01,717
04352:  MOVFF  00,716
04356:  CALL   1D3A
0435A:  MOVFF  705,FEA
0435E:  MOVFF  704,FE9
04362:  MOVFF  03,2F1
04366:  MOVFF  02,2F0
0436A:  MOVFF  01,2EF
0436E:  MOVFF  00,2EE
....................     
....................    return Temperature; 
04372:  MOVFF  2EE,00
04376:  MOVFF  2EF,01
0437A:  MOVFF  2F0,02
0437E:  MOVFF  2F1,03
.................... } 
04382:  RETLW  00
....................  
.................... float Leer_Sensor_Presion_Camara(int media){ 
....................    promediopresion=0.0; 
04384:  MOVLB  2
04386:  CLRF   xBE
04388:  CLRF   xBD
0438A:  CLRF   xBC
0438C:  CLRF   xBB
....................    V1 = sensores(5);   //Lectura de Divisor de Voltaje de PT100 con resistencia de 1k (+-10%) 
0438E:  MOVLW  05
04390:  MOVLB  7
04392:  MOVWF  x06
04394:  MOVLB  0
04396:  CALL   3956
0439A:  MOVFF  03,309
0439E:  MOVFF  02,308
043A2:  MOVFF  01,307
043A6:  MOVFF  00,306
....................    Presion=(((V1)/1023)-0.04)/K; 
043AA:  MOVFF  309,70F
043AE:  MOVFF  308,70E
043B2:  MOVFF  307,70D
043B6:  MOVFF  306,70C
043BA:  MOVLB  7
043BC:  CLRF   x13
043BE:  MOVLW  C0
043C0:  MOVWF  x12
043C2:  MOVLW  7F
043C4:  MOVWF  x11
043C6:  MOVLW  88
043C8:  MOVWF  x10
043CA:  MOVLB  0
043CC:  CALL   1B9C
043D0:  MOVFF  00,703
043D4:  MOVFF  01,704
043D8:  MOVFF  02,705
043DC:  MOVFF  03,706
043E0:  BSF    FD8.1
043E2:  MOVFF  03,715
043E6:  MOVFF  02,714
043EA:  MOVFF  01,713
043EE:  MOVFF  00,712
043F2:  MOVLW  0A
043F4:  MOVLB  7
043F6:  MOVWF  x19
043F8:  MOVLW  D7
043FA:  MOVWF  x18
043FC:  MOVLW  23
043FE:  MOVWF  x17
04400:  MOVLW  7A
04402:  MOVWF  x16
04404:  MOVLB  0
04406:  CALL   1D3A
0440A:  MOVFF  00,703
0440E:  MOVFF  01,704
04412:  MOVFF  02,705
04416:  MOVFF  03,706
0441A:  MOVFF  03,70F
0441E:  MOVFF  02,70E
04422:  MOVFF  01,70D
04426:  MOVFF  00,70C
0442A:  MOVFF  31D,713
0442E:  MOVFF  31C,712
04432:  MOVFF  31B,711
04436:  MOVFF  31A,710
0443A:  CALL   1B9C
0443E:  MOVFF  03,30D
04442:  MOVFF  02,30C
04446:  MOVFF  01,30B
0444A:  MOVFF  00,30A
....................     
....................    if(Presion<0.0) 
0444E:  MOVFF  30D,70B
04452:  MOVFF  30C,70A
04456:  MOVFF  30B,709
0445A:  MOVFF  30A,708
0445E:  MOVLB  7
04460:  CLRF   x0F
04462:  CLRF   x0E
04464:  CLRF   x0D
04466:  CLRF   x0C
04468:  MOVLB  0
0446A:  CALL   1FB2
0446E:  BNC   447A
....................       Presion=0.0; 
04470:  MOVLB  3
04472:  CLRF   x0D
04474:  CLRF   x0C
04476:  CLRF   x0B
04478:  CLRF   x0A
....................     
....................    if(r>media-1) 
0447A:  MOVLW  01
0447C:  MOVLB  7
0447E:  SUBWF  x02,W
04480:  MOVLB  3
04482:  SUBWF  x7E,W
04484:  BZ    448A
04486:  BNC   448A
....................       r=0; 
04488:  CLRF   x7E
....................    PromPresion[r]=Presion;r++; 
0448A:  MOVF   x7E,W
0448C:  MULLW  04
0448E:  MOVF   FF3,W
04490:  CLRF   03
04492:  ADDLW  FB
04494:  MOVWF  FE9
04496:  MOVLW  01
04498:  ADDWFC 03,W
0449A:  MOVWF  FEA
0449C:  MOVFF  30A,FEF
044A0:  MOVFF  30B,FEC
044A4:  MOVFF  30C,FEC
044A8:  MOVFF  30D,FEC
044AC:  INCF   x7E,F
....................           
....................    for(t=0;t<=(media-1);t++) 
044AE:  CLRF   x7F
044B0:  MOVLW  01
044B2:  MOVLB  7
044B4:  SUBWF  x02,W
044B6:  MOVLB  3
044B8:  SUBWF  x7F,W
044BA:  BZ    44BE
044BC:  BC    452E
....................       promediopresion+=PromPresion[t]; 
044BE:  MOVF   x7F,W
044C0:  MULLW  04
044C2:  MOVF   FF3,W
044C4:  CLRF   03
044C6:  ADDLW  FB
044C8:  MOVWF  FE9
044CA:  MOVLW  01
044CC:  ADDWFC 03,W
044CE:  MOVWF  FEA
044D0:  MOVFF  FEF,00
044D4:  MOVFF  FEC,01
044D8:  MOVFF  FEC,02
044DC:  MOVFF  FEC,03
044E0:  MOVFF  FEA,704
044E4:  MOVFF  FE9,703
044E8:  BCF    FD8.1
044EA:  MOVFF  2BE,715
044EE:  MOVFF  2BD,714
044F2:  MOVFF  2BC,713
044F6:  MOVFF  2BB,712
044FA:  MOVFF  03,719
044FE:  MOVFF  02,718
04502:  MOVFF  01,717
04506:  MOVFF  00,716
0450A:  MOVLB  0
0450C:  CALL   1D3A
04510:  MOVFF  704,FEA
04514:  MOVFF  703,FE9
04518:  MOVFF  03,2BE
0451C:  MOVFF  02,2BD
04520:  MOVFF  01,2BC
04524:  MOVFF  00,2BB
04528:  MOVLB  3
0452A:  INCF   x7F,F
0452C:  BRA    44B0
....................      
....................    promediopresion=promediopresion/media;    
0452E:  MOVLB  7
04530:  CLRF   x13
04532:  MOVFF  702,712
04536:  MOVLB  0
04538:  CALL   19BA
0453C:  MOVFF  2BE,70F
04540:  MOVFF  2BD,70E
04544:  MOVFF  2BC,70D
04548:  MOVFF  2BB,70C
0454C:  MOVFF  03,713
04550:  MOVFF  02,712
04554:  MOVFF  01,711
04558:  MOVFF  00,710
0455C:  CALL   1B9C
04560:  MOVFF  03,2BE
04564:  MOVFF  02,2BD
04568:  MOVFF  01,2BC
0456C:  MOVFF  00,2BB
....................     
....................    return promediopresion; 
04570:  MOVFF  2BB,00
04574:  MOVFF  2BC,01
04578:  MOVFF  2BD,02
0457C:  MOVFF  2BE,03
.................... } 
04580:  RETLW  00
....................  
.................... float Leer_Sensor_Presion_PreCamara(int media){ 
....................    promediopresionp=0.0; 
*
045BE:  MOVLB  2
045C0:  CLRF   xC6
045C2:  CLRF   xC5
045C4:  CLRF   xC4
045C6:  CLRF   xC3
....................    V2 = sensores(4);   //Lectura de Divisor de Voltaje de PT100 con resistencia de 1k (+-10%) 
045C8:  MOVLW  04
045CA:  MOVLB  7
045CC:  MOVWF  x06
045CE:  MOVLB  0
045D0:  CALL   3956
045D4:  MOVFF  03,311
045D8:  MOVFF  02,310
045DC:  MOVFF  01,30F
045E0:  MOVFF  00,30E
....................    //Punto cero con esta ecuacion es 41 cuentas del ADC 
....................    Presionp=(((V2)/1023)-0.04)/K;//K=0.0012858 
045E4:  MOVFF  311,70F
045E8:  MOVFF  310,70E
045EC:  MOVFF  30F,70D
045F0:  MOVFF  30E,70C
045F4:  MOVLB  7
045F6:  CLRF   x13
045F8:  MOVLW  C0
045FA:  MOVWF  x12
045FC:  MOVLW  7F
045FE:  MOVWF  x11
04600:  MOVLW  88
04602:  MOVWF  x10
04604:  MOVLB  0
04606:  CALL   1B9C
0460A:  MOVFF  00,6FB
0460E:  MOVFF  01,6FC
04612:  MOVFF  02,6FD
04616:  MOVFF  03,6FE
0461A:  BSF    FD8.1
0461C:  MOVFF  03,715
04620:  MOVFF  02,714
04624:  MOVFF  01,713
04628:  MOVFF  00,712
0462C:  MOVLW  0A
0462E:  MOVLB  7
04630:  MOVWF  x19
04632:  MOVLW  D7
04634:  MOVWF  x18
04636:  MOVLW  23
04638:  MOVWF  x17
0463A:  MOVLW  7A
0463C:  MOVWF  x16
0463E:  MOVLB  0
04640:  CALL   1D3A
04644:  MOVFF  00,6FB
04648:  MOVFF  01,6FC
0464C:  MOVFF  02,6FD
04650:  MOVFF  03,6FE
04654:  MOVFF  03,70F
04658:  MOVFF  02,70E
0465C:  MOVFF  01,70D
04660:  MOVFF  00,70C
04664:  MOVFF  31D,713
04668:  MOVFF  31C,712
0466C:  MOVFF  31B,711
04670:  MOVFF  31A,710
04674:  CALL   1B9C
04678:  MOVFF  03,315
0467C:  MOVFF  02,314
04680:  MOVFF  01,313
04684:  MOVFF  00,312
....................     
....................    if(Presionp<0.0) 
04688:  MOVFF  315,70B
0468C:  MOVFF  314,70A
04690:  MOVFF  313,709
04694:  MOVFF  312,708
04698:  MOVLB  7
0469A:  CLRF   x0F
0469C:  CLRF   x0E
0469E:  CLRF   x0D
046A0:  CLRF   x0C
046A2:  MOVLB  0
046A4:  CALL   1FB2
046A8:  BNC   46B4
....................       Presionp=0.0; 
046AA:  MOVLB  3
046AC:  CLRF   x15
046AE:  CLRF   x14
046B0:  CLRF   x13
046B2:  CLRF   x12
....................     
....................    if(r22>media-1) 
046B4:  MOVLW  01
046B6:  MOVLB  6
046B8:  SUBWF  xFA,W
046BA:  MOVLB  3
046BC:  SUBWF  x80,W
046BE:  BZ    46C4
046C0:  BNC   46C4
....................       r22=0; 
046C2:  CLRF   x80
....................    PromPresionp[r22]=Presionp;r22++; 
046C4:  MOVF   x80,W
046C6:  MULLW  04
046C8:  MOVF   FF3,W
046CA:  CLRF   03
046CC:  ADDLW  4B
046CE:  MOVWF  FE9
046D0:  MOVLW  02
046D2:  ADDWFC 03,W
046D4:  MOVWF  FEA
046D6:  MOVFF  312,FEF
046DA:  MOVFF  313,FEC
046DE:  MOVFF  314,FEC
046E2:  MOVFF  315,FEC
046E6:  INCF   x80,F
....................           
....................    for(t2=0;t2<=(media-1);t2++) 
046E8:  CLRF   x81
046EA:  MOVLW  01
046EC:  MOVLB  6
046EE:  SUBWF  xFA,W
046F0:  MOVLB  3
046F2:  SUBWF  x81,W
046F4:  BZ    46F8
046F6:  BC    4768
....................       promediopresionp+=PromPresionp[t2];  
046F8:  MOVF   x81,W
046FA:  MULLW  04
046FC:  MOVF   FF3,W
046FE:  CLRF   03
04700:  ADDLW  4B
04702:  MOVWF  FE9
04704:  MOVLW  02
04706:  ADDWFC 03,W
04708:  MOVWF  FEA
0470A:  MOVFF  FEF,00
0470E:  MOVFF  FEC,01
04712:  MOVFF  FEC,02
04716:  MOVFF  FEC,03
0471A:  MOVFF  FEA,6FC
0471E:  MOVFF  FE9,6FB
04722:  BCF    FD8.1
04724:  MOVFF  2C6,715
04728:  MOVFF  2C5,714
0472C:  MOVFF  2C4,713
04730:  MOVFF  2C3,712
04734:  MOVFF  03,719
04738:  MOVFF  02,718
0473C:  MOVFF  01,717
04740:  MOVFF  00,716
04744:  MOVLB  0
04746:  CALL   1D3A
0474A:  MOVFF  6FC,FEA
0474E:  MOVFF  6FB,FE9
04752:  MOVFF  03,2C6
04756:  MOVFF  02,2C5
0475A:  MOVFF  01,2C4
0475E:  MOVFF  00,2C3
04762:  MOVLB  3
04764:  INCF   x81,F
04766:  BRA    46EA
....................        
....................    promediopresionp=promediopresionp/media;    
04768:  MOVLB  7
0476A:  CLRF   x13
0476C:  MOVFF  6FA,712
04770:  MOVLB  0
04772:  CALL   19BA
04776:  MOVFF  2C6,70F
0477A:  MOVFF  2C5,70E
0477E:  MOVFF  2C4,70D
04782:  MOVFF  2C3,70C
04786:  MOVFF  03,713
0478A:  MOVFF  02,712
0478E:  MOVFF  01,711
04792:  MOVFF  00,710
04796:  CALL   1B9C
0479A:  MOVFF  03,2C6
0479E:  MOVFF  02,2C5
047A2:  MOVFF  01,2C4
047A6:  MOVFF  00,2C3
....................     
....................    return promediopresionp; 
047AA:  MOVFF  2C3,00
047AE:  MOVFF  2C4,01
047B2:  MOVFF  2C5,02
047B6:  MOVFF  2C6,03
.................... } 
047BA:  GOTO   84FC (RETURN)
....................  
.................... void Controla(){ 
....................    if(tiemporecta>=Derivativo/2.0){ 
*
06D98:  MOVLB  7
06D9A:  CLRF   x13
06D9C:  MOVFF  32F,712
06DA0:  MOVLB  0
06DA2:  CALL   19BA
06DA6:  MOVFF  03,70F
06DAA:  MOVFF  02,70E
06DAE:  MOVFF  01,70D
06DB2:  MOVFF  00,70C
06DB6:  MOVLB  7
06DB8:  CLRF   x13
06DBA:  CLRF   x12
06DBC:  CLRF   x11
06DBE:  MOVLW  80
06DC0:  MOVWF  x10
06DC2:  MOVLB  0
06DC4:  CALL   1B9C
06DC8:  MOVFF  00,6FA
06DCC:  MOVFF  01,6FB
06DD0:  MOVFF  02,6FC
06DD4:  MOVFF  03,6FD
06DD8:  MOVLB  7
06DDA:  CLRF   x13
06DDC:  MOVFF  347,712
06DE0:  MOVLB  0
06DE2:  CALL   19BA
06DE6:  MOVFF  6FD,70B
06DEA:  MOVFF  6FC,70A
06DEE:  MOVFF  6FB,709
06DF2:  MOVFF  6FA,708
06DF6:  MOVFF  03,70F
06DFA:  MOVFF  02,70E
06DFE:  MOVFF  01,70D
06E02:  MOVFF  00,70C
06E06:  CALL   1FB2
06E0A:  BC    6E0E
06E0C:  BNZ   6E14
....................       ActualizaRecta(); 
06E0E:  BRA    6D2A
....................       tiemporecta=0; 
06E10:  MOVLB  3
06E12:  CLRF   x47
....................    }  
.................... //-------------------------------Control de Calentamiento------------------------------------------------------------//          
....................    error=desvio+Setpoint-Temperatura;      // Clculo del error ****** 
06E14:  MOVLB  7
06E16:  CLRF   x13
06E18:  MOVFF  356,712
06E1C:  MOVLB  0
06E1E:  CALL   19BA
06E22:  BCF    FD8.1
06E24:  MOVFF  301,715
06E28:  MOVFF  300,714
06E2C:  MOVFF  2FF,713
06E30:  MOVFF  2FE,712
06E34:  MOVFF  03,719
06E38:  MOVFF  02,718
06E3C:  MOVFF  01,717
06E40:  MOVFF  00,716
06E44:  CALL   1D3A
06E48:  MOVFF  00,6FA
06E4C:  MOVFF  01,6FB
06E50:  MOVFF  02,6FC
06E54:  MOVFF  03,6FD
06E58:  BSF    FD8.1
06E5A:  MOVFF  03,715
06E5E:  MOVFF  02,714
06E62:  MOVFF  01,713
06E66:  MOVFF  00,712
06E6A:  MOVFF  319,719
06E6E:  MOVFF  318,718
06E72:  MOVFF  317,717
06E76:  MOVFF  316,716
06E7A:  CALL   1D3A
06E7E:  MOVFF  03,2E9
06E82:  MOVFF  02,2E8
06E86:  MOVFF  01,2E7
06E8A:  MOVFF  00,2E6
....................     
....................    if(error>1.0 && error<15 && Aumento<0.3){ 
06E8E:  MOVLB  7
06E90:  CLRF   x0B
06E92:  CLRF   x0A
06E94:  CLRF   x09
06E96:  MOVLW  7F
06E98:  MOVWF  x08
06E9A:  MOVFF  2E9,70F
06E9E:  MOVFF  2E8,70E
06EA2:  MOVFF  2E7,70D
06EA6:  MOVFF  2E6,70C
06EAA:  MOVLB  0
06EAC:  CALL   1FB2
06EB0:  BTFSS  FD8.0
06EB2:  BRA    708C
06EB4:  MOVFF  2E9,70B
06EB8:  MOVFF  2E8,70A
06EBC:  MOVFF  2E7,709
06EC0:  MOVFF  2E6,708
06EC4:  MOVLB  7
06EC6:  CLRF   x0F
06EC8:  CLRF   x0E
06ECA:  MOVLW  70
06ECC:  MOVWF  x0D
06ECE:  MOVLW  82
06ED0:  MOVWF  x0C
06ED2:  MOVLB  0
06ED4:  CALL   1FB2
06ED8:  BTFSS  FD8.0
06EDA:  BRA    708C
06EDC:  MOVFF  2C2,70B
06EE0:  MOVFF  2C1,70A
06EE4:  MOVFF  2C0,709
06EE8:  MOVFF  2BF,708
06EEC:  MOVLW  9A
06EEE:  MOVLB  7
06EF0:  MOVWF  x0F
06EF2:  MOVLW  99
06EF4:  MOVWF  x0E
06EF6:  MOVLW  19
06EF8:  MOVWF  x0D
06EFA:  MOVLW  7D
06EFC:  MOVWF  x0C
06EFE:  MOVLB  0
06F00:  CALL   1FB2
06F04:  BTFSS  FD8.0
06F06:  BRA    708C
....................       if(Tpulso<7.0){ 
06F08:  MOVFF  2E5,70B
06F0C:  MOVFF  2E4,70A
06F10:  MOVFF  2E3,709
06F14:  MOVFF  2E2,708
06F18:  MOVLB  7
06F1A:  CLRF   x0F
06F1C:  CLRF   x0E
06F1E:  MOVLW  60
06F20:  MOVWF  x0D
06F22:  MOVLW  81
06F24:  MOVWF  x0C
06F26:  MOVLB  0
06F28:  CALL   1FB2
06F2C:  BTFSS  FD8.0
06F2E:  BRA    708A
....................          flagTC=1; 
06F30:  BSF    xA4.6
....................          if(TiempoControl>=Derivativo){ 
06F32:  MOVLB  3
06F34:  MOVF   x2F,W
06F36:  SUBWF  x82,W
06F38:  BTFSS  FD8.0
06F3A:  BRA    7086
....................             TiempoControl=0; 
06F3C:  CLRF   x82
....................             if(Aumento<-0.5){ 
06F3E:  MOVFF  2C2,70B
06F42:  MOVFF  2C1,70A
06F46:  MOVFF  2C0,709
06F4A:  MOVFF  2BF,708
06F4E:  MOVLB  7
06F50:  CLRF   x0F
06F52:  CLRF   x0E
06F54:  MOVLW  80
06F56:  MOVWF  x0D
06F58:  MOVLW  7E
06F5A:  MOVWF  x0C
06F5C:  MOVLB  0
06F5E:  CALL   1FB2
06F62:  BNC   6FAE
....................                Ganancia+=Integral+1; 
06F64:  MOVLW  01
06F66:  MOVLB  3
06F68:  ADDWF  x2E,W
06F6A:  MOVLB  7
06F6C:  CLRF   x13
06F6E:  MOVWF  x12
06F70:  MOVLB  0
06F72:  CALL   19BA
06F76:  BCF    FD8.1
06F78:  MOVFF  2F9,715
06F7C:  MOVFF  2F8,714
06F80:  MOVFF  2F7,713
06F84:  MOVFF  2F6,712
06F88:  MOVFF  03,719
06F8C:  MOVFF  02,718
06F90:  MOVFF  01,717
06F94:  MOVFF  00,716
06F98:  CALL   1D3A
06F9C:  MOVFF  03,2F9
06FA0:  MOVFF  02,2F8
06FA4:  MOVFF  01,2F7
06FA8:  MOVFF  00,2F6
....................             }else{ 
06FAC:  BRA    7084
....................                if(Aumento<-0.1){ 
06FAE:  MOVFF  2C2,70B
06FB2:  MOVFF  2C1,70A
06FB6:  MOVFF  2C0,709
06FBA:  MOVFF  2BF,708
06FBE:  MOVLW  CD
06FC0:  MOVLB  7
06FC2:  MOVWF  x0F
06FC4:  MOVLW  CC
06FC6:  MOVWF  x0E
06FC8:  MOVWF  x0D
06FCA:  MOVLW  7B
06FCC:  MOVWF  x0C
06FCE:  MOVLB  0
06FD0:  CALL   1FB2
06FD4:  BNC   7040
....................                   Ganancia+=Integral+0.5; 
06FD6:  MOVLB  7
06FD8:  CLRF   x13
06FDA:  MOVFF  32E,712
06FDE:  MOVLB  0
06FE0:  CALL   19BA
06FE4:  BCF    FD8.1
06FE6:  MOVFF  03,715
06FEA:  MOVFF  02,714
06FEE:  MOVFF  01,713
06FF2:  MOVFF  00,712
06FF6:  MOVLB  7
06FF8:  CLRF   x19
06FFA:  CLRF   x18
06FFC:  CLRF   x17
06FFE:  MOVLW  7E
07000:  MOVWF  x16
07002:  MOVLB  0
07004:  CALL   1D3A
07008:  BCF    FD8.1
0700A:  MOVFF  2F9,715
0700E:  MOVFF  2F8,714
07012:  MOVFF  2F7,713
07016:  MOVFF  2F6,712
0701A:  MOVFF  03,719
0701E:  MOVFF  02,718
07022:  MOVFF  01,717
07026:  MOVFF  00,716
0702A:  CALL   1D3A
0702E:  MOVFF  03,2F9
07032:  MOVFF  02,2F8
07036:  MOVFF  01,2F7
0703A:  MOVFF  00,2F6
....................                }else{ 
0703E:  BRA    7084
....................                   Ganancia+=Integral; 
07040:  MOVLB  7
07042:  CLRF   x13
07044:  MOVFF  32E,712
07048:  MOVLB  0
0704A:  CALL   19BA
0704E:  BCF    FD8.1
07050:  MOVFF  2F9,715
07054:  MOVFF  2F8,714
07058:  MOVFF  2F7,713
0705C:  MOVFF  2F6,712
07060:  MOVFF  03,719
07064:  MOVFF  02,718
07068:  MOVFF  01,717
0706C:  MOVFF  00,716
07070:  CALL   1D3A
07074:  MOVFF  03,2F9
07078:  MOVFF  02,2F8
0707C:  MOVFF  01,2F7
07080:  MOVFF  00,2F6
07084:  MOVLB  3
....................                } 
....................             } 
....................          } 
....................       }else{ 
07086:  BRA    708E
07088:  MOVLB  0
....................          flagTC=0; 
0708A:  BCF    xA4.6
0708C:  MOVLB  3
....................       } 
....................    } 
....................     
....................    if(error<-0.3) 
0708E:  MOVFF  2E9,70B
07092:  MOVFF  2E8,70A
07096:  MOVFF  2E7,709
0709A:  MOVFF  2E6,708
0709E:  MOVLW  9A
070A0:  MOVLB  7
070A2:  MOVWF  x0F
070A4:  MOVLW  99
070A6:  MOVWF  x0E
070A8:  MOVWF  x0D
070AA:  MOVLW  7D
070AC:  MOVWF  x0C
070AE:  MOVLB  0
070B0:  CALL   1FB2
070B4:  BNC   70C6
....................       Ganancia=Ganancia2; 
070B6:  MOVFF  2FD,2F9
070BA:  MOVFF  2FC,2F8
070BE:  MOVFF  2FB,2F7
070C2:  MOVFF  2FA,2F6
....................     
....................    if(Ganancia<1) 
070C6:  MOVFF  2F9,70B
070CA:  MOVFF  2F8,70A
070CE:  MOVFF  2F7,709
070D2:  MOVFF  2F6,708
070D6:  MOVLB  7
070D8:  CLRF   x0F
070DA:  CLRF   x0E
070DC:  CLRF   x0D
070DE:  MOVLW  7F
070E0:  MOVWF  x0C
070E2:  MOVLB  0
070E4:  CALL   1FB2
070E8:  BNC   70F6
....................       Ganancia=1; 
070EA:  MOVLB  2
070EC:  CLRF   xF9
070EE:  CLRF   xF8
070F0:  CLRF   xF7
070F2:  MOVLW  7F
070F4:  MOVWF  xF6
....................     
....................    if(error<0.0)     // Anti Wind_DOWN     
070F6:  MOVFF  2E9,70B
070FA:  MOVFF  2E8,70A
070FE:  MOVFF  2E7,709
07102:  MOVFF  2E6,708
07106:  MOVLB  7
07108:  CLRF   x0F
0710A:  CLRF   x0E
0710C:  CLRF   x0D
0710E:  CLRF   x0C
07110:  MOVLB  0
07112:  CALL   1FB2
07116:  BNC   7124
....................       error=0.0; 
07118:  MOVLB  2
0711A:  CLRF   xE9
0711C:  CLRF   xE8
0711E:  CLRF   xE7
07120:  CLRF   xE6
07122:  MOVLB  0
....................    //tmp=(Setpoint-Prom)*Ganancia;  // Control Proporcional. 
....................    tmp=error*Ganancia;  // Control Proporcional. 
07124:  MOVFF  2E9,719
07128:  MOVFF  2E8,718
0712C:  MOVFF  2E7,717
07130:  MOVFF  2E6,716
07134:  MOVFF  2F9,71D
07138:  MOVFF  2F8,71C
0713C:  MOVFF  2F7,71B
07140:  MOVFF  2F6,71A
07144:  CALL   39AE
07148:  MOVFF  03,2F5
0714C:  MOVFF  02,2F4
07150:  MOVFF  01,2F3
07154:  MOVFF  00,2F2
....................           
....................    if(tmp>Setpoint)   // Anti Wind-UP       
07158:  MOVLB  7
0715A:  CLRF   x13
0715C:  MOVFF  356,712
07160:  MOVLB  0
07162:  CALL   19BA
07166:  MOVFF  03,70B
0716A:  MOVFF  02,70A
0716E:  MOVFF  01,709
07172:  MOVFF  00,708
07176:  MOVFF  2F5,70F
0717A:  MOVFF  2F4,70E
0717E:  MOVFF  2F3,70D
07182:  MOVFF  2F2,70C
07186:  CALL   1FB2
0718A:  BNC   71AA
....................       tmp=Setpoint; 
0718C:  MOVLB  7
0718E:  CLRF   x13
07190:  MOVFF  356,712
07194:  MOVLB  0
07196:  CALL   19BA
0719A:  MOVFF  03,2F5
0719E:  MOVFF  02,2F4
071A2:  MOVFF  01,2F3
071A6:  MOVFF  00,2F2
....................                 
....................    if(tmp<0.0)     // Anti Wind_DOWN     
071AA:  MOVFF  2F5,70B
071AE:  MOVFF  2F4,70A
071B2:  MOVFF  2F3,709
071B6:  MOVFF  2F2,708
071BA:  MOVLB  7
071BC:  CLRF   x0F
071BE:  CLRF   x0E
071C0:  CLRF   x0D
071C2:  CLRF   x0C
071C4:  MOVLB  0
071C6:  CALL   1FB2
071CA:  BNC   71D6
....................       tmp=0.0; 
071CC:  MOVLB  2
071CE:  CLRF   xF5
071D0:  CLRF   xF4
071D2:  CLRF   xF3
071D4:  CLRF   xF2
....................     
....................    // Tpulso(t)= Tciclo*(y(t)-ymin)/(ymax - ymin); calculo de ciclo util para control de resistencia.ymax=140.ymin=0; 
....................    // Tpulso es float, hay que pasar ese ciclo a una salida de un puerto usando el TMR1. 
....................    tmp2=(tmp/Setpoint); 
071D6:  MOVLB  7
071D8:  CLRF   x13
071DA:  MOVFF  356,712
071DE:  MOVLB  0
071E0:  CALL   19BA
071E4:  MOVFF  2F5,70F
071E8:  MOVFF  2F4,70E
071EC:  MOVFF  2F3,70D
071F0:  MOVFF  2F2,70C
071F4:  MOVFF  03,713
071F8:  MOVFF  02,712
071FC:  MOVFF  01,711
07200:  MOVFF  00,710
07204:  CALL   1B9C
07208:  MOVFF  03,305
0720C:  MOVFF  02,304
07210:  MOVFF  01,303
07214:  MOVFF  00,302
....................    //if(tmp2>0.8) 
....................    //tmp2=0.8; 
....................    Tpulso=tmp2*Tciclo;   
07218:  MOVFF  305,719
0721C:  MOVFF  304,718
07220:  MOVFF  303,717
07224:  MOVFF  302,716
07228:  MOVFF  2E1,71D
0722C:  MOVFF  2E0,71C
07230:  MOVFF  2DF,71B
07234:  MOVFF  2DE,71A
07238:  CALL   39AE
0723C:  MOVFF  03,2E5
07240:  MOVFF  02,2E4
07244:  MOVFF  01,2E3
07248:  MOVFF  00,2E2
....................                                        
....................    Tp=(Tpulso/0.005); 
0724C:  MOVFF  2E5,70F
07250:  MOVFF  2E4,70E
07254:  MOVFF  2E3,70D
07258:  MOVFF  2E2,70C
0725C:  MOVLW  0A
0725E:  MOVLB  7
07260:  MOVWF  x13
07262:  MOVLW  D7
07264:  MOVWF  x12
07266:  MOVLW  23
07268:  MOVWF  x11
0726A:  MOVLW  77
0726C:  MOVWF  x10
0726E:  MOVLB  0
07270:  CALL   1B9C
07274:  MOVFF  03,715
07278:  MOVFF  02,714
0727C:  MOVFF  01,713
07280:  MOVFF  00,712
07284:  CALL   4582
07288:  MOVFF  02,AC
0728C:  MOVFF  01,AB
....................    Tc=(Tciclo/0.005); 
07290:  MOVFF  2E1,70F
07294:  MOVFF  2E0,70E
07298:  MOVFF  2DF,70D
0729C:  MOVFF  2DE,70C
072A0:  MOVLW  0A
072A2:  MOVLB  7
072A4:  MOVWF  x13
072A6:  MOVLW  D7
072A8:  MOVWF  x12
072AA:  MOVLW  23
072AC:  MOVWF  x11
072AE:  MOVLW  77
072B0:  MOVWF  x10
072B2:  MOVLB  0
072B4:  CALL   1B9C
072B8:  MOVFF  03,715
072BC:  MOVFF  02,714
072C0:  MOVFF  01,713
072C4:  MOVFF  00,712
072C8:  CALL   4582
072CC:  MOVFF  02,AE
072D0:  MOVFF  01,AD
....................    Controlando=1;    
072D4:  MOVLW  01
072D6:  MOVLB  3
072D8:  MOVWF  x48
.................... //--------------------------------------------------------------------------------------------------------------------//    
.................... } 
072DA:  MOVLB  0
072DC:  GOTO   CB68 (RETURN)
....................  
.................... void Envio_I2C(direccion, posicion, dato){ 
....................  
....................    i2c_start();            // Comienzo comunicacin 
....................    i2c_write(direccion);   // Direccin del esclavo en el bus I2C 
....................    i2c_write(posicion);    // Posicin donde se guardara el dato transmitido 
....................    i2c_write(dato);        // Dato a transmitir 
....................    i2c_stop();             // Fin comunicacin 
....................  } 
....................  
.................... void Lectura_I2C (byte direccion, byte posicion, byte &dato) { 
....................  
....................    i2c_start();            // Comienzo de la comunicacin 
....................    i2c_write(direccion);   // Direccin del esclavo en el bus I2C 
....................    i2c_write(posicion);    // Posicin de donde se leer el dato en el esclavo 
....................    i2c_start();            // Reinicio 
....................    i2c_write(direccion+1); // Direccin del esclavo en modo lectura 
....................    dato=i2c_read(0);       // Lectura del dato 
....................    i2c_stop();             // Fin comunicacin 
.................... } 
....................  
.................... void Carga_Vector(void){ 
....................    SlaveA0Tx[0]=(int8)Temperatura; 
*
0494E:  MOVFF  319,715
04952:  MOVFF  318,714
04956:  MOVFF  317,713
0495A:  MOVFF  316,712
0495E:  RCALL  4582
04960:  MOVFF  01,64
....................    SlaveA0Tx[1]=(Temperatura-((int8)Temperatura))*10; 
04964:  MOVFF  319,715
04968:  MOVFF  318,714
0496C:  MOVFF  317,713
04970:  MOVFF  316,712
04974:  RCALL  4582
04976:  MOVLB  7
04978:  CLRF   x13
0497A:  MOVFF  01,712
0497E:  MOVLB  0
04980:  CALL   19BA
04984:  BSF    FD8.1
04986:  MOVFF  319,715
0498A:  MOVFF  318,714
0498E:  MOVFF  317,713
04992:  MOVFF  316,712
04996:  MOVFF  03,719
0499A:  MOVFF  02,718
0499E:  MOVFF  01,717
049A2:  MOVFF  00,716
049A6:  CALL   1D3A
049AA:  MOVFF  00,710
049AE:  MOVFF  01,711
049B2:  MOVFF  02,712
049B6:  MOVFF  03,713
049BA:  MOVFF  03,719
049BE:  MOVFF  02,718
049C2:  MOVFF  01,717
049C6:  MOVFF  00,716
049CA:  MOVLB  7
049CC:  CLRF   x1D
049CE:  CLRF   x1C
049D0:  MOVLW  20
049D2:  MOVWF  x1B
049D4:  MOVLW  82
049D6:  MOVWF  x1A
049D8:  MOVLB  0
049DA:  CALL   39AE
049DE:  MOVFF  03,715
049E2:  MOVFF  02,714
049E6:  MOVFF  01,713
049EA:  MOVFF  00,712
049EE:  RCALL  4582
049F0:  MOVFF  01,65
....................    SlaveA0Tx[2]=make8((int16)PresionCamara,0); 
049F4:  MOVFF  368,66
049F8:  MOVLB  0
....................    SlaveA0Tx[3]=make8((int16)PresionCamara,1); 
049FA:  MOVFF  369,67
049FE:  MOVLB  0
....................    SlaveA0Tx[4]=make8((int16)PresionPreCamara,0); 
04A00:  MOVFF  36A,68
04A04:  MOVLB  0
....................    SlaveA0Tx[5]=make8((int16)PresionPreCamara,1); 
04A06:  MOVFF  36B,69
04A0A:  MOVLB  0
....................    SlaveA0Tx[6]=(int8)Tpulso*10; 
04A0C:  MOVFF  2E5,715
04A10:  MOVFF  2E4,714
04A14:  MOVFF  2E3,713
04A18:  MOVFF  2E2,712
04A1C:  RCALL  4582
04A1E:  MOVF   01,W
04A20:  MULLW  0A
04A22:  MOVFF  FF3,6A
....................    SlaveA0Tx[7]=HIG; 
04A26:  CLRF   x6B
04A28:  BTFSC  xA3.7
04A2A:  INCF   x6B,F
....................    SlaveA0Tx[8]=LOW; 
04A2C:  CLRF   x6C
04A2E:  BTFSC  xA3.6
04A30:  INCF   x6C,F
....................    SlaveA0Tx[9]=TERM; 
04A32:  BSF    F93.4
04A34:  CLRF   x6D
04A36:  BTFSS  F81.4
04A38:  INCF   x6D,F
....................    SlaveA0Tx[10]=DOOR; 
04A3A:  BSF    F93.6
04A3C:  CLRF   x6E
04A3E:  BTFSS  F81.6
04A40:  INCF   x6E,F
....................    SlaveA0Tx[11]=STOP; 
04A42:  BSF    F93.5
04A44:  CLRF   x6F
04A46:  BTFSS  F81.5
04A48:  INCF   x6F,F
....................    SlaveA0Tx[12]=(int8)error; 
04A4A:  MOVFF  2E9,715
04A4E:  MOVFF  2E8,714
04A52:  MOVFF  2E7,713
04A56:  MOVFF  2E6,712
04A5A:  RCALL  4582
04A5C:  MOVFF  01,70
....................    SlaveA0Tx[13]=CicloSeleccionado; 
04A60:  MOVFF  355,71
....................    SlaveA0Tx[14]=SetTime; 
04A64:  MOVFF  3A0,72
....................    SlaveA0Tx[15]=Dia; 
04A68:  MOVFF  38D,73
....................    SlaveA0Tx[16]=Mes; 
04A6C:  MOVFF  38C,74
....................    SlaveA0Tx[17]=Year; 
04A70:  MOVFF  38B,75
....................    SlaveA0Tx[18]=Hora; 
04A74:  MOVFF  38E,76
....................    SlaveA0Tx[19]=Minuto; 
04A78:  MOVFF  38F,77
....................    SlaveA0Tx[20]=Segundo; 
04A7C:  MOVFF  390,78
....................    SlaveA0Tx[21]=Imprime; 
04A80:  MOVFF  3A1,79
....................    SlaveA0Tx[22]=make8(Ciclos,0); 
04A84:  MOVFF  36C,7A
04A88:  MOVLB  0
....................    SlaveA0Tx[23]=make8(Ciclos,1); 
04A8A:  MOVFF  36D,7B
04A8E:  MOVLB  0
.................... } 
04A90:  GOTO   4A96 (RETURN)
....................  
.................... void Lee_Vector(void){ 
....................    /*Dia=txbuf[0]; 
....................    Mess=txbuf[1]; 
....................    Year=txbuf[2]; 
....................    Hora=txbuf[3]; 
....................    Minuto=txbuf[4]; 
....................    Segundo=txbuf[5]; 
....................    dow=txbuf[6];*/ 
.................... } 
....................  
.................... void Envio_Esclavos(void){ 
....................    Carga_Vector(); 
04A94:  BRA    494E
....................    for(i=0;i<24;i++){ 
04A96:  MOVLB  3
04A98:  CLRF   x52
04A9A:  MOVF   x52,W
04A9C:  SUBLW  17
04A9E:  BNC   4B28
....................       direccion=0xB0; 
04AA0:  MOVLW  B0
04AA2:  MOVLB  0
04AA4:  MOVWF  x85
....................       i2c_start();            // Comienzo comunicacin 
04AA6:  BSF    F94.4
04AA8:  MOVLW  05
04AAA:  MOVWF  00
04AAC:  DECFSZ 00,F
04AAE:  BRA    4AAC
04AB0:  BSF    F94.3
04AB2:  MOVLW  06
04AB4:  MOVWF  00
04AB6:  DECFSZ 00,F
04AB8:  BRA    4AB6
04ABA:  BCF    F8B.4
04ABC:  BCF    F94.4
04ABE:  MOVLW  05
04AC0:  MOVWF  00
04AC2:  DECFSZ 00,F
04AC4:  BRA    4AC2
04AC6:  BCF    F8B.3
04AC8:  BCF    F94.3
....................       i2c_write(direccion);   // Direccin del esclavo en el bus I2C 
04ACA:  MOVFF  85,711
04ACE:  CALL   1A12
....................       i2c_write(i);   // Direccin del esclavo en el bus I2C 
04AD2:  MOVFF  352,711
04AD6:  CALL   1A12
....................       i2c_write(0);    // Posicin donde se guardara el dato transmitido 
04ADA:  MOVLB  7
04ADC:  CLRF   x11
04ADE:  MOVLB  0
04AE0:  CALL   1A12
....................       i2c_write(SlaveA0Tx[i]); // Dato a transmitir 
04AE4:  CLRF   03
04AE6:  MOVLB  3
04AE8:  MOVF   x52,W
04AEA:  ADDLW  64
04AEC:  MOVWF  FE9
04AEE:  MOVLW  00
04AF0:  ADDWFC 03,W
04AF2:  MOVWF  FEA
04AF4:  MOVFF  FEF,710
04AF8:  MOVFF  710,711
04AFC:  MOVLB  0
04AFE:  CALL   1A12
....................       i2c_stop();  
04B02:  BCF    F94.4
04B04:  NOP   
04B06:  BSF    F94.3
04B08:  BTFSS  F82.3
04B0A:  BRA    4B08
04B0C:  MOVLW  05
04B0E:  MOVWF  00
04B10:  DECFSZ 00,F
04B12:  BRA    4B10
04B14:  BRA    4B16
04B16:  NOP   
04B18:  BSF    F94.4
04B1A:  MOVLW  05
04B1C:  MOVWF  00
04B1E:  DECFSZ 00,F
04B20:  BRA    4B1E
....................       //Envio_I2C(direccion,i,SlaveB0Tx[i]); 
....................    }  
04B22:  MOVLB  3
04B24:  INCF   x52,F
04B26:  BRA    4A9A
.................... } 
04B28:  MOVLB  0
04B2A:  RETLW  00
.................... void Lectura_Esclavos(void){ 
....................    //for(i=0;i<7;i++) 
....................    //{ 
....................    //   direccion=0xA0;                        //Direccin en el bus I2c 
....................    //   posicion=i;                         //Posicin de memoria a leer 
....................    //   Lectura_I2C(direccion, posicion, dato);    //Lectura por I2C 
....................    //   txbuf[i]=(int8)dato; 
....................    //} 
....................    //Lee_Vector(); 
.................... } 
....................  
.................... int8 extraeDecimal(float data){ 
*
0682C:  MOVLB  7
0682E:  CLRF   x0D
06830:  CLRF   x0C
06832:  CLRF   x0B
06834:  CLRF   x0A
06836:  CLRF   x11
06838:  CLRF   x10
0683A:  CLRF   x0F
0683C:  CLRF   x0E
....................    float entero=0; 
....................    float tmp=0.0; 
....................     
....................    entero=(int8)data; 
0683E:  MOVFF  709,715
06842:  MOVFF  708,714
06846:  MOVFF  707,713
0684A:  MOVFF  706,712
0684E:  MOVLB  0
06850:  CALL   4582
06854:  MOVLB  7
06856:  CLRF   x13
06858:  MOVFF  01,712
0685C:  MOVLB  0
0685E:  CALL   19BA
06862:  MOVFF  03,70D
06866:  MOVFF  02,70C
0686A:  MOVFF  01,70B
0686E:  MOVFF  00,70A
....................    tmp=(data-entero)*10; 
06872:  BSF    FD8.1
06874:  MOVFF  709,715
06878:  MOVFF  708,714
0687C:  MOVFF  707,713
06880:  MOVFF  706,712
06884:  MOVFF  70D,719
06888:  MOVFF  70C,718
0688C:  MOVFF  70B,717
06890:  MOVFF  70A,716
06894:  CALL   1D3A
06898:  MOVFF  00,712
0689C:  MOVFF  01,713
068A0:  MOVFF  02,714
068A4:  MOVFF  03,715
068A8:  MOVFF  03,719
068AC:  MOVFF  02,718
068B0:  MOVFF  01,717
068B4:  MOVFF  00,716
068B8:  MOVLB  7
068BA:  CLRF   x1D
068BC:  CLRF   x1C
068BE:  MOVLW  20
068C0:  MOVWF  x1B
068C2:  MOVLW  82
068C4:  MOVWF  x1A
068C6:  MOVLB  0
068C8:  CALL   39AE
068CC:  MOVFF  03,711
068D0:  MOVFF  02,710
068D4:  MOVFF  01,70F
068D8:  MOVFF  00,70E
....................    return (int8)tmp; 
068DC:  MOVFF  711,715
068E0:  MOVFF  710,714
068E4:  MOVFF  70F,713
068E8:  MOVFF  70E,712
068EC:  CALL   4582
068F0:  MOVF   01,W
.................... } 
068F2:  GOTO   6A08 (RETURN)
....................  
.................... float inttofloat(int8 decimal){ 
....................    float tmp; 
....................    tmp=decimal; 
*
01CFA:  MOVLB  7
01CFC:  CLRF   x13
01CFE:  MOVFF  704,712
01D02:  MOVLB  0
01D04:  RCALL  19BA
01D06:  MOVFF  03,708
01D0A:  MOVFF  02,707
01D0E:  MOVFF  01,706
01D12:  MOVFF  00,705
....................    return tmp/10; 
01D16:  MOVFF  708,70F
01D1A:  MOVFF  707,70E
01D1E:  MOVFF  706,70D
01D22:  MOVFF  705,70C
01D26:  MOVLB  7
01D28:  CLRF   x13
01D2A:  CLRF   x12
01D2C:  MOVLW  20
01D2E:  MOVWF  x11
01D30:  MOVLW  82
01D32:  MOVWF  x10
01D34:  MOVLB  0
01D36:  RCALL  1B9C
.................... } 
01D38:  RETLW  00
....................  
.................... void LeeEEPROM(){ 
.................... //Lectura EEPROM//-------------------------- 
....................    Nivel=read_eeprom(9); 
*
0202C:  MOVFF  FF2,700
02030:  BCF    FF2.6
02032:  BCF    FF2.7
02034:  CLRF   FAA
02036:  MOVLW  09
02038:  MOVWF  FA9
0203A:  BCF    FA6.6
0203C:  BCF    FA6.7
0203E:  BSF    FA6.0
02040:  MOVF   FA8,W
02042:  MOVLB  7
02044:  BTFSC  x00.6
02046:  BSF    FF2.6
02048:  BTFSC  x00.7
0204A:  BSF    FF2.7
0204C:  MOVLB  3
0204E:  CLRF   x65
02050:  MOVWF  x64
....................    delay_ms(10); 
02052:  MOVLW  0A
02054:  MOVLB  7
02056:  MOVWF  x10
02058:  MOVLB  0
0205A:  RCALL  1992
....................    Password[0]=read_eeprom(10); 
0205C:  MOVFF  FF2,700
02060:  BCF    FF2.6
02062:  BCF    FF2.7
02064:  CLRF   FAA
02066:  MOVLW  0A
02068:  MOVWF  FA9
0206A:  BCF    FA6.6
0206C:  BCF    FA6.7
0206E:  BSF    FA6.0
02070:  MOVF   FA8,W
02072:  MOVLB  7
02074:  BTFSC  x00.6
02076:  BSF    FF2.6
02078:  BTFSC  x00.7
0207A:  BSF    FF2.7
0207C:  MOVLB  3
0207E:  MOVWF  x7A
....................    delay_ms(10); 
02080:  MOVLW  0A
02082:  MOVLB  7
02084:  MOVWF  x10
02086:  MOVLB  0
02088:  RCALL  1992
....................    Password[1]=read_eeprom(11); 
0208A:  MOVFF  FF2,700
0208E:  BCF    FF2.6
02090:  BCF    FF2.7
02092:  CLRF   FAA
02094:  MOVLW  0B
02096:  MOVWF  FA9
02098:  BCF    FA6.6
0209A:  BCF    FA6.7
0209C:  BSF    FA6.0
0209E:  MOVF   FA8,W
020A0:  MOVLB  7
020A2:  BTFSC  x00.6
020A4:  BSF    FF2.6
020A6:  BTFSC  x00.7
020A8:  BSF    FF2.7
020AA:  MOVLB  3
020AC:  MOVWF  x7B
....................    delay_ms(10); 
020AE:  MOVLW  0A
020B0:  MOVLB  7
020B2:  MOVWF  x10
020B4:  MOVLB  0
020B6:  RCALL  1992
....................    Password[2]=read_eeprom(12); 
020B8:  MOVFF  FF2,700
020BC:  BCF    FF2.6
020BE:  BCF    FF2.7
020C0:  CLRF   FAA
020C2:  MOVLW  0C
020C4:  MOVWF  FA9
020C6:  BCF    FA6.6
020C8:  BCF    FA6.7
020CA:  BSF    FA6.0
020CC:  MOVF   FA8,W
020CE:  MOVLB  7
020D0:  BTFSC  x00.6
020D2:  BSF    FF2.6
020D4:  BTFSC  x00.7
020D6:  BSF    FF2.7
020D8:  MOVLB  3
020DA:  MOVWF  x7C
....................    delay_ms(10); 
020DC:  MOVLW  0A
020DE:  MOVLB  7
020E0:  MOVWF  x10
020E2:  MOVLB  0
020E4:  RCALL  1992
....................    Password[3]=read_eeprom(13); 
020E6:  MOVFF  FF2,700
020EA:  BCF    FF2.6
020EC:  BCF    FF2.7
020EE:  CLRF   FAA
020F0:  MOVLW  0D
020F2:  MOVWF  FA9
020F4:  BCF    FA6.6
020F6:  BCF    FA6.7
020F8:  BSF    FA6.0
020FA:  MOVF   FA8,W
020FC:  MOVLB  7
020FE:  BTFSC  x00.6
02100:  BSF    FF2.6
02102:  BTFSC  x00.7
02104:  BSF    FF2.7
02106:  MOVLB  3
02108:  MOVWF  x7D
....................    delay_ms(10); 
0210A:  MOVLW  0A
0210C:  MOVLB  7
0210E:  MOVWF  x10
02110:  MOVLB  0
02112:  RCALL  1992
....................    Ganancia=read_eeprom(20); 
02114:  MOVFF  FF2,700
02118:  BCF    FF2.6
0211A:  BCF    FF2.7
0211C:  CLRF   FAA
0211E:  MOVLW  14
02120:  MOVWF  FA9
02122:  BCF    FA6.6
02124:  BCF    FA6.7
02126:  BSF    FA6.0
02128:  MOVF   FA8,W
0212A:  MOVLB  7
0212C:  BTFSC  x00.6
0212E:  BSF    FF2.6
02130:  BTFSC  x00.7
02132:  BSF    FF2.7
02134:  CLRF   x13
02136:  MOVWF  x12
02138:  MOVLB  0
0213A:  RCALL  19BA
0213C:  MOVFF  03,2F9
02140:  MOVFF  02,2F8
02144:  MOVFF  01,2F7
02148:  MOVFF  00,2F6
....................    delay_ms(10); 
0214C:  MOVLW  0A
0214E:  MOVLB  7
02150:  MOVWF  x10
02152:  MOVLB  0
02154:  RCALL  1992
....................    Sensor[0].Ajuste=read_eeprom(21); 
02156:  MOVFF  FF2,700
0215A:  BCF    FF2.6
0215C:  BCF    FF2.7
0215E:  CLRF   FAA
02160:  MOVLW  15
02162:  MOVWF  FA9
02164:  BCF    FA6.6
02166:  BCF    FA6.7
02168:  BSF    FA6.0
0216A:  MOVF   FA8,W
0216C:  MOVLB  7
0216E:  BTFSC  x00.6
02170:  BSF    FF2.6
02172:  BTFSC  x00.7
02174:  BSF    FF2.7
02176:  MOVLB  4
02178:  MOVWF  x28
....................    delay_ms(10); 
0217A:  MOVLW  0A
0217C:  MOVLB  7
0217E:  MOVWF  x10
02180:  MOVLB  0
02182:  RCALL  1992
....................    Sensor[0].Ajusten=read_eeprom(22); 
02184:  MOVFF  FF2,700
02188:  BCF    FF2.6
0218A:  BCF    FF2.7
0218C:  CLRF   FAA
0218E:  MOVLW  16
02190:  MOVWF  FA9
02192:  BCF    FA6.6
02194:  BCF    FA6.7
02196:  BSF    FA6.0
02198:  MOVF   FA8,W
0219A:  MOVLB  7
0219C:  BTFSC  x00.6
0219E:  BSF    FF2.6
021A0:  BTFSC  x00.7
021A2:  BSF    FF2.7
021A4:  MOVLB  4
021A6:  MOVWF  x29
....................    delay_ms(10); 
021A8:  MOVLW  0A
021AA:  MOVLB  7
021AC:  MOVWF  x10
021AE:  MOVLB  0
021B0:  CALL   1992
....................    Sensor[1].Ajuste=read_eeprom(23); 
021B4:  MOVFF  FF2,700
021B8:  BCF    FF2.6
021BA:  BCF    FF2.7
021BC:  CLRF   FAA
021BE:  MOVLW  17
021C0:  MOVWF  FA9
021C2:  BCF    FA6.6
021C4:  BCF    FA6.7
021C6:  BSF    FA6.0
021C8:  MOVF   FA8,W
021CA:  MOVLB  7
021CC:  BTFSC  x00.6
021CE:  BSF    FF2.6
021D0:  BTFSC  x00.7
021D2:  BSF    FF2.7
021D4:  MOVLB  5
021D6:  MOVWF  x8C
....................    delay_ms(10); 
021D8:  MOVLW  0A
021DA:  MOVLB  7
021DC:  MOVWF  x10
021DE:  MOVLB  0
021E0:  CALL   1992
....................    Sensor[1].Ajusten=read_eeprom(24); 
021E4:  MOVFF  FF2,700
021E8:  BCF    FF2.6
021EA:  BCF    FF2.7
021EC:  CLRF   FAA
021EE:  MOVLW  18
021F0:  MOVWF  FA9
021F2:  BCF    FA6.6
021F4:  BCF    FA6.7
021F6:  BSF    FA6.0
021F8:  MOVF   FA8,W
021FA:  MOVLB  7
021FC:  BTFSC  x00.6
021FE:  BSF    FF2.6
02200:  BTFSC  x00.7
02202:  BSF    FF2.7
02204:  MOVLB  5
02206:  MOVWF  x8D
....................    delay_ms(10);    
02208:  MOVLW  0A
0220A:  MOVLB  7
0220C:  MOVWF  x10
0220E:  MOVLB  0
02210:  CALL   1992
....................    MediaMovil=read_eeprom(25); 
02214:  MOVFF  FF2,700
02218:  BCF    FF2.6
0221A:  BCF    FF2.7
0221C:  CLRF   FAA
0221E:  MOVLW  19
02220:  MOVWF  FA9
02222:  BCF    FA6.6
02224:  BCF    FA6.7
02226:  BSF    FA6.0
02228:  MOVF   FA8,W
0222A:  MOVLB  7
0222C:  BTFSC  x00.6
0222E:  BSF    FF2.6
02230:  BTFSC  x00.7
02232:  BSF    FF2.7
02234:  MOVLB  2
02236:  MOVWF  xCF
....................    delay_ms(10); 
02238:  MOVLW  0A
0223A:  MOVLB  7
0223C:  MOVWF  x10
0223E:  MOVLB  0
02240:  CALL   1992
....................    Tciclo=read_eeprom(26); 
02244:  MOVFF  FF2,700
02248:  BCF    FF2.6
0224A:  BCF    FF2.7
0224C:  CLRF   FAA
0224E:  MOVLW  1A
02250:  MOVWF  FA9
02252:  BCF    FA6.6
02254:  BCF    FA6.7
02256:  BSF    FA6.0
02258:  MOVF   FA8,W
0225A:  MOVLB  7
0225C:  BTFSC  x00.6
0225E:  BSF    FF2.6
02260:  BTFSC  x00.7
02262:  BSF    FF2.7
02264:  CLRF   x13
02266:  MOVWF  x12
02268:  MOVLB  0
0226A:  CALL   19BA
0226E:  MOVFF  03,2E1
02272:  MOVFF  02,2E0
02276:  MOVFF  01,2DF
0227A:  MOVFF  00,2DE
....................    delay_ms(10); 
0227E:  MOVLW  0A
02280:  MOVLB  7
02282:  MOVWF  x10
02284:  MOVLB  0
02286:  CALL   1992
....................    Integral=read_eeprom(27); 
0228A:  MOVFF  FF2,700
0228E:  BCF    FF2.6
02290:  BCF    FF2.7
02292:  CLRF   FAA
02294:  MOVLW  1B
02296:  MOVWF  FA9
02298:  BCF    FA6.6
0229A:  BCF    FA6.7
0229C:  BSF    FA6.0
0229E:  MOVF   FA8,W
022A0:  MOVLB  7
022A2:  BTFSC  x00.6
022A4:  BSF    FF2.6
022A6:  BTFSC  x00.7
022A8:  BSF    FF2.7
022AA:  MOVLB  3
022AC:  MOVWF  x2E
....................    delay_ms(10); 
022AE:  MOVLW  0A
022B0:  MOVLB  7
022B2:  MOVWF  x10
022B4:  MOVLB  0
022B6:  CALL   1992
....................    Derivativo=read_eeprom(28); 
022BA:  MOVFF  FF2,700
022BE:  BCF    FF2.6
022C0:  BCF    FF2.7
022C2:  CLRF   FAA
022C4:  MOVLW  1C
022C6:  MOVWF  FA9
022C8:  BCF    FA6.6
022CA:  BCF    FA6.7
022CC:  BSF    FA6.0
022CE:  MOVF   FA8,W
022D0:  MOVLB  7
022D2:  BTFSC  x00.6
022D4:  BSF    FF2.6
022D6:  BTFSC  x00.7
022D8:  BSF    FF2.7
022DA:  MOVLB  3
022DC:  MOVWF  x2F
....................    delay_ms(10); 
022DE:  MOVLW  0A
022E0:  MOVLB  7
022E2:  MOVWF  x10
022E4:  MOVLB  0
022E6:  CALL   1992
....................    Atmosferica=read_eeprom(31); 
022EA:  MOVFF  FF2,700
022EE:  BCF    FF2.6
022F0:  BCF    FF2.7
022F2:  CLRF   FAA
022F4:  MOVLW  1F
022F6:  MOVWF  FA9
022F8:  BCF    FA6.6
022FA:  BCF    FA6.7
022FC:  BSF    FA6.0
022FE:  MOVF   FA8,W
02300:  MOVLB  7
02302:  BTFSC  x00.6
02304:  BSF    FF2.6
02306:  BTFSC  x00.7
02308:  BSF    FF2.7
0230A:  MOVLB  3
0230C:  MOVWF  x92
....................    delay_ms(10); 
0230E:  MOVLW  0A
02310:  MOVLB  7
02312:  MOVWF  x10
02314:  MOVLB  0
02316:  CALL   1992
....................    Tapertura=read_eeprom(32); 
0231A:  MOVFF  FF2,700
0231E:  BCF    FF2.6
02320:  BCF    FF2.7
02322:  CLRF   FAA
02324:  MOVLW  20
02326:  MOVWF  FA9
02328:  BCF    FA6.6
0232A:  BCF    FA6.7
0232C:  BSF    FA6.0
0232E:  MOVF   FA8,W
02330:  MOVLB  7
02332:  BTFSC  x00.6
02334:  BSF    FF2.6
02336:  BTFSC  x00.7
02338:  BSF    FF2.7
0233A:  MOVLB  3
0233C:  MOVWF  x93
....................    delay_ms(10); 
0233E:  MOVLW  0A
02340:  MOVLB  7
02342:  MOVWF  x10
02344:  MOVLB  0
02346:  CALL   1992
....................    CiclosL=read_eeprom(37); 
0234A:  MOVFF  FF2,700
0234E:  BCF    FF2.6
02350:  BCF    FF2.7
02352:  CLRF   FAA
02354:  MOVLW  25
02356:  MOVWF  FA9
02358:  BCF    FA6.6
0235A:  BCF    FA6.7
0235C:  BSF    FA6.0
0235E:  MOVF   FA8,W
02360:  MOVLB  7
02362:  BTFSC  x00.6
02364:  BSF    FF2.6
02366:  BTFSC  x00.7
02368:  BSF    FF2.7
0236A:  MOVLB  3
0236C:  MOVWF  x53
....................    delay_ms(10); 
0236E:  MOVLW  0A
02370:  MOVLB  7
02372:  MOVWF  x10
02374:  MOVLB  0
02376:  CALL   1992
....................    CiclosH=read_eeprom(38); 
0237A:  MOVFF  FF2,700
0237E:  BCF    FF2.6
02380:  BCF    FF2.7
02382:  CLRF   FAA
02384:  MOVLW  26
02386:  MOVWF  FA9
02388:  BCF    FA6.6
0238A:  BCF    FA6.7
0238C:  BSF    FA6.0
0238E:  MOVF   FA8,W
02390:  MOVLB  7
02392:  BTFSC  x00.6
02394:  BSF    FF2.6
02396:  BTFSC  x00.7
02398:  BSF    FF2.7
0239A:  MOVLB  3
0239C:  MOVWF  x54
....................    delay_ms(10); 
0239E:  MOVLW  0A
023A0:  MOVLB  7
023A2:  MOVWF  x10
023A4:  MOVLB  0
023A6:  CALL   1992
....................    TTrampa=read_eeprom(39); 
023AA:  MOVFF  FF2,700
023AE:  BCF    FF2.6
023B0:  BCF    FF2.7
023B2:  CLRF   FAA
023B4:  MOVLW  27
023B6:  MOVWF  FA9
023B8:  BCF    FA6.6
023BA:  BCF    FA6.7
023BC:  BSF    FA6.0
023BE:  MOVF   FA8,W
023C0:  MOVLB  7
023C2:  BTFSC  x00.6
023C4:  BSF    FF2.6
023C6:  BTFSC  x00.7
023C8:  BSF    FF2.7
023CA:  MOVLB  2
023CC:  MOVWF  xD0
....................    delay_ms(10); 
023CE:  MOVLW  0A
023D0:  MOVLB  7
023D2:  MOVWF  x10
023D4:  MOVLB  0
023D6:  CALL   1992
....................    Ciclos=make16(CiclosH,CiclosL); 
023DA:  MOVFF  354,36D
023DE:  MOVFF  353,36C
....................    delay_ms(10); 
023E2:  MOVLW  0A
023E4:  MOVLB  7
023E6:  MOVWF  x10
023E8:  MOVLB  0
023EA:  CALL   1992
....................    G1=read_eeprom(42); 
023EE:  MOVFF  FF2,700
023F2:  BCF    FF2.6
023F4:  BCF    FF2.7
023F6:  CLRF   FAA
023F8:  MOVLW  2A
023FA:  MOVWF  FA9
023FC:  BCF    FA6.6
023FE:  BCF    FA6.7
02400:  BSF    FA6.0
02402:  MOVF   FA8,W
02404:  MOVLB  7
02406:  BTFSC  x00.6
02408:  BSF    FF2.6
0240A:  BTFSC  x00.7
0240C:  BSF    FF2.7
0240E:  MOVLB  3
02410:  MOVWF  xA2
....................    delay_ms(10); 
02412:  MOVLW  0A
02414:  MOVLB  7
02416:  MOVWF  x10
02418:  MOVLB  0
0241A:  CALL   1992
....................    G2=read_eeprom(43); 
0241E:  MOVFF  FF2,700
02422:  BCF    FF2.6
02424:  BCF    FF2.7
02426:  CLRF   FAA
02428:  MOVLW  2B
0242A:  MOVWF  FA9
0242C:  BCF    FA6.6
0242E:  BCF    FA6.7
02430:  BSF    FA6.0
02432:  MOVF   FA8,W
02434:  MOVLB  7
02436:  BTFSC  x00.6
02438:  BSF    FF2.6
0243A:  BTFSC  x00.7
0243C:  BSF    FF2.7
0243E:  MOVLB  3
02440:  MOVWF  xA3
....................    delay_ms(10); 
02442:  MOVLW  0A
02444:  MOVLB  7
02446:  MOVWF  x10
02448:  MOVLB  0
0244A:  CALL   1992
....................    sg1=read_eeprom(44); 
0244E:  MOVFF  FF2,700
02452:  BCF    FF2.6
02454:  BCF    FF2.7
02456:  CLRF   FAA
02458:  MOVLW  2C
0245A:  MOVWF  FA9
0245C:  BCF    FA6.6
0245E:  BCF    FA6.7
02460:  BSF    FA6.0
02462:  MOVF   FA8,W
02464:  MOVLB  7
02466:  BTFSC  x00.6
02468:  BSF    FF2.6
0246A:  BTFSC  x00.7
0246C:  BSF    FF2.7
0246E:  MOVLB  3
02470:  MOVWF  xA4
....................    delay_ms(10); 
02472:  MOVLW  0A
02474:  MOVLB  7
02476:  MOVWF  x10
02478:  MOVLB  0
0247A:  CALL   1992
....................    sg2=read_eeprom(45); 
0247E:  MOVFF  FF2,700
02482:  BCF    FF2.6
02484:  BCF    FF2.7
02486:  CLRF   FAA
02488:  MOVLW  2D
0248A:  MOVWF  FA9
0248C:  BCF    FA6.6
0248E:  BCF    FA6.7
02490:  BSF    FA6.0
02492:  MOVF   FA8,W
02494:  MOVLB  7
02496:  BTFSC  x00.6
02498:  BSF    FF2.6
0249A:  BTFSC  x00.7
0249C:  BSF    FF2.7
0249E:  MOVLB  3
024A0:  MOVWF  xA5
....................     
....................    for(i=0;i<20;i++){//Lee valores almacenados de ciclos personalizados 
024A2:  CLRF   x52
024A4:  MOVF   x52,W
024A6:  SUBLW  13
024A8:  BTFSS  FD8.0
024AA:  BRA    2A78
....................       CiclosPersonalizados[i].Temperatura=read_eeprom(100+(i*8));  
024AC:  MOVF   x52,W
024AE:  MULLW  0A
024B0:  MOVF   FF3,W
024B2:  MOVLB  7
024B4:  CLRF   x01
024B6:  MOVWF  x00
024B8:  MOVLW  D2
024BA:  ADDWF  x00,W
024BC:  MOVWF  FE9
024BE:  MOVLW  06
024C0:  ADDWFC x01,W
024C2:  MOVWF  FEA
024C4:  MOVLB  3
024C6:  MOVF   x52,W
024C8:  MULLW  08
024CA:  MOVF   FF3,W
024CC:  ADDLW  64
024CE:  MOVLB  7
024D0:  MOVWF  x02
024D2:  MOVFF  FF2,703
024D6:  BCF    FF2.6
024D8:  BCF    FF2.7
024DA:  CLRF   FAA
024DC:  MOVFF  702,FA9
024E0:  BCF    FA6.6
024E2:  BCF    FA6.7
024E4:  BSF    FA6.0
024E6:  MOVF   FA8,W
024E8:  BTFSC  x03.6
024EA:  BSF    FF2.6
024EC:  BTFSC  x03.7
024EE:  BSF    FF2.7
024F0:  MOVWF  FEF
....................       CiclosPersonalizados[i].Minutoest=read_eeprom(101+(i*8));  
024F2:  MOVLB  3
024F4:  MOVF   x52,W
024F6:  MULLW  0A
024F8:  MOVF   FF3,W
024FA:  MOVLB  7
024FC:  CLRF   x01
024FE:  MOVWF  x00
02500:  MOVLW  09
02502:  ADDWF  x00,W
02504:  MOVWF  01
02506:  MOVLW  00
02508:  ADDWFC x01,W
0250A:  MOVWF  03
0250C:  MOVF   01,W
0250E:  ADDLW  D2
02510:  MOVWF  FE9
02512:  MOVLW  06
02514:  ADDWFC 03,W
02516:  MOVWF  FEA
02518:  MOVLB  3
0251A:  MOVF   x52,W
0251C:  MULLW  08
0251E:  MOVF   FF3,W
02520:  ADDLW  65
02522:  MOVLB  7
02524:  MOVWF  x02
02526:  MOVFF  FF2,703
0252A:  BCF    FF2.6
0252C:  BCF    FF2.7
0252E:  CLRF   FAA
02530:  MOVFF  702,FA9
02534:  BCF    FA6.6
02536:  BCF    FA6.7
02538:  BSF    FA6.0
0253A:  MOVF   FA8,W
0253C:  BTFSC  x03.6
0253E:  BSF    FF2.6
02540:  BTFSC  x03.7
02542:  BSF    FF2.7
02544:  MOVWF  FEF
....................       CiclosPersonalizados[i].Segundoest=read_eeprom(102+(i*8));  
02546:  MOVLB  3
02548:  MOVF   x52,W
0254A:  MULLW  0A
0254C:  MOVF   FF3,W
0254E:  MOVLB  7
02550:  CLRF   x01
02552:  MOVWF  x00
02554:  MOVLW  03
02556:  ADDWF  x00,W
02558:  MOVWF  01
0255A:  MOVLW  00
0255C:  ADDWFC x01,W
0255E:  MOVWF  03
02560:  MOVF   01,W
02562:  ADDLW  D2
02564:  MOVWF  FE9
02566:  MOVLW  06
02568:  ADDWFC 03,W
0256A:  MOVWF  FEA
0256C:  MOVLB  3
0256E:  MOVF   x52,W
02570:  MULLW  08
02572:  MOVF   FF3,W
02574:  ADDLW  66
02576:  MOVLB  7
02578:  MOVWF  x02
0257A:  MOVFF  FF2,703
0257E:  BCF    FF2.6
02580:  BCF    FF2.7
02582:  CLRF   FAA
02584:  MOVFF  702,FA9
02588:  BCF    FA6.6
0258A:  BCF    FA6.7
0258C:  BSF    FA6.0
0258E:  MOVF   FA8,W
02590:  BTFSC  x03.6
02592:  BSF    FF2.6
02594:  BTFSC  x03.7
02596:  BSF    FF2.7
02598:  MOVWF  FEF
....................       CiclosPersonalizados[i].Minutosec=read_eeprom(103+(i*8));  
0259A:  MOVLB  3
0259C:  MOVF   x52,W
0259E:  MULLW  0A
025A0:  MOVF   FF3,W
025A2:  MOVLB  7
025A4:  CLRF   x01
025A6:  MOVWF  x00
025A8:  MOVLW  04
025AA:  ADDWF  x00,W
025AC:  MOVWF  01
025AE:  MOVLW  00
025B0:  ADDWFC x01,W
025B2:  MOVWF  03
025B4:  MOVF   01,W
025B6:  ADDLW  D2
025B8:  MOVWF  FE9
025BA:  MOVLW  06
025BC:  ADDWFC 03,W
025BE:  MOVWF  FEA
025C0:  MOVLB  3
025C2:  MOVF   x52,W
025C4:  MULLW  08
025C6:  MOVF   FF3,W
025C8:  ADDLW  67
025CA:  MOVLB  7
025CC:  MOVWF  x02
025CE:  MOVFF  FF2,703
025D2:  BCF    FF2.6
025D4:  BCF    FF2.7
025D6:  CLRF   FAA
025D8:  MOVFF  702,FA9
025DC:  BCF    FA6.6
025DE:  BCF    FA6.7
025E0:  BSF    FA6.0
025E2:  MOVF   FA8,W
025E4:  BTFSC  x03.6
025E6:  BSF    FF2.6
025E8:  BTFSC  x03.7
025EA:  BSF    FF2.7
025EC:  MOVWF  FEF
....................       CiclosPersonalizados[i].Segundosec=read_eeprom(104+(i*8));  
025EE:  MOVLB  3
025F0:  MOVF   x52,W
025F2:  MULLW  0A
025F4:  MOVF   FF3,W
025F6:  MOVLB  7
025F8:  CLRF   x01
025FA:  MOVWF  x00
025FC:  MOVLW  05
025FE:  ADDWF  x00,W
02600:  MOVWF  01
02602:  MOVLW  00
02604:  ADDWFC x01,W
02606:  MOVWF  03
02608:  MOVF   01,W
0260A:  ADDLW  D2
0260C:  MOVWF  FE9
0260E:  MOVLW  06
02610:  ADDWFC 03,W
02612:  MOVWF  FEA
02614:  MOVLB  3
02616:  MOVF   x52,W
02618:  MULLW  08
0261A:  MOVF   FF3,W
0261C:  ADDLW  68
0261E:  MOVLB  7
02620:  MOVWF  x02
02622:  MOVFF  FF2,703
02626:  BCF    FF2.6
02628:  BCF    FF2.7
0262A:  CLRF   FAA
0262C:  MOVFF  702,FA9
02630:  BCF    FA6.6
02632:  BCF    FA6.7
02634:  BSF    FA6.0
02636:  MOVF   FA8,W
02638:  BTFSC  x03.6
0263A:  BSF    FF2.6
0263C:  BTFSC  x03.7
0263E:  BSF    FF2.7
02640:  MOVWF  FEF
....................       CiclosPersonalizados[i].PulsosVacio=read_eeprom(105+(i*8));  
02642:  MOVLB  3
02644:  MOVF   x52,W
02646:  MULLW  0A
02648:  MOVF   FF3,W
0264A:  MOVLB  7
0264C:  CLRF   x01
0264E:  MOVWF  x00
02650:  MOVLW  06
02652:  ADDWF  x00,W
02654:  MOVWF  01
02656:  MOVLW  00
02658:  ADDWFC x01,W
0265A:  MOVWF  03
0265C:  MOVF   01,W
0265E:  ADDLW  D2
02660:  MOVWF  FE9
02662:  MOVLW  06
02664:  ADDWFC 03,W
02666:  MOVWF  FEA
02668:  MOVLB  3
0266A:  MOVF   x52,W
0266C:  MULLW  08
0266E:  MOVF   FF3,W
02670:  ADDLW  69
02672:  MOVLB  7
02674:  MOVWF  x02
02676:  MOVFF  FF2,703
0267A:  BCF    FF2.6
0267C:  BCF    FF2.7
0267E:  CLRF   FAA
02680:  MOVFF  702,FA9
02684:  BCF    FA6.6
02686:  BCF    FA6.7
02688:  BSF    FA6.0
0268A:  MOVF   FA8,W
0268C:  BTFSC  x03.6
0268E:  BSF    FF2.6
02690:  BTFSC  x03.7
02692:  BSF    FF2.7
02694:  MOVWF  FEF
....................       CiclosPersonalizados[i].NivelVacio=read_eeprom(106+(i*8));  
02696:  MOVLB  3
02698:  MOVF   x52,W
0269A:  MULLW  0A
0269C:  MOVF   FF3,W
0269E:  MOVLB  7
026A0:  CLRF   x01
026A2:  MOVWF  x00
026A4:  MOVLW  07
026A6:  ADDWF  x00,W
026A8:  MOVWF  01
026AA:  MOVLW  00
026AC:  ADDWFC x01,W
026AE:  MOVWF  03
026B0:  MOVF   01,W
026B2:  ADDLW  D2
026B4:  MOVWF  FE9
026B6:  MOVLW  06
026B8:  ADDWFC 03,W
026BA:  MOVWF  FEA
026BC:  MOVLB  3
026BE:  MOVF   x52,W
026C0:  MULLW  08
026C2:  MOVF   FF3,W
026C4:  ADDLW  6A
026C6:  MOVLB  7
026C8:  MOVWF  x02
026CA:  MOVFF  FF2,703
026CE:  BCF    FF2.6
026D0:  BCF    FF2.7
026D2:  CLRF   FAA
026D4:  MOVFF  702,FA9
026D8:  BCF    FA6.6
026DA:  BCF    FA6.7
026DC:  BSF    FA6.0
026DE:  MOVF   FA8,W
026E0:  BTFSC  x03.6
026E2:  BSF    FF2.6
026E4:  BTFSC  x03.7
026E6:  BSF    FF2.7
026E8:  MOVWF  FEF
....................       CiclosPersonalizados[i].NivelDesfogue=read_eeprom(107+(i*8));  
026EA:  MOVLB  3
026EC:  MOVF   x52,W
026EE:  MULLW  0A
026F0:  MOVF   FF3,W
026F2:  MOVLB  7
026F4:  CLRF   x01
026F6:  MOVWF  x00
026F8:  MOVLW  08
026FA:  ADDWF  x00,W
026FC:  MOVWF  01
026FE:  MOVLW  00
02700:  ADDWFC x01,W
02702:  MOVWF  03
02704:  MOVF   01,W
02706:  ADDLW  D2
02708:  MOVWF  FE9
0270A:  MOVLW  06
0270C:  ADDWFC 03,W
0270E:  MOVWF  FEA
02710:  MOVLB  3
02712:  MOVF   x52,W
02714:  MULLW  08
02716:  MOVF   FF3,W
02718:  ADDLW  6B
0271A:  MOVLB  7
0271C:  MOVWF  x02
0271E:  MOVFF  FF2,703
02722:  BCF    FF2.6
02724:  BCF    FF2.7
02726:  CLRF   FAA
02728:  MOVFF  702,FA9
0272C:  BCF    FA6.6
0272E:  BCF    FA6.7
02730:  BSF    FA6.0
02732:  MOVF   FA8,W
02734:  BTFSC  x03.6
02736:  BSF    FF2.6
02738:  BTFSC  x03.7
0273A:  BSF    FF2.7
0273C:  MOVWF  FEF
....................        
....................       if(CiclosPersonalizados[i].Temperatura>134 || CiclosPersonalizados[i].Temperatura<105) 
0273E:  MOVLB  3
02740:  MOVF   x52,W
02742:  MULLW  0A
02744:  MOVF   FF3,W
02746:  MOVLB  7
02748:  CLRF   x01
0274A:  MOVWF  x00
0274C:  MOVLW  D2
0274E:  ADDWF  x00,W
02750:  MOVWF  FE9
02752:  MOVLW  06
02754:  ADDWFC x01,W
02756:  MOVWF  FEA
02758:  MOVF   FEF,W
0275A:  SUBLW  86
0275C:  BNC   277E
0275E:  MOVLB  3
02760:  MOVF   x52,W
02762:  MULLW  0A
02764:  MOVF   FF3,W
02766:  MOVLB  7
02768:  CLRF   x01
0276A:  MOVWF  x00
0276C:  MOVLW  D2
0276E:  ADDWF  x00,W
02770:  MOVWF  FE9
02772:  MOVLW  06
02774:  ADDWFC x01,W
02776:  MOVWF  FEA
02778:  MOVF   FEF,W
0277A:  SUBLW  68
0277C:  BNC   279C
....................          CiclosPersonalizados[i].Temperatura=121; 
0277E:  MOVLB  3
02780:  MOVF   x52,W
02782:  MULLW  0A
02784:  MOVF   FF3,W
02786:  MOVLB  7
02788:  CLRF   x01
0278A:  MOVWF  x00
0278C:  MOVLW  D2
0278E:  ADDWF  x00,W
02790:  MOVWF  FE9
02792:  MOVLW  06
02794:  ADDWFC x01,W
02796:  MOVWF  FEA
02798:  MOVLW  79
0279A:  MOVWF  FEF
....................       if(CiclosPersonalizados[i].Minutoest>99 || CiclosPersonalizados[i].Minutoest<1) 
0279C:  MOVLB  3
0279E:  MOVF   x52,W
027A0:  MULLW  0A
027A2:  MOVF   FF3,W
027A4:  MOVLB  7
027A6:  CLRF   x01
027A8:  MOVWF  x00
027AA:  MOVLW  09
027AC:  ADDWF  x00,W
027AE:  MOVWF  01
027B0:  MOVLW  00
027B2:  ADDWFC x01,W
027B4:  MOVWF  03
027B6:  MOVF   01,W
027B8:  ADDLW  D2
027BA:  MOVWF  FE9
027BC:  MOVLW  06
027BE:  ADDWFC 03,W
027C0:  MOVWF  FEA
027C2:  MOVF   FEF,W
027C4:  SUBLW  63
027C6:  BNC   27F2
027C8:  MOVLB  3
027CA:  MOVF   x52,W
027CC:  MULLW  0A
027CE:  MOVF   FF3,W
027D0:  MOVLB  7
027D2:  CLRF   x01
027D4:  MOVWF  x00
027D6:  MOVLW  09
027D8:  ADDWF  x00,W
027DA:  MOVWF  01
027DC:  MOVLW  00
027DE:  ADDWFC x01,W
027E0:  MOVWF  03
027E2:  MOVF   01,W
027E4:  ADDLW  D2
027E6:  MOVWF  FE9
027E8:  MOVLW  06
027EA:  ADDWFC 03,W
027EC:  MOVWF  FEA
027EE:  MOVF   FEF,F
027F0:  BNZ   281C
....................          CiclosPersonalizados[i].Minutoest=3; 
027F2:  MOVLB  3
027F4:  MOVF   x52,W
027F6:  MULLW  0A
027F8:  MOVF   FF3,W
027FA:  MOVLB  7
027FC:  CLRF   x01
027FE:  MOVWF  x00
02800:  MOVLW  09
02802:  ADDWF  x00,W
02804:  MOVWF  01
02806:  MOVLW  00
02808:  ADDWFC x01,W
0280A:  MOVWF  03
0280C:  MOVF   01,W
0280E:  ADDLW  D2
02810:  MOVWF  FE9
02812:  MOVLW  06
02814:  ADDWFC 03,W
02816:  MOVWF  FEA
02818:  MOVLW  03
0281A:  MOVWF  FEF
....................       if(CiclosPersonalizados[i].Minutosec>99 || CiclosPersonalizados[i].Minutosec<1) 
0281C:  MOVLB  3
0281E:  MOVF   x52,W
02820:  MULLW  0A
02822:  MOVF   FF3,W
02824:  MOVLB  7
02826:  CLRF   x01
02828:  MOVWF  x00
0282A:  MOVLW  04
0282C:  ADDWF  x00,W
0282E:  MOVWF  01
02830:  MOVLW  00
02832:  ADDWFC x01,W
02834:  MOVWF  03
02836:  MOVF   01,W
02838:  ADDLW  D2
0283A:  MOVWF  FE9
0283C:  MOVLW  06
0283E:  ADDWFC 03,W
02840:  MOVWF  FEA
02842:  MOVF   FEF,W
02844:  SUBLW  63
02846:  BNC   2872
02848:  MOVLB  3
0284A:  MOVF   x52,W
0284C:  MULLW  0A
0284E:  MOVF   FF3,W
02850:  MOVLB  7
02852:  CLRF   x01
02854:  MOVWF  x00
02856:  MOVLW  04
02858:  ADDWF  x00,W
0285A:  MOVWF  01
0285C:  MOVLW  00
0285E:  ADDWFC x01,W
02860:  MOVWF  03
02862:  MOVF   01,W
02864:  ADDLW  D2
02866:  MOVWF  FE9
02868:  MOVLW  06
0286A:  ADDWFC 03,W
0286C:  MOVWF  FEA
0286E:  MOVF   FEF,F
02870:  BNZ   289C
....................          CiclosPersonalizados[i].Minutosec=1;    
02872:  MOVLB  3
02874:  MOVF   x52,W
02876:  MULLW  0A
02878:  MOVF   FF3,W
0287A:  MOVLB  7
0287C:  CLRF   x01
0287E:  MOVWF  x00
02880:  MOVLW  04
02882:  ADDWF  x00,W
02884:  MOVWF  01
02886:  MOVLW  00
02888:  ADDWFC x01,W
0288A:  MOVWF  03
0288C:  MOVF   01,W
0288E:  ADDLW  D2
02890:  MOVWF  FE9
02892:  MOVLW  06
02894:  ADDWFC 03,W
02896:  MOVWF  FEA
02898:  MOVLW  01
0289A:  MOVWF  FEF
....................       if(CiclosPersonalizados[i].Segundoest>59) 
0289C:  MOVLB  3
0289E:  MOVF   x52,W
028A0:  MULLW  0A
028A2:  MOVF   FF3,W
028A4:  MOVLB  7
028A6:  CLRF   x01
028A8:  MOVWF  x00
028AA:  MOVLW  03
028AC:  ADDWF  x00,W
028AE:  MOVWF  01
028B0:  MOVLW  00
028B2:  ADDWFC x01,W
028B4:  MOVWF  03
028B6:  MOVF   01,W
028B8:  ADDLW  D2
028BA:  MOVWF  FE9
028BC:  MOVLW  06
028BE:  ADDWFC 03,W
028C0:  MOVWF  FEA
028C2:  MOVF   FEF,W
028C4:  SUBLW  3B
028C6:  BC    28F0
....................          CiclosPersonalizados[i].Segundoest=0; 
028C8:  MOVLB  3
028CA:  MOVF   x52,W
028CC:  MULLW  0A
028CE:  MOVF   FF3,W
028D0:  MOVLB  7
028D2:  CLRF   x01
028D4:  MOVWF  x00
028D6:  MOVLW  03
028D8:  ADDWF  x00,W
028DA:  MOVWF  01
028DC:  MOVLW  00
028DE:  ADDWFC x01,W
028E0:  MOVWF  03
028E2:  MOVF   01,W
028E4:  ADDLW  D2
028E6:  MOVWF  FE9
028E8:  MOVLW  06
028EA:  ADDWFC 03,W
028EC:  MOVWF  FEA
028EE:  CLRF   FEF
....................       if(CiclosPersonalizados[i].Segundosec>59) 
028F0:  MOVLB  3
028F2:  MOVF   x52,W
028F4:  MULLW  0A
028F6:  MOVF   FF3,W
028F8:  MOVLB  7
028FA:  CLRF   x01
028FC:  MOVWF  x00
028FE:  MOVLW  05
02900:  ADDWF  x00,W
02902:  MOVWF  01
02904:  MOVLW  00
02906:  ADDWFC x01,W
02908:  MOVWF  03
0290A:  MOVF   01,W
0290C:  ADDLW  D2
0290E:  MOVWF  FE9
02910:  MOVLW  06
02912:  ADDWFC 03,W
02914:  MOVWF  FEA
02916:  MOVF   FEF,W
02918:  SUBLW  3B
0291A:  BC    2944
....................          CiclosPersonalizados[i].Segundosec=0;       
0291C:  MOVLB  3
0291E:  MOVF   x52,W
02920:  MULLW  0A
02922:  MOVF   FF3,W
02924:  MOVLB  7
02926:  CLRF   x01
02928:  MOVWF  x00
0292A:  MOVLW  05
0292C:  ADDWF  x00,W
0292E:  MOVWF  01
02930:  MOVLW  00
02932:  ADDWFC x01,W
02934:  MOVWF  03
02936:  MOVF   01,W
02938:  ADDLW  D2
0293A:  MOVWF  FE9
0293C:  MOVLW  06
0293E:  ADDWFC 03,W
02940:  MOVWF  FEA
02942:  CLRF   FEF
....................       if(CiclosPersonalizados[i].PulsosVacio>15) 
02944:  MOVLB  3
02946:  MOVF   x52,W
02948:  MULLW  0A
0294A:  MOVF   FF3,W
0294C:  MOVLB  7
0294E:  CLRF   x01
02950:  MOVWF  x00
02952:  MOVLW  06
02954:  ADDWF  x00,W
02956:  MOVWF  01
02958:  MOVLW  00
0295A:  ADDWFC x01,W
0295C:  MOVWF  03
0295E:  MOVF   01,W
02960:  ADDLW  D2
02962:  MOVWF  FE9
02964:  MOVLW  06
02966:  ADDWFC 03,W
02968:  MOVWF  FEA
0296A:  MOVF   FEF,W
0296C:  SUBLW  0F
0296E:  BC    299A
....................          CiclosPersonalizados[i].PulsosVacio=4; 
02970:  MOVLB  3
02972:  MOVF   x52,W
02974:  MULLW  0A
02976:  MOVF   FF3,W
02978:  MOVLB  7
0297A:  CLRF   x01
0297C:  MOVWF  x00
0297E:  MOVLW  06
02980:  ADDWF  x00,W
02982:  MOVWF  01
02984:  MOVLW  00
02986:  ADDWFC x01,W
02988:  MOVWF  03
0298A:  MOVF   01,W
0298C:  ADDLW  D2
0298E:  MOVWF  FE9
02990:  MOVLW  06
02992:  ADDWFC 03,W
02994:  MOVWF  FEA
02996:  MOVLW  04
02998:  MOVWF  FEF
....................       if(CiclosPersonalizados[i].NivelVacio>100 || CiclosPersonalizados[i].NivelVacio<10) 
0299A:  MOVLB  3
0299C:  MOVF   x52,W
0299E:  MULLW  0A
029A0:  MOVF   FF3,W
029A2:  MOVLB  7
029A4:  CLRF   x01
029A6:  MOVWF  x00
029A8:  MOVLW  07
029AA:  ADDWF  x00,W
029AC:  MOVWF  01
029AE:  MOVLW  00
029B0:  ADDWFC x01,W
029B2:  MOVWF  03
029B4:  MOVF   01,W
029B6:  ADDLW  D2
029B8:  MOVWF  FE9
029BA:  MOVLW  06
029BC:  ADDWFC 03,W
029BE:  MOVWF  FEA
029C0:  MOVF   FEF,W
029C2:  SUBLW  64
029C4:  BNC   29F2
029C6:  MOVLB  3
029C8:  MOVF   x52,W
029CA:  MULLW  0A
029CC:  MOVF   FF3,W
029CE:  MOVLB  7
029D0:  CLRF   x01
029D2:  MOVWF  x00
029D4:  MOVLW  07
029D6:  ADDWF  x00,W
029D8:  MOVWF  01
029DA:  MOVLW  00
029DC:  ADDWFC x01,W
029DE:  MOVWF  03
029E0:  MOVF   01,W
029E2:  ADDLW  D2
029E4:  MOVWF  FE9
029E6:  MOVLW  06
029E8:  ADDWFC 03,W
029EA:  MOVWF  FEA
029EC:  MOVF   FEF,W
029EE:  SUBLW  09
029F0:  BNC   2A1C
....................          CiclosPersonalizados[i].NivelVacio=25;    
029F2:  MOVLB  3
029F4:  MOVF   x52,W
029F6:  MULLW  0A
029F8:  MOVF   FF3,W
029FA:  MOVLB  7
029FC:  CLRF   x01
029FE:  MOVWF  x00
02A00:  MOVLW  07
02A02:  ADDWF  x00,W
02A04:  MOVWF  01
02A06:  MOVLW  00
02A08:  ADDWFC x01,W
02A0A:  MOVWF  03
02A0C:  MOVF   01,W
02A0E:  ADDLW  D2
02A10:  MOVWF  FE9
02A12:  MOVLW  06
02A14:  ADDWFC 03,W
02A16:  MOVWF  FEA
02A18:  MOVLW  19
02A1A:  MOVWF  FEF
....................       if(CiclosPersonalizados[i].NivelDesfogue>6) 
02A1C:  MOVLB  3
02A1E:  MOVF   x52,W
02A20:  MULLW  0A
02A22:  MOVF   FF3,W
02A24:  MOVLB  7
02A26:  CLRF   x01
02A28:  MOVWF  x00
02A2A:  MOVLW  08
02A2C:  ADDWF  x00,W
02A2E:  MOVWF  01
02A30:  MOVLW  00
02A32:  ADDWFC x01,W
02A34:  MOVWF  03
02A36:  MOVF   01,W
02A38:  ADDLW  D2
02A3A:  MOVWF  FE9
02A3C:  MOVLW  06
02A3E:  ADDWFC 03,W
02A40:  MOVWF  FEA
02A42:  MOVF   FEF,W
02A44:  SUBLW  06
02A46:  BC    2A72
....................          CiclosPersonalizados[i].NivelDesfogue=6; 
02A48:  MOVLB  3
02A4A:  MOVF   x52,W
02A4C:  MULLW  0A
02A4E:  MOVF   FF3,W
02A50:  MOVLB  7
02A52:  CLRF   x01
02A54:  MOVWF  x00
02A56:  MOVLW  08
02A58:  ADDWF  x00,W
02A5A:  MOVWF  01
02A5C:  MOVLW  00
02A5E:  ADDWFC x01,W
02A60:  MOVWF  03
02A62:  MOVF   01,W
02A64:  ADDLW  D2
02A66:  MOVWF  FE9
02A68:  MOVLW  06
02A6A:  ADDWFC 03,W
02A6C:  MOVWF  FEA
02A6E:  MOVLW  06
02A70:  MOVWF  FEF
....................    } 
02A72:  MOVLB  3
02A74:  INCF   x52,F
02A76:  BRA    24A4
....................     
....................    diaCiclos=read_ext_eeprom(2+(cicloVisto*320)); 
02A78:  MOVLB  7
02A7A:  CLRF   x0B
02A7C:  MOVFF  394,70A
02A80:  MOVLW  01
02A82:  MOVWF  x0D
02A84:  MOVLW  40
02A86:  MOVWF  x0C
02A88:  MOVLB  0
02A8A:  CALL   19F0
02A8E:  MOVFF  02,03
02A92:  MOVF   01,W
02A94:  ADDLW  02
02A96:  MOVLB  7
02A98:  MOVWF  x00
02A9A:  MOVLW  00
02A9C:  ADDWFC 02,W
02A9E:  MOVWF  x01
02AA0:  MOVWF  x06
02AA2:  MOVFF  700,705
02AA6:  MOVLB  0
02AA8:  CALL   1AF4
02AAC:  MOVFF  01,405
....................    if(diaCiclos>31) 
02AB0:  MOVLB  4
02AB2:  MOVF   x05,W
02AB4:  SUBLW  1F
02AB6:  BC    2ABC
....................       diaCiclos=1; 
02AB8:  MOVLW  01
02ABA:  MOVWF  x05
....................    mesCiclos=read_ext_eeprom(3+(cicloVisto*320)); 
02ABC:  MOVLB  7
02ABE:  CLRF   x0B
02AC0:  MOVFF  394,70A
02AC4:  MOVLW  01
02AC6:  MOVWF  x0D
02AC8:  MOVLW  40
02ACA:  MOVWF  x0C
02ACC:  MOVLB  0
02ACE:  CALL   19F0
02AD2:  MOVFF  02,03
02AD6:  MOVF   01,W
02AD8:  ADDLW  03
02ADA:  MOVLB  7
02ADC:  MOVWF  x00
02ADE:  MOVLW  00
02AE0:  ADDWFC 02,W
02AE2:  MOVWF  x01
02AE4:  MOVWF  x06
02AE6:  MOVFF  700,705
02AEA:  MOVLB  0
02AEC:  CALL   1AF4
02AF0:  MOVFF  01,406
....................    if(mesCiclos>12) 
02AF4:  MOVLB  4
02AF6:  MOVF   x06,W
02AF8:  SUBLW  0C
02AFA:  BC    2B00
....................       mesCiclos=1; 
02AFC:  MOVLW  01
02AFE:  MOVWF  x06
....................    yearCiclos=read_ext_eeprom(4+(cicloVisto*320)); 
02B00:  MOVLB  7
02B02:  CLRF   x0B
02B04:  MOVFF  394,70A
02B08:  MOVLW  01
02B0A:  MOVWF  x0D
02B0C:  MOVLW  40
02B0E:  MOVWF  x0C
02B10:  MOVLB  0
02B12:  CALL   19F0
02B16:  MOVFF  02,03
02B1A:  MOVF   01,W
02B1C:  ADDLW  04
02B1E:  MOVLB  7
02B20:  MOVWF  x00
02B22:  MOVLW  00
02B24:  ADDWFC 02,W
02B26:  MOVWF  x01
02B28:  MOVWF  x06
02B2A:  MOVFF  700,705
02B2E:  MOVLB  0
02B30:  CALL   1AF4
02B34:  MOVFF  01,407
....................    if(yearCiclos>99) 
02B38:  MOVLB  4
02B3A:  MOVF   x07,W
02B3C:  SUBLW  63
02B3E:  BC    2B44
....................       yearCiclos=19; 
02B40:  MOVLW  13
02B42:  MOVWF  x07
....................    cicloCiclos=read_ext_eeprom(1+(cicloVisto*320)); 
02B44:  MOVLB  7
02B46:  CLRF   x0B
02B48:  MOVFF  394,70A
02B4C:  MOVLW  01
02B4E:  MOVWF  x0D
02B50:  MOVLW  40
02B52:  MOVWF  x0C
02B54:  MOVLB  0
02B56:  CALL   19F0
02B5A:  MOVFF  02,03
02B5E:  MOVF   01,W
02B60:  ADDLW  01
02B62:  MOVLB  7
02B64:  MOVWF  x00
02B66:  MOVLW  00
02B68:  ADDWFC 02,W
02B6A:  MOVWF  x01
02B6C:  MOVWF  x06
02B6E:  MOVFF  700,705
02B72:  MOVLB  0
02B74:  CALL   1AF4
02B78:  MOVFF  01,409
....................    if(cicloCiclos>20) 
02B7C:  MOVLB  4
02B7E:  MOVF   x09,W
02B80:  SUBLW  14
02B82:  BC    2B88
....................       cicloCiclos=1; 
02B84:  MOVLW  01
02B86:  MOVWF  x09
....................    usuarioCiclos=read_ext_eeprom((cicloVisto*320)); 
02B88:  MOVLB  7
02B8A:  CLRF   x0B
02B8C:  MOVFF  394,70A
02B90:  MOVLW  01
02B92:  MOVWF  x0D
02B94:  MOVLW  40
02B96:  MOVWF  x0C
02B98:  MOVLB  0
02B9A:  CALL   19F0
02B9E:  MOVFF  02,701
02BA2:  MOVFF  01,700
02BA6:  MOVFF  02,706
02BAA:  MOVFF  01,705
02BAE:  CALL   1AF4
02BB2:  MOVFF  01,408
....................    if(usuarioCiclos>10) 
02BB6:  MOVLB  4
02BB8:  MOVF   x08,W
02BBA:  SUBLW  0A
02BBC:  BC    2BC2
....................       usuarioCiclos=1; 
02BBE:  MOVLW  01
02BC0:  MOVWF  x08
....................    for(i=0;i<7;i++){//Lee Valores para completar la Tabla 
02BC2:  MOVLB  3
02BC4:  CLRF   x52
02BC6:  MOVF   x52,W
02BC8:  SUBLW  06
02BCA:  BTFSS  FD8.0
02BCC:  BRA    3116
....................       horaCiclos[i]=read_ext_eeprom((cicloVisto*320)+11+((cicloVisualizado+i)*9)); 
02BCE:  CLRF   03
02BD0:  MOVF   x52,W
02BD2:  ADDLW  F0
02BD4:  MOVWF  01
02BD6:  MOVLW  03
02BD8:  ADDWFC 03,F
02BDA:  MOVFF  01,700
02BDE:  MOVLB  7
02BE0:  MOVFF  03,701
02BE4:  CLRF   x0B
02BE6:  MOVFF  394,70A
02BEA:  MOVLW  01
02BEC:  MOVWF  x0D
02BEE:  MOVLW  40
02BF0:  MOVWF  x0C
02BF2:  MOVLB  0
02BF4:  CALL   19F0
02BF8:  MOVFF  02,703
02BFC:  MOVFF  01,702
02C00:  MOVLW  0B
02C02:  MOVLB  7
02C04:  ADDWF  x02,F
02C06:  MOVLW  00
02C08:  ADDWFC x03,F
02C0A:  MOVLB  3
02C0C:  MOVF   x52,W
02C0E:  ADDWF  x95,W
02C10:  MULLW  09
02C12:  MOVF   FF3,W
02C14:  MOVLB  7
02C16:  ADDWF  x02,F
02C18:  MOVLW  00
02C1A:  ADDWFC x03,F
02C1C:  MOVFF  703,706
02C20:  MOVFF  702,705
02C24:  MOVLB  0
02C26:  CALL   1AF4
02C2A:  MOVFF  701,FEA
02C2E:  MOVFF  700,FE9
02C32:  MOVFF  01,FEF
....................       if(horaCiclos[i]>24) 
02C36:  CLRF   03
02C38:  MOVLB  3
02C3A:  MOVF   x52,W
02C3C:  ADDLW  F0
02C3E:  MOVWF  FE9
02C40:  MOVLW  03
02C42:  ADDWFC 03,W
02C44:  MOVWF  FEA
02C46:  MOVF   FEF,W
02C48:  SUBLW  18
02C4A:  BC    2C5C
....................          horaCiclos[i]=0; 
02C4C:  CLRF   03
02C4E:  MOVF   x52,W
02C50:  ADDLW  F0
02C52:  MOVWF  FE9
02C54:  MOVLW  03
02C56:  ADDWFC 03,W
02C58:  MOVWF  FEA
02C5A:  CLRF   FEF
....................       minutoCiclos[i]=read_ext_eeprom((cicloVisto*320)+12+((cicloVisualizado+i)*9)); 
02C5C:  CLRF   03
02C5E:  MOVF   x52,W
02C60:  ADDLW  F7
02C62:  MOVWF  01
02C64:  MOVLW  03
02C66:  ADDWFC 03,F
02C68:  MOVFF  01,700
02C6C:  MOVLB  7
02C6E:  MOVFF  03,701
02C72:  CLRF   x0B
02C74:  MOVFF  394,70A
02C78:  MOVLW  01
02C7A:  MOVWF  x0D
02C7C:  MOVLW  40
02C7E:  MOVWF  x0C
02C80:  MOVLB  0
02C82:  CALL   19F0
02C86:  MOVFF  02,703
02C8A:  MOVFF  01,702
02C8E:  MOVLW  0C
02C90:  MOVLB  7
02C92:  ADDWF  x02,F
02C94:  MOVLW  00
02C96:  ADDWFC x03,F
02C98:  MOVLB  3
02C9A:  MOVF   x52,W
02C9C:  ADDWF  x95,W
02C9E:  MULLW  09
02CA0:  MOVF   FF3,W
02CA2:  MOVLB  7
02CA4:  ADDWF  x02,F
02CA6:  MOVLW  00
02CA8:  ADDWFC x03,F
02CAA:  MOVFF  703,706
02CAE:  MOVFF  702,705
02CB2:  MOVLB  0
02CB4:  CALL   1AF4
02CB8:  MOVFF  701,FEA
02CBC:  MOVFF  700,FE9
02CC0:  MOVFF  01,FEF
....................       if(minutoCiclos[i]>59) 
02CC4:  CLRF   03
02CC6:  MOVLB  3
02CC8:  MOVF   x52,W
02CCA:  ADDLW  F7
02CCC:  MOVWF  FE9
02CCE:  MOVLW  03
02CD0:  ADDWFC 03,W
02CD2:  MOVWF  FEA
02CD4:  MOVF   FEF,W
02CD6:  SUBLW  3B
02CD8:  BC    2CEA
....................          minutoCiclos[i]=0; 
02CDA:  CLRF   03
02CDC:  MOVF   x52,W
02CDE:  ADDLW  F7
02CE0:  MOVWF  FE9
02CE2:  MOVLW  03
02CE4:  ADDWFC 03,W
02CE6:  MOVWF  FEA
02CE8:  CLRF   FEF
....................       TCiclos[i]=read_ext_eeprom((cicloVisto*320)+5+((cicloVisualizado+i)*9))+inttofloat(read_ext_eeprom((cicloVisto*320)+6+((cicloVisualizado+i)*9))); 
02CEA:  MOVF   x52,W
02CEC:  MULLW  04
02CEE:  MOVF   FF3,W
02CF0:  CLRF   03
02CF2:  ADDLW  B8
02CF4:  MOVWF  01
02CF6:  MOVLW  03
02CF8:  ADDWFC 03,F
02CFA:  MOVFF  01,700
02CFE:  MOVLB  7
02D00:  MOVFF  03,701
02D04:  CLRF   x0B
02D06:  MOVFF  394,70A
02D0A:  MOVLW  01
02D0C:  MOVWF  x0D
02D0E:  MOVLW  40
02D10:  MOVWF  x0C
02D12:  MOVLB  0
02D14:  CALL   19F0
02D18:  MOVFF  02,703
02D1C:  MOVFF  01,702
02D20:  MOVLW  05
02D22:  MOVLB  7
02D24:  ADDWF  x02,F
02D26:  MOVLW  00
02D28:  ADDWFC x03,F
02D2A:  MOVLB  3
02D2C:  MOVF   x52,W
02D2E:  ADDWF  x95,W
02D30:  MULLW  09
02D32:  MOVF   FF3,W
02D34:  MOVLB  7
02D36:  ADDWF  x02,F
02D38:  MOVLW  00
02D3A:  ADDWFC x03,F
02D3C:  MOVFF  703,706
02D40:  MOVFF  702,705
02D44:  MOVLB  0
02D46:  CALL   1AF4
02D4A:  MOVFF  01,702
02D4E:  MOVLB  7
02D50:  CLRF   x0B
02D52:  MOVFF  394,70A
02D56:  MOVLW  01
02D58:  MOVWF  x0D
02D5A:  MOVLW  40
02D5C:  MOVWF  x0C
02D5E:  MOVLB  0
02D60:  CALL   19F0
02D64:  MOVFF  02,704
02D68:  MOVFF  01,703
02D6C:  MOVLW  06
02D6E:  MOVLB  7
02D70:  ADDWF  x03,F
02D72:  MOVLW  00
02D74:  ADDWFC x04,F
02D76:  MOVLB  3
02D78:  MOVF   x52,W
02D7A:  ADDWF  x95,W
02D7C:  MULLW  09
02D7E:  MOVF   FF3,W
02D80:  MOVLB  7
02D82:  ADDWF  x03,F
02D84:  MOVLW  00
02D86:  ADDWFC x04,F
02D88:  MOVFF  704,706
02D8C:  MOVFF  703,705
02D90:  MOVLB  0
02D92:  CALL   1AF4
02D96:  MOVFF  01,703
02D9A:  MOVFF  01,704
02D9E:  CALL   1CFA
02DA2:  MOVFF  00,703
02DA6:  MOVFF  01,704
02DAA:  MOVFF  02,705
02DAE:  MOVFF  03,706
02DB2:  MOVLB  7
02DB4:  CLRF   x13
02DB6:  MOVFF  702,712
02DBA:  MOVLB  0
02DBC:  CALL   19BA
02DC0:  MOVFF  FEA,708
02DC4:  MOVFF  FE9,707
02DC8:  BCF    FD8.1
02DCA:  MOVFF  03,715
02DCE:  MOVFF  02,714
02DD2:  MOVFF  01,713
02DD6:  MOVFF  00,712
02DDA:  MOVFF  706,719
02DDE:  MOVFF  705,718
02DE2:  MOVFF  704,717
02DE6:  MOVFF  703,716
02DEA:  CALL   1D3A
02DEE:  MOVFF  708,FEA
02DF2:  MOVFF  707,FE9
02DF6:  MOVFF  701,FEA
02DFA:  MOVFF  700,FE9
02DFE:  MOVFF  00,FEF
02E02:  MOVFF  01,FEC
02E06:  MOVFF  02,FEC
02E0A:  MOVFF  03,FEC
....................       if(TCiclos[i]>200) 
02E0E:  MOVLB  3
02E10:  MOVF   x52,W
02E12:  MULLW  04
02E14:  MOVF   FF3,W
02E16:  CLRF   03
02E18:  ADDLW  B8
02E1A:  MOVWF  FE9
02E1C:  MOVLW  03
02E1E:  ADDWFC 03,W
02E20:  MOVWF  FEA
02E22:  MOVFF  FEF,700
02E26:  MOVFF  FEC,701
02E2A:  MOVFF  FEC,702
02E2E:  MOVFF  FEC,703
02E32:  MOVLB  7
02E34:  CLRF   x0B
02E36:  CLRF   x0A
02E38:  MOVLW  48
02E3A:  MOVWF  x09
02E3C:  MOVLW  86
02E3E:  MOVWF  x08
02E40:  MOVFF  703,70F
02E44:  MOVFF  702,70E
02E48:  MOVFF  701,70D
02E4C:  MOVFF  700,70C
02E50:  MOVLB  0
02E52:  CALL   1FB2
02E56:  BNC   2E76
....................          TCiclos[i]=0; 
02E58:  MOVLB  3
02E5A:  MOVF   x52,W
02E5C:  MULLW  04
02E5E:  MOVF   FF3,W
02E60:  CLRF   03
02E62:  ADDLW  B8
02E64:  MOVWF  FE9
02E66:  MOVLW  03
02E68:  ADDWFC 03,W
02E6A:  MOVWF  FEA
02E6C:  CLRF   FEF
02E6E:  CLRF   FEC
02E70:  CLRF   FEC
02E72:  CLRF   FEC
02E74:  MOVLB  0
....................       PcCiclos[i]=make16(read_ext_eeprom((cicloVisto*320)+7+((cicloVisualizado+i)*9)),read_ext_eeprom((cicloVisto*320)+8+((cicloVisualizado+i)*9))); 
02E76:  BCF    FD8.0
02E78:  MOVLB  3
02E7A:  RLCF   x52,W
02E7C:  CLRF   03
02E7E:  ADDLW  D4
02E80:  MOVWF  01
02E82:  MOVLW  03
02E84:  ADDWFC 03,F
02E86:  MOVFF  01,700
02E8A:  MOVLB  7
02E8C:  MOVFF  03,701
02E90:  CLRF   x0B
02E92:  MOVFF  394,70A
02E96:  MOVLW  01
02E98:  MOVWF  x0D
02E9A:  MOVLW  40
02E9C:  MOVWF  x0C
02E9E:  MOVLB  0
02EA0:  CALL   19F0
02EA4:  MOVFF  02,703
02EA8:  MOVFF  01,702
02EAC:  MOVLW  07
02EAE:  MOVLB  7
02EB0:  ADDWF  x02,F
02EB2:  MOVLW  00
02EB4:  ADDWFC x03,F
02EB6:  MOVLB  3
02EB8:  MOVF   x52,W
02EBA:  ADDWF  x95,W
02EBC:  MULLW  09
02EBE:  MOVF   FF3,W
02EC0:  MOVLB  7
02EC2:  ADDWF  x02,F
02EC4:  MOVLW  00
02EC6:  ADDWFC x03,F
02EC8:  MOVFF  703,706
02ECC:  MOVFF  702,705
02ED0:  MOVLB  0
02ED2:  CALL   1AF4
02ED6:  MOVFF  01,702
02EDA:  MOVLB  7
02EDC:  CLRF   x0B
02EDE:  MOVFF  394,70A
02EE2:  MOVLW  01
02EE4:  MOVWF  x0D
02EE6:  MOVLW  40
02EE8:  MOVWF  x0C
02EEA:  MOVLB  0
02EEC:  CALL   19F0
02EF0:  MOVFF  02,704
02EF4:  MOVFF  01,703
02EF8:  MOVLW  08
02EFA:  MOVLB  7
02EFC:  ADDWF  x03,F
02EFE:  MOVLW  00
02F00:  ADDWFC x04,F
02F02:  MOVLB  3
02F04:  MOVF   x52,W
02F06:  ADDWF  x95,W
02F08:  MULLW  09
02F0A:  MOVF   FF3,W
02F0C:  MOVLB  7
02F0E:  ADDWF  x03,F
02F10:  MOVLW  00
02F12:  ADDWFC x04,F
02F14:  MOVFF  704,706
02F18:  MOVFF  703,705
02F1C:  MOVLB  0
02F1E:  CALL   1AF4
02F22:  MOVFF  701,FEA
02F26:  MOVFF  700,FE9
02F2A:  MOVFF  702,FEC
02F2E:  MOVF   FED,F
02F30:  MOVFF  01,FEF
....................       if(PcCiclos[i]>500) 
02F34:  BCF    FD8.0
02F36:  MOVLB  3
02F38:  RLCF   x52,W
02F3A:  CLRF   03
02F3C:  ADDLW  D4
02F3E:  MOVWF  FE9
02F40:  MOVLW  03
02F42:  ADDWFC 03,W
02F44:  MOVWF  FEA
02F46:  MOVFF  FEC,701
02F4A:  MOVF   FED,F
02F4C:  MOVFF  FEF,700
02F50:  MOVLB  7
02F52:  MOVF   x01,W
02F54:  SUBLW  00
02F56:  BC    2F7C
02F58:  XORLW  FF
02F5A:  BNZ   2F62
02F5C:  MOVF   x00,W
02F5E:  SUBLW  F4
02F60:  BC    2F7C
....................          PcCiclos[i]=0; 
02F62:  BCF    FD8.0
02F64:  MOVLB  3
02F66:  RLCF   x52,W
02F68:  CLRF   03
02F6A:  ADDLW  D4
02F6C:  MOVWF  FE9
02F6E:  MOVLW  03
02F70:  ADDWFC 03,W
02F72:  MOVWF  FEA
02F74:  CLRF   FEC
02F76:  MOVF   FED,F
02F78:  CLRF   FEF
02F7A:  MOVLB  7
....................       PpcCiclos[i]=make16(read_ext_eeprom((cicloVisto*320)+9+((cicloVisualizado+i)*9)),read_ext_eeprom((cicloVisto*320)+10+((cicloVisualizado+i)*9))); 
02F7C:  BCF    FD8.0
02F7E:  MOVLB  3
02F80:  RLCF   x52,W
02F82:  CLRF   03
02F84:  ADDLW  E2
02F86:  MOVWF  01
02F88:  MOVLW  03
02F8A:  ADDWFC 03,F
02F8C:  MOVFF  01,700
02F90:  MOVLB  7
02F92:  MOVFF  03,701
02F96:  CLRF   x0B
02F98:  MOVFF  394,70A
02F9C:  MOVLW  01
02F9E:  MOVWF  x0D
02FA0:  MOVLW  40
02FA2:  MOVWF  x0C
02FA4:  MOVLB  0
02FA6:  CALL   19F0
02FAA:  MOVFF  02,703
02FAE:  MOVFF  01,702
02FB2:  MOVLW  09
02FB4:  MOVLB  7
02FB6:  ADDWF  x02,F
02FB8:  MOVLW  00
02FBA:  ADDWFC x03,F
02FBC:  MOVLB  3
02FBE:  MOVF   x52,W
02FC0:  ADDWF  x95,W
02FC2:  MULLW  09
02FC4:  MOVF   FF3,W
02FC6:  MOVLB  7
02FC8:  ADDWF  x02,F
02FCA:  MOVLW  00
02FCC:  ADDWFC x03,F
02FCE:  MOVFF  703,706
02FD2:  MOVFF  702,705
02FD6:  MOVLB  0
02FD8:  CALL   1AF4
02FDC:  MOVFF  01,702
02FE0:  MOVLB  7
02FE2:  CLRF   x0B
02FE4:  MOVFF  394,70A
02FE8:  MOVLW  01
02FEA:  MOVWF  x0D
02FEC:  MOVLW  40
02FEE:  MOVWF  x0C
02FF0:  MOVLB  0
02FF2:  CALL   19F0
02FF6:  MOVFF  02,704
02FFA:  MOVFF  01,703
02FFE:  MOVLW  0A
03000:  MOVLB  7
03002:  ADDWF  x03,F
03004:  MOVLW  00
03006:  ADDWFC x04,F
03008:  MOVLB  3
0300A:  MOVF   x52,W
0300C:  ADDWF  x95,W
0300E:  MULLW  09
03010:  MOVF   FF3,W
03012:  MOVLB  7
03014:  ADDWF  x03,F
03016:  MOVLW  00
03018:  ADDWFC x04,F
0301A:  MOVFF  704,706
0301E:  MOVFF  703,705
03022:  MOVLB  0
03024:  CALL   1AF4
03028:  MOVFF  701,FEA
0302C:  MOVFF  700,FE9
03030:  MOVFF  702,FEC
03034:  MOVF   FED,F
03036:  MOVFF  01,FEF
....................       if(PpcCiclos[i]>500) 
0303A:  BCF    FD8.0
0303C:  MOVLB  3
0303E:  RLCF   x52,W
03040:  CLRF   03
03042:  ADDLW  E2
03044:  MOVWF  FE9
03046:  MOVLW  03
03048:  ADDWFC 03,W
0304A:  MOVWF  FEA
0304C:  MOVFF  FEC,701
03050:  MOVF   FED,F
03052:  MOVFF  FEF,700
03056:  MOVLB  7
03058:  MOVF   x01,W
0305A:  SUBLW  00
0305C:  BC    3082
0305E:  XORLW  FF
03060:  BNZ   3068
03062:  MOVF   x00,W
03064:  SUBLW  F4
03066:  BC    3082
....................          PpcCiclos[i]=0; 
03068:  BCF    FD8.0
0306A:  MOVLB  3
0306C:  RLCF   x52,W
0306E:  CLRF   03
03070:  ADDLW  E2
03072:  MOVWF  FE9
03074:  MOVLW  03
03076:  ADDWFC 03,W
03078:  MOVWF  FEA
0307A:  CLRF   FEC
0307C:  MOVF   FED,F
0307E:  CLRF   FEF
03080:  MOVLB  7
....................       ACiclos[i]=read_ext_eeprom((cicloVisto*320)+13+((cicloVisualizado+i)*9)); 
03082:  CLRF   03
03084:  MOVLB  3
03086:  MOVF   x52,W
03088:  ADDLW  FE
0308A:  MOVWF  01
0308C:  MOVLW  03
0308E:  ADDWFC 03,F
03090:  MOVFF  01,700
03094:  MOVLB  7
03096:  MOVFF  03,701
0309A:  CLRF   x0B
0309C:  MOVFF  394,70A
030A0:  MOVLW  01
030A2:  MOVWF  x0D
030A4:  MOVLW  40
030A6:  MOVWF  x0C
030A8:  MOVLB  0
030AA:  CALL   19F0
030AE:  MOVFF  02,703
030B2:  MOVFF  01,702
030B6:  MOVLW  0D
030B8:  MOVLB  7
030BA:  ADDWF  x02,F
030BC:  MOVLW  00
030BE:  ADDWFC x03,F
030C0:  MOVLB  3
030C2:  MOVF   x52,W
030C4:  ADDWF  x95,W
030C6:  MULLW  09
030C8:  MOVF   FF3,W
030CA:  MOVLB  7
030CC:  ADDWF  x02,F
030CE:  MOVLW  00
030D0:  ADDWFC x03,F
030D2:  MOVFF  703,706
030D6:  MOVFF  702,705
030DA:  MOVLB  0
030DC:  CALL   1AF4
030E0:  MOVFF  701,FEA
030E4:  MOVFF  700,FE9
030E8:  MOVFF  01,FEF
....................       if(ACiclos[i]>30) 
030EC:  CLRF   03
030EE:  MOVLB  3
030F0:  MOVF   x52,W
030F2:  ADDLW  FE
030F4:  MOVWF  FE9
030F6:  MOVLW  03
030F8:  ADDWFC 03,W
030FA:  MOVWF  FEA
030FC:  MOVF   FEF,W
030FE:  SUBLW  1E
03100:  BC    3112
....................          ACiclos[i]=0; 
03102:  CLRF   03
03104:  MOVF   x52,W
03106:  ADDLW  FE
03108:  MOVWF  FE9
0310A:  MOVLW  03
0310C:  ADDWFC 03,W
0310E:  MOVWF  FEA
03110:  CLRF   FEF
....................    } 
03112:  INCF   x52,F
03114:  BRA    2BC6
.................... } 
03116:  MOVLB  0
03118:  GOTO   83C2 (RETURN)
....................  
.................... void LimitaValores(){ 
....................    if(Password[0]>9 || Password[0]<0){ 
*
03252:  MOVLB  3
03254:  BTFSC  x7A.7
03256:  BRA    325E
03258:  MOVF   x7A,W
0325A:  SUBLW  09
0325C:  BNC   3264
0325E:  BTFSC  x7A.7
03260:  BRA    3264
03262:  BRA    32A0
....................       Password[0]=0; 
03264:  CLRF   x7A
....................       write_eeprom(10,0); 
03266:  CLRF   FAA
03268:  MOVLW  0A
0326A:  MOVWF  FA9
0326C:  CLRF   FA8
0326E:  BCF    FA6.6
03270:  BCF    FA6.7
03272:  BSF    FA6.2
03274:  MOVF   FF2,W
03276:  MOVWF  00
03278:  BCF    FF2.6
0327A:  BCF    FF2.7
0327C:  MOVLB  F
0327E:  MOVLW  55
03280:  MOVWF  FA7
03282:  MOVLW  AA
03284:  MOVWF  FA7
03286:  BSF    FA6.1
03288:  BTFSC  FA6.1
0328A:  BRA    3288
0328C:  BCF    FA6.2
0328E:  MOVF   00,W
03290:  IORWF  FF2,F
....................       delay_ms(10); 
03292:  MOVLW  0A
03294:  MOVLB  7
03296:  MOVWF  x10
03298:  MOVLB  0
0329A:  CALL   1992
0329E:  MOVLB  3
....................    } 
....................    if(Password[1]>9 || Password[1]<0){ 
032A0:  BTFSC  x7B.7
032A2:  BRA    32AA
032A4:  MOVF   x7B,W
032A6:  SUBLW  09
032A8:  BNC   32B0
032AA:  BTFSC  x7B.7
032AC:  BRA    32B0
032AE:  BRA    32EC
....................       Password[1]=0; 
032B0:  CLRF   x7B
....................       write_eeprom(11,0); 
032B2:  CLRF   FAA
032B4:  MOVLW  0B
032B6:  MOVWF  FA9
032B8:  CLRF   FA8
032BA:  BCF    FA6.6
032BC:  BCF    FA6.7
032BE:  BSF    FA6.2
032C0:  MOVF   FF2,W
032C2:  MOVWF  00
032C4:  BCF    FF2.6
032C6:  BCF    FF2.7
032C8:  MOVLB  F
032CA:  MOVLW  55
032CC:  MOVWF  FA7
032CE:  MOVLW  AA
032D0:  MOVWF  FA7
032D2:  BSF    FA6.1
032D4:  BTFSC  FA6.1
032D6:  BRA    32D4
032D8:  BCF    FA6.2
032DA:  MOVF   00,W
032DC:  IORWF  FF2,F
....................       delay_ms(10); 
032DE:  MOVLW  0A
032E0:  MOVLB  7
032E2:  MOVWF  x10
032E4:  MOVLB  0
032E6:  CALL   1992
032EA:  MOVLB  3
....................    } 
....................    if(Password[2]>9 || Password[2]<0){ 
032EC:  BTFSC  x7C.7
032EE:  BRA    32F6
032F0:  MOVF   x7C,W
032F2:  SUBLW  09
032F4:  BNC   32FC
032F6:  BTFSC  x7C.7
032F8:  BRA    32FC
032FA:  BRA    3338
....................       Password[2]=0; 
032FC:  CLRF   x7C
....................       write_eeprom(12,0); 
032FE:  CLRF   FAA
03300:  MOVLW  0C
03302:  MOVWF  FA9
03304:  CLRF   FA8
03306:  BCF    FA6.6
03308:  BCF    FA6.7
0330A:  BSF    FA6.2
0330C:  MOVF   FF2,W
0330E:  MOVWF  00
03310:  BCF    FF2.6
03312:  BCF    FF2.7
03314:  MOVLB  F
03316:  MOVLW  55
03318:  MOVWF  FA7
0331A:  MOVLW  AA
0331C:  MOVWF  FA7
0331E:  BSF    FA6.1
03320:  BTFSC  FA6.1
03322:  BRA    3320
03324:  BCF    FA6.2
03326:  MOVF   00,W
03328:  IORWF  FF2,F
....................       delay_ms(10); 
0332A:  MOVLW  0A
0332C:  MOVLB  7
0332E:  MOVWF  x10
03330:  MOVLB  0
03332:  CALL   1992
03336:  MOVLB  3
....................    } 
....................    if(Password[3]>9 || Password[3]<0){ 
03338:  BTFSC  x7D.7
0333A:  BRA    3342
0333C:  MOVF   x7D,W
0333E:  SUBLW  09
03340:  BNC   3348
03342:  BTFSC  x7D.7
03344:  BRA    3348
03346:  BRA    3382
....................       Password[3]=0; 
03348:  CLRF   x7D
....................       write_eeprom(13,0); 
0334A:  CLRF   FAA
0334C:  MOVLW  0D
0334E:  MOVWF  FA9
03350:  CLRF   FA8
03352:  BCF    FA6.6
03354:  BCF    FA6.7
03356:  BSF    FA6.2
03358:  MOVF   FF2,W
0335A:  MOVWF  00
0335C:  BCF    FF2.6
0335E:  BCF    FF2.7
03360:  MOVLB  F
03362:  MOVLW  55
03364:  MOVWF  FA7
03366:  MOVLW  AA
03368:  MOVWF  FA7
0336A:  BSF    FA6.1
0336C:  BTFSC  FA6.1
0336E:  BRA    336C
03370:  BCF    FA6.2
03372:  MOVF   00,W
03374:  IORWF  FF2,F
....................       delay_ms(10); 
03376:  MOVLW  0A
03378:  MOVLB  7
0337A:  MOVWF  x10
0337C:  MOVLB  0
0337E:  CALL   1992
....................    } 
....................    if(Ganancia>20.0){ 
03382:  MOVLB  7
03384:  CLRF   x0B
03386:  CLRF   x0A
03388:  MOVLW  20
0338A:  MOVWF  x09
0338C:  MOVLW  83
0338E:  MOVWF  x08
03390:  MOVFF  2F9,70F
03394:  MOVFF  2F8,70E
03398:  MOVFF  2F7,70D
0339C:  MOVFF  2F6,70C
033A0:  MOVLB  0
033A2:  CALL   1FB2
033A6:  BNC   33F0
....................       Ganancia=15.0; 
033A8:  MOVLB  2
033AA:  CLRF   xF9
033AC:  CLRF   xF8
033AE:  MOVLW  70
033B0:  MOVWF  xF7
033B2:  MOVLW  82
033B4:  MOVWF  xF6
....................       write_eeprom(20,15); 
033B6:  CLRF   FAA
033B8:  MOVLW  14
033BA:  MOVWF  FA9
033BC:  MOVLW  0F
033BE:  MOVWF  FA8
033C0:  BCF    FA6.6
033C2:  BCF    FA6.7
033C4:  BSF    FA6.2
033C6:  MOVF   FF2,W
033C8:  MOVWF  00
033CA:  BCF    FF2.6
033CC:  BCF    FF2.7
033CE:  MOVLB  F
033D0:  MOVLW  55
033D2:  MOVWF  FA7
033D4:  MOVLW  AA
033D6:  MOVWF  FA7
033D8:  BSF    FA6.1
033DA:  BTFSC  FA6.1
033DC:  BRA    33DA
033DE:  BCF    FA6.2
033E0:  MOVF   00,W
033E2:  IORWF  FF2,F
....................       delay_ms(10); 
033E4:  MOVLW  0A
033E6:  MOVLB  7
033E8:  MOVWF  x10
033EA:  MOVLB  0
033EC:  CALL   1992
....................    } 
....................    if(Sensor[0].Ajuste>20){ 
033F0:  MOVLB  4
033F2:  MOVF   x28,W
033F4:  SUBLW  14
033F6:  BC    3434
....................       Sensor[0].Ajuste=0; 
033F8:  CLRF   x28
....................       write_eeprom(21,0); 
033FA:  CLRF   FAA
033FC:  MOVLW  15
033FE:  MOVWF  FA9
03400:  CLRF   FA8
03402:  BCF    FA6.6
03404:  BCF    FA6.7
03406:  BSF    FA6.2
03408:  MOVF   FF2,W
0340A:  MOVWF  00
0340C:  BCF    FF2.6
0340E:  BCF    FF2.7
03410:  MOVLB  F
03412:  MOVLW  55
03414:  MOVWF  FA7
03416:  MOVLW  AA
03418:  MOVWF  FA7
0341A:  BSF    FA6.1
0341C:  BTFSC  FA6.1
0341E:  BRA    341C
03420:  BCF    FA6.2
03422:  MOVF   00,W
03424:  IORWF  FF2,F
....................       delay_ms(10); 
03426:  MOVLW  0A
03428:  MOVLB  7
0342A:  MOVWF  x10
0342C:  MOVLB  0
0342E:  CALL   1992
03432:  MOVLB  4
....................    } 
....................    if(Sensor[0].Ajusten>20){ 
03434:  MOVF   x29,W
03436:  SUBLW  14
03438:  BC    3474
....................       Sensor[0].Ajusten=0; 
0343A:  CLRF   x29
....................       write_eeprom(22,0); 
0343C:  CLRF   FAA
0343E:  MOVLW  16
03440:  MOVWF  FA9
03442:  CLRF   FA8
03444:  BCF    FA6.6
03446:  BCF    FA6.7
03448:  BSF    FA6.2
0344A:  MOVF   FF2,W
0344C:  MOVWF  00
0344E:  BCF    FF2.6
03450:  BCF    FF2.7
03452:  MOVLB  F
03454:  MOVLW  55
03456:  MOVWF  FA7
03458:  MOVLW  AA
0345A:  MOVWF  FA7
0345C:  BSF    FA6.1
0345E:  BTFSC  FA6.1
03460:  BRA    345E
03462:  BCF    FA6.2
03464:  MOVF   00,W
03466:  IORWF  FF2,F
....................       delay_ms(10); 
03468:  MOVLW  0A
0346A:  MOVLB  7
0346C:  MOVWF  x10
0346E:  MOVLB  0
03470:  CALL   1992
....................    } 
....................    if(Sensor[1].Ajuste>20){ 
03474:  MOVLB  5
03476:  MOVF   x8C,W
03478:  SUBLW  14
0347A:  BC    34B8
....................       Sensor[1].Ajuste=0; 
0347C:  CLRF   x8C
....................       write_eeprom(23,0); 
0347E:  CLRF   FAA
03480:  MOVLW  17
03482:  MOVWF  FA9
03484:  CLRF   FA8
03486:  BCF    FA6.6
03488:  BCF    FA6.7
0348A:  BSF    FA6.2
0348C:  MOVF   FF2,W
0348E:  MOVWF  00
03490:  BCF    FF2.6
03492:  BCF    FF2.7
03494:  MOVLB  F
03496:  MOVLW  55
03498:  MOVWF  FA7
0349A:  MOVLW  AA
0349C:  MOVWF  FA7
0349E:  BSF    FA6.1
034A0:  BTFSC  FA6.1
034A2:  BRA    34A0
034A4:  BCF    FA6.2
034A6:  MOVF   00,W
034A8:  IORWF  FF2,F
....................       delay_ms(10); 
034AA:  MOVLW  0A
034AC:  MOVLB  7
034AE:  MOVWF  x10
034B0:  MOVLB  0
034B2:  CALL   1992
034B6:  MOVLB  5
....................    } 
....................    if(Sensor[1].Ajusten>20){ 
034B8:  MOVF   x8D,W
034BA:  SUBLW  14
034BC:  BC    34F8
....................       Sensor[1].Ajusten=0; 
034BE:  CLRF   x8D
....................       write_eeprom(24,0); 
034C0:  CLRF   FAA
034C2:  MOVLW  18
034C4:  MOVWF  FA9
034C6:  CLRF   FA8
034C8:  BCF    FA6.6
034CA:  BCF    FA6.7
034CC:  BSF    FA6.2
034CE:  MOVF   FF2,W
034D0:  MOVWF  00
034D2:  BCF    FF2.6
034D4:  BCF    FF2.7
034D6:  MOVLB  F
034D8:  MOVLW  55
034DA:  MOVWF  FA7
034DC:  MOVLW  AA
034DE:  MOVWF  FA7
034E0:  BSF    FA6.1
034E2:  BTFSC  FA6.1
034E4:  BRA    34E2
034E6:  BCF    FA6.2
034E8:  MOVF   00,W
034EA:  IORWF  FF2,F
....................       delay_ms(10); 
034EC:  MOVLW  0A
034EE:  MOVLB  7
034F0:  MOVWF  x10
034F2:  MOVLB  0
034F4:  CALL   1992
....................    } 
....................    if(MediaMovil>80){ 
034F8:  MOVLB  2
034FA:  MOVF   xCF,W
034FC:  SUBLW  50
034FE:  BC    353E
....................       MediaMovil=40; 
03500:  MOVLW  28
03502:  MOVWF  xCF
....................       write_eeprom(25,40); 
03504:  CLRF   FAA
03506:  MOVLW  19
03508:  MOVWF  FA9
0350A:  MOVLW  28
0350C:  MOVWF  FA8
0350E:  BCF    FA6.6
03510:  BCF    FA6.7
03512:  BSF    FA6.2
03514:  MOVF   FF2,W
03516:  MOVWF  00
03518:  BCF    FF2.6
0351A:  BCF    FF2.7
0351C:  MOVLB  F
0351E:  MOVLW  55
03520:  MOVWF  FA7
03522:  MOVLW  AA
03524:  MOVWF  FA7
03526:  BSF    FA6.1
03528:  BTFSC  FA6.1
0352A:  BRA    3528
0352C:  BCF    FA6.2
0352E:  MOVF   00,W
03530:  IORWF  FF2,F
....................       delay_ms(10); 
03532:  MOVLW  0A
03534:  MOVLB  7
03536:  MOVWF  x10
03538:  MOVLB  0
0353A:  CALL   1992
....................    } 
....................    if(Tciclo>10){ 
0353E:  MOVLB  7
03540:  CLRF   x0B
03542:  CLRF   x0A
03544:  MOVLW  20
03546:  MOVWF  x09
03548:  MOVLW  82
0354A:  MOVWF  x08
0354C:  MOVFF  2E1,70F
03550:  MOVFF  2E0,70E
03554:  MOVFF  2DF,70D
03558:  MOVFF  2DE,70C
0355C:  MOVLB  0
0355E:  CALL   1FB2
03562:  BNC   35AC
....................       Tciclo=10; 
03564:  MOVLB  2
03566:  CLRF   xE1
03568:  CLRF   xE0
0356A:  MOVLW  20
0356C:  MOVWF  xDF
0356E:  MOVLW  82
03570:  MOVWF  xDE
....................       write_eeprom(26,10); 
03572:  CLRF   FAA
03574:  MOVLW  1A
03576:  MOVWF  FA9
03578:  MOVLW  0A
0357A:  MOVWF  FA8
0357C:  BCF    FA6.6
0357E:  BCF    FA6.7
03580:  BSF    FA6.2
03582:  MOVF   FF2,W
03584:  MOVWF  00
03586:  BCF    FF2.6
03588:  BCF    FF2.7
0358A:  MOVLB  F
0358C:  MOVLW  55
0358E:  MOVWF  FA7
03590:  MOVLW  AA
03592:  MOVWF  FA7
03594:  BSF    FA6.1
03596:  BTFSC  FA6.1
03598:  BRA    3596
0359A:  BCF    FA6.2
0359C:  MOVF   00,W
0359E:  IORWF  FF2,F
....................       delay_ms(10); 
035A0:  MOVLW  0A
035A2:  MOVLB  7
035A4:  MOVWF  x10
035A6:  MOVLB  0
035A8:  CALL   1992
....................    } 
....................    if(Sensor[1].RPT100>2.0){ 
035AC:  MOVLB  7
035AE:  CLRF   x0B
035B0:  CLRF   x0A
035B2:  CLRF   x09
035B4:  MOVLW  80
035B6:  MOVWF  x08
035B8:  MOVFF  581,70F
035BC:  MOVFF  580,70E
035C0:  MOVFF  57F,70D
035C4:  MOVFF  57E,70C
035C8:  MOVLB  0
035CA:  CALL   1FB2
035CE:  BNC   364E
....................       Sensor[1].RPT100=0.5; 
035D0:  MOVLB  5
035D2:  CLRF   x81
035D4:  CLRF   x80
035D6:  CLRF   x7F
035D8:  MOVLW  7E
035DA:  MOVWF  x7E
....................       write_eeprom(30,0); 
035DC:  CLRF   FAA
035DE:  MOVLW  1E
035E0:  MOVWF  FA9
035E2:  CLRF   FA8
035E4:  BCF    FA6.6
035E6:  BCF    FA6.7
035E8:  BSF    FA6.2
035EA:  MOVF   FF2,W
035EC:  MOVWF  00
035EE:  BCF    FF2.6
035F0:  BCF    FF2.7
035F2:  MOVLB  F
035F4:  MOVLW  55
035F6:  MOVWF  FA7
035F8:  MOVLW  AA
035FA:  MOVWF  FA7
035FC:  BSF    FA6.1
035FE:  BTFSC  FA6.1
03600:  BRA    35FE
03602:  BCF    FA6.2
03604:  MOVF   00,W
03606:  IORWF  FF2,F
....................       delay_ms(10); 
03608:  MOVLW  0A
0360A:  MOVLB  7
0360C:  MOVWF  x10
0360E:  MOVLB  0
03610:  CALL   1992
....................       write_eeprom(29,5); 
03614:  CLRF   FAA
03616:  MOVLW  1D
03618:  MOVWF  FA9
0361A:  MOVLW  05
0361C:  MOVWF  FA8
0361E:  BCF    FA6.6
03620:  BCF    FA6.7
03622:  BSF    FA6.2
03624:  MOVF   FF2,W
03626:  MOVWF  00
03628:  BCF    FF2.6
0362A:  BCF    FF2.7
0362C:  MOVLB  F
0362E:  MOVLW  55
03630:  MOVWF  FA7
03632:  MOVLW  AA
03634:  MOVWF  FA7
03636:  BSF    FA6.1
03638:  BTFSC  FA6.1
0363A:  BRA    3638
0363C:  BCF    FA6.2
0363E:  MOVF   00,W
03640:  IORWF  FF2,F
....................       delay_ms(10); 
03642:  MOVLW  0A
03644:  MOVLB  7
03646:  MOVWF  x10
03648:  MOVLB  0
0364A:  CALL   1992
....................    } 
....................    if(Atmosferica>100){ 
0364E:  MOVLB  3
03650:  MOVF   x92,W
03652:  SUBLW  64
03654:  BC    3696
....................       Atmosferica=69; 
03656:  MOVLW  45
03658:  MOVWF  x92
....................       write_eeprom(31,69); 
0365A:  CLRF   FAA
0365C:  MOVLW  1F
0365E:  MOVWF  FA9
03660:  MOVLW  45
03662:  MOVWF  FA8
03664:  BCF    FA6.6
03666:  BCF    FA6.7
03668:  BSF    FA6.2
0366A:  MOVF   FF2,W
0366C:  MOVWF  00
0366E:  BCF    FF2.6
03670:  BCF    FF2.7
03672:  MOVLB  F
03674:  MOVLW  55
03676:  MOVWF  FA7
03678:  MOVLW  AA
0367A:  MOVWF  FA7
0367C:  BSF    FA6.1
0367E:  BTFSC  FA6.1
03680:  BRA    367E
03682:  BCF    FA6.2
03684:  MOVF   00,W
03686:  IORWF  FF2,F
....................       delay_ms(10); 
03688:  MOVLW  0A
0368A:  MOVLB  7
0368C:  MOVWF  x10
0368E:  MOVLB  0
03690:  CALL   1992
03694:  MOVLB  3
....................    } 
....................    if(Tapertura>100){ 
03696:  MOVF   x93,W
03698:  SUBLW  64
0369A:  BC    36DC
....................       Tapertura=85; 
0369C:  MOVLW  55
0369E:  MOVWF  x93
....................       write_eeprom(32,85); 
036A0:  CLRF   FAA
036A2:  MOVLW  20
036A4:  MOVWF  FA9
036A6:  MOVLW  55
036A8:  MOVWF  FA8
036AA:  BCF    FA6.6
036AC:  BCF    FA6.7
036AE:  BSF    FA6.2
036B0:  MOVF   FF2,W
036B2:  MOVWF  00
036B4:  BCF    FF2.6
036B6:  BCF    FF2.7
036B8:  MOVLB  F
036BA:  MOVLW  55
036BC:  MOVWF  FA7
036BE:  MOVLW  AA
036C0:  MOVWF  FA7
036C2:  BSF    FA6.1
036C4:  BTFSC  FA6.1
036C6:  BRA    36C4
036C8:  BCF    FA6.2
036CA:  MOVF   00,W
036CC:  IORWF  FF2,F
....................       delay_ms(10); 
036CE:  MOVLW  0A
036D0:  MOVLB  7
036D2:  MOVWF  x10
036D4:  MOVLB  0
036D6:  CALL   1992
036DA:  MOVLB  3
....................    } 
....................    if(Ciclos>60000){ 
036DC:  MOVF   x6D,W
036DE:  SUBLW  E9
036E0:  BC    3760
036E2:  XORLW  FF
036E4:  BNZ   36EC
036E6:  MOVF   x6C,W
036E8:  SUBLW  60
036EA:  BC    3760
....................       Ciclos=0; 
036EC:  CLRF   x6D
036EE:  CLRF   x6C
....................       write_eeprom(37,0); 
036F0:  CLRF   FAA
036F2:  MOVLW  25
036F4:  MOVWF  FA9
036F6:  CLRF   FA8
036F8:  BCF    FA6.6
036FA:  BCF    FA6.7
036FC:  BSF    FA6.2
036FE:  MOVF   FF2,W
03700:  MOVWF  00
03702:  BCF    FF2.6
03704:  BCF    FF2.7
03706:  MOVLB  F
03708:  MOVLW  55
0370A:  MOVWF  FA7
0370C:  MOVLW  AA
0370E:  MOVWF  FA7
03710:  BSF    FA6.1
03712:  BTFSC  FA6.1
03714:  BRA    3712
03716:  BCF    FA6.2
03718:  MOVF   00,W
0371A:  IORWF  FF2,F
....................       delay_ms(10); 
0371C:  MOVLW  0A
0371E:  MOVLB  7
03720:  MOVWF  x10
03722:  MOVLB  0
03724:  CALL   1992
....................       write_eeprom(38,0); 
03728:  CLRF   FAA
0372A:  MOVLW  26
0372C:  MOVWF  FA9
0372E:  CLRF   FA8
03730:  BCF    FA6.6
03732:  BCF    FA6.7
03734:  BSF    FA6.2
03736:  MOVF   FF2,W
03738:  MOVWF  00
0373A:  BCF    FF2.6
0373C:  BCF    FF2.7
0373E:  MOVLB  F
03740:  MOVLW  55
03742:  MOVWF  FA7
03744:  MOVLW  AA
03746:  MOVWF  FA7
03748:  BSF    FA6.1
0374A:  BTFSC  FA6.1
0374C:  BRA    374A
0374E:  BCF    FA6.2
03750:  MOVF   00,W
03752:  IORWF  FF2,F
....................       delay_ms(10); 
03754:  MOVLW  0A
03756:  MOVLB  7
03758:  MOVWF  x10
0375A:  MOVLB  0
0375C:  CALL   1992
....................    } 
....................    if(TTrampa>100){ 
03760:  MOVLB  2
03762:  MOVF   xD0,W
03764:  SUBLW  64
03766:  BC    37A6
....................       TTrampa=80; 
03768:  MOVLW  50
0376A:  MOVWF  xD0
....................       write_eeprom(39,80); 
0376C:  CLRF   FAA
0376E:  MOVLW  27
03770:  MOVWF  FA9
03772:  MOVLW  50
03774:  MOVWF  FA8
03776:  BCF    FA6.6
03778:  BCF    FA6.7
0377A:  BSF    FA6.2
0377C:  MOVF   FF2,W
0377E:  MOVWF  00
03780:  BCF    FF2.6
03782:  BCF    FF2.7
03784:  MOVLB  F
03786:  MOVLW  55
03788:  MOVWF  FA7
0378A:  MOVLW  AA
0378C:  MOVWF  FA7
0378E:  BSF    FA6.1
03790:  BTFSC  FA6.1
03792:  BRA    3790
03794:  BCF    FA6.2
03796:  MOVF   00,W
03798:  IORWF  FF2,F
....................       delay_ms(10); 
0379A:  MOVLW  0A
0379C:  MOVLB  7
0379E:  MOVWF  x10
037A0:  MOVLB  0
037A2:  CALL   1992
....................    } 
....................    if(sg1==10){ 
037A6:  MOVLB  3
037A8:  MOVF   xA4,W
037AA:  SUBLW  0A
037AC:  BNZ   37C2
....................       G1=G1*(-1); 
037AE:  MOVFF  3A2,6FA
037B2:  MOVLW  FF
037B4:  MOVLB  6
037B6:  MOVWF  xFB
037B8:  MOVLB  0
037BA:  RCALL  3204
037BC:  MOVFF  01,3A2
037C0:  MOVLB  3
....................    } 
....................    if(sg2==10){ 
037C2:  MOVF   xA5,W
037C4:  SUBLW  0A
037C6:  BNZ   37DA
....................       G2=G2*(-1); 
037C8:  MOVFF  3A3,6FA
037CC:  MOVLW  FF
037CE:  MOVLB  6
037D0:  MOVWF  xFB
037D2:  MOVLB  0
037D4:  RCALL  3204
037D6:  MOVFF  01,3A3
....................    } 
....................    if(Integral>5.0){ 
037DA:  MOVLB  7
037DC:  CLRF   x13
037DE:  MOVFF  32E,712
037E2:  MOVLB  0
037E4:  CALL   19BA
037E8:  MOVLB  7
037EA:  CLRF   x0B
037EC:  CLRF   x0A
037EE:  MOVLW  20
037F0:  MOVWF  x09
037F2:  MOVLW  81
037F4:  MOVWF  x08
037F6:  MOVFF  03,70F
037FA:  MOVFF  02,70E
037FE:  MOVFF  01,70D
03802:  MOVFF  00,70C
03806:  MOVLB  0
03808:  CALL   1FB2
0380C:  BNC   384E
....................       Integral=1.0; 
0380E:  MOVLW  01
03810:  MOVLB  3
03812:  MOVWF  x2E
....................       write_eeprom(27,1); 
03814:  CLRF   FAA
03816:  MOVLW  1B
03818:  MOVWF  FA9
0381A:  MOVLW  01
0381C:  MOVWF  FA8
0381E:  BCF    FA6.6
03820:  BCF    FA6.7
03822:  BSF    FA6.2
03824:  MOVF   FF2,W
03826:  MOVWF  00
03828:  BCF    FF2.6
0382A:  BCF    FF2.7
0382C:  MOVLB  F
0382E:  MOVLW  55
03830:  MOVWF  FA7
03832:  MOVLW  AA
03834:  MOVWF  FA7
03836:  BSF    FA6.1
03838:  BTFSC  FA6.1
0383A:  BRA    3838
0383C:  BCF    FA6.2
0383E:  MOVF   00,W
03840:  IORWF  FF2,F
....................       delay_ms(10); 
03842:  MOVLW  0A
03844:  MOVLB  7
03846:  MOVWF  x10
03848:  MOVLB  0
0384A:  CALL   1992
....................    } 
....................    if(Derivativo>40.0){ 
0384E:  MOVLB  7
03850:  CLRF   x13
03852:  MOVFF  32F,712
03856:  MOVLB  0
03858:  CALL   19BA
0385C:  MOVLB  7
0385E:  CLRF   x0B
03860:  CLRF   x0A
03862:  MOVLW  20
03864:  MOVWF  x09
03866:  MOVLW  84
03868:  MOVWF  x08
0386A:  MOVFF  03,70F
0386E:  MOVFF  02,70E
03872:  MOVFF  01,70D
03876:  MOVFF  00,70C
0387A:  MOVLB  0
0387C:  CALL   1FB2
03880:  BNC   38C2
....................       Derivativo=15.0; 
03882:  MOVLW  0F
03884:  MOVLB  3
03886:  MOVWF  x2F
....................       write_eeprom(28,15); 
03888:  CLRF   FAA
0388A:  MOVLW  1C
0388C:  MOVWF  FA9
0388E:  MOVLW  0F
03890:  MOVWF  FA8
03892:  BCF    FA6.6
03894:  BCF    FA6.7
03896:  BSF    FA6.2
03898:  MOVF   FF2,W
0389A:  MOVWF  00
0389C:  BCF    FF2.6
0389E:  BCF    FF2.7
038A0:  MOVLB  F
038A2:  MOVLW  55
038A4:  MOVWF  FA7
038A6:  MOVLW  AA
038A8:  MOVWF  FA7
038AA:  BSF    FA6.1
038AC:  BTFSC  FA6.1
038AE:  BRA    38AC
038B0:  BCF    FA6.2
038B2:  MOVF   00,W
038B4:  IORWF  FF2,F
....................       delay_ms(10); 
038B6:  MOVLW  0A
038B8:  MOVLB  7
038BA:  MOVWF  x10
038BC:  MOVLB  0
038BE:  CALL   1992
....................    } 
.................... } 
038C2:  GOTO   83D6 (RETURN)
....................  
.................... void LeeDisplay(void){ 
....................    if(Dato_Exitoso==5){ 
*
047BE:  MOVLB  3
047C0:  MOVF   x4C,W
047C2:  SUBLW  05
047C4:  BTFSS  FD8.2
047C6:  BRA    493C
....................          RX_Buffer[0]=RX_Buffer2[0]; 
047C8:  MOVFF  3B,30
....................          RX_Buffer[1]=RX_Buffer2[1]; 
047CC:  MOVFF  3C,31
....................          RX_Buffer[2]=RX_Buffer2[2]; 
047D0:  MOVFF  3D,32
....................          RX_Buffer[3]=RX_Buffer2[3]; 
047D4:  MOVFF  3E,33
....................          RX_Buffer[4]=RX_Buffer2[4]; 
047D8:  MOVFF  3F,34
....................          RX_Buffer[5]=RX_Buffer2[5]; 
047DC:  MOVFF  40,35
....................          RX_Buffer[6]=RX_Buffer2[6]; 
047E0:  MOVFF  41,36
....................          RX_Buffer[7]=RX_Buffer2[7]; 
047E4:  MOVFF  42,37
....................          RX_Buffer[8]=RX_Buffer2[8]; 
047E8:  MOVFF  43,38
....................          RX_Buffer[9]=RX_Buffer2[9]; 
047EC:  MOVFF  44,39
....................           
....................       if(RX_Buffer[3]==0x01){// Pregunta por la pagina en la que esta el display,01 es Contrasea de Acceso 
047F0:  DECFSZ 33,W
047F2:  BRA    4802
....................          Menu=0; 
047F4:  CLRF   x4F
....................          if(MenuAntt!=Menu) 
047F6:  MOVF   x4F,W
047F8:  SUBWF  x51,W
047FA:  BZ    4800
....................             MenuAntt=Menu; 
047FC:  MOVFF  34F,351
....................       }else if(RX_Buffer[3]==0x02){//02 es Menu Principal con PantallaPriincipal=0, y con PantallaPrincipal=1 es Ciclo Libre 
04800:  BRA    493A
04802:  MOVF   33,W
04804:  SUBLW  02
04806:  BNZ   4818
....................          Menu=1; 
04808:  MOVLW  01
0480A:  MOVWF  x4F
....................          if(MenuAntt!=Menu) 
0480C:  MOVF   x4F,W
0480E:  SUBWF  x51,W
04810:  BZ    4816
....................             MenuAntt=Menu; 
04812:  MOVFF  34F,351
....................       }else if(RX_Buffer[3]==0x03){//03 es Tiempo Esterilizacion 
04816:  BRA    493A
04818:  MOVF   33,W
0481A:  SUBLW  03
0481C:  BNZ   482E
....................          Menu=2; 
0481E:  MOVLW  02
04820:  MOVWF  x4F
....................          if(MenuAntt!=Menu) 
04822:  MOVF   x4F,W
04824:  SUBWF  x51,W
04826:  BZ    482C
....................             MenuAntt=Menu; 
04828:  MOVFF  34F,351
....................       }else if(RX_Buffer[3]==0x04){//04 es Tiempo de Secado 
0482C:  BRA    493A
0482E:  MOVF   33,W
04830:  SUBLW  04
04832:  BNZ   4844
....................          Menu=3; 
04834:  MOVLW  03
04836:  MOVWF  x4F
....................          if(MenuAntt!=Menu) 
04838:  MOVF   x4F,W
0483A:  SUBWF  x51,W
0483C:  BZ    4842
....................             MenuAntt=Menu; 
0483E:  MOVFF  34F,351
....................       }else if(RX_Buffer[3]==0x05){//05 es Temperatura 
04842:  BRA    493A
04844:  MOVF   33,W
04846:  SUBLW  05
04848:  BNZ   485A
....................          Menu=4; 
0484A:  MOVLW  04
0484C:  MOVWF  x4F
....................          if(MenuAntt!=Menu) 
0484E:  MOVF   x4F,W
04850:  SUBWF  x51,W
04852:  BZ    4858
....................             MenuAntt=Menu; 
04854:  MOVFF  34F,351
....................       }else if(RX_Buffer[3]==0x06){//06 es Nivel 
04858:  BRA    493A
0485A:  MOVF   33,W
0485C:  SUBLW  06
0485E:  BNZ   4870
....................          Menu=5; 
04860:  MOVLW  05
04862:  MOVWF  x4F
....................          if(MenuAntt!=Menu) 
04864:  MOVF   x4F,W
04866:  SUBWF  x51,W
04868:  BZ    486E
....................             MenuAntt=Menu; 
0486A:  MOVFF  34F,351
....................       }else if(RX_Buffer[3]==0x07){//07 es Test de Componentes 
0486E:  BRA    493A
04870:  MOVF   33,W
04872:  SUBLW  07
04874:  BNZ   4886
....................          Menu=6; 
04876:  MOVLW  06
04878:  MOVWF  x4F
....................          if(MenuAntt!=Menu) 
0487A:  MOVF   x4F,W
0487C:  SUBWF  x51,W
0487E:  BZ    4884
....................             MenuAntt=Menu; 
04880:  MOVFF  34F,351
....................       }else if(RX_Buffer[3]==0x08){//08 es Fecha y hora 
04884:  BRA    493A
04886:  MOVF   33,W
04888:  SUBLW  08
0488A:  BNZ   489C
....................          Menu=7; 
0488C:  MOVLW  07
0488E:  MOVWF  x4F
....................          if(MenuAntt!=Menu) 
04890:  MOVF   x4F,W
04892:  SUBWF  x51,W
04894:  BZ    489A
....................             MenuAntt=Menu; 
04896:  MOVFF  34F,351
....................       }else if(RX_Buffer[3]==0x09){//09 es Ciclos Personalizados 
0489A:  BRA    493A
0489C:  MOVF   33,W
0489E:  SUBLW  09
048A0:  BNZ   48B2
....................          Menu=8; 
048A2:  MOVLW  08
048A4:  MOVWF  x4F
....................          if(MenuAntt!=Menu) 
048A6:  MOVF   x4F,W
048A8:  SUBWF  x51,W
048AA:  BZ    48B0
....................             MenuAntt=Menu; 
048AC:  MOVFF  34F,351
....................       }else if(RX_Buffer[3]==0x0d){//0d es Ciclos 
048B0:  BRA    493A
048B2:  MOVF   33,W
048B4:  SUBLW  0D
048B6:  BNZ   48C8
....................          Menu=12; 
048B8:  MOVLW  0C
048BA:  MOVWF  x4F
....................          if(MenuAntt!=Menu) 
048BC:  MOVF   x4F,W
048BE:  SUBWF  x51,W
048C0:  BZ    48C6
....................             MenuAntt=Menu; 
048C2:  MOVFF  34F,351
....................       }else if(RX_Buffer[3]==0x0f){//0f es Recibe caracteres de contrasea desde display 
048C6:  BRA    493A
048C8:  MOVF   33,W
048CA:  SUBLW  0F
048CC:  BNZ   48D0
....................           
....................       }else if(RX_Buffer[3]==0x1a){//1a es Menu de Funcionamiento 
048CE:  BRA    493A
048D0:  MOVF   33,W
048D2:  SUBLW  1A
048D4:  BNZ   48E6
....................          Menu=20; 
048D6:  MOVLW  14
048D8:  MOVWF  x4F
....................          if(MenuAntt!=Menu) 
048DA:  MOVF   x4F,W
048DC:  SUBWF  x51,W
048DE:  BZ    48E4
....................             MenuAntt=Menu; 
048E0:  MOVFF  34F,351
....................       }else if(RX_Buffer[3]==0x1b){//1b es Menu de clave correcta 
048E4:  BRA    493A
048E6:  MOVF   33,W
048E8:  SUBLW  1B
048EA:  BNZ   48FC
....................          Menu=15; 
048EC:  MOVLW  0F
048EE:  MOVWF  x4F
....................          if(MenuAntt!=Menu) 
048F0:  MOVF   x4F,W
048F2:  SUBWF  x51,W
048F4:  BZ    48FA
....................             MenuAntt=Menu; 
048F6:  MOVFF  34F,351
....................       }else if(RX_Buffer[3]==0x1c){//1c es Menu de clave incorrecta 
048FA:  BRA    493A
048FC:  MOVF   33,W
048FE:  SUBLW  1C
04900:  BNZ   4912
....................          Menu=16; 
04902:  MOVLW  10
04904:  MOVWF  x4F
....................          if(MenuAntt!=Menu) 
04906:  MOVF   x4F,W
04908:  SUBWF  x51,W
0490A:  BZ    4910
....................             MenuAntt=Menu; 
0490C:  MOVFF  34F,351
....................       }else if(RX_Buffer[3]==0x2c){//2c es Menu de Configuracion de Parametros 
04910:  BRA    493A
04912:  MOVF   33,W
04914:  SUBLW  2C
04916:  BNZ   4928
....................          Menu=100; 
04918:  MOVLW  64
0491A:  MOVWF  x4F
....................          if(MenuAntt!=Menu) 
0491C:  MOVF   x4F,W
0491E:  SUBWF  x51,W
04920:  BZ    4926
....................             MenuAntt=Menu; 
04922:  MOVFF  34F,351
....................       }else if(RX_Buffer[3]==0xcc){//cc es Menu de Bienvenida 
04926:  BRA    493A
04928:  MOVF   33,W
0492A:  SUBLW  CC
0492C:  BNZ   493A
....................          Menu=240; 
0492E:  MOVLW  F0
04930:  MOVWF  x4F
....................          if(MenuAntt!=240) 
04932:  MOVF   x51,W
04934:  SUBLW  F0
04936:  BZ    493A
....................             reset_cpu(); 
04938:  RESET
....................       } 
....................    }else{ 
0493A:  BRA    4948
....................       for(z=0;z<RX_BUFFER_SIZE;z++){ 
0493C:  CLRF   x4E
0493E:  MOVF   x4E,W
04940:  SUBLW  09
04942:  BNC   4948
....................             //Rx_Buffer[z]=0; 
....................             //Rx_Buffer2[z]=0; 
....................          } 
04944:  INCF   x4E,F
04946:  BRA    493E
....................    } 
.................... } 
04948:  MOVLB  0
0494A:  GOTO   85B0 (RETURN)
....................  
.................... void ConfiguraCiclo(int8 segest,minest,segsec,minsec,liquidos,ciclo,temperatura,pulsos,nvacio,fug){ 
....................    sEstp=segest; 
*
05220:  MOVFF  706,B7
....................    mEstp=minest; 
05224:  MOVFF  707,B8
....................    sSecp=segsec; 
05228:  MOVFF  708,B9
....................    mSecp=minsec; 
0522C:  MOVFF  709,BA
....................    Setpoint=temperatura;                
05230:  MOVFF  70C,356
....................    tiempo_secado=0; 
05234:  MOVLB  3
05236:  CLRF   x5A
....................    desfoguelento=liquidos; 
05238:  MOVLB  0
0523A:  BCF    xA4.2
0523C:  MOVLB  7
0523E:  BTFSS  x0A.0
05240:  BRA    5248
05242:  MOVLB  0
05244:  BSF    xA4.2
05246:  MOVLB  7
....................    CicloSeleccionado=ciclo; 
05248:  MOVFF  70B,355
....................    sEst=sEstp; 
0524C:  MOVFF  B7,B3
....................    mEst=mEstp; 
05250:  MOVFF  B8,B4
....................    sSec=sSecp; 
05254:  MOVFF  B9,B5
....................    mSec=mSecp; 
05258:  MOVFF  BA,B6
....................    //CantidadPulsos=pulsos; 
....................    //NivelVacio=nvacio; 
....................    //Fugas=fug; 
....................    //TiempoVacio=CantidadPulsos*180; 
....................    Imprime=15; 
0525C:  MOVLW  0F
0525E:  MOVLB  3
05260:  MOVWF  xA1
....................    Envio_Esclavos(); 
05262:  MOVLB  0
05264:  RCALL  4A94
....................    delay_ms(100); 
05266:  MOVLW  64
05268:  MOVLB  7
0526A:  MOVWF  x10
0526C:  MOVLB  0
0526E:  CALL   1992
....................    Imprime=10; 
05272:  MOVLW  0A
05274:  MOVLB  3
05276:  MOVWF  xA1
.................... } 
05278:  MOVLB  0
0527A:  RETLW  00
....................  
.................... void ActivaAlarma(int8 Tipo){ 
....................     
....................    if(tsilencio>12000){ 
*
04D82:  MOVLB  3
04D84:  MOVF   x8A,W
04D86:  SUBLW  2D
04D88:  BC    4D9C
04D8A:  XORLW  FF
04D8C:  BNZ   4D94
04D8E:  MOVF   x89,W
04D90:  SUBLW  E0
04D92:  BC    4D9C
....................       tsilencio=0; 
04D94:  CLRF   x8A
04D96:  CLRF   x89
....................       flagSilencio=OFF; 
04D98:  MOVLB  0
04D9A:  BCF    xA3.0
....................    } 
....................     
....................    if(Tipo==1){ // Alarma por Error 
04D9C:  MOVLB  6
04D9E:  DECFSZ xFA,W
04DA0:  BRA    4DF8
....................    if(UP || DOWN || RIGHT || LEFT) 
04DA2:  BSF    F93.0
04DA4:  BTFSS  F81.0
04DA6:  BRA    4DBA
04DA8:  BSF    F93.1
04DAA:  BTFSS  F81.1
04DAC:  BRA    4DBA
04DAE:  BSF    F93.2
04DB0:  BTFSS  F81.2
04DB2:  BRA    4DBA
04DB4:  BSF    F93.3
04DB6:  BTFSC  F81.3
04DB8:  BRA    4DBE
....................       flagSilencio=ON; 
04DBA:  MOVLB  0
04DBC:  BSF    xA3.0
....................        
....................       if(!flagSilencio){ 
04DBE:  MOVLB  0
04DC0:  BTFSC  xA3.0
04DC2:  BRA    4DEE
....................          flagAlarma=1; 
04DC4:  BSF    xA2.4
....................          if(tbuzzer>200){ 
04DC6:  MOVLB  3
04DC8:  MOVF   x88,F
04DCA:  BNZ   4DD2
04DCC:  MOVF   x87,W
04DCE:  SUBLW  C8
04DD0:  BC    4DEA
....................             tbuzzer=0; 
04DD2:  CLRF   x88
04DD4:  CLRF   x87
....................             flagBuzzer=!flagBuzzer; 
04DD6:  MOVLB  0
04DD8:  BTG    xA2.7
....................             if(flagBuzzer) 
04DDA:  BTFSS  xA2.7
04DDC:  BRA    4DE4
....................                Buzzer_on; 
04DDE:  BSF    F8C.7
04DE0:  BCF    F95.7
....................             else 
04DE2:  BRA    4DE8
....................                Buzzer_off; 
04DE4:  BCF    F8C.7
04DE6:  BCF    F95.7
04DE8:  MOVLB  3
....................          } 
....................       }else{ 
04DEA:  BRA    4DF4
04DEC:  MOVLB  0
....................          Buzzer_off; 
04DEE:  BCF    F8C.7
04DF0:  BCF    F95.7
04DF2:  MOVLB  3
....................       } 
....................    }else if(Tipo==2){ 
04DF4:  BRA    4E52
04DF6:  MOVLB  6
04DF8:  MOVF   xFA,W
04DFA:  SUBLW  02
04DFC:  BNZ   4E54
....................    if(UP || DOWN || RIGHT || LEFT) 
04DFE:  BSF    F93.0
04E00:  BTFSS  F81.0
04E02:  BRA    4E16
04E04:  BSF    F93.1
04E06:  BTFSS  F81.1
04E08:  BRA    4E16
04E0A:  BSF    F93.2
04E0C:  BTFSS  F81.2
04E0E:  BRA    4E16
04E10:  BSF    F93.3
04E12:  BTFSC  F81.3
04E14:  BRA    4E1C
....................       ConteoBuzzer=21; 
04E16:  MOVLW  15
04E18:  MOVLB  3
04E1A:  MOVWF  x84
....................        
....................       flagAlarma=1; 
04E1C:  MOVLB  0
04E1E:  BSF    xA2.4
....................       if(ConteoBuzzer<20){    
04E20:  MOVLB  3
04E22:  MOVF   x84,W
04E24:  SUBLW  13
04E26:  BNC   4E4E
....................          if(tbuzzer>100){ 
04E28:  MOVF   x88,F
04E2A:  BNZ   4E32
04E2C:  MOVF   x87,W
04E2E:  SUBLW  64
04E30:  BC    4E4C
....................             tbuzzer=0; 
04E32:  CLRF   x88
04E34:  CLRF   x87
....................             flagBuzzer=!flagBuzzer; 
04E36:  MOVLB  0
04E38:  BTG    xA2.7
....................             if(flagBuzzer) 
04E3A:  BTFSS  xA2.7
04E3C:  BRA    4E44
....................                Buzzer_on; 
04E3E:  BSF    F8C.7
04E40:  BCF    F95.7
....................             else 
04E42:  BRA    4E48
....................                Buzzer_off; 
04E44:  BCF    F8C.7
04E46:  BCF    F95.7
....................                 
....................             ConteoBuzzer++;    
04E48:  MOVLB  3
04E4A:  INCF   x84,F
....................          } 
....................       }else{ 
04E4C:  BRA    4E52
....................          Buzzer_off; 
04E4E:  BCF    F8C.7
04E50:  BCF    F95.7
04E52:  MOVLB  6
....................       } 
....................    } 
.................... } 
04E54:  MOVLB  0
04E56:  RETLW  00
....................  
.................... void CalientaChaqueta(){ 
....................    if(PresionPrecamara<130){ 
....................       SSR_on; 
....................    }else if(PresionPreCamara>150){ 
....................       SSR_off; 
....................    } 
.................... } 
....................  
.................... void ApagaSalidas(){ 
....................    Desfogue_off; 
*
0392E:  BSF    F8B.1
03930:  BCF    F94.1
....................    Agua_off; 
03932:  BSF    F8B.0
03934:  BCF    F94.0
....................    Aire_off; 
03936:  BSF    F8C.0
03938:  BCF    F95.0
....................    AireEnf_off; 
0393A:  BSF    F8B.2
0393C:  BCF    F94.2
....................    Buzzer_off; 
0393E:  BCF    F8C.7
03940:  BCF    F95.7
....................    SSR_off; 
03942:  BCF    F8D.1
03944:  BCF    F96.1
....................    Agua_off; 
03946:  BSF    F8B.0
03948:  BCF    F94.0
....................    SSR2_off; 
0394A:  BCF    F8D.2
0394C:  BCF    F96.2
....................    Controlando=0; 
0394E:  MOVLB  3
03950:  CLRF   x48
.................... } 
03952:  MOVLB  0
03954:  RETLW  00
....................  
.................... void purgaAire(){ 
....................    if(!purga){ 
....................       for(i=0;i<4;i++){ 
....................          Desfogue_on; 
....................          delay_ms(2000); 
....................          Desfogue_off; 
....................          delay_ms(1000); 
....................       } 
....................       purga=ON; 
....................    } 
.................... } 
....................  
....................  
.................... void GuardaDatoEstatico(){ 
*
06630:  MOVLB  6
06632:  CLRF   xFB
06634:  CLRF   xFA
06636:  CLRF   xFD
06638:  CLRF   xFC
....................    int16 posCiclo=0,cicloMemoria=0; 
....................    posCiclo=Ciclos/200; 
0663A:  MOVFF  36D,705
0663E:  MOVFF  36C,704
06642:  MOVLB  7
06644:  CLRF   x07
06646:  MOVLW  C8
06648:  MOVWF  x06
0664A:  MOVLB  0
0664C:  CALL   5326
06650:  MOVFF  02,6FB
06654:  MOVFF  01,6FA
....................    cicloMemoria=Ciclos-(posCiclo*200); 
06658:  MOVFF  6FB,70B
0665C:  MOVFF  6FA,70A
06660:  MOVLB  7
06662:  CLRF   x0D
06664:  MOVLW  C8
06666:  MOVWF  x0C
06668:  MOVLB  0
0666A:  CALL   19F0
0666E:  MOVF   01,W
06670:  MOVLB  3
06672:  SUBWF  x6C,W
06674:  MOVLB  6
06676:  MOVWF  xFC
06678:  MOVF   02,W
0667A:  MOVLB  3
0667C:  SUBWFB x6D,W
0667E:  MOVLB  6
06680:  MOVWF  xFD
....................    if(!disp_Guarda){ 
06682:  MOVLB  0
06684:  BTFSC  xA4.0
06686:  BRA    6828
....................       write_ext_eeprom(cicloMemoria*320,1); 
06688:  MOVFF  6FD,70B
0668C:  MOVFF  6FC,70A
06690:  MOVLW  01
06692:  MOVLB  7
06694:  MOVWF  x0D
06696:  MOVLW  40
06698:  MOVWF  x0C
0669A:  MOVLB  0
0669C:  CALL   19F0
066A0:  MOVFF  02,6FF
066A4:  MOVFF  01,6FE
066A8:  MOVFF  02,708
066AC:  MOVFF  01,707
066B0:  MOVLW  01
066B2:  MOVLB  7
066B4:  MOVWF  x09
066B6:  MOVLB  0
066B8:  RCALL  651E
....................       delay_ms(10); 
066BA:  MOVLW  0A
066BC:  MOVLB  7
066BE:  MOVWF  x10
066C0:  MOVLB  0
066C2:  CALL   1992
....................       if(!Libre) 
066C6:  BTFSC  xA3.3
066C8:  BRA    6706
....................          write_ext_eeprom(1+(cicloMemoria*320),CicloSeleccionado); 
066CA:  MOVFF  6FD,70B
066CE:  MOVFF  6FC,70A
066D2:  MOVLW  01
066D4:  MOVLB  7
066D6:  MOVWF  x0D
066D8:  MOVLW  40
066DA:  MOVWF  x0C
066DC:  MOVLB  0
066DE:  CALL   19F0
066E2:  MOVFF  02,03
066E6:  MOVF   01,W
066E8:  ADDLW  01
066EA:  MOVLB  6
066EC:  MOVWF  xFE
066EE:  MOVLW  00
066F0:  ADDWFC 02,W
066F2:  MOVWF  xFF
066F4:  MOVFF  FE8,708
066F8:  MOVFF  6FE,707
066FC:  MOVFF  355,709
06700:  MOVLB  0
06702:  RCALL  651E
....................       else 
06704:  BRA    6748
....................          write_ext_eeprom(1+(cicloMemoria*320),CicloLibre+10); 
06706:  MOVFF  6FD,70B
0670A:  MOVFF  6FC,70A
0670E:  MOVLW  01
06710:  MOVLB  7
06712:  MOVWF  x0D
06714:  MOVLW  40
06716:  MOVWF  x0C
06718:  MOVLB  0
0671A:  CALL   19F0
0671E:  MOVFF  02,03
06722:  MOVF   01,W
06724:  ADDLW  01
06726:  MOVLB  6
06728:  MOVWF  xFE
0672A:  MOVLW  00
0672C:  ADDWFC 02,W
0672E:  MOVWF  xFF
06730:  MOVLW  0A
06732:  MOVLB  3
06734:  ADDWF  x30,W
06736:  MOVLB  7
06738:  MOVWF  x00
0673A:  MOVFF  6FF,708
0673E:  MOVFF  6FE,707
06742:  MOVWF  x09
06744:  MOVLB  0
06746:  RCALL  651E
....................       delay_ms(10); 
06748:  MOVLW  0A
0674A:  MOVLB  7
0674C:  MOVWF  x10
0674E:  MOVLB  0
06750:  CALL   1992
....................       write_ext_eeprom(2+(cicloMemoria*320),Dia); 
06754:  MOVFF  6FD,70B
06758:  MOVFF  6FC,70A
0675C:  MOVLW  01
0675E:  MOVLB  7
06760:  MOVWF  x0D
06762:  MOVLW  40
06764:  MOVWF  x0C
06766:  MOVLB  0
06768:  CALL   19F0
0676C:  MOVFF  02,03
06770:  MOVF   01,W
06772:  ADDLW  02
06774:  MOVLB  6
06776:  MOVWF  xFE
06778:  MOVLW  00
0677A:  ADDWFC 02,W
0677C:  MOVWF  xFF
0677E:  MOVFF  FE8,708
06782:  MOVFF  6FE,707
06786:  MOVFF  38D,709
0678A:  MOVLB  0
0678C:  RCALL  651E
....................       delay_ms(10); 
0678E:  MOVLW  0A
06790:  MOVLB  7
06792:  MOVWF  x10
06794:  MOVLB  0
06796:  CALL   1992
....................       write_ext_eeprom(3+(cicloMemoria*320),Mes); 
0679A:  MOVFF  6FD,70B
0679E:  MOVFF  6FC,70A
067A2:  MOVLW  01
067A4:  MOVLB  7
067A6:  MOVWF  x0D
067A8:  MOVLW  40
067AA:  MOVWF  x0C
067AC:  MOVLB  0
067AE:  CALL   19F0
067B2:  MOVFF  02,03
067B6:  MOVF   01,W
067B8:  ADDLW  03
067BA:  MOVLB  6
067BC:  MOVWF  xFE
067BE:  MOVLW  00
067C0:  ADDWFC 02,W
067C2:  MOVWF  xFF
067C4:  MOVFF  FE8,708
067C8:  MOVFF  6FE,707
067CC:  MOVFF  38C,709
067D0:  MOVLB  0
067D2:  RCALL  651E
....................       delay_ms(10); 
067D4:  MOVLW  0A
067D6:  MOVLB  7
067D8:  MOVWF  x10
067DA:  MOVLB  0
067DC:  CALL   1992
....................       write_ext_eeprom(4+(cicloMemoria*320),Year); 
067E0:  MOVFF  6FD,70B
067E4:  MOVFF  6FC,70A
067E8:  MOVLW  01
067EA:  MOVLB  7
067EC:  MOVWF  x0D
067EE:  MOVLW  40
067F0:  MOVWF  x0C
067F2:  MOVLB  0
067F4:  CALL   19F0
067F8:  MOVFF  02,03
067FC:  MOVF   01,W
067FE:  ADDLW  04
06800:  MOVLB  6
06802:  MOVWF  xFE
06804:  MOVLW  00
06806:  ADDWFC 02,W
06808:  MOVWF  xFF
0680A:  MOVFF  FE8,708
0680E:  MOVFF  6FE,707
06812:  MOVFF  38B,709
06816:  MOVLB  0
06818:  RCALL  651E
....................       delay_ms(10);  
0681A:  MOVLW  0A
0681C:  MOVLB  7
0681E:  MOVWF  x10
06820:  MOVLB  0
06822:  CALL   1992
....................       disp_Guarda=1; 
06826:  BSF    xA4.0
....................    }    
.................... } 
06828:  GOTO   C218 (RETURN)
....................  
.................... void GuardaDatoCiclo(){ 
*
068F6:  MOVLB  6
068F8:  CLRF   xFB
068FA:  CLRF   xFA
068FC:  CLRF   xFD
068FE:  CLRF   xFC
....................    int16 posCiclo=0,cicloMemoria=0; 
....................    posCiclo=Ciclos/200; 
06900:  MOVFF  36D,705
06904:  MOVFF  36C,704
06908:  MOVLB  7
0690A:  CLRF   x07
0690C:  MOVLW  C8
0690E:  MOVWF  x06
06910:  MOVLB  0
06912:  CALL   5326
06916:  MOVFF  02,6FB
0691A:  MOVFF  01,6FA
....................    if(!Ciclo){ 
0691E:  BTFSC  xA1.3
06920:  BRA    6C9A
....................       cicloMemoria=Ciclos-(posCiclo*200); 
06922:  MOVFF  6FB,70B
06926:  MOVFF  6FA,70A
0692A:  MOVLB  7
0692C:  CLRF   x0D
0692E:  MOVLW  C8
06930:  MOVWF  x0C
06932:  MOVLB  0
06934:  CALL   19F0
06938:  MOVF   01,W
0693A:  MOVLB  3
0693C:  SUBWF  x6C,W
0693E:  MOVLB  6
06940:  MOVWF  xFC
06942:  MOVF   02,W
06944:  MOVLB  3
06946:  SUBWFB x6D,W
06948:  MOVLB  6
0694A:  MOVWF  xFD
....................       write_ext_eeprom(5+(cicloMemoria*320)+(posicionDato*9),(int8)Temperatura); 
0694C:  MOVFF  6FD,70B
06950:  MOVFF  6FC,70A
06954:  MOVLW  01
06956:  MOVLB  7
06958:  MOVWF  x0D
0695A:  MOVLW  40
0695C:  MOVWF  x0C
0695E:  MOVLB  0
06960:  CALL   19F0
06964:  MOVFF  02,03
06968:  MOVF   01,W
0696A:  ADDLW  05
0696C:  MOVLB  6
0696E:  MOVWF  xFE
06970:  MOVLW  00
06972:  ADDWFC 02,W
06974:  MOVWF  xFF
06976:  MOVLB  3
06978:  MOVF   x96,W
0697A:  MULLW  09
0697C:  MOVF   FF3,W
0697E:  MOVLB  6
06980:  ADDWF  xFE,F
06982:  MOVLW  00
06984:  ADDWFC xFF,F
06986:  MOVFF  319,715
0698A:  MOVFF  318,714
0698E:  MOVFF  317,713
06992:  MOVFF  316,712
06996:  MOVLB  0
06998:  CALL   4582
0699C:  MOVFF  01,700
069A0:  MOVFF  6FF,708
069A4:  MOVFF  6FE,707
069A8:  MOVFF  01,709
069AC:  RCALL  651E
....................       delay_ms(10); 
069AE:  MOVLW  0A
069B0:  MOVLB  7
069B2:  MOVWF  x10
069B4:  MOVLB  0
069B6:  CALL   1992
....................       write_ext_eeprom(6+(cicloMemoria*320)+(posicionDato*9),extraeDecimal(Temperatura)); 
069BA:  MOVFF  6FD,70B
069BE:  MOVFF  6FC,70A
069C2:  MOVLW  01
069C4:  MOVLB  7
069C6:  MOVWF  x0D
069C8:  MOVLW  40
069CA:  MOVWF  x0C
069CC:  MOVLB  0
069CE:  CALL   19F0
069D2:  MOVFF  02,03
069D6:  MOVF   01,W
069D8:  ADDLW  06
069DA:  MOVLB  6
069DC:  MOVWF  xFE
069DE:  MOVLW  00
069E0:  ADDWFC 02,W
069E2:  MOVWF  xFF
069E4:  MOVLB  3
069E6:  MOVF   x96,W
069E8:  MULLW  09
069EA:  MOVF   FF3,W
069EC:  MOVLB  6
069EE:  ADDWF  xFE,F
069F0:  MOVLW  00
069F2:  ADDWFC xFF,F
069F4:  MOVFF  319,709
069F8:  MOVFF  318,708
069FC:  MOVFF  317,707
06A00:  MOVFF  316,706
06A04:  MOVLB  0
06A06:  BRA    682C
06A08:  MOVFF  01,700
06A0C:  MOVFF  6FF,708
06A10:  MOVFF  6FE,707
06A14:  MOVFF  01,709
06A18:  RCALL  651E
....................       delay_ms(10); 
06A1A:  MOVLW  0A
06A1C:  MOVLB  7
06A1E:  MOVWF  x10
06A20:  MOVLB  0
06A22:  CALL   1992
....................       write_ext_eeprom(7+(cicloMemoria*320)+(posicionDato*9),make8(PresionCamara,1)); 
06A26:  MOVFF  6FD,70B
06A2A:  MOVFF  6FC,70A
06A2E:  MOVLW  01
06A30:  MOVLB  7
06A32:  MOVWF  x0D
06A34:  MOVLW  40
06A36:  MOVWF  x0C
06A38:  MOVLB  0
06A3A:  CALL   19F0
06A3E:  MOVFF  02,03
06A42:  MOVF   01,W
06A44:  ADDLW  07
06A46:  MOVLB  6
06A48:  MOVWF  xFE
06A4A:  MOVLW  00
06A4C:  ADDWFC 02,W
06A4E:  MOVWF  xFF
06A50:  MOVLB  3
06A52:  MOVF   x96,W
06A54:  MULLW  09
06A56:  MOVF   FF3,W
06A58:  MOVLB  6
06A5A:  ADDWF  xFE,F
06A5C:  MOVLW  00
06A5E:  ADDWFC xFF,F
06A60:  MOVFF  369,700
06A64:  MOVFF  6FF,708
06A68:  MOVFF  6FE,707
06A6C:  MOVFF  369,709
06A70:  MOVLB  0
06A72:  RCALL  651E
....................       delay_ms(10); 
06A74:  MOVLW  0A
06A76:  MOVLB  7
06A78:  MOVWF  x10
06A7A:  MOVLB  0
06A7C:  CALL   1992
....................       write_ext_eeprom(8+(cicloMemoria*320)+(posicionDato*9),make8(PresionCamara,0)); 
06A80:  MOVFF  6FD,70B
06A84:  MOVFF  6FC,70A
06A88:  MOVLW  01
06A8A:  MOVLB  7
06A8C:  MOVWF  x0D
06A8E:  MOVLW  40
06A90:  MOVWF  x0C
06A92:  MOVLB  0
06A94:  CALL   19F0
06A98:  MOVFF  02,03
06A9C:  MOVF   01,W
06A9E:  ADDLW  08
06AA0:  MOVLB  6
06AA2:  MOVWF  xFE
06AA4:  MOVLW  00
06AA6:  ADDWFC 02,W
06AA8:  MOVWF  xFF
06AAA:  MOVLB  3
06AAC:  MOVF   x96,W
06AAE:  MULLW  09
06AB0:  MOVF   FF3,W
06AB2:  MOVLB  6
06AB4:  ADDWF  xFE,F
06AB6:  MOVLW  00
06AB8:  ADDWFC xFF,F
06ABA:  MOVFF  368,700
06ABE:  MOVFF  6FF,708
06AC2:  MOVFF  6FE,707
06AC6:  MOVFF  368,709
06ACA:  MOVLB  0
06ACC:  RCALL  651E
....................       delay_ms(10); 
06ACE:  MOVLW  0A
06AD0:  MOVLB  7
06AD2:  MOVWF  x10
06AD4:  MOVLB  0
06AD6:  CALL   1992
....................       write_ext_eeprom(9+(cicloMemoria*320)+(posicionDato*9),make8(PresionPreCamara,1)); 
06ADA:  MOVFF  6FD,70B
06ADE:  MOVFF  6FC,70A
06AE2:  MOVLW  01
06AE4:  MOVLB  7
06AE6:  MOVWF  x0D
06AE8:  MOVLW  40
06AEA:  MOVWF  x0C
06AEC:  MOVLB  0
06AEE:  CALL   19F0
06AF2:  MOVFF  02,03
06AF6:  MOVF   01,W
06AF8:  ADDLW  09
06AFA:  MOVLB  6
06AFC:  MOVWF  xFE
06AFE:  MOVLW  00
06B00:  ADDWFC 02,W
06B02:  MOVWF  xFF
06B04:  MOVLB  3
06B06:  MOVF   x96,W
06B08:  MULLW  09
06B0A:  MOVF   FF3,W
06B0C:  MOVLB  6
06B0E:  ADDWF  xFE,F
06B10:  MOVLW  00
06B12:  ADDWFC xFF,F
06B14:  MOVFF  36B,700
06B18:  MOVFF  6FF,708
06B1C:  MOVFF  6FE,707
06B20:  MOVFF  36B,709
06B24:  MOVLB  0
06B26:  RCALL  651E
....................       delay_ms(10); 
06B28:  MOVLW  0A
06B2A:  MOVLB  7
06B2C:  MOVWF  x10
06B2E:  MOVLB  0
06B30:  CALL   1992
....................       write_ext_eeprom(10+(cicloMemoria*320)+(posicionDato*9),make8(PresionPreCamara,0)); 
06B34:  MOVFF  6FD,70B
06B38:  MOVFF  6FC,70A
06B3C:  MOVLW  01
06B3E:  MOVLB  7
06B40:  MOVWF  x0D
06B42:  MOVLW  40
06B44:  MOVWF  x0C
06B46:  MOVLB  0
06B48:  CALL   19F0
06B4C:  MOVFF  02,03
06B50:  MOVF   01,W
06B52:  ADDLW  0A
06B54:  MOVLB  6
06B56:  MOVWF  xFE
06B58:  MOVLW  00
06B5A:  ADDWFC 02,W
06B5C:  MOVWF  xFF
06B5E:  MOVLB  3
06B60:  MOVF   x96,W
06B62:  MULLW  09
06B64:  MOVF   FF3,W
06B66:  MOVLB  6
06B68:  ADDWF  xFE,F
06B6A:  MOVLW  00
06B6C:  ADDWFC xFF,F
06B6E:  MOVFF  36A,700
06B72:  MOVFF  6FF,708
06B76:  MOVFF  6FE,707
06B7A:  MOVFF  36A,709
06B7E:  MOVLB  0
06B80:  RCALL  651E
....................       delay_ms(10); 
06B82:  MOVLW  0A
06B84:  MOVLB  7
06B86:  MOVWF  x10
06B88:  MOVLB  0
06B8A:  CALL   1992
....................       write_ext_eeprom(11+(cicloMemoria*320)+(posicionDato*9),Hora); 
06B8E:  MOVFF  6FD,70B
06B92:  MOVFF  6FC,70A
06B96:  MOVLW  01
06B98:  MOVLB  7
06B9A:  MOVWF  x0D
06B9C:  MOVLW  40
06B9E:  MOVWF  x0C
06BA0:  MOVLB  0
06BA2:  CALL   19F0
06BA6:  MOVFF  02,03
06BAA:  MOVF   01,W
06BAC:  ADDLW  0B
06BAE:  MOVLB  6
06BB0:  MOVWF  xFE
06BB2:  MOVLW  00
06BB4:  ADDWFC 02,W
06BB6:  MOVWF  xFF
06BB8:  MOVLB  3
06BBA:  MOVF   x96,W
06BBC:  MULLW  09
06BBE:  MOVF   FF3,W
06BC0:  MOVLB  6
06BC2:  ADDWF  xFE,F
06BC4:  MOVLW  00
06BC6:  ADDWFC xFF,F
06BC8:  MOVFF  6FF,708
06BCC:  MOVFF  6FE,707
06BD0:  MOVFF  38E,709
06BD4:  MOVLB  0
06BD6:  RCALL  651E
....................       delay_ms(10); 
06BD8:  MOVLW  0A
06BDA:  MOVLB  7
06BDC:  MOVWF  x10
06BDE:  MOVLB  0
06BE0:  CALL   1992
....................       write_ext_eeprom(12+(cicloMemoria*320)+(posicionDato*9),Minuto); 
06BE4:  MOVFF  6FD,70B
06BE8:  MOVFF  6FC,70A
06BEC:  MOVLW  01
06BEE:  MOVLB  7
06BF0:  MOVWF  x0D
06BF2:  MOVLW  40
06BF4:  MOVWF  x0C
06BF6:  MOVLB  0
06BF8:  CALL   19F0
06BFC:  MOVFF  02,03
06C00:  MOVF   01,W
06C02:  ADDLW  0C
06C04:  MOVLB  6
06C06:  MOVWF  xFE
06C08:  MOVLW  00
06C0A:  ADDWFC 02,W
06C0C:  MOVWF  xFF
06C0E:  MOVLB  3
06C10:  MOVF   x96,W
06C12:  MULLW  09
06C14:  MOVF   FF3,W
06C16:  MOVLB  6
06C18:  ADDWF  xFE,F
06C1A:  MOVLW  00
06C1C:  ADDWFC xFF,F
06C1E:  MOVFF  6FF,708
06C22:  MOVFF  6FE,707
06C26:  MOVFF  38F,709
06C2A:  MOVLB  0
06C2C:  RCALL  651E
....................       delay_ms(10); 
06C2E:  MOVLW  0A
06C30:  MOVLB  7
06C32:  MOVWF  x10
06C34:  MOVLB  0
06C36:  CALL   1992
....................       write_ext_eeprom(13+(cicloMemoria*320)+(posicionDato*9),codigoAlarma); 
06C3A:  MOVFF  6FD,70B
06C3E:  MOVFF  6FC,70A
06C42:  MOVLW  01
06C44:  MOVLB  7
06C46:  MOVWF  x0D
06C48:  MOVLW  40
06C4A:  MOVWF  x0C
06C4C:  MOVLB  0
06C4E:  CALL   19F0
06C52:  MOVFF  02,03
06C56:  MOVF   01,W
06C58:  ADDLW  0D
06C5A:  MOVLB  6
06C5C:  MOVWF  xFE
06C5E:  MOVLW  00
06C60:  ADDWFC 02,W
06C62:  MOVWF  xFF
06C64:  MOVLB  3
06C66:  MOVF   x96,W
06C68:  MULLW  09
06C6A:  MOVF   FF3,W
06C6C:  MOVLB  6
06C6E:  ADDWF  xFE,F
06C70:  MOVLW  00
06C72:  ADDWFC xFF,F
06C74:  MOVFF  6FF,708
06C78:  MOVFF  6FE,707
06C7C:  MOVFF  398,709
06C80:  MOVLB  0
06C82:  RCALL  651E
....................       delay_ms(10); 
06C84:  MOVLW  0A
06C86:  MOVLB  7
06C88:  MOVWF  x10
06C8A:  MOVLB  0
06C8C:  CALL   1992
....................     
....................       if(posicionDato<35) 
06C90:  MOVLB  3
06C92:  MOVF   x96,W
06C94:  SUBLW  22
06C96:  BNC   6C9A
....................          ++posicionDato; 
06C98:  INCF   x96,F
06C9A:  MOVLB  0
....................    } 
.................... } 
06C9C:  RETLW  00
....................  
.................... void incrementaCiclos(){ 
....................    if(!Ciclo){ 
06C9E:  BTFSC  xA1.3
06CA0:  BRA    6D28
....................       Ciclo=ON; 
06CA2:  BSF    xA1.3
....................       Ciclos++; 
06CA4:  MOVLB  3
06CA6:  INCF   x6C,F
06CA8:  BTFSC  FD8.2
06CAA:  INCF   x6D,F
....................       CiclosL=make8(Ciclos,0); 
06CAC:  MOVFF  36C,353
....................       CiclosH=make8(Ciclos,1); 
06CB0:  MOVFF  36D,354
....................       write_eeprom(37,CiclosL); 
06CB4:  CLRF   FAA
06CB6:  MOVLW  25
06CB8:  MOVWF  FA9
06CBA:  MOVFF  353,FA8
06CBE:  BCF    FA6.6
06CC0:  BCF    FA6.7
06CC2:  BSF    FA6.2
06CC4:  MOVF   FF2,W
06CC6:  MOVWF  00
06CC8:  BCF    FF2.6
06CCA:  BCF    FF2.7
06CCC:  MOVLB  F
06CCE:  MOVLW  55
06CD0:  MOVWF  FA7
06CD2:  MOVLW  AA
06CD4:  MOVWF  FA7
06CD6:  BSF    FA6.1
06CD8:  BTFSC  FA6.1
06CDA:  BRA    6CD8
06CDC:  BCF    FA6.2
06CDE:  MOVF   00,W
06CE0:  IORWF  FF2,F
....................       delay_ms(20); 
06CE2:  MOVLW  14
06CE4:  MOVLB  7
06CE6:  MOVWF  x10
06CE8:  MOVLB  0
06CEA:  CALL   1992
....................       write_eeprom(38,CiclosH); 
06CEE:  CLRF   FAA
06CF0:  MOVLW  26
06CF2:  MOVWF  FA9
06CF4:  MOVFF  354,FA8
06CF8:  BCF    FA6.6
06CFA:  BCF    FA6.7
06CFC:  BSF    FA6.2
06CFE:  MOVF   FF2,W
06D00:  MOVWF  00
06D02:  BCF    FF2.6
06D04:  BCF    FF2.7
06D06:  MOVLB  F
06D08:  MOVLW  55
06D0A:  MOVWF  FA7
06D0C:  MOVLW  AA
06D0E:  MOVWF  FA7
06D10:  BSF    FA6.1
06D12:  BTFSC  FA6.1
06D14:  BRA    6D12
06D16:  BCF    FA6.2
06D18:  MOVF   00,W
06D1A:  IORWF  FF2,F
....................       delay_ms(20); 
06D1C:  MOVLW  14
06D1E:  MOVLB  7
06D20:  MOVWF  x10
06D22:  MOVLB  0
06D24:  CALL   1992
....................    } 
.................... } 
06D28:  RETLW  00
....................  
.................... void exportarData(){ 
*
05BE2:  MOVLB  6
05BE4:  CLRF   xFB
05BE6:  CLRF   xFA
05BE8:  CLRF   xFC
.................... int16 posicion=0; 
.................... int8 tmp=0; 
.................... posicion=40; 
05BEA:  CLRF   xFB
05BEC:  MOVLW  28
05BEE:  MOVWF  xFA
.................... direccion=0xB0; 
05BF0:  MOVLW  B0
05BF2:  MOVLB  0
05BF4:  MOVWF  x85
.................... //Buzzer_on; 
.................... //Inicio de Transmision 
.................... i2c_start();            // Comienzo comunicacin 
05BF6:  BSF    F94.4
05BF8:  MOVLW  05
05BFA:  MOVWF  00
05BFC:  DECFSZ 00,F
05BFE:  BRA    5BFC
05C00:  BSF    F94.3
05C02:  MOVLW  06
05C04:  MOVWF  00
05C06:  DECFSZ 00,F
05C08:  BRA    5C06
05C0A:  BCF    F8B.4
05C0C:  BCF    F94.4
05C0E:  MOVLW  05
05C10:  MOVWF  00
05C12:  DECFSZ 00,F
05C14:  BRA    5C12
05C16:  BCF    F8B.3
05C18:  BCF    F94.3
.................... i2c_write(direccion);   // Direccin del esclavo en el bus I2C 
05C1A:  MOVFF  85,711
05C1E:  CALL   1A12
.................... i2c_write(make8(posicion,0));    // Posicin donde se guardara el dato transmitido 
05C22:  MOVFF  6FA,6FD
05C26:  MOVFF  6FA,711
05C2A:  CALL   1A12
.................... i2c_write(make8(posicion,1));    // Posicin donde se guardara el dato transmitido 
05C2E:  MOVFF  6FB,6FD
05C32:  MOVFF  6FB,711
05C36:  CALL   1A12
.................... i2c_write(0xff);        // Dato a transmitir 
05C3A:  MOVLW  FF
05C3C:  MOVLB  7
05C3E:  MOVWF  x11
05C40:  MOVLB  0
05C42:  CALL   1A12
.................... i2c_stop(); 
05C46:  BCF    F94.4
05C48:  NOP   
05C4A:  BSF    F94.3
05C4C:  BTFSS  F82.3
05C4E:  BRA    5C4C
05C50:  MOVLW  05
05C52:  MOVWF  00
05C54:  DECFSZ 00,F
05C56:  BRA    5C54
05C58:  BRA    5C5A
05C5A:  NOP   
05C5C:  BSF    F94.4
05C5E:  MOVLW  05
05C60:  MOVWF  00
05C62:  DECFSZ 00,F
05C64:  BRA    5C62
.................... ++posicion; 
05C66:  MOVLB  6
05C68:  INCF   xFA,F
05C6A:  BTFSC  FD8.2
05C6C:  INCF   xFB,F
.................... i2c_start();            // Comienzo comunicacin 
05C6E:  BSF    F94.4
05C70:  MOVLW  05
05C72:  MOVWF  00
05C74:  DECFSZ 00,F
05C76:  BRA    5C74
05C78:  BSF    F94.3
05C7A:  MOVLW  06
05C7C:  MOVWF  00
05C7E:  DECFSZ 00,F
05C80:  BRA    5C7E
05C82:  BCF    F8B.4
05C84:  BCF    F94.4
05C86:  MOVLW  05
05C88:  MOVWF  00
05C8A:  DECFSZ 00,F
05C8C:  BRA    5C8A
05C8E:  BCF    F8B.3
05C90:  BCF    F94.3
.................... i2c_write(direccion);   // Direccin del esclavo en el bus I2C 
05C92:  MOVFF  85,711
05C96:  MOVLB  0
05C98:  CALL   1A12
.................... i2c_write(make8(posicion,0));    // Posicin donde se guardara el dato transmitido 
05C9C:  MOVFF  6FA,6FD
05CA0:  MOVFF  6FA,711
05CA4:  CALL   1A12
.................... i2c_write(make8(posicion,1));    // Posicin donde se guardara el dato transmitido 
05CA8:  MOVFF  6FB,6FD
05CAC:  MOVFF  6FB,711
05CB0:  CALL   1A12
.................... i2c_write(0xff);        // Dato a transmitir 
05CB4:  MOVLW  FF
05CB6:  MOVLB  7
05CB8:  MOVWF  x11
05CBA:  MOVLB  0
05CBC:  CALL   1A12
.................... i2c_stop(); 
05CC0:  BCF    F94.4
05CC2:  NOP   
05CC4:  BSF    F94.3
05CC6:  BTFSS  F82.3
05CC8:  BRA    5CC6
05CCA:  MOVLW  05
05CCC:  MOVWF  00
05CCE:  DECFSZ 00,F
05CD0:  BRA    5CCE
05CD2:  BRA    5CD4
05CD4:  NOP   
05CD6:  BSF    F94.4
05CD8:  MOVLW  05
05CDA:  MOVWF  00
05CDC:  DECFSZ 00,F
05CDE:  BRA    5CDC
.................... ++posicion; 
05CE0:  MOVLB  6
05CE2:  INCF   xFA,F
05CE4:  BTFSC  FD8.2
05CE6:  INCF   xFB,F
.................... //Se envian 2 veces ff para indicar que se inicia la transmision. 
....................  
....................    for(i=0;i<5;i++){ 
05CE8:  MOVLB  3
05CEA:  CLRF   x52
05CEC:  MOVF   x52,W
05CEE:  SUBLW  04
05CF0:  BNC   5DA8
....................       tmp=read_ext_eeprom((cicloVisto*320)+i); 
05CF2:  MOVLB  7
05CF4:  CLRF   x0B
05CF6:  MOVFF  394,70A
05CFA:  MOVLW  01
05CFC:  MOVWF  x0D
05CFE:  MOVLW  40
05D00:  MOVWF  x0C
05D02:  MOVLB  0
05D04:  CALL   19F0
05D08:  MOVFF  02,6FE
05D0C:  MOVFF  01,6FD
05D10:  MOVLB  3
05D12:  MOVF   x52,W
05D14:  MOVLB  6
05D16:  ADDWF  xFD,F
05D18:  MOVLW  00
05D1A:  ADDWFC xFE,F
05D1C:  MOVFF  6FE,706
05D20:  MOVFF  6FD,705
05D24:  MOVLB  0
05D26:  CALL   1AF4
05D2A:  MOVFF  01,6FC
....................       //if(tmp>250) 
....................       //   tmp=20; 
....................       i2c_start();            // Comienzo comunicacin 
05D2E:  BSF    F94.4
05D30:  MOVLW  05
05D32:  MOVWF  00
05D34:  DECFSZ 00,F
05D36:  BRA    5D34
05D38:  BSF    F94.3
05D3A:  MOVLW  06
05D3C:  MOVWF  00
05D3E:  DECFSZ 00,F
05D40:  BRA    5D3E
05D42:  BCF    F8B.4
05D44:  BCF    F94.4
05D46:  MOVLW  05
05D48:  MOVWF  00
05D4A:  DECFSZ 00,F
05D4C:  BRA    5D4A
05D4E:  BCF    F8B.3
05D50:  BCF    F94.3
....................       i2c_write(direccion);   // Direccin del esclavo en el bus I2C 
05D52:  MOVFF  85,711
05D56:  CALL   1A12
....................       i2c_write(make8(posicion,0));    // Posicin donde se guardara el dato transmitido 
05D5A:  MOVFF  6FA,6FD
05D5E:  MOVFF  6FA,711
05D62:  CALL   1A12
....................       i2c_write(make8(posicion,1));    // Posicin donde se guardara el dato transmitido 
05D66:  MOVFF  6FB,6FD
05D6A:  MOVFF  6FB,711
05D6E:  CALL   1A12
....................       i2c_write(tmp);        // Dato a transmitir 
05D72:  MOVFF  6FC,711
05D76:  CALL   1A12
....................       i2c_stop();  
05D7A:  BCF    F94.4
05D7C:  NOP   
05D7E:  BSF    F94.3
05D80:  BTFSS  F82.3
05D82:  BRA    5D80
05D84:  MOVLW  05
05D86:  MOVWF  00
05D88:  DECFSZ 00,F
05D8A:  BRA    5D88
05D8C:  BRA    5D8E
05D8E:  NOP   
05D90:  BSF    F94.4
05D92:  MOVLW  05
05D94:  MOVWF  00
05D96:  DECFSZ 00,F
05D98:  BRA    5D96
....................       ++posicion; 
05D9A:  MOVLB  6
05D9C:  INCF   xFA,F
05D9E:  BTFSC  FD8.2
05DA0:  INCF   xFB,F
....................    } 
05DA2:  MOVLB  3
05DA4:  INCF   x52,F
05DA6:  BRA    5CEC
....................    for(i=0;i<35;i++){//Lee Valores para completar la Tabla 
05DA8:  CLRF   x52
05DAA:  MOVF   x52,W
05DAC:  SUBLW  22
05DAE:  BNC   5E84
....................       for(j=5;j<14;j++){//Lee Valores para completar la Tabla 
05DB0:  MOVLW  05
05DB2:  MOVWF  x97
05DB4:  MOVF   x97,W
05DB6:  SUBLW  0D
05DB8:  BNC   5E80
....................          tmp=read_ext_eeprom((cicloVisto*320)+j+(i*9)); 
05DBA:  MOVLB  7
05DBC:  CLRF   x0B
05DBE:  MOVFF  394,70A
05DC2:  MOVLW  01
05DC4:  MOVWF  x0D
05DC6:  MOVLW  40
05DC8:  MOVWF  x0C
05DCA:  MOVLB  0
05DCC:  CALL   19F0
05DD0:  MOVFF  02,6FE
05DD4:  MOVFF  01,6FD
05DD8:  MOVLB  3
05DDA:  MOVF   x97,W
05DDC:  MOVLB  6
05DDE:  ADDWF  xFD,F
05DE0:  MOVLW  00
05DE2:  ADDWFC xFE,F
05DE4:  MOVLB  3
05DE6:  MOVF   x52,W
05DE8:  MULLW  09
05DEA:  MOVF   FF3,W
05DEC:  MOVLB  6
05DEE:  ADDWF  xFD,F
05DF0:  MOVLW  00
05DF2:  ADDWFC xFE,F
05DF4:  MOVFF  6FE,706
05DF8:  MOVFF  6FD,705
05DFC:  MOVLB  0
05DFE:  CALL   1AF4
05E02:  MOVFF  01,6FC
....................          //if(tmp>250) 
....................          //   tmp=20; 
....................          i2c_start();            // Comienzo comunicacin 
05E06:  BSF    F94.4
05E08:  MOVLW  05
05E0A:  MOVWF  00
05E0C:  DECFSZ 00,F
05E0E:  BRA    5E0C
05E10:  BSF    F94.3
05E12:  MOVLW  06
05E14:  MOVWF  00
05E16:  DECFSZ 00,F
05E18:  BRA    5E16
05E1A:  BCF    F8B.4
05E1C:  BCF    F94.4
05E1E:  MOVLW  05
05E20:  MOVWF  00
05E22:  DECFSZ 00,F
05E24:  BRA    5E22
05E26:  BCF    F8B.3
05E28:  BCF    F94.3
....................          i2c_write(direccion);   // Direccin del esclavo en el bus I2C 
05E2A:  MOVFF  85,711
05E2E:  CALL   1A12
....................          i2c_write(make8(posicion,0));    // Posicin donde se guardara el dato transmitido 
05E32:  MOVFF  6FA,6FD
05E36:  MOVFF  6FA,711
05E3A:  CALL   1A12
....................          i2c_write(make8(posicion,1));    // Posicin donde se guardara el dato transmitido 
05E3E:  MOVFF  6FB,6FD
05E42:  MOVFF  6FB,711
05E46:  CALL   1A12
....................          i2c_write(tmp);        // Dato a transmitir 
05E4A:  MOVFF  6FC,711
05E4E:  CALL   1A12
....................          i2c_stop();  
05E52:  BCF    F94.4
05E54:  NOP   
05E56:  BSF    F94.3
05E58:  BTFSS  F82.3
05E5A:  BRA    5E58
05E5C:  MOVLW  05
05E5E:  MOVWF  00
05E60:  DECFSZ 00,F
05E62:  BRA    5E60
05E64:  BRA    5E66
05E66:  NOP   
05E68:  BSF    F94.4
05E6A:  MOVLW  05
05E6C:  MOVWF  00
05E6E:  DECFSZ 00,F
05E70:  BRA    5E6E
....................          ++posicion; 
05E72:  MOVLB  6
05E74:  INCF   xFA,F
05E76:  BTFSC  FD8.2
05E78:  INCF   xFB,F
....................       } 
05E7A:  MOVLB  3
05E7C:  INCF   x97,F
05E7E:  BRA    5DB4
....................    } 
05E80:  INCF   x52,F
05E82:  BRA    5DAA
....................  
.................... //Fin de Transmision 
.................... i2c_start();            // Comienzo comunicacin 
05E84:  BSF    F94.4
05E86:  MOVLW  05
05E88:  MOVWF  00
05E8A:  DECFSZ 00,F
05E8C:  BRA    5E8A
05E8E:  BSF    F94.3
05E90:  MOVLW  06
05E92:  MOVWF  00
05E94:  DECFSZ 00,F
05E96:  BRA    5E94
05E98:  BCF    F8B.4
05E9A:  BCF    F94.4
05E9C:  MOVLW  05
05E9E:  MOVWF  00
05EA0:  DECFSZ 00,F
05EA2:  BRA    5EA0
05EA4:  BCF    F8B.3
05EA6:  BCF    F94.3
.................... i2c_write(direccion);   // Direccin del esclavo en el bus I2C 
05EA8:  MOVFF  85,711
05EAC:  MOVLB  0
05EAE:  CALL   1A12
.................... i2c_write(make8(posicion,0));    // Posicin donde se guardara el dato transmitido 
05EB2:  MOVFF  6FA,6FD
05EB6:  MOVFF  6FA,711
05EBA:  CALL   1A12
.................... i2c_write(make8(posicion,1));    // Posicin donde se guardara el dato transmitido 
05EBE:  MOVFF  6FB,6FD
05EC2:  MOVFF  6FB,711
05EC6:  CALL   1A12
.................... i2c_write(0x1f);        // Dato a transmitir 
05ECA:  MOVLW  1F
05ECC:  MOVLB  7
05ECE:  MOVWF  x11
05ED0:  MOVLB  0
05ED2:  CALL   1A12
.................... i2c_stop(); 
05ED6:  BCF    F94.4
05ED8:  NOP   
05EDA:  BSF    F94.3
05EDC:  BTFSS  F82.3
05EDE:  BRA    5EDC
05EE0:  MOVLW  05
05EE2:  MOVWF  00
05EE4:  DECFSZ 00,F
05EE6:  BRA    5EE4
05EE8:  BRA    5EEA
05EEA:  NOP   
05EEC:  BSF    F94.4
05EEE:  MOVLW  05
05EF0:  MOVWF  00
05EF2:  DECFSZ 00,F
05EF4:  BRA    5EF2
.................... ++posicion; 
05EF6:  MOVLB  6
05EF8:  INCF   xFA,F
05EFA:  BTFSC  FD8.2
05EFC:  INCF   xFB,F
.................... i2c_start();            // Comienzo comunicacin 
05EFE:  BSF    F94.4
05F00:  MOVLW  05
05F02:  MOVWF  00
05F04:  DECFSZ 00,F
05F06:  BRA    5F04
05F08:  BSF    F94.3
05F0A:  MOVLW  06
05F0C:  MOVWF  00
05F0E:  DECFSZ 00,F
05F10:  BRA    5F0E
05F12:  BCF    F8B.4
05F14:  BCF    F94.4
05F16:  MOVLW  05
05F18:  MOVWF  00
05F1A:  DECFSZ 00,F
05F1C:  BRA    5F1A
05F1E:  BCF    F8B.3
05F20:  BCF    F94.3
.................... i2c_write(direccion);   // Direccin del esclavo en el bus I2C 
05F22:  MOVFF  85,711
05F26:  MOVLB  0
05F28:  CALL   1A12
.................... i2c_write(make8(posicion,0));    // Posicin donde se guardara el dato transmitido 
05F2C:  MOVFF  6FA,6FD
05F30:  MOVFF  6FA,711
05F34:  CALL   1A12
.................... i2c_write(make8(posicion,1));    // Posicin donde se guardara el dato transmitido 
05F38:  MOVFF  6FB,6FD
05F3C:  MOVFF  6FB,711
05F40:  CALL   1A12
.................... i2c_write(0x1f);        // Dato a transmitir 
05F44:  MOVLW  1F
05F46:  MOVLB  7
05F48:  MOVWF  x11
05F4A:  MOVLB  0
05F4C:  CALL   1A12
.................... i2c_stop(); 
05F50:  BCF    F94.4
05F52:  NOP   
05F54:  BSF    F94.3
05F56:  BTFSS  F82.3
05F58:  BRA    5F56
05F5A:  MOVLW  05
05F5C:  MOVWF  00
05F5E:  DECFSZ 00,F
05F60:  BRA    5F5E
05F62:  BRA    5F64
05F64:  NOP   
05F66:  BSF    F94.4
05F68:  MOVLW  05
05F6A:  MOVWF  00
05F6C:  DECFSZ 00,F
05F6E:  BRA    5F6C
.................... ++posicion; 
05F70:  MOVLB  6
05F72:  INCF   xFA,F
05F74:  BTFSC  FD8.2
05F76:  INCF   xFB,F
.................... //Se envian 2 veces 1f para indicar que se inicia la transmision. 
.................... delay_ms(200); 
05F78:  MOVLW  C8
05F7A:  MOVLB  7
05F7C:  MOVWF  x10
05F7E:  MOVLB  0
05F80:  CALL   1992
.................... //Buzzer_off; 
.................... } 
05F84:  GOTO   BDEA (RETURN)
....................  
.................... void codificaAlarma(){ 
....................    if(ACiclos[i]==0){ 
05F88:  CLRF   03
05F8A:  MOVLB  3
05F8C:  MOVF   x52,W
05F8E:  ADDLW  FE
05F90:  MOVWF  FE9
05F92:  MOVLW  03
05F94:  ADDWFC 03,W
05F96:  MOVWF  FEA
05F98:  MOVF   FEF,F
05F9A:  BNZ   5FDC
....................       printf("A%u.txt=\"----\"",i+1); 
05F9C:  MOVLW  01
05F9E:  ADDWF  x52,W
05FA0:  MOVLB  6
05FA2:  MOVWF  xFA
05FA4:  MOVLW  41
05FA6:  BTFSS  F9E.4
05FA8:  BRA    5FA6
05FAA:  MOVWF  FAD
05FAC:  MOVFF  6FA,705
05FB0:  MOVLW  1B
05FB2:  MOVLB  7
05FB4:  MOVWF  x06
05FB6:  MOVLB  0
05FB8:  CALL   4F3A
05FBC:  MOVLW  F9
05FBE:  MOVWF  FF6
05FC0:  MOVLW  01
05FC2:  MOVWF  FF7
05FC4:  MOVLW  00
05FC6:  MOVWF  FF8
05FC8:  MOVLW  0B
05FCA:  MOVLB  7
05FCC:  MOVWF  x05
05FCE:  MOVLB  0
05FD0:  CALL   4EDC
....................       SendDataDisplay(); 
05FD4:  CALL   38F8
....................    }else if(ACiclos[i]==1){ 
05FD8:  BRA    6516
05FDA:  MOVLB  3
05FDC:  CLRF   03
05FDE:  MOVF   x52,W
05FE0:  ADDLW  FE
05FE2:  MOVWF  FE9
05FE4:  MOVLW  03
05FE6:  ADDWFC 03,W
05FE8:  MOVWF  FEA
05FEA:  DECFSZ FEF,W
05FEC:  BRA    602E
....................       printf("A%u.txt=\"Parada\"",i+1); 
05FEE:  MOVLW  01
05FF0:  ADDWF  x52,W
05FF2:  MOVLB  6
05FF4:  MOVWF  xFA
05FF6:  MOVLW  41
05FF8:  BTFSS  F9E.4
05FFA:  BRA    5FF8
05FFC:  MOVWF  FAD
05FFE:  MOVFF  6FA,705
06002:  MOVLW  1B
06004:  MOVLB  7
06006:  MOVWF  x06
06008:  MOVLB  0
0600A:  CALL   4F3A
0600E:  MOVLW  09
06010:  MOVWF  FF6
06012:  MOVLW  02
06014:  MOVWF  FF7
06016:  MOVLW  00
06018:  MOVWF  FF8
0601A:  MOVLW  0D
0601C:  MOVLB  7
0601E:  MOVWF  x05
06020:  MOVLB  0
06022:  CALL   4EDC
....................       SendDataDisplay(); 
06026:  CALL   38F8
....................    }else if(ACiclos[i]==2){ 
0602A:  BRA    6516
0602C:  MOVLB  3
0602E:  CLRF   03
06030:  MOVF   x52,W
06032:  ADDLW  FE
06034:  MOVWF  FE9
06036:  MOVLW  03
06038:  ADDWFC 03,W
0603A:  MOVWF  FEA
0603C:  MOVF   FEF,W
0603E:  SUBLW  02
06040:  BNZ   6082
....................       printf("A%u.txt=\"Puerta\"",i+1); 
06042:  MOVLW  01
06044:  ADDWF  x52,W
06046:  MOVLB  6
06048:  MOVWF  xFA
0604A:  MOVLW  41
0604C:  BTFSS  F9E.4
0604E:  BRA    604C
06050:  MOVWF  FAD
06052:  MOVFF  6FA,705
06056:  MOVLW  1B
06058:  MOVLB  7
0605A:  MOVWF  x06
0605C:  MOVLB  0
0605E:  CALL   4F3A
06062:  MOVLW  1B
06064:  MOVWF  FF6
06066:  MOVLW  02
06068:  MOVWF  FF7
0606A:  MOVLW  00
0606C:  MOVWF  FF8
0606E:  MOVLW  0D
06070:  MOVLB  7
06072:  MOVWF  x05
06074:  MOVLB  0
06076:  CALL   4EDC
....................       SendDataDisplay(); 
0607A:  CALL   38F8
....................    }else if(ACiclos[i]==3){ 
0607E:  BRA    6516
06080:  MOVLB  3
06082:  CLRF   03
06084:  MOVF   x52,W
06086:  ADDLW  FE
06088:  MOVWF  FE9
0608A:  MOVLW  03
0608C:  ADDWFC 03,W
0608E:  MOVWF  FEA
06090:  MOVF   FEF,W
06092:  SUBLW  03
06094:  BNZ   60D6
....................       printf("A%u.txt=\"Termostato\"",i+1); 
06096:  MOVLW  01
06098:  ADDWF  x52,W
0609A:  MOVLB  6
0609C:  MOVWF  xFA
0609E:  MOVLW  41
060A0:  BTFSS  F9E.4
060A2:  BRA    60A0
060A4:  MOVWF  FAD
060A6:  MOVFF  6FA,705
060AA:  MOVLW  1B
060AC:  MOVLB  7
060AE:  MOVWF  x06
060B0:  MOVLB  0
060B2:  CALL   4F3A
060B6:  MOVLW  2D
060B8:  MOVWF  FF6
060BA:  MOVLW  02
060BC:  MOVWF  FF7
060BE:  MOVLW  00
060C0:  MOVWF  FF8
060C2:  MOVLW  11
060C4:  MOVLB  7
060C6:  MOVWF  x05
060C8:  MOVLB  0
060CA:  CALL   4EDC
....................       SendDataDisplay(); 
060CE:  CALL   38F8
....................    }else if(ACiclos[i]==4){ 
060D2:  BRA    6516
060D4:  MOVLB  3
060D6:  CLRF   03
060D8:  MOVF   x52,W
060DA:  ADDLW  FE
060DC:  MOVWF  FE9
060DE:  MOVLW  03
060E0:  ADDWFC 03,W
060E2:  MOVWF  FEA
060E4:  MOVF   FEF,W
060E6:  SUBLW  04
060E8:  BNZ   612A
....................       printf("A%u.txt=\"SobreT\"",i+1); 
060EA:  MOVLW  01
060EC:  ADDWF  x52,W
060EE:  MOVLB  6
060F0:  MOVWF  xFA
060F2:  MOVLW  41
060F4:  BTFSS  F9E.4
060F6:  BRA    60F4
060F8:  MOVWF  FAD
060FA:  MOVFF  6FA,705
060FE:  MOVLW  1B
06100:  MOVLB  7
06102:  MOVWF  x06
06104:  MOVLB  0
06106:  CALL   4F3A
0610A:  MOVLW  43
0610C:  MOVWF  FF6
0610E:  MOVLW  02
06110:  MOVWF  FF7
06112:  MOVLW  00
06114:  MOVWF  FF8
06116:  MOVLW  0D
06118:  MOVLB  7
0611A:  MOVWF  x05
0611C:  MOVLB  0
0611E:  CALL   4EDC
....................       SendDataDisplay(); 
06122:  CALL   38F8
....................    }else if(ACiclos[i]==5){ 
06126:  BRA    6516
06128:  MOVLB  3
0612A:  CLRF   03
0612C:  MOVF   x52,W
0612E:  ADDLW  FE
06130:  MOVWF  FE9
06132:  MOVLW  03
06134:  ADDWFC 03,W
06136:  MOVWF  FEA
06138:  MOVF   FEF,W
0613A:  SUBLW  05
0613C:  BNZ   617E
....................       printf("A%u.txt=\"Tiempo\"",i+1); 
0613E:  MOVLW  01
06140:  ADDWF  x52,W
06142:  MOVLB  6
06144:  MOVWF  xFA
06146:  MOVLW  41
06148:  BTFSS  F9E.4
0614A:  BRA    6148
0614C:  MOVWF  FAD
0614E:  MOVFF  6FA,705
06152:  MOVLW  1B
06154:  MOVLB  7
06156:  MOVWF  x06
06158:  MOVLB  0
0615A:  CALL   4F3A
0615E:  MOVLW  55
06160:  MOVWF  FF6
06162:  MOVLW  02
06164:  MOVWF  FF7
06166:  MOVLW  00
06168:  MOVWF  FF8
0616A:  MOVLW  0D
0616C:  MOVLB  7
0616E:  MOVWF  x05
06170:  MOVLB  0
06172:  CALL   4EDC
....................       SendDataDisplay(); 
06176:  CALL   38F8
....................    }else if(ACiclos[i]==6){ 
0617A:  BRA    6516
0617C:  MOVLB  3
0617E:  CLRF   03
06180:  MOVF   x52,W
06182:  ADDLW  FE
06184:  MOVWF  FE9
06186:  MOVLW  03
06188:  ADDWFC 03,W
0618A:  MOVWF  FEA
0618C:  MOVF   FEF,W
0618E:  SUBLW  06
06190:  BNZ   61D2
....................       printf("A%u.txt=\"Presion\"",i+1); 
06192:  MOVLW  01
06194:  ADDWF  x52,W
06196:  MOVLB  6
06198:  MOVWF  xFA
0619A:  MOVLW  41
0619C:  BTFSS  F9E.4
0619E:  BRA    619C
061A0:  MOVWF  FAD
061A2:  MOVFF  6FA,705
061A6:  MOVLW  1B
061A8:  MOVLB  7
061AA:  MOVWF  x06
061AC:  MOVLB  0
061AE:  CALL   4F3A
061B2:  MOVLW  67
061B4:  MOVWF  FF6
061B6:  MOVLW  02
061B8:  MOVWF  FF7
061BA:  MOVLW  00
061BC:  MOVWF  FF8
061BE:  MOVLW  0E
061C0:  MOVLB  7
061C2:  MOVWF  x05
061C4:  MOVLB  0
061C6:  CALL   4EDC
....................       SendDataDisplay(); 
061CA:  CALL   38F8
....................    }else if(ACiclos[i]==7){ 
061CE:  BRA    6516
061D0:  MOVLB  3
061D2:  CLRF   03
061D4:  MOVF   x52,W
061D6:  ADDLW  FE
061D8:  MOVWF  FE9
061DA:  MOVLW  03
061DC:  ADDWFC 03,W
061DE:  MOVWF  FEA
061E0:  MOVF   FEF,W
061E2:  SUBLW  07
061E4:  BNZ   6226
....................       printf("A%u.txt=\"ERR Ciclo\"",i+1); 
061E6:  MOVLW  01
061E8:  ADDWF  x52,W
061EA:  MOVLB  6
061EC:  MOVWF  xFA
061EE:  MOVLW  41
061F0:  BTFSS  F9E.4
061F2:  BRA    61F0
061F4:  MOVWF  FAD
061F6:  MOVFF  6FA,705
061FA:  MOVLW  1B
061FC:  MOVLB  7
061FE:  MOVWF  x06
06200:  MOVLB  0
06202:  CALL   4F3A
06206:  MOVLW  79
06208:  MOVWF  FF6
0620A:  MOVLW  02
0620C:  MOVWF  FF7
0620E:  MOVLW  00
06210:  MOVWF  FF8
06212:  MOVLW  10
06214:  MOVLB  7
06216:  MOVWF  x05
06218:  MOVLB  0
0621A:  CALL   4EDC
....................       SendDataDisplay(); 
0621E:  CALL   38F8
....................    }else if(ACiclos[i]==8){ 
06222:  BRA    6516
06224:  MOVLB  3
06226:  CLRF   03
06228:  MOVF   x52,W
0622A:  ADDLW  FE
0622C:  MOVWF  FE9
0622E:  MOVLW  03
06230:  ADDWFC 03,W
06232:  MOVWF  FEA
06234:  MOVF   FEF,W
06236:  SUBLW  08
06238:  BNZ   627A
....................       printf("A%u.txt=\"Llenado\"",i+1); 
0623A:  MOVLW  01
0623C:  ADDWF  x52,W
0623E:  MOVLB  6
06240:  MOVWF  xFA
06242:  MOVLW  41
06244:  BTFSS  F9E.4
06246:  BRA    6244
06248:  MOVWF  FAD
0624A:  MOVFF  6FA,705
0624E:  MOVLW  1B
06250:  MOVLB  7
06252:  MOVWF  x06
06254:  MOVLB  0
06256:  CALL   4F3A
0625A:  MOVLW  8D
0625C:  MOVWF  FF6
0625E:  MOVLW  02
06260:  MOVWF  FF7
06262:  MOVLW  00
06264:  MOVWF  FF8
06266:  MOVLW  0E
06268:  MOVLB  7
0626A:  MOVWF  x05
0626C:  MOVLB  0
0626E:  CALL   4EDC
....................       SendDataDisplay(); 
06272:  CALL   38F8
....................    }else if(ACiclos[i]==10){ 
06276:  BRA    6516
06278:  MOVLB  3
0627A:  CLRF   03
0627C:  MOVF   x52,W
0627E:  ADDLW  FE
06280:  MOVWF  FE9
06282:  MOVLW  03
06284:  ADDWFC 03,W
06286:  MOVWF  FEA
06288:  MOVF   FEF,W
0628A:  SUBLW  0A
0628C:  BNZ   62CE
....................       printf("A%u.txt=\"Llenando\"",i+1); 
0628E:  MOVLW  01
06290:  ADDWF  x52,W
06292:  MOVLB  6
06294:  MOVWF  xFA
06296:  MOVLW  41
06298:  BTFSS  F9E.4
0629A:  BRA    6298
0629C:  MOVWF  FAD
0629E:  MOVFF  6FA,705
062A2:  MOVLW  1B
062A4:  MOVLB  7
062A6:  MOVWF  x06
062A8:  MOVLB  0
062AA:  CALL   4F3A
062AE:  MOVLW  9F
062B0:  MOVWF  FF6
062B2:  MOVLW  02
062B4:  MOVWF  FF7
062B6:  MOVLW  00
062B8:  MOVWF  FF8
062BA:  MOVLW  0F
062BC:  MOVLB  7
062BE:  MOVWF  x05
062C0:  MOVLB  0
062C2:  CALL   4EDC
....................       SendDataDisplay(); 
062C6:  CALL   38F8
....................    }else if(ACiclos[i]==11){ 
062CA:  BRA    6516
062CC:  MOVLB  3
062CE:  CLRF   03
062D0:  MOVF   x52,W
062D2:  ADDLW  FE
062D4:  MOVWF  FE9
062D6:  MOVLW  03
062D8:  ADDWFC 03,W
062DA:  MOVWF  FEA
062DC:  MOVF   FEF,W
062DE:  SUBLW  0B
062E0:  BNZ   6322
....................       printf("A%u.txt=\"Vacio\"",i+1); 
062E2:  MOVLW  01
062E4:  ADDWF  x52,W
062E6:  MOVLB  6
062E8:  MOVWF  xFA
062EA:  MOVLW  41
062EC:  BTFSS  F9E.4
062EE:  BRA    62EC
062F0:  MOVWF  FAD
062F2:  MOVFF  6FA,705
062F6:  MOVLW  1B
062F8:  MOVLB  7
062FA:  MOVWF  x06
062FC:  MOVLB  0
062FE:  CALL   4F3A
06302:  MOVLW  B3
06304:  MOVWF  FF6
06306:  MOVLW  02
06308:  MOVWF  FF7
0630A:  MOVLW  00
0630C:  MOVWF  FF8
0630E:  MOVLW  0C
06310:  MOVLB  7
06312:  MOVWF  x05
06314:  MOVLB  0
06316:  CALL   4EDC
....................       SendDataDisplay(); 
0631A:  CALL   38F8
....................    }else if(ACiclos[i]==12){ 
0631E:  BRA    6516
06320:  MOVLB  3
06322:  CLRF   03
06324:  MOVF   x52,W
06326:  ADDLW  FE
06328:  MOVWF  FE9
0632A:  MOVLW  03
0632C:  ADDWFC 03,W
0632E:  MOVWF  FEA
06330:  MOVF   FEF,W
06332:  SUBLW  0C
06334:  BNZ   6376
....................       printf("A%u.txt=\"Calen\"",i+1); 
06336:  MOVLW  01
06338:  ADDWF  x52,W
0633A:  MOVLB  6
0633C:  MOVWF  xFA
0633E:  MOVLW  41
06340:  BTFSS  F9E.4
06342:  BRA    6340
06344:  MOVWF  FAD
06346:  MOVFF  6FA,705
0634A:  MOVLW  1B
0634C:  MOVLB  7
0634E:  MOVWF  x06
06350:  MOVLB  0
06352:  CALL   4F3A
06356:  MOVLW  C3
06358:  MOVWF  FF6
0635A:  MOVLW  02
0635C:  MOVWF  FF7
0635E:  MOVLW  00
06360:  MOVWF  FF8
06362:  MOVLW  0C
06364:  MOVLB  7
06366:  MOVWF  x05
06368:  MOVLB  0
0636A:  CALL   4EDC
....................       SendDataDisplay(); 
0636E:  CALL   38F8
....................    }else if(ACiclos[i]==13){ 
06372:  BRA    6516
06374:  MOVLB  3
06376:  CLRF   03
06378:  MOVF   x52,W
0637A:  ADDLW  FE
0637C:  MOVWF  FE9
0637E:  MOVLW  03
06380:  ADDWFC 03,W
06382:  MOVWF  FEA
06384:  MOVF   FEF,W
06386:  SUBLW  0D
06388:  BNZ   63CA
....................       printf("A%u.txt=\"Desfoga\"",i+1); 
0638A:  MOVLW  01
0638C:  ADDWF  x52,W
0638E:  MOVLB  6
06390:  MOVWF  xFA
06392:  MOVLW  41
06394:  BTFSS  F9E.4
06396:  BRA    6394
06398:  MOVWF  FAD
0639A:  MOVFF  6FA,705
0639E:  MOVLW  1B
063A0:  MOVLB  7
063A2:  MOVWF  x06
063A4:  MOVLB  0
063A6:  CALL   4F3A
063AA:  MOVLW  D3
063AC:  MOVWF  FF6
063AE:  MOVLW  02
063B0:  MOVWF  FF7
063B2:  MOVLW  00
063B4:  MOVWF  FF8
063B6:  MOVLW  0E
063B8:  MOVLB  7
063BA:  MOVWF  x05
063BC:  MOVLB  0
063BE:  CALL   4EDC
....................       SendDataDisplay(); 
063C2:  CALL   38F8
....................    }else if(ACiclos[i]==14){ 
063C6:  BRA    6516
063C8:  MOVLB  3
063CA:  CLRF   03
063CC:  MOVF   x52,W
063CE:  ADDLW  FE
063D0:  MOVWF  FE9
063D2:  MOVLW  03
063D4:  ADDWFC 03,W
063D6:  MOVWF  FEA
063D8:  MOVF   FEF,W
063DA:  SUBLW  0E
063DC:  BNZ   641E
....................       printf("A%u.txt=\"Finalizado\"",i+1); 
063DE:  MOVLW  01
063E0:  ADDWF  x52,W
063E2:  MOVLB  6
063E4:  MOVWF  xFA
063E6:  MOVLW  41
063E8:  BTFSS  F9E.4
063EA:  BRA    63E8
063EC:  MOVWF  FAD
063EE:  MOVFF  6FA,705
063F2:  MOVLW  1B
063F4:  MOVLB  7
063F6:  MOVWF  x06
063F8:  MOVLB  0
063FA:  CALL   4F3A
063FE:  MOVLW  E5
06400:  MOVWF  FF6
06402:  MOVLW  02
06404:  MOVWF  FF7
06406:  MOVLW  00
06408:  MOVWF  FF8
0640A:  MOVLW  11
0640C:  MOVLB  7
0640E:  MOVWF  x05
06410:  MOVLB  0
06412:  CALL   4EDC
....................       SendDataDisplay(); 
06416:  CALL   38F8
....................    }else if(ACiclos[i]==15){ 
0641A:  BRA    6516
0641C:  MOVLB  3
0641E:  CLRF   03
06420:  MOVF   x52,W
06422:  ADDLW  FE
06424:  MOVWF  FE9
06426:  MOVLW  03
06428:  ADDWFC 03,W
0642A:  MOVWF  FEA
0642C:  MOVF   FEF,W
0642E:  SUBLW  0F
06430:  BNZ   6472
....................       printf("A%u.txt=\"Secando\"",i+1); 
06432:  MOVLW  01
06434:  ADDWF  x52,W
06436:  MOVLB  6
06438:  MOVWF  xFA
0643A:  MOVLW  41
0643C:  BTFSS  F9E.4
0643E:  BRA    643C
06440:  MOVWF  FAD
06442:  MOVFF  6FA,705
06446:  MOVLW  1B
06448:  MOVLB  7
0644A:  MOVWF  x06
0644C:  MOVLB  0
0644E:  CALL   4F3A
06452:  MOVLW  FB
06454:  MOVWF  FF6
06456:  MOVLW  02
06458:  MOVWF  FF7
0645A:  MOVLW  00
0645C:  MOVWF  FF8
0645E:  MOVLW  0E
06460:  MOVLB  7
06462:  MOVWF  x05
06464:  MOVLB  0
06466:  CALL   4EDC
....................       SendDataDisplay(); 
0646A:  CALL   38F8
....................    }else if(ACiclos[i]==16){ 
0646E:  BRA    6516
06470:  MOVLB  3
06472:  CLRF   03
06474:  MOVF   x52,W
06476:  ADDLW  FE
06478:  MOVWF  FE9
0647A:  MOVLW  03
0647C:  ADDWFC 03,W
0647E:  MOVWF  FEA
06480:  MOVF   FEF,W
06482:  SUBLW  10
06484:  BNZ   64C6
....................       printf("A%u.txt=\"Esterilizando\"",i+1); 
06486:  MOVLW  01
06488:  ADDWF  x52,W
0648A:  MOVLB  6
0648C:  MOVWF  xFA
0648E:  MOVLW  41
06490:  BTFSS  F9E.4
06492:  BRA    6490
06494:  MOVWF  FAD
06496:  MOVFF  6FA,705
0649A:  MOVLW  1B
0649C:  MOVLB  7
0649E:  MOVWF  x06
064A0:  MOVLB  0
064A2:  CALL   4F3A
064A6:  MOVLW  0D
064A8:  MOVWF  FF6
064AA:  MOVLW  03
064AC:  MOVWF  FF7
064AE:  MOVLW  00
064B0:  MOVWF  FF8
064B2:  MOVLW  14
064B4:  MOVLB  7
064B6:  MOVWF  x05
064B8:  MOVLB  0
064BA:  CALL   4EDC
....................       SendDataDisplay(); 
064BE:  CALL   38F8
....................    }else if(ACiclos[i]==17){ 
064C2:  BRA    6516
064C4:  MOVLB  3
064C6:  CLRF   03
064C8:  MOVF   x52,W
064CA:  ADDLW  FE
064CC:  MOVWF  FE9
064CE:  MOVLW  03
064D0:  ADDWFC 03,W
064D2:  MOVWF  FEA
064D4:  MOVF   FEF,W
064D6:  SUBLW  11
064D8:  BNZ   6518
....................       printf("A%u.txt=\"Enfriando\"",i+1); 
064DA:  MOVLW  01
064DC:  ADDWF  x52,W
064DE:  MOVLB  6
064E0:  MOVWF  xFA
064E2:  MOVLW  41
064E4:  BTFSS  F9E.4
064E6:  BRA    64E4
064E8:  MOVWF  FAD
064EA:  MOVFF  6FA,705
064EE:  MOVLW  1B
064F0:  MOVLB  7
064F2:  MOVWF  x06
064F4:  MOVLB  0
064F6:  CALL   4F3A
064FA:  MOVLW  25
064FC:  MOVWF  FF6
064FE:  MOVLW  03
06500:  MOVWF  FF7
06502:  MOVLW  00
06504:  MOVWF  FF8
06506:  MOVLW  10
06508:  MOVLB  7
0650A:  MOVWF  x05
0650C:  MOVLB  0
0650E:  CALL   4EDC
....................       SendDataDisplay(); 
06512:  CALL   38F8
06516:  MOVLB  3
....................    } 
.................... } 
06518:  MOVLB  0
0651A:  GOTO   C18A (RETURN)
....................  
.................... void graficaCurva(int16 tGrafica){ 
....................    if(tiempos2>=tGrafica){ 
*
04B2C:  MOVLB  6
04B2E:  MOVF   xFB,W
04B30:  MOVLB  3
04B32:  SUBWF  x5F,W
04B34:  BNC   4B4C
04B36:  BNZ   4B42
04B38:  MOVLB  6
04B3A:  MOVF   xFA,W
04B3C:  MOVLB  3
04B3E:  SUBWF  x5E,W
04B40:  BNC   4B4C
....................       Grafica=1; 
04B42:  MOVLB  0
04B44:  BSF    xA4.4
....................       tiempos2=0; 
04B46:  MOVLB  3
04B48:  CLRF   x5F
04B4A:  CLRF   x5E
....................    } 
.................... } 
04B4C:  MOVLB  0
04B4E:  GOTO   85EE (RETURN)
....................  
.................... void muestreo(int16 tmuestreo){ 
....................    if(tiempos3>=tmuestreo){ 
*
04B84:  MOVLB  6
04B86:  MOVF   xFB,W
04B88:  MOVLB  3
04B8A:  SUBWF  x61,W
04B8C:  BTFSS  FD8.0
04B8E:  BRA    4D50
04B90:  BNZ   4B9E
04B92:  MOVLB  6
04B94:  MOVF   xFA,W
04B96:  MOVLB  3
04B98:  SUBWF  x60,W
04B9A:  BTFSS  FD8.0
04B9C:  BRA    4D50
....................       Temperatura=LeerPt100(0,MediaMovil); 
04B9E:  MOVLB  7
04BA0:  CLRF   x02
04BA2:  MOVFF  2CF,703
04BA6:  MOVLB  0
04BA8:  CALL   3AA4
04BAC:  MOVFF  03,319
04BB0:  MOVFF  02,318
04BB4:  MOVFF  01,317
04BB8:  MOVFF  00,316
....................       Temperatura2=LeerPt100(1,MediaMovil); 
04BBC:  MOVLW  01
04BBE:  MOVLB  7
04BC0:  MOVWF  x02
04BC2:  MOVFF  2CF,703
04BC6:  MOVLB  0
04BC8:  CALL   3AA4
04BCC:  MOVFF  03,321
04BD0:  MOVFF  02,320
04BD4:  MOVFF  01,31F
04BD8:  MOVFF  00,31E
....................       PresionCamara=Leer_Sensor_Presion_Camara(5); 
04BDC:  MOVLW  05
04BDE:  MOVLB  7
04BE0:  MOVWF  x02
04BE2:  MOVLB  0
04BE4:  CALL   4384
04BE8:  MOVFF  03,715
04BEC:  MOVFF  02,714
04BF0:  MOVFF  01,713
04BF4:  MOVFF  00,712
04BF8:  RCALL  4582
04BFA:  MOVFF  02,369
04BFE:  MOVFF  01,368
....................       //PresionPreCamara=Leer_Sensor_Presion_PreCamara(5); 
....................       PresionPreCamara=0; 
04C02:  MOVLB  3
04C04:  CLRF   x6B
04C06:  CLRF   x6A
....................       rtc_get_date(Dia,Mes,Year,dow); 
....................       rtc_get_time(Hora,Minuto,Segundo); 
....................       if(sensores(2)<512) 
*
04CBE:  MOVLW  02
04CC0:  MOVLB  7
04CC2:  MOVWF  x06
04CC4:  MOVLB  0
04CC6:  CALL   3956
04CCA:  MOVFF  00,6FC
04CCE:  MOVFF  01,6FD
04CD2:  MOVFF  02,6FE
04CD6:  MOVFF  03,6FF
04CDA:  MOVFF  03,70B
04CDE:  MOVFF  02,70A
04CE2:  MOVFF  01,709
04CE6:  MOVFF  00,708
04CEA:  MOVLB  7
04CEC:  CLRF   x0F
04CEE:  CLRF   x0E
04CF0:  CLRF   x0D
04CF2:  MOVLW  88
04CF4:  MOVWF  x0C
04CF6:  MOVLB  0
04CF8:  CALL   1FB2
04CFC:  BNC   4D02
....................          LOW=ON; 
04CFE:  BSF    xA3.6
....................       else 
04D00:  BRA    4D04
....................          LOW=OFF; 
04D02:  BCF    xA3.6
....................        
....................       if(sensores(3)<512)//3 
04D04:  MOVLW  03
04D06:  MOVLB  7
04D08:  MOVWF  x06
04D0A:  MOVLB  0
04D0C:  CALL   3956
04D10:  MOVFF  00,6FC
04D14:  MOVFF  01,6FD
04D18:  MOVFF  02,6FE
04D1C:  MOVFF  03,6FF
04D20:  MOVFF  03,70B
04D24:  MOVFF  02,70A
04D28:  MOVFF  01,709
04D2C:  MOVFF  00,708
04D30:  MOVLB  7
04D32:  CLRF   x0F
04D34:  CLRF   x0E
04D36:  CLRF   x0D
04D38:  MOVLW  88
04D3A:  MOVWF  x0C
04D3C:  MOVLB  0
04D3E:  CALL   1FB2
04D42:  BNC   4D48
....................          HIG=ON; 
04D44:  BSF    xA3.7
....................       else 
04D46:  BRA    4D4A
....................          HIG=OFF; 
04D48:  BCF    xA3.7
....................       tiempos3=0; 
04D4A:  MOVLB  3
04D4C:  CLRF   x61
04D4E:  CLRF   x60
....................    } 
.................... } 
04D50:  MOVLB  0
04D52:  GOTO   85FC (RETURN)
....................  
.................... void monitoreaAgua(){ 
....................       // Monitoreo Nivel de Agua//-------------------------------------- 
....................       if(!LOW){//Si no sensa agua en el nivel alto y no se ha llenado el calderin          
04D56:  BTFSC  xA3.6
04D58:  BRA    4D6C
....................          TiempoSensadoNivel=0; 
04D5A:  CLRF   xAA
04D5C:  CLRF   xA9
....................          Controlando=0;    
04D5E:  MOVLB  3
04D60:  CLRF   x48
....................          //CalderinLleno=OFF; 
....................          SensadoNivel=OFF; 
04D62:  MOVLB  0
04D64:  BCF    xA0.4
....................          TiempoSensadoNivel=0; 
04D66:  CLRF   xAA
04D68:  CLRF   xA9
....................       }else{ 
04D6A:  BRA    4D7E
....................          SensadoNivel=ON; 
04D6C:  BSF    xA0.4
....................          if(TiempoSensadoNivel>2){ 
04D6E:  MOVF   xAA,F
04D70:  BNZ   4D78
04D72:  MOVF   xA9,W
04D74:  SUBLW  02
04D76:  BC    4D7E
....................             SensadoNivel=OFF; 
04D78:  BCF    xA0.4
....................             CalderinLleno=ON; 
04D7A:  BSF    xA0.0
....................             IniciaLlenado=OFF;                   
04D7C:  BCF    x9F.7
....................          } 
....................       } 
....................    /* 
....................    if(LOWB){ 
....................       SensadoNivelR=ON; 
....................       if(TiempoSensadoNivelR>2){ 
....................          SensadoNivelR=OFF; 
....................          ReservorioLleno=ON; 
....................       } 
....................    }else{ 
....................       SensadoNivelR=OFF; 
....................       TiempoSensadoNivelR=0; 
....................       ReservorioLleno=OFF; 
....................    } 
....................    */ 
.................... } 
04D7E:  GOTO   8600 (RETURN)
....................  
.................... void monitoreaStop(){ 
....................       if(!STOP && !IniciaCiclo && !PruebaEstados){ 
*
04E84:  BSF    F93.5
04E86:  BTFSS  F81.5
04E88:  BRA    4ED2
04E8A:  BTFSC  xA0.1
04E8C:  BRA    4ED2
04E8E:  BTFSC  xA1.2
04E90:  BRA    4ED2
....................          if(!disp_Stop){ 
04E92:  BTFSC  xA4.5
04E94:  BRA    4EB4
....................             disp_Stop=1;Menu=255; 
04E96:  BSF    xA4.5
04E98:  MOVLW  FF
04E9A:  MOVLB  3
04E9C:  MOVWF  x4F
....................             printf("page Emergencia"); 
04E9E:  MOVLW  36
04EA0:  MOVWF  FF6
04EA2:  MOVLW  03
04EA4:  MOVWF  FF7
04EA6:  MOVLW  00
04EA8:  MOVWF  FF8
04EAA:  MOVLB  0
04EAC:  CALL   38C6
....................             SendDataDisplay(); 
04EB0:  CALL   38F8
....................          } 
....................          codigoAlarma=200; 
04EB4:  MOVLW  C8
04EB6:  MOVLB  3
04EB8:  MOVWF  x98
....................          Controlando=0;          
04EBA:  CLRF   x48
....................          Desfogue_on;          
04EBC:  BCF    F8B.1
04EBE:  BCF    F94.1
....................          DesfogueSuave=OFF; 
04EC0:  MOVLB  0
04EC2:  BCF    xA0.6
....................          ActivaAlarma(1); 
04EC4:  MOVLW  01
04EC6:  MOVLB  6
04EC8:  MOVWF  xFA
04ECA:  MOVLB  0
04ECC:  RCALL  4D82
....................          BorraBuffer(); 
04ECE:  BRA    4E58
....................       }else{ 
04ED0:  BRA    4ED8
....................          if(disp_Stop){ 
04ED2:  BTFSS  xA4.5
04ED4:  BRA    4ED8
....................             reset_cpu(); 
04ED6:  RESET
....................          } 
....................       }           
.................... } 
04ED8:  GOTO   8604 (RETURN)
....................  
.................... void actualizaTabla(){ 
....................    diaCiclos=read_ext_eeprom(2+(cicloVisto*320)); 
*
05540:  MOVLB  7
05542:  CLRF   x0B
05544:  MOVFF  394,70A
05548:  MOVLW  01
0554A:  MOVWF  x0D
0554C:  MOVLW  40
0554E:  MOVWF  x0C
05550:  MOVLB  0
05552:  CALL   19F0
05556:  MOVFF  02,03
0555A:  MOVF   01,W
0555C:  ADDLW  02
0555E:  MOVLB  7
05560:  MOVWF  x00
05562:  MOVLW  00
05564:  ADDWFC 02,W
05566:  MOVWF  x01
05568:  MOVWF  x06
0556A:  MOVFF  700,705
0556E:  MOVLB  0
05570:  CALL   1AF4
05574:  MOVFF  01,405
....................          if(diaCiclos>31) 
05578:  MOVLB  4
0557A:  MOVF   x05,W
0557C:  SUBLW  1F
0557E:  BC    5584
....................             diaCiclos=1; 
05580:  MOVLW  01
05582:  MOVWF  x05
....................          mesCiclos=read_ext_eeprom(3+(cicloVisto*320)); 
05584:  MOVLB  7
05586:  CLRF   x0B
05588:  MOVFF  394,70A
0558C:  MOVLW  01
0558E:  MOVWF  x0D
05590:  MOVLW  40
05592:  MOVWF  x0C
05594:  MOVLB  0
05596:  CALL   19F0
0559A:  MOVFF  02,03
0559E:  MOVF   01,W
055A0:  ADDLW  03
055A2:  MOVLB  7
055A4:  MOVWF  x00
055A6:  MOVLW  00
055A8:  ADDWFC 02,W
055AA:  MOVWF  x01
055AC:  MOVWF  x06
055AE:  MOVFF  700,705
055B2:  MOVLB  0
055B4:  CALL   1AF4
055B8:  MOVFF  01,406
....................          if(mesCiclos>12) 
055BC:  MOVLB  4
055BE:  MOVF   x06,W
055C0:  SUBLW  0C
055C2:  BC    55C8
....................             mesCiclos=1; 
055C4:  MOVLW  01
055C6:  MOVWF  x06
....................          yearCiclos=read_ext_eeprom(4+(cicloVisto*320)); 
055C8:  MOVLB  7
055CA:  CLRF   x0B
055CC:  MOVFF  394,70A
055D0:  MOVLW  01
055D2:  MOVWF  x0D
055D4:  MOVLW  40
055D6:  MOVWF  x0C
055D8:  MOVLB  0
055DA:  CALL   19F0
055DE:  MOVFF  02,03
055E2:  MOVF   01,W
055E4:  ADDLW  04
055E6:  MOVLB  7
055E8:  MOVWF  x00
055EA:  MOVLW  00
055EC:  ADDWFC 02,W
055EE:  MOVWF  x01
055F0:  MOVWF  x06
055F2:  MOVFF  700,705
055F6:  MOVLB  0
055F8:  CALL   1AF4
055FC:  MOVFF  01,407
....................          if(yearCiclos>99) 
05600:  MOVLB  4
05602:  MOVF   x07,W
05604:  SUBLW  63
05606:  BC    560C
....................             yearCiclos=19; 
05608:  MOVLW  13
0560A:  MOVWF  x07
....................          cicloCiclos=read_ext_eeprom(1+(cicloVisto*320)); 
0560C:  MOVLB  7
0560E:  CLRF   x0B
05610:  MOVFF  394,70A
05614:  MOVLW  01
05616:  MOVWF  x0D
05618:  MOVLW  40
0561A:  MOVWF  x0C
0561C:  MOVLB  0
0561E:  CALL   19F0
05622:  MOVFF  02,03
05626:  MOVF   01,W
05628:  ADDLW  01
0562A:  MOVLB  7
0562C:  MOVWF  x00
0562E:  MOVLW  00
05630:  ADDWFC 02,W
05632:  MOVWF  x01
05634:  MOVWF  x06
05636:  MOVFF  700,705
0563A:  MOVLB  0
0563C:  CALL   1AF4
05640:  MOVFF  01,409
....................          if(cicloCiclos>20) 
05644:  MOVLB  4
05646:  MOVF   x09,W
05648:  SUBLW  14
0564A:  BC    5650
....................             cicloCiclos=1; 
0564C:  MOVLW  01
0564E:  MOVWF  x09
....................          usuarioCiclos=read_ext_eeprom((cicloVisto*320)); 
05650:  MOVLB  7
05652:  CLRF   x0B
05654:  MOVFF  394,70A
05658:  MOVLW  01
0565A:  MOVWF  x0D
0565C:  MOVLW  40
0565E:  MOVWF  x0C
05660:  MOVLB  0
05662:  CALL   19F0
05666:  MOVFF  02,701
0566A:  MOVFF  01,700
0566E:  MOVFF  02,706
05672:  MOVFF  01,705
05676:  CALL   1AF4
0567A:  MOVFF  01,408
....................          if(usuarioCiclos>10) 
0567E:  MOVLB  4
05680:  MOVF   x08,W
05682:  SUBLW  0A
05684:  BC    568A
....................             usuarioCiclos=1; 
05686:  MOVLW  01
05688:  MOVWF  x08
....................          for(i=0;i<7;i++){//Lee Valores para completar la Tabla 
0568A:  MOVLB  3
0568C:  CLRF   x52
0568E:  MOVF   x52,W
05690:  SUBLW  06
05692:  BTFSS  FD8.0
05694:  BRA    5BDE
....................             horaCiclos[i]=read_ext_eeprom((cicloVisto*320)+11+((cicloVisualizado+i)*9)); 
05696:  CLRF   03
05698:  MOVF   x52,W
0569A:  ADDLW  F0
0569C:  MOVWF  01
0569E:  MOVLW  03
056A0:  ADDWFC 03,F
056A2:  MOVFF  01,700
056A6:  MOVLB  7
056A8:  MOVFF  03,701
056AC:  CLRF   x0B
056AE:  MOVFF  394,70A
056B2:  MOVLW  01
056B4:  MOVWF  x0D
056B6:  MOVLW  40
056B8:  MOVWF  x0C
056BA:  MOVLB  0
056BC:  CALL   19F0
056C0:  MOVFF  02,703
056C4:  MOVFF  01,702
056C8:  MOVLW  0B
056CA:  MOVLB  7
056CC:  ADDWF  x02,F
056CE:  MOVLW  00
056D0:  ADDWFC x03,F
056D2:  MOVLB  3
056D4:  MOVF   x52,W
056D6:  ADDWF  x95,W
056D8:  MULLW  09
056DA:  MOVF   FF3,W
056DC:  MOVLB  7
056DE:  ADDWF  x02,F
056E0:  MOVLW  00
056E2:  ADDWFC x03,F
056E4:  MOVFF  703,706
056E8:  MOVFF  702,705
056EC:  MOVLB  0
056EE:  CALL   1AF4
056F2:  MOVFF  701,FEA
056F6:  MOVFF  700,FE9
056FA:  MOVFF  01,FEF
....................             if(horaCiclos[i]>24) 
056FE:  CLRF   03
05700:  MOVLB  3
05702:  MOVF   x52,W
05704:  ADDLW  F0
05706:  MOVWF  FE9
05708:  MOVLW  03
0570A:  ADDWFC 03,W
0570C:  MOVWF  FEA
0570E:  MOVF   FEF,W
05710:  SUBLW  18
05712:  BC    5724
....................                horaCiclos[i]=0; 
05714:  CLRF   03
05716:  MOVF   x52,W
05718:  ADDLW  F0
0571A:  MOVWF  FE9
0571C:  MOVLW  03
0571E:  ADDWFC 03,W
05720:  MOVWF  FEA
05722:  CLRF   FEF
....................             minutoCiclos[i]=read_ext_eeprom((cicloVisto*320)+12+((cicloVisualizado+i)*9)); 
05724:  CLRF   03
05726:  MOVF   x52,W
05728:  ADDLW  F7
0572A:  MOVWF  01
0572C:  MOVLW  03
0572E:  ADDWFC 03,F
05730:  MOVFF  01,700
05734:  MOVLB  7
05736:  MOVFF  03,701
0573A:  CLRF   x0B
0573C:  MOVFF  394,70A
05740:  MOVLW  01
05742:  MOVWF  x0D
05744:  MOVLW  40
05746:  MOVWF  x0C
05748:  MOVLB  0
0574A:  CALL   19F0
0574E:  MOVFF  02,703
05752:  MOVFF  01,702
05756:  MOVLW  0C
05758:  MOVLB  7
0575A:  ADDWF  x02,F
0575C:  MOVLW  00
0575E:  ADDWFC x03,F
05760:  MOVLB  3
05762:  MOVF   x52,W
05764:  ADDWF  x95,W
05766:  MULLW  09
05768:  MOVF   FF3,W
0576A:  MOVLB  7
0576C:  ADDWF  x02,F
0576E:  MOVLW  00
05770:  ADDWFC x03,F
05772:  MOVFF  703,706
05776:  MOVFF  702,705
0577A:  MOVLB  0
0577C:  CALL   1AF4
05780:  MOVFF  701,FEA
05784:  MOVFF  700,FE9
05788:  MOVFF  01,FEF
....................             if(minutoCiclos[i]>59) 
0578C:  CLRF   03
0578E:  MOVLB  3
05790:  MOVF   x52,W
05792:  ADDLW  F7
05794:  MOVWF  FE9
05796:  MOVLW  03
05798:  ADDWFC 03,W
0579A:  MOVWF  FEA
0579C:  MOVF   FEF,W
0579E:  SUBLW  3B
057A0:  BC    57B2
....................                minutoCiclos[i]=0; 
057A2:  CLRF   03
057A4:  MOVF   x52,W
057A6:  ADDLW  F7
057A8:  MOVWF  FE9
057AA:  MOVLW  03
057AC:  ADDWFC 03,W
057AE:  MOVWF  FEA
057B0:  CLRF   FEF
....................             TCiclos[i]=read_ext_eeprom((cicloVisto*320)+5+((cicloVisualizado+i)*9))+inttofloat(read_ext_eeprom((cicloVisto*320)+6+((cicloVisualizado+i)*9))); 
057B2:  MOVF   x52,W
057B4:  MULLW  04
057B6:  MOVF   FF3,W
057B8:  CLRF   03
057BA:  ADDLW  B8
057BC:  MOVWF  01
057BE:  MOVLW  03
057C0:  ADDWFC 03,F
057C2:  MOVFF  01,700
057C6:  MOVLB  7
057C8:  MOVFF  03,701
057CC:  CLRF   x0B
057CE:  MOVFF  394,70A
057D2:  MOVLW  01
057D4:  MOVWF  x0D
057D6:  MOVLW  40
057D8:  MOVWF  x0C
057DA:  MOVLB  0
057DC:  CALL   19F0
057E0:  MOVFF  02,703
057E4:  MOVFF  01,702
057E8:  MOVLW  05
057EA:  MOVLB  7
057EC:  ADDWF  x02,F
057EE:  MOVLW  00
057F0:  ADDWFC x03,F
057F2:  MOVLB  3
057F4:  MOVF   x52,W
057F6:  ADDWF  x95,W
057F8:  MULLW  09
057FA:  MOVF   FF3,W
057FC:  MOVLB  7
057FE:  ADDWF  x02,F
05800:  MOVLW  00
05802:  ADDWFC x03,F
05804:  MOVFF  703,706
05808:  MOVFF  702,705
0580C:  MOVLB  0
0580E:  CALL   1AF4
05812:  MOVFF  01,702
05816:  MOVLB  7
05818:  CLRF   x0B
0581A:  MOVFF  394,70A
0581E:  MOVLW  01
05820:  MOVWF  x0D
05822:  MOVLW  40
05824:  MOVWF  x0C
05826:  MOVLB  0
05828:  CALL   19F0
0582C:  MOVFF  02,704
05830:  MOVFF  01,703
05834:  MOVLW  06
05836:  MOVLB  7
05838:  ADDWF  x03,F
0583A:  MOVLW  00
0583C:  ADDWFC x04,F
0583E:  MOVLB  3
05840:  MOVF   x52,W
05842:  ADDWF  x95,W
05844:  MULLW  09
05846:  MOVF   FF3,W
05848:  MOVLB  7
0584A:  ADDWF  x03,F
0584C:  MOVLW  00
0584E:  ADDWFC x04,F
05850:  MOVFF  704,706
05854:  MOVFF  703,705
05858:  MOVLB  0
0585A:  CALL   1AF4
0585E:  MOVFF  01,703
05862:  MOVFF  01,704
05866:  CALL   1CFA
0586A:  MOVFF  00,703
0586E:  MOVFF  01,704
05872:  MOVFF  02,705
05876:  MOVFF  03,706
0587A:  MOVLB  7
0587C:  CLRF   x13
0587E:  MOVFF  702,712
05882:  MOVLB  0
05884:  CALL   19BA
05888:  MOVFF  FEA,708
0588C:  MOVFF  FE9,707
05890:  BCF    FD8.1
05892:  MOVFF  03,715
05896:  MOVFF  02,714
0589A:  MOVFF  01,713
0589E:  MOVFF  00,712
058A2:  MOVFF  706,719
058A6:  MOVFF  705,718
058AA:  MOVFF  704,717
058AE:  MOVFF  703,716
058B2:  CALL   1D3A
058B6:  MOVFF  708,FEA
058BA:  MOVFF  707,FE9
058BE:  MOVFF  701,FEA
058C2:  MOVFF  700,FE9
058C6:  MOVFF  00,FEF
058CA:  MOVFF  01,FEC
058CE:  MOVFF  02,FEC
058D2:  MOVFF  03,FEC
....................             if(TCiclos[i]>150) 
058D6:  MOVLB  3
058D8:  MOVF   x52,W
058DA:  MULLW  04
058DC:  MOVF   FF3,W
058DE:  CLRF   03
058E0:  ADDLW  B8
058E2:  MOVWF  FE9
058E4:  MOVLW  03
058E6:  ADDWFC 03,W
058E8:  MOVWF  FEA
058EA:  MOVFF  FEF,700
058EE:  MOVFF  FEC,701
058F2:  MOVFF  FEC,702
058F6:  MOVFF  FEC,703
058FA:  MOVLB  7
058FC:  CLRF   x0B
058FE:  CLRF   x0A
05900:  MOVLW  16
05902:  MOVWF  x09
05904:  MOVLW  86
05906:  MOVWF  x08
05908:  MOVFF  703,70F
0590C:  MOVFF  702,70E
05910:  MOVFF  701,70D
05914:  MOVFF  700,70C
05918:  MOVLB  0
0591A:  CALL   1FB2
0591E:  BNC   593E
....................                TCiclos[i]=0; 
05920:  MOVLB  3
05922:  MOVF   x52,W
05924:  MULLW  04
05926:  MOVF   FF3,W
05928:  CLRF   03
0592A:  ADDLW  B8
0592C:  MOVWF  FE9
0592E:  MOVLW  03
05930:  ADDWFC 03,W
05932:  MOVWF  FEA
05934:  CLRF   FEF
05936:  CLRF   FEC
05938:  CLRF   FEC
0593A:  CLRF   FEC
0593C:  MOVLB  0
....................             PcCiclos[i]=make16(read_ext_eeprom((cicloVisto*320)+7+((cicloVisualizado+i)*9)),read_ext_eeprom((cicloVisto*320)+8+((cicloVisualizado+i)*9))); 
0593E:  BCF    FD8.0
05940:  MOVLB  3
05942:  RLCF   x52,W
05944:  CLRF   03
05946:  ADDLW  D4
05948:  MOVWF  01
0594A:  MOVLW  03
0594C:  ADDWFC 03,F
0594E:  MOVFF  01,700
05952:  MOVLB  7
05954:  MOVFF  03,701
05958:  CLRF   x0B
0595A:  MOVFF  394,70A
0595E:  MOVLW  01
05960:  MOVWF  x0D
05962:  MOVLW  40
05964:  MOVWF  x0C
05966:  MOVLB  0
05968:  CALL   19F0
0596C:  MOVFF  02,703
05970:  MOVFF  01,702
05974:  MOVLW  07
05976:  MOVLB  7
05978:  ADDWF  x02,F
0597A:  MOVLW  00
0597C:  ADDWFC x03,F
0597E:  MOVLB  3
05980:  MOVF   x52,W
05982:  ADDWF  x95,W
05984:  MULLW  09
05986:  MOVF   FF3,W
05988:  MOVLB  7
0598A:  ADDWF  x02,F
0598C:  MOVLW  00
0598E:  ADDWFC x03,F
05990:  MOVFF  703,706
05994:  MOVFF  702,705
05998:  MOVLB  0
0599A:  CALL   1AF4
0599E:  MOVFF  01,702
059A2:  MOVLB  7
059A4:  CLRF   x0B
059A6:  MOVFF  394,70A
059AA:  MOVLW  01
059AC:  MOVWF  x0D
059AE:  MOVLW  40
059B0:  MOVWF  x0C
059B2:  MOVLB  0
059B4:  CALL   19F0
059B8:  MOVFF  02,704
059BC:  MOVFF  01,703
059C0:  MOVLW  08
059C2:  MOVLB  7
059C4:  ADDWF  x03,F
059C6:  MOVLW  00
059C8:  ADDWFC x04,F
059CA:  MOVLB  3
059CC:  MOVF   x52,W
059CE:  ADDWF  x95,W
059D0:  MULLW  09
059D2:  MOVF   FF3,W
059D4:  MOVLB  7
059D6:  ADDWF  x03,F
059D8:  MOVLW  00
059DA:  ADDWFC x04,F
059DC:  MOVFF  704,706
059E0:  MOVFF  703,705
059E4:  MOVLB  0
059E6:  CALL   1AF4
059EA:  MOVFF  701,FEA
059EE:  MOVFF  700,FE9
059F2:  MOVFF  702,FEC
059F6:  MOVF   FED,F
059F8:  MOVFF  01,FEF
....................             if(PcCiclos[i]>400) 
059FC:  BCF    FD8.0
059FE:  MOVLB  3
05A00:  RLCF   x52,W
05A02:  CLRF   03
05A04:  ADDLW  D4
05A06:  MOVWF  FE9
05A08:  MOVLW  03
05A0A:  ADDWFC 03,W
05A0C:  MOVWF  FEA
05A0E:  MOVFF  FEC,701
05A12:  MOVF   FED,F
05A14:  MOVFF  FEF,700
05A18:  MOVLB  7
05A1A:  MOVF   x01,W
05A1C:  SUBLW  00
05A1E:  BC    5A44
05A20:  XORLW  FF
05A22:  BNZ   5A2A
05A24:  MOVF   x00,W
05A26:  SUBLW  90
05A28:  BC    5A44
....................                PcCiclos[i]=0; 
05A2A:  BCF    FD8.0
05A2C:  MOVLB  3
05A2E:  RLCF   x52,W
05A30:  CLRF   03
05A32:  ADDLW  D4
05A34:  MOVWF  FE9
05A36:  MOVLW  03
05A38:  ADDWFC 03,W
05A3A:  MOVWF  FEA
05A3C:  CLRF   FEC
05A3E:  MOVF   FED,F
05A40:  CLRF   FEF
05A42:  MOVLB  7
....................             PpcCiclos[i]=make16(read_ext_eeprom((cicloVisto*320)+9+((cicloVisualizado+i)*9)),read_ext_eeprom((cicloVisto*320)+10+((cicloVisualizado+i)*9))); 
05A44:  BCF    FD8.0
05A46:  MOVLB  3
05A48:  RLCF   x52,W
05A4A:  CLRF   03
05A4C:  ADDLW  E2
05A4E:  MOVWF  01
05A50:  MOVLW  03
05A52:  ADDWFC 03,F
05A54:  MOVFF  01,700
05A58:  MOVLB  7
05A5A:  MOVFF  03,701
05A5E:  CLRF   x0B
05A60:  MOVFF  394,70A
05A64:  MOVLW  01
05A66:  MOVWF  x0D
05A68:  MOVLW  40
05A6A:  MOVWF  x0C
05A6C:  MOVLB  0
05A6E:  CALL   19F0
05A72:  MOVFF  02,703
05A76:  MOVFF  01,702
05A7A:  MOVLW  09
05A7C:  MOVLB  7
05A7E:  ADDWF  x02,F
05A80:  MOVLW  00
05A82:  ADDWFC x03,F
05A84:  MOVLB  3
05A86:  MOVF   x52,W
05A88:  ADDWF  x95,W
05A8A:  MULLW  09
05A8C:  MOVF   FF3,W
05A8E:  MOVLB  7
05A90:  ADDWF  x02,F
05A92:  MOVLW  00
05A94:  ADDWFC x03,F
05A96:  MOVFF  703,706
05A9A:  MOVFF  702,705
05A9E:  MOVLB  0
05AA0:  CALL   1AF4
05AA4:  MOVFF  01,702
05AA8:  MOVLB  7
05AAA:  CLRF   x0B
05AAC:  MOVFF  394,70A
05AB0:  MOVLW  01
05AB2:  MOVWF  x0D
05AB4:  MOVLW  40
05AB6:  MOVWF  x0C
05AB8:  MOVLB  0
05ABA:  CALL   19F0
05ABE:  MOVFF  02,704
05AC2:  MOVFF  01,703
05AC6:  MOVLW  0A
05AC8:  MOVLB  7
05ACA:  ADDWF  x03,F
05ACC:  MOVLW  00
05ACE:  ADDWFC x04,F
05AD0:  MOVLB  3
05AD2:  MOVF   x52,W
05AD4:  ADDWF  x95,W
05AD6:  MULLW  09
05AD8:  MOVF   FF3,W
05ADA:  MOVLB  7
05ADC:  ADDWF  x03,F
05ADE:  MOVLW  00
05AE0:  ADDWFC x04,F
05AE2:  MOVFF  704,706
05AE6:  MOVFF  703,705
05AEA:  MOVLB  0
05AEC:  CALL   1AF4
05AF0:  MOVFF  701,FEA
05AF4:  MOVFF  700,FE9
05AF8:  MOVFF  702,FEC
05AFC:  MOVF   FED,F
05AFE:  MOVFF  01,FEF
....................             if(PpcCiclos[i]>400) 
05B02:  BCF    FD8.0
05B04:  MOVLB  3
05B06:  RLCF   x52,W
05B08:  CLRF   03
05B0A:  ADDLW  E2
05B0C:  MOVWF  FE9
05B0E:  MOVLW  03
05B10:  ADDWFC 03,W
05B12:  MOVWF  FEA
05B14:  MOVFF  FEC,701
05B18:  MOVF   FED,F
05B1A:  MOVFF  FEF,700
05B1E:  MOVLB  7
05B20:  MOVF   x01,W
05B22:  SUBLW  00
05B24:  BC    5B4A
05B26:  XORLW  FF
05B28:  BNZ   5B30
05B2A:  MOVF   x00,W
05B2C:  SUBLW  90
05B2E:  BC    5B4A
....................                PpcCiclos[i]=0; 
05B30:  BCF    FD8.0
05B32:  MOVLB  3
05B34:  RLCF   x52,W
05B36:  CLRF   03
05B38:  ADDLW  E2
05B3A:  MOVWF  FE9
05B3C:  MOVLW  03
05B3E:  ADDWFC 03,W
05B40:  MOVWF  FEA
05B42:  CLRF   FEC
05B44:  MOVF   FED,F
05B46:  CLRF   FEF
05B48:  MOVLB  7
....................             ACiclos[i]=read_ext_eeprom((cicloVisto*320)+13+((cicloVisualizado+i)*9)); 
05B4A:  CLRF   03
05B4C:  MOVLB  3
05B4E:  MOVF   x52,W
05B50:  ADDLW  FE
05B52:  MOVWF  01
05B54:  MOVLW  03
05B56:  ADDWFC 03,F
05B58:  MOVFF  01,700
05B5C:  MOVLB  7
05B5E:  MOVFF  03,701
05B62:  CLRF   x0B
05B64:  MOVFF  394,70A
05B68:  MOVLW  01
05B6A:  MOVWF  x0D
05B6C:  MOVLW  40
05B6E:  MOVWF  x0C
05B70:  MOVLB  0
05B72:  CALL   19F0
05B76:  MOVFF  02,703
05B7A:  MOVFF  01,702
05B7E:  MOVLW  0D
05B80:  MOVLB  7
05B82:  ADDWF  x02,F
05B84:  MOVLW  00
05B86:  ADDWFC x03,F
05B88:  MOVLB  3
05B8A:  MOVF   x52,W
05B8C:  ADDWF  x95,W
05B8E:  MULLW  09
05B90:  MOVF   FF3,W
05B92:  MOVLB  7
05B94:  ADDWF  x02,F
05B96:  MOVLW  00
05B98:  ADDWFC x03,F
05B9A:  MOVFF  703,706
05B9E:  MOVFF  702,705
05BA2:  MOVLB  0
05BA4:  CALL   1AF4
05BA8:  MOVFF  701,FEA
05BAC:  MOVFF  700,FE9
05BB0:  MOVFF  01,FEF
....................             if(ACiclos[i]>30) 
05BB4:  CLRF   03
05BB6:  MOVLB  3
05BB8:  MOVF   x52,W
05BBA:  ADDLW  FE
05BBC:  MOVWF  FE9
05BBE:  MOVLW  03
05BC0:  ADDWFC 03,W
05BC2:  MOVWF  FEA
05BC4:  MOVF   FEF,W
05BC6:  SUBLW  1E
05BC8:  BC    5BDA
....................                ACiclos[i]=0; 
05BCA:  CLRF   03
05BCC:  MOVF   x52,W
05BCE:  ADDLW  FE
05BD0:  MOVWF  FE9
05BD2:  MOVLW  03
05BD4:  ADDWFC 03,W
05BD6:  MOVWF  FEA
05BD8:  CLRF   FEF
....................          } 
05BDA:  INCF   x52,F
05BDC:  BRA    568E
.................... } 
05BDE:  MOVLB  0
05BE0:  RETLW  00
....................  
.................... void ControlaPresion(){ 
....................    if(PresionCamara<270){ 
*
07B7E:  MOVLB  3
07B80:  MOVF   x69,W
07B82:  SUBLW  01
07B84:  BNC   7B94
07B86:  BNZ   7B8E
07B88:  MOVF   x68,W
07B8A:  SUBLW  0D
07B8C:  BNC   7B94
....................       Aire_on; 
07B8E:  BCF    F8C.0
07B90:  BCF    F95.0
....................    }else if(PresionCamara>=290){ 
07B92:  BRA    7BA8
07B94:  MOVF   x69,W
07B96:  SUBLW  00
07B98:  BC    7BA8
07B9A:  XORLW  FF
07B9C:  BNZ   7BA4
07B9E:  MOVF   x68,W
07BA0:  SUBLW  21
07BA2:  BC    7BA8
....................       Aire_off; 
07BA4:  BSF    F8C.0
07BA6:  BCF    F95.0
....................    } 
.................... } 
07BA8:  MOVLB  0
07BAA:  GOTO   CCCC (RETURN)
....................  
.................... void ControlaPresionVapor(){ 
*
0734E:  MOVLB  6
07350:  CLRF   xFD
07352:  CLRF   xFC
07354:  CLRF   xFB
07356:  CLRF   xFA
....................    float prc=0.0;    
....................    if(tiemporecta>=Derivativo/2.0){ 
07358:  MOVLB  7
0735A:  CLRF   x13
0735C:  MOVFF  32F,712
07360:  MOVLB  0
07362:  CALL   19BA
07366:  MOVFF  03,70F
0736A:  MOVFF  02,70E
0736E:  MOVFF  01,70D
07372:  MOVFF  00,70C
07376:  MOVLB  7
07378:  CLRF   x13
0737A:  CLRF   x12
0737C:  CLRF   x11
0737E:  MOVLW  80
07380:  MOVWF  x10
07382:  MOVLB  0
07384:  CALL   1B9C
07388:  MOVFF  00,700
0738C:  MOVFF  01,701
07390:  MOVFF  02,702
07394:  MOVFF  03,703
07398:  MOVLB  7
0739A:  CLRF   x13
0739C:  MOVFF  347,712
073A0:  MOVLB  0
073A2:  CALL   19BA
073A6:  MOVFF  703,70B
073AA:  MOVFF  702,70A
073AE:  MOVFF  701,709
073B2:  MOVFF  700,708
073B6:  MOVFF  03,70F
073BA:  MOVFF  02,70E
073BE:  MOVFF  01,70D
073C2:  MOVFF  00,70C
073C6:  CALL   1FB2
073CA:  BC    73CE
073CC:  BNZ   73D6
....................       ActualizaRectaPresion(); 
073CE:  BRA    72E0
....................       tiemporecta=0; 
073D0:  MOVLB  3
073D2:  CLRF   x47
073D4:  MOVLB  0
....................    }  
....................    prc=(float)PresionCamara; 
073D6:  MOVFF  369,713
073DA:  MOVFF  368,712
073DE:  CALL   19BA
073E2:  MOVFF  03,6FD
073E6:  MOVFF  02,6FC
073EA:  MOVFF  01,6FB
073EE:  MOVFF  00,6FA
....................    Tactual=((prc)*(prc)*(prc)*p1)+((prc)*(prc)*p2)+(p3*prc)+p4; 
073F2:  MOVFF  6FD,719
073F6:  MOVFF  6FC,718
073FA:  MOVFF  6FB,717
073FE:  MOVFF  6FA,716
07402:  MOVFF  6FD,71D
07406:  MOVFF  6FC,71C
0740A:  MOVFF  6FB,71B
0740E:  MOVFF  6FA,71A
07412:  CALL   39AE
07416:  MOVFF  00,700
0741A:  MOVFF  01,701
0741E:  MOVFF  02,702
07422:  MOVFF  03,703
07426:  MOVFF  03,719
0742A:  MOVFF  02,718
0742E:  MOVFF  01,717
07432:  MOVFF  00,716
07436:  MOVFF  6FD,71D
0743A:  MOVFF  6FC,71C
0743E:  MOVFF  6FB,71B
07442:  MOVFF  6FA,71A
07446:  CALL   39AE
0744A:  MOVFF  00,700
0744E:  MOVFF  01,701
07452:  MOVFF  02,702
07456:  MOVFF  03,703
0745A:  MOVFF  03,719
0745E:  MOVFF  02,718
07462:  MOVFF  01,717
07466:  MOVFF  00,716
0746A:  MOVFF  334,71D
0746E:  MOVFF  333,71C
07472:  MOVFF  332,71B
07476:  MOVFF  331,71A
0747A:  CALL   39AE
0747E:  MOVFF  00,700
07482:  MOVFF  01,701
07486:  MOVFF  02,702
0748A:  MOVFF  03,703
0748E:  MOVFF  6FD,719
07492:  MOVFF  6FC,718
07496:  MOVFF  6FB,717
0749A:  MOVFF  6FA,716
0749E:  MOVFF  6FD,71D
074A2:  MOVFF  6FC,71C
074A6:  MOVFF  6FB,71B
074AA:  MOVFF  6FA,71A
074AE:  CALL   39AE
074B2:  MOVFF  00,704
074B6:  MOVFF  01,705
074BA:  MOVFF  02,706
074BE:  MOVFF  03,707
074C2:  MOVFF  03,719
074C6:  MOVFF  02,718
074CA:  MOVFF  01,717
074CE:  MOVFF  00,716
074D2:  MOVFF  338,71D
074D6:  MOVFF  337,71C
074DA:  MOVFF  336,71B
074DE:  MOVFF  335,71A
074E2:  CALL   39AE
074E6:  BCF    FD8.1
074E8:  MOVFF  703,715
074EC:  MOVFF  702,714
074F0:  MOVFF  701,713
074F4:  MOVFF  700,712
074F8:  MOVFF  03,719
074FC:  MOVFF  02,718
07500:  MOVFF  01,717
07504:  MOVFF  00,716
07508:  CALL   1D3A
0750C:  MOVFF  00,700
07510:  MOVFF  01,701
07514:  MOVFF  02,702
07518:  MOVFF  03,703
0751C:  MOVFF  33C,719
07520:  MOVFF  33B,718
07524:  MOVFF  33A,717
07528:  MOVFF  339,716
0752C:  MOVFF  6FD,71D
07530:  MOVFF  6FC,71C
07534:  MOVFF  6FB,71B
07538:  MOVFF  6FA,71A
0753C:  CALL   39AE
07540:  BCF    FD8.1
07542:  MOVFF  703,715
07546:  MOVFF  702,714
0754A:  MOVFF  701,713
0754E:  MOVFF  700,712
07552:  MOVFF  03,719
07556:  MOVFF  02,718
0755A:  MOVFF  01,717
0755E:  MOVFF  00,716
07562:  CALL   1D3A
07566:  MOVFF  00,700
0756A:  MOVFF  01,701
0756E:  MOVFF  02,702
07572:  MOVFF  03,703
07576:  BCF    FD8.1
07578:  MOVFF  03,715
0757C:  MOVFF  02,714
07580:  MOVFF  01,713
07584:  MOVFF  00,712
07588:  MOVFF  340,719
0758C:  MOVFF  33F,718
07590:  MOVFF  33E,717
07594:  MOVFF  33D,716
07598:  CALL   1D3A
0759C:  MOVFF  03,344
075A0:  MOVFF  02,343
075A4:  MOVFF  01,342
075A8:  MOVFF  00,341
.................... //-------------------------------Control de Calentamiento------------------------------------------------------------//          
....................    if(Esterilizando){ 
075AC:  BTFSS  xA0.2
075AE:  BRA    762C
....................       error=desvio+Setpoint-Tactual;      // Clculo del error ****** 
075B0:  MOVLB  7
075B2:  CLRF   x13
075B4:  MOVFF  356,712
075B8:  MOVLB  0
075BA:  CALL   19BA
075BE:  BCF    FD8.1
075C0:  MOVFF  301,715
075C4:  MOVFF  300,714
075C8:  MOVFF  2FF,713
075CC:  MOVFF  2FE,712
075D0:  MOVFF  03,719
075D4:  MOVFF  02,718
075D8:  MOVFF  01,717
075DC:  MOVFF  00,716
075E0:  CALL   1D3A
075E4:  MOVFF  00,700
075E8:  MOVFF  01,701
075EC:  MOVFF  02,702
075F0:  MOVFF  03,703
075F4:  BSF    FD8.1
075F6:  MOVFF  03,715
075FA:  MOVFF  02,714
075FE:  MOVFF  01,713
07602:  MOVFF  00,712
07606:  MOVFF  344,719
0760A:  MOVFF  343,718
0760E:  MOVFF  342,717
07612:  MOVFF  341,716
07616:  CALL   1D3A
0761A:  MOVFF  03,2E9
0761E:  MOVFF  02,2E8
07622:  MOVFF  01,2E7
07626:  MOVFF  00,2E6
....................    }else{ 
0762A:  BRA    76DC
....................       error=desvio+1.5+Setpoint-Tactual;      // Clculo del error ****** 
0762C:  BCF    FD8.1
0762E:  MOVFF  301,715
07632:  MOVFF  300,714
07636:  MOVFF  2FF,713
0763A:  MOVFF  2FE,712
0763E:  MOVLB  7
07640:  CLRF   x19
07642:  CLRF   x18
07644:  MOVLW  40
07646:  MOVWF  x17
07648:  MOVLW  7F
0764A:  MOVWF  x16
0764C:  MOVLB  0
0764E:  CALL   1D3A
07652:  MOVFF  00,700
07656:  MOVFF  01,701
0765A:  MOVFF  02,702
0765E:  MOVFF  03,703
07662:  MOVLB  7
07664:  CLRF   x13
07666:  MOVFF  356,712
0766A:  MOVLB  0
0766C:  CALL   19BA
07670:  BCF    FD8.1
07672:  MOVFF  703,715
07676:  MOVFF  702,714
0767A:  MOVFF  701,713
0767E:  MOVFF  700,712
07682:  MOVFF  03,719
07686:  MOVFF  02,718
0768A:  MOVFF  01,717
0768E:  MOVFF  00,716
07692:  CALL   1D3A
07696:  MOVFF  00,700
0769A:  MOVFF  01,701
0769E:  MOVFF  02,702
076A2:  MOVFF  03,703
076A6:  BSF    FD8.1
076A8:  MOVFF  03,715
076AC:  MOVFF  02,714
076B0:  MOVFF  01,713
076B4:  MOVFF  00,712
076B8:  MOVFF  344,719
076BC:  MOVFF  343,718
076C0:  MOVFF  342,717
076C4:  MOVFF  341,716
076C8:  CALL   1D3A
076CC:  MOVFF  03,2E9
076D0:  MOVFF  02,2E8
076D4:  MOVFF  01,2E7
076D8:  MOVFF  00,2E6
....................    } 
....................     
....................    if(error>1.0 && error<20 && Aumento2<0.3){ 
076DC:  MOVLB  7
076DE:  CLRF   x0B
076E0:  CLRF   x0A
076E2:  CLRF   x09
076E4:  MOVLW  7F
076E6:  MOVWF  x08
076E8:  MOVFF  2E9,70F
076EC:  MOVFF  2E8,70E
076F0:  MOVFF  2E7,70D
076F4:  MOVFF  2E6,70C
076F8:  MOVLB  0
076FA:  CALL   1FB2
076FE:  BTFSS  FD8.0
07700:  BRA    792C
07702:  MOVFF  2E9,70B
07706:  MOVFF  2E8,70A
0770A:  MOVFF  2E7,709
0770E:  MOVFF  2E6,708
07712:  MOVLB  7
07714:  CLRF   x0F
07716:  CLRF   x0E
07718:  MOVLW  20
0771A:  MOVWF  x0D
0771C:  MOVLW  83
0771E:  MOVWF  x0C
07720:  MOVLB  0
07722:  CALL   1FB2
07726:  BTFSS  FD8.0
07728:  BRA    792C
0772A:  MOVFF  2CA,70B
0772E:  MOVFF  2C9,70A
07732:  MOVFF  2C8,709
07736:  MOVFF  2C7,708
0773A:  MOVLW  9A
0773C:  MOVLB  7
0773E:  MOVWF  x0F
07740:  MOVLW  99
07742:  MOVWF  x0E
07744:  MOVLW  19
07746:  MOVWF  x0D
07748:  MOVLW  7D
0774A:  MOVWF  x0C
0774C:  MOVLB  0
0774E:  CALL   1FB2
07752:  BTFSS  FD8.0
07754:  BRA    792C
....................       if(Tpulso<=6.0){ 
07756:  MOVFF  2E5,70B
0775A:  MOVFF  2E4,70A
0775E:  MOVFF  2E3,709
07762:  MOVFF  2E2,708
07766:  MOVLB  7
07768:  CLRF   x0F
0776A:  CLRF   x0E
0776C:  MOVLW  40
0776E:  MOVWF  x0D
07770:  MOVLW  81
07772:  MOVWF  x0C
07774:  MOVLB  0
07776:  CALL   1FB2
0777A:  BC    7780
0777C:  BTFSS  FD8.2
0777E:  BRA    792A
....................          flagTC=1; 
07780:  BSF    xA4.6
....................          if(TiempoControl>=Derivativo){ 
07782:  MOVLB  3
07784:  MOVF   x2F,W
07786:  SUBWF  x82,W
07788:  BTFSS  FD8.0
0778A:  BRA    7926
....................             TiempoControl=0; 
0778C:  CLRF   x82
....................             if(Aumento2<-0.5){ 
0778E:  MOVFF  2CA,70B
07792:  MOVFF  2C9,70A
07796:  MOVFF  2C8,709
0779A:  MOVFF  2C7,708
0779E:  MOVLB  7
077A0:  CLRF   x0F
077A2:  CLRF   x0E
077A4:  MOVLW  80
077A6:  MOVWF  x0D
077A8:  MOVLW  7E
077AA:  MOVWF  x0C
077AC:  MOVLB  0
077AE:  CALL   1FB2
077B2:  BNC   7824
....................                Ganancia+=Integral+0.2; 
077B4:  MOVLB  7
077B6:  CLRF   x13
077B8:  MOVFF  32E,712
077BC:  MOVLB  0
077BE:  CALL   19BA
077C2:  BCF    FD8.1
077C4:  MOVFF  03,715
077C8:  MOVFF  02,714
077CC:  MOVFF  01,713
077D0:  MOVFF  00,712
077D4:  MOVLW  CD
077D6:  MOVLB  7
077D8:  MOVWF  x19
077DA:  MOVLW  CC
077DC:  MOVWF  x18
077DE:  MOVLW  4C
077E0:  MOVWF  x17
077E2:  MOVLW  7C
077E4:  MOVWF  x16
077E6:  MOVLB  0
077E8:  CALL   1D3A
077EC:  BCF    FD8.1
077EE:  MOVFF  2F9,715
077F2:  MOVFF  2F8,714
077F6:  MOVFF  2F7,713
077FA:  MOVFF  2F6,712
077FE:  MOVFF  03,719
07802:  MOVFF  02,718
07806:  MOVFF  01,717
0780A:  MOVFF  00,716
0780E:  CALL   1D3A
07812:  MOVFF  03,2F9
07816:  MOVFF  02,2F8
0781A:  MOVFF  01,2F7
0781E:  MOVFF  00,2F6
....................             }else{ 
07822:  BRA    7924
....................                if(Aumento2<-0.1){ 
07824:  MOVFF  2CA,70B
07828:  MOVFF  2C9,70A
0782C:  MOVFF  2C8,709
07830:  MOVFF  2C7,708
07834:  MOVLW  CD
07836:  MOVLB  7
07838:  MOVWF  x0F
0783A:  MOVLW  CC
0783C:  MOVWF  x0E
0783E:  MOVWF  x0D
07840:  MOVLW  7B
07842:  MOVWF  x0C
07844:  MOVLB  0
07846:  CALL   1FB2
0784A:  BNC   78BC
....................                   Ganancia+=Integral-0.2; 
0784C:  MOVLB  7
0784E:  CLRF   x13
07850:  MOVFF  32E,712
07854:  MOVLB  0
07856:  CALL   19BA
0785A:  BSF    FD8.1
0785C:  MOVFF  03,715
07860:  MOVFF  02,714
07864:  MOVFF  01,713
07868:  MOVFF  00,712
0786C:  MOVLW  CD
0786E:  MOVLB  7
07870:  MOVWF  x19
07872:  MOVLW  CC
07874:  MOVWF  x18
07876:  MOVLW  4C
07878:  MOVWF  x17
0787A:  MOVLW  7C
0787C:  MOVWF  x16
0787E:  MOVLB  0
07880:  CALL   1D3A
07884:  BCF    FD8.1
07886:  MOVFF  2F9,715
0788A:  MOVFF  2F8,714
0788E:  MOVFF  2F7,713
07892:  MOVFF  2F6,712
07896:  MOVFF  03,719
0789A:  MOVFF  02,718
0789E:  MOVFF  01,717
078A2:  MOVFF  00,716
078A6:  CALL   1D3A
078AA:  MOVFF  03,2F9
078AE:  MOVFF  02,2F8
078B2:  MOVFF  01,2F7
078B6:  MOVFF  00,2F6
....................                }else{ 
078BA:  BRA    7924
....................                   Ganancia+=Integral-0.5; 
078BC:  MOVLB  7
078BE:  CLRF   x13
078C0:  MOVFF  32E,712
078C4:  MOVLB  0
078C6:  CALL   19BA
078CA:  BSF    FD8.1
078CC:  MOVFF  03,715
078D0:  MOVFF  02,714
078D4:  MOVFF  01,713
078D8:  MOVFF  00,712
078DC:  MOVLB  7
078DE:  CLRF   x19
078E0:  CLRF   x18
078E2:  CLRF   x17
078E4:  MOVLW  7E
078E6:  MOVWF  x16
078E8:  MOVLB  0
078EA:  CALL   1D3A
078EE:  BCF    FD8.1
078F0:  MOVFF  2F9,715
078F4:  MOVFF  2F8,714
078F8:  MOVFF  2F7,713
078FC:  MOVFF  2F6,712
07900:  MOVFF  03,719
07904:  MOVFF  02,718
07908:  MOVFF  01,717
0790C:  MOVFF  00,716
07910:  CALL   1D3A
07914:  MOVFF  03,2F9
07918:  MOVFF  02,2F8
0791C:  MOVFF  01,2F7
07920:  MOVFF  00,2F6
07924:  MOVLB  3
....................                } 
....................             } 
....................          } 
....................       }else{ 
07926:  BRA    792E
07928:  MOVLB  0
....................          flagTC=0; 
0792A:  BCF    xA4.6
0792C:  MOVLB  3
....................       } 
....................    } 
....................     
....................    if(error<-0.3) 
0792E:  MOVFF  2E9,70B
07932:  MOVFF  2E8,70A
07936:  MOVFF  2E7,709
0793A:  MOVFF  2E6,708
0793E:  MOVLW  9A
07940:  MOVLB  7
07942:  MOVWF  x0F
07944:  MOVLW  99
07946:  MOVWF  x0E
07948:  MOVWF  x0D
0794A:  MOVLW  7D
0794C:  MOVWF  x0C
0794E:  MOVLB  0
07950:  CALL   1FB2
07954:  BNC   7966
....................       Ganancia=Ganancia2; 
07956:  MOVFF  2FD,2F9
0795A:  MOVFF  2FC,2F8
0795E:  MOVFF  2FB,2F7
07962:  MOVFF  2FA,2F6
....................     
....................    if(Ganancia<1) 
07966:  MOVFF  2F9,70B
0796A:  MOVFF  2F8,70A
0796E:  MOVFF  2F7,709
07972:  MOVFF  2F6,708
07976:  MOVLB  7
07978:  CLRF   x0F
0797A:  CLRF   x0E
0797C:  CLRF   x0D
0797E:  MOVLW  7F
07980:  MOVWF  x0C
07982:  MOVLB  0
07984:  CALL   1FB2
07988:  BNC   7996
....................       Ganancia=1; 
0798A:  MOVLB  2
0798C:  CLRF   xF9
0798E:  CLRF   xF8
07990:  CLRF   xF7
07992:  MOVLW  7F
07994:  MOVWF  xF6
....................     
....................    if(error<0.0)     // Anti Wind_DOWN     
07996:  MOVFF  2E9,70B
0799A:  MOVFF  2E8,70A
0799E:  MOVFF  2E7,709
079A2:  MOVFF  2E6,708
079A6:  MOVLB  7
079A8:  CLRF   x0F
079AA:  CLRF   x0E
079AC:  CLRF   x0D
079AE:  CLRF   x0C
079B0:  MOVLB  0
079B2:  CALL   1FB2
079B6:  BNC   79C4
....................       error=0.0; 
079B8:  MOVLB  2
079BA:  CLRF   xE9
079BC:  CLRF   xE8
079BE:  CLRF   xE7
079C0:  CLRF   xE6
079C2:  MOVLB  0
....................    //tmp=(Setpoint-Prom)*Ganancia;  // Control Proporcional. 
....................    tmp=error*Ganancia;  // Control Proporcional. 
079C4:  MOVFF  2E9,719
079C8:  MOVFF  2E8,718
079CC:  MOVFF  2E7,717
079D0:  MOVFF  2E6,716
079D4:  MOVFF  2F9,71D
079D8:  MOVFF  2F8,71C
079DC:  MOVFF  2F7,71B
079E0:  MOVFF  2F6,71A
079E4:  CALL   39AE
079E8:  MOVFF  03,2F5
079EC:  MOVFF  02,2F4
079F0:  MOVFF  01,2F3
079F4:  MOVFF  00,2F2
....................           
....................    if(tmp>Setpoint)   // Anti Wind-UP       
079F8:  MOVLB  7
079FA:  CLRF   x13
079FC:  MOVFF  356,712
07A00:  MOVLB  0
07A02:  CALL   19BA
07A06:  MOVFF  03,70B
07A0A:  MOVFF  02,70A
07A0E:  MOVFF  01,709
07A12:  MOVFF  00,708
07A16:  MOVFF  2F5,70F
07A1A:  MOVFF  2F4,70E
07A1E:  MOVFF  2F3,70D
07A22:  MOVFF  2F2,70C
07A26:  CALL   1FB2
07A2A:  BNC   7A4A
....................       tmp=Setpoint; 
07A2C:  MOVLB  7
07A2E:  CLRF   x13
07A30:  MOVFF  356,712
07A34:  MOVLB  0
07A36:  CALL   19BA
07A3A:  MOVFF  03,2F5
07A3E:  MOVFF  02,2F4
07A42:  MOVFF  01,2F3
07A46:  MOVFF  00,2F2
....................                 
....................    if(tmp<0.0)     // Anti Wind_DOWN     
07A4A:  MOVFF  2F5,70B
07A4E:  MOVFF  2F4,70A
07A52:  MOVFF  2F3,709
07A56:  MOVFF  2F2,708
07A5A:  MOVLB  7
07A5C:  CLRF   x0F
07A5E:  CLRF   x0E
07A60:  CLRF   x0D
07A62:  CLRF   x0C
07A64:  MOVLB  0
07A66:  CALL   1FB2
07A6A:  BNC   7A76
....................       tmp=0.0; 
07A6C:  MOVLB  2
07A6E:  CLRF   xF5
07A70:  CLRF   xF4
07A72:  CLRF   xF3
07A74:  CLRF   xF2
....................     
....................    // Tpulso(t)= Tciclo*(y(t)-ymin)/(ymax - ymin); calculo de ciclo util para control de resistencia.ymax=140.ymin=0; 
....................    // Tpulso es float, hay que pasar ese ciclo a una salida de un puerto usando el TMR1. 
....................    tmp2=(tmp/Setpoint); 
07A76:  MOVLB  7
07A78:  CLRF   x13
07A7A:  MOVFF  356,712
07A7E:  MOVLB  0
07A80:  CALL   19BA
07A84:  MOVFF  2F5,70F
07A88:  MOVFF  2F4,70E
07A8C:  MOVFF  2F3,70D
07A90:  MOVFF  2F2,70C
07A94:  MOVFF  03,713
07A98:  MOVFF  02,712
07A9C:  MOVFF  01,711
07AA0:  MOVFF  00,710
07AA4:  CALL   1B9C
07AA8:  MOVFF  03,305
07AAC:  MOVFF  02,304
07AB0:  MOVFF  01,303
07AB4:  MOVFF  00,302
....................    //if(tmp2>0.8) 
....................    //tmp2=0.8; 
....................    Tpulso=tmp2*Tciclo;   
07AB8:  MOVFF  305,719
07ABC:  MOVFF  304,718
07AC0:  MOVFF  303,717
07AC4:  MOVFF  302,716
07AC8:  MOVFF  2E1,71D
07ACC:  MOVFF  2E0,71C
07AD0:  MOVFF  2DF,71B
07AD4:  MOVFF  2DE,71A
07AD8:  CALL   39AE
07ADC:  MOVFF  03,2E5
07AE0:  MOVFF  02,2E4
07AE4:  MOVFF  01,2E3
07AE8:  MOVFF  00,2E2
....................                                        
....................    Tp=(Tpulso/0.005); 
07AEC:  MOVFF  2E5,70F
07AF0:  MOVFF  2E4,70E
07AF4:  MOVFF  2E3,70D
07AF8:  MOVFF  2E2,70C
07AFC:  MOVLW  0A
07AFE:  MOVLB  7
07B00:  MOVWF  x13
07B02:  MOVLW  D7
07B04:  MOVWF  x12
07B06:  MOVLW  23
07B08:  MOVWF  x11
07B0A:  MOVLW  77
07B0C:  MOVWF  x10
07B0E:  MOVLB  0
07B10:  CALL   1B9C
07B14:  MOVFF  03,715
07B18:  MOVFF  02,714
07B1C:  MOVFF  01,713
07B20:  MOVFF  00,712
07B24:  CALL   4582
07B28:  MOVFF  02,AC
07B2C:  MOVFF  01,AB
....................    Tc=(Tciclo/0.005); 
07B30:  MOVFF  2E1,70F
07B34:  MOVFF  2E0,70E
07B38:  MOVFF  2DF,70D
07B3C:  MOVFF  2DE,70C
07B40:  MOVLW  0A
07B42:  MOVLB  7
07B44:  MOVWF  x13
07B46:  MOVLW  D7
07B48:  MOVWF  x12
07B4A:  MOVLW  23
07B4C:  MOVWF  x11
07B4E:  MOVLW  77
07B50:  MOVWF  x10
07B52:  MOVLB  0
07B54:  CALL   1B9C
07B58:  MOVFF  03,715
07B5C:  MOVFF  02,714
07B60:  MOVFF  01,713
07B64:  MOVFF  00,712
07B68:  CALL   4582
07B6C:  MOVFF  02,AE
07B70:  MOVFF  01,AD
....................    Controlando=1;    
07B74:  MOVLW  01
07B76:  MOVLB  3
07B78:  MOVWF  x48
.................... //--------------------------------------------------------------------------------------------------------------------//    
.................... } 
07B7A:  MOVLB  0
07B7C:  RETLW  00
....................  
....................  
.................... #int_rda HIGH 
.................... void serial_rx_isr(){ 
....................  
....................    Dato2=fgetc(); 
*
00346:  BTFSS  F9E.5
00348:  BRA    0346
0034A:  MOVFF  FAE,34D
0034E:  MOVLB  3
....................    if(Dato2==0x65){//Inicio Comunicacion 
00350:  MOVF   x4D,W
00352:  SUBLW  65
00354:  BNZ   035C
....................       Inicio=1; 
00356:  MOVLW  01
00358:  MOVWF  x4B
....................       RX_Wr_Index =0; 
0035A:  CLRF   46
....................    } 
....................    //Inicio=1; 
....................    if(Inicio==1){ 
0035C:  DECFSZ x4B,W
0035E:  BRA    0374
....................       Rx_Buffer2[RX_Wr_Index] = Dato2; 
00360:  CLRF   03
00362:  MOVF   46,W
00364:  ADDLW  3B
00366:  MOVWF  FE9
00368:  MOVLW  00
0036A:  ADDWFC 03,W
0036C:  MOVWF  FEA
0036E:  MOVFF  34D,FEF
....................       RX_Wr_Index++; 
00372:  INCF   46,F
....................    } 
....................    if(RX_Wr_Index >= RX_BUFFER_SIZE){ 
00374:  MOVF   46,W
00376:  SUBLW  09
00378:  BC    037E
....................       RX_Wr_Index =0; 
0037A:  CLRF   46
....................       Inicio=0; 
0037C:  CLRF   x4B
....................    } 
....................  
....................    if(RX_Wr_Index==0){ 
0037E:  MOVF   46,F
00380:  BNZ   03A2
....................       if(Rx_Buffer2[0]==0x65 && Rx_Buffer2[1]==0xff && Rx_Buffer2[2]==0xff && Rx_Buffer2[8]==0x00 && Rx_Buffer2[9]==0xff ){ 
00382:  MOVF   3B,W
00384:  SUBLW  65
00386:  BNZ   039E
00388:  INCFSZ 3C,W
0038A:  BRA    039E
0038C:  INCFSZ 3D,W
0038E:  BRA    039E
00390:  MOVF   43,F
00392:  BNZ   039E
00394:  INCFSZ 44,W
00396:  BRA    039E
....................          Dato_Exitoso=5; 
00398:  MOVLW  05
0039A:  MOVWF  x4C
....................       }else{ 
0039C:  BRA    03A2
....................          Dato_Exitoso=10; 
0039E:  MOVLW  0A
003A0:  MOVWF  x4C
....................       } 
....................    } 
....................    //Dato_Exitoso=5; 
....................    if(Menu==20) 
003A2:  MOVF   x4F,W
003A4:  SUBLW  14
003A6:  BNZ   03AC
....................      Buzzer_on; 
003A8:  BSF    F8C.7
003AA:  BCF    F95.7
.................... } 
....................  
003AC:  BCF    F9E.5
003AE:  MOVLB  0
003B0:  GOTO   010A
.................... #int_TIMER0 
.................... void temp0s(void){ 
....................    set_timer0(0); 
003B4:  CLRF   FD7
003B6:  CLRF   FD6
....................    t_exhaust++; 
003B8:  MOVLB  3
003BA:  INCF   x85,F
003BC:  BTFSC  FD8.2
003BE:  INCF   x86,F
....................    if(DesfogueSuave){ 
003C0:  MOVLB  0
003C2:  BTFSS  xA0.6
003C4:  BRA    0406
....................       if(Nivel<6){ 
003C6:  MOVLB  3
003C8:  MOVF   x65,F
003CA:  BNZ   0400
003CC:  MOVF   x64,W
003CE:  SUBLW  05
003D0:  BNC   0400
....................          if(t_exhaust<=NivelSeleccionado) // Si el tiempo es menor o igual al tiempo de control se enciende la resistencia de lo contrario se apaga. 
003D2:  MOVF   x86,W
003D4:  SUBWF  x6F,W
003D6:  BNC   03E6
003D8:  BNZ   03E0
003DA:  MOVF   x85,W
003DC:  SUBWF  x6E,W
003DE:  BNC   03E6
....................             Desfogue_on; 
003E0:  BCF    F8B.1
003E2:  BCF    F94.1
....................          else 
003E4:  BRA    03EA
....................             Desfogue_off; 
003E6:  BSF    F8B.1
003E8:  BCF    F94.1
....................        
....................          if(t_exhaust>=60000) // Si el tiempo de control es mayor al tiempo de ciclo se reinicia tiempo de control 
003EA:  MOVF   x86,W
003EC:  SUBLW  E9
003EE:  BC    03FE
003F0:  XORLW  FF
003F2:  BNZ   03FA
003F4:  MOVF   x85,W
003F6:  SUBLW  5F
003F8:  BC    03FE
....................             t_exhaust=0; // tiempoctrl incrementa una unidad cada Xms, por eso se dividen los tiempos por 0.005. 
003FA:  CLRF   x86
003FC:  CLRF   x85
....................       }else{ 
003FE:  BRA    0404
....................          Desfogue_on; 
00400:  BCF    F8B.1
00402:  BCF    F94.1
00404:  MOVLB  0
....................       } 
....................    }   
.................... } 
....................  
00406:  BCF    FF2.2
00408:  GOTO   0074
.................... #int_TIMER1 
.................... void temp1s(void){ 
....................    set_timer1(40536); // Se repite cada 5ms 
0040C:  MOVLW  9E
0040E:  MOVWF  FCF
00410:  MOVLW  58
00412:  MOVWF  FCE
....................    tiempos++; 
00414:  MOVLB  3
00416:  INCF   x5C,F
00418:  BTFSC  FD8.2
0041A:  INCF   x5D,F
....................    tiempos2++; 
0041C:  INCF   x5E,F
0041E:  BTFSC  FD8.2
00420:  INCF   x5F,F
....................    tiempos3++; 
00422:  INCF   x60,F
00424:  BTFSC  FD8.2
00426:  INCF   x61,F
....................    tiempoctrl++; 
00428:  INCF   x62,F
0042A:  BTFSC  FD8.2
0042C:  INCF   x63,F
....................     
....................    if(flagAlarma) 
0042E:  MOVLB  0
00430:  BTFSS  xA2.4
00432:  BRA    043E
....................       tbuzzer++; 
00434:  MOVLB  3
00436:  INCF   x87,F
00438:  BTFSC  FD8.2
0043A:  INCF   x88,F
0043C:  MOVLB  0
....................        
....................    if(flagSilencio)    
0043E:  BTFSS  xA3.0
00440:  BRA    044A
....................       tsilencio++; 
00442:  MOVLB  3
00444:  INCF   x89,F
00446:  BTFSC  FD8.2
00448:  INCF   x8A,F
....................     
....................    if(Controlando==1){ 
0044A:  MOVLB  3
0044C:  DECFSZ x48,W
0044E:  BRA    048C
....................       if(tiempoctrl<Tp) // Si el tiempo es menor o igual al tiempo de control se enciende la resistencia de lo contrario se apaga. 
00450:  MOVF   x63,W
00452:  MOVLB  0
00454:  SUBWF  xAC,W
00456:  BNC   0470
00458:  BNZ   046A
0045A:  MOVF   xAB,W
0045C:  MOVLB  3
0045E:  SUBWF  x62,W
00460:  BTFSS  FD8.0
00462:  BRA    0468
00464:  MOVLB  0
00466:  BRA    0470
00468:  MOVLB  0
....................          SSR_on;       
0046A:  BSF    F8D.1
0046C:  BCF    F96.1
....................       else          
0046E:  BRA    0474
....................          SSR_off; 
00470:  BCF    F8D.1
00472:  BCF    F96.1
....................              
....................       if(tiempoctrl>=Tc) // Si el tiempo de control es mayor al tiempo de ciclo se reinicia tiempo de control 
00474:  MOVF   xAE,W
00476:  MOVLB  3
00478:  SUBWF  x63,W
0047A:  BNC   048C
0047C:  BNZ   0488
0047E:  MOVLB  0
00480:  MOVF   xAD,W
00482:  MOVLB  3
00484:  SUBWF  x62,W
00486:  BNC   048C
....................          tiempoctrl=0; // tiempoctrl incrementa una unidad cada 5ms, por eso se dividen los tiempos por 0.005. 
00488:  CLRF   x63
0048A:  CLRF   x62
....................    } 
....................     
....................    if(tiempos>=200){  // 12000 para que incremente cada minuto, 200para que incremente cada segundo. 
0048C:  MOVF   x5D,F
0048E:  BNZ   0496
00490:  MOVF   x5C,W
00492:  SUBLW  C7
00494:  BC    054E
....................       if(flagTC) 
00496:  MOVLB  0
00498:  BTFSS  xA4.6
0049A:  BRA    04A0
....................          TiempoControl++; 
0049C:  MOVLB  3
0049E:  INCF   x82,F
....................        
....................       tiemporecta++; 
004A0:  MOVLB  3
004A2:  INCF   x47,F
....................        
....................       if(IniciaCiclo && tiempoImpresion<CalculoImpresion){ 
004A4:  MOVLB  0
004A6:  BTFSS  xA0.1
004A8:  BRA    04BC
004AA:  MOVLB  3
004AC:  MOVF   x4A,W
004AE:  SUBWF  x5B,W
004B0:  BTFSS  FD8.0
004B2:  BRA    04B8
004B4:  MOVLB  0
004B6:  BRA    04BC
....................          tiempoImpresion++; 
004B8:  INCF   x5B,F
....................       }else if(tiempoImpresion>=CalculoImpresion){ 
004BA:  BRA    04CC
004BC:  MOVLB  3
004BE:  MOVF   x4A,W
004C0:  SUBWF  x5B,W
004C2:  BNC   04CC
....................          flagImprime=1; 
004C4:  MOVLB  0
004C6:  BSF    xA4.7
....................          tiempoImpresion=0; 
004C8:  MOVLB  3
004CA:  CLRF   x5B
....................       } 
....................        
....................       if(IniciaCiclo && !Esterilizando) 
004CC:  MOVLB  0
004CE:  BTFSS  xA0.1
004D0:  BRA    04DC
004D2:  BTFSC  xA0.2
004D4:  BRA    04DC
....................          TiempoCiclo++; 
004D6:  INCF   xA5,F
004D8:  BTFSC  FD8.2
004DA:  INCF   xA6,F
....................        
....................       if(IniciaLlenado && !CalderinLleno) 
004DC:  BTFSS  x9F.7
004DE:  BRA    04EA
004E0:  BTFSC  xA0.0
004E2:  BRA    04EA
....................          TiempoLlenado++; 
004E4:  INCF   xA7,F
004E6:  BTFSC  FD8.2
004E8:  INCF   xA8,F
....................        
....................       if(SensadoNivel) 
004EA:  BTFSS  xA0.4
004EC:  BRA    04F4
....................          TiempoSensadoNivel++; 
004EE:  INCF   xA9,F
004F0:  BTFSC  FD8.2
004F2:  INCF   xAA,F
....................        
....................       if(SensadoNivelL) 
004F4:  BTFSS  xA4.1
004F6:  BRA    04FE
....................          tNivelBajo++; 
004F8:  INCF   xAF,F
004FA:  BTFSC  FD8.2
004FC:  INCF   xB0,F
....................           
....................       if(guardaCiclo) 
004FE:  BTFSS  xA2.5
00500:  BRA    0508
....................          tguarda++;    
00502:  INCF   xB1,F
00504:  BTFSC  FD8.2
00506:  INCF   xB2,F
....................        
....................       tiempos=0;Lectura=1;tinicio++; 
00508:  MOVLB  3
0050A:  CLRF   x5D
0050C:  CLRF   x5C
0050E:  MOVLB  0
00510:  BSF    xA4.3
00512:  MOVLB  3
00514:  INCF   x66,F
00516:  BTFSC  FD8.2
00518:  INCF   x67,F
....................     
....................       if(Esterilizando && !Desfogando){                
0051A:  MOVLB  0
0051C:  BTFSS  xA0.2
0051E:  BRA    0536
00520:  BTFSC  xA0.5
00522:  BRA    0536
....................          if(sEst>0){ 
00524:  MOVF   xB3,F
00526:  BZ    052C
....................             sEst--; 
00528:  DECF   xB3,F
....................          }else if(mEst>0){ 
0052A:  BRA    0536
0052C:  MOVF   xB4,F
0052E:  BZ    0536
....................             mEst--; 
00530:  DECF   xB4,F
....................             sEst=59; 
00532:  MOVLW  3B
00534:  MOVWF  xB3
....................          } 
....................       } 
....................       if(Secando){ 
00536:  BTFSS  xA0.3
00538:  BRA    054C
....................          if(sSec>0){ 
0053A:  MOVF   xB5,F
0053C:  BZ    0542
....................             sSec--; 
0053E:  DECF   xB5,F
....................          }else if(mSec>0){ 
00540:  BRA    054C
00542:  MOVF   xB6,F
00544:  BZ    054C
....................             mSec--; 
00546:  DECF   xB6,F
....................             sSec=59; 
00548:  MOVLW  3B
0054A:  MOVWF  xB5
0054C:  MOVLB  3
....................          } 
....................       } 
....................    } 
.................... } 
....................  
0054E:  BCF    F9E.0
00550:  MOVLB  0
00552:  GOTO   0074
.................... void main() 
.................... { 
*
07BAE:  CLRF   FF8
07BB0:  BCF    FF1.2
07BB2:  BCF    F9F.0
07BB4:  BSF    F9F.5
07BB6:  BSF    FD0.7
07BB8:  BSF    07.7
07BBA:  CLRF   FEA
07BBC:  CLRF   FE9
07BBE:  BSF    FB8.3
07BC0:  MOVLW  08
07BC2:  MOVWF  FAF
07BC4:  MOVLW  02
07BC6:  MOVWF  FB0
07BC8:  MOVLW  A6
07BCA:  MOVWF  FAC
07BCC:  MOVLW  90
07BCE:  MOVWF  FAB
07BD0:  CLRF   46
07BD2:  CLRF   47
07BD4:  CLRF   48
07BD6:  CLRF   x62
07BD8:  CLRF   x63
07BDA:  CLRF   x84
07BDC:  CLRF   x85
07BDE:  CLRF   x86
07BE0:  BCF    x9F.0
07BE2:  BCF    x9F.1
07BE4:  BCF    x9F.2
07BE6:  BCF    x9F.3
07BE8:  BCF    x9F.4
07BEA:  BCF    x9F.5
07BEC:  BCF    x9F.6
07BEE:  BCF    x9F.7
07BF0:  BCF    xA0.0
07BF2:  BCF    xA0.1
07BF4:  BCF    xA0.2
07BF6:  BCF    xA0.3
07BF8:  BCF    xA0.4
07BFA:  BCF    xA0.5
07BFC:  BCF    xA0.6
07BFE:  BCF    xA0.7
07C00:  BCF    xA1.0
07C02:  BCF    xA1.1
07C04:  BCF    xA1.2
07C06:  BCF    xA1.3
07C08:  BCF    xA1.4
07C0A:  BCF    xA1.5
07C0C:  BCF    xA1.6
07C0E:  BCF    xA1.7
07C10:  BCF    xA2.0
07C12:  BCF    xA2.1
07C14:  BCF    xA2.2
07C16:  BCF    xA2.3
07C18:  BCF    xA2.4
07C1A:  BCF    xA2.5
07C1C:  BCF    xA2.6
07C1E:  BCF    xA2.7
07C20:  BCF    xA3.0
07C22:  BCF    xA3.1
07C24:  BCF    xA3.2
07C26:  BCF    xA3.3
07C28:  BCF    xA3.4
07C2A:  BCF    xA3.5
07C2C:  BCF    xA3.6
07C2E:  BCF    xA3.7
07C30:  BCF    xA4.0
07C32:  BCF    xA4.1
07C34:  CLRF   xA6
07C36:  CLRF   xA5
07C38:  CLRF   xA8
07C3A:  CLRF   xA7
07C3C:  CLRF   xAA
07C3E:  CLRF   xA9
07C40:  CLRF   xAC
07C42:  CLRF   xAB
07C44:  CLRF   xAE
07C46:  CLRF   xAD
07C48:  CLRF   xB0
07C4A:  CLRF   xAF
07C4C:  CLRF   xB2
07C4E:  CLRF   xB1
07C50:  CLRF   xB3
07C52:  CLRF   xB4
07C54:  CLRF   xB5
07C56:  CLRF   xB6
07C58:  CLRF   xB7
07C5A:  CLRF   xB8
07C5C:  CLRF   xB9
07C5E:  CLRF   xBA
07C60:  MOVLW  9A
07C62:  MOVLB  2
07C64:  MOVWF  x9E
07C66:  MOVLW  99
07C68:  MOVWF  x9D
07C6A:  MOVLW  0D
07C6C:  MOVWF  x9C
07C6E:  MOVLW  86
07C70:  MOVWF  x9B
07C72:  CLRF   xA2
07C74:  CLRF   xA1
07C76:  CLRF   xA0
07C78:  MOVLW  7E
07C7A:  MOVWF  x9F
07C7C:  CLRF   xA6
07C7E:  CLRF   xA5
07C80:  CLRF   xA4
07C82:  CLRF   xA3
07C84:  CLRF   xAA
07C86:  MOVLW  D0
07C88:  MOVWF  xA9
07C8A:  MOVLW  54
07C8C:  MOVWF  xA8
07C8E:  MOVLW  8B
07C90:  MOVWF  xA7
07C92:  CLRF   xBE
07C94:  CLRF   xBD
07C96:  CLRF   xBC
07C98:  CLRF   xBB
07C9A:  CLRF   xC2
07C9C:  CLRF   xC1
07C9E:  CLRF   xC0
07CA0:  CLRF   xBF
07CA2:  CLRF   xC6
07CA4:  CLRF   xC5
07CA6:  CLRF   xC4
07CA8:  CLRF   xC3
07CAA:  CLRF   xCA
07CAC:  CLRF   xC9
07CAE:  CLRF   xC8
07CB0:  CLRF   xC7
07CB2:  CLRF   xCB
07CB4:  CLRF   xCC
07CB6:  CLRF   xCD
07CB8:  CLRF   xCE
07CBA:  MOVLW  14
07CBC:  MOVWF  xCF
07CBE:  CLRF   xD0
07CC0:  CLRF   xD1
07CC2:  CLRF   xD2
07CC4:  CLRF   xD3
07CC6:  CLRF   xD4
07CC8:  CLRF   xD5
07CCA:  CLRF   xD9
07CCC:  CLRF   xD8
07CCE:  CLRF   xD7
07CD0:  CLRF   xD6
07CD2:  CLRF   xE1
07CD4:  CLRF   xE0
07CD6:  MOVLW  20
07CD8:  MOVWF  xDF
07CDA:  MOVLW  82
07CDC:  MOVWF  xDE
07CDE:  CLRF   xE5
07CE0:  CLRF   xE4
07CE2:  CLRF   xE3
07CE4:  CLRF   xE2
07CE6:  CLRF   xE9
07CE8:  CLRF   xE8
07CEA:  CLRF   xE7
07CEC:  CLRF   xE6
07CEE:  CLRF   xED
07CF0:  CLRF   xEC
07CF2:  CLRF   xEB
07CF4:  CLRF   xEA
07CF6:  CLRF   xF1
07CF8:  CLRF   xF0
07CFA:  CLRF   xEF
07CFC:  CLRF   xEE
07CFE:  CLRF   xF5
07D00:  CLRF   xF4
07D02:  CLRF   xF3
07D04:  CLRF   xF2
07D06:  CLRF   xF9
07D08:  CLRF   xF8
07D0A:  MOVLW  48
07D0C:  MOVWF  xF7
07D0E:  MOVLW  83
07D10:  MOVWF  xF6
07D12:  CLRF   xFD
07D14:  CLRF   xFC
07D16:  MOVLW  20
07D18:  MOVWF  xFB
07D1A:  MOVLW  83
07D1C:  MOVWF  xFA
07D1E:  MOVLB  3
07D20:  CLRF   x01
07D22:  CLRF   x00
07D24:  MOVLB  2
07D26:  CLRF   xFF
07D28:  MOVLW  7F
07D2A:  MOVWF  xFE
07D2C:  MOVLB  3
07D2E:  CLRF   x05
07D30:  CLRF   x04
07D32:  CLRF   x03
07D34:  CLRF   x02
07D36:  CLRF   x09
07D38:  CLRF   x08
07D3A:  CLRF   x07
07D3C:  CLRF   x06
07D3E:  CLRF   x0D
07D40:  CLRF   x0C
07D42:  CLRF   x0B
07D44:  CLRF   x0A
07D46:  CLRF   x11
07D48:  CLRF   x10
07D4A:  CLRF   x0F
07D4C:  CLRF   x0E
07D4E:  CLRF   x15
07D50:  CLRF   x14
07D52:  CLRF   x13
07D54:  CLRF   x12
07D56:  CLRF   x19
07D58:  CLRF   x18
07D5A:  CLRF   x17
07D5C:  CLRF   x16
07D5E:  MOVLW  4A
07D60:  MOVWF  x1D
07D62:  MOVLW  88
07D64:  MOVWF  x1C
07D66:  MOVLW  28
07D68:  MOVWF  x1B
07D6A:  MOVLW  75
07D6C:  MOVWF  x1A
07D6E:  CLRF   x21
07D70:  CLRF   x20
07D72:  CLRF   x1F
07D74:  CLRF   x1E
07D76:  MOVLW  E0
07D78:  MOVWF  x25
07D7A:  MOVLW  2D
07D7C:  MOVWF  x24
07D7E:  MOVLW  10
07D80:  MOVWF  x23
07D82:  MOVLW  75
07D84:  MOVWF  x22
07D86:  MOVLW  FF
07D88:  MOVWF  x29
07D8A:  MOVLW  21
07D8C:  MOVWF  x28
07D8E:  MOVLW  15
07D90:  MOVWF  x27
07D92:  MOVLW  80
07D94:  MOVWF  x26
07D96:  MOVLW  82
07D98:  MOVWF  x2D
07D9A:  MOVLW  12
07D9C:  MOVWF  x2C
07D9E:  MOVLW  F4
07DA0:  MOVWF  x2B
07DA2:  MOVLW  86
07DA4:  MOVWF  x2A
07DA6:  CLRF   x2E
07DA8:  CLRF   x2F
07DAA:  CLRF   x30
07DAC:  MOVLW  B5
07DAE:  MOVWF  x34
07DB0:  MOVLW  EB
07DB2:  MOVWF  x33
07DB4:  MOVLW  1B
07DB6:  MOVWF  x32
07DB8:  MOVLW  6B
07DBA:  MOVWF  x31
07DBC:  MOVLW  D0
07DBE:  MOVWF  x38
07DC0:  MOVLW  9B
07DC2:  MOVWF  x37
07DC4:  MOVLW  8A
07DC6:  MOVWF  x36
07DC8:  MOVLW  75
07DCA:  MOVWF  x35
07DCC:  MOVLW  1A
07DCE:  MOVWF  x3C
07DD0:  MOVLW  DD
07DD2:  MOVWF  x3B
07DD4:  MOVLW  61
07DD6:  MOVWF  x3A
07DD8:  MOVLW  7D
07DDA:  MOVWF  x39
07DDC:  MOVLW  04
07DDE:  MOVWF  x40
07DE0:  MOVLW  16
07DE2:  MOVWF  x3F
07DE4:  MOVLW  02
07DE6:  MOVWF  x3E
07DE8:  MOVLW  85
07DEA:  MOVWF  x3D
07DEC:  CLRF   x44
07DEE:  CLRF   x43
07DF0:  CLRF   x42
07DF2:  CLRF   x41
07DF4:  MOVLB  0
07DF6:  BCF    xA4.2
07DF8:  BCF    xA4.3
07DFA:  BCF    xA4.4
07DFC:  BCF    xA4.5
07DFE:  BCF    xA4.6
07E00:  BCF    xA4.7
07E02:  MOVLB  3
07E04:  BCF    x45.0
07E06:  CLRF   x46
07E08:  CLRF   x47
07E0A:  CLRF   x48
07E0C:  MOVLW  02
07E0E:  MOVWF  x49
07E10:  CLRF   x4A
07E12:  MOVLW  01
07E14:  MOVWF  x4B
07E16:  CLRF   x4C
07E18:  CLRF   x4D
07E1A:  CLRF   x4E
07E1C:  CLRF   x4F
07E1E:  CLRF   x50
07E20:  MOVLW  F0
07E22:  MOVWF  x51
07E24:  CLRF   x52
07E26:  CLRF   x53
07E28:  CLRF   x54
07E2A:  CLRF   x55
07E2C:  CLRF   x56
07E2E:  MOVLW  01
07E30:  MOVWF  x57
07E32:  MOVWF  x58
07E34:  CLRF   x59
07E36:  CLRF   x5A
07E38:  CLRF   x5B
07E3A:  CLRF   x5D
07E3C:  CLRF   x5C
07E3E:  CLRF   x5F
07E40:  CLRF   x5E
07E42:  CLRF   x61
07E44:  CLRF   x60
07E46:  CLRF   x63
07E48:  CLRF   x62
07E4A:  CLRF   x65
07E4C:  CLRF   x64
07E4E:  CLRF   x67
07E50:  CLRF   x66
07E52:  CLRF   x69
07E54:  CLRF   x68
07E56:  CLRF   x6B
07E58:  CLRF   x6A
07E5A:  CLRF   x6D
07E5C:  CLRF   x6C
07E5E:  CLRF   x6F
07E60:  CLRF   x6E
07E62:  CLRF   x71
07E64:  CLRF   x70
07E66:  CLRF   x73
07E68:  CLRF   x72
07E6A:  CLRF   x75
07E6C:  CLRF   x74
07E6E:  CLRF   x7E
07E70:  CLRF   x7F
07E72:  CLRF   x80
07E74:  CLRF   x81
07E76:  CLRF   x82
07E78:  CLRF   x83
07E7A:  CLRF   x84
07E7C:  CLRF   x86
07E7E:  CLRF   x85
07E80:  CLRF   x88
07E82:  CLRF   x87
07E84:  CLRF   x8A
07E86:  CLRF   x89
07E88:  MOVLW  12
07E8A:  MOVWF  x8B
07E8C:  MOVLW  09
07E8E:  MOVWF  x8C
07E90:  MOVLW  0D
07E92:  MOVWF  x8D
07E94:  CLRF   x8E
07E96:  CLRF   x8F
07E98:  CLRF   x90
07E9A:  CLRF   x91
07E9C:  MOVLW  4B
07E9E:  MOVWF  x92
07EA0:  CLRF   x93
07EA2:  CLRF   x94
07EA4:  CLRF   x95
07EA6:  CLRF   x96
07EA8:  CLRF   x97
07EAA:  CLRF   x98
07EAC:  CLRF   x99
07EAE:  CLRF   x9A
07EB0:  CLRF   x9B
07EB2:  CLRF   x9C
07EB4:  CLRF   x9D
07EB6:  CLRF   x9E
07EB8:  CLRF   x9F
07EBA:  CLRF   xA0
07EBC:  CLRF   xA1
07EBE:  CLRF   xA2
07EC0:  CLRF   xA3
07EC2:  CLRF   xA4
07EC4:  CLRF   xA5
07EC6:  MOVLB  4
07EC8:  CLRF   x05
07ECA:  CLRF   x06
07ECC:  CLRF   x07
07ECE:  CLRF   x08
07ED0:  CLRF   x09
07ED2:  MOVF   FC1,W
07ED4:  ANDLW  C0
07ED6:  IORLW  0F
07ED8:  MOVWF  FC1
07EDA:  MOVLW  07
07EDC:  MOVWF  FB4
07EDE:  CLRF   2A
07EE0:  CLRF   2B
07EE2:  MOVLB  0
07EE4:  CLRF   x87
07EE6:  MOVLW  03
07EE8:  MOVWF  x88
07EEA:  MOVWF  x89
07EEC:  MOVLW  06
07EEE:  MOVWF  x8A
07EF0:  MOVLW  01
07EF2:  MOVWF  x8B
07EF4:  MOVLW  04
07EF6:  MOVWF  x8C
07EF8:  MOVLW  06
07EFA:  MOVWF  x8D
07EFC:  MOVLW  02
07EFE:  MOVWF  x8E
07F00:  MOVLW  05
07F02:  MOVWF  x8F
07F04:  CLRF   x90
07F06:  MOVLW  03
07F08:  MOVWF  x91
07F0A:  MOVLW  05
07F0C:  MOVWF  x92
07F0E:  CLRF   x93
07F10:  MOVLW  03
07F12:  MOVWF  x94
07F14:  MOVLW  04
07F16:  MOVWF  x95
07F18:  CLRF   x96
07F1A:  MOVLW  02
07F1C:  MOVWF  x97
07F1E:  MOVLW  05
07F20:  MOVWF  x98
07F22:  CLRF   x99
07F24:  MOVLW  03
07F26:  MOVWF  x9A
07F28:  MOVLW  06
07F2A:  MOVWF  x9B
07F2C:  MOVLW  01
07F2E:  MOVWF  x9C
07F30:  MOVLW  04
07F32:  MOVWF  x9D
07F34:  MOVLW  06
07F36:  MOVWF  x9E
07F38:  CLRF   xBB
07F3A:  CLRF   xBC
07F3C:  CLRF   xBD
07F3E:  CLRF   xBE
07F40:  CLRF   xBF
07F42:  CLRF   xC0
07F44:  CLRF   xC1
07F46:  CLRF   xC2
07F48:  CLRF   xC3
07F4A:  CLRF   xC4
07F4C:  CLRF   xC5
07F4E:  CLRF   xC6
07F50:  CLRF   xC7
07F52:  CLRF   xC8
07F54:  CLRF   xC9
07F56:  CLRF   xCA
07F58:  CLRF   xCB
07F5A:  CLRF   xCC
07F5C:  CLRF   xCD
07F5E:  CLRF   xCE
07F60:  CLRF   xCF
07F62:  CLRF   xD0
07F64:  CLRF   xD1
07F66:  CLRF   xD2
07F68:  CLRF   xD3
07F6A:  CLRF   xD4
07F6C:  CLRF   xD5
07F6E:  CLRF   xD6
07F70:  CLRF   xD7
07F72:  CLRF   xD8
07F74:  CLRF   xD9
07F76:  CLRF   xDA
07F78:  CLRF   xDB
07F7A:  CLRF   xDC
07F7C:  CLRF   xDD
07F7E:  CLRF   xDE
07F80:  CLRF   xDF
07F82:  CLRF   xE0
07F84:  CLRF   xE1
07F86:  CLRF   xE2
07F88:  CLRF   xE3
07F8A:  CLRF   xE4
07F8C:  CLRF   xE5
07F8E:  CLRF   xE6
07F90:  CLRF   xE7
07F92:  CLRF   xE8
07F94:  CLRF   xE9
07F96:  CLRF   xEA
07F98:  CLRF   xEB
07F9A:  CLRF   xEC
07F9C:  CLRF   xED
07F9E:  CLRF   xEE
07FA0:  CLRF   xEF
07FA2:  CLRF   xF0
07FA4:  CLRF   xF1
07FA6:  CLRF   xF2
07FA8:  CLRF   xF3
07FAA:  CLRF   xF4
07FAC:  CLRF   xF5
07FAE:  CLRF   xF6
07FB0:  CLRF   xF7
07FB2:  CLRF   xF8
07FB4:  CLRF   xF9
07FB6:  CLRF   xFA
07FB8:  CLRF   xFB
07FBA:  CLRF   xFC
07FBC:  CLRF   xFD
07FBE:  CLRF   xFE
07FC0:  CLRF   xFF
07FC2:  MOVLB  1
07FC4:  CLRF   x00
07FC6:  CLRF   x01
07FC8:  CLRF   x02
07FCA:  CLRF   x03
07FCC:  CLRF   x04
07FCE:  CLRF   x05
07FD0:  CLRF   x06
07FD2:  CLRF   x07
07FD4:  CLRF   x08
07FD6:  CLRF   x09
07FD8:  CLRF   x0A
07FDA:  CLRF   x0B
07FDC:  CLRF   x0C
07FDE:  CLRF   x0D
07FE0:  CLRF   x0E
07FE2:  CLRF   x0F
07FE4:  CLRF   x10
07FE6:  CLRF   x11
07FE8:  CLRF   x12
07FEA:  CLRF   x13
07FEC:  CLRF   x14
07FEE:  CLRF   x15
07FF0:  CLRF   x16
07FF2:  CLRF   x17
07FF4:  CLRF   x18
07FF6:  CLRF   x19
07FF8:  CLRF   x1A
07FFA:  CLRF   x1B
07FFC:  CLRF   x1C
07FFE:  CLRF   x1D
08000:  CLRF   x1E
08002:  CLRF   x1F
08004:  CLRF   x20
08006:  CLRF   x21
08008:  CLRF   x22
0800A:  CLRF   x23
0800C:  CLRF   x24
0800E:  CLRF   x25
08010:  CLRF   x26
08012:  CLRF   x27
08014:  CLRF   x28
08016:  CLRF   x29
08018:  CLRF   x2A
0801A:  CLRF   x2B
0801C:  CLRF   x2C
0801E:  CLRF   x2D
08020:  CLRF   x2E
08022:  CLRF   x2F
08024:  CLRF   x30
08026:  CLRF   x31
08028:  CLRF   x32
0802A:  CLRF   x33
0802C:  CLRF   x34
0802E:  CLRF   x35
08030:  CLRF   x36
08032:  CLRF   x37
08034:  CLRF   x38
08036:  CLRF   x39
08038:  CLRF   x3A
0803A:  CLRF   x3B
0803C:  CLRF   x3C
0803E:  CLRF   x3D
08040:  CLRF   x3E
08042:  CLRF   x3F
08044:  CLRF   x40
08046:  CLRF   x41
08048:  CLRF   x42
0804A:  CLRF   x43
0804C:  CLRF   x44
0804E:  CLRF   x45
08050:  CLRF   x46
08052:  CLRF   x47
08054:  CLRF   x48
08056:  CLRF   x49
08058:  CLRF   x4A
0805A:  CLRF   x4B
0805C:  CLRF   x4C
0805E:  CLRF   x4D
08060:  CLRF   x4E
08062:  CLRF   x4F
08064:  CLRF   x50
08066:  CLRF   x51
08068:  CLRF   x52
0806A:  CLRF   x53
0806C:  CLRF   x54
0806E:  CLRF   x55
08070:  CLRF   x56
08072:  CLRF   x57
08074:  CLRF   x58
08076:  CLRF   x59
08078:  CLRF   x5A
0807A:  CLRF   x5B
0807C:  CLRF   x5C
0807E:  CLRF   x5D
08080:  CLRF   x5E
08082:  CLRF   x5F
08084:  CLRF   x60
08086:  CLRF   x61
08088:  CLRF   x62
0808A:  CLRF   x63
0808C:  CLRF   x64
0808E:  CLRF   x65
08090:  CLRF   x66
08092:  CLRF   x67
08094:  CLRF   x68
08096:  CLRF   x69
08098:  CLRF   x6A
0809A:  CLRF   x6B
0809C:  CLRF   x6C
0809E:  CLRF   x6D
080A0:  CLRF   x6E
080A2:  CLRF   x6F
080A4:  CLRF   x70
080A6:  CLRF   x71
080A8:  CLRF   x72
080AA:  CLRF   x73
080AC:  CLRF   x74
080AE:  CLRF   x75
080B0:  CLRF   x76
080B2:  CLRF   x77
080B4:  CLRF   x78
080B6:  CLRF   x79
080B8:  CLRF   x7A
080BA:  CLRF   x7B
080BC:  CLRF   x7C
080BE:  CLRF   x7D
080C0:  CLRF   x7E
080C2:  CLRF   x7F
080C4:  CLRF   x80
080C6:  CLRF   x81
080C8:  CLRF   x82
080CA:  CLRF   x83
080CC:  CLRF   x84
080CE:  CLRF   x85
080D0:  CLRF   x86
080D2:  CLRF   x87
080D4:  CLRF   x88
080D6:  CLRF   x89
080D8:  CLRF   x8A
080DA:  CLRF   x8B
080DC:  CLRF   x8C
080DE:  CLRF   x8D
080E0:  CLRF   x8E
080E2:  CLRF   x8F
080E4:  CLRF   x90
080E6:  CLRF   x91
080E8:  CLRF   x92
080EA:  CLRF   x93
080EC:  CLRF   x94
080EE:  CLRF   x95
080F0:  CLRF   x96
080F2:  CLRF   x97
080F4:  CLRF   x98
080F6:  CLRF   x99
080F8:  CLRF   x9A
080FA:  CLRF   x9B
080FC:  CLRF   x9C
080FE:  CLRF   x9D
08100:  CLRF   x9E
08102:  CLRF   x9F
08104:  CLRF   xA0
08106:  CLRF   xA1
08108:  CLRF   xA2
0810A:  CLRF   xA3
0810C:  CLRF   xA4
0810E:  CLRF   xA5
08110:  CLRF   xA6
08112:  CLRF   xA7
08114:  CLRF   xA8
08116:  CLRF   xA9
08118:  CLRF   xAA
0811A:  CLRF   xAB
0811C:  CLRF   xAC
0811E:  CLRF   xAD
08120:  CLRF   xAE
08122:  CLRF   xAF
08124:  CLRF   xB0
08126:  CLRF   xB1
08128:  CLRF   xB2
0812A:  CLRF   xB3
0812C:  CLRF   xB4
0812E:  CLRF   xB5
08130:  CLRF   xB6
08132:  CLRF   xB7
08134:  CLRF   xB8
08136:  CLRF   xB9
08138:  CLRF   xBA
0813A:  CLRF   xBB
0813C:  CLRF   xBC
0813E:  CLRF   xBD
08140:  CLRF   xBE
08142:  CLRF   xBF
08144:  CLRF   xC0
08146:  CLRF   xC1
08148:  CLRF   xC2
0814A:  CLRF   xC3
0814C:  CLRF   xC4
0814E:  CLRF   xC5
08150:  CLRF   xC6
08152:  CLRF   xC7
08154:  CLRF   xC8
08156:  CLRF   xC9
08158:  CLRF   xCA
0815A:  CLRF   xCB
0815C:  CLRF   xCC
0815E:  CLRF   xCD
08160:  CLRF   xCE
08162:  CLRF   xCF
08164:  CLRF   xD0
08166:  CLRF   xD1
08168:  CLRF   xD2
0816A:  CLRF   xD3
0816C:  CLRF   xD4
0816E:  CLRF   xD5
08170:  CLRF   xD6
08172:  CLRF   xD7
08174:  CLRF   xD8
08176:  CLRF   xD9
08178:  CLRF   xDA
0817A:  CLRF   xDB
0817C:  CLRF   xDC
0817E:  CLRF   xDD
08180:  CLRF   xDE
08182:  CLRF   xDF
08184:  CLRF   xE0
08186:  CLRF   xE1
08188:  CLRF   xE2
0818A:  CLRF   xE3
0818C:  CLRF   xE4
0818E:  CLRF   xE5
08190:  CLRF   xE6
08192:  CLRF   xE7
08194:  CLRF   xE8
08196:  CLRF   xE9
08198:  CLRF   xEA
0819A:  CLRF   xEB
0819C:  CLRF   xEC
0819E:  CLRF   xED
081A0:  CLRF   xEE
081A2:  CLRF   xEF
081A4:  CLRF   xF0
081A6:  CLRF   xF1
081A8:  CLRF   xF2
081AA:  CLRF   xF3
081AC:  CLRF   xF4
081AE:  CLRF   xF5
081B0:  CLRF   xF6
081B2:  CLRF   xF7
081B4:  CLRF   xF8
081B6:  CLRF   xF9
081B8:  CLRF   xFA
081BA:  CLRF   xFB
081BC:  CLRF   xFC
081BE:  CLRF   xFD
081C0:  CLRF   xFE
081C2:  CLRF   xFF
081C4:  MOVLB  2
081C6:  CLRF   x00
081C8:  CLRF   x01
081CA:  CLRF   x02
081CC:  CLRF   x03
081CE:  CLRF   x04
081D0:  CLRF   x05
081D2:  CLRF   x06
081D4:  CLRF   x07
081D6:  CLRF   x08
081D8:  CLRF   x09
081DA:  CLRF   x0A
081DC:  CLRF   x0B
081DE:  CLRF   x0C
081E0:  CLRF   x0D
081E2:  CLRF   x0E
081E4:  CLRF   x0F
081E6:  CLRF   x10
081E8:  CLRF   x11
081EA:  CLRF   x12
081EC:  CLRF   x13
081EE:  CLRF   x14
081F0:  CLRF   x15
081F2:  CLRF   x16
081F4:  CLRF   x17
081F6:  CLRF   x18
081F8:  CLRF   x19
081FA:  CLRF   x1A
081FC:  CLRF   x1B
081FE:  CLRF   x1C
08200:  CLRF   x1D
08202:  CLRF   x1E
08204:  CLRF   x1F
08206:  CLRF   x20
08208:  CLRF   x21
0820A:  CLRF   x22
0820C:  CLRF   x23
0820E:  CLRF   x24
08210:  CLRF   x25
08212:  CLRF   x26
08214:  CLRF   x27
08216:  CLRF   x28
08218:  CLRF   x29
0821A:  CLRF   x2A
0821C:  CLRF   x2B
0821E:  CLRF   x2C
08220:  CLRF   x2D
08222:  CLRF   x2E
08224:  CLRF   x2F
08226:  CLRF   x30
08228:  CLRF   x31
0822A:  CLRF   x32
0822C:  CLRF   x33
0822E:  CLRF   x34
08230:  CLRF   x35
08232:  CLRF   x36
08234:  CLRF   x37
08236:  CLRF   x38
08238:  CLRF   x39
0823A:  CLRF   x3A
0823C:  CLRF   x3B
0823E:  CLRF   x3C
08240:  CLRF   x3D
08242:  CLRF   x3E
08244:  CLRF   x3F
08246:  CLRF   x40
08248:  CLRF   x41
0824A:  CLRF   x42
0824C:  CLRF   x43
0824E:  CLRF   x44
08250:  CLRF   x45
08252:  CLRF   x46
08254:  CLRF   x47
08256:  CLRF   x48
08258:  CLRF   x49
0825A:  CLRF   x4A
0825C:  CLRF   x4B
0825E:  CLRF   x4C
08260:  CLRF   x4D
08262:  CLRF   x4E
08264:  CLRF   x4F
08266:  CLRF   x50
08268:  CLRF   x51
0826A:  CLRF   x52
0826C:  CLRF   x53
0826E:  CLRF   x54
08270:  CLRF   x55
08272:  CLRF   x56
08274:  CLRF   x57
08276:  CLRF   x58
08278:  CLRF   x59
0827A:  CLRF   x5A
0827C:  CLRF   x5B
0827E:  CLRF   x5C
08280:  CLRF   x5D
08282:  CLRF   x5E
08284:  CLRF   x5F
08286:  CLRF   x60
08288:  CLRF   x61
0828A:  CLRF   x62
0828C:  CLRF   x63
0828E:  CLRF   x64
08290:  CLRF   x65
08292:  CLRF   x66
08294:  CLRF   x67
08296:  CLRF   x68
08298:  CLRF   x69
0829A:  CLRF   x6A
0829C:  CLRF   x6B
0829E:  CLRF   x6C
082A0:  CLRF   x6D
082A2:  CLRF   x6E
082A4:  CLRF   x6F
082A6:  CLRF   x70
082A8:  CLRF   x71
082AA:  CLRF   x72
082AC:  CLRF   x73
082AE:  CLRF   x74
082B0:  CLRF   x75
082B2:  CLRF   x76
082B4:  CLRF   x77
082B6:  CLRF   x78
082B8:  CLRF   x79
082BA:  CLRF   x7A
082BC:  CLRF   x7B
082BE:  CLRF   x7C
082C0:  CLRF   x7D
082C2:  CLRF   x7E
082C4:  CLRF   x7F
082C6:  CLRF   x80
082C8:  CLRF   x81
082CA:  CLRF   x82
082CC:  CLRF   x83
082CE:  CLRF   x84
082D0:  CLRF   x85
082D2:  CLRF   x86
082D4:  CLRF   x87
082D6:  CLRF   x88
082D8:  CLRF   x89
082DA:  CLRF   x8A
082DC:  CLRF   x8B
082DE:  CLRF   x8C
082E0:  CLRF   x8D
082E2:  CLRF   x8E
082E4:  CLRF   x8F
082E6:  CLRF   x90
082E8:  CLRF   x91
082EA:  CLRF   x92
082EC:  CLRF   x93
082EE:  CLRF   x94
082F0:  CLRF   x95
082F2:  CLRF   x96
082F4:  CLRF   x97
082F6:  CLRF   x98
082F8:  CLRF   x99
082FA:  CLRF   x9A
082FC:  CLRF   xAB
082FE:  CLRF   xAC
08300:  CLRF   xAD
08302:  CLRF   xAE
08304:  CLRF   xAF
08306:  CLRF   xB0
08308:  CLRF   xB1
0830A:  CLRF   xB2
0830C:  CLRF   xB3
0830E:  CLRF   xB4
08310:  CLRF   xB5
08312:  CLRF   xB6
08314:  CLRF   xB7
08316:  CLRF   xB8
08318:  CLRF   xB9
0831A:  CLRF   xBA
0831C:  MOVLB  3
0831E:  CLRF   x76
08320:  CLRF   x77
08322:  CLRF   x78
08324:  CLRF   x79
08326:  CLRF   x7A
08328:  CLRF   x7B
0832A:  CLRF   x7C
0832C:  CLRF   x7D
0832E:  MOVLW  19
08330:  MOVWF  xA6
08332:  MOVLW  10
08334:  MOVWF  xA7
08336:  MOVLW  16
08338:  MOVWF  xA8
0833A:  MOVLW  18
0833C:  MOVWF  xA9
0833E:  MOVLW  17
08340:  MOVWF  xAA
08342:  MOVLW  1C
08344:  MOVWF  xAB
08346:  MOVLW  14
08348:  MOVWF  xAC
0834A:  MOVLW  2E
0834C:  MOVWF  xAD
0834E:  MOVLW  45
08350:  MOVWF  xAE
08352:  MOVLW  22
08354:  MOVWF  xAF
08356:  MOVLW  24
08358:  MOVWF  xB0
0835A:  MOVLW  12
0835C:  MOVWF  xB1
0835E:  MOVLW  21
08360:  MOVWF  xB2
08362:  MOVLW  20
08364:  MOVWF  xB3
08366:  MOVLW  26
08368:  MOVWF  xB4
0836A:  MOVLW  13
0836C:  MOVWF  xB5
0836E:  MOVLW  11
08370:  MOVWF  xB6
08372:  MOVLW  44
08374:  MOVWF  xB7
....................     
....................    for (posicion=0;posicion<0x10;posicion++){ 
08376:  MOVLB  0
08378:  CLRF   x86
0837A:  MOVF   x86,W
0837C:  SUBLW  0F
0837E:  BNC   8394
....................       SlaveA0Tx[posicion] = 0x00; 
08380:  CLRF   03
08382:  MOVF   x86,W
08384:  ADDLW  64
08386:  MOVWF  FE9
08388:  MOVLW  00
0838A:  ADDWFC 03,W
0838C:  MOVWF  FEA
0838E:  CLRF   FEF
....................    } 
08390:  INCF   x86,F
08392:  BRA    837A
....................    setup_timer_0(RTCC_8_BIT|RTCC_DIV_1); 
08394:  MOVLW  C8
08396:  MOVWF  FD5
....................    enable_interrupts(INT_TIMER0); 
08398:  BSF    FF2.5
....................    setup_timer_1(T1_INTERNAL|T1_DIV_BY_1); 
0839A:  MOVLW  85
0839C:  MOVWF  FCD
....................    enable_interrupts(INT_TIMER1); 
0839E:  BSF    F9D.0
....................    setup_adc_ports(AN0_TO_AN3); 
083A0:  MOVF   FC1,W
083A2:  ANDLW  C0
083A4:  IORLW  0B
083A6:  MOVWF  FC1
....................    setup_adc(ADC_CLOCK_DIV_32 ); 
083A8:  MOVF   FC0,W
083AA:  ANDLW  C0
083AC:  IORLW  02
083AE:  MOVWF  FC0
083B0:  BSF    FC0.7
083B2:  BSF    FC2.0
....................    port_b_pullups(true); 
083B4:  BCF    FF1.7
....................    enable_interrupts(int_rda); 
083B6:  BSF    F9D.5
....................    setup_wdt(WDT_ON); 
083B8:  BSF    FD1.0
....................    enable_interrupts(global); 
083BA:  MOVLW  C0
083BC:  IORWF  FF2,F
....................    LeeEEPROM(); 
083BE:  GOTO   202C
....................    rtc_init(); 
083C2:  GOTO   31B0
....................    delay_ms(1); 
083C6:  MOVLW  01
083C8:  MOVLB  7
083CA:  MOVWF  x10
083CC:  MOVLB  0
083CE:  CALL   1992
....................    LimitaValores(); 
083D2:  GOTO   3252
....................    CalculoImpresion=timpresion*60; 
083D6:  MOVLB  3
083D8:  MOVF   x49,W
083DA:  MULLW  3C
083DC:  MOVFF  FF3,34A
....................    printf("page Bienvenida"); 
083E0:  MOVLW  56
083E2:  MOVWF  FF6
083E4:  MOVLW  05
083E6:  MOVWF  FF7
083E8:  MOVLW  00
083EA:  MOVWF  FF8
083EC:  MOVLB  0
083EE:  CALL   38C6
....................    SendDataDisplay(); 
083F2:  CALL   38F8
....................    printf("bkcmd=0"); 
083F6:  MOVLW  66
083F8:  MOVWF  FF6
083FA:  MOVLW  05
083FC:  MOVWF  FF7
083FE:  MOVLW  00
08400:  MOVWF  FF8
08402:  CALL   38C6
....................    SendDataDisplay(); 
08406:  CALL   38F8
....................    delay_ms(1500); 
0840A:  MOVLW  06
0840C:  MOVLB  7
0840E:  MOVWF  x00
08410:  MOVLW  FA
08412:  MOVWF  x10
08414:  MOVLB  0
08416:  CALL   1992
0841A:  MOVLB  7
0841C:  DECFSZ x00,F
0841E:  BRA    8410
....................    printf("page Clave"); 
08420:  MOVLW  6E
08422:  MOVWF  FF6
08424:  MOVLW  05
08426:  MOVWF  FF7
08428:  MOVLW  00
0842A:  MOVWF  FF8
0842C:  MOVLB  0
0842E:  CALL   38C6
....................    SendDataDisplay(); 
08432:  CALL   38F8
....................    ApagaSalidas(); 
08436:  CALL   392E
....................    Sensor[0].Gain=105.56; 
0843A:  MOVLW  B8
0843C:  MOVLB  5
0843E:  MOVWF  x6D
08440:  MOVLW  1E
08442:  MOVWF  x6C
08444:  MOVLW  53
08446:  MOVWF  x6B
08448:  MOVLW  85
0844A:  MOVWF  x6A
....................    Sensor[1].Gain=105.56; 
0844C:  MOVLW  B8
0844E:  MOVLB  6
08450:  MOVWF  xD1
08452:  MOVLW  1E
08454:  MOVWF  xD0
08456:  MOVLW  53
08458:  MOVWF  xCF
0845A:  MOVLW  85
0845C:  MOVWF  xCE
....................    Imprime=10; 
0845E:  MOVLW  0A
08460:  MOVLB  3
08462:  MOVWF  xA1
....................    sensores(5);sensores(6); 
08464:  MOVLW  05
08466:  MOVLB  7
08468:  MOVWF  x06
0846A:  MOVLB  0
0846C:  CALL   3956
08470:  MOVLW  06
08472:  MOVLB  7
08474:  MOVWF  x06
08476:  MOVLB  0
08478:  CALL   3956
....................     
....................    for(i=0;i<MediaMovil;i++){ 
0847C:  MOVLB  3
0847E:  CLRF   x52
08480:  MOVLB  2
08482:  MOVF   xCF,W
08484:  MOVLB  3
08486:  SUBWF  x52,W
08488:  BC    851E
....................       Temperatura=LeerPT100(0,MediaMovil); 
0848A:  MOVLB  7
0848C:  CLRF   x02
0848E:  MOVFF  2CF,703
08492:  MOVLB  0
08494:  CALL   3AA4
08498:  MOVFF  03,319
0849C:  MOVFF  02,318
084A0:  MOVFF  01,317
084A4:  MOVFF  00,316
....................       Temperatura2=LeerPT100(1,MediaMovil); 
084A8:  MOVLW  01
084AA:  MOVLB  7
084AC:  MOVWF  x02
084AE:  MOVFF  2CF,703
084B2:  MOVLB  0
084B4:  CALL   3AA4
084B8:  MOVFF  03,321
084BC:  MOVFF  02,320
084C0:  MOVFF  01,31F
084C4:  MOVFF  00,31E
....................       PresionCamara=Leer_Sensor_Presion_Camara(10); 
084C8:  MOVLW  0A
084CA:  MOVLB  7
084CC:  MOVWF  x02
084CE:  MOVLB  0
084D0:  CALL   4384
084D4:  MOVFF  03,715
084D8:  MOVFF  02,714
084DC:  MOVFF  01,713
084E0:  MOVFF  00,712
084E4:  CALL   4582
084E8:  MOVFF  02,369
084EC:  MOVFF  01,368
....................       PresionPreCamara=Leer_Sensor_Presion_PreCamara(10); 
084F0:  MOVLW  0A
084F2:  MOVLB  6
084F4:  MOVWF  xFA
084F6:  MOVLB  0
084F8:  GOTO   45BE
084FC:  MOVFF  03,715
08500:  MOVFF  02,714
08504:  MOVFF  01,713
08508:  MOVFF  00,712
0850C:  CALL   4582
08510:  MOVFF  02,36B
08514:  MOVFF  01,36A
....................    } 
08518:  MOVLB  3
0851A:  INCF   x52,F
0851C:  BRA    8480
....................     
....................    if(UP && DOWN && RIGHT && LEFT)//Si oprime boton de Toma. 
0851E:  BSF    F93.0
08520:  BTFSC  F81.0
08522:  BRA    85AA
08524:  BSF    F93.1
08526:  BTFSC  F81.1
08528:  BRA    85AA
0852A:  BSF    F93.2
0852C:  BTFSC  F81.2
0852E:  BRA    85AA
08530:  BSF    F93.3
08532:  BTFSC  F81.3
08534:  BRA    85AA
....................    { 
....................       write_eeprom(37,0); 
08536:  CLRF   FAA
08538:  MOVLW  25
0853A:  MOVWF  FA9
0853C:  CLRF   FA8
0853E:  BCF    FA6.6
08540:  BCF    FA6.7
08542:  BSF    FA6.2
08544:  MOVF   FF2,W
08546:  MOVWF  00
08548:  BCF    FF2.6
0854A:  BCF    FF2.7
0854C:  MOVLB  F
0854E:  MOVLW  55
08550:  MOVWF  FA7
08552:  MOVLW  AA
08554:  MOVWF  FA7
08556:  BSF    FA6.1
08558:  BTFSC  FA6.1
0855A:  BRA    8558
0855C:  BCF    FA6.2
0855E:  MOVF   00,W
08560:  IORWF  FF2,F
....................       delay_ms(20); 
08562:  MOVLW  14
08564:  MOVLB  7
08566:  MOVWF  x10
08568:  MOVLB  0
0856A:  CALL   1992
....................       write_eeprom(38,0); 
0856E:  CLRF   FAA
08570:  MOVLW  26
08572:  MOVWF  FA9
08574:  CLRF   FA8
08576:  BCF    FA6.6
08578:  BCF    FA6.7
0857A:  BSF    FA6.2
0857C:  MOVF   FF2,W
0857E:  MOVWF  00
08580:  BCF    FF2.6
08582:  BCF    FF2.7
08584:  MOVLB  F
08586:  MOVLW  55
08588:  MOVWF  FA7
0858A:  MOVLW  AA
0858C:  MOVWF  FA7
0858E:  BSF    FA6.1
08590:  BTFSC  FA6.1
08592:  BRA    8590
08594:  BCF    FA6.2
08596:  MOVF   00,W
08598:  IORWF  FF2,F
....................       delay_ms(20); 
0859A:  MOVLW  14
0859C:  MOVLB  7
0859E:  MOVWF  x10
085A0:  MOVLB  0
085A2:  CALL   1992
....................       reset_cpu(); 
085A6:  RESET
085A8:  MOVLB  3
....................    } 
....................     
....................    while(true) 
....................    { 
....................       LeeDisplay(); 
085AA:  MOVLB  0
085AC:  GOTO   47BE
....................       Envio_Esclavos(); 
085B0:  CALL   4A94
....................       delay_ms(1); 
085B4:  MOVLW  01
085B6:  MOVLB  7
085B8:  MOVWF  x10
085BA:  MOVLB  0
085BC:  CALL   1992
....................       //Lectura_Esclavos(); 
....................       restart_wdt(); 
085C0:  CLRWDT
....................        
....................       if(!Esterilizando || Desfogando || Enfriando){ 
085C2:  BTFSS  xA0.2
085C4:  BRA    85CE
085C6:  BTFSC  xA0.5
085C8:  BRA    85CE
085CA:  BTFSS  xA1.4
085CC:  BRA    85D8
....................          CalculoImpresion=180; 
085CE:  MOVLW  B4
085D0:  MOVLB  3
085D2:  MOVWF  x4A
....................       }else{ 
085D4:  BRA    85DE
085D6:  MOVLB  0
....................          CalculoImpresion=60; 
085D8:  MOVLW  3C
085DA:  MOVLB  3
085DC:  MOVWF  x4A
....................       } 
....................       graficaCurva(6000); 
085DE:  MOVLW  17
085E0:  MOVLB  6
085E2:  MOVWF  xFB
085E4:  MOVLW  70
085E6:  MOVWF  xFA
085E8:  MOVLB  0
085EA:  GOTO   4B2C
....................       muestreo(20); 
085EE:  MOVLB  6
085F0:  CLRF   xFB
085F2:  MOVLW  14
085F4:  MOVWF  xFA
085F6:  MOVLB  0
085F8:  GOTO   4B84
....................       monitoreaAgua(); 
085FC:  GOTO   4D56
....................       monitoreaStop(); 
08600:  GOTO   4E84
....................        
....................   
.................... //_-------------------------------------------------------------------------------------------------------------------------------------------------------- 
....................    if(Menu==240){ //Menu de Bienvenida. 
08604:  MOVLB  3
08606:  MOVF   x4F,W
08608:  SUBLW  F0
0860A:  BNZ   8654
....................       printf("bkcmd=0"); 
0860C:  MOVLW  7A
0860E:  MOVWF  FF6
08610:  MOVLW  05
08612:  MOVWF  FF7
08614:  MOVLW  00
08616:  MOVWF  FF8
08618:  MOVLB  0
0861A:  CALL   38C6
....................       SendDataDisplay(); 
0861E:  CALL   38F8
....................       delay_ms(1500); 
08622:  MOVLW  06
08624:  MOVLB  7
08626:  MOVWF  x00
08628:  MOVLW  FA
0862A:  MOVWF  x10
0862C:  MOVLB  0
0862E:  CALL   1992
08632:  MOVLB  7
08634:  DECFSZ x00,F
08636:  BRA    8628
....................       printf("page Clave"); 
08638:  MOVLW  82
0863A:  MOVWF  FF6
0863C:  MOVLW  05
0863E:  MOVWF  FF7
08640:  MOVLW  00
08642:  MOVWF  FF8
08644:  MOVLB  0
08646:  CALL   38C6
....................       SendDataDisplay(); 
0864A:  CALL   38F8
....................       ApagaSalidas(); 
0864E:  CALL   392E
08652:  MOVLB  3
....................    } 
.................... //_-------------------------------------------------------------------------------------------------------------------------------------------------------- 
....................  
.................... //_-------------------------------------------------------------------------------------------------------------------------------------------------------- 
....................     if(Menu==0){ //Menu de Contrasea de acceso. 
08654:  MOVF   x4F,F
08656:  BTFSS  FD8.2
08658:  GOTO   90D2
....................       ApagaSalidas(); 
0865C:  MOVLB  0
0865E:  CALL   392E
....................       entro=OFF; 
08662:  BCF    xA3.5
....................       if(Digito==1){ 
08664:  MOVLB  2
08666:  DECFSZ xD4,W
08668:  BRA    86B4
....................          printf("t0.txt=\"%u\"",Contrasena[0]); 
0866A:  MOVLW  8E
0866C:  MOVWF  FF6
0866E:  MOVLW  05
08670:  MOVWF  FF7
08672:  MOVLW  00
08674:  MOVWF  FF8
08676:  MOVLW  08
08678:  MOVLB  7
0867A:  MOVWF  x05
0867C:  MOVLB  0
0867E:  CALL   4EDC
08682:  MOVFF  376,705
08686:  MOVLW  1B
08688:  MOVLB  7
0868A:  MOVWF  x06
0868C:  MOVLB  0
0868E:  CALL   4F3A
08692:  MOVLW  22
08694:  BTFSS  F9E.4
08696:  BRA    8694
08698:  MOVWF  FAD
....................          SendDataDisplay(); 
0869A:  CALL   38F8
....................          printf("va0.val=1"); 
0869E:  MOVLW  9A
086A0:  MOVWF  FF6
086A2:  MOVLW  05
086A4:  MOVWF  FF7
086A6:  MOVLW  00
086A8:  MOVWF  FF8
086AA:  CALL   38C6
....................          SendDataDisplay(); 
086AE:  CALL   38F8
086B2:  MOVLB  2
....................       } 
....................        
....................       if(Digito==2){ 
086B4:  MOVF   xD4,W
086B6:  SUBLW  02
086B8:  BNZ   8714
....................          printf("t0.txt=\"%u%u\"",Contrasena[0],Contrasena[1]); 
086BA:  MOVLW  A4
086BC:  MOVWF  FF6
086BE:  MOVLW  05
086C0:  MOVWF  FF7
086C2:  MOVLW  00
086C4:  MOVWF  FF8
086C6:  MOVLW  08
086C8:  MOVLB  7
086CA:  MOVWF  x05
086CC:  MOVLB  0
086CE:  CALL   4EDC
086D2:  MOVFF  376,705
086D6:  MOVLW  1B
086D8:  MOVLB  7
086DA:  MOVWF  x06
086DC:  MOVLB  0
086DE:  CALL   4F3A
086E2:  MOVFF  377,705
086E6:  MOVLW  1B
086E8:  MOVLB  7
086EA:  MOVWF  x06
086EC:  MOVLB  0
086EE:  CALL   4F3A
086F2:  MOVLW  22
086F4:  BTFSS  F9E.4
086F6:  BRA    86F4
086F8:  MOVWF  FAD
....................          SendDataDisplay(); 
086FA:  CALL   38F8
....................          printf("va0.val=2"); 
086FE:  MOVLW  B2
08700:  MOVWF  FF6
08702:  MOVLW  05
08704:  MOVWF  FF7
08706:  MOVLW  00
08708:  MOVWF  FF8
0870A:  CALL   38C6
....................          SendDataDisplay(); 
0870E:  CALL   38F8
08712:  MOVLB  2
....................       } 
....................        
....................       if(Digito==3){ 
08714:  MOVF   xD4,W
08716:  SUBLW  03
08718:  BNZ   8784
....................          printf("t0.txt=\"%u%u%u\"",Contrasena[0],Contrasena[1],Contrasena[2]); 
0871A:  MOVLW  BC
0871C:  MOVWF  FF6
0871E:  MOVLW  05
08720:  MOVWF  FF7
08722:  MOVLW  00
08724:  MOVWF  FF8
08726:  MOVLW  08
08728:  MOVLB  7
0872A:  MOVWF  x05
0872C:  MOVLB  0
0872E:  CALL   4EDC
08732:  MOVFF  376,705
08736:  MOVLW  1B
08738:  MOVLB  7
0873A:  MOVWF  x06
0873C:  MOVLB  0
0873E:  CALL   4F3A
08742:  MOVFF  377,705
08746:  MOVLW  1B
08748:  MOVLB  7
0874A:  MOVWF  x06
0874C:  MOVLB  0
0874E:  CALL   4F3A
08752:  MOVFF  378,705
08756:  MOVLW  1B
08758:  MOVLB  7
0875A:  MOVWF  x06
0875C:  MOVLB  0
0875E:  CALL   4F3A
08762:  MOVLW  22
08764:  BTFSS  F9E.4
08766:  BRA    8764
08768:  MOVWF  FAD
....................          SendDataDisplay(); 
0876A:  CALL   38F8
....................          printf("va0.val=3"); 
0876E:  MOVLW  CC
08770:  MOVWF  FF6
08772:  MOVLW  05
08774:  MOVWF  FF7
08776:  MOVLW  00
08778:  MOVWF  FF8
0877A:  CALL   38C6
....................          SendDataDisplay(); 
0877E:  CALL   38F8
08782:  MOVLB  2
....................       } 
....................        
....................       if(Digito==4){ 
08784:  MOVF   xD4,W
08786:  SUBLW  04
08788:  BNZ   8804
....................          printf("t0.txt=\"%u%u%u%u\"",Contrasena[0],Contrasena[1],Contrasena[2],Contrasena[3]); 
0878A:  MOVLW  D6
0878C:  MOVWF  FF6
0878E:  MOVLW  05
08790:  MOVWF  FF7
08792:  MOVLW  00
08794:  MOVWF  FF8
08796:  MOVLW  08
08798:  MOVLB  7
0879A:  MOVWF  x05
0879C:  MOVLB  0
0879E:  CALL   4EDC
087A2:  MOVFF  376,705
087A6:  MOVLW  1B
087A8:  MOVLB  7
087AA:  MOVWF  x06
087AC:  MOVLB  0
087AE:  CALL   4F3A
087B2:  MOVFF  377,705
087B6:  MOVLW  1B
087B8:  MOVLB  7
087BA:  MOVWF  x06
087BC:  MOVLB  0
087BE:  CALL   4F3A
087C2:  MOVFF  378,705
087C6:  MOVLW  1B
087C8:  MOVLB  7
087CA:  MOVWF  x06
087CC:  MOVLB  0
087CE:  CALL   4F3A
087D2:  MOVFF  379,705
087D6:  MOVLW  1B
087D8:  MOVLB  7
087DA:  MOVWF  x06
087DC:  MOVLB  0
087DE:  CALL   4F3A
087E2:  MOVLW  22
087E4:  BTFSS  F9E.4
087E6:  BRA    87E4
087E8:  MOVWF  FAD
....................          SendDataDisplay(); 
087EA:  CALL   38F8
....................          printf("va0.val=4"); 
087EE:  MOVLW  E8
087F0:  MOVWF  FF6
087F2:  MOVLW  05
087F4:  MOVWF  FF7
087F6:  MOVLW  00
087F8:  MOVWF  FF8
087FA:  CALL   38C6
....................          SendDataDisplay(); 
087FE:  CALL   38F8
08802:  MOVLB  2
....................       } 
....................        
....................       if(UP){ 
08804:  BSF    F93.0
08806:  BTFSC  F81.0
08808:  BRA    8852
....................          delay_ms(100); 
0880A:  MOVLW  64
0880C:  MOVLB  7
0880E:  MOVWF  x10
08810:  MOVLB  0
08812:  CALL   1992
....................          if(UP){ 
08816:  BSF    F93.0
08818:  BTFSC  F81.0
0881A:  BRA    8854
....................          if(Digito==0) 
0881C:  MOVLB  2
0881E:  MOVF   xD4,F
08820:  BNZ   8826
....................             Digito=1; 
08822:  MOVLW  01
08824:  MOVWF  xD4
....................             if(Contrasena[Digito-1]<9) 
08826:  MOVLW  01
08828:  SUBWF  xD4,W
0882A:  CLRF   03
0882C:  ADDLW  76
0882E:  MOVWF  FE9
08830:  MOVLW  03
08832:  ADDWFC 03,W
08834:  MOVWF  FEA
08836:  BTFSC  FEF.7
08838:  BRA    8840
0883A:  MOVF   FEF,W
0883C:  SUBLW  08
0883E:  BNC   8852
....................                Contrasena[Digito-1]++; 
08840:  MOVLW  01
08842:  SUBWF  xD4,W
08844:  CLRF   03
08846:  ADDLW  76
08848:  MOVWF  FE9
0884A:  MOVLW  03
0884C:  ADDWFC 03,W
0884E:  MOVWF  FEA
08850:  INCF   FEF,F
08852:  MOVLB  0
....................          } 
....................       } 
....................        
....................       if(DOWN){ 
08854:  BSF    F93.1
08856:  BTFSC  F81.1
08858:  BRA    88A4
....................          delay_ms(100); 
0885A:  MOVLW  64
0885C:  MOVLB  7
0885E:  MOVWF  x10
08860:  MOVLB  0
08862:  CALL   1992
....................          if(Digito==0) 
08866:  MOVLB  2
08868:  MOVF   xD4,F
0886A:  BNZ   8870
....................             Digito=1; 
0886C:  MOVLW  01
0886E:  MOVWF  xD4
....................          if(DOWN){ 
08870:  BSF    F93.1
08872:  BTFSC  F81.1
08874:  BRA    88A2
....................             if(Contrasena[Digito-1]>0) 
08876:  MOVLW  01
08878:  SUBWF  xD4,W
0887A:  CLRF   03
0887C:  ADDLW  76
0887E:  MOVWF  FE9
08880:  MOVLW  03
08882:  ADDWFC 03,W
08884:  MOVWF  FEA
08886:  BTFSC  FEF.7
08888:  BRA    88A2
0888A:  MOVF   FEF,W
0888C:  SUBLW  00
0888E:  BC    88A2
....................                Contrasena[Digito-1]--; 
08890:  MOVLW  01
08892:  SUBWF  xD4,W
08894:  CLRF   03
08896:  ADDLW  76
08898:  MOVWF  FE9
0889A:  MOVLW  03
0889C:  ADDWFC 03,W
0889E:  MOVWF  FEA
088A0:  DECF   FEF,F
088A2:  MOVLB  0
....................          } 
....................       } 
....................        
....................       if(RIGHT){ 
088A4:  BSF    F93.2
088A6:  BTFSC  F81.2
088A8:  BRA    88C2
....................          delay_ms(100); 
088AA:  MOVLW  64
088AC:  MOVLB  7
088AE:  MOVWF  x10
088B0:  MOVLB  0
088B2:  CALL   1992
....................          if(RIGHT){ 
088B6:  BSF    F93.2
088B8:  BTFSC  F81.2
088BA:  BRA    88C2
....................             Digito++; 
088BC:  MOVLB  2
088BE:  INCF   xD4,F
088C0:  MOVLB  0
....................          } 
....................       } 
....................        
....................       if(Digito>4){ 
088C2:  MOVLB  2
088C4:  MOVF   xD4,W
088C6:  SUBLW  04
088C8:  BTFSC  FD8.0
088CA:  BRA    8C1C
....................       Digito=0; 
088CC:  CLRF   xD4
....................       printf("t0.txt=\"\""); 
088CE:  MOVLW  F2
088D0:  MOVWF  FF6
088D2:  MOVLW  05
088D4:  MOVWF  FF7
088D6:  MOVLW  00
088D8:  MOVWF  FF8
088DA:  MOVLB  0
088DC:  CALL   38C6
....................       SendDataDisplay(); 
088E0:  CALL   38F8
....................          if(TipoClave==0){ 
088E4:  MOVLB  2
088E6:  MOVF   xD2,F
088E8:  BTFSS  FD8.2
088EA:  BRA    8A3A
....................             if(Contrasena[0]==3&&Contrasena[1]==8&&Contrasena[2]==9&&Contrasena[3]==2){ // Si Ingresa clave para reset general del sistema. 
088EC:  MOVLB  3
088EE:  MOVF   x76,W
088F0:  SUBLW  03
088F2:  BTFSS  FD8.2
088F4:  BRA    89EE
088F6:  MOVF   x77,W
088F8:  SUBLW  08
088FA:  BTFSS  FD8.2
088FC:  BRA    89EE
088FE:  MOVF   x78,W
08900:  SUBLW  09
08902:  BNZ   89EE
08904:  MOVF   x79,W
08906:  SUBLW  02
08908:  BNZ   89EE
....................                write_eeprom(10,0);delay_ms(20);write_eeprom(11,0);delay_ms(20);// Reestablece a contrasea de Fabrica y reinicia Programa. 
0890A:  CLRF   FAA
0890C:  MOVLW  0A
0890E:  MOVWF  FA9
08910:  CLRF   FA8
08912:  BCF    FA6.6
08914:  BCF    FA6.7
08916:  BSF    FA6.2
08918:  MOVF   FF2,W
0891A:  MOVWF  00
0891C:  BCF    FF2.6
0891E:  BCF    FF2.7
08920:  MOVLB  F
08922:  MOVLW  55
08924:  MOVWF  FA7
08926:  MOVLW  AA
08928:  MOVWF  FA7
0892A:  BSF    FA6.1
0892C:  BTFSC  FA6.1
0892E:  BRA    892C
08930:  BCF    FA6.2
08932:  MOVF   00,W
08934:  IORWF  FF2,F
08936:  MOVLW  14
08938:  MOVLB  7
0893A:  MOVWF  x10
0893C:  MOVLB  0
0893E:  CALL   1992
08942:  CLRF   FAA
08944:  MOVLW  0B
08946:  MOVWF  FA9
08948:  CLRF   FA8
0894A:  BCF    FA6.6
0894C:  BCF    FA6.7
0894E:  BSF    FA6.2
08950:  MOVF   FF2,W
08952:  MOVWF  00
08954:  BCF    FF2.6
08956:  BCF    FF2.7
08958:  MOVLB  F
0895A:  MOVLW  55
0895C:  MOVWF  FA7
0895E:  MOVLW  AA
08960:  MOVWF  FA7
08962:  BSF    FA6.1
08964:  BTFSC  FA6.1
08966:  BRA    8964
08968:  BCF    FA6.2
0896A:  MOVF   00,W
0896C:  IORWF  FF2,F
0896E:  MOVLW  14
08970:  MOVLB  7
08972:  MOVWF  x10
08974:  MOVLB  0
08976:  CALL   1992
....................                write_eeprom(12,0);delay_ms(20);write_eeprom(13,0);delay_ms(20); 
0897A:  CLRF   FAA
0897C:  MOVLW  0C
0897E:  MOVWF  FA9
08980:  CLRF   FA8
08982:  BCF    FA6.6
08984:  BCF    FA6.7
08986:  BSF    FA6.2
08988:  MOVF   FF2,W
0898A:  MOVWF  00
0898C:  BCF    FF2.6
0898E:  BCF    FF2.7
08990:  MOVLB  F
08992:  MOVLW  55
08994:  MOVWF  FA7
08996:  MOVLW  AA
08998:  MOVWF  FA7
0899A:  BSF    FA6.1
0899C:  BTFSC  FA6.1
0899E:  BRA    899C
089A0:  BCF    FA6.2
089A2:  MOVF   00,W
089A4:  IORWF  FF2,F
089A6:  MOVLW  14
089A8:  MOVLB  7
089AA:  MOVWF  x10
089AC:  MOVLB  0
089AE:  CALL   1992
089B2:  CLRF   FAA
089B4:  MOVLW  0D
089B6:  MOVWF  FA9
089B8:  CLRF   FA8
089BA:  BCF    FA6.6
089BC:  BCF    FA6.7
089BE:  BSF    FA6.2
089C0:  MOVF   FF2,W
089C2:  MOVWF  00
089C4:  BCF    FF2.6
089C6:  BCF    FF2.7
089C8:  MOVLB  F
089CA:  MOVLW  55
089CC:  MOVWF  FA7
089CE:  MOVLW  AA
089D0:  MOVWF  FA7
089D2:  BSF    FA6.1
089D4:  BTFSC  FA6.1
089D6:  BRA    89D4
089D8:  BCF    FA6.2
089DA:  MOVF   00,W
089DC:  IORWF  FF2,F
089DE:  MOVLW  14
089E0:  MOVLB  7
089E2:  MOVWF  x10
089E4:  MOVLB  0
089E6:  CALL   1992
....................                reset_cpu(); 
089EA:  RESET
089EC:  MOVLB  3
....................             } 
....................              
....................             if((Contrasena[0]==Password[0])&&(Contrasena[1]==Password[1])&&(Contrasena[2]==Password[2])&&(Contrasena[3]==Password[3])){ 
089EE:  MOVF   x7A,W
089F0:  SUBWF  x76,W
089F2:  BNZ   8A20
089F4:  MOVF   x7B,W
089F6:  SUBWF  x77,W
089F8:  BNZ   8A20
089FA:  MOVF   x7C,W
089FC:  SUBWF  x78,W
089FE:  BNZ   8A20
08A00:  MOVF   x7D,W
08A02:  SUBWF  x79,W
08A04:  BNZ   8A20
....................                //BorraBuffer(); 
....................                printf("page ClaveCorrecta"); 
08A06:  MOVLW  FC
08A08:  MOVWF  FF6
08A0A:  MOVLW  05
08A0C:  MOVWF  FF7
08A0E:  MOVLW  00
08A10:  MOVWF  FF8
08A12:  MOVLB  0
08A14:  CALL   38C6
....................                SendDataDisplay(); 
08A18:  CALL   38F8
....................             }else{ 
08A1C:  BRA    8A36
08A1E:  MOVLB  3
....................                //BorraBuffer(); 
....................                printf("page ClaveBad"); 
08A20:  MOVLW  10
08A22:  MOVWF  FF6
08A24:  MOVLW  06
08A26:  MOVWF  FF7
08A28:  MOVLW  00
08A2A:  MOVWF  FF8
08A2C:  MOVLB  0
08A2E:  CALL   38C6
....................                SendDataDisplay(); 
08A32:  CALL   38F8
....................             }  
....................          }else if(TipoClave==1){ 
08A36:  BRA    8C1A
08A38:  MOVLB  2
08A3A:  DECFSZ xD2,W
08A3C:  BRA    8A8C
....................             if(Contrasena[0]==4&&Contrasena[1]==4&&Contrasena[2]==4&&Contrasena[3]==4){ // Si Ingresa clave de Servicio Tecnico 
08A3E:  MOVLB  3
08A40:  MOVF   x76,W
08A42:  SUBLW  04
08A44:  BNZ   8A72
08A46:  MOVF   x77,W
08A48:  SUBLW  04
08A4A:  BNZ   8A72
08A4C:  MOVF   x78,W
08A4E:  SUBLW  04
08A50:  BNZ   8A72
08A52:  MOVF   x79,W
08A54:  SUBLW  04
08A56:  BNZ   8A72
....................                printf("page Config"); 
08A58:  MOVLW  1E
08A5A:  MOVWF  FF6
08A5C:  MOVLW  06
08A5E:  MOVWF  FF7
08A60:  MOVLW  00
08A62:  MOVWF  FF8
08A64:  MOVLB  0
08A66:  CALL   38C6
....................                SendDataDisplay(); 
08A6A:  CALL   38F8
....................             }else{ 
08A6E:  BRA    8A88
08A70:  MOVLB  3
....................                printf("page MenuPrincipal"); 
08A72:  MOVLW  2A
08A74:  MOVWF  FF6
08A76:  MOVLW  06
08A78:  MOVWF  FF7
08A7A:  MOVLW  00
08A7C:  MOVWF  FF8
08A7E:  MOVLB  0
08A80:  CALL   38C6
....................                SendDataDisplay(); 
08A84:  CALL   38F8
....................             } 
....................          }else if(TipoClave==2){ 
08A88:  BRA    8C1A
08A8A:  MOVLB  2
08A8C:  MOVF   xD2,W
08A8E:  SUBLW  02
08A90:  BNZ   8AFA
....................             if((Contrasena[0]==Password[0])&&(Contrasena[1]==Password[1])&&(Contrasena[2]==Password[2])&&(Contrasena[3]==Password[3])){ 
08A92:  MOVLB  3
08A94:  MOVF   x7A,W
08A96:  SUBWF  x76,W
08A98:  BNZ   8AE0
08A9A:  MOVF   x7B,W
08A9C:  SUBWF  x77,W
08A9E:  BNZ   8AE0
08AA0:  MOVF   x7C,W
08AA2:  SUBWF  x78,W
08AA4:  BNZ   8AE0
08AA6:  MOVF   x7D,W
08AA8:  SUBWF  x79,W
08AAA:  BNZ   8AE0
....................                printf("page Clave"); 
08AAC:  MOVLW  3E
08AAE:  MOVWF  FF6
08AB0:  MOVLW  06
08AB2:  MOVWF  FF7
08AB4:  MOVLW  00
08AB6:  MOVWF  FF8
08AB8:  MOVLB  0
08ABA:  CALL   38C6
....................                SendDataDisplay(); 
08ABE:  CALL   38F8
....................                printf("titulo.txt=\"Clave Nueva\""); 
08AC2:  MOVLW  4A
08AC4:  MOVWF  FF6
08AC6:  MOVLW  06
08AC8:  MOVWF  FF7
08ACA:  MOVLW  00
08ACC:  MOVWF  FF8
08ACE:  CALL   38C6
....................                SendDataDisplay(); 
08AD2:  CALL   38F8
....................                TipoClave=3; 
08AD6:  MOVLW  03
08AD8:  MOVLB  2
08ADA:  MOVWF  xD2
....................             }else{ 
08ADC:  BRA    8AF8
08ADE:  MOVLB  3
....................                printf("page MenuPrincipal"); 
08AE0:  MOVLW  64
08AE2:  MOVWF  FF6
08AE4:  MOVLW  06
08AE6:  MOVWF  FF7
08AE8:  MOVLW  00
08AEA:  MOVWF  FF8
08AEC:  MOVLB  0
08AEE:  CALL   38C6
....................                SendDataDisplay(); 
08AF2:  CALL   38F8
08AF6:  MOVLB  2
....................             }  
....................          }else if(TipoClave==3){ 
08AF8:  BRA    8C1C
08AFA:  MOVF   xD2,W
08AFC:  SUBLW  03
08AFE:  BTFSS  FD8.2
08B00:  BRA    8C1C
....................             printf("titulo.txt=\"Clave Nueva\""); 
08B02:  MOVLW  78
08B04:  MOVWF  FF6
08B06:  MOVLW  06
08B08:  MOVWF  FF7
08B0A:  MOVLW  00
08B0C:  MOVWF  FF8
08B0E:  MOVLB  0
08B10:  CALL   38C6
....................             SendDataDisplay(); 
08B14:  CALL   38F8
....................             printf("page MenuPrincipal"); 
08B18:  MOVLW  92
08B1A:  MOVWF  FF6
08B1C:  MOVLW  06
08B1E:  MOVWF  FF7
08B20:  MOVLW  00
08B22:  MOVWF  FF8
08B24:  CALL   38C6
....................             SendDataDisplay(); 
08B28:  CALL   38F8
....................             if(!GuardaEEPROM){ 
08B2C:  BTFSC  xA2.1
08B2E:  BRA    8C1A
....................                write_eeprom(10,Contrasena[0]);delay_ms(20);write_eeprom(11,Contrasena[1]);delay_ms(20); 
08B30:  CLRF   FAA
08B32:  MOVLW  0A
08B34:  MOVWF  FA9
08B36:  MOVFF  376,FA8
08B3A:  BCF    FA6.6
08B3C:  BCF    FA6.7
08B3E:  BSF    FA6.2
08B40:  MOVF   FF2,W
08B42:  MOVWF  00
08B44:  BCF    FF2.6
08B46:  BCF    FF2.7
08B48:  MOVLB  F
08B4A:  MOVLW  55
08B4C:  MOVWF  FA7
08B4E:  MOVLW  AA
08B50:  MOVWF  FA7
08B52:  BSF    FA6.1
08B54:  BTFSC  FA6.1
08B56:  BRA    8B54
08B58:  BCF    FA6.2
08B5A:  MOVF   00,W
08B5C:  IORWF  FF2,F
08B5E:  MOVLW  14
08B60:  MOVLB  7
08B62:  MOVWF  x10
08B64:  MOVLB  0
08B66:  CALL   1992
08B6A:  CLRF   FAA
08B6C:  MOVLW  0B
08B6E:  MOVWF  FA9
08B70:  MOVFF  377,FA8
08B74:  BCF    FA6.6
08B76:  BCF    FA6.7
08B78:  BSF    FA6.2
08B7A:  MOVF   FF2,W
08B7C:  MOVWF  00
08B7E:  BCF    FF2.6
08B80:  BCF    FF2.7
08B82:  MOVLB  F
08B84:  MOVLW  55
08B86:  MOVWF  FA7
08B88:  MOVLW  AA
08B8A:  MOVWF  FA7
08B8C:  BSF    FA6.1
08B8E:  BTFSC  FA6.1
08B90:  BRA    8B8E
08B92:  BCF    FA6.2
08B94:  MOVF   00,W
08B96:  IORWF  FF2,F
08B98:  MOVLW  14
08B9A:  MOVLB  7
08B9C:  MOVWF  x10
08B9E:  MOVLB  0
08BA0:  CALL   1992
....................                write_eeprom(12,Contrasena[2]);delay_ms(20);write_eeprom(13,Contrasena[3]);delay_ms(20); 
08BA4:  CLRF   FAA
08BA6:  MOVLW  0C
08BA8:  MOVWF  FA9
08BAA:  MOVFF  378,FA8
08BAE:  BCF    FA6.6
08BB0:  BCF    FA6.7
08BB2:  BSF    FA6.2
08BB4:  MOVF   FF2,W
08BB6:  MOVWF  00
08BB8:  BCF    FF2.6
08BBA:  BCF    FF2.7
08BBC:  MOVLB  F
08BBE:  MOVLW  55
08BC0:  MOVWF  FA7
08BC2:  MOVLW  AA
08BC4:  MOVWF  FA7
08BC6:  BSF    FA6.1
08BC8:  BTFSC  FA6.1
08BCA:  BRA    8BC8
08BCC:  BCF    FA6.2
08BCE:  MOVF   00,W
08BD0:  IORWF  FF2,F
08BD2:  MOVLW  14
08BD4:  MOVLB  7
08BD6:  MOVWF  x10
08BD8:  MOVLB  0
08BDA:  CALL   1992
08BDE:  CLRF   FAA
08BE0:  MOVLW  0D
08BE2:  MOVWF  FA9
08BE4:  MOVFF  379,FA8
08BE8:  BCF    FA6.6
08BEA:  BCF    FA6.7
08BEC:  BSF    FA6.2
08BEE:  MOVF   FF2,W
08BF0:  MOVWF  00
08BF2:  BCF    FF2.6
08BF4:  BCF    FF2.7
08BF6:  MOVLB  F
08BF8:  MOVLW  55
08BFA:  MOVWF  FA7
08BFC:  MOVLW  AA
08BFE:  MOVWF  FA7
08C00:  BSF    FA6.1
08C02:  BTFSC  FA6.1
08C04:  BRA    8C02
08C06:  BCF    FA6.2
08C08:  MOVF   00,W
08C0A:  IORWF  FF2,F
08C0C:  MOVLW  14
08C0E:  MOVLB  7
08C10:  MOVWF  x10
08C12:  MOVLB  0
08C14:  CALL   1992
....................                GuardaEEPROM=ON; 
08C18:  BSF    xA2.1
08C1A:  MOVLB  2
....................             } 
....................          } 
....................       } 
....................        
....................       if(RX_Buffer[4]==0x11){//11 
08C1C:  MOVF   34,W
08C1E:  SUBLW  11
08C20:  BNZ   8C40
....................          if(TipoClave!=0){ 
08C22:  MOVF   xD2,F
08C24:  BZ    8C40
....................             printf("page MenuPrincipal"); 
08C26:  MOVLW  A6
08C28:  MOVWF  FF6
08C2A:  MOVLW  06
08C2C:  MOVWF  FF7
08C2E:  MOVLW  00
08C30:  MOVWF  FF8
08C32:  MOVLB  0
08C34:  CALL   38C6
....................             SendDataDisplay(); 
08C38:  CALL   38F8
....................             PantallaPrincipal=0; 
08C3C:  MOVLB  2
08C3E:  CLRF   xD1
....................          } 
....................       } 
....................        
....................       if(TipoClave==3){ 
08C40:  MOVF   xD2,W
08C42:  SUBLW  03
08C44:  BNZ   8C72
....................          printf("titulo.txt=\"Clave Nueva\""); 
08C46:  MOVLW  BA
08C48:  MOVWF  FF6
08C4A:  MOVLW  06
08C4C:  MOVWF  FF7
08C4E:  MOVLW  00
08C50:  MOVWF  FF8
08C52:  MOVLB  0
08C54:  CALL   38C6
....................          SendDataDisplay(); 
08C58:  CALL   38F8
....................          printf("doevents"); 
08C5C:  MOVLW  D4
08C5E:  MOVWF  FF6
08C60:  MOVLW  06
08C62:  MOVWF  FF7
08C64:  MOVLW  00
08C66:  MOVWF  FF8
08C68:  CALL   38C6
....................          SendDataDisplay(); 
08C6C:  CALL   38F8
08C70:  MOVLB  2
....................       } 
....................        
....................       if(TipoClave==2){ 
08C72:  MOVF   xD2,W
08C74:  SUBLW  02
08C76:  BNZ   8CA4
....................          printf("titulo.txt=\"Clave Actual\""); 
08C78:  MOVLW  DE
08C7A:  MOVWF  FF6
08C7C:  MOVLW  06
08C7E:  MOVWF  FF7
08C80:  MOVLW  00
08C82:  MOVWF  FF8
08C84:  MOVLB  0
08C86:  CALL   38C6
....................          SendDataDisplay(); 
08C8A:  CALL   38F8
....................          printf("doevents"); 
08C8E:  MOVLW  F8
08C90:  MOVWF  FF6
08C92:  MOVLW  06
08C94:  MOVWF  FF7
08C96:  MOVLW  00
08C98:  MOVWF  FF8
08C9A:  CALL   38C6
....................          SendDataDisplay(); 
08C9E:  CALL   38F8
08CA2:  MOVLB  2
....................       } 
....................        
....................       if(TipoClave==1){ 
08CA4:  DECFSZ xD2,W
08CA6:  BRA    8CD4
....................          printf("titulo.txt=\"Clave Tecnico\""); 
08CA8:  MOVLW  02
08CAA:  MOVWF  FF6
08CAC:  MOVLW  07
08CAE:  MOVWF  FF7
08CB0:  MOVLW  00
08CB2:  MOVWF  FF8
08CB4:  MOVLB  0
08CB6:  CALL   38C6
....................          SendDataDisplay(); 
08CBA:  CALL   38F8
....................          printf("doevents"); 
08CBE:  MOVLW  1E
08CC0:  MOVWF  FF6
08CC2:  MOVLW  07
08CC4:  MOVWF  FF7
08CC6:  MOVLW  00
08CC8:  MOVWF  FF8
08CCA:  CALL   38C6
....................          SendDataDisplay(); 
08CCE:  CALL   38F8
08CD2:  MOVLB  2
....................       } 
....................        
....................       if(TipoClave==0){ 
08CD4:  MOVF   xD2,F
08CD6:  BNZ   8CF0
....................          printf("titulo.txt=\"Ingrese Contrasea\""); 
08CD8:  MOVLW  28
08CDA:  MOVWF  FF6
08CDC:  MOVLW  07
08CDE:  MOVWF  FF7
08CE0:  MOVLW  00
08CE2:  MOVWF  FF8
08CE4:  MOVLB  0
08CE6:  CALL   38C6
....................          SendDataDisplay(); 
08CEA:  CALL   38F8
08CEE:  MOVLB  2
....................       } 
....................       if(RX_Buffer[3]==0x0f){//0f, recibe caracteres ingresados desde el Display 
08CF0:  MOVF   33,W
08CF2:  SUBLW  0F
08CF4:  BTFSS  FD8.2
08CF6:  BRA    90D0
....................          if(TipoClave==0){ 
08CF8:  MOVF   xD2,F
08CFA:  BTFSS  FD8.2
08CFC:  BRA    8E8C
....................             if(RX_Buffer[4]==0x33&&RX_Buffer[5]==0x38&&RX_Buffer[6]==0x39&&RX_Buffer[7]==0x32){ // Si Ingresa clave para reset general del sistema. 
08CFE:  MOVF   34,W
08D00:  SUBLW  33
08D02:  BTFSS  FD8.2
08D04:  BRA    8DFE
08D06:  MOVF   35,W
08D08:  SUBLW  38
08D0A:  BTFSS  FD8.2
08D0C:  BRA    8DFE
08D0E:  MOVF   36,W
08D10:  SUBLW  39
08D12:  BNZ   8DFE
08D14:  MOVF   37,W
08D16:  SUBLW  32
08D18:  BNZ   8DFE
....................                write_eeprom(10,0);delay_ms(20);write_eeprom(11,0);delay_ms(20);// Reestablece a contrasea de Fabrica y reinicia Programa. 
08D1A:  CLRF   FAA
08D1C:  MOVLW  0A
08D1E:  MOVWF  FA9
08D20:  CLRF   FA8
08D22:  BCF    FA6.6
08D24:  BCF    FA6.7
08D26:  BSF    FA6.2
08D28:  MOVF   FF2,W
08D2A:  MOVWF  00
08D2C:  BCF    FF2.6
08D2E:  BCF    FF2.7
08D30:  MOVLB  F
08D32:  MOVLW  55
08D34:  MOVWF  FA7
08D36:  MOVLW  AA
08D38:  MOVWF  FA7
08D3A:  BSF    FA6.1
08D3C:  BTFSC  FA6.1
08D3E:  BRA    8D3C
08D40:  BCF    FA6.2
08D42:  MOVF   00,W
08D44:  IORWF  FF2,F
08D46:  MOVLW  14
08D48:  MOVLB  7
08D4A:  MOVWF  x10
08D4C:  MOVLB  0
08D4E:  CALL   1992
08D52:  CLRF   FAA
08D54:  MOVLW  0B
08D56:  MOVWF  FA9
08D58:  CLRF   FA8
08D5A:  BCF    FA6.6
08D5C:  BCF    FA6.7
08D5E:  BSF    FA6.2
08D60:  MOVF   FF2,W
08D62:  MOVWF  00
08D64:  BCF    FF2.6
08D66:  BCF    FF2.7
08D68:  MOVLB  F
08D6A:  MOVLW  55
08D6C:  MOVWF  FA7
08D6E:  MOVLW  AA
08D70:  MOVWF  FA7
08D72:  BSF    FA6.1
08D74:  BTFSC  FA6.1
08D76:  BRA    8D74
08D78:  BCF    FA6.2
08D7A:  MOVF   00,W
08D7C:  IORWF  FF2,F
08D7E:  MOVLW  14
08D80:  MOVLB  7
08D82:  MOVWF  x10
08D84:  MOVLB  0
08D86:  CALL   1992
....................                write_eeprom(12,0);delay_ms(20);write_eeprom(13,0);delay_ms(20); 
08D8A:  CLRF   FAA
08D8C:  MOVLW  0C
08D8E:  MOVWF  FA9
08D90:  CLRF   FA8
08D92:  BCF    FA6.6
08D94:  BCF    FA6.7
08D96:  BSF    FA6.2
08D98:  MOVF   FF2,W
08D9A:  MOVWF  00
08D9C:  BCF    FF2.6
08D9E:  BCF    FF2.7
08DA0:  MOVLB  F
08DA2:  MOVLW  55
08DA4:  MOVWF  FA7
08DA6:  MOVLW  AA
08DA8:  MOVWF  FA7
08DAA:  BSF    FA6.1
08DAC:  BTFSC  FA6.1
08DAE:  BRA    8DAC
08DB0:  BCF    FA6.2
08DB2:  MOVF   00,W
08DB4:  IORWF  FF2,F
08DB6:  MOVLW  14
08DB8:  MOVLB  7
08DBA:  MOVWF  x10
08DBC:  MOVLB  0
08DBE:  CALL   1992
08DC2:  CLRF   FAA
08DC4:  MOVLW  0D
08DC6:  MOVWF  FA9
08DC8:  CLRF   FA8
08DCA:  BCF    FA6.6
08DCC:  BCF    FA6.7
08DCE:  BSF    FA6.2
08DD0:  MOVF   FF2,W
08DD2:  MOVWF  00
08DD4:  BCF    FF2.6
08DD6:  BCF    FF2.7
08DD8:  MOVLB  F
08DDA:  MOVLW  55
08DDC:  MOVWF  FA7
08DDE:  MOVLW  AA
08DE0:  MOVWF  FA7
08DE2:  BSF    FA6.1
08DE4:  BTFSC  FA6.1
08DE6:  BRA    8DE4
08DE8:  BCF    FA6.2
08DEA:  MOVF   00,W
08DEC:  IORWF  FF2,F
08DEE:  MOVLW  14
08DF0:  MOVLB  7
08DF2:  MOVWF  x10
08DF4:  MOVLB  0
08DF6:  CALL   1992
....................                reset_cpu(); 
08DFA:  RESET
08DFC:  MOVLB  2
....................             } 
....................             if(RX_Buffer[4]>=0x30 && RX_Buffer[5]>=0x30 && RX_Buffer[6]>=0x30 && RX_Buffer[7]>=0x30 
....................             && RX_Buffer[4]<=0x39 && RX_Buffer[5]<=0x39 && RX_Buffer[6]<=0x39 && RX_Buffer[7]<=0x39){ 
08DFE:  MOVF   34,W
08E00:  SUBLW  2F
08E02:  BC    8E8A
08E04:  MOVF   35,W
08E06:  SUBLW  2F
08E08:  BC    8E8A
08E0A:  MOVF   36,W
08E0C:  SUBLW  2F
08E0E:  BC    8E8A
08E10:  MOVF   37,W
08E12:  SUBLW  2F
08E14:  BC    8E8A
08E16:  MOVF   34,W
08E18:  SUBLW  39
08E1A:  BNC   8E8A
08E1C:  MOVF   35,W
08E1E:  SUBLW  39
08E20:  BNC   8E8A
08E22:  MOVF   36,W
08E24:  SUBLW  39
08E26:  BNC   8E8A
08E28:  MOVF   37,W
08E2A:  SUBLW  39
08E2C:  BNC   8E8A
....................             if((RX_Buffer[4]==Password[0]+0x30)&&(RX_Buffer[5]==Password[1]+0x30)&&(RX_Buffer[6]==Password[2]+0x30)&&(RX_Buffer[7]==Password[3]+0x30)){ 
08E2E:  MOVLW  30
08E30:  MOVLB  3
08E32:  ADDWF  x7A,W
08E34:  SUBWF  34,W
08E36:  BNZ   8E6E
08E38:  MOVLW  30
08E3A:  ADDWF  x7B,W
08E3C:  SUBWF  35,W
08E3E:  BNZ   8E6E
08E40:  MOVLW  30
08E42:  ADDWF  x7C,W
08E44:  SUBWF  36,W
08E46:  BNZ   8E6E
08E48:  MOVLW  30
08E4A:  ADDWF  x7D,W
08E4C:  SUBWF  37,W
08E4E:  BNZ   8E6E
....................                   printf("page ClaveCorrecta"); 
08E50:  MOVLW  48
08E52:  MOVWF  FF6
08E54:  MOVLW  07
08E56:  MOVWF  FF7
08E58:  MOVLW  00
08E5A:  MOVWF  FF8
08E5C:  MOVLB  0
08E5E:  CALL   38C6
....................                   //printf("page MenuPrincipal"); 
....................                   SendDataDisplay(); 
08E62:  CALL   38F8
....................                   RX_Buffer[3]=0x00;RX_Buffer2[3]=0x00;   
08E66:  CLRF   33
08E68:  CLRF   3E
....................                }else{ 
08E6A:  BRA    8E88
08E6C:  MOVLB  3
....................                   printf("page ClaveBad"); 
08E6E:  MOVLW  5C
08E70:  MOVWF  FF6
08E72:  MOVLW  07
08E74:  MOVWF  FF7
08E76:  MOVLW  00
08E78:  MOVWF  FF8
08E7A:  MOVLB  0
08E7C:  CALL   38C6
....................                   SendDataDisplay(); 
08E80:  CALL   38F8
....................                   RX_Buffer[3]=0x00;RX_Buffer2[3]=0x00;   
08E84:  CLRF   33
08E86:  CLRF   3E
08E88:  MOVLB  2
....................                }  
....................             } 
....................          }else if(TipoClave==1){ 
08E8A:  BRA    90D0
08E8C:  DECFSZ xD2,W
08E8E:  BRA    8EDC
....................             if(RX_Buffer[4]==0x34&&RX_Buffer[5]==0x34&&RX_Buffer[6]==0x34&&RX_Buffer[7]==0x34){ // Si Ingresa clave de Servicio Tecnico 
08E90:  MOVF   34,W
08E92:  SUBLW  34
08E94:  BNZ   8EC2
08E96:  MOVF   35,W
08E98:  SUBLW  34
08E9A:  BNZ   8EC2
08E9C:  MOVF   36,W
08E9E:  SUBLW  34
08EA0:  BNZ   8EC2
08EA2:  MOVF   37,W
08EA4:  SUBLW  34
08EA6:  BNZ   8EC2
....................                printf("page Config"); 
08EA8:  MOVLW  6A
08EAA:  MOVWF  FF6
08EAC:  MOVLW  07
08EAE:  MOVWF  FF7
08EB0:  MOVLW  00
08EB2:  MOVWF  FF8
08EB4:  MOVLB  0
08EB6:  CALL   38C6
....................                SendDataDisplay(); 
08EBA:  CALL   38F8
....................             }else{ 
08EBE:  BRA    8ED8
08EC0:  MOVLB  2
....................                printf("page MenuPrincipal"); 
08EC2:  MOVLW  76
08EC4:  MOVWF  FF6
08EC6:  MOVLW  07
08EC8:  MOVWF  FF7
08ECA:  MOVLW  00
08ECC:  MOVWF  FF8
08ECE:  MOVLB  0
08ED0:  CALL   38C6
....................                SendDataDisplay(); 
08ED4:  CALL   38F8
....................             } 
....................          }else if(TipoClave==2){ 
08ED8:  BRA    90CE
08EDA:  MOVLB  2
08EDC:  MOVF   xD2,W
08EDE:  SUBLW  02
08EE0:  BNZ   8F8A
....................             if(RX_Buffer[4]>=0x30 && RX_Buffer[5]>=0x30 && RX_Buffer[6]>=0x30 && RX_Buffer[7]>=0x30 
....................             && RX_Buffer[4]<=0x39 && RX_Buffer[5]<=0x39 && RX_Buffer[6]<=0x39 && RX_Buffer[7]<=0x39){ 
08EE2:  MOVF   34,W
08EE4:  SUBLW  2F
08EE6:  BC    8F88
08EE8:  MOVF   35,W
08EEA:  SUBLW  2F
08EEC:  BC    8F88
08EEE:  MOVF   36,W
08EF0:  SUBLW  2F
08EF2:  BC    8F88
08EF4:  MOVF   37,W
08EF6:  SUBLW  2F
08EF8:  BC    8F88
08EFA:  MOVF   34,W
08EFC:  SUBLW  39
08EFE:  BNC   8F88
08F00:  MOVF   35,W
08F02:  SUBLW  39
08F04:  BNC   8F88
08F06:  MOVF   36,W
08F08:  SUBLW  39
08F0A:  BNC   8F88
08F0C:  MOVF   37,W
08F0E:  SUBLW  39
08F10:  BNC   8F88
....................             if((RX_Buffer[4]==Password[0]+0x30)&&(RX_Buffer[5]==Password[1]+0x30)&&(RX_Buffer[6]==Password[2]+0x30)&&(RX_Buffer[7]==Password[3]+0x30)){ 
08F12:  MOVLW  30
08F14:  MOVLB  3
08F16:  ADDWF  x7A,W
08F18:  SUBWF  34,W
08F1A:  BNZ   8F6C
08F1C:  MOVLW  30
08F1E:  ADDWF  x7B,W
08F20:  SUBWF  35,W
08F22:  BNZ   8F6C
08F24:  MOVLW  30
08F26:  ADDWF  x7C,W
08F28:  SUBWF  36,W
08F2A:  BNZ   8F6C
08F2C:  MOVLW  30
08F2E:  ADDWF  x7D,W
08F30:  SUBWF  37,W
08F32:  BNZ   8F6C
....................                printf("page Clave"); 
08F34:  MOVLW  8A
08F36:  MOVWF  FF6
08F38:  MOVLW  07
08F3A:  MOVWF  FF7
08F3C:  MOVLW  00
08F3E:  MOVWF  FF8
08F40:  MOVLB  0
08F42:  CALL   38C6
....................                SendDataDisplay(); 
08F46:  CALL   38F8
....................                printf("titulo.txt=\"Clave Nueva\""); 
08F4A:  MOVLW  96
08F4C:  MOVWF  FF6
08F4E:  MOVLW  07
08F50:  MOVWF  FF7
08F52:  MOVLW  00
08F54:  MOVWF  FF8
08F56:  CALL   38C6
....................                SendDataDisplay(); 
08F5A:  CALL   38F8
....................                TipoClave=3; 
08F5E:  MOVLW  03
08F60:  MOVLB  2
08F62:  MOVWF  xD2
....................                RX_Buffer[3]=0x00; 
08F64:  CLRF   33
....................                RX_Buffer2[3]=0x00; 
08F66:  CLRF   3E
....................             }else{ 
08F68:  BRA    8F88
08F6A:  MOVLB  3
....................                printf("page MenuPrincipal"); 
08F6C:  MOVLW  B0
08F6E:  MOVWF  FF6
08F70:  MOVLW  07
08F72:  MOVWF  FF7
08F74:  MOVLW  00
08F76:  MOVWF  FF8
08F78:  MOVLB  0
08F7A:  CALL   38C6
....................                SendDataDisplay(); 
08F7E:  CALL   38F8
....................                RX_Buffer[3]=0x00; 
08F82:  CLRF   33
....................                RX_Buffer2[3]=0x00; 
08F84:  CLRF   3E
08F86:  MOVLB  2
....................             }  
....................             } 
....................          }else if(TipoClave==3){ 
08F88:  BRA    90D0
08F8A:  MOVF   xD2,W
08F8C:  SUBLW  03
08F8E:  BTFSS  FD8.2
08F90:  BRA    90D0
....................             printf("titulo.txt=\"Clave Nueva\""); 
08F92:  MOVLW  C4
08F94:  MOVWF  FF6
08F96:  MOVLW  07
08F98:  MOVWF  FF7
08F9A:  MOVLW  00
08F9C:  MOVWF  FF8
08F9E:  MOVLB  0
08FA0:  CALL   38C6
....................             SendDataDisplay(); 
08FA4:  CALL   38F8
....................             printf("page MenuPrincipal"); 
08FA8:  MOVLW  DE
08FAA:  MOVWF  FF6
08FAC:  MOVLW  07
08FAE:  MOVWF  FF7
08FB0:  MOVLW  00
08FB2:  MOVWF  FF8
08FB4:  CALL   38C6
....................             SendDataDisplay(); 
08FB8:  CALL   38F8
....................             if(!GuardaEEPROM){ 
08FBC:  BTFSC  xA2.1
08FBE:  BRA    90CA
....................                write_eeprom(10,RX_Buffer[4]-0x30);delay_ms(20);write_eeprom(11,RX_Buffer[5]-0x30);delay_ms(20); 
08FC0:  MOVLW  30
08FC2:  SUBWF  34,W
08FC4:  MOVLB  7
08FC6:  MOVWF  x00
08FC8:  CLRF   FAA
08FCA:  MOVLW  0A
08FCC:  MOVWF  FA9
08FCE:  MOVFF  700,FA8
08FD2:  BCF    FA6.6
08FD4:  BCF    FA6.7
08FD6:  BSF    FA6.2
08FD8:  MOVF   FF2,W
08FDA:  MOVWF  00
08FDC:  BCF    FF2.6
08FDE:  BCF    FF2.7
08FE0:  MOVLB  F
08FE2:  MOVLW  55
08FE4:  MOVWF  FA7
08FE6:  MOVLW  AA
08FE8:  MOVWF  FA7
08FEA:  BSF    FA6.1
08FEC:  BTFSC  FA6.1
08FEE:  BRA    8FEC
08FF0:  BCF    FA6.2
08FF2:  MOVF   00,W
08FF4:  IORWF  FF2,F
08FF6:  MOVLW  14
08FF8:  MOVLB  7
08FFA:  MOVWF  x10
08FFC:  MOVLB  0
08FFE:  CALL   1992
09002:  MOVLW  30
09004:  SUBWF  35,W
09006:  MOVLB  7
09008:  MOVWF  x00
0900A:  CLRF   FAA
0900C:  MOVLW  0B
0900E:  MOVWF  FA9
09010:  MOVFF  700,FA8
09014:  BCF    FA6.6
09016:  BCF    FA6.7
09018:  BSF    FA6.2
0901A:  MOVF   FF2,W
0901C:  MOVWF  00
0901E:  BCF    FF2.6
09020:  BCF    FF2.7
09022:  MOVLB  F
09024:  MOVLW  55
09026:  MOVWF  FA7
09028:  MOVLW  AA
0902A:  MOVWF  FA7
0902C:  BSF    FA6.1
0902E:  BTFSC  FA6.1
09030:  BRA    902E
09032:  BCF    FA6.2
09034:  MOVF   00,W
09036:  IORWF  FF2,F
09038:  MOVLW  14
0903A:  MOVLB  7
0903C:  MOVWF  x10
0903E:  MOVLB  0
09040:  CALL   1992
....................                write_eeprom(12,RX_Buffer[6]-0x30);delay_ms(20);write_eeprom(13,RX_Buffer[7]-0x30);delay_ms(20); 
09044:  MOVLW  30
09046:  SUBWF  36,W
09048:  MOVLB  7
0904A:  MOVWF  x00
0904C:  CLRF   FAA
0904E:  MOVLW  0C
09050:  MOVWF  FA9
09052:  MOVFF  700,FA8
09056:  BCF    FA6.6
09058:  BCF    FA6.7
0905A:  BSF    FA6.2
0905C:  MOVF   FF2,W
0905E:  MOVWF  00
09060:  BCF    FF2.6
09062:  BCF    FF2.7
09064:  MOVLB  F
09066:  MOVLW  55
09068:  MOVWF  FA7
0906A:  MOVLW  AA
0906C:  MOVWF  FA7
0906E:  BSF    FA6.1
09070:  BTFSC  FA6.1
09072:  BRA    9070
09074:  BCF    FA6.2
09076:  MOVF   00,W
09078:  IORWF  FF2,F
0907A:  MOVLW  14
0907C:  MOVLB  7
0907E:  MOVWF  x10
09080:  MOVLB  0
09082:  CALL   1992
09086:  MOVLW  30
09088:  SUBWF  37,W
0908A:  MOVLB  7
0908C:  MOVWF  x00
0908E:  CLRF   FAA
09090:  MOVLW  0D
09092:  MOVWF  FA9
09094:  MOVFF  700,FA8
09098:  BCF    FA6.6
0909A:  BCF    FA6.7
0909C:  BSF    FA6.2
0909E:  MOVF   FF2,W
090A0:  MOVWF  00
090A2:  BCF    FF2.6
090A4:  BCF    FF2.7
090A6:  MOVLB  F
090A8:  MOVLW  55
090AA:  MOVWF  FA7
090AC:  MOVLW  AA
090AE:  MOVWF  FA7
090B0:  BSF    FA6.1
090B2:  BTFSC  FA6.1
090B4:  BRA    90B2
090B6:  BCF    FA6.2
090B8:  MOVF   00,W
090BA:  IORWF  FF2,F
090BC:  MOVLW  14
090BE:  MOVLB  7
090C0:  MOVWF  x10
090C2:  MOVLB  0
090C4:  CALL   1992
....................                GuardaEEPROM=ON; 
090C8:  BSF    xA2.1
....................             } 
....................             RX_Buffer[3]=0x00; 
090CA:  CLRF   33
....................             RX_Buffer2[3]=0x00; 
090CC:  CLRF   3E
090CE:  MOVLB  2
090D0:  MOVLB  3
....................          } 
....................       } 
....................     } 
.................... //_--------------------------------------------------------------------------------------------------------------------------------------------------------        
....................  
.................... //_-------------------------------------------------------------------------------------------------------------------------------------------------------- 
....................    if(Menu==1){ //Menu Principal. 
090D2:  DECFSZ x4F,W
090D4:  GOTO   9AB6
....................       printf("fecha.txt=\"T:%3.1fC Fecha:%02u/%02u/20%02u Hora: %02u:%02u:%02u\"",Temperatura,Dia,Mes,Year,Hora,Minuto,Segundo); 
090D8:  MOVLW  F2
090DA:  MOVWF  FF6
090DC:  MOVLW  07
090DE:  MOVWF  FF7
090E0:  MOVLW  00
090E2:  MOVWF  FF8
090E4:  MOVLW  0D
090E6:  MOVLB  7
090E8:  MOVWF  x05
090EA:  MOVLB  0
090EC:  CALL   4EDC
090F0:  MOVLW  02
090F2:  MOVWF  FE9
090F4:  MOVFF  319,708
090F8:  MOVFF  318,707
090FC:  MOVFF  317,706
09100:  MOVFF  316,705
09104:  MOVLW  01
09106:  MOVLB  7
09108:  MOVWF  x09
0910A:  MOVLB  0
0910C:  CALL   507C
09110:  MOVLW  04
09112:  MOVWF  FF6
09114:  MOVLW  08
09116:  MOVWF  FF7
09118:  MOVLW  00
0911A:  MOVWF  FF8
0911C:  MOVLW  09
0911E:  MOVLB  7
09120:  MOVWF  x05
09122:  MOVLB  0
09124:  CALL   4EDC
09128:  MOVFF  38D,705
0912C:  MOVLW  01
0912E:  MOVLB  7
09130:  MOVWF  x06
09132:  MOVLB  0
09134:  CALL   4F3A
09138:  MOVLW  2F
0913A:  BTFSS  F9E.4
0913C:  BRA    913A
0913E:  MOVWF  FAD
09140:  MOVFF  38C,705
09144:  MOVLW  01
09146:  MOVLB  7
09148:  MOVWF  x06
0914A:  MOVLB  0
0914C:  CALL   4F3A
09150:  MOVLW  2F
09152:  BTFSS  F9E.4
09154:  BRA    9152
09156:  MOVWF  FAD
09158:  MOVLW  32
0915A:  BTFSS  F9E.4
0915C:  BRA    915A
0915E:  MOVWF  FAD
09160:  MOVLW  30
09162:  BTFSS  F9E.4
09164:  BRA    9162
09166:  MOVWF  FAD
09168:  MOVFF  38B,705
0916C:  MOVLW  01
0916E:  MOVLB  7
09170:  MOVWF  x06
09172:  MOVLB  0
09174:  CALL   4F3A
09178:  MOVLW  1D
0917A:  MOVWF  FF6
0917C:  MOVLW  08
0917E:  MOVWF  FF7
09180:  MOVLW  00
09182:  MOVWF  FF8
09184:  MOVLW  07
09186:  MOVLB  7
09188:  MOVWF  x05
0918A:  MOVLB  0
0918C:  CALL   4EDC
09190:  MOVFF  38E,705
09194:  MOVLW  01
09196:  MOVLB  7
09198:  MOVWF  x06
0919A:  MOVLB  0
0919C:  CALL   4F3A
091A0:  MOVLW  3A
091A2:  BTFSS  F9E.4
091A4:  BRA    91A2
091A6:  MOVWF  FAD
091A8:  MOVFF  38F,705
091AC:  MOVLW  01
091AE:  MOVLB  7
091B0:  MOVWF  x06
091B2:  MOVLB  0
091B4:  CALL   4F3A
091B8:  MOVLW  3A
091BA:  BTFSS  F9E.4
091BC:  BRA    91BA
091BE:  MOVWF  FAD
091C0:  MOVFF  390,705
091C4:  MOVLW  01
091C6:  MOVLB  7
091C8:  MOVWF  x06
091CA:  MOVLB  0
091CC:  CALL   4F3A
091D0:  MOVLW  22
091D2:  BTFSS  F9E.4
091D4:  BRA    91D2
091D6:  MOVWF  FAD
....................       SendDataDisplay(); 
091D8:  CALL   38F8
....................       GuardaEEPROM=OFF; 
091DC:  BCF    xA2.1
....................       PruebaEstados=OFF; 
091DE:  BCF    xA1.2
....................       if(RX_Buffer[3]==0x0f || UP){//0f, recibe caracteres ingresados desde el Display 
091E0:  MOVF   33,W
091E2:  SUBLW  0F
091E4:  BZ    91EC
091E6:  BSF    F93.0
091E8:  BTFSC  F81.0
091EA:  BRA    946E
....................          delay_ms(5); 
091EC:  MOVLW  05
091EE:  MOVLB  7
091F0:  MOVWF  x10
091F2:  MOVLB  0
091F4:  CALL   1992
....................          if(RX_Buffer[3]==0x0f || UP){ 
091F8:  MOVF   33,W
091FA:  SUBLW  0F
091FC:  BZ    9204
091FE:  BSF    F93.0
09200:  BTFSC  F81.0
09202:  BRA    946C
....................          if(PantallaPrincipal==0){//Si esta en menu principal 
09204:  MOVLB  2
09206:  MOVF   xD1,F
09208:  BTFSS  FD8.2
0920A:  BRA    946A
....................             if(RX_Buffer[4]==0x37){//Ajustes y pasa a solicitud de password de tecnico 
0920C:  MOVF   34,W
0920E:  SUBLW  37
09210:  BNZ   923E
....................                printf("page Clave"); 
09212:  MOVLW  34
09214:  MOVWF  FF6
09216:  MOVLW  08
09218:  MOVWF  FF7
0921A:  MOVLW  00
0921C:  MOVWF  FF8
0921E:  MOVLB  0
09220:  CALL   38C6
....................                SendDataDisplay();  
09224:  CALL   38F8
....................                Op=OFF; 
09228:  BCF    xA1.5
....................                Op2=OFF; 
0922A:  BCF    xA1.6
....................                MenuAnt=Menu; 
0922C:  MOVFF  34F,350
....................                TipoClave=1; 
09230:  MOVLW  01
09232:  MOVLB  2
09234:  MOVWF  xD2
....................                RX_Buffer[3]=0x00; 
09236:  CLRF   33
....................                RX_Buffer2[3]=0x00; 
09238:  CLRF   3E
....................                Opcion=0; 
0923A:  MOVLB  3
0923C:  CLRF   x57
....................             }  
....................             if(Opcion==9){// Datos Ciclo 
0923E:  MOVLB  3
09240:  MOVF   x57,W
09242:  SUBLW  09
09244:  BNZ   926C
....................                printf("page Ciclos"); 
09246:  MOVLW  40
09248:  MOVWF  FF6
0924A:  MOVLW  08
0924C:  MOVWF  FF7
0924E:  MOVLW  00
09250:  MOVWF  FF8
09252:  MOVLB  0
09254:  CALL   38C6
....................                SendDataDisplay();  
09258:  CALL   38F8
....................                Op=OFF; 
0925C:  BCF    xA1.5
....................                Op2=OFF; 
0925E:  BCF    xA1.6
....................                MenuAnt=Menu; 
09260:  MOVFF  34F,350
....................                RX_Buffer[3]=0x00; 
09264:  CLRF   33
....................                RX_Buffer2[3]=0x00; 
09266:  CLRF   3E
....................             }else if(Opcion==8){// Cambio de Clave 
09268:  BRA    9468
0926A:  MOVLB  3
0926C:  MOVF   x57,W
0926E:  SUBLW  08
09270:  BNZ   929E
....................                printf("page Clave"); 
09272:  MOVLW  4C
09274:  MOVWF  FF6
09276:  MOVLW  08
09278:  MOVWF  FF7
0927A:  MOVLW  00
0927C:  MOVWF  FF8
0927E:  MOVLB  0
09280:  CALL   38C6
....................                SendDataDisplay();  
09284:  CALL   38F8
....................                Op=OFF; 
09288:  BCF    xA1.5
....................                Op2=OFF; 
0928A:  BCF    xA1.6
....................                MenuAnt=Menu; 
0928C:  MOVFF  34F,350
....................                TipoClave=2; 
09290:  MOVLW  02
09292:  MOVLB  2
09294:  MOVWF  xD2
....................                RX_Buffer[3]=0x00; 
09296:  CLRF   33
....................                RX_Buffer2[3]=0x00; 
09298:  CLRF   3E
....................             }else if(Opcion==7){//Hora y Fecha 
0929A:  BRA    946A
0929C:  MOVLB  3
0929E:  MOVF   x57,W
092A0:  SUBLW  07
092A2:  BNZ   92E4
....................                printf("page Fecha"); 
092A4:  MOVLW  58
092A6:  MOVWF  FF6
092A8:  MOVLW  08
092AA:  MOVWF  FF7
092AC:  MOVLW  00
092AE:  MOVWF  FF8
092B0:  MOVLB  0
092B2:  CALL   38C6
....................                SendDataDisplay();      
092B6:  CALL   38F8
....................                PantallaPrincipal=0; 
092BA:  MOVLB  2
092BC:  CLRF   xD1
....................                MenuAnt=Menu; 
092BE:  MOVFF  34F,350
....................                Op=OFF; 
092C2:  MOVLB  0
092C4:  BCF    xA1.5
....................                Op2=OFF; 
092C6:  BCF    xA1.6
....................                DiaTx=Dia; 
092C8:  MOVFF  38D,39C
....................                MesTx=Mes; 
092CC:  MOVFF  38C,39B
....................                YearTx=Year; 
092D0:  MOVFF  38B,39A
....................                HoraTx=Hora; 
092D4:  MOVFF  38E,39D
....................                MinutoTx=Minuto; 
092D8:  MOVFF  38F,39E
....................                RX_Buffer[3]=0x00; 
092DC:  CLRF   33
....................                RX_Buffer2[3]=0x00;                
092DE:  CLRF   3E
....................             }else if(Opcion==6){//Test 
092E0:  BRA    9468
092E2:  MOVLB  3
092E4:  MOVF   x57,W
092E6:  SUBLW  06
092E8:  BNZ   9316
....................                printf("page Test"); 
092EA:  MOVLW  64
092EC:  MOVWF  FF6
092EE:  MOVLW  08
092F0:  MOVWF  FF7
092F2:  MOVLW  00
092F4:  MOVWF  FF8
092F6:  MOVLB  0
092F8:  CALL   38C6
....................                SendDataDisplay();      
092FC:  CALL   38F8
....................                PantallaPrincipal=0; 
09300:  MOVLB  2
09302:  CLRF   xD1
....................                MenuAnt=Menu; 
09304:  MOVFF  34F,350
....................                Op=OFF; 
09308:  MOVLB  0
0930A:  BCF    xA1.5
....................                Op2=OFF; 
0930C:  BCF    xA1.6
....................                RX_Buffer[3]=0x00; 
0930E:  CLRF   33
....................                RX_Buffer2[3]=0x00;                
09310:  CLRF   3E
....................             }else if(Opcion==5){//Ciclo Personalizado 
09312:  BRA    9468
09314:  MOVLB  3
09316:  MOVF   x57,W
09318:  SUBLW  05
0931A:  BNZ   9342
....................                printf("page CicloPersona"); 
0931C:  MOVLW  6E
0931E:  MOVWF  FF6
09320:  MOVLW  08
09322:  MOVWF  FF7
09324:  MOVLW  00
09326:  MOVWF  FF8
09328:  MOVLB  0
0932A:  CALL   38C6
....................                SendDataDisplay();  
0932E:  CALL   38F8
....................                MenuAnt=Menu; 
09332:  MOVFF  34F,350
....................                Op=OFF; 
09336:  BCF    xA1.5
....................                Op2=OFF; 
09338:  BCF    xA1.6
....................                RX_Buffer[3]=0x00; 
0933A:  CLRF   33
....................                RX_Buffer2[3]=0x00; 
0933C:  CLRF   3E
....................             }else if(Opcion==4){//LiquidosB 
0933E:  BRA    9468
09340:  MOVLB  3
09342:  MOVF   x57,W
09344:  SUBLW  04
09346:  BNZ   938E
....................                printf("page Funcionamiento"); 
09348:  MOVLW  80
0934A:  MOVWF  FF6
0934C:  MOVLW  08
0934E:  MOVWF  FF7
09350:  MOVLW  00
09352:  MOVWF  FF8
09354:  MOVLB  0
09356:  CALL   38C6
....................                SendDataDisplay();        
0935A:  CALL   38F8
....................                ConfiguraCiclo(0,30,0,0,1,4,121,0,0,0); 
0935E:  MOVLB  7
09360:  CLRF   x06
09362:  MOVLW  1E
09364:  MOVWF  x07
09366:  CLRF   x08
09368:  CLRF   x09
0936A:  MOVLW  01
0936C:  MOVWF  x0A
0936E:  MOVLW  04
09370:  MOVWF  x0B
09372:  MOVLW  79
09374:  MOVWF  x0C
09376:  CLRF   x0D
09378:  CLRF   x0E
0937A:  CLRF   x0F
0937C:  MOVLB  0
0937E:  CALL   5220
....................                Op=OFF; 
09382:  BCF    xA1.5
....................                Op2=OFF; 
09384:  BCF    xA1.6
....................                MenuAnt=2; 
09386:  MOVLW  02
09388:  MOVLB  3
0938A:  MOVWF  x50
....................             }else if(Opcion==1){//LiquidosA 
0938C:  BRA    9468
0938E:  DECFSZ x57,W
09390:  BRA    93D6
....................                printf("page Funcionamiento"); 
09392:  MOVLW  94
09394:  MOVWF  FF6
09396:  MOVLW  08
09398:  MOVWF  FF7
0939A:  MOVLW  00
0939C:  MOVWF  FF8
0939E:  MOVLB  0
093A0:  CALL   38C6
....................                SendDataDisplay();        
093A4:  CALL   38F8
....................                ConfiguraCiclo(0,15,0,0,1,1,121,0,0,0);                
093A8:  MOVLB  7
093AA:  CLRF   x06
093AC:  MOVLW  0F
093AE:  MOVWF  x07
093B0:  CLRF   x08
093B2:  CLRF   x09
093B4:  MOVLW  01
093B6:  MOVWF  x0A
093B8:  MOVWF  x0B
093BA:  MOVLW  79
093BC:  MOVWF  x0C
093BE:  CLRF   x0D
093C0:  CLRF   x0E
093C2:  CLRF   x0F
093C4:  MOVLB  0
093C6:  CALL   5220
....................                Op=OFF; 
093CA:  BCF    xA1.5
....................                Op2=OFF; 
093CC:  BCF    xA1.6
....................                MenuAnt=2;                
093CE:  MOVLW  02
093D0:  MOVLB  3
093D2:  MOVWF  x50
....................             }else if(Opcion==3){//Instrumental 
093D4:  BRA    9468
093D6:  MOVF   x57,W
093D8:  SUBLW  03
093DA:  BNZ   9420
....................                printf("page Funcionamiento"); 
093DC:  MOVLW  A8
093DE:  MOVWF  FF6
093E0:  MOVLW  08
093E2:  MOVWF  FF7
093E4:  MOVLW  00
093E6:  MOVWF  FF8
093E8:  MOVLB  0
093EA:  CALL   38C6
....................                SendDataDisplay();        
093EE:  CALL   38F8
....................                ConfiguraCiclo(0,30,0,3,0,3,121,0,0,0); 
093F2:  MOVLB  7
093F4:  CLRF   x06
093F6:  MOVLW  1E
093F8:  MOVWF  x07
093FA:  CLRF   x08
093FC:  MOVLW  03
093FE:  MOVWF  x09
09400:  CLRF   x0A
09402:  MOVWF  x0B
09404:  MOVLW  79
09406:  MOVWF  x0C
09408:  CLRF   x0D
0940A:  CLRF   x0E
0940C:  CLRF   x0F
0940E:  MOVLB  0
09410:  CALL   5220
....................                Op=OFF; 
09414:  BCF    xA1.5
....................                Op2=OFF; 
09416:  BCF    xA1.6
....................                MenuAnt=Menu; 
09418:  MOVFF  34F,350
....................                //if(Temperatura>60)TTrampa=TTrampa+5; 
....................             }else if(Opcion==2){//Caucho 
0941C:  BRA    9468
0941E:  MOVLB  3
09420:  MOVF   x57,W
09422:  SUBLW  02
09424:  BNZ   9468
....................                printf("page Funcionamiento"); 
09426:  MOVLW  BC
09428:  MOVWF  FF6
0942A:  MOVLW  08
0942C:  MOVWF  FF7
0942E:  MOVLW  00
09430:  MOVWF  FF8
09432:  MOVLB  0
09434:  CALL   38C6
....................                SendDataDisplay();        
09438:  CALL   38F8
....................                ConfiguraCiclo(0,15,0,3,0,2,121,0,0,0); 
0943C:  MOVLB  7
0943E:  CLRF   x06
09440:  MOVLW  0F
09442:  MOVWF  x07
09444:  CLRF   x08
09446:  MOVLW  03
09448:  MOVWF  x09
0944A:  CLRF   x0A
0944C:  MOVLW  02
0944E:  MOVWF  x0B
09450:  MOVLW  79
09452:  MOVWF  x0C
09454:  CLRF   x0D
09456:  CLRF   x0E
09458:  CLRF   x0F
0945A:  MOVLB  0
0945C:  CALL   5220
....................                Op=OFF; 
09460:  BCF    xA1.5
....................                Op2=OFF; 
09462:  BCF    xA1.6
....................                MenuAnt=Menu; 
09464:  MOVFF  34F,350
09468:  MOVLB  2
0946A:  MOVLB  0
....................                //if(Temperatura>60)TTrampa=TTrampa+5; 
....................             } 
....................          } 
....................          } 
....................       }else if(PantallaPrincipal==0){ 
0946C:  BRA    9A66
0946E:  MOVLB  2
09470:  MOVF   xD1,F
09472:  BTFSS  FD8.2
09474:  BRA    9A68
....................          if(Opcion>sizeof(iconoGrande)) 
09476:  MOVLB  3
09478:  MOVF   x57,W
0947A:  SUBLW  09
0947C:  BC    9482
....................             Opcion=1; 
0947E:  MOVLW  01
09480:  MOVWF  x57
....................              
....................          if(Opcion<1) 
09482:  MOVF   x57,F
09484:  BNZ   948A
....................             Opcion=sizeof(iconoGrande); 
09486:  MOVLW  09
09488:  MOVWF  x57
....................           
....................          if(Opcion==1){ 
0948A:  DECFSZ x57,W
0948C:  BRA    963A
....................             printf("bc.pic=%u",iconoGrande[Opcion-1]); 
0948E:  MOVLW  01
09490:  SUBWF  x57,W
09492:  CLRF   03
09494:  ADDLW  A6
09496:  MOVWF  FE9
09498:  MOVLW  03
0949A:  ADDWFC 03,W
0949C:  MOVWF  FEA
0949E:  MOVFF  FEF,700
094A2:  MOVLW  D0
094A4:  MOVWF  FF6
094A6:  MOVLW  08
094A8:  MOVWF  FF7
094AA:  MOVLW  00
094AC:  MOVWF  FF8
094AE:  MOVLW  07
094B0:  MOVLB  7
094B2:  MOVWF  x05
094B4:  MOVLB  0
094B6:  CALL   4EDC
094BA:  MOVFF  700,705
094BE:  MOVLW  1B
094C0:  MOVLB  7
094C2:  MOVWF  x06
094C4:  MOVLB  0
094C6:  CALL   4F3A
....................             SendDataDisplay(); 
094CA:  CALL   38F8
....................             printf("bd.pic=%u",iconoPeque[Opcion]); 
094CE:  CLRF   03
094D0:  MOVLB  3
094D2:  MOVF   x57,W
094D4:  ADDLW  AF
094D6:  MOVWF  FE9
094D8:  MOVLW  03
094DA:  ADDWFC 03,W
094DC:  MOVWF  FEA
094DE:  MOVFF  FEF,700
094E2:  MOVLW  DA
094E4:  MOVWF  FF6
094E6:  MOVLW  08
094E8:  MOVWF  FF7
094EA:  MOVLW  00
094EC:  MOVWF  FF8
094EE:  MOVLW  07
094F0:  MOVLB  7
094F2:  MOVWF  x05
094F4:  MOVLB  0
094F6:  CALL   4EDC
094FA:  MOVFF  700,705
094FE:  MOVLW  1B
09500:  MOVLB  7
09502:  MOVWF  x06
09504:  MOVLB  0
09506:  CALL   4F3A
....................             SendDataDisplay(); 
0950A:  CALL   38F8
....................             printf("bi.pic=%u",iconoPeque[sizeof(iconoGrande)-1]); 
0950E:  MOVLW  E4
09510:  MOVWF  FF6
09512:  MOVLW  08
09514:  MOVWF  FF7
09516:  MOVLW  00
09518:  MOVWF  FF8
0951A:  MOVLW  07
0951C:  MOVLB  7
0951E:  MOVWF  x05
09520:  MOVLB  0
09522:  CALL   4EDC
09526:  MOVFF  3B7,705
0952A:  MOVLW  1B
0952C:  MOVLB  7
0952E:  MOVWF  x06
09530:  MOVLB  0
09532:  CALL   4F3A
....................             SendDataDisplay(); 
09536:  CALL   38F8
....................             printf("bc.pic2=%u",iconoGrande[Opcion-1]); 
0953A:  MOVLW  01
0953C:  MOVLB  3
0953E:  SUBWF  x57,W
09540:  CLRF   03
09542:  ADDLW  A6
09544:  MOVWF  FE9
09546:  MOVLW  03
09548:  ADDWFC 03,W
0954A:  MOVWF  FEA
0954C:  MOVFF  FEF,700
09550:  MOVLW  EE
09552:  MOVWF  FF6
09554:  MOVLW  08
09556:  MOVWF  FF7
09558:  MOVLW  00
0955A:  MOVWF  FF8
0955C:  MOVLW  08
0955E:  MOVLB  7
09560:  MOVWF  x05
09562:  MOVLB  0
09564:  CALL   4EDC
09568:  MOVFF  700,705
0956C:  MOVLW  1B
0956E:  MOVLB  7
09570:  MOVWF  x06
09572:  MOVLB  0
09574:  CALL   4F3A
....................             SendDataDisplay(); 
09578:  CALL   38F8
....................             printf("bd.pic2=%u",iconoPeque[Opcion]); 
0957C:  CLRF   03
0957E:  MOVLB  3
09580:  MOVF   x57,W
09582:  ADDLW  AF
09584:  MOVWF  FE9
09586:  MOVLW  03
09588:  ADDWFC 03,W
0958A:  MOVWF  FEA
0958C:  MOVFF  FEF,700
09590:  MOVLW  FA
09592:  MOVWF  FF6
09594:  MOVLW  08
09596:  MOVWF  FF7
09598:  MOVLW  00
0959A:  MOVWF  FF8
0959C:  MOVLW  08
0959E:  MOVLB  7
095A0:  MOVWF  x05
095A2:  MOVLB  0
095A4:  CALL   4EDC
095A8:  MOVFF  700,705
095AC:  MOVLW  1B
095AE:  MOVLB  7
095B0:  MOVWF  x06
095B2:  MOVLB  0
095B4:  CALL   4F3A
....................             SendDataDisplay(); 
095B8:  CALL   38F8
....................             printf("bi.pic2=%u",iconoPeque[sizeof(iconoGrande)-1]); 
095BC:  MOVLW  06
095BE:  MOVWF  FF6
095C0:  MOVLW  09
095C2:  MOVWF  FF7
095C4:  MOVLW  00
095C6:  MOVWF  FF8
095C8:  MOVLW  08
095CA:  MOVLB  7
095CC:  MOVWF  x05
095CE:  MOVLB  0
095D0:  CALL   4EDC
095D4:  MOVFF  3B7,705
095D8:  MOVLW  1B
095DA:  MOVLB  7
095DC:  MOVWF  x06
095DE:  MOVLB  0
095E0:  CALL   4F3A
....................             SendDataDisplay(); 
095E4:  CALL   38F8
....................             printf("textop.txt=\"%s\"",texto[Opcion-1]); 
095E8:  MOVLW  01
095EA:  MOVLB  3
095EC:  SUBWF  x57,W
095EE:  MULLW  14
095F0:  MOVF   FF3,W
095F2:  CLRF   03
095F4:  MOVLB  7
095F6:  MOVWF  x00
095F8:  MOVLW  12
095FA:  MOVWF  FF6
095FC:  MOVLW  09
095FE:  MOVWF  FF7
09600:  MOVLW  00
09602:  MOVWF  FF8
09604:  MOVLW  0C
09606:  MOVWF  x05
09608:  MOVLB  0
0960A:  CALL   4EDC
0960E:  MOVLW  50
09610:  MOVWF  FF6
09612:  MOVLW  01
09614:  MOVWF  FF7
09616:  MOVLW  00
09618:  MOVWF  FF8
0961A:  MOVLB  7
0961C:  MOVF   x00,W
0961E:  ADDWF  FF6,F
09620:  MOVLW  00
09622:  ADDWFC FF7,F
09624:  MOVLB  0
09626:  CALL   38C6
0962A:  MOVLW  22
0962C:  BTFSS  F9E.4
0962E:  BRA    962C
09630:  MOVWF  FAD
....................             SendDataDisplay(); 
09632:  CALL   38F8
....................          }else if(Opcion==sizeof(iconoGrande)){ 
09636:  BRA    99C6
09638:  MOVLB  3
0963A:  MOVF   x57,W
0963C:  SUBLW  09
0963E:  BTFSS  FD8.2
09640:  BRA    97F2
....................             printf("bc.pic=%u",iconoGrande[Opcion-1]); 
09642:  MOVLW  01
09644:  SUBWF  x57,W
09646:  CLRF   03
09648:  ADDLW  A6
0964A:  MOVWF  FE9
0964C:  MOVLW  03
0964E:  ADDWFC 03,W
09650:  MOVWF  FEA
09652:  MOVFF  FEF,700
09656:  MOVLW  22
09658:  MOVWF  FF6
0965A:  MOVLW  09
0965C:  MOVWF  FF7
0965E:  MOVLW  00
09660:  MOVWF  FF8
09662:  MOVLW  07
09664:  MOVLB  7
09666:  MOVWF  x05
09668:  MOVLB  0
0966A:  CALL   4EDC
0966E:  MOVFF  700,705
09672:  MOVLW  1B
09674:  MOVLB  7
09676:  MOVWF  x06
09678:  MOVLB  0
0967A:  CALL   4F3A
....................             SendDataDisplay(); 
0967E:  CALL   38F8
....................             printf("bd.pic=%u",iconoPeque[0]); 
09682:  MOVLW  2C
09684:  MOVWF  FF6
09686:  MOVLW  09
09688:  MOVWF  FF7
0968A:  MOVLW  00
0968C:  MOVWF  FF8
0968E:  MOVLW  07
09690:  MOVLB  7
09692:  MOVWF  x05
09694:  MOVLB  0
09696:  CALL   4EDC
0969A:  MOVFF  3AF,705
0969E:  MOVLW  1B
096A0:  MOVLB  7
096A2:  MOVWF  x06
096A4:  MOVLB  0
096A6:  CALL   4F3A
....................             SendDataDisplay(); 
096AA:  CALL   38F8
....................             printf("bi.pic=%u",iconoPeque[Opcion-2]); 
096AE:  MOVLW  02
096B0:  MOVLB  3
096B2:  SUBWF  x57,W
096B4:  CLRF   03
096B6:  ADDLW  AF
096B8:  MOVWF  FE9
096BA:  MOVLW  03
096BC:  ADDWFC 03,W
096BE:  MOVWF  FEA
096C0:  MOVFF  FEF,700
096C4:  MOVLW  36
096C6:  MOVWF  FF6
096C8:  MOVLW  09
096CA:  MOVWF  FF7
096CC:  MOVLW  00
096CE:  MOVWF  FF8
096D0:  MOVLW  07
096D2:  MOVLB  7
096D4:  MOVWF  x05
096D6:  MOVLB  0
096D8:  CALL   4EDC
096DC:  MOVFF  700,705
096E0:  MOVLW  1B
096E2:  MOVLB  7
096E4:  MOVWF  x06
096E6:  MOVLB  0
096E8:  CALL   4F3A
....................             SendDataDisplay(); 
096EC:  CALL   38F8
....................             printf("bc.pic2=%u",iconoGrande[Opcion-1]); 
096F0:  MOVLW  01
096F2:  MOVLB  3
096F4:  SUBWF  x57,W
096F6:  CLRF   03
096F8:  ADDLW  A6
096FA:  MOVWF  FE9
096FC:  MOVLW  03
096FE:  ADDWFC 03,W
09700:  MOVWF  FEA
09702:  MOVFF  FEF,700
09706:  MOVLW  40
09708:  MOVWF  FF6
0970A:  MOVLW  09
0970C:  MOVWF  FF7
0970E:  MOVLW  00
09710:  MOVWF  FF8
09712:  MOVLW  08
09714:  MOVLB  7
09716:  MOVWF  x05
09718:  MOVLB  0
0971A:  CALL   4EDC
0971E:  MOVFF  700,705
09722:  MOVLW  1B
09724:  MOVLB  7
09726:  MOVWF  x06
09728:  MOVLB  0
0972A:  CALL   4F3A
....................             SendDataDisplay(); 
0972E:  CALL   38F8
....................             printf("bd.pic2=%u",iconoPeque[0]); 
09732:  MOVLW  4C
09734:  MOVWF  FF6
09736:  MOVLW  09
09738:  MOVWF  FF7
0973A:  MOVLW  00
0973C:  MOVWF  FF8
0973E:  MOVLW  08
09740:  MOVLB  7
09742:  MOVWF  x05
09744:  MOVLB  0
09746:  CALL   4EDC
0974A:  MOVFF  3AF,705
0974E:  MOVLW  1B
09750:  MOVLB  7
09752:  MOVWF  x06
09754:  MOVLB  0
09756:  CALL   4F3A
....................             SendDataDisplay(); 
0975A:  CALL   38F8
....................             printf("bi.pic2=%u",iconoPeque[Opcion-2]); 
0975E:  MOVLW  02
09760:  MOVLB  3
09762:  SUBWF  x57,W
09764:  CLRF   03
09766:  ADDLW  AF
09768:  MOVWF  FE9
0976A:  MOVLW  03
0976C:  ADDWFC 03,W
0976E:  MOVWF  FEA
09770:  MOVFF  FEF,700
09774:  MOVLW  58
09776:  MOVWF  FF6
09778:  MOVLW  09
0977A:  MOVWF  FF7
0977C:  MOVLW  00
0977E:  MOVWF  FF8
09780:  MOVLW  08
09782:  MOVLB  7
09784:  MOVWF  x05
09786:  MOVLB  0
09788:  CALL   4EDC
0978C:  MOVFF  700,705
09790:  MOVLW  1B
09792:  MOVLB  7
09794:  MOVWF  x06
09796:  MOVLB  0
09798:  CALL   4F3A
....................             SendDataDisplay(); 
0979C:  CALL   38F8
....................             printf("textop.txt=\"%s\"",texto[Opcion-1]); 
097A0:  MOVLW  01
097A2:  MOVLB  3
097A4:  SUBWF  x57,W
097A6:  MULLW  14
097A8:  MOVF   FF3,W
097AA:  CLRF   03
097AC:  MOVLB  7
097AE:  MOVWF  x00
097B0:  MOVLW  64
097B2:  MOVWF  FF6
097B4:  MOVLW  09
097B6:  MOVWF  FF7
097B8:  MOVLW  00
097BA:  MOVWF  FF8
097BC:  MOVLW  0C
097BE:  MOVWF  x05
097C0:  MOVLB  0
097C2:  CALL   4EDC
097C6:  MOVLW  50
097C8:  MOVWF  FF6
097CA:  MOVLW  01
097CC:  MOVWF  FF7
097CE:  MOVLW  00
097D0:  MOVWF  FF8
097D2:  MOVLB  7
097D4:  MOVF   x00,W
097D6:  ADDWF  FF6,F
097D8:  MOVLW  00
097DA:  ADDWFC FF7,F
097DC:  MOVLB  0
097DE:  CALL   38C6
097E2:  MOVLW  22
097E4:  BTFSS  F9E.4
097E6:  BRA    97E4
097E8:  MOVWF  FAD
....................             SendDataDisplay(); 
097EA:  CALL   38F8
....................          }else{ 
097EE:  BRA    99C6
097F0:  MOVLB  3
....................             printf("bc.pic=%u",iconoGrande[Opcion-1]); 
097F2:  MOVLW  01
097F4:  SUBWF  x57,W
097F6:  CLRF   03
097F8:  ADDLW  A6
097FA:  MOVWF  FE9
097FC:  MOVLW  03
097FE:  ADDWFC 03,W
09800:  MOVWF  FEA
09802:  MOVFF  FEF,700
09806:  MOVLW  74
09808:  MOVWF  FF6
0980A:  MOVLW  09
0980C:  MOVWF  FF7
0980E:  MOVLW  00
09810:  MOVWF  FF8
09812:  MOVLW  07
09814:  MOVLB  7
09816:  MOVWF  x05
09818:  MOVLB  0
0981A:  CALL   4EDC
0981E:  MOVFF  700,705
09822:  MOVLW  1B
09824:  MOVLB  7
09826:  MOVWF  x06
09828:  MOVLB  0
0982A:  CALL   4F3A
....................             SendDataDisplay(); 
0982E:  CALL   38F8
....................             printf("bd.pic=%u",iconoPeque[Opcion]); 
09832:  CLRF   03
09834:  MOVLB  3
09836:  MOVF   x57,W
09838:  ADDLW  AF
0983A:  MOVWF  FE9
0983C:  MOVLW  03
0983E:  ADDWFC 03,W
09840:  MOVWF  FEA
09842:  MOVFF  FEF,700
09846:  MOVLW  7E
09848:  MOVWF  FF6
0984A:  MOVLW  09
0984C:  MOVWF  FF7
0984E:  MOVLW  00
09850:  MOVWF  FF8
09852:  MOVLW  07
09854:  MOVLB  7
09856:  MOVWF  x05
09858:  MOVLB  0
0985A:  CALL   4EDC
0985E:  MOVFF  700,705
09862:  MOVLW  1B
09864:  MOVLB  7
09866:  MOVWF  x06
09868:  MOVLB  0
0986A:  CALL   4F3A
....................             SendDataDisplay(); 
0986E:  CALL   38F8
....................             printf("bi.pic=%u",iconoPeque[Opcion-2]); 
09872:  MOVLW  02
09874:  MOVLB  3
09876:  SUBWF  x57,W
09878:  CLRF   03
0987A:  ADDLW  AF
0987C:  MOVWF  FE9
0987E:  MOVLW  03
09880:  ADDWFC 03,W
09882:  MOVWF  FEA
09884:  MOVFF  FEF,700
09888:  MOVLW  88
0988A:  MOVWF  FF6
0988C:  MOVLW  09
0988E:  MOVWF  FF7
09890:  MOVLW  00
09892:  MOVWF  FF8
09894:  MOVLW  07
09896:  MOVLB  7
09898:  MOVWF  x05
0989A:  MOVLB  0
0989C:  CALL   4EDC
098A0:  MOVFF  700,705
098A4:  MOVLW  1B
098A6:  MOVLB  7
098A8:  MOVWF  x06
098AA:  MOVLB  0
098AC:  CALL   4F3A
....................             SendDataDisplay(); 
098B0:  CALL   38F8
....................             printf("bc.pic2=%u",iconoGrande[Opcion-1]); 
098B4:  MOVLW  01
098B6:  MOVLB  3
098B8:  SUBWF  x57,W
098BA:  CLRF   03
098BC:  ADDLW  A6
098BE:  MOVWF  FE9
098C0:  MOVLW  03
098C2:  ADDWFC 03,W
098C4:  MOVWF  FEA
098C6:  MOVFF  FEF,700
098CA:  MOVLW  92
098CC:  MOVWF  FF6
098CE:  MOVLW  09
098D0:  MOVWF  FF7
098D2:  MOVLW  00
098D4:  MOVWF  FF8
098D6:  MOVLW  08
098D8:  MOVLB  7
098DA:  MOVWF  x05
098DC:  MOVLB  0
098DE:  CALL   4EDC
098E2:  MOVFF  700,705
098E6:  MOVLW  1B
098E8:  MOVLB  7
098EA:  MOVWF  x06
098EC:  MOVLB  0
098EE:  CALL   4F3A
....................             SendDataDisplay(); 
098F2:  CALL   38F8
....................             printf("bd.pic2=%u",iconoPeque[Opcion]); 
098F6:  CLRF   03
098F8:  MOVLB  3
098FA:  MOVF   x57,W
098FC:  ADDLW  AF
098FE:  MOVWF  FE9
09900:  MOVLW  03
09902:  ADDWFC 03,W
09904:  MOVWF  FEA
09906:  MOVFF  FEF,700
0990A:  MOVLW  9E
0990C:  MOVWF  FF6
0990E:  MOVLW  09
09910:  MOVWF  FF7
09912:  MOVLW  00
09914:  MOVWF  FF8
09916:  MOVLW  08
09918:  MOVLB  7
0991A:  MOVWF  x05
0991C:  MOVLB  0
0991E:  CALL   4EDC
09922:  MOVFF  700,705
09926:  MOVLW  1B
09928:  MOVLB  7
0992A:  MOVWF  x06
0992C:  MOVLB  0
0992E:  CALL   4F3A
....................             SendDataDisplay(); 
09932:  CALL   38F8
....................             printf("bi.pic2=%u",iconoPeque[Opcion-2]); 
09936:  MOVLW  02
09938:  MOVLB  3
0993A:  SUBWF  x57,W
0993C:  CLRF   03
0993E:  ADDLW  AF
09940:  MOVWF  FE9
09942:  MOVLW  03
09944:  ADDWFC 03,W
09946:  MOVWF  FEA
09948:  MOVFF  FEF,700
0994C:  MOVLW  AA
0994E:  MOVWF  FF6
09950:  MOVLW  09
09952:  MOVWF  FF7
09954:  MOVLW  00
09956:  MOVWF  FF8
09958:  MOVLW  08
0995A:  MOVLB  7
0995C:  MOVWF  x05
0995E:  MOVLB  0
09960:  CALL   4EDC
09964:  MOVFF  700,705
09968:  MOVLW  1B
0996A:  MOVLB  7
0996C:  MOVWF  x06
0996E:  MOVLB  0
09970:  CALL   4F3A
....................             SendDataDisplay(); 
09974:  CALL   38F8
....................             printf("textop.txt=\"%s\"",texto[Opcion-1]); 
09978:  MOVLW  01
0997A:  MOVLB  3
0997C:  SUBWF  x57,W
0997E:  MULLW  14
09980:  MOVF   FF3,W
09982:  CLRF   03
09984:  MOVLB  7
09986:  MOVWF  x00
09988:  MOVLW  B6
0998A:  MOVWF  FF6
0998C:  MOVLW  09
0998E:  MOVWF  FF7
09990:  MOVLW  00
09992:  MOVWF  FF8
09994:  MOVLW  0C
09996:  MOVWF  x05
09998:  MOVLB  0
0999A:  CALL   4EDC
0999E:  MOVLW  50
099A0:  MOVWF  FF6
099A2:  MOVLW  01
099A4:  MOVWF  FF7
099A6:  MOVLW  00
099A8:  MOVWF  FF8
099AA:  MOVLB  7
099AC:  MOVF   x00,W
099AE:  ADDWF  FF6,F
099B0:  MOVLW  00
099B2:  ADDWFC FF7,F
099B4:  MOVLB  0
099B6:  CALL   38C6
099BA:  MOVLW  22
099BC:  BTFSS  F9E.4
099BE:  BRA    99BC
099C0:  MOVWF  FAD
....................             SendDataDisplay(); 
099C2:  CALL   38F8
....................          } 
....................           
....................          printf("ttitulo.txt=\"SELECCIONE SU CICLO\""); 
099C6:  MOVLW  C6
099C8:  MOVWF  FF6
099CA:  MOVLW  09
099CC:  MOVWF  FF7
099CE:  MOVLW  00
099D0:  MOVWF  FF8
099D2:  CALL   38C6
....................          SendDataDisplay(); 
099D6:  CALL   38F8
....................           
....................          if(RIGHT){ 
099DA:  BSF    F93.2
099DC:  BTFSC  F81.2
099DE:  BRA    99F8
....................             delay_ms(20); 
099E0:  MOVLW  14
099E2:  MOVLB  7
099E4:  MOVWF  x10
099E6:  MOVLB  0
099E8:  CALL   1992
....................             if(RIGHT){ 
099EC:  BSF    F93.2
099EE:  BTFSC  F81.2
099F0:  BRA    99F8
....................                Opcion++; 
099F2:  MOVLB  3
099F4:  INCF   x57,F
099F6:  MOVLB  0
....................             } 
....................          } 
....................           
....................          if(LEFT){ 
099F8:  BSF    F93.3
099FA:  BTFSC  F81.3
099FC:  BRA    9A16
....................             delay_ms(20); 
099FE:  MOVLW  14
09A00:  MOVLB  7
09A02:  MOVWF  x10
09A04:  MOVLB  0
09A06:  CALL   1992
....................             if(LEFT){ 
09A0A:  BSF    F93.3
09A0C:  BTFSC  F81.3
09A0E:  BRA    9A16
....................                Opcion--; 
09A10:  MOVLB  3
09A12:  DECF   x57,F
09A14:  MOVLB  0
....................             } 
....................          } 
....................           
....................          if(RX_Buffer[4]==0x0d && !Op){//Tecla Derecha Oprimida 
09A16:  MOVF   34,W
09A18:  SUBLW  0D
09A1A:  BNZ   9A2A
09A1C:  BTFSC  xA1.5
09A1E:  BRA    9A2A
....................             Opcion++; 
09A20:  MOVLB  3
09A22:  INCF   x57,F
....................             RX_Buffer[4]=0x00; 
09A24:  CLRF   34
....................             Op=ON; 
09A26:  MOVLB  0
09A28:  BSF    xA1.5
....................             //BorraBuffer(); 
....................          } 
....................           
....................          if(RX_Buffer[4]==0x0c && Op){//Tecla Derecha Oprimida 
09A2A:  MOVF   34,W
09A2C:  SUBLW  0C
09A2E:  BNZ   9A3E
09A30:  BTFSS  xA1.5
09A32:  BRA    9A3E
....................             Opcion++; 
09A34:  MOVLB  3
09A36:  INCF   x57,F
....................             RX_Buffer[4]=0x00; 
09A38:  CLRF   34
....................             Op=OFF; 
09A3A:  MOVLB  0
09A3C:  BCF    xA1.5
....................             //BorraBuffer(); 
....................          } 
....................           
....................          if(RX_Buffer[4]==0x0e && !Op2){//Tecla Izquierda Oprimida 
09A3E:  MOVF   34,W
09A40:  SUBLW  0E
09A42:  BNZ   9A52
09A44:  BTFSC  xA1.6
09A46:  BRA    9A52
....................             Opcion--; 
09A48:  MOVLB  3
09A4A:  DECF   x57,F
....................             RX_Buffer[4]=0x00; 
09A4C:  CLRF   34
....................             Op2=ON; 
09A4E:  MOVLB  0
09A50:  BSF    xA1.6
....................             //BorraBuffer(); 
....................          } 
....................           
....................          if(RX_Buffer[4]==0x0f && Op2){//Tecla Izquierda Oprimida 
09A52:  MOVF   34,W
09A54:  SUBLW  0F
09A56:  BNZ   9A66
09A58:  BTFSS  xA1.6
09A5A:  BRA    9A66
....................             Opcion--; 
09A5C:  MOVLB  3
09A5E:  DECF   x57,F
....................             RX_Buffer[4]=0x00; 
09A60:  CLRF   34
....................             Op2=OFF; 
09A62:  MOVLB  0
09A64:  BCF    xA1.6
09A66:  MOVLB  2
....................             //BorraBuffer(); 
....................          } 
....................           
....................       } 
....................          if(RIGHT && LEFT){ 
09A68:  BSF    F93.2
09A6A:  BTFSC  F81.2
09A6C:  BRA    9ABA
09A6E:  BSF    F93.3
09A70:  BTFSC  F81.3
09A72:  BRA    9ABA
....................             delay_ms(20); 
09A74:  MOVLW  14
09A76:  MOVLB  7
09A78:  MOVWF  x10
09A7A:  MOVLB  0
09A7C:  CALL   1992
....................             if(RIGHT && LEFT){ 
09A80:  BSF    F93.2
09A82:  BTFSC  F81.2
09A84:  BRA    9AB8
09A86:  BSF    F93.3
09A88:  BTFSC  F81.3
09A8A:  BRA    9AB8
....................                printf("page Clave"); 
09A8C:  MOVLW  E8
09A8E:  MOVWF  FF6
09A90:  MOVLW  09
09A92:  MOVWF  FF7
09A94:  MOVLW  00
09A96:  MOVWF  FF8
09A98:  CALL   38C6
....................                SendDataDisplay();  
09A9C:  CALL   38F8
....................                Op=OFF; 
09AA0:  BCF    xA1.5
....................                Op2=OFF; 
09AA2:  BCF    xA1.6
....................                MenuAnt=Menu; 
09AA4:  MOVFF  34F,350
....................                TipoClave=1; 
09AA8:  MOVLW  01
09AAA:  MOVLB  2
09AAC:  MOVWF  xD2
....................                RX_Buffer[3]=0x00; 
09AAE:  CLRF   33
....................                RX_Buffer2[3]=0x00; 
09AB0:  CLRF   3E
....................                Opcion=0; 
09AB2:  MOVLB  3
09AB4:  CLRF   x57
09AB6:  MOVLB  0
09AB8:  MOVLB  2
....................             } 
....................          } 
....................    } 
.................... //_--------------------------------------------------------------------------------------------------------------------------------------------------------        
....................  
.................... //_-------------------------------------------------------------------------------------------------------------------------------------------------------- 
....................       if(Menu==2){ //Menu de Tiempo Esterilizacion      
09ABA:  MOVLB  3
09ABC:  MOVF   x4F,W
09ABE:  SUBLW  02
09AC0:  BTFSS  FD8.2
09AC2:  BRA    9DDC
....................          printf("fecha.txt=\"T:%2.1fC Fecha:%02u/%02u/20%02u Hora:%02u:%02u:%02u\"",Temperatura,Dia,Mes,Year,Hora,Minuto,Segundo); 
09AC4:  MOVLW  F4
09AC6:  MOVWF  FF6
09AC8:  MOVLW  09
09ACA:  MOVWF  FF7
09ACC:  MOVLW  00
09ACE:  MOVWF  FF8
09AD0:  MOVLW  0D
09AD2:  MOVLB  7
09AD4:  MOVWF  x05
09AD6:  MOVLB  0
09AD8:  CALL   4EDC
09ADC:  MOVLW  01
09ADE:  MOVWF  FE9
09AE0:  MOVFF  319,708
09AE4:  MOVFF  318,707
09AE8:  MOVFF  317,706
09AEC:  MOVFF  316,705
09AF0:  MOVLB  7
09AF2:  MOVWF  x09
09AF4:  MOVLB  0
09AF6:  CALL   507C
09AFA:  MOVLW  06
09AFC:  MOVWF  FF6
09AFE:  MOVLW  0A
09B00:  MOVWF  FF7
09B02:  MOVLW  00
09B04:  MOVWF  FF8
09B06:  MOVLW  09
09B08:  MOVLB  7
09B0A:  MOVWF  x05
09B0C:  MOVLB  0
09B0E:  CALL   4EDC
09B12:  MOVFF  38D,705
09B16:  MOVLW  01
09B18:  MOVLB  7
09B1A:  MOVWF  x06
09B1C:  MOVLB  0
09B1E:  CALL   4F3A
09B22:  MOVLW  2F
09B24:  BTFSS  F9E.4
09B26:  BRA    9B24
09B28:  MOVWF  FAD
09B2A:  MOVFF  38C,705
09B2E:  MOVLW  01
09B30:  MOVLB  7
09B32:  MOVWF  x06
09B34:  MOVLB  0
09B36:  CALL   4F3A
09B3A:  MOVLW  2F
09B3C:  BTFSS  F9E.4
09B3E:  BRA    9B3C
09B40:  MOVWF  FAD
09B42:  MOVLW  32
09B44:  BTFSS  F9E.4
09B46:  BRA    9B44
09B48:  MOVWF  FAD
09B4A:  MOVLW  30
09B4C:  BTFSS  F9E.4
09B4E:  BRA    9B4C
09B50:  MOVWF  FAD
09B52:  MOVFF  38B,705
09B56:  MOVLW  01
09B58:  MOVLB  7
09B5A:  MOVWF  x06
09B5C:  MOVLB  0
09B5E:  CALL   4F3A
09B62:  MOVLW  1F
09B64:  MOVWF  FF6
09B66:  MOVLW  0A
09B68:  MOVWF  FF7
09B6A:  MOVLW  00
09B6C:  MOVWF  FF8
09B6E:  MOVLW  06
09B70:  MOVLB  7
09B72:  MOVWF  x05
09B74:  MOVLB  0
09B76:  CALL   4EDC
09B7A:  MOVFF  38E,705
09B7E:  MOVLW  01
09B80:  MOVLB  7
09B82:  MOVWF  x06
09B84:  MOVLB  0
09B86:  CALL   4F3A
09B8A:  MOVLW  3A
09B8C:  BTFSS  F9E.4
09B8E:  BRA    9B8C
09B90:  MOVWF  FAD
09B92:  MOVFF  38F,705
09B96:  MOVLW  01
09B98:  MOVLB  7
09B9A:  MOVWF  x06
09B9C:  MOVLB  0
09B9E:  CALL   4F3A
09BA2:  MOVLW  3A
09BA4:  BTFSS  F9E.4
09BA6:  BRA    9BA4
09BA8:  MOVWF  FAD
09BAA:  MOVFF  390,705
09BAE:  MOVLW  01
09BB0:  MOVLB  7
09BB2:  MOVWF  x06
09BB4:  MOVLB  0
09BB6:  CALL   4F3A
09BBA:  MOVLW  22
09BBC:  BTFSS  F9E.4
09BBE:  BRA    9BBC
09BC0:  MOVWF  FAD
....................          SendDataDisplay(); 
09BC2:  CALL   38F8
....................          if(RX_Buffer[4]==0x0a){//Selecciono Minutos 
09BC6:  MOVF   34,W
09BC8:  SUBLW  0A
09BCA:  BNZ   9BD0
....................             Minutos=ON; 
09BCC:  BSF    xA1.7
....................             Segundos=OFF; 
09BCE:  BCF    xA2.0
....................          } 
....................           
....................          if(RX_Buffer[4]==0x0b){//Selecciono Segundos 
09BD0:  MOVF   34,W
09BD2:  SUBLW  0B
09BD4:  BNZ   9BDA
....................             Segundos=ON; 
09BD6:  BSF    xA2.0
....................             Minutos=OFF; 
09BD8:  BCF    xA1.7
....................          }            
....................           
....................          if(RX_Buffer[4]==0x11 || LEFT){//Selecciono Regresar             
09BDA:  MOVF   34,W
09BDC:  SUBLW  11
09BDE:  BZ    9BE6
09BE0:  BSF    F93.3
09BE2:  BTFSC  F81.3
09BE4:  BRA    9CF8
....................                Segundos=OFF; 
09BE6:  BCF    xA2.0
....................                Minutos=OFF; 
09BE8:  BCF    xA1.7
....................                printf("page CicloPersona"); 
09BEA:  MOVLW  36
09BEC:  MOVWF  FF6
09BEE:  MOVLW  0A
09BF0:  MOVWF  FF7
09BF2:  MOVLW  00
09BF4:  MOVWF  FF8
09BF6:  CALL   38C6
....................                SendDataDisplay();   
09BFA:  CALL   38F8
....................                if(!GuardaEEPROM){ 
09BFE:  BTFSC  xA2.1
09C00:  BRA    9CF8
....................                   CiclosPersonalizados[CicloLibre-1].Minutoest=mEstp; 
09C02:  MOVLW  01
09C04:  MOVLB  3
09C06:  SUBWF  x30,W
09C08:  MULLW  0A
09C0A:  MOVF   FF3,W
09C0C:  MOVLB  7
09C0E:  CLRF   x01
09C10:  MOVWF  x00
09C12:  MOVLW  09
09C14:  ADDWF  x00,W
09C16:  MOVWF  01
09C18:  MOVLW  00
09C1A:  ADDWFC x01,W
09C1C:  MOVWF  03
09C1E:  MOVF   01,W
09C20:  ADDLW  D2
09C22:  MOVWF  FE9
09C24:  MOVLW  06
09C26:  ADDWFC 03,W
09C28:  MOVWF  FEA
09C2A:  MOVFF  B8,FEF
....................                   CiclosPersonalizados[CicloLibre-1].Segundoest=sEstp; 
09C2E:  MOVLW  01
09C30:  MOVLB  3
09C32:  SUBWF  x30,W
09C34:  MULLW  0A
09C36:  MOVF   FF3,W
09C38:  MOVLB  7
09C3A:  CLRF   x01
09C3C:  MOVWF  x00
09C3E:  MOVLW  03
09C40:  ADDWF  x00,W
09C42:  MOVWF  01
09C44:  MOVLW  00
09C46:  ADDWFC x01,W
09C48:  MOVWF  03
09C4A:  MOVF   01,W
09C4C:  ADDLW  D2
09C4E:  MOVWF  FE9
09C50:  MOVLW  06
09C52:  ADDWFC 03,W
09C54:  MOVWF  FEA
09C56:  MOVFF  B7,FEF
....................                   write_eeprom(101+((CicloLibre-1)*8),mEstp); 
09C5A:  MOVLW  01
09C5C:  MOVLB  3
09C5E:  SUBWF  x30,W
09C60:  MULLW  08
09C62:  MOVF   FF3,W
09C64:  ADDLW  65
09C66:  MOVLB  7
09C68:  MOVWF  x00
09C6A:  CLRF   FAA
09C6C:  MOVFF  700,FA9
09C70:  MOVFF  B8,FA8
09C74:  BCF    FA6.6
09C76:  BCF    FA6.7
09C78:  BSF    FA6.2
09C7A:  MOVF   FF2,W
09C7C:  MOVWF  00
09C7E:  BCF    FF2.6
09C80:  BCF    FF2.7
09C82:  MOVLB  F
09C84:  MOVLW  55
09C86:  MOVWF  FA7
09C88:  MOVLW  AA
09C8A:  MOVWF  FA7
09C8C:  BSF    FA6.1
09C8E:  BTFSC  FA6.1
09C90:  BRA    9C8E
09C92:  BCF    FA6.2
09C94:  MOVF   00,W
09C96:  IORWF  FF2,F
....................                   delay_ms(10); 
09C98:  MOVLW  0A
09C9A:  MOVLB  7
09C9C:  MOVWF  x10
09C9E:  MOVLB  0
09CA0:  CALL   1992
....................                   write_eeprom(102+((CicloLibre-1)*8),sEstp); 
09CA4:  MOVLW  01
09CA6:  MOVLB  3
09CA8:  SUBWF  x30,W
09CAA:  MULLW  08
09CAC:  MOVF   FF3,W
09CAE:  ADDLW  66
09CB0:  MOVLB  7
09CB2:  MOVWF  x00
09CB4:  CLRF   FAA
09CB6:  MOVFF  700,FA9
09CBA:  MOVFF  B7,FA8
09CBE:  BCF    FA6.6
09CC0:  BCF    FA6.7
09CC2:  BSF    FA6.2
09CC4:  MOVF   FF2,W
09CC6:  MOVWF  00
09CC8:  BCF    FF2.6
09CCA:  BCF    FF2.7
09CCC:  MOVLB  F
09CCE:  MOVLW  55
09CD0:  MOVWF  FA7
09CD2:  MOVLW  AA
09CD4:  MOVWF  FA7
09CD6:  BSF    FA6.1
09CD8:  BTFSC  FA6.1
09CDA:  BRA    9CD8
09CDC:  BCF    FA6.2
09CDE:  MOVF   00,W
09CE0:  IORWF  FF2,F
....................                   delay_ms(10); 
09CE2:  MOVLW  0A
09CE4:  MOVLB  7
09CE6:  MOVWF  x10
09CE8:  MOVLB  0
09CEA:  CALL   1992
....................                   mEst=mEstp; 
09CEE:  MOVFF  B8,B4
....................                   sEst=sEstp; 
09CF2:  MOVFF  B7,B3
....................                   GuardaEEPROM=ON; 
09CF6:  BSF    xA2.1
....................                } 
....................          } 
....................           
....................          if(RX_Buffer[4]==0x0c || RX_Buffer[4]==0x0d || UP){//Tecla arriba Oprimida 
09CF8:  MOVF   34,W
09CFA:  SUBLW  0C
09CFC:  BZ    9D0A
09CFE:  MOVF   34,W
09D00:  SUBLW  0D
09D02:  BZ    9D0A
09D04:  BSF    F93.0
09D06:  BTFSC  F81.0
09D08:  BRA    9D26
....................             if(Segundos){ 
09D0A:  BTFSS  xA2.0
09D0C:  BRA    9D10
....................                sEstp++; 
09D0E:  INCF   xB7,F
....................             } 
....................             if(Minutos){ 
09D10:  BTFSS  xA1.7
09D12:  BRA    9D16
....................                mEstp++; 
09D14:  INCF   xB8,F
....................             }   
....................             RX_Buffer[4]=0x00;   
09D16:  CLRF   34
....................             RX_Buffer2[4]=0x00; 
09D18:  CLRF   3F
....................             delay_ms(50); 
09D1A:  MOVLW  32
09D1C:  MOVLB  7
09D1E:  MOVWF  x10
09D20:  MOVLB  0
09D22:  CALL   1992
....................          } 
....................           
....................          if(RX_Buffer[4]==0x0f || RX_Buffer[4]==0x0e || DOWN){//Tecla abajo oprimida 
09D26:  MOVF   34,W
09D28:  SUBLW  0F
09D2A:  BZ    9D38
09D2C:  MOVF   34,W
09D2E:  SUBLW  0E
09D30:  BZ    9D38
09D32:  BSF    F93.1
09D34:  BTFSC  F81.1
09D36:  BRA    9D58
....................             if(Segundos && sEstp>0){ 
09D38:  BTFSS  xA2.0
09D3A:  BRA    9D42
09D3C:  MOVF   xB7,F
09D3E:  BZ    9D42
....................                sEstp--; 
09D40:  DECF   xB7,F
....................             } 
....................             if(Minutos){ 
09D42:  BTFSS  xA1.7
09D44:  BRA    9D48
....................                mEstp--; 
09D46:  DECF   xB8,F
....................             } 
....................             RX_Buffer[4]=0x00;   
09D48:  CLRF   34
....................             RX_Buffer2[4]=0x00; 
09D4A:  CLRF   3F
....................             delay_ms(50); 
09D4C:  MOVLW  32
09D4E:  MOVLB  7
09D50:  MOVWF  x10
09D52:  MOVLB  0
09D54:  CALL   1992
....................          } 
....................           
....................          if(mEstp<1)mEstp=99; 
09D58:  MOVF   xB8,F
09D5A:  BNZ   9D60
09D5C:  MOVLW  63
09D5E:  MOVWF  xB8
....................          if(mEstp>99)mEstp=1; 
09D60:  MOVF   xB8,W
09D62:  SUBLW  63
09D64:  BC    9D6A
09D66:  MOVLW  01
09D68:  MOVWF  xB8
....................          if(sEstp>59)sEstp=0; 
09D6A:  MOVF   xB7,W
09D6C:  SUBLW  3B
09D6E:  BTFSS  FD8.0
09D70:  CLRF   xB7
....................              
....................          printf("tminest.txt=\"%02u\"",mEstp); 
09D72:  MOVLW  48
09D74:  MOVWF  FF6
09D76:  MOVLW  0A
09D78:  MOVWF  FF7
09D7A:  MOVLW  00
09D7C:  MOVWF  FF8
09D7E:  MOVLW  0D
09D80:  MOVLB  7
09D82:  MOVWF  x05
09D84:  MOVLB  0
09D86:  CALL   4EDC
09D8A:  MOVFF  B8,705
09D8E:  MOVLW  01
09D90:  MOVLB  7
09D92:  MOVWF  x06
09D94:  MOVLB  0
09D96:  CALL   4F3A
09D9A:  MOVLW  22
09D9C:  BTFSS  F9E.4
09D9E:  BRA    9D9C
09DA0:  MOVWF  FAD
....................          SendDataDisplay(); 
09DA2:  CALL   38F8
....................          printf("tsecest.txt=\"%02u\"",sEstp); 
09DA6:  MOVLW  5C
09DA8:  MOVWF  FF6
09DAA:  MOVLW  0A
09DAC:  MOVWF  FF7
09DAE:  MOVLW  00
09DB0:  MOVWF  FF8
09DB2:  MOVLW  0D
09DB4:  MOVLB  7
09DB6:  MOVWF  x05
09DB8:  MOVLB  0
09DBA:  CALL   4EDC
09DBE:  MOVFF  B7,705
09DC2:  MOVLW  01
09DC4:  MOVLB  7
09DC6:  MOVWF  x06
09DC8:  MOVLB  0
09DCA:  CALL   4F3A
09DCE:  MOVLW  22
09DD0:  BTFSS  F9E.4
09DD2:  BRA    9DD0
09DD4:  MOVWF  FAD
....................          SendDataDisplay(); 
09DD6:  CALL   38F8
09DDA:  MOVLB  3
....................     } 
.................... //_--------------------------------------------------------------------------------------------------------------------------------------------------------        
....................  
.................... //_-------------------------------------------------------------------------------------------------------------------------------------------------------- 
....................     if(Menu==3){ //Menu de Tiempo de Secado 
09DDC:  MOVF   x4F,W
09DDE:  SUBLW  03
09DE0:  BTFSS  FD8.2
09DE2:  BRA    A0F2
....................       printf("fecha.txt=\"T:%2.1fC Fecha:%02u/%02u/20%02u Hora:%02u:%02u:%02u\"",Temperatura,Dia,Mes,Year,Hora,Minuto,Segundo); 
09DE4:  MOVLW  70
09DE6:  MOVWF  FF6
09DE8:  MOVLW  0A
09DEA:  MOVWF  FF7
09DEC:  MOVLW  00
09DEE:  MOVWF  FF8
09DF0:  MOVLW  0D
09DF2:  MOVLB  7
09DF4:  MOVWF  x05
09DF6:  MOVLB  0
09DF8:  CALL   4EDC
09DFC:  MOVLW  01
09DFE:  MOVWF  FE9
09E00:  MOVFF  319,708
09E04:  MOVFF  318,707
09E08:  MOVFF  317,706
09E0C:  MOVFF  316,705
09E10:  MOVLB  7
09E12:  MOVWF  x09
09E14:  MOVLB  0
09E16:  CALL   507C
09E1A:  MOVLW  82
09E1C:  MOVWF  FF6
09E1E:  MOVLW  0A
09E20:  MOVWF  FF7
09E22:  MOVLW  00
09E24:  MOVWF  FF8
09E26:  MOVLW  09
09E28:  MOVLB  7
09E2A:  MOVWF  x05
09E2C:  MOVLB  0
09E2E:  CALL   4EDC
09E32:  MOVFF  38D,705
09E36:  MOVLW  01
09E38:  MOVLB  7
09E3A:  MOVWF  x06
09E3C:  MOVLB  0
09E3E:  CALL   4F3A
09E42:  MOVLW  2F
09E44:  BTFSS  F9E.4
09E46:  BRA    9E44
09E48:  MOVWF  FAD
09E4A:  MOVFF  38C,705
09E4E:  MOVLW  01
09E50:  MOVLB  7
09E52:  MOVWF  x06
09E54:  MOVLB  0
09E56:  CALL   4F3A
09E5A:  MOVLW  2F
09E5C:  BTFSS  F9E.4
09E5E:  BRA    9E5C
09E60:  MOVWF  FAD
09E62:  MOVLW  32
09E64:  BTFSS  F9E.4
09E66:  BRA    9E64
09E68:  MOVWF  FAD
09E6A:  MOVLW  30
09E6C:  BTFSS  F9E.4
09E6E:  BRA    9E6C
09E70:  MOVWF  FAD
09E72:  MOVFF  38B,705
09E76:  MOVLW  01
09E78:  MOVLB  7
09E7A:  MOVWF  x06
09E7C:  MOVLB  0
09E7E:  CALL   4F3A
09E82:  MOVLW  9B
09E84:  MOVWF  FF6
09E86:  MOVLW  0A
09E88:  MOVWF  FF7
09E8A:  MOVLW  00
09E8C:  MOVWF  FF8
09E8E:  MOVLW  06
09E90:  MOVLB  7
09E92:  MOVWF  x05
09E94:  MOVLB  0
09E96:  CALL   4EDC
09E9A:  MOVFF  38E,705
09E9E:  MOVLW  01
09EA0:  MOVLB  7
09EA2:  MOVWF  x06
09EA4:  MOVLB  0
09EA6:  CALL   4F3A
09EAA:  MOVLW  3A
09EAC:  BTFSS  F9E.4
09EAE:  BRA    9EAC
09EB0:  MOVWF  FAD
09EB2:  MOVFF  38F,705
09EB6:  MOVLW  01
09EB8:  MOVLB  7
09EBA:  MOVWF  x06
09EBC:  MOVLB  0
09EBE:  CALL   4F3A
09EC2:  MOVLW  3A
09EC4:  BTFSS  F9E.4
09EC6:  BRA    9EC4
09EC8:  MOVWF  FAD
09ECA:  MOVFF  390,705
09ECE:  MOVLW  01
09ED0:  MOVLB  7
09ED2:  MOVWF  x06
09ED4:  MOVLB  0
09ED6:  CALL   4F3A
09EDA:  MOVLW  22
09EDC:  BTFSS  F9E.4
09EDE:  BRA    9EDC
09EE0:  MOVWF  FAD
....................       SendDataDisplay();             
09EE2:  CALL   38F8
....................              
....................          if(RX_Buffer[4]==0x0a){//Selecciono Minutos 
09EE6:  MOVF   34,W
09EE8:  SUBLW  0A
09EEA:  BNZ   9EF0
....................             Minutos=ON; 
09EEC:  BSF    xA1.7
....................             Segundos=OFF; 
09EEE:  BCF    xA2.0
....................          } 
....................           
....................          if(RX_Buffer[4]==0x0b){//Selecciono Segundos 
09EF0:  MOVF   34,W
09EF2:  SUBLW  0B
09EF4:  BNZ   9EFA
....................             Segundos=ON; 
09EF6:  BSF    xA2.0
....................             Minutos=OFF; 
09EF8:  BCF    xA1.7
....................          } 
....................           
....................          if(RX_Buffer[4]==0x11 || LEFT){//Selecciono Regresar 
09EFA:  MOVF   34,W
09EFC:  SUBLW  11
09EFE:  BZ    9F06
09F00:  BSF    F93.3
09F02:  BTFSC  F81.3
09F04:  BRA    A018
....................             Segundos=OFF; 
09F06:  BCF    xA2.0
....................             Minutos=OFF; 
09F08:  BCF    xA1.7
....................             printf("page CicloPersona"); 
09F0A:  MOVLW  B2
09F0C:  MOVWF  FF6
09F0E:  MOVLW  0A
09F10:  MOVWF  FF7
09F12:  MOVLW  00
09F14:  MOVWF  FF8
09F16:  CALL   38C6
....................             SendDataDisplay();   
09F1A:  CALL   38F8
....................             if(!GuardaEEPROM){ 
09F1E:  BTFSC  xA2.1
09F20:  BRA    A018
....................                CiclosPersonalizados[CicloLibre-1].Minutosec=mSecp; 
09F22:  MOVLW  01
09F24:  MOVLB  3
09F26:  SUBWF  x30,W
09F28:  MULLW  0A
09F2A:  MOVF   FF3,W
09F2C:  MOVLB  7
09F2E:  CLRF   x01
09F30:  MOVWF  x00
09F32:  MOVLW  04
09F34:  ADDWF  x00,W
09F36:  MOVWF  01
09F38:  MOVLW  00
09F3A:  ADDWFC x01,W
09F3C:  MOVWF  03
09F3E:  MOVF   01,W
09F40:  ADDLW  D2
09F42:  MOVWF  FE9
09F44:  MOVLW  06
09F46:  ADDWFC 03,W
09F48:  MOVWF  FEA
09F4A:  MOVFF  BA,FEF
....................                CiclosPersonalizados[CicloLibre-1].Segundosec=sSecp; 
09F4E:  MOVLW  01
09F50:  MOVLB  3
09F52:  SUBWF  x30,W
09F54:  MULLW  0A
09F56:  MOVF   FF3,W
09F58:  MOVLB  7
09F5A:  CLRF   x01
09F5C:  MOVWF  x00
09F5E:  MOVLW  05
09F60:  ADDWF  x00,W
09F62:  MOVWF  01
09F64:  MOVLW  00
09F66:  ADDWFC x01,W
09F68:  MOVWF  03
09F6A:  MOVF   01,W
09F6C:  ADDLW  D2
09F6E:  MOVWF  FE9
09F70:  MOVLW  06
09F72:  ADDWFC 03,W
09F74:  MOVWF  FEA
09F76:  MOVFF  B9,FEF
....................                write_eeprom(103+((CicloLibre-1)*8),mSecp); 
09F7A:  MOVLW  01
09F7C:  MOVLB  3
09F7E:  SUBWF  x30,W
09F80:  MULLW  08
09F82:  MOVF   FF3,W
09F84:  ADDLW  67
09F86:  MOVLB  7
09F88:  MOVWF  x00
09F8A:  CLRF   FAA
09F8C:  MOVFF  700,FA9
09F90:  MOVFF  BA,FA8
09F94:  BCF    FA6.6
09F96:  BCF    FA6.7
09F98:  BSF    FA6.2
09F9A:  MOVF   FF2,W
09F9C:  MOVWF  00
09F9E:  BCF    FF2.6
09FA0:  BCF    FF2.7
09FA2:  MOVLB  F
09FA4:  MOVLW  55
09FA6:  MOVWF  FA7
09FA8:  MOVLW  AA
09FAA:  MOVWF  FA7
09FAC:  BSF    FA6.1
09FAE:  BTFSC  FA6.1
09FB0:  BRA    9FAE
09FB2:  BCF    FA6.2
09FB4:  MOVF   00,W
09FB6:  IORWF  FF2,F
....................                delay_ms(10); 
09FB8:  MOVLW  0A
09FBA:  MOVLB  7
09FBC:  MOVWF  x10
09FBE:  MOVLB  0
09FC0:  CALL   1992
....................                write_eeprom(104+((CicloLibre-1)*8),sSecp); 
09FC4:  MOVLW  01
09FC6:  MOVLB  3
09FC8:  SUBWF  x30,W
09FCA:  MULLW  08
09FCC:  MOVF   FF3,W
09FCE:  ADDLW  68
09FD0:  MOVLB  7
09FD2:  MOVWF  x00
09FD4:  CLRF   FAA
09FD6:  MOVFF  700,FA9
09FDA:  MOVFF  B9,FA8
09FDE:  BCF    FA6.6
09FE0:  BCF    FA6.7
09FE2:  BSF    FA6.2
09FE4:  MOVF   FF2,W
09FE6:  MOVWF  00
09FE8:  BCF    FF2.6
09FEA:  BCF    FF2.7
09FEC:  MOVLB  F
09FEE:  MOVLW  55
09FF0:  MOVWF  FA7
09FF2:  MOVLW  AA
09FF4:  MOVWF  FA7
09FF6:  BSF    FA6.1
09FF8:  BTFSC  FA6.1
09FFA:  BRA    9FF8
09FFC:  BCF    FA6.2
09FFE:  MOVF   00,W
0A000:  IORWF  FF2,F
....................                delay_ms(10); 
0A002:  MOVLW  0A
0A004:  MOVLB  7
0A006:  MOVWF  x10
0A008:  MOVLB  0
0A00A:  CALL   1992
....................                mSec=mSecp; 
0A00E:  MOVFF  BA,B6
....................                sSec=sSecp; 
0A012:  MOVFF  B9,B5
....................                GuardaEEPROM=ON; 
0A016:  BSF    xA2.1
....................             } 
....................          } 
....................           
....................          if(RX_Buffer[4]==0x0c || RX_Buffer[4]==0x0d || UP){//Tecla arriba Oprimida 
0A018:  MOVF   34,W
0A01A:  SUBLW  0C
0A01C:  BZ    A02A
0A01E:  MOVF   34,W
0A020:  SUBLW  0D
0A022:  BZ    A02A
0A024:  BSF    F93.0
0A026:  BTFSC  F81.0
0A028:  BRA    A046
....................             if(Segundos){ 
0A02A:  BTFSS  xA2.0
0A02C:  BRA    A030
....................                sSecp++; 
0A02E:  INCF   xB9,F
....................             } 
....................             if(Minutos){ 
0A030:  BTFSS  xA1.7
0A032:  BRA    A036
....................                mSecp++; 
0A034:  INCF   xBA,F
....................             }   
....................             RX_Buffer[4]=0x00;   
0A036:  CLRF   34
....................             RX_Buffer2[4]=0x00;  
0A038:  CLRF   3F
....................             delay_ms(50); 
0A03A:  MOVLW  32
0A03C:  MOVLB  7
0A03E:  MOVWF  x10
0A040:  MOVLB  0
0A042:  CALL   1992
....................          } 
....................           
....................          if(RX_Buffer[4]==0x0f || RX_Buffer[4]==0x0e || DOWN){//Tecla abajo Oprimida 
0A046:  MOVF   34,W
0A048:  SUBLW  0F
0A04A:  BZ    A058
0A04C:  MOVF   34,W
0A04E:  SUBLW  0E
0A050:  BZ    A058
0A052:  BSF    F93.1
0A054:  BTFSC  F81.1
0A056:  BRA    A078
....................             if(Segundos && sSecp>0){ 
0A058:  BTFSS  xA2.0
0A05A:  BRA    A062
0A05C:  MOVF   xB9,F
0A05E:  BZ    A062
....................                sSecp--; 
0A060:  DECF   xB9,F
....................             } 
....................             if(Minutos){ 
0A062:  BTFSS  xA1.7
0A064:  BRA    A068
....................                mSecp--; 
0A066:  DECF   xBA,F
....................             }  
....................             RX_Buffer[4]=0x00;   
0A068:  CLRF   34
....................             RX_Buffer2[4]=0x00;             
0A06A:  CLRF   3F
....................             delay_ms(50); 
0A06C:  MOVLW  32
0A06E:  MOVLB  7
0A070:  MOVWF  x10
0A072:  MOVLB  0
0A074:  CALL   1992
....................          } 
....................          if(mSecp>99)mSecp=0; 
0A078:  MOVF   xBA,W
0A07A:  SUBLW  63
0A07C:  BTFSS  FD8.0
0A07E:  CLRF   xBA
....................          if(sSecp>59)mSecp=0; 
0A080:  MOVF   xB9,W
0A082:  SUBLW  3B
0A084:  BTFSS  FD8.0
0A086:  CLRF   xBA
....................              
....................       printf("tminsec.txt=\"%02u\"",mSecp); 
0A088:  MOVLW  C4
0A08A:  MOVWF  FF6
0A08C:  MOVLW  0A
0A08E:  MOVWF  FF7
0A090:  MOVLW  00
0A092:  MOVWF  FF8
0A094:  MOVLW  0D
0A096:  MOVLB  7
0A098:  MOVWF  x05
0A09A:  MOVLB  0
0A09C:  CALL   4EDC
0A0A0:  MOVFF  BA,705
0A0A4:  MOVLW  01
0A0A6:  MOVLB  7
0A0A8:  MOVWF  x06
0A0AA:  MOVLB  0
0A0AC:  CALL   4F3A
0A0B0:  MOVLW  22
0A0B2:  BTFSS  F9E.4
0A0B4:  BRA    A0B2
0A0B6:  MOVWF  FAD
....................       SendDataDisplay(); 
0A0B8:  CALL   38F8
....................       printf("tsecsec.txt=\"%02u\"",sSecp); 
0A0BC:  MOVLW  D8
0A0BE:  MOVWF  FF6
0A0C0:  MOVLW  0A
0A0C2:  MOVWF  FF7
0A0C4:  MOVLW  00
0A0C6:  MOVWF  FF8
0A0C8:  MOVLW  0D
0A0CA:  MOVLB  7
0A0CC:  MOVWF  x05
0A0CE:  MOVLB  0
0A0D0:  CALL   4EDC
0A0D4:  MOVFF  B9,705
0A0D8:  MOVLW  01
0A0DA:  MOVLB  7
0A0DC:  MOVWF  x06
0A0DE:  MOVLB  0
0A0E0:  CALL   4F3A
0A0E4:  MOVLW  22
0A0E6:  BTFSS  F9E.4
0A0E8:  BRA    A0E6
0A0EA:  MOVWF  FAD
....................       SendDataDisplay(); 
0A0EC:  CALL   38F8
0A0F0:  MOVLB  3
....................     } 
.................... //_--------------------------------------------------------------------------------------------------------------------------------------------------------        
....................  
.................... //_-------------------------------------------------------------------------------------------------------------------------------------------------------- 
....................     if(Menu==4){ //Menu de Temperatura 
0A0F2:  MOVF   x4F,W
0A0F4:  SUBLW  04
0A0F6:  BTFSS  FD8.2
0A0F8:  BRA    A34A
....................       printf("fecha.txt=\"T:%3.1fC Fecha:%02u/%02u/20%02u Hora: %02u:%02u:%02u\"",Temperatura,Dia,Mes,Year,Hora,Minuto,Segundo); 
0A0FA:  MOVLW  EC
0A0FC:  MOVWF  FF6
0A0FE:  MOVLW  0A
0A100:  MOVWF  FF7
0A102:  MOVLW  00
0A104:  MOVWF  FF8
0A106:  MOVLW  0D
0A108:  MOVLB  7
0A10A:  MOVWF  x05
0A10C:  MOVLB  0
0A10E:  CALL   4EDC
0A112:  MOVLW  02
0A114:  MOVWF  FE9
0A116:  MOVFF  319,708
0A11A:  MOVFF  318,707
0A11E:  MOVFF  317,706
0A122:  MOVFF  316,705
0A126:  MOVLW  01
0A128:  MOVLB  7
0A12A:  MOVWF  x09
0A12C:  MOVLB  0
0A12E:  CALL   507C
0A132:  MOVLW  FE
0A134:  MOVWF  FF6
0A136:  MOVLW  0A
0A138:  MOVWF  FF7
0A13A:  MOVLW  00
0A13C:  MOVWF  FF8
0A13E:  MOVLW  09
0A140:  MOVLB  7
0A142:  MOVWF  x05
0A144:  MOVLB  0
0A146:  CALL   4EDC
0A14A:  MOVFF  38D,705
0A14E:  MOVLW  01
0A150:  MOVLB  7
0A152:  MOVWF  x06
0A154:  MOVLB  0
0A156:  CALL   4F3A
0A15A:  MOVLW  2F
0A15C:  BTFSS  F9E.4
0A15E:  BRA    A15C
0A160:  MOVWF  FAD
0A162:  MOVFF  38C,705
0A166:  MOVLW  01
0A168:  MOVLB  7
0A16A:  MOVWF  x06
0A16C:  MOVLB  0
0A16E:  CALL   4F3A
0A172:  MOVLW  2F
0A174:  BTFSS  F9E.4
0A176:  BRA    A174
0A178:  MOVWF  FAD
0A17A:  MOVLW  32
0A17C:  BTFSS  F9E.4
0A17E:  BRA    A17C
0A180:  MOVWF  FAD
0A182:  MOVLW  30
0A184:  BTFSS  F9E.4
0A186:  BRA    A184
0A188:  MOVWF  FAD
0A18A:  MOVFF  38B,705
0A18E:  MOVLW  01
0A190:  MOVLB  7
0A192:  MOVWF  x06
0A194:  MOVLB  0
0A196:  CALL   4F3A
0A19A:  MOVLW  17
0A19C:  MOVWF  FF6
0A19E:  MOVLW  0B
0A1A0:  MOVWF  FF7
0A1A2:  MOVLW  00
0A1A4:  MOVWF  FF8
0A1A6:  MOVLW  07
0A1A8:  MOVLB  7
0A1AA:  MOVWF  x05
0A1AC:  MOVLB  0
0A1AE:  CALL   4EDC
0A1B2:  MOVFF  38E,705
0A1B6:  MOVLW  01
0A1B8:  MOVLB  7
0A1BA:  MOVWF  x06
0A1BC:  MOVLB  0
0A1BE:  CALL   4F3A
0A1C2:  MOVLW  3A
0A1C4:  BTFSS  F9E.4
0A1C6:  BRA    A1C4
0A1C8:  MOVWF  FAD
0A1CA:  MOVFF  38F,705
0A1CE:  MOVLW  01
0A1D0:  MOVLB  7
0A1D2:  MOVWF  x06
0A1D4:  MOVLB  0
0A1D6:  CALL   4F3A
0A1DA:  MOVLW  3A
0A1DC:  BTFSS  F9E.4
0A1DE:  BRA    A1DC
0A1E0:  MOVWF  FAD
0A1E2:  MOVFF  390,705
0A1E6:  MOVLW  01
0A1E8:  MOVLB  7
0A1EA:  MOVWF  x06
0A1EC:  MOVLB  0
0A1EE:  CALL   4F3A
0A1F2:  MOVLW  22
0A1F4:  BTFSS  F9E.4
0A1F6:  BRA    A1F4
0A1F8:  MOVWF  FAD
....................       SendDataDisplay(); 
0A1FA:  CALL   38F8
....................          if(Setpoint<105) 
0A1FE:  MOVLB  3
0A200:  MOVF   x56,W
0A202:  SUBLW  68
0A204:  BNC   A20A
....................             Setpoint=123; 
0A206:  MOVLW  7B
0A208:  MOVWF  x56
....................          if(Setpoint>123) 
0A20A:  MOVF   x56,W
0A20C:  SUBLW  7B
0A20E:  BC    A214
....................             Setpoint=105; 
0A210:  MOVLW  69
0A212:  MOVWF  x56
....................           
....................          if(RX_Buffer[4]==0x11 || LEFT){//Selecciono Regresar 
0A214:  MOVF   34,W
0A216:  SUBLW  11
0A218:  BZ    A220
0A21A:  BSF    F93.3
0A21C:  BTFSC  F81.3
0A21E:  BRA    A2B8
....................             Segundos=OFF; 
0A220:  MOVLB  0
0A222:  BCF    xA2.0
....................             Minutos=OFF; 
0A224:  BCF    xA1.7
....................             printf("page CicloPersona"); 
0A226:  MOVLW  2E
0A228:  MOVWF  FF6
0A22A:  MOVLW  0B
0A22C:  MOVWF  FF7
0A22E:  MOVLW  00
0A230:  MOVWF  FF8
0A232:  CALL   38C6
....................             SendDataDisplay();   
0A236:  CALL   38F8
....................             PantallaPrincipal=1; 
0A23A:  MOVLW  01
0A23C:  MOVLB  2
0A23E:  MOVWF  xD1
....................             Op=OFF; 
0A240:  MOVLB  0
0A242:  BCF    xA1.5
....................             Op2=OFF; 
0A244:  BCF    xA1.6
....................             if(!GuardaEEPROM){ 
0A246:  BTFSC  xA2.1
0A248:  BRA    A2B6
....................                CiclosPersonalizados[CicloLibre-1].Temperatura=Setpoint; 
0A24A:  MOVLW  01
0A24C:  MOVLB  3
0A24E:  SUBWF  x30,W
0A250:  MULLW  0A
0A252:  MOVF   FF3,W
0A254:  MOVLB  7
0A256:  CLRF   x01
0A258:  MOVWF  x00
0A25A:  MOVLW  D2
0A25C:  ADDWF  x00,W
0A25E:  MOVWF  FE9
0A260:  MOVLW  06
0A262:  ADDWFC x01,W
0A264:  MOVWF  FEA
0A266:  MOVFF  356,FEF
....................                write_eeprom(100+((CicloLibre-1)*8),Setpoint); 
0A26A:  MOVLW  01
0A26C:  MOVLB  3
0A26E:  SUBWF  x30,W
0A270:  MULLW  08
0A272:  MOVF   FF3,W
0A274:  ADDLW  64
0A276:  MOVLB  7
0A278:  MOVWF  x00
0A27A:  CLRF   FAA
0A27C:  MOVFF  700,FA9
0A280:  MOVFF  356,FA8
0A284:  BCF    FA6.6
0A286:  BCF    FA6.7
0A288:  BSF    FA6.2
0A28A:  MOVF   FF2,W
0A28C:  MOVWF  00
0A28E:  BCF    FF2.6
0A290:  BCF    FF2.7
0A292:  MOVLB  F
0A294:  MOVLW  55
0A296:  MOVWF  FA7
0A298:  MOVLW  AA
0A29A:  MOVWF  FA7
0A29C:  BSF    FA6.1
0A29E:  BTFSC  FA6.1
0A2A0:  BRA    A29E
0A2A2:  BCF    FA6.2
0A2A4:  MOVF   00,W
0A2A6:  IORWF  FF2,F
....................                delay_ms(10); 
0A2A8:  MOVLW  0A
0A2AA:  MOVLB  7
0A2AC:  MOVWF  x10
0A2AE:  MOVLB  0
0A2B0:  CALL   1992
....................                GuardaEEPROM=ON; 
0A2B4:  BSF    xA2.1
0A2B6:  MOVLB  3
....................             } 
....................          } 
....................           
....................          if(UP){ 
0A2B8:  BSF    F93.0
0A2BA:  BTFSC  F81.0
0A2BC:  BRA    A2D4
....................             delay_ms(100); 
0A2BE:  MOVLW  64
0A2C0:  MOVLB  7
0A2C2:  MOVWF  x10
0A2C4:  MOVLB  0
0A2C6:  CALL   1992
....................             if(UP){ 
0A2CA:  BSF    F93.0
0A2CC:  BTFSC  F81.0
0A2CE:  BRA    A2D6
....................                Setpoint++; 
0A2D0:  MOVLB  3
0A2D2:  INCF   x56,F
0A2D4:  MOVLB  0
....................             } 
....................          } 
....................           
....................          if(DOWN){ 
0A2D6:  BSF    F93.1
0A2D8:  BTFSC  F81.1
0A2DA:  BRA    A2F4
....................             delay_ms(100); 
0A2DC:  MOVLW  64
0A2DE:  MOVLB  7
0A2E0:  MOVWF  x10
0A2E2:  MOVLB  0
0A2E4:  CALL   1992
....................             if(DOWN){ 
0A2E8:  BSF    F93.1
0A2EA:  BTFSC  F81.1
0A2EC:  BRA    A2F4
....................                Setpoint--; 
0A2EE:  MOVLB  3
0A2F0:  DECF   x56,F
0A2F2:  MOVLB  0
....................             } 
....................          } 
....................           
....................          if(RX_Buffer[4]==0x0d){//Tecla Arriba Oprimida 
0A2F4:  MOVF   34,W
0A2F6:  SUBLW  0D
0A2F8:  BNZ   A304
....................             Setpoint++; 
0A2FA:  MOVLB  3
0A2FC:  INCF   x56,F
....................             RX_Buffer[4]=0x00;   
0A2FE:  CLRF   34
....................             RX_Buffer2[4]=0x00;             
0A300:  CLRF   3F
0A302:  MOVLB  0
....................             //BorraBuffer(); 
....................          } 
....................           
....................          if(RX_Buffer[4]==0x0c){//Tecla Abajo Oprimida 
0A304:  MOVF   34,W
0A306:  SUBLW  0C
0A308:  BNZ   A314
....................             Setpoint--; 
0A30A:  MOVLB  3
0A30C:  DECF   x56,F
....................             RX_Buffer[4]=0x00; 
0A30E:  CLRF   34
....................             RX_Buffer2[4]=0x00;             
0A310:  CLRF   3F
0A312:  MOVLB  0
....................             //BorraBuffer(); 
....................          } 
....................           
....................       printf("tsettem.txt=\"%03u\"",Setpoint); 
0A314:  MOVLW  40
0A316:  MOVWF  FF6
0A318:  MOVLW  0B
0A31A:  MOVWF  FF7
0A31C:  MOVLW  00
0A31E:  MOVWF  FF8
0A320:  MOVLW  0D
0A322:  MOVLB  7
0A324:  MOVWF  x05
0A326:  MOVLB  0
0A328:  CALL   4EDC
0A32C:  MOVFF  356,705
0A330:  MOVLW  03
0A332:  MOVLB  7
0A334:  MOVWF  x06
0A336:  MOVLB  0
0A338:  CALL   4F3A
0A33C:  MOVLW  22
0A33E:  BTFSS  F9E.4
0A340:  BRA    A33E
0A342:  MOVWF  FAD
....................       SendDataDisplay(); 
0A344:  CALL   38F8
0A348:  MOVLB  3
....................     } 
.................... //_--------------------------------------------------------------------------------------------------------------------------------------------------------        
....................  
.................... //_--------------------------------------------------------------------------------------------------------------------------------------------------------       
....................    if(Menu==5){//Menu de Nivel 
0A34A:  MOVF   x4F,W
0A34C:  SUBLW  05
0A34E:  BTFSS  FD8.2
0A350:  BRA    A624
....................       printf("fecha.txt=\"T:%3.1fC Fecha:%02u/%02u/20%02u Hora: %02u:%02u:%02u\"",Temperatura,Dia,Mes,Year,Hora,Minuto,Segundo); 
0A352:  MOVLW  54
0A354:  MOVWF  FF6
0A356:  MOVLW  0B
0A358:  MOVWF  FF7
0A35A:  MOVLW  00
0A35C:  MOVWF  FF8
0A35E:  MOVLW  0D
0A360:  MOVLB  7
0A362:  MOVWF  x05
0A364:  MOVLB  0
0A366:  CALL   4EDC
0A36A:  MOVLW  02
0A36C:  MOVWF  FE9
0A36E:  MOVFF  319,708
0A372:  MOVFF  318,707
0A376:  MOVFF  317,706
0A37A:  MOVFF  316,705
0A37E:  MOVLW  01
0A380:  MOVLB  7
0A382:  MOVWF  x09
0A384:  MOVLB  0
0A386:  CALL   507C
0A38A:  MOVLW  66
0A38C:  MOVWF  FF6
0A38E:  MOVLW  0B
0A390:  MOVWF  FF7
0A392:  MOVLW  00
0A394:  MOVWF  FF8
0A396:  MOVLW  09
0A398:  MOVLB  7
0A39A:  MOVWF  x05
0A39C:  MOVLB  0
0A39E:  CALL   4EDC
0A3A2:  MOVFF  38D,705
0A3A6:  MOVLW  01
0A3A8:  MOVLB  7
0A3AA:  MOVWF  x06
0A3AC:  MOVLB  0
0A3AE:  CALL   4F3A
0A3B2:  MOVLW  2F
0A3B4:  BTFSS  F9E.4
0A3B6:  BRA    A3B4
0A3B8:  MOVWF  FAD
0A3BA:  MOVFF  38C,705
0A3BE:  MOVLW  01
0A3C0:  MOVLB  7
0A3C2:  MOVWF  x06
0A3C4:  MOVLB  0
0A3C6:  CALL   4F3A
0A3CA:  MOVLW  2F
0A3CC:  BTFSS  F9E.4
0A3CE:  BRA    A3CC
0A3D0:  MOVWF  FAD
0A3D2:  MOVLW  32
0A3D4:  BTFSS  F9E.4
0A3D6:  BRA    A3D4
0A3D8:  MOVWF  FAD
0A3DA:  MOVLW  30
0A3DC:  BTFSS  F9E.4
0A3DE:  BRA    A3DC
0A3E0:  MOVWF  FAD
0A3E2:  MOVFF  38B,705
0A3E6:  MOVLW  01
0A3E8:  MOVLB  7
0A3EA:  MOVWF  x06
0A3EC:  MOVLB  0
0A3EE:  CALL   4F3A
0A3F2:  MOVLW  7F
0A3F4:  MOVWF  FF6
0A3F6:  MOVLW  0B
0A3F8:  MOVWF  FF7
0A3FA:  MOVLW  00
0A3FC:  MOVWF  FF8
0A3FE:  MOVLW  07
0A400:  MOVLB  7
0A402:  MOVWF  x05
0A404:  MOVLB  0
0A406:  CALL   4EDC
0A40A:  MOVFF  38E,705
0A40E:  MOVLW  01
0A410:  MOVLB  7
0A412:  MOVWF  x06
0A414:  MOVLB  0
0A416:  CALL   4F3A
0A41A:  MOVLW  3A
0A41C:  BTFSS  F9E.4
0A41E:  BRA    A41C
0A420:  MOVWF  FAD
0A422:  MOVFF  38F,705
0A426:  MOVLW  01
0A428:  MOVLB  7
0A42A:  MOVWF  x06
0A42C:  MOVLB  0
0A42E:  CALL   4F3A
0A432:  MOVLW  3A
0A434:  BTFSS  F9E.4
0A436:  BRA    A434
0A438:  MOVWF  FAD
0A43A:  MOVFF  390,705
0A43E:  MOVLW  01
0A440:  MOVLB  7
0A442:  MOVWF  x06
0A444:  MOVLB  0
0A446:  CALL   4F3A
0A44A:  MOVLW  22
0A44C:  BTFSS  F9E.4
0A44E:  BRA    A44C
0A450:  MOVWF  FAD
....................       SendDataDisplay(); 
0A452:  CALL   38F8
....................          if(Nivel<1) 
0A456:  MOVLB  3
0A458:  MOVF   x64,F
0A45A:  BNZ   A466
0A45C:  MOVF   x65,F
0A45E:  BNZ   A466
....................             Nivel=6; 
0A460:  CLRF   x65
0A462:  MOVLW  06
0A464:  MOVWF  x64
....................          if(Nivel>6) 
0A466:  MOVF   x65,F
0A468:  BNZ   A470
0A46A:  MOVF   x64,W
0A46C:  SUBLW  06
0A46E:  BC    A476
....................             Nivel=1; 
0A470:  CLRF   x65
0A472:  MOVLW  01
0A474:  MOVWF  x64
....................           
....................          if(RX_Buffer[4]==0x11 || LEFT){//Selecciono Regresar 
0A476:  MOVF   34,W
0A478:  SUBLW  11
0A47A:  BZ    A482
0A47C:  BSF    F93.3
0A47E:  BTFSC  F81.3
0A480:  BRA    A57C
....................             Segundos=OFF; 
0A482:  MOVLB  0
0A484:  BCF    xA2.0
....................             Minutos=OFF;             
0A486:  BCF    xA1.7
....................             tiempo_secado=0; 
0A488:  MOVLB  3
0A48A:  CLRF   x5A
....................              
....................             if(!GuardaEEPROM){     
0A48C:  MOVLB  0
0A48E:  BTFSC  xA2.1
0A490:  BRA    A52A
....................                CiclosPersonalizados[CicloLibre-1].NivelDesfogue=Nivel; 
0A492:  MOVLW  01
0A494:  MOVLB  3
0A496:  SUBWF  x30,W
0A498:  MULLW  0A
0A49A:  MOVF   FF3,W
0A49C:  MOVLB  7
0A49E:  CLRF   x01
0A4A0:  MOVWF  x00
0A4A2:  MOVLW  08
0A4A4:  ADDWF  x00,W
0A4A6:  MOVWF  01
0A4A8:  MOVLW  00
0A4AA:  ADDWFC x01,W
0A4AC:  MOVWF  03
0A4AE:  MOVF   01,W
0A4B0:  ADDLW  D2
0A4B2:  MOVWF  FE9
0A4B4:  MOVLW  06
0A4B6:  ADDWFC 03,W
0A4B8:  MOVWF  FEA
0A4BA:  MOVFF  364,FEF
....................                write_eeprom(107+((CicloLibre-1)*8),Nivel); 
0A4BE:  MOVLW  01
0A4C0:  MOVLB  3
0A4C2:  SUBWF  x30,W
0A4C4:  MULLW  08
0A4C6:  MOVF   FF3,W
0A4C8:  ADDLW  6B
0A4CA:  MOVLB  7
0A4CC:  MOVWF  x00
0A4CE:  CLRF   FAA
0A4D0:  MOVFF  700,FA9
0A4D4:  MOVFF  364,FA8
0A4D8:  BCF    FA6.6
0A4DA:  BCF    FA6.7
0A4DC:  BSF    FA6.2
0A4DE:  MOVF   FF2,W
0A4E0:  MOVWF  00
0A4E2:  BCF    FF2.6
0A4E4:  BCF    FF2.7
0A4E6:  MOVLB  F
0A4E8:  MOVLW  55
0A4EA:  MOVWF  FA7
0A4EC:  MOVLW  AA
0A4EE:  MOVWF  FA7
0A4F0:  BSF    FA6.1
0A4F2:  BTFSC  FA6.1
0A4F4:  BRA    A4F2
0A4F6:  BCF    FA6.2
0A4F8:  MOVF   00,W
0A4FA:  IORWF  FF2,F
....................                delay_ms(20);             
0A4FC:  MOVLW  14
0A4FE:  MOVLB  7
0A500:  MOVWF  x10
0A502:  MOVLB  0
0A504:  CALL   1992
....................                NivelSeleccionado=4995*Nivel; 
0A508:  MOVLW  13
0A50A:  MOVLB  7
0A50C:  MOVWF  x0B
0A50E:  MOVLW  83
0A510:  MOVWF  x0A
0A512:  MOVFF  365,70D
0A516:  MOVFF  364,70C
0A51A:  MOVLB  0
0A51C:  CALL   19F0
0A520:  MOVFF  02,36F
0A524:  MOVFF  01,36E
....................                GuardaEEPROM=ON; 
0A528:  BSF    xA2.1
....................             } 
....................              
....................             if(Nivel==1) 
0A52A:  MOVLB  3
0A52C:  DECFSZ x64,W
0A52E:  BRA    A53A
0A530:  MOVF   x65,F
0A532:  BNZ   A53A
....................                desfoguelento=1; 
0A534:  MOVLB  0
0A536:  BSF    xA4.2
....................             else             
0A538:  BRA    A53E
....................                desfoguelento=0; 
0A53A:  MOVLB  0
0A53C:  BCF    xA4.2
....................  
....................             if(MenuAnt==1){ 
0A53E:  MOVLB  3
0A540:  DECFSZ x50,W
0A542:  BRA    A55E
....................                //Buzzer_on; 
....................                printf("page CicloPersona"); 
0A544:  MOVLW  96
0A546:  MOVWF  FF6
0A548:  MOVLW  0B
0A54A:  MOVWF  FF7
0A54C:  MOVLW  00
0A54E:  MOVWF  FF8
0A550:  MOVLB  0
0A552:  CALL   38C6
....................                SendDataDisplay();  
0A556:  CALL   38F8
....................                //PantallaPrincipal=1; 
....................             }else if(MenuAnt==2){ 
0A55A:  BRA    A57A
0A55C:  MOVLB  3
0A55E:  MOVF   x50,W
0A560:  SUBLW  02
0A562:  BNZ   A57C
....................                printf("page Funcionamiento"); 
0A564:  MOVLW  A8
0A566:  MOVWF  FF6
0A568:  MOVLW  0B
0A56A:  MOVWF  FF7
0A56C:  MOVLW  00
0A56E:  MOVWF  FF8
0A570:  MOVLB  0
0A572:  CALL   38C6
....................                SendDataDisplay();  
0A576:  CALL   38F8
0A57A:  MOVLB  3
....................                //if(Temperatura>60)TTrampa=TTrampa+5; 
....................             } 
....................          } 
....................           
....................          if(UP){ 
0A57C:  BSF    F93.0
0A57E:  BTFSC  F81.0
0A580:  BRA    A59C
....................             delay_ms(100); 
0A582:  MOVLW  64
0A584:  MOVLB  7
0A586:  MOVWF  x10
0A588:  MOVLB  0
0A58A:  CALL   1992
....................             if(UP){ 
0A58E:  BSF    F93.0
0A590:  BTFSC  F81.0
0A592:  BRA    A59E
....................                Nivel=2; 
0A594:  MOVLB  3
0A596:  CLRF   x65
0A598:  MOVLW  02
0A59A:  MOVWF  x64
0A59C:  MOVLB  0
....................             } 
....................          } 
....................           
....................          if(DOWN){ 
0A59E:  BSF    F93.1
0A5A0:  BTFSC  F81.1
0A5A2:  BRA    A5C0
....................             delay_ms(100); 
0A5A4:  MOVLW  64
0A5A6:  MOVLB  7
0A5A8:  MOVWF  x10
0A5AA:  MOVLB  0
0A5AC:  CALL   1992
....................             if(DOWN){ 
0A5B0:  BSF    F93.1
0A5B2:  BTFSC  F81.1
0A5B4:  BRA    A5C0
....................                Nivel=1; 
0A5B6:  MOVLB  3
0A5B8:  CLRF   x65
0A5BA:  MOVLW  01
0A5BC:  MOVWF  x64
0A5BE:  MOVLB  0
....................             } 
....................          } 
....................           
....................          if(RX_Buffer[4]==0x0d){//Tecla Arriba Oprimida 
0A5C0:  MOVF   34,W
0A5C2:  SUBLW  0D
0A5C4:  BNZ   A5D4
....................             Nivel=2; 
0A5C6:  MOVLB  3
0A5C8:  CLRF   x65
0A5CA:  MOVLW  02
0A5CC:  MOVWF  x64
....................             RX_Buffer[4]=0x00;             
0A5CE:  CLRF   34
....................             RX_Buffer2[4]=0x00;             
0A5D0:  CLRF   3F
0A5D2:  MOVLB  0
....................             //BorraBuffer(); 
....................          } 
....................           
....................          if(RX_Buffer[4]==0x0c){//Tecla Abajo Oprimida 
0A5D4:  MOVF   34,W
0A5D6:  SUBLW  0C
0A5D8:  BNZ   A5E6
....................             Nivel=1; 
0A5DA:  MOVLB  3
0A5DC:  CLRF   x65
0A5DE:  MOVLW  01
0A5E0:  MOVWF  x64
....................             RX_Buffer[4]=0x00; 
0A5E2:  CLRF   34
....................             RX_Buffer2[4]=0x00;             
0A5E4:  CLRF   3F
....................             //BorraBuffer(); 
....................          } 
....................        
....................       if(Nivel==2){ 
0A5E6:  MOVLB  3
0A5E8:  MOVF   x64,W
0A5EA:  SUBLW  02
0A5EC:  BNZ   A60C
0A5EE:  MOVF   x65,F
0A5F0:  BNZ   A60C
....................          printf("tnivel.txt=\"Rapido\""); 
0A5F2:  MOVLW  BC
0A5F4:  MOVWF  FF6
0A5F6:  MOVLW  0B
0A5F8:  MOVWF  FF7
0A5FA:  MOVLW  00
0A5FC:  MOVWF  FF8
0A5FE:  MOVLB  0
0A600:  CALL   38C6
....................          SendDataDisplay(); 
0A604:  CALL   38F8
....................       }else{ 
0A608:  BRA    A622
0A60A:  MOVLB  3
....................          printf("tnivel.txt=\"Lento\""); 
0A60C:  MOVLW  D0
0A60E:  MOVWF  FF6
0A610:  MOVLW  0B
0A612:  MOVWF  FF7
0A614:  MOVLW  00
0A616:  MOVWF  FF8
0A618:  MOVLB  0
0A61A:  CALL   38C6
....................          SendDataDisplay(); 
0A61E:  CALL   38F8
0A622:  MOVLB  3
....................       } 
....................    } 
.................... //_--------------------------------------------------------------------------------------------------------------------------------------------------------       
....................  
.................... //_--------------------------------------------------------------------------------------------------------------------------------------------------------       
....................       if(Menu==6){ // Menu de Prueba de Componentes 
0A624:  MOVF   x4F,W
0A626:  SUBLW  06
0A628:  BTFSS  FD8.2
0A62A:  BRA    ADAA
....................          PruebaEstados=ON; 
0A62C:  MOVLB  0
0A62E:  BSF    xA1.2
....................           
....................          if(RX_Buffer[4]==0x02)//Oprimio EV Desfogue 
0A630:  MOVF   34,W
0A632:  SUBLW  02
0A634:  BNZ   A63C
....................          { 
....................             EstadoDesfogue=!EstadoDesfogue; 
0A636:  BTG    xA0.7
....................             RX_Buffer[4]=0x00; 
0A638:  CLRF   34
....................             RX_Buffer2[4]=0x00; 
0A63A:  CLRF   3F
....................          } 
....................           
....................          if(EstadoDesfogue){ 
0A63C:  BTFSS  xA0.7
0A63E:  BRA    A65A
....................             printf("b1.bco=2016"); 
0A640:  MOVLW  E4
0A642:  MOVWF  FF6
0A644:  MOVLW  0B
0A646:  MOVWF  FF7
0A648:  MOVLW  00
0A64A:  MOVWF  FF8
0A64C:  CALL   38C6
....................             SendDataDisplay();  
0A650:  CALL   38F8
....................             Desfogue_on; 
0A654:  BCF    F8B.1
0A656:  BCF    F94.1
....................          } 
....................          else{ 
0A658:  BRA    A672
....................             printf("b1.bco=63488"); 
0A65A:  MOVLW  F0
0A65C:  MOVWF  FF6
0A65E:  MOVLW  0B
0A660:  MOVWF  FF7
0A662:  MOVLW  00
0A664:  MOVWF  FF8
0A666:  CALL   38C6
....................             SendDataDisplay();  
0A66A:  CALL   38F8
....................             Desfogue_off; 
0A66E:  BSF    F8B.1
0A670:  BCF    F94.1
....................          } 
....................           
....................          if(RX_Buffer[4]==0x01)//Oprimio EV Agua 
0A672:  DECFSZ 34,W
0A674:  BRA    A67C
....................          { 
....................             EstadoAgua=!EstadoAgua; 
0A676:  BTG    xA1.0
....................             RX_Buffer[4]=0x00; 
0A678:  CLRF   34
....................             RX_Buffer2[4]=0x00; 
0A67A:  CLRF   3F
....................          } 
....................           
....................          if(EstadoAgua){ 
0A67C:  BTFSS  xA1.0
0A67E:  BRA    A69A
....................             printf("b0.bco=2016"); 
0A680:  MOVLW  FE
0A682:  MOVWF  FF6
0A684:  MOVLW  0B
0A686:  MOVWF  FF7
0A688:  MOVLW  00
0A68A:  MOVWF  FF8
0A68C:  CALL   38C6
....................             SendDataDisplay();  
0A690:  CALL   38F8
....................             Agua_on; 
0A694:  BCF    F8B.0
0A696:  BCF    F94.0
....................          } 
....................          else{ 
0A698:  BRA    A6B2
....................             printf("b0.bco=63488"); 
0A69A:  MOVLW  0A
0A69C:  MOVWF  FF6
0A69E:  MOVLW  0C
0A6A0:  MOVWF  FF7
0A6A2:  MOVLW  00
0A6A4:  MOVWF  FF8
0A6A6:  CALL   38C6
....................             SendDataDisplay();  
0A6AA:  CALL   38F8
....................             Agua_off; 
0A6AE:  BSF    F8B.0
0A6B0:  BCF    F94.0
....................          } 
....................           
....................          if(RX_Buffer[4]==0x03)//Oprimio EV Paso 
0A6B2:  MOVF   34,W
0A6B4:  SUBLW  03
0A6B6:  BNZ   A6BE
....................          { 
....................             EstadoPaso=!EstadoPaso; 
0A6B8:  BTG    xA2.2
....................             RX_Buffer[4]=0x00; 
0A6BA:  CLRF   34
....................             RX_Buffer2[4]=0x00; 
0A6BC:  CLRF   3F
....................          } 
....................           
....................          if(EstadoPaso){ 
0A6BE:  BTFSS  xA2.2
0A6C0:  BRA    A6DC
....................             printf("b2.bco=2016"); 
0A6C2:  MOVLW  18
0A6C4:  MOVWF  FF6
0A6C6:  MOVLW  0C
0A6C8:  MOVWF  FF7
0A6CA:  MOVLW  00
0A6CC:  MOVWF  FF8
0A6CE:  CALL   38C6
....................             SendDataDisplay();  
0A6D2:  CALL   38F8
....................             AireEnf_on; 
0A6D6:  BCF    F8B.2
0A6D8:  BCF    F94.2
....................          } 
....................          else{ 
0A6DA:  BRA    A6F4
....................             printf("b2.bco=63488"); 
0A6DC:  MOVLW  24
0A6DE:  MOVWF  FF6
0A6E0:  MOVLW  0C
0A6E2:  MOVWF  FF7
0A6E4:  MOVLW  00
0A6E6:  MOVWF  FF8
0A6E8:  CALL   38C6
....................             SendDataDisplay();  
0A6EC:  CALL   38F8
....................             AireEnf_off; 
0A6F0:  BSF    F8B.2
0A6F2:  BCF    F94.2
....................          } 
....................          
....................           
....................          if(RX_Buffer[4]==0x05)//Oprimio EV Aire 
0A6F4:  MOVF   34,W
0A6F6:  SUBLW  05
0A6F8:  BNZ   A700
....................          { 
....................             EstadoAire=!EstadoAire; 
0A6FA:  BTG    xA2.6
....................             RX_Buffer[4]=0x00; 
0A6FC:  CLRF   34
....................             RX_Buffer2[4]=0x00; 
0A6FE:  CLRF   3F
....................          } 
....................           
....................          if(EstadoAire){ 
0A700:  BTFSS  xA2.6
0A702:  BRA    A71E
....................             printf("b4.bco=2016"); 
0A704:  MOVLW  32
0A706:  MOVWF  FF6
0A708:  MOVLW  0C
0A70A:  MOVWF  FF7
0A70C:  MOVLW  00
0A70E:  MOVWF  FF8
0A710:  CALL   38C6
....................             SendDataDisplay();  
0A714:  CALL   38F8
....................             Aire_on; 
0A718:  BCF    F8C.0
0A71A:  BCF    F95.0
....................          } 
....................          else{ 
0A71C:  BRA    A736
....................             printf("b4.bco=63488"); 
0A71E:  MOVLW  3E
0A720:  MOVWF  FF6
0A722:  MOVLW  0C
0A724:  MOVWF  FF7
0A726:  MOVLW  00
0A728:  MOVWF  FF8
0A72A:  CALL   38C6
....................             SendDataDisplay();  
0A72E:  CALL   38F8
....................             Aire_off; 
0A732:  BSF    F8C.0
0A734:  BCF    F95.0
....................          } 
....................                    
....................          if(RX_Buffer[4]==0x04)//Oprimio SSR1 
0A736:  MOVF   34,W
0A738:  SUBLW  04
0A73A:  BNZ   A742
....................          { 
....................             EstadoSSR=!EstadoSSR; 
0A73C:  BTG    xA1.1
....................             RX_Buffer[4]=0x00; 
0A73E:  CLRF   34
....................             RX_Buffer2[4]=0x00; 
0A740:  CLRF   3F
....................          } 
....................           
....................          if(EstadoSSR){ 
0A742:  BTFSS  xA1.1
0A744:  BRA    A760
....................             printf("b3.bco=2016"); 
0A746:  MOVLW  4C
0A748:  MOVWF  FF6
0A74A:  MOVLW  0C
0A74C:  MOVWF  FF7
0A74E:  MOVLW  00
0A750:  MOVWF  FF8
0A752:  CALL   38C6
....................             SendDataDisplay();  
0A756:  CALL   38F8
....................             SSR_on; 
0A75A:  BSF    F8D.1
0A75C:  BCF    F96.1
....................          } 
....................          else{ 
0A75E:  BRA    A778
....................             printf("b3.bco=63488"); 
0A760:  MOVLW  58
0A762:  MOVWF  FF6
0A764:  MOVLW  0C
0A766:  MOVWF  FF7
0A768:  MOVLW  00
0A76A:  MOVWF  FF8
0A76C:  CALL   38C6
....................             SendDataDisplay();  
0A770:  CALL   38F8
....................             SSR_off; 
0A774:  BCF    F8D.1
0A776:  BCF    F96.1
....................          } 
....................           
....................          if(DOOR){ 
0A778:  BSF    F93.6
0A77A:  BTFSC  F81.6
0A77C:  BRA    A794
....................             printf("b8.bco=2016"); 
0A77E:  MOVLW  66
0A780:  MOVWF  FF6
0A782:  MOVLW  0C
0A784:  MOVWF  FF7
0A786:  MOVLW  00
0A788:  MOVWF  FF8
0A78A:  CALL   38C6
....................             SendDataDisplay();  
0A78E:  CALL   38F8
....................          }else{ 
0A792:  BRA    A7A8
....................             printf("b8.bco=63488"); 
0A794:  MOVLW  72
0A796:  MOVWF  FF6
0A798:  MOVLW  0C
0A79A:  MOVWF  FF7
0A79C:  MOVLW  00
0A79E:  MOVWF  FF8
0A7A0:  CALL   38C6
....................             SendDataDisplay();  
0A7A4:  CALL   38F8
....................          } 
....................           
....................          if(TERM){ 
0A7A8:  BSF    F93.4
0A7AA:  BTFSC  F81.4
0A7AC:  BRA    A7C4
....................             printf("b9.bco=2016"); 
0A7AE:  MOVLW  80
0A7B0:  MOVWF  FF6
0A7B2:  MOVLW  0C
0A7B4:  MOVWF  FF7
0A7B6:  MOVLW  00
0A7B8:  MOVWF  FF8
0A7BA:  CALL   38C6
....................             SendDataDisplay();  
0A7BE:  CALL   38F8
....................          }else{ 
0A7C2:  BRA    A7D8
....................             printf("b9.bco=63488"); 
0A7C4:  MOVLW  8C
0A7C6:  MOVWF  FF6
0A7C8:  MOVLW  0C
0A7CA:  MOVWF  FF7
0A7CC:  MOVLW  00
0A7CE:  MOVWF  FF8
0A7D0:  CALL   38C6
....................             SendDataDisplay();  
0A7D4:  CALL   38F8
....................          } 
....................           
....................          if(STOP){ 
0A7D8:  BSF    F93.5
0A7DA:  BTFSC  F81.5
0A7DC:  BRA    A7F4
....................             printf("b10.bco=2016"); 
0A7DE:  MOVLW  9A
0A7E0:  MOVWF  FF6
0A7E2:  MOVLW  0C
0A7E4:  MOVWF  FF7
0A7E6:  MOVLW  00
0A7E8:  MOVWF  FF8
0A7EA:  CALL   38C6
....................             SendDataDisplay();  
0A7EE:  CALL   38F8
....................          }else{ 
0A7F2:  BRA    A808
....................             printf("b10.bco=63488"); 
0A7F4:  MOVLW  A8
0A7F6:  MOVWF  FF6
0A7F8:  MOVLW  0C
0A7FA:  MOVWF  FF7
0A7FC:  MOVLW  00
0A7FE:  MOVWF  FF8
0A800:  CALL   38C6
....................             SendDataDisplay();  
0A804:  CALL   38F8
....................          } 
....................           
....................          if(PRES){ 
0A808:  BSF    F93.7
0A80A:  BTFSC  F81.7
0A80C:  BRA    A824
....................             printf("b11.bco=2016"); 
0A80E:  MOVLW  B6
0A810:  MOVWF  FF6
0A812:  MOVLW  0C
0A814:  MOVWF  FF7
0A816:  MOVLW  00
0A818:  MOVWF  FF8
0A81A:  CALL   38C6
....................             SendDataDisplay();  
0A81E:  CALL   38F8
....................          }else{ 
0A822:  BRA    A838
....................             printf("b11.bco=63488"); 
0A824:  MOVLW  C4
0A826:  MOVWF  FF6
0A828:  MOVLW  0C
0A82A:  MOVWF  FF7
0A82C:  MOVLW  00
0A82E:  MOVWF  FF8
0A830:  CALL   38C6
....................             SendDataDisplay();  
0A834:  CALL   38F8
....................          } 
....................           
....................          if(RX_Buffer[4]==0x13)//Oprimio Buzzer 
0A838:  MOVF   34,W
0A83A:  SUBLW  13
0A83C:  BNZ   A844
....................          { 
....................             EstadoBuzzer=!EstadoBuzzer; 
0A83E:  BTG    xA2.3
....................             RX_Buffer[4]=0x00; 
0A840:  CLRF   34
....................             RX_Buffer2[4]=0x00; 
0A842:  CLRF   3F
....................          } 
....................           
....................          if(EstadoBuzzer){ 
0A844:  BTFSS  xA2.3
0A846:  BRA    A862
....................             printf("b12.bco=2016"); 
0A848:  MOVLW  D2
0A84A:  MOVWF  FF6
0A84C:  MOVLW  0C
0A84E:  MOVWF  FF7
0A850:  MOVLW  00
0A852:  MOVWF  FF8
0A854:  CALL   38C6
....................             SendDataDisplay();  
0A858:  CALL   38F8
....................             Buzzer_on; 
0A85C:  BSF    F8C.7
0A85E:  BCF    F95.7
....................          } 
....................          else{ 
0A860:  BRA    A87A
....................             printf("b12.bco=63488"); 
0A862:  MOVLW  E0
0A864:  MOVWF  FF6
0A866:  MOVLW  0C
0A868:  MOVWF  FF7
0A86A:  MOVLW  00
0A86C:  MOVWF  FF8
0A86E:  CALL   38C6
....................             SendDataDisplay();  
0A872:  CALL   38F8
....................             Buzzer_off; 
0A876:  BCF    F8C.7
0A878:  BCF    F95.7
....................          } 
....................           
....................          if(HIG){ 
0A87A:  BTFSS  xA3.7
0A87C:  BRA    A894
....................             printf("b16.bco=2016"); 
0A87E:  MOVLW  EE
0A880:  MOVWF  FF6
0A882:  MOVLW  0C
0A884:  MOVWF  FF7
0A886:  MOVLW  00
0A888:  MOVWF  FF8
0A88A:  CALL   38C6
....................             SendDataDisplay();  
0A88E:  CALL   38F8
....................          }else{ 
0A892:  BRA    A8A8
....................             printf("b16.bco=63488"); 
0A894:  MOVLW  FC
0A896:  MOVWF  FF6
0A898:  MOVLW  0C
0A89A:  MOVWF  FF7
0A89C:  MOVLW  00
0A89E:  MOVWF  FF8
0A8A0:  CALL   38C6
....................             SendDataDisplay();  
0A8A4:  CALL   38F8
....................          } 
....................           
....................          if(LOW){ 
0A8A8:  BTFSS  xA3.6
0A8AA:  BRA    A8C2
....................             printf("b17.bco=2016"); 
0A8AC:  MOVLW  0A
0A8AE:  MOVWF  FF6
0A8B0:  MOVLW  0D
0A8B2:  MOVWF  FF7
0A8B4:  MOVLW  00
0A8B6:  MOVWF  FF8
0A8B8:  CALL   38C6
....................             SendDataDisplay();  
0A8BC:  CALL   38F8
....................          }else{ 
0A8C0:  BRA    A8D6
....................             printf("b17.bco=63488"); 
0A8C2:  MOVLW  18
0A8C4:  MOVWF  FF6
0A8C6:  MOVLW  0D
0A8C8:  MOVWF  FF7
0A8CA:  MOVLW  00
0A8CC:  MOVWF  FF8
0A8CE:  CALL   38C6
....................             SendDataDisplay();  
0A8D2:  CALL   38F8
....................          } 
....................           
....................          printf("b13.txt=\"ADC0:%3.0f\"",sensores(0));          
0A8D6:  MOVLB  7
0A8D8:  CLRF   x06
0A8DA:  MOVLB  0
0A8DC:  CALL   3956
0A8E0:  MOVFF  00,700
0A8E4:  MOVFF  01,701
0A8E8:  MOVFF  02,702
0A8EC:  MOVFF  03,703
0A8F0:  MOVLW  26
0A8F2:  MOVWF  FF6
0A8F4:  MOVLW  0D
0A8F6:  MOVWF  FF7
0A8F8:  MOVLW  00
0A8FA:  MOVWF  FF8
0A8FC:  MOVLW  0E
0A8FE:  MOVLB  7
0A900:  MOVWF  x05
0A902:  MOVLB  0
0A904:  CALL   4EDC
0A908:  MOVLW  02
0A90A:  MOVWF  FE9
0A90C:  MOVFF  703,708
0A910:  MOVFF  702,707
0A914:  MOVFF  701,706
0A918:  MOVFF  700,705
0A91C:  MOVLB  7
0A91E:  CLRF   x09
0A920:  MOVLB  0
0A922:  CALL   507C
0A926:  MOVLW  22
0A928:  BTFSS  F9E.4
0A92A:  BRA    A928
0A92C:  MOVWF  FAD
....................          SendDataDisplay(); 
0A92E:  CALL   38F8
....................          printf("b14.txt=\"ADC1:%3.0f\"",sensores(1));          
0A932:  MOVLW  01
0A934:  MOVLB  7
0A936:  MOVWF  x06
0A938:  MOVLB  0
0A93A:  CALL   3956
0A93E:  MOVFF  00,700
0A942:  MOVFF  01,701
0A946:  MOVFF  02,702
0A94A:  MOVFF  03,703
0A94E:  MOVLW  3C
0A950:  MOVWF  FF6
0A952:  MOVLW  0D
0A954:  MOVWF  FF7
0A956:  MOVLW  00
0A958:  MOVWF  FF8
0A95A:  MOVLW  0E
0A95C:  MOVLB  7
0A95E:  MOVWF  x05
0A960:  MOVLB  0
0A962:  CALL   4EDC
0A966:  MOVLW  02
0A968:  MOVWF  FE9
0A96A:  MOVFF  703,708
0A96E:  MOVFF  702,707
0A972:  MOVFF  701,706
0A976:  MOVFF  700,705
0A97A:  MOVLB  7
0A97C:  CLRF   x09
0A97E:  MOVLB  0
0A980:  CALL   507C
0A984:  MOVLW  22
0A986:  BTFSS  F9E.4
0A988:  BRA    A986
0A98A:  MOVWF  FAD
....................          SendDataDisplay(); 
0A98C:  CALL   38F8
....................          printf("b15.txt=\"A2:%3.0f %03Lu\"",sensores(2),PresionCamara); 
0A990:  MOVLW  02
0A992:  MOVLB  7
0A994:  MOVWF  x06
0A996:  MOVLB  0
0A998:  CALL   3956
0A99C:  MOVFF  00,700
0A9A0:  MOVFF  01,701
0A9A4:  MOVFF  02,702
0A9A8:  MOVFF  03,703
0A9AC:  MOVLW  52
0A9AE:  MOVWF  FF6
0A9B0:  MOVLW  0D
0A9B2:  MOVWF  FF7
0A9B4:  MOVLW  00
0A9B6:  MOVWF  FF8
0A9B8:  MOVLW  0C
0A9BA:  MOVLB  7
0A9BC:  MOVWF  x05
0A9BE:  MOVLB  0
0A9C0:  CALL   4EDC
0A9C4:  MOVLW  02
0A9C6:  MOVWF  FE9
0A9C8:  MOVFF  703,708
0A9CC:  MOVFF  702,707
0A9D0:  MOVFF  701,706
0A9D4:  MOVFF  700,705
0A9D8:  MOVLB  7
0A9DA:  CLRF   x09
0A9DC:  MOVLB  0
0A9DE:  CALL   507C
0A9E2:  MOVLW  20
0A9E4:  BTFSS  F9E.4
0A9E6:  BRA    A9E4
0A9E8:  MOVWF  FAD
0A9EA:  MOVLW  0A
0A9EC:  MOVWF  FE9
0A9EE:  MOVFF  369,705
0A9F2:  MOVFF  368,704
0A9F6:  CALL   527C
0A9FA:  MOVLW  22
0A9FC:  BTFSS  F9E.4
0A9FE:  BRA    A9FC
0AA00:  MOVWF  FAD
....................          SendDataDisplay(); 
0AA02:  CALL   38F8
....................          printf("b18.txt=\"A3:%3.0f %03Lu\"",sensores(3),PresionPreCamara); 
0AA06:  MOVLW  03
0AA08:  MOVLB  7
0AA0A:  MOVWF  x06
0AA0C:  MOVLB  0
0AA0E:  CALL   3956
0AA12:  MOVFF  00,700
0AA16:  MOVFF  01,701
0AA1A:  MOVFF  02,702
0AA1E:  MOVFF  03,703
0AA22:  MOVLW  6C
0AA24:  MOVWF  FF6
0AA26:  MOVLW  0D
0AA28:  MOVWF  FF7
0AA2A:  MOVLW  00
0AA2C:  MOVWF  FF8
0AA2E:  MOVLW  0C
0AA30:  MOVLB  7
0AA32:  MOVWF  x05
0AA34:  MOVLB  0
0AA36:  CALL   4EDC
0AA3A:  MOVLW  02
0AA3C:  MOVWF  FE9
0AA3E:  MOVFF  703,708
0AA42:  MOVFF  702,707
0AA46:  MOVFF  701,706
0AA4A:  MOVFF  700,705
0AA4E:  MOVLB  7
0AA50:  CLRF   x09
0AA52:  MOVLB  0
0AA54:  CALL   507C
0AA58:  MOVLW  20
0AA5A:  BTFSS  F9E.4
0AA5C:  BRA    AA5A
0AA5E:  MOVWF  FAD
0AA60:  MOVLW  0A
0AA62:  MOVWF  FE9
0AA64:  MOVFF  36B,705
0AA68:  MOVFF  36A,704
0AA6C:  CALL   527C
0AA70:  MOVLW  22
0AA72:  BTFSS  F9E.4
0AA74:  BRA    AA72
0AA76:  MOVWF  FAD
....................          SendDataDisplay(); 
0AA78:  CALL   38F8
....................          printf("b20.txt=\"T1:%3.1f\"",Temperatura); 
0AA7C:  MOVLW  86
0AA7E:  MOVWF  FF6
0AA80:  MOVLW  0D
0AA82:  MOVWF  FF7
0AA84:  MOVLW  00
0AA86:  MOVWF  FF8
0AA88:  MOVLW  0C
0AA8A:  MOVLB  7
0AA8C:  MOVWF  x05
0AA8E:  MOVLB  0
0AA90:  CALL   4EDC
0AA94:  MOVLW  02
0AA96:  MOVWF  FE9
0AA98:  MOVFF  319,708
0AA9C:  MOVFF  318,707
0AAA0:  MOVFF  317,706
0AAA4:  MOVFF  316,705
0AAA8:  MOVLW  01
0AAAA:  MOVLB  7
0AAAC:  MOVWF  x09
0AAAE:  MOVLB  0
0AAB0:  CALL   507C
0AAB4:  MOVLW  22
0AAB6:  BTFSS  F9E.4
0AAB8:  BRA    AAB6
0AABA:  MOVWF  FAD
....................          SendDataDisplay(); 
0AABC:  CALL   38F8
....................           
....................          if(RX_Buffer[4]==0x21 || LEFT){//Oprimio salir 
0AAC0:  MOVF   34,W
0AAC2:  SUBLW  21
0AAC4:  BZ    AACC
0AAC6:  BSF    F93.3
0AAC8:  BTFSC  F81.3
0AACA:  BRA    AB18
....................             delay_ms(100); 
0AACC:  MOVLW  64
0AACE:  MOVLB  7
0AAD0:  MOVWF  x10
0AAD2:  MOVLB  0
0AAD4:  CALL   1992
....................             if(RX_Buffer[4]==0x21 || LEFT){ 
0AAD8:  MOVF   34,W
0AADA:  SUBLW  21
0AADC:  BZ    AAE4
0AADE:  BSF    F93.3
0AAE0:  BTFSC  F81.3
0AAE2:  BRA    AB18
....................                printf("page MenuPrincipal"); 
0AAE4:  MOVLW  9A
0AAE6:  MOVWF  FF6
0AAE8:  MOVLW  0D
0AAEA:  MOVWF  FF7
0AAEC:  MOVLW  00
0AAEE:  MOVWF  FF8
0AAF0:  CALL   38C6
....................                SendDataDisplay(); 
0AAF4:  CALL   38F8
....................                PantallaPrincipal=0; 
0AAF8:  MOVLB  2
0AAFA:  CLRF   xD1
....................                PruebaEstados=OFF;Desfogue_off;Agua_off;Aire_off;AireEnf_off;SSR_off; 
0AAFC:  MOVLB  0
0AAFE:  BCF    xA1.2
0AB00:  BSF    F8B.1
0AB02:  BCF    F94.1
0AB04:  BSF    F8B.0
0AB06:  BCF    F94.0
0AB08:  BSF    F8C.0
0AB0A:  BCF    F95.0
0AB0C:  BSF    F8B.2
0AB0E:  BCF    F94.2
0AB10:  BCF    F8D.1
0AB12:  BCF    F96.1
....................                ApagaSalidas(); 
0AB14:  CALL   392E
....................                // Falta apagar Todo 
....................             } 
....................          } 
....................           
....................          if(UP){ 
0AB18:  BSF    F93.0
0AB1A:  BTFSC  F81.0
0AB1C:  BRA    AC60
....................             delay_ms(100); 
0AB1E:  MOVLW  64
0AB20:  MOVLB  7
0AB22:  MOVWF  x10
0AB24:  MOVLB  0
0AB26:  CALL   1992
....................             if(UP){ 
0AB2A:  BSF    F93.0
0AB2C:  BTFSC  F81.0
0AB2E:  BRA    AC60
....................                G1=41-sensores(2); 
0AB30:  MOVLW  02
0AB32:  MOVLB  7
0AB34:  MOVWF  x06
0AB36:  MOVLB  0
0AB38:  CALL   3956
0AB3C:  MOVFF  FEA,701
0AB40:  MOVFF  FE9,700
0AB44:  BSF    FD8.1
0AB46:  MOVLB  7
0AB48:  CLRF   x15
0AB4A:  CLRF   x14
0AB4C:  MOVLW  24
0AB4E:  MOVWF  x13
0AB50:  MOVLW  84
0AB52:  MOVWF  x12
0AB54:  MOVFF  03,719
0AB58:  MOVFF  02,718
0AB5C:  MOVFF  01,717
0AB60:  MOVFF  00,716
0AB64:  MOVLB  0
0AB66:  CALL   1D3A
0AB6A:  MOVFF  701,FEA
0AB6E:  MOVFF  700,FE9
0AB72:  MOVFF  03,715
0AB76:  MOVFF  02,714
0AB7A:  MOVFF  01,713
0AB7E:  MOVFF  00,712
0AB82:  CALL   4582
0AB86:  MOVFF  01,3A2
....................                if(G1<0) 
0AB8A:  MOVLB  3
0AB8C:  BTFSC  xA2.7
0AB8E:  BRA    AB92
0AB90:  BRA    AB98
....................                   sg1=10; 
0AB92:  MOVLW  0A
0AB94:  MOVWF  xA4
....................                else 
0AB96:  BRA    AB9C
....................                   sg1=5; 
0AB98:  MOVLW  05
0AB9A:  MOVWF  xA4
....................                    
....................                write_eeprom(42,(int8)G1); 
0AB9C:  CLRF   FAA
0AB9E:  MOVLW  2A
0ABA0:  MOVWF  FA9
0ABA2:  MOVFF  3A2,FA8
0ABA6:  BCF    FA6.6
0ABA8:  BCF    FA6.7
0ABAA:  BSF    FA6.2
0ABAC:  MOVF   FF2,W
0ABAE:  MOVWF  00
0ABB0:  BCF    FF2.6
0ABB2:  BCF    FF2.7
0ABB4:  MOVLB  F
0ABB6:  MOVLW  55
0ABB8:  MOVWF  FA7
0ABBA:  MOVLW  AA
0ABBC:  MOVWF  FA7
0ABBE:  BSF    FA6.1
0ABC0:  BTFSC  FA6.1
0ABC2:  BRA    ABC0
0ABC4:  BCF    FA6.2
0ABC6:  MOVF   00,W
0ABC8:  IORWF  FF2,F
....................                delay_ms(10); 
0ABCA:  MOVLW  0A
0ABCC:  MOVLB  7
0ABCE:  MOVWF  x10
0ABD0:  MOVLB  0
0ABD2:  CALL   1992
....................                write_eeprom(44,(int8)sg1); 
0ABD6:  CLRF   FAA
0ABD8:  MOVLW  2C
0ABDA:  MOVWF  FA9
0ABDC:  MOVFF  3A4,FA8
0ABE0:  BCF    FA6.6
0ABE2:  BCF    FA6.7
0ABE4:  BSF    FA6.2
0ABE6:  MOVF   FF2,W
0ABE8:  MOVWF  00
0ABEA:  BCF    FF2.6
0ABEC:  BCF    FF2.7
0ABEE:  MOVLB  F
0ABF0:  MOVLW  55
0ABF2:  MOVWF  FA7
0ABF4:  MOVLW  AA
0ABF6:  MOVWF  FA7
0ABF8:  BSF    FA6.1
0ABFA:  BTFSC  FA6.1
0ABFC:  BRA    ABFA
0ABFE:  BCF    FA6.2
0AC00:  MOVF   00,W
0AC02:  IORWF  FF2,F
....................                delay_ms(10); 
0AC04:  MOVLW  0A
0AC06:  MOVLB  7
0AC08:  MOVWF  x10
0AC0A:  MOVLB  0
0AC0C:  CALL   1992
....................                Buzzer_on; 
0AC10:  BSF    F8C.7
0AC12:  BCF    F95.7
....................                delay_ms(1000); 
0AC14:  MOVLW  04
0AC16:  MOVLB  7
0AC18:  MOVWF  x00
0AC1A:  MOVLW  FA
0AC1C:  MOVWF  x10
0AC1E:  MOVLB  0
0AC20:  CALL   1992
0AC24:  MOVLB  7
0AC26:  DECFSZ x00,F
0AC28:  BRA    AC1A
....................                Buzzer_off; 
0AC2A:  BCF    F8C.7
0AC2C:  BCF    F95.7
....................                delay_ms(1000); 
0AC2E:  MOVLW  04
0AC30:  MOVWF  x00
0AC32:  MOVLW  FA
0AC34:  MOVWF  x10
0AC36:  MOVLB  0
0AC38:  CALL   1992
0AC3C:  MOVLB  7
0AC3E:  DECFSZ x00,F
0AC40:  BRA    AC32
....................                Buzzer_on; 
0AC42:  BSF    F8C.7
0AC44:  BCF    F95.7
....................                delay_ms(1000); 
0AC46:  MOVLW  04
0AC48:  MOVWF  x00
0AC4A:  MOVLW  FA
0AC4C:  MOVWF  x10
0AC4E:  MOVLB  0
0AC50:  CALL   1992
0AC54:  MOVLB  7
0AC56:  DECFSZ x00,F
0AC58:  BRA    AC4A
....................                Buzzer_off; 
0AC5A:  BCF    F8C.7
0AC5C:  BCF    F95.7
0AC5E:  MOVLB  0
....................             } 
....................          } 
....................           
....................          if(DOWN){ 
0AC60:  BSF    F93.1
0AC62:  BTFSC  F81.1
0AC64:  BRA    ADA8
....................             delay_ms(100); 
0AC66:  MOVLW  64
0AC68:  MOVLB  7
0AC6A:  MOVWF  x10
0AC6C:  MOVLB  0
0AC6E:  CALL   1992
....................             if(DOWN){ 
0AC72:  BSF    F93.1
0AC74:  BTFSC  F81.1
0AC76:  BRA    ADA8
....................                G2=41-sensores(3); 
0AC78:  MOVLW  03
0AC7A:  MOVLB  7
0AC7C:  MOVWF  x06
0AC7E:  MOVLB  0
0AC80:  CALL   3956
0AC84:  MOVFF  FEA,701
0AC88:  MOVFF  FE9,700
0AC8C:  BSF    FD8.1
0AC8E:  MOVLB  7
0AC90:  CLRF   x15
0AC92:  CLRF   x14
0AC94:  MOVLW  24
0AC96:  MOVWF  x13
0AC98:  MOVLW  84
0AC9A:  MOVWF  x12
0AC9C:  MOVFF  03,719
0ACA0:  MOVFF  02,718
0ACA4:  MOVFF  01,717
0ACA8:  MOVFF  00,716
0ACAC:  MOVLB  0
0ACAE:  CALL   1D3A
0ACB2:  MOVFF  701,FEA
0ACB6:  MOVFF  700,FE9
0ACBA:  MOVFF  03,715
0ACBE:  MOVFF  02,714
0ACC2:  MOVFF  01,713
0ACC6:  MOVFF  00,712
0ACCA:  CALL   4582
0ACCE:  MOVFF  01,3A3
....................                if(G2<0) 
0ACD2:  MOVLB  3
0ACD4:  BTFSC  xA3.7
0ACD6:  BRA    ACDA
0ACD8:  BRA    ACE0
....................                   sg2=10; 
0ACDA:  MOVLW  0A
0ACDC:  MOVWF  xA5
....................                else 
0ACDE:  BRA    ACE4
....................                   sg2=5; 
0ACE0:  MOVLW  05
0ACE2:  MOVWF  xA5
....................                    
....................                write_eeprom(43,(int8)G2); 
0ACE4:  CLRF   FAA
0ACE6:  MOVLW  2B
0ACE8:  MOVWF  FA9
0ACEA:  MOVFF  3A3,FA8
0ACEE:  BCF    FA6.6
0ACF0:  BCF    FA6.7
0ACF2:  BSF    FA6.2
0ACF4:  MOVF   FF2,W
0ACF6:  MOVWF  00
0ACF8:  BCF    FF2.6
0ACFA:  BCF    FF2.7
0ACFC:  MOVLB  F
0ACFE:  MOVLW  55
0AD00:  MOVWF  FA7
0AD02:  MOVLW  AA
0AD04:  MOVWF  FA7
0AD06:  BSF    FA6.1
0AD08:  BTFSC  FA6.1
0AD0A:  BRA    AD08
0AD0C:  BCF    FA6.2
0AD0E:  MOVF   00,W
0AD10:  IORWF  FF2,F
....................                delay_ms(10); 
0AD12:  MOVLW  0A
0AD14:  MOVLB  7
0AD16:  MOVWF  x10
0AD18:  MOVLB  0
0AD1A:  CALL   1992
....................                write_eeprom(45,(int8)sg2); 
0AD1E:  CLRF   FAA
0AD20:  MOVLW  2D
0AD22:  MOVWF  FA9
0AD24:  MOVFF  3A5,FA8
0AD28:  BCF    FA6.6
0AD2A:  BCF    FA6.7
0AD2C:  BSF    FA6.2
0AD2E:  MOVF   FF2,W
0AD30:  MOVWF  00
0AD32:  BCF    FF2.6
0AD34:  BCF    FF2.7
0AD36:  MOVLB  F
0AD38:  MOVLW  55
0AD3A:  MOVWF  FA7
0AD3C:  MOVLW  AA
0AD3E:  MOVWF  FA7
0AD40:  BSF    FA6.1
0AD42:  BTFSC  FA6.1
0AD44:  BRA    AD42
0AD46:  BCF    FA6.2
0AD48:  MOVF   00,W
0AD4A:  IORWF  FF2,F
....................                delay_ms(10); 
0AD4C:  MOVLW  0A
0AD4E:  MOVLB  7
0AD50:  MOVWF  x10
0AD52:  MOVLB  0
0AD54:  CALL   1992
....................                Buzzer_on; 
0AD58:  BSF    F8C.7
0AD5A:  BCF    F95.7
....................                delay_ms(1000); 
0AD5C:  MOVLW  04
0AD5E:  MOVLB  7
0AD60:  MOVWF  x00
0AD62:  MOVLW  FA
0AD64:  MOVWF  x10
0AD66:  MOVLB  0
0AD68:  CALL   1992
0AD6C:  MOVLB  7
0AD6E:  DECFSZ x00,F
0AD70:  BRA    AD62
....................                Buzzer_off; 
0AD72:  BCF    F8C.7
0AD74:  BCF    F95.7
....................                delay_ms(1000); 
0AD76:  MOVLW  04
0AD78:  MOVWF  x00
0AD7A:  MOVLW  FA
0AD7C:  MOVWF  x10
0AD7E:  MOVLB  0
0AD80:  CALL   1992
0AD84:  MOVLB  7
0AD86:  DECFSZ x00,F
0AD88:  BRA    AD7A
....................                Buzzer_on; 
0AD8A:  BSF    F8C.7
0AD8C:  BCF    F95.7
....................                delay_ms(1000); 
0AD8E:  MOVLW  04
0AD90:  MOVWF  x00
0AD92:  MOVLW  FA
0AD94:  MOVWF  x10
0AD96:  MOVLB  0
0AD98:  CALL   1992
0AD9C:  MOVLB  7
0AD9E:  DECFSZ x00,F
0ADA0:  BRA    AD92
....................                Buzzer_off; 
0ADA2:  BCF    F8C.7
0ADA4:  BCF    F95.7
0ADA6:  MOVLB  0
0ADA8:  MOVLB  3
....................             } 
....................          } 
....................      } 
.................... //_--------------------------------------------------------------------------------------------------------------------------------------------------------     
....................  
.................... //_--------------------------------------------------------------------------------------------------------------------------------------------------------       
....................       if(Menu==7){ //Menu de Configuracin de Fecha y Hora 
0ADAA:  MOVF   x4F,W
0ADAC:  SUBLW  07
0ADAE:  BTFSS  FD8.2
0ADB0:  BRA    B1D8
....................        
....................          if(RX_Buffer[4]==0x0a){//Selecciono Hora 
0ADB2:  MOVF   34,W
0ADB4:  SUBLW  0A
0ADB6:  BNZ   ADBC
....................             Opcion=4; 
0ADB8:  MOVLW  04
0ADBA:  MOVWF  x57
....................          } 
....................           
....................          if(RX_Buffer[4]==0x0b){//Selecciono Minuto 
0ADBC:  MOVF   34,W
0ADBE:  SUBLW  0B
0ADC0:  BNZ   ADC6
....................             Opcion=5; 
0ADC2:  MOVLW  05
0ADC4:  MOVWF  x57
....................          } 
....................           
....................          if(RX_Buffer[4]==0x0c){//Selecciono Dia 
0ADC6:  MOVF   34,W
0ADC8:  SUBLW  0C
0ADCA:  BNZ   ADD0
....................             Opcion=1; 
0ADCC:  MOVLW  01
0ADCE:  MOVWF  x57
....................          } 
....................           
....................          if(RX_Buffer[4]==0x0d){//Selecciono Hora 
0ADD0:  MOVF   34,W
0ADD2:  SUBLW  0D
0ADD4:  BNZ   ADDA
....................             Opcion=2; 
0ADD6:  MOVLW  02
0ADD8:  MOVWF  x57
....................          } 
....................           
....................          if(RX_Buffer[4]==0x0e){//Selecciono Year 
0ADDA:  MOVF   34,W
0ADDC:  SUBLW  0E
0ADDE:  BNZ   ADE4
....................             Opcion=3; 
0ADE0:  MOVLW  03
0ADE2:  MOVWF  x57
....................          } 
....................           
....................          if(RIGHT){ 
0ADE4:  BSF    F93.2
0ADE6:  BTFSC  F81.2
0ADE8:  BRA    AE00
....................             delay_ms(200); 
0ADEA:  MOVLW  C8
0ADEC:  MOVLB  7
0ADEE:  MOVWF  x10
0ADF0:  MOVLB  0
0ADF2:  CALL   1992
....................             if(RIGHT){ 
0ADF6:  BSF    F93.2
0ADF8:  BTFSC  F81.2
0ADFA:  BRA    AE02
....................                Opcion++; 
0ADFC:  MOVLB  3
0ADFE:  INCF   x57,F
0AE00:  MOVLB  0
....................             } 
....................          } 
....................          if(Opcion>5) 
0AE02:  MOVLB  3
0AE04:  MOVF   x57,W
0AE06:  SUBLW  05
0AE08:  BC    AE0E
....................             Opcion=1; 
0AE0A:  MOVLW  01
0AE0C:  MOVWF  x57
....................          if(Opcion<1) 
0AE0E:  MOVF   x57,F
0AE10:  BNZ   AE16
....................             Opcion=5; 
0AE12:  MOVLW  05
0AE14:  MOVWF  x57
....................              
....................          if(RX_Buffer[4]==0x11 || LEFT){//Selecciono Regresar 
0AE16:  MOVF   34,W
0AE18:  SUBLW  11
0AE1A:  BZ    AE22
0AE1C:  BSF    F93.3
0AE1E:  BTFSC  F81.3
0AE20:  BRA    AF3A
....................             printf("page MenuPrincipal"); 
0AE22:  MOVLW  AE
0AE24:  MOVWF  FF6
0AE26:  MOVLW  0D
0AE28:  MOVWF  FF7
0AE2A:  MOVLW  00
0AE2C:  MOVWF  FF8
0AE2E:  MOVLB  0
0AE30:  CALL   38C6
....................             SendDataDisplay();   
0AE34:  CALL   38F8
....................             PantallaPrincipal=0; 
0AE38:  MOVLB  2
0AE3A:  CLRF   xD1
....................             Op=OFF; 
0AE3C:  MOVLB  0
0AE3E:  BCF    xA1.5
....................             Op2=OFF; 
0AE40:  BCF    xA1.6
....................              
....................             if(esBisiesto(YearTx)) 
0AE42:  MOVFF  39A,6FA
0AE46:  CALL   536C
0AE4A:  MOVF   01,F
0AE4C:  BZ    AE68
....................                Modulo=Bisiesto[MesTx]; 
0AE4E:  CLRF   03
0AE50:  MOVLB  3
0AE52:  MOVF   x9B,W
0AE54:  ADDLW  93
0AE56:  MOVWF  FE9
0AE58:  MOVLW  00
0AE5A:  ADDWFC 03,W
0AE5C:  MOVWF  FEA
0AE5E:  MOVFF  FEF,2D3
0AE62:  MOVLB  2
....................             else 
0AE64:  BRA    AE7E
0AE66:  MOVLB  0
....................                Modulo=Regular[MesTx]; 
0AE68:  CLRF   03
0AE6A:  MOVLB  3
0AE6C:  MOVF   x9B,W
0AE6E:  ADDLW  87
0AE70:  MOVWF  FE9
0AE72:  MOVLW  00
0AE74:  ADDWFC 03,W
0AE76:  MOVWF  FEA
0AE78:  MOVFF  FEF,2D3
0AE7C:  MOVLB  2
....................           
....................             dowTx=((YearTx-1)%7+((YearTx-1)/4-3*((YearTx-1)/100+1)/4)%7+Modulo+DiaTx%7)%7; 
0AE7E:  MOVLW  01
0AE80:  MOVLB  3
0AE82:  SUBWF  x9A,W
0AE84:  MOVLB  7
0AE86:  MOVWF  x01
0AE88:  MOVWF  x09
0AE8A:  MOVLW  07
0AE8C:  MOVWF  x0A
0AE8E:  MOVLB  0
0AE90:  CALL   4F0E
0AE94:  MOVFF  00,700
0AE98:  MOVLW  01
0AE9A:  MOVLB  3
0AE9C:  SUBWF  x9A,W
0AE9E:  MOVWF  00
0AEA0:  RRCF   00,W
0AEA2:  MOVLB  7
0AEA4:  MOVWF  x01
0AEA6:  RRCF   x01,F
0AEA8:  MOVLW  3F
0AEAA:  ANDWF  x01,F
0AEAC:  MOVLW  01
0AEAE:  MOVLB  3
0AEB0:  SUBWF  x9A,W
0AEB2:  MOVLB  7
0AEB4:  MOVWF  x03
0AEB6:  MOVWF  x09
0AEB8:  MOVLW  64
0AEBA:  MOVWF  x0A
0AEBC:  MOVLB  0
0AEBE:  CALL   4F0E
0AEC2:  MOVLW  01
0AEC4:  ADDWF  01,W
0AEC6:  MULLW  03
0AEC8:  MOVFF  FF3,00
0AECC:  RRCF   00,F
0AECE:  RRCF   00,F
0AED0:  MOVLW  3F
0AED2:  ANDWF  00,F
0AED4:  MOVF   00,W
0AED6:  MOVLB  7
0AED8:  SUBWF  x01,W
0AEDA:  MOVWF  x02
0AEDC:  MOVWF  x09
0AEDE:  MOVLW  07
0AEE0:  MOVWF  x0A
0AEE2:  MOVLB  0
0AEE4:  CALL   4F0E
0AEE8:  MOVF   00,W
0AEEA:  MOVLB  7
0AEEC:  ADDWF  x00,W
0AEEE:  MOVLB  2
0AEF0:  ADDWF  xD3,W
0AEF2:  MOVLB  7
0AEF4:  MOVWF  x00
0AEF6:  MOVFF  39C,709
0AEFA:  MOVLW  07
0AEFC:  MOVWF  x0A
0AEFE:  MOVLB  0
0AF00:  CALL   4F0E
0AF04:  MOVF   00,W
0AF06:  MOVLB  7
0AF08:  ADDWF  x00,W
0AF0A:  MOVWF  x01
0AF0C:  MOVWF  x09
0AF0E:  MOVLW  07
0AF10:  MOVWF  x0A
0AF12:  MOVLB  0
0AF14:  CALL   4F0E
0AF18:  MOVFF  00,39F
....................             rtc_set_datetime(DiaTx,MesTx,YearTx,dowTx,HoraTx,MinutoTx); 
0AF1C:  MOVFF  39C,6FA
0AF20:  MOVFF  39B,6FB
0AF24:  MOVFF  39A,6FC
0AF28:  MOVFF  39F,6FD
0AF2C:  MOVFF  39D,6FE
0AF30:  MOVFF  39E,6FF
0AF34:  GOTO   53F0
0AF38:  MOVLB  3
....................          } 
....................           
....................          if((RX_Buffer[4]==0x2a)|| UP){//Tecla Arriba Oprimida 
0AF3A:  MOVF   34,W
0AF3C:  SUBLW  2A
0AF3E:  BZ    AF46
0AF40:  BSF    F93.0
0AF42:  BTFSC  F81.0
0AF44:  BRA    B044
....................             delay_ms(200); 
0AF46:  MOVLW  C8
0AF48:  MOVLB  7
0AF4A:  MOVWF  x10
0AF4C:  MOVLB  0
0AF4E:  CALL   1992
....................             if((RX_Buffer[4]==0x2a)|| UP){    
0AF52:  MOVF   34,W
0AF54:  SUBLW  2A
0AF56:  BZ    AF5E
0AF58:  BSF    F93.0
0AF5A:  BTFSC  F81.0
0AF5C:  BRA    B046
....................                if(Opcion==1){ 
0AF5E:  MOVLB  3
0AF60:  DECFSZ x57,W
0AF62:  BRA    AFF0
....................                   if(MesTx==2){ 
0AF64:  MOVF   x9B,W
0AF66:  SUBLW  02
0AF68:  BNZ   AF9E
....................                      if(esBisiesto(YearTx)){ 
0AF6A:  MOVFF  39A,6FA
0AF6E:  MOVLB  0
0AF70:  CALL   536C
0AF74:  MOVF   01,F
0AF76:  BZ    AF8C
....................                         if(DiaTx<29) 
0AF78:  MOVLB  3
0AF7A:  MOVF   x9C,W
0AF7C:  SUBLW  1C
0AF7E:  BNC   AF84
....................                            DiaTx++; 
0AF80:  INCF   x9C,F
....................                         else 
0AF82:  BRA    AF88
....................                            DiaTx=1;    
0AF84:  MOVLW  01
0AF86:  MOVWF  x9C
....................                      }else{ 
0AF88:  BRA    AF9C
0AF8A:  MOVLB  0
....................                         if(DiaTx<28) 
0AF8C:  MOVLB  3
0AF8E:  MOVF   x9C,W
0AF90:  SUBLW  1B
0AF92:  BNC   AF98
....................                            DiaTx++; 
0AF94:  INCF   x9C,F
....................                         else 
0AF96:  BRA    AF9C
....................                            DiaTx=1;    
0AF98:  MOVLW  01
0AF9A:  MOVWF  x9C
....................                      } 
....................                   }else{ 
0AF9C:  BRA    AFEE
....................                      if(MesTx<=7){ 
0AF9E:  MOVF   x9B,W
0AFA0:  SUBLW  07
0AFA2:  BNC   AFCA
....................                         if(MesTx % 2 ==0){ 
0AFA4:  MOVF   x9B,W
0AFA6:  ANDLW  01
0AFA8:  BNZ   AFBA
....................                            if(DiaTx<30) 
0AFAA:  MOVF   x9C,W
0AFAC:  SUBLW  1D
0AFAE:  BNC   AFB4
....................                               DiaTx++;     
0AFB0:  INCF   x9C,F
....................                            else 
0AFB2:  BRA    AFB8
....................                               DiaTx=1;    
0AFB4:  MOVLW  01
0AFB6:  MOVWF  x9C
....................                         }else{ 
0AFB8:  BRA    AFC8
....................                            if(DiaTx<31) 
0AFBA:  MOVF   x9C,W
0AFBC:  SUBLW  1E
0AFBE:  BNC   AFC4
....................                               DiaTx++;     
0AFC0:  INCF   x9C,F
....................                            else 
0AFC2:  BRA    AFC8
....................                               DiaTx=1;    
0AFC4:  MOVLW  01
0AFC6:  MOVWF  x9C
....................                         }     
....................                      }else{ 
0AFC8:  BRA    AFEE
....................                         if(MesTx % 2 ==0){ 
0AFCA:  MOVF   x9B,W
0AFCC:  ANDLW  01
0AFCE:  BNZ   AFE0
....................                            if(DiaTx<31) 
0AFD0:  MOVF   x9C,W
0AFD2:  SUBLW  1E
0AFD4:  BNC   AFDA
....................                               DiaTx++;   
0AFD6:  INCF   x9C,F
....................                            else 
0AFD8:  BRA    AFDE
....................                               DiaTx=1; 
0AFDA:  MOVLW  01
0AFDC:  MOVWF  x9C
....................                         }else{ 
0AFDE:  BRA    AFEE
....................                            if(DiaTx<30) 
0AFE0:  MOVF   x9C,W
0AFE2:  SUBLW  1D
0AFE4:  BNC   AFEA
....................                               DiaTx++;     
0AFE6:  INCF   x9C,F
....................                            else 
0AFE8:  BRA    AFEE
....................                               DiaTx=1; 
0AFEA:  MOVLW  01
0AFEC:  MOVWF  x9C
....................                         }     
....................                      } 
....................                   } 
....................                }else if(Opcion==2){ 
0AFEE:  BRA    B040
0AFF0:  MOVF   x57,W
0AFF2:  SUBLW  02
0AFF4:  BNZ   B006
....................                   if(MesTx<12) 
0AFF6:  MOVF   x9B,W
0AFF8:  SUBLW  0B
0AFFA:  BNC   B000
....................                      MesTx++; 
0AFFC:  INCF   x9B,F
....................                   else 
0AFFE:  BRA    B004
....................                      MesTx=1; 
0B000:  MOVLW  01
0B002:  MOVWF  x9B
....................                }else if(Opcion==3){ 
0B004:  BRA    B040
0B006:  MOVF   x57,W
0B008:  SUBLW  03
0B00A:  BNZ   B01A
....................                   if(YearTx<99) 
0B00C:  MOVF   x9A,W
0B00E:  SUBLW  62
0B010:  BNC   B016
....................                      YearTx++; 
0B012:  INCF   x9A,F
....................                   else  
0B014:  BRA    B018
....................                      YearTx=0; 
0B016:  CLRF   x9A
....................                }else if(Opcion==4){ 
0B018:  BRA    B040
0B01A:  MOVF   x57,W
0B01C:  SUBLW  04
0B01E:  BNZ   B02E
....................                   if(HoraTx<24) 
0B020:  MOVF   x9D,W
0B022:  SUBLW  17
0B024:  BNC   B02A
....................                      HoraTx++; 
0B026:  INCF   x9D,F
....................                   else 
0B028:  BRA    B02C
....................                      HoraTx=0; 
0B02A:  CLRF   x9D
....................                }else if(Opcion==5){ 
0B02C:  BRA    B040
0B02E:  MOVF   x57,W
0B030:  SUBLW  05
0B032:  BNZ   B040
....................                   if(MinutoTx<59) 
0B034:  MOVF   x9E,W
0B036:  SUBLW  3A
0B038:  BNC   B03E
....................                      MinutoTx++; 
0B03A:  INCF   x9E,F
....................                   else 
0B03C:  BRA    B040
....................                      MinutoTx=0; 
0B03E:  CLRF   x9E
....................                } 
....................                RX_Buffer[4]=0x00; 
0B040:  CLRF   34
....................                RX_Buffer2[4]=0x00; 
0B042:  CLRF   3F
0B044:  MOVLB  0
....................             } 
....................          } 
....................           
....................          if(RX_Buffer[4]==0x2b || DOWN){//Tecla Abajo Oprimida 
0B046:  MOVF   34,W
0B048:  SUBLW  2B
0B04A:  BZ    B052
0B04C:  BSF    F93.1
0B04E:  BTFSC  F81.1
0B050:  BRA    B0CE
....................             delay_ms(200); 
0B052:  MOVLW  C8
0B054:  MOVLB  7
0B056:  MOVWF  x10
0B058:  MOVLB  0
0B05A:  CALL   1992
....................             if(RX_Buffer[4]==0x2b || DOWN){    
0B05E:  MOVF   34,W
0B060:  SUBLW  2B
0B062:  BZ    B06A
0B064:  BSF    F93.1
0B066:  BTFSC  F81.1
0B068:  BRA    B0CE
....................                if(Opcion==1){ 
0B06A:  MOVLB  3
0B06C:  DECFSZ x57,W
0B06E:  BRA    B078
....................                   if(DiaTx>0) 
0B070:  MOVF   x9C,F
0B072:  BZ    B076
....................                      DiaTx--; 
0B074:  DECF   x9C,F
....................                }else if(Opcion==2){ 
0B076:  BRA    B0C8
0B078:  MOVF   x57,W
0B07A:  SUBLW  02
0B07C:  BNZ   B08E
....................                   if(MesTx>1) 
0B07E:  MOVF   x9B,W
0B080:  SUBLW  01
0B082:  BC    B088
....................                      MesTx--; 
0B084:  DECF   x9B,F
....................                   else 
0B086:  BRA    B08C
....................                      MesTx=12; 
0B088:  MOVLW  0C
0B08A:  MOVWF  x9B
....................                }else if(Opcion==3){ 
0B08C:  BRA    B0C8
0B08E:  MOVF   x57,W
0B090:  SUBLW  03
0B092:  BNZ   B0A2
....................                   if(YearTx>0) 
0B094:  MOVF   x9A,F
0B096:  BZ    B09C
....................                      YearTx--; 
0B098:  DECF   x9A,F
....................                   else 
0B09A:  BRA    B0A0
....................                      YearTx=99; 
0B09C:  MOVLW  63
0B09E:  MOVWF  x9A
....................                }else if(Opcion==4){ 
0B0A0:  BRA    B0C8
0B0A2:  MOVF   x57,W
0B0A4:  SUBLW  04
0B0A6:  BNZ   B0B6
....................                   if(HoraTx>0) 
0B0A8:  MOVF   x9D,F
0B0AA:  BZ    B0B0
....................                      HoraTx--; 
0B0AC:  DECF   x9D,F
....................                   else 
0B0AE:  BRA    B0B4
....................                      HoraTx=23; 
0B0B0:  MOVLW  17
0B0B2:  MOVWF  x9D
....................                }else if(Opcion==5){ 
0B0B4:  BRA    B0C8
0B0B6:  MOVF   x57,W
0B0B8:  SUBLW  05
0B0BA:  BNZ   B0C8
....................                   if(MinutoTx>0) 
0B0BC:  MOVF   x9E,F
0B0BE:  BZ    B0C4
....................                      MinutoTx--; 
0B0C0:  DECF   x9E,F
....................                   else 
0B0C2:  BRA    B0C8
....................                      MinutoTx=59; 
0B0C4:  MOVLW  3B
0B0C6:  MOVWF  x9E
....................                } 
....................                RX_Buffer[4]=0x00; 
0B0C8:  CLRF   34
....................                RX_Buffer2[4]=0x00; 
0B0CA:  CLRF   3F
0B0CC:  MOVLB  0
....................             } 
....................          } 
....................        
....................       printf("thora.txt=\"%02u\"",HoraTx); 
0B0CE:  MOVLW  C2
0B0D0:  MOVWF  FF6
0B0D2:  MOVLW  0D
0B0D4:  MOVWF  FF7
0B0D6:  MOVLW  00
0B0D8:  MOVWF  FF8
0B0DA:  MOVLW  0B
0B0DC:  MOVLB  7
0B0DE:  MOVWF  x05
0B0E0:  MOVLB  0
0B0E2:  CALL   4EDC
0B0E6:  MOVFF  39D,705
0B0EA:  MOVLW  01
0B0EC:  MOVLB  7
0B0EE:  MOVWF  x06
0B0F0:  MOVLB  0
0B0F2:  CALL   4F3A
0B0F6:  MOVLW  22
0B0F8:  BTFSS  F9E.4
0B0FA:  BRA    B0F8
0B0FC:  MOVWF  FAD
....................       SendDataDisplay(); 
0B0FE:  CALL   38F8
....................       printf("tminutos.txt=\"%02u\"",MinutoTx); 
0B102:  MOVLW  D4
0B104:  MOVWF  FF6
0B106:  MOVLW  0D
0B108:  MOVWF  FF7
0B10A:  MOVLW  00
0B10C:  MOVWF  FF8
0B10E:  MOVLW  0E
0B110:  MOVLB  7
0B112:  MOVWF  x05
0B114:  MOVLB  0
0B116:  CALL   4EDC
0B11A:  MOVFF  39E,705
0B11E:  MOVLW  01
0B120:  MOVLB  7
0B122:  MOVWF  x06
0B124:  MOVLB  0
0B126:  CALL   4F3A
0B12A:  MOVLW  22
0B12C:  BTFSS  F9E.4
0B12E:  BRA    B12C
0B130:  MOVWF  FAD
....................       SendDataDisplay(); 
0B132:  CALL   38F8
....................       printf("tdia.txt=\"%02u\"",DiaTx); 
0B136:  MOVLW  E8
0B138:  MOVWF  FF6
0B13A:  MOVLW  0D
0B13C:  MOVWF  FF7
0B13E:  MOVLW  00
0B140:  MOVWF  FF8
0B142:  MOVLW  0A
0B144:  MOVLB  7
0B146:  MOVWF  x05
0B148:  MOVLB  0
0B14A:  CALL   4EDC
0B14E:  MOVFF  39C,705
0B152:  MOVLW  01
0B154:  MOVLB  7
0B156:  MOVWF  x06
0B158:  MOVLB  0
0B15A:  CALL   4F3A
0B15E:  MOVLW  22
0B160:  BTFSS  F9E.4
0B162:  BRA    B160
0B164:  MOVWF  FAD
....................       SendDataDisplay(); 
0B166:  CALL   38F8
....................       printf("tmes.txt=\"%02u\"",MesTx); 
0B16A:  MOVLW  F8
0B16C:  MOVWF  FF6
0B16E:  MOVLW  0D
0B170:  MOVWF  FF7
0B172:  MOVLW  00
0B174:  MOVWF  FF8
0B176:  MOVLW  0A
0B178:  MOVLB  7
0B17A:  MOVWF  x05
0B17C:  MOVLB  0
0B17E:  CALL   4EDC
0B182:  MOVFF  39B,705
0B186:  MOVLW  01
0B188:  MOVLB  7
0B18A:  MOVWF  x06
0B18C:  MOVLB  0
0B18E:  CALL   4F3A
0B192:  MOVLW  22
0B194:  BTFSS  F9E.4
0B196:  BRA    B194
0B198:  MOVWF  FAD
....................       SendDataDisplay(); 
0B19A:  CALL   38F8
....................       printf("tyear.txt=\"%02u\"",YearTx); 
0B19E:  MOVLW  08
0B1A0:  MOVWF  FF6
0B1A2:  MOVLW  0E
0B1A4:  MOVWF  FF7
0B1A6:  MOVLW  00
0B1A8:  MOVWF  FF8
0B1AA:  MOVLW  0B
0B1AC:  MOVLB  7
0B1AE:  MOVWF  x05
0B1B0:  MOVLB  0
0B1B2:  CALL   4EDC
0B1B6:  MOVFF  39A,705
0B1BA:  MOVLW  01
0B1BC:  MOVLB  7
0B1BE:  MOVWF  x06
0B1C0:  MOVLB  0
0B1C2:  CALL   4F3A
0B1C6:  MOVLW  22
0B1C8:  BTFSS  F9E.4
0B1CA:  BRA    B1C8
0B1CC:  MOVWF  FAD
....................       SendDataDisplay(); 
0B1CE:  CALL   38F8
....................       LimitaDia();   
0B1D2:  GOTO   54AC
0B1D6:  MOVLB  3
....................     } 
.................... //_--------------------------------------------------------------------------------------------------------------------------------------------------------        
....................  
.................... //_-------------------------------------------------------------------------------------------------------------------------------------------------------- 
....................    if(Menu==8){ //Menu Ciclos Personalizados 
0B1D8:  MOVF   x4F,W
0B1DA:  SUBLW  08
0B1DC:  BTFSS  FD8.2
0B1DE:  GOTO   BC98
....................       printf("fecha.txt=\"T:%3.1fC Fecha:%02u/%02u/20%02u Hora: %02u:%02u:%02u\"",Temperatura,Dia,Mes,Year,Hora,Minuto,Segundo); 
0B1E2:  MOVLW  1A
0B1E4:  MOVWF  FF6
0B1E6:  MOVLW  0E
0B1E8:  MOVWF  FF7
0B1EA:  MOVLW  00
0B1EC:  MOVWF  FF8
0B1EE:  MOVLW  0D
0B1F0:  MOVLB  7
0B1F2:  MOVWF  x05
0B1F4:  MOVLB  0
0B1F6:  CALL   4EDC
0B1FA:  MOVLW  02
0B1FC:  MOVWF  FE9
0B1FE:  MOVFF  319,708
0B202:  MOVFF  318,707
0B206:  MOVFF  317,706
0B20A:  MOVFF  316,705
0B20E:  MOVLW  01
0B210:  MOVLB  7
0B212:  MOVWF  x09
0B214:  MOVLB  0
0B216:  CALL   507C
0B21A:  MOVLW  2C
0B21C:  MOVWF  FF6
0B21E:  MOVLW  0E
0B220:  MOVWF  FF7
0B222:  MOVLW  00
0B224:  MOVWF  FF8
0B226:  MOVLW  09
0B228:  MOVLB  7
0B22A:  MOVWF  x05
0B22C:  MOVLB  0
0B22E:  CALL   4EDC
0B232:  MOVFF  38D,705
0B236:  MOVLW  01
0B238:  MOVLB  7
0B23A:  MOVWF  x06
0B23C:  MOVLB  0
0B23E:  CALL   4F3A
0B242:  MOVLW  2F
0B244:  BTFSS  F9E.4
0B246:  BRA    B244
0B248:  MOVWF  FAD
0B24A:  MOVFF  38C,705
0B24E:  MOVLW  01
0B250:  MOVLB  7
0B252:  MOVWF  x06
0B254:  MOVLB  0
0B256:  CALL   4F3A
0B25A:  MOVLW  2F
0B25C:  BTFSS  F9E.4
0B25E:  BRA    B25C
0B260:  MOVWF  FAD
0B262:  MOVLW  32
0B264:  BTFSS  F9E.4
0B266:  BRA    B264
0B268:  MOVWF  FAD
0B26A:  MOVLW  30
0B26C:  BTFSS  F9E.4
0B26E:  BRA    B26C
0B270:  MOVWF  FAD
0B272:  MOVFF  38B,705
0B276:  MOVLW  01
0B278:  MOVLB  7
0B27A:  MOVWF  x06
0B27C:  MOVLB  0
0B27E:  CALL   4F3A
0B282:  MOVLW  45
0B284:  MOVWF  FF6
0B286:  MOVLW  0E
0B288:  MOVWF  FF7
0B28A:  MOVLW  00
0B28C:  MOVWF  FF8
0B28E:  MOVLW  07
0B290:  MOVLB  7
0B292:  MOVWF  x05
0B294:  MOVLB  0
0B296:  CALL   4EDC
0B29A:  MOVFF  38E,705
0B29E:  MOVLW  01
0B2A0:  MOVLB  7
0B2A2:  MOVWF  x06
0B2A4:  MOVLB  0
0B2A6:  CALL   4F3A
0B2AA:  MOVLW  3A
0B2AC:  BTFSS  F9E.4
0B2AE:  BRA    B2AC
0B2B0:  MOVWF  FAD
0B2B2:  MOVFF  38F,705
0B2B6:  MOVLW  01
0B2B8:  MOVLB  7
0B2BA:  MOVWF  x06
0B2BC:  MOVLB  0
0B2BE:  CALL   4F3A
0B2C2:  MOVLW  3A
0B2C4:  BTFSS  F9E.4
0B2C6:  BRA    B2C4
0B2C8:  MOVWF  FAD
0B2CA:  MOVFF  390,705
0B2CE:  MOVLW  01
0B2D0:  MOVLB  7
0B2D2:  MOVWF  x06
0B2D4:  MOVLB  0
0B2D6:  CALL   4F3A
0B2DA:  MOVLW  22
0B2DC:  BTFSS  F9E.4
0B2DE:  BRA    B2DC
0B2E0:  MOVWF  FAD
....................       SendDataDisplay(); 
0B2E2:  CALL   38F8
....................       GuardaEEPROM=OFF; 
0B2E6:  BCF    xA2.1
....................        
....................       if(RX_Buffer[4]>0x00 && RX_Buffer[4]<0x04){//Personalizados 
0B2E8:  MOVF   34,F
0B2EA:  BTFSC  FD8.2
0B2EC:  BRA    B518
0B2EE:  MOVF   34,W
0B2F0:  SUBLW  03
0B2F2:  BTFSS  FD8.0
0B2F4:  BRA    B518
....................          printf("ciclo.txt=\"CICLO P%02u\"",RX_Buffer[4]+0x04); 
0B2F6:  MOVLW  04
0B2F8:  ADDWF  34,W
0B2FA:  MOVLB  7
0B2FC:  MOVWF  x00
0B2FE:  MOVLW  5C
0B300:  MOVWF  FF6
0B302:  MOVLW  0E
0B304:  MOVWF  FF7
0B306:  MOVLW  00
0B308:  MOVWF  FF8
0B30A:  MOVLW  12
0B30C:  MOVWF  x05
0B30E:  MOVLB  0
0B310:  CALL   4EDC
0B314:  MOVFF  700,705
0B318:  MOVLW  01
0B31A:  MOVLB  7
0B31C:  MOVWF  x06
0B31E:  MOVLB  0
0B320:  CALL   4F3A
0B324:  MOVLW  22
0B326:  BTFSS  F9E.4
0B328:  BRA    B326
0B32A:  MOVWF  FAD
....................          SendDataDisplay();           
0B32C:  CALL   38F8
....................          printf("temp.txt=\"%u\"",CiclosPersonalizados[RX_Buffer[4]-1].Temperatura); 
0B330:  MOVLW  01
0B332:  SUBWF  34,W
0B334:  MULLW  0A
0B336:  MOVF   FF3,W
0B338:  MOVLB  7
0B33A:  CLRF   x01
0B33C:  MOVWF  x00
0B33E:  MOVLW  D2
0B340:  ADDWF  x00,W
0B342:  MOVWF  FE9
0B344:  MOVLW  06
0B346:  ADDWFC x01,W
0B348:  MOVWF  FEA
0B34A:  MOVFF  FEF,700
0B34E:  MOVLW  74
0B350:  MOVWF  FF6
0B352:  MOVLW  0E
0B354:  MOVWF  FF7
0B356:  MOVLW  00
0B358:  MOVWF  FF8
0B35A:  MOVLW  0A
0B35C:  MOVWF  x05
0B35E:  MOVLB  0
0B360:  CALL   4EDC
0B364:  MOVFF  700,705
0B368:  MOVLW  1B
0B36A:  MOVLB  7
0B36C:  MOVWF  x06
0B36E:  MOVLB  0
0B370:  CALL   4F3A
0B374:  MOVLW  22
0B376:  BTFSS  F9E.4
0B378:  BRA    B376
0B37A:  MOVWF  FAD
....................          SendDataDisplay(); 
0B37C:  CALL   38F8
....................          printf("test.txt=\"%02u:%02u\"",CiclosPersonalizados[RX_Buffer[4]-1].Minutoest,CiclosPersonalizados[RX_Buffer[4]-1].Segundoest); 
0B380:  MOVLW  01
0B382:  SUBWF  34,W
0B384:  MULLW  0A
0B386:  MOVF   FF3,W
0B388:  MOVLB  7
0B38A:  CLRF   x01
0B38C:  MOVWF  x00
0B38E:  MOVLW  09
0B390:  ADDWF  x00,W
0B392:  MOVWF  01
0B394:  MOVLW  00
0B396:  ADDWFC x01,W
0B398:  MOVWF  03
0B39A:  MOVF   01,W
0B39C:  ADDLW  D2
0B39E:  MOVWF  FE9
0B3A0:  MOVLW  06
0B3A2:  ADDWFC 03,W
0B3A4:  MOVWF  FEA
0B3A6:  MOVFF  FEF,700
0B3AA:  MOVLW  01
0B3AC:  SUBWF  34,W
0B3AE:  MULLW  0A
0B3B0:  MOVF   FF3,W
0B3B2:  CLRF   x02
0B3B4:  MOVWF  x01
0B3B6:  MOVLW  03
0B3B8:  ADDWF  x01,W
0B3BA:  MOVWF  01
0B3BC:  MOVLW  00
0B3BE:  ADDWFC x02,W
0B3C0:  MOVWF  03
0B3C2:  MOVF   01,W
0B3C4:  ADDLW  D2
0B3C6:  MOVWF  FE9
0B3C8:  MOVLW  06
0B3CA:  ADDWFC 03,W
0B3CC:  MOVWF  FEA
0B3CE:  MOVFF  FEF,701
0B3D2:  MOVLW  82
0B3D4:  MOVWF  FF6
0B3D6:  MOVLW  0E
0B3D8:  MOVWF  FF7
0B3DA:  MOVLW  00
0B3DC:  MOVWF  FF8
0B3DE:  MOVLW  0A
0B3E0:  MOVWF  x05
0B3E2:  MOVLB  0
0B3E4:  CALL   4EDC
0B3E8:  MOVFF  700,705
0B3EC:  MOVLW  01
0B3EE:  MOVLB  7
0B3F0:  MOVWF  x06
0B3F2:  MOVLB  0
0B3F4:  CALL   4F3A
0B3F8:  MOVLW  3A
0B3FA:  BTFSS  F9E.4
0B3FC:  BRA    B3FA
0B3FE:  MOVWF  FAD
0B400:  MOVFF  701,705
0B404:  MOVLW  01
0B406:  MOVLB  7
0B408:  MOVWF  x06
0B40A:  MOVLB  0
0B40C:  CALL   4F3A
0B410:  MOVLW  22
0B412:  BTFSS  F9E.4
0B414:  BRA    B412
0B416:  MOVWF  FAD
....................          SendDataDisplay(); 
0B418:  CALL   38F8
....................          printf("tsec.txt=\"%02u:%02u\"",CiclosPersonalizados[RX_Buffer[4]-1].Minutosec,CiclosPersonalizados[RX_Buffer[4]-1].Segundosec); 
0B41C:  MOVLW  01
0B41E:  SUBWF  34,W
0B420:  MULLW  0A
0B422:  MOVF   FF3,W
0B424:  MOVLB  7
0B426:  CLRF   x01
0B428:  MOVWF  x00
0B42A:  MOVLW  04
0B42C:  ADDWF  x00,W
0B42E:  MOVWF  01
0B430:  MOVLW  00
0B432:  ADDWFC x01,W
0B434:  MOVWF  03
0B436:  MOVF   01,W
0B438:  ADDLW  D2
0B43A:  MOVWF  FE9
0B43C:  MOVLW  06
0B43E:  ADDWFC 03,W
0B440:  MOVWF  FEA
0B442:  MOVFF  FEF,700
0B446:  MOVLW  01
0B448:  SUBWF  34,W
0B44A:  MULLW  0A
0B44C:  MOVF   FF3,W
0B44E:  CLRF   x02
0B450:  MOVWF  x01
0B452:  MOVLW  05
0B454:  ADDWF  x01,W
0B456:  MOVWF  01
0B458:  MOVLW  00
0B45A:  ADDWFC x02,W
0B45C:  MOVWF  03
0B45E:  MOVF   01,W
0B460:  ADDLW  D2
0B462:  MOVWF  FE9
0B464:  MOVLW  06
0B466:  ADDWFC 03,W
0B468:  MOVWF  FEA
0B46A:  MOVFF  FEF,701
0B46E:  MOVLW  98
0B470:  MOVWF  FF6
0B472:  MOVLW  0E
0B474:  MOVWF  FF7
0B476:  MOVLW  00
0B478:  MOVWF  FF8
0B47A:  MOVLW  0A
0B47C:  MOVWF  x05
0B47E:  MOVLB  0
0B480:  CALL   4EDC
0B484:  MOVFF  700,705
0B488:  MOVLW  01
0B48A:  MOVLB  7
0B48C:  MOVWF  x06
0B48E:  MOVLB  0
0B490:  CALL   4F3A
0B494:  MOVLW  3A
0B496:  BTFSS  F9E.4
0B498:  BRA    B496
0B49A:  MOVWF  FAD
0B49C:  MOVFF  701,705
0B4A0:  MOVLW  01
0B4A2:  MOVLB  7
0B4A4:  MOVWF  x06
0B4A6:  MOVLB  0
0B4A8:  CALL   4F3A
0B4AC:  MOVLW  22
0B4AE:  BTFSS  F9E.4
0B4B0:  BRA    B4AE
0B4B2:  MOVWF  FAD
....................          SendDataDisplay(); 
0B4B4:  CALL   38F8
....................          if(CiclosPersonalizados[RX_Buffer[4]-1].NivelDesfogue==1){ 
0B4B8:  MOVLW  01
0B4BA:  SUBWF  34,W
0B4BC:  MULLW  0A
0B4BE:  MOVF   FF3,W
0B4C0:  MOVLB  7
0B4C2:  CLRF   x01
0B4C4:  MOVWF  x00
0B4C6:  MOVLW  08
0B4C8:  ADDWF  x00,W
0B4CA:  MOVWF  01
0B4CC:  MOVLW  00
0B4CE:  ADDWFC x01,W
0B4D0:  MOVWF  03
0B4D2:  MOVF   01,W
0B4D4:  ADDLW  D2
0B4D6:  MOVWF  FE9
0B4D8:  MOVLW  06
0B4DA:  ADDWFC 03,W
0B4DC:  MOVWF  FEA
0B4DE:  DECFSZ FEF,W
0B4E0:  BRA    B4FC
....................             printf("desfogue.txt=\"Lento\""); 
0B4E2:  MOVLW  AE
0B4E4:  MOVWF  FF6
0B4E6:  MOVLW  0E
0B4E8:  MOVWF  FF7
0B4EA:  MOVLW  00
0B4EC:  MOVWF  FF8
0B4EE:  MOVLB  0
0B4F0:  CALL   38C6
....................             SendDataDisplay(); 
0B4F4:  CALL   38F8
....................          }else{ 
0B4F8:  BRA    B512
0B4FA:  MOVLB  7
....................             printf("desfogue.txt=\"Rapido\""); 
0B4FC:  MOVLW  C4
0B4FE:  MOVWF  FF6
0B500:  MOVLW  0E
0B502:  MOVWF  FF7
0B504:  MOVLW  00
0B506:  MOVWF  FF8
0B508:  MOVLB  0
0B50A:  CALL   38C6
....................             SendDataDisplay(); 
0B50E:  CALL   38F8
....................          } 
....................          CicloLibre=RX_Buffer[4]; 
0B512:  MOVFF  34,330
....................       }else if(CicloLibre==0x00){ 
0B516:  BRA    B7C2
0B518:  MOVLB  3
0B51A:  MOVF   x30,F
0B51C:  BNZ   B588
....................          printf("ciclo.txt=\"CICLO P--\""); 
0B51E:  MOVLW  DA
0B520:  MOVWF  FF6
0B522:  MOVLW  0E
0B524:  MOVWF  FF7
0B526:  MOVLW  00
0B528:  MOVWF  FF8
0B52A:  MOVLB  0
0B52C:  CALL   38C6
....................          SendDataDisplay();           
0B530:  CALL   38F8
....................          printf("temp.txt=\"--\""); 
0B534:  MOVLW  F0
0B536:  MOVWF  FF6
0B538:  MOVLW  0E
0B53A:  MOVWF  FF7
0B53C:  MOVLW  00
0B53E:  MOVWF  FF8
0B540:  CALL   38C6
....................          SendDataDisplay(); 
0B544:  CALL   38F8
....................          printf("test.txt=\"--:--\""); 
0B548:  MOVLW  FE
0B54A:  MOVWF  FF6
0B54C:  MOVLW  0E
0B54E:  MOVWF  FF7
0B550:  MOVLW  00
0B552:  MOVWF  FF8
0B554:  CALL   38C6
....................          SendDataDisplay(); 
0B558:  CALL   38F8
....................          printf("tsec.txt=\"--:--\""); 
0B55C:  MOVLW  10
0B55E:  MOVWF  FF6
0B560:  MOVLW  0F
0B562:  MOVWF  FF7
0B564:  MOVLW  00
0B566:  MOVWF  FF8
0B568:  CALL   38C6
....................          SendDataDisplay(); 
0B56C:  CALL   38F8
....................          printf("desfogue.txt=\"--\""); 
0B570:  MOVLW  22
0B572:  MOVWF  FF6
0B574:  MOVLW  0F
0B576:  MOVWF  FF7
0B578:  MOVLW  00
0B57A:  MOVWF  FF8
0B57C:  CALL   38C6
....................          SendDataDisplay(); 
0B580:  CALL   38F8
....................       }else if(CicloLibre>0 && CicloLibre<4){ 
0B584:  BRA    B7C2
0B586:  MOVLB  3
0B588:  MOVF   x30,F
0B58A:  BTFSC  FD8.2
0B58C:  BRA    B7C4
0B58E:  MOVF   x30,W
0B590:  SUBLW  03
0B592:  BTFSS  FD8.0
0B594:  BRA    B7C4
....................          printf("ciclo.txt=\"CICLO P%02u\"",CicloLibre+0x04); 
0B596:  MOVLW  04
0B598:  ADDWF  x30,W
0B59A:  MOVLB  7
0B59C:  MOVWF  x00
0B59E:  MOVLW  34
0B5A0:  MOVWF  FF6
0B5A2:  MOVLW  0F
0B5A4:  MOVWF  FF7
0B5A6:  MOVLW  00
0B5A8:  MOVWF  FF8
0B5AA:  MOVLW  12
0B5AC:  MOVWF  x05
0B5AE:  MOVLB  0
0B5B0:  CALL   4EDC
0B5B4:  MOVFF  700,705
0B5B8:  MOVLW  01
0B5BA:  MOVLB  7
0B5BC:  MOVWF  x06
0B5BE:  MOVLB  0
0B5C0:  CALL   4F3A
0B5C4:  MOVLW  22
0B5C6:  BTFSS  F9E.4
0B5C8:  BRA    B5C6
0B5CA:  MOVWF  FAD
....................          SendDataDisplay();           
0B5CC:  CALL   38F8
....................          printf("temp.txt=\"%u\"",CiclosPersonalizados[CicloLibre-1].Temperatura); 
0B5D0:  MOVLW  01
0B5D2:  MOVLB  3
0B5D4:  SUBWF  x30,W
0B5D6:  MULLW  0A
0B5D8:  MOVF   FF3,W
0B5DA:  MOVLB  7
0B5DC:  CLRF   x01
0B5DE:  MOVWF  x00
0B5E0:  MOVLW  D2
0B5E2:  ADDWF  x00,W
0B5E4:  MOVWF  FE9
0B5E6:  MOVLW  06
0B5E8:  ADDWFC x01,W
0B5EA:  MOVWF  FEA
0B5EC:  MOVFF  FEF,700
0B5F0:  MOVLW  4C
0B5F2:  MOVWF  FF6
0B5F4:  MOVLW  0F
0B5F6:  MOVWF  FF7
0B5F8:  MOVLW  00
0B5FA:  MOVWF  FF8
0B5FC:  MOVLW  0A
0B5FE:  MOVWF  x05
0B600:  MOVLB  0
0B602:  CALL   4EDC
0B606:  MOVFF  700,705
0B60A:  MOVLW  1B
0B60C:  MOVLB  7
0B60E:  MOVWF  x06
0B610:  MOVLB  0
0B612:  CALL   4F3A
0B616:  MOVLW  22
0B618:  BTFSS  F9E.4
0B61A:  BRA    B618
0B61C:  MOVWF  FAD
....................          SendDataDisplay(); 
0B61E:  CALL   38F8
....................          printf("test.txt=\"%02u:%02u\"",CiclosPersonalizados[CicloLibre-1].Minutoest,CiclosPersonalizados[CicloLibre-1].Segundoest); 
0B622:  MOVLW  01
0B624:  MOVLB  3
0B626:  SUBWF  x30,W
0B628:  MULLW  0A
0B62A:  MOVF   FF3,W
0B62C:  MOVLB  7
0B62E:  CLRF   x01
0B630:  MOVWF  x00
0B632:  MOVLW  09
0B634:  ADDWF  x00,W
0B636:  MOVWF  01
0B638:  MOVLW  00
0B63A:  ADDWFC x01,W
0B63C:  MOVWF  03
0B63E:  MOVF   01,W
0B640:  ADDLW  D2
0B642:  MOVWF  FE9
0B644:  MOVLW  06
0B646:  ADDWFC 03,W
0B648:  MOVWF  FEA
0B64A:  MOVFF  FEF,700
0B64E:  MOVLW  01
0B650:  MOVLB  3
0B652:  SUBWF  x30,W
0B654:  MULLW  0A
0B656:  MOVF   FF3,W
0B658:  MOVLB  7
0B65A:  CLRF   x02
0B65C:  MOVWF  x01
0B65E:  MOVLW  03
0B660:  ADDWF  x01,W
0B662:  MOVWF  01
0B664:  MOVLW  00
0B666:  ADDWFC x02,W
0B668:  MOVWF  03
0B66A:  MOVF   01,W
0B66C:  ADDLW  D2
0B66E:  MOVWF  FE9
0B670:  MOVLW  06
0B672:  ADDWFC 03,W
0B674:  MOVWF  FEA
0B676:  MOVFF  FEF,701
0B67A:  MOVLW  5A
0B67C:  MOVWF  FF6
0B67E:  MOVLW  0F
0B680:  MOVWF  FF7
0B682:  MOVLW  00
0B684:  MOVWF  FF8
0B686:  MOVLW  0A
0B688:  MOVWF  x05
0B68A:  MOVLB  0
0B68C:  CALL   4EDC
0B690:  MOVFF  700,705
0B694:  MOVLW  01
0B696:  MOVLB  7
0B698:  MOVWF  x06
0B69A:  MOVLB  0
0B69C:  CALL   4F3A
0B6A0:  MOVLW  3A
0B6A2:  BTFSS  F9E.4
0B6A4:  BRA    B6A2
0B6A6:  MOVWF  FAD
0B6A8:  MOVFF  701,705
0B6AC:  MOVLW  01
0B6AE:  MOVLB  7
0B6B0:  MOVWF  x06
0B6B2:  MOVLB  0
0B6B4:  CALL   4F3A
0B6B8:  MOVLW  22
0B6BA:  BTFSS  F9E.4
0B6BC:  BRA    B6BA
0B6BE:  MOVWF  FAD
....................          SendDataDisplay(); 
0B6C0:  CALL   38F8
....................          printf("tsec.txt=\"%02u:%02u\"",CiclosPersonalizados[CicloLibre-1].Minutosec,CiclosPersonalizados[CicloLibre-1].Segundosec); 
0B6C4:  MOVLW  01
0B6C6:  MOVLB  3
0B6C8:  SUBWF  x30,W
0B6CA:  MULLW  0A
0B6CC:  MOVF   FF3,W
0B6CE:  MOVLB  7
0B6D0:  CLRF   x01
0B6D2:  MOVWF  x00
0B6D4:  MOVLW  04
0B6D6:  ADDWF  x00,W
0B6D8:  MOVWF  01
0B6DA:  MOVLW  00
0B6DC:  ADDWFC x01,W
0B6DE:  MOVWF  03
0B6E0:  MOVF   01,W
0B6E2:  ADDLW  D2
0B6E4:  MOVWF  FE9
0B6E6:  MOVLW  06
0B6E8:  ADDWFC 03,W
0B6EA:  MOVWF  FEA
0B6EC:  MOVFF  FEF,700
0B6F0:  MOVLW  01
0B6F2:  MOVLB  3
0B6F4:  SUBWF  x30,W
0B6F6:  MULLW  0A
0B6F8:  MOVF   FF3,W
0B6FA:  MOVLB  7
0B6FC:  CLRF   x02
0B6FE:  MOVWF  x01
0B700:  MOVLW  05
0B702:  ADDWF  x01,W
0B704:  MOVWF  01
0B706:  MOVLW  00
0B708:  ADDWFC x02,W
0B70A:  MOVWF  03
0B70C:  MOVF   01,W
0B70E:  ADDLW  D2
0B710:  MOVWF  FE9
0B712:  MOVLW  06
0B714:  ADDWFC 03,W
0B716:  MOVWF  FEA
0B718:  MOVFF  FEF,701
0B71C:  MOVLW  70
0B71E:  MOVWF  FF6
0B720:  MOVLW  0F
0B722:  MOVWF  FF7
0B724:  MOVLW  00
0B726:  MOVWF  FF8
0B728:  MOVLW  0A
0B72A:  MOVWF  x05
0B72C:  MOVLB  0
0B72E:  CALL   4EDC
0B732:  MOVFF  700,705
0B736:  MOVLW  01
0B738:  MOVLB  7
0B73A:  MOVWF  x06
0B73C:  MOVLB  0
0B73E:  CALL   4F3A
0B742:  MOVLW  3A
0B744:  BTFSS  F9E.4
0B746:  BRA    B744
0B748:  MOVWF  FAD
0B74A:  MOVFF  701,705
0B74E:  MOVLW  01
0B750:  MOVLB  7
0B752:  MOVWF  x06
0B754:  MOVLB  0
0B756:  CALL   4F3A
0B75A:  MOVLW  22
0B75C:  BTFSS  F9E.4
0B75E:  BRA    B75C
0B760:  MOVWF  FAD
....................          SendDataDisplay(); 
0B762:  CALL   38F8
....................          if(CiclosPersonalizados[CicloLibre-1].NivelDesfogue==1){ 
0B766:  MOVLW  01
0B768:  MOVLB  3
0B76A:  SUBWF  x30,W
0B76C:  MULLW  0A
0B76E:  MOVF   FF3,W
0B770:  MOVLB  7
0B772:  CLRF   x01
0B774:  MOVWF  x00
0B776:  MOVLW  08
0B778:  ADDWF  x00,W
0B77A:  MOVWF  01
0B77C:  MOVLW  00
0B77E:  ADDWFC x01,W
0B780:  MOVWF  03
0B782:  MOVF   01,W
0B784:  ADDLW  D2
0B786:  MOVWF  FE9
0B788:  MOVLW  06
0B78A:  ADDWFC 03,W
0B78C:  MOVWF  FEA
0B78E:  DECFSZ FEF,W
0B790:  BRA    B7AC
....................             printf("desfogue.txt=\"Lento\""); 
0B792:  MOVLW  86
0B794:  MOVWF  FF6
0B796:  MOVLW  0F
0B798:  MOVWF  FF7
0B79A:  MOVLW  00
0B79C:  MOVWF  FF8
0B79E:  MOVLB  0
0B7A0:  CALL   38C6
....................             SendDataDisplay(); 
0B7A4:  CALL   38F8
....................          }else{ 
0B7A8:  BRA    B7C2
0B7AA:  MOVLB  7
....................             printf("desfogue.txt=\"Rapido\""); 
0B7AC:  MOVLW  9C
0B7AE:  MOVWF  FF6
0B7B0:  MOVLW  0F
0B7B2:  MOVWF  FF7
0B7B4:  MOVLW  00
0B7B6:  MOVWF  FF8
0B7B8:  MOVLB  0
0B7BA:  CALL   38C6
....................             SendDataDisplay(); 
0B7BE:  CALL   38F8
0B7C2:  MOVLB  3
....................          } 
....................       } 
....................        
....................       if(RIGHT){ 
0B7C4:  BSF    F93.2
0B7C6:  BTFSC  F81.2
0B7C8:  BRA    B7E0
....................          delay_ms(100); 
0B7CA:  MOVLW  64
0B7CC:  MOVLB  7
0B7CE:  MOVWF  x10
0B7D0:  MOVLB  0
0B7D2:  CALL   1992
....................          if(RIGHT){ 
0B7D6:  BSF    F93.2
0B7D8:  BTFSC  F81.2
0B7DA:  BRA    B7E2
....................             CicloLibre++; 
0B7DC:  MOVLB  3
0B7DE:  INCF   x30,F
0B7E0:  MOVLB  0
....................          } 
....................       }       
....................        
....................       if(CicloLibre<1) 
0B7E2:  MOVLB  3
0B7E4:  MOVF   x30,F
0B7E6:  BNZ   B7EC
....................          CicloLibre=1; 
0B7E8:  MOVLW  01
0B7EA:  MOVWF  x30
....................       if(CicloLibre>4) 
0B7EC:  MOVF   x30,W
0B7EE:  SUBLW  04
0B7F0:  BC    B7F6
....................          CicloLibre=4; 
0B7F2:  MOVLW  04
0B7F4:  MOVWF  x30
....................        
....................       if(RX_Buffer[4]==0xa0 || LEFT){//a0, Menu Principal 
0B7F6:  MOVF   34,W
0B7F8:  SUBLW  A0
0B7FA:  BZ    B802
0B7FC:  BSF    F93.3
0B7FE:  BTFSC  F81.3
0B800:  BRA    B83A
....................          delay_ms(100); 
0B802:  MOVLW  64
0B804:  MOVLB  7
0B806:  MOVWF  x10
0B808:  MOVLB  0
0B80A:  CALL   1992
....................          if(RX_Buffer[4]==0xa0 || LEFT){ 
0B80E:  MOVF   34,W
0B810:  SUBLW  A0
0B812:  BZ    B81A
0B814:  BSF    F93.3
0B816:  BTFSC  F81.3
0B818:  BRA    B838
....................             printf("page MenuPrincipal"); 
0B81A:  MOVLW  B2
0B81C:  MOVWF  FF6
0B81E:  MOVLW  0F
0B820:  MOVWF  FF7
0B822:  MOVLW  00
0B824:  MOVWF  FF8
0B826:  CALL   38C6
....................             SendDataDisplay();      
0B82A:  CALL   38F8
....................             PantallaPrincipal=0; 
0B82E:  MOVLB  2
0B830:  CLRF   xD1
....................             Op=OFF; 
0B832:  MOVLB  0
0B834:  BCF    xA1.5
....................             Op2=OFF; 
0B836:  BCF    xA1.6
0B838:  MOVLB  3
....................          } 
....................       } 
....................        
....................       if(RX_Buffer[4]==0x20 && CicloLibre>0){//20, Temperatura 
0B83A:  MOVF   34,W
0B83C:  SUBLW  20
0B83E:  BNZ   B87C
0B840:  MOVF   x30,F
0B842:  BZ    B87C
....................             printf("page Temperatura"); 
0B844:  MOVLW  C6
0B846:  MOVWF  FF6
0B848:  MOVLW  0F
0B84A:  MOVWF  FF7
0B84C:  MOVLW  00
0B84E:  MOVWF  FF8
0B850:  MOVLB  0
0B852:  CALL   38C6
....................             SendDataDisplay();      
0B856:  CALL   38F8
....................             Setpoint=CiclosPersonalizados[CicloLibre-1].Temperatura; 
0B85A:  MOVLW  01
0B85C:  MOVLB  3
0B85E:  SUBWF  x30,W
0B860:  MULLW  0A
0B862:  MOVF   FF3,W
0B864:  MOVLB  7
0B866:  CLRF   x01
0B868:  MOVWF  x00
0B86A:  MOVLW  D2
0B86C:  ADDWF  x00,W
0B86E:  MOVWF  FE9
0B870:  MOVLW  06
0B872:  ADDWFC x01,W
0B874:  MOVWF  FEA
0B876:  MOVFF  FEF,356
0B87A:  MOVLB  3
....................       } 
....................        
....................       if(RX_Buffer[4]==0x30 && CicloLibre>0){//30, Test 
0B87C:  MOVF   34,W
0B87E:  SUBLW  30
0B880:  BNZ   B8FA
0B882:  MOVF   x30,F
0B884:  BZ    B8FA
....................             printf("page TiempoEst"); 
0B886:  MOVLW  D8
0B888:  MOVWF  FF6
0B88A:  MOVLW  0F
0B88C:  MOVWF  FF7
0B88E:  MOVLW  00
0B890:  MOVWF  FF8
0B892:  MOVLB  0
0B894:  CALL   38C6
....................             SendDataDisplay();      
0B898:  CALL   38F8
....................             mEstp=CiclosPersonalizados[CicloLibre-1].Minutoest; 
0B89C:  MOVLW  01
0B89E:  MOVLB  3
0B8A0:  SUBWF  x30,W
0B8A2:  MULLW  0A
0B8A4:  MOVF   FF3,W
0B8A6:  MOVLB  7
0B8A8:  CLRF   x01
0B8AA:  MOVWF  x00
0B8AC:  MOVLW  09
0B8AE:  ADDWF  x00,W
0B8B0:  MOVWF  01
0B8B2:  MOVLW  00
0B8B4:  ADDWFC x01,W
0B8B6:  MOVWF  03
0B8B8:  MOVF   01,W
0B8BA:  ADDLW  D2
0B8BC:  MOVWF  FE9
0B8BE:  MOVLW  06
0B8C0:  ADDWFC 03,W
0B8C2:  MOVWF  FEA
0B8C4:  MOVFF  FEF,B8
0B8C8:  MOVLB  0
....................             sEstp=CiclosPersonalizados[CicloLibre-1].Segundoest; 
0B8CA:  MOVLW  01
0B8CC:  MOVLB  3
0B8CE:  SUBWF  x30,W
0B8D0:  MULLW  0A
0B8D2:  MOVF   FF3,W
0B8D4:  MOVLB  7
0B8D6:  CLRF   x01
0B8D8:  MOVWF  x00
0B8DA:  MOVLW  03
0B8DC:  ADDWF  x00,W
0B8DE:  MOVWF  01
0B8E0:  MOVLW  00
0B8E2:  ADDWFC x01,W
0B8E4:  MOVWF  03
0B8E6:  MOVF   01,W
0B8E8:  ADDLW  D2
0B8EA:  MOVWF  FE9
0B8EC:  MOVLW  06
0B8EE:  ADDWFC 03,W
0B8F0:  MOVWF  FEA
0B8F2:  MOVFF  FEF,B7
0B8F6:  MOVLB  0
0B8F8:  MOVLB  3
....................       } 
....................        
....................       if(RX_Buffer[4]==0x40 && CicloLibre>0){//30, Test 
0B8FA:  MOVF   34,W
0B8FC:  SUBLW  40
0B8FE:  BNZ   B978
0B900:  MOVF   x30,F
0B902:  BZ    B978
....................             printf("page TiempoSec"); 
0B904:  MOVLW  E8
0B906:  MOVWF  FF6
0B908:  MOVLW  0F
0B90A:  MOVWF  FF7
0B90C:  MOVLW  00
0B90E:  MOVWF  FF8
0B910:  MOVLB  0
0B912:  CALL   38C6
....................             SendDataDisplay();      
0B916:  CALL   38F8
....................             mSecp=CiclosPersonalizados[CicloLibre-1].Minutosec; 
0B91A:  MOVLW  01
0B91C:  MOVLB  3
0B91E:  SUBWF  x30,W
0B920:  MULLW  0A
0B922:  MOVF   FF3,W
0B924:  MOVLB  7
0B926:  CLRF   x01
0B928:  MOVWF  x00
0B92A:  MOVLW  04
0B92C:  ADDWF  x00,W
0B92E:  MOVWF  01
0B930:  MOVLW  00
0B932:  ADDWFC x01,W
0B934:  MOVWF  03
0B936:  MOVF   01,W
0B938:  ADDLW  D2
0B93A:  MOVWF  FE9
0B93C:  MOVLW  06
0B93E:  ADDWFC 03,W
0B940:  MOVWF  FEA
0B942:  MOVFF  FEF,BA
0B946:  MOVLB  0
....................             sSecp=CiclosPersonalizados[CicloLibre-1].Segundosec; 
0B948:  MOVLW  01
0B94A:  MOVLB  3
0B94C:  SUBWF  x30,W
0B94E:  MULLW  0A
0B950:  MOVF   FF3,W
0B952:  MOVLB  7
0B954:  CLRF   x01
0B956:  MOVWF  x00
0B958:  MOVLW  05
0B95A:  ADDWF  x00,W
0B95C:  MOVWF  01
0B95E:  MOVLW  00
0B960:  ADDWFC x01,W
0B962:  MOVWF  03
0B964:  MOVF   01,W
0B966:  ADDLW  D2
0B968:  MOVWF  FE9
0B96A:  MOVLW  06
0B96C:  ADDWFC 03,W
0B96E:  MOVWF  FEA
0B970:  MOVFF  FEF,B9
0B974:  MOVLB  0
0B976:  MOVLB  3
....................       } 
....................        
....................       if(RX_Buffer[4]==0x80 && CicloLibre>0){//80, NivelDesfogue          
0B978:  MOVF   34,W
0B97A:  SUBLW  80
0B97C:  BNZ   B9CC
0B97E:  MOVF   x30,F
0B980:  BZ    B9CC
....................             printf("page Nivel"); 
0B982:  MOVLW  F8
0B984:  MOVWF  FF6
0B986:  MOVLW  0F
0B988:  MOVWF  FF7
0B98A:  MOVLW  00
0B98C:  MOVWF  FF8
0B98E:  MOVLB  0
0B990:  CALL   38C6
....................             SendDataDisplay();      
0B994:  CALL   38F8
....................             Nivel=CiclosPersonalizados[CicloLibre-1].NivelDesfogue;          
0B998:  MOVLW  01
0B99A:  MOVLB  3
0B99C:  SUBWF  x30,W
0B99E:  MULLW  0A
0B9A0:  MOVF   FF3,W
0B9A2:  MOVLB  7
0B9A4:  CLRF   x01
0B9A6:  MOVWF  x00
0B9A8:  MOVLW  08
0B9AA:  ADDWF  x00,W
0B9AC:  MOVWF  01
0B9AE:  MOVLW  00
0B9B0:  ADDWFC x01,W
0B9B2:  MOVWF  03
0B9B4:  MOVF   01,W
0B9B6:  ADDLW  D2
0B9B8:  MOVWF  FE9
0B9BA:  MOVLW  06
0B9BC:  ADDWFC 03,W
0B9BE:  MOVWF  FEA
0B9C0:  MOVF   FEF,W
0B9C2:  CLRF   03
0B9C4:  MOVLB  3
0B9C6:  MOVWF  x64
0B9C8:  MOVFF  03,365
....................       } 
....................        
....................       if((RX_Buffer[4]==0x70 || UP)&& CicloLibre>0){//70, Iniciar Ciclo 
0B9CC:  MOVF   34,W
0B9CE:  SUBLW  70
0B9D0:  BZ    B9D8
0B9D2:  BSF    F93.0
0B9D4:  BTFSC  F81.0
0B9D6:  BRA    BC98
0B9D8:  MOVF   x30,F
0B9DA:  BTFSC  FD8.2
0B9DC:  BRA    BC98
....................          delay_ms(100); 
0B9DE:  MOVLW  64
0B9E0:  MOVLB  7
0B9E2:  MOVWF  x10
0B9E4:  MOVLB  0
0B9E6:  CALL   1992
....................          if((RX_Buffer[4]==0x70 || UP)&& CicloLibre>0){ 
0B9EA:  MOVF   34,W
0B9EC:  SUBLW  70
0B9EE:  BZ    B9F6
0B9F0:  BSF    F93.0
0B9F2:  BTFSC  F81.0
0B9F4:  BRA    BC96
0B9F6:  MOVLB  3
0B9F8:  MOVF   x30,F
0B9FA:  BTFSS  FD8.2
0B9FC:  BRA    BA02
0B9FE:  MOVLB  0
0BA00:  BRA    BC96
....................             printf("page Funcionamiento"); 
0BA02:  MOVLW  04
0BA04:  MOVWF  FF6
0BA06:  MOVLW  10
0BA08:  MOVWF  FF7
0BA0A:  MOVLW  00
0BA0C:  MOVWF  FF8
0BA0E:  MOVLB  0
0BA10:  CALL   38C6
....................             SendDataDisplay();        
0BA14:  CALL   38F8
....................             Libre=ON; 
0BA18:  BSF    xA3.3
....................             if(CiclosPersonalizados[CicloLibre-1].NivelDesfogue!=1){ 
0BA1A:  MOVLW  01
0BA1C:  MOVLB  3
0BA1E:  SUBWF  x30,W
0BA20:  MULLW  0A
0BA22:  MOVF   FF3,W
0BA24:  MOVLB  7
0BA26:  CLRF   x01
0BA28:  MOVWF  x00
0BA2A:  MOVLW  08
0BA2C:  ADDWF  x00,W
0BA2E:  MOVWF  01
0BA30:  MOVLW  00
0BA32:  ADDWFC x01,W
0BA34:  MOVWF  03
0BA36:  MOVF   01,W
0BA38:  ADDLW  D2
0BA3A:  MOVWF  FE9
0BA3C:  MOVLW  06
0BA3E:  ADDWFC 03,W
0BA40:  MOVWF  FEA
0BA42:  DECFSZ FEF,W
0BA44:  BRA    BA48
0BA46:  BRA    BB4C
....................                ConfiguraCiclo(CiclosPersonalizados[CicloLibre-1].Segundoest,CiclosPersonalizados[CicloLibre-1].Minutoest, 
....................                CiclosPersonalizados[CicloLibre-1].Segundosec,CiclosPersonalizados[CicloLibre-1].MinutoSec,0,CicloLibre+4, 
....................                CiclosPersonalizados[CicloLibre-1].Temperatura,0,0 
....................                ,0); 
0BA48:  MOVLW  01
0BA4A:  MOVLB  3
0BA4C:  SUBWF  x30,W
0BA4E:  MULLW  0A
0BA50:  MOVF   FF3,W
0BA52:  MOVLB  7
0BA54:  CLRF   x01
0BA56:  MOVWF  x00
0BA58:  MOVLW  03
0BA5A:  ADDWF  x00,W
0BA5C:  MOVWF  01
0BA5E:  MOVLW  00
0BA60:  ADDWFC x01,W
0BA62:  MOVWF  03
0BA64:  MOVF   01,W
0BA66:  ADDLW  D2
0BA68:  MOVWF  FE9
0BA6A:  MOVLW  06
0BA6C:  ADDWFC 03,W
0BA6E:  MOVWF  FEA
0BA70:  MOVFF  FEF,700
0BA74:  MOVLW  01
0BA76:  MOVLB  3
0BA78:  SUBWF  x30,W
0BA7A:  MULLW  0A
0BA7C:  MOVF   FF3,W
0BA7E:  MOVLB  7
0BA80:  CLRF   x02
0BA82:  MOVWF  x01
0BA84:  MOVLW  09
0BA86:  ADDWF  x01,W
0BA88:  MOVWF  01
0BA8A:  MOVLW  00
0BA8C:  ADDWFC x02,W
0BA8E:  MOVWF  03
0BA90:  MOVF   01,W
0BA92:  ADDLW  D2
0BA94:  MOVWF  FE9
0BA96:  MOVLW  06
0BA98:  ADDWFC 03,W
0BA9A:  MOVWF  FEA
0BA9C:  MOVFF  FEF,701
0BAA0:  MOVLW  01
0BAA2:  MOVLB  3
0BAA4:  SUBWF  x30,W
0BAA6:  MULLW  0A
0BAA8:  MOVF   FF3,W
0BAAA:  MOVLB  7
0BAAC:  CLRF   x03
0BAAE:  MOVWF  x02
0BAB0:  MOVLW  05
0BAB2:  ADDWF  x02,W
0BAB4:  MOVWF  01
0BAB6:  MOVLW  00
0BAB8:  ADDWFC x03,W
0BABA:  MOVWF  03
0BABC:  MOVF   01,W
0BABE:  ADDLW  D2
0BAC0:  MOVWF  FE9
0BAC2:  MOVLW  06
0BAC4:  ADDWFC 03,W
0BAC6:  MOVWF  FEA
0BAC8:  MOVFF  FEF,702
0BACC:  MOVLW  01
0BACE:  MOVLB  3
0BAD0:  SUBWF  x30,W
0BAD2:  MULLW  0A
0BAD4:  MOVF   FF3,W
0BAD6:  MOVLB  7
0BAD8:  CLRF   x04
0BADA:  MOVWF  x03
0BADC:  MOVLW  04
0BADE:  ADDWF  x03,W
0BAE0:  MOVWF  01
0BAE2:  MOVLW  00
0BAE4:  ADDWFC x04,W
0BAE6:  MOVWF  03
0BAE8:  MOVF   01,W
0BAEA:  ADDLW  D2
0BAEC:  MOVWF  FE9
0BAEE:  MOVLW  06
0BAF0:  ADDWFC 03,W
0BAF2:  MOVWF  FEA
0BAF4:  MOVFF  FEF,703
0BAF8:  MOVLW  04
0BAFA:  MOVLB  3
0BAFC:  ADDWF  x30,W
0BAFE:  MOVLB  7
0BB00:  MOVWF  x04
0BB02:  MOVLW  01
0BB04:  MOVLB  3
0BB06:  SUBWF  x30,W
0BB08:  MULLW  0A
0BB0A:  MOVF   FF3,W
0BB0C:  MOVLB  7
0BB0E:  CLRF   x06
0BB10:  MOVWF  x05
0BB12:  MOVLW  D2
0BB14:  ADDWF  x05,W
0BB16:  MOVWF  FE9
0BB18:  MOVLW  06
0BB1A:  ADDWFC x06,W
0BB1C:  MOVWF  FEA
0BB1E:  MOVFF  FEF,705
0BB22:  MOVFF  700,706
0BB26:  MOVFF  701,707
0BB2A:  MOVFF  702,708
0BB2E:  MOVFF  703,709
0BB32:  CLRF   x0A
0BB34:  MOVFF  704,70B
0BB38:  MOVFF  705,70C
0BB3C:  CLRF   x0D
0BB3E:  CLRF   x0E
0BB40:  CLRF   x0F
0BB42:  MOVLB  0
0BB44:  CALL   5220
....................             }else{ 
0BB48:  BRA    BC96
0BB4A:  MOVLB  7
....................                ConfiguraCiclo(CiclosPersonalizados[CicloLibre-1].Segundoest,CiclosPersonalizados[CicloLibre-1].Minutoest, 
....................                CiclosPersonalizados[CicloLibre-1].Segundosec,CiclosPersonalizados[CicloLibre-1].MinutoSec,1,CicloLibre+4, 
....................                CiclosPersonalizados[CicloLibre-1].Temperatura,0,0 
....................                ,0); 
0BB4C:  MOVLW  01
0BB4E:  MOVLB  3
0BB50:  SUBWF  x30,W
0BB52:  MULLW  0A
0BB54:  MOVF   FF3,W
0BB56:  MOVLB  7
0BB58:  CLRF   x01
0BB5A:  MOVWF  x00
0BB5C:  MOVLW  03
0BB5E:  ADDWF  x00,W
0BB60:  MOVWF  01
0BB62:  MOVLW  00
0BB64:  ADDWFC x01,W
0BB66:  MOVWF  03
0BB68:  MOVF   01,W
0BB6A:  ADDLW  D2
0BB6C:  MOVWF  FE9
0BB6E:  MOVLW  06
0BB70:  ADDWFC 03,W
0BB72:  MOVWF  FEA
0BB74:  MOVFF  FEF,700
0BB78:  MOVLW  01
0BB7A:  MOVLB  3
0BB7C:  SUBWF  x30,W
0BB7E:  MULLW  0A
0BB80:  MOVF   FF3,W
0BB82:  MOVLB  7
0BB84:  CLRF   x02
0BB86:  MOVWF  x01
0BB88:  MOVLW  09
0BB8A:  ADDWF  x01,W
0BB8C:  MOVWF  01
0BB8E:  MOVLW  00
0BB90:  ADDWFC x02,W
0BB92:  MOVWF  03
0BB94:  MOVF   01,W
0BB96:  ADDLW  D2
0BB98:  MOVWF  FE9
0BB9A:  MOVLW  06
0BB9C:  ADDWFC 03,W
0BB9E:  MOVWF  FEA
0BBA0:  MOVFF  FEF,701
0BBA4:  MOVLW  01
0BBA6:  MOVLB  3
0BBA8:  SUBWF  x30,W
0BBAA:  MULLW  0A
0BBAC:  MOVF   FF3,W
0BBAE:  MOVLB  7
0BBB0:  CLRF   x03
0BBB2:  MOVWF  x02
0BBB4:  MOVLW  05
0BBB6:  ADDWF  x02,W
0BBB8:  MOVWF  01
0BBBA:  MOVLW  00
0BBBC:  ADDWFC x03,W
0BBBE:  MOVWF  03
0BBC0:  MOVF   01,W
0BBC2:  ADDLW  D2
0BBC4:  MOVWF  FE9
0BBC6:  MOVLW  06
0BBC8:  ADDWFC 03,W
0BBCA:  MOVWF  FEA
0BBCC:  MOVFF  FEF,702
0BBD0:  MOVLW  01
0BBD2:  MOVLB  3
0BBD4:  SUBWF  x30,W
0BBD6:  MULLW  0A
0BBD8:  MOVF   FF3,W
0BBDA:  MOVLB  7
0BBDC:  CLRF   x04
0BBDE:  MOVWF  x03
0BBE0:  MOVLW  04
0BBE2:  ADDWF  x03,W
0BBE4:  MOVWF  01
0BBE6:  MOVLW  00
0BBE8:  ADDWFC x04,W
0BBEA:  MOVWF  03
0BBEC:  MOVF   01,W
0BBEE:  ADDLW  D2
0BBF0:  MOVWF  FE9
0BBF2:  MOVLW  06
0BBF4:  ADDWFC 03,W
0BBF6:  MOVWF  FEA
0BBF8:  MOVFF  FEF,703
0BBFC:  MOVLW  04
0BBFE:  MOVLB  3
0BC00:  ADDWF  x30,W
0BC02:  MOVLB  7
0BC04:  MOVWF  x04
0BC06:  MOVLW  01
0BC08:  MOVLB  3
0BC0A:  SUBWF  x30,W
0BC0C:  MULLW  0A
0BC0E:  MOVF   FF3,W
0BC10:  MOVLB  7
0BC12:  CLRF   x06
0BC14:  MOVWF  x05
0BC16:  MOVLW  D2
0BC18:  ADDWF  x05,W
0BC1A:  MOVWF  FE9
0BC1C:  MOVLW  06
0BC1E:  ADDWFC x06,W
0BC20:  MOVWF  FEA
0BC22:  MOVFF  FEF,705
0BC26:  MOVFF  700,706
0BC2A:  MOVFF  701,707
0BC2E:  MOVFF  702,708
0BC32:  MOVFF  703,709
0BC36:  MOVLW  01
0BC38:  MOVWF  x0A
0BC3A:  MOVFF  704,70B
0BC3E:  MOVFF  705,70C
0BC42:  CLRF   x0D
0BC44:  CLRF   x0E
0BC46:  CLRF   x0F
0BC48:  MOVLB  0
0BC4A:  CALL   5220
....................                NivelSeleccionado=4995*CiclosPersonalizados[CicloLibre-1].NivelDesfogue; 
0BC4E:  MOVLW  01
0BC50:  MOVLB  3
0BC52:  SUBWF  x30,W
0BC54:  MULLW  0A
0BC56:  MOVF   FF3,W
0BC58:  MOVLB  7
0BC5A:  CLRF   x01
0BC5C:  MOVWF  x00
0BC5E:  MOVLW  08
0BC60:  ADDWF  x00,W
0BC62:  MOVWF  01
0BC64:  MOVLW  00
0BC66:  ADDWFC x01,W
0BC68:  MOVWF  03
0BC6A:  MOVF   01,W
0BC6C:  ADDLW  D2
0BC6E:  MOVWF  FE9
0BC70:  MOVLW  06
0BC72:  ADDWFC 03,W
0BC74:  MOVWF  FEA
0BC76:  MOVFF  FEF,700
0BC7A:  MOVLW  13
0BC7C:  MOVWF  x0B
0BC7E:  MOVLW  83
0BC80:  MOVWF  x0A
0BC82:  CLRF   x0D
0BC84:  MOVFF  700,70C
0BC88:  MOVLB  0
0BC8A:  CALL   19F0
0BC8E:  MOVFF  02,36F
0BC92:  MOVFF  01,36E
0BC96:  MOVLB  3
....................             } 
....................          } 
....................       } 
....................    } 
.................... //_--------------------------------------------------------------------------------------------------------------------------------------------------------        
....................  
.................... //_--------------------------------------------------------------------------------------------------------------------------------------------------------       
....................    if(Menu==12){//Menu de Visualizacion de Ciclos Realizados 
0BC98:  MOVF   x4F,W
0BC9A:  SUBLW  0C
0BC9C:  BTFSS  FD8.2
0BC9E:  BRA    C190
....................       //printf("fecha.txt=\"Fecha:%02u/%02u/20%02u    Hora: %02u:%02u\"",Dia,Mes,Year,Hora,Minuto); 
....................       //SendDataDisplay(); 
....................       GuardaEEPROM=OFF; 
0BCA0:  MOVLB  0
0BCA2:  BCF    xA2.1
....................       /*  
....................       i2c_start();            // Comienzo de la comunicacin 
....................       i2c_write(0xA0);   // Direccin del esclavo en el bus I2C 
....................       i2c_write(9);    // Posicin de donde se leer el dato en el esclavo 
....................       i2c_write(0);    // Posicin de donde se leer el dato en el esclavo 
....................       i2c_start();            // Reinicio 
....................       i2c_write(direccion+1); // Direccin del esclavo en modo lectura 
....................       dato=i2c_read(0);       // Lectura del dato 
....................       i2c_stop(); 
....................       */        
....................        
....................       if(RX_Buffer[6]==0x01){//01, Ciclos 
0BCA4:  DECFSZ 36,W
0BCA6:  BRA    BCBC
....................          printf("page MenuPrincipal"); 
0BCA8:  MOVLW  18
0BCAA:  MOVWF  FF6
0BCAC:  MOVLW  10
0BCAE:  MOVWF  FF7
0BCB0:  MOVLW  00
0BCB2:  MOVWF  FF8
0BCB4:  CALL   38C6
....................          SendDataDisplay();      
0BCB8:  CALL   38F8
....................       } 
....................        
....................       if(RX_Buffer[6]==0x02){//02, Izquierda 
0BCBC:  MOVF   36,W
0BCBE:  SUBLW  02
0BCC0:  BNZ   BCFE
....................          RX_Buffer[6]=0x00;   
0BCC2:  CLRF   36
....................          RX_Buffer2[6]=0x00; 
0BCC4:  CLRF   41
....................          if(cicloVisto>0) 
0BCC6:  MOVLB  3
0BCC8:  MOVF   x94,F
0BCCA:  BZ    BCCE
....................             cicloVisto--; 
0BCCC:  DECF   x94,F
....................          printf("h0.val=%u",cicloVisto); 
0BCCE:  MOVLW  2C
0BCD0:  MOVWF  FF6
0BCD2:  MOVLW  10
0BCD4:  MOVWF  FF7
0BCD6:  MOVLW  00
0BCD8:  MOVWF  FF8
0BCDA:  MOVLW  07
0BCDC:  MOVLB  7
0BCDE:  MOVWF  x05
0BCE0:  MOVLB  0
0BCE2:  CALL   4EDC
0BCE6:  MOVFF  394,705
0BCEA:  MOVLW  1B
0BCEC:  MOVLB  7
0BCEE:  MOVWF  x06
0BCF0:  MOVLB  0
0BCF2:  CALL   4F3A
....................          SendDataDisplay();      
0BCF6:  CALL   38F8
....................          actualizaTabla(); 
0BCFA:  CALL   5540
....................       } 
....................        
....................       if(RX_Buffer[6]==0x03){//03, Arriba 
0BCFE:  MOVF   36,W
0BD00:  SUBLW  03
0BD02:  BNZ   BD42
....................          RX_Buffer[6]=0x00;   
0BD04:  CLRF   36
....................          RX_Buffer2[6]=0x00; 
0BD06:  CLRF   41
....................          if(cicloVisualizado<28) 
0BD08:  MOVLB  3
0BD0A:  MOVF   x95,W
0BD0C:  SUBLW  1B
0BD0E:  BNC   BD12
....................             cicloVisualizado++; 
0BD10:  INCF   x95,F
....................          printf("h1.val=%u",cicloVisualizado); 
0BD12:  MOVLW  36
0BD14:  MOVWF  FF6
0BD16:  MOVLW  10
0BD18:  MOVWF  FF7
0BD1A:  MOVLW  00
0BD1C:  MOVWF  FF8
0BD1E:  MOVLW  07
0BD20:  MOVLB  7
0BD22:  MOVWF  x05
0BD24:  MOVLB  0
0BD26:  CALL   4EDC
0BD2A:  MOVFF  395,705
0BD2E:  MOVLW  1B
0BD30:  MOVLB  7
0BD32:  MOVWF  x06
0BD34:  MOVLB  0
0BD36:  CALL   4F3A
....................          SendDataDisplay();     
0BD3A:  CALL   38F8
....................          actualizaTabla(); 
0BD3E:  CALL   5540
....................          //exportarData(); 
....................       } 
....................        
....................       if(RX_Buffer[6]==0x04){//04, Abajo 
0BD42:  MOVF   36,W
0BD44:  SUBLW  04
0BD46:  BNZ   BD84
....................          RX_Buffer[6]=0x00;   
0BD48:  CLRF   36
....................          RX_Buffer2[6]=0x00; 
0BD4A:  CLRF   41
....................          if(cicloVisualizado>0) 
0BD4C:  MOVLB  3
0BD4E:  MOVF   x95,F
0BD50:  BZ    BD54
....................             cicloVisualizado--; 
0BD52:  DECF   x95,F
....................          printf("h1.val=%u",cicloVisualizado); 
0BD54:  MOVLW  40
0BD56:  MOVWF  FF6
0BD58:  MOVLW  10
0BD5A:  MOVWF  FF7
0BD5C:  MOVLW  00
0BD5E:  MOVWF  FF8
0BD60:  MOVLW  07
0BD62:  MOVLB  7
0BD64:  MOVWF  x05
0BD66:  MOVLB  0
0BD68:  CALL   4EDC
0BD6C:  MOVFF  395,705
0BD70:  MOVLW  1B
0BD72:  MOVLB  7
0BD74:  MOVWF  x06
0BD76:  MOVLB  0
0BD78:  CALL   4F3A
....................          SendDataDisplay();   
0BD7C:  CALL   38F8
....................          actualizaTabla(); 
0BD80:  CALL   5540
....................          //exportarData(); 
....................       } 
....................        
....................       if(RX_Buffer[6]==0x05){//05, Derecha 
0BD84:  MOVF   36,W
0BD86:  SUBLW  05
0BD88:  BNZ   BDC8
....................          RX_Buffer[6]=0x00;   
0BD8A:  CLRF   36
....................          RX_Buffer2[6]=0x00; 
0BD8C:  CLRF   41
....................          if(cicloVisto<200) 
0BD8E:  MOVLB  3
0BD90:  MOVF   x94,W
0BD92:  SUBLW  C7
0BD94:  BNC   BD98
....................             cicloVisto++; 
0BD96:  INCF   x94,F
....................          printf("h0.val=%u",cicloVisto); 
0BD98:  MOVLW  4A
0BD9A:  MOVWF  FF6
0BD9C:  MOVLW  10
0BD9E:  MOVWF  FF7
0BDA0:  MOVLW  00
0BDA2:  MOVWF  FF8
0BDA4:  MOVLW  07
0BDA6:  MOVLB  7
0BDA8:  MOVWF  x05
0BDAA:  MOVLB  0
0BDAC:  CALL   4EDC
0BDB0:  MOVFF  394,705
0BDB4:  MOVLW  1B
0BDB6:  MOVLB  7
0BDB8:  MOVWF  x06
0BDBA:  MOVLB  0
0BDBC:  CALL   4F3A
....................          SendDataDisplay();   
0BDC0:  CALL   38F8
....................          actualizaTabla(); 
0BDC4:  CALL   5540
....................          //exportarData(); 
....................       } 
....................        
....................       if(RX_Buffer[6]==0x06){//06, Imprime 
0BDC8:  MOVF   36,W
0BDCA:  SUBLW  06
0BDCC:  BNZ   BDEA
....................          RX_Buffer[6]=0x00;   
0BDCE:  CLRF   36
....................          RX_Buffer2[6]=0x00; 
0BDD0:  CLRF   41
....................          printf("t0.txt=\"!IMPRIMIENDO!\""); 
0BDD2:  MOVLW  54
0BDD4:  MOVWF  FF6
0BDD6:  MOVLW  10
0BDD8:  MOVWF  FF7
0BDDA:  MOVLW  00
0BDDC:  MOVWF  FF8
0BDDE:  CALL   38C6
....................          SendDataDisplay();  
0BDE2:  CALL   38F8
....................          exportarData(); 
0BDE6:  GOTO   5BE2
....................       } 
....................        
....................       if(RX_Buffer[4]>0x00 || RX_Buffer[5]>0x00){ 
0BDEA:  MOVF   34,F
0BDEC:  BNZ   BDF2
0BDEE:  MOVF   35,F
0BDF0:  BZ    BE0E
....................          cicloVisualizado=RX_Buffer[4]-1; 
0BDF2:  MOVLW  01
0BDF4:  SUBWF  34,W
0BDF6:  MOVLB  3
0BDF8:  MOVWF  x95
....................          cicloVisto=RX_Buffer[5]-1; 
0BDFA:  MOVLW  01
0BDFC:  SUBWF  35,W
0BDFE:  MOVWF  x94
....................          RX_Buffer[4]=0x00; 
0BE00:  CLRF   34
....................          RX_Buffer[5]=0x00; 
0BE02:  CLRF   35
....................          RX_Buffer2[4]=0x00; 
0BE04:  CLRF   3F
....................          RX_Buffer2[5]=0x00; 
0BE06:  CLRF   40
....................          actualizaTabla(); 
0BE08:  MOVLB  0
0BE0A:  CALL   5540
....................       } 
....................        
....................       //Imprime Valores Estaticos 
....................       printf("fecha.txt=\"%02u/%02u/%02u\"",diaCiclos,mesCiclos,yearCiclos); 
0BE0E:  MOVLW  6C
0BE10:  MOVWF  FF6
0BE12:  MOVLW  10
0BE14:  MOVWF  FF7
0BE16:  MOVLW  00
0BE18:  MOVWF  FF8
0BE1A:  MOVLW  0B
0BE1C:  MOVLB  7
0BE1E:  MOVWF  x05
0BE20:  MOVLB  0
0BE22:  CALL   4EDC
0BE26:  MOVFF  405,705
0BE2A:  MOVLW  01
0BE2C:  MOVLB  7
0BE2E:  MOVWF  x06
0BE30:  MOVLB  0
0BE32:  CALL   4F3A
0BE36:  MOVLW  2F
0BE38:  BTFSS  F9E.4
0BE3A:  BRA    BE38
0BE3C:  MOVWF  FAD
0BE3E:  MOVFF  406,705
0BE42:  MOVLW  01
0BE44:  MOVLB  7
0BE46:  MOVWF  x06
0BE48:  MOVLB  0
0BE4A:  CALL   4F3A
0BE4E:  MOVLW  2F
0BE50:  BTFSS  F9E.4
0BE52:  BRA    BE50
0BE54:  MOVWF  FAD
0BE56:  MOVFF  407,705
0BE5A:  MOVLW  01
0BE5C:  MOVLB  7
0BE5E:  MOVWF  x06
0BE60:  MOVLB  0
0BE62:  CALL   4F3A
0BE66:  MOVLW  22
0BE68:  BTFSS  F9E.4
0BE6A:  BRA    BE68
0BE6C:  MOVWF  FAD
....................       SendDataDisplay(); 
0BE6E:  CALL   38F8
....................        
....................       printf("ciclo.txt=\"%02u\"",cicloCiclos); 
0BE72:  MOVLW  88
0BE74:  MOVWF  FF6
0BE76:  MOVLW  10
0BE78:  MOVWF  FF7
0BE7A:  MOVLW  00
0BE7C:  MOVWF  FF8
0BE7E:  MOVLW  0B
0BE80:  MOVLB  7
0BE82:  MOVWF  x05
0BE84:  MOVLB  0
0BE86:  CALL   4EDC
0BE8A:  MOVFF  409,705
0BE8E:  MOVLW  01
0BE90:  MOVLB  7
0BE92:  MOVWF  x06
0BE94:  MOVLB  0
0BE96:  CALL   4F3A
0BE9A:  MOVLW  22
0BE9C:  BTFSS  F9E.4
0BE9E:  BRA    BE9C
0BEA0:  MOVWF  FAD
....................       SendDataDisplay(); 
0BEA2:  CALL   38F8
....................        
....................       printf("t0.txt=\"Ciclo %02u\"",cicloVisto); 
0BEA6:  MOVLW  9A
0BEA8:  MOVWF  FF6
0BEAA:  MOVLW  10
0BEAC:  MOVWF  FF7
0BEAE:  MOVLW  00
0BEB0:  MOVWF  FF8
0BEB2:  MOVLW  0E
0BEB4:  MOVLB  7
0BEB6:  MOVWF  x05
0BEB8:  MOVLB  0
0BEBA:  CALL   4EDC
0BEBE:  MOVFF  394,705
0BEC2:  MOVLW  01
0BEC4:  MOVLB  7
0BEC6:  MOVWF  x06
0BEC8:  MOVLB  0
0BECA:  CALL   4F3A
0BECE:  MOVLW  22
0BED0:  BTFSS  F9E.4
0BED2:  BRA    BED0
0BED4:  MOVWF  FAD
....................       SendDataDisplay(); 
0BED6:  CALL   38F8
....................        
....................       printf("usuario.txt=\"---\""); 
0BEDA:  MOVLW  AE
0BEDC:  MOVWF  FF6
0BEDE:  MOVLW  10
0BEE0:  MOVWF  FF7
0BEE2:  MOVLW  00
0BEE4:  MOVWF  FF8
0BEE6:  CALL   38C6
....................       SendDataDisplay(); 
0BEEA:  CALL   38F8
....................        
....................       //Imprime Valores Dinamicos 
....................       for(i=0;i<7;i++){ 
0BEEE:  MOVLB  3
0BEF0:  CLRF   x52
0BEF2:  MOVF   x52,W
0BEF4:  SUBLW  06
0BEF6:  BTFSS  FD8.0
0BEF8:  BRA    C190
....................          printf("hora%u.txt=\"%02u.  %02u:%02u\"",i+1,cicloVisualizado+i+1,horaCiclos[i],minutoCiclos[i]); 
0BEFA:  MOVLW  01
0BEFC:  ADDWF  x52,W
0BEFE:  MOVLB  7
0BF00:  MOVWF  x00
0BF02:  MOVLB  3
0BF04:  MOVF   x52,W
0BF06:  ADDWF  x95,W
0BF08:  ADDLW  01
0BF0A:  MOVLB  7
0BF0C:  MOVWF  x01
0BF0E:  CLRF   03
0BF10:  MOVLB  3
0BF12:  MOVF   x52,W
0BF14:  ADDLW  F0
0BF16:  MOVWF  FE9
0BF18:  MOVLW  03
0BF1A:  ADDWFC 03,W
0BF1C:  MOVWF  FEA
0BF1E:  MOVFF  FEF,702
0BF22:  CLRF   03
0BF24:  MOVF   x52,W
0BF26:  ADDLW  F7
0BF28:  MOVWF  FE9
0BF2A:  MOVLW  03
0BF2C:  ADDWFC 03,W
0BF2E:  MOVWF  FEA
0BF30:  MOVFF  FEF,703
0BF34:  MOVLW  C0
0BF36:  MOVWF  FF6
0BF38:  MOVLW  10
0BF3A:  MOVWF  FF7
0BF3C:  MOVLW  00
0BF3E:  MOVWF  FF8
0BF40:  MOVLW  04
0BF42:  MOVLB  7
0BF44:  MOVWF  x05
0BF46:  MOVLB  0
0BF48:  CALL   4EDC
0BF4C:  MOVFF  700,705
0BF50:  MOVLW  1B
0BF52:  MOVLB  7
0BF54:  MOVWF  x06
0BF56:  MOVLB  0
0BF58:  CALL   4F3A
0BF5C:  MOVLW  C6
0BF5E:  MOVWF  FF6
0BF60:  MOVLW  10
0BF62:  MOVWF  FF7
0BF64:  MOVLW  00
0BF66:  MOVWF  FF8
0BF68:  MOVLW  06
0BF6A:  MOVLB  7
0BF6C:  MOVWF  x05
0BF6E:  MOVLB  0
0BF70:  CALL   4EDC
0BF74:  MOVFF  701,705
0BF78:  MOVLW  01
0BF7A:  MOVLB  7
0BF7C:  MOVWF  x06
0BF7E:  MOVLB  0
0BF80:  CALL   4F3A
0BF84:  MOVLW  2E
0BF86:  BTFSS  F9E.4
0BF88:  BRA    BF86
0BF8A:  MOVWF  FAD
0BF8C:  MOVLW  20
0BF8E:  BTFSS  F9E.4
0BF90:  BRA    BF8E
0BF92:  MOVWF  FAD
0BF94:  MOVLW  20
0BF96:  BTFSS  F9E.4
0BF98:  BRA    BF96
0BF9A:  MOVWF  FAD
0BF9C:  MOVFF  702,705
0BFA0:  MOVLW  01
0BFA2:  MOVLB  7
0BFA4:  MOVWF  x06
0BFA6:  MOVLB  0
0BFA8:  CALL   4F3A
0BFAC:  MOVLW  3A
0BFAE:  BTFSS  F9E.4
0BFB0:  BRA    BFAE
0BFB2:  MOVWF  FAD
0BFB4:  MOVFF  703,705
0BFB8:  MOVLW  01
0BFBA:  MOVLB  7
0BFBC:  MOVWF  x06
0BFBE:  MOVLB  0
0BFC0:  CALL   4F3A
0BFC4:  MOVLW  22
0BFC6:  BTFSS  F9E.4
0BFC8:  BRA    BFC6
0BFCA:  MOVWF  FAD
....................          SendDataDisplay(); 
0BFCC:  CALL   38F8
....................          printf("T%u.txt=\"%3.1fC\"",i+1,TCiclos[i]); 
0BFD0:  MOVLW  01
0BFD2:  MOVLB  3
0BFD4:  ADDWF  x52,W
0BFD6:  MOVLB  7
0BFD8:  MOVWF  x00
0BFDA:  MOVLB  3
0BFDC:  MOVF   x52,W
0BFDE:  MULLW  04
0BFE0:  MOVF   FF3,W
0BFE2:  CLRF   03
0BFE4:  ADDLW  B8
0BFE6:  MOVWF  FE9
0BFE8:  MOVLW  03
0BFEA:  ADDWFC 03,W
0BFEC:  MOVWF  FEA
0BFEE:  MOVFF  FEF,701
0BFF2:  MOVFF  FEC,702
0BFF6:  MOVFF  FEC,703
0BFFA:  MOVFF  FEC,704
0BFFE:  MOVLW  54
0C000:  BTFSS  F9E.4
0C002:  BRA    C000
0C004:  MOVWF  FAD
0C006:  MOVFF  700,705
0C00A:  MOVLW  1B
0C00C:  MOVLB  7
0C00E:  MOVWF  x06
0C010:  MOVLB  0
0C012:  CALL   4F3A
0C016:  MOVLW  E1
0C018:  MOVWF  FF6
0C01A:  MOVLW  10
0C01C:  MOVWF  FF7
0C01E:  MOVLW  00
0C020:  MOVWF  FF8
0C022:  MOVLW  06
0C024:  MOVLB  7
0C026:  MOVWF  x05
0C028:  MOVLB  0
0C02A:  CALL   4EDC
0C02E:  MOVLW  02
0C030:  MOVWF  FE9
0C032:  MOVFF  704,708
0C036:  MOVFF  703,707
0C03A:  MOVFF  702,706
0C03E:  MOVFF  701,705
0C042:  MOVLW  01
0C044:  MOVLB  7
0C046:  MOVWF  x09
0C048:  MOVLB  0
0C04A:  CALL   507C
0C04E:  MOVLW  B0
0C050:  BTFSS  F9E.4
0C052:  BRA    C050
0C054:  MOVWF  FAD
0C056:  MOVLW  43
0C058:  BTFSS  F9E.4
0C05A:  BRA    C058
0C05C:  MOVWF  FAD
0C05E:  MOVLW  22
0C060:  BTFSS  F9E.4
0C062:  BRA    C060
0C064:  MOVWF  FAD
....................          SendDataDisplay(); 
0C066:  CALL   38F8
....................          printf("Pc%u.txt=\"%03LukPa\"",i+1,PcCiclos[i]); 
0C06A:  MOVLW  01
0C06C:  MOVLB  3
0C06E:  ADDWF  x52,W
0C070:  MOVLB  7
0C072:  MOVWF  x00
0C074:  BCF    FD8.0
0C076:  MOVLB  3
0C078:  RLCF   x52,W
0C07A:  CLRF   03
0C07C:  ADDLW  D4
0C07E:  MOVWF  FE9
0C080:  MOVLW  03
0C082:  ADDWFC 03,W
0C084:  MOVWF  FEA
0C086:  MOVFF  FEC,702
0C08A:  MOVF   FED,F
0C08C:  MOVFF  FEF,701
0C090:  MOVLW  50
0C092:  BTFSS  F9E.4
0C094:  BRA    C092
0C096:  MOVWF  FAD
0C098:  MOVLW  63
0C09A:  BTFSS  F9E.4
0C09C:  BRA    C09A
0C09E:  MOVWF  FAD
0C0A0:  MOVFF  700,705
0C0A4:  MOVLW  1B
0C0A6:  MOVLB  7
0C0A8:  MOVWF  x06
0C0AA:  MOVLB  0
0C0AC:  CALL   4F3A
0C0B0:  MOVLW  F4
0C0B2:  MOVWF  FF6
0C0B4:  MOVLW  10
0C0B6:  MOVWF  FF7
0C0B8:  MOVLW  00
0C0BA:  MOVWF  FF8
0C0BC:  MOVLW  06
0C0BE:  MOVLB  7
0C0C0:  MOVWF  x05
0C0C2:  MOVLB  0
0C0C4:  CALL   4EDC
0C0C8:  MOVLW  0A
0C0CA:  MOVWF  FE9
0C0CC:  MOVFF  702,705
0C0D0:  MOVFF  701,704
0C0D4:  CALL   527C
0C0D8:  MOVLW  FF
0C0DA:  MOVWF  FF6
0C0DC:  MOVLW  10
0C0DE:  MOVWF  FF7
0C0E0:  MOVLW  00
0C0E2:  MOVWF  FF8
0C0E4:  MOVLW  04
0C0E6:  MOVLB  7
0C0E8:  MOVWF  x05
0C0EA:  MOVLB  0
0C0EC:  CALL   4EDC
....................          SendDataDisplay(); 
0C0F0:  CALL   38F8
....................          printf("Ppc%u.txt=\"%03LukPa\"",i+1,PpcCiclos[i]); 
0C0F4:  MOVLW  01
0C0F6:  MOVLB  3
0C0F8:  ADDWF  x52,W
0C0FA:  MOVLB  7
0C0FC:  MOVWF  x00
0C0FE:  BCF    FD8.0
0C100:  MOVLB  3
0C102:  RLCF   x52,W
0C104:  CLRF   03
0C106:  ADDLW  E2
0C108:  MOVWF  FE9
0C10A:  MOVLW  03
0C10C:  ADDWFC 03,W
0C10E:  MOVWF  FEA
0C110:  MOVFF  FEC,702
0C114:  MOVF   FED,F
0C116:  MOVFF  FEF,701
0C11A:  MOVLW  50
0C11C:  BTFSS  F9E.4
0C11E:  BRA    C11C
0C120:  MOVWF  FAD
0C122:  MOVLW  70
0C124:  BTFSS  F9E.4
0C126:  BRA    C124
0C128:  MOVWF  FAD
0C12A:  MOVLW  63
0C12C:  BTFSS  F9E.4
0C12E:  BRA    C12C
0C130:  MOVWF  FAD
0C132:  MOVFF  700,705
0C136:  MOVLW  1B
0C138:  MOVLB  7
0C13A:  MOVWF  x06
0C13C:  MOVLB  0
0C13E:  CALL   4F3A
0C142:  MOVLW  09
0C144:  MOVWF  FF6
0C146:  MOVLW  11
0C148:  MOVWF  FF7
0C14A:  MOVLW  00
0C14C:  MOVWF  FF8
0C14E:  MOVLW  06
0C150:  MOVLB  7
0C152:  MOVWF  x05
0C154:  MOVLB  0
0C156:  CALL   4EDC
0C15A:  MOVLW  0A
0C15C:  MOVWF  FE9
0C15E:  MOVFF  702,705
0C162:  MOVFF  701,704
0C166:  CALL   527C
0C16A:  MOVLW  14
0C16C:  MOVWF  FF6
0C16E:  MOVLW  11
0C170:  MOVWF  FF7
0C172:  MOVLW  00
0C174:  MOVWF  FF8
0C176:  MOVLW  04
0C178:  MOVLB  7
0C17A:  MOVWF  x05
0C17C:  MOVLB  0
0C17E:  CALL   4EDC
....................          SendDataDisplay();          
0C182:  CALL   38F8
....................          codificaAlarma(); 
0C186:  GOTO   5F88
....................       }   
0C18A:  MOVLB  3
0C18C:  INCF   x52,F
0C18E:  BRA    BEF2
....................    } 
.................... //_--------------------------------------------------------------------------------------------------------------------------------------------------------       
....................  
.................... //_--------------------------------------------------------------------------------------------------------------------------------------------------------       
....................     if(Menu==15){//Menu de Clave Correcta 
0C190:  MOVF   x4F,W
0C192:  SUBLW  0F
0C194:  BNZ   C1CC
....................       if(!entro){ 
0C196:  MOVLB  0
0C198:  BTFSC  xA3.5
0C19A:  BRA    C1B6
....................          delay_ms(2000); 
0C19C:  MOVLW  08
0C19E:  MOVLB  7
0C1A0:  MOVWF  x00
0C1A2:  MOVLW  FA
0C1A4:  MOVWF  x10
0C1A6:  MOVLB  0
0C1A8:  CALL   1992
0C1AC:  MOVLB  7
0C1AE:  DECFSZ x00,F
0C1B0:  BRA    C1A2
....................          entro=ON; 
0C1B2:  MOVLB  0
0C1B4:  BSF    xA3.5
....................       } 
....................       printf("page MenuPrincipal"); 
0C1B6:  MOVLW  1A
0C1B8:  MOVWF  FF6
0C1BA:  MOVLW  11
0C1BC:  MOVWF  FF7
0C1BE:  MOVLW  00
0C1C0:  MOVWF  FF8
0C1C2:  CALL   38C6
....................       SendDataDisplay(); 
0C1C6:  CALL   38F8
0C1CA:  MOVLB  3
....................    } 
.................... //_--------------------------------------------------------------------------------------------------------------------------------------------------------       
....................  
.................... //_--------------------------------------------------------------------------------------------------------------------------------------------------------       
....................     if(Menu==16){//Menu de Clave InCorrecta 
0C1CC:  MOVF   x4F,W
0C1CE:  SUBLW  10
0C1D0:  BNZ   C208
....................       if(!entro){ 
0C1D2:  MOVLB  0
0C1D4:  BTFSC  xA3.5
0C1D6:  BRA    C1F2
....................          delay_ms(2000); 
0C1D8:  MOVLW  08
0C1DA:  MOVLB  7
0C1DC:  MOVWF  x00
0C1DE:  MOVLW  FA
0C1E0:  MOVWF  x10
0C1E2:  MOVLB  0
0C1E4:  CALL   1992
0C1E8:  MOVLB  7
0C1EA:  DECFSZ x00,F
0C1EC:  BRA    C1DE
....................          entro=ON; 
0C1EE:  MOVLB  0
0C1F0:  BSF    xA3.5
....................       } 
....................       printf("page Clave"); 
0C1F2:  MOVLW  2E
0C1F4:  MOVWF  FF6
0C1F6:  MOVLW  11
0C1F8:  MOVWF  FF7
0C1FA:  MOVLW  00
0C1FC:  MOVWF  FF8
0C1FE:  CALL   38C6
....................       SendDataDisplay(); 
0C202:  CALL   38F8
0C206:  MOVLB  3
....................    } 
.................... //_--------------------------------------------------------------------------------------------------------------------------------------------------------       
....................  
.................... //_--------------------------------------------------------------------------------------------------------------------------------------------------------     
....................    if(Menu==20){ // Este es el menu de cuando el proceso se inicio. 
0C208:  MOVF   x4F,W
0C20A:  SUBLW  14
0C20C:  BTFSS  FD8.2
0C20E:  GOTO   D278
....................    GuardaDatoEstatico(); 
0C212:  MOVLB  0
0C214:  GOTO   6630
....................    guardaCiclo=ON; 
0C218:  BSF    xA2.5
....................    if(!Libre){ 
0C21A:  BTFSC  xA3.3
0C21C:  BRA    C2A2
....................       printf("t2f.txt=\"%u\"",CicloSeleccionado); 
0C21E:  MOVLW  3A
0C220:  MOVWF  FF6
0C222:  MOVLW  11
0C224:  MOVWF  FF7
0C226:  MOVLW  00
0C228:  MOVWF  FF8
0C22A:  MOVLW  09
0C22C:  MOVLB  7
0C22E:  MOVWF  x05
0C230:  MOVLB  0
0C232:  CALL   4EDC
0C236:  MOVFF  355,705
0C23A:  MOVLW  1B
0C23C:  MOVLB  7
0C23E:  MOVWF  x06
0C240:  MOVLB  0
0C242:  CALL   4F3A
0C246:  MOVLW  22
0C248:  BTFSS  F9E.4
0C24A:  BRA    C248
0C24C:  MOVWF  FAD
....................       SendDataDisplay(); 
0C24E:  CALL   38F8
....................       printf("t3f.txt=\"%s\"",texto[CicloSeleccionado-1]); 
0C252:  MOVLW  01
0C254:  MOVLB  3
0C256:  SUBWF  x55,W
0C258:  MULLW  14
0C25A:  MOVF   FF3,W
0C25C:  CLRF   03
0C25E:  MOVLB  7
0C260:  MOVWF  x00
0C262:  MOVLW  48
0C264:  MOVWF  FF6
0C266:  MOVLW  11
0C268:  MOVWF  FF7
0C26A:  MOVLW  00
0C26C:  MOVWF  FF8
0C26E:  MOVLW  09
0C270:  MOVWF  x05
0C272:  MOVLB  0
0C274:  CALL   4EDC
0C278:  MOVLW  50
0C27A:  MOVWF  FF6
0C27C:  MOVLW  01
0C27E:  MOVWF  FF7
0C280:  MOVLW  00
0C282:  MOVWF  FF8
0C284:  MOVLB  7
0C286:  MOVF   x00,W
0C288:  ADDWF  FF6,F
0C28A:  MOVLW  00
0C28C:  ADDWFC FF7,F
0C28E:  MOVLB  0
0C290:  CALL   38C6
0C294:  MOVLW  22
0C296:  BTFSS  F9E.4
0C298:  BRA    C296
0C29A:  MOVWF  FAD
....................       SendDataDisplay(); 
0C29C:  CALL   38F8
....................    }else{ 
0C2A0:  BRA    C2F2
....................       printf("t2f.txt=\"%u\"",CicloLibre+4); 
0C2A2:  MOVLW  04
0C2A4:  MOVLB  3
0C2A6:  ADDWF  x30,W
0C2A8:  MOVLB  7
0C2AA:  MOVWF  x00
0C2AC:  MOVLW  56
0C2AE:  MOVWF  FF6
0C2B0:  MOVLW  11
0C2B2:  MOVWF  FF7
0C2B4:  MOVLW  00
0C2B6:  MOVWF  FF8
0C2B8:  MOVLW  09
0C2BA:  MOVWF  x05
0C2BC:  MOVLB  0
0C2BE:  CALL   4EDC
0C2C2:  MOVFF  700,705
0C2C6:  MOVLW  1B
0C2C8:  MOVLB  7
0C2CA:  MOVWF  x06
0C2CC:  MOVLB  0
0C2CE:  CALL   4F3A
0C2D2:  MOVLW  22
0C2D4:  BTFSS  F9E.4
0C2D6:  BRA    C2D4
0C2D8:  MOVWF  FAD
....................       SendDataDisplay(); 
0C2DA:  CALL   38F8
....................       printf("t3f.txt=\"Personalizado\""); 
0C2DE:  MOVLW  64
0C2E0:  MOVWF  FF6
0C2E2:  MOVLW  11
0C2E4:  MOVWF  FF7
0C2E6:  MOVLW  00
0C2E8:  MOVWF  FF8
0C2EA:  CALL   38C6
....................       SendDataDisplay(); 
0C2EE:  CALL   38F8
....................    } 
....................     
....................    if(RIGHT){ 
0C2F2:  BSF    F93.2
0C2F4:  BTFSC  F81.2
0C2F6:  BRA    C30E
....................       //glcd_init(ON); 
....................       delay_ms(1000); 
0C2F8:  MOVLW  04
0C2FA:  MOVLB  7
0C2FC:  MOVWF  x00
0C2FE:  MOVLW  FA
0C300:  MOVWF  x10
0C302:  MOVLB  0
0C304:  CALL   1992
0C308:  MOVLB  7
0C30A:  DECFSZ x00,F
0C30C:  BRA    C2FE
....................       /*flagCalentando=OFF; 
....................       flagDesfogando=OFF; 
....................       flagEsterilizando=OFF;*/ 
....................    } 
....................     
....................    if(PresionCamara>275+Atmosferica){ 
0C30E:  MOVLW  13
0C310:  MOVLB  3
0C312:  ADDWF  x92,W
0C314:  MOVWF  01
0C316:  MOVLW  01
0C318:  MOVWF  03
0C31A:  BTFSC  FD8.0
0C31C:  INCF   03,F
0C31E:  MOVF   03,W
0C320:  SUBWF  x69,W
0C322:  BNC   C330
0C324:  BNZ   C32C
0C326:  MOVF   x68,W
0C328:  SUBWF  01,W
0C32A:  BC    C330
....................       AlarmaPresion=ON; 
0C32C:  MOVLB  0
0C32E:  BSF    xA3.2
....................    } 
....................     
....................    if(Temperatura>105 && PresionCamara<10+Atmosferica && !Desfogando){ 
0C330:  MOVLB  7
0C332:  CLRF   x0B
0C334:  CLRF   x0A
0C336:  MOVLW  52
0C338:  MOVWF  x09
0C33A:  MOVLW  85
0C33C:  MOVWF  x08
0C33E:  MOVFF  319,70F
0C342:  MOVFF  318,70E
0C346:  MOVFF  317,70D
0C34A:  MOVFF  316,70C
0C34E:  MOVLB  0
0C350:  CALL   1FB2
0C354:  BNC   C378
0C356:  MOVLW  0A
0C358:  MOVLB  3
0C35A:  ADDWF  x92,W
0C35C:  MOVF   x69,F
0C35E:  BTFSC  FD8.2
0C360:  BRA    C366
0C362:  MOVLB  0
0C364:  BRA    C378
0C366:  SUBWF  x68,W
0C368:  BTFSS  FD8.0
0C36A:  BRA    C370
0C36C:  MOVLB  0
0C36E:  BRA    C378
0C370:  MOVLB  0
0C372:  BTFSC  xA0.5
0C374:  BRA    C378
....................       AlarmaCiclo=ON; 
0C376:  BSF    x9F.6
....................    } 
....................     
....................    if(TiempoCiclo>3000){ 
0C378:  MOVF   xA6,W
0C37A:  SUBLW  0A
0C37C:  BC    C3B2
0C37E:  XORLW  FF
0C380:  BNZ   C388
0C382:  MOVF   xA5,W
0C384:  SUBLW  B8
0C386:  BC    C3B2
....................       if(TiempoCiclo>5000) 
0C388:  MOVF   xA6,W
0C38A:  SUBLW  12
0C38C:  BC    C39A
0C38E:  XORLW  FF
0C390:  BNZ   C398
0C392:  MOVF   xA5,W
0C394:  SUBLW  88
0C396:  BC    C39A
....................          AlarmaTiempoProlongado=ON; 
0C398:  BSF    x9F.0
....................       if(PresionCamara<10+Atmosferica ){ 
0C39A:  MOVLW  0A
0C39C:  MOVLB  3
0C39E:  ADDWF  x92,W
0C3A0:  MOVF   x69,F
0C3A2:  BNZ   C3AE
0C3A4:  SUBWF  x68,W
0C3A6:  BC    C3AE
....................          AlarmaTiempoProlongado=ON; 
0C3A8:  MOVLB  0
0C3AA:  BSF    x9F.0
0C3AC:  MOVLB  3
....................       } 
....................    }else{ 
0C3AE:  BRA    C3B4
0C3B0:  MOVLB  0
....................       AlarmaTiempoProlongado=OFF; 
0C3B2:  BCF    x9F.0
....................    } 
....................     
....................    if(Temperatura>Setpoint+4.0 && !Enfriando){ 
0C3B4:  MOVLB  7
0C3B6:  CLRF   x13
0C3B8:  MOVFF  356,712
0C3BC:  MOVLB  0
0C3BE:  CALL   19BA
0C3C2:  BCF    FD8.1
0C3C4:  MOVFF  03,715
0C3C8:  MOVFF  02,714
0C3CC:  MOVFF  01,713
0C3D0:  MOVFF  00,712
0C3D4:  MOVLB  7
0C3D6:  CLRF   x19
0C3D8:  CLRF   x18
0C3DA:  CLRF   x17
0C3DC:  MOVLW  81
0C3DE:  MOVWF  x16
0C3E0:  MOVLB  0
0C3E2:  CALL   1D3A
0C3E6:  MOVFF  03,70B
0C3EA:  MOVFF  02,70A
0C3EE:  MOVFF  01,709
0C3F2:  MOVFF  00,708
0C3F6:  MOVFF  319,70F
0C3FA:  MOVFF  318,70E
0C3FE:  MOVFF  317,70D
0C402:  MOVFF  316,70C
0C406:  CALL   1FB2
0C40A:  BNC   C412
0C40C:  BTFSC  xA1.4
0C40E:  BRA    C412
....................       AlarmaSobreTemperatura=ON; 
0C410:  BSF    x9F.1
....................    } 
....................     
....................    if(TiempoLlenado>600){ 
0C412:  MOVF   xA8,W
0C414:  SUBLW  01
0C416:  BC    C426
0C418:  XORLW  FF
0C41A:  BNZ   C422
0C41C:  MOVF   xA7,W
0C41E:  SUBLW  58
0C420:  BC    C426
....................       AlarmaLlenado=ON; 
0C422:  BSF    x9F.2
....................    }else{ 
0C424:  BRA    C428
....................       AlarmaLlenado=OFF; 
0C426:  BCF    x9F.2
....................    } 
....................     
....................    if(!TERM){ 
0C428:  BSF    F93.4
0C42A:  BTFSS  F81.4
0C42C:  BRA    C468
....................       delay_ms(1000); 
0C42E:  MOVLW  04
0C430:  MOVLB  7
0C432:  MOVWF  x00
0C434:  MOVLW  FA
0C436:  MOVWF  x10
0C438:  MOVLB  0
0C43A:  CALL   1992
0C43E:  MOVLB  7
0C440:  DECFSZ x00,F
0C442:  BRA    C434
....................       if(!TERM){ 
0C444:  BSF    F93.4
0C446:  BTFSS  F81.4
0C448:  BRA    C46A
....................          delay_ms(1000); 
0C44A:  MOVLW  04
0C44C:  MOVWF  x00
0C44E:  MOVLW  FA
0C450:  MOVWF  x10
0C452:  MOVLB  0
0C454:  CALL   1992
0C458:  MOVLB  7
0C45A:  DECFSZ x00,F
0C45C:  BRA    C44E
....................          if(!TERM){ 
0C45E:  BSF    F93.4
0C460:  BTFSS  F81.4
0C462:  BRA    C46A
....................             AlarmaTermostato=ON; 
0C464:  MOVLB  0
0C466:  BSF    x9F.3
0C468:  MOVLB  7
....................          } 
....................       } 
....................    } 
....................     
....................    if(!DOOR){ 
0C46A:  BSF    F93.6
0C46C:  BTFSS  F81.6
0C46E:  BRA    C488
....................       //Desfogue_off; 
....................       //Solenoide_off; 
....................       if(CalderinLleno && !Secando && !Finalizo && !Desfogando){ 
0C470:  MOVLB  0
0C472:  BTFSS  xA0.0
0C474:  BRA    C484
0C476:  BTFSC  xA0.3
0C478:  BRA    C484
0C47A:  BTFSC  xA3.1
0C47C:  BRA    C484
0C47E:  BTFSC  xA0.5
0C480:  BRA    C484
....................          AlarmaPuerta=ON; 
0C482:  BSF    x9F.4
....................       } 
....................    }else{ 
0C484:  BRA    C48C
0C486:  MOVLB  7
....................       AlarmaPuerta=OFF; 
0C488:  MOVLB  0
0C48A:  BCF    x9F.4
....................    } 
....................  
....................    if(!STOP){ 
0C48C:  BSF    F93.5
0C48E:  BTFSS  F81.5
0C490:  BRA    C4B2
....................       delay_ms(1000); 
0C492:  MOVLW  04
0C494:  MOVLB  7
0C496:  MOVWF  x00
0C498:  MOVLW  FA
0C49A:  MOVWF  x10
0C49C:  MOVLB  0
0C49E:  CALL   1992
0C4A2:  MOVLB  7
0C4A4:  DECFSZ x00,F
0C4A6:  BRA    C498
....................       if(!STOP){ 
0C4A8:  BSF    F93.5
0C4AA:  BTFSS  F81.5
0C4AC:  BRA    C4B4
....................          AlarmaEmergencia=ON; 
0C4AE:  MOVLB  0
0C4B0:  BSF    x9F.5
0C4B2:  MOVLB  7
....................       } 
....................    } 
....................     
....................    if(AlarmaPuerta || AlarmaTermostato || AlarmaLlenado || AlarmaSobreTemperatura || AlarmaTiempoProlongado || AlarmaEmergencia || AlarmaPresion 
....................    || AlarmaCiclo){ 
0C4B4:  MOVLB  0
0C4B6:  BTFSC  x9F.4
0C4B8:  BRA    C4D6
0C4BA:  BTFSC  x9F.3
0C4BC:  BRA    C4D6
0C4BE:  BTFSC  x9F.2
0C4C0:  BRA    C4D6
0C4C2:  BTFSC  x9F.1
0C4C4:  BRA    C4D6
0C4C6:  BTFSC  x9F.0
0C4C8:  BRA    C4D6
0C4CA:  BTFSC  x9F.5
0C4CC:  BRA    C4D6
0C4CE:  BTFSC  xA3.2
0C4D0:  BRA    C4D6
0C4D2:  BTFSS  x9F.6
0C4D4:  BRA    C95E
....................       ActivaAlarma(1); 
0C4D6:  MOVLW  01
0C4D8:  MOVLB  6
0C4DA:  MOVWF  xFA
0C4DC:  MOVLB  0
0C4DE:  CALL   4D82
....................       if(AlarmaEmergencia){ 
0C4E2:  BTFSS  x9F.5
0C4E4:  BRA    C572
....................          codigoAlarma=1; 
0C4E6:  MOVLW  01
0C4E8:  MOVLB  3
0C4EA:  MOVWF  x98
....................          printf("Funcionamiento.t4f.txt=\" Parada de Emergencia\""); 
0C4EC:  MOVLW  7C
0C4EE:  MOVWF  FF6
0C4F0:  MOVLW  11
0C4F2:  MOVWF  FF7
0C4F4:  MOVLW  00
0C4F6:  MOVWF  FF8
0C4F8:  MOVLB  0
0C4FA:  CALL   38C6
....................          SendDataDisplay(); 
0C4FE:  CALL   38F8
....................          printf("Funcionamiento.t5f.txt=\" Cancelado\""); 
0C502:  MOVLW  AC
0C504:  MOVWF  FF6
0C506:  MOVLW  11
0C508:  MOVWF  FF7
0C50A:  MOVLW  00
0C50C:  MOVWF  FF8
0C50E:  CALL   38C6
....................          SendDataDisplay(); 
0C512:  CALL   38F8
....................          Desfogue_on; 
0C516:  BCF    F8B.1
0C518:  BCF    F94.1
....................          SSR_off; 
0C51A:  BCF    F8D.1
0C51C:  BCF    F96.1
....................          Agua_off; 
0C51E:  BSF    F8B.0
0C520:  BCF    F94.0
....................          Aire_off; 
0C522:  BSF    F8C.0
0C524:  BCF    F95.0
....................          AireEnf_off; 
0C526:  BSF    F8B.2
0C528:  BCF    F94.2
....................          Esterilizando=OFF; 
0C52A:  BCF    xA0.2
....................          Desfogando=OFF; 
0C52C:  BCF    xA0.5
....................          DesfogueSuave=OFF; 
0C52E:  BCF    xA0.6
....................          Esterilizando=OFF; 
0C530:  BCF    xA0.2
....................          //IniciaCiclo=OFF; 
....................          Controlando=0; 
0C532:  MOVLB  3
0C534:  CLRF   x48
....................          if(codigoAnt!=codigoAlarma){ 
0C536:  MOVF   x98,W
0C538:  SUBWF  x99,W
0C53A:  BZ    C54C
....................             codigoAnt=codigoAlarma; 
0C53C:  MOVFF  398,399
....................             GuardaDatoCiclo(); 
0C540:  MOVLB  0
0C542:  CALL   68F6
....................             incrementaCiclos(); 
0C546:  CALL   6C9E
0C54A:  MOVLB  3
....................          } 
....................          if(!flagImprimir){ 
0C54C:  BTFSC  x45.0
0C54E:  BRA    C56E
....................             Imprime=20; 
0C550:  MOVLW  14
0C552:  MOVWF  xA1
....................             Envio_Esclavos(); 
0C554:  MOVLB  0
0C556:  CALL   4A94
....................             delay_ms(100); 
0C55A:  MOVLW  64
0C55C:  MOVLB  7
0C55E:  MOVWF  x10
0C560:  MOVLB  0
0C562:  CALL   1992
....................             Imprime=10; 
0C566:  MOVLW  0A
0C568:  MOVLB  3
0C56A:  MOVWF  xA1
....................             flagImprimir=1; 
0C56C:  BSF    x45.0
....................          } 
....................       }else if(AlarmaPuerta){ 
0C56E:  BRA    C95A
0C570:  MOVLB  0
0C572:  BTFSS  x9F.4
0C574:  BRA    C5D6
....................          codigoAlarma=2; 
0C576:  MOVLW  02
0C578:  MOVLB  3
0C57A:  MOVWF  x98
....................             printf("Funcionamiento.t4f.txt=\" Puerta Abierta\""); 
0C57C:  MOVLW  D0
0C57E:  MOVWF  FF6
0C580:  MOVLW  11
0C582:  MOVWF  FF7
0C584:  MOVLW  00
0C586:  MOVWF  FF8
0C588:  MOVLB  0
0C58A:  CALL   38C6
....................             SendDataDisplay(); 
0C58E:  CALL   38F8
....................             printf("Funcionamiento.t5f.txt=\" Pausado\""); 
0C592:  MOVLW  FA
0C594:  MOVWF  FF6
0C596:  MOVLW  11
0C598:  MOVWF  FF7
0C59A:  MOVLW  00
0C59C:  MOVWF  FF8
0C59E:  CALL   38C6
....................             SendDataDisplay(); 
0C5A2:  CALL   38F8
....................             SSR_off; 
0C5A6:  BCF    F8D.1
0C5A8:  BCF    F96.1
....................             Agua_off; 
0C5AA:  BSF    F8B.0
0C5AC:  BCF    F94.0
....................             Aire_off; 
0C5AE:  BSF    F8C.0
0C5B0:  BCF    F95.0
....................             AireEnf_off;; 
0C5B2:  BSF    F8B.2
0C5B4:  BCF    F94.2
....................             IniciaLlenado=OFF; 
0C5B6:  BCF    x9F.7
....................             IniciaCiclo=OFF; 
0C5B8:  BCF    xA0.1
....................             Esterilizando=OFF; 
0C5BA:  BCF    xA0.2
....................             Controlando=0; 
0C5BC:  MOVLB  3
0C5BE:  CLRF   x48
....................             if(codigoAnt!=codigoAlarma){ 
0C5C0:  MOVF   x98,W
0C5C2:  SUBWF  x99,W
0C5C4:  BZ    C5D2
....................                codigoAnt=codigoAlarma; 
0C5C6:  MOVFF  398,399
....................                GuardaDatoCiclo(); 
0C5CA:  MOVLB  0
0C5CC:  CALL   68F6
0C5D0:  MOVLB  3
....................             } 
....................       }else if(AlarmaLlenado){ 
0C5D2:  BRA    C95A
0C5D4:  MOVLB  0
0C5D6:  BTFSS  x9F.2
0C5D8:  BRA    C664
....................          codigoAlarma=8; 
0C5DA:  MOVLW  08
0C5DC:  MOVLB  3
0C5DE:  MOVWF  x98
....................             printf("Funcionamiento.t4f.txt=\" Tiempo Llenado\""); 
0C5E0:  MOVLW  1C
0C5E2:  MOVWF  FF6
0C5E4:  MOVLW  12
0C5E6:  MOVWF  FF7
0C5E8:  MOVLW  00
0C5EA:  MOVWF  FF8
0C5EC:  MOVLB  0
0C5EE:  CALL   38C6
....................             SendDataDisplay(); 
0C5F2:  CALL   38F8
....................             printf("Funcionamiento.t5f.txt=\" Cancelado\""); 
0C5F6:  MOVLW  46
0C5F8:  MOVWF  FF6
0C5FA:  MOVLW  12
0C5FC:  MOVWF  FF7
0C5FE:  MOVLW  00
0C600:  MOVWF  FF8
0C602:  CALL   38C6
....................             SendDataDisplay(); 
0C606:  CALL   38F8
....................             Desfogue_off; 
0C60A:  BSF    F8B.1
0C60C:  BCF    F94.1
....................             SSR_off; 
0C60E:  BCF    F8D.1
0C610:  BCF    F96.1
....................             Agua_off; 
0C612:  BSF    F8B.0
0C614:  BCF    F94.0
....................             Aire_off; 
0C616:  BSF    F8C.0
0C618:  BCF    F95.0
....................             AireEnf_off;; 
0C61A:  BSF    F8B.2
0C61C:  BCF    F94.2
....................             IniciaLlenado=OFF; 
0C61E:  BCF    x9F.7
....................             IniciaCiclo=OFF; 
0C620:  BCF    xA0.1
....................             Esterilizando=OFF; 
0C622:  BCF    xA0.2
....................             Controlando=0; 
0C624:  MOVLB  3
0C626:  CLRF   x48
....................             if(codigoAnt!=codigoAlarma){ 
0C628:  MOVF   x98,W
0C62A:  SUBWF  x99,W
0C62C:  BZ    C63E
....................                codigoAnt=codigoAlarma; 
0C62E:  MOVFF  398,399
....................                GuardaDatoCiclo(); 
0C632:  MOVLB  0
0C634:  CALL   68F6
....................                incrementaCiclos(); 
0C638:  CALL   6C9E
0C63C:  MOVLB  3
....................             } 
....................             if(!flagImprimir){ 
0C63E:  BTFSC  x45.0
0C640:  BRA    C660
....................                Imprime=21; 
0C642:  MOVLW  15
0C644:  MOVWF  xA1
....................                Envio_Esclavos(); 
0C646:  MOVLB  0
0C648:  CALL   4A94
....................                delay_ms(100); 
0C64C:  MOVLW  64
0C64E:  MOVLB  7
0C650:  MOVWF  x10
0C652:  MOVLB  0
0C654:  CALL   1992
....................                Imprime=10; 
0C658:  MOVLW  0A
0C65A:  MOVLB  3
0C65C:  MOVWF  xA1
....................                flagImprimir=1; 
0C65E:  BSF    x45.0
....................             } 
....................       }else if(AlarmaTermostato){ // Alarma de Termostato 
0C660:  BRA    C95A
0C662:  MOVLB  0
0C664:  BTFSS  x9F.3
0C666:  BRA    C702
....................          codigoAlarma=3; 
0C668:  MOVLW  03
0C66A:  MOVLB  3
0C66C:  MOVWF  x98
....................             tiempo_esterilizacion=0;tiempo_secado=0;          
0C66E:  CLRF   x59
0C670:  CLRF   x5A
....................             printf("Funcionamiento.t4f.txt=\" Termostato\""); 
0C672:  MOVLW  6A
0C674:  MOVWF  FF6
0C676:  MOVLW  12
0C678:  MOVWF  FF7
0C67A:  MOVLW  00
0C67C:  MOVWF  FF8
0C67E:  MOVLB  0
0C680:  CALL   38C6
....................             SendDataDisplay(); 
0C684:  CALL   38F8
....................             printf("Funcionamiento.t5f.txt=\" Cancelado\""); 
0C688:  MOVLW  90
0C68A:  MOVWF  FF6
0C68C:  MOVLW  12
0C68E:  MOVWF  FF7
0C690:  MOVLW  00
0C692:  MOVWF  FF8
0C694:  CALL   38C6
....................             SendDataDisplay(); 
0C698:  CALL   38F8
....................             Desfogue_on;             
0C69C:  BCF    F8B.1
0C69E:  BCF    F94.1
....................             SSR_off; 
0C6A0:  BCF    F8D.1
0C6A2:  BCF    F96.1
....................             Agua_off; 
0C6A4:  BSF    F8B.0
0C6A6:  BCF    F94.0
....................             Aire_off; 
0C6A8:  BSF    F8C.0
0C6AA:  BCF    F95.0
....................             AireEnf_off;; 
0C6AC:  BSF    F8B.2
0C6AE:  BCF    F94.2
....................             Esterilizando=OFF; 
0C6B0:  BCF    xA0.2
....................             Desfogando=OFF; 
0C6B2:  BCF    xA0.5
....................             IniciaCiclo=OFF; 
0C6B4:  BCF    xA0.1
....................             Controlando=0; 
0C6B6:  MOVLB  3
0C6B8:  CLRF   x48
....................             Agua_off; 
0C6BA:  BSF    F8B.0
0C6BC:  BCF    F94.0
....................             Aire_off; 
0C6BE:  BSF    F8C.0
0C6C0:  BCF    F95.0
....................             AireEnf_off;; 
0C6C2:  BSF    F8B.2
0C6C4:  BCF    F94.2
....................             if(codigoAnt!=codigoAlarma){ 
0C6C6:  MOVF   x98,W
0C6C8:  SUBWF  x99,W
0C6CA:  BZ    C6DC
....................                codigoAnt=codigoAlarma; 
0C6CC:  MOVFF  398,399
....................                GuardaDatoCiclo(); 
0C6D0:  MOVLB  0
0C6D2:  CALL   68F6
....................                incrementaCiclos(); 
0C6D6:  CALL   6C9E
0C6DA:  MOVLB  3
....................             } 
....................             if(!flagImprimir){ 
0C6DC:  BTFSC  x45.0
0C6DE:  BRA    C6FE
....................                Imprime=22; 
0C6E0:  MOVLW  16
0C6E2:  MOVWF  xA1
....................                Envio_Esclavos(); 
0C6E4:  MOVLB  0
0C6E6:  CALL   4A94
....................                delay_ms(100); 
0C6EA:  MOVLW  64
0C6EC:  MOVLB  7
0C6EE:  MOVWF  x10
0C6F0:  MOVLB  0
0C6F2:  CALL   1992
....................                Imprime=10; 
0C6F6:  MOVLW  0A
0C6F8:  MOVLB  3
0C6FA:  MOVWF  xA1
....................                flagImprimir=1; 
0C6FC:  BSF    x45.0
....................             } 
....................       }else if(AlarmaSobreTemperatura){ // Alarma de Sobre Temperatura 
0C6FE:  BRA    C95A
0C700:  MOVLB  0
0C702:  BTFSS  x9F.1
0C704:  BRA    C7A4
....................          codigoAlarma=4; 
0C706:  MOVLW  04
0C708:  MOVLB  3
0C70A:  MOVWF  x98
....................          tiempo_esterilizacion=0;tiempo_secado=0;          
0C70C:  CLRF   x59
0C70E:  CLRF   x5A
....................          printf("Funcionamiento.t4f.txt=\" Sobretemperatura\""); 
0C710:  MOVLW  B4
0C712:  MOVWF  FF6
0C714:  MOVLW  12
0C716:  MOVWF  FF7
0C718:  MOVLW  00
0C71A:  MOVWF  FF8
0C71C:  MOVLB  0
0C71E:  CALL   38C6
....................          SendDataDisplay(); 
0C722:  CALL   38F8
....................          printf("Funcionamiento.t5f.txt=\" Cancelado\""); 
0C726:  MOVLW  E0
0C728:  MOVWF  FF6
0C72A:  MOVLW  12
0C72C:  MOVWF  FF7
0C72E:  MOVLW  00
0C730:  MOVWF  FF8
0C732:  CALL   38C6
....................          SendDataDisplay();   
0C736:  CALL   38F8
....................          Desfogue_on; 
0C73A:  BCF    F8B.1
0C73C:  BCF    F94.1
....................          SSR_off; 
0C73E:  BCF    F8D.1
0C740:  BCF    F96.1
....................          Agua_off; 
0C742:  BSF    F8B.0
0C744:  BCF    F94.0
....................          Aire_off; 
0C746:  BSF    F8C.0
0C748:  BCF    F95.0
....................          AireEnf_off;; 
0C74A:  BSF    F8B.2
0C74C:  BCF    F94.2
....................          Controlando=0; 
0C74E:  MOVLB  3
0C750:  CLRF   x48
....................          IniciaLlenado=OFF; 
0C752:  MOVLB  0
0C754:  BCF    x9F.7
....................          IniciaCiclo=OFF; 
0C756:  BCF    xA0.1
....................          Esterilizando=OFF; 
0C758:  BCF    xA0.2
....................          Agua_off; 
0C75A:  BSF    F8B.0
0C75C:  BCF    F94.0
....................          Aire_off; 
0C75E:  BSF    F8C.0
0C760:  BCF    F95.0
....................          AireEnf_off;; 
0C762:  BSF    F8B.2
0C764:  BCF    F94.2
....................          if(codigoAnt!=codigoAlarma){ 
0C766:  MOVLB  3
0C768:  MOVF   x98,W
0C76A:  SUBWF  x99,W
0C76C:  BZ    C77E
....................                codigoAnt=codigoAlarma; 
0C76E:  MOVFF  398,399
....................                GuardaDatoCiclo(); 
0C772:  MOVLB  0
0C774:  CALL   68F6
....................                incrementaCiclos(); 
0C778:  CALL   6C9E
0C77C:  MOVLB  3
....................             } 
....................          if(!flagImprimir){ 
0C77E:  BTFSC  x45.0
0C780:  BRA    C7A0
....................             Imprime=23; 
0C782:  MOVLW  17
0C784:  MOVWF  xA1
....................             Envio_Esclavos(); 
0C786:  MOVLB  0
0C788:  CALL   4A94
....................             delay_ms(100); 
0C78C:  MOVLW  64
0C78E:  MOVLB  7
0C790:  MOVWF  x10
0C792:  MOVLB  0
0C794:  CALL   1992
....................             Imprime=10; 
0C798:  MOVLW  0A
0C79A:  MOVLB  3
0C79C:  MOVWF  xA1
....................             flagImprimir=1; 
0C79E:  BSF    x45.0
....................          } 
....................       }else if(AlarmaTiempoProlongado){ // Alarma de Error de Tiempo: Error por exceso de tiempo de calentamiento. 
0C7A0:  BRA    C95A
0C7A2:  MOVLB  0
0C7A4:  BTFSS  x9F.0
0C7A6:  BRA    C842
....................          codigoAlarma=5; 
0C7A8:  MOVLW  05
0C7AA:  MOVLB  3
0C7AC:  MOVWF  x98
....................          printf("Funcionamiento.t4f.txt=\" Tiempo Prolongado\""); 
0C7AE:  MOVLW  04
0C7B0:  MOVWF  FF6
0C7B2:  MOVLW  13
0C7B4:  MOVWF  FF7
0C7B6:  MOVLW  00
0C7B8:  MOVWF  FF8
0C7BA:  MOVLB  0
0C7BC:  CALL   38C6
....................          SendDataDisplay(); 
0C7C0:  CALL   38F8
....................          printf("Funcionamiento.t5f.txt=\" Cancelado\""); 
0C7C4:  MOVLW  30
0C7C6:  MOVWF  FF6
0C7C8:  MOVLW  13
0C7CA:  MOVWF  FF7
0C7CC:  MOVLW  00
0C7CE:  MOVWF  FF8
0C7D0:  CALL   38C6
....................          SendDataDisplay(); 
0C7D4:  CALL   38F8
....................          Desfogue_on; 
0C7D8:  BCF    F8B.1
0C7DA:  BCF    F94.1
....................          SSR_off; 
0C7DC:  BCF    F8D.1
0C7DE:  BCF    F96.1
....................          Agua_off; 
0C7E0:  BSF    F8B.0
0C7E2:  BCF    F94.0
....................          Aire_off; 
0C7E4:  BSF    F8C.0
0C7E6:  BCF    F95.0
....................          AireEnf_off;; 
0C7E8:  BSF    F8B.2
0C7EA:  BCF    F94.2
....................          Controlando=0; 
0C7EC:  MOVLB  3
0C7EE:  CLRF   x48
....................          IniciaLlenado=OFF; 
0C7F0:  MOVLB  0
0C7F2:  BCF    x9F.7
....................          IniciaCiclo=OFF; 
0C7F4:  BCF    xA0.1
....................          Esterilizando=OFF; 
0C7F6:  BCF    xA0.2
....................          Agua_off; 
0C7F8:  BSF    F8B.0
0C7FA:  BCF    F94.0
....................          Aire_off; 
0C7FC:  BSF    F8C.0
0C7FE:  BCF    F95.0
....................          AireEnf_off;; 
0C800:  BSF    F8B.2
0C802:  BCF    F94.2
....................          if(codigoAnt!=codigoAlarma){ 
0C804:  MOVLB  3
0C806:  MOVF   x98,W
0C808:  SUBWF  x99,W
0C80A:  BZ    C81C
....................                codigoAnt=codigoAlarma; 
0C80C:  MOVFF  398,399
....................                GuardaDatoCiclo(); 
0C810:  MOVLB  0
0C812:  CALL   68F6
....................                incrementaCiclos(); 
0C816:  CALL   6C9E
0C81A:  MOVLB  3
....................             } 
....................          if(!flagImprimir){ 
0C81C:  BTFSC  x45.0
0C81E:  BRA    C83E
....................             Imprime=24; 
0C820:  MOVLW  18
0C822:  MOVWF  xA1
....................             Envio_Esclavos(); 
0C824:  MOVLB  0
0C826:  CALL   4A94
....................             delay_ms(100); 
0C82A:  MOVLW  64
0C82C:  MOVLB  7
0C82E:  MOVWF  x10
0C830:  MOVLB  0
0C832:  CALL   1992
....................             Imprime=10; 
0C836:  MOVLW  0A
0C838:  MOVLB  3
0C83A:  MOVWF  xA1
....................             flagImprimir=1; 
0C83C:  BSF    x45.0
....................          } 
....................       }else if(AlarmaPresion){ // Alarma de Error de SobrePresion: Error por exceso de Presion. 
0C83E:  BRA    C95A
0C840:  MOVLB  0
0C842:  BTFSS  xA3.2
0C844:  BRA    C8D0
....................          codigoAlarma=6; 
0C846:  MOVLW  06
0C848:  MOVLB  3
0C84A:  MOVWF  x98
....................          printf("Funcionamiento.t4f.txt=\" SobrePresin\""); 
0C84C:  MOVLW  54
0C84E:  MOVWF  FF6
0C850:  MOVLW  13
0C852:  MOVWF  FF7
0C854:  MOVLW  00
0C856:  MOVWF  FF8
0C858:  MOVLB  0
0C85A:  CALL   38C6
....................          SendDataDisplay(); 
0C85E:  CALL   38F8
....................          printf("Funcionamiento.t5f.txt=\" Cancelado\""); 
0C862:  MOVLW  7C
0C864:  MOVWF  FF6
0C866:  MOVLW  13
0C868:  MOVWF  FF7
0C86A:  MOVLW  00
0C86C:  MOVWF  FF8
0C86E:  CALL   38C6
....................          SendDataDisplay(); 
0C872:  CALL   38F8
....................          Desfogue_on; 
0C876:  BCF    F8B.1
0C878:  BCF    F94.1
....................          SSR_off; 
0C87A:  BCF    F8D.1
0C87C:  BCF    F96.1
....................          IniciaLlenado=OFF; 
0C87E:  BCF    x9F.7
....................          IniciaCiclo=OFF; 
0C880:  BCF    xA0.1
....................          Esterilizando=OFF; 
0C882:  BCF    xA0.2
....................          Agua_off; 
0C884:  BSF    F8B.0
0C886:  BCF    F94.0
....................          Aire_off; 
0C888:  BSF    F8C.0
0C88A:  BCF    F95.0
....................          AireEnf_off;; 
0C88C:  BSF    F8B.2
0C88E:  BCF    F94.2
....................          Controlando=0; 
0C890:  MOVLB  3
0C892:  CLRF   x48
....................          if(codigoAnt!=codigoAlarma){ 
0C894:  MOVF   x98,W
0C896:  SUBWF  x99,W
0C898:  BZ    C8AA
....................                codigoAnt=codigoAlarma; 
0C89A:  MOVFF  398,399
....................                GuardaDatoCiclo(); 
0C89E:  MOVLB  0
0C8A0:  CALL   68F6
....................                incrementaCiclos(); 
0C8A4:  CALL   6C9E
0C8A8:  MOVLB  3
....................             } 
....................          if(!flagImprimir){ 
0C8AA:  BTFSC  x45.0
0C8AC:  BRA    C8CC
....................             Imprime=25; 
0C8AE:  MOVLW  19
0C8B0:  MOVWF  xA1
....................             Envio_Esclavos(); 
0C8B2:  MOVLB  0
0C8B4:  CALL   4A94
....................             delay_ms(100); 
0C8B8:  MOVLW  64
0C8BA:  MOVLB  7
0C8BC:  MOVWF  x10
0C8BE:  MOVLB  0
0C8C0:  CALL   1992
....................             Imprime=10; 
0C8C4:  MOVLW  0A
0C8C6:  MOVLB  3
0C8C8:  MOVWF  xA1
....................             flagImprimir=1; 
0C8CA:  BSF    x45.0
....................          } 
....................       }else if(AlarmaCiclo){ // Alarma de Error de SobrePresion: Error por exceso de Presion. 
0C8CC:  BRA    C95A
0C8CE:  MOVLB  0
0C8D0:  BTFSS  x9F.6
0C8D2:  BRA    C95C
....................          codigoAlarma=7; 
0C8D4:  MOVLW  07
0C8D6:  MOVLB  3
0C8D8:  MOVWF  x98
....................          printf("Funcionamiento.t4f.txt=\" Error Ciclo\""); 
0C8DA:  MOVLW  A0
0C8DC:  MOVWF  FF6
0C8DE:  MOVLW  13
0C8E0:  MOVWF  FF7
0C8E2:  MOVLW  00
0C8E4:  MOVWF  FF8
0C8E6:  MOVLB  0
0C8E8:  CALL   38C6
....................          SendDataDisplay(); 
0C8EC:  CALL   38F8
....................          printf("Funcionamiento.t5f.txt=\" Cancelado\""); 
0C8F0:  MOVLW  C6
0C8F2:  MOVWF  FF6
0C8F4:  MOVLW  13
0C8F6:  MOVWF  FF7
0C8F8:  MOVLW  00
0C8FA:  MOVWF  FF8
0C8FC:  CALL   38C6
....................          SendDataDisplay(); 
0C900:  CALL   38F8
....................          Desfogue_on; 
0C904:  BCF    F8B.1
0C906:  BCF    F94.1
....................          SSR_off; 
0C908:  BCF    F8D.1
0C90A:  BCF    F96.1
....................          IniciaLlenado=OFF; 
0C90C:  BCF    x9F.7
....................          IniciaCiclo=OFF; 
0C90E:  BCF    xA0.1
....................          Esterilizando=OFF; 
0C910:  BCF    xA0.2
....................          Controlando=0; 
0C912:  MOVLB  3
0C914:  CLRF   x48
....................          Agua_off; 
0C916:  BSF    F8B.0
0C918:  BCF    F94.0
....................          Aire_off; 
0C91A:  BSF    F8C.0
0C91C:  BCF    F95.0
....................          AireEnf_off;; 
0C91E:  BSF    F8B.2
0C920:  BCF    F94.2
....................          if(codigoAnt!=codigoAlarma){ 
0C922:  MOVF   x98,W
0C924:  SUBWF  x99,W
0C926:  BZ    C938
....................                codigoAnt=codigoAlarma; 
0C928:  MOVFF  398,399
....................                GuardaDatoCiclo(); 
0C92C:  MOVLB  0
0C92E:  CALL   68F6
....................                incrementaCiclos(); 
0C932:  CALL   6C9E
0C936:  MOVLB  3
....................             } 
....................          if(!flagImprimir){ 
0C938:  BTFSC  x45.0
0C93A:  BRA    C95A
....................             Imprime=26; 
0C93C:  MOVLW  1A
0C93E:  MOVWF  xA1
....................             Envio_Esclavos(); 
0C940:  MOVLB  0
0C942:  CALL   4A94
....................             delay_ms(100); 
0C946:  MOVLW  64
0C948:  MOVLB  7
0C94A:  MOVWF  x10
0C94C:  MOVLB  0
0C94E:  CALL   1992
....................             Imprime=10; 
0C952:  MOVLW  0A
0C954:  MOVLB  3
0C956:  MOVWF  xA1
....................             flagImprimir=1; 
0C958:  BSF    x45.0
0C95A:  MOVLB  0
....................          } 
....................       } 
....................    } 
....................    else{   
0C95C:  BRA    CEC4
....................       Buzzer_off; 
0C95E:  BCF    F8C.7
0C960:  BCF    F95.7
....................       IniciaCiclo=ON; 
0C962:  BSF    xA0.1
....................       if(flagImprime){ 
0C964:  BTFSS  xA4.7
0C966:  BRA    C98A
....................          Imprime=5; 
0C968:  MOVLW  05
0C96A:  MOVLB  3
0C96C:  MOVWF  xA1
....................          Envio_Esclavos(); 
0C96E:  MOVLB  0
0C970:  CALL   4A94
....................          delay_ms(100); 
0C974:  MOVLW  64
0C976:  MOVLB  7
0C978:  MOVWF  x10
0C97A:  MOVLB  0
0C97C:  CALL   1992
....................          Imprime=10; 
0C980:  MOVLW  0A
0C982:  MOVLB  3
0C984:  MOVWF  xA1
....................          flagImprime=0; 
0C986:  MOVLB  0
0C988:  BCF    xA4.7
....................       } 
....................          if(!CalderinLleno){ 
0C98A:  BTFSC  xA0.0
0C98C:  BRA    C9EC
....................             printf("Funcionamiento.t4f.txt=\" Aplique Agua\""); 
0C98E:  MOVLW  EA
0C990:  MOVWF  FF6
0C992:  MOVLW  13
0C994:  MOVWF  FF7
0C996:  MOVLW  00
0C998:  MOVWF  FF8
0C99A:  CALL   38C6
....................             SendDataDisplay(); 
0C99E:  CALL   38F8
....................             printf("Funcionamiento.t5f.txt=\" Nivel Bajo\""); 
0C9A2:  MOVLW  12
0C9A4:  MOVWF  FF6
0C9A6:  MOVLW  14
0C9A8:  MOVWF  FF7
0C9AA:  MOVLW  00
0C9AC:  MOVWF  FF8
0C9AE:  CALL   38C6
....................             SendDataDisplay(); 
0C9B2:  CALL   38F8
....................             Control=0; 
0C9B6:  MOVLB  3
0C9B8:  CLRF   x46
....................             IniciaLlenado=ON; 
0C9BA:  MOVLB  0
0C9BC:  BSF    x9F.7
....................             Controlando=0; 
0C9BE:  MOVLB  3
0C9C0:  CLRF   x48
....................             Desfogue_on; 
0C9C2:  BCF    F8B.1
0C9C4:  BCF    F94.1
....................             //AguaIn_on; 
....................             Agua_off; 
0C9C6:  BSF    F8B.0
0C9C8:  BCF    F94.0
....................             Aire_off; 
0C9CA:  BSF    F8C.0
0C9CC:  BCF    F95.0
....................             AireEnf_off;; 
0C9CE:  BSF    F8B.2
0C9D0:  BCF    F94.2
....................             codigoAlarma=10; 
0C9D2:  MOVLW  0A
0C9D4:  MOVWF  x98
....................             if(codigoAnt!=codigoAlarma){ 
0C9D6:  MOVF   x98,W
0C9D8:  SUBWF  x99,W
0C9DA:  BZ    C9E8
....................                codigoAnt=codigoAlarma; 
0C9DC:  MOVFF  398,399
....................                GuardaDatoCiclo(); 
0C9E0:  MOVLB  0
0C9E2:  CALL   68F6
0C9E6:  MOVLB  3
....................             } 
....................          } 
....................          else{ 
0C9E8:  BRA    CEC6
0C9EA:  MOVLB  0
....................             //AguaIn_off; 
....................             if(Temperatura>=((float)Setpoint-0.3)){ 
0C9EC:  MOVLB  7
0C9EE:  CLRF   x13
0C9F0:  MOVFF  356,712
0C9F4:  MOVLB  0
0C9F6:  CALL   19BA
0C9FA:  MOVFF  00,700
0C9FE:  MOVFF  01,701
0CA02:  MOVFF  02,702
0CA06:  MOVFF  03,703
0CA0A:  BSF    FD8.1
0CA0C:  MOVFF  03,715
0CA10:  MOVFF  02,714
0CA14:  MOVFF  01,713
0CA18:  MOVFF  00,712
0CA1C:  MOVLW  9A
0CA1E:  MOVLB  7
0CA20:  MOVWF  x19
0CA22:  MOVLW  99
0CA24:  MOVWF  x18
0CA26:  MOVLW  19
0CA28:  MOVWF  x17
0CA2A:  MOVLW  7D
0CA2C:  MOVWF  x16
0CA2E:  MOVLB  0
0CA30:  CALL   1D3A
0CA34:  MOVFF  03,70B
0CA38:  MOVFF  02,70A
0CA3C:  MOVFF  01,709
0CA40:  MOVFF  00,708
0CA44:  MOVFF  319,70F
0CA48:  MOVFF  318,70E
0CA4C:  MOVFF  317,70D
0CA50:  MOVFF  316,70C
0CA54:  CALL   1FB2
0CA58:  BC    CA5C
0CA5A:  BNZ   CA5E
....................                Esterilizando=ON; 
0CA5C:  BSF    xA0.2
....................             } 
....................              
....................             if(Temperatura<((float)Setpoint-0.9) && !Desfogando && !Enfriando){ 
0CA5E:  MOVLB  7
0CA60:  CLRF   x13
0CA62:  MOVFF  356,712
0CA66:  MOVLB  0
0CA68:  CALL   19BA
0CA6C:  MOVFF  00,700
0CA70:  MOVFF  01,701
0CA74:  MOVFF  02,702
0CA78:  MOVFF  03,703
0CA7C:  BSF    FD8.1
0CA7E:  MOVFF  03,715
0CA82:  MOVFF  02,714
0CA86:  MOVFF  01,713
0CA8A:  MOVFF  00,712
0CA8E:  MOVLW  66
0CA90:  MOVLB  7
0CA92:  MOVWF  x19
0CA94:  MOVWF  x18
0CA96:  MOVWF  x17
0CA98:  MOVLW  7E
0CA9A:  MOVWF  x16
0CA9C:  MOVLB  0
0CA9E:  CALL   1D3A
0CAA2:  MOVFF  319,70B
0CAA6:  MOVFF  318,70A
0CAAA:  MOVFF  317,709
0CAAE:  MOVFF  316,708
0CAB2:  MOVFF  03,70F
0CAB6:  MOVFF  02,70E
0CABA:  MOVFF  01,70D
0CABE:  MOVFF  00,70C
0CAC2:  CALL   1FB2
0CAC6:  BNC   CAD2
0CAC8:  BTFSC  xA0.5
0CACA:  BRA    CAD2
0CACC:  BTFSC  xA1.4
0CACE:  BRA    CAD2
....................                Esterilizando=OFF; 
0CAD0:  BCF    xA0.2
....................             } 
....................              
....................             if(!Esterilizando){ 
0CAD2:  BTFSC  xA0.2
0CAD4:  BRA    CB74
....................                codigoAlarma=12; 
0CAD6:  MOVLW  0C
0CAD8:  MOVLB  3
0CADA:  MOVWF  x98
....................                if(codigoAnt!=codigoAlarma){ 
0CADC:  MOVF   x98,W
0CADE:  SUBWF  x99,W
0CAE0:  BZ    CAEE
....................                   codigoAnt=codigoAlarma; 
0CAE2:  MOVFF  398,399
....................                   GuardaDatoCiclo();                   
0CAE6:  MOVLB  0
0CAE8:  CALL   68F6
0CAEC:  MOVLB  3
....................                } 
....................                printf("Funcionamiento.t4f.txt=\" Ninguna\""); 
0CAEE:  MOVLW  38
0CAF0:  MOVWF  FF6
0CAF2:  MOVLW  14
0CAF4:  MOVWF  FF7
0CAF6:  MOVLW  00
0CAF8:  MOVWF  FF8
0CAFA:  MOVLB  0
0CAFC:  CALL   38C6
....................                SendDataDisplay(); 
0CB00:  CALL   38F8
....................                printf("Funcionamiento.t5f.txt=\" Calentando\""); 
0CB04:  MOVLW  5A
0CB06:  MOVWF  FF6
0CB08:  MOVLW  14
0CB0A:  MOVWF  FF7
0CB0C:  MOVLW  00
0CB0E:  MOVWF  FF8
0CB10:  CALL   38C6
....................                SendDataDisplay(); 
0CB14:  CALL   38F8
....................                Control=1; 
0CB18:  MOVLW  01
0CB1A:  MOVLB  3
0CB1C:  MOVWF  x46
....................                Agua_off; 
0CB1E:  BSF    F8B.0
0CB20:  BCF    F94.0
....................                Aire_off; 
0CB22:  BSF    F8C.0
0CB24:  BCF    F95.0
....................                AireEnf_off;; 
0CB26:  BSF    F8B.2
0CB28:  BCF    F94.2
....................                if(Temperatura<=TTrampa){ 
0CB2A:  MOVLB  7
0CB2C:  CLRF   x13
0CB2E:  MOVFF  2D0,712
0CB32:  MOVLB  0
0CB34:  CALL   19BA
0CB38:  MOVFF  319,70B
0CB3C:  MOVFF  318,70A
0CB40:  MOVFF  317,709
0CB44:  MOVFF  316,708
0CB48:  MOVFF  03,70F
0CB4C:  MOVFF  02,70E
0CB50:  MOVFF  01,70D
0CB54:  MOVFF  00,70C
0CB58:  CALL   1FB2
0CB5C:  BC    CB60
0CB5E:  BNZ   CB6A
....................                   Desfogue_on; 
0CB60:  BCF    F8B.1
0CB62:  BCF    F94.1
....................                   Controla(); 
0CB64:  GOTO   6D98
....................                }else{ 
0CB68:  BRA    CB72
....................                   Desfogue_off; 
0CB6A:  BSF    F8B.1
0CB6C:  BCF    F94.1
....................                   ControlaPresionVapor(); 
0CB6E:  CALL   734E
....................                } 
....................             }else{ 
0CB72:  BRA    CEC4
....................                TiempoCiclo=0; 
0CB74:  CLRF   xA6
0CB76:  CLRF   xA5
....................                if(mEst==0 && sEst==0){  
0CB78:  MOVF   xB4,F
0CB7A:  BTFSS  FD8.2
0CB7C:  BRA    CE6A
0CB7E:  MOVF   xB3,F
0CB80:  BTFSS  FD8.2
0CB82:  BRA    CE6A
....................                   if(desfoguelento){ 
0CB84:  BTFSS  xA4.2
0CB86:  BRA    CCD2
....................                      Controlando=0; 
0CB88:  MOVLB  3
0CB8A:  CLRF   x48
....................                         if(Temperatura<=80){     
0CB8C:  MOVFF  319,70B
0CB90:  MOVFF  318,70A
0CB94:  MOVFF  317,709
0CB98:  MOVFF  316,708
0CB9C:  MOVLB  7
0CB9E:  CLRF   x0F
0CBA0:  CLRF   x0E
0CBA2:  MOVLW  20
0CBA4:  MOVWF  x0D
0CBA6:  MOVLW  85
0CBA8:  MOVWF  x0C
0CBAA:  MOVLB  0
0CBAC:  CALL   1FB2
0CBB0:  BC    CBB4
0CBB2:  BNZ   CC4E
....................                            Desfogue_on; 
0CBB4:  BCF    F8B.1
0CBB6:  BCF    F94.1
....................                            Agua_off; 
0CBB8:  BSF    F8B.0
0CBBA:  BCF    F94.0
....................                            Aire_off; 
0CBBC:  BSF    F8C.0
0CBBE:  BCF    F95.0
....................                            AireEnf_off; 
0CBC0:  BSF    F8B.2
0CBC2:  BCF    F94.2
....................                            if(PresionCamara<2+Atmosferica){ 
0CBC4:  MOVLW  02
0CBC6:  MOVLB  3
0CBC8:  ADDWF  x92,W
0CBCA:  MOVF   x69,F
0CBCC:  BNZ   CC4A
0CBCE:  SUBWF  x68,W
0CBD0:  BC    CC4A
....................                               ActivaAlarma(2); 
0CBD2:  MOVLW  02
0CBD4:  MOVLB  6
0CBD6:  MOVWF  xFA
0CBD8:  MOVLB  0
0CBDA:  CALL   4D82
....................                               printf("Funcionamiento.t4f.txt=\" Ninguna\""); 
0CBDE:  MOVLW  80
0CBE0:  MOVWF  FF6
0CBE2:  MOVLW  14
0CBE4:  MOVWF  FF7
0CBE6:  MOVLW  00
0CBE8:  MOVWF  FF8
0CBEA:  CALL   38C6
....................                               SendDataDisplay(); 
0CBEE:  CALL   38F8
....................                               printf("Funcionamiento.t5f.txt=\" Finalizado\""); 
0CBF2:  MOVLW  A2
0CBF4:  MOVWF  FF6
0CBF6:  MOVLW  14
0CBF8:  MOVWF  FF7
0CBFA:  MOVLW  00
0CBFC:  MOVWF  FF8
0CBFE:  CALL   38C6
....................                               SendDataDisplay(); 
0CC02:  CALL   38F8
....................                               Finalizo=ON; 
0CC06:  BSF    xA3.1
....................                               codigoAlarma=14; 
0CC08:  MOVLW  0E
0CC0A:  MOVLB  3
0CC0C:  MOVWF  x98
....................                               if(codigoAnt!=codigoAlarma){ 
0CC0E:  MOVF   x98,W
0CC10:  SUBWF  x99,W
0CC12:  BZ    CC20
....................                                  codigoAnt=codigoAlarma; 
0CC14:  MOVFF  398,399
....................                                  GuardaDatoCiclo();                   
0CC18:  MOVLB  0
0CC1A:  CALL   68F6
0CC1E:  MOVLB  3
....................                               } 
....................                               if(!flagImprimir){//Imprime Ciclo Finalizado 
0CC20:  BTFSC  x45.0
0CC22:  BRA    CC42
....................                                  Imprime=28; 
0CC24:  MOVLW  1C
0CC26:  MOVWF  xA1
....................                                  Envio_Esclavos(); 
0CC28:  MOVLB  0
0CC2A:  CALL   4A94
....................                                  delay_ms(100); 
0CC2E:  MOVLW  64
0CC30:  MOVLB  7
0CC32:  MOVWF  x10
0CC34:  MOVLB  0
0CC36:  CALL   1992
....................                                  Imprime=10; 
0CC3A:  MOVLW  0A
0CC3C:  MOVLB  3
0CC3E:  MOVWF  xA1
....................                                  flagImprimir=1; 
0CC40:  BSF    x45.0
....................                               }                               
....................                               incrementaCiclos(); 
0CC42:  MOVLB  0
0CC44:  CALL   6C9E
0CC48:  MOVLB  3
....................                            } 
....................                         }else{ 
0CC4A:  BRA    CCCE
0CC4C:  MOVLB  0
....................                            codigoAlarma=17; 
0CC4E:  MOVLW  11
0CC50:  MOVLB  3
0CC52:  MOVWF  x98
....................                            if(codigoAnt!=codigoAlarma){ 
0CC54:  MOVF   x98,W
0CC56:  SUBWF  x99,W
0CC58:  BZ    CC64
....................                               codigoAnt=codigoAlarma; 
0CC5A:  MOVFF  398,399
....................                               GuardaDatoCiclo();                   
0CC5E:  MOVLB  0
0CC60:  CALL   68F6
....................                            } 
....................                            //Desfogando=ON; 
....................                            //DesfogueSuave=ON; 
....................                            Enfriando=ON; 
0CC64:  MOVLB  0
0CC66:  BSF    xA1.4
....................                            printf("Funcionamiento.t4f.txt=\" Ninguna\""); 
0CC68:  MOVLW  C8
0CC6A:  MOVWF  FF6
0CC6C:  MOVLW  14
0CC6E:  MOVWF  FF7
0CC70:  MOVLW  00
0CC72:  MOVWF  FF8
0CC74:  CALL   38C6
....................                            SendDataDisplay(); 
0CC78:  CALL   38F8
....................                            printf("Funcionamiento.t5f.txt=\" Enfriando\""); 
0CC7C:  MOVLW  EA
0CC7E:  MOVWF  FF6
0CC80:  MOVLW  14
0CC82:  MOVWF  FF7
0CC84:  MOVLW  00
0CC86:  MOVWF  FF8
0CC88:  CALL   38C6
....................                            SendDataDisplay(); 
0CC8C:  CALL   38F8
....................                            Control=0; 
0CC90:  MOVLB  3
0CC92:  CLRF   x46
....................                            Controlando=0; 
0CC94:  CLRF   x48
....................                            SSR_off; 
0CC96:  BCF    F8D.1
0CC98:  BCF    F96.1
....................                            Desfogue_off; 
0CC9A:  BSF    F8B.1
0CC9C:  BCF    F94.1
....................                            if(PRES){ 
0CC9E:  BSF    F93.7
0CCA0:  BTFSC  F81.7
0CCA2:  BRA    CCBE
....................                               if(PresionCamara>=210) 
0CCA4:  MOVF   x69,F
0CCA6:  BNZ   CCAE
0CCA8:  MOVF   x68,W
0CCAA:  SUBLW  D1
0CCAC:  BC    CCB4
....................                                  Agua_on; 
0CCAE:  BCF    F8B.0
0CCB0:  BCF    F94.0
....................                               else 
0CCB2:  BRA    CCB8
....................                                  Agua_off; 
0CCB4:  BSF    F8B.0
0CCB6:  BCF    F94.0
....................                               AireEnf_off; 
0CCB8:  BSF    F8B.2
0CCBA:  BCF    F94.2
....................                            }else{ 
0CCBC:  BRA    CCC6
....................                               AireEnf_on; 
0CCBE:  BCF    F8B.2
0CCC0:  BCF    F94.2
....................                               Agua_off; 
0CCC2:  BSF    F8B.0
0CCC4:  BCF    F94.0
....................                            } 
....................                            ControlaPresion(); 
0CCC6:  MOVLB  0
0CCC8:  GOTO   7B7E
0CCCC:  MOVLB  3
....................                         } 
....................                   }else{ 
0CCCE:  BRA    CE66
0CCD0:  MOVLB  0
....................                      Controlando=0; 
0CCD2:  MOVLB  3
0CCD4:  CLRF   x48
....................                      Control=0; 
0CCD6:  CLRF   x46
....................                      if(PresionCamara<2+Atmosferica){ 
0CCD8:  MOVLW  02
0CCDA:  ADDWF  x92,W
0CCDC:  MOVF   x69,F
0CCDE:  BTFSS  FD8.2
0CCE0:  BRA    CE0C
0CCE2:  SUBWF  x68,W
0CCE4:  BTFSC  FD8.0
0CCE6:  BRA    CE0C
....................                         if(sSec==0 && mSec==0){   
0CCE8:  MOVLB  0
0CCEA:  MOVF   xB5,F
0CCEC:  BNZ   CDB6
0CCEE:  MOVF   xB6,F
0CCF0:  BNZ   CDB6
....................                            Agua_off; 
0CCF2:  BSF    F8B.0
0CCF4:  BCF    F94.0
....................                            Aire_off; 
0CCF6:  BSF    F8C.0
0CCF8:  BCF    F95.0
....................                            AireEnf_off; 
0CCFA:  BSF    F8B.2
0CCFC:  BCF    F94.2
....................                            if(!DOOR){ 
0CCFE:  BSF    F93.6
0CD00:  BTFSS  F81.6
0CD02:  BRA    CD0A
....................                               Desfogue_off; 
0CD04:  BSF    F8B.1
0CD06:  BCF    F94.1
....................                            }else{ 
0CD08:  BRA    CD0E
....................                               Desfogue_on;  
0CD0A:  BCF    F8B.1
0CD0C:  BCF    F94.1
....................                            } 
....................                            SSR_off; 
0CD0E:  BCF    F8D.1
0CD10:  BCF    F96.1
....................                            Secando=OFF; 
0CD12:  BCF    xA0.3
....................                            if(Temperatura<=95){ 
0CD14:  MOVFF  319,70B
0CD18:  MOVFF  318,70A
0CD1C:  MOVFF  317,709
0CD20:  MOVFF  316,708
0CD24:  MOVLB  7
0CD26:  CLRF   x0F
0CD28:  CLRF   x0E
0CD2A:  MOVLW  3E
0CD2C:  MOVWF  x0D
0CD2E:  MOVLW  85
0CD30:  MOVWF  x0C
0CD32:  MOVLB  0
0CD34:  CALL   1FB2
0CD38:  BC    CD3C
0CD3A:  BNZ   CDAE
....................                               ActivaAlarma(2); 
0CD3C:  MOVLW  02
0CD3E:  MOVLB  6
0CD40:  MOVWF  xFA
0CD42:  MOVLB  0
0CD44:  CALL   4D82
....................                               printf("Funcionamiento.t4f.txt=\" Ninguna\""); 
0CD48:  MOVLW  0E
0CD4A:  MOVWF  FF6
0CD4C:  MOVLW  15
0CD4E:  MOVWF  FF7
0CD50:  MOVLW  00
0CD52:  MOVWF  FF8
0CD54:  CALL   38C6
....................                               SendDataDisplay(); 
0CD58:  CALL   38F8
....................                               printf("Funcionamiento.t5f.txt=\" Finalizado\""); 
0CD5C:  MOVLW  30
0CD5E:  MOVWF  FF6
0CD60:  MOVLW  15
0CD62:  MOVWF  FF7
0CD64:  MOVLW  00
0CD66:  MOVWF  FF8
0CD68:  CALL   38C6
....................                               SendDataDisplay(); 
0CD6C:  CALL   38F8
....................                               Finalizo=ON; 
0CD70:  BSF    xA3.1
....................                               codigoAlarma=14; 
0CD72:  MOVLW  0E
0CD74:  MOVLB  3
0CD76:  MOVWF  x98
....................                               if(codigoAnt!=codigoAlarma){ 
0CD78:  MOVF   x98,W
0CD7A:  SUBWF  x99,W
0CD7C:  BZ    CD8A
....................                                  codigoAnt=codigoAlarma; 
0CD7E:  MOVFF  398,399
....................                                  GuardaDatoCiclo();                   
0CD82:  MOVLB  0
0CD84:  CALL   68F6
0CD88:  MOVLB  3
....................                               } 
....................                               if(!flagImprimir){//Imprime Ciclo Finalizado 
0CD8A:  BTFSC  x45.0
0CD8C:  BRA    CDAC
....................                                  Imprime=28; 
0CD8E:  MOVLW  1C
0CD90:  MOVWF  xA1
....................                                  Envio_Esclavos(); 
0CD92:  MOVLB  0
0CD94:  CALL   4A94
....................                                  delay_ms(100); 
0CD98:  MOVLW  64
0CD9A:  MOVLB  7
0CD9C:  MOVWF  x10
0CD9E:  MOVLB  0
0CDA0:  CALL   1992
....................                                  Imprime=10; 
0CDA4:  MOVLW  0A
0CDA6:  MOVLB  3
0CDA8:  MOVWF  xA1
....................                                  flagImprimir=1; 
0CDAA:  BSF    x45.0
0CDAC:  MOVLB  0
....................                               } 
....................                            } 
....................                            incrementaCiclos(); 
0CDAE:  CALL   6C9E
....................                            Secando=OFF; 
0CDB2:  BCF    xA0.3
....................                         }else{ 
0CDB4:  BRA    CE08
....................                            codigoAlarma=15; 
0CDB6:  MOVLW  0F
0CDB8:  MOVLB  3
0CDBA:  MOVWF  x98
....................                            if(codigoAnt!=codigoAlarma){ 
0CDBC:  MOVF   x98,W
0CDBE:  SUBWF  x99,W
0CDC0:  BZ    CDCC
....................                               codigoAnt=codigoAlarma; 
0CDC2:  MOVFF  398,399
....................                               GuardaDatoCiclo();                   
0CDC6:  MOVLB  0
0CDC8:  CALL   68F6
....................                            } 
....................                            Secando=ON; 
0CDCC:  MOVLB  0
0CDCE:  BSF    xA0.3
....................                            printf("Funcionamiento.t4f.txt=\" Ninguna\""); 
0CDD0:  MOVLW  56
0CDD2:  MOVWF  FF6
0CDD4:  MOVLW  15
0CDD6:  MOVWF  FF7
0CDD8:  MOVLW  00
0CDDA:  MOVWF  FF8
0CDDC:  CALL   38C6
....................                            SendDataDisplay(); 
0CDE0:  CALL   38F8
....................                            printf("Funcionamiento.t5f.txt=\" Secando\""); 
0CDE4:  MOVLW  78
0CDE6:  MOVWF  FF6
0CDE8:  MOVLW  15
0CDEA:  MOVWF  FF7
0CDEC:  MOVLW  00
0CDEE:  MOVWF  FF8
0CDF0:  CALL   38C6
....................                            SendDataDisplay(); 
0CDF4:  CALL   38F8
....................                            Agua_off; 
0CDF8:  BSF    F8B.0
0CDFA:  BCF    F94.0
....................                            Aire_off; 
0CDFC:  BSF    F8C.0
0CDFE:  BCF    F95.0
....................                            AireEnf_off; 
0CE00:  BSF    F8B.2
0CE02:  BCF    F94.2
....................                            SSR_off; 
0CE04:  BCF    F8D.1
0CE06:  BCF    F96.1
....................                            //CalientaChaqueta(); 
....................                         } 
....................                      }else{ 
0CE08:  BRA    CE68
0CE0A:  MOVLB  3
....................                         codigoAlarma=13; 
0CE0C:  MOVLW  0D
0CE0E:  MOVWF  x98
....................                         if(codigoAnt!=codigoAlarma){ 
0CE10:  MOVF   x98,W
0CE12:  SUBWF  x99,W
0CE14:  BZ    CE20
....................                            codigoAnt=codigoAlarma; 
0CE16:  MOVFF  398,399
....................                            GuardaDatoCiclo();                   
0CE1A:  MOVLB  0
0CE1C:  CALL   68F6
....................                         } 
....................                         Desfogando=ON; 
0CE20:  MOVLB  0
0CE22:  BSF    xA0.5
....................                         printf("Funcionamiento.t4f.txt=\" Ninguna\""); 
0CE24:  MOVLW  9A
0CE26:  MOVWF  FF6
0CE28:  MOVLW  15
0CE2A:  MOVWF  FF7
0CE2C:  MOVLW  00
0CE2E:  MOVWF  FF8
0CE30:  CALL   38C6
....................                         SendDataDisplay(); 
0CE34:  CALL   38F8
....................                         printf("Funcionamiento.t5f.txt=\" Despresurizando\""); 
0CE38:  MOVLW  BC
0CE3A:  MOVWF  FF6
0CE3C:  MOVLW  15
0CE3E:  MOVWF  FF7
0CE40:  MOVLW  00
0CE42:  MOVWF  FF8
0CE44:  CALL   38C6
....................                         SendDataDisplay(); 
0CE48:  CALL   38F8
....................                         Control=0; 
0CE4C:  MOVLB  3
0CE4E:  CLRF   x46
....................                         SSR_off; 
0CE50:  BCF    F8D.1
0CE52:  BCF    F96.1
....................                         Controlando=0; 
0CE54:  CLRF   x48
....................                         Desfogue_on; 
0CE56:  BCF    F8B.1
0CE58:  BCF    F94.1
....................                         Agua_off; 
0CE5A:  BSF    F8B.0
0CE5C:  BCF    F94.0
....................                         Aire_off; 
0CE5E:  BSF    F8C.0
0CE60:  BCF    F95.0
....................                         AireEnf_off; 
0CE62:  BSF    F8B.2
0CE64:  BCF    F94.2
0CE66:  MOVLB  0
....................                      } 
....................                   } 
....................                    
....................                }else{ 
0CE68:  BRA    CEC4
....................                   codigoAlarma=16; 
0CE6A:  MOVLW  10
0CE6C:  MOVLB  3
0CE6E:  MOVWF  x98
....................                   if(codigoAnt!=codigoAlarma){ 
0CE70:  MOVF   x98,W
0CE72:  SUBWF  x99,W
0CE74:  BZ    CE82
....................                      codigoAnt=codigoAlarma; 
0CE76:  MOVFF  398,399
....................                      GuardaDatoCiclo();                   
0CE7A:  MOVLB  0
0CE7C:  CALL   68F6
0CE80:  MOVLB  3
....................                   } 
....................                   printf("Funcionamiento.t4f.txt=\" Ninguna\""); 
0CE82:  MOVLW  E6
0CE84:  MOVWF  FF6
0CE86:  MOVLW  15
0CE88:  MOVWF  FF7
0CE8A:  MOVLW  00
0CE8C:  MOVWF  FF8
0CE8E:  MOVLB  0
0CE90:  CALL   38C6
....................                   SendDataDisplay(); 
0CE94:  CALL   38F8
....................                   printf("Funcionamiento.t5f.txt=\" Esterilizando\""); 
0CE98:  MOVLW  08
0CE9A:  MOVWF  FF6
0CE9C:  MOVLW  16
0CE9E:  MOVWF  FF7
0CEA0:  MOVLW  00
0CEA2:  MOVWF  FF8
0CEA4:  CALL   38C6
....................                   SendDataDisplay(); 
0CEA8:  CALL   38F8
....................                   Agua_off; 
0CEAC:  BSF    F8B.0
0CEAE:  BCF    F94.0
....................                   Aire_off; 
0CEB0:  BSF    F8C.0
0CEB2:  BCF    F95.0
....................                   AireEnf_off; 
0CEB4:  BSF    F8B.2
0CEB6:  BCF    F94.2
....................                   Control=1; 
0CEB8:  MOVLW  01
0CEBA:  MOVLB  3
0CEBC:  MOVWF  x46
....................                   ControlaPresionVapor(); 
0CEBE:  MOVLB  0
0CEC0:  CALL   734E
0CEC4:  MOVLB  3
....................                } 
....................             } 
....................          } 
....................    } 
....................  
....................    if(tguarda>=180){ 
0CEC6:  MOVLB  0
0CEC8:  MOVF   xB2,F
0CECA:  BNZ   CED2
0CECC:  MOVF   xB1,W
0CECE:  SUBLW  B3
0CED0:  BC    CEDE
....................       if(!Ciclo) 
0CED2:  BTFSC  xA1.3
0CED4:  BRA    CEDA
....................          GuardaDatoCiclo(); 
0CED6:  CALL   68F6
....................       tguarda=0; 
0CEDA:  CLRF   xB2
0CEDC:  CLRF   xB1
....................    } 
....................     
....................    if(Grafica==1){ 
0CEDE:  BTFSS  xA4.4
0CEE0:  BRA    CFC8
....................       printf("add 12,0,%1.0f",Temperatura*0.5); 
0CEE2:  MOVFF  319,719
0CEE6:  MOVFF  318,718
0CEEA:  MOVFF  317,717
0CEEE:  MOVFF  316,716
0CEF2:  MOVLB  7
0CEF4:  CLRF   x1D
0CEF6:  CLRF   x1C
0CEF8:  CLRF   x1B
0CEFA:  MOVLW  7E
0CEFC:  MOVWF  x1A
0CEFE:  MOVLB  0
0CF00:  CALL   39AE
0CF04:  MOVFF  00,700
0CF08:  MOVFF  01,701
0CF0C:  MOVFF  02,702
0CF10:  MOVFF  03,703
0CF14:  MOVLW  30
0CF16:  MOVWF  FF6
0CF18:  MOVLW  16
0CF1A:  MOVWF  FF7
0CF1C:  MOVLW  00
0CF1E:  MOVWF  FF8
0CF20:  MOVLW  09
0CF22:  MOVLB  7
0CF24:  MOVWF  x05
0CF26:  MOVLB  0
0CF28:  CALL   4EDC
0CF2C:  MOVLW  00
0CF2E:  MOVWF  FE9
0CF30:  MOVFF  703,708
0CF34:  MOVFF  702,707
0CF38:  MOVFF  701,706
0CF3C:  MOVFF  700,705
0CF40:  MOVLB  7
0CF42:  CLRF   x09
0CF44:  MOVLB  0
0CF46:  CALL   507C
....................       SendDataDisplay(); 
0CF4A:  CALL   38F8
....................       printf("add 12,1,%1.0f",PresionCamara*0.5); 
0CF4E:  MOVFF  369,713
0CF52:  MOVFF  368,712
0CF56:  CALL   19BA
0CF5A:  MOVFF  03,719
0CF5E:  MOVFF  02,718
0CF62:  MOVFF  01,717
0CF66:  MOVFF  00,716
0CF6A:  MOVLB  7
0CF6C:  CLRF   x1D
0CF6E:  CLRF   x1C
0CF70:  CLRF   x1B
0CF72:  MOVLW  7E
0CF74:  MOVWF  x1A
0CF76:  MOVLB  0
0CF78:  CALL   39AE
0CF7C:  MOVFF  00,700
0CF80:  MOVFF  01,701
0CF84:  MOVFF  02,702
0CF88:  MOVFF  03,703
0CF8C:  MOVLW  40
0CF8E:  MOVWF  FF6
0CF90:  MOVLW  16
0CF92:  MOVWF  FF7
0CF94:  MOVLW  00
0CF96:  MOVWF  FF8
0CF98:  MOVLW  09
0CF9A:  MOVLB  7
0CF9C:  MOVWF  x05
0CF9E:  MOVLB  0
0CFA0:  CALL   4EDC
0CFA4:  MOVLW  00
0CFA6:  MOVWF  FE9
0CFA8:  MOVFF  703,708
0CFAC:  MOVFF  702,707
0CFB0:  MOVFF  701,706
0CFB4:  MOVFF  700,705
0CFB8:  MOVLB  7
0CFBA:  CLRF   x09
0CFBC:  MOVLB  0
0CFBE:  CALL   507C
....................       SendDataDisplay(); 
0CFC2:  CALL   38F8
....................       Grafica=0; 
0CFC6:  BCF    xA4.4
....................    } 
....................    if(Lectura==1)// Utilizado para visualizar la lectura de la temperatura 
0CFC8:  BTFSS  xA4.3
0CFCA:  BRA    D276
....................    {                             
....................       Lectura=0; 
0CFCC:  BCF    xA4.3
....................       printf("t6f.txt=\"%3.1fC\"",Temperatura); 
0CFCE:  MOVLW  50
0CFD0:  MOVWF  FF6
0CFD2:  MOVLW  16
0CFD4:  MOVWF  FF7
0CFD6:  MOVLW  00
0CFD8:  MOVWF  FF8
0CFDA:  MOVLW  09
0CFDC:  MOVLB  7
0CFDE:  MOVWF  x05
0CFE0:  MOVLB  0
0CFE2:  CALL   4EDC
0CFE6:  MOVLW  02
0CFE8:  MOVWF  FE9
0CFEA:  MOVFF  319,708
0CFEE:  MOVFF  318,707
0CFF2:  MOVFF  317,706
0CFF6:  MOVFF  316,705
0CFFA:  MOVLW  01
0CFFC:  MOVLB  7
0CFFE:  MOVWF  x09
0D000:  MOVLB  0
0D002:  CALL   507C
0D006:  MOVLW  B0
0D008:  BTFSS  F9E.4
0D00A:  BRA    D008
0D00C:  MOVWF  FAD
0D00E:  MOVLW  43
0D010:  BTFSS  F9E.4
0D012:  BRA    D010
0D014:  MOVWF  FAD
0D016:  MOVLW  22
0D018:  BTFSS  F9E.4
0D01A:  BRA    D018
0D01C:  MOVWF  FAD
....................       SendDataDisplay(); 
0D01E:  CALL   38F8
....................       printf("Funcionamiento.t7f.txt=\"%03LukPa\"",PresionCamara); 
0D022:  MOVLW  62
0D024:  MOVWF  FF6
0D026:  MOVLW  16
0D028:  MOVWF  FF7
0D02A:  MOVLW  00
0D02C:  MOVWF  FF8
0D02E:  MOVLW  18
0D030:  MOVLB  7
0D032:  MOVWF  x05
0D034:  MOVLB  0
0D036:  CALL   4EDC
0D03A:  MOVLW  0A
0D03C:  MOVWF  FE9
0D03E:  MOVFF  369,705
0D042:  MOVFF  368,704
0D046:  CALL   527C
0D04A:  MOVLW  7F
0D04C:  MOVWF  FF6
0D04E:  MOVLW  16
0D050:  MOVWF  FF7
0D052:  MOVLW  00
0D054:  MOVWF  FF8
0D056:  MOVLW  04
0D058:  MOVLB  7
0D05A:  MOVWF  x05
0D05C:  MOVLB  0
0D05E:  CALL   4EDC
....................       SendDataDisplay(); 
0D062:  CALL   38F8
....................       //printf("Funcionamiento.t12f.txt=\"%03LukPa\"",PresionPreCamara); 
....................       printf("Funcionamiento.t12f.txt=\"000kPa\""); 
0D066:  MOVLW  84
0D068:  MOVWF  FF6
0D06A:  MOVLW  16
0D06C:  MOVWF  FF7
0D06E:  MOVLW  00
0D070:  MOVWF  FF8
0D072:  CALL   38C6
....................       SendDataDisplay(); 
0D076:  CALL   38F8
....................       printf("Funcionamiento.t9f.txt=\"%03u\"",Setpoint); 
0D07A:  MOVLW  A6
0D07C:  MOVWF  FF6
0D07E:  MOVLW  16
0D080:  MOVWF  FF7
0D082:  MOVLW  00
0D084:  MOVWF  FF8
0D086:  MOVLW  18
0D088:  MOVLB  7
0D08A:  MOVWF  x05
0D08C:  MOVLB  0
0D08E:  CALL   4EDC
0D092:  MOVFF  356,705
0D096:  MOVLW  03
0D098:  MOVLB  7
0D09A:  MOVWF  x06
0D09C:  MOVLB  0
0D09E:  CALL   4F3A
0D0A2:  MOVLW  22
0D0A4:  BTFSS  F9E.4
0D0A6:  BRA    D0A4
0D0A8:  MOVWF  FAD
....................       SendDataDisplay();       
0D0AA:  CALL   38F8
....................       printf("Funcionamiento.t10f.txt=\"%02u:%02u\"",mEst,sEst); 
0D0AE:  MOVLW  C4
0D0B0:  MOVWF  FF6
0D0B2:  MOVLW  16
0D0B4:  MOVWF  FF7
0D0B6:  MOVLW  00
0D0B8:  MOVWF  FF8
0D0BA:  MOVLW  19
0D0BC:  MOVLB  7
0D0BE:  MOVWF  x05
0D0C0:  MOVLB  0
0D0C2:  CALL   4EDC
0D0C6:  MOVFF  B4,705
0D0CA:  MOVLW  01
0D0CC:  MOVLB  7
0D0CE:  MOVWF  x06
0D0D0:  MOVLB  0
0D0D2:  CALL   4F3A
0D0D6:  MOVLW  3A
0D0D8:  BTFSS  F9E.4
0D0DA:  BRA    D0D8
0D0DC:  MOVWF  FAD
0D0DE:  MOVFF  B3,705
0D0E2:  MOVLW  01
0D0E4:  MOVLB  7
0D0E6:  MOVWF  x06
0D0E8:  MOVLB  0
0D0EA:  CALL   4F3A
0D0EE:  MOVLW  22
0D0F0:  BTFSS  F9E.4
0D0F2:  BRA    D0F0
0D0F4:  MOVWF  FAD
....................       SendDataDisplay();       
0D0F6:  CALL   38F8
....................       printf("Funcionamiento.t11f.txt=\"%02u:%02u\"",mSec,sSec); 
0D0FA:  MOVLW  E8
0D0FC:  MOVWF  FF6
0D0FE:  MOVLW  16
0D100:  MOVWF  FF7
0D102:  MOVLW  00
0D104:  MOVWF  FF8
0D106:  MOVLW  19
0D108:  MOVLB  7
0D10A:  MOVWF  x05
0D10C:  MOVLB  0
0D10E:  CALL   4EDC
0D112:  MOVFF  B6,705
0D116:  MOVLW  01
0D118:  MOVLB  7
0D11A:  MOVWF  x06
0D11C:  MOVLB  0
0D11E:  CALL   4F3A
0D122:  MOVLW  3A
0D124:  BTFSS  F9E.4
0D126:  BRA    D124
0D128:  MOVWF  FAD
0D12A:  MOVFF  B5,705
0D12E:  MOVLW  01
0D130:  MOVLB  7
0D132:  MOVWF  x06
0D134:  MOVLB  0
0D136:  CALL   4F3A
0D13A:  MOVLW  22
0D13C:  BTFSS  F9E.4
0D13E:  BRA    D13C
0D140:  MOVWF  FAD
....................       SendDataDisplay();       
0D142:  CALL   38F8
....................        
....................       printf("fecha.txt=\"%2.1fT:%2.1f Fecha:%02u/%02u/20%02u Hora: %02u:%02u:%02u\"",Aumento2,Tactual,Dia,Mes,Year,Hora,Minuto,Segundo); 
0D146:  MOVLW  0C
0D148:  MOVWF  FF6
0D14A:  MOVLW  17
0D14C:  MOVWF  FF7
0D14E:  MOVLW  00
0D150:  MOVWF  FF8
0D152:  MOVLW  0B
0D154:  MOVLB  7
0D156:  MOVWF  x05
0D158:  MOVLB  0
0D15A:  CALL   4EDC
0D15E:  MOVLW  01
0D160:  MOVWF  FE9
0D162:  MOVFF  2CA,708
0D166:  MOVFF  2C9,707
0D16A:  MOVFF  2C8,706
0D16E:  MOVFF  2C7,705
0D172:  MOVLB  7
0D174:  MOVWF  x09
0D176:  MOVLB  0
0D178:  CALL   507C
0D17C:  MOVLW  54
0D17E:  BTFSS  F9E.4
0D180:  BRA    D17E
0D182:  MOVWF  FAD
0D184:  MOVLW  3A
0D186:  BTFSS  F9E.4
0D188:  BRA    D186
0D18A:  MOVWF  FAD
0D18C:  MOVLW  01
0D18E:  MOVWF  FE9
0D190:  MOVFF  344,708
0D194:  MOVFF  343,707
0D198:  MOVFF  342,706
0D19C:  MOVFF  341,705
0D1A0:  MOVLB  7
0D1A2:  MOVWF  x09
0D1A4:  MOVLB  0
0D1A6:  CALL   507C
0D1AA:  MOVLW  23
0D1AC:  MOVWF  FF6
0D1AE:  MOVLW  17
0D1B0:  MOVWF  FF7
0D1B2:  MOVLW  00
0D1B4:  MOVWF  FF8
0D1B6:  MOVLW  07
0D1B8:  MOVLB  7
0D1BA:  MOVWF  x05
0D1BC:  MOVLB  0
0D1BE:  CALL   4EDC
0D1C2:  MOVFF  38D,705
0D1C6:  MOVLW  01
0D1C8:  MOVLB  7
0D1CA:  MOVWF  x06
0D1CC:  MOVLB  0
0D1CE:  CALL   4F3A
0D1D2:  MOVLW  2F
0D1D4:  BTFSS  F9E.4
0D1D6:  BRA    D1D4
0D1D8:  MOVWF  FAD
0D1DA:  MOVFF  38C,705
0D1DE:  MOVLW  01
0D1E0:  MOVLB  7
0D1E2:  MOVWF  x06
0D1E4:  MOVLB  0
0D1E6:  CALL   4F3A
0D1EA:  MOVLW  2F
0D1EC:  BTFSS  F9E.4
0D1EE:  BRA    D1EC
0D1F0:  MOVWF  FAD
0D1F2:  MOVLW  32
0D1F4:  BTFSS  F9E.4
0D1F6:  BRA    D1F4
0D1F8:  MOVWF  FAD
0D1FA:  MOVLW  30
0D1FC:  BTFSS  F9E.4
0D1FE:  BRA    D1FC
0D200:  MOVWF  FAD
0D202:  MOVFF  38B,705
0D206:  MOVLW  01
0D208:  MOVLB  7
0D20A:  MOVWF  x06
0D20C:  MOVLB  0
0D20E:  CALL   4F3A
0D212:  MOVLW  3A
0D214:  MOVWF  FF6
0D216:  MOVLW  17
0D218:  MOVWF  FF7
0D21A:  MOVLW  00
0D21C:  MOVWF  FF8
0D21E:  MOVLW  07
0D220:  MOVLB  7
0D222:  MOVWF  x05
0D224:  MOVLB  0
0D226:  CALL   4EDC
0D22A:  MOVFF  38E,705
0D22E:  MOVLW  01
0D230:  MOVLB  7
0D232:  MOVWF  x06
0D234:  MOVLB  0
0D236:  CALL   4F3A
0D23A:  MOVLW  3A
0D23C:  BTFSS  F9E.4
0D23E:  BRA    D23C
0D240:  MOVWF  FAD
0D242:  MOVFF  38F,705
0D246:  MOVLW  01
0D248:  MOVLB  7
0D24A:  MOVWF  x06
0D24C:  MOVLB  0
0D24E:  CALL   4F3A
0D252:  MOVLW  3A
0D254:  BTFSS  F9E.4
0D256:  BRA    D254
0D258:  MOVWF  FAD
0D25A:  MOVFF  390,705
0D25E:  MOVLW  01
0D260:  MOVLB  7
0D262:  MOVWF  x06
0D264:  MOVLB  0
0D266:  CALL   4F3A
0D26A:  MOVLW  22
0D26C:  BTFSS  F9E.4
0D26E:  BRA    D26C
0D270:  MOVWF  FAD
....................       SendDataDisplay(); 
0D272:  CALL   38F8
0D276:  MOVLB  3
....................    } 
....................  
....................  
.................... } 
.................... //_-------------------------------------------------------------------------------------------------------------------------------------------------------- 
....................  
.................... //_-------------------------------------------------------------------------------------------------------------------------------------------------------- 
....................       if(Menu==100){ //Menu de Configuracin de Parametros de Control 
0D278:  MOVF   x4F,W
0D27A:  SUBLW  64
0D27C:  BTFSS  FD8.2
0D27E:  GOTO   DF08
....................       
....................       if(Opcion2>12) 
0D282:  MOVF   x58,W
0D284:  SUBLW  0C
0D286:  BC    D28C
....................          Opcion2=1; 
0D288:  MOVLW  01
0D28A:  MOVWF  x58
....................       if(Opcion2<1) 
0D28C:  MOVF   x58,F
0D28E:  BNZ   D294
....................          Opcion2=12; 
0D290:  MOVLW  0C
0D292:  MOVWF  x58
....................        
....................       if(Opcion2==1){ 
0D294:  DECFSZ x58,W
0D296:  BRA    D3D8
....................          printf("Config.t2c.txt=\"Proporcional\""); 
0D298:  MOVLW  52
0D29A:  MOVWF  FF6
0D29C:  MOVLW  17
0D29E:  MOVWF  FF7
0D2A0:  MOVLW  00
0D2A2:  MOVWF  FF8
0D2A4:  MOVLB  0
0D2A6:  CALL   38C6
....................          SendDataDisplay();       
0D2AA:  CALL   38F8
....................          printf("t3c.txt=\"%2.0f\"",Ganancia); 
0D2AE:  MOVLW  70
0D2B0:  MOVWF  FF6
0D2B2:  MOVLW  17
0D2B4:  MOVWF  FF7
0D2B6:  MOVLW  00
0D2B8:  MOVWF  FF8
0D2BA:  MOVLW  09
0D2BC:  MOVLB  7
0D2BE:  MOVWF  x05
0D2C0:  MOVLB  0
0D2C2:  CALL   4EDC
0D2C6:  MOVLW  01
0D2C8:  MOVWF  FE9
0D2CA:  MOVFF  2F9,708
0D2CE:  MOVFF  2F8,707
0D2D2:  MOVFF  2F7,706
0D2D6:  MOVFF  2F6,705
0D2DA:  MOVLB  7
0D2DC:  CLRF   x09
0D2DE:  MOVLB  0
0D2E0:  CALL   507C
0D2E4:  MOVLW  22
0D2E6:  BTFSS  F9E.4
0D2E8:  BRA    D2E6
0D2EA:  MOVWF  FAD
....................          SendDataDisplay(); 
0D2EC:  CALL   38F8
....................          if(RX_Buffer[4]==0x0a){//Tecla Arriba Oprimida 
0D2F0:  MOVF   34,W
0D2F2:  SUBLW  0A
0D2F4:  BNZ   D32E
....................                Ganancia+=1.0; 
0D2F6:  BCF    FD8.1
0D2F8:  MOVFF  2F9,715
0D2FC:  MOVFF  2F8,714
0D300:  MOVFF  2F7,713
0D304:  MOVFF  2F6,712
0D308:  MOVLB  7
0D30A:  CLRF   x19
0D30C:  CLRF   x18
0D30E:  CLRF   x17
0D310:  MOVLW  7F
0D312:  MOVWF  x16
0D314:  MOVLB  0
0D316:  CALL   1D3A
0D31A:  MOVFF  03,2F9
0D31E:  MOVFF  02,2F8
0D322:  MOVFF  01,2F7
0D326:  MOVFF  00,2F6
....................                RX_Buffer[4]=0x00;   
0D32A:  CLRF   34
....................                RX_Buffer2[4]=0x00;             
0D32C:  CLRF   3F
....................                //BorraBuffer(); 
....................          } 
....................              
....................          if(RX_Buffer[4]==0x0b){//Tecla Abajo Oprimida 
0D32E:  MOVF   34,W
0D330:  SUBLW  0B
0D332:  BNZ   D36C
....................                Ganancia-=1.0; 
0D334:  BSF    FD8.1
0D336:  MOVFF  2F9,715
0D33A:  MOVFF  2F8,714
0D33E:  MOVFF  2F7,713
0D342:  MOVFF  2F6,712
0D346:  MOVLB  7
0D348:  CLRF   x19
0D34A:  CLRF   x18
0D34C:  CLRF   x17
0D34E:  MOVLW  7F
0D350:  MOVWF  x16
0D352:  MOVLB  0
0D354:  CALL   1D3A
0D358:  MOVFF  03,2F9
0D35C:  MOVFF  02,2F8
0D360:  MOVFF  01,2F7
0D364:  MOVFF  00,2F6
....................                RX_Buffer[4]=0x00; 
0D368:  CLRF   34
....................                RX_Buffer2[4]=0x00;             
0D36A:  CLRF   3F
....................                //BorraBuffer(); 
....................          } 
....................           
....................          if(Ganancia>40) 
0D36C:  MOVLB  7
0D36E:  CLRF   x0B
0D370:  CLRF   x0A
0D372:  MOVLW  20
0D374:  MOVWF  x09
0D376:  MOVLW  84
0D378:  MOVWF  x08
0D37A:  MOVFF  2F9,70F
0D37E:  MOVFF  2F8,70E
0D382:  MOVFF  2F7,70D
0D386:  MOVFF  2F6,70C
0D38A:  MOVLB  0
0D38C:  CALL   1FB2
0D390:  BNC   D39E
....................             Ganancia=1; 
0D392:  MOVLB  2
0D394:  CLRF   xF9
0D396:  CLRF   xF8
0D398:  CLRF   xF7
0D39A:  MOVLW  7F
0D39C:  MOVWF  xF6
....................          if(Ganancia<1) 
0D39E:  MOVFF  2F9,70B
0D3A2:  MOVFF  2F8,70A
0D3A6:  MOVFF  2F7,709
0D3AA:  MOVFF  2F6,708
0D3AE:  MOVLB  7
0D3B0:  CLRF   x0F
0D3B2:  CLRF   x0E
0D3B4:  CLRF   x0D
0D3B6:  MOVLW  7F
0D3B8:  MOVWF  x0C
0D3BA:  MOVLB  0
0D3BC:  CALL   1FB2
0D3C0:  BNC   D3D2
....................             Ganancia=40; 
0D3C2:  MOVLB  2
0D3C4:  CLRF   xF9
0D3C6:  CLRF   xF8
0D3C8:  MOVLW  20
0D3CA:  MOVWF  xF7
0D3CC:  MOVLW  84
0D3CE:  MOVWF  xF6
0D3D0:  MOVLB  0
....................       }else if(Opcion2==2){ 
0D3D2:  GOTO   DB52
0D3D6:  MOVLB  3
0D3D8:  MOVF   x58,W
0D3DA:  SUBLW  02
0D3DC:  BTFSS  FD8.2
0D3DE:  BRA    D522
....................          printf("Config.t2c.txt=\"Tciclo\""); 
0D3E0:  MOVLW  80
0D3E2:  MOVWF  FF6
0D3E4:  MOVLW  17
0D3E6:  MOVWF  FF7
0D3E8:  MOVLW  00
0D3EA:  MOVWF  FF8
0D3EC:  MOVLB  0
0D3EE:  CALL   38C6
....................          SendDataDisplay();       
0D3F2:  CALL   38F8
....................          printf("t3c.txt=\"%2.0f\"",Tciclo); 
0D3F6:  MOVLW  98
0D3F8:  MOVWF  FF6
0D3FA:  MOVLW  17
0D3FC:  MOVWF  FF7
0D3FE:  MOVLW  00
0D400:  MOVWF  FF8
0D402:  MOVLW  09
0D404:  MOVLB  7
0D406:  MOVWF  x05
0D408:  MOVLB  0
0D40A:  CALL   4EDC
0D40E:  MOVLW  01
0D410:  MOVWF  FE9
0D412:  MOVFF  2E1,708
0D416:  MOVFF  2E0,707
0D41A:  MOVFF  2DF,706
0D41E:  MOVFF  2DE,705
0D422:  MOVLB  7
0D424:  CLRF   x09
0D426:  MOVLB  0
0D428:  CALL   507C
0D42C:  MOVLW  22
0D42E:  BTFSS  F9E.4
0D430:  BRA    D42E
0D432:  MOVWF  FAD
....................          SendDataDisplay(); 
0D434:  CALL   38F8
....................          if(RX_Buffer[4]==0x0a){//Tecla Arriba Oprimida 
0D438:  MOVF   34,W
0D43A:  SUBLW  0A
0D43C:  BNZ   D476
....................                Tciclo+=1.0; 
0D43E:  BCF    FD8.1
0D440:  MOVFF  2E1,715
0D444:  MOVFF  2E0,714
0D448:  MOVFF  2DF,713
0D44C:  MOVFF  2DE,712
0D450:  MOVLB  7
0D452:  CLRF   x19
0D454:  CLRF   x18
0D456:  CLRF   x17
0D458:  MOVLW  7F
0D45A:  MOVWF  x16
0D45C:  MOVLB  0
0D45E:  CALL   1D3A
0D462:  MOVFF  03,2E1
0D466:  MOVFF  02,2E0
0D46A:  MOVFF  01,2DF
0D46E:  MOVFF  00,2DE
....................                RX_Buffer[4]=0x00;   
0D472:  CLRF   34
....................                RX_Buffer2[4]=0x00;             
0D474:  CLRF   3F
....................                //BorraBuffer(); 
....................          } 
....................              
....................          if(RX_Buffer[4]==0x0b){//Tecla Abajo Oprimida             
0D476:  MOVF   34,W
0D478:  SUBLW  0B
0D47A:  BNZ   D4B4
....................                Tciclo-=1.0; 
0D47C:  BSF    FD8.1
0D47E:  MOVFF  2E1,715
0D482:  MOVFF  2E0,714
0D486:  MOVFF  2DF,713
0D48A:  MOVFF  2DE,712
0D48E:  MOVLB  7
0D490:  CLRF   x19
0D492:  CLRF   x18
0D494:  CLRF   x17
0D496:  MOVLW  7F
0D498:  MOVWF  x16
0D49A:  MOVLB  0
0D49C:  CALL   1D3A
0D4A0:  MOVFF  03,2E1
0D4A4:  MOVFF  02,2E0
0D4A8:  MOVFF  01,2DF
0D4AC:  MOVFF  00,2DE
....................                RX_Buffer[4]=0x00; 
0D4B0:  CLRF   34
....................                RX_Buffer2[4]=0x00;             
0D4B2:  CLRF   3F
....................                //BorraBuffer(); 
....................          } 
....................           
....................          if(Tciclo>20) 
0D4B4:  MOVLB  7
0D4B6:  CLRF   x0B
0D4B8:  CLRF   x0A
0D4BA:  MOVLW  20
0D4BC:  MOVWF  x09
0D4BE:  MOVLW  83
0D4C0:  MOVWF  x08
0D4C2:  MOVFF  2E1,70F
0D4C6:  MOVFF  2E0,70E
0D4CA:  MOVFF  2DF,70D
0D4CE:  MOVFF  2DE,70C
0D4D2:  MOVLB  0
0D4D4:  CALL   1FB2
0D4D8:  BNC   D4E8
....................             Tciclo=5; 
0D4DA:  MOVLB  2
0D4DC:  CLRF   xE1
0D4DE:  CLRF   xE0
0D4E0:  MOVLW  20
0D4E2:  MOVWF  xDF
0D4E4:  MOVLW  81
0D4E6:  MOVWF  xDE
....................          if(Tciclo<5) 
0D4E8:  MOVFF  2E1,70B
0D4EC:  MOVFF  2E0,70A
0D4F0:  MOVFF  2DF,709
0D4F4:  MOVFF  2DE,708
0D4F8:  MOVLB  7
0D4FA:  CLRF   x0F
0D4FC:  CLRF   x0E
0D4FE:  MOVLW  20
0D500:  MOVWF  x0D
0D502:  MOVLW  81
0D504:  MOVWF  x0C
0D506:  MOVLB  0
0D508:  CALL   1FB2
0D50C:  BNC   D51E
....................             Tciclo=20; 
0D50E:  MOVLB  2
0D510:  CLRF   xE1
0D512:  CLRF   xE0
0D514:  MOVLW  20
0D516:  MOVWF  xDF
0D518:  MOVLW  83
0D51A:  MOVWF  xDE
0D51C:  MOVLB  0
....................       }else if(Opcion2==3){ 
0D51E:  BRA    DB52
0D520:  MOVLB  3
0D522:  MOVF   x58,W
0D524:  SUBLW  03
0D526:  BNZ   D5A0
....................          printf("Config.t2c.txt=\"Ajuste +\""); 
0D528:  MOVLW  A8
0D52A:  MOVWF  FF6
0D52C:  MOVLW  17
0D52E:  MOVWF  FF7
0D530:  MOVLW  00
0D532:  MOVWF  FF8
0D534:  MOVLB  0
0D536:  CALL   38C6
....................          SendDataDisplay();       
0D53A:  CALL   38F8
....................          printf("t3c.txt=\"%u\"",Sensor[0].Ajuste); 
0D53E:  MOVLW  C2
0D540:  MOVWF  FF6
0D542:  MOVLW  17
0D544:  MOVWF  FF7
0D546:  MOVLW  00
0D548:  MOVWF  FF8
0D54A:  MOVLW  09
0D54C:  MOVLB  7
0D54E:  MOVWF  x05
0D550:  MOVLB  0
0D552:  CALL   4EDC
0D556:  MOVFF  428,705
0D55A:  MOVLW  1B
0D55C:  MOVLB  7
0D55E:  MOVWF  x06
0D560:  MOVLB  0
0D562:  CALL   4F3A
0D566:  MOVLW  22
0D568:  BTFSS  F9E.4
0D56A:  BRA    D568
0D56C:  MOVWF  FAD
....................          SendDataDisplay(); 
0D56E:  CALL   38F8
....................          if(RX_Buffer[4]==0x0a){//Tecla Arriba Oprimida             
0D572:  MOVF   34,W
0D574:  SUBLW  0A
0D576:  BNZ   D588
....................                if(Sensor[0].Ajuste<40) 
0D578:  MOVLB  4
0D57A:  MOVF   x28,W
0D57C:  SUBLW  27
0D57E:  BNC   D582
....................                   Sensor[0].Ajuste++; 
0D580:  INCF   x28,F
....................                RX_Buffer[4]=0x00;   
0D582:  CLRF   34
....................                RX_Buffer2[4]=0x00;             
0D584:  CLRF   3F
0D586:  MOVLB  0
....................                //BorraBuffer();             
....................          } 
....................              
....................          if(RX_Buffer[4]==0x0b){//Tecla Abajo Oprimida             
0D588:  MOVF   34,W
0D58A:  SUBLW  0B
0D58C:  BNZ   D59C
....................                if(Sensor[0].Ajuste>0) 
0D58E:  MOVLB  4
0D590:  MOVF   x28,F
0D592:  BZ    D596
....................                   Sensor[0].Ajuste--; 
0D594:  DECF   x28,F
....................                RX_Buffer[4]=0x00; 
0D596:  CLRF   34
....................                RX_Buffer2[4]=0x00;             
0D598:  CLRF   3F
0D59A:  MOVLB  0
....................                //BorraBuffer(); 
....................          } 
....................       }else if(Opcion2==4){ 
0D59C:  BRA    DB52
0D59E:  MOVLB  3
0D5A0:  MOVF   x58,W
0D5A2:  SUBLW  04
0D5A4:  BNZ   D61E
....................          printf("Config.t2c.txt=\"Ajuste -\""); 
0D5A6:  MOVLW  D0
0D5A8:  MOVWF  FF6
0D5AA:  MOVLW  17
0D5AC:  MOVWF  FF7
0D5AE:  MOVLW  00
0D5B0:  MOVWF  FF8
0D5B2:  MOVLB  0
0D5B4:  CALL   38C6
....................          SendDataDisplay();       
0D5B8:  CALL   38F8
....................          printf("t3c.txt=\"%u\"",Sensor[0].Ajusten); 
0D5BC:  MOVLW  EA
0D5BE:  MOVWF  FF6
0D5C0:  MOVLW  17
0D5C2:  MOVWF  FF7
0D5C4:  MOVLW  00
0D5C6:  MOVWF  FF8
0D5C8:  MOVLW  09
0D5CA:  MOVLB  7
0D5CC:  MOVWF  x05
0D5CE:  MOVLB  0
0D5D0:  CALL   4EDC
0D5D4:  MOVFF  429,705
0D5D8:  MOVLW  1B
0D5DA:  MOVLB  7
0D5DC:  MOVWF  x06
0D5DE:  MOVLB  0
0D5E0:  CALL   4F3A
0D5E4:  MOVLW  22
0D5E6:  BTFSS  F9E.4
0D5E8:  BRA    D5E6
0D5EA:  MOVWF  FAD
....................          SendDataDisplay(); 
0D5EC:  CALL   38F8
....................          if(RX_Buffer[4]==0x0a){//Tecla Arriba Oprimida             
0D5F0:  MOVF   34,W
0D5F2:  SUBLW  0A
0D5F4:  BNZ   D606
....................                if(Sensor[0].Ajusten<40) 
0D5F6:  MOVLB  4
0D5F8:  MOVF   x29,W
0D5FA:  SUBLW  27
0D5FC:  BNC   D600
....................                   Sensor[0].Ajusten++; 
0D5FE:  INCF   x29,F
....................                RX_Buffer[4]=0x00;   
0D600:  CLRF   34
....................                RX_Buffer2[4]=0x00;             
0D602:  CLRF   3F
0D604:  MOVLB  0
....................                //BorraBuffer();             
....................          } 
....................              
....................          if(RX_Buffer[4]==0x0b){//Tecla Abajo Oprimida             
0D606:  MOVF   34,W
0D608:  SUBLW  0B
0D60A:  BNZ   D61A
....................                if(Sensor[0].Ajusten>0) 
0D60C:  MOVLB  4
0D60E:  MOVF   x29,F
0D610:  BZ    D614
....................                   Sensor[0].Ajusten--; 
0D612:  DECF   x29,F
....................                RX_Buffer[4]=0x00; 
0D614:  CLRF   34
....................                RX_Buffer2[4]=0x00;             
0D616:  CLRF   3F
0D618:  MOVLB  0
....................                //BorraBuffer(); 
....................          } 
....................       }else if(Opcion2==5){ 
0D61A:  BRA    DB52
0D61C:  MOVLB  3
0D61E:  MOVF   x58,W
0D620:  SUBLW  05
0D622:  BNZ   D69E
....................          printf("Config.t2c.txt=\"Derivativo\""); 
0D624:  MOVLW  F8
0D626:  MOVWF  FF6
0D628:  MOVLW  17
0D62A:  MOVWF  FF7
0D62C:  MOVLW  00
0D62E:  MOVWF  FF8
0D630:  MOVLB  0
0D632:  CALL   38C6
....................          SendDataDisplay();       
0D636:  CALL   38F8
....................          printf("t3c.txt=\"%u\"",Derivativo); 
0D63A:  MOVLW  14
0D63C:  MOVWF  FF6
0D63E:  MOVLW  18
0D640:  MOVWF  FF7
0D642:  MOVLW  00
0D644:  MOVWF  FF8
0D646:  MOVLW  09
0D648:  MOVLB  7
0D64A:  MOVWF  x05
0D64C:  MOVLB  0
0D64E:  CALL   4EDC
0D652:  MOVFF  32F,705
0D656:  MOVLW  1B
0D658:  MOVLB  7
0D65A:  MOVWF  x06
0D65C:  MOVLB  0
0D65E:  CALL   4F3A
0D662:  MOVLW  22
0D664:  BTFSS  F9E.4
0D666:  BRA    D664
0D668:  MOVWF  FAD
....................          SendDataDisplay(); 
0D66A:  CALL   38F8
....................          if(RX_Buffer[4]==0x0a){//Tecla Arriba Oprimida 
0D66E:  MOVF   34,W
0D670:  SUBLW  0A
0D672:  BNZ   D684
....................                if(Derivativo<40) 
0D674:  MOVLB  3
0D676:  MOVF   x2F,W
0D678:  SUBLW  27
0D67A:  BNC   D67E
....................                   Derivativo++; 
0D67C:  INCF   x2F,F
....................                RX_Buffer[4]=0x00;   
0D67E:  CLRF   34
....................                RX_Buffer2[4]=0x00;             
0D680:  CLRF   3F
0D682:  MOVLB  0
....................                //BorraBuffer(); 
....................          } 
....................              
....................          if(RX_Buffer[4]==0x0b){//Tecla Abajo Oprimida 
0D684:  MOVF   34,W
0D686:  SUBLW  0B
0D688:  BNZ   D69A
....................                if(Derivativo>1) 
0D68A:  MOVLB  3
0D68C:  MOVF   x2F,W
0D68E:  SUBLW  01
0D690:  BC    D694
....................                   Derivativo--; 
0D692:  DECF   x2F,F
....................                RX_Buffer[4]=0x00; 
0D694:  CLRF   34
....................                RX_Buffer2[4]=0x00;             
0D696:  CLRF   3F
0D698:  MOVLB  0
....................                //BorraBuffer();             
....................          } 
....................       }else if(Opcion2==6){ 
0D69A:  BRA    DB52
0D69C:  MOVLB  3
0D69E:  MOVF   x58,W
0D6A0:  SUBLW  06
0D6A2:  BNZ   D71E
....................          printf("Config.t2c.txt=\"Integral\""); 
0D6A4:  MOVLW  22
0D6A6:  MOVWF  FF6
0D6A8:  MOVLW  18
0D6AA:  MOVWF  FF7
0D6AC:  MOVLW  00
0D6AE:  MOVWF  FF8
0D6B0:  MOVLB  0
0D6B2:  CALL   38C6
....................          SendDataDisplay();       
0D6B6:  CALL   38F8
....................          printf("t3c.txt=\"%u\"",Integral); 
0D6BA:  MOVLW  3C
0D6BC:  MOVWF  FF6
0D6BE:  MOVLW  18
0D6C0:  MOVWF  FF7
0D6C2:  MOVLW  00
0D6C4:  MOVWF  FF8
0D6C6:  MOVLW  09
0D6C8:  MOVLB  7
0D6CA:  MOVWF  x05
0D6CC:  MOVLB  0
0D6CE:  CALL   4EDC
0D6D2:  MOVFF  32E,705
0D6D6:  MOVLW  1B
0D6D8:  MOVLB  7
0D6DA:  MOVWF  x06
0D6DC:  MOVLB  0
0D6DE:  CALL   4F3A
0D6E2:  MOVLW  22
0D6E4:  BTFSS  F9E.4
0D6E6:  BRA    D6E4
0D6E8:  MOVWF  FAD
....................          SendDataDisplay(); 
0D6EA:  CALL   38F8
....................          if(RX_Buffer[4]==0x0a){//Tecla Arriba Oprimida             
0D6EE:  MOVF   34,W
0D6F0:  SUBLW  0A
0D6F2:  BNZ   D704
....................                if(Integral<5) 
0D6F4:  MOVLB  3
0D6F6:  MOVF   x2E,W
0D6F8:  SUBLW  04
0D6FA:  BNC   D6FE
....................                   Integral++; 
0D6FC:  INCF   x2E,F
....................                RX_Buffer[4]=0x00;   
0D6FE:  CLRF   34
....................                RX_Buffer2[4]=0x00;             
0D700:  CLRF   3F
0D702:  MOVLB  0
....................                //BorraBuffer(); 
....................          } 
....................              
....................          if(RX_Buffer[4]==0x0b){//Tecla Abajo Oprimida             
0D704:  MOVF   34,W
0D706:  SUBLW  0B
0D708:  BNZ   D71A
....................                if(Integral>1) 
0D70A:  MOVLB  3
0D70C:  MOVF   x2E,W
0D70E:  SUBLW  01
0D710:  BC    D714
....................                   Integral--; 
0D712:  DECF   x2E,F
....................                RX_Buffer[4]=0x00; 
0D714:  CLRF   34
....................                RX_Buffer2[4]=0x00;             
0D716:  CLRF   3F
0D718:  MOVLB  0
....................                //BorraBuffer(); 
....................          } 
....................       }else if(Opcion2==7){ 
0D71A:  BRA    DB52
0D71C:  MOVLB  3
0D71E:  MOVF   x58,W
0D720:  SUBLW  07
0D722:  BNZ   D79E
....................          printf("Config.t2c.txt=\"Media\""); 
0D724:  MOVLW  4A
0D726:  MOVWF  FF6
0D728:  MOVLW  18
0D72A:  MOVWF  FF7
0D72C:  MOVLW  00
0D72E:  MOVWF  FF8
0D730:  MOVLB  0
0D732:  CALL   38C6
....................          SendDataDisplay();       
0D736:  CALL   38F8
....................          printf("t3c.txt=\"%u\"",MediaMovil); 
0D73A:  MOVLW  62
0D73C:  MOVWF  FF6
0D73E:  MOVLW  18
0D740:  MOVWF  FF7
0D742:  MOVLW  00
0D744:  MOVWF  FF8
0D746:  MOVLW  09
0D748:  MOVLB  7
0D74A:  MOVWF  x05
0D74C:  MOVLB  0
0D74E:  CALL   4EDC
0D752:  MOVFF  2CF,705
0D756:  MOVLW  1B
0D758:  MOVLB  7
0D75A:  MOVWF  x06
0D75C:  MOVLB  0
0D75E:  CALL   4F3A
0D762:  MOVLW  22
0D764:  BTFSS  F9E.4
0D766:  BRA    D764
0D768:  MOVWF  FAD
....................          SendDataDisplay(); 
0D76A:  CALL   38F8
....................          if(RX_Buffer[4]==0x0a){//Tecla Arriba Oprimida 
0D76E:  MOVF   34,W
0D770:  SUBLW  0A
0D772:  BNZ   D784
....................                if(MediaMovil<80) 
0D774:  MOVLB  2
0D776:  MOVF   xCF,W
0D778:  SUBLW  4F
0D77A:  BNC   D77E
....................                   MediaMovil++; 
0D77C:  INCF   xCF,F
....................                RX_Buffer[4]=0x00;   
0D77E:  CLRF   34
....................                RX_Buffer2[4]=0x00;             
0D780:  CLRF   3F
0D782:  MOVLB  0
....................                //BorraBuffer(); 
....................          } 
....................              
....................          if(RX_Buffer[4]==0x0b){//Tecla Abajo Oprimida 
0D784:  MOVF   34,W
0D786:  SUBLW  0B
0D788:  BNZ   D79A
....................                if(MediaMovil>10) 
0D78A:  MOVLB  2
0D78C:  MOVF   xCF,W
0D78E:  SUBLW  0A
0D790:  BC    D794
....................                   MediaMovil--; 
0D792:  DECF   xCF,F
....................                RX_Buffer[4]=0x00; 
0D794:  CLRF   34
....................                RX_Buffer2[4]=0x00;             
0D796:  CLRF   3F
0D798:  MOVLB  0
....................                //BorraBuffer();             
....................          } 
....................       }else if(Opcion2==8){ 
0D79A:  BRA    DB52
0D79C:  MOVLB  3
0D79E:  MOVF   x58,W
0D7A0:  SUBLW  08
0D7A2:  BTFSS  FD8.2
0D7A4:  BRA    D8D0
....................          printf("Config.t2c.txt=\"RPT100B\""); 
0D7A6:  MOVLW  70
0D7A8:  MOVWF  FF6
0D7AA:  MOVLW  18
0D7AC:  MOVWF  FF7
0D7AE:  MOVLW  00
0D7B0:  MOVWF  FF8
0D7B2:  MOVLB  0
0D7B4:  CALL   38C6
....................          SendDataDisplay();       
0D7B8:  CALL   38F8
....................          printf("t3c.txt=\"%2.1f\"",Sensor[0].RPT100); 
0D7BC:  MOVLW  8A
0D7BE:  MOVWF  FF6
0D7C0:  MOVLW  18
0D7C2:  MOVWF  FF7
0D7C4:  MOVLW  00
0D7C6:  MOVWF  FF8
0D7C8:  MOVLW  09
0D7CA:  MOVLB  7
0D7CC:  MOVWF  x05
0D7CE:  MOVLB  0
0D7D0:  CALL   4EDC
0D7D4:  MOVLW  01
0D7D6:  MOVWF  FE9
0D7D8:  MOVFF  41D,708
0D7DC:  MOVFF  41C,707
0D7E0:  MOVFF  41B,706
0D7E4:  MOVFF  41A,705
0D7E8:  MOVLB  7
0D7EA:  MOVWF  x09
0D7EC:  MOVLB  0
0D7EE:  CALL   507C
0D7F2:  MOVLW  22
0D7F4:  BTFSS  F9E.4
0D7F6:  BRA    D7F4
0D7F8:  MOVWF  FAD
....................          SendDataDisplay(); 
0D7FA:  CALL   38F8
....................          if(RX_Buffer[4]==0x0a){//Tecla Arriba Oprimida             
0D7FE:  MOVF   34,W
0D800:  SUBLW  0A
0D802:  BNZ   D866
....................                if(Sensor[0].RPT100<2.0) 
0D804:  MOVFF  41D,70B
0D808:  MOVFF  41C,70A
0D80C:  MOVFF  41B,709
0D810:  MOVFF  41A,708
0D814:  MOVLB  7
0D816:  CLRF   x0F
0D818:  CLRF   x0E
0D81A:  CLRF   x0D
0D81C:  MOVLW  80
0D81E:  MOVWF  x0C
0D820:  MOVLB  0
0D822:  CALL   1FB2
0D826:  BNC   D862
....................                   Sensor[0].RPT100+=0.1; 
0D828:  BCF    FD8.1
0D82A:  MOVFF  41D,715
0D82E:  MOVFF  41C,714
0D832:  MOVFF  41B,713
0D836:  MOVFF  41A,712
0D83A:  MOVLW  CD
0D83C:  MOVLB  7
0D83E:  MOVWF  x19
0D840:  MOVLW  CC
0D842:  MOVWF  x18
0D844:  MOVLW  4C
0D846:  MOVWF  x17
0D848:  MOVLW  7B
0D84A:  MOVWF  x16
0D84C:  MOVLB  0
0D84E:  CALL   1D3A
0D852:  MOVFF  03,41D
0D856:  MOVFF  02,41C
0D85A:  MOVFF  01,41B
0D85E:  MOVFF  00,41A
....................                RX_Buffer[4]=0x00;   
0D862:  CLRF   34
....................                RX_Buffer2[4]=0x00;             
0D864:  CLRF   3F
....................                //BorraBuffer(); 
....................          } 
....................              
....................          if(RX_Buffer[4]==0x0b){//Tecla Abajo Oprimida 
0D866:  MOVF   34,W
0D868:  SUBLW  0B
0D86A:  BNZ   D8CC
....................                if(Sensor[0].RPT100>0.0) 
0D86C:  MOVLB  7
0D86E:  CLRF   x0B
0D870:  CLRF   x0A
0D872:  CLRF   x09
0D874:  CLRF   x08
0D876:  MOVFF  41D,70F
0D87A:  MOVFF  41C,70E
0D87E:  MOVFF  41B,70D
0D882:  MOVFF  41A,70C
0D886:  MOVLB  0
0D888:  CALL   1FB2
0D88C:  BNC   D8C8
....................                   Sensor[0].RPT100-=0.1; 
0D88E:  BSF    FD8.1
0D890:  MOVFF  41D,715
0D894:  MOVFF  41C,714
0D898:  MOVFF  41B,713
0D89C:  MOVFF  41A,712
0D8A0:  MOVLW  CD
0D8A2:  MOVLB  7
0D8A4:  MOVWF  x19
0D8A6:  MOVLW  CC
0D8A8:  MOVWF  x18
0D8AA:  MOVLW  4C
0D8AC:  MOVWF  x17
0D8AE:  MOVLW  7B
0D8B0:  MOVWF  x16
0D8B2:  MOVLB  0
0D8B4:  CALL   1D3A
0D8B8:  MOVFF  03,41D
0D8BC:  MOVFF  02,41C
0D8C0:  MOVFF  01,41B
0D8C4:  MOVFF  00,41A
....................                RX_Buffer[4]=0x00; 
0D8C8:  CLRF   34
....................                RX_Buffer2[4]=0x00;             
0D8CA:  CLRF   3F
....................                //BorraBuffer(); 
....................          } 
....................       }else if(Opcion2==9){ 
0D8CC:  BRA    DB52
0D8CE:  MOVLB  3
0D8D0:  MOVF   x58,W
0D8D2:  SUBLW  09
0D8D4:  BTFSS  FD8.2
0D8D6:  BRA    DA02
....................          printf("Config.t2c.txt=\"RPT100B 2\""); 
0D8D8:  MOVLW  9A
0D8DA:  MOVWF  FF6
0D8DC:  MOVLW  18
0D8DE:  MOVWF  FF7
0D8E0:  MOVLW  00
0D8E2:  MOVWF  FF8
0D8E4:  MOVLB  0
0D8E6:  CALL   38C6
....................          SendDataDisplay();       
0D8EA:  CALL   38F8
....................          printf("t3c.txt=\"%2.1f\"",Sensor[1].RPT100); 
0D8EE:  MOVLW  B6
0D8F0:  MOVWF  FF6
0D8F2:  MOVLW  18
0D8F4:  MOVWF  FF7
0D8F6:  MOVLW  00
0D8F8:  MOVWF  FF8
0D8FA:  MOVLW  09
0D8FC:  MOVLB  7
0D8FE:  MOVWF  x05
0D900:  MOVLB  0
0D902:  CALL   4EDC
0D906:  MOVLW  01
0D908:  MOVWF  FE9
0D90A:  MOVFF  581,708
0D90E:  MOVFF  580,707
0D912:  MOVFF  57F,706
0D916:  MOVFF  57E,705
0D91A:  MOVLB  7
0D91C:  MOVWF  x09
0D91E:  MOVLB  0
0D920:  CALL   507C
0D924:  MOVLW  22
0D926:  BTFSS  F9E.4
0D928:  BRA    D926
0D92A:  MOVWF  FAD
....................          SendDataDisplay(); 
0D92C:  CALL   38F8
....................          if(RX_Buffer[4]==0x0a){//Tecla Arriba Oprimida 
0D930:  MOVF   34,W
0D932:  SUBLW  0A
0D934:  BNZ   D998
....................                if(Sensor[1].RPT100<2.0) 
0D936:  MOVFF  581,70B
0D93A:  MOVFF  580,70A
0D93E:  MOVFF  57F,709
0D942:  MOVFF  57E,708
0D946:  MOVLB  7
0D948:  CLRF   x0F
0D94A:  CLRF   x0E
0D94C:  CLRF   x0D
0D94E:  MOVLW  80
0D950:  MOVWF  x0C
0D952:  MOVLB  0
0D954:  CALL   1FB2
0D958:  BNC   D994
....................                   Sensor[1].RPT100+=0.1; 
0D95A:  BCF    FD8.1
0D95C:  MOVFF  581,715
0D960:  MOVFF  580,714
0D964:  MOVFF  57F,713
0D968:  MOVFF  57E,712
0D96C:  MOVLW  CD
0D96E:  MOVLB  7
0D970:  MOVWF  x19
0D972:  MOVLW  CC
0D974:  MOVWF  x18
0D976:  MOVLW  4C
0D978:  MOVWF  x17
0D97A:  MOVLW  7B
0D97C:  MOVWF  x16
0D97E:  MOVLB  0
0D980:  CALL   1D3A
0D984:  MOVFF  03,581
0D988:  MOVFF  02,580
0D98C:  MOVFF  01,57F
0D990:  MOVFF  00,57E
....................                RX_Buffer[4]=0x00;   
0D994:  CLRF   34
....................                RX_Buffer2[4]=0x00;             
0D996:  CLRF   3F
....................                //BorraBuffer(); 
....................          } 
....................              
....................          if(RX_Buffer[4]==0x0b){//Tecla Abajo Oprimida 
0D998:  MOVF   34,W
0D99A:  SUBLW  0B
0D99C:  BNZ   D9FE
....................                if(Sensor[1].RPT100>0.0) 
0D99E:  MOVLB  7
0D9A0:  CLRF   x0B
0D9A2:  CLRF   x0A
0D9A4:  CLRF   x09
0D9A6:  CLRF   x08
0D9A8:  MOVFF  581,70F
0D9AC:  MOVFF  580,70E
0D9B0:  MOVFF  57F,70D
0D9B4:  MOVFF  57E,70C
0D9B8:  MOVLB  0
0D9BA:  CALL   1FB2
0D9BE:  BNC   D9FA
....................                   Sensor[1].RPT100-=0.1; 
0D9C0:  BSF    FD8.1
0D9C2:  MOVFF  581,715
0D9C6:  MOVFF  580,714
0D9CA:  MOVFF  57F,713
0D9CE:  MOVFF  57E,712
0D9D2:  MOVLW  CD
0D9D4:  MOVLB  7
0D9D6:  MOVWF  x19
0D9D8:  MOVLW  CC
0D9DA:  MOVWF  x18
0D9DC:  MOVLW  4C
0D9DE:  MOVWF  x17
0D9E0:  MOVLW  7B
0D9E2:  MOVWF  x16
0D9E4:  MOVLB  0
0D9E6:  CALL   1D3A
0D9EA:  MOVFF  03,581
0D9EE:  MOVFF  02,580
0D9F2:  MOVFF  01,57F
0D9F6:  MOVFF  00,57E
....................                RX_Buffer[4]=0x00; 
0D9FA:  CLRF   34
....................                RX_Buffer2[4]=0x00;             
0D9FC:  CLRF   3F
....................                //BorraBuffer(); 
....................          } 
....................       }else if(Opcion2==10){ 
0D9FE:  BRA    DB52
0DA00:  MOVLB  3
0DA02:  MOVF   x58,W
0DA04:  SUBLW  0A
0DA06:  BNZ   DA56
....................          printf("Config.t2c.txt=\"Ciclos\""); 
0DA08:  MOVLW  C6
0DA0A:  MOVWF  FF6
0DA0C:  MOVLW  18
0DA0E:  MOVWF  FF7
0DA10:  MOVLW  00
0DA12:  MOVWF  FF8
0DA14:  MOVLB  0
0DA16:  CALL   38C6
....................          SendDataDisplay();       
0DA1A:  CALL   38F8
....................          printf("t3c.txt=\"%03Lu\"",Ciclos); 
0DA1E:  MOVLW  DE
0DA20:  MOVWF  FF6
0DA22:  MOVLW  18
0DA24:  MOVWF  FF7
0DA26:  MOVLW  00
0DA28:  MOVWF  FF8
0DA2A:  MOVLW  09
0DA2C:  MOVLB  7
0DA2E:  MOVWF  x05
0DA30:  MOVLB  0
0DA32:  CALL   4EDC
0DA36:  MOVLW  0A
0DA38:  MOVWF  FE9
0DA3A:  MOVFF  36D,705
0DA3E:  MOVFF  36C,704
0DA42:  CALL   527C
0DA46:  MOVLW  22
0DA48:  BTFSS  F9E.4
0DA4A:  BRA    DA48
0DA4C:  MOVWF  FAD
....................          SendDataDisplay(); 
0DA4E:  CALL   38F8
....................       }else if(Opcion2==11){ 
0DA52:  BRA    DB52
0DA54:  MOVLB  3
0DA56:  MOVF   x58,W
0DA58:  SUBLW  0B
0DA5A:  BNZ   DAD6
....................          printf("Config.t2c.txt=\"Atmosferica\""); 
0DA5C:  MOVLW  EE
0DA5E:  MOVWF  FF6
0DA60:  MOVLW  18
0DA62:  MOVWF  FF7
0DA64:  MOVLW  00
0DA66:  MOVWF  FF8
0DA68:  MOVLB  0
0DA6A:  CALL   38C6
....................          SendDataDisplay();       
0DA6E:  CALL   38F8
....................          printf("t3c.txt=\"%03u\"",Atmosferica); 
0DA72:  MOVLW  0C
0DA74:  MOVWF  FF6
0DA76:  MOVLW  19
0DA78:  MOVWF  FF7
0DA7A:  MOVLW  00
0DA7C:  MOVWF  FF8
0DA7E:  MOVLW  09
0DA80:  MOVLB  7
0DA82:  MOVWF  x05
0DA84:  MOVLB  0
0DA86:  CALL   4EDC
0DA8A:  MOVFF  392,705
0DA8E:  MOVLW  03
0DA90:  MOVLB  7
0DA92:  MOVWF  x06
0DA94:  MOVLB  0
0DA96:  CALL   4F3A
0DA9A:  MOVLW  22
0DA9C:  BTFSS  F9E.4
0DA9E:  BRA    DA9C
0DAA0:  MOVWF  FAD
....................          SendDataDisplay(); 
0DAA2:  CALL   38F8
....................          if(RX_Buffer[4]==0x0a){//Tecla Arriba Oprimida 
0DAA6:  MOVF   34,W
0DAA8:  SUBLW  0A
0DAAA:  BNZ   DABC
....................                if(Atmosferica<100) 
0DAAC:  MOVLB  3
0DAAE:  MOVF   x92,W
0DAB0:  SUBLW  63
0DAB2:  BNC   DAB6
....................                   ++Atmosferica; 
0DAB4:  INCF   x92,F
....................                RX_Buffer[4]=0x00;   
0DAB6:  CLRF   34
....................                RX_Buffer2[4]=0x00;             
0DAB8:  CLRF   3F
0DABA:  MOVLB  0
....................                //BorraBuffer(); 
....................          } 
....................              
....................          if(RX_Buffer[4]==0x0b){//Tecla Abajo Oprimida 
0DABC:  MOVF   34,W
0DABE:  SUBLW  0B
0DAC0:  BNZ   DAD2
....................                if(Atmosferica>50) 
0DAC2:  MOVLB  3
0DAC4:  MOVF   x92,W
0DAC6:  SUBLW  32
0DAC8:  BC    DACC
....................                   --Atmosferica; 
0DACA:  DECF   x92,F
....................                RX_Buffer[4]=0x00; 
0DACC:  CLRF   34
....................                RX_Buffer2[4]=0x00;             
0DACE:  CLRF   3F
0DAD0:  MOVLB  0
....................                //BorraBuffer(); 
....................          } 
....................       }else if(Opcion2==12){ 
0DAD2:  BRA    DB52
0DAD4:  MOVLB  3
0DAD6:  MOVF   x58,W
0DAD8:  SUBLW  0C
0DADA:  BNZ   DB54
....................          printf("Config.t2c.txt=\"T. Trampa\""); 
0DADC:  MOVLW  1C
0DADE:  MOVWF  FF6
0DAE0:  MOVLW  19
0DAE2:  MOVWF  FF7
0DAE4:  MOVLW  00
0DAE6:  MOVWF  FF8
0DAE8:  MOVLB  0
0DAEA:  CALL   38C6
....................          SendDataDisplay();       
0DAEE:  CALL   38F8
....................          printf("t3c.txt=\"%03u\"",TTrampa); 
0DAF2:  MOVLW  38
0DAF4:  MOVWF  FF6
0DAF6:  MOVLW  19
0DAF8:  MOVWF  FF7
0DAFA:  MOVLW  00
0DAFC:  MOVWF  FF8
0DAFE:  MOVLW  09
0DB00:  MOVLB  7
0DB02:  MOVWF  x05
0DB04:  MOVLB  0
0DB06:  CALL   4EDC
0DB0A:  MOVFF  2D0,705
0DB0E:  MOVLW  03
0DB10:  MOVLB  7
0DB12:  MOVWF  x06
0DB14:  MOVLB  0
0DB16:  CALL   4F3A
0DB1A:  MOVLW  22
0DB1C:  BTFSS  F9E.4
0DB1E:  BRA    DB1C
0DB20:  MOVWF  FAD
....................          SendDataDisplay(); 
0DB22:  CALL   38F8
....................          if(RX_Buffer[4]==0x0a){//Tecla Arriba Oprimida 
0DB26:  MOVF   34,W
0DB28:  SUBLW  0A
0DB2A:  BNZ   DB3C
....................                if(TTrampa<100) 
0DB2C:  MOVLB  2
0DB2E:  MOVF   xD0,W
0DB30:  SUBLW  63
0DB32:  BNC   DB36
....................                   ++TTrampa; 
0DB34:  INCF   xD0,F
....................                RX_Buffer[4]=0x00;   
0DB36:  CLRF   34
....................                RX_Buffer2[4]=0x00;             
0DB38:  CLRF   3F
0DB3A:  MOVLB  0
....................                //BorraBuffer(); 
....................          } 
....................              
....................          if(RX_Buffer[4]==0x0b){//Tecla Abajo Oprimida 
0DB3C:  MOVF   34,W
0DB3E:  SUBLW  0B
0DB40:  BNZ   DB52
....................                if(TTrampa>80) 
0DB42:  MOVLB  2
0DB44:  MOVF   xD0,W
0DB46:  SUBLW  50
0DB48:  BC    DB4C
....................                   --TTrampa; 
0DB4A:  DECF   xD0,F
....................                RX_Buffer[4]=0x00; 
0DB4C:  CLRF   34
....................                RX_Buffer2[4]=0x00;             
0DB4E:  CLRF   3F
0DB50:  MOVLB  0
0DB52:  MOVLB  3
....................                //BorraBuffer();            
....................          } 
....................       } 
....................        
....................       if(RX_Buffer[4]==0x0c){//Tecla Izquierda Oprimida 
0DB54:  MOVF   34,W
0DB56:  SUBLW  0C
0DB58:  BNZ   DB60
....................             Opcion2++; 
0DB5A:  INCF   x58,F
....................             RX_Buffer[4]=0x00;   
0DB5C:  CLRF   34
....................             RX_Buffer2[4]=0x00;             
0DB5E:  CLRF   3F
....................             //BorraBuffer();    
....................       } 
....................           
....................       if(RX_Buffer[4]==0x0d){//Tecla Derecha Oprimida          
0DB60:  MOVF   34,W
0DB62:  SUBLW  0D
0DB64:  BNZ   DB6C
....................             Opcion2--; 
0DB66:  DECF   x58,F
....................             RX_Buffer[4]=0x00; 
0DB68:  CLRF   34
....................             RX_Buffer2[4]=0x00;             
0DB6A:  CLRF   3F
....................             //BorraBuffer(); 
....................       } 
....................        
....................       if(RX_Buffer[4]==0x11){//Tecla Regresar 
0DB6C:  MOVF   34,W
0DB6E:  SUBLW  11
0DB70:  BTFSS  FD8.2
0DB72:  BRA    DE52
....................          delay_ms(20); 
0DB74:  MOVLW  14
0DB76:  MOVLB  7
0DB78:  MOVWF  x10
0DB7A:  MOVLB  0
0DB7C:  CALL   1992
....................          if(RX_Buffer[4]==0x11){ 
0DB80:  MOVF   34,W
0DB82:  SUBLW  11
0DB84:  BTFSS  FD8.2
0DB86:  BRA    DE50
....................             if(!GuardaEEPROM){ 
0DB88:  BTFSC  xA2.1
0DB8A:  BRA    DE3C
....................                write_eeprom(20,(int8)Ganancia); 
0DB8C:  MOVFF  2F9,715
0DB90:  MOVFF  2F8,714
0DB94:  MOVFF  2F7,713
0DB98:  MOVFF  2F6,712
0DB9C:  CALL   4582
0DBA0:  MOVFF  01,700
0DBA4:  CLRF   FAA
0DBA6:  MOVLW  14
0DBA8:  MOVWF  FA9
0DBAA:  MOVFF  700,FA8
0DBAE:  BCF    FA6.6
0DBB0:  BCF    FA6.7
0DBB2:  BSF    FA6.2
0DBB4:  MOVF   FF2,W
0DBB6:  MOVWF  00
0DBB8:  BCF    FF2.6
0DBBA:  BCF    FF2.7
0DBBC:  MOVLB  F
0DBBE:  MOVLW  55
0DBC0:  MOVWF  FA7
0DBC2:  MOVLW  AA
0DBC4:  MOVWF  FA7
0DBC6:  BSF    FA6.1
0DBC8:  BTFSC  FA6.1
0DBCA:  BRA    DBC8
0DBCC:  BCF    FA6.2
0DBCE:  MOVF   00,W
0DBD0:  IORWF  FF2,F
....................                delay_ms(10); 
0DBD2:  MOVLW  0A
0DBD4:  MOVLB  7
0DBD6:  MOVWF  x10
0DBD8:  MOVLB  0
0DBDA:  CALL   1992
....................                write_eeprom(21,Sensor[0].Ajuste); 
0DBDE:  CLRF   FAA
0DBE0:  MOVLW  15
0DBE2:  MOVWF  FA9
0DBE4:  MOVFF  428,FA8
0DBE8:  BCF    FA6.6
0DBEA:  BCF    FA6.7
0DBEC:  BSF    FA6.2
0DBEE:  MOVF   FF2,W
0DBF0:  MOVWF  00
0DBF2:  BCF    FF2.6
0DBF4:  BCF    FF2.7
0DBF6:  MOVLB  F
0DBF8:  MOVLW  55
0DBFA:  MOVWF  FA7
0DBFC:  MOVLW  AA
0DBFE:  MOVWF  FA7
0DC00:  BSF    FA6.1
0DC02:  BTFSC  FA6.1
0DC04:  BRA    DC02
0DC06:  BCF    FA6.2
0DC08:  MOVF   00,W
0DC0A:  IORWF  FF2,F
....................                delay_ms(10); 
0DC0C:  MOVLW  0A
0DC0E:  MOVLB  7
0DC10:  MOVWF  x10
0DC12:  MOVLB  0
0DC14:  CALL   1992
....................                write_eeprom(22,Sensor[0].Ajusten); 
0DC18:  CLRF   FAA
0DC1A:  MOVLW  16
0DC1C:  MOVWF  FA9
0DC1E:  MOVFF  429,FA8
0DC22:  BCF    FA6.6
0DC24:  BCF    FA6.7
0DC26:  BSF    FA6.2
0DC28:  MOVF   FF2,W
0DC2A:  MOVWF  00
0DC2C:  BCF    FF2.6
0DC2E:  BCF    FF2.7
0DC30:  MOVLB  F
0DC32:  MOVLW  55
0DC34:  MOVWF  FA7
0DC36:  MOVLW  AA
0DC38:  MOVWF  FA7
0DC3A:  BSF    FA6.1
0DC3C:  BTFSC  FA6.1
0DC3E:  BRA    DC3C
0DC40:  BCF    FA6.2
0DC42:  MOVF   00,W
0DC44:  IORWF  FF2,F
....................                delay_ms(10); 
0DC46:  MOVLW  0A
0DC48:  MOVLB  7
0DC4A:  MOVWF  x10
0DC4C:  MOVLB  0
0DC4E:  CALL   1992
....................                write_eeprom(23,Sensor[1].Ajuste); 
0DC52:  CLRF   FAA
0DC54:  MOVLW  17
0DC56:  MOVWF  FA9
0DC58:  MOVFF  58C,FA8
0DC5C:  BCF    FA6.6
0DC5E:  BCF    FA6.7
0DC60:  BSF    FA6.2
0DC62:  MOVF   FF2,W
0DC64:  MOVWF  00
0DC66:  BCF    FF2.6
0DC68:  BCF    FF2.7
0DC6A:  MOVLB  F
0DC6C:  MOVLW  55
0DC6E:  MOVWF  FA7
0DC70:  MOVLW  AA
0DC72:  MOVWF  FA7
0DC74:  BSF    FA6.1
0DC76:  BTFSC  FA6.1
0DC78:  BRA    DC76
0DC7A:  BCF    FA6.2
0DC7C:  MOVF   00,W
0DC7E:  IORWF  FF2,F
....................                delay_ms(10); 
0DC80:  MOVLW  0A
0DC82:  MOVLB  7
0DC84:  MOVWF  x10
0DC86:  MOVLB  0
0DC88:  CALL   1992
....................                write_eeprom(24,Sensor[1].Ajusten); 
0DC8C:  CLRF   FAA
0DC8E:  MOVLW  18
0DC90:  MOVWF  FA9
0DC92:  MOVFF  58D,FA8
0DC96:  BCF    FA6.6
0DC98:  BCF    FA6.7
0DC9A:  BSF    FA6.2
0DC9C:  MOVF   FF2,W
0DC9E:  MOVWF  00
0DCA0:  BCF    FF2.6
0DCA2:  BCF    FF2.7
0DCA4:  MOVLB  F
0DCA6:  MOVLW  55
0DCA8:  MOVWF  FA7
0DCAA:  MOVLW  AA
0DCAC:  MOVWF  FA7
0DCAE:  BSF    FA6.1
0DCB0:  BTFSC  FA6.1
0DCB2:  BRA    DCB0
0DCB4:  BCF    FA6.2
0DCB6:  MOVF   00,W
0DCB8:  IORWF  FF2,F
....................                delay_ms(10); 
0DCBA:  MOVLW  0A
0DCBC:  MOVLB  7
0DCBE:  MOVWF  x10
0DCC0:  MOVLB  0
0DCC2:  CALL   1992
....................                write_eeprom(25,(int8)MediaMovil); 
0DCC6:  CLRF   FAA
0DCC8:  MOVLW  19
0DCCA:  MOVWF  FA9
0DCCC:  MOVFF  2CF,FA8
0DCD0:  BCF    FA6.6
0DCD2:  BCF    FA6.7
0DCD4:  BSF    FA6.2
0DCD6:  MOVF   FF2,W
0DCD8:  MOVWF  00
0DCDA:  BCF    FF2.6
0DCDC:  BCF    FF2.7
0DCDE:  MOVLB  F
0DCE0:  MOVLW  55
0DCE2:  MOVWF  FA7
0DCE4:  MOVLW  AA
0DCE6:  MOVWF  FA7
0DCE8:  BSF    FA6.1
0DCEA:  BTFSC  FA6.1
0DCEC:  BRA    DCEA
0DCEE:  BCF    FA6.2
0DCF0:  MOVF   00,W
0DCF2:  IORWF  FF2,F
....................                delay_ms(10); 
0DCF4:  MOVLW  0A
0DCF6:  MOVLB  7
0DCF8:  MOVWF  x10
0DCFA:  MOVLB  0
0DCFC:  CALL   1992
....................                write_eeprom(26,(int8)Tciclo); 
0DD00:  MOVFF  2E1,715
0DD04:  MOVFF  2E0,714
0DD08:  MOVFF  2DF,713
0DD0C:  MOVFF  2DE,712
0DD10:  CALL   4582
0DD14:  MOVFF  01,700
0DD18:  CLRF   FAA
0DD1A:  MOVLW  1A
0DD1C:  MOVWF  FA9
0DD1E:  MOVFF  700,FA8
0DD22:  BCF    FA6.6
0DD24:  BCF    FA6.7
0DD26:  BSF    FA6.2
0DD28:  MOVF   FF2,W
0DD2A:  MOVWF  00
0DD2C:  BCF    FF2.6
0DD2E:  BCF    FF2.7
0DD30:  MOVLB  F
0DD32:  MOVLW  55
0DD34:  MOVWF  FA7
0DD36:  MOVLW  AA
0DD38:  MOVWF  FA7
0DD3A:  BSF    FA6.1
0DD3C:  BTFSC  FA6.1
0DD3E:  BRA    DD3C
0DD40:  BCF    FA6.2
0DD42:  MOVF   00,W
0DD44:  IORWF  FF2,F
....................                delay_ms(10); 
0DD46:  MOVLW  0A
0DD48:  MOVLB  7
0DD4A:  MOVWF  x10
0DD4C:  MOVLB  0
0DD4E:  CALL   1992
....................                write_eeprom(27,(int8)Integral); 
0DD52:  CLRF   FAA
0DD54:  MOVLW  1B
0DD56:  MOVWF  FA9
0DD58:  MOVFF  32E,FA8
0DD5C:  BCF    FA6.6
0DD5E:  BCF    FA6.7
0DD60:  BSF    FA6.2
0DD62:  MOVF   FF2,W
0DD64:  MOVWF  00
0DD66:  BCF    FF2.6
0DD68:  BCF    FF2.7
0DD6A:  MOVLB  F
0DD6C:  MOVLW  55
0DD6E:  MOVWF  FA7
0DD70:  MOVLW  AA
0DD72:  MOVWF  FA7
0DD74:  BSF    FA6.1
0DD76:  BTFSC  FA6.1
0DD78:  BRA    DD76
0DD7A:  BCF    FA6.2
0DD7C:  MOVF   00,W
0DD7E:  IORWF  FF2,F
....................                delay_ms(10); 
0DD80:  MOVLW  0A
0DD82:  MOVLB  7
0DD84:  MOVWF  x10
0DD86:  MOVLB  0
0DD88:  CALL   1992
....................                write_eeprom(28,(int8)Derivativo); 
0DD8C:  CLRF   FAA
0DD8E:  MOVLW  1C
0DD90:  MOVWF  FA9
0DD92:  MOVFF  32F,FA8
0DD96:  BCF    FA6.6
0DD98:  BCF    FA6.7
0DD9A:  BSF    FA6.2
0DD9C:  MOVF   FF2,W
0DD9E:  MOVWF  00
0DDA0:  BCF    FF2.6
0DDA2:  BCF    FF2.7
0DDA4:  MOVLB  F
0DDA6:  MOVLW  55
0DDA8:  MOVWF  FA7
0DDAA:  MOVLW  AA
0DDAC:  MOVWF  FA7
0DDAE:  BSF    FA6.1
0DDB0:  BTFSC  FA6.1
0DDB2:  BRA    DDB0
0DDB4:  BCF    FA6.2
0DDB6:  MOVF   00,W
0DDB8:  IORWF  FF2,F
....................                delay_ms(10); 
0DDBA:  MOVLW  0A
0DDBC:  MOVLB  7
0DDBE:  MOVWF  x10
0DDC0:  MOVLB  0
0DDC2:  CALL   1992
....................                write_eeprom(31,Atmosferica); 
0DDC6:  CLRF   FAA
0DDC8:  MOVLW  1F
0DDCA:  MOVWF  FA9
0DDCC:  MOVFF  392,FA8
0DDD0:  BCF    FA6.6
0DDD2:  BCF    FA6.7
0DDD4:  BSF    FA6.2
0DDD6:  MOVF   FF2,W
0DDD8:  MOVWF  00
0DDDA:  BCF    FF2.6
0DDDC:  BCF    FF2.7
0DDDE:  MOVLB  F
0DDE0:  MOVLW  55
0DDE2:  MOVWF  FA7
0DDE4:  MOVLW  AA
0DDE6:  MOVWF  FA7
0DDE8:  BSF    FA6.1
0DDEA:  BTFSC  FA6.1
0DDEC:  BRA    DDEA
0DDEE:  BCF    FA6.2
0DDF0:  MOVF   00,W
0DDF2:  IORWF  FF2,F
....................                delay_ms(10); 
0DDF4:  MOVLW  0A
0DDF6:  MOVLB  7
0DDF8:  MOVWF  x10
0DDFA:  MOVLB  0
0DDFC:  CALL   1992
....................                write_eeprom(39,TTrampa); 
0DE00:  CLRF   FAA
0DE02:  MOVLW  27
0DE04:  MOVWF  FA9
0DE06:  MOVFF  2D0,FA8
0DE0A:  BCF    FA6.6
0DE0C:  BCF    FA6.7
0DE0E:  BSF    FA6.2
0DE10:  MOVF   FF2,W
0DE12:  MOVWF  00
0DE14:  BCF    FF2.6
0DE16:  BCF    FF2.7
0DE18:  MOVLB  F
0DE1A:  MOVLW  55
0DE1C:  MOVWF  FA7
0DE1E:  MOVLW  AA
0DE20:  MOVWF  FA7
0DE22:  BSF    FA6.1
0DE24:  BTFSC  FA6.1
0DE26:  BRA    DE24
0DE28:  BCF    FA6.2
0DE2A:  MOVF   00,W
0DE2C:  IORWF  FF2,F
....................                delay_ms(10); 
0DE2E:  MOVLW  0A
0DE30:  MOVLB  7
0DE32:  MOVWF  x10
0DE34:  MOVLB  0
0DE36:  CALL   1992
....................                GuardaEEPROM=ON; 
0DE3A:  BSF    xA2.1
....................             } 
....................             printf("page MenuPrincipal"); 
0DE3C:  MOVLW  48
0DE3E:  MOVWF  FF6
0DE40:  MOVLW  19
0DE42:  MOVWF  FF7
0DE44:  MOVLW  00
0DE46:  MOVWF  FF8
0DE48:  CALL   38C6
....................             SendDataDisplay(); 
0DE4C:  CALL   38F8
0DE50:  MOVLB  3
....................             //BorraBuffer(); 
....................          } 
....................       } 
....................       printf("fecha.txt=\"Fecha:%02u/%02u/20%02u    Hora: %02u:%02u\"",Dia,Mes,Year,Hora,Minuto); 
0DE52:  MOVLW  5C
0DE54:  MOVWF  FF6
0DE56:  MOVLW  19
0DE58:  MOVWF  FF7
0DE5A:  MOVLW  00
0DE5C:  MOVWF  FF8
0DE5E:  MOVLW  11
0DE60:  MOVLB  7
0DE62:  MOVWF  x05
0DE64:  MOVLB  0
0DE66:  CALL   4EDC
0DE6A:  MOVFF  38D,705
0DE6E:  MOVLW  01
0DE70:  MOVLB  7
0DE72:  MOVWF  x06
0DE74:  MOVLB  0
0DE76:  CALL   4F3A
0DE7A:  MOVLW  2F
0DE7C:  BTFSS  F9E.4
0DE7E:  BRA    DE7C
0DE80:  MOVWF  FAD
0DE82:  MOVFF  38C,705
0DE86:  MOVLW  01
0DE88:  MOVLB  7
0DE8A:  MOVWF  x06
0DE8C:  MOVLB  0
0DE8E:  CALL   4F3A
0DE92:  MOVLW  2F
0DE94:  BTFSS  F9E.4
0DE96:  BRA    DE94
0DE98:  MOVWF  FAD
0DE9A:  MOVLW  32
0DE9C:  BTFSS  F9E.4
0DE9E:  BRA    DE9C
0DEA0:  MOVWF  FAD
0DEA2:  MOVLW  30
0DEA4:  BTFSS  F9E.4
0DEA6:  BRA    DEA4
0DEA8:  MOVWF  FAD
0DEAA:  MOVFF  38B,705
0DEAE:  MOVLW  01
0DEB0:  MOVLB  7
0DEB2:  MOVWF  x06
0DEB4:  MOVLB  0
0DEB6:  CALL   4F3A
0DEBA:  MOVLW  7D
0DEBC:  MOVWF  FF6
0DEBE:  MOVLW  19
0DEC0:  MOVWF  FF7
0DEC2:  MOVLW  00
0DEC4:  MOVWF  FF8
0DEC6:  MOVLW  0A
0DEC8:  MOVLB  7
0DECA:  MOVWF  x05
0DECC:  MOVLB  0
0DECE:  CALL   4EDC
0DED2:  MOVFF  38E,705
0DED6:  MOVLW  01
0DED8:  MOVLB  7
0DEDA:  MOVWF  x06
0DEDC:  MOVLB  0
0DEDE:  CALL   4F3A
0DEE2:  MOVLW  3A
0DEE4:  BTFSS  F9E.4
0DEE6:  BRA    DEE4
0DEE8:  MOVWF  FAD
0DEEA:  MOVFF  38F,705
0DEEE:  MOVLW  01
0DEF0:  MOVLB  7
0DEF2:  MOVWF  x06
0DEF4:  MOVLB  0
0DEF6:  CALL   4F3A
0DEFA:  MOVLW  22
0DEFC:  BTFSS  F9E.4
0DEFE:  BRA    DEFC
0DF00:  MOVWF  FAD
....................       SendDataDisplay();  
0DF02:  CALL   38F8
0DF06:  MOVLB  3
....................     } 
.................... //_--------------------------------------------------------------------------------------------------------------------------------------------------------        
....................  
....................    } 
0DF08:  GOTO   85AA
.................... } 
0DF0C:  SLEEP 

Configuration Fuses:
   Word  1: 0200   HS NOIESO NOFCMEN
   Word  2: 1B1F   BROWNOUT WDT BORV20 NOPUT WDT8192
   Word  3: 0000   NOPBADEN NOLPT1OSC NOMCLR
   Word  4: 00B0   NOSTVREN NODEBUG NOLVP NOXINST BBSIZ4K
   Word  5: C03F   NOPROTECT NOCPD NOCPB
   Word  6: E03F   NOWRT NOWRTD NOWRTC NOWRTB
   Word  7: 403F   NOEBTR NOEBTRB
