CCS PCH C Compiler, Version 4.104, 5967               14-feb.-19 07:37

               Filename: H:\JP\JP\Laboratorio\Autoclave\Autoclave Horizontal\Con Precamara\2018\Autoclave 120L-V3.1 Doble Puerta UIS #004587929\Firmware V4.0\GLCD_Controller\GLCD_Controller.lst

               ROM used: 45286 bytes (46%)
                         Largest free fragment is 32768
               RAM used: 961 (29%) at main() level
                         989 (30%) worst case
               Stack:    5 worst case (4 in main + 1 for interrupts)

*
00000:  GOTO   52F4
*
00008:  GOTO   00BA
0000C:  NOP   
0000E:  NOP   
00010:  NOP   
00012:  NOP   
00014:  NOP   
00016:  NOP   
00018:  MOVWF  04
0001A:  MOVFF  FD8,05
0001E:  MOVFF  FE0,06
00022:  MOVLB  0
00024:  MOVFF  FE9,0C
00028:  MOVFF  FEA,07
0002C:  MOVFF  FE1,08
00030:  MOVFF  FE2,09
00034:  MOVFF  FD9,0A
00038:  MOVFF  FDA,0B
0003C:  MOVFF  FF3,12
00040:  MOVFF  FF4,13
00044:  MOVFF  FFA,14
00048:  MOVFF  FFB,15
0004C:  MOVFF  00,0E
00050:  MOVFF  01,0F
00054:  MOVFF  02,10
00058:  MOVFF  03,11
0005C:  BTFSS  FF2.5
0005E:  GOTO   0068
00062:  BTFSC  FF2.2
00064:  GOTO   01BE
00068:  BTFSS  F9D.0
0006A:  GOTO   0074
0006E:  BTFSC  F9E.0
00070:  GOTO   0216
00074:  MOVFF  0E,00
00078:  MOVFF  0F,01
0007C:  MOVFF  10,02
00080:  MOVFF  11,03
00084:  MOVFF  0C,FE9
00088:  MOVFF  07,FEA
0008C:  BSF    07.7
0008E:  MOVFF  08,FE1
00092:  MOVFF  09,FE2
00096:  MOVFF  0A,FD9
0009A:  MOVFF  0B,FDA
0009E:  MOVFF  12,FF3
000A2:  MOVFF  13,FF4
000A6:  MOVFF  14,FFA
000AA:  MOVFF  15,FFB
000AE:  MOVF   04,W
000B0:  MOVFF  06,FE0
000B4:  MOVFF  05,FD8
000B8:  RETFIE 0
000BA:  MOVWF  17
000BC:  MOVFF  FD8,18
000C0:  MOVFF  FE0,19
000C4:  MOVLB  0
000C6:  MOVFF  FE9,1F
000CA:  MOVFF  FEA,1A
000CE:  MOVFF  FE1,1B
000D2:  MOVFF  FE2,1C
000D6:  MOVFF  FD9,1D
000DA:  MOVFF  FDA,1E
000DE:  MOVFF  FF3,25
000E2:  MOVFF  FF4,26
000E6:  MOVFF  FFA,27
000EA:  MOVFF  FFB,28
000EE:  MOVFF  00,21
000F2:  MOVFF  01,22
000F6:  MOVFF  02,23
000FA:  MOVFF  03,24
000FE:  BTFSS  F9D.5
00100:  GOTO   010A
00104:  BTFSC  F9E.5
00106:  GOTO   0150
0010A:  MOVFF  21,00
0010E:  MOVFF  22,01
00112:  MOVFF  23,02
00116:  MOVFF  24,03
0011A:  MOVFF  1F,FE9
0011E:  MOVFF  1A,FEA
00122:  BSF    1A.7
00124:  MOVFF  1B,FE1
00128:  MOVFF  1C,FE2
0012C:  MOVFF  1D,FD9
00130:  MOVFF  1E,FDA
00134:  MOVFF  25,FF3
00138:  MOVFF  26,FF4
0013C:  MOVFF  27,FFA
00140:  MOVFF  28,FFB
00144:  MOVF   17,W
00146:  MOVFF  19,FE0
0014A:  MOVFF  18,FD8
0014E:  RETFIE 0
.................... //Falta crear menu de ajuste de variables y de norma CFR21 
....................  
.................... #include <18F4685.h> 
.................... //////// Standard Header file for the PIC18F4685 device //////////////// 
.................... #device PIC18F4685 
.................... #list 
....................  
.................... #device adc=10 
.................... #device HIGH_INTS=TRUE //Activamos niveles de prioridad 
.................... #fuses HS,WDT8192,NOPROTECT,NOLVP,NODEBUG,NOSTVREN,NOPUT,NOCPD,NOWRT,NOIESO,NOFCMEN,NOPBADEN,NOWRTC,NOWRTB,NOEBTR,NOEBTRB,NOCPB,NOXINST,NOLPT1OSC,NOMCLR 
.................... #use delay(clock=20000000) 
*
01C24:  MOVLW  03
01C26:  MOVWF  FEA
01C28:  MOVLW  C8
01C2A:  MOVWF  FE9
01C2C:  MOVF   FEF,W
01C2E:  BZ    1C4A
01C30:  MOVLW  06
01C32:  MOVWF  01
01C34:  CLRF   00
01C36:  DECFSZ 00,F
01C38:  BRA    1C36
01C3A:  DECFSZ 01,F
01C3C:  BRA    1C34
01C3E:  MOVLW  7B
01C40:  MOVWF  00
01C42:  DECFSZ 00,F
01C44:  BRA    1C42
01C46:  DECFSZ FEF,F
01C48:  BRA    1C30
01C4A:  RETLW  00
.................... #use i2c(Master,slow,sda=PIN_C4,scl=PIN_C3) 
*
03F44:  MOVLW  08
03F46:  MOVWF  01
03F48:  MOVLW  05
03F4A:  MOVWF  00
03F4C:  DECFSZ 00,F
03F4E:  BRA    3F4C
03F50:  BCF    F8B.3
03F52:  BCF    F94.3
03F54:  MOVLW  06
03F56:  MOVWF  00
03F58:  DECFSZ 00,F
03F5A:  BRA    3F58
03F5C:  MOVLB  3
03F5E:  RLCF   xCC,F
03F60:  BCF    F8B.4
03F62:  BTFSC  FD8.0
03F64:  BSF    F94.4
03F66:  BTFSS  FD8.0
03F68:  BCF    F94.4
03F6A:  BSF    F94.3
03F6C:  BTFSS  F82.3
03F6E:  BRA    3F6C
03F70:  DECFSZ 01,F
03F72:  BRA    3F76
03F74:  BRA    3F7A
03F76:  MOVLB  0
03F78:  BRA    3F48
03F7A:  MOVLW  05
03F7C:  MOVWF  00
03F7E:  DECFSZ 00,F
03F80:  BRA    3F7E
03F82:  BCF    F8B.3
03F84:  BCF    F94.3
03F86:  NOP   
03F88:  BSF    F94.4
03F8A:  MOVLW  06
03F8C:  MOVWF  00
03F8E:  DECFSZ 00,F
03F90:  BRA    3F8E
03F92:  MOVLW  06
03F94:  MOVWF  00
03F96:  DECFSZ 00,F
03F98:  BRA    3F96
03F9A:  BSF    F94.3
03F9C:  BTFSS  F82.3
03F9E:  BRA    3F9C
03FA0:  CLRF   01
03FA2:  MOVLW  06
03FA4:  MOVWF  00
03FA6:  DECFSZ 00,F
03FA8:  BRA    3FA6
03FAA:  BTFSC  F82.4
03FAC:  BSF    01.0
03FAE:  BCF    F8B.3
03FB0:  BCF    F94.3
03FB2:  BCF    F8B.4
03FB4:  BCF    F94.4
03FB6:  MOVLB  0
03FB8:  RETLW  00
.................... #use rs232(baud=9600, xmit=PIN_C6, rcv=PIN_C7, bits=8, parity=N) 
*
0353A:  BTFSS  F9E.4
0353C:  BRA    353A
0353E:  MOVWF  FAD
03540:  RETLW  00
.................... //#include "HDM64GS12.c" 
.................... //#include "GRAPHICS.c" 
.................... ///#include "imagen.h" 
.................... #include <stdio.h> 
.................... /////////////////////////////////////////////////////////////////////////// 
.................... ////        (C) Copyright 1996,2003 Custom Computer Services           //// 
.................... //// This source code may only be used by licensed users of the CCS C  //// 
.................... //// compiler.  This source code may only be distributed to other      //// 
.................... //// licensed users of the CCS C compiler.  No other use, reproduction //// 
.................... //// or distribution is permitted without written permission.          //// 
.................... //// Derivative programs created using this software in object code    //// 
.................... //// form are not restricted in any way.                               //// 
.................... /////////////////////////////////////////////////////////////////////////// 
....................  
.................... #ifndef _STDIO 
.................... #define _STDIO 
.................... #include <string.h> 
.................... //////////////////////////////////////////////////////////////////////////// 
.................... ////        (C) Copyright 1996,2008 Custom Computer Services            //// 
.................... //// This source code may only be used by licensed users of the CCS C   //// 
.................... //// compiler.  This source code may only be distributed to other       //// 
.................... //// licensed users of the CCS C compiler.  No other use, reproduction  //// 
.................... //// or distribution is permitted without written permission.           //// 
.................... //// Derivative programs created using this software in object code     //// 
.................... //// form are not restricted in any way.                                //// 
.................... //////////////////////////////////////////////////////////////////////////// 
....................  
.................... #ifndef _STRING 
.................... #define _STRING 
.................... #include <stddef.h> 
.................... /////////////////////////////////////////////////////////////////////////// 
.................... ////        (C) Copyright 1996,2003 Custom Computer Services           //// 
.................... //// This source code may only be used by licensed users of the CCS C  //// 
.................... //// compiler.  This source code may only be distributed to other      //// 
.................... //// licensed users of the CCS C compiler.  No other use, reproduction //// 
.................... //// or distribution is permitted without written permission.          //// 
.................... //// Derivative programs created using this software in object code    //// 
.................... //// form are not restricted in any way.                               //// 
.................... /////////////////////////////////////////////////////////////////////////// 
....................  
.................... #ifndef _STDDEF 
....................  
.................... #define _STDDEF 
....................  
.................... #if sizeof(unsigned int8 *)==1 
.................... #define ptrdiff_t unsigned int8 
.................... #else 
.................... #define ptrdiff_t unsigned int16 
.................... #endif 
....................  
.................... #define size_t unsigned int8 
.................... #define wchar_t char 
.................... #define NULL 0 
....................  
.................... #define offsetof(s,f) (offsetofbit(s,f)/8) 
....................  
.................... #endif 
....................  
.................... #include <ctype.h> 
.................... //////////////////////////////////////////////////////////////////////////// 
.................... ////        (C) Copyright 1996,2003 Custom Computer Services            //// 
.................... //// This source code may only be used by licensed users of the CCS C   //// 
.................... //// compiler.  This source code may only be distributed to other       //// 
.................... //// licensed users of the CCS C compiler.  No other use, reproduction  //// 
.................... //// or distribution is permitted without written permission.           //// 
.................... //// Derivative programs created using this software in object code     //// 
.................... //// form are not restricted in any way.                                //// 
.................... //////////////////////////////////////////////////////////////////////////// 
....................  
.................... #ifndef _CTYPE 
.................... #define _CTYPE 
....................  
.................... #define islower(x)  isamong(x,"abcdefghijklmnopqrstuvwxyz") 
.................... #define isupper(x)  isamong(x,"ABCDEFGHIJKLMNOPQRSTUVWXYZ") 
.................... #define isalnum(x)  isamong(x,"0123456789ABCDEFGHIJKLMNOPQRSTUVWXYZabcdefghijklmnopqrstuvwxyz") 
.................... #define isalpha(x)  isamong(x,"ABCDEFGHIJKLMNOPQRSTUVWXYZabcdefghijklmnopqrstuvwxyz") 
.................... #define isdigit(x)  isamong(x,"0123456789") 
.................... #define isspace(x)  ((x)==' ') 
.................... #define isxdigit(x) isamong(x,"0123456789ABCDEFabcdef") 
.................... #define iscntrl(x)  ((x)<' ') 
.................... #define isprint(x)  ((x)>=' ') 
.................... #define isgraph(x)  ((x)>' ') 
.................... #define ispunct(x)  (((x)>' ')&&!isalnum(x)) 
....................  
.................... #endif 
....................  
....................  
....................  
....................  
....................  
.................... ////////////////////////////////////////////// 
.................... //// Uncomment the following define to    //// 
.................... //// allow some functions to use a        //// 
.................... //// quicker algorithm, but use more ROM  //// 
.................... ////                                      //// 
.................... //// #define FASTER_BUT_MORE_ROM          //// 
.................... ////////////////////////////////////////////// 
....................  
....................  
....................  
.................... /*Copying functions*/ 
.................... /* standard template: 
....................    void *memmove(void *s1, void *s2, size_t n). 
....................    Copies max of n characters safely (not following ending '\0') 
....................    from s2 in s1; if s2 has less than n characters, appends 0 */ 
....................  
.................... char *memmove(void *s1,char *s2,size_t n) 
.................... { 
....................    char *sc1; 
....................    char *sc2; 
....................    sc1=s1; 
....................    sc2=s2; 
....................    if(sc2<sc1 && sc1 <sc2 +n) 
....................       for(sc1+=n,sc2+=n;0<n;--n) 
....................          *--sc1=*--sc2; 
....................    else 
....................       for(;0<n;--n) 
....................          *sc1++=*sc2++; 
....................   return s1; 
....................   } 
....................  
.................... /* Standard template: char *strcpy(char *s1, const char *s2) 
....................    copies the string s2 including the null character to s1. 
....................    This is a compiler built in to handle the different address 
....................    spaces */ 
....................  
.................... #define strcopy strcpy 
....................  
.................... /* standard template: 
....................    char *strncpy(char *s1, const char *s2, size_t n). 
....................    Copies max of n characters (not following ending '\0') 
....................    from s2 in s1; if s2 has less than n characters, appends 0 */ 
....................  
.................... char *strncpy(char *s1, char *s2, size_t n) 
.................... { 
....................   char *s; 
....................  
....................   for (s = s1; n > 0 && *s2 != '\0'; n--) 
....................      *s++ = *s2++; 
....................   for (; n > 0; n--) 
....................      *s++ = '\0'; 
....................  
....................   return(s1); 
.................... } 
.................... /***********************************************************/ 
....................  
.................... /*concatenation functions*/ 
.................... /* standard template: char *strcat(char *s1, const char *s2) 
.................... appends s2 to s1*/ 
....................  
.................... char *strcat(char *s1, char *s2) 
.................... { 
....................    char *s; 
....................  
....................    for (s = s1; *s != '\0'; ++s); 
....................    while(*s2 != '\0') 
....................    { 
....................       *s = *s2; 
....................       ++s; 
....................       ++s2; 
....................    } 
....................  
....................    *s = '\0'; 
....................    return(s1); 
.................... } 
.................... /* standard template: char *strncat(char *s1, char *s2,size_t n) 
.................... appends not more than n characters from s2 to s1*/ 
....................  
.................... char *strncat(char *s1, char *s2, size_t n) 
.................... { 
....................    char *s; 
....................  
....................    for (s = s1; *s != '\0'; ++s); 
....................    while(*s2 != '\0' && 0<n) 
....................    { 
....................       *s = *s2; 
....................       ++s; 
....................       ++s2; 
....................       --n; 
....................    } 
....................  
....................    *s = '\0'; 
....................    return(s1); 
.................... } 
....................  
.................... /***********************************************************/ 
....................  
....................  
.................... /*comparison functions*/ 
.................... /* standard template: signed int memcmp(void *s1, void *s2). 
....................    Compares s1 & s2; returns -1 if s1<s2, 0 if s1=s2, 1 if s1>s2 */ 
....................  
.................... signed int8 memcmp(void * s1,char *s2,size_t n) 
.................... { 
.................... char *su1, *su2; 
.................... for(su1=s1, su2=s2; 0<n; ++su1, ++su2, --n) 
.................... { 
....................    if(*su1!=*su2) 
....................       return ((*su1<*su2)?-1:+1); 
.................... } 
.................... return 0; 
.................... } 
....................  
.................... /* standard template: int strcmp(const char *s1, const char *s2). 
....................    Compares s1 & s2; returns -1 if s1<s2, 0 if s1=s2, 1 if s1>s2 */ 
....................  
.................... signed int8 strcmp(char *s1, char *s2) 
.................... { 
....................    for (; *s1 == *s2; s1++, s2++) 
....................       if (*s1 == '\0') 
....................          return(0); 
....................    return((*s1 < *s2) ? -1: 1); 
.................... } 
.................... /* standard template: int strcoll(const char *s1, const char *s2). 
....................    Compares s1 & s2; returns -1 if s1<s2, 0 if s1=s2, 1 if s1>s2 */ 
....................  
.................... signed int8 strcoll(char *s1, char *s2) 
.................... { 
....................    for (; *s1 == *s2; s1++, s2++) 
....................       if (*s1 == '\0') 
....................          return(0); 
....................    return((*s1 < *s2) ? -1: 1); 
.................... } 
....................  
.................... /* standard template: 
....................    int strncmp(const char *s1, const char *s2, size_t n). 
....................    Compares max of n characters (not following 0) from s1 to s2; 
....................    returns same as strcmp */ 
....................  
.................... signed int8 strncmp(char *s1, char *s2, size_t n) 
.................... { 
....................    for (; n > 0; s1++, s2++, n--) 
....................       if (*s1 != *s2) 
....................          return((*s1 <*s2) ? -1: 1); 
....................       else if (*s1 == '\0') 
....................          return(0); 
....................    return(0); 
.................... } 
.................... /* standard template: 
....................    int strxfrm(const char *s1, const char *s2, size_t n). 
....................    transforms maximum of n characters from s2 and places them into s1*/ 
.................... size_t strxfrm(char *s1, char *s2, size_t n) 
.................... { 
....................   char *s; 
....................   unsigned int8 n1; 
....................   n1=n; 
....................   for (s = s1; n > 0 && *s2 != '\0'; n--) 
....................      *s++ = *s2++; 
....................   for (; n > 0; n--) 
....................      *s++ = '\0'; 
....................  
....................   return(n1); 
.................... } 
....................  
....................  
....................  
....................  
....................  
.................... /***********************************************************/ 
.................... /*Search functions*/ 
.................... /* standard template: void *memchr(const char *s, int c). 
....................    Finds first occurrence of c in n characters of s */ 
....................  
.................... char *memchr(void *s,unsigned int8 c,size_t n) 
.................... { 
....................    char uc; 
....................    char *su; 
....................    uc=c; 
....................    for(su=s;0<n;++su,--n) 
....................       if(*su==uc) 
....................       return su; 
....................    return NULL; 
.................... } 
....................  
.................... /* standard template: char *strchr(const char *s, int c). 
....................    Finds first occurrence of c in s */ 
....................  
.................... char *strchr(char *s, unsigned int8 c) 
.................... { 
....................    for (; *s != c; s++) 
....................       if (*s == '\0') 
....................          return(0); 
....................    return(s); 
.................... } 
.................... /* standard template: 
....................    size_t strcspn(const char *s1, const char *s2). 
....................    Computes length of max initial segment of s1 that 
....................    consists entirely of characters NOT from s2*/ 
....................  
.................... unsigned int8  strcspn(char *s1, char *s2) 
.................... { 
....................    char *sc1, *sc2; 
....................  
....................    for (sc1 = s1; *sc1 != 0; sc1++) 
....................       for (sc2 = s2; *sc2 != 0; sc2++) 
....................          if (*sc1 == *sc2) 
....................             return(sc1 - s1); 
....................    return(sc1 - s1); 
.................... } 
.................... /* standard template: 
....................    char *strpbrk(const char *s1, const char *s2). 
....................    Locates first occurence of any character from s2 in s1; 
....................    returns s1 if s2 is empty string */ 
....................  
.................... char *strpbrk(char *s1, char *s2) 
.................... { 
....................    char *sc1, *sc2; 
....................  
....................    for (sc1 = s1; *sc1 != 0; sc1++) 
....................       for (sc2 = s2; *sc2 != 0; sc2++) 
....................          if (*sc1 == *sc2) 
....................             return(sc1); 
....................    return(0); 
.................... } 
....................  
....................  
.................... /* standard template: char *strrchr(const char *s, int c). 
....................    Finds last occurrence of c in s */ 
....................  
.................... char *strrchr(char *s, unsigned int8 c) 
.................... { 
....................    char *p; 
....................  
....................    for (p = 0; ; s++) 
....................    { 
....................       if (*s == c) 
....................          p = s; 
....................       if (*s == '\0') 
....................          return(p); 
....................    } 
.................... } 
.................... /* computes length of max initial segment of s1 consisting 
....................    entirely of characters from s2 */ 
....................  
.................... unsigned int8  strspn(char *s1, char *s2) 
.................... { 
....................    char *sc1, *sc2; 
....................  
....................    for (sc1 = s1; *sc1 != 0; sc1++) 
....................       for (sc2 = s2; ; sc2++) 
....................     if (*sc2 == '\0') 
....................        return(sc1 - s1); 
....................          else if (*sc1 == *sc2) 
....................             break; 
....................    return(sc1 - s1); 
.................... } 
.................... /* standard template: 
....................    char *strstr(const char *s1, const char *s2); 
....................    Locates first occurence of character sequence s2 in s1; 
....................    returns 0 if s2 is empty string 
....................  
....................    Uncomment #define FASTER_BUT_MORE_ROM at the top of the 
....................    file to use the faster algorithm */ 
.................... char *strstr(char *s1, char *s2) 
.................... { 
....................    char *s, *t; 
....................  
....................    #ifdef FASTER_BUT_MORE_ROM 
....................    if (*s2 == '\0') 
....................          return(s1); 
....................    #endif 
....................  
....................    while (*s1) 
....................    { 
....................       for(s = s1, t = s2; *t && (*s == *t); ++s, ++t); 
....................  
....................       if (*t == '\0') 
....................          return s1; 
....................       ++s1; 
....................       #ifdef FASTER_BUT_MORE_ROM 
....................          while(*s1 != '\0' && *s1 != *s2) 
....................             ++s1; 
....................       #endif 
....................    } 
....................    return 0; 
.................... } 
....................  
.................... /* standard template: char *strtok(char *s1, const char *s2). 
....................  
....................    Finds next token in s1 delimited by a character from separator 
....................    string s2 (which can be different from call to call).  First call 
....................    starts at beginning of s1 searching for first character NOT 
....................    contained in s2; returns 0 if none is found. 
....................    If one is found, it is the start of first token (return value). 
....................    Function then searches from there for a character contained in s2. 
....................    If none is found, current token extends to end of s1, and subsequent 
....................    searches for a token will return 0.  If one is found, it is 
....................    overwritten by '\0', which terminates current token.  Function saves 
....................    pointer to following character from which next search will start. 
....................    Each subsequent call, with 0 as first argument, starts searching 
....................    from saved pointer */ 
....................  
.................... char *strtok(char *s1, char *s2) 
.................... { 
....................    char *beg, *end; 
....................    static char *save; 
....................  
....................    beg = (s1)? s1: save; 
....................    beg += strspn(beg, s2); 
....................    if (*beg == '\0') 
....................    { 
....................       *save = ' '; 
....................       return(0); 
....................    } 
....................    end = strpbrk(beg, s2); 
....................    if (*end != '\0') 
....................    { 
....................       *end = '\0'; 
....................       end++; 
....................    } 
....................    save = end; 
....................    return(beg); 
.................... } 
....................  
.................... /*****************************************************************/ 
.................... /*Miscellaneous functions*/ 
.................... /* standard template 
.................... maps error number in errnum to an error message string 
.................... Returns: Pointer to string 
.................... */ 
.................... #ifdef _ERRNO 
.................... char * strerror(unsigned int8 errnum) 
.................... { 
.................... char s[15]; 
.................... switch( errnum) 
.................... { 
.................... case 0: 
....................    strcpy(s,"no errors"); 
....................    return s; 
.................... case EDOM : 
....................    strcpy(s,"domain error"); 
....................    return s; 
.................... case ERANGE: 
....................    strcpy(s,"range error"); 
....................    return s; 
.................... } 
.................... } 
.................... #ENDIF 
.................... /* standard template: size_t strlen(const char *s). 
....................    Computes length of s1 (preceding terminating 0) */ 
....................  
.................... unsigned int8 strlen(char *s) 
.................... { 
....................    char *sc; 
....................  
....................    for (sc = s; *sc != 0; sc++); 
....................    return(sc - s); 
.................... } 
....................  
.................... /* standard template: size_t stricmp(const char *s1, const char *s2). 
....................    Compares s1 to s2 ignoring case (upper vs. lower) */ 
....................  
.................... signed int8 stricmp(char *s1, char *s2) 
.................... { 
....................  for(; *s1==*s2||(isalpha(*s1)&&isalpha(*s2)&&(*s1==*s2+32||*s2==*s1+32)); 
....................     s1++, s2++) 
....................     if (*s1 == '\0') 
....................        return(0); 
....................  return((*s1 < *s2) ? -1: 1); 
.................... } 
....................  
....................  
.................... /* standard template: char *strlwr(char *s). 
....................    Replaces uppercase letters by lowercase; 
....................    returns pointer to new string s */ 
....................  
.................... char *strlwr(char *s) 
.................... { 
....................    char *p; 
....................  
....................    for (p = s; *p != '\0'; p++) 
....................       if (*p >= 'A' && *p <='Z') 
....................          *p += 'a' - 'A'; 
....................    return(s); 
.................... } 
....................  
....................  
.................... /************************************************************/ 
....................  
....................  
.................... #endif 
....................  
.................... #ifndef getc 
.................... #define getc getch 
.................... #define getchar getch 
.................... #define puts(s) {printf(s); putchar(13); putchar(10);} 
.................... #define putc putchar 
.................... #endif 
.................... /* maps error number to an error message. Writes a sequence of characters to 
.................... stderr stream thus: if s is not null then string pointed to by s follwed by 
.................... a colon (:) and a space and the appropriate error message returned by strerror 
.................... function with argument errno 
....................  
.................... Returns: no value 
.................... */ 
....................  
.................... #ifdef _ERRNO 
.................... void perror(char *s) 
.................... { 
....................   if(s) 
....................   fprintf(STDERR,"%s: ",s); 
....................   fprintf(STDERR,"%s\r\n",strerror(errno)); 
.................... } 
.................... #endif 
.................... #endif 
....................  
.................... #include <string.h> 
.................... //////////////////////////////////////////////////////////////////////////// 
.................... ////        (C) Copyright 1996,2008 Custom Computer Services            //// 
.................... //// This source code may only be used by licensed users of the CCS C   //// 
.................... //// compiler.  This source code may only be distributed to other       //// 
.................... //// licensed users of the CCS C compiler.  No other use, reproduction  //// 
.................... //// or distribution is permitted without written permission.           //// 
.................... //// Derivative programs created using this software in object code     //// 
.................... //// form are not restricted in any way.                                //// 
.................... //////////////////////////////////////////////////////////////////////////// 
....................  
.................... #ifndef _STRING 
.................... #define _STRING 
.................... #include <stddef.h> 
.................... #include <ctype.h> 
....................  
....................  
....................  
.................... ////////////////////////////////////////////// 
.................... //// Uncomment the following define to    //// 
.................... //// allow some functions to use a        //// 
.................... //// quicker algorithm, but use more ROM  //// 
.................... ////                                      //// 
.................... //// #define FASTER_BUT_MORE_ROM          //// 
.................... ////////////////////////////////////////////// 
....................  
....................  
....................  
.................... /*Copying functions*/ 
.................... /* standard template: 
....................    void *memmove(void *s1, void *s2, size_t n). 
....................    Copies max of n characters safely (not following ending '\0') 
....................    from s2 in s1; if s2 has less than n characters, appends 0 */ 
....................  
.................... char *memmove(void *s1,char *s2,size_t n) 
.................... { 
....................    char *sc1; 
....................    char *sc2; 
....................    sc1=s1; 
....................    sc2=s2; 
....................    if(sc2<sc1 && sc1 <sc2 +n) 
....................       for(sc1+=n,sc2+=n;0<n;--n) 
....................          *--sc1=*--sc2; 
....................    else 
....................       for(;0<n;--n) 
....................          *sc1++=*sc2++; 
....................   return s1; 
....................   } 
....................  
.................... /* Standard template: char *strcpy(char *s1, const char *s2) 
....................    copies the string s2 including the null character to s1. 
....................    This is a compiler built in to handle the different address 
....................    spaces */ 
....................  
.................... #define strcopy strcpy 
....................  
.................... /* standard template: 
....................    char *strncpy(char *s1, const char *s2, size_t n). 
....................    Copies max of n characters (not following ending '\0') 
....................    from s2 in s1; if s2 has less than n characters, appends 0 */ 
....................  
.................... char *strncpy(char *s1, char *s2, size_t n) 
.................... { 
....................   char *s; 
....................  
....................   for (s = s1; n > 0 && *s2 != '\0'; n--) 
....................      *s++ = *s2++; 
....................   for (; n > 0; n--) 
....................      *s++ = '\0'; 
....................  
....................   return(s1); 
.................... } 
.................... /***********************************************************/ 
....................  
.................... /*concatenation functions*/ 
.................... /* standard template: char *strcat(char *s1, const char *s2) 
.................... appends s2 to s1*/ 
....................  
.................... char *strcat(char *s1, char *s2) 
.................... { 
....................    char *s; 
....................  
....................    for (s = s1; *s != '\0'; ++s); 
....................    while(*s2 != '\0') 
....................    { 
....................       *s = *s2; 
....................       ++s; 
....................       ++s2; 
....................    } 
....................  
....................    *s = '\0'; 
....................    return(s1); 
.................... } 
.................... /* standard template: char *strncat(char *s1, char *s2,size_t n) 
.................... appends not more than n characters from s2 to s1*/ 
....................  
.................... char *strncat(char *s1, char *s2, size_t n) 
.................... { 
....................    char *s; 
....................  
....................    for (s = s1; *s != '\0'; ++s); 
....................    while(*s2 != '\0' && 0<n) 
....................    { 
....................       *s = *s2; 
....................       ++s; 
....................       ++s2; 
....................       --n; 
....................    } 
....................  
....................    *s = '\0'; 
....................    return(s1); 
.................... } 
....................  
.................... /***********************************************************/ 
....................  
....................  
.................... /*comparison functions*/ 
.................... /* standard template: signed int memcmp(void *s1, void *s2). 
....................    Compares s1 & s2; returns -1 if s1<s2, 0 if s1=s2, 1 if s1>s2 */ 
....................  
.................... signed int8 memcmp(void * s1,char *s2,size_t n) 
.................... { 
.................... char *su1, *su2; 
.................... for(su1=s1, su2=s2; 0<n; ++su1, ++su2, --n) 
.................... { 
....................    if(*su1!=*su2) 
....................       return ((*su1<*su2)?-1:+1); 
.................... } 
.................... return 0; 
.................... } 
....................  
.................... /* standard template: int strcmp(const char *s1, const char *s2). 
....................    Compares s1 & s2; returns -1 if s1<s2, 0 if s1=s2, 1 if s1>s2 */ 
....................  
.................... signed int8 strcmp(char *s1, char *s2) 
.................... { 
....................    for (; *s1 == *s2; s1++, s2++) 
....................       if (*s1 == '\0') 
....................          return(0); 
....................    return((*s1 < *s2) ? -1: 1); 
.................... } 
.................... /* standard template: int strcoll(const char *s1, const char *s2). 
....................    Compares s1 & s2; returns -1 if s1<s2, 0 if s1=s2, 1 if s1>s2 */ 
....................  
.................... signed int8 strcoll(char *s1, char *s2) 
.................... { 
....................    for (; *s1 == *s2; s1++, s2++) 
....................       if (*s1 == '\0') 
....................          return(0); 
....................    return((*s1 < *s2) ? -1: 1); 
.................... } 
....................  
.................... /* standard template: 
....................    int strncmp(const char *s1, const char *s2, size_t n). 
....................    Compares max of n characters (not following 0) from s1 to s2; 
....................    returns same as strcmp */ 
....................  
.................... signed int8 strncmp(char *s1, char *s2, size_t n) 
.................... { 
....................    for (; n > 0; s1++, s2++, n--) 
....................       if (*s1 != *s2) 
....................          return((*s1 <*s2) ? -1: 1); 
....................       else if (*s1 == '\0') 
....................          return(0); 
....................    return(0); 
.................... } 
.................... /* standard template: 
....................    int strxfrm(const char *s1, const char *s2, size_t n). 
....................    transforms maximum of n characters from s2 and places them into s1*/ 
.................... size_t strxfrm(char *s1, char *s2, size_t n) 
.................... { 
....................   char *s; 
....................   unsigned int8 n1; 
....................   n1=n; 
....................   for (s = s1; n > 0 && *s2 != '\0'; n--) 
....................      *s++ = *s2++; 
....................   for (; n > 0; n--) 
....................      *s++ = '\0'; 
....................  
....................   return(n1); 
.................... } 
....................  
....................  
....................  
....................  
....................  
.................... /***********************************************************/ 
.................... /*Search functions*/ 
.................... /* standard template: void *memchr(const char *s, int c). 
....................    Finds first occurrence of c in n characters of s */ 
....................  
.................... char *memchr(void *s,unsigned int8 c,size_t n) 
.................... { 
....................    char uc; 
....................    char *su; 
....................    uc=c; 
....................    for(su=s;0<n;++su,--n) 
....................       if(*su==uc) 
....................       return su; 
....................    return NULL; 
.................... } 
....................  
.................... /* standard template: char *strchr(const char *s, int c). 
....................    Finds first occurrence of c in s */ 
....................  
.................... char *strchr(char *s, unsigned int8 c) 
.................... { 
....................    for (; *s != c; s++) 
....................       if (*s == '\0') 
....................          return(0); 
....................    return(s); 
.................... } 
.................... /* standard template: 
....................    size_t strcspn(const char *s1, const char *s2). 
....................    Computes length of max initial segment of s1 that 
....................    consists entirely of characters NOT from s2*/ 
....................  
.................... unsigned int8  strcspn(char *s1, char *s2) 
.................... { 
....................    char *sc1, *sc2; 
....................  
....................    for (sc1 = s1; *sc1 != 0; sc1++) 
....................       for (sc2 = s2; *sc2 != 0; sc2++) 
....................          if (*sc1 == *sc2) 
....................             return(sc1 - s1); 
....................    return(sc1 - s1); 
.................... } 
.................... /* standard template: 
....................    char *strpbrk(const char *s1, const char *s2). 
....................    Locates first occurence of any character from s2 in s1; 
....................    returns s1 if s2 is empty string */ 
....................  
.................... char *strpbrk(char *s1, char *s2) 
.................... { 
....................    char *sc1, *sc2; 
....................  
....................    for (sc1 = s1; *sc1 != 0; sc1++) 
....................       for (sc2 = s2; *sc2 != 0; sc2++) 
....................          if (*sc1 == *sc2) 
....................             return(sc1); 
....................    return(0); 
.................... } 
....................  
....................  
.................... /* standard template: char *strrchr(const char *s, int c). 
....................    Finds last occurrence of c in s */ 
....................  
.................... char *strrchr(char *s, unsigned int8 c) 
.................... { 
....................    char *p; 
....................  
....................    for (p = 0; ; s++) 
....................    { 
....................       if (*s == c) 
....................          p = s; 
....................       if (*s == '\0') 
....................          return(p); 
....................    } 
.................... } 
.................... /* computes length of max initial segment of s1 consisting 
....................    entirely of characters from s2 */ 
....................  
.................... unsigned int8  strspn(char *s1, char *s2) 
.................... { 
....................    char *sc1, *sc2; 
....................  
....................    for (sc1 = s1; *sc1 != 0; sc1++) 
....................       for (sc2 = s2; ; sc2++) 
....................     if (*sc2 == '\0') 
....................        return(sc1 - s1); 
....................          else if (*sc1 == *sc2) 
....................             break; 
....................    return(sc1 - s1); 
.................... } 
.................... /* standard template: 
....................    char *strstr(const char *s1, const char *s2); 
....................    Locates first occurence of character sequence s2 in s1; 
....................    returns 0 if s2 is empty string 
....................  
....................    Uncomment #define FASTER_BUT_MORE_ROM at the top of the 
....................    file to use the faster algorithm */ 
.................... char *strstr(char *s1, char *s2) 
.................... { 
....................    char *s, *t; 
....................  
....................    #ifdef FASTER_BUT_MORE_ROM 
....................    if (*s2 == '\0') 
....................          return(s1); 
....................    #endif 
....................  
....................    while (*s1) 
....................    { 
....................       for(s = s1, t = s2; *t && (*s == *t); ++s, ++t); 
....................  
....................       if (*t == '\0') 
....................          return s1; 
....................       ++s1; 
....................       #ifdef FASTER_BUT_MORE_ROM 
....................          while(*s1 != '\0' && *s1 != *s2) 
....................             ++s1; 
....................       #endif 
....................    } 
....................    return 0; 
.................... } 
....................  
.................... /* standard template: char *strtok(char *s1, const char *s2). 
....................  
....................    Finds next token in s1 delimited by a character from separator 
....................    string s2 (which can be different from call to call).  First call 
....................    starts at beginning of s1 searching for first character NOT 
....................    contained in s2; returns 0 if none is found. 
....................    If one is found, it is the start of first token (return value). 
....................    Function then searches from there for a character contained in s2. 
....................    If none is found, current token extends to end of s1, and subsequent 
....................    searches for a token will return 0.  If one is found, it is 
....................    overwritten by '\0', which terminates current token.  Function saves 
....................    pointer to following character from which next search will start. 
....................    Each subsequent call, with 0 as first argument, starts searching 
....................    from saved pointer */ 
....................  
.................... char *strtok(char *s1, char *s2) 
.................... { 
....................    char *beg, *end; 
....................    static char *save; 
....................  
....................    beg = (s1)? s1: save; 
....................    beg += strspn(beg, s2); 
....................    if (*beg == '\0') 
....................    { 
....................       *save = ' '; 
....................       return(0); 
....................    } 
....................    end = strpbrk(beg, s2); 
....................    if (*end != '\0') 
....................    { 
....................       *end = '\0'; 
....................       end++; 
....................    } 
....................    save = end; 
....................    return(beg); 
.................... } 
....................  
.................... /*****************************************************************/ 
.................... /*Miscellaneous functions*/ 
.................... /* standard template 
.................... maps error number in errnum to an error message string 
.................... Returns: Pointer to string 
.................... */ 
.................... #ifdef _ERRNO 
.................... char * strerror(unsigned int8 errnum) 
.................... { 
.................... char s[15]; 
.................... switch( errnum) 
.................... { 
.................... case 0: 
....................    strcpy(s,"no errors"); 
....................    return s; 
.................... case EDOM : 
....................    strcpy(s,"domain error"); 
....................    return s; 
.................... case ERANGE: 
....................    strcpy(s,"range error"); 
....................    return s; 
.................... } 
.................... } 
.................... #ENDIF 
.................... /* standard template: size_t strlen(const char *s). 
....................    Computes length of s1 (preceding terminating 0) */ 
....................  
.................... unsigned int8 strlen(char *s) 
.................... { 
....................    char *sc; 
....................  
....................    for (sc = s; *sc != 0; sc++); 
....................    return(sc - s); 
.................... } 
....................  
.................... /* standard template: size_t stricmp(const char *s1, const char *s2). 
....................    Compares s1 to s2 ignoring case (upper vs. lower) */ 
....................  
.................... signed int8 stricmp(char *s1, char *s2) 
.................... { 
....................  for(; *s1==*s2||(isalpha(*s1)&&isalpha(*s2)&&(*s1==*s2+32||*s2==*s1+32)); 
....................     s1++, s2++) 
....................     if (*s1 == '\0') 
....................        return(0); 
....................  return((*s1 < *s2) ? -1: 1); 
.................... } 
....................  
....................  
.................... /* standard template: char *strlwr(char *s). 
....................    Replaces uppercase letters by lowercase; 
....................    returns pointer to new string s */ 
....................  
.................... char *strlwr(char *s) 
.................... { 
....................    char *p; 
....................  
....................    for (p = s; *p != '\0'; p++) 
....................       if (*p >= 'A' && *p <='Z') 
....................          *p += 'a' - 'A'; 
....................    return(s); 
.................... } 
....................  
....................  
.................... /************************************************************/ 
....................  
....................  
.................... #endif 
....................  
.................... #include <stdlib.h> 
.................... /////////////////////////////////////////////////////////////////////////// 
.................... ////        (C) Copyright 1996,2007 Custom Computer Services           //// 
.................... //// This source code may only be used by licensed users of the CCS C  //// 
.................... //// compiler.  This source code may only be distributed to other      //// 
.................... //// licensed users of the CCS C compiler.  No other use, reproduction //// 
.................... //// or distribution is permitted without written permission.          //// 
.................... //// Derivative programs created using this software in object code    //// 
.................... //// form are not restricted in any way.                               //// 
.................... /////////////////////////////////////////////////////////////////////////// 
....................  
.................... #ifndef _STDLIB 
.................... #define _STDLIB 
....................  
.................... //--------------------------------------------------------------------------- 
.................... // Definitions and types 
.................... //--------------------------------------------------------------------------- 
....................  
.................... #ifndef RAND_MAX 
.................... #define RAND_MAX  32767    // The value of which is the maximum value 
....................                            // ... returned by the rand function 
.................... #endif 
....................  
....................  
.................... #IF (sizeof(int16*)>1) 
.................... #DEFINE LONG_POINTERS 1 
.................... #ELSE  
.................... #DEFINE LONG_POINTERS 0 
.................... #ENDIF 
....................  
.................... typedef struct { 
....................    signed int quot; 
....................    signed int rem; 
.................... } div_t; 
....................  
.................... typedef struct { 
....................    signed long quot; 
....................    signed long rem; 
.................... } ldiv_t; 
....................  
.................... #include <stddef.h> 
.................... /////////////////////////////////////////////////////////////////////////// 
.................... ////        (C) Copyright 1996,2003 Custom Computer Services           //// 
.................... //// This source code may only be used by licensed users of the CCS C  //// 
.................... //// compiler.  This source code may only be distributed to other      //// 
.................... //// licensed users of the CCS C compiler.  No other use, reproduction //// 
.................... //// or distribution is permitted without written permission.          //// 
.................... //// Derivative programs created using this software in object code    //// 
.................... //// form are not restricted in any way.                               //// 
.................... /////////////////////////////////////////////////////////////////////////// 
....................  
.................... #ifndef _STDDEF 
....................  
.................... #define _STDDEF 
....................  
.................... #if sizeof(unsigned int8 *)==1 
.................... #define ptrdiff_t unsigned int8 
.................... #else 
.................... #define ptrdiff_t unsigned int16 
.................... #endif 
....................  
.................... #define size_t unsigned int8 
.................... #define wchar_t char 
.................... #define NULL 0 
....................  
.................... #define offsetof(s,f) (offsetofbit(s,f)/8) 
....................  
.................... #endif 
....................  
....................  
.................... //--------------------------------------------------------------------------- 
.................... // String conversion functions 
.................... //--------------------------------------------------------------------------- 
....................  
.................... /* Standard template: signed int  atoi(char * s) 
....................  * converts the initial portion of the string s to a signed int 
....................  * returns the converted value if any, 0 otherwise 
....................  */ 
.................... signed int atoi(char *s); 
....................  
.................... /* Syntax: signed int32  atoi32(char * s) 
....................    converts the initial portion of the string s to a signed int32 
....................    returns the converted value if any, 0 otherwise*/ 
.................... #if (sizeof(long)==4) 
....................  #define atoi32(s) atol(s) 
.................... #else  
....................  signed int32 atoi32(char *s); 
.................... #endif 
....................  
.................... #if defined(__PCD__) 
.................... // The following functions only work on the 24 bit compiler 
.................... // for the 30F, 33F, 24F and 24H parts 
.................... /* Syntax: signed int48  atoi48(char * s) 
....................    converts the initial portion of the string s to a signed int48 
....................    returns the converted value if any, 0 otherwise*/ 
....................     
.................... signed int48 atoi48(char *s); 
....................  
.................... /* Syntax: signed int64  atoi64(char * s) 
....................    converts the initial portion of the string s to a signed int64 
....................    returns the converted value if any, 0 otherwise*/ 
.................... signed int64 atoi64(char *s); 
.................... #endif 
....................  
.................... /* Syntax: char *  itoa(signed int32 num, int8 base, char * s) 
....................    converts the signed int32 to a string and 
....................    returns the converted value if any, 0 otherwise*/ 
.................... char * itoa(signed int32 num, unsigned int base, char * s); 
....................  
.................... /* Standard template: signed int16  atol(char * s) 
....................  * converts the initial portion of the string s to a signed int16 
....................  * returns the converted value if any, 0 otherwise 
....................  */ 
.................... signed long atol(char *s); 
....................  
.................... /* Standard template: int16 strtoul(char * s,char *endptr,signed int base) 
....................  * converts the initial portion of the string s, represented as an 
....................  * integral value of radix base  to a signed long. 
....................  * Returns the converted value if any, 0 otherwise 
....................  * the final string is returned in the endptr, if endptr is not null 
....................  */ 
.................... signed long strtol(char *s,char *endptr, signed int base); 
....................  
.................... /* Standard template: int16 strtoul(char * s,char *endptr,signed int base) 
....................  * converts the initial portion of the string s, represented as an 
....................  * integral value of radix base to a unsigned long. 
....................  * returns the converted value if any, 0 otherwise 
....................  * the final string is returned in the endptr, if endptr is not null 
....................  */ 
.................... unsigned long strtoul(char *s,char *endptr, signed int base); 
....................  
.................... /* Standart template: float strtof(char * s,char *endptr) 
....................                       float48 strtof48(char *s,char *endptr); 
....................                       float64 strtod(char *s,char *endptr); 
....................  * converts the initial portion of the string s to a float32, float48 or float64, 
....................  * returns the converted value if any, 0 otherwise 
....................  * the final string is returned in the endptr, if endptr is not null                    
.................... */ 
.................... float strtof(char *s,char *endptr); 
.................... #if defined(__PCD__) 
.................... float48 strtof48(char *s,char *endptr); 
.................... float64 strtod(char *s,char *endptr); 
.................... #else 
.................... //provided for compatibility 
.................... #define strtof48(s, e) strtof(s, e) 
.................... #define strtod(s, e) strtof(s, e) 
.................... #endif 
....................  
.................... /* Standard template: float32 atof(char * s) 
....................  * converts the initial portion of the string s to a float. 
....................  * returns the converted value if any, 0 otherwise 
....................  */ 
.................... #define atof(s)   strtof(s, 0) 
....................  
.................... #if defined(__PCD__) 
.................... // The following functions only work on the 24 bit compiler 
.................... // for the 30F, 33F, 24F and 24H parts 
....................  
.................... /* Standard template: float48 atof48(char * s) 
....................  * converts the initial portion of the string s to a float. 
....................  * returns the converted value if any, 0 otherwise 
....................  */ 
.................... #define atof48(s) strtof48(s, 0) 
....................  
.................... /* Standard template: float64 atof64(char * s) 
....................  * converts the initial portion of the string s to a float. 
....................  * returns the converted value if any, 0 otherwise 
....................  */ 
.................... #define atof64(s) strtod(s, 0) 
.................... #endif 
....................  
.................... /* Standard template: float32 atoe(char * s) 
....................  * converts the initial portion of the string s to a float. 
....................  * returns the converted value if any, 0 otherwise 
....................  * also handles E format numbers 
....................  */ 
.................... #if !defined(__PCD__) 
.................... float atoe(char * s); 
.................... #endif 
....................  
.................... #if defined(__PCD__) 
.................... float32 atoe(char * s); 
.................... #endif 
....................  
.................... //--------------------------------------------------------------------------- 
.................... // Pseudo-random sequence generation functions 
.................... //--------------------------------------------------------------------------- 
....................  
.................... /* The rand function computes a sequence of pseudo-random integers in 
....................  * the range 0 to RAND_MAX 
....................  * 
....................  * Parameters: 
....................  *       (none) 
....................  * 
....................  * Returns: 
....................  *       The pseudo-random integer 
....................  */ 
.................... unsigned int16 rand(void); 
....................  
.................... /* The srand function uses the argument as a seed for a new sequence of 
....................  * pseudo-random numbers to be returned by subsequent calls to rand. 
....................  * 
....................  * Parameters: 
....................  *       [in] seed: The seed value to start from. You might need to pass 
....................  * 
....................  * Returns: 
....................  *       (none) 
....................  * 
....................  * Remarks 
....................  *          The srand function sets the starting point for generating 
....................  *       a series of pseudorandom integers. To reinitialize the 
....................  *       generator, use 1 as the seed argument. Any other value for 
....................  *       seed sets the generator to a random starting point. rand 
....................  *       retrieves the pseudorandom numbers that are generated. 
....................  *       Calling rand before any call to srand generates the same 
....................  *       sequence as calling srand with seed passed as 1. 
....................  *          Usually, you need to pass a time here from outer source 
....................  *       so that the numbers will be different every time you run. 
....................  */ 
.................... void srand(unsigned int32 seed); 
....................  
.................... //--------------------------------------------------------------------------- 
.................... // Memory management functions 
.................... //--------------------------------------------------------------------------- 
....................  
.................... // Comming soon 
....................  
.................... //--------------------------------------------------------------------------- 
.................... // Communication with the environment 
.................... //--------------------------------------------------------------------------- 
....................  
.................... /* The function returns 0 always 
....................  */ 
.................... signed int8 system(char *string); 
....................  
.................... //--------------------------------------------------------------------------- 
.................... // Searching and sorting utilities 
.................... //--------------------------------------------------------------------------- 
....................  
.................... /* Performs a binary search of a sorted array.. 
....................  * 
....................  * Parameters: 
....................  *       [in] key: Object to search for 
....................  *       [in] base: Pointer to base of search data 
....................  *       [in] num: Number of elements 
....................  *       [in] width: Width of elements 
....................  *       [in] compare: Function that compares two elements 
....................  * 
....................  * Returns: 
....................  *       bsearch returns a pointer to an occurrence of key in the array pointed 
....................  *       to by base. If key is not found, the function returns NULL. If the 
....................  *       array is not in order or contains duplicate records with identical keys, 
....................  *       the result is unpredictable. 
....................  */ 
.................... //void *bsearch(const void *key, const void *base, size_t num, size_t width, 
.................... //              int (*compare)(const void *, const void *)); 
....................  
.................... /* Performs the shell-metzner sort (not the quick sort algorithm). The contents 
....................  * of the array are sorted into ascending order according to a comparison 
....................  * function pointed to by compar. 
....................  * 
....................  * Parameters: 
....................  *       [in] base: Pointer to base of search data 
....................  *       [in] num: Number of elements 
....................  *       [in] width: Width of elements 
....................  *       [in] compare: Function that compares two elements 
....................  * 
....................  * Returns: 
....................  *       (none) 
....................  */ 
.................... //void *qsort(const void *base, size_t num, size_t width, 
.................... //              int (*compare)(const void *, const void *)); 
....................  
.................... //--------------------------------------------------------------------------- 
.................... // Integer arithmetic functions 
.................... //--------------------------------------------------------------------------- 
....................  
.................... #define labs abs 
....................  
.................... div_t div(signed int numer, signed int denom); 
.................... ldiv_t ldiv(signed long numer, signed long denom); 
....................  
.................... //--------------------------------------------------------------------------- 
.................... // Multibyte character functions 
.................... //--------------------------------------------------------------------------- 
....................  
.................... // Not supported 
....................  
.................... //--------------------------------------------------------------------------- 
.................... // Multibyte string functions 
.................... //--------------------------------------------------------------------------- 
....................  
.................... // Not supported 
....................  
....................  
.................... //--------------------------------------------------------------------------- 
.................... // Internal implementation 
.................... //--------------------------------------------------------------------------- 
....................  
.................... #include <stddef.h> 
.................... /////////////////////////////////////////////////////////////////////////// 
.................... ////        (C) Copyright 1996,2003 Custom Computer Services           //// 
.................... //// This source code may only be used by licensed users of the CCS C  //// 
.................... //// compiler.  This source code may only be distributed to other      //// 
.................... //// licensed users of the CCS C compiler.  No other use, reproduction //// 
.................... //// or distribution is permitted without written permission.          //// 
.................... //// Derivative programs created using this software in object code    //// 
.................... //// form are not restricted in any way.                               //// 
.................... /////////////////////////////////////////////////////////////////////////// 
....................  
.................... #ifndef _STDDEF 
....................  
.................... #define _STDDEF 
....................  
.................... #if sizeof(unsigned int8 *)==1 
.................... #define ptrdiff_t unsigned int8 
.................... #else 
.................... #define ptrdiff_t unsigned int16 
.................... #endif 
....................  
.................... #define size_t unsigned int8 
.................... #define wchar_t char 
.................... #define NULL 0 
....................  
.................... #define offsetof(s,f) (offsetofbit(s,f)/8) 
....................  
.................... #endif 
....................  
.................... #include <string.h> 
.................... //////////////////////////////////////////////////////////////////////////// 
.................... ////        (C) Copyright 1996,2008 Custom Computer Services            //// 
.................... //// This source code may only be used by licensed users of the CCS C   //// 
.................... //// compiler.  This source code may only be distributed to other       //// 
.................... //// licensed users of the CCS C compiler.  No other use, reproduction  //// 
.................... //// or distribution is permitted without written permission.           //// 
.................... //// Derivative programs created using this software in object code     //// 
.................... //// form are not restricted in any way.                                //// 
.................... //////////////////////////////////////////////////////////////////////////// 
....................  
.................... #ifndef _STRING 
.................... #define _STRING 
.................... #include <stddef.h> 
.................... #include <ctype.h> 
....................  
....................  
....................  
.................... ////////////////////////////////////////////// 
.................... //// Uncomment the following define to    //// 
.................... //// allow some functions to use a        //// 
.................... //// quicker algorithm, but use more ROM  //// 
.................... ////                                      //// 
.................... //// #define FASTER_BUT_MORE_ROM          //// 
.................... ////////////////////////////////////////////// 
....................  
....................  
....................  
.................... /*Copying functions*/ 
.................... /* standard template: 
....................    void *memmove(void *s1, void *s2, size_t n). 
....................    Copies max of n characters safely (not following ending '\0') 
....................    from s2 in s1; if s2 has less than n characters, appends 0 */ 
....................  
.................... char *memmove(void *s1,char *s2,size_t n) 
.................... { 
....................    char *sc1; 
....................    char *sc2; 
....................    sc1=s1; 
....................    sc2=s2; 
....................    if(sc2<sc1 && sc1 <sc2 +n) 
....................       for(sc1+=n,sc2+=n;0<n;--n) 
....................          *--sc1=*--sc2; 
....................    else 
....................       for(;0<n;--n) 
....................          *sc1++=*sc2++; 
....................   return s1; 
....................   } 
....................  
.................... /* Standard template: char *strcpy(char *s1, const char *s2) 
....................    copies the string s2 including the null character to s1. 
....................    This is a compiler built in to handle the different address 
....................    spaces */ 
....................  
.................... #define strcopy strcpy 
....................  
.................... /* standard template: 
....................    char *strncpy(char *s1, const char *s2, size_t n). 
....................    Copies max of n characters (not following ending '\0') 
....................    from s2 in s1; if s2 has less than n characters, appends 0 */ 
....................  
.................... char *strncpy(char *s1, char *s2, size_t n) 
.................... { 
....................   char *s; 
....................  
....................   for (s = s1; n > 0 && *s2 != '\0'; n--) 
....................      *s++ = *s2++; 
....................   for (; n > 0; n--) 
....................      *s++ = '\0'; 
....................  
....................   return(s1); 
.................... } 
.................... /***********************************************************/ 
....................  
.................... /*concatenation functions*/ 
.................... /* standard template: char *strcat(char *s1, const char *s2) 
.................... appends s2 to s1*/ 
....................  
.................... char *strcat(char *s1, char *s2) 
.................... { 
....................    char *s; 
....................  
....................    for (s = s1; *s != '\0'; ++s); 
....................    while(*s2 != '\0') 
....................    { 
....................       *s = *s2; 
....................       ++s; 
....................       ++s2; 
....................    } 
....................  
....................    *s = '\0'; 
....................    return(s1); 
.................... } 
.................... /* standard template: char *strncat(char *s1, char *s2,size_t n) 
.................... appends not more than n characters from s2 to s1*/ 
....................  
.................... char *strncat(char *s1, char *s2, size_t n) 
.................... { 
....................    char *s; 
....................  
....................    for (s = s1; *s != '\0'; ++s); 
....................    while(*s2 != '\0' && 0<n) 
....................    { 
....................       *s = *s2; 
....................       ++s; 
....................       ++s2; 
....................       --n; 
....................    } 
....................  
....................    *s = '\0'; 
....................    return(s1); 
.................... } 
....................  
.................... /***********************************************************/ 
....................  
....................  
.................... /*comparison functions*/ 
.................... /* standard template: signed int memcmp(void *s1, void *s2). 
....................    Compares s1 & s2; returns -1 if s1<s2, 0 if s1=s2, 1 if s1>s2 */ 
....................  
.................... signed int8 memcmp(void * s1,char *s2,size_t n) 
.................... { 
.................... char *su1, *su2; 
.................... for(su1=s1, su2=s2; 0<n; ++su1, ++su2, --n) 
.................... { 
....................    if(*su1!=*su2) 
....................       return ((*su1<*su2)?-1:+1); 
.................... } 
.................... return 0; 
.................... } 
....................  
.................... /* standard template: int strcmp(const char *s1, const char *s2). 
....................    Compares s1 & s2; returns -1 if s1<s2, 0 if s1=s2, 1 if s1>s2 */ 
....................  
.................... signed int8 strcmp(char *s1, char *s2) 
.................... { 
....................    for (; *s1 == *s2; s1++, s2++) 
....................       if (*s1 == '\0') 
....................          return(0); 
....................    return((*s1 < *s2) ? -1: 1); 
.................... } 
.................... /* standard template: int strcoll(const char *s1, const char *s2). 
....................    Compares s1 & s2; returns -1 if s1<s2, 0 if s1=s2, 1 if s1>s2 */ 
....................  
.................... signed int8 strcoll(char *s1, char *s2) 
.................... { 
....................    for (; *s1 == *s2; s1++, s2++) 
....................       if (*s1 == '\0') 
....................          return(0); 
....................    return((*s1 < *s2) ? -1: 1); 
.................... } 
....................  
.................... /* standard template: 
....................    int strncmp(const char *s1, const char *s2, size_t n). 
....................    Compares max of n characters (not following 0) from s1 to s2; 
....................    returns same as strcmp */ 
....................  
.................... signed int8 strncmp(char *s1, char *s2, size_t n) 
.................... { 
....................    for (; n > 0; s1++, s2++, n--) 
....................       if (*s1 != *s2) 
....................          return((*s1 <*s2) ? -1: 1); 
....................       else if (*s1 == '\0') 
....................          return(0); 
....................    return(0); 
.................... } 
.................... /* standard template: 
....................    int strxfrm(const char *s1, const char *s2, size_t n). 
....................    transforms maximum of n characters from s2 and places them into s1*/ 
.................... size_t strxfrm(char *s1, char *s2, size_t n) 
.................... { 
....................   char *s; 
....................   unsigned int8 n1; 
....................   n1=n; 
....................   for (s = s1; n > 0 && *s2 != '\0'; n--) 
....................      *s++ = *s2++; 
....................   for (; n > 0; n--) 
....................      *s++ = '\0'; 
....................  
....................   return(n1); 
.................... } 
....................  
....................  
....................  
....................  
....................  
.................... /***********************************************************/ 
.................... /*Search functions*/ 
.................... /* standard template: void *memchr(const char *s, int c). 
....................    Finds first occurrence of c in n characters of s */ 
....................  
.................... char *memchr(void *s,unsigned int8 c,size_t n) 
.................... { 
....................    char uc; 
....................    char *su; 
....................    uc=c; 
....................    for(su=s;0<n;++su,--n) 
....................       if(*su==uc) 
....................       return su; 
....................    return NULL; 
.................... } 
....................  
.................... /* standard template: char *strchr(const char *s, int c). 
....................    Finds first occurrence of c in s */ 
....................  
.................... char *strchr(char *s, unsigned int8 c) 
.................... { 
....................    for (; *s != c; s++) 
....................       if (*s == '\0') 
....................          return(0); 
....................    return(s); 
.................... } 
.................... /* standard template: 
....................    size_t strcspn(const char *s1, const char *s2). 
....................    Computes length of max initial segment of s1 that 
....................    consists entirely of characters NOT from s2*/ 
....................  
.................... unsigned int8  strcspn(char *s1, char *s2) 
.................... { 
....................    char *sc1, *sc2; 
....................  
....................    for (sc1 = s1; *sc1 != 0; sc1++) 
....................       for (sc2 = s2; *sc2 != 0; sc2++) 
....................          if (*sc1 == *sc2) 
....................             return(sc1 - s1); 
....................    return(sc1 - s1); 
.................... } 
.................... /* standard template: 
....................    char *strpbrk(const char *s1, const char *s2). 
....................    Locates first occurence of any character from s2 in s1; 
....................    returns s1 if s2 is empty string */ 
....................  
.................... char *strpbrk(char *s1, char *s2) 
.................... { 
....................    char *sc1, *sc2; 
....................  
....................    for (sc1 = s1; *sc1 != 0; sc1++) 
....................       for (sc2 = s2; *sc2 != 0; sc2++) 
....................          if (*sc1 == *sc2) 
....................             return(sc1); 
....................    return(0); 
.................... } 
....................  
....................  
.................... /* standard template: char *strrchr(const char *s, int c). 
....................    Finds last occurrence of c in s */ 
....................  
.................... char *strrchr(char *s, unsigned int8 c) 
.................... { 
....................    char *p; 
....................  
....................    for (p = 0; ; s++) 
....................    { 
....................       if (*s == c) 
....................          p = s; 
....................       if (*s == '\0') 
....................          return(p); 
....................    } 
.................... } 
.................... /* computes length of max initial segment of s1 consisting 
....................    entirely of characters from s2 */ 
....................  
.................... unsigned int8  strspn(char *s1, char *s2) 
.................... { 
....................    char *sc1, *sc2; 
....................  
....................    for (sc1 = s1; *sc1 != 0; sc1++) 
....................       for (sc2 = s2; ; sc2++) 
....................     if (*sc2 == '\0') 
....................        return(sc1 - s1); 
....................          else if (*sc1 == *sc2) 
....................             break; 
....................    return(sc1 - s1); 
.................... } 
.................... /* standard template: 
....................    char *strstr(const char *s1, const char *s2); 
....................    Locates first occurence of character sequence s2 in s1; 
....................    returns 0 if s2 is empty string 
....................  
....................    Uncomment #define FASTER_BUT_MORE_ROM at the top of the 
....................    file to use the faster algorithm */ 
.................... char *strstr(char *s1, char *s2) 
.................... { 
....................    char *s, *t; 
....................  
....................    #ifdef FASTER_BUT_MORE_ROM 
....................    if (*s2 == '\0') 
....................          return(s1); 
....................    #endif 
....................  
....................    while (*s1) 
....................    { 
....................       for(s = s1, t = s2; *t && (*s == *t); ++s, ++t); 
....................  
....................       if (*t == '\0') 
....................          return s1; 
....................       ++s1; 
....................       #ifdef FASTER_BUT_MORE_ROM 
....................          while(*s1 != '\0' && *s1 != *s2) 
....................             ++s1; 
....................       #endif 
....................    } 
....................    return 0; 
.................... } 
....................  
.................... /* standard template: char *strtok(char *s1, const char *s2). 
....................  
....................    Finds next token in s1 delimited by a character from separator 
....................    string s2 (which can be different from call to call).  First call 
....................    starts at beginning of s1 searching for first character NOT 
....................    contained in s2; returns 0 if none is found. 
....................    If one is found, it is the start of first token (return value). 
....................    Function then searches from there for a character contained in s2. 
....................    If none is found, current token extends to end of s1, and subsequent 
....................    searches for a token will return 0.  If one is found, it is 
....................    overwritten by '\0', which terminates current token.  Function saves 
....................    pointer to following character from which next search will start. 
....................    Each subsequent call, with 0 as first argument, starts searching 
....................    from saved pointer */ 
....................  
.................... char *strtok(char *s1, char *s2) 
.................... { 
....................    char *beg, *end; 
....................    static char *save; 
....................  
....................    beg = (s1)? s1: save; 
....................    beg += strspn(beg, s2); 
....................    if (*beg == '\0') 
....................    { 
....................       *save = ' '; 
....................       return(0); 
....................    } 
....................    end = strpbrk(beg, s2); 
....................    if (*end != '\0') 
....................    { 
....................       *end = '\0'; 
....................       end++; 
....................    } 
....................    save = end; 
....................    return(beg); 
.................... } 
....................  
.................... /*****************************************************************/ 
.................... /*Miscellaneous functions*/ 
.................... /* standard template 
.................... maps error number in errnum to an error message string 
.................... Returns: Pointer to string 
.................... */ 
.................... #ifdef _ERRNO 
.................... char * strerror(unsigned int8 errnum) 
.................... { 
.................... char s[15]; 
.................... switch( errnum) 
.................... { 
.................... case 0: 
....................    strcpy(s,"no errors"); 
....................    return s; 
.................... case EDOM : 
....................    strcpy(s,"domain error"); 
....................    return s; 
.................... case ERANGE: 
....................    strcpy(s,"range error"); 
....................    return s; 
.................... } 
.................... } 
.................... #ENDIF 
.................... /* standard template: size_t strlen(const char *s). 
....................    Computes length of s1 (preceding terminating 0) */ 
....................  
.................... unsigned int8 strlen(char *s) 
.................... { 
....................    char *sc; 
....................  
....................    for (sc = s; *sc != 0; sc++); 
....................    return(sc - s); 
.................... } 
....................  
.................... /* standard template: size_t stricmp(const char *s1, const char *s2). 
....................    Compares s1 to s2 ignoring case (upper vs. lower) */ 
....................  
.................... signed int8 stricmp(char *s1, char *s2) 
.................... { 
....................  for(; *s1==*s2||(isalpha(*s1)&&isalpha(*s2)&&(*s1==*s2+32||*s2==*s1+32)); 
....................     s1++, s2++) 
....................     if (*s1 == '\0') 
....................        return(0); 
....................  return((*s1 < *s2) ? -1: 1); 
.................... } 
....................  
....................  
.................... /* standard template: char *strlwr(char *s). 
....................    Replaces uppercase letters by lowercase; 
....................    returns pointer to new string s */ 
....................  
.................... char *strlwr(char *s) 
.................... { 
....................    char *p; 
....................  
....................    for (p = s; *p != '\0'; p++) 
....................       if (*p >= 'A' && *p <='Z') 
....................          *p += 'a' - 'A'; 
....................    return(s); 
.................... } 
....................  
....................  
.................... /************************************************************/ 
....................  
....................  
.................... #endif 
....................  
....................  
.................... div_t div(signed int numer, signed int denom) 
.................... { 
....................    div_t val; 
....................    val.quot = numer / denom; 
....................    val.rem = numer - (denom * val.quot); 
....................    return (val); 
.................... } 
....................  
.................... ldiv_t ldiv(signed long numer, signed long denom) 
.................... { 
....................    ldiv_t val; 
....................  
....................    val.quot = numer / denom; 
....................    val.rem = numer - (denom * val.quot); 
....................    return (val); 
.................... } 
....................  
.................... #if defined(__PCD__) 
.................... float32 atoe(char * s) 
.................... { 
....................    float32 pow10 = 1.0; 
....................    float32 result = 0.0; 
....................    unsigned int8 sign = 0; 
....................    unsigned int8 expsign = 0; 
....................    char c; 
....................    unsigned int8 ptr = 0; 
....................    unsigned int8 i; 
....................    float32 exp = 1.0; 
....................    unsigned int8 expcnt = 0; 
....................  
....................    c = s[ptr++]; 
....................  
....................    if ((c>='0' && c<='9') || c=='+' || c=='-' || c=='.' || c=='E' || c=='e') { 
....................       if(c == '-') { 
....................          sign = 1; 
....................          c = s[ptr++]; 
....................       } 
....................       if(c == '+') 
....................          c = s[ptr++]; 
....................  
....................       while((c >= '0' && c <= '9')) { 
....................          result = 10*result + c - '0'; 
....................          c = s[ptr++]; 
....................       } 
....................  
....................       if (c == '.') { 
....................          c = s[ptr++]; 
....................          while((c >= '0' && c <= '9')) { 
....................              pow10 = pow10*10; 
....................              result += (c - '0')/pow10; 
....................              c = s[ptr++]; 
....................          } 
....................       } 
....................  
....................       // Handling the exponent 
....................       if (c=='e' || c=='E') { 
....................          c = s[ptr++]; 
....................  
....................          if(c == '-') { 
....................             expsign = 1; 
....................             c = s[ptr++]; 
....................          } 
....................          if(c == '+') 
....................             c = s[ptr++]; 
....................  
....................          while((c >= '0' && c <= '9')) { 
....................             expcnt = 10*expcnt + c - '0'; 
....................             c = s[ptr++]; 
....................          } 
....................  
....................          for(i=0;i<expcnt;i++) 
....................             exp*=10; 
....................  
....................          if(expsign==1) 
....................             result/=exp; 
....................          else 
....................             result*=exp; 
....................       } 
....................    } 
....................  
....................    if (sign == 1) 
....................       result = -1*result; 
....................    return(result); 
.................... } 
.................... #endif 
....................  
.................... #if !defined(__PCD__) 
.................... float atoe(char * s) 
.................... { 
....................    float pow10 = 1.0; 
....................    float result = 0.0; 
....................    unsigned int8 sign = 0; 
....................    unsigned int8 expsign = 0; 
....................    char c; 
....................    unsigned int8 ptr = 0; 
....................    unsigned int8 i; 
....................    float exp = 1.0; 
....................    unsigned int8 expcnt = 0; 
....................  
....................    c = s[ptr++]; 
....................  
....................    if ((c>='0' && c<='9') || c=='+' || c=='-' || c=='.' || c=='E' || c=='e') { 
....................       if(c == '-') { 
....................          sign = 1; 
....................          c = s[ptr++]; 
....................       } 
....................       if(c == '+') 
....................          c = s[ptr++]; 
....................  
....................       while((c >= '0' && c <= '9')) { 
....................          result = 10*result + c - '0'; 
....................          c = s[ptr++]; 
....................       } 
....................  
....................       if (c == '.') { 
....................          c = s[ptr++]; 
....................          while((c >= '0' && c <= '9')) { 
....................              pow10 = pow10*10; 
....................              result += (c - '0')/pow10; 
....................              c = s[ptr++]; 
....................          } 
....................       } 
....................  
....................       // Handling the exponent 
....................       if (c=='e' || c=='E') { 
....................          c = s[ptr++]; 
....................  
....................          if(c == '-') { 
....................             expsign = 1; 
....................             c = s[ptr++]; 
....................          } 
....................          if(c == '+') 
....................             c = s[ptr++]; 
....................  
....................          while((c >= '0' && c <= '9')) { 
....................             expcnt = 10*expcnt + c - '0'; 
....................             c = s[ptr++]; 
....................          } 
....................  
....................          for(i=0;i<expcnt;i++) 
....................             exp*=10; 
....................  
....................          if(expsign==1) 
....................             result/=exp; 
....................          else 
....................             result*=exp; 
....................       } 
....................    } 
....................  
....................    if (sign == 1) 
....................       result = -1*result; 
....................    return(result); 
.................... } 
.................... #endif 
....................  
.................... signed int atoi(char *s) 
.................... { 
....................    signed int result; 
....................    unsigned int sign, base, index; 
....................    char c; 
....................  
....................    index = 0; 
....................    sign = 0; 
....................    base = 10; 
....................    result = 0; 
....................  
....................    if (!s) 
....................       return 0; 
....................    // Omit all preceeding alpha characters 
....................    c = s[index++]; 
....................  
....................    // increase index if either positive or negative sign is detected 
....................    if (c == '-') 
....................    { 
....................       sign = 1;         // Set the sign to negative 
....................       c = s[index++]; 
....................    } 
....................    else if (c == '+') 
....................    { 
....................       c = s[index++]; 
....................    } 
....................  
....................    if (c >= '0' && c <= '9') 
....................    { 
....................  
....................       // Check for hexa number 
....................       if (c == '0' && (s[index] == 'x' || s[index] == 'X')) 
....................       { 
....................          base = 16; 
....................          index++; 
....................          c = s[index++]; 
....................       } 
....................  
....................       // The number is a decimal number 
....................       if (base == 10) 
....................       { 
....................          while (c >= '0' && c <= '9') 
....................          { 
....................             result = 10*result + (c - '0'); 
....................             c = s[index++]; 
....................          } 
....................       } 
....................       else if (base == 16)    // The number is a hexa number 
....................       { 
....................          c = toupper(c); 
....................          while ( (c >= '0' && c <= '9') || (c >= 'A' && c<='F')) 
....................          { 
....................             if (c >= '0' && c <= '9') 
....................                result = (result << 4) + (c - '0'); 
....................             else 
....................                result = (result << 4) + (c - 'A' + 10); 
....................  
....................             c = s[index++]; 
....................             c = toupper(c); 
....................          } 
....................       } 
....................    } 
....................  
....................    if (sign == 1 && base == 10) 
....................        result = -result; 
....................  
....................    return(result); 
.................... } 
....................  
.................... signed long atol(char *s) 
.................... { 
....................    signed long result; 
....................    unsigned int sign, base, index; 
....................    char c; 
....................  
....................    index = 0; 
....................    sign = 0; 
....................    base = 10; 
....................    result = 0; 
....................  
....................    if (!s) 
....................       return 0; 
....................    c = s[index++]; 
....................  
....................    // increase index if either positive or negative sign is detected 
....................    if (c == '-') 
....................    { 
....................       sign = 1;         // Set the sign to negative 
....................       c = s[index++]; 
....................    } 
....................    else if (c == '+') 
....................    { 
....................       c = s[index++]; 
....................    } 
....................  
....................    if (c >= '0' && c <= '9') 
....................    { 
....................       if (c == '0' && (s[index] == 'x' || s[index] == 'X')) 
....................       { 
....................          base = 16; 
....................          index++; 
....................          c = s[index++]; 
....................       } 
....................  
....................       // The number is a decimal number 
....................       if (base == 10) 
....................       { 
....................          while (c >= '0' && c <= '9') 
....................          { 
....................             result = 10*result + (c - '0'); 
....................             c = s[index++]; 
....................          } 
....................       } 
....................       else if (base == 16)    // The number is a hexa number 
....................       { 
....................          c = toupper(c); 
....................          while ( (c >= '0' && c <= '9') || (c >= 'A' && c <='F')) 
....................          { 
....................             if (c >= '0' && c <= '9') 
....................                result = (result << 4) + (c - '0'); 
....................             else 
....................                result = (result << 4) + (c - 'A' + 10); 
....................  
....................             c = s[index++];c = toupper(c); 
....................          } 
....................       } 
....................    } 
....................  
....................    if (base == 10 && sign == 1) 
....................       result = -result; 
....................  
....................    return(result); 
.................... } 
....................  
.................... /* A fast routine to multiply by 10 
....................  */ 
.................... signed int32 mult_with10(int32 num) 
.................... { 
....................    return ( (num << 1) + (num << 3) ); 
.................... } 
....................  
.................... #if sizeof(long)==2 
.................... signed int32 atoi32(char *s) 
.................... { 
....................    signed int32 result; 
....................    int8 sign, base, index; 
....................    char c; 
....................  
....................    index = 0; 
....................    sign = 0; 
....................    base = 10; 
....................    result = 0; 
....................  
....................    if (!s) 
....................       return 0; 
....................    c = s[index++]; 
....................  
....................    // increase index if either positive or negative sign is detected 
....................    if (c == '-') 
....................    { 
....................       sign = 1;         // Set the sign to negative 
....................       c = s[index++]; 
....................    } 
....................    else if (c == '+') 
....................    { 
....................       c = s[index++]; 
....................    } 
....................  
....................    if (c >= '0' && c <= '9') 
....................    { 
....................       if (c == '0' && (s[index] == 'x' || s[index] == 'X')) 
....................       { 
....................          base = 16; 
....................          index++; 
....................          c = s[index++]; 
....................       } 
....................  
....................       // The number is a decimal number 
....................       if (base == 10) 
....................       { 
....................          while (c >= '0' && c <= '9') { 
....................             result = (result << 1) + (result << 3);  // result *= 10; 
....................             result += (c - '0'); 
....................             c = s[index++]; 
....................          } 
....................       } 
....................       else if (base == 16)    // The number is a hexa number 
....................       { 
....................          c = toupper(c); 
....................          while ((c >= '0' && c <= '9') || (c >= 'A' && c <='F')) 
....................          { 
....................             if (c >= '0' && c <= '9') 
....................                result = (result << 4) + (c - '0'); 
....................             else 
....................                result = (result << 4) + (c - 'A' + 10); 
....................  
....................             c = s[index++];c = toupper(c); 
....................          } 
....................       } 
....................    } 
....................  
....................    if (base == 10 && sign == 1) 
....................       result = -result; 
....................  
....................    return(result); 
.................... } 
.................... #endif 
....................  
.................... #if defined(__PCD__) 
....................  
.................... signed int48 atoi48(char *s) 
.................... { 
....................    signed int48 result; 
....................    int8 sign, base, index; 
....................    char c; 
....................  
....................    index = 0; 
....................    sign = 0; 
....................    base = 10; 
....................    result = 0; 
....................  
....................    if (!s) 
....................       return 0; 
....................    c = s[index++]; 
....................  
....................    // increase index if either positive or negative sign is detected 
....................    if (c == '-') 
....................    { 
....................       sign = 1;         // Set the sign to negative 
....................       c = s[index++]; 
....................    } 
....................    else if (c == '+') 
....................    { 
....................       c = s[index++]; 
....................    } 
....................  
....................    if (c >= '0' && c <= '9') 
....................    { 
....................       if (c == '0' && (s[index] == 'x' || s[index] == 'X')) 
....................       { 
....................          base = 16; 
....................          index++; 
....................          c = s[index++]; 
....................       } 
....................  
....................       // The number is a decimal number 
....................       if (base == 10) 
....................       { 
....................          while (c >= '0' && c <= '9') { 
....................             result = (result << 1) + (result << 3);  // result *= 10; 
....................             result += (c - '0'); 
....................             c = s[index++]; 
....................          } 
....................       } 
....................       else if (base == 16)    // The number is a hexa number 
....................       { 
....................          c = toupper(c); 
....................          while ((c >= '0' && c <= '9') || (c >= 'A' && c <='F')) 
....................          { 
....................             if (c >= '0' && c <= '9') 
....................                result = (result << 4) + (c - '0'); 
....................             else 
....................                result = (result << 4) + (c - 'A' + 10); 
....................  
....................             c = s[index++];c = toupper(c); 
....................          } 
....................       } 
....................    } 
....................  
....................    if (base == 10 && sign == 1) 
....................       result = -result; 
....................  
....................    return(result); 
.................... } 
....................  
.................... signed int64 atoi64(char *s) 
.................... { 
....................    signed int64 result; 
....................    int8 sign, base, index; 
....................    char c; 
....................  
....................    index = 0; 
....................    sign = 0; 
....................    base = 10; 
....................    result = 0; 
....................  
....................    if (!s) 
....................       return 0; 
....................    c = s[index++]; 
....................  
....................    // increase index if either positive or negative sign is detected 
....................    if (c == '-') 
....................    { 
....................       sign = 1;         // Set the sign to negative 
....................       c = s[index++]; 
....................    } 
....................    else if (c == '+') 
....................    { 
....................       c = s[index++]; 
....................    } 
....................  
....................    if (c >= '0' && c <= '9') 
....................    { 
....................       if (c == '0' && (s[index] == 'x' || s[index] == 'X')) 
....................       { 
....................          base = 16; 
....................          index++; 
....................          c = s[index++]; 
....................       } 
....................  
....................       // The number is a decimal number 
....................       if (base == 10) 
....................       { 
....................          while (c >= '0' && c <= '9') { 
....................             result = (result << 1) + (result << 3);  // result *= 10; 
....................             result += (c - '0'); 
....................             c = s[index++]; 
....................          } 
....................       } 
....................       else if (base == 16)    // The number is a hexa number 
....................       { 
....................          c = toupper(c); 
....................          while ((c >= '0' && c <= '9') || (c >= 'A' && c <='F')) 
....................          { 
....................             if (c >= '0' && c <= '9') 
....................                result = (result << 4) + (c - '0'); 
....................             else 
....................                result = (result << 4) + (c - 'A' + 10); 
....................  
....................             c = s[index++];c = toupper(c); 
....................          } 
....................       } 
....................    } 
....................  
....................    if (base == 10 && sign == 1) 
....................       result = -result; 
....................  
....................    return(result); 
.................... } 
.................... #endif 
....................  
.................... char * itoa(signed int32 num, unsigned int base, char * s) 
.................... { 
....................      unsigned int32 temp=1; 
....................      unsigned int8 i,sign=0,cnt=0; 
....................      char c; 
....................  
....................      if(num<0) { 
....................          sign=1;        // Check for negative number 
....................          num*=-1; 
....................      } 
....................  
....................      while(temp>0) { 
....................          temp=(num/base); 
....................          s[cnt]=(num%base)+'0';    // Conversion 
....................  
....................          if(s[cnt]>0x39) 
....................             s[cnt]+=0x7; 
....................  
....................          cnt++; 
....................          num=temp; 
....................      } 
....................  
....................      if(sign==1) { 
....................          s[cnt]=0x2D;      // Negative sign 
....................          cnt++; 
....................      } 
....................  
....................      for(i = 0;i<(int8)(cnt/2);i++) { 
....................  
....................          c=s[i]; 
....................          s[i]=s[cnt-i-1];        // Reverse the number 
....................          s[cnt-i-1]=c; 
....................      } 
....................      s[cnt]='\0';     // End the string 
....................      return s; 
.................... } 
....................  
.................... float strtof(char *s, char *endptr) 
.................... { 
....................    float pow10 = 1.0; 
....................    float result = 0.0; 
....................    int1 skip = 1, sign = 0, point = 0; 
....................    char c; 
....................    unsigned int8 ptr = 0; 
....................  
....................    if (!s) 
....................       return 0; 
....................  
....................    for(c=s[ptr++]; c!=0; c=s[ptr++]) 
....................    { 
....................       if (skip && !isspace(c)) 
....................       { 
....................          skip = 0; 
....................          if (c == '+') 
....................          { 
....................             sign = 0; 
....................             continue; 
....................          }             
....................          else if (c == '-') 
....................          { 
....................             sign = 1; 
....................             continue; 
....................          } 
....................       } 
....................       if (!skip && (c == '.') && !point) 
....................          point = 1; 
....................       else if (!skip && isdigit(c)) 
....................       { 
....................          c -= '0'; 
....................          if (point) 
....................          { 
....................             pow10 = pow10 * 10.0; 
....................             result += (float)c / pow10;    
....................          } 
....................          else 
....................          { 
....................             result = 10.0 * result + (float)c; 
....................          } 
....................       } 
....................       else if (!skip) 
....................          break; 
....................    } 
....................  
....................    if (sign) 
....................       result = -1*result; 
....................        
....................    if(endptr) 
....................    { 
....................       if (ptr) { 
....................          ptr--; 
....................        #IF LONG_POINTERS  
....................          *((long *)endptr)= s+ptr;  
....................        #ELSE 
....................          *((char *)endptr)=s+ptr; 
....................        #ENDIF 
....................       } 
....................       else 
....................       { 
....................       #IF LONG_POINTERS 
....................       *((long *)endptr)= s;  
....................       #ELSE 
....................       *((char *)endptr)=s; 
....................       #ENDIF 
....................       } 
....................    } 
....................  
....................    return(result); 
.................... } 
....................  
.................... #if defined(__PCD__) 
.................... float48 strtof48(char *s, char *endptr) 
.................... { 
....................    float48 pow10 = 1.0; 
....................    float48 result = 0.0; 
....................    int1 skip = 1, sign = 0, point = 0; 
....................    char c; 
....................    unsigned int8 ptr = 0; 
....................  
....................    if (!s) 
....................       return 0; 
....................  
....................    for(c=s[ptr++]; c!=0; c=s[ptr++]) 
....................    { 
....................       if (skip && !isspace(c)) 
....................       { 
....................          skip = 0; 
....................          if (c == '+') 
....................          { 
....................             sign = 0; 
....................             continue; 
....................          }             
....................          else if (c == '-') 
....................          { 
....................             sign = 1; 
....................             continue; 
....................          } 
....................       } 
....................       if (!skip && (c == '.') && !point) 
....................          point = 1; 
....................       else if (!skip && isdigit(c)) 
....................       { 
....................          c -= '0'; 
....................          if (point) 
....................          { 
....................             pow10 = pow10 * 10.0; 
....................             result += (float48)c / pow10;    
....................          } 
....................          else 
....................          { 
....................             result = 10.0 * result + (float48)c; 
....................          } 
....................       } 
....................       else if (!skip) 
....................          break; 
....................    } 
....................  
....................    if (sign) 
....................       result = -1*result; 
....................        
....................    if(endptr) 
....................    { 
....................       if (ptr) { 
....................          ptr--; 
....................        #IF LONG_POINTERS  
....................          *((long *)endptr)= s+ptr;  
....................        #ELSE 
....................          *((char *)endptr)=s+ptr; 
....................        #ENDIF 
....................       } 
....................       else 
....................       { 
....................       #IF LONG_POINTERS 
....................       *((long *)endptr)= s;  
....................       #ELSE 
....................       *((char *)endptr)=s; 
....................       #ENDIF 
....................       } 
....................    } 
....................  
....................    return(result); 
.................... } 
....................  
.................... float64 strtod(char *s, char *endptr) 
.................... { 
....................    float64 pow10 = 1.0; 
....................    float64 result = 0.0; 
....................    int1 skip = 1, sign = 0, point = 0; 
....................    char c; 
....................    unsigned int8 ptr = 0; 
....................  
....................    if (!s) 
....................       return 0; 
....................  
....................    for(c=s[ptr++]; c!=0; c=s[ptr++]) 
....................    { 
....................       if (skip && !isspace(c)) 
....................       { 
....................          skip = 0; 
....................          if (c == '+') 
....................          { 
....................             sign = 0; 
....................             continue; 
....................          }             
....................          else if (c == '-') 
....................          { 
....................             sign = 1; 
....................             continue; 
....................          } 
....................       } 
....................       if (!skip && (c == '.') && !point) 
....................          point = 1; 
....................       else if (!skip && isdigit(c)) 
....................       { 
....................          c -= '0'; 
....................          if (point) 
....................          { 
....................             pow10 = pow10 * 10.0; 
....................             result += (float64)c / pow10;    
....................          } 
....................          else 
....................          { 
....................             result = 10.0 * result + (float64)c; 
....................          } 
....................       } 
....................       else if (!skip) 
....................          break; 
....................    } 
....................  
....................    if (sign) 
....................       result = -1*result; 
....................        
....................    if(endptr) 
....................    { 
....................       if (ptr) { 
....................          ptr--; 
....................        #IF LONG_POINTERS  
....................          *((long *)endptr)= s+ptr;  
....................        #ELSE 
....................          *((char *)endptr)=s+ptr; 
....................        #ENDIF 
....................       } 
....................       else 
....................       { 
....................       #IF LONG_POINTERS 
....................       *((long *)endptr)= s;  
....................       #ELSE 
....................       *((char *)endptr)=s; 
....................       #ENDIF 
....................       } 
....................    } 
....................  
....................    return(result); 
.................... } 
.................... #endif 
....................  
.................... unsigned long strtoul(char *s, char *endptr, signed int base) 
.................... { 
....................    char *sc,*s1,*sd; 
....................    unsigned long x=0; 
....................    char sign; 
....................    char digits[]="0123456789abcdefghijklmnopqstuvwxyz"; 
....................    for(sc=s;isspace(*sc);++sc); 
....................    sign=*sc=='-'||*sc=='+'?*sc++:'+'; 
....................    if(sign=='-' || base <0 || base ==1|| base >36) // invalid base 
....................    goto StrtoulGO; 
....................  
....................    else if (base) 
....................    { 
....................       if(base==16 && *sc =='0'&&(sc[1]=='x' || sc[1]=='X')) 
....................          sc+=2; 
....................       if(base==8 && *sc =='0') 
....................          sc+=1; 
....................       if(base==2 && *sc =='0'&&sc[1]=='b') 
....................          sc+=2; 
....................  
....................    } 
....................    else if(*sc!='0') // base is 0, find base 
....................       base=10; 
....................    else if (sc[1]=='x' || sc[1]=='X') 
....................       base =16,sc+=2; 
....................    else if(sc[1]=='b') 
....................       base=2,sc+=2; 
....................    else 
....................       base=8; 
....................    for (s1=sc;*sc=='0';++sc);// skip leading zeroes 
....................    sd=memchr(digits,tolower(*sc),base); 
....................    for(; sd!=0; ) 
....................    { 
....................       x=x*base+(int16)(sd-digits); 
....................       ++sc; 
....................       sd=memchr(digits,tolower(*sc),base); 
....................    } 
....................    if(s1==sc) 
....................    { 
....................    StrtoulGO: 
....................       if (endptr) 
....................       { 
....................          #IF LONG_POINTERS 
....................          *((long *)endptr)= s;  
....................          #ELSE 
....................          *((char *)endptr)=s; 
....................          #ENDIF 
....................          } 
....................    return 0; 
....................    } 
....................    if (endptr) 
....................    { 
....................          #IF LONG_POINTERS 
....................          *((long *)endptr)= sc;  
....................          #ELSE 
....................          *((char *)endptr)=sc;  
....................          #ENDIF 
....................    } 
....................    return x; 
.................... } 
....................  
....................  
.................... signed long strtol(char *s,char *endptr, signed int base) 
.................... { 
....................    char *sc,*s1,*sd; 
....................    signed long x=0; 
....................    char sign; 
....................    char digits[]="0123456789abcdefghijklmnopqstuvwxyz"; 
....................    for(sc=s;isspace(*sc);++sc); 
....................    sign=*sc=='-'||*sc=='+'?*sc++:'+'; 
....................    if (base <0 || base ==1|| base >36) // invalid base 
....................    goto StrtolGO; 
....................    else if (base) 
....................    { 
....................       if(base==16 && *sc =='0'&&(sc[1]=='x' || sc[1]=='X')) 
....................          sc+=2; 
....................       if(base==8 && *sc =='0') 
....................          sc+=1; 
....................       if(base==2 && *sc =='0'&&sc[1]=='b') 
....................          sc+=2; 
....................  
....................    } 
....................    else if(*sc!='0') // base is 0, find base 
....................       base=10; 
....................    else if (sc[1]=='x' || sc[1]=='X') 
....................       base =16,sc+=2; 
....................    else if(sc[1]=='b') 
....................       base=2,sc+=2; 
....................    else 
....................       base=8; 
....................    for (s1=sc;*sc=='0';++sc);// skip leading zeroes 
....................  
....................    sd=memchr(digits,tolower(*sc),base); 
....................    for(;sd!=0;) 
....................    { 
....................       x=x*base+(int16)(sd-digits); 
....................       ++sc; 
....................       sd=memchr(digits,tolower(*sc),base); 
....................    } 
....................    if(s1==sc) 
....................    { 
....................    StrtolGO: 
....................       if (endptr) 
....................       { 
....................          #IF LONG_POINTERS 
....................          *((long *)endptr)= s;  
....................          #ELSE 
....................          *((char *)endptr)=s; 
....................          #ENDIF 
....................       } 
....................    return 0; 
....................    } 
....................    if(sign=='-') 
....................       x  =-x; 
....................    if (endptr) 
....................    { 
....................         #IF LONG_POINTERS 
....................          *((long *)endptr)= sc;  
....................         #ELSE 
....................         *((char *)endptr)=sc; 
....................         #ENDIF 
....................    } 
....................    return x; 
.................... } 
....................  
.................... signed int8 system(char *string) 
.................... { 
....................    return 0; 
.................... } 
....................  
.................... int8 mblen(char *s,size_t n) 
.................... { 
....................    return strlen(s); 
.................... } 
....................  
.................... int8 mbtowc(wchar_t *pwc,char *s,size_t n) 
.................... { 
....................    *pwc=*s; 
....................    return 1; 
.................... } 
....................  
.................... int8 wctomb(char *s,wchar_t wchar) 
.................... { 
....................    *s=wchar; 
....................    return 1; 
.................... } 
....................  
.................... size_t mbstowcs(wchar_t *pwcs,char *s,size_t n) 
.................... { 
....................    strncpy(pwcs,s,n); 
....................    return strlen(pwcs); 
.................... } 
....................  
.................... size_t wcstombs(char *s,wchar_t *pwcs,size_t n) 
.................... { 
....................    strncpy(s,pwcs,n); 
....................    return strlen(s); 
.................... } 
....................  
.................... //--------------------------------------------------------------------------- 
.................... // The random number implementation 
.................... //--------------------------------------------------------------------------- 
....................  
.................... unsigned int32 _Randseed; 
....................  
.................... unsigned int16 rand(void) 
.................... { 
....................    _Randseed = _Randseed * 1103515245 + 12345; 
....................    return ((unsigned int16)(_Randseed >> 16) % RAND_MAX); 
.................... } 
....................  
.................... void srand(unsigned int32 seed) 
.................... { 
....................    _Randseed = seed; 
.................... } 
....................  
.................... //--------------------------------------------------------------------------- 
.................... // Searching and sorting utilities implementation 
.................... //--------------------------------------------------------------------------- 
....................  
.................... #if !defined(__PCD__) 
.................... typedef signed int8 (*_Cmpfun)(char * p1,char * p2);  
.................... #else  
.................... typedef signed int16 (*_Cmpfun)(char * p1,char * p2);  
.................... #endif 
....................  
....................  
....................  
.................... void qsort(char * qdata, unsigned int qitems, unsigned int qsize, _Cmpfun cmp) { 
....................    unsigned int m,j,i,l; 
....................    int1 done; 
....................    unsigned int8 t[16]; 
....................  
....................    m = qitems/2; 
....................    while( m > 0 ) { 
....................      for(j=0; j<(qitems-m); ++j) { 
....................         i = j; 
....................         do 
....................         { 
....................            done=1; 
....................            l = i+m; 
....................            if( (*cmp)(qdata+i*qsize, qdata+l*qsize) > 0 ) { 
....................               memcpy(t, qdata+i*qsize, qsize); 
....................               memcpy(qdata+i*qsize, qdata+l*qsize, qsize); 
....................               memcpy(qdata+l*qsize, t, qsize); 
....................               if(m <= i) 
....................                 i -= m; 
....................                 done = 0; 
....................            } 
....................         } while(!done); 
....................      } 
....................      m = m/2; 
....................    } 
.................... } 
....................  
....................  
.................... char *bsearch(char *key, char *base, size_t num, size_t width,_Cmpfun cmp) 
.................... { 
....................    char *p, *q; 
....................    size_t n; 
....................    size_t pivot; 
....................    signed int val; 
....................  
....................    p = base; 
....................    n = num; 
....................  
....................    while (n > 0) 
....................    { 
....................       pivot = n >> 1; 
....................       q = p + width * pivot; 
....................  
....................       val = (*cmp)(key, q); 
....................  
....................       if (val < 0) 
....................          n = pivot; 
....................       else if (val == 0) 
....................          return ((char *)q); 
....................       else { 
....................          p = q + width; 
....................          n -= pivot + 1; 
....................       } 
....................    } 
....................  
....................    return NULL;      // There's no match 
.................... } 
....................  
....................  
.................... #endif 
....................  
.................... #include <DS1302.c> 
.................... ////////////////////////////////////////////////////////////////////////// 
.................... ////                               DS1302.C                           //// 
.................... ////                     Driver for Real Time Clock                   //// 
.................... ////                                                                  //// 
.................... ////  rtc_init()                                   Call after power up//// 
.................... ////                                                                  //// 
.................... ////  rtc_set_datetime(day,mth,year,dow,hour,min)  Set the date/time  //// 
.................... ////                                                                  //// 
.................... ////  rtc_get_date(day,mth,year,dow)               Get the date       //// 
.................... ////                                                                  //// 
.................... ////  rtc_get_time(hr,min,sec)                     Get the time       //// 
.................... ////                                                                  //// 
.................... ////  rtc_write_nvr(address,data)                  Write to NVR       //// 
.................... ////                                                                  //// 
.................... ////  data = rtc_read_nvr(address)                 Read from NVR      //// 
.................... ////                                                                  //// 
.................... ////  get_bcd(data)                              Convert data to BCD  //// 
.................... ////                                                                  //// 
.................... ////  rm_bcd(data)                               Convert data to int  //// 
.................... ////                                                                  //// 
.................... ////////////////////////////////////////////////////////////////////////// 
.................... ////        (C) Copyright 1996,2003 Custom Computer Services          //// 
.................... //// This source code may only be used by licensed users of the CCS C //// 
.................... //// compiler.  This source code may only be distributed to other     //// 
.................... //// licensed users of the CCS C compiler.  No other use, reproduction//// 
.................... //// or distribution is permitted without written permission.         //// 
.................... //// Derivative programs created using this software in object code   //// 
.................... //// form are not restricted in any way.                              //// 
.................... ////////////////////////////////////////////////////////////////////////// 
....................  
.................... //#ifndef RTC_SCLK 
....................  
.................... #define RTC_SCLK PIN_E1 
.................... #define RTC_IO   PIN_E2 
.................... #define RTC_RST  PIN_C0 
....................  
.................... //#endif 
....................  
.................... void write_ds1302_byte(BYTE cmd) { 
....................    BYTE i; 
....................  
....................    for(i=0;i<=7;++i) { 
*
02878:  MOVLB  3
0287A:  CLRF   xC7
0287C:  MOVF   xC7,W
0287E:  SUBLW  07
02880:  BNC   289C
....................       output_bit(RTC_IO, shift_right(&cmd,1,0) ); 
02882:  BCF    FD8.0
02884:  RRCF   xC6,F
02886:  BC    288C
02888:  BCF    F8D.2
0288A:  BRA    288E
0288C:  BSF    F8D.2
0288E:  BCF    F96.2
....................       output_high(RTC_SCLK); 
02890:  BCF    F96.1
02892:  BSF    F8D.1
....................       output_low(RTC_SCLK); 
02894:  BCF    F96.1
02896:  BCF    F8D.1
....................    } 
02898:  INCF   xC7,F
0289A:  BRA    287C
.................... } 
0289C:  MOVLB  0
0289E:  RETLW  00
....................  
.................... void write_ds1302(BYTE cmd, BYTE data) { 
....................  
....................    output_high(RTC_RST); 
028A0:  BCF    F94.0
028A2:  BSF    F8B.0
....................    write_ds1302_byte(cmd); 
028A4:  MOVFF  3C4,3C6
028A8:  RCALL  2878
....................    write_ds1302_byte(data); 
028AA:  MOVFF  3C5,3C6
028AE:  RCALL  2878
....................    output_low(RTC_RST); 
028B0:  BCF    F94.0
028B2:  BCF    F8B.0
.................... } 
028B4:  RETLW  00
....................  
.................... BYTE read_ds1302(BYTE cmd) { 
....................    BYTE i,data; 
....................  
....................    output_high(RTC_RST); 
028B6:  BCF    F94.0
028B8:  BSF    F8B.0
....................    write_ds1302_byte(cmd); 
028BA:  MOVFF  3C1,3C6
028BE:  RCALL  2878
....................     
....................    input(RTC_IO); 
028C0:  BSF    F96.2
....................    delay_us(10); 
028C2:  MOVLW  10
028C4:  MOVWF  00
028C6:  DECFSZ 00,F
028C8:  BRA    28C6
028CA:  NOP   
....................           
....................    for(i=0;i<=7;++i) { 
028CC:  MOVLB  3
028CE:  CLRF   xC2
028D0:  MOVF   xC2,W
028D2:  SUBLW  07
028D4:  BNC   2900
....................       shift_right(&data,1,input(RTC_IO)); 
028D6:  BSF    F96.2
028D8:  BTFSC  F84.2
028DA:  BRA    28E0
028DC:  BCF    FD8.0
028DE:  BRA    28E2
028E0:  BSF    FD8.0
028E2:  RRCF   xC3,F
....................       output_high(RTC_SCLK); 
028E4:  BCF    F96.1
028E6:  BSF    F8D.1
....................       delay_us(20); 
028E8:  MOVLW  21
028EA:  MOVWF  00
028EC:  DECFSZ 00,F
028EE:  BRA    28EC
....................       output_low(RTC_SCLK); 
028F0:  BCF    F96.1
028F2:  BCF    F8D.1
....................       delay_us(20); 
028F4:  MOVLW  21
028F6:  MOVWF  00
028F8:  DECFSZ 00,F
028FA:  BRA    28F8
....................    } 
028FC:  INCF   xC2,F
028FE:  BRA    28D0
....................    output_low(RTC_RST); 
02900:  BCF    F94.0
02902:  BCF    F8B.0
....................  
....................    return(data); 
02904:  MOVFF  3C3,01
.................... } 
02908:  MOVLB  0
0290A:  RETLW  00
....................  
.................... void rtc_init() { 
....................    BYTE x; 
....................    output_low(RTC_RST); 
0290C:  BCF    F94.0
0290E:  BCF    F8B.0
....................    delay_us(20); 
02910:  MOVLW  21
02912:  MOVWF  00
02914:  DECFSZ 00,F
02916:  BRA    2914
....................    output_low(RTC_SCLK); 
02918:  BCF    F96.1
0291A:  BCF    F8D.1
....................    write_ds1302(0x8e,0); 
0291C:  MOVLW  8E
0291E:  MOVLB  3
02920:  MOVWF  xC4
02922:  CLRF   xC5
02924:  MOVLB  0
02926:  RCALL  28A0
....................    write_ds1302(0x90,0xa4); 
02928:  MOVLW  90
0292A:  MOVLB  3
0292C:  MOVWF  xC4
0292E:  MOVLW  A4
02930:  MOVWF  xC5
02932:  MOVLB  0
02934:  RCALL  28A0
....................    x=read_ds1302(0x81); 
02936:  MOVLW  81
02938:  MOVLB  3
0293A:  MOVWF  xC1
0293C:  MOVLB  0
0293E:  RCALL  28B6
02940:  MOVFF  01,3BD
....................    if((x & 0x80)!=0) 
02944:  MOVLB  3
02946:  MOVF   xBD,W
02948:  ANDLW  80
0294A:  BZ    2958
....................      write_ds1302(0x80,0); 
0294C:  MOVLW  80
0294E:  MOVWF  xC4
02950:  CLRF   xC5
02952:  MOVLB  0
02954:  RCALL  28A0
02956:  MOVLB  3
.................... } 
02958:  MOVLB  0
0295A:  GOTO   5A86 (RETURN)
....................  
.................... byte get_bcd(BYTE data) 
.................... { 
....................    byte nibh; 
....................    byte nibl; 
....................  
....................    nibh=data/10; 
*
04B50:  MOVFF  3C3,3C6
04B54:  MOVLW  0A
04B56:  MOVLB  3
04B58:  MOVWF  xC7
04B5A:  MOVLB  0
04B5C:  RCALL  467C
04B5E:  MOVFF  01,3C4
....................    nibl=data-(nibh*10); 
04B62:  MOVLB  3
04B64:  MOVF   xC4,W
04B66:  MULLW  0A
04B68:  MOVF   FF3,W
04B6A:  SUBWF  xC3,W
04B6C:  MOVWF  xC5
....................  
....................    return((nibh<<4)|nibl); 
04B6E:  SWAPF  xC4,W
04B70:  MOVWF  00
04B72:  MOVLW  F0
04B74:  ANDWF  00,F
04B76:  MOVF   00,W
04B78:  IORWF  xC5,W
04B7A:  MOVWF  01
.................... } 
04B7C:  MOVLB  0
04B7E:  RETLW  00
....................  
.................... byte rm_bcd(BYTE data) 
.................... { 
....................    byte i; 
....................  
....................    i=data; 
*
0451C:  MOVFF  3C2,3C3
....................    data=(i>>4)*10; 
04520:  MOVLB  3
04522:  SWAPF  xC3,W
04524:  MOVWF  00
04526:  MOVLW  0F
04528:  ANDWF  00,F
0452A:  MOVF   00,W
0452C:  MULLW  0A
0452E:  MOVFF  FF3,3C2
....................    data=data+(i<<4>>4); 
04532:  SWAPF  xC3,W
04534:  MOVWF  00
04536:  MOVLW  F0
04538:  ANDWF  00,F
0453A:  MOVF   00,W
0453C:  SWAPF  00,F
0453E:  MOVLW  0F
04540:  ANDWF  00,F
04542:  MOVF   00,W
04544:  ADDWF  xC2,F
....................  
....................    return data; 
04546:  MOVFF  3C2,01
.................... } 
0454A:  MOVLB  0
0454C:  RETLW  00
....................  
.................... void rtc_set_datetime(BYTE day, BYTE mth, BYTE year, BYTE dow, BYTE hr, BYTE min) { 
....................  
....................    write_ds1302(0x86,get_bcd(day)); 
*
04B80:  MOVFF  3BD,3C3
04B84:  RCALL  4B50
04B86:  MOVFF  01,3C3
04B8A:  MOVLW  86
04B8C:  MOVLB  3
04B8E:  MOVWF  xC4
04B90:  MOVFF  01,3C5
04B94:  MOVLB  0
04B96:  CALL   28A0
....................    write_ds1302(0x88,get_bcd(mth)); 
04B9A:  MOVFF  3BE,3C3
04B9E:  RCALL  4B50
04BA0:  MOVFF  01,3C3
04BA4:  MOVLW  88
04BA6:  MOVLB  3
04BA8:  MOVWF  xC4
04BAA:  MOVFF  01,3C5
04BAE:  MOVLB  0
04BB0:  CALL   28A0
....................    write_ds1302(0x8c,get_bcd(year)); 
04BB4:  MOVFF  3BF,3C3
04BB8:  RCALL  4B50
04BBA:  MOVFF  01,3C3
04BBE:  MOVLW  8C
04BC0:  MOVLB  3
04BC2:  MOVWF  xC4
04BC4:  MOVFF  01,3C5
04BC8:  MOVLB  0
04BCA:  CALL   28A0
....................    write_ds1302(0x8a,get_bcd(dow)); 
04BCE:  MOVFF  3C0,3C3
04BD2:  RCALL  4B50
04BD4:  MOVFF  01,3C3
04BD8:  MOVLW  8A
04BDA:  MOVLB  3
04BDC:  MOVWF  xC4
04BDE:  MOVFF  01,3C5
04BE2:  MOVLB  0
04BE4:  CALL   28A0
....................    write_ds1302(0x84,get_bcd(hr)); 
04BE8:  MOVFF  3C1,3C3
04BEC:  RCALL  4B50
04BEE:  MOVFF  01,3C3
04BF2:  MOVLW  84
04BF4:  MOVLB  3
04BF6:  MOVWF  xC4
04BF8:  MOVFF  01,3C5
04BFC:  MOVLB  0
04BFE:  CALL   28A0
....................    write_ds1302(0x82,get_bcd(min)); 
04C02:  MOVFF  3C2,3C3
04C06:  RCALL  4B50
04C08:  MOVFF  01,3C3
04C0C:  MOVLW  82
04C0E:  MOVLB  3
04C10:  MOVWF  xC4
04C12:  MOVFF  01,3C5
04C16:  MOVLB  0
04C18:  CALL   28A0
....................    write_ds1302(0x80,get_bcd(0)); 
04C1C:  MOVLB  3
04C1E:  CLRF   xC3
04C20:  MOVLB  0
04C22:  RCALL  4B50
04C24:  MOVFF  01,3C3
04C28:  MOVLW  80
04C2A:  MOVLB  3
04C2C:  MOVWF  xC4
04C2E:  MOVFF  01,3C5
04C32:  MOVLB  0
04C34:  CALL   28A0
.................... } 
04C38:  GOTO   9136 (RETURN)
....................  
.................... void rtc_get_date(BYTE& day, BYTE& mth, BYTE& year, BYTE& dow) { 
....................    day = rm_bcd(read_ds1302(0x87)); 
*
05C96:  MOVLW  87
05C98:  MOVLB  3
05C9A:  MOVWF  xC1
05C9C:  MOVLB  0
05C9E:  CALL   28B6
05CA2:  MOVFF  01,3BD
05CA6:  MOVFF  01,3C2
05CAA:  CALL   451C
05CAE:  MOVFF  01,3AC
....................    mth = rm_bcd(read_ds1302(0x89)); 
05CB2:  MOVLW  89
05CB4:  MOVLB  3
05CB6:  MOVWF  xC1
05CB8:  MOVLB  0
05CBA:  CALL   28B6
05CBE:  MOVFF  01,3BD
05CC2:  MOVFF  01,3C2
05CC6:  CALL   451C
05CCA:  MOVFF  01,3AB
....................    year = rm_bcd(read_ds1302(0x8d)); 
05CCE:  MOVLW  8D
05CD0:  MOVLB  3
05CD2:  MOVWF  xC1
05CD4:  MOVLB  0
05CD6:  CALL   28B6
05CDA:  MOVFF  01,3BD
05CDE:  MOVFF  01,3C2
05CE2:  CALL   451C
05CE6:  MOVFF  01,3AA
....................    dow = rm_bcd(read_ds1302(0x8b)); 
05CEA:  MOVLW  8B
05CEC:  MOVLB  3
05CEE:  MOVWF  xC1
05CF0:  MOVLB  0
05CF2:  CALL   28B6
05CF6:  MOVFF  01,3BD
05CFA:  MOVFF  01,3C2
05CFE:  CALL   451C
05D02:  MOVFF  01,3B0
.................... } 
....................  
.................... void rtc_get_time(BYTE& hr, BYTE& min, BYTE& sec) { 
....................    hr = rm_bcd(read_ds1302(0x85)); 
05D06:  MOVLW  85
05D08:  MOVLB  3
05D0A:  MOVWF  xC1
05D0C:  MOVLB  0
05D0E:  CALL   28B6
05D12:  MOVFF  01,3BD
05D16:  MOVFF  01,3C2
05D1A:  CALL   451C
05D1E:  MOVFF  01,3AD
....................    min = rm_bcd(read_ds1302(0x83)); 
05D22:  MOVLW  83
05D24:  MOVLB  3
05D26:  MOVWF  xC1
05D28:  MOVLB  0
05D2A:  CALL   28B6
05D2E:  MOVFF  01,3BD
05D32:  MOVFF  01,3C2
05D36:  CALL   451C
05D3A:  MOVFF  01,3AE
....................    sec = rm_bcd(read_ds1302(0x81)); 
05D3E:  MOVLW  81
05D40:  MOVLB  3
05D42:  MOVWF  xC1
05D44:  MOVLB  0
05D46:  CALL   28B6
05D4A:  MOVFF  01,3BD
05D4E:  MOVFF  01,3C2
05D52:  CALL   451C
05D56:  MOVFF  01,3AF
.................... } 
....................  
.................... void rtc_write_nvr(BYTE address, BYTE data) { 
....................    write_ds1302(address|0xc0,data); 
.................... } 
....................  
.................... BYTE rtc_read_nvr(BYTE address) { 
....................     return(read_ds1302(address|0xc1)); 
.................... } 
....................  
....................  
.................... #define   UP            !input(PIN_B6) 
.................... #define   DOWN          !input(PIN_B5) 
.................... #define   RIGHT         !input(PIN_B4) 
.................... #define   LEFT          !input(PIN_B3) 
....................  
.................... #define   DOOR          !input(PIN_B2) 
.................... #define   STOP          !input(PIN_B1) 
.................... #define   TERM          !input(PIN_B0) 
.................... #define   PRES          !input(PIN_A4) 
....................  
.................... #define   HIG           input(PIN_A5) 
.................... #define   LOW           input(PIN_E0) 
....................  
.................... #define   SSR_on           output_bit(PIN_C1,0) 
.................... #define   SSR_off          output_bit(PIN_C1,1) 
....................  
.................... #define   Buzzer_on        output_bit(PIN_C5,1) 
.................... #define   Buzzer_off       output_bit(PIN_C5,0) 
....................  
.................... #define   Solenoide_on     output_bit(PIN_D0,1) 
.................... #define   Solenoide_off    output_bit(PIN_D0,0) 
....................  
.................... #define   Solenoide2_on    output_bit(PIN_D1,1) 
.................... #define   Solenoide2_off   output_bit(PIN_D1,0) 
....................  
.................... #define   Desfogue_on      output_bit(PIN_D2,0) 
.................... #define   Desfogue_off     output_bit(PIN_D2,1) 
....................  
.................... #define   AguaIn_on        output_bit(PIN_D4,0) 
.................... #define   AguaIn_off       output_bit(PIN_D4,1) 
....................  
.................... #define   Paso_on          output_bit(PIN_D3,0) 
.................... #define   Paso_off         output_bit(PIN_D3,1) 
....................  
.................... #define OFF 0 
.................... #define ON  1 
.................... #define RX_BUFFER_SIZE  10 
.................... char Rx_Buffer[RX_BUFFER_SIZE+1]; 
.................... char Rx_Buffer2[RX_BUFFER_SIZE+1]; 
.................... char RX_Wr_Index=0; 
.................... char RX_Rd_Index=0; 
.................... char RX_Counter=0; 
....................  
.................... #define TX_BUFFER_SIZE  24 
.................... char Tx_Buffer[TX_BUFFER_SIZE+1]; 
.................... char TX_Wr_Index=0; 
.................... char TX_Counter=0; 
.................... //int1 RX_Buffer_Overflow=0; 
....................  
.................... //Comunicacion//------------------------ 
.................... byte txbuf[0X25]; 
.................... byte SlaveA0Tx[0X25]; 
.................... byte dato=0;            //Contendr la informacin a enviar o recibir 
.................... byte direccion=0;       //Contendr la direccin del esclavo en el bus I2C 
.................... byte posicion=0;        //Contendr la posicin en el buffer de memoria del esclavo donde se almacenar o de donde se recuperar el dato 
....................  
.................... /* Tabla de Modulos, Primera Fila Ao Regular y el siguiente ao Bisiesto 
.................... E   F   M   A   M   J   J   A   S   O   N   D 
.................... 0   3   3   6   1   4   6   2   5   0   3   5 
.................... 0   3   4   0   2   5   0   3   6   1   4   6 
.................... */ 
.................... int8 Regular[12]={0,3,3,6,1,4,6,2,5,0,3,5}; 
.................... int8 Bisiesto[12]={0,3,4,0,2,5,0,3,6,1,4,6}; 
....................  
.................... //Alarmas//--------------------- 
.................... short AlarmaTiempoProlongado=OFF,AlarmaSobreTemperatura=OFF,AlarmaLlenado=OFF,AlarmaTermostato=OFF,AlarmaPuerta=OFF,AlarmaEmergencia=OFF; 
....................  
.................... //Banderas//-------------------- 
.................... short IniciaLlenado=OFF,CalderinLleno=OFF,IniciaCiclo=OFF,Esterilizando=OFF,Secando=OFF,SensadoNivel=OFF,Desfogando=OFF,DesfogueSuave=OFF; 
.................... short EstadoDesfogue=OFF,EstadoAgua=OFF,EstadoSSR=OFF,PruebaEstados=OFF,Ciclo=OFF,flagCalentando=OFF,flagEsterilizando=OFF,flagAgua=OFF; 
.................... short flagDesfogando=OFF,Op=OFF,Op2=OFF,Minutos=OFF,Segundos=OFF,GuardaEEPROM=OFF,EstadoPaso=OFF,EstadoBloqueo=OFF,EstadoBuzzer=OFF,flagAlarma=OFF; 
.................... short flagBuzzer=OFF,flagSilencio=OFF,Finalizo=OFF,AlarmaPresion=OFF,ladoEsteril=OFF,ladoContaminado=OFF,flagc=OFF,guarda=OFF,EstadoBloqueo2=OFF; 
.................... short guardaEsteril=OFF; 
.................... int8 openEsteril=10,openContaminado=10,esterilizo=10,AbreEsteril=0; 
....................  
.................... //Tiempos//--------------------- 
.................... int16 TiempoCiclo=0,TiempoLlenado=0,TiempoSensadoNivel=0,Tp=0,Tc=0,tValveAgua=0,tmensaje=OFF; 
.................... signed int  Testerilizacion[4]={0,0,0,0};   // Tiempo transcurrido 
.................... signed int  Testerilizacionp[4]={0,0,0,0};   // Tiempo transcurrido 
.................... signed int  Tsecado[4]={0,0,0,0};   // Tiempo transcurrido 
.................... signed int  Tsecadop[4]={0,0,0,0};   // Tiempo transcurrido 
....................  
.................... //Control//------------------------ 
.................... float promedio[80]={0.0,0.0,0.0,0.0,0.0,0.0,0.0,0.0,0.0,0.0,0.0,0.0,0.0,0.0,0.0,0.0,0.0,0.0,0.0,0.0,0.0,0.0,0.0,0.0,0.0,0.0,0.0,0.0,0.0,0.0,0.0,0.0,0.0,0.0,0.0,0.0,0.0,0.0,0.0,0.0,0.0,0.0,0.0,0.0,0.0,0.0,0.0,0.0,0.0,0.0,0.0,0.0,0.0,0.0,0.0,0.0,0.0,0.0,0.0,0.0,0.0,0.0,0.0,0.0}; 
.................... float PromPresion[20]={0.0,0.0,0.0,0.0,0.0,0.0,0.0,0.0,0.0,0.0,0.0,0.0,0.0,0.0,0.0,0.0,0.0,0.0,0.0,0.0}; 
.................... float PromPresionp[20]={0.0,0.0,0.0,0.0,0.0,0.0,0.0,0.0,0.0,0.0,0.0,0.0,0.0,0.0,0.0,0.0,0.0,0.0,0.0,0.0}; 
.................... float Gain=141.6,RPT100=0.5,Temporal=0.0; 
.................... float R1=100,R7=3000,R8=3100,R9=3100,R10=3100,AN=0,BN=0; 
.................... float X[2]={0.0,0.0}; 
.................... float promediopresion=0.0,Aumento=0.0,promediopresionp=0.0; 
.................... int8 h=0,l=0,Ajuste=0,Ajusten=0,MediaMovil=20,TTrampa=0,PantallaPrincipal=0,TipoClave=0,Modulo=0,Digito=0; 
.................... float V0=0.0,Pt,Tciclo=10.0,Tpulso=0.0,error=0.0,Prom=0.0,Temperature=0.0,tmp=0.0,Ganancia=25.0,Ganancia2=20.0,desvio=1.0; 
.................... float V1=0.0,Presion=0.0,V2=0.0,Presionp=0.0; 
.................... float Temperatura=0.0,K=0.0012858; 
.................... float a=0.0011,b=2.3302,c=-244.0723; 
.................... int8 Integral=0,Derivativo=0; 
....................  
.................... //Varios//-------------------------------- 
.................... short desfoguelento=0,Lectura=0,Grafica=0; 
.................... short disp_Stop=0,flagTC=0,flagImprime=0; 
.................... int8 Control=0,tiemporecta=0,Controlando=0,ActivaImpresion=1,timpresion=2,CalculoImpresion=0,Inicio=1,Dato_Exitoso=0,Dato2=0,z=0,Alarma=0; 
.................... int8 Menu=0, MenuAnt=0,MenuAntt=240,i=0,CiclosL=0,CiclosH=0,CicloSeleccionado=0; 
.................... int8 Setpoint=0,Opcion=1,Opcion2=1,tiempo_esterilizacion=0,tiempo_secado=0,tiempoImpresion=0; 
.................... int16 tiempos=0,tiempos2=0,tiempos3=0,tiempoctrl=0,Nivel=0,tinicio=0,PresionCamara=0,PresionPreCamara=0,Ciclos=0,NivelSeleccionado=0; 
.................... signed int  Contrasena[4]={0,0,0,0};      // Contrasena de 4 digitos 
.................... signed int  Password[4]={0,0,0,0};        // Contrasena Almacenada de 4 digitos 
.................... int8 r=0,t=0,r22=0,t2=0,TiempoControl=0; 
.................... int8 y=0,ConteoBuzzer=0; 
.................... int16 t_exhaust=0,tbuzzer=0,tsilencio=0; 
.................... int8 Year=18,Mes=9,Dia=13,Hora=0,Minuto=0,Segundo=0,dow=0; 
.................... int8 YearTx=0,MesTx=0,DiaTx=0,HoraTx=0,MinutoTx=0,dowTx=0,SetTime=0,Imprime=0; 
.................... signed int8 G1=0,G2=0,sg1=0,sg2=0; 
....................  
.................... #include "Funciones.h" 
.................... void BorraBuffer(void){ 
.................... RX_Buffer[0]=0; 
*
0461E:  CLRF   30
.................... RX_Buffer[1]=0; 
04620:  CLRF   31
.................... RX_Buffer[2]=0; 
04622:  CLRF   32
.................... RX_Buffer[3]=0; 
04624:  CLRF   33
.................... RX_Buffer[4]=0; 
04626:  CLRF   34
.................... RX_Buffer[5]=0; 
04628:  CLRF   35
.................... RX_Buffer[6]=0; 
0462A:  CLRF   36
.................... RX_Buffer[7]=0; 
0462C:  CLRF   37
.................... RX_Buffer[8]=0; 
0462E:  CLRF   38
.................... RX_Buffer[9]=0; 
04630:  CLRF   39
....................  
.................... RX_Buffer2[0]=0; 
04632:  CLRF   3B
.................... RX_Buffer2[1]=0; 
04634:  CLRF   3C
.................... RX_Buffer2[2]=0; 
04636:  CLRF   3D
.................... RX_Buffer2[3]=0; 
04638:  CLRF   3E
.................... RX_Buffer2[4]=0; 
0463A:  CLRF   3F
.................... RX_Buffer2[5]=0; 
0463C:  CLRF   40
.................... RX_Buffer2[6]=0; 
0463E:  CLRF   41
.................... RX_Buffer2[7]=0; 
04640:  CLRF   42
.................... RX_Buffer2[8]=0; 
04642:  CLRF   43
.................... RX_Buffer2[9]=0; 
04644:  CLRF   44
....................  
.................... } 
04646:  GOTO   5DC0 (RETURN)
....................  
.................... char bgetc(void){ 
....................    char c; 
....................    while(RX_Counter==0) 
....................       ; 
....................    c=Rx_Buffer2[RX_Rd_Index]; 
....................    if(++RX_Rd_Index>RX_BUFFER_SIZE) 
....................       RX_Rd_Index=0; 
....................    if(RX_Counter) 
....................       RX_Counter--; 
....................    return c; 
.................... } 
....................  
.................... void bputc(char c){ 
....................    char restart=0; 
....................    while(TX_Counter> (TX_BUFFER_SIZE-1)) 
....................       ; 
....................    if(TX_Counter==0) 
....................       restart=1; 
....................    TX_Buffer[TX_Wr_Index++]=c; 
....................    if(TX_Wr_Index>TX_BUFFER_SIZE) 
....................       TX_Wr_Index=0; 
....................     
....................    TX_Counter++; 
....................     
....................    if(restart==1) 
....................       enable_interrupts(int_tbe); 
.................... } 
....................  
.................... void SendDataDisplay(void){ 
.................... delay_us(10); 
*
03542:  MOVLW  10
03544:  MOVWF  00
03546:  DECFSZ 00,F
03548:  BRA    3546
0354A:  NOP   
.................... putc(0xFF); 
0354C:  MOVLW  FF
0354E:  RCALL  353A
.................... delay_us(10); 
03550:  MOVLW  10
03552:  MOVWF  00
03554:  DECFSZ 00,F
03556:  BRA    3554
03558:  NOP   
.................... putc(0xFF); 
0355A:  MOVLW  FF
0355C:  RCALL  353A
.................... delay_us(10); 
0355E:  MOVLW  10
03560:  MOVWF  00
03562:  DECFSZ 00,F
03564:  BRA    3562
03566:  NOP   
.................... putc(0xFF); 
03568:  MOVLW  FF
0356A:  RCALL  353A
.................... delay_us(10); 
0356C:  MOVLW  10
0356E:  MOVWF  00
03570:  DECFSZ 00,F
03572:  BRA    3570
03574:  NOP   
.................... } 
03576:  RETLW  00
....................  
.................... short esBisiesto(int8 year) { 
....................      return ((year % 4 == 0 && year % 100 != 0) || year % 400 == 0); 
*
04AFE:  MOVLB  3
04B00:  MOVF   xBD,W
04B02:  ANDLW  03
04B04:  BNZ   4B18
04B06:  MOVFF  3BD,3C6
04B0A:  MOVLW  64
04B0C:  MOVWF  xC7
04B0E:  MOVLB  0
04B10:  RCALL  467C
04B12:  MOVF   00,F
04B14:  BNZ   4B46
04B16:  MOVLB  3
04B18:  CLRF   xBF
04B1A:  MOVFF  3BD,3BE
04B1E:  MOVLW  01
04B20:  MOVWF  xC1
04B22:  MOVLW  90
04B24:  MOVWF  xC0
04B26:  MOVLB  0
04B28:  BRA    4AB6
04B2A:  MOVFF  00,3BE
04B2E:  MOVLB  3
04B30:  MOVFF  03,3BF
04B34:  MOVF   xBE,F
04B36:  BNZ   4B42
04B38:  MOVF   xBF,F
04B3A:  BTFSS  FD8.2
04B3C:  BRA    4B42
04B3E:  MOVLB  0
04B40:  BRA    4B46
04B42:  MOVLW  00
04B44:  BRA    4B4A
04B46:  MOVLW  01
04B48:  MOVLB  3
04B4A:  MOVWF  01
.................... } 
04B4C:  MOVLB  0
04B4E:  RETLW  00
....................  
.................... void LimitaDia(){ 
....................    if(MesTx>12) 
*
04C3C:  MOVLB  3
04C3E:  MOVF   xB2,W
04C40:  SUBLW  0C
04C42:  BC    4C48
....................       MesTx=10; 
04C44:  MOVLW  0A
04C46:  MOVWF  xB2
....................    if(DiaTx>31) 
04C48:  MOVF   xB3,W
04C4A:  SUBLW  1F
04C4C:  BC    4C52
....................       DiaTx=16; 
04C4E:  MOVLW  10
04C50:  MOVWF  xB3
....................    if(YearTx>99) 
04C52:  MOVF   xB1,W
04C54:  SUBLW  63
04C56:  BC    4C5C
....................       YearTx=18;    
04C58:  MOVLW  12
04C5A:  MOVWF  xB1
....................    if(HoraTx>24) 
04C5C:  MOVF   xB4,W
04C5E:  SUBLW  18
04C60:  BC    4C66
....................       HoraTx=11;       
04C62:  MOVLW  0B
04C64:  MOVWF  xB4
....................    if(MinutoTx>59) 
04C66:  MOVF   xB5,W
04C68:  SUBLW  3B
04C6A:  BC    4C70
....................       MinutoTx=30;       
04C6C:  MOVLW  1E
04C6E:  MOVWF  xB5
....................     
....................       if(MesTx==2){ 
04C70:  MOVF   xB2,W
04C72:  SUBLW  02
04C74:  BNZ   4CA0
....................          if(esBisiesto(YearTx)){ 
04C76:  MOVFF  3B1,3BD
04C7A:  MOVLB  0
04C7C:  RCALL  4AFE
04C7E:  MOVF   01,F
04C80:  BZ    4C92
....................             if(DiaTx>29){ 
04C82:  MOVLB  3
04C84:  MOVF   xB3,W
04C86:  SUBLW  1D
04C88:  BC    4C8E
....................                DiaTx=29; 
04C8A:  MOVLW  1D
04C8C:  MOVWF  xB3
....................                //glcd_fillScreen(OFF); 
....................             } 
....................          }else{ 
04C8E:  BRA    4C9E
04C90:  MOVLB  0
....................             if(DiaTx>28){ 
04C92:  MOVLB  3
04C94:  MOVF   xB3,W
04C96:  SUBLW  1C
04C98:  BC    4C9E
....................                DiaTx=28; 
04C9A:  MOVLW  1C
04C9C:  MOVWF  xB3
....................                //glcd_fillScreen(OFF); 
....................             } 
....................          } 
....................       }else{ 
04C9E:  BRA    4CCA
....................          if(MesTx<=7){ 
04CA0:  MOVF   xB2,W
04CA2:  SUBLW  07
04CA4:  BNC   4CB8
....................             if(MesTx % 2 ==0){ 
04CA6:  MOVF   xB2,W
04CA8:  ANDLW  01
04CAA:  BNZ   4CB6
....................                if(DiaTx>30){ 
04CAC:  MOVF   xB3,W
04CAE:  SUBLW  1E
04CB0:  BC    4CB6
....................                   DiaTx=30;  
04CB2:  MOVLW  1E
04CB4:  MOVWF  xB3
....................                   //glcd_fillScreen(OFF); 
....................                } 
....................             } 
....................          }else{ 
04CB6:  BRA    4CCA
....................             if(MesTx % 2 ==1){ 
04CB8:  MOVF   xB2,W
04CBA:  ANDLW  01
04CBC:  SUBLW  01
04CBE:  BNZ   4CCA
....................                if(DiaTx>30){ 
04CC0:  MOVF   xB3,W
04CC2:  SUBLW  1E
04CC4:  BC    4CCA
....................                   DiaTx=30;  
04CC6:  MOVLW  1E
04CC8:  MOVWF  xB3
....................                   //glcd_fillScreen(OFF); 
....................                } 
....................             } 
....................          } 
....................       } 
.................... } 
04CCA:  MOVLB  0
04CCC:  GOTO   9384 (RETURN)
....................  
.................... void ActualizaRecta(){ 
....................    X[y]=Temperature; 
04CD0:  MOVLB  3
04CD2:  MOVF   xA2,W
04CD4:  MULLW  04
04CD6:  MOVF   FF3,W
04CD8:  CLRF   03
04CDA:  ADDLW  F9
04CDC:  MOVWF  FE9
04CDE:  MOVLW  02
04CE0:  ADDWFC 03,W
04CE2:  MOVWF  FEA
04CE4:  MOVFF  32F,FEF
04CE8:  MOVFF  330,FEC
04CEC:  MOVFF  331,FEC
04CF0:  MOVFF  332,FEC
....................    y++; 
04CF4:  INCF   xA2,F
....................    if(y>=2) 
04CF6:  MOVF   xA2,W
04CF8:  SUBLW  01
04CFA:  BC    4D38
....................    { 
....................       y=0; 
04CFC:  CLRF   xA2
....................       Aumento=X[1]-X[0]; 
04CFE:  BSF    FD8.1
04D00:  MOVFF  300,3CB
04D04:  MOVFF  2FF,3CA
04D08:  MOVFF  2FE,3C9
04D0C:  MOVFF  2FD,3C8
04D10:  MOVFF  2FC,3CF
04D14:  MOVFF  2FB,3CE
04D18:  MOVFF  2FA,3CD
04D1C:  MOVFF  2F9,3CC
04D20:  MOVLB  0
04D22:  CALL   1DE0
04D26:  MOVFF  03,308
04D2A:  MOVFF  02,307
04D2E:  MOVFF  01,306
04D32:  MOVFF  00,305
04D36:  MOVLB  3
....................    } 
.................... } 
04D38:  MOVLB  0
04D3A:  GOTO   4DB6 (RETURN)
....................  
.................... // Funcion para conversor analogo-digital 
.................... float sensores(int x){ 
.................... float y;set_adc_channel(x);delay_ms(1);y=read_adc();return (y); 
*
03598:  MOVLB  3
0359A:  RLCF   xBE,W
0359C:  MOVWF  00
0359E:  RLCF   00,F
035A0:  MOVLW  FC
035A2:  ANDWF  00,F
035A4:  MOVFF  00,01
035A8:  MOVF   FC2,W
035AA:  ANDLW  C3
035AC:  IORWF  00,W
035AE:  MOVWF  FC2
035B0:  MOVLW  01
035B2:  MOVWF  xC8
035B4:  MOVLB  0
035B6:  CALL   1C24
035BA:  BSF    FC2.1
035BC:  BTFSC  FC2.1
035BE:  BRA    35BC
035C0:  MOVFF  FC4,3C9
035C4:  MOVFF  FC3,3C8
035C8:  MOVLB  0
035CA:  CALL   1C4C
035CE:  MOVFF  03,3C2
035D2:  MOVFF  02,3C1
035D6:  MOVFF  01,3C0
035DA:  MOVFF  00,3BF
035DE:  MOVFF  3BF,00
035E2:  MOVFF  3C0,01
035E6:  MOVFF  3C1,02
035EA:  MOVFF  3C2,03
.................... } 
035EE:  RETLW  00
.................... float LeerPT100(int media) 
.................... { 
....................    Prom=0.0; 
*
03708:  MOVLB  3
0370A:  CLRF   x2E
0370C:  CLRF   x2D
0370E:  CLRF   x2C
03710:  CLRF   x2B
....................    V0 = sensores(0);   //Lectura de Divisor de Voltaje de PT100 con resistencia de 6.18k (+-2%) 
03712:  CLRF   xBE
03714:  MOVLB  0
03716:  RCALL  3598
03718:  MOVFF  03,31A
0371C:  MOVFF  02,319
03720:  MOVFF  01,318
03724:  MOVFF  00,317
....................    V0 = V0/154.6; // Se elimina la ganancia 
03728:  MOVFF  31A,3C5
0372C:  MOVFF  319,3C4
03730:  MOVFF  318,3C3
03734:  MOVFF  317,3C2
03738:  MOVLW  9A
0373A:  MOVLB  3
0373C:  MOVWF  xC9
0373E:  MOVLW  99
03740:  MOVWF  xC8
03742:  MOVLW  1A
03744:  MOVWF  xC7
03746:  MOVLW  86
03748:  MOVWF  xC6
0374A:  MOVLB  0
0374C:  CALL   1C82
03750:  MOVFF  03,31A
03754:  MOVFF  02,319
03758:  MOVFF  01,318
0375C:  MOVFF  00,317
....................    AN=1023*(R8+R9); 
03760:  BCF    FD8.1
03762:  MOVFF  2E8,3CB
03766:  MOVFF  2E7,3CA
0376A:  MOVFF  2E6,3C9
0376E:  MOVFF  2E5,3C8
03772:  MOVFF  2EC,3CF
03776:  MOVFF  2EB,3CE
0377A:  MOVFF  2EA,3CD
0377E:  MOVFF  2E9,3CC
03782:  CALL   1DE0
03786:  MOVLB  3
03788:  CLRF   xD1
0378A:  MOVLW  C0
0378C:  MOVWF  xD0
0378E:  MOVLW  7F
03790:  MOVWF  xCF
03792:  MOVLW  88
03794:  MOVWF  xCE
03796:  MOVFF  03,3D5
0379A:  MOVFF  02,3D4
0379E:  MOVFF  01,3D3
037A2:  MOVFF  00,3D2
037A6:  MOVLB  0
037A8:  RCALL  35F0
037AA:  MOVFF  03,2F4
037AE:  MOVFF  02,2F3
037B2:  MOVFF  01,2F2
037B6:  MOVFF  00,2F1
....................    BN=(V0*(R8+R9))+(1023*R9); 
037BA:  BCF    FD8.1
037BC:  MOVFF  2E8,3CB
037C0:  MOVFF  2E7,3CA
037C4:  MOVFF  2E6,3C9
037C8:  MOVFF  2E5,3C8
037CC:  MOVFF  2EC,3CF
037D0:  MOVFF  2EB,3CE
037D4:  MOVFF  2EA,3CD
037D8:  MOVFF  2E9,3CC
037DC:  CALL   1DE0
037E0:  MOVFF  31A,3D1
037E4:  MOVFF  319,3D0
037E8:  MOVFF  318,3CF
037EC:  MOVFF  317,3CE
037F0:  MOVFF  03,3D5
037F4:  MOVFF  02,3D4
037F8:  MOVFF  01,3D3
037FC:  MOVFF  00,3D2
03800:  RCALL  35F0
03802:  MOVFF  00,3BE
03806:  MOVFF  01,3BF
0380A:  MOVFF  02,3C0
0380E:  MOVFF  03,3C1
03812:  MOVLB  3
03814:  CLRF   xD1
03816:  MOVLW  C0
03818:  MOVWF  xD0
0381A:  MOVLW  7F
0381C:  MOVWF  xCF
0381E:  MOVLW  88
03820:  MOVWF  xCE
03822:  MOVFF  2EC,3D5
03826:  MOVFF  2EB,3D4
0382A:  MOVFF  2EA,3D3
0382E:  MOVFF  2E9,3D2
03832:  MOVLB  0
03834:  RCALL  35F0
03836:  BCF    FD8.1
03838:  MOVFF  3C1,3CB
0383C:  MOVFF  3C0,3CA
03840:  MOVFF  3BF,3C9
03844:  MOVFF  3BE,3C8
03848:  MOVFF  03,3CF
0384C:  MOVFF  02,3CE
03850:  MOVFF  01,3CD
03854:  MOVFF  00,3CC
03858:  CALL   1DE0
0385C:  MOVFF  03,2F8
03860:  MOVFF  02,2F7
03864:  MOVFF  01,2F6
03868:  MOVFF  00,2F5
....................    Pt=(R10/((AN/BN)-1))-R7; 
0386C:  MOVFF  2F4,3C5
03870:  MOVFF  2F3,3C4
03874:  MOVFF  2F2,3C3
03878:  MOVFF  2F1,3C2
0387C:  MOVFF  2F8,3C9
03880:  MOVFF  2F7,3C8
03884:  MOVFF  2F6,3C7
03888:  MOVFF  2F5,3C6
0388C:  CALL   1C82
03890:  MOVFF  00,3BE
03894:  MOVFF  01,3BF
03898:  MOVFF  02,3C0
0389C:  MOVFF  03,3C1
038A0:  BSF    FD8.1
038A2:  MOVFF  03,3CB
038A6:  MOVFF  02,3CA
038AA:  MOVFF  01,3C9
038AE:  MOVFF  00,3C8
038B2:  MOVLB  3
038B4:  CLRF   xCF
038B6:  CLRF   xCE
038B8:  CLRF   xCD
038BA:  MOVLW  7F
038BC:  MOVWF  xCC
038BE:  MOVLB  0
038C0:  CALL   1DE0
038C4:  MOVFF  2F0,3C5
038C8:  MOVFF  2EF,3C4
038CC:  MOVFF  2EE,3C3
038D0:  MOVFF  2ED,3C2
038D4:  MOVFF  03,3C9
038D8:  MOVFF  02,3C8
038DC:  MOVFF  01,3C7
038E0:  MOVFF  00,3C6
038E4:  CALL   1C82
038E8:  MOVFF  00,3BE
038EC:  MOVFF  01,3BF
038F0:  MOVFF  02,3C0
038F4:  MOVFF  03,3C1
038F8:  BSF    FD8.1
038FA:  MOVFF  03,3CB
038FE:  MOVFF  02,3CA
03902:  MOVFF  01,3C9
03906:  MOVFF  00,3C8
0390A:  MOVFF  2E4,3CF
0390E:  MOVFF  2E3,3CE
03912:  MOVFF  2E2,3CD
03916:  MOVFF  2E1,3CC
0391A:  CALL   1DE0
0391E:  MOVFF  03,31E
03922:  MOVFF  02,31D
03926:  MOVFF  01,31C
0392A:  MOVFF  00,31B
....................    //Pt=(R1)/((1024.0/V0)-1.0); // Se calcula el valor de la PT100 
....................    Pt=Pt-RPT100; //Ajuste de impedancia de cableado de PT100 
0392E:  BSF    FD8.1
03930:  MOVFF  31E,3CB
03934:  MOVFF  31D,3CA
03938:  MOVFF  31C,3C9
0393C:  MOVFF  31B,3C8
03940:  MOVFF  2D8,3CF
03944:  MOVFF  2D7,3CE
03948:  MOVFF  2D6,3CD
0394C:  MOVFF  2D5,3CC
03950:  CALL   1DE0
03954:  MOVFF  03,31E
03958:  MOVFF  02,31D
0395C:  MOVFF  01,31C
03960:  MOVFF  00,31B
....................    //Temperature=(Pt-100.0)/(0.385);  // Ecuacin determinada por linealizacin en Matlab. Revisar este polinomio.   
....................              
....................    if(l>(media-1)) 
03964:  MOVLW  01
03966:  MOVLB  3
03968:  SUBWF  xBD,W
0396A:  SUBWF  x0E,W
0396C:  BZ    3972
0396E:  BNC   3972
....................    {l=0;} 
03970:  CLRF   x0E
....................    //promedio[l]=Temperature;l++; 
....................    promedio[l]=Pt;l++; 
03972:  CLRF   xBF
03974:  MOVFF  30E,3BE
03978:  CLRF   xC1
0397A:  MOVLW  04
0397C:  MOVWF  xC0
0397E:  MOVLB  0
03980:  RCALL  36E6
03982:  MOVF   01,W
03984:  ADDLW  F1
03986:  MOVWF  FE9
03988:  MOVLW  00
0398A:  ADDWFC 02,W
0398C:  MOVWF  FEA
0398E:  MOVFF  31B,FEF
03992:  MOVFF  31C,FEC
03996:  MOVFF  31D,FEC
0399A:  MOVFF  31E,FEC
0399E:  MOVLB  3
039A0:  INCF   x0E,F
....................           
....................    for(h=0;h<media;h++) 
039A2:  CLRF   x0D
039A4:  MOVF   xBD,W
039A6:  SUBWF  x0D,W
039A8:  BC    3A26
....................    { 
....................       Prom+=promedio[h]; 
039AA:  CLRF   xBF
039AC:  MOVFF  30D,3BE
039B0:  CLRF   xC1
039B2:  MOVLW  04
039B4:  MOVWF  xC0
039B6:  MOVLB  0
039B8:  RCALL  36E6
039BA:  MOVFF  02,03
039BE:  MOVF   01,W
039C0:  ADDLW  F1
039C2:  MOVWF  FE9
039C4:  MOVLW  00
039C6:  ADDWFC 02,W
039C8:  MOVWF  FEA
039CA:  MOVFF  FEF,00
039CE:  MOVFF  FEC,01
039D2:  MOVFF  FEC,02
039D6:  MOVFF  FEC,03
039DA:  MOVFF  FEA,3BF
039DE:  MOVFF  FE9,3BE
039E2:  BCF    FD8.1
039E4:  MOVFF  32E,3CB
039E8:  MOVFF  32D,3CA
039EC:  MOVFF  32C,3C9
039F0:  MOVFF  32B,3C8
039F4:  MOVFF  03,3CF
039F8:  MOVFF  02,3CE
039FC:  MOVFF  01,3CD
03A00:  MOVFF  00,3CC
03A04:  CALL   1DE0
03A08:  MOVFF  3BF,FEA
03A0C:  MOVFF  3BE,FE9
03A10:  MOVFF  03,32E
03A14:  MOVFF  02,32D
03A18:  MOVFF  01,32C
03A1C:  MOVFF  00,32B
....................    }  
03A20:  MOVLB  3
03A22:  INCF   x0D,F
03A24:  BRA    39A4
....................    Prom=Prom/media;    
03A26:  CLRF   xC9
03A28:  MOVFF  3BD,3C8
03A2C:  MOVLB  0
03A2E:  CALL   1C4C
03A32:  MOVFF  32E,3C5
03A36:  MOVFF  32D,3C4
03A3A:  MOVFF  32C,3C3
03A3E:  MOVFF  32B,3C2
03A42:  MOVFF  03,3C9
03A46:  MOVFF  02,3C8
03A4A:  MOVFF  01,3C7
03A4E:  MOVFF  00,3C6
03A52:  CALL   1C82
03A56:  MOVFF  03,32E
03A5A:  MOVFF  02,32D
03A5E:  MOVFF  01,32C
03A62:  MOVFF  00,32B
....................    //Temperature=(Prom-100.0)/(0.385);  // Ecuacin determinada por linealizacin en Matlab. Revisar este polinomio.   
....................    Temperature=((Prom*Prom)*a)+(Prom*b)+c;  // Ecuacin determinada por linealizacin en Matlab. Revisar este polinomio. 
03A66:  MOVFF  32E,3D1
03A6A:  MOVFF  32D,3D0
03A6E:  MOVFF  32C,3CF
03A72:  MOVFF  32B,3CE
03A76:  MOVFF  32E,3D5
03A7A:  MOVFF  32D,3D4
03A7E:  MOVFF  32C,3D3
03A82:  MOVFF  32B,3D2
03A86:  RCALL  35F0
03A88:  MOVFF  00,3BE
03A8C:  MOVFF  01,3BF
03A90:  MOVFF  02,3C0
03A94:  MOVFF  03,3C1
03A98:  MOVFF  03,3D1
03A9C:  MOVFF  02,3D0
03AA0:  MOVFF  01,3CF
03AA4:  MOVFF  00,3CE
03AA8:  MOVFF  35E,3D5
03AAC:  MOVFF  35D,3D4
03AB0:  MOVFF  35C,3D3
03AB4:  MOVFF  35B,3D2
03AB8:  RCALL  35F0
03ABA:  MOVFF  00,3BE
03ABE:  MOVFF  01,3BF
03AC2:  MOVFF  02,3C0
03AC6:  MOVFF  03,3C1
03ACA:  MOVFF  32E,3D1
03ACE:  MOVFF  32D,3D0
03AD2:  MOVFF  32C,3CF
03AD6:  MOVFF  32B,3CE
03ADA:  MOVFF  362,3D5
03ADE:  MOVFF  361,3D4
03AE2:  MOVFF  360,3D3
03AE6:  MOVFF  35F,3D2
03AEA:  RCALL  35F0
03AEC:  BCF    FD8.1
03AEE:  MOVFF  3C1,3CB
03AF2:  MOVFF  3C0,3CA
03AF6:  MOVFF  3BF,3C9
03AFA:  MOVFF  3BE,3C8
03AFE:  MOVFF  03,3CF
03B02:  MOVFF  02,3CE
03B06:  MOVFF  01,3CD
03B0A:  MOVFF  00,3CC
03B0E:  CALL   1DE0
03B12:  MOVFF  00,3BE
03B16:  MOVFF  01,3BF
03B1A:  MOVFF  02,3C0
03B1E:  MOVFF  03,3C1
03B22:  BCF    FD8.1
03B24:  MOVFF  03,3CB
03B28:  MOVFF  02,3CA
03B2C:  MOVFF  01,3C9
03B30:  MOVFF  00,3C8
03B34:  MOVFF  366,3CF
03B38:  MOVFF  365,3CE
03B3C:  MOVFF  364,3CD
03B40:  MOVFF  363,3CC
03B44:  CALL   1DE0
03B48:  MOVFF  03,332
03B4C:  MOVFF  02,331
03B50:  MOVFF  01,330
03B54:  MOVFF  00,32F
....................    Temperature+=((float)Ajuste-(float)Ajusten); 
03B58:  MOVLB  3
03B5A:  CLRF   xC9
03B5C:  MOVFF  30F,3C8
03B60:  MOVLB  0
03B62:  CALL   1C4C
03B66:  MOVFF  00,3BE
03B6A:  MOVFF  01,3BF
03B6E:  MOVFF  02,3C0
03B72:  MOVFF  03,3C1
03B76:  MOVLB  3
03B78:  CLRF   xC9
03B7A:  MOVFF  310,3C8
03B7E:  MOVLB  0
03B80:  CALL   1C4C
03B84:  BSF    FD8.1
03B86:  MOVFF  3C1,3CB
03B8A:  MOVFF  3C0,3CA
03B8E:  MOVFF  3BF,3C9
03B92:  MOVFF  3BE,3C8
03B96:  MOVFF  03,3CF
03B9A:  MOVFF  02,3CE
03B9E:  MOVFF  01,3CD
03BA2:  MOVFF  00,3CC
03BA6:  CALL   1DE0
03BAA:  BCF    FD8.1
03BAC:  MOVFF  332,3CB
03BB0:  MOVFF  331,3CA
03BB4:  MOVFF  330,3C9
03BB8:  MOVFF  32F,3C8
03BBC:  MOVFF  03,3CF
03BC0:  MOVFF  02,3CE
03BC4:  MOVFF  01,3CD
03BC8:  MOVFF  00,3CC
03BCC:  CALL   1DE0
03BD0:  MOVFF  03,332
03BD4:  MOVFF  02,331
03BD8:  MOVFF  01,330
03BDC:  MOVFF  00,32F
....................    //Temperature-=39.0; 
....................     
....................    //return Prom; 
....................    return Temperature; 
03BE0:  MOVFF  32F,00
03BE4:  MOVFF  330,01
03BE8:  MOVFF  331,02
03BEC:  MOVFF  332,03
.................... } 
03BF0:  RETLW  00
....................  
.................... float Leer_Sensor_Presion_Camara(int media){ 
....................    promediopresion=0.0; 
*
040A4:  MOVLB  3
040A6:  CLRF   x04
040A8:  CLRF   x03
040AA:  CLRF   x02
040AC:  CLRF   x01
....................    V1 = sensores(2);   //Lectura de Divisor de Voltaje de PT100 con resistencia de 1k (+-10%) 
040AE:  MOVLW  02
040B0:  MOVWF  xBE
040B2:  MOVLB  0
040B4:  CALL   3598
040B8:  MOVFF  03,346
040BC:  MOVFF  02,345
040C0:  MOVFF  01,344
040C4:  MOVFF  00,343
....................    //V1 = V1*(5.0/1024.0); 
....................    //Presion=(V1-0.2)/(K); 
....................    Presion=(((V1+G1)/1023)-0.04)/K; 
040C8:  MOVLB  3
040CA:  CLRF   xBF
040CC:  MOVFF  3B9,3BE
040D0:  BTFSC  xBE.7
040D2:  DECF   xBF,F
040D4:  MOVLB  0
040D6:  RCALL  4054
040D8:  BCF    FD8.1
040DA:  MOVFF  346,3CB
040DE:  MOVFF  345,3CA
040E2:  MOVFF  344,3C9
040E6:  MOVFF  343,3C8
040EA:  MOVFF  03,3CF
040EE:  MOVFF  02,3CE
040F2:  MOVFF  01,3CD
040F6:  MOVFF  00,3CC
040FA:  CALL   1DE0
040FE:  MOVFF  00,3BE
04102:  MOVFF  01,3BF
04106:  MOVFF  02,3C0
0410A:  MOVFF  03,3C1
0410E:  MOVFF  03,3C5
04112:  MOVFF  02,3C4
04116:  MOVFF  01,3C3
0411A:  MOVFF  00,3C2
0411E:  MOVLB  3
04120:  CLRF   xC9
04122:  MOVLW  C0
04124:  MOVWF  xC8
04126:  MOVLW  7F
04128:  MOVWF  xC7
0412A:  MOVLW  88
0412C:  MOVWF  xC6
0412E:  MOVLB  0
04130:  CALL   1C82
04134:  MOVFF  00,3BE
04138:  MOVFF  01,3BF
0413C:  MOVFF  02,3C0
04140:  MOVFF  03,3C1
04144:  BSF    FD8.1
04146:  MOVFF  03,3CB
0414A:  MOVFF  02,3CA
0414E:  MOVFF  01,3C9
04152:  MOVFF  00,3C8
04156:  MOVLW  0A
04158:  MOVLB  3
0415A:  MOVWF  xCF
0415C:  MOVLW  D7
0415E:  MOVWF  xCE
04160:  MOVLW  23
04162:  MOVWF  xCD
04164:  MOVLW  7A
04166:  MOVWF  xCC
04168:  MOVLB  0
0416A:  CALL   1DE0
0416E:  MOVFF  00,3BE
04172:  MOVFF  01,3BF
04176:  MOVFF  02,3C0
0417A:  MOVFF  03,3C1
0417E:  MOVFF  03,3C5
04182:  MOVFF  02,3C4
04186:  MOVFF  01,3C3
0418A:  MOVFF  00,3C2
0418E:  MOVFF  35A,3C9
04192:  MOVFF  359,3C8
04196:  MOVFF  358,3C7
0419A:  MOVFF  357,3C6
0419E:  CALL   1C82
041A2:  MOVFF  03,34A
041A6:  MOVFF  02,349
041AA:  MOVFF  01,348
041AE:  MOVFF  00,347
....................     
....................    if(Presion<0.0) 
041B2:  MOVFF  34A,3C4
041B6:  MOVFF  349,3C3
041BA:  MOVFF  348,3C2
041BE:  MOVFF  347,3C1
041C2:  MOVLB  3
041C4:  CLRF   xC8
041C6:  CLRF   xC7
041C8:  CLRF   xC6
041CA:  CLRF   xC5
041CC:  MOVLB  0
041CE:  CALL   295E
041D2:  BNC   41DE
....................    { 
....................       Presion=0.0; 
041D4:  MOVLB  3
041D6:  CLRF   x4A
041D8:  CLRF   x49
041DA:  CLRF   x48
041DC:  CLRF   x47
....................    } 
....................     
....................    if(r>media-1) 
041DE:  MOVLW  01
041E0:  MOVLB  3
041E2:  SUBWF  xBD,W
041E4:  SUBWF  x9D,W
041E6:  BZ    41EC
041E8:  BNC   41EC
....................    {r=0;} 
041EA:  CLRF   x9D
....................    PromPresion[r]=Presion;r++; 
041EC:  MOVF   x9D,W
041EE:  MULLW  04
041F0:  MOVF   FF3,W
041F2:  CLRF   03
041F4:  ADDLW  31
041F6:  MOVWF  FE9
041F8:  MOVLW  02
041FA:  ADDWFC 03,W
041FC:  MOVWF  FEA
041FE:  MOVFF  347,FEF
04202:  MOVFF  348,FEC
04206:  MOVFF  349,FEC
0420A:  MOVFF  34A,FEC
0420E:  INCF   x9D,F
....................           
....................    for(t=0;t<=(media-1);t++) 
04210:  CLRF   x9E
04212:  MOVLW  01
04214:  SUBWF  xBD,W
04216:  SUBWF  x9E,W
04218:  BZ    421C
0421A:  BC    428C
....................    { 
....................       promediopresion+=PromPresion[t]; 
0421C:  MOVF   x9E,W
0421E:  MULLW  04
04220:  MOVF   FF3,W
04222:  CLRF   03
04224:  ADDLW  31
04226:  MOVWF  FE9
04228:  MOVLW  02
0422A:  ADDWFC 03,W
0422C:  MOVWF  FEA
0422E:  MOVFF  FEF,00
04232:  MOVFF  FEC,01
04236:  MOVFF  FEC,02
0423A:  MOVFF  FEC,03
0423E:  MOVFF  FEA,3BF
04242:  MOVFF  FE9,3BE
04246:  BCF    FD8.1
04248:  MOVFF  304,3CB
0424C:  MOVFF  303,3CA
04250:  MOVFF  302,3C9
04254:  MOVFF  301,3C8
04258:  MOVFF  03,3CF
0425C:  MOVFF  02,3CE
04260:  MOVFF  01,3CD
04264:  MOVFF  00,3CC
04268:  MOVLB  0
0426A:  CALL   1DE0
0426E:  MOVFF  3BF,FEA
04272:  MOVFF  3BE,FE9
04276:  MOVFF  03,304
0427A:  MOVFF  02,303
0427E:  MOVFF  01,302
04282:  MOVFF  00,301
....................    }  
04286:  MOVLB  3
04288:  INCF   x9E,F
0428A:  BRA    4212
....................    promediopresion=promediopresion/media;    
0428C:  CLRF   xC9
0428E:  MOVFF  3BD,3C8
04292:  MOVLB  0
04294:  CALL   1C4C
04298:  MOVFF  304,3C5
0429C:  MOVFF  303,3C4
042A0:  MOVFF  302,3C3
042A4:  MOVFF  301,3C2
042A8:  MOVFF  03,3C9
042AC:  MOVFF  02,3C8
042B0:  MOVFF  01,3C7
042B4:  MOVFF  00,3C6
042B8:  CALL   1C82
042BC:  MOVFF  03,304
042C0:  MOVFF  02,303
042C4:  MOVFF  01,302
042C8:  MOVFF  00,301
....................     
....................    return promediopresion; 
042CC:  MOVFF  301,00
042D0:  MOVFF  302,01
042D4:  MOVFF  303,02
042D8:  MOVFF  304,03
.................... } 
042DC:  GOTO   5C52 (RETURN)
....................  
.................... float Leer_Sensor_Presion_PreCamara(int media){ 
....................    promediopresionp=0.0; 
042E0:  MOVLB  3
042E2:  CLRF   x0C
042E4:  CLRF   x0B
042E6:  CLRF   x0A
042E8:  CLRF   x09
....................    V2 = sensores(3);   //Lectura de Divisor de Voltaje de PT100 con resistencia de 1k (+-10%) 
042EA:  MOVLW  03
042EC:  MOVWF  xBE
042EE:  MOVLB  0
042F0:  CALL   3598
042F4:  MOVFF  03,34E
042F8:  MOVFF  02,34D
042FC:  MOVFF  01,34C
04300:  MOVFF  00,34B
....................    //V2 = V2*(5.0/1024.0); 
....................    //Presionp=(V2-0.2)/(K); 
....................    Presionp=(((V2+G2)/1023)-0.04)/K; 
04304:  MOVLB  3
04306:  CLRF   xBF
04308:  MOVFF  3BA,3BE
0430C:  BTFSC  xBE.7
0430E:  DECF   xBF,F
04310:  MOVLB  0
04312:  RCALL  4054
04314:  BCF    FD8.1
04316:  MOVFF  34E,3CB
0431A:  MOVFF  34D,3CA
0431E:  MOVFF  34C,3C9
04322:  MOVFF  34B,3C8
04326:  MOVFF  03,3CF
0432A:  MOVFF  02,3CE
0432E:  MOVFF  01,3CD
04332:  MOVFF  00,3CC
04336:  CALL   1DE0
0433A:  MOVFF  00,3BE
0433E:  MOVFF  01,3BF
04342:  MOVFF  02,3C0
04346:  MOVFF  03,3C1
0434A:  MOVFF  03,3C5
0434E:  MOVFF  02,3C4
04352:  MOVFF  01,3C3
04356:  MOVFF  00,3C2
0435A:  MOVLB  3
0435C:  CLRF   xC9
0435E:  MOVLW  C0
04360:  MOVWF  xC8
04362:  MOVLW  7F
04364:  MOVWF  xC7
04366:  MOVLW  88
04368:  MOVWF  xC6
0436A:  MOVLB  0
0436C:  CALL   1C82
04370:  MOVFF  00,3BE
04374:  MOVFF  01,3BF
04378:  MOVFF  02,3C0
0437C:  MOVFF  03,3C1
04380:  BSF    FD8.1
04382:  MOVFF  03,3CB
04386:  MOVFF  02,3CA
0438A:  MOVFF  01,3C9
0438E:  MOVFF  00,3C8
04392:  MOVLW  0A
04394:  MOVLB  3
04396:  MOVWF  xCF
04398:  MOVLW  D7
0439A:  MOVWF  xCE
0439C:  MOVLW  23
0439E:  MOVWF  xCD
043A0:  MOVLW  7A
043A2:  MOVWF  xCC
043A4:  MOVLB  0
043A6:  CALL   1DE0
043AA:  MOVFF  00,3BE
043AE:  MOVFF  01,3BF
043B2:  MOVFF  02,3C0
043B6:  MOVFF  03,3C1
043BA:  MOVFF  03,3C5
043BE:  MOVFF  02,3C4
043C2:  MOVFF  01,3C3
043C6:  MOVFF  00,3C2
043CA:  MOVFF  35A,3C9
043CE:  MOVFF  359,3C8
043D2:  MOVFF  358,3C7
043D6:  MOVFF  357,3C6
043DA:  CALL   1C82
043DE:  MOVFF  03,352
043E2:  MOVFF  02,351
043E6:  MOVFF  01,350
043EA:  MOVFF  00,34F
....................     
....................    if(Presionp<0.0) 
043EE:  MOVFF  352,3C4
043F2:  MOVFF  351,3C3
043F6:  MOVFF  350,3C2
043FA:  MOVFF  34F,3C1
043FE:  MOVLB  3
04400:  CLRF   xC8
04402:  CLRF   xC7
04404:  CLRF   xC6
04406:  CLRF   xC5
04408:  MOVLB  0
0440A:  CALL   295E
0440E:  BNC   441A
....................    { 
....................       Presionp=0.0; 
04410:  MOVLB  3
04412:  CLRF   x52
04414:  CLRF   x51
04416:  CLRF   x50
04418:  CLRF   x4F
....................    } 
....................     
....................    if(r22>media-1) 
0441A:  MOVLW  01
0441C:  MOVLB  3
0441E:  SUBWF  xBD,W
04420:  SUBWF  x9F,W
04422:  BZ    4428
04424:  BNC   4428
....................    {r22=0;} 
04426:  CLRF   x9F
....................    PromPresionp[r22]=Presionp;r22++; 
04428:  MOVF   x9F,W
0442A:  MULLW  04
0442C:  MOVF   FF3,W
0442E:  CLRF   03
04430:  ADDLW  81
04432:  MOVWF  FE9
04434:  MOVLW  02
04436:  ADDWFC 03,W
04438:  MOVWF  FEA
0443A:  MOVFF  34F,FEF
0443E:  MOVFF  350,FEC
04442:  MOVFF  351,FEC
04446:  MOVFF  352,FEC
0444A:  INCF   x9F,F
....................           
....................    for(t2=0;t2<=(media-1);t2++) 
0444C:  CLRF   xA0
0444E:  MOVLW  01
04450:  SUBWF  xBD,W
04452:  SUBWF  xA0,W
04454:  BZ    4458
04456:  BC    44C8
....................    { 
....................       promediopresionp+=PromPresionp[t2]; 
04458:  MOVF   xA0,W
0445A:  MULLW  04
0445C:  MOVF   FF3,W
0445E:  CLRF   03
04460:  ADDLW  81
04462:  MOVWF  FE9
04464:  MOVLW  02
04466:  ADDWFC 03,W
04468:  MOVWF  FEA
0446A:  MOVFF  FEF,00
0446E:  MOVFF  FEC,01
04472:  MOVFF  FEC,02
04476:  MOVFF  FEC,03
0447A:  MOVFF  FEA,3BF
0447E:  MOVFF  FE9,3BE
04482:  BCF    FD8.1
04484:  MOVFF  30C,3CB
04488:  MOVFF  30B,3CA
0448C:  MOVFF  30A,3C9
04490:  MOVFF  309,3C8
04494:  MOVFF  03,3CF
04498:  MOVFF  02,3CE
0449C:  MOVFF  01,3CD
044A0:  MOVFF  00,3CC
044A4:  MOVLB  0
044A6:  CALL   1DE0
044AA:  MOVFF  3BF,FEA
044AE:  MOVFF  3BE,FE9
044B2:  MOVFF  03,30C
044B6:  MOVFF  02,30B
044BA:  MOVFF  01,30A
044BE:  MOVFF  00,309
....................    }  
044C2:  MOVLB  3
044C4:  INCF   xA0,F
044C6:  BRA    444E
....................    promediopresionp=promediopresionp/media;    
044C8:  CLRF   xC9
044CA:  MOVFF  3BD,3C8
044CE:  MOVLB  0
044D0:  CALL   1C4C
044D4:  MOVFF  30C,3C5
044D8:  MOVFF  30B,3C4
044DC:  MOVFF  30A,3C3
044E0:  MOVFF  309,3C2
044E4:  MOVFF  03,3C9
044E8:  MOVFF  02,3C8
044EC:  MOVFF  01,3C7
044F0:  MOVFF  00,3C6
044F4:  CALL   1C82
044F8:  MOVFF  03,30C
044FC:  MOVFF  02,30B
04500:  MOVFF  01,30A
04504:  MOVFF  00,309
....................     
....................    return promediopresionp; 
04508:  MOVFF  309,00
0450C:  MOVFF  30A,01
04510:  MOVFF  30B,02
04514:  MOVFF  30C,03
.................... } 
04518:  GOTO   5C7A (RETURN)
....................  
.................... void Controla(){ 
....................    if(tiemporecta>=Derivativo/2.0) 
*
04D3E:  MOVLB  3
04D40:  CLRF   xC9
04D42:  MOVFF  368,3C8
04D46:  MOVLB  0
04D48:  CALL   1C4C
04D4C:  MOVFF  03,3C5
04D50:  MOVFF  02,3C4
04D54:  MOVFF  01,3C3
04D58:  MOVFF  00,3C2
04D5C:  MOVLB  3
04D5E:  CLRF   xC9
04D60:  CLRF   xC8
04D62:  CLRF   xC7
04D64:  MOVLW  80
04D66:  MOVWF  xC6
04D68:  MOVLB  0
04D6A:  CALL   1C82
04D6E:  MOVFF  00,3BD
04D72:  MOVFF  01,3BE
04D76:  MOVFF  02,3BF
04D7A:  MOVFF  03,3C0
04D7E:  MOVLB  3
04D80:  CLRF   xC9
04D82:  MOVFF  36A,3C8
04D86:  MOVLB  0
04D88:  CALL   1C4C
04D8C:  MOVFF  3C0,3C4
04D90:  MOVFF  3BF,3C3
04D94:  MOVFF  3BE,3C2
04D98:  MOVFF  3BD,3C1
04D9C:  MOVFF  03,3C8
04DA0:  MOVFF  02,3C7
04DA4:  MOVFF  01,3C6
04DA8:  MOVFF  00,3C5
04DAC:  CALL   295E
04DB0:  BC    4DB4
04DB2:  BNZ   4DBA
....................    { 
....................       ActualizaRecta(); 
04DB4:  BRA    4CD0
....................       tiemporecta=0; 
04DB6:  MOVLB  3
04DB8:  CLRF   x6A
....................    }  
.................... //-------------------------------Control de Calentamiento------------------------------------------------------------//          
....................    error=desvio+Setpoint-Temperatura;      // Clculo del error ****** 
04DBA:  MOVLB  3
04DBC:  CLRF   xC9
04DBE:  MOVFF  37B,3C8
04DC2:  MOVLB  0
04DC4:  CALL   1C4C
04DC8:  BCF    FD8.1
04DCA:  MOVFF  342,3CB
04DCE:  MOVFF  341,3CA
04DD2:  MOVFF  340,3C9
04DD6:  MOVFF  33F,3C8
04DDA:  MOVFF  03,3CF
04DDE:  MOVFF  02,3CE
04DE2:  MOVFF  01,3CD
04DE6:  MOVFF  00,3CC
04DEA:  CALL   1DE0
04DEE:  MOVFF  00,3BD
04DF2:  MOVFF  01,3BE
04DF6:  MOVFF  02,3BF
04DFA:  MOVFF  03,3C0
04DFE:  BSF    FD8.1
04E00:  MOVFF  03,3CB
04E04:  MOVFF  02,3CA
04E08:  MOVFF  01,3C9
04E0C:  MOVFF  00,3C8
04E10:  MOVFF  356,3CF
04E14:  MOVFF  355,3CE
04E18:  MOVFF  354,3CD
04E1C:  MOVFF  353,3CC
04E20:  CALL   1DE0
04E24:  MOVFF  03,32A
04E28:  MOVFF  02,329
04E2C:  MOVFF  01,328
04E30:  MOVFF  00,327
....................     
....................    if(error>1.0 && error<15 && Aumento<0.3) 
04E34:  MOVLB  3
04E36:  CLRF   xC4
04E38:  CLRF   xC3
04E3A:  CLRF   xC2
04E3C:  MOVLW  7F
04E3E:  MOVWF  xC1
04E40:  MOVFF  32A,3C8
04E44:  MOVFF  329,3C7
04E48:  MOVFF  328,3C6
04E4C:  MOVFF  327,3C5
04E50:  MOVLB  0
04E52:  CALL   295E
04E56:  BTFSS  FD8.0
04E58:  BRA    507E
04E5A:  MOVFF  32A,3C4
04E5E:  MOVFF  329,3C3
04E62:  MOVFF  328,3C2
04E66:  MOVFF  327,3C1
04E6A:  MOVLB  3
04E6C:  CLRF   xC8
04E6E:  CLRF   xC7
04E70:  MOVLW  70
04E72:  MOVWF  xC6
04E74:  MOVLW  82
04E76:  MOVWF  xC5
04E78:  MOVLB  0
04E7A:  CALL   295E
04E7E:  BTFSS  FD8.0
04E80:  BRA    507E
04E82:  MOVFF  308,3C4
04E86:  MOVFF  307,3C3
04E8A:  MOVFF  306,3C2
04E8E:  MOVFF  305,3C1
04E92:  MOVLW  9A
04E94:  MOVLB  3
04E96:  MOVWF  xC8
04E98:  MOVLW  99
04E9A:  MOVWF  xC7
04E9C:  MOVLW  19
04E9E:  MOVWF  xC6
04EA0:  MOVLW  7D
04EA2:  MOVWF  xC5
04EA4:  MOVLB  0
04EA6:  CALL   295E
04EAA:  BTFSS  FD8.0
04EAC:  BRA    507E
....................    { 
....................       if(Tpulso<4.0) 
04EAE:  MOVFF  326,3C4
04EB2:  MOVFF  325,3C3
04EB6:  MOVFF  324,3C2
04EBA:  MOVFF  323,3C1
04EBE:  MOVLB  3
04EC0:  CLRF   xC8
04EC2:  CLRF   xC7
04EC4:  CLRF   xC6
04EC6:  MOVLW  81
04EC8:  MOVWF  xC5
04ECA:  MOVLB  0
04ECC:  CALL   295E
04ED0:  BTFSS  FD8.0
04ED2:  BRA    507C
....................       { 
....................          flagTC=1; 
04ED4:  BSF    xCE.6
....................          if(TiempoControl>=Derivativo) 
04ED6:  MOVLB  3
04ED8:  MOVF   x68,W
04EDA:  SUBWF  xA1,W
04EDC:  BTFSS  FD8.0
04EDE:  BRA    5078
....................          { 
....................             TiempoControl=0; 
04EE0:  CLRF   xA1
....................             if(Aumento<-0.5){ 
04EE2:  MOVFF  308,3C4
04EE6:  MOVFF  307,3C3
04EEA:  MOVFF  306,3C2
04EEE:  MOVFF  305,3C1
04EF2:  CLRF   xC8
04EF4:  CLRF   xC7
04EF6:  MOVLW  80
04EF8:  MOVWF  xC6
04EFA:  MOVLW  7E
04EFC:  MOVWF  xC5
04EFE:  MOVLB  0
04F00:  CALL   295E
04F04:  BNC   4F76
....................                Ganancia+=Integral+0.2; 
04F06:  MOVLB  3
04F08:  CLRF   xC9
04F0A:  MOVFF  367,3C8
04F0E:  MOVLB  0
04F10:  CALL   1C4C
04F14:  BCF    FD8.1
04F16:  MOVFF  03,3CB
04F1A:  MOVFF  02,3CA
04F1E:  MOVFF  01,3C9
04F22:  MOVFF  00,3C8
04F26:  MOVLW  CD
04F28:  MOVLB  3
04F2A:  MOVWF  xCF
04F2C:  MOVLW  CC
04F2E:  MOVWF  xCE
04F30:  MOVLW  4C
04F32:  MOVWF  xCD
04F34:  MOVLW  7C
04F36:  MOVWF  xCC
04F38:  MOVLB  0
04F3A:  CALL   1DE0
04F3E:  BCF    FD8.1
04F40:  MOVFF  33A,3CB
04F44:  MOVFF  339,3CA
04F48:  MOVFF  338,3C9
04F4C:  MOVFF  337,3C8
04F50:  MOVFF  03,3CF
04F54:  MOVFF  02,3CE
04F58:  MOVFF  01,3CD
04F5C:  MOVFF  00,3CC
04F60:  CALL   1DE0
04F64:  MOVFF  03,33A
04F68:  MOVFF  02,339
04F6C:  MOVFF  01,338
04F70:  MOVFF  00,337
....................             }else{ 
04F74:  BRA    5076
....................                if(Aumento<-0.1){ 
04F76:  MOVFF  308,3C4
04F7A:  MOVFF  307,3C3
04F7E:  MOVFF  306,3C2
04F82:  MOVFF  305,3C1
04F86:  MOVLW  CD
04F88:  MOVLB  3
04F8A:  MOVWF  xC8
04F8C:  MOVLW  CC
04F8E:  MOVWF  xC7
04F90:  MOVWF  xC6
04F92:  MOVLW  7B
04F94:  MOVWF  xC5
04F96:  MOVLB  0
04F98:  CALL   295E
04F9C:  BNC   500E
....................                   Ganancia+=Integral-0.2; 
04F9E:  MOVLB  3
04FA0:  CLRF   xC9
04FA2:  MOVFF  367,3C8
04FA6:  MOVLB  0
04FA8:  CALL   1C4C
04FAC:  BSF    FD8.1
04FAE:  MOVFF  03,3CB
04FB2:  MOVFF  02,3CA
04FB6:  MOVFF  01,3C9
04FBA:  MOVFF  00,3C8
04FBE:  MOVLW  CD
04FC0:  MOVLB  3
04FC2:  MOVWF  xCF
04FC4:  MOVLW  CC
04FC6:  MOVWF  xCE
04FC8:  MOVLW  4C
04FCA:  MOVWF  xCD
04FCC:  MOVLW  7C
04FCE:  MOVWF  xCC
04FD0:  MOVLB  0
04FD2:  CALL   1DE0
04FD6:  BCF    FD8.1
04FD8:  MOVFF  33A,3CB
04FDC:  MOVFF  339,3CA
04FE0:  MOVFF  338,3C9
04FE4:  MOVFF  337,3C8
04FE8:  MOVFF  03,3CF
04FEC:  MOVFF  02,3CE
04FF0:  MOVFF  01,3CD
04FF4:  MOVFF  00,3CC
04FF8:  CALL   1DE0
04FFC:  MOVFF  03,33A
05000:  MOVFF  02,339
05004:  MOVFF  01,338
05008:  MOVFF  00,337
....................                }else{ 
0500C:  BRA    5076
....................                   Ganancia+=Integral-0.5; 
0500E:  MOVLB  3
05010:  CLRF   xC9
05012:  MOVFF  367,3C8
05016:  MOVLB  0
05018:  CALL   1C4C
0501C:  BSF    FD8.1
0501E:  MOVFF  03,3CB
05022:  MOVFF  02,3CA
05026:  MOVFF  01,3C9
0502A:  MOVFF  00,3C8
0502E:  MOVLB  3
05030:  CLRF   xCF
05032:  CLRF   xCE
05034:  CLRF   xCD
05036:  MOVLW  7E
05038:  MOVWF  xCC
0503A:  MOVLB  0
0503C:  CALL   1DE0
05040:  BCF    FD8.1
05042:  MOVFF  33A,3CB
05046:  MOVFF  339,3CA
0504A:  MOVFF  338,3C9
0504E:  MOVFF  337,3C8
05052:  MOVFF  03,3CF
05056:  MOVFF  02,3CE
0505A:  MOVFF  01,3CD
0505E:  MOVFF  00,3CC
05062:  CALL   1DE0
05066:  MOVFF  03,33A
0506A:  MOVFF  02,339
0506E:  MOVFF  01,338
05072:  MOVFF  00,337
05076:  MOVLB  3
....................                } 
....................             } 
....................          } 
....................       }else{ 
05078:  BRA    5080
0507A:  MOVLB  0
....................          flagTC=0; 
0507C:  BCF    xCE.6
0507E:  MOVLB  3
....................       } 
....................    } 
....................     
....................    if(error<-0.3) 
05080:  MOVFF  32A,3C4
05084:  MOVFF  329,3C3
05088:  MOVFF  328,3C2
0508C:  MOVFF  327,3C1
05090:  MOVLW  9A
05092:  MOVWF  xC8
05094:  MOVLW  99
05096:  MOVWF  xC7
05098:  MOVWF  xC6
0509A:  MOVLW  7D
0509C:  MOVWF  xC5
0509E:  MOVLB  0
050A0:  CALL   295E
050A4:  BNC   50B6
....................    { 
....................       Ganancia=Ganancia2; 
050A6:  MOVFF  33E,33A
050AA:  MOVFF  33D,339
050AE:  MOVFF  33C,338
050B2:  MOVFF  33B,337
....................    } 
....................     
....................    if(Ganancia<1) 
050B6:  MOVFF  33A,3C4
050BA:  MOVFF  339,3C3
050BE:  MOVFF  338,3C2
050C2:  MOVFF  337,3C1
050C6:  MOVLB  3
050C8:  CLRF   xC8
050CA:  CLRF   xC7
050CC:  CLRF   xC6
050CE:  MOVLW  7F
050D0:  MOVWF  xC5
050D2:  MOVLB  0
050D4:  CALL   295E
050D8:  BNC   50E6
....................    { 
....................       Ganancia=1; 
050DA:  MOVLB  3
050DC:  CLRF   x3A
050DE:  CLRF   x39
050E0:  CLRF   x38
050E2:  MOVLW  7F
050E4:  MOVWF  x37
....................    } 
....................     
....................    if(error<0.0)     // Anti Wind_DOWN     
050E6:  MOVFF  32A,3C4
050EA:  MOVFF  329,3C3
050EE:  MOVFF  328,3C2
050F2:  MOVFF  327,3C1
050F6:  MOVLB  3
050F8:  CLRF   xC8
050FA:  CLRF   xC7
050FC:  CLRF   xC6
050FE:  CLRF   xC5
05100:  MOVLB  0
05102:  CALL   295E
05106:  BNC   5114
....................    { 
....................       error=0.0; 
05108:  MOVLB  3
0510A:  CLRF   x2A
0510C:  CLRF   x29
0510E:  CLRF   x28
05110:  CLRF   x27
05112:  MOVLB  0
....................    } 
....................    //tmp=(Setpoint-Prom)*Ganancia;  // Control Proporcional. 
....................    tmp=error*Ganancia;  // Control Proporcional. 
05114:  MOVFF  32A,3D1
05118:  MOVFF  329,3D0
0511C:  MOVFF  328,3CF
05120:  MOVFF  327,3CE
05124:  MOVFF  33A,3D5
05128:  MOVFF  339,3D4
0512C:  MOVFF  338,3D3
05130:  MOVFF  337,3D2
05134:  CALL   35F0
05138:  MOVFF  03,336
0513C:  MOVFF  02,335
05140:  MOVFF  01,334
05144:  MOVFF  00,333
....................           
....................    if(tmp>Setpoint)   // Anti Wind-UP       
05148:  MOVLB  3
0514A:  CLRF   xC9
0514C:  MOVFF  37B,3C8
05150:  MOVLB  0
05152:  CALL   1C4C
05156:  MOVFF  03,3C4
0515A:  MOVFF  02,3C3
0515E:  MOVFF  01,3C2
05162:  MOVFF  00,3C1
05166:  MOVFF  336,3C8
0516A:  MOVFF  335,3C7
0516E:  MOVFF  334,3C6
05172:  MOVFF  333,3C5
05176:  CALL   295E
0517A:  BNC   519A
....................    { 
....................       tmp=Setpoint; 
0517C:  MOVLB  3
0517E:  CLRF   xC9
05180:  MOVFF  37B,3C8
05184:  MOVLB  0
05186:  CALL   1C4C
0518A:  MOVFF  03,336
0518E:  MOVFF  02,335
05192:  MOVFF  01,334
05196:  MOVFF  00,333
....................    } 
....................                 
....................    if(tmp<0.0)     // Anti Wind_DOWN     
0519A:  MOVFF  336,3C4
0519E:  MOVFF  335,3C3
051A2:  MOVFF  334,3C2
051A6:  MOVFF  333,3C1
051AA:  MOVLB  3
051AC:  CLRF   xC8
051AE:  CLRF   xC7
051B0:  CLRF   xC6
051B2:  CLRF   xC5
051B4:  MOVLB  0
051B6:  CALL   295E
051BA:  BNC   51C6
....................    { 
....................       tmp=0.0; 
051BC:  MOVLB  3
051BE:  CLRF   x36
051C0:  CLRF   x35
051C2:  CLRF   x34
051C4:  CLRF   x33
....................    } 
....................     
....................    // Tpulso(t)= Tciclo*(y(t)-ymin)/(ymax - ymin); calculo de ciclo util para control de resistencia.ymax=140.ymin=0; 
....................    // Tpulso es float, hay que pasar ese ciclo a una salida de un puerto usando el TMR1. 
....................    Tpulso=(tmp/Setpoint)*Tciclo;   
051C6:  MOVLB  3
051C8:  CLRF   xC9
051CA:  MOVFF  37B,3C8
051CE:  MOVLB  0
051D0:  CALL   1C4C
051D4:  MOVFF  336,3C5
051D8:  MOVFF  335,3C4
051DC:  MOVFF  334,3C3
051E0:  MOVFF  333,3C2
051E4:  MOVFF  03,3C9
051E8:  MOVFF  02,3C8
051EC:  MOVFF  01,3C7
051F0:  MOVFF  00,3C6
051F4:  CALL   1C82
051F8:  MOVFF  00,3BD
051FC:  MOVFF  01,3BE
05200:  MOVFF  02,3BF
05204:  MOVFF  03,3C0
05208:  MOVFF  03,3D1
0520C:  MOVFF  02,3D0
05210:  MOVFF  01,3CF
05214:  MOVFF  00,3CE
05218:  MOVFF  322,3D5
0521C:  MOVFF  321,3D4
05220:  MOVFF  320,3D3
05224:  MOVFF  31F,3D2
05228:  CALL   35F0
0522C:  MOVFF  03,326
05230:  MOVFF  02,325
05234:  MOVFF  01,324
05238:  MOVFF  00,323
....................                                        
....................    Tp=(Tpulso/0.005); 
0523C:  MOVFF  326,3C5
05240:  MOVFF  325,3C4
05244:  MOVFF  324,3C3
05248:  MOVFF  323,3C2
0524C:  MOVLW  0A
0524E:  MOVLB  3
05250:  MOVWF  xC9
05252:  MOVLW  D7
05254:  MOVWF  xC8
05256:  MOVLW  23
05258:  MOVWF  xC7
0525A:  MOVLW  77
0525C:  MOVWF  xC6
0525E:  MOVLB  0
05260:  CALL   1C82
05264:  MOVFF  03,3CB
05268:  MOVFF  02,3CA
0526C:  MOVFF  01,3C9
05270:  MOVFF  00,3C8
05274:  CALL   3D9A
05278:  MOVFF  02,DA
0527C:  MOVFF  01,D9
....................    Tc=(Tciclo/0.005); 
05280:  MOVFF  322,3C5
05284:  MOVFF  321,3C4
05288:  MOVFF  320,3C3
0528C:  MOVFF  31F,3C2
05290:  MOVLW  0A
05292:  MOVLB  3
05294:  MOVWF  xC9
05296:  MOVLW  D7
05298:  MOVWF  xC8
0529A:  MOVLW  23
0529C:  MOVWF  xC7
0529E:  MOVLW  77
052A0:  MOVWF  xC6
052A2:  MOVLB  0
052A4:  CALL   1C82
052A8:  MOVFF  03,3CB
052AC:  MOVFF  02,3CA
052B0:  MOVFF  01,3C9
052B4:  MOVFF  00,3C8
052B8:  CALL   3D9A
052BC:  MOVFF  02,DC
052C0:  MOVFF  01,DB
....................    Controlando=1;    
052C4:  MOVLW  01
052C6:  MOVLB  3
052C8:  MOVWF  x6B
.................... //--------------------------------------------------------------------------------------------------------------------//    
.................... } 
052CA:  MOVLB  0
052CC:  RETLW  00
....................  
.................... void Envio_I2C(direccion, posicion, dato){ 
....................  
....................    i2c_start();            // Comienzo comunicacin 
*
03FBA:  BSF    F94.4
03FBC:  MOVLW  05
03FBE:  MOVWF  00
03FC0:  DECFSZ 00,F
03FC2:  BRA    3FC0
03FC4:  BSF    F94.3
03FC6:  MOVLW  06
03FC8:  MOVWF  00
03FCA:  DECFSZ 00,F
03FCC:  BRA    3FCA
03FCE:  BCF    F8B.4
03FD0:  BCF    F94.4
03FD2:  MOVLW  05
03FD4:  MOVWF  00
03FD6:  DECFSZ 00,F
03FD8:  BRA    3FD6
03FDA:  BCF    F8B.3
03FDC:  BCF    F94.3
....................    i2c_write(direccion);   // Direccin del esclavo en el bus I2C 
03FDE:  MOVFF  3C9,3CC
03FE2:  RCALL  3F44
....................    i2c_write(posicion);    // Posicin donde se guardara el dato transmitido 
03FE4:  MOVFF  3CA,3CC
03FE8:  RCALL  3F44
....................    i2c_write(dato);        // Dato a transmitir 
03FEA:  MOVFF  3CB,3CC
03FEE:  RCALL  3F44
....................    i2c_stop();             // Fin comunicacin 
03FF0:  BCF    F94.4
03FF2:  NOP   
03FF4:  BSF    F94.3
03FF6:  BTFSS  F82.3
03FF8:  BRA    3FF6
03FFA:  MOVLW  05
03FFC:  MOVWF  00
03FFE:  DECFSZ 00,F
04000:  BRA    3FFE
04002:  BRA    4004
04004:  NOP   
04006:  BSF    F94.4
04008:  MOVLW  05
0400A:  MOVWF  00
0400C:  DECFSZ 00,F
0400E:  BRA    400C
....................  } 
04010:  GOTO   404A (RETURN)
....................  
.................... void Lectura_I2C (byte direccion, byte posicion, byte &dato) { 
....................  
....................    i2c_start();            // Comienzo de la comunicacin 
....................    i2c_write(direccion);   // Direccin del esclavo en el bus I2C 
....................    i2c_write(posicion);    // Posicin de donde se leer el dato en el esclavo 
....................    i2c_start();            // Reinicio 
....................    i2c_write(direccion+1); // Direccin del esclavo en modo lectura 
....................    dato=i2c_read(0);       // Lectura del dato 
....................    i2c_stop();             // Fin comunicacin 
.................... } 
....................  
.................... void Carga_Vector(void){ 
....................    SlaveA0Tx[0]=(int8)Temperatura; 
*
03DD6:  MOVFF  356,3CB
03DDA:  MOVFF  355,3CA
03DDE:  MOVFF  354,3C9
03DE2:  MOVFF  353,3C8
03DE6:  RCALL  3D9A
03DE8:  MOVFF  01,89
....................    SlaveA0Tx[1]=(Temperatura-((int8)Temperatura))*10; 
03DEC:  MOVFF  356,3CB
03DF0:  MOVFF  355,3CA
03DF4:  MOVFF  354,3C9
03DF8:  MOVFF  353,3C8
03DFC:  RCALL  3D9A
03DFE:  MOVLB  3
03E00:  CLRF   xC9
03E02:  MOVFF  01,3C8
03E06:  MOVLB  0
03E08:  CALL   1C4C
03E0C:  BSF    FD8.1
03E0E:  MOVFF  356,3CB
03E12:  MOVFF  355,3CA
03E16:  MOVFF  354,3C9
03E1A:  MOVFF  353,3C8
03E1E:  MOVFF  03,3CF
03E22:  MOVFF  02,3CE
03E26:  MOVFF  01,3CD
03E2A:  MOVFF  00,3CC
03E2E:  CALL   1DE0
03E32:  MOVFF  00,3C8
03E36:  MOVFF  01,3C9
03E3A:  MOVFF  02,3CA
03E3E:  MOVFF  03,3CB
03E42:  MOVFF  03,3D1
03E46:  MOVFF  02,3D0
03E4A:  MOVFF  01,3CF
03E4E:  MOVFF  00,3CE
03E52:  MOVLB  3
03E54:  CLRF   xD5
03E56:  CLRF   xD4
03E58:  MOVLW  20
03E5A:  MOVWF  xD3
03E5C:  MOVLW  82
03E5E:  MOVWF  xD2
03E60:  MOVLB  0
03E62:  CALL   35F0
03E66:  MOVFF  03,3CB
03E6A:  MOVFF  02,3CA
03E6E:  MOVFF  01,3C9
03E72:  MOVFF  00,3C8
03E76:  RCALL  3D9A
03E78:  MOVFF  01,8A
....................    SlaveA0Tx[2]=make8((int16)PresionCamara,0); 
03E7C:  MOVFF  38D,8B
03E80:  MOVLB  0
....................    SlaveA0Tx[3]=make8((int16)PresionCamara,1); 
03E82:  MOVFF  38E,8C
03E86:  MOVLB  0
....................    SlaveA0Tx[4]=make8((int16)PresionPreCamara,0); 
03E88:  MOVFF  38F,8D
03E8C:  MOVLB  0
....................    SlaveA0Tx[5]=make8((int16)PresionPreCamara,1); 
03E8E:  MOVFF  390,8E
03E92:  MOVLB  0
....................    SlaveA0Tx[6]=(int8)Tpulso*10; 
03E94:  MOVFF  326,3CB
03E98:  MOVFF  325,3CA
03E9C:  MOVFF  324,3C9
03EA0:  MOVFF  323,3C8
03EA4:  RCALL  3D9A
03EA6:  MOVF   01,W
03EA8:  MULLW  0A
03EAA:  MOVFF  FF3,8F
....................    SlaveA0Tx[7]=HIG; 
03EAE:  BSF    F92.5
03EB0:  CLRF   x90
03EB2:  BTFSC  F80.5
03EB4:  INCF   x90,F
....................    SlaveA0Tx[8]=LOW; 
03EB6:  BSF    F96.0
03EB8:  CLRF   x91
03EBA:  BTFSC  F84.0
03EBC:  INCF   x91,F
....................    SlaveA0Tx[9]=TERM; 
03EBE:  BSF    F93.0
03EC0:  CLRF   x92
03EC2:  BTFSS  F81.0
03EC4:  INCF   x92,F
....................    SlaveA0Tx[10]=DOOR; 
03EC6:  BSF    F93.2
03EC8:  CLRF   x93
03ECA:  BTFSS  F81.2
03ECC:  INCF   x93,F
....................    SlaveA0Tx[11]=STOP; 
03ECE:  BSF    F93.1
03ED0:  CLRF   x94
03ED2:  BTFSS  F81.1
03ED4:  INCF   x94,F
....................    SlaveA0Tx[12]=(int8)error; 
03ED6:  MOVFF  32A,3CB
03EDA:  MOVFF  329,3CA
03EDE:  MOVFF  328,3C9
03EE2:  MOVFF  327,3C8
03EE6:  RCALL  3D9A
03EE8:  MOVFF  01,95
....................    SlaveA0Tx[13]=CicloSeleccionado; 
03EEC:  MOVFF  37A,96
....................    SlaveA0Tx[14]=SetTime; 
03EF0:  MOVFF  3B7,97
....................    SlaveA0Tx[15]=Dia; 
03EF4:  MOVFF  3AC,98
....................    SlaveA0Tx[16]=Mes; 
03EF8:  MOVFF  3AB,99
....................    SlaveA0Tx[17]=Year; 
03EFC:  MOVFF  3AA,9A
....................    SlaveA0Tx[18]=Hora; 
03F00:  MOVFF  3AD,9B
....................    SlaveA0Tx[19]=Minuto; 
03F04:  MOVFF  3AE,9C
....................    SlaveA0Tx[20]=Segundo; 
03F08:  MOVFF  3AF,9D
....................    SlaveA0Tx[21]=Testerilizacion[0]; 
03F0C:  MOVFF  E1,9E
....................    SlaveA0Tx[22]=Testerilizacion[1]; 
03F10:  MOVFF  E2,9F
....................    SlaveA0Tx[23]=Testerilizacion[2]; 
03F14:  MOVFF  E3,A0
....................    SlaveA0Tx[24]=Testerilizacion[3]; 
03F18:  MOVFF  E4,A1
....................    SlaveA0Tx[25]=Tsecado[0]; 
03F1C:  MOVFF  E9,A2
....................    SlaveA0Tx[26]=Tsecado[1]; 
03F20:  MOVFF  EA,A3
....................    SlaveA0Tx[27]=Tsecado[2]; 
03F24:  MOVFF  EB,A4
....................    SlaveA0Tx[28]=Tsecado[3]; 
03F28:  MOVFF  EC,A5
....................    SlaveA0Tx[29]=Setpoint; 
03F2C:  MOVFF  37B,A6
....................    SlaveA0Tx[30]=Alarma; 
03F30:  MOVFF  373,A7
....................    SlaveA0Tx[31]=255; 
03F34:  MOVLW  FF
03F36:  MOVWF  xA8
....................    SlaveA0Tx[32]=128; 
03F38:  MOVLW  80
03F3A:  MOVWF  xA9
....................    SlaveA0Tx[33]=50; 
03F3C:  MOVLW  32
03F3E:  MOVWF  xAA
.................... } 
03F40:  GOTO   4016 (RETURN)
....................  
.................... void Lee_Vector(void){ 
....................    //AbreEsteril=txbuf[0]; 
....................    /*Mess=txbuf[1]; 
....................    Year=txbuf[2]; 
....................    Hora=txbuf[3]; 
....................    Minuto=txbuf[4]; 
....................    Segundo=txbuf[5]; 
....................    dow=txbuf[6];*/ 
.................... } 
....................  
.................... void Envio_Esclavos(void){ 
....................    Carga_Vector(); 
*
04014:  BRA    3DD6
....................    for(i=0;i<34;i++) 
04016:  MOVLB  3
04018:  CLRF   x77
0401A:  MOVF   x77,W
0401C:  SUBLW  21
0401E:  BNC   4050
....................    { 
....................       direccion=0xA0; 
04020:  MOVLW  A0
04022:  MOVLB  0
04024:  MOVWF  xAF
....................       Envio_I2C(direccion,i,SlaveA0Tx[i]); 
04026:  CLRF   03
04028:  MOVLB  3
0402A:  MOVF   x77,W
0402C:  ADDLW  89
0402E:  MOVWF  FE9
04030:  MOVLW  00
04032:  ADDWFC 03,W
04034:  MOVWF  FEA
04036:  MOVFF  FEF,3C8
0403A:  MOVFF  AF,3C9
0403E:  MOVFF  377,3CA
04042:  MOVFF  3C8,3CB
04046:  MOVLB  0
04048:  BRA    3FBA
....................    }  
0404A:  MOVLB  3
0404C:  INCF   x77,F
0404E:  BRA    401A
.................... } 
04050:  MOVLB  0
04052:  RETLW  00
.................... void Lectura_Esclavos(void){ 
....................    //for(i=0;i<1;i++) 
....................    //{ 
....................    //   direccion=0xA0;                        //Direccin en el bus I2c 
....................    //   posicion=i;                         //Posicin de memoria a leer 
....................    //   Lectura_I2C(direccion, posicion, dato);    //Lectura por I2C 
....................    //   txbuf[i]=(int8)dato; 
....................    //} 
....................    //Lee_Vector(); 
.................... } 
*
00004:  GOTO   5BCE (RETURN)
....................  
.................... void LeeEEPROM(){ 
.................... //Lectura EEPROM//-------------------------- 
....................    Testerilizacionp[0]=read_eeprom(0); 
*
02058:  MOVFF  FF2,3BD
0205C:  BCF    FF2.6
0205E:  BCF    FF2.7
02060:  CLRF   FAA
02062:  CLRF   FA9
02064:  BCF    FA6.6
02066:  BCF    FA6.7
02068:  BSF    FA6.0
0206A:  MOVF   FA8,W
0206C:  MOVLB  3
0206E:  BTFSC  xBD.6
02070:  BSF    FF2.6
02072:  BTFSC  xBD.7
02074:  BSF    FF2.7
02076:  MOVLB  0
02078:  MOVWF  xE5
....................    delay_ms(10); 
0207A:  MOVLW  0A
0207C:  MOVLB  3
0207E:  MOVWF  xC8
02080:  MOVLB  0
02082:  RCALL  1C24
....................    Testerilizacionp[1]=read_eeprom(1); 
02084:  MOVFF  FF2,3BD
02088:  BCF    FF2.6
0208A:  BCF    FF2.7
0208C:  CLRF   FAA
0208E:  MOVLW  01
02090:  MOVWF  FA9
02092:  BCF    FA6.6
02094:  BCF    FA6.7
02096:  BSF    FA6.0
02098:  MOVF   FA8,W
0209A:  MOVLB  3
0209C:  BTFSC  xBD.6
0209E:  BSF    FF2.6
020A0:  BTFSC  xBD.7
020A2:  BSF    FF2.7
020A4:  MOVLB  0
020A6:  MOVWF  xE6
....................    delay_ms(10); 
020A8:  MOVLW  0A
020AA:  MOVLB  3
020AC:  MOVWF  xC8
020AE:  MOVLB  0
020B0:  RCALL  1C24
....................    Testerilizacionp[2]=read_eeprom(2); 
020B2:  MOVFF  FF2,3BD
020B6:  BCF    FF2.6
020B8:  BCF    FF2.7
020BA:  CLRF   FAA
020BC:  MOVLW  02
020BE:  MOVWF  FA9
020C0:  BCF    FA6.6
020C2:  BCF    FA6.7
020C4:  BSF    FA6.0
020C6:  MOVF   FA8,W
020C8:  MOVLB  3
020CA:  BTFSC  xBD.6
020CC:  BSF    FF2.6
020CE:  BTFSC  xBD.7
020D0:  BSF    FF2.7
020D2:  MOVLB  0
020D4:  MOVWF  xE7
....................    delay_ms(10); 
020D6:  MOVLW  0A
020D8:  MOVLB  3
020DA:  MOVWF  xC8
020DC:  MOVLB  0
020DE:  RCALL  1C24
....................    Testerilizacionp[3]=read_eeprom(3); 
020E0:  MOVFF  FF2,3BD
020E4:  BCF    FF2.6
020E6:  BCF    FF2.7
020E8:  CLRF   FAA
020EA:  MOVLW  03
020EC:  MOVWF  FA9
020EE:  BCF    FA6.6
020F0:  BCF    FA6.7
020F2:  BSF    FA6.0
020F4:  MOVF   FA8,W
020F6:  MOVLB  3
020F8:  BTFSC  xBD.6
020FA:  BSF    FF2.6
020FC:  BTFSC  xBD.7
020FE:  BSF    FF2.7
02100:  MOVLB  0
02102:  MOVWF  xE8
....................    delay_ms(10); 
02104:  MOVLW  0A
02106:  MOVLB  3
02108:  MOVWF  xC8
0210A:  MOVLB  0
0210C:  RCALL  1C24
....................    Tsecadop[0]=read_eeprom(4); 
0210E:  MOVFF  FF2,3BD
02112:  BCF    FF2.6
02114:  BCF    FF2.7
02116:  CLRF   FAA
02118:  MOVLW  04
0211A:  MOVWF  FA9
0211C:  BCF    FA6.6
0211E:  BCF    FA6.7
02120:  BSF    FA6.0
02122:  MOVF   FA8,W
02124:  MOVLB  3
02126:  BTFSC  xBD.6
02128:  BSF    FF2.6
0212A:  BTFSC  xBD.7
0212C:  BSF    FF2.7
0212E:  MOVLB  0
02130:  MOVWF  xED
....................    delay_ms(10); 
02132:  MOVLW  0A
02134:  MOVLB  3
02136:  MOVWF  xC8
02138:  MOVLB  0
0213A:  RCALL  1C24
....................    Tsecadop[1]=read_eeprom(5); 
0213C:  MOVFF  FF2,3BD
02140:  BCF    FF2.6
02142:  BCF    FF2.7
02144:  CLRF   FAA
02146:  MOVLW  05
02148:  MOVWF  FA9
0214A:  BCF    FA6.6
0214C:  BCF    FA6.7
0214E:  BSF    FA6.0
02150:  MOVF   FA8,W
02152:  MOVLB  3
02154:  BTFSC  xBD.6
02156:  BSF    FF2.6
02158:  BTFSC  xBD.7
0215A:  BSF    FF2.7
0215C:  MOVLB  0
0215E:  MOVWF  xEE
....................    delay_ms(10); 
02160:  MOVLW  0A
02162:  MOVLB  3
02164:  MOVWF  xC8
02166:  MOVLB  0
02168:  RCALL  1C24
....................    Tsecadop[2]=read_eeprom(6); 
0216A:  MOVFF  FF2,3BD
0216E:  BCF    FF2.6
02170:  BCF    FF2.7
02172:  CLRF   FAA
02174:  MOVLW  06
02176:  MOVWF  FA9
02178:  BCF    FA6.6
0217A:  BCF    FA6.7
0217C:  BSF    FA6.0
0217E:  MOVF   FA8,W
02180:  MOVLB  3
02182:  BTFSC  xBD.6
02184:  BSF    FF2.6
02186:  BTFSC  xBD.7
02188:  BSF    FF2.7
0218A:  MOVLB  0
0218C:  MOVWF  xEF
....................    delay_ms(10); 
0218E:  MOVLW  0A
02190:  MOVLB  3
02192:  MOVWF  xC8
02194:  MOVLB  0
02196:  RCALL  1C24
....................    Tsecadop[3]=read_eeprom(7); 
02198:  MOVFF  FF2,3BD
0219C:  BCF    FF2.6
0219E:  BCF    FF2.7
021A0:  CLRF   FAA
021A2:  MOVLW  07
021A4:  MOVWF  FA9
021A6:  BCF    FA6.6
021A8:  BCF    FA6.7
021AA:  BSF    FA6.0
021AC:  MOVF   FA8,W
021AE:  MOVLB  3
021B0:  BTFSC  xBD.6
021B2:  BSF    FF2.6
021B4:  BTFSC  xBD.7
021B6:  BSF    FF2.7
021B8:  MOVLB  0
021BA:  MOVWF  xF0
....................    delay_ms(10); 
021BC:  MOVLW  0A
021BE:  MOVLB  3
021C0:  MOVWF  xC8
021C2:  MOVLB  0
021C4:  RCALL  1C24
....................    Setpoint=read_eeprom(8); 
021C6:  MOVFF  FF2,3BD
021CA:  BCF    FF2.6
021CC:  BCF    FF2.7
021CE:  CLRF   FAA
021D0:  MOVLW  08
021D2:  MOVWF  FA9
021D4:  BCF    FA6.6
021D6:  BCF    FA6.7
021D8:  BSF    FA6.0
021DA:  MOVF   FA8,W
021DC:  MOVLB  3
021DE:  BTFSC  xBD.6
021E0:  BSF    FF2.6
021E2:  BTFSC  xBD.7
021E4:  BSF    FF2.7
021E6:  MOVWF  x7B
....................    delay_ms(10); 
021E8:  MOVLW  0A
021EA:  MOVWF  xC8
021EC:  MOVLB  0
021EE:  RCALL  1C24
....................    Nivel=read_eeprom(9); 
021F0:  MOVFF  FF2,3BD
021F4:  BCF    FF2.6
021F6:  BCF    FF2.7
021F8:  CLRF   FAA
021FA:  MOVLW  09
021FC:  MOVWF  FA9
021FE:  BCF    FA6.6
02200:  BCF    FA6.7
02202:  BSF    FA6.0
02204:  MOVF   FA8,W
02206:  MOVLB  3
02208:  BTFSC  xBD.6
0220A:  BSF    FF2.6
0220C:  BTFSC  xBD.7
0220E:  BSF    FF2.7
02210:  CLRF   x8A
02212:  MOVWF  x89
....................    delay_ms(10); 
02214:  MOVLW  0A
02216:  MOVWF  xC8
02218:  MOVLB  0
0221A:  RCALL  1C24
....................    Password[0]=read_eeprom(10); 
0221C:  MOVFF  FF2,3BD
02220:  BCF    FF2.6
02222:  BCF    FF2.7
02224:  CLRF   FAA
02226:  MOVLW  0A
02228:  MOVWF  FA9
0222A:  BCF    FA6.6
0222C:  BCF    FA6.7
0222E:  BSF    FA6.0
02230:  MOVF   FA8,W
02232:  MOVLB  3
02234:  BTFSC  xBD.6
02236:  BSF    FF2.6
02238:  BTFSC  xBD.7
0223A:  BSF    FF2.7
0223C:  MOVWF  x99
....................    delay_ms(10); 
0223E:  MOVLW  0A
02240:  MOVWF  xC8
02242:  MOVLB  0
02244:  RCALL  1C24
....................    Password[1]=read_eeprom(11); 
02246:  MOVFF  FF2,3BD
0224A:  BCF    FF2.6
0224C:  BCF    FF2.7
0224E:  CLRF   FAA
02250:  MOVLW  0B
02252:  MOVWF  FA9
02254:  BCF    FA6.6
02256:  BCF    FA6.7
02258:  BSF    FA6.0
0225A:  MOVF   FA8,W
0225C:  MOVLB  3
0225E:  BTFSC  xBD.6
02260:  BSF    FF2.6
02262:  BTFSC  xBD.7
02264:  BSF    FF2.7
02266:  MOVWF  x9A
....................    delay_ms(10); 
02268:  MOVLW  0A
0226A:  MOVWF  xC8
0226C:  MOVLB  0
0226E:  RCALL  1C24
....................    Password[2]=read_eeprom(12); 
02270:  MOVFF  FF2,3BD
02274:  BCF    FF2.6
02276:  BCF    FF2.7
02278:  CLRF   FAA
0227A:  MOVLW  0C
0227C:  MOVWF  FA9
0227E:  BCF    FA6.6
02280:  BCF    FA6.7
02282:  BSF    FA6.0
02284:  MOVF   FA8,W
02286:  MOVLB  3
02288:  BTFSC  xBD.6
0228A:  BSF    FF2.6
0228C:  BTFSC  xBD.7
0228E:  BSF    FF2.7
02290:  MOVWF  x9B
....................    delay_ms(10); 
02292:  MOVLW  0A
02294:  MOVWF  xC8
02296:  MOVLB  0
02298:  RCALL  1C24
....................    Password[3]=read_eeprom(13); 
0229A:  MOVFF  FF2,3BD
0229E:  BCF    FF2.6
022A0:  BCF    FF2.7
022A2:  CLRF   FAA
022A4:  MOVLW  0D
022A6:  MOVWF  FA9
022A8:  BCF    FA6.6
022AA:  BCF    FA6.7
022AC:  BSF    FA6.0
022AE:  MOVF   FA8,W
022B0:  MOVLB  3
022B2:  BTFSC  xBD.6
022B4:  BSF    FF2.6
022B6:  BTFSC  xBD.7
022B8:  BSF    FF2.7
022BA:  MOVWF  x9C
....................    delay_ms(10); 
022BC:  MOVLW  0A
022BE:  MOVWF  xC8
022C0:  MOVLB  0
022C2:  RCALL  1C24
....................    Ganancia=read_eeprom(20); 
022C4:  MOVFF  FF2,3BD
022C8:  BCF    FF2.6
022CA:  BCF    FF2.7
022CC:  CLRF   FAA
022CE:  MOVLW  14
022D0:  MOVWF  FA9
022D2:  BCF    FA6.6
022D4:  BCF    FA6.7
022D6:  BSF    FA6.0
022D8:  MOVF   FA8,W
022DA:  MOVLB  3
022DC:  BTFSC  xBD.6
022DE:  BSF    FF2.6
022E0:  BTFSC  xBD.7
022E2:  BSF    FF2.7
022E4:  CLRF   xC9
022E6:  MOVWF  xC8
022E8:  MOVLB  0
022EA:  RCALL  1C4C
022EC:  MOVFF  03,33A
022F0:  MOVFF  02,339
022F4:  MOVFF  01,338
022F8:  MOVFF  00,337
....................    delay_ms(10); 
022FC:  MOVLW  0A
022FE:  MOVLB  3
02300:  MOVWF  xC8
02302:  MOVLB  0
02304:  RCALL  1C24
....................    Ajuste=read_eeprom(21); 
02306:  MOVFF  FF2,3BD
0230A:  BCF    FF2.6
0230C:  BCF    FF2.7
0230E:  CLRF   FAA
02310:  MOVLW  15
02312:  MOVWF  FA9
02314:  BCF    FA6.6
02316:  BCF    FA6.7
02318:  BSF    FA6.0
0231A:  MOVF   FA8,W
0231C:  MOVLB  3
0231E:  BTFSC  xBD.6
02320:  BSF    FF2.6
02322:  BTFSC  xBD.7
02324:  BSF    FF2.7
02326:  MOVWF  x0F
....................    delay_ms(10); 
02328:  MOVLW  0A
0232A:  MOVWF  xC8
0232C:  MOVLB  0
0232E:  RCALL  1C24
....................    Ajusten=read_eeprom(22); 
02330:  MOVFF  FF2,3BD
02334:  BCF    FF2.6
02336:  BCF    FF2.7
02338:  CLRF   FAA
0233A:  MOVLW  16
0233C:  MOVWF  FA9
0233E:  BCF    FA6.6
02340:  BCF    FA6.7
02342:  BSF    FA6.0
02344:  MOVF   FA8,W
02346:  MOVLB  3
02348:  BTFSC  xBD.6
0234A:  BSF    FF2.6
0234C:  BTFSC  xBD.7
0234E:  BSF    FF2.7
02350:  MOVWF  x10
....................    delay_ms(10); 
02352:  MOVLW  0A
02354:  MOVWF  xC8
02356:  MOVLB  0
02358:  RCALL  1C24
....................    //Desvio=read_eeprom(23); 
....................    MediaMovil=read_eeprom(24); 
0235A:  MOVFF  FF2,3BD
0235E:  BCF    FF2.6
02360:  BCF    FF2.7
02362:  CLRF   FAA
02364:  MOVLW  18
02366:  MOVWF  FA9
02368:  BCF    FA6.6
0236A:  BCF    FA6.7
0236C:  BSF    FA6.0
0236E:  MOVF   FA8,W
02370:  MOVLB  3
02372:  BTFSC  xBD.6
02374:  BSF    FF2.6
02376:  BTFSC  xBD.7
02378:  BSF    FF2.7
0237A:  MOVWF  x11
....................    delay_ms(10); 
0237C:  MOVLW  0A
0237E:  MOVWF  xC8
02380:  MOVLB  0
02382:  RCALL  1C24
....................    Tciclo=read_eeprom(25); 
02384:  MOVFF  FF2,3BD
02388:  BCF    FF2.6
0238A:  BCF    FF2.7
0238C:  CLRF   FAA
0238E:  MOVLW  19
02390:  MOVWF  FA9
02392:  BCF    FA6.6
02394:  BCF    FA6.7
02396:  BSF    FA6.0
02398:  MOVF   FA8,W
0239A:  MOVLB  3
0239C:  BTFSC  xBD.6
0239E:  BSF    FF2.6
023A0:  BTFSC  xBD.7
023A2:  BSF    FF2.7
023A4:  CLRF   xC9
023A6:  MOVWF  xC8
023A8:  MOVLB  0
023AA:  RCALL  1C4C
023AC:  MOVFF  03,322
023B0:  MOVFF  02,321
023B4:  MOVFF  01,320
023B8:  MOVFF  00,31F
....................    delay_ms(10); 
023BC:  MOVLW  0A
023BE:  MOVLB  3
023C0:  MOVWF  xC8
023C2:  MOVLB  0
023C4:  RCALL  1C24
....................    Integral=read_eeprom(26); 
023C6:  MOVFF  FF2,3BD
023CA:  BCF    FF2.6
023CC:  BCF    FF2.7
023CE:  CLRF   FAA
023D0:  MOVLW  1A
023D2:  MOVWF  FA9
023D4:  BCF    FA6.6
023D6:  BCF    FA6.7
023D8:  BSF    FA6.0
023DA:  MOVF   FA8,W
023DC:  MOVLB  3
023DE:  BTFSC  xBD.6
023E0:  BSF    FF2.6
023E2:  BTFSC  xBD.7
023E4:  BSF    FF2.7
023E6:  MOVWF  x67
....................    delay_ms(10); 
023E8:  MOVLW  0A
023EA:  MOVWF  xC8
023EC:  MOVLB  0
023EE:  RCALL  1C24
....................    Derivativo=read_eeprom(27); 
023F0:  MOVFF  FF2,3BD
023F4:  BCF    FF2.6
023F6:  BCF    FF2.7
023F8:  CLRF   FAA
023FA:  MOVLW  1B
023FC:  MOVWF  FA9
023FE:  BCF    FA6.6
02400:  BCF    FA6.7
02402:  BSF    FA6.0
02404:  MOVF   FA8,W
02406:  MOVLB  3
02408:  BTFSC  xBD.6
0240A:  BSF    FF2.6
0240C:  BTFSC  xBD.7
0240E:  BSF    FF2.7
02410:  MOVWF  x68
....................    delay_ms(10); 
02412:  MOVLW  0A
02414:  MOVWF  xC8
02416:  MOVLB  0
02418:  RCALL  1C24
....................    Temporal=read_eeprom(29); 
0241A:  MOVFF  FF2,3BD
0241E:  BCF    FF2.6
02420:  BCF    FF2.7
02422:  CLRF   FAA
02424:  MOVLW  1D
02426:  MOVWF  FA9
02428:  BCF    FA6.6
0242A:  BCF    FA6.7
0242C:  BSF    FA6.0
0242E:  MOVF   FA8,W
02430:  MOVLB  3
02432:  BTFSC  xBD.6
02434:  BSF    FF2.6
02436:  BTFSC  xBD.7
02438:  BSF    FF2.7
0243A:  CLRF   xC9
0243C:  MOVWF  xC8
0243E:  MOVLB  0
02440:  RCALL  1C4C
02442:  MOVFF  03,2DC
02446:  MOVFF  02,2DB
0244A:  MOVFF  01,2DA
0244E:  MOVFF  00,2D9
....................    Temporal=Temporal/10.0; 
02452:  MOVFF  2DC,3C5
02456:  MOVFF  2DB,3C4
0245A:  MOVFF  2DA,3C3
0245E:  MOVFF  2D9,3C2
02462:  MOVLB  3
02464:  CLRF   xC9
02466:  CLRF   xC8
02468:  MOVLW  20
0246A:  MOVWF  xC7
0246C:  MOVLW  82
0246E:  MOVWF  xC6
02470:  MOVLB  0
02472:  RCALL  1C82
02474:  MOVFF  03,2DC
02478:  MOVFF  02,2DB
0247C:  MOVFF  01,2DA
02480:  MOVFF  00,2D9
....................    delay_ms(10); 
02484:  MOVLW  0A
02486:  MOVLB  3
02488:  MOVWF  xC8
0248A:  MOVLB  0
0248C:  CALL   1C24
....................    Gain=read_eeprom(28)+Temporal; 
02490:  MOVFF  FF2,3BD
02494:  BCF    FF2.6
02496:  BCF    FF2.7
02498:  CLRF   FAA
0249A:  MOVLW  1C
0249C:  MOVWF  FA9
0249E:  BCF    FA6.6
024A0:  BCF    FA6.7
024A2:  BSF    FA6.0
024A4:  MOVF   FA8,W
024A6:  MOVLB  3
024A8:  BTFSC  xBD.6
024AA:  BSF    FF2.6
024AC:  BTFSC  xBD.7
024AE:  BSF    FF2.7
024B0:  CLRF   xC9
024B2:  MOVWF  xC8
024B4:  MOVLB  0
024B6:  CALL   1C4C
024BA:  BCF    FD8.1
024BC:  MOVFF  03,3CB
024C0:  MOVFF  02,3CA
024C4:  MOVFF  01,3C9
024C8:  MOVFF  00,3C8
024CC:  MOVFF  2DC,3CF
024D0:  MOVFF  2DB,3CE
024D4:  MOVFF  2DA,3CD
024D8:  MOVFF  2D9,3CC
024DC:  RCALL  1DE0
024DE:  MOVFF  03,2D4
024E2:  MOVFF  02,2D3
024E6:  MOVFF  01,2D2
024EA:  MOVFF  00,2D1
....................    delay_ms(10); 
024EE:  MOVLW  0A
024F0:  MOVLB  3
024F2:  MOVWF  xC8
024F4:  MOVLB  0
024F6:  CALL   1C24
....................    R1=make16(read_eeprom(31),read_eeprom(30)); 
024FA:  MOVFF  FF2,3BD
024FE:  BCF    FF2.6
02500:  BCF    FF2.7
02502:  CLRF   FAA
02504:  MOVLW  1F
02506:  MOVWF  FA9
02508:  BCF    FA6.6
0250A:  BCF    FA6.7
0250C:  BSF    FA6.0
0250E:  MOVF   FA8,W
02510:  MOVLB  3
02512:  BTFSC  xBD.6
02514:  BSF    FF2.6
02516:  BTFSC  xBD.7
02518:  BSF    FF2.7
0251A:  MOVWF  xBE
0251C:  MOVFF  FF2,3BF
02520:  BCF    FF2.6
02522:  BCF    FF2.7
02524:  CLRF   FAA
02526:  MOVLW  1E
02528:  MOVWF  FA9
0252A:  BCF    FA6.6
0252C:  BCF    FA6.7
0252E:  BSF    FA6.0
02530:  MOVF   FA8,W
02532:  BTFSC  xBF.6
02534:  BSF    FF2.6
02536:  BTFSC  xBF.7
02538:  BSF    FF2.7
0253A:  MOVWF  xC0
0253C:  MOVFF  3BE,03
02540:  MOVF   xC0,W
02542:  MOVWF  xC8
02544:  MOVFF  03,3C9
02548:  MOVLB  0
0254A:  CALL   1C4C
0254E:  MOVFF  03,2E0
02552:  MOVFF  02,2DF
02556:  MOVFF  01,2DE
0255A:  MOVFF  00,2DD
....................    delay_ms(10); 
0255E:  MOVLW  0A
02560:  MOVLB  3
02562:  MOVWF  xC8
02564:  MOVLB  0
02566:  CALL   1C24
....................    Temporal=read_eeprom(33); 
0256A:  MOVFF  FF2,3BD
0256E:  BCF    FF2.6
02570:  BCF    FF2.7
02572:  CLRF   FAA
02574:  MOVLW  21
02576:  MOVWF  FA9
02578:  BCF    FA6.6
0257A:  BCF    FA6.7
0257C:  BSF    FA6.0
0257E:  MOVF   FA8,W
02580:  MOVLB  3
02582:  BTFSC  xBD.6
02584:  BSF    FF2.6
02586:  BTFSC  xBD.7
02588:  BSF    FF2.7
0258A:  CLRF   xC9
0258C:  MOVWF  xC8
0258E:  MOVLB  0
02590:  CALL   1C4C
02594:  MOVFF  03,2DC
02598:  MOVFF  02,2DB
0259C:  MOVFF  01,2DA
025A0:  MOVFF  00,2D9
....................    Temporal=Temporal/10.0; 
025A4:  MOVFF  2DC,3C5
025A8:  MOVFF  2DB,3C4
025AC:  MOVFF  2DA,3C3
025B0:  MOVFF  2D9,3C2
025B4:  MOVLB  3
025B6:  CLRF   xC9
025B8:  CLRF   xC8
025BA:  MOVLW  20
025BC:  MOVWF  xC7
025BE:  MOVLW  82
025C0:  MOVWF  xC6
025C2:  MOVLB  0
025C4:  CALL   1C82
025C8:  MOVFF  03,2DC
025CC:  MOVFF  02,2DB
025D0:  MOVFF  01,2DA
025D4:  MOVFF  00,2D9
....................    delay_ms(10); 
025D8:  MOVLW  0A
025DA:  MOVLB  3
025DC:  MOVWF  xC8
025DE:  MOVLB  0
025E0:  CALL   1C24
....................    RPT100=read_eeprom(32)+Temporal; 
025E4:  MOVFF  FF2,3BD
025E8:  BCF    FF2.6
025EA:  BCF    FF2.7
025EC:  CLRF   FAA
025EE:  MOVLW  20
025F0:  MOVWF  FA9
025F2:  BCF    FA6.6
025F4:  BCF    FA6.7
025F6:  BSF    FA6.0
025F8:  MOVF   FA8,W
025FA:  MOVLB  3
025FC:  BTFSC  xBD.6
025FE:  BSF    FF2.6
02600:  BTFSC  xBD.7
02602:  BSF    FF2.7
02604:  CLRF   xC9
02606:  MOVWF  xC8
02608:  MOVLB  0
0260A:  CALL   1C4C
0260E:  BCF    FD8.1
02610:  MOVFF  03,3CB
02614:  MOVFF  02,3CA
02618:  MOVFF  01,3C9
0261C:  MOVFF  00,3C8
02620:  MOVFF  2DC,3CF
02624:  MOVFF  2DB,3CE
02628:  MOVFF  2DA,3CD
0262C:  MOVFF  2D9,3CC
02630:  CALL   1DE0
02634:  MOVFF  03,2D8
02638:  MOVFF  02,2D7
0263C:  MOVFF  01,2D6
02640:  MOVFF  00,2D5
....................    delay_ms(10); 
02644:  MOVLW  0A
02646:  MOVLB  3
02648:  MOVWF  xC8
0264A:  MOVLB  0
0264C:  CALL   1C24
....................    CiclosL=read_eeprom(37); 
02650:  MOVFF  FF2,3BD
02654:  BCF    FF2.6
02656:  BCF    FF2.7
02658:  CLRF   FAA
0265A:  MOVLW  25
0265C:  MOVWF  FA9
0265E:  BCF    FA6.6
02660:  BCF    FA6.7
02662:  BSF    FA6.0
02664:  MOVF   FA8,W
02666:  MOVLB  3
02668:  BTFSC  xBD.6
0266A:  BSF    FF2.6
0266C:  BTFSC  xBD.7
0266E:  BSF    FF2.7
02670:  MOVWF  x78
....................    delay_ms(10); 
02672:  MOVLW  0A
02674:  MOVWF  xC8
02676:  MOVLB  0
02678:  CALL   1C24
....................    CiclosH=read_eeprom(38); 
0267C:  MOVFF  FF2,3BD
02680:  BCF    FF2.6
02682:  BCF    FF2.7
02684:  CLRF   FAA
02686:  MOVLW  26
02688:  MOVWF  FA9
0268A:  BCF    FA6.6
0268C:  BCF    FA6.7
0268E:  BSF    FA6.0
02690:  MOVF   FA8,W
02692:  MOVLB  3
02694:  BTFSC  xBD.6
02696:  BSF    FF2.6
02698:  BTFSC  xBD.7
0269A:  BSF    FF2.7
0269C:  MOVWF  x79
....................    delay_ms(10); 
0269E:  MOVLW  0A
026A0:  MOVWF  xC8
026A2:  MOVLB  0
026A4:  CALL   1C24
....................    Ciclos=make16(CiclosH,CiclosL); 
026A8:  MOVFF  379,392
026AC:  MOVFF  378,391
....................    delay_ms(10); 
026B0:  MOVLW  0A
026B2:  MOVLB  3
026B4:  MOVWF  xC8
026B6:  MOVLB  0
026B8:  CALL   1C24
....................    TTrampa=read_eeprom(39); 
026BC:  MOVFF  FF2,3BD
026C0:  BCF    FF2.6
026C2:  BCF    FF2.7
026C4:  CLRF   FAA
026C6:  MOVLW  27
026C8:  MOVWF  FA9
026CA:  BCF    FA6.6
026CC:  BCF    FA6.7
026CE:  BSF    FA6.0
026D0:  MOVF   FA8,W
026D2:  MOVLB  3
026D4:  BTFSC  xBD.6
026D6:  BSF    FF2.6
026D8:  BTFSC  xBD.7
026DA:  BSF    FF2.7
026DC:  MOVWF  x12
....................    delay_ms(10); 
026DE:  MOVLW  0A
026E0:  MOVWF  xC8
026E2:  MOVLB  0
026E4:  CALL   1C24
....................    ActivaImpresion=read_eeprom(40); 
026E8:  MOVFF  FF2,3BD
026EC:  BCF    FF2.6
026EE:  BCF    FF2.7
026F0:  CLRF   FAA
026F2:  MOVLW  28
026F4:  MOVWF  FA9
026F6:  BCF    FA6.6
026F8:  BCF    FA6.7
026FA:  BSF    FA6.0
026FC:  MOVF   FA8,W
026FE:  MOVLB  3
02700:  BTFSC  xBD.6
02702:  BSF    FF2.6
02704:  BTFSC  xBD.7
02706:  BSF    FF2.7
02708:  MOVWF  x6C
....................    delay_ms(10); 
0270A:  MOVLW  0A
0270C:  MOVWF  xC8
0270E:  MOVLB  0
02710:  CALL   1C24
....................    timpresion=read_eeprom(41); 
02714:  MOVFF  FF2,3BD
02718:  BCF    FF2.6
0271A:  BCF    FF2.7
0271C:  CLRF   FAA
0271E:  MOVLW  29
02720:  MOVWF  FA9
02722:  BCF    FA6.6
02724:  BCF    FA6.7
02726:  BSF    FA6.0
02728:  MOVF   FA8,W
0272A:  MOVLB  3
0272C:  BTFSC  xBD.6
0272E:  BSF    FF2.6
02730:  BTFSC  xBD.7
02732:  BSF    FF2.7
02734:  MOVWF  x6D
....................    delay_ms(10); 
02736:  MOVLW  0A
02738:  MOVWF  xC8
0273A:  MOVLB  0
0273C:  CALL   1C24
....................    G1=read_eeprom(42); 
02740:  MOVFF  FF2,3BD
02744:  BCF    FF2.6
02746:  BCF    FF2.7
02748:  CLRF   FAA
0274A:  MOVLW  2A
0274C:  MOVWF  FA9
0274E:  BCF    FA6.6
02750:  BCF    FA6.7
02752:  BSF    FA6.0
02754:  MOVF   FA8,W
02756:  MOVLB  3
02758:  BTFSC  xBD.6
0275A:  BSF    FF2.6
0275C:  BTFSC  xBD.7
0275E:  BSF    FF2.7
02760:  MOVWF  xB9
....................    delay_ms(10); 
02762:  MOVLW  0A
02764:  MOVWF  xC8
02766:  MOVLB  0
02768:  CALL   1C24
....................    G2=read_eeprom(43); 
0276C:  MOVFF  FF2,3BD
02770:  BCF    FF2.6
02772:  BCF    FF2.7
02774:  CLRF   FAA
02776:  MOVLW  2B
02778:  MOVWF  FA9
0277A:  BCF    FA6.6
0277C:  BCF    FA6.7
0277E:  BSF    FA6.0
02780:  MOVF   FA8,W
02782:  MOVLB  3
02784:  BTFSC  xBD.6
02786:  BSF    FF2.6
02788:  BTFSC  xBD.7
0278A:  BSF    FF2.7
0278C:  MOVWF  xBA
....................    delay_ms(10); 
0278E:  MOVLW  0A
02790:  MOVWF  xC8
02792:  MOVLB  0
02794:  CALL   1C24
....................    sg1=read_eeprom(44); 
02798:  MOVFF  FF2,3BD
0279C:  BCF    FF2.6
0279E:  BCF    FF2.7
027A0:  CLRF   FAA
027A2:  MOVLW  2C
027A4:  MOVWF  FA9
027A6:  BCF    FA6.6
027A8:  BCF    FA6.7
027AA:  BSF    FA6.0
027AC:  MOVF   FA8,W
027AE:  MOVLB  3
027B0:  BTFSC  xBD.6
027B2:  BSF    FF2.6
027B4:  BTFSC  xBD.7
027B6:  BSF    FF2.7
027B8:  MOVWF  xBB
....................    delay_ms(10); 
027BA:  MOVLW  0A
027BC:  MOVWF  xC8
027BE:  MOVLB  0
027C0:  CALL   1C24
....................    sg2=read_eeprom(45); 
027C4:  MOVFF  FF2,3BD
027C8:  BCF    FF2.6
027CA:  BCF    FF2.7
027CC:  CLRF   FAA
027CE:  MOVLW  2D
027D0:  MOVWF  FA9
027D2:  BCF    FA6.6
027D4:  BCF    FA6.7
027D6:  BSF    FA6.0
027D8:  MOVF   FA8,W
027DA:  MOVLB  3
027DC:  BTFSC  xBD.6
027DE:  BSF    FF2.6
027E0:  BTFSC  xBD.7
027E2:  BSF    FF2.7
027E4:  MOVWF  xBC
....................    delay_ms(10); 
027E6:  MOVLW  0A
027E8:  MOVWF  xC8
027EA:  MOVLB  0
027EC:  CALL   1C24
....................    openEsteril=read_eeprom(46); 
027F0:  MOVFF  FF2,3BD
027F4:  BCF    FF2.6
027F6:  BCF    FF2.7
027F8:  CLRF   FAA
027FA:  MOVLW  2E
027FC:  MOVWF  FA9
027FE:  BCF    FA6.6
02800:  BCF    FA6.7
02802:  BSF    FA6.0
02804:  MOVF   FA8,W
02806:  MOVLB  3
02808:  BTFSC  xBD.6
0280A:  BSF    FF2.6
0280C:  BTFSC  xBD.7
0280E:  BSF    FF2.7
02810:  MOVLB  0
02812:  MOVWF  xCF
....................    delay_ms(10); 
02814:  MOVLW  0A
02816:  MOVLB  3
02818:  MOVWF  xC8
0281A:  MOVLB  0
0281C:  CALL   1C24
....................    openContaminado=read_eeprom(47); 
02820:  MOVFF  FF2,3BD
02824:  BCF    FF2.6
02826:  BCF    FF2.7
02828:  CLRF   FAA
0282A:  MOVLW  2F
0282C:  MOVWF  FA9
0282E:  BCF    FA6.6
02830:  BCF    FA6.7
02832:  BSF    FA6.0
02834:  MOVF   FA8,W
02836:  MOVLB  3
02838:  BTFSC  xBD.6
0283A:  BSF    FF2.6
0283C:  BTFSC  xBD.7
0283E:  BSF    FF2.7
02840:  MOVLB  0
02842:  MOVWF  xD0
....................    delay_ms(10); 
02844:  MOVLW  0A
02846:  MOVLB  3
02848:  MOVWF  xC8
0284A:  MOVLB  0
0284C:  CALL   1C24
....................    esterilizo=read_eeprom(48); 
02850:  MOVFF  FF2,3BD
02854:  BCF    FF2.6
02856:  BCF    FF2.7
02858:  CLRF   FAA
0285A:  MOVLW  30
0285C:  MOVWF  FA9
0285E:  BCF    FA6.6
02860:  BCF    FA6.7
02862:  BSF    FA6.0
02864:  MOVF   FA8,W
02866:  MOVLB  3
02868:  BTFSC  xBD.6
0286A:  BSF    FF2.6
0286C:  BTFSC  xBD.7
0286E:  BSF    FF2.7
02870:  MOVLB  0
02872:  MOVWF  xD1
.................... } 
02874:  GOTO   5A82 (RETURN)
....................  
.................... void LimitaValores(){ 
....................    if(Testerilizacionp[0]>9 || Testerilizacionp[0]<0){ 
*
02A26:  BTFSC  xE5.7
02A28:  BRA    2A30
02A2A:  MOVF   xE5,W
02A2C:  SUBLW  09
02A2E:  BNC   2A36
02A30:  BTFSC  xE5.7
02A32:  BRA    2A36
02A34:  BRA    2A6E
....................       Testerilizacionp[0]=0; 
02A36:  CLRF   xE5
....................       write_eeprom(0,0); 
02A38:  CLRF   FAA
02A3A:  CLRF   FA9
02A3C:  CLRF   FA8
02A3E:  BCF    FA6.6
02A40:  BCF    FA6.7
02A42:  BSF    FA6.2
02A44:  MOVF   FF2,W
02A46:  MOVWF  00
02A48:  BCF    FF2.6
02A4A:  BCF    FF2.7
02A4C:  MOVLB  F
02A4E:  MOVLW  55
02A50:  MOVWF  FA7
02A52:  MOVLW  AA
02A54:  MOVWF  FA7
02A56:  BSF    FA6.1
02A58:  BTFSC  FA6.1
02A5A:  BRA    2A58
02A5C:  BCF    FA6.2
02A5E:  MOVF   00,W
02A60:  IORWF  FF2,F
....................       delay_ms(10); 
02A62:  MOVLW  0A
02A64:  MOVLB  3
02A66:  MOVWF  xC8
02A68:  MOVLB  0
02A6A:  CALL   1C24
....................    } 
....................    if(Testerilizacionp[1]>9 || Testerilizacionp[1]<0){ 
02A6E:  BTFSC  xE6.7
02A70:  BRA    2A78
02A72:  MOVF   xE6,W
02A74:  SUBLW  09
02A76:  BNC   2A7E
02A78:  BTFSC  xE6.7
02A7A:  BRA    2A7E
02A7C:  BRA    2AB8
....................       Testerilizacionp[1]=0; 
02A7E:  CLRF   xE6
....................       write_eeprom(1,0); 
02A80:  CLRF   FAA
02A82:  MOVLW  01
02A84:  MOVWF  FA9
02A86:  CLRF   FA8
02A88:  BCF    FA6.6
02A8A:  BCF    FA6.7
02A8C:  BSF    FA6.2
02A8E:  MOVF   FF2,W
02A90:  MOVWF  00
02A92:  BCF    FF2.6
02A94:  BCF    FF2.7
02A96:  MOVLB  F
02A98:  MOVLW  55
02A9A:  MOVWF  FA7
02A9C:  MOVLW  AA
02A9E:  MOVWF  FA7
02AA0:  BSF    FA6.1
02AA2:  BTFSC  FA6.1
02AA4:  BRA    2AA2
02AA6:  BCF    FA6.2
02AA8:  MOVF   00,W
02AAA:  IORWF  FF2,F
....................       delay_ms(10); 
02AAC:  MOVLW  0A
02AAE:  MOVLB  3
02AB0:  MOVWF  xC8
02AB2:  MOVLB  0
02AB4:  CALL   1C24
....................    } 
....................    if(Testerilizacionp[2]>9 || Testerilizacionp[2]<0){ 
02AB8:  BTFSC  xE7.7
02ABA:  BRA    2AC2
02ABC:  MOVF   xE7,W
02ABE:  SUBLW  09
02AC0:  BNC   2AC8
02AC2:  BTFSC  xE7.7
02AC4:  BRA    2AC8
02AC6:  BRA    2B02
....................       Testerilizacionp[2]=0; 
02AC8:  CLRF   xE7
....................       write_eeprom(2,0); 
02ACA:  CLRF   FAA
02ACC:  MOVLW  02
02ACE:  MOVWF  FA9
02AD0:  CLRF   FA8
02AD2:  BCF    FA6.6
02AD4:  BCF    FA6.7
02AD6:  BSF    FA6.2
02AD8:  MOVF   FF2,W
02ADA:  MOVWF  00
02ADC:  BCF    FF2.6
02ADE:  BCF    FF2.7
02AE0:  MOVLB  F
02AE2:  MOVLW  55
02AE4:  MOVWF  FA7
02AE6:  MOVLW  AA
02AE8:  MOVWF  FA7
02AEA:  BSF    FA6.1
02AEC:  BTFSC  FA6.1
02AEE:  BRA    2AEC
02AF0:  BCF    FA6.2
02AF2:  MOVF   00,W
02AF4:  IORWF  FF2,F
....................       delay_ms(10); 
02AF6:  MOVLW  0A
02AF8:  MOVLB  3
02AFA:  MOVWF  xC8
02AFC:  MOVLB  0
02AFE:  CALL   1C24
....................    } 
....................    if(Testerilizacionp[3]>9 || Testerilizacionp[3]<0){ 
02B02:  BTFSC  xE8.7
02B04:  BRA    2B0C
02B06:  MOVF   xE8,W
02B08:  SUBLW  09
02B0A:  BNC   2B12
02B0C:  BTFSC  xE8.7
02B0E:  BRA    2B12
02B10:  BRA    2B4C
....................       Testerilizacionp[3]=0; 
02B12:  CLRF   xE8
....................       write_eeprom(3,0); 
02B14:  CLRF   FAA
02B16:  MOVLW  03
02B18:  MOVWF  FA9
02B1A:  CLRF   FA8
02B1C:  BCF    FA6.6
02B1E:  BCF    FA6.7
02B20:  BSF    FA6.2
02B22:  MOVF   FF2,W
02B24:  MOVWF  00
02B26:  BCF    FF2.6
02B28:  BCF    FF2.7
02B2A:  MOVLB  F
02B2C:  MOVLW  55
02B2E:  MOVWF  FA7
02B30:  MOVLW  AA
02B32:  MOVWF  FA7
02B34:  BSF    FA6.1
02B36:  BTFSC  FA6.1
02B38:  BRA    2B36
02B3A:  BCF    FA6.2
02B3C:  MOVF   00,W
02B3E:  IORWF  FF2,F
....................       delay_ms(10); 
02B40:  MOVLW  0A
02B42:  MOVLB  3
02B44:  MOVWF  xC8
02B46:  MOVLB  0
02B48:  CALL   1C24
....................    } 
....................    if(Tsecadop[0]>9 || Tsecadop[0]<0){ 
02B4C:  BTFSC  xED.7
02B4E:  BRA    2B56
02B50:  MOVF   xED,W
02B52:  SUBLW  09
02B54:  BNC   2B5C
02B56:  BTFSC  xED.7
02B58:  BRA    2B5C
02B5A:  BRA    2B96
....................       Tsecadop[0]=0; 
02B5C:  CLRF   xED
....................       write_eeprom(4,0); 
02B5E:  CLRF   FAA
02B60:  MOVLW  04
02B62:  MOVWF  FA9
02B64:  CLRF   FA8
02B66:  BCF    FA6.6
02B68:  BCF    FA6.7
02B6A:  BSF    FA6.2
02B6C:  MOVF   FF2,W
02B6E:  MOVWF  00
02B70:  BCF    FF2.6
02B72:  BCF    FF2.7
02B74:  MOVLB  F
02B76:  MOVLW  55
02B78:  MOVWF  FA7
02B7A:  MOVLW  AA
02B7C:  MOVWF  FA7
02B7E:  BSF    FA6.1
02B80:  BTFSC  FA6.1
02B82:  BRA    2B80
02B84:  BCF    FA6.2
02B86:  MOVF   00,W
02B88:  IORWF  FF2,F
....................       delay_ms(10); 
02B8A:  MOVLW  0A
02B8C:  MOVLB  3
02B8E:  MOVWF  xC8
02B90:  MOVLB  0
02B92:  CALL   1C24
....................    } 
....................    if(Tsecadop[1]>9 || Tsecadop[1]<0){ 
02B96:  BTFSC  xEE.7
02B98:  BRA    2BA0
02B9A:  MOVF   xEE,W
02B9C:  SUBLW  09
02B9E:  BNC   2BA6
02BA0:  BTFSC  xEE.7
02BA2:  BRA    2BA6
02BA4:  BRA    2BE0
....................       Tsecadop[1]=0; 
02BA6:  CLRF   xEE
....................       write_eeprom(5,0); 
02BA8:  CLRF   FAA
02BAA:  MOVLW  05
02BAC:  MOVWF  FA9
02BAE:  CLRF   FA8
02BB0:  BCF    FA6.6
02BB2:  BCF    FA6.7
02BB4:  BSF    FA6.2
02BB6:  MOVF   FF2,W
02BB8:  MOVWF  00
02BBA:  BCF    FF2.6
02BBC:  BCF    FF2.7
02BBE:  MOVLB  F
02BC0:  MOVLW  55
02BC2:  MOVWF  FA7
02BC4:  MOVLW  AA
02BC6:  MOVWF  FA7
02BC8:  BSF    FA6.1
02BCA:  BTFSC  FA6.1
02BCC:  BRA    2BCA
02BCE:  BCF    FA6.2
02BD0:  MOVF   00,W
02BD2:  IORWF  FF2,F
....................       delay_ms(10); 
02BD4:  MOVLW  0A
02BD6:  MOVLB  3
02BD8:  MOVWF  xC8
02BDA:  MOVLB  0
02BDC:  CALL   1C24
....................    } 
....................    if(Tsecadop[2]>9 || Tsecadop[2]<0){ 
02BE0:  BTFSC  xEF.7
02BE2:  BRA    2BEA
02BE4:  MOVF   xEF,W
02BE6:  SUBLW  09
02BE8:  BNC   2BF0
02BEA:  BTFSC  xEF.7
02BEC:  BRA    2BF0
02BEE:  BRA    2C2A
....................       Tsecadop[2]=0; 
02BF0:  CLRF   xEF
....................       write_eeprom(6,0); 
02BF2:  CLRF   FAA
02BF4:  MOVLW  06
02BF6:  MOVWF  FA9
02BF8:  CLRF   FA8
02BFA:  BCF    FA6.6
02BFC:  BCF    FA6.7
02BFE:  BSF    FA6.2
02C00:  MOVF   FF2,W
02C02:  MOVWF  00
02C04:  BCF    FF2.6
02C06:  BCF    FF2.7
02C08:  MOVLB  F
02C0A:  MOVLW  55
02C0C:  MOVWF  FA7
02C0E:  MOVLW  AA
02C10:  MOVWF  FA7
02C12:  BSF    FA6.1
02C14:  BTFSC  FA6.1
02C16:  BRA    2C14
02C18:  BCF    FA6.2
02C1A:  MOVF   00,W
02C1C:  IORWF  FF2,F
....................       delay_ms(10); 
02C1E:  MOVLW  0A
02C20:  MOVLB  3
02C22:  MOVWF  xC8
02C24:  MOVLB  0
02C26:  CALL   1C24
....................    } 
....................    if(Tsecadop[3]>9 || Tsecadop[3]<0){ 
02C2A:  BTFSC  xF0.7
02C2C:  BRA    2C34
02C2E:  MOVF   xF0,W
02C30:  SUBLW  09
02C32:  BNC   2C3A
02C34:  BTFSC  xF0.7
02C36:  BRA    2C3A
02C38:  BRA    2C74
....................       Tsecadop[3]=0; 
02C3A:  CLRF   xF0
....................       write_eeprom(7,0); 
02C3C:  CLRF   FAA
02C3E:  MOVLW  07
02C40:  MOVWF  FA9
02C42:  CLRF   FA8
02C44:  BCF    FA6.6
02C46:  BCF    FA6.7
02C48:  BSF    FA6.2
02C4A:  MOVF   FF2,W
02C4C:  MOVWF  00
02C4E:  BCF    FF2.6
02C50:  BCF    FF2.7
02C52:  MOVLB  F
02C54:  MOVLW  55
02C56:  MOVWF  FA7
02C58:  MOVLW  AA
02C5A:  MOVWF  FA7
02C5C:  BSF    FA6.1
02C5E:  BTFSC  FA6.1
02C60:  BRA    2C5E
02C62:  BCF    FA6.2
02C64:  MOVF   00,W
02C66:  IORWF  FF2,F
....................       delay_ms(10); 
02C68:  MOVLW  0A
02C6A:  MOVLB  3
02C6C:  MOVWF  xC8
02C6E:  MOVLB  0
02C70:  CALL   1C24
....................    } 
....................    if(Setpoint>134){ 
02C74:  MOVLB  3
02C76:  MOVF   x7B,W
02C78:  SUBLW  86
02C7A:  BC    2CBC
....................       Setpoint=121; 
02C7C:  MOVLW  79
02C7E:  MOVWF  x7B
....................       write_eeprom(8,121); 
02C80:  CLRF   FAA
02C82:  MOVLW  08
02C84:  MOVWF  FA9
02C86:  MOVLW  79
02C88:  MOVWF  FA8
02C8A:  BCF    FA6.6
02C8C:  BCF    FA6.7
02C8E:  BSF    FA6.2
02C90:  MOVF   FF2,W
02C92:  MOVWF  00
02C94:  BCF    FF2.6
02C96:  BCF    FF2.7
02C98:  MOVLB  F
02C9A:  MOVLW  55
02C9C:  MOVWF  FA7
02C9E:  MOVLW  AA
02CA0:  MOVWF  FA7
02CA2:  BSF    FA6.1
02CA4:  BTFSC  FA6.1
02CA6:  BRA    2CA4
02CA8:  BCF    FA6.2
02CAA:  MOVF   00,W
02CAC:  IORWF  FF2,F
....................       delay_ms(10); 
02CAE:  MOVLW  0A
02CB0:  MOVLB  3
02CB2:  MOVWF  xC8
02CB4:  MOVLB  0
02CB6:  CALL   1C24
02CBA:  MOVLB  3
....................    } 
....................    if(Nivel>6){ 
02CBC:  MOVF   x8A,F
02CBE:  BNZ   2CC6
02CC0:  MOVF   x89,W
02CC2:  SUBLW  06
02CC4:  BC    2D08
....................       Nivel=3; 
02CC6:  CLRF   x8A
02CC8:  MOVLW  03
02CCA:  MOVWF  x89
....................       write_eeprom(9,3); 
02CCC:  CLRF   FAA
02CCE:  MOVLW  09
02CD0:  MOVWF  FA9
02CD2:  MOVLW  03
02CD4:  MOVWF  FA8
02CD6:  BCF    FA6.6
02CD8:  BCF    FA6.7
02CDA:  BSF    FA6.2
02CDC:  MOVF   FF2,W
02CDE:  MOVWF  00
02CE0:  BCF    FF2.6
02CE2:  BCF    FF2.7
02CE4:  MOVLB  F
02CE6:  MOVLW  55
02CE8:  MOVWF  FA7
02CEA:  MOVLW  AA
02CEC:  MOVWF  FA7
02CEE:  BSF    FA6.1
02CF0:  BTFSC  FA6.1
02CF2:  BRA    2CF0
02CF4:  BCF    FA6.2
02CF6:  MOVF   00,W
02CF8:  IORWF  FF2,F
....................       delay_ms(10); 
02CFA:  MOVLW  0A
02CFC:  MOVLB  3
02CFE:  MOVWF  xC8
02D00:  MOVLB  0
02D02:  CALL   1C24
02D06:  MOVLB  3
....................    } 
....................    if(Password[0]>9 || Password[0]<0){ 
02D08:  BTFSC  x99.7
02D0A:  BRA    2D12
02D0C:  MOVF   x99,W
02D0E:  SUBLW  09
02D10:  BNC   2D18
02D12:  BTFSC  x99.7
02D14:  BRA    2D18
02D16:  BRA    2D54
....................       Password[0]=0; 
02D18:  CLRF   x99
....................       write_eeprom(10,0); 
02D1A:  CLRF   FAA
02D1C:  MOVLW  0A
02D1E:  MOVWF  FA9
02D20:  CLRF   FA8
02D22:  BCF    FA6.6
02D24:  BCF    FA6.7
02D26:  BSF    FA6.2
02D28:  MOVF   FF2,W
02D2A:  MOVWF  00
02D2C:  BCF    FF2.6
02D2E:  BCF    FF2.7
02D30:  MOVLB  F
02D32:  MOVLW  55
02D34:  MOVWF  FA7
02D36:  MOVLW  AA
02D38:  MOVWF  FA7
02D3A:  BSF    FA6.1
02D3C:  BTFSC  FA6.1
02D3E:  BRA    2D3C
02D40:  BCF    FA6.2
02D42:  MOVF   00,W
02D44:  IORWF  FF2,F
....................       delay_ms(10); 
02D46:  MOVLW  0A
02D48:  MOVLB  3
02D4A:  MOVWF  xC8
02D4C:  MOVLB  0
02D4E:  CALL   1C24
02D52:  MOVLB  3
....................    } 
....................    if(Password[1]>9 || Password[1]<0){ 
02D54:  BTFSC  x9A.7
02D56:  BRA    2D5E
02D58:  MOVF   x9A,W
02D5A:  SUBLW  09
02D5C:  BNC   2D64
02D5E:  BTFSC  x9A.7
02D60:  BRA    2D64
02D62:  BRA    2DA0
....................       Password[1]=0; 
02D64:  CLRF   x9A
....................       write_eeprom(11,0); 
02D66:  CLRF   FAA
02D68:  MOVLW  0B
02D6A:  MOVWF  FA9
02D6C:  CLRF   FA8
02D6E:  BCF    FA6.6
02D70:  BCF    FA6.7
02D72:  BSF    FA6.2
02D74:  MOVF   FF2,W
02D76:  MOVWF  00
02D78:  BCF    FF2.6
02D7A:  BCF    FF2.7
02D7C:  MOVLB  F
02D7E:  MOVLW  55
02D80:  MOVWF  FA7
02D82:  MOVLW  AA
02D84:  MOVWF  FA7
02D86:  BSF    FA6.1
02D88:  BTFSC  FA6.1
02D8A:  BRA    2D88
02D8C:  BCF    FA6.2
02D8E:  MOVF   00,W
02D90:  IORWF  FF2,F
....................       delay_ms(10); 
02D92:  MOVLW  0A
02D94:  MOVLB  3
02D96:  MOVWF  xC8
02D98:  MOVLB  0
02D9A:  CALL   1C24
02D9E:  MOVLB  3
....................    } 
....................    if(Password[2]>9 || Password[2]<0){ 
02DA0:  BTFSC  x9B.7
02DA2:  BRA    2DAA
02DA4:  MOVF   x9B,W
02DA6:  SUBLW  09
02DA8:  BNC   2DB0
02DAA:  BTFSC  x9B.7
02DAC:  BRA    2DB0
02DAE:  BRA    2DEC
....................       Password[2]=0; 
02DB0:  CLRF   x9B
....................       write_eeprom(12,0); 
02DB2:  CLRF   FAA
02DB4:  MOVLW  0C
02DB6:  MOVWF  FA9
02DB8:  CLRF   FA8
02DBA:  BCF    FA6.6
02DBC:  BCF    FA6.7
02DBE:  BSF    FA6.2
02DC0:  MOVF   FF2,W
02DC2:  MOVWF  00
02DC4:  BCF    FF2.6
02DC6:  BCF    FF2.7
02DC8:  MOVLB  F
02DCA:  MOVLW  55
02DCC:  MOVWF  FA7
02DCE:  MOVLW  AA
02DD0:  MOVWF  FA7
02DD2:  BSF    FA6.1
02DD4:  BTFSC  FA6.1
02DD6:  BRA    2DD4
02DD8:  BCF    FA6.2
02DDA:  MOVF   00,W
02DDC:  IORWF  FF2,F
....................       delay_ms(10); 
02DDE:  MOVLW  0A
02DE0:  MOVLB  3
02DE2:  MOVWF  xC8
02DE4:  MOVLB  0
02DE6:  CALL   1C24
02DEA:  MOVLB  3
....................    } 
....................    if(Password[3]>9 || Password[3]<0){ 
02DEC:  BTFSC  x9C.7
02DEE:  BRA    2DF6
02DF0:  MOVF   x9C,W
02DF2:  SUBLW  09
02DF4:  BNC   2DFC
02DF6:  BTFSC  x9C.7
02DF8:  BRA    2DFC
02DFA:  BRA    2E38
....................       Password[3]=0; 
02DFC:  CLRF   x9C
....................       write_eeprom(13,0); 
02DFE:  CLRF   FAA
02E00:  MOVLW  0D
02E02:  MOVWF  FA9
02E04:  CLRF   FA8
02E06:  BCF    FA6.6
02E08:  BCF    FA6.7
02E0A:  BSF    FA6.2
02E0C:  MOVF   FF2,W
02E0E:  MOVWF  00
02E10:  BCF    FF2.6
02E12:  BCF    FF2.7
02E14:  MOVLB  F
02E16:  MOVLW  55
02E18:  MOVWF  FA7
02E1A:  MOVLW  AA
02E1C:  MOVWF  FA7
02E1E:  BSF    FA6.1
02E20:  BTFSC  FA6.1
02E22:  BRA    2E20
02E24:  BCF    FA6.2
02E26:  MOVF   00,W
02E28:  IORWF  FF2,F
....................       delay_ms(10); 
02E2A:  MOVLW  0A
02E2C:  MOVLB  3
02E2E:  MOVWF  xC8
02E30:  MOVLB  0
02E32:  CALL   1C24
02E36:  MOVLB  3
....................    } 
....................    if(Ganancia>20.0){ 
02E38:  CLRF   xC4
02E3A:  CLRF   xC3
02E3C:  MOVLW  20
02E3E:  MOVWF  xC2
02E40:  MOVLW  83
02E42:  MOVWF  xC1
02E44:  MOVFF  33A,3C8
02E48:  MOVFF  339,3C7
02E4C:  MOVFF  338,3C6
02E50:  MOVFF  337,3C5
02E54:  MOVLB  0
02E56:  RCALL  295E
02E58:  BNC   2EA2
....................       Ganancia=15.0; 
02E5A:  MOVLB  3
02E5C:  CLRF   x3A
02E5E:  CLRF   x39
02E60:  MOVLW  70
02E62:  MOVWF  x38
02E64:  MOVLW  82
02E66:  MOVWF  x37
....................       write_eeprom(20,15); 
02E68:  CLRF   FAA
02E6A:  MOVLW  14
02E6C:  MOVWF  FA9
02E6E:  MOVLW  0F
02E70:  MOVWF  FA8
02E72:  BCF    FA6.6
02E74:  BCF    FA6.7
02E76:  BSF    FA6.2
02E78:  MOVF   FF2,W
02E7A:  MOVWF  00
02E7C:  BCF    FF2.6
02E7E:  BCF    FF2.7
02E80:  MOVLB  F
02E82:  MOVLW  55
02E84:  MOVWF  FA7
02E86:  MOVLW  AA
02E88:  MOVWF  FA7
02E8A:  BSF    FA6.1
02E8C:  BTFSC  FA6.1
02E8E:  BRA    2E8C
02E90:  BCF    FA6.2
02E92:  MOVF   00,W
02E94:  IORWF  FF2,F
....................       delay_ms(10); 
02E96:  MOVLW  0A
02E98:  MOVLB  3
02E9A:  MOVWF  xC8
02E9C:  MOVLB  0
02E9E:  CALL   1C24
....................    } 
....................    if(Ajuste>50){ 
02EA2:  MOVLB  3
02EA4:  MOVF   x0F,W
02EA6:  SUBLW  32
02EA8:  BC    2EE6
....................       Ajuste=0; 
02EAA:  CLRF   x0F
....................       write_eeprom(21,0); 
02EAC:  CLRF   FAA
02EAE:  MOVLW  15
02EB0:  MOVWF  FA9
02EB2:  CLRF   FA8
02EB4:  BCF    FA6.6
02EB6:  BCF    FA6.7
02EB8:  BSF    FA6.2
02EBA:  MOVF   FF2,W
02EBC:  MOVWF  00
02EBE:  BCF    FF2.6
02EC0:  BCF    FF2.7
02EC2:  MOVLB  F
02EC4:  MOVLW  55
02EC6:  MOVWF  FA7
02EC8:  MOVLW  AA
02ECA:  MOVWF  FA7
02ECC:  BSF    FA6.1
02ECE:  BTFSC  FA6.1
02ED0:  BRA    2ECE
02ED2:  BCF    FA6.2
02ED4:  MOVF   00,W
02ED6:  IORWF  FF2,F
....................       delay_ms(10); 
02ED8:  MOVLW  0A
02EDA:  MOVLB  3
02EDC:  MOVWF  xC8
02EDE:  MOVLB  0
02EE0:  CALL   1C24
02EE4:  MOVLB  3
....................    } 
....................    if(Ajusten>50){ 
02EE6:  MOVF   x10,W
02EE8:  SUBLW  32
02EEA:  BC    2F28
....................       Ajusten=0; 
02EEC:  CLRF   x10
....................       write_eeprom(22,0); 
02EEE:  CLRF   FAA
02EF0:  MOVLW  16
02EF2:  MOVWF  FA9
02EF4:  CLRF   FA8
02EF6:  BCF    FA6.6
02EF8:  BCF    FA6.7
02EFA:  BSF    FA6.2
02EFC:  MOVF   FF2,W
02EFE:  MOVWF  00
02F00:  BCF    FF2.6
02F02:  BCF    FF2.7
02F04:  MOVLB  F
02F06:  MOVLW  55
02F08:  MOVWF  FA7
02F0A:  MOVLW  AA
02F0C:  MOVWF  FA7
02F0E:  BSF    FA6.1
02F10:  BTFSC  FA6.1
02F12:  BRA    2F10
02F14:  BCF    FA6.2
02F16:  MOVF   00,W
02F18:  IORWF  FF2,F
....................       delay_ms(10); 
02F1A:  MOVLW  0A
02F1C:  MOVLB  3
02F1E:  MOVWF  xC8
02F20:  MOVLB  0
02F22:  CALL   1C24
02F26:  MOVLB  3
....................    } 
....................    if(MediaMovil>80){ 
02F28:  MOVF   x11,W
02F2A:  SUBLW  50
02F2C:  BC    2F6E
....................       MediaMovil=80; 
02F2E:  MOVLW  50
02F30:  MOVWF  x11
....................       write_eeprom(24,80); 
02F32:  CLRF   FAA
02F34:  MOVLW  18
02F36:  MOVWF  FA9
02F38:  MOVLW  50
02F3A:  MOVWF  FA8
02F3C:  BCF    FA6.6
02F3E:  BCF    FA6.7
02F40:  BSF    FA6.2
02F42:  MOVF   FF2,W
02F44:  MOVWF  00
02F46:  BCF    FF2.6
02F48:  BCF    FF2.7
02F4A:  MOVLB  F
02F4C:  MOVLW  55
02F4E:  MOVWF  FA7
02F50:  MOVLW  AA
02F52:  MOVWF  FA7
02F54:  BSF    FA6.1
02F56:  BTFSC  FA6.1
02F58:  BRA    2F56
02F5A:  BCF    FA6.2
02F5C:  MOVF   00,W
02F5E:  IORWF  FF2,F
....................       delay_ms(10); 
02F60:  MOVLW  0A
02F62:  MOVLB  3
02F64:  MOVWF  xC8
02F66:  MOVLB  0
02F68:  CALL   1C24
02F6C:  MOVLB  3
....................    } 
....................    if(Tciclo>10){ 
02F6E:  CLRF   xC4
02F70:  CLRF   xC3
02F72:  MOVLW  20
02F74:  MOVWF  xC2
02F76:  MOVLW  82
02F78:  MOVWF  xC1
02F7A:  MOVFF  322,3C8
02F7E:  MOVFF  321,3C7
02F82:  MOVFF  320,3C6
02F86:  MOVFF  31F,3C5
02F8A:  MOVLB  0
02F8C:  RCALL  295E
02F8E:  BNC   2FD8
....................       Tciclo=10; 
02F90:  MOVLB  3
02F92:  CLRF   x22
02F94:  CLRF   x21
02F96:  MOVLW  20
02F98:  MOVWF  x20
02F9A:  MOVLW  82
02F9C:  MOVWF  x1F
....................       write_eeprom(25,10); 
02F9E:  CLRF   FAA
02FA0:  MOVLW  19
02FA2:  MOVWF  FA9
02FA4:  MOVLW  0A
02FA6:  MOVWF  FA8
02FA8:  BCF    FA6.6
02FAA:  BCF    FA6.7
02FAC:  BSF    FA6.2
02FAE:  MOVF   FF2,W
02FB0:  MOVWF  00
02FB2:  BCF    FF2.6
02FB4:  BCF    FF2.7
02FB6:  MOVLB  F
02FB8:  MOVLW  55
02FBA:  MOVWF  FA7
02FBC:  MOVLW  AA
02FBE:  MOVWF  FA7
02FC0:  BSF    FA6.1
02FC2:  BTFSC  FA6.1
02FC4:  BRA    2FC2
02FC6:  BCF    FA6.2
02FC8:  MOVF   00,W
02FCA:  IORWF  FF2,F
....................       delay_ms(10); 
02FCC:  MOVLW  0A
02FCE:  MOVLB  3
02FD0:  MOVWF  xC8
02FD2:  MOVLB  0
02FD4:  CALL   1C24
....................    } 
....................    if(Integral>10.0){ 
02FD8:  MOVLB  3
02FDA:  CLRF   xC9
02FDC:  MOVFF  367,3C8
02FE0:  MOVLB  0
02FE2:  CALL   1C4C
02FE6:  MOVLB  3
02FE8:  CLRF   xC4
02FEA:  CLRF   xC3
02FEC:  MOVLW  20
02FEE:  MOVWF  xC2
02FF0:  MOVLW  82
02FF2:  MOVWF  xC1
02FF4:  MOVFF  03,3C8
02FF8:  MOVFF  02,3C7
02FFC:  MOVFF  01,3C6
03000:  MOVFF  00,3C5
03004:  MOVLB  0
03006:  RCALL  295E
03008:  BNC   304A
....................       Integral=1.0; 
0300A:  MOVLW  01
0300C:  MOVLB  3
0300E:  MOVWF  x67
....................       write_eeprom(26,1); 
03010:  CLRF   FAA
03012:  MOVLW  1A
03014:  MOVWF  FA9
03016:  MOVLW  01
03018:  MOVWF  FA8
0301A:  BCF    FA6.6
0301C:  BCF    FA6.7
0301E:  BSF    FA6.2
03020:  MOVF   FF2,W
03022:  MOVWF  00
03024:  BCF    FF2.6
03026:  BCF    FF2.7
03028:  MOVLB  F
0302A:  MOVLW  55
0302C:  MOVWF  FA7
0302E:  MOVLW  AA
03030:  MOVWF  FA7
03032:  BSF    FA6.1
03034:  BTFSC  FA6.1
03036:  BRA    3034
03038:  BCF    FA6.2
0303A:  MOVF   00,W
0303C:  IORWF  FF2,F
....................       delay_ms(10); 
0303E:  MOVLW  0A
03040:  MOVLB  3
03042:  MOVWF  xC8
03044:  MOVLB  0
03046:  CALL   1C24
....................    } 
....................    if(Derivativo>90.0){ 
0304A:  MOVLB  3
0304C:  CLRF   xC9
0304E:  MOVFF  368,3C8
03052:  MOVLB  0
03054:  CALL   1C4C
03058:  MOVLB  3
0305A:  CLRF   xC4
0305C:  CLRF   xC3
0305E:  MOVLW  34
03060:  MOVWF  xC2
03062:  MOVLW  85
03064:  MOVWF  xC1
03066:  MOVFF  03,3C8
0306A:  MOVFF  02,3C7
0306E:  MOVFF  01,3C6
03072:  MOVFF  00,3C5
03076:  MOVLB  0
03078:  RCALL  295E
0307A:  BNC   30BC
....................       Derivativo=15.0; 
0307C:  MOVLW  0F
0307E:  MOVLB  3
03080:  MOVWF  x68
....................       write_eeprom(27,15); 
03082:  CLRF   FAA
03084:  MOVLW  1B
03086:  MOVWF  FA9
03088:  MOVLW  0F
0308A:  MOVWF  FA8
0308C:  BCF    FA6.6
0308E:  BCF    FA6.7
03090:  BSF    FA6.2
03092:  MOVF   FF2,W
03094:  MOVWF  00
03096:  BCF    FF2.6
03098:  BCF    FF2.7
0309A:  MOVLB  F
0309C:  MOVLW  55
0309E:  MOVWF  FA7
030A0:  MOVLW  AA
030A2:  MOVWF  FA7
030A4:  BSF    FA6.1
030A6:  BTFSC  FA6.1
030A8:  BRA    30A6
030AA:  BCF    FA6.2
030AC:  MOVF   00,W
030AE:  IORWF  FF2,F
....................       delay_ms(10); 
030B0:  MOVLW  0A
030B2:  MOVLB  3
030B4:  MOVWF  xC8
030B6:  MOVLB  0
030B8:  CALL   1C24
....................    } 
....................    if(Gain>50){ 
030BC:  MOVLB  3
030BE:  CLRF   xC4
030C0:  CLRF   xC3
030C2:  MOVLW  48
030C4:  MOVWF  xC2
030C6:  MOVLW  84
030C8:  MOVWF  xC1
030CA:  MOVFF  2D4,3C8
030CE:  MOVFF  2D3,3C7
030D2:  MOVFF  2D2,3C6
030D6:  MOVFF  2D1,3C5
030DA:  MOVLB  0
030DC:  RCALL  295E
030DE:  BNC   3166
....................       Gain=40.2; 
030E0:  MOVLW  CD
030E2:  MOVLB  2
030E4:  MOVWF  xD4
030E6:  MOVLW  CC
030E8:  MOVWF  xD3
030EA:  MOVLW  20
030EC:  MOVWF  xD2
030EE:  MOVLW  84
030F0:  MOVWF  xD1
....................       write_eeprom(28,40); 
030F2:  CLRF   FAA
030F4:  MOVLW  1C
030F6:  MOVWF  FA9
030F8:  MOVLW  28
030FA:  MOVWF  FA8
030FC:  BCF    FA6.6
030FE:  BCF    FA6.7
03100:  BSF    FA6.2
03102:  MOVF   FF2,W
03104:  MOVWF  00
03106:  BCF    FF2.6
03108:  BCF    FF2.7
0310A:  MOVLB  F
0310C:  MOVLW  55
0310E:  MOVWF  FA7
03110:  MOVLW  AA
03112:  MOVWF  FA7
03114:  BSF    FA6.1
03116:  BTFSC  FA6.1
03118:  BRA    3116
0311A:  BCF    FA6.2
0311C:  MOVF   00,W
0311E:  IORWF  FF2,F
....................       delay_ms(10); 
03120:  MOVLW  0A
03122:  MOVLB  3
03124:  MOVWF  xC8
03126:  MOVLB  0
03128:  CALL   1C24
....................       write_eeprom(29,2); 
0312C:  CLRF   FAA
0312E:  MOVLW  1D
03130:  MOVWF  FA9
03132:  MOVLW  02
03134:  MOVWF  FA8
03136:  BCF    FA6.6
03138:  BCF    FA6.7
0313A:  BSF    FA6.2
0313C:  MOVF   FF2,W
0313E:  MOVWF  00
03140:  BCF    FF2.6
03142:  BCF    FF2.7
03144:  MOVLB  F
03146:  MOVLW  55
03148:  MOVWF  FA7
0314A:  MOVLW  AA
0314C:  MOVWF  FA7
0314E:  BSF    FA6.1
03150:  BTFSC  FA6.1
03152:  BRA    3150
03154:  BCF    FA6.2
03156:  MOVF   00,W
03158:  IORWF  FF2,F
....................       delay_ms(10); 
0315A:  MOVLW  0A
0315C:  MOVLB  3
0315E:  MOVWF  xC8
03160:  MOVLB  0
03162:  CALL   1C24
....................    } 
....................    if(R1>6400){ 
03166:  MOVLB  3
03168:  CLRF   xC4
0316A:  CLRF   xC3
0316C:  MOVLW  48
0316E:  MOVWF  xC2
03170:  MOVLW  8B
03172:  MOVWF  xC1
03174:  MOVFF  2E0,3C8
03178:  MOVFF  2DF,3C7
0317C:  MOVFF  2DE,3C6
03180:  MOVFF  2DD,3C5
03184:  MOVLB  0
03186:  CALL   295E
0318A:  BNC   3210
....................       R1=6200; 
0318C:  MOVLB  2
0318E:  CLRF   xE0
03190:  MOVLW  C0
03192:  MOVWF  xDF
03194:  MOVLW  41
03196:  MOVWF  xDE
03198:  MOVLW  8B
0319A:  MOVWF  xDD
....................       write_eeprom(30,0x38); 
0319C:  CLRF   FAA
0319E:  MOVLW  1E
031A0:  MOVWF  FA9
031A2:  MOVLW  38
031A4:  MOVWF  FA8
031A6:  BCF    FA6.6
031A8:  BCF    FA6.7
031AA:  BSF    FA6.2
031AC:  MOVF   FF2,W
031AE:  MOVWF  00
031B0:  BCF    FF2.6
031B2:  BCF    FF2.7
031B4:  MOVLB  F
031B6:  MOVLW  55
031B8:  MOVWF  FA7
031BA:  MOVLW  AA
031BC:  MOVWF  FA7
031BE:  BSF    FA6.1
031C0:  BTFSC  FA6.1
031C2:  BRA    31C0
031C4:  BCF    FA6.2
031C6:  MOVF   00,W
031C8:  IORWF  FF2,F
....................       delay_ms(10); 
031CA:  MOVLW  0A
031CC:  MOVLB  3
031CE:  MOVWF  xC8
031D0:  MOVLB  0
031D2:  CALL   1C24
....................       write_eeprom(31,0x18); 
031D6:  CLRF   FAA
031D8:  MOVLW  1F
031DA:  MOVWF  FA9
031DC:  MOVLW  18
031DE:  MOVWF  FA8
031E0:  BCF    FA6.6
031E2:  BCF    FA6.7
031E4:  BSF    FA6.2
031E6:  MOVF   FF2,W
031E8:  MOVWF  00
031EA:  BCF    FF2.6
031EC:  BCF    FF2.7
031EE:  MOVLB  F
031F0:  MOVLW  55
031F2:  MOVWF  FA7
031F4:  MOVLW  AA
031F6:  MOVWF  FA7
031F8:  BSF    FA6.1
031FA:  BTFSC  FA6.1
031FC:  BRA    31FA
031FE:  BCF    FA6.2
03200:  MOVF   00,W
03202:  IORWF  FF2,F
....................       delay_ms(10); 
03204:  MOVLW  0A
03206:  MOVLB  3
03208:  MOVWF  xC8
0320A:  MOVLB  0
0320C:  CALL   1C24
....................    } 
....................    if(RPT100>2.0){ 
03210:  MOVLB  3
03212:  CLRF   xC4
03214:  CLRF   xC3
03216:  CLRF   xC2
03218:  MOVLW  80
0321A:  MOVWF  xC1
0321C:  MOVFF  2D8,3C8
03220:  MOVFF  2D7,3C7
03224:  MOVFF  2D6,3C6
03228:  MOVFF  2D5,3C5
0322C:  MOVLB  0
0322E:  CALL   295E
03232:  BNC   32B2
....................       RPT100=0.5; 
03234:  MOVLB  2
03236:  CLRF   xD8
03238:  CLRF   xD7
0323A:  CLRF   xD6
0323C:  MOVLW  7E
0323E:  MOVWF  xD5
....................       write_eeprom(32,0); 
03240:  CLRF   FAA
03242:  MOVLW  20
03244:  MOVWF  FA9
03246:  CLRF   FA8
03248:  BCF    FA6.6
0324A:  BCF    FA6.7
0324C:  BSF    FA6.2
0324E:  MOVF   FF2,W
03250:  MOVWF  00
03252:  BCF    FF2.6
03254:  BCF    FF2.7
03256:  MOVLB  F
03258:  MOVLW  55
0325A:  MOVWF  FA7
0325C:  MOVLW  AA
0325E:  MOVWF  FA7
03260:  BSF    FA6.1
03262:  BTFSC  FA6.1
03264:  BRA    3262
03266:  BCF    FA6.2
03268:  MOVF   00,W
0326A:  IORWF  FF2,F
....................       delay_ms(10); 
0326C:  MOVLW  0A
0326E:  MOVLB  3
03270:  MOVWF  xC8
03272:  MOVLB  0
03274:  CALL   1C24
....................       write_eeprom(33,5); 
03278:  CLRF   FAA
0327A:  MOVLW  21
0327C:  MOVWF  FA9
0327E:  MOVLW  05
03280:  MOVWF  FA8
03282:  BCF    FA6.6
03284:  BCF    FA6.7
03286:  BSF    FA6.2
03288:  MOVF   FF2,W
0328A:  MOVWF  00
0328C:  BCF    FF2.6
0328E:  BCF    FF2.7
03290:  MOVLB  F
03292:  MOVLW  55
03294:  MOVWF  FA7
03296:  MOVLW  AA
03298:  MOVWF  FA7
0329A:  BSF    FA6.1
0329C:  BTFSC  FA6.1
0329E:  BRA    329C
032A0:  BCF    FA6.2
032A2:  MOVF   00,W
032A4:  IORWF  FF2,F
....................       delay_ms(10); 
032A6:  MOVLW  0A
032A8:  MOVLB  3
032AA:  MOVWF  xC8
032AC:  MOVLB  0
032AE:  CALL   1C24
....................    } 
....................    if(Ciclos>60000){ 
032B2:  MOVLB  3
032B4:  MOVF   x92,W
032B6:  SUBLW  E9
032B8:  BC    333A
032BA:  XORLW  FF
032BC:  BNZ   32C4
032BE:  MOVF   x91,W
032C0:  SUBLW  60
032C2:  BC    333A
....................       Ciclos=0; 
032C4:  CLRF   x92
032C6:  CLRF   x91
....................       write_eeprom(37,0); 
032C8:  CLRF   FAA
032CA:  MOVLW  25
032CC:  MOVWF  FA9
032CE:  CLRF   FA8
032D0:  BCF    FA6.6
032D2:  BCF    FA6.7
032D4:  BSF    FA6.2
032D6:  MOVF   FF2,W
032D8:  MOVWF  00
032DA:  BCF    FF2.6
032DC:  BCF    FF2.7
032DE:  MOVLB  F
032E0:  MOVLW  55
032E2:  MOVWF  FA7
032E4:  MOVLW  AA
032E6:  MOVWF  FA7
032E8:  BSF    FA6.1
032EA:  BTFSC  FA6.1
032EC:  BRA    32EA
032EE:  BCF    FA6.2
032F0:  MOVF   00,W
032F2:  IORWF  FF2,F
....................       delay_ms(10); 
032F4:  MOVLW  0A
032F6:  MOVLB  3
032F8:  MOVWF  xC8
032FA:  MOVLB  0
032FC:  CALL   1C24
....................       write_eeprom(38,0); 
03300:  CLRF   FAA
03302:  MOVLW  26
03304:  MOVWF  FA9
03306:  CLRF   FA8
03308:  BCF    FA6.6
0330A:  BCF    FA6.7
0330C:  BSF    FA6.2
0330E:  MOVF   FF2,W
03310:  MOVWF  00
03312:  BCF    FF2.6
03314:  BCF    FF2.7
03316:  MOVLB  F
03318:  MOVLW  55
0331A:  MOVWF  FA7
0331C:  MOVLW  AA
0331E:  MOVWF  FA7
03320:  BSF    FA6.1
03322:  BTFSC  FA6.1
03324:  BRA    3322
03326:  BCF    FA6.2
03328:  MOVF   00,W
0332A:  IORWF  FF2,F
....................       delay_ms(10); 
0332C:  MOVLW  0A
0332E:  MOVLB  3
03330:  MOVWF  xC8
03332:  MOVLB  0
03334:  CALL   1C24
03338:  MOVLB  3
....................    } 
....................    if(TTrampa>100){ 
0333A:  MOVF   x12,W
0333C:  SUBLW  64
0333E:  BC    3380
....................       TTrampa=80; 
03340:  MOVLW  50
03342:  MOVWF  x12
....................       write_eeprom(39,80); 
03344:  CLRF   FAA
03346:  MOVLW  27
03348:  MOVWF  FA9
0334A:  MOVLW  50
0334C:  MOVWF  FA8
0334E:  BCF    FA6.6
03350:  BCF    FA6.7
03352:  BSF    FA6.2
03354:  MOVF   FF2,W
03356:  MOVWF  00
03358:  BCF    FF2.6
0335A:  BCF    FF2.7
0335C:  MOVLB  F
0335E:  MOVLW  55
03360:  MOVWF  FA7
03362:  MOVLW  AA
03364:  MOVWF  FA7
03366:  BSF    FA6.1
03368:  BTFSC  FA6.1
0336A:  BRA    3368
0336C:  BCF    FA6.2
0336E:  MOVF   00,W
03370:  IORWF  FF2,F
....................       delay_ms(10); 
03372:  MOVLW  0A
03374:  MOVLB  3
03376:  MOVWF  xC8
03378:  MOVLB  0
0337A:  CALL   1C24
0337E:  MOVLB  3
....................    } 
....................    if(ActivaImpresion>1){ 
03380:  MOVF   x6C,W
03382:  SUBLW  01
03384:  BC    33C6
....................       ActivaImpresion=1; 
03386:  MOVLW  01
03388:  MOVWF  x6C
....................       write_eeprom(40,1); 
0338A:  CLRF   FAA
0338C:  MOVLW  28
0338E:  MOVWF  FA9
03390:  MOVLW  01
03392:  MOVWF  FA8
03394:  BCF    FA6.6
03396:  BCF    FA6.7
03398:  BSF    FA6.2
0339A:  MOVF   FF2,W
0339C:  MOVWF  00
0339E:  BCF    FF2.6
033A0:  BCF    FF2.7
033A2:  MOVLB  F
033A4:  MOVLW  55
033A6:  MOVWF  FA7
033A8:  MOVLW  AA
033AA:  MOVWF  FA7
033AC:  BSF    FA6.1
033AE:  BTFSC  FA6.1
033B0:  BRA    33AE
033B2:  BCF    FA6.2
033B4:  MOVF   00,W
033B6:  IORWF  FF2,F
....................       delay_ms(10); 
033B8:  MOVLW  0A
033BA:  MOVLB  3
033BC:  MOVWF  xC8
033BE:  MOVLB  0
033C0:  CALL   1C24
033C4:  MOVLB  3
....................    } 
....................    if(timpresion>30){ 
033C6:  MOVF   x6D,W
033C8:  SUBLW  1E
033CA:  BC    340C
....................       timpresion=2; 
033CC:  MOVLW  02
033CE:  MOVWF  x6D
....................       write_eeprom(41,2); 
033D0:  CLRF   FAA
033D2:  MOVLW  29
033D4:  MOVWF  FA9
033D6:  MOVLW  02
033D8:  MOVWF  FA8
033DA:  BCF    FA6.6
033DC:  BCF    FA6.7
033DE:  BSF    FA6.2
033E0:  MOVF   FF2,W
033E2:  MOVWF  00
033E4:  BCF    FF2.6
033E6:  BCF    FF2.7
033E8:  MOVLB  F
033EA:  MOVLW  55
033EC:  MOVWF  FA7
033EE:  MOVLW  AA
033F0:  MOVWF  FA7
033F2:  BSF    FA6.1
033F4:  BTFSC  FA6.1
033F6:  BRA    33F4
033F8:  BCF    FA6.2
033FA:  MOVF   00,W
033FC:  IORWF  FF2,F
....................       delay_ms(10); 
033FE:  MOVLW  0A
03400:  MOVLB  3
03402:  MOVWF  xC8
03404:  MOVLB  0
03406:  CALL   1C24
0340A:  MOVLB  3
....................    } 
....................    if(sg1==10){ 
0340C:  MOVF   xBB,W
0340E:  SUBLW  0A
03410:  BNZ   3426
....................       G1=G1*(-1); 
03412:  MOVFF  3B9,3BD
03416:  MOVLW  FF
03418:  MOVWF  xBE
0341A:  MOVLB  0
0341C:  CALL   29D8
03420:  MOVFF  01,3B9
03424:  MOVLB  3
....................    } 
....................    if(sg2==10){ 
03426:  MOVF   xBC,W
03428:  SUBLW  0A
0342A:  BNZ   343E
....................       G2=G2*(-1); 
0342C:  MOVFF  3BA,3BD
03430:  MOVLW  FF
03432:  MOVWF  xBE
03434:  MOVLB  0
03436:  CALL   29D8
0343A:  MOVFF  01,3BA
....................    } 
....................    if(openEsteril>10){ 
0343E:  MOVLB  0
03440:  MOVF   xCF,W
03442:  SUBLW  0A
03444:  BC    3484
....................       openEsteril=10; 
03446:  MOVLW  0A
03448:  MOVWF  xCF
....................       write_eeprom(46,10); 
0344A:  CLRF   FAA
0344C:  MOVLW  2E
0344E:  MOVWF  FA9
03450:  MOVLW  0A
03452:  MOVWF  FA8
03454:  BCF    FA6.6
03456:  BCF    FA6.7
03458:  BSF    FA6.2
0345A:  MOVF   FF2,W
0345C:  MOVWF  00
0345E:  BCF    FF2.6
03460:  BCF    FF2.7
03462:  MOVLB  F
03464:  MOVLW  55
03466:  MOVWF  FA7
03468:  MOVLW  AA
0346A:  MOVWF  FA7
0346C:  BSF    FA6.1
0346E:  BTFSC  FA6.1
03470:  BRA    346E
03472:  BCF    FA6.2
03474:  MOVF   00,W
03476:  IORWF  FF2,F
....................       delay_ms(10); 
03478:  MOVLW  0A
0347A:  MOVLB  3
0347C:  MOVWF  xC8
0347E:  MOVLB  0
03480:  CALL   1C24
....................    } 
....................    if(openContaminado>10){ 
03484:  MOVF   xD0,W
03486:  SUBLW  0A
03488:  BC    34C8
....................       openContaminado=10; 
0348A:  MOVLW  0A
0348C:  MOVWF  xD0
....................       write_eeprom(47,10); 
0348E:  CLRF   FAA
03490:  MOVLW  2F
03492:  MOVWF  FA9
03494:  MOVLW  0A
03496:  MOVWF  FA8
03498:  BCF    FA6.6
0349A:  BCF    FA6.7
0349C:  BSF    FA6.2
0349E:  MOVF   FF2,W
034A0:  MOVWF  00
034A2:  BCF    FF2.6
034A4:  BCF    FF2.7
034A6:  MOVLB  F
034A8:  MOVLW  55
034AA:  MOVWF  FA7
034AC:  MOVLW  AA
034AE:  MOVWF  FA7
034B0:  BSF    FA6.1
034B2:  BTFSC  FA6.1
034B4:  BRA    34B2
034B6:  BCF    FA6.2
034B8:  MOVF   00,W
034BA:  IORWF  FF2,F
....................       delay_ms(10); 
034BC:  MOVLW  0A
034BE:  MOVLB  3
034C0:  MOVWF  xC8
034C2:  MOVLB  0
034C4:  CALL   1C24
....................    } 
....................    if(esterilizo>10){ 
034C8:  MOVF   xD1,W
034CA:  SUBLW  0A
034CC:  BC    350C
....................       esterilizo=10; 
034CE:  MOVLW  0A
034D0:  MOVWF  xD1
....................       write_eeprom(48,10); 
034D2:  CLRF   FAA
034D4:  MOVLW  30
034D6:  MOVWF  FA9
034D8:  MOVLW  0A
034DA:  MOVWF  FA8
034DC:  BCF    FA6.6
034DE:  BCF    FA6.7
034E0:  BSF    FA6.2
034E2:  MOVF   FF2,W
034E4:  MOVWF  00
034E6:  BCF    FF2.6
034E8:  BCF    FF2.7
034EA:  MOVLB  F
034EC:  MOVLW  55
034EE:  MOVWF  FA7
034F0:  MOVLW  AA
034F2:  MOVWF  FA7
034F4:  BSF    FA6.1
034F6:  BTFSC  FA6.1
034F8:  BRA    34F6
034FA:  BCF    FA6.2
034FC:  MOVF   00,W
034FE:  IORWF  FF2,F
....................       delay_ms(10); 
03500:  MOVLW  0A
03502:  MOVLB  3
03504:  MOVWF  xC8
03506:  MOVLB  0
03508:  CALL   1C24
....................    } 
.................... } 
0350C:  GOTO   5A96 (RETURN)
....................  
.................... void LeeDisplay(void){ 
....................    if(Dato_Exitoso==5){ 
*
03C62:  MOVLB  3
03C64:  MOVF   x70,W
03C66:  SUBLW  05
03C68:  BTFSS  FD8.2
03C6A:  BRA    3D88
....................          RX_Buffer[0]=RX_Buffer2[0]; 
03C6C:  MOVFF  3B,30
....................          RX_Buffer[1]=RX_Buffer2[1]; 
03C70:  MOVFF  3C,31
....................          RX_Buffer[2]=RX_Buffer2[2]; 
03C74:  MOVFF  3D,32
....................          RX_Buffer[3]=RX_Buffer2[3]; 
03C78:  MOVFF  3E,33
....................          RX_Buffer[4]=RX_Buffer2[4]; 
03C7C:  MOVFF  3F,34
....................          RX_Buffer[5]=RX_Buffer2[5]; 
03C80:  MOVFF  40,35
....................          RX_Buffer[6]=RX_Buffer2[6]; 
03C84:  MOVFF  41,36
....................          RX_Buffer[7]=RX_Buffer2[7]; 
03C88:  MOVFF  42,37
....................          RX_Buffer[8]=RX_Buffer2[8]; 
03C8C:  MOVFF  43,38
....................          RX_Buffer[9]=RX_Buffer2[9]; 
03C90:  MOVFF  44,39
....................           
....................       if(RX_Buffer[3]==0x01){// Pregunta por la pagina en la que esta el display,01 es Contrasea de Acceso 
03C94:  DECFSZ 33,W
03C96:  BRA    3CA6
....................          Menu=0; 
03C98:  CLRF   x74
....................          if(MenuAntt!=Menu) 
03C9A:  MOVF   x74,W
03C9C:  SUBWF  x76,W
03C9E:  BZ    3CA4
....................             MenuAntt=Menu; 
03CA0:  MOVFF  374,376
....................       }else if(RX_Buffer[3]==0x02){//02 es Menu Principal con PantallaPriincipal=0, y con PantallaPrincipal=1 es Ciclo Libre 
03CA4:  BRA    3D86
03CA6:  MOVF   33,W
03CA8:  SUBLW  02
03CAA:  BNZ   3CBC
....................          Menu=1; 
03CAC:  MOVLW  01
03CAE:  MOVWF  x74
....................          if(MenuAntt!=Menu) 
03CB0:  MOVF   x74,W
03CB2:  SUBWF  x76,W
03CB4:  BZ    3CBA
....................             MenuAntt=Menu; 
03CB6:  MOVFF  374,376
....................       }else if(RX_Buffer[3]==0x03){//03 es Tiempo Esterilizacion 
03CBA:  BRA    3D86
03CBC:  MOVF   33,W
03CBE:  SUBLW  03
03CC0:  BNZ   3CD2
....................          Menu=2; 
03CC2:  MOVLW  02
03CC4:  MOVWF  x74
....................          if(MenuAntt!=Menu) 
03CC6:  MOVF   x74,W
03CC8:  SUBWF  x76,W
03CCA:  BZ    3CD0
....................             MenuAntt=Menu; 
03CCC:  MOVFF  374,376
....................       }else if(RX_Buffer[3]==0x04){//04 es Tiempo de Secado 
03CD0:  BRA    3D86
03CD2:  MOVF   33,W
03CD4:  SUBLW  04
03CD6:  BNZ   3CE8
....................          Menu=3; 
03CD8:  MOVLW  03
03CDA:  MOVWF  x74
....................          if(MenuAntt!=Menu) 
03CDC:  MOVF   x74,W
03CDE:  SUBWF  x76,W
03CE0:  BZ    3CE6
....................             MenuAntt=Menu; 
03CE2:  MOVFF  374,376
....................       }else if(RX_Buffer[3]==0x05){//05 es Temperatura 
03CE6:  BRA    3D86
03CE8:  MOVF   33,W
03CEA:  SUBLW  05
03CEC:  BNZ   3CFE
....................          Menu=4; 
03CEE:  MOVLW  04
03CF0:  MOVWF  x74
....................          if(MenuAntt!=Menu) 
03CF2:  MOVF   x74,W
03CF4:  SUBWF  x76,W
03CF6:  BZ    3CFC
....................             MenuAntt=Menu; 
03CF8:  MOVFF  374,376
....................       }else if(RX_Buffer[3]==0x06){//06 es Nivel 
03CFC:  BRA    3D86
03CFE:  MOVF   33,W
03D00:  SUBLW  06
03D02:  BNZ   3D14
....................          Menu=5; 
03D04:  MOVLW  05
03D06:  MOVWF  x74
....................          if(MenuAntt!=Menu) 
03D08:  MOVF   x74,W
03D0A:  SUBWF  x76,W
03D0C:  BZ    3D12
....................             MenuAntt=Menu; 
03D0E:  MOVFF  374,376
....................       }else if(RX_Buffer[3]==0x07){//07 es Test de Componentes 
03D12:  BRA    3D86
03D14:  MOVF   33,W
03D16:  SUBLW  07
03D18:  BNZ   3D2A
....................          Menu=6; 
03D1A:  MOVLW  06
03D1C:  MOVWF  x74
....................          if(MenuAntt!=Menu) 
03D1E:  MOVF   x74,W
03D20:  SUBWF  x76,W
03D22:  BZ    3D28
....................             MenuAntt=Menu; 
03D24:  MOVFF  374,376
....................       }else if(RX_Buffer[3]==0x08){//08 es Fecha y hora 
03D28:  BRA    3D86
03D2A:  MOVF   33,W
03D2C:  SUBLW  08
03D2E:  BNZ   3D40
....................          Menu=7; 
03D30:  MOVLW  07
03D32:  MOVWF  x74
....................          if(MenuAntt!=Menu) 
03D34:  MOVF   x74,W
03D36:  SUBWF  x76,W
03D38:  BZ    3D3E
....................             MenuAntt=Menu; 
03D3A:  MOVFF  374,376
....................       }else if(RX_Buffer[3]==0x0f){//0f es Recibe caracteres de contrasea desde display 
03D3E:  BRA    3D86
03D40:  MOVF   33,W
03D42:  SUBLW  0F
03D44:  BNZ   3D48
....................           
....................       }else if(RX_Buffer[3]==0x1a){//1a es Menu de Funcionamiento 
03D46:  BRA    3D86
03D48:  MOVF   33,W
03D4A:  SUBLW  1A
03D4C:  BNZ   3D5E
....................          Menu=20; 
03D4E:  MOVLW  14
03D50:  MOVWF  x74
....................          if(MenuAntt!=Menu) 
03D52:  MOVF   x74,W
03D54:  SUBWF  x76,W
03D56:  BZ    3D5C
....................             MenuAntt=Menu; 
03D58:  MOVFF  374,376
....................       }else if(RX_Buffer[3]==0x2c){//2c es Menu de Configuracion de Parametros 
03D5C:  BRA    3D86
03D5E:  MOVF   33,W
03D60:  SUBLW  2C
03D62:  BNZ   3D74
....................          Menu=100; 
03D64:  MOVLW  64
03D66:  MOVWF  x74
....................          if(MenuAntt!=Menu) 
03D68:  MOVF   x74,W
03D6A:  SUBWF  x76,W
03D6C:  BZ    3D72
....................             MenuAntt=Menu; 
03D6E:  MOVFF  374,376
....................       }else if(RX_Buffer[3]==0xcc){//cc es Menu de Bienvenida 
03D72:  BRA    3D86
03D74:  MOVF   33,W
03D76:  SUBLW  CC
03D78:  BNZ   3D86
....................          Menu=240; 
03D7A:  MOVLW  F0
03D7C:  MOVWF  x74
....................          if(MenuAntt!=240) 
03D7E:  MOVF   x76,W
03D80:  SUBLW  F0
03D82:  BZ    3D86
....................             reset_cpu(); 
03D84:  RESET
....................       } 
....................    }else{ 
03D86:  BRA    3D94
....................       for(z=0;z<RX_BUFFER_SIZE;z++){ 
03D88:  CLRF   x72
03D8A:  MOVF   x72,W
03D8C:  SUBLW  09
03D8E:  BNC   3D94
....................             //Rx_Buffer[z]=0; 
....................             //Rx_Buffer2[z]=0; 
....................          } 
03D90:  INCF   x72,F
03D92:  BRA    3D8A
....................    } 
.................... } 
03D94:  MOVLB  0
03D96:  GOTO   5BBA (RETURN)
....................  
.................... void ConfiguraCiclo(int8 este0,este1,este2,este3,secado0,secado1,secado2,secado3,liquidos,ciclo,temperatura){ 
....................    Testerilizacionp[0]=este0;Testerilizacionp[1]=este1;Testerilizacionp[2]=este2;Testerilizacionp[3]=este3; 
*
04726:  MOVFF  3BD,E5
0472A:  MOVFF  3BE,E6
0472E:  MOVFF  3BF,E7
04732:  MOVFF  3C0,E8
....................    Tsecadop[0]=secado0;Tsecadop[1]=secado1;Tsecadop[2]=secado2;Tsecadop[3]=secado3; 
04736:  MOVFF  3C1,ED
0473A:  MOVFF  3C2,EE
0473E:  MOVFF  3C3,EF
04742:  MOVFF  3C4,F0
....................    Setpoint=temperatura;                
04746:  MOVFF  3C7,37B
....................    tiempo_secado=0; 
0474A:  MOVLB  3
0474C:  CLRF   x7F
....................    desfoguelento=liquidos; 
0474E:  MOVLB  0
04750:  BCF    xCE.2
04752:  MOVLB  3
04754:  BTFSS  xC5.0
04756:  BRA    475E
04758:  MOVLB  0
0475A:  BSF    xCE.2
0475C:  MOVLB  3
....................    CicloSeleccionado=ciclo; 
0475E:  MOVFF  3C6,37A
....................    if(ActivaImpresion==1){ 
04762:  DECFSZ x6C,W
04764:  BRA    4780
....................       Imprime=5; 
04766:  MOVLW  05
04768:  MOVWF  xB8
....................       Envio_Esclavos(); 
0476A:  MOVLB  0
0476C:  RCALL  4014
....................       delay_ms(100); 
0476E:  MOVLW  64
04770:  MOVLB  3
04772:  MOVWF  xC8
04774:  MOVLB  0
04776:  CALL   1C24
....................       Imprime=10; 
0477A:  MOVLW  0A
0477C:  MOVLB  3
0477E:  MOVWF  xB8
....................    } 
....................    Testerilizacion[0]=Testerilizacionp[0];Testerilizacion[1]=Testerilizacionp[1];Testerilizacion[2]=Testerilizacionp[2];Testerilizacion[3]=Testerilizacionp[3]; 
04780:  MOVFF  E5,E1
04784:  MOVFF  E6,E2
04788:  MOVFF  E7,E3
0478C:  MOVFF  E8,E4
....................    Tsecado[0]=Tsecadop[0];Tsecado[1]=Tsecadop[1];Tsecado[2]=Tsecadop[2];Tsecado[3]=Tsecadop[3]; 
04790:  MOVFF  ED,E9
04794:  MOVFF  EE,EA
04798:  MOVFF  EF,EB
0479C:  MOVFF  F0,EC
.................... } 
047A0:  MOVLB  0
047A2:  RETLW  00
....................  
.................... void ActivaAlarma(int8 Tipo){ 
....................     
....................    if(tsilencio>12000){ 
*
0454E:  MOVLB  3
04550:  MOVF   xA9,W
04552:  SUBLW  2D
04554:  BC    456A
04556:  XORLW  FF
04558:  BNZ   4560
0455A:  MOVF   xA8,W
0455C:  SUBLW  E0
0455E:  BC    456A
....................       tsilencio=0; 
04560:  CLRF   xA9
04562:  CLRF   xA8
....................       flagSilencio=OFF; 
04564:  MOVLB  0
04566:  BCF    xCD.1
04568:  MOVLB  3
....................    } 
....................     
....................    if(Tipo==1){ // Alarma por Error 
0456A:  DECFSZ xBD,W
0456C:  BRA    45C2
....................    if(UP || DOWN || RIGHT || LEFT) 
0456E:  BSF    F93.6
04570:  BTFSS  F81.6
04572:  BRA    4586
04574:  BSF    F93.5
04576:  BTFSS  F81.5
04578:  BRA    4586
0457A:  BSF    F93.4
0457C:  BTFSS  F81.4
0457E:  BRA    4586
04580:  BSF    F93.3
04582:  BTFSC  F81.3
04584:  BRA    458A
....................       flagSilencio=ON; 
04586:  MOVLB  0
04588:  BSF    xCD.1
....................        
....................       if(!flagSilencio){ 
0458A:  MOVLB  0
0458C:  BTFSC  xCD.1
0458E:  BRA    45BA
....................          flagAlarma=1; 
04590:  BSF    xCC.7
....................          if(tbuzzer>200){ 
04592:  MOVLB  3
04594:  MOVF   xA7,F
04596:  BNZ   459E
04598:  MOVF   xA6,W
0459A:  SUBLW  C8
0459C:  BC    45B6
....................             tbuzzer=0; 
0459E:  CLRF   xA7
045A0:  CLRF   xA6
....................             flagBuzzer=!flagBuzzer; 
045A2:  MOVLB  0
045A4:  BTG    xCD.0
....................             if(flagBuzzer) 
045A6:  BTFSS  xCD.0
045A8:  BRA    45B0
....................                Buzzer_on; 
045AA:  BSF    F8B.5
045AC:  BCF    F94.5
....................             else 
045AE:  BRA    45B4
....................                Buzzer_off; 
045B0:  BCF    F8B.5
045B2:  BCF    F94.5
045B4:  MOVLB  3
....................          } 
....................       }else{ 
045B6:  BRA    45C0
045B8:  MOVLB  0
....................          Buzzer_off; 
045BA:  BCF    F8B.5
045BC:  BCF    F94.5
045BE:  MOVLB  3
....................       } 
....................    }else if(Tipo==2){ 
045C0:  BRA    461A
045C2:  MOVF   xBD,W
045C4:  SUBLW  02
045C6:  BNZ   461A
....................    if(UP || DOWN || RIGHT || LEFT) 
045C8:  BSF    F93.6
045CA:  BTFSS  F81.6
045CC:  BRA    45E0
045CE:  BSF    F93.5
045D0:  BTFSS  F81.5
045D2:  BRA    45E0
045D4:  BSF    F93.4
045D6:  BTFSS  F81.4
045D8:  BRA    45E0
045DA:  BSF    F93.3
045DC:  BTFSC  F81.3
045DE:  BRA    45E4
....................       ConteoBuzzer=21; 
045E0:  MOVLW  15
045E2:  MOVWF  xA3
....................        
....................       flagAlarma=1; 
045E4:  MOVLB  0
045E6:  BSF    xCC.7
....................       if(ConteoBuzzer<20){    
045E8:  MOVLB  3
045EA:  MOVF   xA3,W
045EC:  SUBLW  13
045EE:  BNC   4616
....................          if(tbuzzer>100){ 
045F0:  MOVF   xA7,F
045F2:  BNZ   45FA
045F4:  MOVF   xA6,W
045F6:  SUBLW  64
045F8:  BC    4614
....................             tbuzzer=0; 
045FA:  CLRF   xA7
045FC:  CLRF   xA6
....................             flagBuzzer=!flagBuzzer; 
045FE:  MOVLB  0
04600:  BTG    xCD.0
....................             if(flagBuzzer) 
04602:  BTFSS  xCD.0
04604:  BRA    460C
....................                Buzzer_on; 
04606:  BSF    F8B.5
04608:  BCF    F94.5
....................             else 
0460A:  BRA    4610
....................                Buzzer_off; 
0460C:  BCF    F8B.5
0460E:  BCF    F94.5
....................                 
....................             ConteoBuzzer++;    
04610:  MOVLB  3
04612:  INCF   xA3,F
....................          } 
....................       }else{ 
04614:  BRA    461A
....................          Buzzer_off; 
04616:  BCF    F8B.5
04618:  BCF    F94.5
....................       } 
....................    } 
.................... } 
0461A:  MOVLB  0
0461C:  RETLW  00
....................  
.................... void CalientaChaqueta(){ 
....................    if(PresionPrecamara<130){ 
*
052CE:  MOVLB  3
052D0:  MOVF   x90,F
052D2:  BNZ   52E0
052D4:  MOVF   x8F,W
052D6:  SUBLW  81
052D8:  BNC   52E0
....................       SSR_on; 
052DA:  BCF    F8B.1
052DC:  BCF    F94.1
....................    }else if(PresionPreCamara>150){ 
052DE:  BRA    52EE
052E0:  MOVF   x90,F
052E2:  BNZ   52EA
052E4:  MOVF   x8F,W
052E6:  SUBLW  96
052E8:  BC    52EE
....................       SSR_off; 
052EA:  BSF    F8B.1
052EC:  BCF    F94.1
....................    } 
.................... } 
052EE:  MOVLB  0
052F0:  GOTO   9F0C (RETURN)
....................  
.................... void ApagaSalidas(){ 
....................    Desfogue_off; 
*
03578:  BSF    F8C.2
0357A:  BCF    F95.2
....................    Paso_off; 
0357C:  BSF    F8C.3
0357E:  BCF    F95.3
....................    AguaIn_off; 
03580:  BSF    F8C.4
03582:  BCF    F95.4
....................    Buzzer_off; 
03584:  BCF    F8B.5
03586:  BCF    F94.5
....................    Solenoide_off; 
03588:  BCF    F8C.0
0358A:  BCF    F95.0
....................    SSR_off; 
0358C:  BSF    F8B.1
0358E:  BCF    F94.1
....................    Controlando=0; 
03590:  MOVLB  3
03592:  CLRF   x6B
.................... } 
03594:  MOVLB  0
03596:  RETLW  00
....................  
....................  
.................... #int_rda HIGH 
.................... void serial_rx_isr(){ 
....................  
....................    Dato2=fgetc(); 
*
00150:  BTFSS  F9E.5
00152:  BRA    0150
00154:  MOVFF  FAE,371
00158:  MOVLB  3
....................    if(Dato2==0x65){//Inicio Comunicacion 
0015A:  MOVF   x71,W
0015C:  SUBLW  65
0015E:  BNZ   0166
....................       Inicio=1; 
00160:  MOVLW  01
00162:  MOVWF  x6F
....................       RX_Wr_Index =0; 
00164:  CLRF   46
....................    } 
....................    //Inicio=1; 
....................    if(Inicio==1){ 
00166:  DECFSZ x6F,W
00168:  BRA    017E
....................       Rx_Buffer2[RX_Wr_Index] = Dato2; 
0016A:  CLRF   03
0016C:  MOVF   46,W
0016E:  ADDLW  3B
00170:  MOVWF  FE9
00172:  MOVLW  00
00174:  ADDWFC 03,W
00176:  MOVWF  FEA
00178:  MOVFF  371,FEF
....................       RX_Wr_Index++; 
0017C:  INCF   46,F
....................    } 
....................    if(RX_Wr_Index >= RX_BUFFER_SIZE){ 
0017E:  MOVF   46,W
00180:  SUBLW  09
00182:  BC    0188
....................       RX_Wr_Index =0; 
00184:  CLRF   46
....................       Inicio=0; 
00186:  CLRF   x6F
....................    } 
....................  
....................    if(RX_Wr_Index==0){ 
00188:  MOVF   46,F
0018A:  BNZ   01AC
....................       if(Rx_Buffer2[0]==0x65 && Rx_Buffer2[1]==0xff && Rx_Buffer2[2]==0xff && Rx_Buffer2[8]==0x00 && Rx_Buffer2[9]==0xff ){ 
0018C:  MOVF   3B,W
0018E:  SUBLW  65
00190:  BNZ   01A8
00192:  INCFSZ 3C,W
00194:  BRA    01A8
00196:  INCFSZ 3D,W
00198:  BRA    01A8
0019A:  MOVF   43,F
0019C:  BNZ   01A8
0019E:  INCFSZ 44,W
001A0:  BRA    01A8
....................          Dato_Exitoso=5; 
001A2:  MOVLW  05
001A4:  MOVWF  x70
....................       }else{ 
001A6:  BRA    01AC
....................          Dato_Exitoso=10; 
001A8:  MOVLW  0A
001AA:  MOVWF  x70
....................       } 
....................    } 
....................    //Dato_Exitoso=5; 
....................    if(Menu==20) 
001AC:  MOVF   x74,W
001AE:  SUBLW  14
001B0:  BNZ   01B6
....................      Buzzer_on; 
001B2:  BSF    F8B.5
001B4:  BCF    F94.5
.................... } 
....................  
001B6:  BCF    F9E.5
001B8:  MOVLB  0
001BA:  GOTO   010A
.................... #int_TIMER0 
.................... void temp0s(void){ 
....................    set_timer0(0); 
001BE:  CLRF   FD7
001C0:  CLRF   FD6
....................    t_exhaust++; 
001C2:  MOVLB  3
001C4:  INCF   xA4,F
001C6:  BTFSC  FD8.2
001C8:  INCF   xA5,F
....................    if(DesfogueSuave) 
001CA:  MOVLB  0
001CC:  BTFSS  xCA.5
001CE:  BRA    0210
....................    { 
....................       if(Nivel<6) 
001D0:  MOVLB  3
001D2:  MOVF   x8A,F
001D4:  BNZ   020A
001D6:  MOVF   x89,W
001D8:  SUBLW  05
001DA:  BNC   020A
....................       { 
....................          if(t_exhaust<=NivelSeleccionado) // Si el tiempo es menor o igual al tiempo de control se enciende la resistencia de lo contrario se apaga. 
001DC:  MOVF   xA5,W
001DE:  SUBWF  x94,W
001E0:  BNC   01F0
001E2:  BNZ   01EA
001E4:  MOVF   xA4,W
001E6:  SUBWF  x93,W
001E8:  BNC   01F0
....................          { 
....................             Desfogue_on; 
001EA:  BCF    F8C.2
001EC:  BCF    F95.2
....................          }else{             
001EE:  BRA    01F4
....................             Desfogue_off; 
001F0:  BSF    F8C.2
001F2:  BCF    F95.2
....................          }    
....................        
....................          if(t_exhaust>=60000) // Si el tiempo de control es mayor al tiempo de ciclo se reinicia tiempo de control 
001F4:  MOVF   xA5,W
001F6:  SUBLW  E9
001F8:  BC    0208
001FA:  XORLW  FF
001FC:  BNZ   0204
001FE:  MOVF   xA4,W
00200:  SUBLW  5F
00202:  BC    0208
....................          { 
....................             t_exhaust=0; 
00204:  CLRF   xA5
00206:  CLRF   xA4
....................          } // tiempoctrl incrementa una unidad cada Xms, por eso se dividen los tiempos por 0.005. 
....................       } 
....................       else 
00208:  BRA    020E
....................       { 
....................          Desfogue_on; 
0020A:  BCF    F8C.2
0020C:  BCF    F95.2
0020E:  MOVLB  0
....................       } 
....................    }   
.................... } 
....................  
00210:  BCF    FF2.2
00212:  GOTO   0074
.................... #int_TIMER1 
.................... void temp1s(void){ 
....................    set_timer1(40536); // Se repite cada 5ms 
00216:  MOVLW  9E
00218:  MOVWF  FCF
0021A:  MOVLW  58
0021C:  MOVWF  FCE
....................    tiempos++; 
0021E:  MOVLB  3
00220:  INCF   x81,F
00222:  BTFSC  FD8.2
00224:  INCF   x82,F
....................    tiempos2++; 
00226:  INCF   x83,F
00228:  BTFSC  FD8.2
0022A:  INCF   x84,F
....................    tiempos3++; 
0022C:  INCF   x85,F
0022E:  BTFSC  FD8.2
00230:  INCF   x86,F
....................    tiempoctrl++; 
00232:  INCF   x87,F
00234:  BTFSC  FD8.2
00236:  INCF   x88,F
....................     
....................    if(flagAgua){ 
00238:  MOVLB  0
0023A:  BTFSS  xCB.5
0023C:  BRA    0244
....................       tValveAgua++; 
0023E:  INCF   xDD,F
00240:  BTFSC  FD8.2
00242:  INCF   xDE,F
....................    } 
....................     
....................    if(flagAlarma) 
00244:  BTFSS  xCC.7
00246:  BRA    0252
....................       tbuzzer++; 
00248:  MOVLB  3
0024A:  INCF   xA6,F
0024C:  BTFSC  FD8.2
0024E:  INCF   xA7,F
00250:  MOVLB  0
....................        
....................    if(flagSilencio)    
00252:  BTFSS  xCD.1
00254:  BRA    025E
....................       tsilencio++; 
00256:  MOVLB  3
00258:  INCF   xA8,F
0025A:  BTFSC  FD8.2
0025C:  INCF   xA9,F
....................     
....................    if(Controlando==1){ 
0025E:  MOVLB  3
00260:  DECFSZ x6B,W
00262:  BRA    02A0
....................       if(tiempoctrl<Tp) // Si el tiempo es menor o igual al tiempo de control se enciende la resistencia de lo contrario se apaga. 
00264:  MOVF   x88,W
00266:  MOVLB  0
00268:  SUBWF  xDA,W
0026A:  BNC   0284
0026C:  BNZ   027E
0026E:  MOVF   xD9,W
00270:  MOVLB  3
00272:  SUBWF  x87,W
00274:  BTFSS  FD8.0
00276:  BRA    027C
00278:  MOVLB  0
0027A:  BRA    0284
0027C:  MOVLB  0
....................       { 
....................          SSR_on; 
0027E:  BCF    F8B.1
00280:  BCF    F94.1
....................       } 
....................       else          
00282:  BRA    0288
....................       { 
....................          SSR_off; 
00284:  BSF    F8B.1
00286:  BCF    F94.1
....................       } 
....................              
....................       if(tiempoctrl>=Tc) // Si el tiempo de control es mayor al tiempo de ciclo se reinicia tiempo de control 
00288:  MOVF   xDC,W
0028A:  MOVLB  3
0028C:  SUBWF  x88,W
0028E:  BNC   02A0
00290:  BNZ   029C
00292:  MOVLB  0
00294:  MOVF   xDB,W
00296:  MOVLB  3
00298:  SUBWF  x87,W
0029A:  BNC   02A0
....................       { 
....................          tiempoctrl=0; 
0029C:  CLRF   x88
0029E:  CLRF   x87
....................       } // tiempoctrl incrementa una unidad cada 5ms, por eso se dividen los tiempos por 0.005. 
....................    } 
....................     
....................    if(tiempos>=200)  // 12000 para que incremente cada minuto, 200para que incremente cada segundo. 
002A0:  MOVF   x82,F
002A2:  BNZ   02AC
002A4:  MOVF   x81,W
002A6:  SUBLW  C7
002A8:  BTFSC  FD8.0
002AA:  BRA    03D4
....................    { 
....................       if(flagTC) 
002AC:  MOVLB  0
002AE:  BTFSS  xCE.6
002B0:  BRA    02B6
....................          TiempoControl++; 
002B2:  MOVLB  3
002B4:  INCF   xA1,F
....................        
....................       tiemporecta++; 
002B6:  MOVLB  3
002B8:  INCF   x6A,F
....................        
....................       if(IniciaCiclo && tiempoImpresion<CalculoImpresion){ 
002BA:  MOVLB  0
002BC:  BTFSS  xCA.0
002BE:  BRA    02D2
002C0:  MOVLB  3
002C2:  MOVF   x6E,W
002C4:  SUBWF  x80,W
002C6:  BTFSS  FD8.0
002C8:  BRA    02CE
002CA:  MOVLB  0
002CC:  BRA    02D2
....................          tiempoImpresion++; 
002CE:  INCF   x80,F
....................       }else if(tiempoImpresion>=CalculoImpresion){ 
002D0:  BRA    02E2
002D2:  MOVLB  3
002D4:  MOVF   x6E,W
002D6:  SUBWF  x80,W
002D8:  BNC   02E2
....................          flagImprime=1; 
002DA:  MOVLB  0
002DC:  BSF    xCE.7
....................          tiempoImpresion=0; 
002DE:  MOVLB  3
002E0:  CLRF   x80
....................       } 
....................        
....................       if(IniciaCiclo && !Esterilizando && !Secando && !Desfogando && !Finalizo){ 
002E2:  MOVLB  0
002E4:  BTFSS  xCA.0
002E6:  BRA    02FE
002E8:  BTFSC  xCA.1
002EA:  BRA    02FE
002EC:  BTFSC  xCA.2
002EE:  BRA    02FE
002F0:  BTFSC  xCA.4
002F2:  BRA    02FE
002F4:  BTFSC  xCD.2
002F6:  BRA    02FE
....................          TiempoCiclo++; 
002F8:  INCF   xD3,F
002FA:  BTFSC  FD8.2
002FC:  INCF   xD4,F
....................       } 
....................        
....................       if(IniciaLlenado && !CalderinLleno){ 
002FE:  BTFSS  xC9.6
00300:  BRA    030C
00302:  BTFSC  xC9.7
00304:  BRA    030C
....................          TiempoLlenado++; 
00306:  INCF   xD5,F
00308:  BTFSC  FD8.2
0030A:  INCF   xD6,F
....................       } 
....................        
....................       if(SensadoNivel){ 
0030C:  BTFSS  xCA.3
0030E:  BRA    0316
....................          TiempoSensadoNivel++; 
00310:  INCF   xD7,F
00312:  BTFSC  FD8.2
00314:  INCF   xD8,F
....................       } 
....................        
....................       tiempos=0;Lectura=1;tinicio++; 
00316:  MOVLB  3
00318:  CLRF   x82
0031A:  CLRF   x81
0031C:  MOVLB  0
0031E:  BSF    xCE.3
00320:  MOVLB  3
00322:  INCF   x8B,F
00324:  BTFSC  FD8.2
00326:  INCF   x8C,F
....................     
....................       if(Esterilizando && !Desfogando){                
00328:  MOVLB  0
0032A:  BTFSS  xCA.1
0032C:  BRA    0380
0032E:  BTFSC  xCA.4
00330:  BRA    0380
....................          if(Testerilizacion[0]>0){ 
00332:  BTFSC  xE1.7
00334:  BRA    0340
00336:  MOVF   xE1,W
00338:  SUBLW  00
0033A:  BC    0340
....................             Testerilizacion[0]--; 
0033C:  DECF   xE1,F
....................          }else if(Testerilizacion[1]>0){ 
0033E:  BRA    0380
00340:  BTFSC  xE2.7
00342:  BRA    0352
00344:  MOVF   xE2,W
00346:  SUBLW  00
00348:  BC    0352
....................             Testerilizacion[1]--; 
0034A:  DECF   xE2,F
....................             Testerilizacion[0]=9; 
0034C:  MOVLW  09
0034E:  MOVWF  xE1
....................          }else if(Testerilizacion[2]>0){ 
00350:  BRA    0380
00352:  BTFSC  xE3.7
00354:  BRA    0368
00356:  MOVF   xE3,W
00358:  SUBLW  00
0035A:  BC    0368
....................             Testerilizacion[2]--; 
0035C:  DECF   xE3,F
....................             Testerilizacion[1]=5; 
0035E:  MOVLW  05
00360:  MOVWF  xE2
....................             Testerilizacion[0]=9; 
00362:  MOVLW  09
00364:  MOVWF  xE1
....................          }else if(Testerilizacion[3]>0){ 
00366:  BRA    0380
00368:  BTFSC  xE4.7
0036A:  BRA    0380
0036C:  MOVF   xE4,W
0036E:  SUBLW  00
00370:  BC    0380
....................             Testerilizacion[3]--; 
00372:  DECF   xE4,F
....................             Testerilizacion[2]=9; 
00374:  MOVLW  09
00376:  MOVWF  xE3
....................             Testerilizacion[1]=5; 
00378:  MOVLW  05
0037A:  MOVWF  xE2
....................             Testerilizacion[0]=9; 
0037C:  MOVLW  09
0037E:  MOVWF  xE1
....................          } 
....................       } 
....................        
....................       if(Secando){ 
00380:  BTFSS  xCA.2
00382:  BRA    03D2
....................          if(Tsecado[0]>0){ 
00384:  BTFSC  xE9.7
00386:  BRA    0392
00388:  MOVF   xE9,W
0038A:  SUBLW  00
0038C:  BC    0392
....................             Tsecado[0]--; 
0038E:  DECF   xE9,F
....................          }else if(Tsecado[1]>0){ 
00390:  BRA    03D2
00392:  BTFSC  xEA.7
00394:  BRA    03A4
00396:  MOVF   xEA,W
00398:  SUBLW  00
0039A:  BC    03A4
....................             Tsecado[1]--; 
0039C:  DECF   xEA,F
....................             Tsecado[0]=9; 
0039E:  MOVLW  09
003A0:  MOVWF  xE9
....................          }else if(Tsecado[2]>0){ 
003A2:  BRA    03D2
003A4:  BTFSC  xEB.7
003A6:  BRA    03BA
003A8:  MOVF   xEB,W
003AA:  SUBLW  00
003AC:  BC    03BA
....................             Tsecado[2]--; 
003AE:  DECF   xEB,F
....................             Tsecado[1]=5; 
003B0:  MOVLW  05
003B2:  MOVWF  xEA
....................             Tsecado[0]=9; 
003B4:  MOVLW  09
003B6:  MOVWF  xE9
....................          }else if(Tsecado[3]>0){ 
003B8:  BRA    03D2
003BA:  BTFSC  xEC.7
003BC:  BRA    03D2
003BE:  MOVF   xEC,W
003C0:  SUBLW  00
003C2:  BC    03D2
....................             Tsecado[3]--; 
003C4:  DECF   xEC,F
....................             Tsecado[2]=9; 
003C6:  MOVLW  09
003C8:  MOVWF  xEB
....................             Tsecado[1]=5; 
003CA:  MOVLW  05
003CC:  MOVWF  xEA
....................             Tsecado[0]=9; 
003CE:  MOVLW  09
003D0:  MOVWF  xE9
003D2:  MOVLB  3
....................          } 
....................       } 
....................    } 
.................... } 
....................  
003D4:  BCF    F9E.0
003D6:  MOVLB  0
003D8:  GOTO   0074
.................... void LogicaPuertas(){ 
....................    if(esterilizo==10){ 
*
03BF2:  MOVF   xD1,W
03BF4:  SUBLW  0A
03BF6:  BNZ   3BFE
....................       ladoContaminado=ON; 
03BF8:  BSF    xCD.5
....................       ladoEsteril=OFF; 
03BFA:  BCF    xCD.4
....................    }else if(esterilizo==5){ 
03BFC:  BRA    3C08
03BFE:  MOVF   xD1,W
03C00:  SUBLW  05
03C02:  BNZ   3C08
....................       ladoEsteril=ON; 
03C04:  BSF    xCD.4
....................       ladoContaminado=OFF; 
03C06:  BCF    xCD.5
....................    } 
....................     
....................    if(DOOR){//Si puerta del lado contaminado esta cerrada 
03C08:  BSF    F93.2
03C0A:  BTFSC  F81.2
03C0C:  BRA    3C5A
....................       if(AbreEsteril==5 && PresionCamara<2 && ladoEsteril){// Y realizo un ciclo de esterilizacion, Y la presion es menor a 2kPa, y oprimio desde pantalla 
03C0E:  MOVF   xD2,W
03C10:  SUBLW  05
03C12:  BNZ   3C5A
03C14:  MOVLB  3
03C16:  MOVF   x8E,F
03C18:  BTFSC  FD8.2
03C1A:  BRA    3C20
03C1C:  MOVLB  0
03C1E:  BRA    3C5A
03C20:  MOVF   x8D,W
03C22:  SUBLW  01
03C24:  BTFSC  FD8.0
03C26:  BRA    3C2C
03C28:  MOVLB  0
03C2A:  BRA    3C5A
03C2C:  MOVLB  0
03C2E:  BTFSS  xCD.4
03C30:  BRA    3C5A
....................          Solenoide_on; 
03C32:  BSF    F8C.0
03C34:  BCF    F95.0
....................          Buzzer_on; 
03C36:  BSF    F8B.5
03C38:  BCF    F94.5
....................          delay_ms(5000); 
03C3A:  MOVLW  14
03C3C:  MOVLB  3
03C3E:  MOVWF  xBD
03C40:  MOVLW  FA
03C42:  MOVWF  xC8
03C44:  MOVLB  0
03C46:  CALL   1C24
03C4A:  MOVLB  3
03C4C:  DECFSZ xBD,F
03C4E:  BRA    3C40
....................          Solenoide_off; 
03C50:  BCF    F8C.0
03C52:  BCF    F95.0
....................          Buzzer_off; 
03C54:  BCF    F8B.5
03C56:  BCF    F94.5
03C58:  MOVLB  0
....................       } 
....................    } 
....................    AbreEsteril=10; 
03C5A:  MOVLW  0A
03C5C:  MOVWF  xD2
.................... } 
03C5E:  GOTO   5BB6 (RETURN)
....................  
.................... void main() 
.................... { 
*
052F4:  CLRF   FF8
052F6:  BCF    FF1.2
052F8:  BCF    F9F.0
052FA:  BSF    F9F.5
052FC:  BSF    FD0.7
052FE:  BSF    07.7
05300:  CLRF   FEA
05302:  CLRF   FE9
05304:  BSF    FB8.3
05306:  MOVLW  08
05308:  MOVWF  FAF
0530A:  MOVLW  02
0530C:  MOVWF  FB0
0530E:  MOVLW  A6
05310:  MOVWF  FAC
05312:  MOVLW  90
05314:  MOVWF  FAB
05316:  CLRF   46
05318:  CLRF   47
0531A:  CLRF   48
0531C:  CLRF   x62
0531E:  CLRF   x63
05320:  CLRF   xAE
05322:  CLRF   xAF
05324:  CLRF   xB0
05326:  BCF    xC9.0
05328:  BCF    xC9.1
0532A:  BCF    xC9.2
0532C:  BCF    xC9.3
0532E:  BCF    xC9.4
05330:  BCF    xC9.5
05332:  BCF    xC9.6
05334:  BCF    xC9.7
05336:  BCF    xCA.0
05338:  BCF    xCA.1
0533A:  BCF    xCA.2
0533C:  BCF    xCA.3
0533E:  BCF    xCA.4
05340:  BCF    xCA.5
05342:  BCF    xCA.6
05344:  BCF    xCA.7
05346:  BCF    xCB.0
05348:  BCF    xCB.1
0534A:  BCF    xCB.2
0534C:  BCF    xCB.3
0534E:  BCF    xCB.4
05350:  BCF    xCB.5
05352:  BCF    xCB.6
05354:  BCF    xCB.7
05356:  BCF    xCC.0
05358:  BCF    xCC.1
0535A:  BCF    xCC.2
0535C:  BCF    xCC.3
0535E:  BCF    xCC.4
05360:  BCF    xCC.5
05362:  BCF    xCC.6
05364:  BCF    xCC.7
05366:  BCF    xCD.0
05368:  BCF    xCD.1
0536A:  BCF    xCD.2
0536C:  BCF    xCD.3
0536E:  BCF    xCD.4
05370:  BCF    xCD.5
05372:  BCF    xCD.6
05374:  BCF    xCD.7
05376:  BCF    xCE.0
05378:  BCF    xCE.1
0537A:  MOVLW  0A
0537C:  MOVWF  xCF
0537E:  MOVWF  xD0
05380:  MOVWF  xD1
05382:  CLRF   xD2
05384:  CLRF   xD4
05386:  CLRF   xD3
05388:  CLRF   xD6
0538A:  CLRF   xD5
0538C:  CLRF   xD8
0538E:  CLRF   xD7
05390:  CLRF   xDA
05392:  CLRF   xD9
05394:  CLRF   xDC
05396:  CLRF   xDB
05398:  CLRF   xDE
0539A:  CLRF   xDD
0539C:  CLRF   xE0
0539E:  CLRF   xDF
053A0:  MOVLW  9A
053A2:  MOVLB  2
053A4:  MOVWF  xD4
053A6:  MOVLW  99
053A8:  MOVWF  xD3
053AA:  MOVLW  0D
053AC:  MOVWF  xD2
053AE:  MOVLW  86
053B0:  MOVWF  xD1
053B2:  CLRF   xD8
053B4:  CLRF   xD7
053B6:  CLRF   xD6
053B8:  MOVLW  7E
053BA:  MOVWF  xD5
053BC:  CLRF   xDC
053BE:  CLRF   xDB
053C0:  CLRF   xDA
053C2:  CLRF   xD9
053C4:  CLRF   xE0
053C6:  CLRF   xDF
053C8:  MOVLW  48
053CA:  MOVWF  xDE
053CC:  MOVLW  85
053CE:  MOVWF  xDD
053D0:  CLRF   xE4
053D2:  MOVLW  80
053D4:  MOVWF  xE3
053D6:  MOVLW  3B
053D8:  MOVWF  xE2
053DA:  MOVLW  8A
053DC:  MOVWF  xE1
053DE:  CLRF   xE8
053E0:  MOVLW  C0
053E2:  MOVWF  xE7
053E4:  MOVLW  41
053E6:  MOVWF  xE6
053E8:  MOVLW  8A
053EA:  MOVWF  xE5
053EC:  CLRF   xEC
053EE:  MOVLW  C0
053F0:  MOVWF  xEB
053F2:  MOVLW  41
053F4:  MOVWF  xEA
053F6:  MOVLW  8A
053F8:  MOVWF  xE9
053FA:  CLRF   xF0
053FC:  MOVLW  C0
053FE:  MOVWF  xEF
05400:  MOVLW  41
05402:  MOVWF  xEE
05404:  MOVLW  8A
05406:  MOVWF  xED
05408:  CLRF   xF4
0540A:  CLRF   xF3
0540C:  CLRF   xF2
0540E:  CLRF   xF1
05410:  CLRF   xF8
05412:  CLRF   xF7
05414:  CLRF   xF6
05416:  CLRF   xF5
05418:  MOVLB  3
0541A:  CLRF   x04
0541C:  CLRF   x03
0541E:  CLRF   x02
05420:  CLRF   x01
05422:  CLRF   x08
05424:  CLRF   x07
05426:  CLRF   x06
05428:  CLRF   x05
0542A:  CLRF   x0C
0542C:  CLRF   x0B
0542E:  CLRF   x0A
05430:  CLRF   x09
05432:  CLRF   x0D
05434:  CLRF   x0E
05436:  CLRF   x0F
05438:  CLRF   x10
0543A:  MOVLW  14
0543C:  MOVWF  x11
0543E:  CLRF   x12
05440:  CLRF   x13
05442:  CLRF   x14
05444:  CLRF   x15
05446:  CLRF   x16
05448:  CLRF   x1A
0544A:  CLRF   x19
0544C:  CLRF   x18
0544E:  CLRF   x17
05450:  CLRF   x22
05452:  CLRF   x21
05454:  MOVLW  20
05456:  MOVWF  x20
05458:  MOVLW  82
0545A:  MOVWF  x1F
0545C:  CLRF   x26
0545E:  CLRF   x25
05460:  CLRF   x24
05462:  CLRF   x23
05464:  CLRF   x2A
05466:  CLRF   x29
05468:  CLRF   x28
0546A:  CLRF   x27
0546C:  CLRF   x2E
0546E:  CLRF   x2D
05470:  CLRF   x2C
05472:  CLRF   x2B
05474:  CLRF   x32
05476:  CLRF   x31
05478:  CLRF   x30
0547A:  CLRF   x2F
0547C:  CLRF   x36
0547E:  CLRF   x35
05480:  CLRF   x34
05482:  CLRF   x33
05484:  CLRF   x3A
05486:  CLRF   x39
05488:  MOVLW  48
0548A:  MOVWF  x38
0548C:  MOVLW  83
0548E:  MOVWF  x37
05490:  CLRF   x3E
05492:  CLRF   x3D
05494:  MOVLW  20
05496:  MOVWF  x3C
05498:  MOVLW  83
0549A:  MOVWF  x3B
0549C:  CLRF   x42
0549E:  CLRF   x41
054A0:  CLRF   x40
054A2:  MOVLW  7F
054A4:  MOVWF  x3F
054A6:  CLRF   x46
054A8:  CLRF   x45
054AA:  CLRF   x44
054AC:  CLRF   x43
054AE:  CLRF   x4A
054B0:  CLRF   x49
054B2:  CLRF   x48
054B4:  CLRF   x47
054B6:  CLRF   x4E
054B8:  CLRF   x4D
054BA:  CLRF   x4C
054BC:  CLRF   x4B
054BE:  CLRF   x52
054C0:  CLRF   x51
054C2:  CLRF   x50
054C4:  CLRF   x4F
054C6:  CLRF   x56
054C8:  CLRF   x55
054CA:  CLRF   x54
054CC:  CLRF   x53
054CE:  MOVLW  4A
054D0:  MOVWF  x5A
054D2:  MOVLW  88
054D4:  MOVWF  x59
054D6:  MOVLW  28
054D8:  MOVWF  x58
054DA:  MOVLW  75
054DC:  MOVWF  x57
054DE:  MOVLW  E0
054E0:  MOVWF  x5E
054E2:  MOVLW  2D
054E4:  MOVWF  x5D
054E6:  MOVLW  10
054E8:  MOVWF  x5C
054EA:  MOVLW  75
054EC:  MOVWF  x5B
054EE:  MOVLW  FF
054F0:  MOVWF  x62
054F2:  MOVLW  21
054F4:  MOVWF  x61
054F6:  MOVLW  15
054F8:  MOVWF  x60
054FA:  MOVLW  80
054FC:  MOVWF  x5F
054FE:  MOVLW  82
05500:  MOVWF  x66
05502:  MOVLW  12
05504:  MOVWF  x65
05506:  MOVLW  F4
05508:  MOVWF  x64
0550A:  MOVLW  86
0550C:  MOVWF  x63
0550E:  CLRF   x67
05510:  CLRF   x68
05512:  MOVLB  0
05514:  BCF    xCE.2
05516:  BCF    xCE.3
05518:  BCF    xCE.4
0551A:  BCF    xCE.5
0551C:  BCF    xCE.6
0551E:  BCF    xCE.7
05520:  MOVLB  3
05522:  CLRF   x69
05524:  CLRF   x6A
05526:  CLRF   x6B
05528:  MOVLW  01
0552A:  MOVWF  x6C
0552C:  MOVLW  02
0552E:  MOVWF  x6D
05530:  CLRF   x6E
05532:  MOVLW  01
05534:  MOVWF  x6F
05536:  CLRF   x70
05538:  CLRF   x71
0553A:  CLRF   x72
0553C:  CLRF   x73
0553E:  CLRF   x74
05540:  CLRF   x75
05542:  MOVLW  F0
05544:  MOVWF  x76
05546:  CLRF   x77
05548:  CLRF   x78
0554A:  CLRF   x79
0554C:  CLRF   x7A
0554E:  CLRF   x7B
05550:  MOVLW  01
05552:  MOVWF  x7C
05554:  MOVWF  x7D
05556:  CLRF   x7E
05558:  CLRF   x7F
0555A:  CLRF   x80
0555C:  CLRF   x82
0555E:  CLRF   x81
05560:  CLRF   x84
05562:  CLRF   x83
05564:  CLRF   x86
05566:  CLRF   x85
05568:  CLRF   x88
0556A:  CLRF   x87
0556C:  CLRF   x8A
0556E:  CLRF   x89
05570:  CLRF   x8C
05572:  CLRF   x8B
05574:  CLRF   x8E
05576:  CLRF   x8D
05578:  CLRF   x90
0557A:  CLRF   x8F
0557C:  CLRF   x92
0557E:  CLRF   x91
05580:  CLRF   x94
05582:  CLRF   x93
05584:  CLRF   x9D
05586:  CLRF   x9E
05588:  CLRF   x9F
0558A:  CLRF   xA0
0558C:  CLRF   xA1
0558E:  CLRF   xA2
05590:  CLRF   xA3
05592:  CLRF   xA5
05594:  CLRF   xA4
05596:  CLRF   xA7
05598:  CLRF   xA6
0559A:  CLRF   xA9
0559C:  CLRF   xA8
0559E:  MOVLW  12
055A0:  MOVWF  xAA
055A2:  MOVLW  09
055A4:  MOVWF  xAB
055A6:  MOVLW  0D
055A8:  MOVWF  xAC
055AA:  CLRF   xAD
055AC:  CLRF   xAE
055AE:  CLRF   xAF
055B0:  CLRF   xB0
055B2:  CLRF   xB1
055B4:  CLRF   xB2
055B6:  CLRF   xB3
055B8:  CLRF   xB4
055BA:  CLRF   xB5
055BC:  CLRF   xB6
055BE:  CLRF   xB7
055C0:  CLRF   xB8
055C2:  CLRF   xB9
055C4:  CLRF   xBA
055C6:  CLRF   xBB
055C8:  CLRF   xBC
055CA:  MOVF   FC1,W
055CC:  ANDLW  C0
055CE:  IORLW  0F
055D0:  MOVWF  FC1
055D2:  MOVLW  07
055D4:  MOVWF  FB4
055D6:  CLRF   2A
055D8:  CLRF   2B
055DA:  MOVLB  0
055DC:  CLRF   xB1
055DE:  MOVLW  03
055E0:  MOVWF  xB2
055E2:  MOVWF  xB3
055E4:  MOVLW  06
055E6:  MOVWF  xB4
055E8:  MOVLW  01
055EA:  MOVWF  xB5
055EC:  MOVLW  04
055EE:  MOVWF  xB6
055F0:  MOVLW  06
055F2:  MOVWF  xB7
055F4:  MOVLW  02
055F6:  MOVWF  xB8
055F8:  MOVLW  05
055FA:  MOVWF  xB9
055FC:  CLRF   xBA
055FE:  MOVLW  03
05600:  MOVWF  xBB
05602:  MOVLW  05
05604:  MOVWF  xBC
05606:  CLRF   xBD
05608:  MOVLW  03
0560A:  MOVWF  xBE
0560C:  MOVLW  04
0560E:  MOVWF  xBF
05610:  CLRF   xC0
05612:  MOVLW  02
05614:  MOVWF  xC1
05616:  MOVLW  05
05618:  MOVWF  xC2
0561A:  CLRF   xC3
0561C:  MOVLW  03
0561E:  MOVWF  xC4
05620:  MOVLW  06
05622:  MOVWF  xC5
05624:  MOVLW  01
05626:  MOVWF  xC6
05628:  MOVLW  04
0562A:  MOVWF  xC7
0562C:  MOVLW  06
0562E:  MOVWF  xC8
05630:  CLRF   xE1
05632:  CLRF   xE2
05634:  CLRF   xE3
05636:  CLRF   xE4
05638:  CLRF   xE5
0563A:  CLRF   xE6
0563C:  CLRF   xE7
0563E:  CLRF   xE8
05640:  CLRF   xE9
05642:  CLRF   xEA
05644:  CLRF   xEB
05646:  CLRF   xEC
05648:  CLRF   xED
0564A:  CLRF   xEE
0564C:  CLRF   xEF
0564E:  CLRF   xF0
05650:  CLRF   xF1
05652:  CLRF   xF2
05654:  CLRF   xF3
05656:  CLRF   xF4
05658:  CLRF   xF5
0565A:  CLRF   xF6
0565C:  CLRF   xF7
0565E:  CLRF   xF8
05660:  CLRF   xF9
05662:  CLRF   xFA
05664:  CLRF   xFB
05666:  CLRF   xFC
05668:  CLRF   xFD
0566A:  CLRF   xFE
0566C:  CLRF   xFF
0566E:  MOVLB  1
05670:  CLRF   x00
05672:  CLRF   x01
05674:  CLRF   x02
05676:  CLRF   x03
05678:  CLRF   x04
0567A:  CLRF   x05
0567C:  CLRF   x06
0567E:  CLRF   x07
05680:  CLRF   x08
05682:  CLRF   x09
05684:  CLRF   x0A
05686:  CLRF   x0B
05688:  CLRF   x0C
0568A:  CLRF   x0D
0568C:  CLRF   x0E
0568E:  CLRF   x0F
05690:  CLRF   x10
05692:  CLRF   x11
05694:  CLRF   x12
05696:  CLRF   x13
05698:  CLRF   x14
0569A:  CLRF   x15
0569C:  CLRF   x16
0569E:  CLRF   x17
056A0:  CLRF   x18
056A2:  CLRF   x19
056A4:  CLRF   x1A
056A6:  CLRF   x1B
056A8:  CLRF   x1C
056AA:  CLRF   x1D
056AC:  CLRF   x1E
056AE:  CLRF   x1F
056B0:  CLRF   x20
056B2:  CLRF   x21
056B4:  CLRF   x22
056B6:  CLRF   x23
056B8:  CLRF   x24
056BA:  CLRF   x25
056BC:  CLRF   x26
056BE:  CLRF   x27
056C0:  CLRF   x28
056C2:  CLRF   x29
056C4:  CLRF   x2A
056C6:  CLRF   x2B
056C8:  CLRF   x2C
056CA:  CLRF   x2D
056CC:  CLRF   x2E
056CE:  CLRF   x2F
056D0:  CLRF   x30
056D2:  CLRF   x31
056D4:  CLRF   x32
056D6:  CLRF   x33
056D8:  CLRF   x34
056DA:  CLRF   x35
056DC:  CLRF   x36
056DE:  CLRF   x37
056E0:  CLRF   x38
056E2:  CLRF   x39
056E4:  CLRF   x3A
056E6:  CLRF   x3B
056E8:  CLRF   x3C
056EA:  CLRF   x3D
056EC:  CLRF   x3E
056EE:  CLRF   x3F
056F0:  CLRF   x40
056F2:  CLRF   x41
056F4:  CLRF   x42
056F6:  CLRF   x43
056F8:  CLRF   x44
056FA:  CLRF   x45
056FC:  CLRF   x46
056FE:  CLRF   x47
05700:  CLRF   x48
05702:  CLRF   x49
05704:  CLRF   x4A
05706:  CLRF   x4B
05708:  CLRF   x4C
0570A:  CLRF   x4D
0570C:  CLRF   x4E
0570E:  CLRF   x4F
05710:  CLRF   x50
05712:  CLRF   x51
05714:  CLRF   x52
05716:  CLRF   x53
05718:  CLRF   x54
0571A:  CLRF   x55
0571C:  CLRF   x56
0571E:  CLRF   x57
05720:  CLRF   x58
05722:  CLRF   x59
05724:  CLRF   x5A
05726:  CLRF   x5B
05728:  CLRF   x5C
0572A:  CLRF   x5D
0572C:  CLRF   x5E
0572E:  CLRF   x5F
05730:  CLRF   x60
05732:  CLRF   x61
05734:  CLRF   x62
05736:  CLRF   x63
05738:  CLRF   x64
0573A:  CLRF   x65
0573C:  CLRF   x66
0573E:  CLRF   x67
05740:  CLRF   x68
05742:  CLRF   x69
05744:  CLRF   x6A
05746:  CLRF   x6B
05748:  CLRF   x6C
0574A:  CLRF   x6D
0574C:  CLRF   x6E
0574E:  CLRF   x6F
05750:  CLRF   x70
05752:  CLRF   x71
05754:  CLRF   x72
05756:  CLRF   x73
05758:  CLRF   x74
0575A:  CLRF   x75
0575C:  CLRF   x76
0575E:  CLRF   x77
05760:  CLRF   x78
05762:  CLRF   x79
05764:  CLRF   x7A
05766:  CLRF   x7B
05768:  CLRF   x7C
0576A:  CLRF   x7D
0576C:  CLRF   x7E
0576E:  CLRF   x7F
05770:  CLRF   x80
05772:  CLRF   x81
05774:  CLRF   x82
05776:  CLRF   x83
05778:  CLRF   x84
0577A:  CLRF   x85
0577C:  CLRF   x86
0577E:  CLRF   x87
05780:  CLRF   x88
05782:  CLRF   x89
05784:  CLRF   x8A
05786:  CLRF   x8B
05788:  CLRF   x8C
0578A:  CLRF   x8D
0578C:  CLRF   x8E
0578E:  CLRF   x8F
05790:  CLRF   x90
05792:  CLRF   x91
05794:  CLRF   x92
05796:  CLRF   x93
05798:  CLRF   x94
0579A:  CLRF   x95
0579C:  CLRF   x96
0579E:  CLRF   x97
057A0:  CLRF   x98
057A2:  CLRF   x99
057A4:  CLRF   x9A
057A6:  CLRF   x9B
057A8:  CLRF   x9C
057AA:  CLRF   x9D
057AC:  CLRF   x9E
057AE:  CLRF   x9F
057B0:  CLRF   xA0
057B2:  CLRF   xA1
057B4:  CLRF   xA2
057B6:  CLRF   xA3
057B8:  CLRF   xA4
057BA:  CLRF   xA5
057BC:  CLRF   xA6
057BE:  CLRF   xA7
057C0:  CLRF   xA8
057C2:  CLRF   xA9
057C4:  CLRF   xAA
057C6:  CLRF   xAB
057C8:  CLRF   xAC
057CA:  CLRF   xAD
057CC:  CLRF   xAE
057CE:  CLRF   xAF
057D0:  CLRF   xB0
057D2:  CLRF   xB1
057D4:  CLRF   xB2
057D6:  CLRF   xB3
057D8:  CLRF   xB4
057DA:  CLRF   xB5
057DC:  CLRF   xB6
057DE:  CLRF   xB7
057E0:  CLRF   xB8
057E2:  CLRF   xB9
057E4:  CLRF   xBA
057E6:  CLRF   xBB
057E8:  CLRF   xBC
057EA:  CLRF   xBD
057EC:  CLRF   xBE
057EE:  CLRF   xBF
057F0:  CLRF   xC0
057F2:  CLRF   xC1
057F4:  CLRF   xC2
057F6:  CLRF   xC3
057F8:  CLRF   xC4
057FA:  CLRF   xC5
057FC:  CLRF   xC6
057FE:  CLRF   xC7
05800:  CLRF   xC8
05802:  CLRF   xC9
05804:  CLRF   xCA
05806:  CLRF   xCB
05808:  CLRF   xCC
0580A:  CLRF   xCD
0580C:  CLRF   xCE
0580E:  CLRF   xCF
05810:  CLRF   xD0
05812:  CLRF   xD1
05814:  CLRF   xD2
05816:  CLRF   xD3
05818:  CLRF   xD4
0581A:  CLRF   xD5
0581C:  CLRF   xD6
0581E:  CLRF   xD7
05820:  CLRF   xD8
05822:  CLRF   xD9
05824:  CLRF   xDA
05826:  CLRF   xDB
05828:  CLRF   xDC
0582A:  CLRF   xDD
0582C:  CLRF   xDE
0582E:  CLRF   xDF
05830:  CLRF   xE0
05832:  CLRF   xE1
05834:  CLRF   xE2
05836:  CLRF   xE3
05838:  CLRF   xE4
0583A:  CLRF   xE5
0583C:  CLRF   xE6
0583E:  CLRF   xE7
05840:  CLRF   xE8
05842:  CLRF   xE9
05844:  CLRF   xEA
05846:  CLRF   xEB
05848:  CLRF   xEC
0584A:  CLRF   xED
0584C:  CLRF   xEE
0584E:  CLRF   xEF
05850:  CLRF   xF0
05852:  CLRF   xF1
05854:  CLRF   xF2
05856:  CLRF   xF3
05858:  CLRF   xF4
0585A:  CLRF   xF5
0585C:  CLRF   xF6
0585E:  CLRF   xF7
05860:  CLRF   xF8
05862:  CLRF   xF9
05864:  CLRF   xFA
05866:  CLRF   xFB
05868:  CLRF   xFC
0586A:  CLRF   xFD
0586C:  CLRF   xFE
0586E:  CLRF   xFF
05870:  MOVLB  2
05872:  CLRF   x00
05874:  CLRF   x01
05876:  CLRF   x02
05878:  CLRF   x03
0587A:  CLRF   x04
0587C:  CLRF   x05
0587E:  CLRF   x06
05880:  CLRF   x07
05882:  CLRF   x08
05884:  CLRF   x09
05886:  CLRF   x0A
05888:  CLRF   x0B
0588A:  CLRF   x0C
0588C:  CLRF   x0D
0588E:  CLRF   x0E
05890:  CLRF   x0F
05892:  CLRF   x10
05894:  CLRF   x11
05896:  CLRF   x12
05898:  CLRF   x13
0589A:  CLRF   x14
0589C:  CLRF   x15
0589E:  CLRF   x16
058A0:  CLRF   x17
058A2:  CLRF   x18
058A4:  CLRF   x19
058A6:  CLRF   x1A
058A8:  CLRF   x1B
058AA:  CLRF   x1C
058AC:  CLRF   x1D
058AE:  CLRF   x1E
058B0:  CLRF   x1F
058B2:  CLRF   x20
058B4:  CLRF   x21
058B6:  CLRF   x22
058B8:  CLRF   x23
058BA:  CLRF   x24
058BC:  CLRF   x25
058BE:  CLRF   x26
058C0:  CLRF   x27
058C2:  CLRF   x28
058C4:  CLRF   x29
058C6:  CLRF   x2A
058C8:  CLRF   x2B
058CA:  CLRF   x2C
058CC:  CLRF   x2D
058CE:  CLRF   x2E
058D0:  CLRF   x2F
058D2:  CLRF   x30
058D4:  CLRF   x31
058D6:  CLRF   x32
058D8:  CLRF   x33
058DA:  CLRF   x34
058DC:  CLRF   x35
058DE:  CLRF   x36
058E0:  CLRF   x37
058E2:  CLRF   x38
058E4:  CLRF   x39
058E6:  CLRF   x3A
058E8:  CLRF   x3B
058EA:  CLRF   x3C
058EC:  CLRF   x3D
058EE:  CLRF   x3E
058F0:  CLRF   x3F
058F2:  CLRF   x40
058F4:  CLRF   x41
058F6:  CLRF   x42
058F8:  CLRF   x43
058FA:  CLRF   x44
058FC:  CLRF   x45
058FE:  CLRF   x46
05900:  CLRF   x47
05902:  CLRF   x48
05904:  CLRF   x49
05906:  CLRF   x4A
05908:  CLRF   x4B
0590A:  CLRF   x4C
0590C:  CLRF   x4D
0590E:  CLRF   x4E
05910:  CLRF   x4F
05912:  CLRF   x50
05914:  CLRF   x51
05916:  CLRF   x52
05918:  CLRF   x53
0591A:  CLRF   x54
0591C:  CLRF   x55
0591E:  CLRF   x56
05920:  CLRF   x57
05922:  CLRF   x58
05924:  CLRF   x59
05926:  CLRF   x5A
05928:  CLRF   x5B
0592A:  CLRF   x5C
0592C:  CLRF   x5D
0592E:  CLRF   x5E
05930:  CLRF   x5F
05932:  CLRF   x60
05934:  CLRF   x61
05936:  CLRF   x62
05938:  CLRF   x63
0593A:  CLRF   x64
0593C:  CLRF   x65
0593E:  CLRF   x66
05940:  CLRF   x67
05942:  CLRF   x68
05944:  CLRF   x69
05946:  CLRF   x6A
05948:  CLRF   x6B
0594A:  CLRF   x6C
0594C:  CLRF   x6D
0594E:  CLRF   x6E
05950:  CLRF   x6F
05952:  CLRF   x70
05954:  CLRF   x71
05956:  CLRF   x72
05958:  CLRF   x73
0595A:  CLRF   x74
0595C:  CLRF   x75
0595E:  CLRF   x76
05960:  CLRF   x77
05962:  CLRF   x78
05964:  CLRF   x79
05966:  CLRF   x7A
05968:  CLRF   x7B
0596A:  CLRF   x7C
0596C:  CLRF   x7D
0596E:  CLRF   x7E
05970:  CLRF   x7F
05972:  CLRF   x80
05974:  CLRF   x81
05976:  CLRF   x82
05978:  CLRF   x83
0597A:  CLRF   x84
0597C:  CLRF   x85
0597E:  CLRF   x86
05980:  CLRF   x87
05982:  CLRF   x88
05984:  CLRF   x89
05986:  CLRF   x8A
05988:  CLRF   x8B
0598A:  CLRF   x8C
0598C:  CLRF   x8D
0598E:  CLRF   x8E
05990:  CLRF   x8F
05992:  CLRF   x90
05994:  CLRF   x91
05996:  CLRF   x92
05998:  CLRF   x93
0599A:  CLRF   x94
0599C:  CLRF   x95
0599E:  CLRF   x96
059A0:  CLRF   x97
059A2:  CLRF   x98
059A4:  CLRF   x99
059A6:  CLRF   x9A
059A8:  CLRF   x9B
059AA:  CLRF   x9C
059AC:  CLRF   x9D
059AE:  CLRF   x9E
059B0:  CLRF   x9F
059B2:  CLRF   xA0
059B4:  CLRF   xA1
059B6:  CLRF   xA2
059B8:  CLRF   xA3
059BA:  CLRF   xA4
059BC:  CLRF   xA5
059BE:  CLRF   xA6
059C0:  CLRF   xA7
059C2:  CLRF   xA8
059C4:  CLRF   xA9
059C6:  CLRF   xAA
059C8:  CLRF   xAB
059CA:  CLRF   xAC
059CC:  CLRF   xAD
059CE:  CLRF   xAE
059D0:  CLRF   xAF
059D2:  CLRF   xB0
059D4:  CLRF   xB1
059D6:  CLRF   xB2
059D8:  CLRF   xB3
059DA:  CLRF   xB4
059DC:  CLRF   xB5
059DE:  CLRF   xB6
059E0:  CLRF   xB7
059E2:  CLRF   xB8
059E4:  CLRF   xB9
059E6:  CLRF   xBA
059E8:  CLRF   xBB
059EA:  CLRF   xBC
059EC:  CLRF   xBD
059EE:  CLRF   xBE
059F0:  CLRF   xBF
059F2:  CLRF   xC0
059F4:  CLRF   xC1
059F6:  CLRF   xC2
059F8:  CLRF   xC3
059FA:  CLRF   xC4
059FC:  CLRF   xC5
059FE:  CLRF   xC6
05A00:  CLRF   xC7
05A02:  CLRF   xC8
05A04:  CLRF   xC9
05A06:  CLRF   xCA
05A08:  CLRF   xCB
05A0A:  CLRF   xCC
05A0C:  CLRF   xCD
05A0E:  CLRF   xCE
05A10:  CLRF   xCF
05A12:  CLRF   xD0
05A14:  CLRF   xF9
05A16:  CLRF   xFA
05A18:  CLRF   xFB
05A1A:  CLRF   xFC
05A1C:  CLRF   xFD
05A1E:  CLRF   xFE
05A20:  CLRF   xFF
05A22:  MOVLB  3
05A24:  CLRF   x00
05A26:  CLRF   x95
05A28:  CLRF   x96
05A2A:  CLRF   x97
05A2C:  CLRF   x98
05A2E:  CLRF   x99
05A30:  CLRF   x9A
05A32:  CLRF   x9B
05A34:  CLRF   x9C
....................     
....................    for (posicion=0;posicion<0x10;posicion++){ 
05A36:  MOVLB  0
05A38:  CLRF   xB0
05A3A:  MOVF   xB0,W
05A3C:  SUBLW  0F
05A3E:  BNC   5A54
....................       SlaveA0Tx[posicion] = 0x00; 
05A40:  CLRF   03
05A42:  MOVF   xB0,W
05A44:  ADDLW  89
05A46:  MOVWF  FE9
05A48:  MOVLW  00
05A4A:  ADDWFC 03,W
05A4C:  MOVWF  FEA
05A4E:  CLRF   FEF
....................    } 
05A50:  INCF   xB0,F
05A52:  BRA    5A3A
....................    setup_timer_0(RTCC_8_BIT|RTCC_DIV_1); 
05A54:  MOVLW  C8
05A56:  MOVWF  FD5
....................    enable_interrupts(INT_TIMER0); 
05A58:  BSF    FF2.5
....................    setup_timer_1(T1_INTERNAL|T1_DIV_BY_1); 
05A5A:  MOVLW  85
05A5C:  MOVWF  FCD
....................    enable_interrupts(INT_TIMER1); 
05A5E:  BSF    F9D.0
....................    setup_adc_ports(AN0_TO_AN3); 
05A60:  MOVF   FC1,W
05A62:  ANDLW  C0
05A64:  IORLW  0B
05A66:  MOVWF  FC1
....................    setup_adc(ADC_CLOCK_DIV_32 ); 
05A68:  MOVF   FC0,W
05A6A:  ANDLW  C0
05A6C:  IORLW  02
05A6E:  MOVWF  FC0
05A70:  BSF    FC0.7
05A72:  BSF    FC2.0
....................    port_b_pullups(true); 
05A74:  BCF    FF1.7
....................    enable_interrupts(int_rda); 
05A76:  BSF    F9D.5
....................    setup_wdt(WDT_ON); 
05A78:  BSF    FD1.0
....................    enable_interrupts(global); 
05A7A:  MOVLW  C0
05A7C:  IORWF  FF2,F
....................    LeeEEPROM(); 
05A7E:  GOTO   2058
....................    rtc_init(); 
05A82:  GOTO   290C
....................    delay_ms(1); 
05A86:  MOVLW  01
05A88:  MOVLB  3
05A8A:  MOVWF  xC8
05A8C:  MOVLB  0
05A8E:  CALL   1C24
....................    LimitaValores(); 
05A92:  GOTO   2A26
....................    CalculoImpresion=timpresion*60; 
05A96:  MOVLB  3
05A98:  MOVF   x6D,W
05A9A:  MULLW  3C
05A9C:  MOVFF  FF3,36E
....................    printf("page Bienvenida"); 
05AA0:  MOVLW  DC
05AA2:  MOVWF  FF6
05AA4:  MOVLW  03
05AA6:  MOVWF  FF7
05AA8:  MOVLW  00
05AAA:  MOVWF  FF8
05AAC:  MOVLB  0
05AAE:  CALL   3510
....................    SendDataDisplay(); 
05AB2:  CALL   3542
....................    printf("bkcmd=0"); 
05AB6:  MOVLW  EC
05AB8:  MOVWF  FF6
05ABA:  MOVLW  03
05ABC:  MOVWF  FF7
05ABE:  MOVLW  00
05AC0:  MOVWF  FF8
05AC2:  CALL   3510
....................    SendDataDisplay(); 
05AC6:  CALL   3542
....................    delay_ms(1500); 
05ACA:  MOVLW  06
05ACC:  MOVLB  3
05ACE:  MOVWF  xBD
05AD0:  MOVLW  FA
05AD2:  MOVWF  xC8
05AD4:  MOVLB  0
05AD6:  CALL   1C24
05ADA:  MOVLB  3
05ADC:  DECFSZ xBD,F
05ADE:  BRA    5AD0
....................    printf("page Clave"); 
05AE0:  MOVLW  F4
05AE2:  MOVWF  FF6
05AE4:  MOVLW  03
05AE6:  MOVWF  FF7
05AE8:  MOVLW  00
05AEA:  MOVWF  FF8
05AEC:  MOVLB  0
05AEE:  CALL   3510
....................    SendDataDisplay(); 
05AF2:  CALL   3542
....................    ApagaSalidas(); 
05AF6:  CALL   3578
....................     
....................    for(i=0;i<MediaMovil;i++){ 
05AFA:  MOVLB  3
05AFC:  CLRF   x77
05AFE:  MOVF   x11,W
05B00:  SUBWF  x77,W
05B02:  BC    5B24
....................       Temperatura=LeerPT100(MediaMovil); 
05B04:  MOVFF  311,3BD
05B08:  MOVLB  0
05B0A:  CALL   3708
05B0E:  MOVFF  03,356
05B12:  MOVFF  02,355
05B16:  MOVFF  01,354
05B1A:  MOVFF  00,353
....................    } 
05B1E:  MOVLB  3
05B20:  INCF   x77,F
05B22:  BRA    5AFE
....................     
....................    if(UP && DOWN && RIGHT && LEFT)//Si oprime boton de Toma. 
05B24:  BSF    F93.6
05B26:  BTFSC  F81.6
05B28:  BRA    5BB0
05B2A:  BSF    F93.5
05B2C:  BTFSC  F81.5
05B2E:  BRA    5BB0
05B30:  BSF    F93.4
05B32:  BTFSC  F81.4
05B34:  BRA    5BB0
05B36:  BSF    F93.3
05B38:  BTFSC  F81.3
05B3A:  BRA    5BB0
....................    { 
....................       write_eeprom(37,0); 
05B3C:  CLRF   FAA
05B3E:  MOVLW  25
05B40:  MOVWF  FA9
05B42:  CLRF   FA8
05B44:  BCF    FA6.6
05B46:  BCF    FA6.7
05B48:  BSF    FA6.2
05B4A:  MOVF   FF2,W
05B4C:  MOVWF  00
05B4E:  BCF    FF2.6
05B50:  BCF    FF2.7
05B52:  MOVLB  F
05B54:  MOVLW  55
05B56:  MOVWF  FA7
05B58:  MOVLW  AA
05B5A:  MOVWF  FA7
05B5C:  BSF    FA6.1
05B5E:  BTFSC  FA6.1
05B60:  BRA    5B5E
05B62:  BCF    FA6.2
05B64:  MOVF   00,W
05B66:  IORWF  FF2,F
....................       delay_ms(20); 
05B68:  MOVLW  14
05B6A:  MOVLB  3
05B6C:  MOVWF  xC8
05B6E:  MOVLB  0
05B70:  CALL   1C24
....................       write_eeprom(38,0); 
05B74:  CLRF   FAA
05B76:  MOVLW  26
05B78:  MOVWF  FA9
05B7A:  CLRF   FA8
05B7C:  BCF    FA6.6
05B7E:  BCF    FA6.7
05B80:  BSF    FA6.2
05B82:  MOVF   FF2,W
05B84:  MOVWF  00
05B86:  BCF    FF2.6
05B88:  BCF    FF2.7
05B8A:  MOVLB  F
05B8C:  MOVLW  55
05B8E:  MOVWF  FA7
05B90:  MOVLW  AA
05B92:  MOVWF  FA7
05B94:  BSF    FA6.1
05B96:  BTFSC  FA6.1
05B98:  BRA    5B96
05B9A:  BCF    FA6.2
05B9C:  MOVF   00,W
05B9E:  IORWF  FF2,F
....................       delay_ms(20); 
05BA0:  MOVLW  14
05BA2:  MOVLB  3
05BA4:  MOVWF  xC8
05BA6:  MOVLB  0
05BA8:  CALL   1C24
....................       reset_cpu(); 
05BAC:  RESET
05BAE:  MOVLB  3
....................    } 
....................     
....................    while(true) 
....................    { 
....................       LogicaPuertas(); 
05BB0:  MOVLB  0
05BB2:  GOTO   3BF2
....................       LeeDisplay(); 
05BB6:  GOTO   3C62
....................       Envio_Esclavos(); 
05BBA:  CALL   4014
....................       delay_ms(1); 
05BBE:  MOVLW  01
05BC0:  MOVLB  3
05BC2:  MOVWF  xC8
05BC4:  MOVLB  0
05BC6:  CALL   1C24
....................       Lectura_Esclavos(); 
05BCA:  GOTO   0004
....................       restart_wdt(); 
05BCE:  CLRWDT
....................  
....................       // Monitoreo Nivel de Agua//-------------------------------------- 
....................             if(!LOW){//Si no sensa agua en el nivel alto y no se ha llenado el calderin          
05BD0:  BSF    F96.0
05BD2:  BTFSC  F84.0
05BD4:  BRA    5BE4
....................                TiempoSensadoNivel=0; 
05BD6:  CLRF   xD8
05BD8:  CLRF   xD7
....................                Controlando=0;    
05BDA:  MOVLB  3
05BDC:  CLRF   x6B
....................                CalderinLleno=OFF; 
05BDE:  MOVLB  0
05BE0:  BCF    xC9.7
....................             } else{ 
05BE2:  BRA    5C04
....................                if(HIG){ 
05BE4:  BSF    F92.5
05BE6:  BTFSS  F80.5
05BE8:  BRA    5BFE
....................                   SensadoNivel=ON; 
05BEA:  BSF    xCA.3
....................                   if(TiempoSensadoNivel>10) 
05BEC:  MOVF   xD8,F
05BEE:  BNZ   5BF6
05BF0:  MOVF   xD7,W
05BF2:  SUBLW  0A
05BF4:  BC    5BFC
....................                   { 
....................                      SensadoNivel=OFF; 
05BF6:  BCF    xCA.3
....................                      CalderinLleno=ON; 
05BF8:  BSF    xC9.7
....................                      IniciaLlenado=OFF;                   
05BFA:  BCF    xC9.6
....................                   } 
....................                }else{ 
05BFC:  BRA    5C04
....................                   SensadoNivel=OFF; 
05BFE:  BCF    xCA.3
....................                   TiempoSensadoNivel=0; 
05C00:  CLRF   xD8
05C02:  CLRF   xD7
....................                } 
....................             } 
.................... // Tiempo de Grafica//-------------------------------------- 
....................       if(tiempos2>=4000){ 
05C04:  MOVLB  3
05C06:  MOVF   x84,W
05C08:  SUBLW  0E
05C0A:  BC    5C20
05C0C:  XORLW  FF
05C0E:  BNZ   5C16
05C10:  MOVF   x83,W
05C12:  SUBLW  9F
05C14:  BC    5C20
....................          Grafica=1; 
05C16:  MOVLB  0
05C18:  BSF    xCE.4
....................          tiempos2=0; 
05C1A:  MOVLB  3
05C1C:  CLRF   x84
05C1E:  CLRF   x83
....................       } 
....................  
.................... // Tiempo de Muestreo//-------------------------------------- 
....................       if(tiempos3>=20){ 
05C20:  MOVF   x86,F
05C22:  BNZ   5C2C
05C24:  MOVF   x85,W
05C26:  SUBLW  13
05C28:  BTFSC  FD8.0
05C2A:  BRA    5D60
....................          Temperatura=LeerPt100(MediaMovil); 
05C2C:  MOVFF  311,3BD
05C30:  MOVLB  0
05C32:  CALL   3708
05C36:  MOVFF  03,356
05C3A:  MOVFF  02,355
05C3E:  MOVFF  01,354
05C42:  MOVFF  00,353
....................          PresionCamara=Leer_Sensor_Presion_Camara(5); 
05C46:  MOVLW  05
05C48:  MOVLB  3
05C4A:  MOVWF  xBD
05C4C:  MOVLB  0
05C4E:  GOTO   40A4
05C52:  MOVFF  03,3CB
05C56:  MOVFF  02,3CA
05C5A:  MOVFF  01,3C9
05C5E:  MOVFF  00,3C8
05C62:  CALL   3D9A
05C66:  MOVFF  02,38E
05C6A:  MOVFF  01,38D
....................          PresionPreCamara=Leer_Sensor_Presion_PreCamara(5); 
05C6E:  MOVLW  05
05C70:  MOVLB  3
05C72:  MOVWF  xBD
05C74:  MOVLB  0
05C76:  GOTO   42E0
05C7A:  MOVFF  03,3CB
05C7E:  MOVFF  02,3CA
05C82:  MOVFF  01,3C9
05C86:  MOVFF  00,3C8
05C8A:  CALL   3D9A
05C8E:  MOVFF  02,390
05C92:  MOVFF  01,38F
....................          rtc_get_date(Dia,Mes,Year,dow); 
....................          rtc_get_time(Hora,Minuto,Segundo); 
....................          tiempos3=0; 
*
05D5A:  MOVLB  3
05D5C:  CLRF   x86
05D5E:  CLRF   x85
....................       } 
....................        
.................... // Monitoreo Parada Emergencia//--------------------------------------       
....................       if(!STOP && !IniciaCiclo && !PruebaEstados){ 
05D60:  BSF    F93.1
05D62:  BTFSS  F81.1
05D64:  BRA    5DC4
05D66:  MOVLB  0
05D68:  BTFSS  xCA.0
05D6A:  BRA    5D70
05D6C:  MOVLB  3
05D6E:  BRA    5DC4
05D70:  BTFSS  xCB.1
05D72:  BRA    5D78
05D74:  MOVLB  3
05D76:  BRA    5DC4
....................          if(!disp_Stop) 
05D78:  BTFSC  xCE.5
05D7A:  BRA    5D84
....................          { 
....................             disp_Stop=1;Menu=255; 
05D7C:  BSF    xCE.5
05D7E:  MOVLW  FF
05D80:  MOVLB  3
05D82:  MOVWF  x74
....................          } 
....................          Controlando=0; 
05D84:  MOVLB  3
05D86:  CLRF   x6B
....................          Desfogue_on; 
05D88:  BCF    F8C.2
05D8A:  BCF    F95.2
....................          AguaIn_off; 
05D8C:  BSF    F8C.4
05D8E:  BCF    F95.4
....................          SSR_off; 
05D90:  BSF    F8B.1
05D92:  BCF    F94.1
....................          Paso_off; 
05D94:  BSF    F8C.3
05D96:  BCF    F95.3
....................          DesfogueSuave=OFF; 
05D98:  MOVLB  0
05D9A:  BCF    xCA.5
....................          printf("page Emergencia"); 
05D9C:  MOVLW  00
05D9E:  MOVWF  FF6
05DA0:  MOVLW  04
05DA2:  MOVWF  FF7
05DA4:  MOVLW  00
05DA6:  MOVWF  FF8
05DA8:  CALL   3510
....................          SendDataDisplay(); 
05DAC:  CALL   3542
....................          ActivaAlarma(1); 
05DB0:  MOVLW  01
05DB2:  MOVLB  3
05DB4:  MOVWF  xBD
05DB6:  MOVLB  0
05DB8:  CALL   454E
....................          BorraBuffer(); 
05DBC:  GOTO   461E
....................       }else{ 
05DC0:  BRA    5DCC
05DC2:  MOVLB  3
....................          if(disp_Stop){ 
05DC4:  MOVLB  0
05DC6:  BTFSS  xCE.5
05DC8:  BRA    5DCC
....................             reset_cpu(); 
05DCA:  RESET
....................          } 
....................       }            
....................    //Buzzer_off;    
.................... //_-------------------------------------------------------------------------------------------------------------------------------------------------------- 
....................    if(Menu==240){ //Menu de Bienvenida. 
05DCC:  MOVLB  3
05DCE:  MOVF   x74,W
05DD0:  SUBLW  F0
05DD2:  BNZ   5E1C
....................       printf("bkcmd=0"); 
05DD4:  MOVLW  10
05DD6:  MOVWF  FF6
05DD8:  MOVLW  04
05DDA:  MOVWF  FF7
05DDC:  MOVLW  00
05DDE:  MOVWF  FF8
05DE0:  MOVLB  0
05DE2:  CALL   3510
....................       SendDataDisplay(); 
05DE6:  CALL   3542
....................       delay_ms(1500); 
05DEA:  MOVLW  06
05DEC:  MOVLB  3
05DEE:  MOVWF  xBD
05DF0:  MOVLW  FA
05DF2:  MOVWF  xC8
05DF4:  MOVLB  0
05DF6:  CALL   1C24
05DFA:  MOVLB  3
05DFC:  DECFSZ xBD,F
05DFE:  BRA    5DF0
....................       printf("page Clave"); 
05E00:  MOVLW  18
05E02:  MOVWF  FF6
05E04:  MOVLW  04
05E06:  MOVWF  FF7
05E08:  MOVLW  00
05E0A:  MOVWF  FF8
05E0C:  MOVLB  0
05E0E:  CALL   3510
....................       SendDataDisplay(); 
05E12:  CALL   3542
....................       ApagaSalidas(); 
05E16:  CALL   3578
05E1A:  MOVLB  3
....................    } 
.................... //_-------------------------------------------------------------------------------------------------------------------------------------------------------- 
....................  
.................... //_-------------------------------------------------------------------------------------------------------------------------------------------------------- 
....................     if(Menu==0){ //Menu de Contrasea de acceso. 
05E1C:  MOVF   x74,F
05E1E:  BTFSS  FD8.2
05E20:  GOTO   6816
....................       ApagaSalidas(); 
05E24:  MOVLB  0
05E26:  CALL   3578
....................       //printf("bkcmd=0"); 
....................       //SendDataDisplay(); 
....................       if(Digito==1){ 
05E2A:  MOVLB  3
05E2C:  DECFSZ x16,W
05E2E:  BRA    5E78
....................          printf("t0.txt=\"%u\"",Contrasena[0]); 
05E30:  MOVLW  24
05E32:  MOVWF  FF6
05E34:  MOVLW  04
05E36:  MOVWF  FF7
05E38:  MOVLW  00
05E3A:  MOVWF  FF8
05E3C:  MOVLW  08
05E3E:  MOVWF  xC1
05E40:  MOVLB  0
05E42:  CALL   464A
05E46:  MOVFF  395,3BE
05E4A:  MOVLW  1B
05E4C:  MOVLB  3
05E4E:  MOVWF  xBF
05E50:  MOVLB  0
05E52:  CALL   46A8
05E56:  MOVLW  22
05E58:  BTFSS  F9E.4
05E5A:  BRA    5E58
05E5C:  MOVWF  FAD
....................          SendDataDisplay(); 
05E5E:  CALL   3542
....................          printf("va0.val=1"); 
05E62:  MOVLW  30
05E64:  MOVWF  FF6
05E66:  MOVLW  04
05E68:  MOVWF  FF7
05E6A:  MOVLW  00
05E6C:  MOVWF  FF8
05E6E:  CALL   3510
....................          SendDataDisplay(); 
05E72:  CALL   3542
05E76:  MOVLB  3
....................       } 
....................        
....................       if(Digito==2){ 
05E78:  MOVF   x16,W
05E7A:  SUBLW  02
05E7C:  BNZ   5ED6
....................          printf("t0.txt=\"%u%u\"",Contrasena[0],Contrasena[1]); 
05E7E:  MOVLW  3A
05E80:  MOVWF  FF6
05E82:  MOVLW  04
05E84:  MOVWF  FF7
05E86:  MOVLW  00
05E88:  MOVWF  FF8
05E8A:  MOVLW  08
05E8C:  MOVWF  xC1
05E8E:  MOVLB  0
05E90:  CALL   464A
05E94:  MOVFF  395,3BE
05E98:  MOVLW  1B
05E9A:  MOVLB  3
05E9C:  MOVWF  xBF
05E9E:  MOVLB  0
05EA0:  CALL   46A8
05EA4:  MOVFF  396,3BE
05EA8:  MOVLW  1B
05EAA:  MOVLB  3
05EAC:  MOVWF  xBF
05EAE:  MOVLB  0
05EB0:  CALL   46A8
05EB4:  MOVLW  22
05EB6:  BTFSS  F9E.4
05EB8:  BRA    5EB6
05EBA:  MOVWF  FAD
....................          SendDataDisplay(); 
05EBC:  CALL   3542
....................          printf("va0.val=2"); 
05EC0:  MOVLW  48
05EC2:  MOVWF  FF6
05EC4:  MOVLW  04
05EC6:  MOVWF  FF7
05EC8:  MOVLW  00
05ECA:  MOVWF  FF8
05ECC:  CALL   3510
....................          SendDataDisplay(); 
05ED0:  CALL   3542
05ED4:  MOVLB  3
....................       } 
....................        
....................       if(Digito==3){ 
05ED6:  MOVF   x16,W
05ED8:  SUBLW  03
05EDA:  BNZ   5F44
....................          printf("t0.txt=\"%u%u%u\"",Contrasena[0],Contrasena[1],Contrasena[2]); 
05EDC:  MOVLW  52
05EDE:  MOVWF  FF6
05EE0:  MOVLW  04
05EE2:  MOVWF  FF7
05EE4:  MOVLW  00
05EE6:  MOVWF  FF8
05EE8:  MOVLW  08
05EEA:  MOVWF  xC1
05EEC:  MOVLB  0
05EEE:  CALL   464A
05EF2:  MOVFF  395,3BE
05EF6:  MOVLW  1B
05EF8:  MOVLB  3
05EFA:  MOVWF  xBF
05EFC:  MOVLB  0
05EFE:  CALL   46A8
05F02:  MOVFF  396,3BE
05F06:  MOVLW  1B
05F08:  MOVLB  3
05F0A:  MOVWF  xBF
05F0C:  MOVLB  0
05F0E:  CALL   46A8
05F12:  MOVFF  397,3BE
05F16:  MOVLW  1B
05F18:  MOVLB  3
05F1A:  MOVWF  xBF
05F1C:  MOVLB  0
05F1E:  CALL   46A8
05F22:  MOVLW  22
05F24:  BTFSS  F9E.4
05F26:  BRA    5F24
05F28:  MOVWF  FAD
....................          SendDataDisplay(); 
05F2A:  CALL   3542
....................          printf("va0.val=3"); 
05F2E:  MOVLW  62
05F30:  MOVWF  FF6
05F32:  MOVLW  04
05F34:  MOVWF  FF7
05F36:  MOVLW  00
05F38:  MOVWF  FF8
05F3A:  CALL   3510
....................          SendDataDisplay(); 
05F3E:  CALL   3542
05F42:  MOVLB  3
....................       } 
....................        
....................       if(Digito==4){ 
05F44:  MOVF   x16,W
05F46:  SUBLW  04
05F48:  BNZ   5FC2
....................          printf("t0.txt=\"%u%u%u%u\"",Contrasena[0],Contrasena[1],Contrasena[2],Contrasena[3]); 
05F4A:  MOVLW  6C
05F4C:  MOVWF  FF6
05F4E:  MOVLW  04
05F50:  MOVWF  FF7
05F52:  MOVLW  00
05F54:  MOVWF  FF8
05F56:  MOVLW  08
05F58:  MOVWF  xC1
05F5A:  MOVLB  0
05F5C:  CALL   464A
05F60:  MOVFF  395,3BE
05F64:  MOVLW  1B
05F66:  MOVLB  3
05F68:  MOVWF  xBF
05F6A:  MOVLB  0
05F6C:  CALL   46A8
05F70:  MOVFF  396,3BE
05F74:  MOVLW  1B
05F76:  MOVLB  3
05F78:  MOVWF  xBF
05F7A:  MOVLB  0
05F7C:  CALL   46A8
05F80:  MOVFF  397,3BE
05F84:  MOVLW  1B
05F86:  MOVLB  3
05F88:  MOVWF  xBF
05F8A:  MOVLB  0
05F8C:  CALL   46A8
05F90:  MOVFF  398,3BE
05F94:  MOVLW  1B
05F96:  MOVLB  3
05F98:  MOVWF  xBF
05F9A:  MOVLB  0
05F9C:  CALL   46A8
05FA0:  MOVLW  22
05FA2:  BTFSS  F9E.4
05FA4:  BRA    5FA2
05FA6:  MOVWF  FAD
....................          SendDataDisplay(); 
05FA8:  CALL   3542
....................          printf("va0.val=4"); 
05FAC:  MOVLW  7E
05FAE:  MOVWF  FF6
05FB0:  MOVLW  04
05FB2:  MOVWF  FF7
05FB4:  MOVLW  00
05FB6:  MOVWF  FF8
05FB8:  CALL   3510
....................          SendDataDisplay(); 
05FBC:  CALL   3542
05FC0:  MOVLB  3
....................       } 
....................        
....................       if(UP){ 
05FC2:  BSF    F93.6
05FC4:  BTFSC  F81.6
05FC6:  BRA    600E
....................          delay_ms(200); 
05FC8:  MOVLW  C8
05FCA:  MOVWF  xC8
05FCC:  MOVLB  0
05FCE:  CALL   1C24
....................          if(UP){ 
05FD2:  BSF    F93.6
05FD4:  BTFSC  F81.6
05FD6:  BRA    6010
....................          if(Digito==0) 
05FD8:  MOVLB  3
05FDA:  MOVF   x16,F
05FDC:  BNZ   5FE2
....................             Digito=1; 
05FDE:  MOVLW  01
05FE0:  MOVWF  x16
....................             if(Contrasena[Digito-1]<9) 
05FE2:  MOVLW  01
05FE4:  SUBWF  x16,W
05FE6:  CLRF   03
05FE8:  ADDLW  95
05FEA:  MOVWF  FE9
05FEC:  MOVLW  03
05FEE:  ADDWFC 03,W
05FF0:  MOVWF  FEA
05FF2:  BTFSC  FEF.7
05FF4:  BRA    5FFC
05FF6:  MOVF   FEF,W
05FF8:  SUBLW  08
05FFA:  BNC   600E
....................                Contrasena[Digito-1]++; 
05FFC:  MOVLW  01
05FFE:  SUBWF  x16,W
06000:  CLRF   03
06002:  ADDLW  95
06004:  MOVWF  FE9
06006:  MOVLW  03
06008:  ADDWFC 03,W
0600A:  MOVWF  FEA
0600C:  INCF   FEF,F
0600E:  MOVLB  0
....................          } 
....................       } 
....................        
....................       if(DOWN){ 
06010:  BSF    F93.5
06012:  BTFSC  F81.5
06014:  BRA    6060
....................          delay_ms(200); 
06016:  MOVLW  C8
06018:  MOVLB  3
0601A:  MOVWF  xC8
0601C:  MOVLB  0
0601E:  CALL   1C24
....................          if(Digito==0) 
06022:  MOVLB  3
06024:  MOVF   x16,F
06026:  BNZ   602C
....................             Digito=1; 
06028:  MOVLW  01
0602A:  MOVWF  x16
....................          if(DOWN){ 
0602C:  BSF    F93.5
0602E:  BTFSC  F81.5
06030:  BRA    605E
....................             if(Contrasena[Digito-1]>0) 
06032:  MOVLW  01
06034:  SUBWF  x16,W
06036:  CLRF   03
06038:  ADDLW  95
0603A:  MOVWF  FE9
0603C:  MOVLW  03
0603E:  ADDWFC 03,W
06040:  MOVWF  FEA
06042:  BTFSC  FEF.7
06044:  BRA    605E
06046:  MOVF   FEF,W
06048:  SUBLW  00
0604A:  BC    605E
....................                Contrasena[Digito-1]--; 
0604C:  MOVLW  01
0604E:  SUBWF  x16,W
06050:  CLRF   03
06052:  ADDLW  95
06054:  MOVWF  FE9
06056:  MOVLW  03
06058:  ADDWFC 03,W
0605A:  MOVWF  FEA
0605C:  DECF   FEF,F
0605E:  MOVLB  0
....................          } 
....................       } 
....................        
....................       if(RIGHT){ 
06060:  BSF    F93.4
06062:  BTFSC  F81.4
06064:  BRA    607E
....................          delay_ms(200); 
06066:  MOVLW  C8
06068:  MOVLB  3
0606A:  MOVWF  xC8
0606C:  MOVLB  0
0606E:  CALL   1C24
....................          if(RIGHT){ 
06072:  BSF    F93.4
06074:  BTFSC  F81.4
06076:  BRA    607E
....................             Digito++; 
06078:  MOVLB  3
0607A:  INCF   x16,F
0607C:  MOVLB  0
....................          } 
....................       } 
....................        
....................       if(Digito>4){ 
0607E:  MOVLB  3
06080:  MOVF   x16,W
06082:  SUBLW  04
06084:  BTFSC  FD8.0
06086:  BRA    63D0
....................       Digito=0; 
06088:  CLRF   x16
....................       printf("t0.txt=\"\""); 
0608A:  MOVLW  88
0608C:  MOVWF  FF6
0608E:  MOVLW  04
06090:  MOVWF  FF7
06092:  MOVLW  00
06094:  MOVWF  FF8
06096:  MOVLB  0
06098:  CALL   3510
....................       SendDataDisplay(); 
0609C:  CALL   3542
....................          if(TipoClave==0){ 
060A0:  MOVLB  3
060A2:  MOVF   x14,F
060A4:  BTFSS  FD8.2
060A6:  BRA    61F4
....................             if(Contrasena[0]==3&&Contrasena[1]==8&&Contrasena[2]==9&&Contrasena[3]==2){ // Si Ingresa clave para reset general del sistema. 
060A8:  MOVF   x95,W
060AA:  SUBLW  03
060AC:  BTFSS  FD8.2
060AE:  BRA    61A8
060B0:  MOVF   x96,W
060B2:  SUBLW  08
060B4:  BTFSS  FD8.2
060B6:  BRA    61A8
060B8:  MOVF   x97,W
060BA:  SUBLW  09
060BC:  BNZ   61A8
060BE:  MOVF   x98,W
060C0:  SUBLW  02
060C2:  BNZ   61A8
....................                write_eeprom(10,0);delay_ms(20);write_eeprom(11,0);delay_ms(20);// Reestablece a contrasea de Fabrica y reinicia Programa. 
060C4:  CLRF   FAA
060C6:  MOVLW  0A
060C8:  MOVWF  FA9
060CA:  CLRF   FA8
060CC:  BCF    FA6.6
060CE:  BCF    FA6.7
060D0:  BSF    FA6.2
060D2:  MOVF   FF2,W
060D4:  MOVWF  00
060D6:  BCF    FF2.6
060D8:  BCF    FF2.7
060DA:  MOVLB  F
060DC:  MOVLW  55
060DE:  MOVWF  FA7
060E0:  MOVLW  AA
060E2:  MOVWF  FA7
060E4:  BSF    FA6.1
060E6:  BTFSC  FA6.1
060E8:  BRA    60E6
060EA:  BCF    FA6.2
060EC:  MOVF   00,W
060EE:  IORWF  FF2,F
060F0:  MOVLW  14
060F2:  MOVLB  3
060F4:  MOVWF  xC8
060F6:  MOVLB  0
060F8:  CALL   1C24
060FC:  CLRF   FAA
060FE:  MOVLW  0B
06100:  MOVWF  FA9
06102:  CLRF   FA8
06104:  BCF    FA6.6
06106:  BCF    FA6.7
06108:  BSF    FA6.2
0610A:  MOVF   FF2,W
0610C:  MOVWF  00
0610E:  BCF    FF2.6
06110:  BCF    FF2.7
06112:  MOVLB  F
06114:  MOVLW  55
06116:  MOVWF  FA7
06118:  MOVLW  AA
0611A:  MOVWF  FA7
0611C:  BSF    FA6.1
0611E:  BTFSC  FA6.1
06120:  BRA    611E
06122:  BCF    FA6.2
06124:  MOVF   00,W
06126:  IORWF  FF2,F
06128:  MOVLW  14
0612A:  MOVLB  3
0612C:  MOVWF  xC8
0612E:  MOVLB  0
06130:  CALL   1C24
....................                write_eeprom(12,0);delay_ms(20);write_eeprom(13,0);delay_ms(20); 
06134:  CLRF   FAA
06136:  MOVLW  0C
06138:  MOVWF  FA9
0613A:  CLRF   FA8
0613C:  BCF    FA6.6
0613E:  BCF    FA6.7
06140:  BSF    FA6.2
06142:  MOVF   FF2,W
06144:  MOVWF  00
06146:  BCF    FF2.6
06148:  BCF    FF2.7
0614A:  MOVLB  F
0614C:  MOVLW  55
0614E:  MOVWF  FA7
06150:  MOVLW  AA
06152:  MOVWF  FA7
06154:  BSF    FA6.1
06156:  BTFSC  FA6.1
06158:  BRA    6156
0615A:  BCF    FA6.2
0615C:  MOVF   00,W
0615E:  IORWF  FF2,F
06160:  MOVLW  14
06162:  MOVLB  3
06164:  MOVWF  xC8
06166:  MOVLB  0
06168:  CALL   1C24
0616C:  CLRF   FAA
0616E:  MOVLW  0D
06170:  MOVWF  FA9
06172:  CLRF   FA8
06174:  BCF    FA6.6
06176:  BCF    FA6.7
06178:  BSF    FA6.2
0617A:  MOVF   FF2,W
0617C:  MOVWF  00
0617E:  BCF    FF2.6
06180:  BCF    FF2.7
06182:  MOVLB  F
06184:  MOVLW  55
06186:  MOVWF  FA7
06188:  MOVLW  AA
0618A:  MOVWF  FA7
0618C:  BSF    FA6.1
0618E:  BTFSC  FA6.1
06190:  BRA    618E
06192:  BCF    FA6.2
06194:  MOVF   00,W
06196:  IORWF  FF2,F
06198:  MOVLW  14
0619A:  MOVLB  3
0619C:  MOVWF  xC8
0619E:  MOVLB  0
061A0:  CALL   1C24
....................                reset_cpu(); 
061A4:  RESET
061A6:  MOVLB  3
....................             } 
....................              
....................             if((Contrasena[0]==Password[0])&&(Contrasena[1]==Password[1])&&(Contrasena[2]==Password[2])&&(Contrasena[3]==Password[3])){ 
061A8:  MOVF   x99,W
061AA:  SUBWF  x95,W
061AC:  BNZ   61DA
061AE:  MOVF   x9A,W
061B0:  SUBWF  x96,W
061B2:  BNZ   61DA
061B4:  MOVF   x9B,W
061B6:  SUBWF  x97,W
061B8:  BNZ   61DA
061BA:  MOVF   x9C,W
061BC:  SUBWF  x98,W
061BE:  BNZ   61DA
....................                //BorraBuffer(); 
....................                printf("page MenuPrincipal"); 
061C0:  MOVLW  92
061C2:  MOVWF  FF6
061C4:  MOVLW  04
061C6:  MOVWF  FF7
061C8:  MOVLW  00
061CA:  MOVWF  FF8
061CC:  MOVLB  0
061CE:  CALL   3510
....................                SendDataDisplay(); 
061D2:  CALL   3542
....................             }else{ 
061D6:  BRA    61F0
061D8:  MOVLB  3
....................                //BorraBuffer(); 
....................                printf("page Clave"); 
061DA:  MOVLW  A6
061DC:  MOVWF  FF6
061DE:  MOVLW  04
061E0:  MOVWF  FF7
061E2:  MOVLW  00
061E4:  MOVWF  FF8
061E6:  MOVLB  0
061E8:  CALL   3510
....................                SendDataDisplay(); 
061EC:  CALL   3542
....................             }  
....................          }else if(TipoClave==1){ 
061F0:  BRA    63CE
061F2:  MOVLB  3
061F4:  DECFSZ x14,W
061F6:  BRA    6244
....................             if(Contrasena[0]==4&&Contrasena[1]==4&&Contrasena[2]==4&&Contrasena[3]==4){ // Si Ingresa clave de Servicio Tecnico 
061F8:  MOVF   x95,W
061FA:  SUBLW  04
061FC:  BNZ   622A
061FE:  MOVF   x96,W
06200:  SUBLW  04
06202:  BNZ   622A
06204:  MOVF   x97,W
06206:  SUBLW  04
06208:  BNZ   622A
0620A:  MOVF   x98,W
0620C:  SUBLW  04
0620E:  BNZ   622A
....................                printf("page Config"); 
06210:  MOVLW  B2
06212:  MOVWF  FF6
06214:  MOVLW  04
06216:  MOVWF  FF7
06218:  MOVLW  00
0621A:  MOVWF  FF8
0621C:  MOVLB  0
0621E:  CALL   3510
....................                SendDataDisplay(); 
06222:  CALL   3542
....................             }else{ 
06226:  BRA    6240
06228:  MOVLB  3
....................                printf("page MenuPrincipal"); 
0622A:  MOVLW  BE
0622C:  MOVWF  FF6
0622E:  MOVLW  04
06230:  MOVWF  FF7
06232:  MOVLW  00
06234:  MOVWF  FF8
06236:  MOVLB  0
06238:  CALL   3510
....................                SendDataDisplay(); 
0623C:  CALL   3542
....................             } 
....................          }else if(TipoClave==2){ 
06240:  BRA    63CE
06242:  MOVLB  3
06244:  MOVF   x14,W
06246:  SUBLW  02
06248:  BNZ   62AE
....................             if((Contrasena[0]==Password[0])&&(Contrasena[1]==Password[1])&&(Contrasena[2]==Password[2])&&(Contrasena[3]==Password[3])){ 
0624A:  MOVF   x99,W
0624C:  SUBWF  x95,W
0624E:  BNZ   6294
06250:  MOVF   x9A,W
06252:  SUBWF  x96,W
06254:  BNZ   6294
06256:  MOVF   x9B,W
06258:  SUBWF  x97,W
0625A:  BNZ   6294
0625C:  MOVF   x9C,W
0625E:  SUBWF  x98,W
06260:  BNZ   6294
....................                printf("page Clave"); 
06262:  MOVLW  D2
06264:  MOVWF  FF6
06266:  MOVLW  04
06268:  MOVWF  FF7
0626A:  MOVLW  00
0626C:  MOVWF  FF8
0626E:  MOVLB  0
06270:  CALL   3510
....................                SendDataDisplay(); 
06274:  CALL   3542
....................                printf("titulo.txt=\"Clave Nueva\""); 
06278:  MOVLW  DE
0627A:  MOVWF  FF6
0627C:  MOVLW  04
0627E:  MOVWF  FF7
06280:  MOVLW  00
06282:  MOVWF  FF8
06284:  CALL   3510
....................                SendDataDisplay(); 
06288:  CALL   3542
....................                TipoClave=3; 
0628C:  MOVLW  03
0628E:  MOVLB  3
06290:  MOVWF  x14
....................             }else{ 
06292:  BRA    62AC
....................                printf("page MenuPrincipal"); 
06294:  MOVLW  F8
06296:  MOVWF  FF6
06298:  MOVLW  04
0629A:  MOVWF  FF7
0629C:  MOVLW  00
0629E:  MOVWF  FF8
062A0:  MOVLB  0
062A2:  CALL   3510
....................                SendDataDisplay(); 
062A6:  CALL   3542
062AA:  MOVLB  3
....................             }  
....................          }else if(TipoClave==3){ 
062AC:  BRA    63D0
062AE:  MOVF   x14,W
062B0:  SUBLW  03
062B2:  BTFSS  FD8.2
062B4:  BRA    63D0
....................             printf("titulo.txt=\"Clave Nueva\""); 
062B6:  MOVLW  0C
062B8:  MOVWF  FF6
062BA:  MOVLW  05
062BC:  MOVWF  FF7
062BE:  MOVLW  00
062C0:  MOVWF  FF8
062C2:  MOVLB  0
062C4:  CALL   3510
....................             SendDataDisplay(); 
062C8:  CALL   3542
....................             printf("page MenuPrincipal"); 
062CC:  MOVLW  26
062CE:  MOVWF  FF6
062D0:  MOVLW  05
062D2:  MOVWF  FF7
062D4:  MOVLW  00
062D6:  MOVWF  FF8
062D8:  CALL   3510
....................             SendDataDisplay(); 
062DC:  CALL   3542
....................             if(!GuardaEEPROM){ 
062E0:  BTFSC  xCC.3
062E2:  BRA    63CE
....................                write_eeprom(10,Contrasena[0]);delay_ms(20);write_eeprom(11,Contrasena[1]);delay_ms(20); 
062E4:  CLRF   FAA
062E6:  MOVLW  0A
062E8:  MOVWF  FA9
062EA:  MOVFF  395,FA8
062EE:  BCF    FA6.6
062F0:  BCF    FA6.7
062F2:  BSF    FA6.2
062F4:  MOVF   FF2,W
062F6:  MOVWF  00
062F8:  BCF    FF2.6
062FA:  BCF    FF2.7
062FC:  MOVLB  F
062FE:  MOVLW  55
06300:  MOVWF  FA7
06302:  MOVLW  AA
06304:  MOVWF  FA7
06306:  BSF    FA6.1
06308:  BTFSC  FA6.1
0630A:  BRA    6308
0630C:  BCF    FA6.2
0630E:  MOVF   00,W
06310:  IORWF  FF2,F
06312:  MOVLW  14
06314:  MOVLB  3
06316:  MOVWF  xC8
06318:  MOVLB  0
0631A:  CALL   1C24
0631E:  CLRF   FAA
06320:  MOVLW  0B
06322:  MOVWF  FA9
06324:  MOVFF  396,FA8
06328:  BCF    FA6.6
0632A:  BCF    FA6.7
0632C:  BSF    FA6.2
0632E:  MOVF   FF2,W
06330:  MOVWF  00
06332:  BCF    FF2.6
06334:  BCF    FF2.7
06336:  MOVLB  F
06338:  MOVLW  55
0633A:  MOVWF  FA7
0633C:  MOVLW  AA
0633E:  MOVWF  FA7
06340:  BSF    FA6.1
06342:  BTFSC  FA6.1
06344:  BRA    6342
06346:  BCF    FA6.2
06348:  MOVF   00,W
0634A:  IORWF  FF2,F
0634C:  MOVLW  14
0634E:  MOVLB  3
06350:  MOVWF  xC8
06352:  MOVLB  0
06354:  CALL   1C24
....................                write_eeprom(12,Contrasena[2]);delay_ms(20);write_eeprom(13,Contrasena[3]);delay_ms(20); 
06358:  CLRF   FAA
0635A:  MOVLW  0C
0635C:  MOVWF  FA9
0635E:  MOVFF  397,FA8
06362:  BCF    FA6.6
06364:  BCF    FA6.7
06366:  BSF    FA6.2
06368:  MOVF   FF2,W
0636A:  MOVWF  00
0636C:  BCF    FF2.6
0636E:  BCF    FF2.7
06370:  MOVLB  F
06372:  MOVLW  55
06374:  MOVWF  FA7
06376:  MOVLW  AA
06378:  MOVWF  FA7
0637A:  BSF    FA6.1
0637C:  BTFSC  FA6.1
0637E:  BRA    637C
06380:  BCF    FA6.2
06382:  MOVF   00,W
06384:  IORWF  FF2,F
06386:  MOVLW  14
06388:  MOVLB  3
0638A:  MOVWF  xC8
0638C:  MOVLB  0
0638E:  CALL   1C24
06392:  CLRF   FAA
06394:  MOVLW  0D
06396:  MOVWF  FA9
06398:  MOVFF  398,FA8
0639C:  BCF    FA6.6
0639E:  BCF    FA6.7
063A0:  BSF    FA6.2
063A2:  MOVF   FF2,W
063A4:  MOVWF  00
063A6:  BCF    FF2.6
063A8:  BCF    FF2.7
063AA:  MOVLB  F
063AC:  MOVLW  55
063AE:  MOVWF  FA7
063B0:  MOVLW  AA
063B2:  MOVWF  FA7
063B4:  BSF    FA6.1
063B6:  BTFSC  FA6.1
063B8:  BRA    63B6
063BA:  BCF    FA6.2
063BC:  MOVF   00,W
063BE:  IORWF  FF2,F
063C0:  MOVLW  14
063C2:  MOVLB  3
063C4:  MOVWF  xC8
063C6:  MOVLB  0
063C8:  CALL   1C24
....................                GuardaEEPROM=ON; 
063CC:  BSF    xCC.3
063CE:  MOVLB  3
....................             } 
....................          } 
....................       } 
....................        
....................       if(RX_Buffer[4]==0x11){//11 
063D0:  MOVF   34,W
063D2:  SUBLW  11
063D4:  BNZ   63F4
....................          if(TipoClave!=0){ 
063D6:  MOVF   x14,F
063D8:  BZ    63F4
....................             printf("page MenuPrincipal"); 
063DA:  MOVLW  3A
063DC:  MOVWF  FF6
063DE:  MOVLW  05
063E0:  MOVWF  FF7
063E2:  MOVLW  00
063E4:  MOVWF  FF8
063E6:  MOVLB  0
063E8:  CALL   3510
....................             SendDataDisplay(); 
063EC:  CALL   3542
....................             PantallaPrincipal=0; 
063F0:  MOVLB  3
063F2:  CLRF   x13
....................          } 
....................       } 
....................        
....................       if(TipoClave==3){ 
063F4:  MOVF   x14,W
063F6:  SUBLW  03
063F8:  BNZ   6426
....................          printf("titulo.txt=\"Clave Nueva\""); 
063FA:  MOVLW  4E
063FC:  MOVWF  FF6
063FE:  MOVLW  05
06400:  MOVWF  FF7
06402:  MOVLW  00
06404:  MOVWF  FF8
06406:  MOVLB  0
06408:  CALL   3510
....................          SendDataDisplay(); 
0640C:  CALL   3542
....................          printf("doevents"); 
06410:  MOVLW  68
06412:  MOVWF  FF6
06414:  MOVLW  05
06416:  MOVWF  FF7
06418:  MOVLW  00
0641A:  MOVWF  FF8
0641C:  CALL   3510
....................          SendDataDisplay(); 
06420:  CALL   3542
06424:  MOVLB  3
....................       } 
....................        
....................       if(TipoClave==2){ 
06426:  MOVF   x14,W
06428:  SUBLW  02
0642A:  BNZ   6458
....................          printf("titulo.txt=\"Clave Actual\""); 
0642C:  MOVLW  72
0642E:  MOVWF  FF6
06430:  MOVLW  05
06432:  MOVWF  FF7
06434:  MOVLW  00
06436:  MOVWF  FF8
06438:  MOVLB  0
0643A:  CALL   3510
....................          SendDataDisplay(); 
0643E:  CALL   3542
....................          printf("doevents"); 
06442:  MOVLW  8C
06444:  MOVWF  FF6
06446:  MOVLW  05
06448:  MOVWF  FF7
0644A:  MOVLW  00
0644C:  MOVWF  FF8
0644E:  CALL   3510
....................          SendDataDisplay(); 
06452:  CALL   3542
06456:  MOVLB  3
....................       } 
....................        
....................       if(TipoClave==1){ 
06458:  DECFSZ x14,W
0645A:  BRA    6488
....................          printf("titulo.txt=\"Clave Tecnico\""); 
0645C:  MOVLW  96
0645E:  MOVWF  FF6
06460:  MOVLW  05
06462:  MOVWF  FF7
06464:  MOVLW  00
06466:  MOVWF  FF8
06468:  MOVLB  0
0646A:  CALL   3510
....................          SendDataDisplay(); 
0646E:  CALL   3542
....................          printf("doevents"); 
06472:  MOVLW  B2
06474:  MOVWF  FF6
06476:  MOVLW  05
06478:  MOVWF  FF7
0647A:  MOVLW  00
0647C:  MOVWF  FF8
0647E:  CALL   3510
....................          SendDataDisplay(); 
06482:  CALL   3542
06486:  MOVLB  3
....................       } 
....................        
....................       if(TipoClave==0){ 
06488:  MOVF   x14,F
0648A:  BNZ   64A4
....................          printf("titulo.txt=\"Ingrese Contrasea\""); 
0648C:  MOVLW  BC
0648E:  MOVWF  FF6
06490:  MOVLW  05
06492:  MOVWF  FF7
06494:  MOVLW  00
06496:  MOVWF  FF8
06498:  MOVLB  0
0649A:  CALL   3510
....................          SendDataDisplay(); 
0649E:  CALL   3542
064A2:  MOVLB  3
....................       } 
....................       if(RX_Buffer[3]==0x0f){//0f, recibe caracteres ingresados desde el Display 
064A4:  MOVF   33,W
064A6:  SUBLW  0F
064A8:  BTFSS  FD8.2
064AA:  BRA    6816
....................           
....................          if(TipoClave==0){ 
064AC:  MOVF   x14,F
064AE:  BTFSS  FD8.2
064B0:  BRA    6606
....................             if(RX_Buffer[4]==0x33&&RX_Buffer[5]==0x38&&RX_Buffer[6]==0x39&&RX_Buffer[7]==0x32){ // Si Ingresa clave para reset general del sistema. 
064B2:  MOVF   34,W
064B4:  SUBLW  33
064B6:  BTFSS  FD8.2
064B8:  BRA    65B2
064BA:  MOVF   35,W
064BC:  SUBLW  38
064BE:  BTFSS  FD8.2
064C0:  BRA    65B2
064C2:  MOVF   36,W
064C4:  SUBLW  39
064C6:  BNZ   65B2
064C8:  MOVF   37,W
064CA:  SUBLW  32
064CC:  BNZ   65B2
....................                write_eeprom(10,0);delay_ms(20);write_eeprom(11,0);delay_ms(20);// Reestablece a contrasea de Fabrica y reinicia Programa. 
064CE:  CLRF   FAA
064D0:  MOVLW  0A
064D2:  MOVWF  FA9
064D4:  CLRF   FA8
064D6:  BCF    FA6.6
064D8:  BCF    FA6.7
064DA:  BSF    FA6.2
064DC:  MOVF   FF2,W
064DE:  MOVWF  00
064E0:  BCF    FF2.6
064E2:  BCF    FF2.7
064E4:  MOVLB  F
064E6:  MOVLW  55
064E8:  MOVWF  FA7
064EA:  MOVLW  AA
064EC:  MOVWF  FA7
064EE:  BSF    FA6.1
064F0:  BTFSC  FA6.1
064F2:  BRA    64F0
064F4:  BCF    FA6.2
064F6:  MOVF   00,W
064F8:  IORWF  FF2,F
064FA:  MOVLW  14
064FC:  MOVLB  3
064FE:  MOVWF  xC8
06500:  MOVLB  0
06502:  CALL   1C24
06506:  CLRF   FAA
06508:  MOVLW  0B
0650A:  MOVWF  FA9
0650C:  CLRF   FA8
0650E:  BCF    FA6.6
06510:  BCF    FA6.7
06512:  BSF    FA6.2
06514:  MOVF   FF2,W
06516:  MOVWF  00
06518:  BCF    FF2.6
0651A:  BCF    FF2.7
0651C:  MOVLB  F
0651E:  MOVLW  55
06520:  MOVWF  FA7
06522:  MOVLW  AA
06524:  MOVWF  FA7
06526:  BSF    FA6.1
06528:  BTFSC  FA6.1
0652A:  BRA    6528
0652C:  BCF    FA6.2
0652E:  MOVF   00,W
06530:  IORWF  FF2,F
06532:  MOVLW  14
06534:  MOVLB  3
06536:  MOVWF  xC8
06538:  MOVLB  0
0653A:  CALL   1C24
....................                write_eeprom(12,0);delay_ms(20);write_eeprom(13,0);delay_ms(20); 
0653E:  CLRF   FAA
06540:  MOVLW  0C
06542:  MOVWF  FA9
06544:  CLRF   FA8
06546:  BCF    FA6.6
06548:  BCF    FA6.7
0654A:  BSF    FA6.2
0654C:  MOVF   FF2,W
0654E:  MOVWF  00
06550:  BCF    FF2.6
06552:  BCF    FF2.7
06554:  MOVLB  F
06556:  MOVLW  55
06558:  MOVWF  FA7
0655A:  MOVLW  AA
0655C:  MOVWF  FA7
0655E:  BSF    FA6.1
06560:  BTFSC  FA6.1
06562:  BRA    6560
06564:  BCF    FA6.2
06566:  MOVF   00,W
06568:  IORWF  FF2,F
0656A:  MOVLW  14
0656C:  MOVLB  3
0656E:  MOVWF  xC8
06570:  MOVLB  0
06572:  CALL   1C24
06576:  CLRF   FAA
06578:  MOVLW  0D
0657A:  MOVWF  FA9
0657C:  CLRF   FA8
0657E:  BCF    FA6.6
06580:  BCF    FA6.7
06582:  BSF    FA6.2
06584:  MOVF   FF2,W
06586:  MOVWF  00
06588:  BCF    FF2.6
0658A:  BCF    FF2.7
0658C:  MOVLB  F
0658E:  MOVLW  55
06590:  MOVWF  FA7
06592:  MOVLW  AA
06594:  MOVWF  FA7
06596:  BSF    FA6.1
06598:  BTFSC  FA6.1
0659A:  BRA    6598
0659C:  BCF    FA6.2
0659E:  MOVF   00,W
065A0:  IORWF  FF2,F
065A2:  MOVLW  14
065A4:  MOVLB  3
065A6:  MOVWF  xC8
065A8:  MOVLB  0
065AA:  CALL   1C24
....................                reset_cpu(); 
065AE:  RESET
065B0:  MOVLB  3
....................             } 
....................              
....................             if((RX_Buffer[4]==Password[0]+0x30)&&(RX_Buffer[5]==Password[1]+0x30)&&(RX_Buffer[6]==Password[2]+0x30)&&(RX_Buffer[7]==Password[3]+0x30)){ 
065B2:  MOVLW  30
065B4:  ADDWF  x99,W
065B6:  SUBWF  34,W
065B8:  BNZ   65EC
065BA:  MOVLW  30
065BC:  ADDWF  x9A,W
065BE:  SUBWF  35,W
065C0:  BNZ   65EC
065C2:  MOVLW  30
065C4:  ADDWF  x9B,W
065C6:  SUBWF  36,W
065C8:  BNZ   65EC
065CA:  MOVLW  30
065CC:  ADDWF  x9C,W
065CE:  SUBWF  37,W
065D0:  BNZ   65EC
....................                //BorraBuffer(); 
....................                printf("page MenuPrincipal"); 
065D2:  MOVLW  DC
065D4:  MOVWF  FF6
065D6:  MOVLW  05
065D8:  MOVWF  FF7
065DA:  MOVLW  00
065DC:  MOVWF  FF8
065DE:  MOVLB  0
065E0:  CALL   3510
....................                SendDataDisplay(); 
065E4:  CALL   3542
....................             }else{ 
065E8:  BRA    6602
065EA:  MOVLB  3
....................                //BorraBuffer(); 
....................                printf("page Clave"); 
065EC:  MOVLW  F0
065EE:  MOVWF  FF6
065F0:  MOVLW  05
065F2:  MOVWF  FF7
065F4:  MOVLW  00
065F6:  MOVWF  FF8
065F8:  MOVLB  0
065FA:  CALL   3510
....................                SendDataDisplay(); 
065FE:  CALL   3542
....................             }  
....................          }else if(TipoClave==1){ 
06602:  BRA    6814
06604:  MOVLB  3
06606:  DECFSZ x14,W
06608:  BRA    6656
....................             if(RX_Buffer[4]==0x34&&RX_Buffer[5]==0x34&&RX_Buffer[6]==0x34&&RX_Buffer[7]==0x34){ // Si Ingresa clave de Servicio Tecnico 
0660A:  MOVF   34,W
0660C:  SUBLW  34
0660E:  BNZ   663C
06610:  MOVF   35,W
06612:  SUBLW  34
06614:  BNZ   663C
06616:  MOVF   36,W
06618:  SUBLW  34
0661A:  BNZ   663C
0661C:  MOVF   37,W
0661E:  SUBLW  34
06620:  BNZ   663C
....................                printf("page Config"); 
06622:  MOVLW  FC
06624:  MOVWF  FF6
06626:  MOVLW  05
06628:  MOVWF  FF7
0662A:  MOVLW  00
0662C:  MOVWF  FF8
0662E:  MOVLB  0
06630:  CALL   3510
....................                SendDataDisplay(); 
06634:  CALL   3542
....................             }else{ 
06638:  BRA    6652
0663A:  MOVLB  3
....................                printf("page MenuPrincipal"); 
0663C:  MOVLW  08
0663E:  MOVWF  FF6
06640:  MOVLW  06
06642:  MOVWF  FF7
06644:  MOVLW  00
06646:  MOVWF  FF8
06648:  MOVLB  0
0664A:  CALL   3510
....................                SendDataDisplay(); 
0664E:  CALL   3542
....................             } 
....................          }else if(TipoClave==2){ 
06652:  BRA    6814
06654:  MOVLB  3
06656:  MOVF   x14,W
06658:  SUBLW  02
0665A:  BNZ   66D0
....................             if((RX_Buffer[4]==Password[0]+0x30)&&(RX_Buffer[5]==Password[1]+0x30)&&(RX_Buffer[6]==Password[2]+0x30)&&(RX_Buffer[7]==Password[3]+0x30)){ 
0665C:  MOVLW  30
0665E:  ADDWF  x99,W
06660:  SUBWF  34,W
06662:  BNZ   66B2
06664:  MOVLW  30
06666:  ADDWF  x9A,W
06668:  SUBWF  35,W
0666A:  BNZ   66B2
0666C:  MOVLW  30
0666E:  ADDWF  x9B,W
06670:  SUBWF  36,W
06672:  BNZ   66B2
06674:  MOVLW  30
06676:  ADDWF  x9C,W
06678:  SUBWF  37,W
0667A:  BNZ   66B2
....................                printf("page Clave"); 
0667C:  MOVLW  1C
0667E:  MOVWF  FF6
06680:  MOVLW  06
06682:  MOVWF  FF7
06684:  MOVLW  00
06686:  MOVWF  FF8
06688:  MOVLB  0
0668A:  CALL   3510
....................                SendDataDisplay(); 
0668E:  CALL   3542
....................                printf("titulo.txt=\"Clave Nueva\""); 
06692:  MOVLW  28
06694:  MOVWF  FF6
06696:  MOVLW  06
06698:  MOVWF  FF7
0669A:  MOVLW  00
0669C:  MOVWF  FF8
0669E:  CALL   3510
....................                SendDataDisplay(); 
066A2:  CALL   3542
....................                TipoClave=3; 
066A6:  MOVLW  03
066A8:  MOVLB  3
066AA:  MOVWF  x14
....................                RX_Buffer[3]=0x00; 
066AC:  CLRF   33
....................                RX_Buffer2[3]=0x00; 
066AE:  CLRF   3E
....................             }else{ 
066B0:  BRA    66CE
....................                printf("page MenuPrincipal"); 
066B2:  MOVLW  42
066B4:  MOVWF  FF6
066B6:  MOVLW  06
066B8:  MOVWF  FF7
066BA:  MOVLW  00
066BC:  MOVWF  FF8
066BE:  MOVLB  0
066C0:  CALL   3510
....................                SendDataDisplay(); 
066C4:  CALL   3542
....................                RX_Buffer[3]=0x00; 
066C8:  CLRF   33
....................                RX_Buffer2[3]=0x00; 
066CA:  CLRF   3E
066CC:  MOVLB  3
....................             }  
....................          }else if(TipoClave==3){ 
066CE:  BRA    6816
066D0:  MOVF   x14,W
066D2:  SUBLW  03
066D4:  BTFSS  FD8.2
066D6:  BRA    6816
....................             printf("titulo.txt=\"Clave Nueva\""); 
066D8:  MOVLW  56
066DA:  MOVWF  FF6
066DC:  MOVLW  06
066DE:  MOVWF  FF7
066E0:  MOVLW  00
066E2:  MOVWF  FF8
066E4:  MOVLB  0
066E6:  CALL   3510
....................             SendDataDisplay(); 
066EA:  CALL   3542
....................             printf("page MenuPrincipal"); 
066EE:  MOVLW  70
066F0:  MOVWF  FF6
066F2:  MOVLW  06
066F4:  MOVWF  FF7
066F6:  MOVLW  00
066F8:  MOVWF  FF8
066FA:  CALL   3510
....................             SendDataDisplay(); 
066FE:  CALL   3542
....................             if(!GuardaEEPROM){ 
06702:  BTFSC  xCC.3
06704:  BRA    6810
....................                write_eeprom(10,RX_Buffer[4]-0x30);delay_ms(20);write_eeprom(11,RX_Buffer[5]-0x30);delay_ms(20); 
06706:  MOVLW  30
06708:  SUBWF  34,W
0670A:  MOVLB  3
0670C:  MOVWF  xBD
0670E:  CLRF   FAA
06710:  MOVLW  0A
06712:  MOVWF  FA9
06714:  MOVFF  3BD,FA8
06718:  BCF    FA6.6
0671A:  BCF    FA6.7
0671C:  BSF    FA6.2
0671E:  MOVF   FF2,W
06720:  MOVWF  00
06722:  BCF    FF2.6
06724:  BCF    FF2.7
06726:  MOVLB  F
06728:  MOVLW  55
0672A:  MOVWF  FA7
0672C:  MOVLW  AA
0672E:  MOVWF  FA7
06730:  BSF    FA6.1
06732:  BTFSC  FA6.1
06734:  BRA    6732
06736:  BCF    FA6.2
06738:  MOVF   00,W
0673A:  IORWF  FF2,F
0673C:  MOVLW  14
0673E:  MOVLB  3
06740:  MOVWF  xC8
06742:  MOVLB  0
06744:  CALL   1C24
06748:  MOVLW  30
0674A:  SUBWF  35,W
0674C:  MOVLB  3
0674E:  MOVWF  xBD
06750:  CLRF   FAA
06752:  MOVLW  0B
06754:  MOVWF  FA9
06756:  MOVFF  3BD,FA8
0675A:  BCF    FA6.6
0675C:  BCF    FA6.7
0675E:  BSF    FA6.2
06760:  MOVF   FF2,W
06762:  MOVWF  00
06764:  BCF    FF2.6
06766:  BCF    FF2.7
06768:  MOVLB  F
0676A:  MOVLW  55
0676C:  MOVWF  FA7
0676E:  MOVLW  AA
06770:  MOVWF  FA7
06772:  BSF    FA6.1
06774:  BTFSC  FA6.1
06776:  BRA    6774
06778:  BCF    FA6.2
0677A:  MOVF   00,W
0677C:  IORWF  FF2,F
0677E:  MOVLW  14
06780:  MOVLB  3
06782:  MOVWF  xC8
06784:  MOVLB  0
06786:  CALL   1C24
....................                write_eeprom(12,RX_Buffer[6]-0x30);delay_ms(20);write_eeprom(13,RX_Buffer[7]-0x30);delay_ms(20); 
0678A:  MOVLW  30
0678C:  SUBWF  36,W
0678E:  MOVLB  3
06790:  MOVWF  xBD
06792:  CLRF   FAA
06794:  MOVLW  0C
06796:  MOVWF  FA9
06798:  MOVFF  3BD,FA8
0679C:  BCF    FA6.6
0679E:  BCF    FA6.7
067A0:  BSF    FA6.2
067A2:  MOVF   FF2,W
067A4:  MOVWF  00
067A6:  BCF    FF2.6
067A8:  BCF    FF2.7
067AA:  MOVLB  F
067AC:  MOVLW  55
067AE:  MOVWF  FA7
067B0:  MOVLW  AA
067B2:  MOVWF  FA7
067B4:  BSF    FA6.1
067B6:  BTFSC  FA6.1
067B8:  BRA    67B6
067BA:  BCF    FA6.2
067BC:  MOVF   00,W
067BE:  IORWF  FF2,F
067C0:  MOVLW  14
067C2:  MOVLB  3
067C4:  MOVWF  xC8
067C6:  MOVLB  0
067C8:  CALL   1C24
067CC:  MOVLW  30
067CE:  SUBWF  37,W
067D0:  MOVLB  3
067D2:  MOVWF  xBD
067D4:  CLRF   FAA
067D6:  MOVLW  0D
067D8:  MOVWF  FA9
067DA:  MOVFF  3BD,FA8
067DE:  BCF    FA6.6
067E0:  BCF    FA6.7
067E2:  BSF    FA6.2
067E4:  MOVF   FF2,W
067E6:  MOVWF  00
067E8:  BCF    FF2.6
067EA:  BCF    FF2.7
067EC:  MOVLB  F
067EE:  MOVLW  55
067F0:  MOVWF  FA7
067F2:  MOVLW  AA
067F4:  MOVWF  FA7
067F6:  BSF    FA6.1
067F8:  BTFSC  FA6.1
067FA:  BRA    67F8
067FC:  BCF    FA6.2
067FE:  MOVF   00,W
06800:  IORWF  FF2,F
06802:  MOVLW  14
06804:  MOVLB  3
06806:  MOVWF  xC8
06808:  MOVLB  0
0680A:  CALL   1C24
....................                GuardaEEPROM=ON; 
0680E:  BSF    xCC.3
....................             } 
....................             RX_Buffer[3]=0x00; 
06810:  CLRF   33
....................             RX_Buffer2[3]=0x00; 
06812:  CLRF   3E
06814:  MOVLB  3
....................          } 
....................       } 
....................     } 
.................... //_--------------------------------------------------------------------------------------------------------------------------------------------------------        
....................  
.................... //_-------------------------------------------------------------------------------------------------------------------------------------------------------- 
....................    if(Menu==1){ //Menu Principal. 
06816:  DECFSZ x74,W
06818:  GOTO   7798
....................       printf("fecha.txt=\"Fecha:%02u/%02u/20%02u    Hora: %02u:%02u\"",Dia,Mes,Year,Hora,Minuto); 
0681C:  MOVLW  84
0681E:  MOVWF  FF6
06820:  MOVLW  06
06822:  MOVWF  FF7
06824:  MOVLW  00
06826:  MOVWF  FF8
06828:  MOVLW  11
0682A:  MOVWF  xC1
0682C:  MOVLB  0
0682E:  CALL   464A
06832:  MOVFF  3AC,3BE
06836:  MOVLW  01
06838:  MOVLB  3
0683A:  MOVWF  xBF
0683C:  MOVLB  0
0683E:  CALL   46A8
06842:  MOVLW  2F
06844:  BTFSS  F9E.4
06846:  BRA    6844
06848:  MOVWF  FAD
0684A:  MOVFF  3AB,3BE
0684E:  MOVLW  01
06850:  MOVLB  3
06852:  MOVWF  xBF
06854:  MOVLB  0
06856:  CALL   46A8
0685A:  MOVLW  2F
0685C:  BTFSS  F9E.4
0685E:  BRA    685C
06860:  MOVWF  FAD
06862:  MOVLW  32
06864:  BTFSS  F9E.4
06866:  BRA    6864
06868:  MOVWF  FAD
0686A:  MOVLW  30
0686C:  BTFSS  F9E.4
0686E:  BRA    686C
06870:  MOVWF  FAD
06872:  MOVFF  3AA,3BE
06876:  MOVLW  01
06878:  MOVLB  3
0687A:  MOVWF  xBF
0687C:  MOVLB  0
0687E:  CALL   46A8
06882:  MOVLW  A5
06884:  MOVWF  FF6
06886:  MOVLW  06
06888:  MOVWF  FF7
0688A:  MOVLW  00
0688C:  MOVWF  FF8
0688E:  MOVLW  0A
06890:  MOVLB  3
06892:  MOVWF  xC1
06894:  MOVLB  0
06896:  CALL   464A
0689A:  MOVFF  3AD,3BE
0689E:  MOVLW  01
068A0:  MOVLB  3
068A2:  MOVWF  xBF
068A4:  MOVLB  0
068A6:  CALL   46A8
068AA:  MOVLW  3A
068AC:  BTFSS  F9E.4
068AE:  BRA    68AC
068B0:  MOVWF  FAD
068B2:  MOVFF  3AE,3BE
068B6:  MOVLW  01
068B8:  MOVLB  3
068BA:  MOVWF  xBF
068BC:  MOVLB  0
068BE:  CALL   46A8
068C2:  MOVLW  22
068C4:  BTFSS  F9E.4
068C6:  BRA    68C4
068C8:  MOVWF  FAD
....................       SendDataDisplay(); 
068CA:  CALL   3542
....................       GuardaEEPROM=OFF; 
068CE:  BCF    xCC.3
....................        
....................       if(!DOOR && !guardaEsteril){ 
068D0:  BSF    F93.2
068D2:  BTFSS  F81.2
068D4:  BRA    691A
068D6:  BTFSC  xCE.1
068D8:  BRA    691A
....................          esterilizo=10; 
068DA:  MOVLW  0A
068DC:  MOVWF  xD1
....................          write_eeprom(48,esterilizo); 
068DE:  CLRF   FAA
068E0:  MOVLW  30
068E2:  MOVWF  FA9
068E4:  MOVFF  D1,FA8
068E8:  BCF    FA6.6
068EA:  BCF    FA6.7
068EC:  BSF    FA6.2
068EE:  MOVF   FF2,W
068F0:  MOVWF  00
068F2:  BCF    FF2.6
068F4:  BCF    FF2.7
068F6:  MOVLB  F
068F8:  MOVLW  55
068FA:  MOVWF  FA7
068FC:  MOVLW  AA
068FE:  MOVWF  FA7
06900:  BSF    FA6.1
06902:  BTFSC  FA6.1
06904:  BRA    6902
06906:  BCF    FA6.2
06908:  MOVF   00,W
0690A:  IORWF  FF2,F
....................          delay_ms(20); 
0690C:  MOVLW  14
0690E:  MOVLB  3
06910:  MOVWF  xC8
06912:  MOVLB  0
06914:  CALL   1C24
....................          guardaEsteril=ON; 
06918:  BSF    xCE.1
....................       } 
....................        
....................       if(RX_Buffer[4]==0x22){ 
0691A:  MOVF   34,W
0691C:  SUBLW  22
0691E:  BNZ   6954
....................          if(PRES){//Si puerta del lado esteril esta cerrada 
06920:  BSF    F92.4
06922:  BTFSC  F80.4
06924:  BRA    6954
....................             if(!flagc){ 
06926:  BTFSC  xCD.6
06928:  BRA    6954
....................                Solenoide_on; 
0692A:  BSF    F8C.0
0692C:  BCF    F95.0
....................                Buzzer_on; 
0692E:  BSF    F8B.5
06930:  BCF    F94.5
....................                delay_ms(5000); 
06932:  MOVLW  14
06934:  MOVLB  3
06936:  MOVWF  xBD
06938:  MOVLW  FA
0693A:  MOVWF  xC8
0693C:  MOVLB  0
0693E:  CALL   1C24
06942:  MOVLB  3
06944:  DECFSZ xBD,F
06946:  BRA    6938
....................                Solenoide_off; 
06948:  BCF    F8C.0
0694A:  BCF    F95.0
....................                Buzzer_off; 
0694C:  BCF    F8B.5
0694E:  BCF    F94.5
....................                flagc=ON; 
06950:  MOVLB  0
06952:  BSF    xCD.6
....................            }   
....................          } 
....................       } 
....................        
....................       if(RX_Buffer[3]==0x0f || UP){//0f, recibe caracteres ingresados desde el Display 
06954:  MOVF   33,W
06956:  SUBLW  0F
06958:  BZ    6960
0695A:  BSF    F93.6
0695C:  BTFSC  F81.6
0695E:  BRA    6DD6
....................          delay_ms(5); 
06960:  MOVLW  05
06962:  MOVLB  3
06964:  MOVWF  xC8
06966:  MOVLB  0
06968:  CALL   1C24
....................          if(RX_Buffer[3]==0x0f || UP){ 
0696C:  MOVF   33,W
0696E:  SUBLW  0F
06970:  BZ    6978
06972:  BSF    F93.6
06974:  BTFSC  F81.6
06976:  BRA    6DD0
....................          flagc=OFF; 
06978:  BCF    xCD.6
....................          if(PantallaPrincipal==0){//Si esta en menu principal 
0697A:  MOVLB  3
0697C:  MOVF   x13,F
0697E:  BTFSS  FD8.2
06980:  BRA    6C48
....................             if(RX_Buffer[4]==0x37){//Ajustes y pasa a solicitud de password de tecnico 
06982:  MOVF   34,W
06984:  SUBLW  37
06986:  BNZ   69B2
....................                printf("page Clave"); 
06988:  MOVLW  BA
0698A:  MOVWF  FF6
0698C:  MOVLW  06
0698E:  MOVWF  FF7
06990:  MOVLW  00
06992:  MOVWF  FF8
06994:  MOVLB  0
06996:  CALL   3510
....................                SendDataDisplay();  
0699A:  CALL   3542
....................                Op=OFF; 
0699E:  BCF    xCB.7
....................                Op2=OFF; 
069A0:  BCF    xCC.0
....................                MenuAnt=Menu; 
069A2:  MOVFF  374,375
....................                TipoClave=1; 
069A6:  MOVLW  01
069A8:  MOVLB  3
069AA:  MOVWF  x14
....................                RX_Buffer[3]=0x00; 
069AC:  CLRF   33
....................                RX_Buffer2[3]=0x00; 
069AE:  CLRF   3E
....................                Opcion=0; 
069B0:  CLRF   x7C
....................             }  
....................             if(Opcion==8){// Cambio de Clave 
069B2:  MOVF   x7C,W
069B4:  SUBLW  08
069B6:  BNZ   69E4
....................                printf("page Clave"); 
069B8:  MOVLW  C6
069BA:  MOVWF  FF6
069BC:  MOVLW  06
069BE:  MOVWF  FF7
069C0:  MOVLW  00
069C2:  MOVWF  FF8
069C4:  MOVLB  0
069C6:  CALL   3510
....................                SendDataDisplay();  
069CA:  CALL   3542
....................                Op=OFF; 
069CE:  BCF    xCB.7
....................                Op2=OFF; 
069D0:  BCF    xCC.0
....................                MenuAnt=Menu; 
069D2:  MOVFF  374,375
....................                TipoClave=2; 
069D6:  MOVLW  02
069D8:  MOVLB  3
069DA:  MOVWF  x14
....................                RX_Buffer[3]=0x00; 
069DC:  CLRF   33
....................                RX_Buffer2[3]=0x00; 
069DE:  CLRF   3E
....................                Opcion=0; 
069E0:  CLRF   x7C
....................             }else if(Opcion==7){//Hora y Fecha 
069E2:  BRA    6C42
069E4:  MOVF   x7C,W
069E6:  SUBLW  07
069E8:  BNZ   6A26
....................                printf("page Fecha"); 
069EA:  MOVLW  D2
069EC:  MOVWF  FF6
069EE:  MOVLW  06
069F0:  MOVWF  FF7
069F2:  MOVLW  00
069F4:  MOVWF  FF8
069F6:  MOVLB  0
069F8:  CALL   3510
....................                SendDataDisplay();      
069FC:  CALL   3542
....................                PantallaPrincipal=0; 
06A00:  MOVLB  3
06A02:  CLRF   x13
....................                MenuAnt=Menu; 
06A04:  MOVFF  374,375
....................                Op=OFF; 
06A08:  MOVLB  0
06A0A:  BCF    xCB.7
....................                Op2=OFF; 
06A0C:  BCF    xCC.0
....................                DiaTx=Dia; 
06A0E:  MOVFF  3AC,3B3
....................                MesTx=Mes; 
06A12:  MOVFF  3AB,3B2
....................                YearTx=Year; 
06A16:  MOVFF  3AA,3B1
....................                HoraTx=Hora; 
06A1A:  MOVFF  3AD,3B4
....................                MinutoTx=Minuto; 
06A1E:  MOVFF  3AE,3B5
....................             }else if(Opcion==6){//Test 
06A22:  BRA    6C44
06A24:  MOVLB  3
06A26:  MOVF   x7C,W
06A28:  SUBLW  06
06A2A:  BNZ   6A54
....................                printf("page Test"); 
06A2C:  MOVLW  DE
06A2E:  MOVWF  FF6
06A30:  MOVLW  06
06A32:  MOVWF  FF7
06A34:  MOVLW  00
06A36:  MOVWF  FF8
06A38:  MOVLB  0
06A3A:  CALL   3510
....................                SendDataDisplay();      
06A3E:  CALL   3542
....................                PantallaPrincipal=0; 
06A42:  MOVLB  3
06A44:  CLRF   x13
....................                MenuAnt=Menu; 
06A46:  MOVFF  374,375
....................                Op=OFF; 
06A4A:  MOVLB  0
06A4C:  BCF    xCB.7
....................                Op2=OFF; 
06A4E:  BCF    xCC.0
....................             }else if(Opcion==5){//Ciclo Personalizado 
06A50:  BRA    6C44
06A52:  MOVLB  3
06A54:  MOVF   x7C,W
06A56:  SUBLW  05
06A58:  BNZ   6A84
....................                printf("page MenuPrincipal"); 
06A5A:  MOVLW  E8
06A5C:  MOVWF  FF6
06A5E:  MOVLW  06
06A60:  MOVWF  FF7
06A62:  MOVLW  00
06A64:  MOVWF  FF8
06A66:  MOVLB  0
06A68:  CALL   3510
....................                SendDataDisplay();      
06A6C:  CALL   3542
....................                PantallaPrincipal=1; 
06A70:  MOVLW  01
06A72:  MOVLB  3
06A74:  MOVWF  x13
....................                MenuAnt=Menu; 
06A76:  MOVFF  374,375
....................                Op=OFF; 
06A7A:  MOVLB  0
06A7C:  BCF    xCB.7
....................                Op2=OFF; 
06A7E:  BCF    xCC.0
....................             }else if(Opcion==4){//Textil  
06A80:  BRA    6C44
06A82:  MOVLB  3
06A84:  MOVF   x7C,W
06A86:  SUBLW  04
06A88:  BNZ   6B02
....................                printf("page Funcionamiento"); 
06A8A:  MOVLW  FC
06A8C:  MOVWF  FF6
06A8E:  MOVLW  06
06A90:  MOVWF  FF7
06A92:  MOVLW  00
06A94:  MOVWF  FF8
06A96:  MOVLB  0
06A98:  CALL   3510
....................                SendDataDisplay();        
06A9C:  CALL   3542
....................                ConfiguraCiclo(0,0,0,1,0,0,5,1,0,4,134); 
06AA0:  MOVLB  3
06AA2:  CLRF   xBD
06AA4:  CLRF   xBE
06AA6:  CLRF   xBF
06AA8:  MOVLW  01
06AAA:  MOVWF  xC0
06AAC:  CLRF   xC1
06AAE:  CLRF   xC2
06AB0:  MOVLW  05
06AB2:  MOVWF  xC3
06AB4:  MOVLW  01
06AB6:  MOVWF  xC4
06AB8:  CLRF   xC5
06ABA:  MOVLW  04
06ABC:  MOVWF  xC6
06ABE:  MOVLW  86
06AC0:  MOVWF  xC7
06AC2:  MOVLB  0
06AC4:  CALL   4726
....................                Op=OFF; 
06AC8:  BCF    xCB.7
....................                Op2=OFF; 
06ACA:  BCF    xCC.0
....................                MenuAnt=Menu; 
06ACC:  MOVFF  374,375
....................                if(Temperatura>60)TTrampa=TTrampa+5; 
06AD0:  MOVLB  3
06AD2:  CLRF   xC4
06AD4:  CLRF   xC3
06AD6:  MOVLW  70
06AD8:  MOVWF  xC2
06ADA:  MOVLW  84
06ADC:  MOVWF  xC1
06ADE:  MOVFF  356,3C8
06AE2:  MOVFF  355,3C7
06AE6:  MOVFF  354,3C6
06AEA:  MOVFF  353,3C5
06AEE:  MOVLB  0
06AF0:  CALL   295E
06AF4:  BNC   6AFE
06AF6:  MOVLW  05
06AF8:  MOVLB  3
06AFA:  ADDWF  x12,F
06AFC:  MOVLB  0
....................             }else if(Opcion==3){//LiquidosA Nivel de Desfogue  
06AFE:  BRA    6C44
06B00:  MOVLB  3
06B02:  MOVF   x7C,W
06B04:  SUBLW  03
06B06:  BNZ   6B50
....................                printf("page Nivel"); 
06B08:  MOVLW  10
06B0A:  MOVWF  FF6
06B0C:  MOVLW  07
06B0E:  MOVWF  FF7
06B10:  MOVLW  00
06B12:  MOVWF  FF8
06B14:  MOVLB  0
06B16:  CALL   3510
....................                SendDataDisplay();        
06B1A:  CALL   3542
....................                ConfiguraCiclo(0,0,5,1,0,0,0,0,1,3,121); 
06B1E:  MOVLB  3
06B20:  CLRF   xBD
06B22:  CLRF   xBE
06B24:  MOVLW  05
06B26:  MOVWF  xBF
06B28:  MOVLW  01
06B2A:  MOVWF  xC0
06B2C:  CLRF   xC1
06B2E:  CLRF   xC2
06B30:  CLRF   xC3
06B32:  CLRF   xC4
06B34:  MOVWF  xC5
06B36:  MOVLW  03
06B38:  MOVWF  xC6
06B3A:  MOVLW  79
06B3C:  MOVWF  xC7
06B3E:  MOVLB  0
06B40:  CALL   4726
....................                Op=OFF; 
06B44:  BCF    xCB.7
....................                Op2=OFF; 
06B46:  BCF    xCC.0
....................                MenuAnt=2; 
06B48:  MOVLW  02
06B4A:  MOVLB  3
06B4C:  MOVWF  x75
....................             }else if(Opcion==2){//Instrumental 
06B4E:  BRA    6C42
06B50:  MOVF   x7C,W
06B52:  SUBLW  02
06B54:  BNZ   6BCC
....................                printf("page Funcionamiento"); 
06B56:  MOVLW  1C
06B58:  MOVWF  FF6
06B5A:  MOVLW  07
06B5C:  MOVWF  FF7
06B5E:  MOVLW  00
06B60:  MOVWF  FF8
06B62:  MOVLB  0
06B64:  CALL   3510
....................                SendDataDisplay();        
06B68:  CALL   3542
....................                ConfiguraCiclo(0,0,3,0,0,0,5,0,0,2,134); 
06B6C:  MOVLB  3
06B6E:  CLRF   xBD
06B70:  CLRF   xBE
06B72:  MOVLW  03
06B74:  MOVWF  xBF
06B76:  CLRF   xC0
06B78:  CLRF   xC1
06B7A:  CLRF   xC2
06B7C:  MOVLW  05
06B7E:  MOVWF  xC3
06B80:  CLRF   xC4
06B82:  CLRF   xC5
06B84:  MOVLW  02
06B86:  MOVWF  xC6
06B88:  MOVLW  86
06B8A:  MOVWF  xC7
06B8C:  MOVLB  0
06B8E:  CALL   4726
....................                Op=OFF; 
06B92:  BCF    xCB.7
....................                Op2=OFF; 
06B94:  BCF    xCC.0
....................                MenuAnt=Menu; 
06B96:  MOVFF  374,375
....................                if(Temperatura>60)TTrampa=TTrampa+5; 
06B9A:  MOVLB  3
06B9C:  CLRF   xC4
06B9E:  CLRF   xC3
06BA0:  MOVLW  70
06BA2:  MOVWF  xC2
06BA4:  MOVLW  84
06BA6:  MOVWF  xC1
06BA8:  MOVFF  356,3C8
06BAC:  MOVFF  355,3C7
06BB0:  MOVFF  354,3C6
06BB4:  MOVFF  353,3C5
06BB8:  MOVLB  0
06BBA:  CALL   295E
06BBE:  BNC   6BC8
06BC0:  MOVLW  05
06BC2:  MOVLB  3
06BC4:  ADDWF  x12,F
06BC6:  MOVLB  0
....................             }else if(Opcion==1){//Plastico 
06BC8:  BRA    6C44
06BCA:  MOVLB  3
06BCC:  DECFSZ x7C,W
06BCE:  BRA    6C42
....................                printf("page Funcionamiento"); 
06BD0:  MOVLW  30
06BD2:  MOVWF  FF6
06BD4:  MOVLW  07
06BD6:  MOVWF  FF7
06BD8:  MOVLW  00
06BDA:  MOVWF  FF8
06BDC:  MOVLB  0
06BDE:  CALL   3510
....................                SendDataDisplay();        
06BE2:  CALL   3542
....................                ConfiguraCiclo(0,0,5,1,0,0,3,0,0,1,121); 
06BE6:  MOVLB  3
06BE8:  CLRF   xBD
06BEA:  CLRF   xBE
06BEC:  MOVLW  05
06BEE:  MOVWF  xBF
06BF0:  MOVLW  01
06BF2:  MOVWF  xC0
06BF4:  CLRF   xC1
06BF6:  CLRF   xC2
06BF8:  MOVLW  03
06BFA:  MOVWF  xC3
06BFC:  CLRF   xC4
06BFE:  CLRF   xC5
06C00:  MOVLW  01
06C02:  MOVWF  xC6
06C04:  MOVLW  79
06C06:  MOVWF  xC7
06C08:  MOVLB  0
06C0A:  CALL   4726
....................                Op=OFF; 
06C0E:  BCF    xCB.7
....................                Op2=OFF; 
06C10:  BCF    xCC.0
....................                MenuAnt=Menu; 
06C12:  MOVFF  374,375
....................                if(Temperatura>60)TTrampa=TTrampa+5; 
06C16:  MOVLB  3
06C18:  CLRF   xC4
06C1A:  CLRF   xC3
06C1C:  MOVLW  70
06C1E:  MOVWF  xC2
06C20:  MOVLW  84
06C22:  MOVWF  xC1
06C24:  MOVFF  356,3C8
06C28:  MOVFF  355,3C7
06C2C:  MOVFF  354,3C6
06C30:  MOVFF  353,3C5
06C34:  MOVLB  0
06C36:  CALL   295E
06C3A:  BNC   6C44
06C3C:  MOVLW  05
06C3E:  MOVLB  3
06C40:  ADDWF  x12,F
06C42:  MOVLB  0
....................             } 
....................          }else if(PantallaPrincipal==1){//Si esta en menu de ciclo libre 
06C44:  BRA    6DD0
06C46:  MOVLB  3
06C48:  DECFSZ x13,W
06C4A:  BRA    6DD2
....................             if(RX_Buffer[4]==0x37){//Ajustes y pasa a solicitud de password de tecnico 
06C4C:  MOVF   34,W
06C4E:  SUBLW  37
06C50:  BNZ   6C7C
....................                printf("page Clave"); 
06C52:  MOVLW  44
06C54:  MOVWF  FF6
06C56:  MOVLW  07
06C58:  MOVWF  FF7
06C5A:  MOVLW  00
06C5C:  MOVWF  FF8
06C5E:  MOVLB  0
06C60:  CALL   3510
....................                SendDataDisplay();  
06C64:  CALL   3542
....................                Op=OFF; 
06C68:  BCF    xCB.7
....................                Op2=OFF; 
06C6A:  BCF    xCC.0
....................                MenuAnt=Menu; 
06C6C:  MOVFF  374,375
....................                TipoClave=1; 
06C70:  MOVLW  01
06C72:  MOVLB  3
06C74:  MOVWF  x14
....................                RX_Buffer[3]=0x00; 
06C76:  CLRF   33
....................                RX_Buffer2[3]=0x00; 
06C78:  CLRF   3E
....................                Opcion=0; 
06C7A:  CLRF   x7C
....................             }  
....................             if(Opcion==15){// Iniciar Ciclo 
06C7C:  MOVF   x7C,W
06C7E:  SUBLW  0F
06C80:  BNZ   6D34
....................                printf("page Funcionamiento"); 
06C82:  MOVLW  50
06C84:  MOVWF  FF6
06C86:  MOVLW  07
06C88:  MOVWF  FF7
06C8A:  MOVLW  00
06C8C:  MOVWF  FF8
06C8E:  MOVLB  0
06C90:  CALL   3510
....................                SendDataDisplay();   
06C94:  CALL   3542
....................                MenuAnt=Menu; 
06C98:  MOVFF  374,375
....................                IniciaCiclo=ON; 
06C9C:  BSF    xCA.0
....................                NivelSeleccionado=9990*Nivel; 
06C9E:  MOVLW  27
06CA0:  MOVLB  3
06CA2:  MOVWF  xBF
06CA4:  MOVLW  06
06CA6:  MOVWF  xBE
06CA8:  MOVFF  38A,3C1
06CAC:  MOVFF  389,3C0
06CB0:  MOVLB  0
06CB2:  CALL   36E6
06CB6:  MOVFF  02,394
06CBA:  MOVFF  01,393
....................                CicloSeleccionado=5; 
06CBE:  MOVLW  05
06CC0:  MOVLB  3
06CC2:  MOVWF  x7A
....................                if(ActivaImpresion==1){ 
06CC4:  DECFSZ x6C,W
06CC6:  BRA    6CE4
....................                   Imprime=5; 
06CC8:  MOVLW  05
06CCA:  MOVWF  xB8
....................                   Envio_Esclavos(); 
06CCC:  MOVLB  0
06CCE:  CALL   4014
....................                   delay_ms(100); 
06CD2:  MOVLW  64
06CD4:  MOVLB  3
06CD6:  MOVWF  xC8
06CD8:  MOVLB  0
06CDA:  CALL   1C24
....................                   Imprime=10; 
06CDE:  MOVLW  0A
06CE0:  MOVLB  3
06CE2:  MOVWF  xB8
....................                } 
....................                Tsecado[0]=Tsecadop[0]; 
06CE4:  MOVFF  ED,E9
....................                Tsecado[1]=Tsecadop[1]; 
06CE8:  MOVFF  EE,EA
....................                Tsecado[2]=Tsecadop[2]; 
06CEC:  MOVFF  EF,EB
....................                Tsecado[3]=Tsecadop[3]; 
06CF0:  MOVFF  F0,EC
....................                Testerilizacion[0]=Testerilizacionp[0]; 
06CF4:  MOVFF  E5,E1
....................                Testerilizacion[1]=Testerilizacionp[1]; 
06CF8:  MOVFF  E6,E2
....................                Testerilizacion[2]=Testerilizacionp[2]; 
06CFC:  MOVFF  E7,E3
....................                Testerilizacion[3]=Testerilizacionp[3]; 
06D00:  MOVFF  E8,E4
....................                if(Temperatura>60)TTrampa=TTrampa+5; 
06D04:  CLRF   xC4
06D06:  CLRF   xC3
06D08:  MOVLW  70
06D0A:  MOVWF  xC2
06D0C:  MOVLW  84
06D0E:  MOVWF  xC1
06D10:  MOVFF  356,3C8
06D14:  MOVFF  355,3C7
06D18:  MOVFF  354,3C6
06D1C:  MOVFF  353,3C5
06D20:  MOVLB  0
06D22:  CALL   295E
06D26:  BNC   6D30
06D28:  MOVLW  05
06D2A:  MOVLB  3
06D2C:  ADDWF  x12,F
06D2E:  MOVLB  0
....................             }else if(Opcion==14){//Nivel de Desfogue 
06D30:  BRA    6DD0
06D32:  MOVLB  3
06D34:  MOVF   x7C,W
06D36:  SUBLW  0E
06D38:  BNZ   6D5C
....................                printf("page Nivel"); 
06D3A:  MOVLW  64
06D3C:  MOVWF  FF6
06D3E:  MOVLW  07
06D40:  MOVWF  FF7
06D42:  MOVLW  00
06D44:  MOVWF  FF8
06D46:  MOVLB  0
06D48:  CALL   3510
....................                SendDataDisplay();     
06D4C:  CALL   3542
....................                Op=OFF; 
06D50:  BCF    xCB.7
....................                Op2=OFF; 
06D52:  BCF    xCC.0
....................                MenuAnt=1; 
06D54:  MOVLW  01
06D56:  MOVLB  3
06D58:  MOVWF  x75
....................             }else if(Opcion==13){//Temperatura  
06D5A:  BRA    6DD2
06D5C:  MOVF   x7C,W
06D5E:  SUBLW  0D
06D60:  BNZ   6D84
....................                printf("page Temperatura"); 
06D62:  MOVLW  70
06D64:  MOVWF  FF6
06D66:  MOVLW  07
06D68:  MOVWF  FF7
06D6A:  MOVLW  00
06D6C:  MOVWF  FF8
06D6E:  MOVLB  0
06D70:  CALL   3510
....................                SendDataDisplay();   
06D74:  CALL   3542
....................                Op=OFF; 
06D78:  BCF    xCB.7
....................                Op2=OFF; 
06D7A:  BCF    xCC.0
....................                MenuAnt=Menu; 
06D7C:  MOVFF  374,375
....................             }else if(Opcion==12){//Tiempo de Secado 
06D80:  BRA    6DD0
06D82:  MOVLB  3
06D84:  MOVF   x7C,W
06D86:  SUBLW  0C
06D88:  BNZ   6DAC
....................                printf("page TiempoSec"); 
06D8A:  MOVLW  82
06D8C:  MOVWF  FF6
06D8E:  MOVLW  07
06D90:  MOVWF  FF7
06D92:  MOVLW  00
06D94:  MOVWF  FF8
06D96:  MOVLB  0
06D98:  CALL   3510
....................                SendDataDisplay();    
06D9C:  CALL   3542
....................                Op=OFF; 
06DA0:  BCF    xCB.7
....................                Op2=OFF; 
06DA2:  BCF    xCC.0
....................                MenuAnt=Menu; 
06DA4:  MOVFF  374,375
....................             }else if(Opcion==11){//Instrumental 
06DA8:  BRA    6DD0
06DAA:  MOVLB  3
06DAC:  MOVF   x7C,W
06DAE:  SUBLW  0B
06DB0:  BNZ   6DD2
....................                printf("page TiempoEst"); 
06DB2:  MOVLW  92
06DB4:  MOVWF  FF6
06DB6:  MOVLW  07
06DB8:  MOVWF  FF7
06DBA:  MOVLW  00
06DBC:  MOVWF  FF8
06DBE:  MOVLB  0
06DC0:  CALL   3510
....................                SendDataDisplay();  
06DC4:  CALL   3542
....................                Op=OFF; 
06DC8:  BCF    xCB.7
....................                Op2=OFF; 
06DCA:  BCF    xCC.0
....................                MenuAnt=Menu; 
06DCC:  MOVFF  374,375
06DD0:  MOVLB  3
....................             } 
....................          } 
....................          } 
....................       }else if(PantallaPrincipal==0){ 
06DD2:  GOTO   774A
06DD6:  MOVLB  3
06DD8:  MOVF   x13,F
06DDA:  BTFSS  FD8.2
06DDC:  BRA    7348
....................          if(Opcion>8) 
06DDE:  MOVF   x7C,W
06DE0:  SUBLW  08
06DE2:  BC    6DE8
....................             Opcion=1; 
06DE4:  MOVLW  01
06DE6:  MOVWF  x7C
....................              
....................          if(Opcion<1) 
06DE8:  MOVF   x7C,F
06DEA:  BNZ   6DF0
....................             Opcion=8; 
06DEC:  MOVLW  08
06DEE:  MOVWF  x7C
....................           
....................          if(RIGHT){ 
06DF0:  BSF    F93.4
06DF2:  BTFSC  F81.4
06DF4:  BRA    6E0A
....................             delay_ms(200); 
06DF6:  MOVLW  C8
06DF8:  MOVWF  xC8
06DFA:  MOVLB  0
06DFC:  CALL   1C24
....................             if(RIGHT){ 
06E00:  BSF    F93.4
06E02:  BTFSC  F81.4
06E04:  BRA    6E0C
....................                Opcion++; 
06E06:  MOVLB  3
06E08:  INCF   x7C,F
06E0A:  MOVLB  0
....................             } 
....................          } 
....................           
....................          if(LEFT){ 
06E0C:  BSF    F93.3
06E0E:  BTFSC  F81.3
06E10:  BRA    6E2A
....................             delay_ms(200); 
06E12:  MOVLW  C8
06E14:  MOVLB  3
06E16:  MOVWF  xC8
06E18:  MOVLB  0
06E1A:  CALL   1C24
....................             if(LEFT){ 
06E1E:  BSF    F93.3
06E20:  BTFSC  F81.3
06E22:  BRA    6E2A
....................                Opcion--; 
06E24:  MOVLB  3
06E26:  DECF   x7C,F
06E28:  MOVLB  0
....................             } 
....................          } 
....................           
....................          printf("ttitulo.txt=\"SELECCIONE SU CICLO\""); 
06E2A:  MOVLW  A2
06E2C:  MOVWF  FF6
06E2E:  MOVLW  07
06E30:  MOVWF  FF7
06E32:  MOVLW  00
06E34:  MOVWF  FF8
06E36:  CALL   3510
....................          SendDataDisplay(); 
06E3A:  CALL   3542
....................              
....................          if(RX_Buffer[4]==0x0d && !Op){//Tecla Derecha Oprimida 
06E3E:  MOVF   34,W
06E40:  SUBLW  0D
06E42:  BNZ   6E54
06E44:  BTFSC  xCB.7
06E46:  BRA    6E54
....................             Opcion++; 
06E48:  MOVLB  3
06E4A:  INCF   x7C,F
....................             RX_Buffer[4]=0x00; 
06E4C:  CLRF   34
....................             Op=ON; 
06E4E:  MOVLB  0
06E50:  BSF    xCB.7
....................             flagc=OFF; 
06E52:  BCF    xCD.6
....................             //BorraBuffer(); 
....................          } 
....................           
....................          if(RX_Buffer[4]==0x0c && Op){//Tecla Derecha Oprimida 
06E54:  MOVF   34,W
06E56:  SUBLW  0C
06E58:  BNZ   6E6A
06E5A:  BTFSS  xCB.7
06E5C:  BRA    6E6A
....................             Opcion++; 
06E5E:  MOVLB  3
06E60:  INCF   x7C,F
....................             RX_Buffer[4]=0x00; 
06E62:  CLRF   34
....................             Op=OFF; 
06E64:  MOVLB  0
06E66:  BCF    xCB.7
....................             flagc=OFF; 
06E68:  BCF    xCD.6
....................             //BorraBuffer(); 
....................          } 
....................           
....................          if(RX_Buffer[4]==0x0e && !Op2){//Tecla Izquierda Oprimida 
06E6A:  MOVF   34,W
06E6C:  SUBLW  0E
06E6E:  BNZ   6E80
06E70:  BTFSC  xCC.0
06E72:  BRA    6E80
....................             Opcion--; 
06E74:  MOVLB  3
06E76:  DECF   x7C,F
....................             RX_Buffer[4]=0x00; 
06E78:  CLRF   34
....................             Op2=ON; 
06E7A:  MOVLB  0
06E7C:  BSF    xCC.0
....................             flagc=OFF; 
06E7E:  BCF    xCD.6
....................             //BorraBuffer(); 
....................          } 
....................           
....................          if(RX_Buffer[4]==0x0f && Op2){//Tecla Izquierda Oprimida 
06E80:  MOVF   34,W
06E82:  SUBLW  0F
06E84:  BNZ   6E96
06E86:  BTFSS  xCC.0
06E88:  BRA    6E96
....................             Opcion--; 
06E8A:  MOVLB  3
06E8C:  DECF   x7C,F
....................             RX_Buffer[4]=0x00; 
06E8E:  CLRF   34
....................             Op2=OFF; 
06E90:  MOVLB  0
06E92:  BCF    xCC.0
....................             flagc=OFF; 
06E94:  BCF    xCD.6
....................             //BorraBuffer(); 
....................          } 
....................           
....................          if(Opcion==8){ 
06E96:  MOVLB  3
06E98:  MOVF   x7C,W
06E9A:  SUBLW  08
06E9C:  BNZ   6F2E
....................             printf("bc.pic=83"); 
06E9E:  MOVLW  C4
06EA0:  MOVWF  FF6
06EA2:  MOVLW  07
06EA4:  MOVWF  FF7
06EA6:  MOVLW  00
06EA8:  MOVWF  FF8
06EAA:  MOVLB  0
06EAC:  CALL   3510
....................             SendDataDisplay(); 
06EB0:  CALL   3542
....................             printf("bd.pic=36"); 
06EB4:  MOVLW  CE
06EB6:  MOVWF  FF6
06EB8:  MOVLW  07
06EBA:  MOVWF  FF7
06EBC:  MOVLW  00
06EBE:  MOVWF  FF8
06EC0:  CALL   3510
....................             SendDataDisplay(); 
06EC4:  CALL   3542
....................             printf("bi.pic=40"); 
06EC8:  MOVLW  D8
06ECA:  MOVWF  FF6
06ECC:  MOVLW  07
06ECE:  MOVWF  FF7
06ED0:  MOVLW  00
06ED2:  MOVWF  FF8
06ED4:  CALL   3510
....................             SendDataDisplay(); 
06ED8:  CALL   3542
....................             printf("bc.pic2=83"); 
06EDC:  MOVLW  E2
06EDE:  MOVWF  FF6
06EE0:  MOVLW  07
06EE2:  MOVWF  FF7
06EE4:  MOVLW  00
06EE6:  MOVWF  FF8
06EE8:  CALL   3510
....................             SendDataDisplay(); 
06EEC:  CALL   3542
....................             printf("bd.pic2=36"); 
06EF0:  MOVLW  EE
06EF2:  MOVWF  FF6
06EF4:  MOVLW  07
06EF6:  MOVWF  FF7
06EF8:  MOVLW  00
06EFA:  MOVWF  FF8
06EFC:  CALL   3510
....................             SendDataDisplay(); 
06F00:  CALL   3542
....................             printf("bi.pic2=40"); 
06F04:  MOVLW  FA
06F06:  MOVWF  FF6
06F08:  MOVLW  07
06F0A:  MOVWF  FF7
06F0C:  MOVLW  00
06F0E:  MOVWF  FF8
06F10:  CALL   3510
....................             SendDataDisplay(); 
06F14:  CALL   3542
....................             printf("textop.txt=\"CAMBIO DE CLAVE\""); 
06F18:  MOVLW  06
06F1A:  MOVWF  FF6
06F1C:  MOVLW  08
06F1E:  MOVWF  FF7
06F20:  MOVLW  00
06F22:  MOVWF  FF8
06F24:  CALL   3510
....................             SendDataDisplay(); 
06F28:  CALL   3542
06F2C:  MOVLB  3
....................          } 
....................           
....................          if(Opcion==7){ 
06F2E:  MOVF   x7C,W
06F30:  SUBLW  07
06F32:  BNZ   6FC4
....................             printf("bc.pic=84"); 
06F34:  MOVLW  24
06F36:  MOVWF  FF6
06F38:  MOVLW  08
06F3A:  MOVWF  FF7
06F3C:  MOVLW  00
06F3E:  MOVWF  FF8
06F40:  MOVLB  0
06F42:  CALL   3510
....................             SendDataDisplay(); 
06F46:  CALL   3542
....................             printf("bd.pic=38"); 
06F4A:  MOVLW  2E
06F4C:  MOVWF  FF6
06F4E:  MOVLW  08
06F50:  MOVWF  FF7
06F52:  MOVLW  00
06F54:  MOVWF  FF8
06F56:  CALL   3510
....................             SendDataDisplay(); 
06F5A:  CALL   3542
....................             printf("bi.pic=52"); 
06F5E:  MOVLW  38
06F60:  MOVWF  FF6
06F62:  MOVLW  08
06F64:  MOVWF  FF7
06F66:  MOVLW  00
06F68:  MOVWF  FF8
06F6A:  CALL   3510
....................             SendDataDisplay(); 
06F6E:  CALL   3542
....................             printf("bc.pic2=84"); 
06F72:  MOVLW  42
06F74:  MOVWF  FF6
06F76:  MOVLW  08
06F78:  MOVWF  FF7
06F7A:  MOVLW  00
06F7C:  MOVWF  FF8
06F7E:  CALL   3510
....................             SendDataDisplay(); 
06F82:  CALL   3542
....................             printf("bd.pic2=38"); 
06F86:  MOVLW  4E
06F88:  MOVWF  FF6
06F8A:  MOVLW  08
06F8C:  MOVWF  FF7
06F8E:  MOVLW  00
06F90:  MOVWF  FF8
06F92:  CALL   3510
....................             SendDataDisplay(); 
06F96:  CALL   3542
....................             printf("bi.pic2=52"); 
06F9A:  MOVLW  5A
06F9C:  MOVWF  FF6
06F9E:  MOVLW  08
06FA0:  MOVWF  FF7
06FA2:  MOVLW  00
06FA4:  MOVWF  FF8
06FA6:  CALL   3510
....................             SendDataDisplay(); 
06FAA:  CALL   3542
....................             printf("textop.txt=\"HORA Y FECHA\""); 
06FAE:  MOVLW  66
06FB0:  MOVWF  FF6
06FB2:  MOVLW  08
06FB4:  MOVWF  FF7
06FB6:  MOVLW  00
06FB8:  MOVWF  FF8
06FBA:  CALL   3510
....................             SendDataDisplay(); 
06FBE:  CALL   3542
06FC2:  MOVLB  3
....................          } 
....................           
....................          if(Opcion==6){ 
06FC4:  MOVF   x7C,W
06FC6:  SUBLW  06
06FC8:  BNZ   705A
....................             printf("bc.pic=93"); 
06FCA:  MOVLW  80
06FCC:  MOVWF  FF6
06FCE:  MOVLW  08
06FD0:  MOVWF  FF7
06FD2:  MOVLW  00
06FD4:  MOVWF  FF8
06FD6:  MOVLB  0
06FD8:  CALL   3510
....................             SendDataDisplay(); 
06FDC:  CALL   3542
....................             printf("bd.pic=40"); 
06FE0:  MOVLW  8A
06FE2:  MOVWF  FF6
06FE4:  MOVLW  08
06FE6:  MOVWF  FF7
06FE8:  MOVLW  00
06FEA:  MOVWF  FF8
06FEC:  CALL   3510
....................             SendDataDisplay(); 
06FF0:  CALL   3542
....................             printf("bi.pic=44"); 
06FF4:  MOVLW  94
06FF6:  MOVWF  FF6
06FF8:  MOVLW  08
06FFA:  MOVWF  FF7
06FFC:  MOVLW  00
06FFE:  MOVWF  FF8
07000:  CALL   3510
....................             SendDataDisplay(); 
07004:  CALL   3542
....................             printf("bc.pic2=93"); 
07008:  MOVLW  9E
0700A:  MOVWF  FF6
0700C:  MOVLW  08
0700E:  MOVWF  FF7
07010:  MOVLW  00
07012:  MOVWF  FF8
07014:  CALL   3510
....................             SendDataDisplay(); 
07018:  CALL   3542
....................             printf("bd.pic2=40"); 
0701C:  MOVLW  AA
0701E:  MOVWF  FF6
07020:  MOVLW  08
07022:  MOVWF  FF7
07024:  MOVLW  00
07026:  MOVWF  FF8
07028:  CALL   3510
....................             SendDataDisplay(); 
0702C:  CALL   3542
....................             printf("bi.pic2=44"); 
07030:  MOVLW  B6
07032:  MOVWF  FF6
07034:  MOVLW  08
07036:  MOVWF  FF7
07038:  MOVLW  00
0703A:  MOVWF  FF8
0703C:  CALL   3510
....................             SendDataDisplay(); 
07040:  CALL   3542
....................             printf("textop.txt=\"TEST COMPONENTES\""); 
07044:  MOVLW  C2
07046:  MOVWF  FF6
07048:  MOVLW  08
0704A:  MOVWF  FF7
0704C:  MOVLW  00
0704E:  MOVWF  FF8
07050:  CALL   3510
....................             SendDataDisplay(); 
07054:  CALL   3542
07058:  MOVLB  3
....................          } 
....................           
....................          if(Opcion==5){ 
0705A:  MOVF   x7C,W
0705C:  SUBLW  05
0705E:  BNZ   70F0
....................             printf("bc.pic=87"); 
07060:  MOVLW  E0
07062:  MOVWF  FF6
07064:  MOVLW  08
07066:  MOVWF  FF7
07068:  MOVLW  00
0706A:  MOVWF  FF8
0706C:  MOVLB  0
0706E:  CALL   3510
....................             SendDataDisplay(); 
07072:  CALL   3542
....................             printf("bd.pic=52"); 
07076:  MOVLW  EA
07078:  MOVWF  FF6
0707A:  MOVLW  08
0707C:  MOVWF  FF7
0707E:  MOVLW  00
07080:  MOVWF  FF8
07082:  CALL   3510
....................             SendDataDisplay(); 
07086:  CALL   3542
....................             printf("bi.pic=46"); 
0708A:  MOVLW  F4
0708C:  MOVWF  FF6
0708E:  MOVLW  08
07090:  MOVWF  FF7
07092:  MOVLW  00
07094:  MOVWF  FF8
07096:  CALL   3510
....................             SendDataDisplay(); 
0709A:  CALL   3542
....................             printf("bc.pic2=87"); 
0709E:  MOVLW  FE
070A0:  MOVWF  FF6
070A2:  MOVLW  08
070A4:  MOVWF  FF7
070A6:  MOVLW  00
070A8:  MOVWF  FF8
070AA:  CALL   3510
....................             SendDataDisplay(); 
070AE:  CALL   3542
....................             printf("bd.pic2=52"); 
070B2:  MOVLW  0A
070B4:  MOVWF  FF6
070B6:  MOVLW  09
070B8:  MOVWF  FF7
070BA:  MOVLW  00
070BC:  MOVWF  FF8
070BE:  CALL   3510
....................             SendDataDisplay(); 
070C2:  CALL   3542
....................             printf("bi.pic2=46"); 
070C6:  MOVLW  16
070C8:  MOVWF  FF6
070CA:  MOVLW  09
070CC:  MOVWF  FF7
070CE:  MOVLW  00
070D0:  MOVWF  FF8
070D2:  CALL   3510
....................             SendDataDisplay(); 
070D6:  CALL   3542
....................             printf("textop.txt=\"LIBRE\""); 
070DA:  MOVLW  22
070DC:  MOVWF  FF6
070DE:  MOVLW  09
070E0:  MOVWF  FF7
070E2:  MOVLW  00
070E4:  MOVWF  FF8
070E6:  CALL   3510
....................             SendDataDisplay(); 
070EA:  CALL   3542
070EE:  MOVLB  3
....................          } 
....................           
....................          if(Opcion==4){ 
070F0:  MOVF   x7C,W
070F2:  SUBLW  04
070F4:  BNZ   7186
....................             printf("bc.pic=89"); 
070F6:  MOVLW  36
070F8:  MOVWF  FF6
070FA:  MOVLW  09
070FC:  MOVWF  FF7
070FE:  MOVLW  00
07100:  MOVWF  FF8
07102:  MOVLB  0
07104:  CALL   3510
....................             SendDataDisplay(); 
07108:  CALL   3542
....................             printf("bd.pic=44"); 
0710C:  MOVLW  40
0710E:  MOVWF  FF6
07110:  MOVLW  09
07112:  MOVWF  FF7
07114:  MOVLW  00
07116:  MOVWF  FF8
07118:  CALL   3510
....................             SendDataDisplay(); 
0711C:  CALL   3542
....................             printf("bi.pic=45"); 
07120:  MOVLW  4A
07122:  MOVWF  FF6
07124:  MOVLW  09
07126:  MOVWF  FF7
07128:  MOVLW  00
0712A:  MOVWF  FF8
0712C:  CALL   3510
....................             SendDataDisplay(); 
07130:  CALL   3542
....................             printf("bc.pic2=89"); 
07134:  MOVLW  54
07136:  MOVWF  FF6
07138:  MOVLW  09
0713A:  MOVWF  FF7
0713C:  MOVLW  00
0713E:  MOVWF  FF8
07140:  CALL   3510
....................             SendDataDisplay(); 
07144:  CALL   3542
....................             printf("bd.pic2=44"); 
07148:  MOVLW  60
0714A:  MOVWF  FF6
0714C:  MOVLW  09
0714E:  MOVWF  FF7
07150:  MOVLW  00
07152:  MOVWF  FF8
07154:  CALL   3510
....................             SendDataDisplay(); 
07158:  CALL   3542
....................             printf("bi.pic2=45"); 
0715C:  MOVLW  6C
0715E:  MOVWF  FF6
07160:  MOVLW  09
07162:  MOVWF  FF7
07164:  MOVLW  00
07166:  MOVWF  FF8
07168:  CALL   3510
....................             SendDataDisplay(); 
0716C:  CALL   3542
....................             printf("textop.txt=\"TEXTIL\""); 
07170:  MOVLW  78
07172:  MOVWF  FF6
07174:  MOVLW  09
07176:  MOVWF  FF7
07178:  MOVLW  00
0717A:  MOVWF  FF8
0717C:  CALL   3510
....................             SendDataDisplay(); 
07180:  CALL   3542
07184:  MOVLB  3
....................          } 
....................      
....................          if(Opcion==3){ 
07186:  MOVF   x7C,W
07188:  SUBLW  03
0718A:  BNZ   721C
....................             printf("bc.pic=88"); 
0718C:  MOVLW  8C
0718E:  MOVWF  FF6
07190:  MOVLW  09
07192:  MOVWF  FF7
07194:  MOVLW  00
07196:  MOVWF  FF8
07198:  MOVLB  0
0719A:  CALL   3510
....................             SendDataDisplay(); 
0719E:  CALL   3542
....................             printf("bd.pic=46"); 
071A2:  MOVLW  96
071A4:  MOVWF  FF6
071A6:  MOVLW  09
071A8:  MOVWF  FF7
071AA:  MOVLW  00
071AC:  MOVWF  FF8
071AE:  CALL   3510
....................             SendDataDisplay(); 
071B2:  CALL   3542
....................             printf("bi.pic=37"); 
071B6:  MOVLW  A0
071B8:  MOVWF  FF6
071BA:  MOVLW  09
071BC:  MOVWF  FF7
071BE:  MOVLW  00
071C0:  MOVWF  FF8
071C2:  CALL   3510
....................             SendDataDisplay(); 
071C6:  CALL   3542
....................             printf("bc.pic2=88"); 
071CA:  MOVLW  AA
071CC:  MOVWF  FF6
071CE:  MOVLW  09
071D0:  MOVWF  FF7
071D2:  MOVLW  00
071D4:  MOVWF  FF8
071D6:  CALL   3510
....................             SendDataDisplay(); 
071DA:  CALL   3542
....................             printf("bd.pic2=46"); 
071DE:  MOVLW  B6
071E0:  MOVWF  FF6
071E2:  MOVLW  09
071E4:  MOVWF  FF7
071E6:  MOVLW  00
071E8:  MOVWF  FF8
071EA:  CALL   3510
....................             SendDataDisplay(); 
071EE:  CALL   3542
....................             printf("bi.pic2=37"); 
071F2:  MOVLW  C2
071F4:  MOVWF  FF6
071F6:  MOVLW  09
071F8:  MOVWF  FF7
071FA:  MOVLW  00
071FC:  MOVWF  FF8
071FE:  CALL   3510
....................             SendDataDisplay(); 
07202:  CALL   3542
....................             printf("textop.txt=\"LIQUIDOS A\""); 
07206:  MOVLW  CE
07208:  MOVWF  FF6
0720A:  MOVLW  09
0720C:  MOVWF  FF7
0720E:  MOVLW  00
07210:  MOVWF  FF8
07212:  CALL   3510
....................             SendDataDisplay(); 
07216:  CALL   3542
0721A:  MOVLB  3
....................          } 
....................           
....................          if(Opcion==2){ 
0721C:  MOVF   x7C,W
0721E:  SUBLW  02
07220:  BNZ   72B2
....................             printf("bc.pic=86"); 
07222:  MOVLW  E6
07224:  MOVWF  FF6
07226:  MOVLW  09
07228:  MOVWF  FF7
0722A:  MOVLW  00
0722C:  MOVWF  FF8
0722E:  MOVLB  0
07230:  CALL   3510
....................             SendDataDisplay(); 
07234:  CALL   3542
....................             printf("bd.pic=45"); 
07238:  MOVLW  F0
0723A:  MOVWF  FF6
0723C:  MOVLW  09
0723E:  MOVWF  FF7
07240:  MOVLW  00
07242:  MOVWF  FF8
07244:  CALL   3510
....................             SendDataDisplay(); 
07248:  CALL   3542
....................             printf("bi.pic=36"); 
0724C:  MOVLW  FA
0724E:  MOVWF  FF6
07250:  MOVLW  09
07252:  MOVWF  FF7
07254:  MOVLW  00
07256:  MOVWF  FF8
07258:  CALL   3510
....................             SendDataDisplay(); 
0725C:  CALL   3542
....................             printf("bc.pic2=86"); 
07260:  MOVLW  04
07262:  MOVWF  FF6
07264:  MOVLW  0A
07266:  MOVWF  FF7
07268:  MOVLW  00
0726A:  MOVWF  FF8
0726C:  CALL   3510
....................             SendDataDisplay(); 
07270:  CALL   3542
....................             printf("bd.pic2=45"); 
07274:  MOVLW  10
07276:  MOVWF  FF6
07278:  MOVLW  0A
0727A:  MOVWF  FF7
0727C:  MOVLW  00
0727E:  MOVWF  FF8
07280:  CALL   3510
....................             SendDataDisplay(); 
07284:  CALL   3542
....................             printf("bi.pic2=36"); 
07288:  MOVLW  1C
0728A:  MOVWF  FF6
0728C:  MOVLW  0A
0728E:  MOVWF  FF7
07290:  MOVLW  00
07292:  MOVWF  FF8
07294:  CALL   3510
....................             SendDataDisplay(); 
07298:  CALL   3542
....................             printf("textop.txt=\"INSTRUMENTAL\""); 
0729C:  MOVLW  28
0729E:  MOVWF  FF6
072A0:  MOVLW  0A
072A2:  MOVWF  FF7
072A4:  MOVLW  00
072A6:  MOVWF  FF8
072A8:  CALL   3510
....................             SendDataDisplay(); 
072AC:  CALL   3542
072B0:  MOVLB  3
....................          } 
....................    
....................          if(Opcion==1){ 
072B2:  DECFSZ x7C,W
072B4:  BRA    7346
....................             printf("bc.pic=91"); 
072B6:  MOVLW  42
072B8:  MOVWF  FF6
072BA:  MOVLW  0A
072BC:  MOVWF  FF7
072BE:  MOVLW  00
072C0:  MOVWF  FF8
072C2:  MOVLB  0
072C4:  CALL   3510
....................             SendDataDisplay(); 
072C8:  CALL   3542
....................             printf("bd.pic=37"); 
072CC:  MOVLW  4C
072CE:  MOVWF  FF6
072D0:  MOVLW  0A
072D2:  MOVWF  FF7
072D4:  MOVLW  00
072D6:  MOVWF  FF8
072D8:  CALL   3510
....................             SendDataDisplay(); 
072DC:  CALL   3542
....................             printf("bi.pic=38"); 
072E0:  MOVLW  56
072E2:  MOVWF  FF6
072E4:  MOVLW  0A
072E6:  MOVWF  FF7
072E8:  MOVLW  00
072EA:  MOVWF  FF8
072EC:  CALL   3510
....................             SendDataDisplay(); 
072F0:  CALL   3542
....................             printf("bc.pic2=91"); 
072F4:  MOVLW  60
072F6:  MOVWF  FF6
072F8:  MOVLW  0A
072FA:  MOVWF  FF7
072FC:  MOVLW  00
072FE:  MOVWF  FF8
07300:  CALL   3510
....................             SendDataDisplay(); 
07304:  CALL   3542
....................             printf("bd.pic2=37"); 
07308:  MOVLW  6C
0730A:  MOVWF  FF6
0730C:  MOVLW  0A
0730E:  MOVWF  FF7
07310:  MOVLW  00
07312:  MOVWF  FF8
07314:  CALL   3510
....................             SendDataDisplay(); 
07318:  CALL   3542
....................             printf("bi.pic2=38"); 
0731C:  MOVLW  78
0731E:  MOVWF  FF6
07320:  MOVLW  0A
07322:  MOVWF  FF7
07324:  MOVLW  00
07326:  MOVWF  FF8
07328:  CALL   3510
....................             SendDataDisplay(); 
0732C:  CALL   3542
....................             printf("textop.txt=\"PLASTICO\""); 
07330:  MOVLW  84
07332:  MOVWF  FF6
07334:  MOVLW  0A
07336:  MOVWF  FF7
07338:  MOVLW  00
0733A:  MOVWF  FF8
0733C:  CALL   3510
....................             SendDataDisplay(); 
07340:  CALL   3542
07344:  MOVLB  3
....................          } 
....................       }else if(PantallaPrincipal==1){ 
07346:  BRA    774A
07348:  DECFSZ x13,W
0734A:  BRA    774A
....................          printf("ttitulo.txt=\"CICLO LIBRE\""); 
0734C:  MOVLW  9A
0734E:  MOVWF  FF6
07350:  MOVLW  0A
07352:  MOVWF  FF7
07354:  MOVLW  00
07356:  MOVWF  FF8
07358:  MOVLB  0
0735A:  CALL   3510
....................          SendDataDisplay(); 
0735E:  CALL   3542
....................          if(Opcion>15) 
07362:  MOVLB  3
07364:  MOVF   x7C,W
07366:  SUBLW  0F
07368:  BC    736E
....................             Opcion=11; 
0736A:  MOVLW  0B
0736C:  MOVWF  x7C
....................              
....................          if(Opcion<11) 
0736E:  MOVF   x7C,W
07370:  SUBLW  0A
07372:  BNC   7378
....................             Opcion=15; 
07374:  MOVLW  0F
07376:  MOVWF  x7C
....................              
....................          if(RIGHT){ 
07378:  BSF    F93.4
0737A:  BTFSC  F81.4
0737C:  BRA    7392
....................             delay_ms(200); 
0737E:  MOVLW  C8
07380:  MOVWF  xC8
07382:  MOVLB  0
07384:  CALL   1C24
....................             if(RIGHT){ 
07388:  BSF    F93.4
0738A:  BTFSC  F81.4
0738C:  BRA    7394
....................                Opcion++; 
0738E:  MOVLB  3
07390:  INCF   x7C,F
07392:  MOVLB  0
....................             } 
....................          } 
....................           
....................          if(LEFT){ 
07394:  BSF    F93.3
07396:  BTFSC  F81.3
07398:  BRA    73B2
....................             delay_ms(200); 
0739A:  MOVLW  C8
0739C:  MOVLB  3
0739E:  MOVWF  xC8
073A0:  MOVLB  0
073A2:  CALL   1C24
....................             if(LEFT){ 
073A6:  BSF    F93.3
073A8:  BTFSC  F81.3
073AA:  BRA    73B2
....................                Opcion--; 
073AC:  MOVLB  3
073AE:  DECF   x7C,F
073B0:  MOVLB  0
....................             } 
....................          } 
....................              
....................          if(RX_Buffer[4]==0x0d && !Op){//Tecla Derecha Oprimida 
073B2:  MOVF   34,W
073B4:  SUBLW  0D
073B6:  BNZ   73C8
073B8:  BTFSC  xCB.7
073BA:  BRA    73C8
....................             Opcion++; 
073BC:  MOVLB  3
073BE:  INCF   x7C,F
....................             RX_Buffer[4]=0x00; 
073C0:  CLRF   34
....................             Op=ON; 
073C2:  MOVLB  0
073C4:  BSF    xCB.7
....................             flagc=OFF; 
073C6:  BCF    xCD.6
....................             //BorraBuffer(); 
....................          } 
....................           
....................          if(RX_Buffer[4]==0x0c && Op){//Tecla Derecha Oprimida 
073C8:  MOVF   34,W
073CA:  SUBLW  0C
073CC:  BNZ   73DE
073CE:  BTFSS  xCB.7
073D0:  BRA    73DE
....................             Opcion++; 
073D2:  MOVLB  3
073D4:  INCF   x7C,F
....................             RX_Buffer[4]=0x00; 
073D6:  CLRF   34
....................             Op=OFF; 
073D8:  MOVLB  0
073DA:  BCF    xCB.7
....................             flagc=OFF; 
073DC:  BCF    xCD.6
....................             //BorraBuffer(); 
....................          } 
....................           
....................          if(RX_Buffer[4]==0x0e && !Op2){//Tecla Izquierda Oprimida 
073DE:  MOVF   34,W
073E0:  SUBLW  0E
073E2:  BNZ   73F4
073E4:  BTFSC  xCC.0
073E6:  BRA    73F4
....................             Opcion--; 
073E8:  MOVLB  3
073EA:  DECF   x7C,F
....................             RX_Buffer[4]=0x00; 
073EC:  CLRF   34
....................             Op2=ON; 
073EE:  MOVLB  0
073F0:  BSF    xCC.0
....................             flagc=OFF; 
073F2:  BCF    xCD.6
....................             //BorraBuffer(); 
....................          } 
....................           
....................          if(RX_Buffer[4]==0x0f && Op2){//Tecla Izquierda Oprimida 
073F4:  MOVF   34,W
073F6:  SUBLW  0F
073F8:  BNZ   740A
073FA:  BTFSS  xCC.0
073FC:  BRA    740A
....................             Opcion--; 
073FE:  MOVLB  3
07400:  DECF   x7C,F
....................             RX_Buffer[4]=0x00; 
07402:  CLRF   34
....................             Op2=OFF; 
07404:  MOVLB  0
07406:  BCF    xCC.0
....................             flagc=OFF; 
07408:  BCF    xCD.6
....................             //BorraBuffer(); 
....................          } 
....................    
....................          if(Opcion==15){ 
0740A:  MOVLB  3
0740C:  MOVF   x7C,W
0740E:  SUBLW  0F
07410:  BNZ   74A2
....................             printf("bc.pic=85"); 
07412:  MOVLW  B4
07414:  MOVWF  FF6
07416:  MOVLW  0A
07418:  MOVWF  FF7
0741A:  MOVLW  00
0741C:  MOVWF  FF8
0741E:  MOVLB  0
07420:  CALL   3510
....................             SendDataDisplay(); 
07424:  CALL   3542
....................             printf("bd.pic=57"); 
07428:  MOVLW  BE
0742A:  MOVWF  FF6
0742C:  MOVLW  0A
0742E:  MOVWF  FF7
07430:  MOVLW  00
07432:  MOVWF  FF8
07434:  CALL   3510
....................             SendDataDisplay(); 
07438:  CALL   3542
....................             printf("bi.pic=47"); 
0743C:  MOVLW  C8
0743E:  MOVWF  FF6
07440:  MOVLW  0A
07442:  MOVWF  FF7
07444:  MOVLW  00
07446:  MOVWF  FF8
07448:  CALL   3510
....................             SendDataDisplay(); 
0744C:  CALL   3542
....................             printf("bc.pic2=85"); 
07450:  MOVLW  D2
07452:  MOVWF  FF6
07454:  MOVLW  0A
07456:  MOVWF  FF7
07458:  MOVLW  00
0745A:  MOVWF  FF8
0745C:  CALL   3510
....................             SendDataDisplay(); 
07460:  CALL   3542
....................             printf("bd.pic2=57"); 
07464:  MOVLW  DE
07466:  MOVWF  FF6
07468:  MOVLW  0A
0746A:  MOVWF  FF7
0746C:  MOVLW  00
0746E:  MOVWF  FF8
07470:  CALL   3510
....................             SendDataDisplay(); 
07474:  CALL   3542
....................             printf("bi.pic2=47"); 
07478:  MOVLW  EA
0747A:  MOVWF  FF6
0747C:  MOVLW  0A
0747E:  MOVWF  FF7
07480:  MOVLW  00
07482:  MOVWF  FF8
07484:  CALL   3510
....................             SendDataDisplay(); 
07488:  CALL   3542
....................             printf("textop.txt=\"INICIAR CICLO\""); 
0748C:  MOVLW  F6
0748E:  MOVWF  FF6
07490:  MOVLW  0A
07492:  MOVWF  FF7
07494:  MOVLW  00
07496:  MOVWF  FF8
07498:  CALL   3510
....................             SendDataDisplay(); 
0749C:  CALL   3542
074A0:  MOVLB  3
....................          } 
....................           
....................          if(Opcion==14){ 
074A2:  MOVF   x7C,W
074A4:  SUBLW  0E
074A6:  BNZ   7538
....................             printf("bc.pic=90"); 
074A8:  MOVLW  12
074AA:  MOVWF  FF6
074AC:  MOVLW  0B
074AE:  MOVWF  FF7
074B0:  MOVLW  00
074B2:  MOVWF  FF8
074B4:  MOVLB  0
074B6:  CALL   3510
....................             SendDataDisplay(); 
074BA:  CALL   3542
....................             printf("bd.pic=41"); 
074BE:  MOVLW  1C
074C0:  MOVWF  FF6
074C2:  MOVLW  0B
074C4:  MOVWF  FF7
074C6:  MOVLW  00
074C8:  MOVWF  FF8
074CA:  CALL   3510
....................             SendDataDisplay(); 
074CE:  CALL   3542
....................             printf("bi.pic=56"); 
074D2:  MOVLW  26
074D4:  MOVWF  FF6
074D6:  MOVLW  0B
074D8:  MOVWF  FF7
074DA:  MOVLW  00
074DC:  MOVWF  FF8
074DE:  CALL   3510
....................             SendDataDisplay(); 
074E2:  CALL   3542
....................             printf("bc.pic2=90"); 
074E6:  MOVLW  30
074E8:  MOVWF  FF6
074EA:  MOVLW  0B
074EC:  MOVWF  FF7
074EE:  MOVLW  00
074F0:  MOVWF  FF8
074F2:  CALL   3510
....................             SendDataDisplay(); 
074F6:  CALL   3542
....................             printf("bd.pic2=41"); 
074FA:  MOVLW  3C
074FC:  MOVWF  FF6
074FE:  MOVLW  0B
07500:  MOVWF  FF7
07502:  MOVLW  00
07504:  MOVWF  FF8
07506:  CALL   3510
....................             SendDataDisplay(); 
0750A:  CALL   3542
....................             printf("bi.pic2=56"); 
0750E:  MOVLW  48
07510:  MOVWF  FF6
07512:  MOVLW  0B
07514:  MOVWF  FF7
07516:  MOVLW  00
07518:  MOVWF  FF8
0751A:  CALL   3510
....................             SendDataDisplay(); 
0751E:  CALL   3542
....................             printf("textop.txt=\"NIVEL DESFOGUE\""); 
07522:  MOVLW  54
07524:  MOVWF  FF6
07526:  MOVLW  0B
07528:  MOVWF  FF7
0752A:  MOVLW  00
0752C:  MOVWF  FF8
0752E:  CALL   3510
....................             SendDataDisplay(); 
07532:  CALL   3542
07536:  MOVLB  3
....................          } 
....................           
....................          if(Opcion==13){ 
07538:  MOVF   x7C,W
0753A:  SUBLW  0D
0753C:  BNZ   75CE
....................             printf("bc.pic=92"); 
0753E:  MOVLW  70
07540:  MOVWF  FF6
07542:  MOVLW  0B
07544:  MOVWF  FF7
07546:  MOVLW  00
07548:  MOVWF  FF8
0754A:  MOVLB  0
0754C:  CALL   3510
....................             SendDataDisplay(); 
07550:  CALL   3542
....................             printf("bd.pic=47"); 
07554:  MOVLW  7A
07556:  MOVWF  FF6
07558:  MOVLW  0B
0755A:  MOVWF  FF7
0755C:  MOVLW  00
0755E:  MOVWF  FF8
07560:  CALL   3510
....................             SendDataDisplay(); 
07564:  CALL   3542
....................             printf("bi.pic=58"); 
07568:  MOVLW  84
0756A:  MOVWF  FF6
0756C:  MOVLW  0B
0756E:  MOVWF  FF7
07570:  MOVLW  00
07572:  MOVWF  FF8
07574:  CALL   3510
....................             SendDataDisplay(); 
07578:  CALL   3542
....................             printf("bc.pic2=92"); 
0757C:  MOVLW  8E
0757E:  MOVWF  FF6
07580:  MOVLW  0B
07582:  MOVWF  FF7
07584:  MOVLW  00
07586:  MOVWF  FF8
07588:  CALL   3510
....................             SendDataDisplay(); 
0758C:  CALL   3542
....................             printf("bd.pic2=47"); 
07590:  MOVLW  9A
07592:  MOVWF  FF6
07594:  MOVLW  0B
07596:  MOVWF  FF7
07598:  MOVLW  00
0759A:  MOVWF  FF8
0759C:  CALL   3510
....................             SendDataDisplay(); 
075A0:  CALL   3542
....................             printf("bi.pic2=58"); 
075A4:  MOVLW  A6
075A6:  MOVWF  FF6
075A8:  MOVLW  0B
075AA:  MOVWF  FF7
075AC:  MOVLW  00
075AE:  MOVWF  FF8
075B0:  CALL   3510
....................             SendDataDisplay(); 
075B4:  CALL   3542
....................             printf("textop.txt=\"TEMPERATURA\""); 
075B8:  MOVLW  B2
075BA:  MOVWF  FF6
075BC:  MOVLW  0B
075BE:  MOVWF  FF7
075C0:  MOVLW  00
075C2:  MOVWF  FF8
075C4:  CALL   3510
....................             SendDataDisplay(); 
075C8:  CALL   3542
075CC:  MOVLB  3
....................          } 
....................           
....................          if(Opcion==12){ 
075CE:  MOVF   x7C,W
075D0:  SUBLW  0C
075D2:  BNZ   7664
....................             printf("bc.pic=95"); 
075D4:  MOVLW  CC
075D6:  MOVWF  FF6
075D8:  MOVLW  0B
075DA:  MOVWF  FF7
075DC:  MOVLW  00
075DE:  MOVWF  FF8
075E0:  MOVLB  0
075E2:  CALL   3510
....................             SendDataDisplay(); 
075E6:  CALL   3542
....................             printf("bd.pic=56"); 
075EA:  MOVLW  D6
075EC:  MOVWF  FF6
075EE:  MOVLW  0B
075F0:  MOVWF  FF7
075F2:  MOVLW  00
075F4:  MOVWF  FF8
075F6:  CALL   3510
....................             SendDataDisplay(); 
075FA:  CALL   3542
....................             printf("bi.pic=57"); 
075FE:  MOVLW  E0
07600:  MOVWF  FF6
07602:  MOVLW  0B
07604:  MOVWF  FF7
07606:  MOVLW  00
07608:  MOVWF  FF8
0760A:  CALL   3510
....................             SendDataDisplay(); 
0760E:  CALL   3542
....................             printf("bc.pic2=95"); 
07612:  MOVLW  EA
07614:  MOVWF  FF6
07616:  MOVLW  0B
07618:  MOVWF  FF7
0761A:  MOVLW  00
0761C:  MOVWF  FF8
0761E:  CALL   3510
....................             SendDataDisplay(); 
07622:  CALL   3542
....................             printf("bd.pic2=56"); 
07626:  MOVLW  F6
07628:  MOVWF  FF6
0762A:  MOVLW  0B
0762C:  MOVWF  FF7
0762E:  MOVLW  00
07630:  MOVWF  FF8
07632:  CALL   3510
....................             SendDataDisplay(); 
07636:  CALL   3542
....................             printf("bi.pic2=57"); 
0763A:  MOVLW  02
0763C:  MOVWF  FF6
0763E:  MOVLW  0C
07640:  MOVWF  FF7
07642:  MOVLW  00
07644:  MOVWF  FF8
07646:  CALL   3510
....................             SendDataDisplay(); 
0764A:  CALL   3542
....................             printf("textop.txt=\"T. SECADO\""); 
0764E:  MOVLW  0E
07650:  MOVWF  FF6
07652:  MOVLW  0C
07654:  MOVWF  FF7
07656:  MOVLW  00
07658:  MOVWF  FF8
0765A:  CALL   3510
....................             SendDataDisplay(); 
0765E:  CALL   3542
07662:  MOVLB  3
....................          } 
....................  
....................          if(Opcion==11){ 
07664:  MOVF   x7C,W
07666:  SUBLW  0B
07668:  BNZ   76FA
....................             printf("bc.pic=94"); 
0766A:  MOVLW  26
0766C:  MOVWF  FF6
0766E:  MOVLW  0C
07670:  MOVWF  FF7
07672:  MOVLW  00
07674:  MOVWF  FF8
07676:  MOVLB  0
07678:  CALL   3510
....................             SendDataDisplay(); 
0767C:  CALL   3542
....................             printf("bd.pic=58"); 
07680:  MOVLW  30
07682:  MOVWF  FF6
07684:  MOVLW  0C
07686:  MOVWF  FF7
07688:  MOVLW  00
0768A:  MOVWF  FF8
0768C:  CALL   3510
....................             SendDataDisplay(); 
07690:  CALL   3542
....................             printf("bi.pic=41"); 
07694:  MOVLW  3A
07696:  MOVWF  FF6
07698:  MOVLW  0C
0769A:  MOVWF  FF7
0769C:  MOVLW  00
0769E:  MOVWF  FF8
076A0:  CALL   3510
....................             SendDataDisplay(); 
076A4:  CALL   3542
....................             printf("bc.pic2=94"); 
076A8:  MOVLW  44
076AA:  MOVWF  FF6
076AC:  MOVLW  0C
076AE:  MOVWF  FF7
076B0:  MOVLW  00
076B2:  MOVWF  FF8
076B4:  CALL   3510
....................             SendDataDisplay(); 
076B8:  CALL   3542
....................             printf("bd.pic2=58"); 
076BC:  MOVLW  50
076BE:  MOVWF  FF6
076C0:  MOVLW  0C
076C2:  MOVWF  FF7
076C4:  MOVLW  00
076C6:  MOVWF  FF8
076C8:  CALL   3510
....................             SendDataDisplay(); 
076CC:  CALL   3542
....................             printf("bi.pic2=41"); 
076D0:  MOVLW  5C
076D2:  MOVWF  FF6
076D4:  MOVLW  0C
076D6:  MOVWF  FF7
076D8:  MOVLW  00
076DA:  MOVWF  FF8
076DC:  CALL   3510
....................             SendDataDisplay(); 
076E0:  CALL   3542
....................             printf("textop.txt=\"T. ESTERILIZACIN\""); 
076E4:  MOVLW  68
076E6:  MOVWF  FF6
076E8:  MOVLW  0C
076EA:  MOVWF  FF7
076EC:  MOVLW  00
076EE:  MOVWF  FF8
076F0:  CALL   3510
....................             SendDataDisplay(); 
076F4:  CALL   3542
076F8:  MOVLB  3
....................          } 
....................           
....................          if(RX_Buffer[4]==0x11 || DOWN){//11 Boton de regresar 
076FA:  MOVF   34,W
076FC:  SUBLW  11
076FE:  BZ    7706
07700:  BSF    F93.5
07702:  BTFSC  F81.5
07704:  BRA    774A
....................             delay_ms(200); 
07706:  MOVLW  C8
07708:  MOVWF  xC8
0770A:  MOVLB  0
0770C:  CALL   1C24
....................             if(RX_Buffer[4]==0x11 || DOWN){ 
07710:  MOVF   34,W
07712:  SUBLW  11
07714:  BZ    771C
07716:  BSF    F93.5
07718:  BTFSC  F81.5
0771A:  BRA    774C
....................                PantallaPrincipal=0; 
0771C:  MOVLB  3
0771E:  CLRF   x13
....................                printf("page MenuPrincipal"); 
07720:  MOVLW  88
07722:  MOVWF  FF6
07724:  MOVLW  0C
07726:  MOVWF  FF7
07728:  MOVLW  00
0772A:  MOVWF  FF8
0772C:  MOVLB  0
0772E:  CALL   3510
....................                SendDataDisplay();  
07732:  CALL   3542
....................                Op=OFF; 
07736:  BCF    xCB.7
....................                Op2=OFF; 
07738:  BCF    xCC.0
....................                MenuAnt=Menu; 
0773A:  MOVFF  374,375
....................                TipoClave=1; 
0773E:  MOVLW  01
07740:  MOVLB  3
07742:  MOVWF  x14
....................                RX_Buffer[3]=0x00; 
07744:  CLRF   33
....................                RX_Buffer2[3]=0x00; 
07746:  CLRF   3E
....................                Opcion=0; 
07748:  CLRF   x7C
0774A:  MOVLB  0
....................             } 
....................          }          
....................       } 
....................          if(RIGHT && LEFT){ 
0774C:  BSF    F93.4
0774E:  BTFSC  F81.4
07750:  BRA    779A
07752:  BSF    F93.3
07754:  BTFSC  F81.3
07756:  BRA    779A
....................             delay_ms(20); 
07758:  MOVLW  14
0775A:  MOVLB  3
0775C:  MOVWF  xC8
0775E:  MOVLB  0
07760:  CALL   1C24
....................             if(RIGHT && LEFT){ 
07764:  BSF    F93.4
07766:  BTFSC  F81.4
07768:  BRA    779A
0776A:  BSF    F93.3
0776C:  BTFSC  F81.3
0776E:  BRA    779A
....................                printf("page Clave"); 
07770:  MOVLW  9C
07772:  MOVWF  FF6
07774:  MOVLW  0C
07776:  MOVWF  FF7
07778:  MOVLW  00
0777A:  MOVWF  FF8
0777C:  CALL   3510
....................                SendDataDisplay();  
07780:  CALL   3542
....................                Op=OFF; 
07784:  BCF    xCB.7
....................                Op2=OFF; 
07786:  BCF    xCC.0
....................                MenuAnt=Menu; 
07788:  MOVFF  374,375
....................                TipoClave=1; 
0778C:  MOVLW  01
0778E:  MOVLB  3
07790:  MOVWF  x14
....................                RX_Buffer[3]=0x00; 
07792:  CLRF   33
....................                RX_Buffer2[3]=0x00; 
07794:  CLRF   3E
....................                Opcion=0; 
07796:  CLRF   x7C
07798:  MOVLB  0
....................             } 
....................          } 
....................    } 
.................... //_--------------------------------------------------------------------------------------------------------------------------------------------------------        
....................  
.................... //_-------------------------------------------------------------------------------------------------------------------------------------------------------- 
....................     if(Menu==2){ //Menu de Tiempo Esterilizacion      
0779A:  MOVLB  3
0779C:  MOVF   x74,W
0779E:  SUBLW  02
077A0:  BTFSS  FD8.2
077A2:  BRA    7BF2
....................       printf("fecha.txt=\"Fecha:%02u/%02u/20%02u    Hora: %02u:%02u\"",Dia,Mes,Year,Hora,Minuto); 
077A4:  MOVLW  A8
077A6:  MOVWF  FF6
077A8:  MOVLW  0C
077AA:  MOVWF  FF7
077AC:  MOVLW  00
077AE:  MOVWF  FF8
077B0:  MOVLW  11
077B2:  MOVWF  xC1
077B4:  MOVLB  0
077B6:  CALL   464A
077BA:  MOVFF  3AC,3BE
077BE:  MOVLW  01
077C0:  MOVLB  3
077C2:  MOVWF  xBF
077C4:  MOVLB  0
077C6:  CALL   46A8
077CA:  MOVLW  2F
077CC:  BTFSS  F9E.4
077CE:  BRA    77CC
077D0:  MOVWF  FAD
077D2:  MOVFF  3AB,3BE
077D6:  MOVLW  01
077D8:  MOVLB  3
077DA:  MOVWF  xBF
077DC:  MOVLB  0
077DE:  CALL   46A8
077E2:  MOVLW  2F
077E4:  BTFSS  F9E.4
077E6:  BRA    77E4
077E8:  MOVWF  FAD
077EA:  MOVLW  32
077EC:  BTFSS  F9E.4
077EE:  BRA    77EC
077F0:  MOVWF  FAD
077F2:  MOVLW  30
077F4:  BTFSS  F9E.4
077F6:  BRA    77F4
077F8:  MOVWF  FAD
077FA:  MOVFF  3AA,3BE
077FE:  MOVLW  01
07800:  MOVLB  3
07802:  MOVWF  xBF
07804:  MOVLB  0
07806:  CALL   46A8
0780A:  MOVLW  C9
0780C:  MOVWF  FF6
0780E:  MOVLW  0C
07810:  MOVWF  FF7
07812:  MOVLW  00
07814:  MOVWF  FF8
07816:  MOVLW  0A
07818:  MOVLB  3
0781A:  MOVWF  xC1
0781C:  MOVLB  0
0781E:  CALL   464A
07822:  MOVFF  3AD,3BE
07826:  MOVLW  01
07828:  MOVLB  3
0782A:  MOVWF  xBF
0782C:  MOVLB  0
0782E:  CALL   46A8
07832:  MOVLW  3A
07834:  BTFSS  F9E.4
07836:  BRA    7834
07838:  MOVWF  FAD
0783A:  MOVFF  3AE,3BE
0783E:  MOVLW  01
07840:  MOVLB  3
07842:  MOVWF  xBF
07844:  MOVLB  0
07846:  CALL   46A8
0784A:  MOVLW  22
0784C:  BTFSS  F9E.4
0784E:  BRA    784C
07850:  MOVWF  FAD
....................       SendDataDisplay(); 
07852:  CALL   3542
....................          if(RX_Buffer[4]==0x0a){//Selecciono Minutos 
07856:  MOVF   34,W
07858:  SUBLW  0A
0785A:  BNZ   7860
....................             Minutos=ON; 
0785C:  BSF    xCC.1
....................             Segundos=OFF; 
0785E:  BCF    xCC.2
....................          } 
....................           
....................          if(RX_Buffer[4]==0x0b){//Selecciono Segundos 
07860:  MOVF   34,W
07862:  SUBLW  0B
07864:  BNZ   786A
....................             Segundos=ON; 
07866:  BSF    xCC.2
....................             Minutos=OFF; 
07868:  BCF    xCC.1
....................          } 
....................           
....................          if(RX_Buffer[4]==0x11 || LEFT){//Selecciono Regresar 
0786A:  MOVF   34,W
0786C:  SUBLW  11
0786E:  BZ    7876
07870:  BSF    F93.3
07872:  BTFSC  F81.3
07874:  BRA    7996
....................             Segundos=OFF; 
07876:  BCF    xCC.2
....................             Minutos=OFF; 
07878:  BCF    xCC.1
....................             printf("page MenuPrincipal"); 
0787A:  MOVLW  DE
0787C:  MOVWF  FF6
0787E:  MOVLW  0C
07880:  MOVWF  FF7
07882:  MOVLW  00
07884:  MOVWF  FF8
07886:  CALL   3510
....................             SendDataDisplay();   
0788A:  CALL   3542
....................             PantallaPrincipal=1; 
0788E:  MOVLW  01
07890:  MOVLB  3
07892:  MOVWF  x13
....................             Op=OFF; 
07894:  MOVLB  0
07896:  BCF    xCB.7
....................             Op2=OFF; 
07898:  BCF    xCC.0
....................             if(!GuardaEEPROM){ 
0789A:  BTFSC  xCC.3
0789C:  BRA    7996
....................                write_eeprom(0,Testerilizacionp[0]);delay_ms(20);write_eeprom(1,Testerilizacionp[1]);delay_ms(20); 
0789E:  CLRF   FAA
078A0:  CLRF   FA9
078A2:  MOVFF  E5,FA8
078A6:  BCF    FA6.6
078A8:  BCF    FA6.7
078AA:  BSF    FA6.2
078AC:  MOVF   FF2,W
078AE:  MOVWF  00
078B0:  BCF    FF2.6
078B2:  BCF    FF2.7
078B4:  MOVLB  F
078B6:  MOVLW  55
078B8:  MOVWF  FA7
078BA:  MOVLW  AA
078BC:  MOVWF  FA7
078BE:  BSF    FA6.1
078C0:  BTFSC  FA6.1
078C2:  BRA    78C0
078C4:  BCF    FA6.2
078C6:  MOVF   00,W
078C8:  IORWF  FF2,F
078CA:  MOVLW  14
078CC:  MOVLB  3
078CE:  MOVWF  xC8
078D0:  MOVLB  0
078D2:  CALL   1C24
078D6:  CLRF   FAA
078D8:  MOVLW  01
078DA:  MOVWF  FA9
078DC:  MOVFF  E6,FA8
078E0:  BCF    FA6.6
078E2:  BCF    FA6.7
078E4:  BSF    FA6.2
078E6:  MOVF   FF2,W
078E8:  MOVWF  00
078EA:  BCF    FF2.6
078EC:  BCF    FF2.7
078EE:  MOVLB  F
078F0:  MOVLW  55
078F2:  MOVWF  FA7
078F4:  MOVLW  AA
078F6:  MOVWF  FA7
078F8:  BSF    FA6.1
078FA:  BTFSC  FA6.1
078FC:  BRA    78FA
078FE:  BCF    FA6.2
07900:  MOVF   00,W
07902:  IORWF  FF2,F
07904:  MOVLW  14
07906:  MOVLB  3
07908:  MOVWF  xC8
0790A:  MOVLB  0
0790C:  CALL   1C24
....................                write_eeprom(2,Testerilizacionp[2]);delay_ms(20);write_eeprom(3,Testerilizacionp[3]);delay_ms(20); 
07910:  CLRF   FAA
07912:  MOVLW  02
07914:  MOVWF  FA9
07916:  MOVFF  E7,FA8
0791A:  BCF    FA6.6
0791C:  BCF    FA6.7
0791E:  BSF    FA6.2
07920:  MOVF   FF2,W
07922:  MOVWF  00
07924:  BCF    FF2.6
07926:  BCF    FF2.7
07928:  MOVLB  F
0792A:  MOVLW  55
0792C:  MOVWF  FA7
0792E:  MOVLW  AA
07930:  MOVWF  FA7
07932:  BSF    FA6.1
07934:  BTFSC  FA6.1
07936:  BRA    7934
07938:  BCF    FA6.2
0793A:  MOVF   00,W
0793C:  IORWF  FF2,F
0793E:  MOVLW  14
07940:  MOVLB  3
07942:  MOVWF  xC8
07944:  MOVLB  0
07946:  CALL   1C24
0794A:  CLRF   FAA
0794C:  MOVLW  03
0794E:  MOVWF  FA9
07950:  MOVFF  E8,FA8
07954:  BCF    FA6.6
07956:  BCF    FA6.7
07958:  BSF    FA6.2
0795A:  MOVF   FF2,W
0795C:  MOVWF  00
0795E:  BCF    FF2.6
07960:  BCF    FF2.7
07962:  MOVLB  F
07964:  MOVLW  55
07966:  MOVWF  FA7
07968:  MOVLW  AA
0796A:  MOVWF  FA7
0796C:  BSF    FA6.1
0796E:  BTFSC  FA6.1
07970:  BRA    796E
07972:  BCF    FA6.2
07974:  MOVF   00,W
07976:  IORWF  FF2,F
07978:  MOVLW  14
0797A:  MOVLB  3
0797C:  MOVWF  xC8
0797E:  MOVLB  0
07980:  CALL   1C24
....................                Testerilizacion[0]=Testerilizacionp[0]; 
07984:  MOVFF  E5,E1
....................                Testerilizacion[1]=Testerilizacionp[1]; 
07988:  MOVFF  E6,E2
....................                Testerilizacion[2]=Testerilizacionp[2]; 
0798C:  MOVFF  E7,E3
....................                Testerilizacion[3]=Testerilizacionp[3]; 
07990:  MOVFF  E8,E4
....................                GuardaEEPROM=ON; 
07994:  BSF    xCC.3
....................             } 
....................          } 
....................           
....................          if(RIGHT){ 
07996:  BSF    F93.4
07998:  BTFSC  F81.4
0799A:  BRA    7A10
....................             delay_ms(200); 
0799C:  MOVLW  C8
0799E:  MOVLB  3
079A0:  MOVWF  xC8
079A2:  MOVLB  0
079A4:  CALL   1C24
....................             if(RIGHT){ 
079A8:  BSF    F93.4
079AA:  BTFSC  F81.4
079AC:  BRA    7A10
....................                if(!Segundos){ 
079AE:  BTFSC  xCC.2
079B0:  BRA    79E0
....................                   Segundos=ON; 
079B2:  BSF    xCC.2
....................                   Minutos=OFF; 
079B4:  BCF    xCC.1
....................                   printf("tsecest.pco=65535"); 
079B6:  MOVLW  F2
079B8:  MOVWF  FF6
079BA:  MOVLW  0C
079BC:  MOVWF  FF7
079BE:  MOVLW  00
079C0:  MOVWF  FF8
079C2:  CALL   3510
....................                   SendDataDisplay();   
079C6:  CALL   3542
....................                   printf("tminest.pco=0"); 
079CA:  MOVLW  04
079CC:  MOVWF  FF6
079CE:  MOVLW  0D
079D0:  MOVWF  FF7
079D2:  MOVLW  00
079D4:  MOVWF  FF8
079D6:  CALL   3510
....................                   SendDataDisplay();   
079DA:  CALL   3542
....................                }else if(!Minutos){ 
079DE:  BRA    7A10
079E0:  BTFSC  xCC.1
079E2:  BRA    7A10
....................                   Segundos=OFF; 
079E4:  BCF    xCC.2
....................                   Minutos=ON; 
079E6:  BSF    xCC.1
....................                   printf("tsecest.pco=0"); 
079E8:  MOVLW  12
079EA:  MOVWF  FF6
079EC:  MOVLW  0D
079EE:  MOVWF  FF7
079F0:  MOVLW  00
079F2:  MOVWF  FF8
079F4:  CALL   3510
....................                   SendDataDisplay();   
079F8:  CALL   3542
....................                   printf("tminest.pco=65535"); 
079FC:  MOVLW  20
079FE:  MOVWF  FF6
07A00:  MOVLW  0D
07A02:  MOVWF  FF7
07A04:  MOVLW  00
07A06:  MOVWF  FF8
07A08:  CALL   3510
....................                   SendDataDisplay();   
07A0C:  CALL   3542
....................                } 
....................             } 
....................          } 
....................           
....................          if(UP){ 
07A10:  BSF    F93.6
07A12:  BTFSC  F81.6
07A14:  BRA    7A50
....................             delay_ms(200); 
07A16:  MOVLW  C8
07A18:  MOVLB  3
07A1A:  MOVWF  xC8
07A1C:  MOVLB  0
07A1E:  CALL   1C24
....................             if(UP){ 
07A22:  BSF    F93.6
07A24:  BTFSC  F81.6
07A26:  BRA    7A50
....................                if(Segundos){ 
07A28:  BTFSS  xCC.2
07A2A:  BRA    7A3C
....................                   Testerilizacionp[0]++; 
07A2C:  INCF   xE5,F
....................                   if(Testerilizacionp[0]>9){ 
07A2E:  BTFSC  xE5.7
07A30:  BRA    7A3C
07A32:  MOVF   xE5,W
07A34:  SUBLW  09
07A36:  BC    7A3C
....................                      Testerilizacionp[1]++; 
07A38:  INCF   xE6,F
....................                      Testerilizacionp[0]=0; 
07A3A:  CLRF   xE5
....................                   } 
....................                } 
....................                if(Minutos){ 
07A3C:  BTFSS  xCC.1
07A3E:  BRA    7A50
....................                   Testerilizacionp[2]++; 
07A40:  INCF   xE7,F
....................                   if(Testerilizacionp[2]>9){ 
07A42:  BTFSC  xE7.7
07A44:  BRA    7A50
07A46:  MOVF   xE7,W
07A48:  SUBLW  09
07A4A:  BC    7A50
....................                      Testerilizacionp[3]++; 
07A4C:  INCF   xE8,F
....................                      Testerilizacionp[2]=0; 
07A4E:  CLRF   xE7
....................                   } 
....................                }     
....................             } 
....................          } 
....................           
....................          if(DOWN){ 
07A50:  BSF    F93.5
07A52:  BTFSC  F81.5
07A54:  BRA    7A8C
....................             delay_ms(200); 
07A56:  MOVLW  C8
07A58:  MOVLB  3
07A5A:  MOVWF  xC8
07A5C:  MOVLB  0
07A5E:  CALL   1C24
....................             if(DOWN){ 
07A62:  BSF    F93.5
07A64:  BTFSC  F81.5
07A66:  BRA    7A8C
....................                if(Segundos){ 
07A68:  BTFSS  xCC.2
07A6A:  BRA    7A7A
....................                   Testerilizacionp[0]--; 
07A6C:  DECF   xE5,F
....................                   if(Testerilizacionp[0]<0){ 
07A6E:  BTFSC  xE5.7
07A70:  BRA    7A74
07A72:  BRA    7A7A
....................                      Testerilizacionp[1]--; 
07A74:  DECF   xE6,F
....................                      Testerilizacionp[0]=9; 
07A76:  MOVLW  09
07A78:  MOVWF  xE5
....................                   } 
....................                } 
....................                if(Minutos){ 
07A7A:  BTFSS  xCC.1
07A7C:  BRA    7A8C
....................                   Testerilizacionp[2]--; 
07A7E:  DECF   xE7,F
....................                   if(Testerilizacionp[2]<0){ 
07A80:  BTFSC  xE7.7
07A82:  BRA    7A86
07A84:  BRA    7A8C
....................                      Testerilizacionp[3]--; 
07A86:  DECF   xE8,F
....................                      Testerilizacionp[2]=9; 
07A88:  MOVLW  09
07A8A:  MOVWF  xE7
....................                   } 
....................                }     
....................             } 
....................          } 
....................           
....................          if(RX_Buffer[4]==0x0d && !Op){//Tecla Arriba Oprimida 
07A8C:  MOVF   34,W
07A8E:  SUBLW  0D
07A90:  BNZ   7AC2
07A92:  BTFSC  xCB.7
07A94:  BRA    7AC2
....................             if(Segundos){ 
07A96:  BTFSS  xCC.2
07A98:  BRA    7AAA
....................                Testerilizacionp[0]++; 
07A9A:  INCF   xE5,F
....................                if(Testerilizacionp[0]>9){ 
07A9C:  BTFSC  xE5.7
07A9E:  BRA    7AAA
07AA0:  MOVF   xE5,W
07AA2:  SUBLW  09
07AA4:  BC    7AAA
....................                   Testerilizacionp[1]++; 
07AA6:  INCF   xE6,F
....................                   Testerilizacionp[0]=0; 
07AA8:  CLRF   xE5
....................                } 
....................             } 
....................             if(Minutos){ 
07AAA:  BTFSS  xCC.1
07AAC:  BRA    7ABE
....................                Testerilizacionp[2]++; 
07AAE:  INCF   xE7,F
....................                if(Testerilizacionp[2]>9){ 
07AB0:  BTFSC  xE7.7
07AB2:  BRA    7ABE
07AB4:  MOVF   xE7,W
07AB6:  SUBLW  09
07AB8:  BC    7ABE
....................                   Testerilizacionp[3]++; 
07ABA:  INCF   xE8,F
....................                   Testerilizacionp[2]=0; 
07ABC:  CLRF   xE7
....................                } 
....................             } 
....................             RX_Buffer[4]=0x00; 
07ABE:  CLRF   34
....................             Op=ON; 
07AC0:  BSF    xCB.7
....................             //BorraBuffer(); 
....................          } 
....................           
....................          if(RX_Buffer[4]==0x0c && Op){//Tecla Derecha Oprimida 
07AC2:  MOVF   34,W
07AC4:  SUBLW  0C
07AC6:  BNZ   7AF8
07AC8:  BTFSS  xCB.7
07ACA:  BRA    7AF8
....................             if(Segundos){ 
07ACC:  BTFSS  xCC.2
07ACE:  BRA    7AE0
....................                Testerilizacionp[0]++; 
07AD0:  INCF   xE5,F
....................                if(Testerilizacionp[0]>9){ 
07AD2:  BTFSC  xE5.7
07AD4:  BRA    7AE0
07AD6:  MOVF   xE5,W
07AD8:  SUBLW  09
07ADA:  BC    7AE0
....................                   Testerilizacionp[1]++; 
07ADC:  INCF   xE6,F
....................                   Testerilizacionp[0]=0; 
07ADE:  CLRF   xE5
....................                } 
....................             } 
....................             if(Minutos){ 
07AE0:  BTFSS  xCC.1
07AE2:  BRA    7AF4
....................                Testerilizacionp[2]++; 
07AE4:  INCF   xE7,F
....................                if(Testerilizacionp[2]>9){ 
07AE6:  BTFSC  xE7.7
07AE8:  BRA    7AF4
07AEA:  MOVF   xE7,W
07AEC:  SUBLW  09
07AEE:  BC    7AF4
....................                   Testerilizacionp[3]++; 
07AF0:  INCF   xE8,F
....................                   Testerilizacionp[2]=0; 
07AF2:  CLRF   xE7
....................                } 
....................             } 
....................             RX_Buffer[4]=0x00; 
07AF4:  CLRF   34
....................             Op=OFF; 
07AF6:  BCF    xCB.7
....................             //BorraBuffer(); 
....................          } 
....................           
....................          if(RX_Buffer[4]==0x0e && !Op2){//Tecla Izquierda Oprimida 
07AF8:  MOVF   34,W
07AFA:  SUBLW  0E
07AFC:  BNZ   7B2A
07AFE:  BTFSC  xCC.0
07B00:  BRA    7B2A
....................             if(Segundos){ 
07B02:  BTFSS  xCC.2
07B04:  BRA    7B14
....................                Testerilizacionp[0]--; 
07B06:  DECF   xE5,F
....................                if(Testerilizacionp[0]<0){ 
07B08:  BTFSC  xE5.7
07B0A:  BRA    7B0E
07B0C:  BRA    7B14
....................                   Testerilizacionp[1]--; 
07B0E:  DECF   xE6,F
....................                   Testerilizacionp[0]=9; 
07B10:  MOVLW  09
07B12:  MOVWF  xE5
....................                } 
....................             } 
....................             if(Minutos){ 
07B14:  BTFSS  xCC.1
07B16:  BRA    7B26
....................                Testerilizacionp[2]--; 
07B18:  DECF   xE7,F
....................                if(Testerilizacionp[2]<0){ 
07B1A:  BTFSC  xE7.7
07B1C:  BRA    7B20
07B1E:  BRA    7B26
....................                   Testerilizacionp[3]--; 
07B20:  DECF   xE8,F
....................                   Testerilizacionp[2]=9; 
07B22:  MOVLW  09
07B24:  MOVWF  xE7
....................                } 
....................             } 
....................             RX_Buffer[4]=0x00; 
07B26:  CLRF   34
....................             Op2=ON; 
07B28:  BSF    xCC.0
....................             //BorraBuffer(); 
....................          } 
....................           
....................          if(RX_Buffer[4]==0x0f && Op2){//Tecla Izquierda Oprimida 
07B2A:  MOVF   34,W
07B2C:  SUBLW  0F
07B2E:  BNZ   7B5C
07B30:  BTFSS  xCC.0
07B32:  BRA    7B5C
....................              
....................             if(Segundos){ 
07B34:  BTFSS  xCC.2
07B36:  BRA    7B46
....................                Testerilizacionp[0]--; 
07B38:  DECF   xE5,F
....................                if(Testerilizacionp[0]<0){ 
07B3A:  BTFSC  xE5.7
07B3C:  BRA    7B40
07B3E:  BRA    7B46
....................                   Testerilizacionp[1]--; 
07B40:  DECF   xE6,F
....................                   Testerilizacionp[0]=9; 
07B42:  MOVLW  09
07B44:  MOVWF  xE5
....................                } 
....................             } 
....................             if(Minutos){ 
07B46:  BTFSS  xCC.1
07B48:  BRA    7B58
....................                Testerilizacionp[2]--; 
07B4A:  DECF   xE7,F
....................                if(Testerilizacionp[2]<0){ 
07B4C:  BTFSC  xE7.7
07B4E:  BRA    7B52
07B50:  BRA    7B58
....................                   Testerilizacionp[3]--; 
07B52:  DECF   xE8,F
....................                   Testerilizacionp[2]=9; 
07B54:  MOVLW  09
07B56:  MOVWF  xE7
....................                } 
....................             } 
....................             RX_Buffer[4]=0x00; 
07B58:  CLRF   34
....................             Op2=OFF; 
07B5A:  BCF    xCC.0
....................             //BorraBuffer(); 
....................          } 
....................          printf("tminest.txt=\"%02u\"",((Testerilizacionp[3]*10)+Testerilizacionp[2])); 
07B5C:  MOVFF  E8,3BD
07B60:  MOVLW  0A
07B62:  MOVLB  3
07B64:  MOVWF  xBE
07B66:  MOVLB  0
07B68:  CALL   29D8
07B6C:  MOVF   xE7,W
07B6E:  ADDWF  01,W
07B70:  MOVLB  3
07B72:  MOVWF  xBD
07B74:  MOVLW  32
07B76:  MOVWF  FF6
07B78:  MOVLW  0D
07B7A:  MOVWF  FF7
07B7C:  MOVLW  00
07B7E:  MOVWF  FF8
07B80:  MOVLW  0D
07B82:  MOVWF  xC1
07B84:  MOVLB  0
07B86:  CALL   464A
07B8A:  MOVFF  3BD,3BE
07B8E:  MOVLW  01
07B90:  MOVLB  3
07B92:  MOVWF  xBF
07B94:  MOVLB  0
07B96:  CALL   46A8
07B9A:  MOVLW  22
07B9C:  BTFSS  F9E.4
07B9E:  BRA    7B9C
07BA0:  MOVWF  FAD
....................          SendDataDisplay(); 
07BA2:  CALL   3542
....................          printf("tsecest.txt=\"%02u\"",((Testerilizacionp[1]*10)+Testerilizacionp[0])); 
07BA6:  MOVFF  E6,3BD
07BAA:  MOVLW  0A
07BAC:  MOVLB  3
07BAE:  MOVWF  xBE
07BB0:  MOVLB  0
07BB2:  CALL   29D8
07BB6:  MOVF   xE5,W
07BB8:  ADDWF  01,W
07BBA:  MOVLB  3
07BBC:  MOVWF  xBD
07BBE:  MOVLW  46
07BC0:  MOVWF  FF6
07BC2:  MOVLW  0D
07BC4:  MOVWF  FF7
07BC6:  MOVLW  00
07BC8:  MOVWF  FF8
07BCA:  MOVLW  0D
07BCC:  MOVWF  xC1
07BCE:  MOVLB  0
07BD0:  CALL   464A
07BD4:  MOVFF  3BD,3BE
07BD8:  MOVLW  01
07BDA:  MOVLB  3
07BDC:  MOVWF  xBF
07BDE:  MOVLB  0
07BE0:  CALL   46A8
07BE4:  MOVLW  22
07BE6:  BTFSS  F9E.4
07BE8:  BRA    7BE6
07BEA:  MOVWF  FAD
....................          SendDataDisplay(); 
07BEC:  CALL   3542
07BF0:  MOVLB  3
....................     } 
.................... //_--------------------------------------------------------------------------------------------------------------------------------------------------------        
....................  
.................... //_-------------------------------------------------------------------------------------------------------------------------------------------------------- 
....................     if(Menu==3){ //Menu de Tiempo de Secado 
07BF2:  MOVF   x74,W
07BF4:  SUBLW  03
07BF6:  BTFSS  FD8.2
07BF8:  BRA    804A
....................       printf("fecha.txt=\"Fecha:%02u/%02u/20%02u    Hora: %02u:%02u\"",Dia,Mes,Year,Hora,Minuto); 
07BFA:  MOVLW  5A
07BFC:  MOVWF  FF6
07BFE:  MOVLW  0D
07C00:  MOVWF  FF7
07C02:  MOVLW  00
07C04:  MOVWF  FF8
07C06:  MOVLW  11
07C08:  MOVWF  xC1
07C0A:  MOVLB  0
07C0C:  CALL   464A
07C10:  MOVFF  3AC,3BE
07C14:  MOVLW  01
07C16:  MOVLB  3
07C18:  MOVWF  xBF
07C1A:  MOVLB  0
07C1C:  CALL   46A8
07C20:  MOVLW  2F
07C22:  BTFSS  F9E.4
07C24:  BRA    7C22
07C26:  MOVWF  FAD
07C28:  MOVFF  3AB,3BE
07C2C:  MOVLW  01
07C2E:  MOVLB  3
07C30:  MOVWF  xBF
07C32:  MOVLB  0
07C34:  CALL   46A8
07C38:  MOVLW  2F
07C3A:  BTFSS  F9E.4
07C3C:  BRA    7C3A
07C3E:  MOVWF  FAD
07C40:  MOVLW  32
07C42:  BTFSS  F9E.4
07C44:  BRA    7C42
07C46:  MOVWF  FAD
07C48:  MOVLW  30
07C4A:  BTFSS  F9E.4
07C4C:  BRA    7C4A
07C4E:  MOVWF  FAD
07C50:  MOVFF  3AA,3BE
07C54:  MOVLW  01
07C56:  MOVLB  3
07C58:  MOVWF  xBF
07C5A:  MOVLB  0
07C5C:  CALL   46A8
07C60:  MOVLW  7B
07C62:  MOVWF  FF6
07C64:  MOVLW  0D
07C66:  MOVWF  FF7
07C68:  MOVLW  00
07C6A:  MOVWF  FF8
07C6C:  MOVLW  0A
07C6E:  MOVLB  3
07C70:  MOVWF  xC1
07C72:  MOVLB  0
07C74:  CALL   464A
07C78:  MOVFF  3AD,3BE
07C7C:  MOVLW  01
07C7E:  MOVLB  3
07C80:  MOVWF  xBF
07C82:  MOVLB  0
07C84:  CALL   46A8
07C88:  MOVLW  3A
07C8A:  BTFSS  F9E.4
07C8C:  BRA    7C8A
07C8E:  MOVWF  FAD
07C90:  MOVFF  3AE,3BE
07C94:  MOVLW  01
07C96:  MOVLB  3
07C98:  MOVWF  xBF
07C9A:  MOVLB  0
07C9C:  CALL   46A8
07CA0:  MOVLW  22
07CA2:  BTFSS  F9E.4
07CA4:  BRA    7CA2
07CA6:  MOVWF  FAD
....................       SendDataDisplay(); 
07CA8:  CALL   3542
....................          if(RX_Buffer[4]==0x0a){//Selecciono Minutos 
07CAC:  MOVF   34,W
07CAE:  SUBLW  0A
07CB0:  BNZ   7CB6
....................             Minutos=ON; 
07CB2:  BSF    xCC.1
....................             Segundos=OFF; 
07CB4:  BCF    xCC.2
....................          } 
....................           
....................          if(RX_Buffer[4]==0x0b){//Selecciono Segundos 
07CB6:  MOVF   34,W
07CB8:  SUBLW  0B
07CBA:  BNZ   7CC0
....................             Segundos=ON; 
07CBC:  BSF    xCC.2
....................             Minutos=OFF; 
07CBE:  BCF    xCC.1
....................          } 
....................           
....................          if(RX_Buffer[4]==0x11 || LEFT){//Selecciono Regresar 
07CC0:  MOVF   34,W
07CC2:  SUBLW  11
07CC4:  BZ    7CCC
07CC6:  BSF    F93.3
07CC8:  BTFSC  F81.3
07CCA:  BRA    7DEE
....................             Segundos=OFF; 
07CCC:  BCF    xCC.2
....................             Minutos=OFF; 
07CCE:  BCF    xCC.1
....................             printf("page MenuPrincipal"); 
07CD0:  MOVLW  90
07CD2:  MOVWF  FF6
07CD4:  MOVLW  0D
07CD6:  MOVWF  FF7
07CD8:  MOVLW  00
07CDA:  MOVWF  FF8
07CDC:  CALL   3510
....................             SendDataDisplay();   
07CE0:  CALL   3542
....................             PantallaPrincipal=1; 
07CE4:  MOVLW  01
07CE6:  MOVLB  3
07CE8:  MOVWF  x13
....................             Op=OFF; 
07CEA:  MOVLB  0
07CEC:  BCF    xCB.7
....................             Op2=OFF; 
07CEE:  BCF    xCC.0
....................             if(!GuardaEEPROM){ 
07CF0:  BTFSC  xCC.3
07CF2:  BRA    7DEE
....................                write_eeprom(4,Tsecadop[0]);delay_ms(10);write_eeprom(5,Tsecadop[1]);delay_ms(10); 
07CF4:  CLRF   FAA
07CF6:  MOVLW  04
07CF8:  MOVWF  FA9
07CFA:  MOVFF  ED,FA8
07CFE:  BCF    FA6.6
07D00:  BCF    FA6.7
07D02:  BSF    FA6.2
07D04:  MOVF   FF2,W
07D06:  MOVWF  00
07D08:  BCF    FF2.6
07D0A:  BCF    FF2.7
07D0C:  MOVLB  F
07D0E:  MOVLW  55
07D10:  MOVWF  FA7
07D12:  MOVLW  AA
07D14:  MOVWF  FA7
07D16:  BSF    FA6.1
07D18:  BTFSC  FA6.1
07D1A:  BRA    7D18
07D1C:  BCF    FA6.2
07D1E:  MOVF   00,W
07D20:  IORWF  FF2,F
07D22:  MOVLW  0A
07D24:  MOVLB  3
07D26:  MOVWF  xC8
07D28:  MOVLB  0
07D2A:  CALL   1C24
07D2E:  CLRF   FAA
07D30:  MOVLW  05
07D32:  MOVWF  FA9
07D34:  MOVFF  EE,FA8
07D38:  BCF    FA6.6
07D3A:  BCF    FA6.7
07D3C:  BSF    FA6.2
07D3E:  MOVF   FF2,W
07D40:  MOVWF  00
07D42:  BCF    FF2.6
07D44:  BCF    FF2.7
07D46:  MOVLB  F
07D48:  MOVLW  55
07D4A:  MOVWF  FA7
07D4C:  MOVLW  AA
07D4E:  MOVWF  FA7
07D50:  BSF    FA6.1
07D52:  BTFSC  FA6.1
07D54:  BRA    7D52
07D56:  BCF    FA6.2
07D58:  MOVF   00,W
07D5A:  IORWF  FF2,F
07D5C:  MOVLW  0A
07D5E:  MOVLB  3
07D60:  MOVWF  xC8
07D62:  MOVLB  0
07D64:  CALL   1C24
....................                write_eeprom(6,Tsecadop[2]);delay_ms(10);write_eeprom(7,Tsecadop[3]);delay_ms(10); 
07D68:  CLRF   FAA
07D6A:  MOVLW  06
07D6C:  MOVWF  FA9
07D6E:  MOVFF  EF,FA8
07D72:  BCF    FA6.6
07D74:  BCF    FA6.7
07D76:  BSF    FA6.2
07D78:  MOVF   FF2,W
07D7A:  MOVWF  00
07D7C:  BCF    FF2.6
07D7E:  BCF    FF2.7
07D80:  MOVLB  F
07D82:  MOVLW  55
07D84:  MOVWF  FA7
07D86:  MOVLW  AA
07D88:  MOVWF  FA7
07D8A:  BSF    FA6.1
07D8C:  BTFSC  FA6.1
07D8E:  BRA    7D8C
07D90:  BCF    FA6.2
07D92:  MOVF   00,W
07D94:  IORWF  FF2,F
07D96:  MOVLW  0A
07D98:  MOVLB  3
07D9A:  MOVWF  xC8
07D9C:  MOVLB  0
07D9E:  CALL   1C24
07DA2:  CLRF   FAA
07DA4:  MOVLW  07
07DA6:  MOVWF  FA9
07DA8:  MOVFF  F0,FA8
07DAC:  BCF    FA6.6
07DAE:  BCF    FA6.7
07DB0:  BSF    FA6.2
07DB2:  MOVF   FF2,W
07DB4:  MOVWF  00
07DB6:  BCF    FF2.6
07DB8:  BCF    FF2.7
07DBA:  MOVLB  F
07DBC:  MOVLW  55
07DBE:  MOVWF  FA7
07DC0:  MOVLW  AA
07DC2:  MOVWF  FA7
07DC4:  BSF    FA6.1
07DC6:  BTFSC  FA6.1
07DC8:  BRA    7DC6
07DCA:  BCF    FA6.2
07DCC:  MOVF   00,W
07DCE:  IORWF  FF2,F
07DD0:  MOVLW  0A
07DD2:  MOVLB  3
07DD4:  MOVWF  xC8
07DD6:  MOVLB  0
07DD8:  CALL   1C24
....................                Tsecado[0]=Tsecadop[0]; 
07DDC:  MOVFF  ED,E9
....................                Tsecado[1]=Tsecadop[1]; 
07DE0:  MOVFF  EE,EA
....................                Tsecado[2]=Tsecadop[2]; 
07DE4:  MOVFF  EF,EB
....................                Tsecado[3]=Tsecadop[3]; 
07DE8:  MOVFF  F0,EC
....................                GuardaEEPROM=ON; 
07DEC:  BSF    xCC.3
....................             } 
....................          } 
....................           
....................          if(RIGHT){ 
07DEE:  BSF    F93.4
07DF0:  BTFSC  F81.4
07DF2:  BRA    7E68
....................             delay_ms(200); 
07DF4:  MOVLW  C8
07DF6:  MOVLB  3
07DF8:  MOVWF  xC8
07DFA:  MOVLB  0
07DFC:  CALL   1C24
....................             if(RIGHT){ 
07E00:  BSF    F93.4
07E02:  BTFSC  F81.4
07E04:  BRA    7E68
....................                if(!Segundos){ 
07E06:  BTFSC  xCC.2
07E08:  BRA    7E38
....................                   Segundos=ON; 
07E0A:  BSF    xCC.2
....................                   Minutos=OFF; 
07E0C:  BCF    xCC.1
....................                   printf("tminsec.pco=0"); 
07E0E:  MOVLW  A4
07E10:  MOVWF  FF6
07E12:  MOVLW  0D
07E14:  MOVWF  FF7
07E16:  MOVLW  00
07E18:  MOVWF  FF8
07E1A:  CALL   3510
....................                   SendDataDisplay();                    
07E1E:  CALL   3542
....................                   printf("tsecsec.pco=65535"); 
07E22:  MOVLW  B2
07E24:  MOVWF  FF6
07E26:  MOVLW  0D
07E28:  MOVWF  FF7
07E2A:  MOVLW  00
07E2C:  MOVWF  FF8
07E2E:  CALL   3510
....................                   SendDataDisplay();   
07E32:  CALL   3542
....................                }else if(!Minutos){ 
07E36:  BRA    7E68
07E38:  BTFSC  xCC.1
07E3A:  BRA    7E68
....................                   Segundos=OFF; 
07E3C:  BCF    xCC.2
....................                   Minutos=ON; 
07E3E:  BSF    xCC.1
....................                   printf("tminsec.pco=65535"); 
07E40:  MOVLW  C4
07E42:  MOVWF  FF6
07E44:  MOVLW  0D
07E46:  MOVWF  FF7
07E48:  MOVLW  00
07E4A:  MOVWF  FF8
07E4C:  CALL   3510
....................                   SendDataDisplay();   
07E50:  CALL   3542
....................                   printf("tsecsec.pco=0"); 
07E54:  MOVLW  D6
07E56:  MOVWF  FF6
07E58:  MOVLW  0D
07E5A:  MOVWF  FF7
07E5C:  MOVLW  00
07E5E:  MOVWF  FF8
07E60:  CALL   3510
....................                   SendDataDisplay();   
07E64:  CALL   3542
....................                } 
....................             } 
....................          } 
....................           
....................          if(UP){ 
07E68:  BSF    F93.6
07E6A:  BTFSC  F81.6
07E6C:  BRA    7EA8
....................             delay_ms(200); 
07E6E:  MOVLW  C8
07E70:  MOVLB  3
07E72:  MOVWF  xC8
07E74:  MOVLB  0
07E76:  CALL   1C24
....................             if(UP){ 
07E7A:  BSF    F93.6
07E7C:  BTFSC  F81.6
07E7E:  BRA    7EA8
....................                if(Segundos){ 
07E80:  BTFSS  xCC.2
07E82:  BRA    7E94
....................                   Tsecadop[0]++; 
07E84:  INCF   xED,F
....................                   if(Tsecadop[0]>9){ 
07E86:  BTFSC  xED.7
07E88:  BRA    7E94
07E8A:  MOVF   xED,W
07E8C:  SUBLW  09
07E8E:  BC    7E94
....................                      Tsecadop[1]++; 
07E90:  INCF   xEE,F
....................                      Tsecadop[0]=0; 
07E92:  CLRF   xED
....................                   } 
....................                } 
....................                if(Minutos){ 
07E94:  BTFSS  xCC.1
07E96:  BRA    7EA8
....................                   Tsecado[2]++; 
07E98:  INCF   xEB,F
....................                   if(Tsecadop[2]>9){ 
07E9A:  BTFSC  xEF.7
07E9C:  BRA    7EA8
07E9E:  MOVF   xEF,W
07EA0:  SUBLW  09
07EA2:  BC    7EA8
....................                      Tsecadop[3]++; 
07EA4:  INCF   xF0,F
....................                      Tsecadop[2]=0; 
07EA6:  CLRF   xEF
....................                   } 
....................                }   
....................             } 
....................          } 
....................           
....................          if(DOWN){ 
07EA8:  BSF    F93.5
07EAA:  BTFSC  F81.5
07EAC:  BRA    7EE4
....................             delay_ms(200); 
07EAE:  MOVLW  C8
07EB0:  MOVLB  3
07EB2:  MOVWF  xC8
07EB4:  MOVLB  0
07EB6:  CALL   1C24
....................             if(DOWN){ 
07EBA:  BSF    F93.5
07EBC:  BTFSC  F81.5
07EBE:  BRA    7EE4
....................                if(Segundos){ 
07EC0:  BTFSS  xCC.2
07EC2:  BRA    7ED2
....................                   Tsecadop[0]--; 
07EC4:  DECF   xED,F
....................                   if(Tsecadop[0]<0){ 
07EC6:  BTFSC  xED.7
07EC8:  BRA    7ECC
07ECA:  BRA    7ED2
....................                      Tsecadop[1]--; 
07ECC:  DECF   xEE,F
....................                      Tsecadop[0]=9; 
07ECE:  MOVLW  09
07ED0:  MOVWF  xED
....................                   } 
....................                } 
....................                if(Minutos){ 
07ED2:  BTFSS  xCC.1
07ED4:  BRA    7EE4
....................                   Tsecadop[2]--; 
07ED6:  DECF   xEF,F
....................                   if(Tsecadop[2]<0){ 
07ED8:  BTFSC  xEF.7
07EDA:  BRA    7EDE
07EDC:  BRA    7EE4
....................                      Tsecadop[3]--; 
07EDE:  DECF   xF0,F
....................                      Tsecadop[2]=9; 
07EE0:  MOVLW  09
07EE2:  MOVWF  xEF
....................                   } 
....................                }   
....................             } 
....................          } 
....................           
....................          if(RX_Buffer[4]==0x0d && !Op){//Tecla Arriba Oprimida 
07EE4:  MOVF   34,W
07EE6:  SUBLW  0D
07EE8:  BNZ   7F1A
07EEA:  BTFSC  xCB.7
07EEC:  BRA    7F1A
....................             if(Segundos){ 
07EEE:  BTFSS  xCC.2
07EF0:  BRA    7F02
....................                Tsecadop[0]++; 
07EF2:  INCF   xED,F
....................                if(Tsecadop[0]>9){ 
07EF4:  BTFSC  xED.7
07EF6:  BRA    7F02
07EF8:  MOVF   xED,W
07EFA:  SUBLW  09
07EFC:  BC    7F02
....................                   Tsecadop[1]++; 
07EFE:  INCF   xEE,F
....................                   Tsecadop[0]=0; 
07F00:  CLRF   xED
....................                } 
....................             } 
....................             if(Minutos){ 
07F02:  BTFSS  xCC.1
07F04:  BRA    7F16
....................                Tsecado[2]++; 
07F06:  INCF   xEB,F
....................                if(Tsecadop[2]>9){ 
07F08:  BTFSC  xEF.7
07F0A:  BRA    7F16
07F0C:  MOVF   xEF,W
07F0E:  SUBLW  09
07F10:  BC    7F16
....................                   Tsecadop[3]++; 
07F12:  INCF   xF0,F
....................                   Tsecadop[2]=0; 
07F14:  CLRF   xEF
....................                } 
....................             } 
....................             RX_Buffer[4]=0x00; 
07F16:  CLRF   34
....................             Op=ON; 
07F18:  BSF    xCB.7
....................             //BorraBuffer(); 
....................          } 
....................           
....................          if(RX_Buffer[4]==0x0c && Op){//Tecla Derecha Oprimida 
07F1A:  MOVF   34,W
07F1C:  SUBLW  0C
07F1E:  BNZ   7F50
07F20:  BTFSS  xCB.7
07F22:  BRA    7F50
....................             if(Segundos){ 
07F24:  BTFSS  xCC.2
07F26:  BRA    7F38
....................                Tsecadop[0]++; 
07F28:  INCF   xED,F
....................                if(Tsecadop[0]>9){ 
07F2A:  BTFSC  xED.7
07F2C:  BRA    7F38
07F2E:  MOVF   xED,W
07F30:  SUBLW  09
07F32:  BC    7F38
....................                   Tsecadop[1]++; 
07F34:  INCF   xEE,F
....................                   Tsecadop[0]=0; 
07F36:  CLRF   xED
....................                } 
....................             } 
....................             if(Minutos){ 
07F38:  BTFSS  xCC.1
07F3A:  BRA    7F4C
....................                Tsecadop[2]++; 
07F3C:  INCF   xEF,F
....................                if(Tsecadop[2]>9){ 
07F3E:  BTFSC  xEF.7
07F40:  BRA    7F4C
07F42:  MOVF   xEF,W
07F44:  SUBLW  09
07F46:  BC    7F4C
....................                   Tsecadop[3]++; 
07F48:  INCF   xF0,F
....................                   Tsecadop[2]=0; 
07F4A:  CLRF   xEF
....................                } 
....................             } 
....................             RX_Buffer[4]=0x00; 
07F4C:  CLRF   34
....................             Op=OFF; 
07F4E:  BCF    xCB.7
....................             //BorraBuffer(); 
....................          } 
....................           
....................          if(RX_Buffer[4]==0x0e && !Op2){//Tecla Izquierda Oprimida 
07F50:  MOVF   34,W
07F52:  SUBLW  0E
07F54:  BNZ   7F82
07F56:  BTFSC  xCC.0
07F58:  BRA    7F82
....................             if(Segundos){ 
07F5A:  BTFSS  xCC.2
07F5C:  BRA    7F6C
....................                Tsecadop[0]--; 
07F5E:  DECF   xED,F
....................                if(Tsecadop[0]<0){ 
07F60:  BTFSC  xED.7
07F62:  BRA    7F66
07F64:  BRA    7F6C
....................                   Tsecadop[1]--; 
07F66:  DECF   xEE,F
....................                   Tsecadop[0]=9; 
07F68:  MOVLW  09
07F6A:  MOVWF  xED
....................                } 
....................             } 
....................             if(Minutos){ 
07F6C:  BTFSS  xCC.1
07F6E:  BRA    7F7E
....................                Tsecadop[2]--; 
07F70:  DECF   xEF,F
....................                if(Tsecadop[2]<0){ 
07F72:  BTFSC  xEF.7
07F74:  BRA    7F78
07F76:  BRA    7F7E
....................                   Tsecadop[3]--; 
07F78:  DECF   xF0,F
....................                   Tsecadop[2]=9; 
07F7A:  MOVLW  09
07F7C:  MOVWF  xEF
....................                } 
....................             } 
....................             RX_Buffer[4]=0x00; 
07F7E:  CLRF   34
....................             Op2=ON; 
07F80:  BSF    xCC.0
....................             //BorraBuffer(); 
....................          } 
....................           
....................          if(RX_Buffer[4]==0x0f && Op2){//Tecla Izquierda Oprimida 
07F82:  MOVF   34,W
07F84:  SUBLW  0F
07F86:  BNZ   7FB4
07F88:  BTFSS  xCC.0
07F8A:  BRA    7FB4
....................             if(Segundos){ 
07F8C:  BTFSS  xCC.2
07F8E:  BRA    7F9E
....................                Tsecadop[0]--; 
07F90:  DECF   xED,F
....................                if(Tsecadop[0]<0){ 
07F92:  BTFSC  xED.7
07F94:  BRA    7F98
07F96:  BRA    7F9E
....................                   Tsecadop[1]--; 
07F98:  DECF   xEE,F
....................                   Tsecadop[0]=9; 
07F9A:  MOVLW  09
07F9C:  MOVWF  xED
....................                } 
....................             } 
....................             if(Minutos){ 
07F9E:  BTFSS  xCC.1
07FA0:  BRA    7FB0
....................                Tsecadop[2]--; 
07FA2:  DECF   xEF,F
....................                if(Tsecadop[2]<0){ 
07FA4:  BTFSC  xEF.7
07FA6:  BRA    7FAA
07FA8:  BRA    7FB0
....................                   Tsecadop[3]--; 
07FAA:  DECF   xF0,F
....................                   Tsecadop[2]=9; 
07FAC:  MOVLW  09
07FAE:  MOVWF  xEF
....................                } 
....................             } 
....................             RX_Buffer[4]=0x00; 
07FB0:  CLRF   34
....................             Op2=OFF; 
07FB2:  BCF    xCC.0
....................             //BorraBuffer(); 
....................          } 
....................       printf("tminsec.txt=\"%02u\"",((Tsecadop[3]*10)+Tsecadop[2])); 
07FB4:  MOVFF  F0,3BD
07FB8:  MOVLW  0A
07FBA:  MOVLB  3
07FBC:  MOVWF  xBE
07FBE:  MOVLB  0
07FC0:  CALL   29D8
07FC4:  MOVF   xEF,W
07FC6:  ADDWF  01,W
07FC8:  MOVLB  3
07FCA:  MOVWF  xBD
07FCC:  MOVLW  E4
07FCE:  MOVWF  FF6
07FD0:  MOVLW  0D
07FD2:  MOVWF  FF7
07FD4:  MOVLW  00
07FD6:  MOVWF  FF8
07FD8:  MOVLW  0D
07FDA:  MOVWF  xC1
07FDC:  MOVLB  0
07FDE:  CALL   464A
07FE2:  MOVFF  3BD,3BE
07FE6:  MOVLW  01
07FE8:  MOVLB  3
07FEA:  MOVWF  xBF
07FEC:  MOVLB  0
07FEE:  CALL   46A8
07FF2:  MOVLW  22
07FF4:  BTFSS  F9E.4
07FF6:  BRA    7FF4
07FF8:  MOVWF  FAD
....................       SendDataDisplay(); 
07FFA:  CALL   3542
....................       printf("tsecsec.txt=\"%02u\"",((Tsecadop[1]*10)+Tsecadop[0])); 
07FFE:  MOVFF  EE,3BD
08002:  MOVLW  0A
08004:  MOVLB  3
08006:  MOVWF  xBE
08008:  MOVLB  0
0800A:  CALL   29D8
0800E:  MOVF   xED,W
08010:  ADDWF  01,W
08012:  MOVLB  3
08014:  MOVWF  xBD
08016:  MOVLW  F8
08018:  MOVWF  FF6
0801A:  MOVLW  0D
0801C:  MOVWF  FF7
0801E:  MOVLW  00
08020:  MOVWF  FF8
08022:  MOVLW  0D
08024:  MOVWF  xC1
08026:  MOVLB  0
08028:  CALL   464A
0802C:  MOVFF  3BD,3BE
08030:  MOVLW  01
08032:  MOVLB  3
08034:  MOVWF  xBF
08036:  MOVLB  0
08038:  CALL   46A8
0803C:  MOVLW  22
0803E:  BTFSS  F9E.4
08040:  BRA    803E
08042:  MOVWF  FAD
....................       SendDataDisplay(); 
08044:  CALL   3542
08048:  MOVLB  3
....................     } 
.................... //_--------------------------------------------------------------------------------------------------------------------------------------------------------        
....................  
.................... //_-------------------------------------------------------------------------------------------------------------------------------------------------------- 
....................     if(Menu==4){ //Menu de Temperatura 
0804A:  MOVF   x74,W
0804C:  SUBLW  04
0804E:  BTFSS  FD8.2
08050:  BRA    821E
....................       printf("fecha.txt=\"Fecha:%02u/%02u/20%02u    Hora: %02u:%02u\"",Dia,Mes,Year,Hora,Minuto); 
08052:  MOVLW  0C
08054:  MOVWF  FF6
08056:  MOVLW  0E
08058:  MOVWF  FF7
0805A:  MOVLW  00
0805C:  MOVWF  FF8
0805E:  MOVLW  11
08060:  MOVWF  xC1
08062:  MOVLB  0
08064:  CALL   464A
08068:  MOVFF  3AC,3BE
0806C:  MOVLW  01
0806E:  MOVLB  3
08070:  MOVWF  xBF
08072:  MOVLB  0
08074:  CALL   46A8
08078:  MOVLW  2F
0807A:  BTFSS  F9E.4
0807C:  BRA    807A
0807E:  MOVWF  FAD
08080:  MOVFF  3AB,3BE
08084:  MOVLW  01
08086:  MOVLB  3
08088:  MOVWF  xBF
0808A:  MOVLB  0
0808C:  CALL   46A8
08090:  MOVLW  2F
08092:  BTFSS  F9E.4
08094:  BRA    8092
08096:  MOVWF  FAD
08098:  MOVLW  32
0809A:  BTFSS  F9E.4
0809C:  BRA    809A
0809E:  MOVWF  FAD
080A0:  MOVLW  30
080A2:  BTFSS  F9E.4
080A4:  BRA    80A2
080A6:  MOVWF  FAD
080A8:  MOVFF  3AA,3BE
080AC:  MOVLW  01
080AE:  MOVLB  3
080B0:  MOVWF  xBF
080B2:  MOVLB  0
080B4:  CALL   46A8
080B8:  MOVLW  2D
080BA:  MOVWF  FF6
080BC:  MOVLW  0E
080BE:  MOVWF  FF7
080C0:  MOVLW  00
080C2:  MOVWF  FF8
080C4:  MOVLW  0A
080C6:  MOVLB  3
080C8:  MOVWF  xC1
080CA:  MOVLB  0
080CC:  CALL   464A
080D0:  MOVFF  3AD,3BE
080D4:  MOVLW  01
080D6:  MOVLB  3
080D8:  MOVWF  xBF
080DA:  MOVLB  0
080DC:  CALL   46A8
080E0:  MOVLW  3A
080E2:  BTFSS  F9E.4
080E4:  BRA    80E2
080E6:  MOVWF  FAD
080E8:  MOVFF  3AE,3BE
080EC:  MOVLW  01
080EE:  MOVLB  3
080F0:  MOVWF  xBF
080F2:  MOVLB  0
080F4:  CALL   46A8
080F8:  MOVLW  22
080FA:  BTFSS  F9E.4
080FC:  BRA    80FA
080FE:  MOVWF  FAD
....................       SendDataDisplay(); 
08100:  CALL   3542
....................          if(Setpoint<105) 
08104:  MOVLB  3
08106:  MOVF   x7B,W
08108:  SUBLW  68
0810A:  BNC   8110
....................             Setpoint=134; 
0810C:  MOVLW  86
0810E:  MOVWF  x7B
....................          if(Setpoint>134) 
08110:  MOVF   x7B,W
08112:  SUBLW  86
08114:  BC    811A
....................             Setpoint=105; 
08116:  MOVLW  69
08118:  MOVWF  x7B
....................           
....................          if(RX_Buffer[4]==0x11 || LEFT){//Selecciono Regresar 
0811A:  MOVF   34,W
0811C:  SUBLW  11
0811E:  BZ    8126
08120:  BSF    F93.3
08122:  BTFSC  F81.3
08124:  BRA    818E
....................             Segundos=OFF; 
08126:  MOVLB  0
08128:  BCF    xCC.2
....................             Minutos=OFF; 
0812A:  BCF    xCC.1
....................             printf("page MenuPrincipal"); 
0812C:  MOVLW  42
0812E:  MOVWF  FF6
08130:  MOVLW  0E
08132:  MOVWF  FF7
08134:  MOVLW  00
08136:  MOVWF  FF8
08138:  CALL   3510
....................             SendDataDisplay();   
0813C:  CALL   3542
....................             PantallaPrincipal=1; 
08140:  MOVLW  01
08142:  MOVLB  3
08144:  MOVWF  x13
....................             Op=OFF; 
08146:  MOVLB  0
08148:  BCF    xCB.7
....................             Op2=OFF; 
0814A:  BCF    xCC.0
....................             if(!GuardaEEPROM){ 
0814C:  BTFSC  xCC.3
0814E:  BRA    818C
....................                write_eeprom(8,Setpoint); 
08150:  CLRF   FAA
08152:  MOVLW  08
08154:  MOVWF  FA9
08156:  MOVFF  37B,FA8
0815A:  BCF    FA6.6
0815C:  BCF    FA6.7
0815E:  BSF    FA6.2
08160:  MOVF   FF2,W
08162:  MOVWF  00
08164:  BCF    FF2.6
08166:  BCF    FF2.7
08168:  MOVLB  F
0816A:  MOVLW  55
0816C:  MOVWF  FA7
0816E:  MOVLW  AA
08170:  MOVWF  FA7
08172:  BSF    FA6.1
08174:  BTFSC  FA6.1
08176:  BRA    8174
08178:  BCF    FA6.2
0817A:  MOVF   00,W
0817C:  IORWF  FF2,F
....................                delay_ms(10); 
0817E:  MOVLW  0A
08180:  MOVLB  3
08182:  MOVWF  xC8
08184:  MOVLB  0
08186:  CALL   1C24
....................                GuardaEEPROM=ON; 
0818A:  BSF    xCC.3
0818C:  MOVLB  3
....................             } 
....................          } 
....................           
....................          if(UP){ 
0818E:  BSF    F93.6
08190:  BTFSC  F81.6
08192:  BRA    81A8
....................             delay_ms(200); 
08194:  MOVLW  C8
08196:  MOVWF  xC8
08198:  MOVLB  0
0819A:  CALL   1C24
....................             if(UP){ 
0819E:  BSF    F93.6
081A0:  BTFSC  F81.6
081A2:  BRA    81AA
....................                Setpoint++; 
081A4:  MOVLB  3
081A6:  INCF   x7B,F
081A8:  MOVLB  0
....................             } 
....................          } 
....................           
....................          if(DOWN){ 
081AA:  BSF    F93.5
081AC:  BTFSC  F81.5
081AE:  BRA    81C8
....................             delay_ms(200); 
081B0:  MOVLW  C8
081B2:  MOVLB  3
081B4:  MOVWF  xC8
081B6:  MOVLB  0
081B8:  CALL   1C24
....................             if(DOWN){ 
081BC:  BSF    F93.5
081BE:  BTFSC  F81.5
081C0:  BRA    81C8
....................                Setpoint--; 
081C2:  MOVLB  3
081C4:  DECF   x7B,F
081C6:  MOVLB  0
....................             } 
....................          } 
....................           
....................          if(RX_Buffer[4]==0x0d){//Tecla Arriba Oprimida 
081C8:  MOVF   34,W
081CA:  SUBLW  0D
081CC:  BNZ   81D8
....................             Setpoint++; 
081CE:  MOVLB  3
081D0:  INCF   x7B,F
....................             RX_Buffer[4]=0x00;   
081D2:  CLRF   34
....................             RX_Buffer2[4]=0x00;             
081D4:  CLRF   3F
081D6:  MOVLB  0
....................             //BorraBuffer(); 
....................          } 
....................           
....................          if(RX_Buffer[4]==0x0c){//Tecla Abajo Oprimida 
081D8:  MOVF   34,W
081DA:  SUBLW  0C
081DC:  BNZ   81E8
....................             Setpoint--; 
081DE:  MOVLB  3
081E0:  DECF   x7B,F
....................             RX_Buffer[4]=0x00; 
081E2:  CLRF   34
....................             RX_Buffer2[4]=0x00;             
081E4:  CLRF   3F
081E6:  MOVLB  0
....................             //BorraBuffer(); 
....................          } 
....................           
....................       printf("tsettem.txt=\"%03u\"",Setpoint); 
081E8:  MOVLW  56
081EA:  MOVWF  FF6
081EC:  MOVLW  0E
081EE:  MOVWF  FF7
081F0:  MOVLW  00
081F2:  MOVWF  FF8
081F4:  MOVLW  0D
081F6:  MOVLB  3
081F8:  MOVWF  xC1
081FA:  MOVLB  0
081FC:  CALL   464A
08200:  MOVFF  37B,3BE
08204:  MOVLW  03
08206:  MOVLB  3
08208:  MOVWF  xBF
0820A:  MOVLB  0
0820C:  CALL   46A8
08210:  MOVLW  22
08212:  BTFSS  F9E.4
08214:  BRA    8212
08216:  MOVWF  FAD
....................       SendDataDisplay(); 
08218:  CALL   3542
0821C:  MOVLB  3
....................     } 
.................... //_--------------------------------------------------------------------------------------------------------------------------------------------------------        
....................  
.................... //_--------------------------------------------------------------------------------------------------------------------------------------------------------       
....................    if(Menu==5){//Menu de Nivel 
0821E:  MOVF   x74,W
08220:  SUBLW  05
08222:  BTFSS  FD8.2
08224:  BRA    8496
....................       printf("fecha.txt=\"Fecha:%02u/%02u/20%02u    Hora: %02u:%02u\"",Dia,Mes,Year,Hora,Minuto); 
08226:  MOVLW  6A
08228:  MOVWF  FF6
0822A:  MOVLW  0E
0822C:  MOVWF  FF7
0822E:  MOVLW  00
08230:  MOVWF  FF8
08232:  MOVLW  11
08234:  MOVWF  xC1
08236:  MOVLB  0
08238:  CALL   464A
0823C:  MOVFF  3AC,3BE
08240:  MOVLW  01
08242:  MOVLB  3
08244:  MOVWF  xBF
08246:  MOVLB  0
08248:  CALL   46A8
0824C:  MOVLW  2F
0824E:  BTFSS  F9E.4
08250:  BRA    824E
08252:  MOVWF  FAD
08254:  MOVFF  3AB,3BE
08258:  MOVLW  01
0825A:  MOVLB  3
0825C:  MOVWF  xBF
0825E:  MOVLB  0
08260:  CALL   46A8
08264:  MOVLW  2F
08266:  BTFSS  F9E.4
08268:  BRA    8266
0826A:  MOVWF  FAD
0826C:  MOVLW  32
0826E:  BTFSS  F9E.4
08270:  BRA    826E
08272:  MOVWF  FAD
08274:  MOVLW  30
08276:  BTFSS  F9E.4
08278:  BRA    8276
0827A:  MOVWF  FAD
0827C:  MOVFF  3AA,3BE
08280:  MOVLW  01
08282:  MOVLB  3
08284:  MOVWF  xBF
08286:  MOVLB  0
08288:  CALL   46A8
0828C:  MOVLW  8B
0828E:  MOVWF  FF6
08290:  MOVLW  0E
08292:  MOVWF  FF7
08294:  MOVLW  00
08296:  MOVWF  FF8
08298:  MOVLW  0A
0829A:  MOVLB  3
0829C:  MOVWF  xC1
0829E:  MOVLB  0
082A0:  CALL   464A
082A4:  MOVFF  3AD,3BE
082A8:  MOVLW  01
082AA:  MOVLB  3
082AC:  MOVWF  xBF
082AE:  MOVLB  0
082B0:  CALL   46A8
082B4:  MOVLW  3A
082B6:  BTFSS  F9E.4
082B8:  BRA    82B6
082BA:  MOVWF  FAD
082BC:  MOVFF  3AE,3BE
082C0:  MOVLW  01
082C2:  MOVLB  3
082C4:  MOVWF  xBF
082C6:  MOVLB  0
082C8:  CALL   46A8
082CC:  MOVLW  22
082CE:  BTFSS  F9E.4
082D0:  BRA    82CE
082D2:  MOVWF  FAD
....................       SendDataDisplay(); 
082D4:  CALL   3542
....................          if(Nivel<1) 
082D8:  MOVLB  3
082DA:  MOVF   x89,F
082DC:  BNZ   82E8
082DE:  MOVF   x8A,F
082E0:  BNZ   82E8
....................             Nivel=6; 
082E2:  CLRF   x8A
082E4:  MOVLW  06
082E6:  MOVWF  x89
....................          if(Nivel>6) 
082E8:  MOVF   x8A,F
082EA:  BNZ   82F2
082EC:  MOVF   x89,W
082EE:  SUBLW  06
082F0:  BC    82F8
....................             Nivel=1; 
082F2:  CLRF   x8A
082F4:  MOVLW  01
082F6:  MOVWF  x89
....................           
....................          if(RX_Buffer[4]==0x11 || LEFT){//Selecciono Regresar 
082F8:  MOVF   34,W
082FA:  SUBLW  11
082FC:  BZ    8304
082FE:  BSF    F93.3
08300:  BTFSC  F81.3
08302:  BRA    83EE
....................             Segundos=OFF; 
08304:  MOVLB  0
08306:  BCF    xCC.2
....................             Minutos=OFF;             
08308:  BCF    xCC.1
....................             tiempo_secado=0; 
0830A:  MOVLB  3
0830C:  CLRF   x7F
....................             if(Nivel<6) 
0830E:  MOVF   x8A,F
08310:  BNZ   831E
08312:  MOVF   x89,W
08314:  SUBLW  05
08316:  BNC   831E
....................                desfoguelento=1; 
08318:  MOVLB  0
0831A:  BSF    xCE.2
....................             else             
0831C:  BRA    8322
....................                desfoguelento=0; 
0831E:  MOVLB  0
08320:  BCF    xCE.2
....................             if(!GuardaEEPROM){     
08322:  BTFSC  xCC.3
08324:  BRA    8382
....................                write_eeprom(9,Nivel); 
08326:  CLRF   FAA
08328:  MOVLW  09
0832A:  MOVWF  FA9
0832C:  MOVFF  389,FA8
08330:  BCF    FA6.6
08332:  BCF    FA6.7
08334:  BSF    FA6.2
08336:  MOVF   FF2,W
08338:  MOVWF  00
0833A:  BCF    FF2.6
0833C:  BCF    FF2.7
0833E:  MOVLB  F
08340:  MOVLW  55
08342:  MOVWF  FA7
08344:  MOVLW  AA
08346:  MOVWF  FA7
08348:  BSF    FA6.1
0834A:  BTFSC  FA6.1
0834C:  BRA    834A
0834E:  BCF    FA6.2
08350:  MOVF   00,W
08352:  IORWF  FF2,F
....................                delay_ms(20);             
08354:  MOVLW  14
08356:  MOVLB  3
08358:  MOVWF  xC8
0835A:  MOVLB  0
0835C:  CALL   1C24
....................                NivelSeleccionado=9990*Nivel; 
08360:  MOVLW  27
08362:  MOVLB  3
08364:  MOVWF  xBF
08366:  MOVLW  06
08368:  MOVWF  xBE
0836A:  MOVFF  38A,3C1
0836E:  MOVFF  389,3C0
08372:  MOVLB  0
08374:  CALL   36E6
08378:  MOVFF  02,394
0837C:  MOVFF  01,393
....................                GuardaEEPROM=ON; 
08380:  BSF    xCC.3
....................             } 
....................             if(MenuAnt==1){ 
08382:  MOVLB  3
08384:  DECFSZ x75,W
08386:  BRA    83A6
....................                //Buzzer_on; 
....................                printf("page MenuPrincipal"); 
08388:  MOVLW  A0
0838A:  MOVWF  FF6
0838C:  MOVLW  0E
0838E:  MOVWF  FF7
08390:  MOVLW  00
08392:  MOVWF  FF8
08394:  MOVLB  0
08396:  CALL   3510
....................                SendDataDisplay();  
0839A:  CALL   3542
....................                PantallaPrincipal=1; 
0839E:  MOVLW  01
083A0:  MOVLB  3
083A2:  MOVWF  x13
....................             }else if(MenuAnt==2){ 
083A4:  BRA    83EE
083A6:  MOVF   x75,W
083A8:  SUBLW  02
083AA:  BNZ   83EE
....................                printf("page Funcionamiento"); 
083AC:  MOVLW  B4
083AE:  MOVWF  FF6
083B0:  MOVLW  0E
083B2:  MOVWF  FF7
083B4:  MOVLW  00
083B6:  MOVWF  FF8
083B8:  MOVLB  0
083BA:  CALL   3510
....................                SendDataDisplay();  
083BE:  CALL   3542
....................                if(Temperatura>60)TTrampa=TTrampa+5; 
083C2:  MOVLB  3
083C4:  CLRF   xC4
083C6:  CLRF   xC3
083C8:  MOVLW  70
083CA:  MOVWF  xC2
083CC:  MOVLW  84
083CE:  MOVWF  xC1
083D0:  MOVFF  356,3C8
083D4:  MOVFF  355,3C7
083D8:  MOVFF  354,3C6
083DC:  MOVFF  353,3C5
083E0:  MOVLB  0
083E2:  CALL   295E
083E6:  BNC   83F0
083E8:  MOVLW  05
083EA:  MOVLB  3
083EC:  ADDWF  x12,F
083EE:  MOVLB  0
....................             } 
....................          } 
....................           
....................          if(UP){ 
083F0:  BSF    F93.6
083F2:  BTFSC  F81.6
083F4:  BRA    8412
....................             delay_ms(200); 
083F6:  MOVLW  C8
083F8:  MOVLB  3
083FA:  MOVWF  xC8
083FC:  MOVLB  0
083FE:  CALL   1C24
....................             if(UP){ 
08402:  BSF    F93.6
08404:  BTFSC  F81.6
08406:  BRA    8412
....................                Nivel++; 
08408:  MOVLB  3
0840A:  INCF   x89,F
0840C:  BTFSC  FD8.2
0840E:  INCF   x8A,F
08410:  MOVLB  0
....................             } 
....................          } 
....................           
....................          if(DOWN){ 
08412:  BSF    F93.5
08414:  BTFSC  F81.5
08416:  BRA    8436
....................             delay_ms(200); 
08418:  MOVLW  C8
0841A:  MOVLB  3
0841C:  MOVWF  xC8
0841E:  MOVLB  0
08420:  CALL   1C24
....................             if(DOWN){ 
08424:  BSF    F93.5
08426:  BTFSC  F81.5
08428:  BRA    8436
....................                Nivel--; 
0842A:  MOVLB  3
0842C:  MOVF   x89,W
0842E:  BTFSC  FD8.2
08430:  DECF   x8A,F
08432:  DECF   x89,F
08434:  MOVLB  0
....................             } 
....................          } 
....................           
....................          if(RX_Buffer[4]==0x0d){//Tecla Arriba Oprimida 
08436:  MOVF   34,W
08438:  SUBLW  0D
0843A:  BNZ   844A
....................             Nivel++; 
0843C:  MOVLB  3
0843E:  INCF   x89,F
08440:  BTFSC  FD8.2
08442:  INCF   x8A,F
....................             RX_Buffer[4]=0x00;             
08444:  CLRF   34
....................             RX_Buffer2[4]=0x00;             
08446:  CLRF   3F
08448:  MOVLB  0
....................             //BorraBuffer(); 
....................          } 
....................           
....................          if(RX_Buffer[4]==0x0c){//Tecla Abajo Oprimida 
0844A:  MOVF   34,W
0844C:  SUBLW  0C
0844E:  BNZ   8460
....................             Nivel--; 
08450:  MOVLB  3
08452:  MOVF   x89,W
08454:  BTFSC  FD8.2
08456:  DECF   x8A,F
08458:  DECF   x89,F
....................             RX_Buffer[4]=0x00; 
0845A:  CLRF   34
....................             RX_Buffer2[4]=0x00;             
0845C:  CLRF   3F
0845E:  MOVLB  0
....................             //BorraBuffer(); 
....................          } 
....................           
....................       printf("tnivel.txt=\"%Lu\"",Nivel); 
08460:  MOVLW  C8
08462:  MOVWF  FF6
08464:  MOVLW  0E
08466:  MOVWF  FF7
08468:  MOVLW  00
0846A:  MOVWF  FF8
0846C:  MOVLW  0C
0846E:  MOVLB  3
08470:  MOVWF  xC1
08472:  MOVLB  0
08474:  CALL   464A
08478:  MOVLW  10
0847A:  MOVWF  FE9
0847C:  MOVFF  38A,3BE
08480:  MOVFF  389,3BD
08484:  CALL   47A4
08488:  MOVLW  22
0848A:  BTFSS  F9E.4
0848C:  BRA    848A
0848E:  MOVWF  FAD
....................       SendDataDisplay(); 
08490:  CALL   3542
08494:  MOVLB  3
....................    } 
.................... //_--------------------------------------------------------------------------------------------------------------------------------------------------------       
....................  
.................... //_--------------------------------------------------------------------------------------------------------------------------------------------------------       
....................       if(Menu==6){ // Menu de Prueba de Componentes 
08496:  MOVF   x74,W
08498:  SUBLW  06
0849A:  BTFSS  FD8.2
0849C:  BRA    8B9A
....................          PruebaEstados=ON; 
0849E:  MOVLB  0
084A0:  BSF    xCB.1
....................           
....................          if(RX_Buffer[4]==0x01)//Oprimio EV Desfogue 
084A2:  DECFSZ 34,W
084A4:  BRA    84AC
....................          { 
....................             EstadoDesfogue=!EstadoDesfogue; 
084A6:  BTG    xCA.6
....................             RX_Buffer[4]=0x00; 
084A8:  CLRF   34
....................             RX_Buffer2[4]=0x00; 
084AA:  CLRF   3F
....................          } 
....................           
....................          if(EstadoDesfogue){ 
084AC:  BTFSS  xCA.6
084AE:  BRA    84CA
....................             printf("b0.bco=2016"); 
084B0:  MOVLW  DA
084B2:  MOVWF  FF6
084B4:  MOVLW  0E
084B6:  MOVWF  FF7
084B8:  MOVLW  00
084BA:  MOVWF  FF8
084BC:  CALL   3510
....................             SendDataDisplay();  
084C0:  CALL   3542
....................             Desfogue_on; 
084C4:  BCF    F8C.2
084C6:  BCF    F95.2
....................          } 
....................          else{ 
084C8:  BRA    84E2
....................             printf("b0.bco=63488"); 
084CA:  MOVLW  E6
084CC:  MOVWF  FF6
084CE:  MOVLW  0E
084D0:  MOVWF  FF7
084D2:  MOVLW  00
084D4:  MOVWF  FF8
084D6:  CALL   3510
....................             SendDataDisplay();  
084DA:  CALL   3542
....................             Desfogue_off; 
084DE:  BSF    F8C.2
084E0:  BCF    F95.2
....................          } 
....................           
....................          if(RX_Buffer[4]==0x02)//Oprimio EV Agua 
084E2:  MOVF   34,W
084E4:  SUBLW  02
084E6:  BNZ   84EE
....................          { 
....................             EstadoAgua=!EstadoAgua; 
084E8:  BTG    xCA.7
....................             RX_Buffer[4]=0x00; 
084EA:  CLRF   34
....................             RX_Buffer2[4]=0x00; 
084EC:  CLRF   3F
....................          } 
....................           
....................          if(EstadoAgua){ 
084EE:  BTFSS  xCA.7
084F0:  BRA    850C
....................             printf("b1.bco=2016"); 
084F2:  MOVLW  F4
084F4:  MOVWF  FF6
084F6:  MOVLW  0E
084F8:  MOVWF  FF7
084FA:  MOVLW  00
084FC:  MOVWF  FF8
084FE:  CALL   3510
....................             SendDataDisplay();  
08502:  CALL   3542
....................             AguaIn_on; 
08506:  BCF    F8C.4
08508:  BCF    F95.4
....................          } 
....................          else{ 
0850A:  BRA    8524
....................             printf("b1.bco=63488"); 
0850C:  MOVLW  00
0850E:  MOVWF  FF6
08510:  MOVLW  0F
08512:  MOVWF  FF7
08514:  MOVLW  00
08516:  MOVWF  FF8
08518:  CALL   3510
....................             SendDataDisplay();  
0851C:  CALL   3542
....................             AguaIn_off; 
08520:  BSF    F8C.4
08522:  BCF    F95.4
....................          } 
....................           
....................          if(RX_Buffer[4]==0x03)//Oprimio EV Paso 
08524:  MOVF   34,W
08526:  SUBLW  03
08528:  BNZ   8530
....................          { 
....................             EstadoPaso=!EstadoPaso; 
0852A:  BTG    xCC.4
....................             RX_Buffer[4]=0x00; 
0852C:  CLRF   34
....................             RX_Buffer2[4]=0x00; 
0852E:  CLRF   3F
....................          } 
....................           
....................          if(EstadoPaso){ 
08530:  BTFSS  xCC.4
08532:  BRA    854E
....................             printf("b2.bco=2016"); 
08534:  MOVLW  0E
08536:  MOVWF  FF6
08538:  MOVLW  0F
0853A:  MOVWF  FF7
0853C:  MOVLW  00
0853E:  MOVWF  FF8
08540:  CALL   3510
....................             SendDataDisplay();  
08544:  CALL   3542
....................             Paso_on; 
08548:  BCF    F8C.3
0854A:  BCF    F95.3
....................          } 
....................          else{ 
0854C:  BRA    8566
....................             printf("b2.bco=63488"); 
0854E:  MOVLW  1A
08550:  MOVWF  FF6
08552:  MOVLW  0F
08554:  MOVWF  FF7
08556:  MOVLW  00
08558:  MOVWF  FF8
0855A:  CALL   3510
....................             SendDataDisplay();  
0855E:  CALL   3542
....................             Paso_off; 
08562:  BSF    F8C.3
08564:  BCF    F95.3
....................          } 
....................          
....................          if(RX_Buffer[4]==0x05)//Oprimio Bloqueo 
08566:  MOVF   34,W
08568:  SUBLW  05
0856A:  BNZ   8572
....................          { 
....................             EstadoBloqueo=!EstadoBloqueo; 
0856C:  BTG    xCC.5
....................             RX_Buffer[4]=0x00; 
0856E:  CLRF   34
....................             RX_Buffer2[4]=0x00; 
08570:  CLRF   3F
....................          } 
....................           
....................          if(EstadoBloqueo){ 
08572:  BTFSS  xCC.5
08574:  BRA    85C0
....................             printf("b4.bco=2016"); 
08576:  MOVLW  28
08578:  MOVWF  FF6
0857A:  MOVLW  0F
0857C:  MOVWF  FF7
0857E:  MOVLW  00
08580:  MOVWF  FF8
08582:  CALL   3510
....................             SendDataDisplay();  
08586:  CALL   3542
....................             Solenoide_on; 
0858A:  BSF    F8C.0
0858C:  BCF    F95.0
....................             delay_ms(5000); 
0858E:  MOVLW  14
08590:  MOVLB  3
08592:  MOVWF  xBD
08594:  MOVLW  FA
08596:  MOVWF  xC8
08598:  MOVLB  0
0859A:  CALL   1C24
0859E:  MOVLB  3
085A0:  DECFSZ xBD,F
085A2:  BRA    8594
....................             printf("b4.bco=63488"); 
085A4:  MOVLW  34
085A6:  MOVWF  FF6
085A8:  MOVLW  0F
085AA:  MOVWF  FF7
085AC:  MOVLW  00
085AE:  MOVWF  FF8
085B0:  MOVLB  0
085B2:  CALL   3510
....................             SendDataDisplay();  
085B6:  CALL   3542
....................             Solenoide_off; 
085BA:  BCF    F8C.0
085BC:  BCF    F95.0
....................             EstadoBloqueo=OFF; 
085BE:  BCF    xCC.5
....................          } 
....................           
....................          if(RX_Buffer[4]==0x06)//Oprimio Solenoide2 
085C0:  MOVF   34,W
085C2:  SUBLW  06
085C4:  BNZ   85CC
....................          { 
....................             EstadoBloqueo2=!EstadoBloqueo2; 
085C6:  BTG    xCE.0
....................             RX_Buffer[4]=0x00; 
085C8:  CLRF   34
....................             RX_Buffer2[4]=0x00; 
085CA:  CLRF   3F
....................          } 
....................           
....................          if(EstadoBloqueo2){ 
085CC:  BTFSS  xCE.0
085CE:  BRA    861A
....................             printf("b5.bco=2016"); 
085D0:  MOVLW  42
085D2:  MOVWF  FF6
085D4:  MOVLW  0F
085D6:  MOVWF  FF7
085D8:  MOVLW  00
085DA:  MOVWF  FF8
085DC:  CALL   3510
....................             SendDataDisplay();  
085E0:  CALL   3542
....................             Solenoide2_on; 
085E4:  BSF    F8C.1
085E6:  BCF    F95.1
....................             delay_ms(5000); 
085E8:  MOVLW  14
085EA:  MOVLB  3
085EC:  MOVWF  xBD
085EE:  MOVLW  FA
085F0:  MOVWF  xC8
085F2:  MOVLB  0
085F4:  CALL   1C24
085F8:  MOVLB  3
085FA:  DECFSZ xBD,F
085FC:  BRA    85EE
....................             printf("b5.bco=63488"); 
085FE:  MOVLW  4E
08600:  MOVWF  FF6
08602:  MOVLW  0F
08604:  MOVWF  FF7
08606:  MOVLW  00
08608:  MOVWF  FF8
0860A:  MOVLB  0
0860C:  CALL   3510
....................             SendDataDisplay();  
08610:  CALL   3542
....................             Solenoide2_off; 
08614:  BCF    F8C.1
08616:  BCF    F95.1
....................             EstadoBloqueo2=OFF; 
08618:  BCF    xCE.0
....................          } 
....................           
....................          if(RX_Buffer[4]==0x07)//Oprimio SSR1 
0861A:  MOVF   34,W
0861C:  SUBLW  07
0861E:  BNZ   8626
....................          { 
....................             EstadoSSR=!EstadoSSR; 
08620:  BTG    xCB.0
....................             RX_Buffer[4]=0x00; 
08622:  CLRF   34
....................             RX_Buffer2[4]=0x00; 
08624:  CLRF   3F
....................          } 
....................           
....................          if(EstadoSSR){ 
08626:  BTFSS  xCB.0
08628:  BRA    8644
....................             printf("b6.bco=2016"); 
0862A:  MOVLW  5C
0862C:  MOVWF  FF6
0862E:  MOVLW  0F
08630:  MOVWF  FF7
08632:  MOVLW  00
08634:  MOVWF  FF8
08636:  CALL   3510
....................             SendDataDisplay();  
0863A:  CALL   3542
....................             SSR_on; 
0863E:  BCF    F8B.1
08640:  BCF    F94.1
....................          } 
....................          else{ 
08642:  BRA    865C
....................             printf("b6.bco=63488"); 
08644:  MOVLW  68
08646:  MOVWF  FF6
08648:  MOVLW  0F
0864A:  MOVWF  FF7
0864C:  MOVLW  00
0864E:  MOVWF  FF8
08650:  CALL   3510
....................             SendDataDisplay();  
08654:  CALL   3542
....................             SSR_off; 
08658:  BSF    F8B.1
0865A:  BCF    F94.1
....................          } 
....................           
....................          if(DOOR){ 
0865C:  BSF    F93.2
0865E:  BTFSC  F81.2
08660:  BRA    8678
....................             printf("b8.bco=2016"); 
08662:  MOVLW  76
08664:  MOVWF  FF6
08666:  MOVLW  0F
08668:  MOVWF  FF7
0866A:  MOVLW  00
0866C:  MOVWF  FF8
0866E:  CALL   3510
....................             SendDataDisplay();  
08672:  CALL   3542
....................          }else{ 
08676:  BRA    868C
....................             printf("b8.bco=63488"); 
08678:  MOVLW  82
0867A:  MOVWF  FF6
0867C:  MOVLW  0F
0867E:  MOVWF  FF7
08680:  MOVLW  00
08682:  MOVWF  FF8
08684:  CALL   3510
....................             SendDataDisplay();  
08688:  CALL   3542
....................          } 
....................           
....................          if(TERM){ 
0868C:  BSF    F93.0
0868E:  BTFSC  F81.0
08690:  BRA    86A8
....................             printf("b9.bco=2016"); 
08692:  MOVLW  90
08694:  MOVWF  FF6
08696:  MOVLW  0F
08698:  MOVWF  FF7
0869A:  MOVLW  00
0869C:  MOVWF  FF8
0869E:  CALL   3510
....................             SendDataDisplay();  
086A2:  CALL   3542
....................          }else{ 
086A6:  BRA    86BC
....................             printf("b9.bco=63488"); 
086A8:  MOVLW  9C
086AA:  MOVWF  FF6
086AC:  MOVLW  0F
086AE:  MOVWF  FF7
086B0:  MOVLW  00
086B2:  MOVWF  FF8
086B4:  CALL   3510
....................             SendDataDisplay();  
086B8:  CALL   3542
....................          } 
....................           
....................          if(STOP){ 
086BC:  BSF    F93.1
086BE:  BTFSC  F81.1
086C0:  BRA    86D8
....................             printf("b10.bco=2016"); 
086C2:  MOVLW  AA
086C4:  MOVWF  FF6
086C6:  MOVLW  0F
086C8:  MOVWF  FF7
086CA:  MOVLW  00
086CC:  MOVWF  FF8
086CE:  CALL   3510
....................             SendDataDisplay();  
086D2:  CALL   3542
....................          }else{ 
086D6:  BRA    86EC
....................             printf("b10.bco=63488"); 
086D8:  MOVLW  B8
086DA:  MOVWF  FF6
086DC:  MOVLW  0F
086DE:  MOVWF  FF7
086E0:  MOVLW  00
086E2:  MOVWF  FF8
086E4:  CALL   3510
....................             SendDataDisplay();  
086E8:  CALL   3542
....................          } 
....................           
....................          if(PRES){ 
086EC:  BSF    F92.4
086EE:  BTFSC  F80.4
086F0:  BRA    8708
....................             printf("b11.bco=2016"); 
086F2:  MOVLW  C6
086F4:  MOVWF  FF6
086F6:  MOVLW  0F
086F8:  MOVWF  FF7
086FA:  MOVLW  00
086FC:  MOVWF  FF8
086FE:  CALL   3510
....................             SendDataDisplay();  
08702:  CALL   3542
....................          }else{ 
08706:  BRA    871C
....................             printf("b11.bco=63488"); 
08708:  MOVLW  D4
0870A:  MOVWF  FF6
0870C:  MOVLW  0F
0870E:  MOVWF  FF7
08710:  MOVLW  00
08712:  MOVWF  FF8
08714:  CALL   3510
....................             SendDataDisplay();  
08718:  CALL   3542
....................          } 
....................           
....................          if(RX_Buffer[4]==0x13)//Oprimio Buzzer 
0871C:  MOVF   34,W
0871E:  SUBLW  13
08720:  BNZ   8728
....................          { 
....................             EstadoBuzzer=!EstadoBuzzer; 
08722:  BTG    xCC.6
....................             RX_Buffer[4]=0x00; 
08724:  CLRF   34
....................             RX_Buffer2[4]=0x00; 
08726:  CLRF   3F
....................          } 
....................           
....................          if(EstadoBuzzer){ 
08728:  BTFSS  xCC.6
0872A:  BRA    8746
....................             printf("b12.bco=2016"); 
0872C:  MOVLW  E2
0872E:  MOVWF  FF6
08730:  MOVLW  0F
08732:  MOVWF  FF7
08734:  MOVLW  00
08736:  MOVWF  FF8
08738:  CALL   3510
....................             SendDataDisplay();  
0873C:  CALL   3542
....................             Buzzer_on; 
08740:  BSF    F8B.5
08742:  BCF    F94.5
....................          } 
....................          else{ 
08744:  BRA    875E
....................             printf("b12.bco=63488"); 
08746:  MOVLW  F0
08748:  MOVWF  FF6
0874A:  MOVLW  0F
0874C:  MOVWF  FF7
0874E:  MOVLW  00
08750:  MOVWF  FF8
08752:  CALL   3510
....................             SendDataDisplay();  
08756:  CALL   3542
....................             Buzzer_off; 
0875A:  BCF    F8B.5
0875C:  BCF    F94.5
....................          } 
....................           
....................          if(HIG){ 
0875E:  BSF    F92.5
08760:  BTFSS  F80.5
08762:  BRA    877A
....................             printf("b16.bco=2016"); 
08764:  MOVLW  FE
08766:  MOVWF  FF6
08768:  MOVLW  0F
0876A:  MOVWF  FF7
0876C:  MOVLW  00
0876E:  MOVWF  FF8
08770:  CALL   3510
....................             SendDataDisplay();  
08774:  CALL   3542
....................          }else{ 
08778:  BRA    878E
....................             printf("b16.bco=63488"); 
0877A:  MOVLW  0C
0877C:  MOVWF  FF6
0877E:  MOVLW  10
08780:  MOVWF  FF7
08782:  MOVLW  00
08784:  MOVWF  FF8
08786:  CALL   3510
....................             SendDataDisplay();  
0878A:  CALL   3542
....................          } 
....................           
....................          if(LOW){ 
0878E:  BSF    F96.0
08790:  BTFSS  F84.0
08792:  BRA    87AA
....................             printf("b17.bco=2016"); 
08794:  MOVLW  1A
08796:  MOVWF  FF6
08798:  MOVLW  10
0879A:  MOVWF  FF7
0879C:  MOVLW  00
0879E:  MOVWF  FF8
087A0:  CALL   3510
....................             SendDataDisplay();  
087A4:  CALL   3542
....................          }else{ 
087A8:  BRA    87BE
....................             printf("b17.bco=63488"); 
087AA:  MOVLW  28
087AC:  MOVWF  FF6
087AE:  MOVLW  10
087B0:  MOVWF  FF7
087B2:  MOVLW  00
087B4:  MOVWF  FF8
087B6:  CALL   3510
....................             SendDataDisplay();  
087BA:  CALL   3542
....................          } 
....................           
....................          if(UP){ 
087BE:  BSF    F93.6
087C0:  BTFSC  F81.6
087C2:  BRA    8906
....................             delay_ms(100); 
087C4:  MOVLW  64
087C6:  MOVLB  3
087C8:  MOVWF  xC8
087CA:  MOVLB  0
087CC:  CALL   1C24
....................             if(UP){ 
087D0:  BSF    F93.6
087D2:  BTFSC  F81.6
087D4:  BRA    8906
....................                G1=41-sensores(2); 
087D6:  MOVLW  02
087D8:  MOVLB  3
087DA:  MOVWF  xBE
087DC:  MOVLB  0
087DE:  CALL   3598
087E2:  MOVFF  FEA,3BE
087E6:  MOVFF  FE9,3BD
087EA:  BSF    FD8.1
087EC:  MOVLB  3
087EE:  CLRF   xCB
087F0:  CLRF   xCA
087F2:  MOVLW  24
087F4:  MOVWF  xC9
087F6:  MOVLW  84
087F8:  MOVWF  xC8
087FA:  MOVFF  03,3CF
087FE:  MOVFF  02,3CE
08802:  MOVFF  01,3CD
08806:  MOVFF  00,3CC
0880A:  MOVLB  0
0880C:  CALL   1DE0
08810:  MOVFF  3BE,FEA
08814:  MOVFF  3BD,FE9
08818:  MOVFF  03,3CB
0881C:  MOVFF  02,3CA
08820:  MOVFF  01,3C9
08824:  MOVFF  00,3C8
08828:  CALL   3D9A
0882C:  MOVFF  01,3B9
....................                if(G1<0) 
08830:  MOVLB  3
08832:  BTFSC  xB9.7
08834:  BRA    8838
08836:  BRA    883E
....................                   sg1=10; 
08838:  MOVLW  0A
0883A:  MOVWF  xBB
....................                else 
0883C:  BRA    8842
....................                   sg1=5; 
0883E:  MOVLW  05
08840:  MOVWF  xBB
....................                    
....................                write_eeprom(42,(int8)G1); 
08842:  CLRF   FAA
08844:  MOVLW  2A
08846:  MOVWF  FA9
08848:  MOVFF  3B9,FA8
0884C:  BCF    FA6.6
0884E:  BCF    FA6.7
08850:  BSF    FA6.2
08852:  MOVF   FF2,W
08854:  MOVWF  00
08856:  BCF    FF2.6
08858:  BCF    FF2.7
0885A:  MOVLB  F
0885C:  MOVLW  55
0885E:  MOVWF  FA7
08860:  MOVLW  AA
08862:  MOVWF  FA7
08864:  BSF    FA6.1
08866:  BTFSC  FA6.1
08868:  BRA    8866
0886A:  BCF    FA6.2
0886C:  MOVF   00,W
0886E:  IORWF  FF2,F
....................                delay_ms(10); 
08870:  MOVLW  0A
08872:  MOVLB  3
08874:  MOVWF  xC8
08876:  MOVLB  0
08878:  CALL   1C24
....................                write_eeprom(44,(int8)sg1); 
0887C:  CLRF   FAA
0887E:  MOVLW  2C
08880:  MOVWF  FA9
08882:  MOVFF  3BB,FA8
08886:  BCF    FA6.6
08888:  BCF    FA6.7
0888A:  BSF    FA6.2
0888C:  MOVF   FF2,W
0888E:  MOVWF  00
08890:  BCF    FF2.6
08892:  BCF    FF2.7
08894:  MOVLB  F
08896:  MOVLW  55
08898:  MOVWF  FA7
0889A:  MOVLW  AA
0889C:  MOVWF  FA7
0889E:  BSF    FA6.1
088A0:  BTFSC  FA6.1
088A2:  BRA    88A0
088A4:  BCF    FA6.2
088A6:  MOVF   00,W
088A8:  IORWF  FF2,F
....................                delay_ms(10); 
088AA:  MOVLW  0A
088AC:  MOVLB  3
088AE:  MOVWF  xC8
088B0:  MOVLB  0
088B2:  CALL   1C24
....................                Buzzer_on; 
088B6:  BSF    F8B.5
088B8:  BCF    F94.5
....................                delay_ms(1000); 
088BA:  MOVLW  04
088BC:  MOVLB  3
088BE:  MOVWF  xBD
088C0:  MOVLW  FA
088C2:  MOVWF  xC8
088C4:  MOVLB  0
088C6:  CALL   1C24
088CA:  MOVLB  3
088CC:  DECFSZ xBD,F
088CE:  BRA    88C0
....................                Buzzer_off; 
088D0:  BCF    F8B.5
088D2:  BCF    F94.5
....................                delay_ms(1000); 
088D4:  MOVLW  04
088D6:  MOVWF  xBD
088D8:  MOVLW  FA
088DA:  MOVWF  xC8
088DC:  MOVLB  0
088DE:  CALL   1C24
088E2:  MOVLB  3
088E4:  DECFSZ xBD,F
088E6:  BRA    88D8
....................                Buzzer_on; 
088E8:  BSF    F8B.5
088EA:  BCF    F94.5
....................                delay_ms(1000); 
088EC:  MOVLW  04
088EE:  MOVWF  xBD
088F0:  MOVLW  FA
088F2:  MOVWF  xC8
088F4:  MOVLB  0
088F6:  CALL   1C24
088FA:  MOVLB  3
088FC:  DECFSZ xBD,F
088FE:  BRA    88F0
....................                Buzzer_off; 
08900:  BCF    F8B.5
08902:  BCF    F94.5
08904:  MOVLB  0
....................             } 
....................          } 
....................           
....................          if(DOWN){ 
08906:  BSF    F93.5
08908:  BTFSC  F81.5
0890A:  BRA    8A4E
....................             delay_ms(100); 
0890C:  MOVLW  64
0890E:  MOVLB  3
08910:  MOVWF  xC8
08912:  MOVLB  0
08914:  CALL   1C24
....................             if(DOWN){ 
08918:  BSF    F93.5
0891A:  BTFSC  F81.5
0891C:  BRA    8A4E
....................                G2=41-sensores(3); 
0891E:  MOVLW  03
08920:  MOVLB  3
08922:  MOVWF  xBE
08924:  MOVLB  0
08926:  CALL   3598
0892A:  MOVFF  FEA,3BE
0892E:  MOVFF  FE9,3BD
08932:  BSF    FD8.1
08934:  MOVLB  3
08936:  CLRF   xCB
08938:  CLRF   xCA
0893A:  MOVLW  24
0893C:  MOVWF  xC9
0893E:  MOVLW  84
08940:  MOVWF  xC8
08942:  MOVFF  03,3CF
08946:  MOVFF  02,3CE
0894A:  MOVFF  01,3CD
0894E:  MOVFF  00,3CC
08952:  MOVLB  0
08954:  CALL   1DE0
08958:  MOVFF  3BE,FEA
0895C:  MOVFF  3BD,FE9
08960:  MOVFF  03,3CB
08964:  MOVFF  02,3CA
08968:  MOVFF  01,3C9
0896C:  MOVFF  00,3C8
08970:  CALL   3D9A
08974:  MOVFF  01,3BA
....................                if(G2<0) 
08978:  MOVLB  3
0897A:  BTFSC  xBA.7
0897C:  BRA    8980
0897E:  BRA    8986
....................                   sg2=10; 
08980:  MOVLW  0A
08982:  MOVWF  xBC
....................                else 
08984:  BRA    898A
....................                   sg2=5; 
08986:  MOVLW  05
08988:  MOVWF  xBC
....................                    
....................                write_eeprom(43,(int8)G2); 
0898A:  CLRF   FAA
0898C:  MOVLW  2B
0898E:  MOVWF  FA9
08990:  MOVFF  3BA,FA8
08994:  BCF    FA6.6
08996:  BCF    FA6.7
08998:  BSF    FA6.2
0899A:  MOVF   FF2,W
0899C:  MOVWF  00
0899E:  BCF    FF2.6
089A0:  BCF    FF2.7
089A2:  MOVLB  F
089A4:  MOVLW  55
089A6:  MOVWF  FA7
089A8:  MOVLW  AA
089AA:  MOVWF  FA7
089AC:  BSF    FA6.1
089AE:  BTFSC  FA6.1
089B0:  BRA    89AE
089B2:  BCF    FA6.2
089B4:  MOVF   00,W
089B6:  IORWF  FF2,F
....................                delay_ms(10); 
089B8:  MOVLW  0A
089BA:  MOVLB  3
089BC:  MOVWF  xC8
089BE:  MOVLB  0
089C0:  CALL   1C24
....................                write_eeprom(45,(int8)sg2); 
089C4:  CLRF   FAA
089C6:  MOVLW  2D
089C8:  MOVWF  FA9
089CA:  MOVFF  3BC,FA8
089CE:  BCF    FA6.6
089D0:  BCF    FA6.7
089D2:  BSF    FA6.2
089D4:  MOVF   FF2,W
089D6:  MOVWF  00
089D8:  BCF    FF2.6
089DA:  BCF    FF2.7
089DC:  MOVLB  F
089DE:  MOVLW  55
089E0:  MOVWF  FA7
089E2:  MOVLW  AA
089E4:  MOVWF  FA7
089E6:  BSF    FA6.1
089E8:  BTFSC  FA6.1
089EA:  BRA    89E8
089EC:  BCF    FA6.2
089EE:  MOVF   00,W
089F0:  IORWF  FF2,F
....................                delay_ms(10); 
089F2:  MOVLW  0A
089F4:  MOVLB  3
089F6:  MOVWF  xC8
089F8:  MOVLB  0
089FA:  CALL   1C24
....................                Buzzer_on; 
089FE:  BSF    F8B.5
08A00:  BCF    F94.5
....................                delay_ms(1000); 
08A02:  MOVLW  04
08A04:  MOVLB  3
08A06:  MOVWF  xBD
08A08:  MOVLW  FA
08A0A:  MOVWF  xC8
08A0C:  MOVLB  0
08A0E:  CALL   1C24
08A12:  MOVLB  3
08A14:  DECFSZ xBD,F
08A16:  BRA    8A08
....................                Buzzer_off; 
08A18:  BCF    F8B.5
08A1A:  BCF    F94.5
....................                delay_ms(1000); 
08A1C:  MOVLW  04
08A1E:  MOVWF  xBD
08A20:  MOVLW  FA
08A22:  MOVWF  xC8
08A24:  MOVLB  0
08A26:  CALL   1C24
08A2A:  MOVLB  3
08A2C:  DECFSZ xBD,F
08A2E:  BRA    8A20
....................                Buzzer_on; 
08A30:  BSF    F8B.5
08A32:  BCF    F94.5
....................                delay_ms(1000); 
08A34:  MOVLW  04
08A36:  MOVWF  xBD
08A38:  MOVLW  FA
08A3A:  MOVWF  xC8
08A3C:  MOVLB  0
08A3E:  CALL   1C24
08A42:  MOVLB  3
08A44:  DECFSZ xBD,F
08A46:  BRA    8A38
....................                Buzzer_off; 
08A48:  BCF    F8B.5
08A4A:  BCF    F94.5
08A4C:  MOVLB  0
....................             } 
....................          } 
....................           
....................          printf("b13.txt=\"%3.0f\"",sensores(0)); 
08A4E:  MOVLB  3
08A50:  CLRF   xBE
08A52:  MOVLB  0
08A54:  CALL   3598
08A58:  MOVFF  00,3BD
08A5C:  MOVFF  01,3BE
08A60:  MOVFF  02,3BF
08A64:  MOVFF  03,3C0
08A68:  MOVLW  36
08A6A:  MOVWF  FF6
08A6C:  MOVLW  10
08A6E:  MOVWF  FF7
08A70:  MOVLW  00
08A72:  MOVWF  FF8
08A74:  MOVLW  09
08A76:  MOVLB  3
08A78:  MOVWF  xC1
08A7A:  MOVLB  0
08A7C:  CALL   464A
08A80:  MOVLW  02
08A82:  MOVWF  FE9
08A84:  MOVFF  3C0,3C4
08A88:  MOVFF  3BF,3C3
08A8C:  MOVFF  3BE,3C2
08A90:  MOVFF  3BD,3C1
08A94:  MOVLB  3
08A96:  CLRF   xC5
08A98:  MOVLB  0
08A9A:  CALL   4912
08A9E:  MOVLW  22
08AA0:  BTFSS  F9E.4
08AA2:  BRA    8AA0
08AA4:  MOVWF  FAD
....................          SendDataDisplay(); 
08AA6:  CALL   3542
....................          printf("b14.txt=\"%3.0f\"",sensores(2)); 
08AAA:  MOVLW  02
08AAC:  MOVLB  3
08AAE:  MOVWF  xBE
08AB0:  MOVLB  0
08AB2:  CALL   3598
08AB6:  MOVFF  00,3BD
08ABA:  MOVFF  01,3BE
08ABE:  MOVFF  02,3BF
08AC2:  MOVFF  03,3C0
08AC6:  MOVLW  46
08AC8:  MOVWF  FF6
08ACA:  MOVLW  10
08ACC:  MOVWF  FF7
08ACE:  MOVLW  00
08AD0:  MOVWF  FF8
08AD2:  MOVLW  09
08AD4:  MOVLB  3
08AD6:  MOVWF  xC1
08AD8:  MOVLB  0
08ADA:  CALL   464A
08ADE:  MOVLW  02
08AE0:  MOVWF  FE9
08AE2:  MOVFF  3C0,3C4
08AE6:  MOVFF  3BF,3C3
08AEA:  MOVFF  3BE,3C2
08AEE:  MOVFF  3BD,3C1
08AF2:  MOVLB  3
08AF4:  CLRF   xC5
08AF6:  MOVLB  0
08AF8:  CALL   4912
08AFC:  MOVLW  22
08AFE:  BTFSS  F9E.4
08B00:  BRA    8AFE
08B02:  MOVWF  FAD
....................          SendDataDisplay(); 
08B04:  CALL   3542
....................          printf("b15.txt=\"%3.0f\"",sensores(3)); 
08B08:  MOVLW  03
08B0A:  MOVLB  3
08B0C:  MOVWF  xBE
08B0E:  MOVLB  0
08B10:  CALL   3598
08B14:  MOVFF  00,3BD
08B18:  MOVFF  01,3BE
08B1C:  MOVFF  02,3BF
08B20:  MOVFF  03,3C0
08B24:  MOVLW  56
08B26:  MOVWF  FF6
08B28:  MOVLW  10
08B2A:  MOVWF  FF7
08B2C:  MOVLW  00
08B2E:  MOVWF  FF8
08B30:  MOVLW  09
08B32:  MOVLB  3
08B34:  MOVWF  xC1
08B36:  MOVLB  0
08B38:  CALL   464A
08B3C:  MOVLW  02
08B3E:  MOVWF  FE9
08B40:  MOVFF  3C0,3C4
08B44:  MOVFF  3BF,3C3
08B48:  MOVFF  3BE,3C2
08B4C:  MOVFF  3BD,3C1
08B50:  MOVLB  3
08B52:  CLRF   xC5
08B54:  MOVLB  0
08B56:  CALL   4912
08B5A:  MOVLW  22
08B5C:  BTFSS  F9E.4
08B5E:  BRA    8B5C
08B60:  MOVWF  FAD
....................          //printf("b15.txt=\"%3.0f\"",Presionp); 
....................          SendDataDisplay(); 
08B62:  CALL   3542
....................           
....................          if(RX_Buffer[4]==0x21)//Oprimio salir 
08B66:  MOVF   34,W
08B68:  SUBLW  21
08B6A:  BNZ   8B98
....................          { 
....................             printf("page MenuPrincipal"); 
08B6C:  MOVLW  66
08B6E:  MOVWF  FF6
08B70:  MOVLW  10
08B72:  MOVWF  FF7
08B74:  MOVLW  00
08B76:  MOVWF  FF8
08B78:  CALL   3510
....................             SendDataDisplay(); 
08B7C:  CALL   3542
....................             PantallaPrincipal=0; 
08B80:  MOVLB  3
08B82:  CLRF   x13
....................             PruebaEstados=OFF;Desfogue_off;AguaIn_off;SSR_off; 
08B84:  MOVLB  0
08B86:  BCF    xCB.1
08B88:  BSF    F8C.2
08B8A:  BCF    F95.2
08B8C:  BSF    F8C.4
08B8E:  BCF    F95.4
08B90:  BSF    F8B.1
08B92:  BCF    F94.1
....................             ApagaSalidas(); 
08B94:  CALL   3578
08B98:  MOVLB  3
....................             // Falta apagar Todo 
....................          } 
....................      } 
.................... //_--------------------------------------------------------------------------------------------------------------------------------------------------------     
....................  
.................... //_--------------------------------------------------------------------------------------------------------------------------------------------------------       
....................       if(Menu==7){ //Menu de Configuracin de Fecha y Hora 
08B9A:  MOVF   x74,W
08B9C:  SUBLW  07
08B9E:  BTFSS  FD8.2
08BA0:  GOTO   9386
....................        
....................          if(RX_Buffer[4]==0x0a){//Selecciono Hora 
08BA4:  MOVF   34,W
08BA6:  SUBLW  0A
08BA8:  BNZ   8BAE
....................             Opcion=4; 
08BAA:  MOVLW  04
08BAC:  MOVWF  x7C
....................          } 
....................           
....................          if(RX_Buffer[4]==0x0b){//Selecciono Minuto 
08BAE:  MOVF   34,W
08BB0:  SUBLW  0B
08BB2:  BNZ   8BB8
....................             Opcion=5; 
08BB4:  MOVLW  05
08BB6:  MOVWF  x7C
....................          } 
....................           
....................          if(RX_Buffer[4]==0x0c){//Selecciono Dia 
08BB8:  MOVF   34,W
08BBA:  SUBLW  0C
08BBC:  BNZ   8BC2
....................             Opcion=1; 
08BBE:  MOVLW  01
08BC0:  MOVWF  x7C
....................          } 
....................           
....................          if(RX_Buffer[4]==0x0d){//Selecciono Hora 
08BC2:  MOVF   34,W
08BC4:  SUBLW  0D
08BC6:  BNZ   8BCC
....................             Opcion=2; 
08BC8:  MOVLW  02
08BCA:  MOVWF  x7C
....................          } 
....................           
....................          if(RX_Buffer[4]==0x0e){//Selecciono Year 
08BCC:  MOVF   34,W
08BCE:  SUBLW  0E
08BD0:  BNZ   8BD6
....................             Opcion=3; 
08BD2:  MOVLW  03
08BD4:  MOVWF  x7C
....................          } 
....................           
....................          if(Opcion==1){ 
08BD6:  DECFSZ x7C,W
08BD8:  BRA    8CA8
....................             printf("tdia.bco=27501"); 
08BDA:  MOVLW  7A
08BDC:  MOVWF  FF6
08BDE:  MOVLW  10
08BE0:  MOVWF  FF7
08BE2:  MOVLW  00
08BE4:  MOVWF  FF8
08BE6:  MOVLB  0
08BE8:  CALL   3510
....................             SendDataDisplay();   
08BEC:  CALL   3542
....................             printf("tdia.pco=65535"); 
08BF0:  MOVLW  8A
08BF2:  MOVWF  FF6
08BF4:  MOVLW  10
08BF6:  MOVWF  FF7
08BF8:  MOVLW  00
08BFA:  MOVWF  FF8
08BFC:  CALL   3510
....................             SendDataDisplay();   
08C00:  CALL   3542
....................             printf("tmes.bco=65535"); 
08C04:  MOVLW  9A
08C06:  MOVWF  FF6
08C08:  MOVLW  10
08C0A:  MOVWF  FF7
08C0C:  MOVLW  00
08C0E:  MOVWF  FF8
08C10:  CALL   3510
....................             SendDataDisplay();   
08C14:  CALL   3542
....................             printf("tmes.pco=0"); 
08C18:  MOVLW  AA
08C1A:  MOVWF  FF6
08C1C:  MOVLW  10
08C1E:  MOVWF  FF7
08C20:  MOVLW  00
08C22:  MOVWF  FF8
08C24:  CALL   3510
....................             SendDataDisplay();   
08C28:  CALL   3542
....................             printf("tyear.bco=65535"); 
08C2C:  MOVLW  B6
08C2E:  MOVWF  FF6
08C30:  MOVLW  10
08C32:  MOVWF  FF7
08C34:  MOVLW  00
08C36:  MOVWF  FF8
08C38:  CALL   3510
....................             SendDataDisplay();   
08C3C:  CALL   3542
....................             printf("tyear.pco=0"); 
08C40:  MOVLW  C6
08C42:  MOVWF  FF6
08C44:  MOVLW  10
08C46:  MOVWF  FF7
08C48:  MOVLW  00
08C4A:  MOVWF  FF8
08C4C:  CALL   3510
....................             SendDataDisplay();   
08C50:  CALL   3542
....................             printf("thora.bco=65535"); 
08C54:  MOVLW  D2
08C56:  MOVWF  FF6
08C58:  MOVLW  10
08C5A:  MOVWF  FF7
08C5C:  MOVLW  00
08C5E:  MOVWF  FF8
08C60:  CALL   3510
....................             SendDataDisplay();   
08C64:  CALL   3542
....................             printf("thora.pco=0"); 
08C68:  MOVLW  E2
08C6A:  MOVWF  FF6
08C6C:  MOVLW  10
08C6E:  MOVWF  FF7
08C70:  MOVLW  00
08C72:  MOVWF  FF8
08C74:  CALL   3510
....................             SendDataDisplay();   
08C78:  CALL   3542
....................             printf("tminutos.bco=65535"); 
08C7C:  MOVLW  EE
08C7E:  MOVWF  FF6
08C80:  MOVLW  10
08C82:  MOVWF  FF7
08C84:  MOVLW  00
08C86:  MOVWF  FF8
08C88:  CALL   3510
....................             SendDataDisplay();   
08C8C:  CALL   3542
....................             printf("tminutos.pco=0"); 
08C90:  MOVLW  02
08C92:  MOVWF  FF6
08C94:  MOVLW  11
08C96:  MOVWF  FF7
08C98:  MOVLW  00
08C9A:  MOVWF  FF8
08C9C:  CALL   3510
....................             SendDataDisplay();   
08CA0:  CALL   3542
....................          }else if(Opcion==2){ 
08CA4:  BRA    8FF4
08CA6:  MOVLB  3
08CA8:  MOVF   x7C,W
08CAA:  SUBLW  02
08CAC:  BNZ   8D7C
....................             printf("tdia.bco=65535"); 
08CAE:  MOVLW  12
08CB0:  MOVWF  FF6
08CB2:  MOVLW  11
08CB4:  MOVWF  FF7
08CB6:  MOVLW  00
08CB8:  MOVWF  FF8
08CBA:  MOVLB  0
08CBC:  CALL   3510
....................             SendDataDisplay();   
08CC0:  CALL   3542
....................             printf("tdia.pco=0"); 
08CC4:  MOVLW  22
08CC6:  MOVWF  FF6
08CC8:  MOVLW  11
08CCA:  MOVWF  FF7
08CCC:  MOVLW  00
08CCE:  MOVWF  FF8
08CD0:  CALL   3510
....................             SendDataDisplay();   
08CD4:  CALL   3542
....................             printf("tmes.bco=27501"); 
08CD8:  MOVLW  2E
08CDA:  MOVWF  FF6
08CDC:  MOVLW  11
08CDE:  MOVWF  FF7
08CE0:  MOVLW  00
08CE2:  MOVWF  FF8
08CE4:  CALL   3510
....................             SendDataDisplay();   
08CE8:  CALL   3542
....................             printf("tmes.pco=65535"); 
08CEC:  MOVLW  3E
08CEE:  MOVWF  FF6
08CF0:  MOVLW  11
08CF2:  MOVWF  FF7
08CF4:  MOVLW  00
08CF6:  MOVWF  FF8
08CF8:  CALL   3510
....................             SendDataDisplay();   
08CFC:  CALL   3542
....................             printf("tyear.bco=65535"); 
08D00:  MOVLW  4E
08D02:  MOVWF  FF6
08D04:  MOVLW  11
08D06:  MOVWF  FF7
08D08:  MOVLW  00
08D0A:  MOVWF  FF8
08D0C:  CALL   3510
....................             SendDataDisplay();   
08D10:  CALL   3542
....................             printf("tyear.pco=0"); 
08D14:  MOVLW  5E
08D16:  MOVWF  FF6
08D18:  MOVLW  11
08D1A:  MOVWF  FF7
08D1C:  MOVLW  00
08D1E:  MOVWF  FF8
08D20:  CALL   3510
....................             SendDataDisplay();   
08D24:  CALL   3542
....................             printf("thora.bco=65535"); 
08D28:  MOVLW  6A
08D2A:  MOVWF  FF6
08D2C:  MOVLW  11
08D2E:  MOVWF  FF7
08D30:  MOVLW  00
08D32:  MOVWF  FF8
08D34:  CALL   3510
....................             SendDataDisplay();   
08D38:  CALL   3542
....................             printf("thora.pco=0"); 
08D3C:  MOVLW  7A
08D3E:  MOVWF  FF6
08D40:  MOVLW  11
08D42:  MOVWF  FF7
08D44:  MOVLW  00
08D46:  MOVWF  FF8
08D48:  CALL   3510
....................             SendDataDisplay();   
08D4C:  CALL   3542
....................             printf("tminutos.bco=65535"); 
08D50:  MOVLW  86
08D52:  MOVWF  FF6
08D54:  MOVLW  11
08D56:  MOVWF  FF7
08D58:  MOVLW  00
08D5A:  MOVWF  FF8
08D5C:  CALL   3510
....................             SendDataDisplay();   
08D60:  CALL   3542
....................             printf("tminutos.pco=0"); 
08D64:  MOVLW  9A
08D66:  MOVWF  FF6
08D68:  MOVLW  11
08D6A:  MOVWF  FF7
08D6C:  MOVLW  00
08D6E:  MOVWF  FF8
08D70:  CALL   3510
....................             SendDataDisplay(); 
08D74:  CALL   3542
....................          }else if(Opcion==3){ 
08D78:  BRA    8FF4
08D7A:  MOVLB  3
08D7C:  MOVF   x7C,W
08D7E:  SUBLW  03
08D80:  BNZ   8E50
....................             printf("tdia.bco=65535"); 
08D82:  MOVLW  AA
08D84:  MOVWF  FF6
08D86:  MOVLW  11
08D88:  MOVWF  FF7
08D8A:  MOVLW  00
08D8C:  MOVWF  FF8
08D8E:  MOVLB  0
08D90:  CALL   3510
....................             SendDataDisplay();   
08D94:  CALL   3542
....................             printf("tdia.pco=0"); 
08D98:  MOVLW  BA
08D9A:  MOVWF  FF6
08D9C:  MOVLW  11
08D9E:  MOVWF  FF7
08DA0:  MOVLW  00
08DA2:  MOVWF  FF8
08DA4:  CALL   3510
....................             SendDataDisplay();   
08DA8:  CALL   3542
....................             printf("tmes.bco=65535"); 
08DAC:  MOVLW  C6
08DAE:  MOVWF  FF6
08DB0:  MOVLW  11
08DB2:  MOVWF  FF7
08DB4:  MOVLW  00
08DB6:  MOVWF  FF8
08DB8:  CALL   3510
....................             SendDataDisplay();   
08DBC:  CALL   3542
....................             printf("tmes.pco=0"); 
08DC0:  MOVLW  D6
08DC2:  MOVWF  FF6
08DC4:  MOVLW  11
08DC6:  MOVWF  FF7
08DC8:  MOVLW  00
08DCA:  MOVWF  FF8
08DCC:  CALL   3510
....................             SendDataDisplay();   
08DD0:  CALL   3542
....................             printf("tyear.bco=27501"); 
08DD4:  MOVLW  E2
08DD6:  MOVWF  FF6
08DD8:  MOVLW  11
08DDA:  MOVWF  FF7
08DDC:  MOVLW  00
08DDE:  MOVWF  FF8
08DE0:  CALL   3510
....................             SendDataDisplay();   
08DE4:  CALL   3542
....................             printf("tyear.pco=65535"); 
08DE8:  MOVLW  F2
08DEA:  MOVWF  FF6
08DEC:  MOVLW  11
08DEE:  MOVWF  FF7
08DF0:  MOVLW  00
08DF2:  MOVWF  FF8
08DF4:  CALL   3510
....................             SendDataDisplay();   
08DF8:  CALL   3542
....................             printf("thora.bco=65535"); 
08DFC:  MOVLW  02
08DFE:  MOVWF  FF6
08E00:  MOVLW  12
08E02:  MOVWF  FF7
08E04:  MOVLW  00
08E06:  MOVWF  FF8
08E08:  CALL   3510
....................             SendDataDisplay();   
08E0C:  CALL   3542
....................             printf("thora.pco=0"); 
08E10:  MOVLW  12
08E12:  MOVWF  FF6
08E14:  MOVLW  12
08E16:  MOVWF  FF7
08E18:  MOVLW  00
08E1A:  MOVWF  FF8
08E1C:  CALL   3510
....................             SendDataDisplay();   
08E20:  CALL   3542
....................             printf("tminutos.bco=65535"); 
08E24:  MOVLW  1E
08E26:  MOVWF  FF6
08E28:  MOVLW  12
08E2A:  MOVWF  FF7
08E2C:  MOVLW  00
08E2E:  MOVWF  FF8
08E30:  CALL   3510
....................             SendDataDisplay();   
08E34:  CALL   3542
....................             printf("tminutos.pco=0"); 
08E38:  MOVLW  32
08E3A:  MOVWF  FF6
08E3C:  MOVLW  12
08E3E:  MOVWF  FF7
08E40:  MOVLW  00
08E42:  MOVWF  FF8
08E44:  CALL   3510
....................             SendDataDisplay(); 
08E48:  CALL   3542
....................          }else if(Opcion==4){ 
08E4C:  BRA    8FF4
08E4E:  MOVLB  3
08E50:  MOVF   x7C,W
08E52:  SUBLW  04
08E54:  BNZ   8F24
....................             printf("tdia.bco=65535"); 
08E56:  MOVLW  42
08E58:  MOVWF  FF6
08E5A:  MOVLW  12
08E5C:  MOVWF  FF7
08E5E:  MOVLW  00
08E60:  MOVWF  FF8
08E62:  MOVLB  0
08E64:  CALL   3510
....................             SendDataDisplay();   
08E68:  CALL   3542
....................             printf("tdia.pco=0"); 
08E6C:  MOVLW  52
08E6E:  MOVWF  FF6
08E70:  MOVLW  12
08E72:  MOVWF  FF7
08E74:  MOVLW  00
08E76:  MOVWF  FF8
08E78:  CALL   3510
....................             SendDataDisplay();   
08E7C:  CALL   3542
....................             printf("tmes.bco=65535"); 
08E80:  MOVLW  5E
08E82:  MOVWF  FF6
08E84:  MOVLW  12
08E86:  MOVWF  FF7
08E88:  MOVLW  00
08E8A:  MOVWF  FF8
08E8C:  CALL   3510
....................             SendDataDisplay();  
08E90:  CALL   3542
....................             printf("tmes.pco=0"); 
08E94:  MOVLW  6E
08E96:  MOVWF  FF6
08E98:  MOVLW  12
08E9A:  MOVWF  FF7
08E9C:  MOVLW  00
08E9E:  MOVWF  FF8
08EA0:  CALL   3510
....................             SendDataDisplay();   
08EA4:  CALL   3542
....................             printf("tyear.bco=65535"); 
08EA8:  MOVLW  7A
08EAA:  MOVWF  FF6
08EAC:  MOVLW  12
08EAE:  MOVWF  FF7
08EB0:  MOVLW  00
08EB2:  MOVWF  FF8
08EB4:  CALL   3510
....................             SendDataDisplay();   
08EB8:  CALL   3542
....................             printf("tyear.pco=0"); 
08EBC:  MOVLW  8A
08EBE:  MOVWF  FF6
08EC0:  MOVLW  12
08EC2:  MOVWF  FF7
08EC4:  MOVLW  00
08EC6:  MOVWF  FF8
08EC8:  CALL   3510
....................             SendDataDisplay();   
08ECC:  CALL   3542
....................             printf("thora.bco=27501"); 
08ED0:  MOVLW  96
08ED2:  MOVWF  FF6
08ED4:  MOVLW  12
08ED6:  MOVWF  FF7
08ED8:  MOVLW  00
08EDA:  MOVWF  FF8
08EDC:  CALL   3510
....................             SendDataDisplay();   
08EE0:  CALL   3542
....................             printf("thora.pco=65535"); 
08EE4:  MOVLW  A6
08EE6:  MOVWF  FF6
08EE8:  MOVLW  12
08EEA:  MOVWF  FF7
08EEC:  MOVLW  00
08EEE:  MOVWF  FF8
08EF0:  CALL   3510
....................             SendDataDisplay();   
08EF4:  CALL   3542
....................             printf("tminutos.bco=65535"); 
08EF8:  MOVLW  B6
08EFA:  MOVWF  FF6
08EFC:  MOVLW  12
08EFE:  MOVWF  FF7
08F00:  MOVLW  00
08F02:  MOVWF  FF8
08F04:  CALL   3510
....................             SendDataDisplay();   
08F08:  CALL   3542
....................             printf("tminutos.pco=0"); 
08F0C:  MOVLW  CA
08F0E:  MOVWF  FF6
08F10:  MOVLW  12
08F12:  MOVWF  FF7
08F14:  MOVLW  00
08F16:  MOVWF  FF8
08F18:  CALL   3510
....................             SendDataDisplay(); 
08F1C:  CALL   3542
....................          }else if(Opcion==5){ 
08F20:  BRA    8FF4
08F22:  MOVLB  3
08F24:  MOVF   x7C,W
08F26:  SUBLW  05
08F28:  BNZ   8FF6
....................             printf("tdia.bco=65535"); 
08F2A:  MOVLW  DA
08F2C:  MOVWF  FF6
08F2E:  MOVLW  12
08F30:  MOVWF  FF7
08F32:  MOVLW  00
08F34:  MOVWF  FF8
08F36:  MOVLB  0
08F38:  CALL   3510
....................             SendDataDisplay();   
08F3C:  CALL   3542
....................             printf("tdia.pco=0"); 
08F40:  MOVLW  EA
08F42:  MOVWF  FF6
08F44:  MOVLW  12
08F46:  MOVWF  FF7
08F48:  MOVLW  00
08F4A:  MOVWF  FF8
08F4C:  CALL   3510
....................             SendDataDisplay();   
08F50:  CALL   3542
....................             printf("tmes.bco=65535"); 
08F54:  MOVLW  F6
08F56:  MOVWF  FF6
08F58:  MOVLW  12
08F5A:  MOVWF  FF7
08F5C:  MOVLW  00
08F5E:  MOVWF  FF8
08F60:  CALL   3510
....................             SendDataDisplay();  
08F64:  CALL   3542
....................             printf("tmes.pco=0"); 
08F68:  MOVLW  06
08F6A:  MOVWF  FF6
08F6C:  MOVLW  13
08F6E:  MOVWF  FF7
08F70:  MOVLW  00
08F72:  MOVWF  FF8
08F74:  CALL   3510
....................             SendDataDisplay();   
08F78:  CALL   3542
....................             printf("tyear.bco=65535"); 
08F7C:  MOVLW  12
08F7E:  MOVWF  FF6
08F80:  MOVLW  13
08F82:  MOVWF  FF7
08F84:  MOVLW  00
08F86:  MOVWF  FF8
08F88:  CALL   3510
....................             SendDataDisplay();   
08F8C:  CALL   3542
....................             printf("tyear.pco=0"); 
08F90:  MOVLW  22
08F92:  MOVWF  FF6
08F94:  MOVLW  13
08F96:  MOVWF  FF7
08F98:  MOVLW  00
08F9A:  MOVWF  FF8
08F9C:  CALL   3510
....................             SendDataDisplay();   
08FA0:  CALL   3542
....................             printf("thora.bco=65535"); 
08FA4:  MOVLW  2E
08FA6:  MOVWF  FF6
08FA8:  MOVLW  13
08FAA:  MOVWF  FF7
08FAC:  MOVLW  00
08FAE:  MOVWF  FF8
08FB0:  CALL   3510
....................             SendDataDisplay();   
08FB4:  CALL   3542
....................             printf("thora.pco=0"); 
08FB8:  MOVLW  3E
08FBA:  MOVWF  FF6
08FBC:  MOVLW  13
08FBE:  MOVWF  FF7
08FC0:  MOVLW  00
08FC2:  MOVWF  FF8
08FC4:  CALL   3510
....................             SendDataDisplay();   
08FC8:  CALL   3542
....................             printf("tminutos.bco=27501"); 
08FCC:  MOVLW  4A
08FCE:  MOVWF  FF6
08FD0:  MOVLW  13
08FD2:  MOVWF  FF7
08FD4:  MOVLW  00
08FD6:  MOVWF  FF8
08FD8:  CALL   3510
....................             SendDataDisplay();   
08FDC:  CALL   3542
....................             printf("tminutos.pco=65535"); 
08FE0:  MOVLW  5E
08FE2:  MOVWF  FF6
08FE4:  MOVLW  13
08FE6:  MOVWF  FF7
08FE8:  MOVLW  00
08FEA:  MOVWF  FF8
08FEC:  CALL   3510
....................             SendDataDisplay(); 
08FF0:  CALL   3542
08FF4:  MOVLB  3
....................          } 
....................           
....................          if(RIGHT){ 
08FF6:  BSF    F93.4
08FF8:  BTFSC  F81.4
08FFA:  BRA    9010
....................             delay_ms(200); 
08FFC:  MOVLW  C8
08FFE:  MOVWF  xC8
09000:  MOVLB  0
09002:  CALL   1C24
....................             if(RIGHT){ 
09006:  BSF    F93.4
09008:  BTFSC  F81.4
0900A:  BRA    9012
....................                Opcion++; 
0900C:  MOVLB  3
0900E:  INCF   x7C,F
09010:  MOVLB  0
....................             } 
....................          } 
....................          if(Opcion>5) 
09012:  MOVLB  3
09014:  MOVF   x7C,W
09016:  SUBLW  05
09018:  BC    901E
....................             Opcion=1; 
0901A:  MOVLW  01
0901C:  MOVWF  x7C
....................          if(Opcion<1) 
0901E:  MOVF   x7C,F
09020:  BNZ   9026
....................             Opcion=5; 
09022:  MOVLW  05
09024:  MOVWF  x7C
....................              
....................          if(RX_Buffer[4]==0x11 || LEFT){//Selecciono Regresar 
09026:  MOVF   34,W
09028:  SUBLW  11
0902A:  BZ    9032
0902C:  BSF    F93.3
0902E:  BTFSC  F81.3
09030:  BRA    9138
....................             printf("page MenuPrincipal"); 
09032:  MOVLW  72
09034:  MOVWF  FF6
09036:  MOVLW  13
09038:  MOVWF  FF7
0903A:  MOVLW  00
0903C:  MOVWF  FF8
0903E:  MOVLB  0
09040:  CALL   3510
....................             SendDataDisplay();   
09044:  CALL   3542
....................             PantallaPrincipal=0; 
09048:  MOVLB  3
0904A:  CLRF   x13
....................             Op=OFF; 
0904C:  MOVLB  0
0904E:  BCF    xCB.7
....................             Op2=OFF; 
09050:  BCF    xCC.0
....................              
....................             if(esBisiesto(YearTx)) 
09052:  MOVFF  3B1,3BD
09056:  CALL   4AFE
0905A:  MOVF   01,F
0905C:  BZ    9076
....................                Modulo=Bisiesto[MesTx]; 
0905E:  CLRF   03
09060:  MOVLB  3
09062:  MOVF   xB2,W
09064:  ADDLW  BD
09066:  MOVWF  FE9
09068:  MOVLW  00
0906A:  ADDWFC 03,W
0906C:  MOVWF  FEA
0906E:  MOVFF  FEF,315
....................             else 
09072:  BRA    908A
09074:  MOVLB  0
....................                Modulo=Regular[MesTx]; 
09076:  CLRF   03
09078:  MOVLB  3
0907A:  MOVF   xB2,W
0907C:  ADDLW  B1
0907E:  MOVWF  FE9
09080:  MOVLW  00
09082:  ADDWFC 03,W
09084:  MOVWF  FEA
09086:  MOVFF  FEF,315
....................           
....................             dowTx=((YearTx-1)%7+((YearTx-1)/4-3*((YearTx-1)/100+1)/4)%7+Modulo+DiaTx%7)%7; 
0908A:  MOVLW  01
0908C:  SUBWF  xB1,W
0908E:  MOVWF  xBE
09090:  MOVWF  xC6
09092:  MOVLW  07
09094:  MOVWF  xC7
09096:  MOVLB  0
09098:  CALL   467C
0909C:  MOVFF  00,3BD
090A0:  MOVLW  01
090A2:  MOVLB  3
090A4:  SUBWF  xB1,W
090A6:  MOVWF  00
090A8:  RRCF   00,W
090AA:  MOVWF  xBE
090AC:  RRCF   xBE,F
090AE:  MOVLW  3F
090B0:  ANDWF  xBE,F
090B2:  MOVLW  01
090B4:  SUBWF  xB1,W
090B6:  MOVWF  xC0
090B8:  MOVWF  xC6
090BA:  MOVLW  64
090BC:  MOVWF  xC7
090BE:  MOVLB  0
090C0:  CALL   467C
090C4:  MOVLW  01
090C6:  ADDWF  01,W
090C8:  MULLW  03
090CA:  MOVFF  FF3,00
090CE:  RRCF   00,F
090D0:  RRCF   00,F
090D2:  MOVLW  3F
090D4:  ANDWF  00,F
090D6:  MOVF   00,W
090D8:  MOVLB  3
090DA:  SUBWF  xBE,W
090DC:  MOVWF  xBF
090DE:  MOVWF  xC6
090E0:  MOVLW  07
090E2:  MOVWF  xC7
090E4:  MOVLB  0
090E6:  CALL   467C
090EA:  MOVF   00,W
090EC:  MOVLB  3
090EE:  ADDWF  xBD,W
090F0:  ADDWF  x15,W
090F2:  MOVWF  xBD
090F4:  MOVFF  3B3,3C6
090F8:  MOVLW  07
090FA:  MOVWF  xC7
090FC:  MOVLB  0
090FE:  CALL   467C
09102:  MOVF   00,W
09104:  MOVLB  3
09106:  ADDWF  xBD,W
09108:  MOVWF  xBE
0910A:  MOVWF  xC6
0910C:  MOVLW  07
0910E:  MOVWF  xC7
09110:  MOVLB  0
09112:  CALL   467C
09116:  MOVFF  00,3B6
....................             rtc_set_datetime(DiaTx,MesTx,YearTx,dowTx,HoraTx,MinutoTx); 
0911A:  MOVFF  3B3,3BD
0911E:  MOVFF  3B2,3BE
09122:  MOVFF  3B1,3BF
09126:  MOVFF  3B6,3C0
0912A:  MOVFF  3B4,3C1
0912E:  MOVFF  3B5,3C2
09132:  GOTO   4B80
09136:  MOVLB  3
....................          } 
....................           
....................          if((RX_Buffer[4]==0x2a)|| UP){//Tecla Arriba Oprimida 
09138:  MOVF   34,W
0913A:  SUBLW  2A
0913C:  BZ    9144
0913E:  BSF    F93.6
09140:  BTFSC  F81.6
09142:  BRA    920A
....................             delay_ms(200); 
09144:  MOVLW  C8
09146:  MOVWF  xC8
09148:  MOVLB  0
0914A:  CALL   1C24
....................             if((RX_Buffer[4]==0x2a)|| UP){    
0914E:  MOVF   34,W
09150:  SUBLW  2A
09152:  BZ    915A
09154:  BSF    F93.6
09156:  BTFSC  F81.6
09158:  BRA    920C
....................                if(Opcion==1){ 
0915A:  MOVLB  3
0915C:  DECFSZ x7C,W
0915E:  BRA    91C8
....................                   if(MesTx==2){ 
09160:  MOVF   xB2,W
09162:  SUBLW  02
09164:  BNZ   918E
....................                      if(esBisiesto(YearTx)){ 
09166:  MOVFF  3B1,3BD
0916A:  MOVLB  0
0916C:  CALL   4AFE
09170:  MOVF   01,F
09172:  BZ    9182
....................                         if(DiaTx<29) 
09174:  MOVLB  3
09176:  MOVF   xB3,W
09178:  SUBLW  1C
0917A:  BNC   917E
....................                            DiaTx++; 
0917C:  INCF   xB3,F
....................                      }else{ 
0917E:  BRA    918C
09180:  MOVLB  0
....................                         if(DiaTx<28) 
09182:  MOVLB  3
09184:  MOVF   xB3,W
09186:  SUBLW  1B
09188:  BNC   918C
....................                            DiaTx++; 
0918A:  INCF   xB3,F
....................                      } 
....................                   }else{ 
0918C:  BRA    91C6
....................                      if(MesTx<=7){ 
0918E:  MOVF   xB2,W
09190:  SUBLW  07
09192:  BNC   91AE
....................                         if(MesTx % 2 ==0){ 
09194:  MOVF   xB2,W
09196:  ANDLW  01
09198:  BNZ   91A4
....................                            if(DiaTx<30) 
0919A:  MOVF   xB3,W
0919C:  SUBLW  1D
0919E:  BNC   91A2
....................                               DiaTx++;     
091A0:  INCF   xB3,F
....................                         }else{ 
091A2:  BRA    91AC
....................                            if(DiaTx<31) 
091A4:  MOVF   xB3,W
091A6:  SUBLW  1E
091A8:  BNC   91AC
....................                               DiaTx++;     
091AA:  INCF   xB3,F
....................                         }     
....................                      }else{ 
091AC:  BRA    91C6
....................                         if(MesTx % 2 ==0){ 
091AE:  MOVF   xB2,W
091B0:  ANDLW  01
091B2:  BNZ   91BE
....................                            if(DiaTx<31) 
091B4:  MOVF   xB3,W
091B6:  SUBLW  1E
091B8:  BNC   91BC
....................                               DiaTx++;     
091BA:  INCF   xB3,F
....................                         }else{ 
091BC:  BRA    91C6
....................                            if(DiaTx<30) 
091BE:  MOVF   xB3,W
091C0:  SUBLW  1D
091C2:  BNC   91C6
....................                               DiaTx++;     
091C4:  INCF   xB3,F
....................                         }     
....................                      } 
....................                   } 
....................                }else if(Opcion==2){ 
091C6:  BRA    9206
091C8:  MOVF   x7C,W
091CA:  SUBLW  02
091CC:  BNZ   91D8
....................                if(MesTx<12) 
091CE:  MOVF   xB2,W
091D0:  SUBLW  0B
091D2:  BNC   91D6
....................                   MesTx++; 
091D4:  INCF   xB2,F
....................                }else if(Opcion==3){ 
091D6:  BRA    9206
091D8:  MOVF   x7C,W
091DA:  SUBLW  03
091DC:  BNZ   91E8
....................                   if(YearTx<99) 
091DE:  MOVF   xB1,W
091E0:  SUBLW  62
091E2:  BNC   91E6
....................                      YearTx++; 
091E4:  INCF   xB1,F
....................                }else if(Opcion==4){ 
091E6:  BRA    9206
091E8:  MOVF   x7C,W
091EA:  SUBLW  04
091EC:  BNZ   91F8
....................                   if(HoraTx<24) 
091EE:  MOVF   xB4,W
091F0:  SUBLW  17
091F2:  BNC   91F6
....................                      HoraTx++; 
091F4:  INCF   xB4,F
....................                }else if(Opcion==5){ 
091F6:  BRA    9206
091F8:  MOVF   x7C,W
091FA:  SUBLW  05
091FC:  BNZ   9206
....................                   if(MinutoTx<59) 
091FE:  MOVF   xB5,W
09200:  SUBLW  3A
09202:  BNC   9206
....................                      MinutoTx++; 
09204:  INCF   xB5,F
....................                } 
....................                RX_Buffer[4]=0x00; 
09206:  CLRF   34
....................                RX_Buffer2[4]=0x00; 
09208:  CLRF   3F
0920A:  MOVLB  0
....................                //BorraBuffer(); 
....................             } 
....................          } 
....................           
....................          if(RX_Buffer[4]==0x2b || DOWN){//Tecla Abajo Oprimida 
0920C:  MOVF   34,W
0920E:  SUBLW  2B
09210:  BZ    9218
09212:  BSF    F93.5
09214:  BTFSC  F81.5
09216:  BRA    927C
....................             delay_ms(200); 
09218:  MOVLW  C8
0921A:  MOVLB  3
0921C:  MOVWF  xC8
0921E:  MOVLB  0
09220:  CALL   1C24
....................             if(RX_Buffer[4]==0x2b || DOWN){    
09224:  MOVF   34,W
09226:  SUBLW  2B
09228:  BZ    9230
0922A:  BSF    F93.5
0922C:  BTFSC  F81.5
0922E:  BRA    927C
....................                if(Opcion==1){ 
09230:  MOVLB  3
09232:  DECFSZ x7C,W
09234:  BRA    923E
....................                   if(DiaTx>0) 
09236:  MOVF   xB3,F
09238:  BZ    923C
....................                      DiaTx--; 
0923A:  DECF   xB3,F
....................                }else if(Opcion==2){ 
0923C:  BRA    9276
0923E:  MOVF   x7C,W
09240:  SUBLW  02
09242:  BNZ   924E
....................                   if(MesTx>1) 
09244:  MOVF   xB2,W
09246:  SUBLW  01
09248:  BC    924C
....................                      MesTx--; 
0924A:  DECF   xB2,F
....................                }else if(Opcion==3){ 
0924C:  BRA    9276
0924E:  MOVF   x7C,W
09250:  SUBLW  03
09252:  BNZ   925C
....................                   if(YearTx>0) 
09254:  MOVF   xB1,F
09256:  BZ    925A
....................                      YearTx--; 
09258:  DECF   xB1,F
....................                }else if(Opcion==4){ 
0925A:  BRA    9276
0925C:  MOVF   x7C,W
0925E:  SUBLW  04
09260:  BNZ   926A
....................                   if(HoraTx>0) 
09262:  MOVF   xB4,F
09264:  BZ    9268
....................                      HoraTx--; 
09266:  DECF   xB4,F
....................                }else if(Opcion==5){ 
09268:  BRA    9276
0926A:  MOVF   x7C,W
0926C:  SUBLW  05
0926E:  BNZ   9276
....................                   if(MinutoTx>0) 
09270:  MOVF   xB5,F
09272:  BZ    9276
....................                      MinutoTx--; 
09274:  DECF   xB5,F
....................                } 
....................                RX_Buffer[4]=0x00; 
09276:  CLRF   34
....................                RX_Buffer2[4]=0x00; 
09278:  CLRF   3F
0927A:  MOVLB  0
....................                //BorraBuffer(); 
....................             } 
....................          } 
....................        
....................       printf("thora.txt=\"%02u\"",HoraTx); 
0927C:  MOVLW  86
0927E:  MOVWF  FF6
09280:  MOVLW  13
09282:  MOVWF  FF7
09284:  MOVLW  00
09286:  MOVWF  FF8
09288:  MOVLW  0B
0928A:  MOVLB  3
0928C:  MOVWF  xC1
0928E:  MOVLB  0
09290:  CALL   464A
09294:  MOVFF  3B4,3BE
09298:  MOVLW  01
0929A:  MOVLB  3
0929C:  MOVWF  xBF
0929E:  MOVLB  0
092A0:  CALL   46A8
092A4:  MOVLW  22
092A6:  BTFSS  F9E.4
092A8:  BRA    92A6
092AA:  MOVWF  FAD
....................       SendDataDisplay(); 
092AC:  CALL   3542
....................       printf("tminutos.txt=\"%02u\"",MinutoTx); 
092B0:  MOVLW  98
092B2:  MOVWF  FF6
092B4:  MOVLW  13
092B6:  MOVWF  FF7
092B8:  MOVLW  00
092BA:  MOVWF  FF8
092BC:  MOVLW  0E
092BE:  MOVLB  3
092C0:  MOVWF  xC1
092C2:  MOVLB  0
092C4:  CALL   464A
092C8:  MOVFF  3B5,3BE
092CC:  MOVLW  01
092CE:  MOVLB  3
092D0:  MOVWF  xBF
092D2:  MOVLB  0
092D4:  CALL   46A8
092D8:  MOVLW  22
092DA:  BTFSS  F9E.4
092DC:  BRA    92DA
092DE:  MOVWF  FAD
....................       SendDataDisplay(); 
092E0:  CALL   3542
....................       printf("tdia.txt=\"%02u\"",DiaTx); 
092E4:  MOVLW  AC
092E6:  MOVWF  FF6
092E8:  MOVLW  13
092EA:  MOVWF  FF7
092EC:  MOVLW  00
092EE:  MOVWF  FF8
092F0:  MOVLW  0A
092F2:  MOVLB  3
092F4:  MOVWF  xC1
092F6:  MOVLB  0
092F8:  CALL   464A
092FC:  MOVFF  3B3,3BE
09300:  MOVLW  01
09302:  MOVLB  3
09304:  MOVWF  xBF
09306:  MOVLB  0
09308:  CALL   46A8
0930C:  MOVLW  22
0930E:  BTFSS  F9E.4
09310:  BRA    930E
09312:  MOVWF  FAD
....................       SendDataDisplay(); 
09314:  CALL   3542
....................       printf("tmes.txt=\"%02u\"",MesTx); 
09318:  MOVLW  BC
0931A:  MOVWF  FF6
0931C:  MOVLW  13
0931E:  MOVWF  FF7
09320:  MOVLW  00
09322:  MOVWF  FF8
09324:  MOVLW  0A
09326:  MOVLB  3
09328:  MOVWF  xC1
0932A:  MOVLB  0
0932C:  CALL   464A
09330:  MOVFF  3B2,3BE
09334:  MOVLW  01
09336:  MOVLB  3
09338:  MOVWF  xBF
0933A:  MOVLB  0
0933C:  CALL   46A8
09340:  MOVLW  22
09342:  BTFSS  F9E.4
09344:  BRA    9342
09346:  MOVWF  FAD
....................       SendDataDisplay(); 
09348:  CALL   3542
....................       printf("tyear.txt=\"%02u\"",YearTx); 
0934C:  MOVLW  CC
0934E:  MOVWF  FF6
09350:  MOVLW  13
09352:  MOVWF  FF7
09354:  MOVLW  00
09356:  MOVWF  FF8
09358:  MOVLW  0B
0935A:  MOVLB  3
0935C:  MOVWF  xC1
0935E:  MOVLB  0
09360:  CALL   464A
09364:  MOVFF  3B1,3BE
09368:  MOVLW  01
0936A:  MOVLB  3
0936C:  MOVWF  xBF
0936E:  MOVLB  0
09370:  CALL   46A8
09374:  MOVLW  22
09376:  BTFSS  F9E.4
09378:  BRA    9376
0937A:  MOVWF  FAD
....................       SendDataDisplay(); 
0937C:  CALL   3542
....................       LimitaDia();   
09380:  GOTO   4C3C
09384:  MOVLB  3
....................     } 
.................... //_--------------------------------------------------------------------------------------------------------------------------------------------------------        
....................  
.................... //_--------------------------------------------------------------------------------------------------------------------------------------------------------     
....................    if(Menu==20){ // Este es el menu de cuando el proceso se inicio. 
09386:  MOVF   x74,W
09388:  SUBLW  14
0938A:  BTFSS  FD8.2
0938C:  GOTO   A302
....................    //Lectura_Esclavos(); 
....................     
....................    //Envio_Esclavos(); 
....................    if(CicloSeleccionado==1){ 
09390:  DECFSZ x7A,W
09392:  BRA    93C2
....................       printf("t2f.txt=\"1\""); 
09394:  MOVLW  DE
09396:  MOVWF  FF6
09398:  MOVLW  13
0939A:  MOVWF  FF7
0939C:  MOVLW  00
0939E:  MOVWF  FF8
093A0:  MOVLB  0
093A2:  CALL   3510
....................       SendDataDisplay(); 
093A6:  CALL   3542
....................       printf("t3f.txt=\"PLASTICO\""); 
093AA:  MOVLW  EA
093AC:  MOVWF  FF6
093AE:  MOVLW  13
093B0:  MOVWF  FF7
093B2:  MOVLW  00
093B4:  MOVWF  FF8
093B6:  CALL   3510
....................       SendDataDisplay(); 
093BA:  CALL   3542
....................    }else if(CicloSeleccionado==2){ 
093BE:  BRA    948E
093C0:  MOVLB  3
093C2:  MOVF   x7A,W
093C4:  SUBLW  02
093C6:  BNZ   93F6
....................       printf("t2f.txt=\"2\""); 
093C8:  MOVLW  FE
093CA:  MOVWF  FF6
093CC:  MOVLW  13
093CE:  MOVWF  FF7
093D0:  MOVLW  00
093D2:  MOVWF  FF8
093D4:  MOVLB  0
093D6:  CALL   3510
....................       SendDataDisplay(); 
093DA:  CALL   3542
....................       printf("t3f.txt=\"INSTRUMENTAL\""); 
093DE:  MOVLW  0A
093E0:  MOVWF  FF6
093E2:  MOVLW  14
093E4:  MOVWF  FF7
093E6:  MOVLW  00
093E8:  MOVWF  FF8
093EA:  CALL   3510
....................       SendDataDisplay(); 
093EE:  CALL   3542
....................    }else if(CicloSeleccionado==3){ 
093F2:  BRA    948E
093F4:  MOVLB  3
093F6:  MOVF   x7A,W
093F8:  SUBLW  03
093FA:  BNZ   942A
....................       printf("t2f.txt=\"3\""); 
093FC:  MOVLW  22
093FE:  MOVWF  FF6
09400:  MOVLW  14
09402:  MOVWF  FF7
09404:  MOVLW  00
09406:  MOVWF  FF8
09408:  MOVLB  0
0940A:  CALL   3510
....................       SendDataDisplay(); 
0940E:  CALL   3542
....................       printf("t3f.txt=\"LIQUIDOS A\""); 
09412:  MOVLW  2E
09414:  MOVWF  FF6
09416:  MOVLW  14
09418:  MOVWF  FF7
0941A:  MOVLW  00
0941C:  MOVWF  FF8
0941E:  CALL   3510
....................       SendDataDisplay(); 
09422:  CALL   3542
....................    }else if(CicloSeleccionado==4){ 
09426:  BRA    948E
09428:  MOVLB  3
0942A:  MOVF   x7A,W
0942C:  SUBLW  04
0942E:  BNZ   945E
....................       printf("t2f.txt=\"4\""); 
09430:  MOVLW  44
09432:  MOVWF  FF6
09434:  MOVLW  14
09436:  MOVWF  FF7
09438:  MOVLW  00
0943A:  MOVWF  FF8
0943C:  MOVLB  0
0943E:  CALL   3510
....................       SendDataDisplay(); 
09442:  CALL   3542
....................       printf("t3f.txt=\"TEXTIL\""); 
09446:  MOVLW  50
09448:  MOVWF  FF6
0944A:  MOVLW  14
0944C:  MOVWF  FF7
0944E:  MOVLW  00
09450:  MOVWF  FF8
09452:  CALL   3510
....................       SendDataDisplay(); 
09456:  CALL   3542
....................    }else if(CicloSeleccionado==5){ 
0945A:  BRA    948E
0945C:  MOVLB  3
0945E:  MOVF   x7A,W
09460:  SUBLW  05
09462:  BNZ   9490
....................       printf("t2f.txt=\"5\""); 
09464:  MOVLW  62
09466:  MOVWF  FF6
09468:  MOVLW  14
0946A:  MOVWF  FF7
0946C:  MOVLW  00
0946E:  MOVWF  FF8
09470:  MOVLB  0
09472:  CALL   3510
....................       SendDataDisplay(); 
09476:  CALL   3542
....................       printf("t3f.txt=\"LIBRE\""); 
0947A:  MOVLW  6E
0947C:  MOVWF  FF6
0947E:  MOVLW  14
09480:  MOVWF  FF7
09482:  MOVLW  00
09484:  MOVWF  FF8
09486:  CALL   3510
....................       SendDataDisplay(); 
0948A:  CALL   3542
0948E:  MOVLB  3
....................    } 
....................     
....................    if(RIGHT){ 
09490:  BSF    F93.4
09492:  BTFSC  F81.4
09494:  BRA    94B4
....................       //glcd_init(ON); 
....................       delay_ms(1000); 
09496:  MOVLW  04
09498:  MOVWF  xBD
0949A:  MOVLW  FA
0949C:  MOVWF  xC8
0949E:  MOVLB  0
094A0:  CALL   1C24
094A4:  MOVLB  3
094A6:  DECFSZ xBD,F
094A8:  BRA    949A
....................       flagCalentando=OFF; 
094AA:  MOVLB  0
094AC:  BCF    xCB.3
....................       flagDesfogando=OFF; 
094AE:  BCF    xCB.6
....................       flagEsterilizando=OFF; 
094B0:  BCF    xCB.4
094B2:  MOVLB  3
....................    } 
....................     
....................    if(PresionPreCamara>302 || PresionCamara>255){ 
094B4:  MOVF   x90,W
094B6:  SUBLW  00
094B8:  BC    94C4
094BA:  XORLW  FF
094BC:  BNZ   94CA
094BE:  MOVF   x8F,W
094C0:  SUBLW  2E
094C2:  BNC   94CA
094C4:  MOVF   x8E,W
094C6:  SUBLW  00
094C8:  BC    94CE
....................       AlarmaPresion=ON; 
094CA:  MOVLB  0
094CC:  BSF    xCD.3
....................    } 
....................     
....................    if(TiempoCiclo>1800){ 
094CE:  MOVLB  0
094D0:  MOVF   xD4,W
094D2:  SUBLW  06
094D4:  BC    94F6
094D6:  XORLW  FF
094D8:  BNZ   94E0
094DA:  MOVF   xD3,W
094DC:  SUBLW  08
094DE:  BC    94F6
....................       if(PresionPrecamara<10){ 
094E0:  MOVLB  3
094E2:  MOVF   x90,F
094E4:  BNZ   94F2
094E6:  MOVF   x8F,W
094E8:  SUBLW  09
094EA:  BNC   94F2
....................          AlarmaTiempoProlongado=ON; 
094EC:  MOVLB  0
094EE:  BSF    xC9.0
094F0:  MOVLB  3
....................       } 
....................    }else{ 
094F2:  BRA    94FA
094F4:  MOVLB  0
....................       AlarmaTiempoProlongado=OFF; 
094F6:  BCF    xC9.0
094F8:  MOVLB  3
....................    } 
....................     
....................    if(Temperatura>Setpoint+3.0){ 
094FA:  CLRF   xC9
094FC:  MOVFF  37B,3C8
09500:  MOVLB  0
09502:  CALL   1C4C
09506:  BCF    FD8.1
09508:  MOVFF  03,3CB
0950C:  MOVFF  02,3CA
09510:  MOVFF  01,3C9
09514:  MOVFF  00,3C8
09518:  MOVLB  3
0951A:  CLRF   xCF
0951C:  CLRF   xCE
0951E:  MOVLW  40
09520:  MOVWF  xCD
09522:  MOVLW  80
09524:  MOVWF  xCC
09526:  MOVLB  0
09528:  CALL   1DE0
0952C:  MOVFF  03,3C4
09530:  MOVFF  02,3C3
09534:  MOVFF  01,3C2
09538:  MOVFF  00,3C1
0953C:  MOVFF  356,3C8
09540:  MOVFF  355,3C7
09544:  MOVFF  354,3C6
09548:  MOVFF  353,3C5
0954C:  CALL   295E
09550:  BNC   9554
....................       AlarmaSobreTemperatura=ON; 
09552:  BSF    xC9.1
....................    } 
....................     
....................    if(TiempoLlenado>600){ 
09554:  MOVF   xD6,W
09556:  SUBLW  01
09558:  BC    9568
0955A:  XORLW  FF
0955C:  BNZ   9564
0955E:  MOVF   xD5,W
09560:  SUBLW  58
09562:  BC    9568
....................       AlarmaLlenado=ON; 
09564:  BSF    xC9.2
....................    }else{ 
09566:  BRA    956A
....................       AlarmaLlenado=OFF; 
09568:  BCF    xC9.2
....................    } 
....................     
....................    if(!TERM){ 
0956A:  BSF    F93.0
0956C:  BTFSS  F81.0
0956E:  BRA    9572
....................       AlarmaTermostato=ON; 
09570:  BSF    xC9.3
....................    } 
....................     
....................    if(!DOOR || !PRES){ 
09572:  BSF    F93.2
09574:  BTFSC  F81.2
09576:  BRA    957E
09578:  BSF    F92.4
0957A:  BTFSS  F80.4
0957C:  BRA    958C
....................       //Desfogue_off; 
....................       //Solenoide_off; 
....................       Paso_off; 
0957E:  BSF    F8C.3
09580:  BCF    F95.3
....................       if(!Secando && !Finalizo){ 
09582:  BTFSC  xCA.2
09584:  BRA    958C
09586:  BTFSC  xCD.2
09588:  BRA    958C
....................          AlarmaPuerta=ON; 
0958A:  BSF    xC9.4
....................       } 
....................    }//else{ 
....................    //   AlarmaPuerta=OFF; 
....................    //} 
....................  
....................    if(!STOP){ 
0958C:  BSF    F93.1
0958E:  BTFSS  F81.1
09590:  BRA    9594
....................       AlarmaEmergencia=ON; 
09592:  BSF    xC9.5
....................    } 
....................     
....................    if(AlarmaPuerta || AlarmaTermostato || AlarmaLlenado || AlarmaSobreTemperatura || AlarmaTiempoProlongado || AlarmaEmergencia || AlarmaPresion){ 
09594:  BTFSC  xC9.4
09596:  BRA    95B0
09598:  BTFSC  xC9.3
0959A:  BRA    95B0
0959C:  BTFSC  xC9.2
0959E:  BRA    95B0
095A0:  BTFSC  xC9.1
095A2:  BRA    95B0
095A4:  BTFSC  xC9.0
095A6:  BRA    95B0
095A8:  BTFSC  xC9.5
095AA:  BRA    95B0
095AC:  BTFSS  xCD.3
095AE:  BRA    983E
....................       ActivaAlarma(2); 
095B0:  MOVLW  02
095B2:  MOVLB  3
095B4:  MOVWF  xBD
095B6:  MOVLB  0
095B8:  CALL   454E
....................       if(RX_Buffer[4]==0x22){ 
095BC:  MOVF   34,W
095BE:  SUBLW  22
095C0:  BNZ   9610
....................          if(PRES && PresionCamara<2){//Si puerta del lado esteril esta cerrada 
095C2:  BSF    F92.4
095C4:  BTFSC  F80.4
095C6:  BRA    9610
095C8:  MOVLB  3
095CA:  MOVF   x8E,F
095CC:  BTFSC  FD8.2
095CE:  BRA    95D4
095D0:  MOVLB  0
095D2:  BRA    9610
095D4:  MOVF   x8D,W
095D6:  SUBLW  01
095D8:  BTFSC  FD8.0
095DA:  BRA    95E0
095DC:  MOVLB  0
095DE:  BRA    9610
....................             if(!flagc){ 
095E0:  MOVLB  0
095E2:  BTFSC  xCD.6
095E4:  BRA    9610
....................                Solenoide_on; 
095E6:  BSF    F8C.0
095E8:  BCF    F95.0
....................                Buzzer_on; 
095EA:  BSF    F8B.5
095EC:  BCF    F94.5
....................                delay_ms(5000); 
095EE:  MOVLW  14
095F0:  MOVLB  3
095F2:  MOVWF  xBD
095F4:  MOVLW  FA
095F6:  MOVWF  xC8
095F8:  MOVLB  0
095FA:  CALL   1C24
095FE:  MOVLB  3
09600:  DECFSZ xBD,F
09602:  BRA    95F4
....................                Solenoide_off; 
09604:  BCF    F8C.0
09606:  BCF    F95.0
....................                Buzzer_off; 
09608:  BCF    F8B.5
0960A:  BCF    F94.5
....................                flagc=ON; 
0960C:  MOVLB  0
0960E:  BSF    xCD.6
....................             }   
....................          } 
....................       } 
....................       if(AlarmaEmergencia) 
09610:  BTFSS  xC9.5
09612:  BRA    965E
....................       { 
....................          printf("Funcionamiento.t4f.txt=\" Parada de Emergencia\""); 
09614:  MOVLW  7E
09616:  MOVWF  FF6
09618:  MOVLW  14
0961A:  MOVWF  FF7
0961C:  MOVLW  00
0961E:  MOVWF  FF8
09620:  CALL   3510
....................          SendDataDisplay(); 
09624:  CALL   3542
....................          printf("Funcionamiento.t5f.txt=\" Cancelado\""); 
09628:  MOVLW  AE
0962A:  MOVWF  FF6
0962C:  MOVLW  14
0962E:  MOVWF  FF7
09630:  MOVLW  00
09632:  MOVWF  FF8
09634:  CALL   3510
....................          SendDataDisplay(); 
09638:  CALL   3542
....................          Desfogue_on; 
0963C:  BCF    F8C.2
0963E:  BCF    F95.2
....................          AguaIn_off; 
09640:  BSF    F8C.4
09642:  BCF    F95.4
....................          SSR_off; 
09644:  BSF    F8B.1
09646:  BCF    F94.1
....................          Paso_off; 
09648:  BSF    F8C.3
0964A:  BCF    F95.3
....................          Esterilizando=OFF; 
0964C:  BCF    xCA.1
....................          Desfogando=OFF; 
0964E:  BCF    xCA.4
....................          DesfogueSuave=OFF; 
09650:  BCF    xCA.5
....................          //IniciaCiclo=OFF; 
....................          Controlando=0; 
09652:  MOVLB  3
09654:  CLRF   x6B
....................          Alarma=1; 
09656:  MOVLW  01
09658:  MOVWF  x73
....................       }else{ 
0965A:  BRA    983A
0965C:  MOVLB  0
....................          if(AlarmaPuerta) 
0965E:  BTFSS  xC9.4
09660:  BRA    96AA
....................          { 
....................             printf("Funcionamiento.t4f.txt=\" Puerta Abierta\""); 
09662:  MOVLW  D2
09664:  MOVWF  FF6
09666:  MOVLW  14
09668:  MOVWF  FF7
0966A:  MOVLW  00
0966C:  MOVWF  FF8
0966E:  CALL   3510
....................             SendDataDisplay(); 
09672:  CALL   3542
....................             printf("Funcionamiento.t5f.txt=\" Cancelado\""); 
09676:  MOVLW  FC
09678:  MOVWF  FF6
0967A:  MOVLW  14
0967C:  MOVWF  FF7
0967E:  MOVLW  00
09680:  MOVWF  FF8
09682:  CALL   3510
....................             SendDataDisplay(); 
09686:  CALL   3542
....................             SSR_off; 
0968A:  BSF    F8B.1
0968C:  BCF    F94.1
....................             Paso_off; 
0968E:  BSF    F8C.3
09690:  BCF    F95.3
....................             Desfogue_on; 
09692:  BCF    F8C.2
09694:  BCF    F95.2
....................             IniciaLlenado=OFF; 
09696:  BCF    xC9.6
....................             IniciaCiclo=OFF; 
09698:  BCF    xCA.0
....................             Controlando=0; 
0969A:  MOVLB  3
0969C:  CLRF   x6B
....................             Solenoide_off; 
0969E:  BCF    F8C.0
096A0:  BCF    F95.0
....................             Alarma=2; 
096A2:  MOVLW  02
096A4:  MOVWF  x73
....................          }else{ 
096A6:  BRA    983A
096A8:  MOVLB  0
....................             if(AlarmaLlenado) 
096AA:  BTFSS  xC9.2
096AC:  BRA    96F2
....................             { 
....................                printf("Funcionamiento.t4f.txt=\" Tiempo Llenado\""); 
096AE:  MOVLW  20
096B0:  MOVWF  FF6
096B2:  MOVLW  15
096B4:  MOVWF  FF7
096B6:  MOVLW  00
096B8:  MOVWF  FF8
096BA:  CALL   3510
....................                SendDataDisplay(); 
096BE:  CALL   3542
....................                printf("Funcionamiento.t5f.txt=\" Cancelado\""); 
096C2:  MOVLW  4A
096C4:  MOVWF  FF6
096C6:  MOVLW  15
096C8:  MOVWF  FF7
096CA:  MOVLW  00
096CC:  MOVWF  FF8
096CE:  CALL   3510
....................                SendDataDisplay(); 
096D2:  CALL   3542
....................                Desfogue_off; 
096D6:  BSF    F8C.2
096D8:  BCF    F95.2
....................                AguaIn_off; 
096DA:  BSF    F8C.4
096DC:  BCF    F95.4
....................                SSR_off; 
096DE:  BSF    F8B.1
096E0:  BCF    F94.1
....................                Paso_off; 
096E2:  BSF    F8C.3
096E4:  BCF    F95.3
....................                Controlando=0; 
096E6:  MOVLB  3
096E8:  CLRF   x6B
....................                Alarma=3; 
096EA:  MOVLW  03
096EC:  MOVWF  x73
....................             }else{ 
096EE:  BRA    983A
096F0:  MOVLB  0
....................                if(AlarmaTermostato) // Alarma de Termostato 
096F2:  BTFSS  xC9.3
096F4:  BRA    9748
....................                { 
....................                   tiempo_esterilizacion=0;tiempo_secado=0;          
096F6:  MOVLB  3
096F8:  CLRF   x7E
096FA:  CLRF   x7F
....................                   printf("Funcionamiento.t4f.txt=\" Termostato\""); 
096FC:  MOVLW  6E
096FE:  MOVWF  FF6
09700:  MOVLW  15
09702:  MOVWF  FF7
09704:  MOVLW  00
09706:  MOVWF  FF8
09708:  MOVLB  0
0970A:  CALL   3510
....................                   SendDataDisplay(); 
0970E:  CALL   3542
....................                   printf("Funcionamiento.t5f.txt=\" Cancelado\""); 
09712:  MOVLW  94
09714:  MOVWF  FF6
09716:  MOVLW  15
09718:  MOVWF  FF7
0971A:  MOVLW  00
0971C:  MOVWF  FF8
0971E:  CALL   3510
....................                   SendDataDisplay(); 
09722:  CALL   3542
....................                   Desfogue_on; 
09726:  BCF    F8C.2
09728:  BCF    F95.2
....................                   AguaIn_off; 
0972A:  BSF    F8C.4
0972C:  BCF    F95.4
....................                   SSR_off; 
0972E:  BSF    F8B.1
09730:  BCF    F94.1
....................                   Paso_off; 
09732:  BSF    F8C.3
09734:  BCF    F95.3
....................                   Esterilizando=OFF; 
09736:  BCF    xCA.1
....................                   Desfogando=OFF; 
09738:  BCF    xCA.4
....................                   IniciaCiclo=OFF; 
0973A:  BCF    xCA.0
....................                   Controlando=0; 
0973C:  MOVLB  3
0973E:  CLRF   x6B
....................                   Alarma=4; 
09740:  MOVLW  04
09742:  MOVWF  x73
....................                }else{ 
09744:  BRA    983A
09746:  MOVLB  0
....................                   if(AlarmaSobreTemperatura) // Alarma de Sobre Temperatura 
09748:  BTFSS  xC9.1
0974A:  BRA    9798
....................                   { 
....................                      tiempo_esterilizacion=0;tiempo_secado=0;          
0974C:  MOVLB  3
0974E:  CLRF   x7E
09750:  CLRF   x7F
....................                      printf("Funcionamiento.t4f.txt=\" Sobretemperatura\""); 
09752:  MOVLW  B8
09754:  MOVWF  FF6
09756:  MOVLW  15
09758:  MOVWF  FF7
0975A:  MOVLW  00
0975C:  MOVWF  FF8
0975E:  MOVLB  0
09760:  CALL   3510
....................                      SendDataDisplay(); 
09764:  CALL   3542
....................                      printf("Funcionamiento.t5f.txt=\" Cancelado\""); 
09768:  MOVLW  E4
0976A:  MOVWF  FF6
0976C:  MOVLW  15
0976E:  MOVWF  FF7
09770:  MOVLW  00
09772:  MOVWF  FF8
09774:  CALL   3510
....................                      SendDataDisplay();   
09778:  CALL   3542
....................                      Desfogue_on; 
0977C:  BCF    F8C.2
0977E:  BCF    F95.2
....................                      SSR_off; 
09780:  BSF    F8B.1
09782:  BCF    F94.1
....................                      Paso_off; 
09784:  BSF    F8C.3
09786:  BCF    F95.3
....................                      Controlando=0; 
09788:  MOVLB  3
0978A:  CLRF   x6B
....................                      AguaIn_off; 
0978C:  BSF    F8C.4
0978E:  BCF    F95.4
....................                      Alarma=5; 
09790:  MOVLW  05
09792:  MOVWF  x73
....................                   }else{ 
09794:  BRA    983A
09796:  MOVLB  0
....................                      if(AlarmaTiempoProlongado) // Alarma de Error de Tiempo: Error por exceso de tiempo de calentamiento. 
09798:  BTFSS  xC9.0
0979A:  BRA    97E0
....................                      { 
....................                         printf("Funcionamiento.t4f.txt=\" Tiempo Prolongado\""); 
0979C:  MOVLW  08
0979E:  MOVWF  FF6
097A0:  MOVLW  16
097A2:  MOVWF  FF7
097A4:  MOVLW  00
097A6:  MOVWF  FF8
097A8:  CALL   3510
....................                         SendDataDisplay(); 
097AC:  CALL   3542
....................                         printf("Funcionamiento.t5f.txt=\" Cancelado\""); 
097B0:  MOVLW  34
097B2:  MOVWF  FF6
097B4:  MOVLW  16
097B6:  MOVWF  FF7
097B8:  MOVLW  00
097BA:  MOVWF  FF8
097BC:  CALL   3510
....................                         SendDataDisplay(); 
097C0:  CALL   3542
....................                         Desfogue_on; 
097C4:  BCF    F8C.2
097C6:  BCF    F95.2
....................                         AguaIn_off; 
097C8:  BSF    F8C.4
097CA:  BCF    F95.4
....................                         SSR_off; 
097CC:  BSF    F8B.1
097CE:  BCF    F94.1
....................                         Paso_off; 
097D0:  BSF    F8C.3
097D2:  BCF    F95.3
....................                         Controlando=0; 
097D4:  MOVLB  3
097D6:  CLRF   x6B
....................                         Alarma=6; 
097D8:  MOVLW  06
097DA:  MOVWF  x73
....................                      }else{ 
097DC:  BRA    983A
097DE:  MOVLB  0
....................                         if(AlarmaPresion) // Alarma de Error de SobrePresion: Error por exceso de Presion. 
097E0:  BTFSS  xCD.3
097E2:  BRA    983C
....................                         { 
....................                            printf("Funcionamiento.t4f.txt=\" SobrePresin\""); 
097E4:  MOVLW  58
097E6:  MOVWF  FF6
097E8:  MOVLW  16
097EA:  MOVWF  FF7
097EC:  MOVLW  00
097EE:  MOVWF  FF8
097F0:  CALL   3510
....................                            SendDataDisplay(); 
097F4:  CALL   3542
....................                            printf("Funcionamiento.t5f.txt=\" Cancelado\""); 
097F8:  MOVLW  80
097FA:  MOVWF  FF6
097FC:  MOVLW  16
097FE:  MOVWF  FF7
09800:  MOVLW  00
09802:  MOVWF  FF8
09804:  CALL   3510
....................                            SendDataDisplay(); 
09808:  CALL   3542
....................                            Desfogue_on; 
0980C:  BCF    F8C.2
0980E:  BCF    F95.2
....................                            AguaIn_off; 
09810:  BSF    F8C.4
09812:  BCF    F95.4
....................                            SSR_off; 
09814:  BSF    F8B.1
09816:  BCF    F94.1
....................                            if(PresionPreCamara>20 && DOOR) 
09818:  MOVLB  3
0981A:  MOVF   x90,F
0981C:  BNZ   9824
0981E:  MOVF   x8F,W
09820:  SUBLW  14
09822:  BC    9830
09824:  BSF    F93.2
09826:  BTFSC  F81.2
09828:  BRA    9830
....................                               Paso_on; 
0982A:  BCF    F8C.3
0982C:  BCF    F95.3
....................                            else 
0982E:  BRA    9834
....................                               Paso_off; 
09830:  BSF    F8C.3
09832:  BCF    F95.3
....................                            Controlando=0; 
09834:  CLRF   x6B
....................                            Alarma=7; 
09836:  MOVLW  07
09838:  MOVWF  x73
0983A:  MOVLB  0
....................                         } 
....................                      } 
....................                   } 
....................                } 
....................             } 
....................          } 
....................       } 
....................    } 
....................    else 
0983C:  BRA    9F92
....................    {   
....................       if(TTrampa>100){ 
0983E:  MOVLB  3
09840:  MOVF   x12,W
09842:  SUBLW  64
09844:  BC    984A
....................          TTrampa=100; 
09846:  MOVLW  64
09848:  MOVWF  x12
....................       } 
....................       Buzzer_off; 
0984A:  BCF    F8B.5
0984C:  BCF    F94.5
....................       IniciaCiclo=ON; 
0984E:  MOVLB  0
09850:  BSF    xCA.0
....................       if(flagImprime && ActivaImpresion==1){ 
09852:  BTFSS  xCE.7
09854:  BRA    9882
09856:  MOVLB  3
09858:  DECFSZ x6C,W
0985A:  BRA    985E
0985C:  BRA    9862
0985E:  MOVLB  0
09860:  BRA    9882
....................          Imprime=5; 
09862:  MOVLW  05
09864:  MOVWF  xB8
....................          Envio_Esclavos(); 
09866:  MOVLB  0
09868:  CALL   4014
....................          delay_ms(100); 
0986C:  MOVLW  64
0986E:  MOVLB  3
09870:  MOVWF  xC8
09872:  MOVLB  0
09874:  CALL   1C24
....................          Imprime=10; 
09878:  MOVLW  0A
0987A:  MOVLB  3
0987C:  MOVWF  xB8
....................          flagImprime=0; 
0987E:  MOVLB  0
09880:  BCF    xCE.7
....................       } 
....................          if(!CalderinLleno){ 
09882:  BTFSC  xC9.7
09884:  BRA    9914
....................             printf("Funcionamiento.t4f.txt=\" Ninguna\""); 
09886:  MOVLW  A4
09888:  MOVWF  FF6
0988A:  MOVLW  16
0988C:  MOVWF  FF7
0988E:  MOVLW  00
09890:  MOVWF  FF8
09892:  CALL   3510
....................             SendDataDisplay(); 
09896:  CALL   3542
....................             printf("Funcionamiento.t5f.txt=\" Llenando\""); 
0989A:  MOVLW  C6
0989C:  MOVWF  FF6
0989E:  MOVLW  16
098A0:  MOVWF  FF7
098A2:  MOVLW  00
098A4:  MOVWF  FF8
098A6:  CALL   3510
....................             SendDataDisplay(); 
098AA:  CALL   3542
....................             Alarma=20; 
098AE:  MOVLW  14
098B0:  MOVLB  3
098B2:  MOVWF  x73
....................             Control=0; 
098B4:  CLRF   x69
....................             flagAgua=ON; 
098B6:  MOVLB  0
098B8:  BSF    xCB.5
....................             IniciaLlenado=ON; 
098BA:  BSF    xC9.6
....................             Controlando=0; 
098BC:  MOVLB  3
098BE:  CLRF   x6B
....................             Desfogue_on; 
098C0:  BCF    F8C.2
098C2:  BCF    F95.2
....................             Paso_off; 
098C4:  BSF    F8C.3
098C6:  BCF    F95.3
....................             esterilizo=10; 
098C8:  MOVLW  0A
098CA:  MOVLB  0
098CC:  MOVWF  xD1
....................             if(!guarda){ 
098CE:  BTFSC  xCD.7
098D0:  BRA    990E
....................                write_eeprom(48,esterilizo); 
098D2:  CLRF   FAA
098D4:  MOVLW  30
098D6:  MOVWF  FA9
098D8:  MOVFF  D1,FA8
098DC:  BCF    FA6.6
098DE:  BCF    FA6.7
098E0:  BSF    FA6.2
098E2:  MOVF   FF2,W
098E4:  MOVWF  00
098E6:  BCF    FF2.6
098E8:  BCF    FF2.7
098EA:  MOVLB  F
098EC:  MOVLW  55
098EE:  MOVWF  FA7
098F0:  MOVLW  AA
098F2:  MOVWF  FA7
098F4:  BSF    FA6.1
098F6:  BTFSC  FA6.1
098F8:  BRA    98F6
098FA:  BCF    FA6.2
098FC:  MOVF   00,W
098FE:  IORWF  FF2,F
....................                delay_ms(20); 
09900:  MOVLW  14
09902:  MOVLB  3
09904:  MOVWF  xC8
09906:  MOVLB  0
09908:  CALL   1C24
....................                guarda=ON; 
0990C:  BSF    xCD.7
....................             } 
....................             AguaIn_on; 
0990E:  BCF    F8C.4
09910:  BCF    F95.4
....................             /*if(tValveAgua<=400) 
....................                AguaIn_on; 
....................             else if(tValveAgua>400 && tValveAgua<600){    
....................                AguaIn_off; 
....................                tValveAgua=0; 
....................             }else if(tValveAgua>=600){ 
....................                AguaIn_off; 
....................                tValveAgua=0; 
....................             }*/ 
....................          } 
....................          else{ 
09912:  BRA    9F92
....................             AguaIn_off; 
09914:  BSF    F8C.4
09916:  BCF    F95.4
....................             flagAgua=OFF; 
09918:  BCF    xCB.5
....................             tValveAgua=0; 
0991A:  CLRF   xDE
0991C:  CLRF   xDD
....................             if(Temperatura>=((float)Setpoint-0.3)){ 
0991E:  MOVLB  3
09920:  CLRF   xC9
09922:  MOVFF  37B,3C8
09926:  MOVLB  0
09928:  CALL   1C4C
0992C:  MOVFF  00,3BD
09930:  MOVFF  01,3BE
09934:  MOVFF  02,3BF
09938:  MOVFF  03,3C0
0993C:  BSF    FD8.1
0993E:  MOVFF  03,3CB
09942:  MOVFF  02,3CA
09946:  MOVFF  01,3C9
0994A:  MOVFF  00,3C8
0994E:  MOVLW  9A
09950:  MOVLB  3
09952:  MOVWF  xCF
09954:  MOVLW  99
09956:  MOVWF  xCE
09958:  MOVLW  19
0995A:  MOVWF  xCD
0995C:  MOVLW  7D
0995E:  MOVWF  xCC
09960:  MOVLB  0
09962:  CALL   1DE0
09966:  MOVFF  03,3C4
0996A:  MOVFF  02,3C3
0996E:  MOVFF  01,3C2
09972:  MOVFF  00,3C1
09976:  MOVFF  356,3C8
0997A:  MOVFF  355,3C7
0997E:  MOVFF  354,3C6
09982:  MOVFF  353,3C5
09986:  CALL   295E
0998A:  BC    998E
0998C:  BNZ   9990
....................                Esterilizando=ON; 
0998E:  BSF    xCA.1
....................             } 
....................              
....................             if(Temperatura<((float)Setpoint-0.9) && !Desfogando){ 
09990:  MOVLB  3
09992:  CLRF   xC9
09994:  MOVFF  37B,3C8
09998:  MOVLB  0
0999A:  CALL   1C4C
0999E:  MOVFF  00,3BD
099A2:  MOVFF  01,3BE
099A6:  MOVFF  02,3BF
099AA:  MOVFF  03,3C0
099AE:  BSF    FD8.1
099B0:  MOVFF  03,3CB
099B4:  MOVFF  02,3CA
099B8:  MOVFF  01,3C9
099BC:  MOVFF  00,3C8
099C0:  MOVLW  66
099C2:  MOVLB  3
099C4:  MOVWF  xCF
099C6:  MOVWF  xCE
099C8:  MOVWF  xCD
099CA:  MOVLW  7E
099CC:  MOVWF  xCC
099CE:  MOVLB  0
099D0:  CALL   1DE0
099D4:  MOVFF  356,3C4
099D8:  MOVFF  355,3C3
099DC:  MOVFF  354,3C2
099E0:  MOVFF  353,3C1
099E4:  MOVFF  03,3C8
099E8:  MOVFF  02,3C7
099EC:  MOVFF  01,3C6
099F0:  MOVFF  00,3C5
099F4:  CALL   295E
099F8:  BNC   9A00
099FA:  BTFSC  xCA.4
099FC:  BRA    9A00
....................                Esterilizando=OFF; 
099FE:  BCF    xCA.1
....................             } 
....................              
....................             if(!Esterilizando){ 
09A00:  BTFSC  xCA.1
09A02:  BRA    9AF2
....................                esterilizo=10; 
09A04:  MOVLW  0A
09A06:  MOVWF  xD1
....................                if(!guarda){ 
09A08:  BTFSC  xCD.7
09A0A:  BRA    9A48
....................                   write_eeprom(48,esterilizo); 
09A0C:  CLRF   FAA
09A0E:  MOVLW  30
09A10:  MOVWF  FA9
09A12:  MOVFF  D1,FA8
09A16:  BCF    FA6.6
09A18:  BCF    FA6.7
09A1A:  BSF    FA6.2
09A1C:  MOVF   FF2,W
09A1E:  MOVWF  00
09A20:  BCF    FF2.6
09A22:  BCF    FF2.7
09A24:  MOVLB  F
09A26:  MOVLW  55
09A28:  MOVWF  FA7
09A2A:  MOVLW  AA
09A2C:  MOVWF  FA7
09A2E:  BSF    FA6.1
09A30:  BTFSC  FA6.1
09A32:  BRA    9A30
09A34:  BCF    FA6.2
09A36:  MOVF   00,W
09A38:  IORWF  FF2,F
....................                   delay_ms(20); 
09A3A:  MOVLW  14
09A3C:  MOVLB  3
09A3E:  MOVWF  xC8
09A40:  MOVLB  0
09A42:  CALL   1C24
....................                   guarda=ON; 
09A46:  BSF    xCD.7
....................                } 
....................                printf("Funcionamiento.t4f.txt=\" Ninguna\""); 
09A48:  MOVLW  EA
09A4A:  MOVWF  FF6
09A4C:  MOVLW  16
09A4E:  MOVWF  FF7
09A50:  MOVLW  00
09A52:  MOVWF  FF8
09A54:  CALL   3510
....................                SendDataDisplay(); 
09A58:  CALL   3542
....................                printf("Funcionamiento.t5f.txt=\" Calentando\""); 
09A5C:  MOVLW  0C
09A5E:  MOVWF  FF6
09A60:  MOVLW  17
09A62:  MOVWF  FF7
09A64:  MOVLW  00
09A66:  MOVWF  FF8
09A68:  CALL   3510
....................                SendDataDisplay(); 
09A6C:  CALL   3542
....................                Alarma=21; 
09A70:  MOVLW  15
09A72:  MOVLB  3
09A74:  MOVWF  x73
....................                Control=1; 
09A76:  MOVLW  01
09A78:  MOVWF  x69
....................                Controla(); 
09A7A:  MOVLB  0
09A7C:  CALL   4D3E
....................                if(PresionPreCamara>150){ 
09A80:  MOVLB  3
09A82:  MOVF   x90,F
09A84:  BNZ   9A8C
09A86:  MOVF   x8F,W
09A88:  SUBLW  96
09A8A:  BC    9A90
....................                   Paso_on; 
09A8C:  BCF    F8C.3
09A8E:  BCF    F95.3
....................                } 
....................                if(Temperatura<=TTrampa){ 
09A90:  CLRF   xC9
09A92:  MOVFF  312,3C8
09A96:  MOVLB  0
09A98:  CALL   1C4C
09A9C:  MOVFF  356,3C4
09AA0:  MOVFF  355,3C3
09AA4:  MOVFF  354,3C2
09AA8:  MOVFF  353,3C1
09AAC:  MOVFF  03,3C8
09AB0:  MOVFF  02,3C7
09AB4:  MOVFF  01,3C6
09AB8:  MOVFF  00,3C5
09ABC:  CALL   295E
09AC0:  BC    9AC4
09AC2:  BNZ   9AE8
....................                   if(PresionCamara>5){ 
09AC4:  MOVLB  3
09AC6:  MOVF   x8E,F
09AC8:  BNZ   9AD0
09ACA:  MOVF   x8D,W
09ACC:  SUBLW  05
09ACE:  BC    9AD6
....................                      Desfogue_on; 
09AD0:  BCF    F8C.2
09AD2:  BCF    F95.2
....................                   }else if(PresionCamara<3){ 
09AD4:  BRA    9AE4
09AD6:  MOVF   x8E,F
09AD8:  BNZ   9AE4
09ADA:  MOVF   x8D,W
09ADC:  SUBLW  02
09ADE:  BNC   9AE4
....................                      Desfogue_off; 
09AE0:  BSF    F8C.2
09AE2:  BCF    F95.2
....................                   } 
....................                }else{ 
09AE4:  BRA    9AEE
09AE6:  MOVLB  0
....................                   Desfogue_off; 
09AE8:  BSF    F8C.2
09AEA:  BCF    F95.2
09AEC:  MOVLB  3
....................                } 
....................             }else{ 
09AEE:  BRA    9F94
09AF0:  MOVLB  0
....................                if((Testerilizacion[0]==0)&&(Testerilizacion[1]==0)&& 
....................                (Testerilizacion[2]==0)&&(Testerilizacion[3]==0)){  
09AF2:  MOVF   xE1,F
09AF4:  BTFSS  FD8.2
09AF6:  BRA    9F56
09AF8:  MOVF   xE2,F
09AFA:  BTFSS  FD8.2
09AFC:  BRA    9F56
09AFE:  MOVF   xE3,F
09B00:  BTFSS  FD8.2
09B02:  BRA    9F56
09B04:  MOVF   xE4,F
09B06:  BTFSS  FD8.2
09B08:  BRA    9F56
....................                   if(desfoguelento){ 
09B0A:  BTFSS  xCE.2
09B0C:  BRA    9D0C
....................                      Controlando=0; 
09B0E:  MOVLB  3
09B10:  CLRF   x6B
....................                      if(PresionCamara<25){ 
09B12:  MOVF   x8E,F
09B14:  BTFSS  FD8.2
09B16:  BRA    9CCA
09B18:  MOVF   x8D,W
09B1A:  SUBLW  18
09B1C:  BTFSS  FD8.0
09B1E:  BRA    9CCA
....................                         Secando=OFF; 
09B20:  MOVLB  0
09B22:  BCF    xCA.2
....................                         DesfogueSuave=OFF; 
09B24:  BCF    xCA.5
....................                         Paso_off; 
09B26:  BSF    F8C.3
09B28:  BCF    F95.3
....................                         if(!DOOR || !PRES){ 
09B2A:  BSF    F93.2
09B2C:  BTFSC  F81.2
09B2E:  BRA    9B36
09B30:  BSF    F92.4
09B32:  BTFSS  F80.4
09B34:  BRA    9B48
....................                            Desfogue_off; 
09B36:  BSF    F8C.2
09B38:  BCF    F95.2
....................                            Solenoide_off; 
09B3A:  BCF    F8C.0
09B3C:  BCF    F95.0
....................                            Solenoide2_off; 
09B3E:  BCF    F8C.1
09B40:  BCF    F95.1
....................                            Paso_off; 
09B42:  BSF    F8C.3
09B44:  BCF    F95.3
....................                         }else{ 
09B46:  BRA    9B58
....................                            Desfogue_on; 
09B48:  BCF    F8C.2
09B4A:  BCF    F95.2
....................                            Solenoide_off; 
09B4C:  BCF    F8C.0
09B4E:  BCF    F95.0
....................                            Solenoide2_off; 
09B50:  BCF    F8C.1
09B52:  BCF    F95.1
....................                            Paso_off; 
09B54:  BSF    F8C.3
09B56:  BCF    F95.3
....................                         } 
....................                         if(PresionCamara<2){ 
09B58:  MOVLB  3
09B5A:  MOVF   x8E,F
09B5C:  BTFSS  FD8.2
09B5E:  BRA    9CC4
09B60:  MOVF   x8D,W
09B62:  SUBLW  01
09B64:  BTFSS  FD8.0
09B66:  BRA    9CC4
....................                            if(AbreEsteril==5){ 
09B68:  MOVLB  0
09B6A:  MOVF   xD2,W
09B6C:  SUBLW  05
09B6E:  BNZ   9B98
....................                               Solenoide2_on; 
09B70:  BSF    F8C.1
09B72:  BCF    F95.1
....................                               Buzzer_on; 
09B74:  BSF    F8B.5
09B76:  BCF    F94.5
....................                               delay_ms(5000); 
09B78:  MOVLW  14
09B7A:  MOVLB  3
09B7C:  MOVWF  xBD
09B7E:  MOVLW  FA
09B80:  MOVWF  xC8
09B82:  MOVLB  0
09B84:  CALL   1C24
09B88:  MOVLB  3
09B8A:  DECFSZ xBD,F
09B8C:  BRA    9B7E
....................                               Solenoide2_off; 
09B8E:  BCF    F8C.1
09B90:  BCF    F95.1
....................                               Buzzer_off; 
09B92:  BCF    F8B.5
09B94:  BCF    F94.5
09B96:  MOVLB  0
....................                            } 
....................                            esterilizo=5; 
09B98:  MOVLW  05
09B9A:  MOVWF  xD1
....................                            ActivaAlarma(2); 
09B9C:  MOVLW  02
09B9E:  MOVLB  3
09BA0:  MOVWF  xBD
09BA2:  MOVLB  0
09BA4:  CALL   454E
....................                            printf("Funcionamiento.t4f.txt=\" No abra puerta\""); 
09BA8:  MOVLW  32
09BAA:  MOVWF  FF6
09BAC:  MOVLW  17
09BAE:  MOVWF  FF7
09BB0:  MOVLW  00
09BB2:  MOVWF  FF8
09BB4:  CALL   3510
....................                            SendDataDisplay(); 
09BB8:  CALL   3542
....................                            printf("Funcionamiento.t5f.txt=\" Finalizado\""); 
09BBC:  MOVLW  5C
09BBE:  MOVWF  FF6
09BC0:  MOVLW  17
09BC2:  MOVWF  FF7
09BC4:  MOVLW  00
09BC6:  MOVWF  FF8
09BC8:  CALL   3510
....................                            SendDataDisplay(); 
09BCC:  CALL   3542
....................                            Alarma=23; 
09BD0:  MOVLW  17
09BD2:  MOVLB  3
09BD4:  MOVWF  x73
....................                            Finalizo=ON; 
09BD6:  MOVLB  0
09BD8:  BSF    xCD.2
....................                            TiempoCiclo=0; 
09BDA:  CLRF   xD4
09BDC:  CLRF   xD3
....................                            if(!Ciclo){ 
09BDE:  BTFSC  xCB.2
09BE0:  BRA    9CC6
....................                               Ciclo=ON; 
09BE2:  BSF    xCB.2
....................                               Ciclos++; 
09BE4:  MOVLB  3
09BE6:  INCF   x91,F
09BE8:  BTFSC  FD8.2
09BEA:  INCF   x92,F
....................                               CiclosL=make8(Ciclos,0); 
09BEC:  MOVFF  391,378
....................                               CiclosH=make8(Ciclos,1); 
09BF0:  MOVFF  392,379
....................                               write_eeprom(37,CiclosL); 
09BF4:  CLRF   FAA
09BF6:  MOVLW  25
09BF8:  MOVWF  FA9
09BFA:  MOVFF  378,FA8
09BFE:  BCF    FA6.6
09C00:  BCF    FA6.7
09C02:  BSF    FA6.2
09C04:  MOVF   FF2,W
09C06:  MOVWF  00
09C08:  BCF    FF2.6
09C0A:  BCF    FF2.7
09C0C:  MOVLB  F
09C0E:  MOVLW  55
09C10:  MOVWF  FA7
09C12:  MOVLW  AA
09C14:  MOVWF  FA7
09C16:  BSF    FA6.1
09C18:  BTFSC  FA6.1
09C1A:  BRA    9C18
09C1C:  BCF    FA6.2
09C1E:  MOVF   00,W
09C20:  IORWF  FF2,F
....................                               delay_ms(20); 
09C22:  MOVLW  14
09C24:  MOVLB  3
09C26:  MOVWF  xC8
09C28:  MOVLB  0
09C2A:  CALL   1C24
....................                               write_eeprom(38,CiclosH); 
09C2E:  CLRF   FAA
09C30:  MOVLW  26
09C32:  MOVWF  FA9
09C34:  MOVFF  379,FA8
09C38:  BCF    FA6.6
09C3A:  BCF    FA6.7
09C3C:  BSF    FA6.2
09C3E:  MOVF   FF2,W
09C40:  MOVWF  00
09C42:  BCF    FF2.6
09C44:  BCF    FF2.7
09C46:  MOVLB  F
09C48:  MOVLW  55
09C4A:  MOVWF  FA7
09C4C:  MOVLW  AA
09C4E:  MOVWF  FA7
09C50:  BSF    FA6.1
09C52:  BTFSC  FA6.1
09C54:  BRA    9C52
09C56:  BCF    FA6.2
09C58:  MOVF   00,W
09C5A:  IORWF  FF2,F
....................                               delay_ms(20); 
09C5C:  MOVLW  14
09C5E:  MOVLB  3
09C60:  MOVWF  xC8
09C62:  MOVLB  0
09C64:  CALL   1C24
....................                               write_eeprom(48,esterilizo); 
09C68:  CLRF   FAA
09C6A:  MOVLW  30
09C6C:  MOVWF  FA9
09C6E:  MOVFF  D1,FA8
09C72:  BCF    FA6.6
09C74:  BCF    FA6.7
09C76:  BSF    FA6.2
09C78:  MOVF   FF2,W
09C7A:  MOVWF  00
09C7C:  BCF    FF2.6
09C7E:  BCF    FF2.7
09C80:  MOVLB  F
09C82:  MOVLW  55
09C84:  MOVWF  FA7
09C86:  MOVLW  AA
09C88:  MOVWF  FA7
09C8A:  BSF    FA6.1
09C8C:  BTFSC  FA6.1
09C8E:  BRA    9C8C
09C90:  BCF    FA6.2
09C92:  MOVF   00,W
09C94:  IORWF  FF2,F
....................                               delay_ms(20); 
09C96:  MOVLW  14
09C98:  MOVLB  3
09C9A:  MOVWF  xC8
09C9C:  MOVLB  0
09C9E:  CALL   1C24
....................                               if(ActivaImpresion==1){ 
09CA2:  MOVLB  3
09CA4:  DECFSZ x6C,W
09CA6:  BRA    9CC4
....................                                  Imprime=25; 
09CA8:  MOVLW  19
09CAA:  MOVWF  xB8
....................                                  Envio_Esclavos(); 
09CAC:  MOVLB  0
09CAE:  CALL   4014
....................                                  delay_ms(100); 
09CB2:  MOVLW  64
09CB4:  MOVLB  3
09CB6:  MOVWF  xC8
09CB8:  MOVLB  0
09CBA:  CALL   1C24
....................                                  Imprime=10; 
09CBE:  MOVLW  0A
09CC0:  MOVLB  3
09CC2:  MOVWF  xB8
09CC4:  MOVLB  0
....................                               } 
....................                            } 
....................                         } 
....................                      }else{ 
09CC6:  BRA    9D0A
09CC8:  MOVLB  3
....................                         Desfogando=ON; 
09CCA:  MOVLB  0
09CCC:  BSF    xCA.4
....................                         DesfogueSuave=ON; 
09CCE:  BSF    xCA.5
....................                         printf("Funcionamiento.t4f.txt=\" Ninguna\""); 
09CD0:  MOVLW  82
09CD2:  MOVWF  FF6
09CD4:  MOVLW  17
09CD6:  MOVWF  FF7
09CD8:  MOVLW  00
09CDA:  MOVWF  FF8
09CDC:  CALL   3510
....................                         SendDataDisplay(); 
09CE0:  CALL   3542
....................                         printf("Funcionamiento.t5f.txt=\" Despresurizando\""); 
09CE4:  MOVLW  A4
09CE6:  MOVWF  FF6
09CE8:  MOVLW  17
09CEA:  MOVWF  FF7
09CEC:  MOVLW  00
09CEE:  MOVWF  FF8
09CF0:  CALL   3510
....................                         SendDataDisplay(); 
09CF4:  CALL   3542
....................                         Alarma=24; 
09CF8:  MOVLW  18
09CFA:  MOVLB  3
09CFC:  MOVWF  x73
....................                         Control=0; 
09CFE:  CLRF   x69
....................                         SSR_off; 
09D00:  BSF    F8B.1
09D02:  BCF    F94.1
....................                         Paso_off; 
09D04:  BSF    F8C.3
09D06:  BCF    F95.3
09D08:  MOVLB  0
....................                      } 
....................                   }else{ 
09D0A:  BRA    9F54
....................                      //SSR_off; 
....................                      Paso_off; 
09D0C:  BSF    F8C.3
09D0E:  BCF    F95.3
....................                      Controlando=0; 
09D10:  MOVLB  3
09D12:  CLRF   x6B
....................                      Control=0; 
09D14:  CLRF   x69
....................                      if(PresionCamara<2){ 
09D16:  MOVF   x8E,F
09D18:  BTFSS  FD8.2
09D1A:  BRA    9F10
09D1C:  MOVF   x8D,W
09D1E:  SUBLW  01
09D20:  BTFSS  FD8.0
09D22:  BRA    9F10
....................                         if((Tsecado[0]==0)&&(Tsecado[1]==0)&&(Tsecado[2]==0)&&(Tsecado[3]==0)){ 
09D24:  MOVLB  0
09D26:  MOVF   xE9,F
09D28:  BTFSS  FD8.2
09D2A:  BRA    9ED2
09D2C:  MOVF   xEA,F
09D2E:  BTFSS  FD8.2
09D30:  BRA    9ED2
09D32:  MOVF   xEB,F
09D34:  BTFSS  FD8.2
09D36:  BRA    9ED2
09D38:  MOVF   xEC,F
09D3A:  BTFSS  FD8.2
09D3C:  BRA    9ED2
....................                            if(AbreEsteril==5){ 
09D3E:  MOVF   xD2,W
09D40:  SUBLW  05
09D42:  BNZ   9D6C
....................                               Solenoide2_on; 
09D44:  BSF    F8C.1
09D46:  BCF    F95.1
....................                               Buzzer_on; 
09D48:  BSF    F8B.5
09D4A:  BCF    F94.5
....................                               delay_ms(5000); 
09D4C:  MOVLW  14
09D4E:  MOVLB  3
09D50:  MOVWF  xBD
09D52:  MOVLW  FA
09D54:  MOVWF  xC8
09D56:  MOVLB  0
09D58:  CALL   1C24
09D5C:  MOVLB  3
09D5E:  DECFSZ xBD,F
09D60:  BRA    9D52
....................                               Solenoide2_off; 
09D62:  BCF    F8C.1
09D64:  BCF    F95.1
....................                               Buzzer_off; 
09D66:  BCF    F8B.5
09D68:  BCF    F94.5
09D6A:  MOVLB  0
....................                            } 
....................                            if(!DOOR || !PRES){ 
09D6C:  BSF    F93.2
09D6E:  BTFSC  F81.2
09D70:  BRA    9D78
09D72:  BSF    F92.4
09D74:  BTFSS  F80.4
09D76:  BRA    9D8A
....................                               Desfogue_off; 
09D78:  BSF    F8C.2
09D7A:  BCF    F95.2
....................                               Solenoide_off; 
09D7C:  BCF    F8C.0
09D7E:  BCF    F95.0
....................                               Solenoide2_off; 
09D80:  BCF    F8C.1
09D82:  BCF    F95.1
....................                               Paso_off; 
09D84:  BSF    F8C.3
09D86:  BCF    F95.3
....................                            }else{ 
09D88:  BRA    9D9A
....................                               Desfogue_on; 
09D8A:  BCF    F8C.2
09D8C:  BCF    F95.2
....................                               Solenoide_off; 
09D8E:  BCF    F8C.0
09D90:  BCF    F95.0
....................                               Solenoide2_off; 
09D92:  BCF    F8C.1
09D94:  BCF    F95.1
....................                               Paso_off; 
09D96:  BSF    F8C.3
09D98:  BCF    F95.3
....................                            } 
....................                            SSR_off; 
09D9A:  BSF    F8B.1
09D9C:  BCF    F94.1
....................                            ActivaAlarma(2); 
09D9E:  MOVLW  02
09DA0:  MOVLB  3
09DA2:  MOVWF  xBD
09DA4:  MOVLB  0
09DA6:  CALL   454E
....................                            Secando=OFF; 
09DAA:  BCF    xCA.2
....................                            printf("Funcionamiento.t4f.txt=\" No abra puerta\""); 
09DAC:  MOVLW  CE
09DAE:  MOVWF  FF6
09DB0:  MOVLW  17
09DB2:  MOVWF  FF7
09DB4:  MOVLW  00
09DB6:  MOVWF  FF8
09DB8:  CALL   3510
....................                            SendDataDisplay(); 
09DBC:  CALL   3542
....................                            printf("Funcionamiento.t5f.txt=\" Finalizado\""); 
09DC0:  MOVLW  F8
09DC2:  MOVWF  FF6
09DC4:  MOVLW  17
09DC6:  MOVWF  FF7
09DC8:  MOVLW  00
09DCA:  MOVWF  FF8
09DCC:  CALL   3510
....................                            SendDataDisplay(); 
09DD0:  CALL   3542
....................                            Alarma=23; 
09DD4:  MOVLW  17
09DD6:  MOVLB  3
09DD8:  MOVWF  x73
....................                            esterilizo=5; 
09DDA:  MOVLW  05
09DDC:  MOVLB  0
09DDE:  MOVWF  xD1
....................                            Finalizo=ON; 
09DE0:  BSF    xCD.2
....................                            TiempoCiclo=0; 
09DE2:  CLRF   xD4
09DE4:  CLRF   xD3
....................                            if(!Ciclo){ 
09DE6:  BTFSC  xCB.2
09DE8:  BRA    9ECE
....................                               Ciclo=ON; 
09DEA:  BSF    xCB.2
....................                               Ciclos++; 
09DEC:  MOVLB  3
09DEE:  INCF   x91,F
09DF0:  BTFSC  FD8.2
09DF2:  INCF   x92,F
....................                               CiclosL=make8(Ciclos,0); 
09DF4:  MOVFF  391,378
....................                               CiclosH=make8(Ciclos,1); 
09DF8:  MOVFF  392,379
....................                               write_eeprom(37,CiclosL); 
09DFC:  CLRF   FAA
09DFE:  MOVLW  25
09E00:  MOVWF  FA9
09E02:  MOVFF  378,FA8
09E06:  BCF    FA6.6
09E08:  BCF    FA6.7
09E0A:  BSF    FA6.2
09E0C:  MOVF   FF2,W
09E0E:  MOVWF  00
09E10:  BCF    FF2.6
09E12:  BCF    FF2.7
09E14:  MOVLB  F
09E16:  MOVLW  55
09E18:  MOVWF  FA7
09E1A:  MOVLW  AA
09E1C:  MOVWF  FA7
09E1E:  BSF    FA6.1
09E20:  BTFSC  FA6.1
09E22:  BRA    9E20
09E24:  BCF    FA6.2
09E26:  MOVF   00,W
09E28:  IORWF  FF2,F
....................                               delay_ms(20); 
09E2A:  MOVLW  14
09E2C:  MOVLB  3
09E2E:  MOVWF  xC8
09E30:  MOVLB  0
09E32:  CALL   1C24
....................                               write_eeprom(38,CiclosH); 
09E36:  CLRF   FAA
09E38:  MOVLW  26
09E3A:  MOVWF  FA9
09E3C:  MOVFF  379,FA8
09E40:  BCF    FA6.6
09E42:  BCF    FA6.7
09E44:  BSF    FA6.2
09E46:  MOVF   FF2,W
09E48:  MOVWF  00
09E4A:  BCF    FF2.6
09E4C:  BCF    FF2.7
09E4E:  MOVLB  F
09E50:  MOVLW  55
09E52:  MOVWF  FA7
09E54:  MOVLW  AA
09E56:  MOVWF  FA7
09E58:  BSF    FA6.1
09E5A:  BTFSC  FA6.1
09E5C:  BRA    9E5A
09E5E:  BCF    FA6.2
09E60:  MOVF   00,W
09E62:  IORWF  FF2,F
....................                               delay_ms(20); 
09E64:  MOVLW  14
09E66:  MOVLB  3
09E68:  MOVWF  xC8
09E6A:  MOVLB  0
09E6C:  CALL   1C24
....................                               write_eeprom(48,esterilizo); 
09E70:  CLRF   FAA
09E72:  MOVLW  30
09E74:  MOVWF  FA9
09E76:  MOVFF  D1,FA8
09E7A:  BCF    FA6.6
09E7C:  BCF    FA6.7
09E7E:  BSF    FA6.2
09E80:  MOVF   FF2,W
09E82:  MOVWF  00
09E84:  BCF    FF2.6
09E86:  BCF    FF2.7
09E88:  MOVLB  F
09E8A:  MOVLW  55
09E8C:  MOVWF  FA7
09E8E:  MOVLW  AA
09E90:  MOVWF  FA7
09E92:  BSF    FA6.1
09E94:  BTFSC  FA6.1
09E96:  BRA    9E94
09E98:  BCF    FA6.2
09E9A:  MOVF   00,W
09E9C:  IORWF  FF2,F
....................                               delay_ms(20); 
09E9E:  MOVLW  14
09EA0:  MOVLB  3
09EA2:  MOVWF  xC8
09EA4:  MOVLB  0
09EA6:  CALL   1C24
....................                               if(ActivaImpresion==1){ 
09EAA:  MOVLB  3
09EAC:  DECFSZ x6C,W
09EAE:  BRA    9ECC
....................                                  Imprime=25; 
09EB0:  MOVLW  19
09EB2:  MOVWF  xB8
....................                                  Envio_Esclavos(); 
09EB4:  MOVLB  0
09EB6:  CALL   4014
....................                                  delay_ms(100); 
09EBA:  MOVLW  64
09EBC:  MOVLB  3
09EBE:  MOVWF  xC8
09EC0:  MOVLB  0
09EC2:  CALL   1C24
....................                                  Imprime=10; 
09EC6:  MOVLW  0A
09EC8:  MOVLB  3
09ECA:  MOVWF  xB8
09ECC:  MOVLB  0
....................                               } 
....................                            } 
....................                            Secando=OFF; 
09ECE:  BCF    xCA.2
....................                         }else{ 
09ED0:  BRA    9F0C
....................                            Secando=ON; 
09ED2:  BSF    xCA.2
....................                            printf("Funcionamiento.t4f.txt=\" Ninguna\""); 
09ED4:  MOVLW  1E
09ED6:  MOVWF  FF6
09ED8:  MOVLW  18
09EDA:  MOVWF  FF7
09EDC:  MOVLW  00
09EDE:  MOVWF  FF8
09EE0:  CALL   3510
....................                            SendDataDisplay(); 
09EE4:  CALL   3542
....................                            printf("Funcionamiento.t5f.txt=\" Secando\""); 
09EE8:  MOVLW  40
09EEA:  MOVWF  FF6
09EEC:  MOVLW  18
09EEE:  MOVWF  FF7
09EF0:  MOVLW  00
09EF2:  MOVWF  FF8
09EF4:  CALL   3510
....................                            SendDataDisplay(); 
09EF8:  CALL   3542
....................                            Alarma=25; 
09EFC:  MOVLW  19
09EFE:  MOVLB  3
09F00:  MOVWF  x73
....................                            Paso_off; 
09F02:  BSF    F8C.3
09F04:  BCF    F95.3
....................                            CalientaChaqueta(); 
09F06:  MOVLB  0
09F08:  GOTO   52CE
....................                         } 
....................                      }else{ 
09F0C:  BRA    9F54
09F0E:  MOVLB  3
....................                         Desfogando=ON; 
09F10:  MOVLB  0
09F12:  BSF    xCA.4
....................                         printf("Funcionamiento.t4f.txt=\" Ninguna\""); 
09F14:  MOVLW  62
09F16:  MOVWF  FF6
09F18:  MOVLW  18
09F1A:  MOVWF  FF7
09F1C:  MOVLW  00
09F1E:  MOVWF  FF8
09F20:  CALL   3510
....................                         SendDataDisplay(); 
09F24:  CALL   3542
....................                         printf("Funcionamiento.t5f.txt=\" Despresurizando\""); 
09F28:  MOVLW  84
09F2A:  MOVWF  FF6
09F2C:  MOVLW  18
09F2E:  MOVWF  FF7
09F30:  MOVLW  00
09F32:  MOVWF  FF8
09F34:  CALL   3510
....................                         SendDataDisplay(); 
09F38:  CALL   3542
....................                         Alarma=24; 
09F3C:  MOVLW  18
09F3E:  MOVLB  3
09F40:  MOVWF  x73
....................                         Control=0; 
09F42:  CLRF   x69
....................                         SSR_off; 
09F44:  BSF    F8B.1
09F46:  BCF    F94.1
....................                         Controlando=0; 
09F48:  CLRF   x6B
....................                         Paso_off; 
09F4A:  BSF    F8C.3
09F4C:  BCF    F95.3
....................                         Desfogue_on; 
09F4E:  BCF    F8C.2
09F50:  BCF    F95.2
09F52:  MOVLB  0
....................                      } 
....................                   } 
....................                    
....................                }else{ 
09F54:  BRA    9F92
....................                   printf("Funcionamiento.t4f.txt=\" Ninguna\""); 
09F56:  MOVLW  AE
09F58:  MOVWF  FF6
09F5A:  MOVLW  18
09F5C:  MOVWF  FF7
09F5E:  MOVLW  00
09F60:  MOVWF  FF8
09F62:  CALL   3510
....................                   SendDataDisplay(); 
09F66:  CALL   3542
....................                   printf("Funcionamiento.t5f.txt=\" Esterilizando\""); 
09F6A:  MOVLW  D0
09F6C:  MOVWF  FF6
09F6E:  MOVLW  18
09F70:  MOVWF  FF7
09F72:  MOVLW  00
09F74:  MOVWF  FF8
09F76:  CALL   3510
....................                   SendDataDisplay(); 
09F7A:  CALL   3542
....................                   Alarma=26; 
09F7E:  MOVLW  1A
09F80:  MOVLB  3
09F82:  MOVWF  x73
....................                   Paso_on; 
09F84:  BCF    F8C.3
09F86:  BCF    F95.3
....................                   Control=1; 
09F88:  MOVLW  01
09F8A:  MOVWF  x69
....................                   Controla(); 
09F8C:  MOVLB  0
09F8E:  CALL   4D3E
09F92:  MOVLB  3
....................                } 
....................             } 
....................          } 
....................    } 
....................  
....................    if(Grafica==1){ 
09F94:  MOVLB  0
09F96:  BTFSS  xCE.4
09F98:  BRA    A00A
....................       printf("add 14,0,%1.0f",Temperatura*1.5); 
09F9A:  MOVFF  356,3D1
09F9E:  MOVFF  355,3D0
09FA2:  MOVFF  354,3CF
09FA6:  MOVFF  353,3CE
09FAA:  MOVLB  3
09FAC:  CLRF   xD5
09FAE:  CLRF   xD4
09FB0:  MOVLW  40
09FB2:  MOVWF  xD3
09FB4:  MOVLW  7F
09FB6:  MOVWF  xD2
09FB8:  MOVLB  0
09FBA:  CALL   35F0
09FBE:  MOVFF  00,3BD
09FC2:  MOVFF  01,3BE
09FC6:  MOVFF  02,3BF
09FCA:  MOVFF  03,3C0
09FCE:  MOVLW  F8
09FD0:  MOVWF  FF6
09FD2:  MOVLW  18
09FD4:  MOVWF  FF7
09FD6:  MOVLW  00
09FD8:  MOVWF  FF8
09FDA:  MOVLW  09
09FDC:  MOVLB  3
09FDE:  MOVWF  xC1
09FE0:  MOVLB  0
09FE2:  CALL   464A
09FE6:  MOVLW  00
09FE8:  MOVWF  FE9
09FEA:  MOVFF  3C0,3C4
09FEE:  MOVFF  3BF,3C3
09FF2:  MOVFF  3BE,3C2
09FF6:  MOVFF  3BD,3C1
09FFA:  MOVLB  3
09FFC:  CLRF   xC5
09FFE:  MOVLB  0
0A000:  CALL   4912
....................       SendDataDisplay(); 
0A004:  CALL   3542
....................       Grafica=0; 
0A008:  BCF    xCE.4
....................    } 
....................    if(Lectura==1)// Utilizado para visualizar la lectura de la temperatura 
0A00A:  BTFSS  xCE.3
0A00C:  BRA    A300
....................    {                       
....................       Lectura=0; 
0A00E:  BCF    xCE.3
....................       printf("t6f.txt=\"%3.1f\"",Temperatura); 
0A010:  MOVLW  08
0A012:  MOVWF  FF6
0A014:  MOVLW  19
0A016:  MOVWF  FF7
0A018:  MOVLW  00
0A01A:  MOVWF  FF8
0A01C:  MOVLW  09
0A01E:  MOVLB  3
0A020:  MOVWF  xC1
0A022:  MOVLB  0
0A024:  CALL   464A
0A028:  MOVLW  02
0A02A:  MOVWF  FE9
0A02C:  MOVFF  356,3C4
0A030:  MOVFF  355,3C3
0A034:  MOVFF  354,3C2
0A038:  MOVFF  353,3C1
0A03C:  MOVLW  01
0A03E:  MOVLB  3
0A040:  MOVWF  xC5
0A042:  MOVLB  0
0A044:  CALL   4912
0A048:  MOVLW  22
0A04A:  BTFSS  F9E.4
0A04C:  BRA    A04A
0A04E:  MOVWF  FAD
....................       SendDataDisplay(); 
0A050:  CALL   3542
....................       printf("Funcionamiento.t7f.txt=\"%03LukPa\"",PresionCamara); 
0A054:  MOVLW  18
0A056:  MOVWF  FF6
0A058:  MOVLW  19
0A05A:  MOVWF  FF7
0A05C:  MOVLW  00
0A05E:  MOVWF  FF8
0A060:  MOVLW  18
0A062:  MOVLB  3
0A064:  MOVWF  xC1
0A066:  MOVLB  0
0A068:  CALL   464A
0A06C:  MOVLW  0A
0A06E:  MOVWF  FE9
0A070:  MOVFF  38E,3BE
0A074:  MOVFF  38D,3BD
0A078:  CALL   47A4
0A07C:  MOVLW  35
0A07E:  MOVWF  FF6
0A080:  MOVLW  19
0A082:  MOVWF  FF7
0A084:  MOVLW  00
0A086:  MOVWF  FF8
0A088:  MOVLW  04
0A08A:  MOVLB  3
0A08C:  MOVWF  xC1
0A08E:  MOVLB  0
0A090:  CALL   464A
....................       SendDataDisplay(); 
0A094:  CALL   3542
....................       printf("Funcionamiento.t12f.txt=\"%03LukPa\"",PresionPreCamara); 
0A098:  MOVLW  3A
0A09A:  MOVWF  FF6
0A09C:  MOVLW  19
0A09E:  MOVWF  FF7
0A0A0:  MOVLW  00
0A0A2:  MOVWF  FF8
0A0A4:  MOVLW  19
0A0A6:  MOVLB  3
0A0A8:  MOVWF  xC1
0A0AA:  MOVLB  0
0A0AC:  CALL   464A
0A0B0:  MOVLW  0A
0A0B2:  MOVWF  FE9
0A0B4:  MOVFF  390,3BE
0A0B8:  MOVFF  38F,3BD
0A0BC:  CALL   47A4
0A0C0:  MOVLW  58
0A0C2:  MOVWF  FF6
0A0C4:  MOVLW  19
0A0C6:  MOVWF  FF7
0A0C8:  MOVLW  00
0A0CA:  MOVWF  FF8
0A0CC:  MOVLW  04
0A0CE:  MOVLB  3
0A0D0:  MOVWF  xC1
0A0D2:  MOVLB  0
0A0D4:  CALL   464A
....................       SendDataDisplay(); 
0A0D8:  CALL   3542
....................       printf("Funcionamiento.t9f.txt=\"%03u\"",Setpoint); 
0A0DC:  MOVLW  5E
0A0DE:  MOVWF  FF6
0A0E0:  MOVLW  19
0A0E2:  MOVWF  FF7
0A0E4:  MOVLW  00
0A0E6:  MOVWF  FF8
0A0E8:  MOVLW  18
0A0EA:  MOVLB  3
0A0EC:  MOVWF  xC1
0A0EE:  MOVLB  0
0A0F0:  CALL   464A
0A0F4:  MOVFF  37B,3BE
0A0F8:  MOVLW  03
0A0FA:  MOVLB  3
0A0FC:  MOVWF  xBF
0A0FE:  MOVLB  0
0A100:  CALL   46A8
0A104:  MOVLW  22
0A106:  BTFSS  F9E.4
0A108:  BRA    A106
0A10A:  MOVWF  FAD
....................       SendDataDisplay();       
0A10C:  CALL   3542
....................       printf("Funcionamiento.t10f.txt=\"%02u\"",((Testerilizacion[3]*10)+Testerilizacion[2])); 
0A110:  MOVFF  E4,3BD
0A114:  MOVLW  0A
0A116:  MOVLB  3
0A118:  MOVWF  xBE
0A11A:  MOVLB  0
0A11C:  CALL   29D8
0A120:  MOVF   xE3,W
0A122:  ADDWF  01,W
0A124:  MOVLB  3
0A126:  MOVWF  xBD
0A128:  MOVLW  7C
0A12A:  MOVWF  FF6
0A12C:  MOVLW  19
0A12E:  MOVWF  FF7
0A130:  MOVLW  00
0A132:  MOVWF  FF8
0A134:  MOVLW  19
0A136:  MOVWF  xC1
0A138:  MOVLB  0
0A13A:  CALL   464A
0A13E:  MOVFF  3BD,3BE
0A142:  MOVLW  01
0A144:  MOVLB  3
0A146:  MOVWF  xBF
0A148:  MOVLB  0
0A14A:  CALL   46A8
0A14E:  MOVLW  22
0A150:  BTFSS  F9E.4
0A152:  BRA    A150
0A154:  MOVWF  FAD
....................       SendDataDisplay();       
0A156:  CALL   3542
....................       printf("Funcionamiento.t13f.txt=\"%02u\"",((Testerilizacion[1]*10)+Testerilizacion[0])); 
0A15A:  MOVFF  E2,3BD
0A15E:  MOVLW  0A
0A160:  MOVLB  3
0A162:  MOVWF  xBE
0A164:  MOVLB  0
0A166:  CALL   29D8
0A16A:  MOVF   xE1,W
0A16C:  ADDWF  01,W
0A16E:  MOVLB  3
0A170:  MOVWF  xBD
0A172:  MOVLW  9C
0A174:  MOVWF  FF6
0A176:  MOVLW  19
0A178:  MOVWF  FF7
0A17A:  MOVLW  00
0A17C:  MOVWF  FF8
0A17E:  MOVLW  19
0A180:  MOVWF  xC1
0A182:  MOVLB  0
0A184:  CALL   464A
0A188:  MOVFF  3BD,3BE
0A18C:  MOVLW  01
0A18E:  MOVLB  3
0A190:  MOVWF  xBF
0A192:  MOVLB  0
0A194:  CALL   46A8
0A198:  MOVLW  22
0A19A:  BTFSS  F9E.4
0A19C:  BRA    A19A
0A19E:  MOVWF  FAD
....................       SendDataDisplay();       
0A1A0:  CALL   3542
....................       printf("Funcionamiento.t11f.txt=\"%02u\"",((Tsecado[3]*10)+Tsecado[2])); 
0A1A4:  MOVFF  EC,3BD
0A1A8:  MOVLW  0A
0A1AA:  MOVLB  3
0A1AC:  MOVWF  xBE
0A1AE:  MOVLB  0
0A1B0:  CALL   29D8
0A1B4:  MOVF   xEB,W
0A1B6:  ADDWF  01,W
0A1B8:  MOVLB  3
0A1BA:  MOVWF  xBD
0A1BC:  MOVLW  BC
0A1BE:  MOVWF  FF6
0A1C0:  MOVLW  19
0A1C2:  MOVWF  FF7
0A1C4:  MOVLW  00
0A1C6:  MOVWF  FF8
0A1C8:  MOVLW  19
0A1CA:  MOVWF  xC1
0A1CC:  MOVLB  0
0A1CE:  CALL   464A
0A1D2:  MOVFF  3BD,3BE
0A1D6:  MOVLW  01
0A1D8:  MOVLB  3
0A1DA:  MOVWF  xBF
0A1DC:  MOVLB  0
0A1DE:  CALL   46A8
0A1E2:  MOVLW  22
0A1E4:  BTFSS  F9E.4
0A1E6:  BRA    A1E4
0A1E8:  MOVWF  FAD
....................       SendDataDisplay();       
0A1EA:  CALL   3542
....................       printf("Funcionamiento.t16f.txt=\"%02u\"",((Tsecado[1]*10)+Tsecado[0])); 
0A1EE:  MOVFF  EA,3BD
0A1F2:  MOVLW  0A
0A1F4:  MOVLB  3
0A1F6:  MOVWF  xBE
0A1F8:  MOVLB  0
0A1FA:  CALL   29D8
0A1FE:  MOVF   xE9,W
0A200:  ADDWF  01,W
0A202:  MOVLB  3
0A204:  MOVWF  xBD
0A206:  MOVLW  DC
0A208:  MOVWF  FF6
0A20A:  MOVLW  19
0A20C:  MOVWF  FF7
0A20E:  MOVLW  00
0A210:  MOVWF  FF8
0A212:  MOVLW  19
0A214:  MOVWF  xC1
0A216:  MOVLB  0
0A218:  CALL   464A
0A21C:  MOVFF  3BD,3BE
0A220:  MOVLW  01
0A222:  MOVLB  3
0A224:  MOVWF  xBF
0A226:  MOVLB  0
0A228:  CALL   46A8
0A22C:  MOVLW  22
0A22E:  BTFSS  F9E.4
0A230:  BRA    A22E
0A232:  MOVWF  FAD
....................       SendDataDisplay();       
0A234:  CALL   3542
....................        
....................       printf("fecha.txt=\"Fecha:%02u/%02u/20%02u    Hora: %02u:%02u\"",Dia,Mes,Year,Hora,Minuto); 
0A238:  MOVLW  FC
0A23A:  MOVWF  FF6
0A23C:  MOVLW  19
0A23E:  MOVWF  FF7
0A240:  MOVLW  00
0A242:  MOVWF  FF8
0A244:  MOVLW  11
0A246:  MOVLB  3
0A248:  MOVWF  xC1
0A24A:  MOVLB  0
0A24C:  CALL   464A
0A250:  MOVFF  3AC,3BE
0A254:  MOVLW  01
0A256:  MOVLB  3
0A258:  MOVWF  xBF
0A25A:  MOVLB  0
0A25C:  CALL   46A8
0A260:  MOVLW  2F
0A262:  BTFSS  F9E.4
0A264:  BRA    A262
0A266:  MOVWF  FAD
0A268:  MOVFF  3AB,3BE
0A26C:  MOVLW  01
0A26E:  MOVLB  3
0A270:  MOVWF  xBF
0A272:  MOVLB  0
0A274:  CALL   46A8
0A278:  MOVLW  2F
0A27A:  BTFSS  F9E.4
0A27C:  BRA    A27A
0A27E:  MOVWF  FAD
0A280:  MOVLW  32
0A282:  BTFSS  F9E.4
0A284:  BRA    A282
0A286:  MOVWF  FAD
0A288:  MOVLW  30
0A28A:  BTFSS  F9E.4
0A28C:  BRA    A28A
0A28E:  MOVWF  FAD
0A290:  MOVFF  3AA,3BE
0A294:  MOVLW  01
0A296:  MOVLB  3
0A298:  MOVWF  xBF
0A29A:  MOVLB  0
0A29C:  CALL   46A8
0A2A0:  MOVLW  1D
0A2A2:  MOVWF  FF6
0A2A4:  MOVLW  1A
0A2A6:  MOVWF  FF7
0A2A8:  MOVLW  00
0A2AA:  MOVWF  FF8
0A2AC:  MOVLW  0A
0A2AE:  MOVLB  3
0A2B0:  MOVWF  xC1
0A2B2:  MOVLB  0
0A2B4:  CALL   464A
0A2B8:  MOVFF  3AD,3BE
0A2BC:  MOVLW  01
0A2BE:  MOVLB  3
0A2C0:  MOVWF  xBF
0A2C2:  MOVLB  0
0A2C4:  CALL   46A8
0A2C8:  MOVLW  3A
0A2CA:  BTFSS  F9E.4
0A2CC:  BRA    A2CA
0A2CE:  MOVWF  FAD
0A2D0:  MOVFF  3AE,3BE
0A2D4:  MOVLW  01
0A2D6:  MOVLB  3
0A2D8:  MOVWF  xBF
0A2DA:  MOVLB  0
0A2DC:  CALL   46A8
0A2E0:  MOVLW  22
0A2E2:  BTFSS  F9E.4
0A2E4:  BRA    A2E2
0A2E6:  MOVWF  FAD
....................       SendDataDisplay(); 
0A2E8:  CALL   3542
....................       printf("fecha.font=2"); 
0A2EC:  MOVLW  32
0A2EE:  MOVWF  FF6
0A2F0:  MOVLW  1A
0A2F2:  MOVWF  FF7
0A2F4:  MOVLW  00
0A2F6:  MOVWF  FF8
0A2F8:  CALL   3510
....................       SendDataDisplay(); 
0A2FC:  CALL   3542
0A300:  MOVLB  3
....................    } 
....................  
.................... } 
.................... //_-------------------------------------------------------------------------------------------------------------------------------------------------------- 
....................  
.................... //_-------------------------------------------------------------------------------------------------------------------------------------------------------- 
....................       if(Menu==100){ //Menu de Configuracin de Parametros de Control 
0A302:  MOVF   x74,W
0A304:  SUBLW  64
0A306:  BTFSS  FD8.2
0A308:  GOTO   B0E0
....................       
....................       if(Opcion2>10) 
0A30C:  MOVF   x7D,W
0A30E:  SUBLW  0A
0A310:  BC    A316
....................          Opcion2=1; 
0A312:  MOVLW  01
0A314:  MOVWF  x7D
....................       if(Opcion2<1) 
0A316:  MOVF   x7D,F
0A318:  BNZ   A31E
....................          Opcion2=10; 
0A31A:  MOVLW  0A
0A31C:  MOVWF  x7D
....................        
....................       if(Opcion2==1){ 
0A31E:  DECFSZ x7D,W
0A320:  BRA    A49E
....................          printf("Config.t2c.txt=\"Proporcional\""); 
0A322:  MOVLW  40
0A324:  MOVWF  FF6
0A326:  MOVLW  1A
0A328:  MOVWF  FF7
0A32A:  MOVLW  00
0A32C:  MOVWF  FF8
0A32E:  MOVLB  0
0A330:  CALL   3510
....................          SendDataDisplay();       
0A334:  CALL   3542
....................          printf("t3c.txt=\"%2.0f\"",Ganancia); 
0A338:  MOVLW  5E
0A33A:  MOVWF  FF6
0A33C:  MOVLW  1A
0A33E:  MOVWF  FF7
0A340:  MOVLW  00
0A342:  MOVWF  FF8
0A344:  MOVLW  09
0A346:  MOVLB  3
0A348:  MOVWF  xC1
0A34A:  MOVLB  0
0A34C:  CALL   464A
0A350:  MOVLW  01
0A352:  MOVWF  FE9
0A354:  MOVFF  33A,3C4
0A358:  MOVFF  339,3C3
0A35C:  MOVFF  338,3C2
0A360:  MOVFF  337,3C1
0A364:  MOVLB  3
0A366:  CLRF   xC5
0A368:  MOVLB  0
0A36A:  CALL   4912
0A36E:  MOVLW  22
0A370:  BTFSS  F9E.4
0A372:  BRA    A370
0A374:  MOVWF  FAD
....................          SendDataDisplay(); 
0A376:  CALL   3542
....................          if(RX_Buffer[4]==0x0a || UP){//Tecla Arriba Oprimida 
0A37A:  MOVF   34,W
0A37C:  SUBLW  0A
0A37E:  BZ    A386
0A380:  BSF    F93.6
0A382:  BTFSC  F81.6
0A384:  BRA    A3D6
....................             delay_ms(20); 
0A386:  MOVLW  14
0A388:  MOVLB  3
0A38A:  MOVWF  xC8
0A38C:  MOVLB  0
0A38E:  CALL   1C24
....................             if(RX_Buffer[4]==0x0a || UP){ 
0A392:  MOVF   34,W
0A394:  SUBLW  0A
0A396:  BZ    A39E
0A398:  BSF    F93.6
0A39A:  BTFSC  F81.6
0A39C:  BRA    A3D6
....................                Ganancia+=1.0; 
0A39E:  BCF    FD8.1
0A3A0:  MOVFF  33A,3CB
0A3A4:  MOVFF  339,3CA
0A3A8:  MOVFF  338,3C9
0A3AC:  MOVFF  337,3C8
0A3B0:  MOVLB  3
0A3B2:  CLRF   xCF
0A3B4:  CLRF   xCE
0A3B6:  CLRF   xCD
0A3B8:  MOVLW  7F
0A3BA:  MOVWF  xCC
0A3BC:  MOVLB  0
0A3BE:  CALL   1DE0
0A3C2:  MOVFF  03,33A
0A3C6:  MOVFF  02,339
0A3CA:  MOVFF  01,338
0A3CE:  MOVFF  00,337
....................                RX_Buffer[4]=0x00;   
0A3D2:  CLRF   34
....................                RX_Buffer2[4]=0x00;             
0A3D4:  CLRF   3F
....................                //BorraBuffer(); 
....................             } 
....................          } 
....................              
....................          if(RX_Buffer[4]==0x0b || DOWN){//Tecla Abajo Oprimida 
0A3D6:  MOVF   34,W
0A3D8:  SUBLW  0B
0A3DA:  BZ    A3E2
0A3DC:  BSF    F93.5
0A3DE:  BTFSC  F81.5
0A3E0:  BRA    A432
....................             delay_ms(20); 
0A3E2:  MOVLW  14
0A3E4:  MOVLB  3
0A3E6:  MOVWF  xC8
0A3E8:  MOVLB  0
0A3EA:  CALL   1C24
....................             if(RX_Buffer[4]==0x0b || DOWN){ 
0A3EE:  MOVF   34,W
0A3F0:  SUBLW  0B
0A3F2:  BZ    A3FA
0A3F4:  BSF    F93.5
0A3F6:  BTFSC  F81.5
0A3F8:  BRA    A432
....................                Ganancia-=1.0; 
0A3FA:  BSF    FD8.1
0A3FC:  MOVFF  33A,3CB
0A400:  MOVFF  339,3CA
0A404:  MOVFF  338,3C9
0A408:  MOVFF  337,3C8
0A40C:  MOVLB  3
0A40E:  CLRF   xCF
0A410:  CLRF   xCE
0A412:  CLRF   xCD
0A414:  MOVLW  7F
0A416:  MOVWF  xCC
0A418:  MOVLB  0
0A41A:  CALL   1DE0
0A41E:  MOVFF  03,33A
0A422:  MOVFF  02,339
0A426:  MOVFF  01,338
0A42A:  MOVFF  00,337
....................                RX_Buffer[4]=0x00; 
0A42E:  CLRF   34
....................                RX_Buffer2[4]=0x00;             
0A430:  CLRF   3F
....................                //BorraBuffer(); 
....................             } 
....................          } 
....................           
....................          if(Ganancia>40) 
0A432:  MOVLB  3
0A434:  CLRF   xC4
0A436:  CLRF   xC3
0A438:  MOVLW  20
0A43A:  MOVWF  xC2
0A43C:  MOVLW  84
0A43E:  MOVWF  xC1
0A440:  MOVFF  33A,3C8
0A444:  MOVFF  339,3C7
0A448:  MOVFF  338,3C6
0A44C:  MOVFF  337,3C5
0A450:  MOVLB  0
0A452:  CALL   295E
0A456:  BNC   A464
....................             Ganancia=1; 
0A458:  MOVLB  3
0A45A:  CLRF   x3A
0A45C:  CLRF   x39
0A45E:  CLRF   x38
0A460:  MOVLW  7F
0A462:  MOVWF  x37
....................          if(Ganancia<1) 
0A464:  MOVFF  33A,3C4
0A468:  MOVFF  339,3C3
0A46C:  MOVFF  338,3C2
0A470:  MOVFF  337,3C1
0A474:  MOVLB  3
0A476:  CLRF   xC8
0A478:  CLRF   xC7
0A47A:  CLRF   xC6
0A47C:  MOVLW  7F
0A47E:  MOVWF  xC5
0A480:  MOVLB  0
0A482:  CALL   295E
0A486:  BNC   A498
....................             Ganancia=40; 
0A488:  MOVLB  3
0A48A:  CLRF   x3A
0A48C:  CLRF   x39
0A48E:  MOVLW  20
0A490:  MOVWF  x38
0A492:  MOVLW  84
0A494:  MOVWF  x37
0A496:  MOVLB  0
....................       }else if(Opcion2==2){ 
0A498:  GOTO   AC54
0A49C:  MOVLB  3
0A49E:  MOVF   x7D,W
0A4A0:  SUBLW  02
0A4A2:  BNZ   A562
....................          printf("Config.t2c.txt=\"Derivativo\""); 
0A4A4:  MOVLW  6E
0A4A6:  MOVWF  FF6
0A4A8:  MOVLW  1A
0A4AA:  MOVWF  FF7
0A4AC:  MOVLW  00
0A4AE:  MOVWF  FF8
0A4B0:  MOVLB  0
0A4B2:  CALL   3510
....................          SendDataDisplay();       
0A4B6:  CALL   3542
....................          printf("t3c.txt=\"%u\"",Derivativo); 
0A4BA:  MOVLW  8A
0A4BC:  MOVWF  FF6
0A4BE:  MOVLW  1A
0A4C0:  MOVWF  FF7
0A4C2:  MOVLW  00
0A4C4:  MOVWF  FF8
0A4C6:  MOVLW  09
0A4C8:  MOVLB  3
0A4CA:  MOVWF  xC1
0A4CC:  MOVLB  0
0A4CE:  CALL   464A
0A4D2:  MOVFF  368,3BE
0A4D6:  MOVLW  1B
0A4D8:  MOVLB  3
0A4DA:  MOVWF  xBF
0A4DC:  MOVLB  0
0A4DE:  CALL   46A8
0A4E2:  MOVLW  22
0A4E4:  BTFSS  F9E.4
0A4E6:  BRA    A4E4
0A4E8:  MOVWF  FAD
....................          SendDataDisplay(); 
0A4EA:  CALL   3542
....................          if(RX_Buffer[4]==0x0a || UP){//Tecla Arriba Oprimida 
0A4EE:  MOVF   34,W
0A4F0:  SUBLW  0A
0A4F2:  BZ    A4FA
0A4F4:  BSF    F93.6
0A4F6:  BTFSC  F81.6
0A4F8:  BRA    A51C
....................             delay_ms(20); 
0A4FA:  MOVLW  14
0A4FC:  MOVLB  3
0A4FE:  MOVWF  xC8
0A500:  MOVLB  0
0A502:  CALL   1C24
....................             if(RX_Buffer[4]==0x0a || UP){ 
0A506:  MOVF   34,W
0A508:  SUBLW  0A
0A50A:  BZ    A512
0A50C:  BSF    F93.6
0A50E:  BTFSC  F81.6
0A510:  BRA    A51C
....................                Derivativo++; 
0A512:  MOVLB  3
0A514:  INCF   x68,F
....................                RX_Buffer[4]=0x00;   
0A516:  CLRF   34
....................                RX_Buffer2[4]=0x00;             
0A518:  CLRF   3F
0A51A:  MOVLB  0
....................                //BorraBuffer(); 
....................             } 
....................          } 
....................              
....................          if(RX_Buffer[4]==0x0b || DOWN){//Tecla Abajo Oprimida 
0A51C:  MOVF   34,W
0A51E:  SUBLW  0B
0A520:  BZ    A528
0A522:  BSF    F93.5
0A524:  BTFSC  F81.5
0A526:  BRA    A54A
....................             delay_ms(20); 
0A528:  MOVLW  14
0A52A:  MOVLB  3
0A52C:  MOVWF  xC8
0A52E:  MOVLB  0
0A530:  CALL   1C24
....................             if(RX_Buffer[4]==0x0b || DOWN){ 
0A534:  MOVF   34,W
0A536:  SUBLW  0B
0A538:  BZ    A540
0A53A:  BSF    F93.5
0A53C:  BTFSC  F81.5
0A53E:  BRA    A54A
....................                Derivativo--; 
0A540:  MOVLB  3
0A542:  DECF   x68,F
....................                RX_Buffer[4]=0x00; 
0A544:  CLRF   34
....................                RX_Buffer2[4]=0x00;             
0A546:  CLRF   3F
0A548:  MOVLB  0
....................                //BorraBuffer(); 
....................             } 
....................          } 
....................           
....................           
....................          if(Derivativo>40) 
0A54A:  MOVLB  3
0A54C:  MOVF   x68,W
0A54E:  SUBLW  28
0A550:  BC    A556
....................             Derivativo=1; 
0A552:  MOVLW  01
0A554:  MOVWF  x68
....................          if(Derivativo<1) 
0A556:  MOVF   x68,F
0A558:  BNZ   A55E
....................             Derivativo=40; 
0A55A:  MOVLW  28
0A55C:  MOVWF  x68
....................       }else if(Opcion2==3){ 
0A55E:  GOTO   AC56
0A562:  MOVF   x7D,W
0A564:  SUBLW  03
0A566:  BNZ   A624
....................          printf("Config.t2c.txt=\"Integral\""); 
0A568:  MOVLW  98
0A56A:  MOVWF  FF6
0A56C:  MOVLW  1A
0A56E:  MOVWF  FF7
0A570:  MOVLW  00
0A572:  MOVWF  FF8
0A574:  MOVLB  0
0A576:  CALL   3510
....................          SendDataDisplay();       
0A57A:  CALL   3542
....................          printf("t3c.txt=\"%u\"",Integral); 
0A57E:  MOVLW  B2
0A580:  MOVWF  FF6
0A582:  MOVLW  1A
0A584:  MOVWF  FF7
0A586:  MOVLW  00
0A588:  MOVWF  FF8
0A58A:  MOVLW  09
0A58C:  MOVLB  3
0A58E:  MOVWF  xC1
0A590:  MOVLB  0
0A592:  CALL   464A
0A596:  MOVFF  367,3BE
0A59A:  MOVLW  1B
0A59C:  MOVLB  3
0A59E:  MOVWF  xBF
0A5A0:  MOVLB  0
0A5A2:  CALL   46A8
0A5A6:  MOVLW  22
0A5A8:  BTFSS  F9E.4
0A5AA:  BRA    A5A8
0A5AC:  MOVWF  FAD
....................          SendDataDisplay(); 
0A5AE:  CALL   3542
....................          if(RX_Buffer[4]==0x0a || UP){//Tecla Arriba Oprimida 
0A5B2:  MOVF   34,W
0A5B4:  SUBLW  0A
0A5B6:  BZ    A5BE
0A5B8:  BSF    F93.6
0A5BA:  BTFSC  F81.6
0A5BC:  BRA    A5E0
....................             delay_ms(20); 
0A5BE:  MOVLW  14
0A5C0:  MOVLB  3
0A5C2:  MOVWF  xC8
0A5C4:  MOVLB  0
0A5C6:  CALL   1C24
....................             if(RX_Buffer[4]==0x0a || UP){ 
0A5CA:  MOVF   34,W
0A5CC:  SUBLW  0A
0A5CE:  BZ    A5D6
0A5D0:  BSF    F93.6
0A5D2:  BTFSC  F81.6
0A5D4:  BRA    A5E0
....................                Integral++; 
0A5D6:  MOVLB  3
0A5D8:  INCF   x67,F
....................                RX_Buffer[4]=0x00;   
0A5DA:  CLRF   34
....................                RX_Buffer2[4]=0x00;             
0A5DC:  CLRF   3F
0A5DE:  MOVLB  0
....................                //BorraBuffer(); 
....................             } 
....................          } 
....................              
....................          if(RX_Buffer[4]==0x0b || DOWN){//Tecla Abajo Oprimida 
0A5E0:  MOVF   34,W
0A5E2:  SUBLW  0B
0A5E4:  BZ    A5EC
0A5E6:  BSF    F93.5
0A5E8:  BTFSC  F81.5
0A5EA:  BRA    A60E
....................             delay_ms(20); 
0A5EC:  MOVLW  14
0A5EE:  MOVLB  3
0A5F0:  MOVWF  xC8
0A5F2:  MOVLB  0
0A5F4:  CALL   1C24
....................             if(RX_Buffer[4]==0x0b || DOWN){ 
0A5F8:  MOVF   34,W
0A5FA:  SUBLW  0B
0A5FC:  BZ    A604
0A5FE:  BSF    F93.5
0A600:  BTFSC  F81.5
0A602:  BRA    A60E
....................                Integral--; 
0A604:  MOVLB  3
0A606:  DECF   x67,F
....................                RX_Buffer[4]=0x00; 
0A608:  CLRF   34
....................                RX_Buffer2[4]=0x00;             
0A60A:  CLRF   3F
0A60C:  MOVLB  0
....................                //BorraBuffer(); 
....................             } 
....................          } 
....................           
....................          if(Integral>40) 
0A60E:  MOVLB  3
0A610:  MOVF   x67,W
0A612:  SUBLW  28
0A614:  BC    A61A
....................             Integral=1; 
0A616:  MOVLW  01
0A618:  MOVWF  x67
....................          if(Integral<1) 
0A61A:  MOVF   x67,F
0A61C:  BNZ   A622
....................             Integral=40; 
0A61E:  MOVLW  28
0A620:  MOVWF  x67
....................       }else if(Opcion2==4){ 
0A622:  BRA    AC56
0A624:  MOVF   x7D,W
0A626:  SUBLW  04
0A628:  BTFSS  FD8.2
0A62A:  BRA    A7AA
....................          printf("Config.t2c.txt=\"Tciclo\""); 
0A62C:  MOVLW  C0
0A62E:  MOVWF  FF6
0A630:  MOVLW  1A
0A632:  MOVWF  FF7
0A634:  MOVLW  00
0A636:  MOVWF  FF8
0A638:  MOVLB  0
0A63A:  CALL   3510
....................          SendDataDisplay();       
0A63E:  CALL   3542
....................          printf("t3c.txt=\"%2.0f\"",Tciclo); 
0A642:  MOVLW  D8
0A644:  MOVWF  FF6
0A646:  MOVLW  1A
0A648:  MOVWF  FF7
0A64A:  MOVLW  00
0A64C:  MOVWF  FF8
0A64E:  MOVLW  09
0A650:  MOVLB  3
0A652:  MOVWF  xC1
0A654:  MOVLB  0
0A656:  CALL   464A
0A65A:  MOVLW  01
0A65C:  MOVWF  FE9
0A65E:  MOVFF  322,3C4
0A662:  MOVFF  321,3C3
0A666:  MOVFF  320,3C2
0A66A:  MOVFF  31F,3C1
0A66E:  MOVLB  3
0A670:  CLRF   xC5
0A672:  MOVLB  0
0A674:  CALL   4912
0A678:  MOVLW  22
0A67A:  BTFSS  F9E.4
0A67C:  BRA    A67A
0A67E:  MOVWF  FAD
....................          SendDataDisplay(); 
0A680:  CALL   3542
....................          if(RX_Buffer[4]==0x0a || UP){//Tecla Arriba Oprimida 
0A684:  MOVF   34,W
0A686:  SUBLW  0A
0A688:  BZ    A690
0A68A:  BSF    F93.6
0A68C:  BTFSC  F81.6
0A68E:  BRA    A6E0
....................             delay_ms(20); 
0A690:  MOVLW  14
0A692:  MOVLB  3
0A694:  MOVWF  xC8
0A696:  MOVLB  0
0A698:  CALL   1C24
....................             if(RX_Buffer[4]==0x0a || UP){ 
0A69C:  MOVF   34,W
0A69E:  SUBLW  0A
0A6A0:  BZ    A6A8
0A6A2:  BSF    F93.6
0A6A4:  BTFSC  F81.6
0A6A6:  BRA    A6E0
....................                Tciclo+=1.0; 
0A6A8:  BCF    FD8.1
0A6AA:  MOVFF  322,3CB
0A6AE:  MOVFF  321,3CA
0A6B2:  MOVFF  320,3C9
0A6B6:  MOVFF  31F,3C8
0A6BA:  MOVLB  3
0A6BC:  CLRF   xCF
0A6BE:  CLRF   xCE
0A6C0:  CLRF   xCD
0A6C2:  MOVLW  7F
0A6C4:  MOVWF  xCC
0A6C6:  MOVLB  0
0A6C8:  CALL   1DE0
0A6CC:  MOVFF  03,322
0A6D0:  MOVFF  02,321
0A6D4:  MOVFF  01,320
0A6D8:  MOVFF  00,31F
....................                RX_Buffer[4]=0x00;   
0A6DC:  CLRF   34
....................                RX_Buffer2[4]=0x00;             
0A6DE:  CLRF   3F
....................                //BorraBuffer(); 
....................             } 
....................          } 
....................              
....................          if(RX_Buffer[4]==0x0b || DOWN){//Tecla Abajo Oprimida 
0A6E0:  MOVF   34,W
0A6E2:  SUBLW  0B
0A6E4:  BZ    A6EC
0A6E6:  BSF    F93.5
0A6E8:  BTFSC  F81.5
0A6EA:  BRA    A73C
....................             delay_ms(20); 
0A6EC:  MOVLW  14
0A6EE:  MOVLB  3
0A6F0:  MOVWF  xC8
0A6F2:  MOVLB  0
0A6F4:  CALL   1C24
....................             if(RX_Buffer[4]==0x0b || DOWN){ 
0A6F8:  MOVF   34,W
0A6FA:  SUBLW  0B
0A6FC:  BZ    A704
0A6FE:  BSF    F93.5
0A700:  BTFSC  F81.5
0A702:  BRA    A73C
....................                Tciclo-=1.0; 
0A704:  BSF    FD8.1
0A706:  MOVFF  322,3CB
0A70A:  MOVFF  321,3CA
0A70E:  MOVFF  320,3C9
0A712:  MOVFF  31F,3C8
0A716:  MOVLB  3
0A718:  CLRF   xCF
0A71A:  CLRF   xCE
0A71C:  CLRF   xCD
0A71E:  MOVLW  7F
0A720:  MOVWF  xCC
0A722:  MOVLB  0
0A724:  CALL   1DE0
0A728:  MOVFF  03,322
0A72C:  MOVFF  02,321
0A730:  MOVFF  01,320
0A734:  MOVFF  00,31F
....................                RX_Buffer[4]=0x00; 
0A738:  CLRF   34
....................                RX_Buffer2[4]=0x00;             
0A73A:  CLRF   3F
....................                //BorraBuffer(); 
....................             } 
....................          } 
....................           
....................          if(Tciclo>20) 
0A73C:  MOVLB  3
0A73E:  CLRF   xC4
0A740:  CLRF   xC3
0A742:  MOVLW  20
0A744:  MOVWF  xC2
0A746:  MOVLW  83
0A748:  MOVWF  xC1
0A74A:  MOVFF  322,3C8
0A74E:  MOVFF  321,3C7
0A752:  MOVFF  320,3C6
0A756:  MOVFF  31F,3C5
0A75A:  MOVLB  0
0A75C:  CALL   295E
0A760:  BNC   A770
....................             Tciclo=5; 
0A762:  MOVLB  3
0A764:  CLRF   x22
0A766:  CLRF   x21
0A768:  MOVLW  20
0A76A:  MOVWF  x20
0A76C:  MOVLW  81
0A76E:  MOVWF  x1F
....................          if(Tciclo<5) 
0A770:  MOVFF  322,3C4
0A774:  MOVFF  321,3C3
0A778:  MOVFF  320,3C2
0A77C:  MOVFF  31F,3C1
0A780:  MOVLB  3
0A782:  CLRF   xC8
0A784:  CLRF   xC7
0A786:  MOVLW  20
0A788:  MOVWF  xC6
0A78A:  MOVLW  81
0A78C:  MOVWF  xC5
0A78E:  MOVLB  0
0A790:  CALL   295E
0A794:  BNC   A7A6
....................             Tciclo=20; 
0A796:  MOVLB  3
0A798:  CLRF   x22
0A79A:  CLRF   x21
0A79C:  MOVLW  20
0A79E:  MOVWF  x20
0A7A0:  MOVLW  83
0A7A2:  MOVWF  x1F
0A7A4:  MOVLB  0
....................       }else if(Opcion2==5){ 
0A7A6:  BRA    AC54
0A7A8:  MOVLB  3
0A7AA:  MOVF   x7D,W
0A7AC:  SUBLW  05
0A7AE:  BNZ   A864
....................          printf("Config.t2c.txt=\"Ajuste +\""); 
0A7B0:  MOVLW  E8
0A7B2:  MOVWF  FF6
0A7B4:  MOVLW  1A
0A7B6:  MOVWF  FF7
0A7B8:  MOVLW  00
0A7BA:  MOVWF  FF8
0A7BC:  MOVLB  0
0A7BE:  CALL   3510
....................          SendDataDisplay();       
0A7C2:  CALL   3542
....................          printf("t3c.txt=\"%u\"",Ajuste); 
0A7C6:  MOVLW  02
0A7C8:  MOVWF  FF6
0A7CA:  MOVLW  1B
0A7CC:  MOVWF  FF7
0A7CE:  MOVLW  00
0A7D0:  MOVWF  FF8
0A7D2:  MOVLW  09
0A7D4:  MOVLB  3
0A7D6:  MOVWF  xC1
0A7D8:  MOVLB  0
0A7DA:  CALL   464A
0A7DE:  MOVFF  30F,3BE
0A7E2:  MOVLW  1B
0A7E4:  MOVLB  3
0A7E6:  MOVWF  xBF
0A7E8:  MOVLB  0
0A7EA:  CALL   46A8
0A7EE:  MOVLW  22
0A7F0:  BTFSS  F9E.4
0A7F2:  BRA    A7F0
0A7F4:  MOVWF  FAD
....................          SendDataDisplay(); 
0A7F6:  CALL   3542
....................          if(RX_Buffer[4]==0x0a || UP){//Tecla Arriba Oprimida 
0A7FA:  MOVF   34,W
0A7FC:  SUBLW  0A
0A7FE:  BZ    A806
0A800:  BSF    F93.6
0A802:  BTFSC  F81.6
0A804:  BRA    A82E
....................             delay_ms(20); 
0A806:  MOVLW  14
0A808:  MOVLB  3
0A80A:  MOVWF  xC8
0A80C:  MOVLB  0
0A80E:  CALL   1C24
....................             if(RX_Buffer[4]==0x0a || UP){ 
0A812:  MOVF   34,W
0A814:  SUBLW  0A
0A816:  BZ    A81E
0A818:  BSF    F93.6
0A81A:  BTFSC  F81.6
0A81C:  BRA    A82E
....................                if(Ajuste<40) 
0A81E:  MOVLB  3
0A820:  MOVF   x0F,W
0A822:  SUBLW  27
0A824:  BNC   A828
....................                   Ajuste++; 
0A826:  INCF   x0F,F
....................                RX_Buffer[4]=0x00;   
0A828:  CLRF   34
....................                RX_Buffer2[4]=0x00;             
0A82A:  CLRF   3F
0A82C:  MOVLB  0
....................                //BorraBuffer(); 
....................             } 
....................          } 
....................              
....................          if(RX_Buffer[4]==0x0b || DOWN){//Tecla Abajo Oprimida 
0A82E:  MOVF   34,W
0A830:  SUBLW  0B
0A832:  BZ    A83A
0A834:  BSF    F93.5
0A836:  BTFSC  F81.5
0A838:  BRA    A860
....................             delay_ms(20); 
0A83A:  MOVLW  14
0A83C:  MOVLB  3
0A83E:  MOVWF  xC8
0A840:  MOVLB  0
0A842:  CALL   1C24
....................             if(RX_Buffer[4]==0x0b || DOWN){ 
0A846:  MOVF   34,W
0A848:  SUBLW  0B
0A84A:  BZ    A852
0A84C:  BSF    F93.5
0A84E:  BTFSC  F81.5
0A850:  BRA    A860
....................                if(Ajuste>0) 
0A852:  MOVLB  3
0A854:  MOVF   x0F,F
0A856:  BZ    A85A
....................                   Ajuste--; 
0A858:  DECF   x0F,F
....................                RX_Buffer[4]=0x00; 
0A85A:  CLRF   34
....................                RX_Buffer2[4]=0x00;             
0A85C:  CLRF   3F
0A85E:  MOVLB  0
....................                //BorraBuffer(); 
....................             } 
....................          } 
....................       }else if(Opcion2==6){ 
0A860:  BRA    AC54
0A862:  MOVLB  3
0A864:  MOVF   x7D,W
0A866:  SUBLW  06
0A868:  BNZ   A91E
....................          printf("Config.t2c.txt=\"Ajuste -\""); 
0A86A:  MOVLW  10
0A86C:  MOVWF  FF6
0A86E:  MOVLW  1B
0A870:  MOVWF  FF7
0A872:  MOVLW  00
0A874:  MOVWF  FF8
0A876:  MOVLB  0
0A878:  CALL   3510
....................          SendDataDisplay();       
0A87C:  CALL   3542
....................          printf("t3c.txt=\"%u\"",Ajusten); 
0A880:  MOVLW  2A
0A882:  MOVWF  FF6
0A884:  MOVLW  1B
0A886:  MOVWF  FF7
0A888:  MOVLW  00
0A88A:  MOVWF  FF8
0A88C:  MOVLW  09
0A88E:  MOVLB  3
0A890:  MOVWF  xC1
0A892:  MOVLB  0
0A894:  CALL   464A
0A898:  MOVFF  310,3BE
0A89C:  MOVLW  1B
0A89E:  MOVLB  3
0A8A0:  MOVWF  xBF
0A8A2:  MOVLB  0
0A8A4:  CALL   46A8
0A8A8:  MOVLW  22
0A8AA:  BTFSS  F9E.4
0A8AC:  BRA    A8AA
0A8AE:  MOVWF  FAD
....................          SendDataDisplay(); 
0A8B0:  CALL   3542
....................          if(RX_Buffer[4]==0x0a || UP){//Tecla Arriba Oprimida 
0A8B4:  MOVF   34,W
0A8B6:  SUBLW  0A
0A8B8:  BZ    A8C0
0A8BA:  BSF    F93.6
0A8BC:  BTFSC  F81.6
0A8BE:  BRA    A8E8
....................             delay_ms(20); 
0A8C0:  MOVLW  14
0A8C2:  MOVLB  3
0A8C4:  MOVWF  xC8
0A8C6:  MOVLB  0
0A8C8:  CALL   1C24
....................             if(RX_Buffer[4]==0x0a || UP){ 
0A8CC:  MOVF   34,W
0A8CE:  SUBLW  0A
0A8D0:  BZ    A8D8
0A8D2:  BSF    F93.6
0A8D4:  BTFSC  F81.6
0A8D6:  BRA    A8E8
....................                if(Ajusten<40) 
0A8D8:  MOVLB  3
0A8DA:  MOVF   x10,W
0A8DC:  SUBLW  27
0A8DE:  BNC   A8E2
....................                   Ajusten++; 
0A8E0:  INCF   x10,F
....................                RX_Buffer[4]=0x00;   
0A8E2:  CLRF   34
....................                RX_Buffer2[4]=0x00;             
0A8E4:  CLRF   3F
0A8E6:  MOVLB  0
....................                //BorraBuffer(); 
....................             } 
....................          } 
....................              
....................          if(RX_Buffer[4]==0x0b || DOWN){//Tecla Abajo Oprimida 
0A8E8:  MOVF   34,W
0A8EA:  SUBLW  0B
0A8EC:  BZ    A8F4
0A8EE:  BSF    F93.5
0A8F0:  BTFSC  F81.5
0A8F2:  BRA    A91A
....................             delay_ms(20); 
0A8F4:  MOVLW  14
0A8F6:  MOVLB  3
0A8F8:  MOVWF  xC8
0A8FA:  MOVLB  0
0A8FC:  CALL   1C24
....................             if(RX_Buffer[4]==0x0b || DOWN){ 
0A900:  MOVF   34,W
0A902:  SUBLW  0B
0A904:  BZ    A90C
0A906:  BSF    F93.5
0A908:  BTFSC  F81.5
0A90A:  BRA    A91A
....................                if(Ajusten>0) 
0A90C:  MOVLB  3
0A90E:  MOVF   x10,F
0A910:  BZ    A914
....................                   Ajusten--; 
0A912:  DECF   x10,F
....................                RX_Buffer[4]=0x00; 
0A914:  CLRF   34
....................                RX_Buffer2[4]=0x00;             
0A916:  CLRF   3F
0A918:  MOVLB  0
....................                //BorraBuffer(); 
....................             } 
....................          } 
....................       }else if(Opcion2==7){ 
0A91A:  BRA    AC54
0A91C:  MOVLB  3
0A91E:  MOVF   x7D,W
0A920:  SUBLW  07
0A922:  BNZ   A9DA
....................          printf("Config.t2c.txt=\"Media\""); 
0A924:  MOVLW  38
0A926:  MOVWF  FF6
0A928:  MOVLW  1B
0A92A:  MOVWF  FF7
0A92C:  MOVLW  00
0A92E:  MOVWF  FF8
0A930:  MOVLB  0
0A932:  CALL   3510
....................          SendDataDisplay();       
0A936:  CALL   3542
....................          printf("t3c.txt=\"%u\"",MediaMovil); 
0A93A:  MOVLW  50
0A93C:  MOVWF  FF6
0A93E:  MOVLW  1B
0A940:  MOVWF  FF7
0A942:  MOVLW  00
0A944:  MOVWF  FF8
0A946:  MOVLW  09
0A948:  MOVLB  3
0A94A:  MOVWF  xC1
0A94C:  MOVLB  0
0A94E:  CALL   464A
0A952:  MOVFF  311,3BE
0A956:  MOVLW  1B
0A958:  MOVLB  3
0A95A:  MOVWF  xBF
0A95C:  MOVLB  0
0A95E:  CALL   46A8
0A962:  MOVLW  22
0A964:  BTFSS  F9E.4
0A966:  BRA    A964
0A968:  MOVWF  FAD
....................          SendDataDisplay(); 
0A96A:  CALL   3542
....................          if(RX_Buffer[4]==0x0a || UP){//Tecla Arriba Oprimida 
0A96E:  MOVF   34,W
0A970:  SUBLW  0A
0A972:  BZ    A97A
0A974:  BSF    F93.6
0A976:  BTFSC  F81.6
0A978:  BRA    A9A2
....................             delay_ms(20); 
0A97A:  MOVLW  14
0A97C:  MOVLB  3
0A97E:  MOVWF  xC8
0A980:  MOVLB  0
0A982:  CALL   1C24
....................             if(RX_Buffer[4]==0x0a || UP){ 
0A986:  MOVF   34,W
0A988:  SUBLW  0A
0A98A:  BZ    A992
0A98C:  BSF    F93.6
0A98E:  BTFSC  F81.6
0A990:  BRA    A9A2
....................                if(MediaMovil<80) 
0A992:  MOVLB  3
0A994:  MOVF   x11,W
0A996:  SUBLW  4F
0A998:  BNC   A99C
....................                   MediaMovil++; 
0A99A:  INCF   x11,F
....................                RX_Buffer[4]=0x00;   
0A99C:  CLRF   34
....................                RX_Buffer2[4]=0x00;             
0A99E:  CLRF   3F
0A9A0:  MOVLB  0
....................                //BorraBuffer(); 
....................             } 
....................          } 
....................              
....................          if(RX_Buffer[4]==0x0b || DOWN){//Tecla Abajo Oprimida 
0A9A2:  MOVF   34,W
0A9A4:  SUBLW  0B
0A9A6:  BZ    A9AE
0A9A8:  BSF    F93.5
0A9AA:  BTFSC  F81.5
0A9AC:  BRA    A9D6
....................             delay_ms(20); 
0A9AE:  MOVLW  14
0A9B0:  MOVLB  3
0A9B2:  MOVWF  xC8
0A9B4:  MOVLB  0
0A9B6:  CALL   1C24
....................             if(RX_Buffer[4]==0x0b || DOWN){ 
0A9BA:  MOVF   34,W
0A9BC:  SUBLW  0B
0A9BE:  BZ    A9C6
0A9C0:  BSF    F93.5
0A9C2:  BTFSC  F81.5
0A9C4:  BRA    A9D6
....................                if(MediaMovil>10) 
0A9C6:  MOVLB  3
0A9C8:  MOVF   x11,W
0A9CA:  SUBLW  0A
0A9CC:  BC    A9D0
....................                   MediaMovil--; 
0A9CE:  DECF   x11,F
....................                RX_Buffer[4]=0x00; 
0A9D0:  CLRF   34
....................                RX_Buffer2[4]=0x00;             
0A9D2:  CLRF   3F
0A9D4:  MOVLB  0
....................                //BorraBuffer(); 
....................             } 
....................          } 
....................       }else if(Opcion2==8){ 
0A9D6:  BRA    AC54
0A9D8:  MOVLB  3
0A9DA:  MOVF   x7D,W
0A9DC:  SUBLW  08
0A9DE:  BTFSS  FD8.2
0A9E0:  BRA    AB48
....................          printf("Config.t2c.txt=\"RPT100B\""); 
0A9E2:  MOVLW  5E
0A9E4:  MOVWF  FF6
0A9E6:  MOVLW  1B
0A9E8:  MOVWF  FF7
0A9EA:  MOVLW  00
0A9EC:  MOVWF  FF8
0A9EE:  MOVLB  0
0A9F0:  CALL   3510
....................          SendDataDisplay();       
0A9F4:  CALL   3542
....................          printf("t3c.txt=\"%2.1f\"",RPT100); 
0A9F8:  MOVLW  78
0A9FA:  MOVWF  FF6
0A9FC:  MOVLW  1B
0A9FE:  MOVWF  FF7
0AA00:  MOVLW  00
0AA02:  MOVWF  FF8
0AA04:  MOVLW  09
0AA06:  MOVLB  3
0AA08:  MOVWF  xC1
0AA0A:  MOVLB  0
0AA0C:  CALL   464A
0AA10:  MOVLW  01
0AA12:  MOVWF  FE9
0AA14:  MOVFF  2D8,3C4
0AA18:  MOVFF  2D7,3C3
0AA1C:  MOVFF  2D6,3C2
0AA20:  MOVFF  2D5,3C1
0AA24:  MOVLB  3
0AA26:  MOVWF  xC5
0AA28:  MOVLB  0
0AA2A:  CALL   4912
0AA2E:  MOVLW  22
0AA30:  BTFSS  F9E.4
0AA32:  BRA    AA30
0AA34:  MOVWF  FAD
....................          SendDataDisplay(); 
0AA36:  CALL   3542
....................          if(RX_Buffer[4]==0x0a || UP){//Tecla Arriba Oprimida 
0AA3A:  MOVF   34,W
0AA3C:  SUBLW  0A
0AA3E:  BZ    AA46
0AA40:  BSF    F93.6
0AA42:  BTFSC  F81.6
0AA44:  BRA    AAC0
....................             delay_ms(20); 
0AA46:  MOVLW  14
0AA48:  MOVLB  3
0AA4A:  MOVWF  xC8
0AA4C:  MOVLB  0
0AA4E:  CALL   1C24
....................             if(RX_Buffer[4]==0x0a || UP){ 
0AA52:  MOVF   34,W
0AA54:  SUBLW  0A
0AA56:  BZ    AA5E
0AA58:  BSF    F93.6
0AA5A:  BTFSC  F81.6
0AA5C:  BRA    AAC0
....................                if(RPT100<2.0) 
0AA5E:  MOVFF  2D8,3C4
0AA62:  MOVFF  2D7,3C3
0AA66:  MOVFF  2D6,3C2
0AA6A:  MOVFF  2D5,3C1
0AA6E:  MOVLB  3
0AA70:  CLRF   xC8
0AA72:  CLRF   xC7
0AA74:  CLRF   xC6
0AA76:  MOVLW  80
0AA78:  MOVWF  xC5
0AA7A:  MOVLB  0
0AA7C:  CALL   295E
0AA80:  BNC   AABC
....................                   RPT100+=0.1; 
0AA82:  BCF    FD8.1
0AA84:  MOVFF  2D8,3CB
0AA88:  MOVFF  2D7,3CA
0AA8C:  MOVFF  2D6,3C9
0AA90:  MOVFF  2D5,3C8
0AA94:  MOVLW  CD
0AA96:  MOVLB  3
0AA98:  MOVWF  xCF
0AA9A:  MOVLW  CC
0AA9C:  MOVWF  xCE
0AA9E:  MOVLW  4C
0AAA0:  MOVWF  xCD
0AAA2:  MOVLW  7B
0AAA4:  MOVWF  xCC
0AAA6:  MOVLB  0
0AAA8:  CALL   1DE0
0AAAC:  MOVFF  03,2D8
0AAB0:  MOVFF  02,2D7
0AAB4:  MOVFF  01,2D6
0AAB8:  MOVFF  00,2D5
....................                RX_Buffer[4]=0x00;   
0AABC:  CLRF   34
....................                RX_Buffer2[4]=0x00;             
0AABE:  CLRF   3F
....................                //BorraBuffer(); 
....................             } 
....................          } 
....................              
....................          if(RX_Buffer[4]==0x0b || DOWN){//Tecla Abajo Oprimida 
0AAC0:  MOVF   34,W
0AAC2:  SUBLW  0B
0AAC4:  BZ    AACC
0AAC6:  BSF    F93.5
0AAC8:  BTFSC  F81.5
0AACA:  BRA    AB44
....................             delay_ms(20); 
0AACC:  MOVLW  14
0AACE:  MOVLB  3
0AAD0:  MOVWF  xC8
0AAD2:  MOVLB  0
0AAD4:  CALL   1C24
....................             if(RX_Buffer[4]==0x0b || DOWN){ 
0AAD8:  MOVF   34,W
0AADA:  SUBLW  0B
0AADC:  BZ    AAE4
0AADE:  BSF    F93.5
0AAE0:  BTFSC  F81.5
0AAE2:  BRA    AB44
....................                if(RPT100>0.0) 
0AAE4:  MOVLB  3
0AAE6:  CLRF   xC4
0AAE8:  CLRF   xC3
0AAEA:  CLRF   xC2
0AAEC:  CLRF   xC1
0AAEE:  MOVFF  2D8,3C8
0AAF2:  MOVFF  2D7,3C7
0AAF6:  MOVFF  2D6,3C6
0AAFA:  MOVFF  2D5,3C5
0AAFE:  MOVLB  0
0AB00:  CALL   295E
0AB04:  BNC   AB40
....................                   RPT100-=0.1; 
0AB06:  BSF    FD8.1
0AB08:  MOVFF  2D8,3CB
0AB0C:  MOVFF  2D7,3CA
0AB10:  MOVFF  2D6,3C9
0AB14:  MOVFF  2D5,3C8
0AB18:  MOVLW  CD
0AB1A:  MOVLB  3
0AB1C:  MOVWF  xCF
0AB1E:  MOVLW  CC
0AB20:  MOVWF  xCE
0AB22:  MOVLW  4C
0AB24:  MOVWF  xCD
0AB26:  MOVLW  7B
0AB28:  MOVWF  xCC
0AB2A:  MOVLB  0
0AB2C:  CALL   1DE0
0AB30:  MOVFF  03,2D8
0AB34:  MOVFF  02,2D7
0AB38:  MOVFF  01,2D6
0AB3C:  MOVFF  00,2D5
....................                RX_Buffer[4]=0x00; 
0AB40:  CLRF   34
....................                RX_Buffer2[4]=0x00;             
0AB42:  CLRF   3F
....................                //BorraBuffer(); 
....................             } 
....................          } 
....................       }else if(Opcion2==9){ 
0AB44:  BRA    AC54
0AB46:  MOVLB  3
0AB48:  MOVF   x7D,W
0AB4A:  SUBLW  09
0AB4C:  BNZ   AC04
....................          printf("Config.t2c.txt=\"TTrampa\""); 
0AB4E:  MOVLW  88
0AB50:  MOVWF  FF6
0AB52:  MOVLW  1B
0AB54:  MOVWF  FF7
0AB56:  MOVLW  00
0AB58:  MOVWF  FF8
0AB5A:  MOVLB  0
0AB5C:  CALL   3510
....................          SendDataDisplay();       
0AB60:  CALL   3542
....................          printf("t3c.txt=\"%02u\"",TTrampa); 
0AB64:  MOVLW  A2
0AB66:  MOVWF  FF6
0AB68:  MOVLW  1B
0AB6A:  MOVWF  FF7
0AB6C:  MOVLW  00
0AB6E:  MOVWF  FF8
0AB70:  MOVLW  09
0AB72:  MOVLB  3
0AB74:  MOVWF  xC1
0AB76:  MOVLB  0
0AB78:  CALL   464A
0AB7C:  MOVFF  312,3BE
0AB80:  MOVLW  01
0AB82:  MOVLB  3
0AB84:  MOVWF  xBF
0AB86:  MOVLB  0
0AB88:  CALL   46A8
0AB8C:  MOVLW  22
0AB8E:  BTFSS  F9E.4
0AB90:  BRA    AB8E
0AB92:  MOVWF  FAD
....................          SendDataDisplay(); 
0AB94:  CALL   3542
....................          if(RX_Buffer[4]==0x0a || UP){//Tecla Arriba Oprimida 
0AB98:  MOVF   34,W
0AB9A:  SUBLW  0A
0AB9C:  BZ    ABA4
0AB9E:  BSF    F93.6
0ABA0:  BTFSC  F81.6
0ABA2:  BRA    ABCC
....................             delay_ms(20); 
0ABA4:  MOVLW  14
0ABA6:  MOVLB  3
0ABA8:  MOVWF  xC8
0ABAA:  MOVLB  0
0ABAC:  CALL   1C24
....................             if(RX_Buffer[4]==0x0a || UP){ 
0ABB0:  MOVF   34,W
0ABB2:  SUBLW  0A
0ABB4:  BZ    ABBC
0ABB6:  BSF    F93.6
0ABB8:  BTFSC  F81.6
0ABBA:  BRA    ABCC
....................                if(TTrampa<100) 
0ABBC:  MOVLB  3
0ABBE:  MOVF   x12,W
0ABC0:  SUBLW  63
0ABC2:  BNC   ABC6
....................                   TTrampa++; 
0ABC4:  INCF   x12,F
....................                RX_Buffer[4]=0x00;   
0ABC6:  CLRF   34
....................                RX_Buffer2[4]=0x00;             
0ABC8:  CLRF   3F
0ABCA:  MOVLB  0
....................                //BorraBuffer(); 
....................             } 
....................          } 
....................              
....................          if(RX_Buffer[4]==0x0b || DOWN){//Tecla Abajo Oprimida 
0ABCC:  MOVF   34,W
0ABCE:  SUBLW  0B
0ABD0:  BZ    ABD8
0ABD2:  BSF    F93.5
0ABD4:  BTFSC  F81.5
0ABD6:  BRA    AC00
....................             delay_ms(20); 
0ABD8:  MOVLW  14
0ABDA:  MOVLB  3
0ABDC:  MOVWF  xC8
0ABDE:  MOVLB  0
0ABE0:  CALL   1C24
....................             if(RX_Buffer[4]==0x0b || DOWN){ 
0ABE4:  MOVF   34,W
0ABE6:  SUBLW  0B
0ABE8:  BZ    ABF0
0ABEA:  BSF    F93.5
0ABEC:  BTFSC  F81.5
0ABEE:  BRA    AC00
....................                if(TTrampa>50) 
0ABF0:  MOVLB  3
0ABF2:  MOVF   x12,W
0ABF4:  SUBLW  32
0ABF6:  BC    ABFA
....................                   TTrampa--; 
0ABF8:  DECF   x12,F
....................                RX_Buffer[4]=0x00; 
0ABFA:  CLRF   34
....................                RX_Buffer2[4]=0x00;             
0ABFC:  CLRF   3F
0ABFE:  MOVLB  0
....................                //BorraBuffer(); 
....................             } 
....................          } 
....................       }else if(Opcion2==10){ 
0AC00:  BRA    AC54
0AC02:  MOVLB  3
0AC04:  MOVF   x7D,W
0AC06:  SUBLW  0A
0AC08:  BNZ   AC56
....................          printf("Config.t2c.txt=\"Ciclos\""); 
0AC0A:  MOVLW  B2
0AC0C:  MOVWF  FF6
0AC0E:  MOVLW  1B
0AC10:  MOVWF  FF7
0AC12:  MOVLW  00
0AC14:  MOVWF  FF8
0AC16:  MOVLB  0
0AC18:  CALL   3510
....................          SendDataDisplay();       
0AC1C:  CALL   3542
....................          printf("t3c.txt=\"%03Lu\"",Ciclos); 
0AC20:  MOVLW  CA
0AC22:  MOVWF  FF6
0AC24:  MOVLW  1B
0AC26:  MOVWF  FF7
0AC28:  MOVLW  00
0AC2A:  MOVWF  FF8
0AC2C:  MOVLW  09
0AC2E:  MOVLB  3
0AC30:  MOVWF  xC1
0AC32:  MOVLB  0
0AC34:  CALL   464A
0AC38:  MOVLW  0A
0AC3A:  MOVWF  FE9
0AC3C:  MOVFF  392,3BE
0AC40:  MOVFF  391,3BD
0AC44:  CALL   47A4
0AC48:  MOVLW  22
0AC4A:  BTFSS  F9E.4
0AC4C:  BRA    AC4A
0AC4E:  MOVWF  FAD
....................          SendDataDisplay(); 
0AC50:  CALL   3542
0AC54:  MOVLB  3
....................       } 
....................        
....................       if(RX_Buffer[4]==0x0c || LEFT){//Tecla Izquierda Oprimida 
0AC56:  MOVF   34,W
0AC58:  SUBLW  0C
0AC5A:  BZ    AC62
0AC5C:  BSF    F93.3
0AC5E:  BTFSC  F81.3
0AC60:  BRA    AC80
....................          delay_ms(20); 
0AC62:  MOVLW  14
0AC64:  MOVWF  xC8
0AC66:  MOVLB  0
0AC68:  CALL   1C24
....................          if(RX_Buffer[4]==0x0c || LEFT){ 
0AC6C:  MOVF   34,W
0AC6E:  SUBLW  0C
0AC70:  BZ    AC78
0AC72:  BSF    F93.3
0AC74:  BTFSC  F81.3
0AC76:  BRA    AC82
....................             Opcion2++; 
0AC78:  MOVLB  3
0AC7A:  INCF   x7D,F
....................             RX_Buffer[4]=0x00;   
0AC7C:  CLRF   34
....................             RX_Buffer2[4]=0x00;             
0AC7E:  CLRF   3F
0AC80:  MOVLB  0
....................             //BorraBuffer(); 
....................          } 
....................       } 
....................           
....................       if(RX_Buffer[4]==0x0d || RIGHT){//Tecla Derecha Oprimida 
0AC82:  MOVF   34,W
0AC84:  SUBLW  0D
0AC86:  BZ    AC8E
0AC88:  BSF    F93.4
0AC8A:  BTFSC  F81.4
0AC8C:  BRA    ACB0
....................          delay_ms(20); 
0AC8E:  MOVLW  14
0AC90:  MOVLB  3
0AC92:  MOVWF  xC8
0AC94:  MOVLB  0
0AC96:  CALL   1C24
....................          if(RX_Buffer[4]==0x0d || RIGHT){ 
0AC9A:  MOVF   34,W
0AC9C:  SUBLW  0D
0AC9E:  BZ    ACA6
0ACA0:  BSF    F93.4
0ACA2:  BTFSC  F81.4
0ACA4:  BRA    ACB0
....................             Opcion2--; 
0ACA6:  MOVLB  3
0ACA8:  DECF   x7D,F
....................             RX_Buffer[4]=0x00; 
0ACAA:  CLRF   34
....................             RX_Buffer2[4]=0x00;             
0ACAC:  CLRF   3F
0ACAE:  MOVLB  0
....................             //BorraBuffer(); 
....................          } 
....................       } 
....................        
....................       if(RX_Buffer[4]==0x11 || (RIGHT && LEFT)){//Tecla Regresar 
0ACB0:  MOVF   34,W
0ACB2:  SUBLW  11
0ACB4:  BZ    ACC2
0ACB6:  BSF    F93.4
0ACB8:  BTFSC  F81.4
0ACBA:  BRA    B02A
0ACBC:  BSF    F93.3
0ACBE:  BTFSC  F81.3
0ACC0:  BRA    B02A
....................          delay_ms(20); 
0ACC2:  MOVLW  14
0ACC4:  MOVLB  3
0ACC6:  MOVWF  xC8
0ACC8:  MOVLB  0
0ACCA:  CALL   1C24
....................          if(RX_Buffer[4]==0x11 || (RIGHT && LEFT)){ 
0ACCE:  MOVF   34,W
0ACD0:  SUBLW  11
0ACD2:  BZ    ACE0
0ACD4:  BSF    F93.4
0ACD6:  BTFSC  F81.4
0ACD8:  BRA    B02A
0ACDA:  BSF    F93.3
0ACDC:  BTFSC  F81.3
0ACDE:  BRA    B02A
....................             if(!GuardaEEPROM){ 
0ACE0:  BTFSC  xCC.3
0ACE2:  BRA    B016
....................                write_eeprom(20,(int8)Ganancia); 
0ACE4:  MOVFF  33A,3CB
0ACE8:  MOVFF  339,3CA
0ACEC:  MOVFF  338,3C9
0ACF0:  MOVFF  337,3C8
0ACF4:  CALL   3D9A
0ACF8:  MOVFF  01,3BD
0ACFC:  CLRF   FAA
0ACFE:  MOVLW  14
0AD00:  MOVWF  FA9
0AD02:  MOVFF  3BD,FA8
0AD06:  BCF    FA6.6
0AD08:  BCF    FA6.7
0AD0A:  BSF    FA6.2
0AD0C:  MOVF   FF2,W
0AD0E:  MOVWF  00
0AD10:  BCF    FF2.6
0AD12:  BCF    FF2.7
0AD14:  MOVLB  F
0AD16:  MOVLW  55
0AD18:  MOVWF  FA7
0AD1A:  MOVLW  AA
0AD1C:  MOVWF  FA7
0AD1E:  BSF    FA6.1
0AD20:  BTFSC  FA6.1
0AD22:  BRA    AD20
0AD24:  BCF    FA6.2
0AD26:  MOVF   00,W
0AD28:  IORWF  FF2,F
....................                delay_ms(10); 
0AD2A:  MOVLW  0A
0AD2C:  MOVLB  3
0AD2E:  MOVWF  xC8
0AD30:  MOVLB  0
0AD32:  CALL   1C24
....................                write_eeprom(26,(int8)Integral); 
0AD36:  CLRF   FAA
0AD38:  MOVLW  1A
0AD3A:  MOVWF  FA9
0AD3C:  MOVFF  367,FA8
0AD40:  BCF    FA6.6
0AD42:  BCF    FA6.7
0AD44:  BSF    FA6.2
0AD46:  MOVF   FF2,W
0AD48:  MOVWF  00
0AD4A:  BCF    FF2.6
0AD4C:  BCF    FF2.7
0AD4E:  MOVLB  F
0AD50:  MOVLW  55
0AD52:  MOVWF  FA7
0AD54:  MOVLW  AA
0AD56:  MOVWF  FA7
0AD58:  BSF    FA6.1
0AD5A:  BTFSC  FA6.1
0AD5C:  BRA    AD5A
0AD5E:  BCF    FA6.2
0AD60:  MOVF   00,W
0AD62:  IORWF  FF2,F
....................                delay_ms(10); 
0AD64:  MOVLW  0A
0AD66:  MOVLB  3
0AD68:  MOVWF  xC8
0AD6A:  MOVLB  0
0AD6C:  CALL   1C24
....................                write_eeprom(27,(int8)Derivativo); 
0AD70:  CLRF   FAA
0AD72:  MOVLW  1B
0AD74:  MOVWF  FA9
0AD76:  MOVFF  368,FA8
0AD7A:  BCF    FA6.6
0AD7C:  BCF    FA6.7
0AD7E:  BSF    FA6.2
0AD80:  MOVF   FF2,W
0AD82:  MOVWF  00
0AD84:  BCF    FF2.6
0AD86:  BCF    FF2.7
0AD88:  MOVLB  F
0AD8A:  MOVLW  55
0AD8C:  MOVWF  FA7
0AD8E:  MOVLW  AA
0AD90:  MOVWF  FA7
0AD92:  BSF    FA6.1
0AD94:  BTFSC  FA6.1
0AD96:  BRA    AD94
0AD98:  BCF    FA6.2
0AD9A:  MOVF   00,W
0AD9C:  IORWF  FF2,F
....................                delay_ms(10); 
0AD9E:  MOVLW  0A
0ADA0:  MOVLB  3
0ADA2:  MOVWF  xC8
0ADA4:  MOVLB  0
0ADA6:  CALL   1C24
....................                write_eeprom(25,(int8)Tciclo); 
0ADAA:  MOVFF  322,3CB
0ADAE:  MOVFF  321,3CA
0ADB2:  MOVFF  320,3C9
0ADB6:  MOVFF  31F,3C8
0ADBA:  CALL   3D9A
0ADBE:  MOVFF  01,3BD
0ADC2:  CLRF   FAA
0ADC4:  MOVLW  19
0ADC6:  MOVWF  FA9
0ADC8:  MOVFF  3BD,FA8
0ADCC:  BCF    FA6.6
0ADCE:  BCF    FA6.7
0ADD0:  BSF    FA6.2
0ADD2:  MOVF   FF2,W
0ADD4:  MOVWF  00
0ADD6:  BCF    FF2.6
0ADD8:  BCF    FF2.7
0ADDA:  MOVLB  F
0ADDC:  MOVLW  55
0ADDE:  MOVWF  FA7
0ADE0:  MOVLW  AA
0ADE2:  MOVWF  FA7
0ADE4:  BSF    FA6.1
0ADE6:  BTFSC  FA6.1
0ADE8:  BRA    ADE6
0ADEA:  BCF    FA6.2
0ADEC:  MOVF   00,W
0ADEE:  IORWF  FF2,F
....................                delay_ms(10); 
0ADF0:  MOVLW  0A
0ADF2:  MOVLB  3
0ADF4:  MOVWF  xC8
0ADF6:  MOVLB  0
0ADF8:  CALL   1C24
....................                write_eeprom(21,Ajuste); 
0ADFC:  CLRF   FAA
0ADFE:  MOVLW  15
0AE00:  MOVWF  FA9
0AE02:  MOVFF  30F,FA8
0AE06:  BCF    FA6.6
0AE08:  BCF    FA6.7
0AE0A:  BSF    FA6.2
0AE0C:  MOVF   FF2,W
0AE0E:  MOVWF  00
0AE10:  BCF    FF2.6
0AE12:  BCF    FF2.7
0AE14:  MOVLB  F
0AE16:  MOVLW  55
0AE18:  MOVWF  FA7
0AE1A:  MOVLW  AA
0AE1C:  MOVWF  FA7
0AE1E:  BSF    FA6.1
0AE20:  BTFSC  FA6.1
0AE22:  BRA    AE20
0AE24:  BCF    FA6.2
0AE26:  MOVF   00,W
0AE28:  IORWF  FF2,F
....................                delay_ms(10); 
0AE2A:  MOVLW  0A
0AE2C:  MOVLB  3
0AE2E:  MOVWF  xC8
0AE30:  MOVLB  0
0AE32:  CALL   1C24
....................                write_eeprom(22,Ajusten); 
0AE36:  CLRF   FAA
0AE38:  MOVLW  16
0AE3A:  MOVWF  FA9
0AE3C:  MOVFF  310,FA8
0AE40:  BCF    FA6.6
0AE42:  BCF    FA6.7
0AE44:  BSF    FA6.2
0AE46:  MOVF   FF2,W
0AE48:  MOVWF  00
0AE4A:  BCF    FF2.6
0AE4C:  BCF    FF2.7
0AE4E:  MOVLB  F
0AE50:  MOVLW  55
0AE52:  MOVWF  FA7
0AE54:  MOVLW  AA
0AE56:  MOVWF  FA7
0AE58:  BSF    FA6.1
0AE5A:  BTFSC  FA6.1
0AE5C:  BRA    AE5A
0AE5E:  BCF    FA6.2
0AE60:  MOVF   00,W
0AE62:  IORWF  FF2,F
....................                delay_ms(10); 
0AE64:  MOVLW  0A
0AE66:  MOVLB  3
0AE68:  MOVWF  xC8
0AE6A:  MOVLB  0
0AE6C:  CALL   1C24
....................                write_eeprom(24,(int8)MediaMovil); 
0AE70:  CLRF   FAA
0AE72:  MOVLW  18
0AE74:  MOVWF  FA9
0AE76:  MOVFF  311,FA8
0AE7A:  BCF    FA6.6
0AE7C:  BCF    FA6.7
0AE7E:  BSF    FA6.2
0AE80:  MOVF   FF2,W
0AE82:  MOVWF  00
0AE84:  BCF    FF2.6
0AE86:  BCF    FF2.7
0AE88:  MOVLB  F
0AE8A:  MOVLW  55
0AE8C:  MOVWF  FA7
0AE8E:  MOVLW  AA
0AE90:  MOVWF  FA7
0AE92:  BSF    FA6.1
0AE94:  BTFSC  FA6.1
0AE96:  BRA    AE94
0AE98:  BCF    FA6.2
0AE9A:  MOVF   00,W
0AE9C:  IORWF  FF2,F
....................                delay_ms(10); 
0AE9E:  MOVLW  0A
0AEA0:  MOVLB  3
0AEA2:  MOVWF  xC8
0AEA4:  MOVLB  0
0AEA6:  CALL   1C24
....................                write_eeprom(32,(int8)RPT100); 
0AEAA:  MOVFF  2D8,3CB
0AEAE:  MOVFF  2D7,3CA
0AEB2:  MOVFF  2D6,3C9
0AEB6:  MOVFF  2D5,3C8
0AEBA:  CALL   3D9A
0AEBE:  MOVFF  01,3BD
0AEC2:  CLRF   FAA
0AEC4:  MOVLW  20
0AEC6:  MOVWF  FA9
0AEC8:  MOVFF  3BD,FA8
0AECC:  BCF    FA6.6
0AECE:  BCF    FA6.7
0AED0:  BSF    FA6.2
0AED2:  MOVF   FF2,W
0AED4:  MOVWF  00
0AED6:  BCF    FF2.6
0AED8:  BCF    FF2.7
0AEDA:  MOVLB  F
0AEDC:  MOVLW  55
0AEDE:  MOVWF  FA7
0AEE0:  MOVLW  AA
0AEE2:  MOVWF  FA7
0AEE4:  BSF    FA6.1
0AEE6:  BTFSC  FA6.1
0AEE8:  BRA    AEE6
0AEEA:  BCF    FA6.2
0AEEC:  MOVF   00,W
0AEEE:  IORWF  FF2,F
....................                delay_ms(10); 
0AEF0:  MOVLW  0A
0AEF2:  MOVLB  3
0AEF4:  MOVWF  xC8
0AEF6:  MOVLB  0
0AEF8:  CALL   1C24
....................                Temporal=RPT100-((int8)RPT100); 
0AEFC:  MOVFF  2D8,3CB
0AF00:  MOVFF  2D7,3CA
0AF04:  MOVFF  2D6,3C9
0AF08:  MOVFF  2D5,3C8
0AF0C:  CALL   3D9A
0AF10:  MOVLB  3
0AF12:  CLRF   xC9
0AF14:  MOVFF  01,3C8
0AF18:  MOVLB  0
0AF1A:  CALL   1C4C
0AF1E:  BSF    FD8.1
0AF20:  MOVFF  2D8,3CB
0AF24:  MOVFF  2D7,3CA
0AF28:  MOVFF  2D6,3C9
0AF2C:  MOVFF  2D5,3C8
0AF30:  MOVFF  03,3CF
0AF34:  MOVFF  02,3CE
0AF38:  MOVFF  01,3CD
0AF3C:  MOVFF  00,3CC
0AF40:  CALL   1DE0
0AF44:  MOVFF  03,2DC
0AF48:  MOVFF  02,2DB
0AF4C:  MOVFF  01,2DA
0AF50:  MOVFF  00,2D9
....................                Temporal=Temporal*10; 
0AF54:  MOVFF  2DC,3D1
0AF58:  MOVFF  2DB,3D0
0AF5C:  MOVFF  2DA,3CF
0AF60:  MOVFF  2D9,3CE
0AF64:  MOVLB  3
0AF66:  CLRF   xD5
0AF68:  CLRF   xD4
0AF6A:  MOVLW  20
0AF6C:  MOVWF  xD3
0AF6E:  MOVLW  82
0AF70:  MOVWF  xD2
0AF72:  MOVLB  0
0AF74:  CALL   35F0
0AF78:  MOVFF  03,2DC
0AF7C:  MOVFF  02,2DB
0AF80:  MOVFF  01,2DA
0AF84:  MOVFF  00,2D9
....................                write_eeprom(33,(int8)Temporal); 
0AF88:  MOVFF  2DC,3CB
0AF8C:  MOVFF  2DB,3CA
0AF90:  MOVFF  2DA,3C9
0AF94:  MOVFF  2D9,3C8
0AF98:  CALL   3D9A
0AF9C:  MOVFF  01,3BD
0AFA0:  CLRF   FAA
0AFA2:  MOVLW  21
0AFA4:  MOVWF  FA9
0AFA6:  MOVFF  3BD,FA8
0AFAA:  BCF    FA6.6
0AFAC:  BCF    FA6.7
0AFAE:  BSF    FA6.2
0AFB0:  MOVF   FF2,W
0AFB2:  MOVWF  00
0AFB4:  BCF    FF2.6
0AFB6:  BCF    FF2.7
0AFB8:  MOVLB  F
0AFBA:  MOVLW  55
0AFBC:  MOVWF  FA7
0AFBE:  MOVLW  AA
0AFC0:  MOVWF  FA7
0AFC2:  BSF    FA6.1
0AFC4:  BTFSC  FA6.1
0AFC6:  BRA    AFC4
0AFC8:  BCF    FA6.2
0AFCA:  MOVF   00,W
0AFCC:  IORWF  FF2,F
....................                delay_ms(10); 
0AFCE:  MOVLW  0A
0AFD0:  MOVLB  3
0AFD2:  MOVWF  xC8
0AFD4:  MOVLB  0
0AFD6:  CALL   1C24
....................                write_eeprom(39,TTrampa); 
0AFDA:  CLRF   FAA
0AFDC:  MOVLW  27
0AFDE:  MOVWF  FA9
0AFE0:  MOVFF  312,FA8
0AFE4:  BCF    FA6.6
0AFE6:  BCF    FA6.7
0AFE8:  BSF    FA6.2
0AFEA:  MOVF   FF2,W
0AFEC:  MOVWF  00
0AFEE:  BCF    FF2.6
0AFF0:  BCF    FF2.7
0AFF2:  MOVLB  F
0AFF4:  MOVLW  55
0AFF6:  MOVWF  FA7
0AFF8:  MOVLW  AA
0AFFA:  MOVWF  FA7
0AFFC:  BSF    FA6.1
0AFFE:  BTFSC  FA6.1
0B000:  BRA    AFFE
0B002:  BCF    FA6.2
0B004:  MOVF   00,W
0B006:  IORWF  FF2,F
....................                delay_ms(10); 
0B008:  MOVLW  0A
0B00A:  MOVLB  3
0B00C:  MOVWF  xC8
0B00E:  MOVLB  0
0B010:  CALL   1C24
....................                GuardaEEPROM=ON; 
0B014:  BSF    xCC.3
....................             } 
....................             printf("page MenuPrincipal"); 
0B016:  MOVLW  DA
0B018:  MOVWF  FF6
0B01A:  MOVLW  1B
0B01C:  MOVWF  FF7
0B01E:  MOVLW  00
0B020:  MOVWF  FF8
0B022:  CALL   3510
....................             SendDataDisplay(); 
0B026:  CALL   3542
....................             //BorraBuffer(); 
....................          } 
....................       } 
....................       printf("fecha.txt=\"Fecha:%02u/%02u/20%02u    Hora: %02u:%02u\"",Dia,Mes,Year,Hora,Minuto); 
0B02A:  MOVLW  EE
0B02C:  MOVWF  FF6
0B02E:  MOVLW  1B
0B030:  MOVWF  FF7
0B032:  MOVLW  00
0B034:  MOVWF  FF8
0B036:  MOVLW  11
0B038:  MOVLB  3
0B03A:  MOVWF  xC1
0B03C:  MOVLB  0
0B03E:  CALL   464A
0B042:  MOVFF  3AC,3BE
0B046:  MOVLW  01
0B048:  MOVLB  3
0B04A:  MOVWF  xBF
0B04C:  MOVLB  0
0B04E:  CALL   46A8
0B052:  MOVLW  2F
0B054:  BTFSS  F9E.4
0B056:  BRA    B054
0B058:  MOVWF  FAD
0B05A:  MOVFF  3AB,3BE
0B05E:  MOVLW  01
0B060:  MOVLB  3
0B062:  MOVWF  xBF
0B064:  MOVLB  0
0B066:  CALL   46A8
0B06A:  MOVLW  2F
0B06C:  BTFSS  F9E.4
0B06E:  BRA    B06C
0B070:  MOVWF  FAD
0B072:  MOVLW  32
0B074:  BTFSS  F9E.4
0B076:  BRA    B074
0B078:  MOVWF  FAD
0B07A:  MOVLW  30
0B07C:  BTFSS  F9E.4
0B07E:  BRA    B07C
0B080:  MOVWF  FAD
0B082:  MOVFF  3AA,3BE
0B086:  MOVLW  01
0B088:  MOVLB  3
0B08A:  MOVWF  xBF
0B08C:  MOVLB  0
0B08E:  CALL   46A8
0B092:  MOVLW  0F
0B094:  MOVWF  FF6
0B096:  MOVLW  1C
0B098:  MOVWF  FF7
0B09A:  MOVLW  00
0B09C:  MOVWF  FF8
0B09E:  MOVLW  0A
0B0A0:  MOVLB  3
0B0A2:  MOVWF  xC1
0B0A4:  MOVLB  0
0B0A6:  CALL   464A
0B0AA:  MOVFF  3AD,3BE
0B0AE:  MOVLW  01
0B0B0:  MOVLB  3
0B0B2:  MOVWF  xBF
0B0B4:  MOVLB  0
0B0B6:  CALL   46A8
0B0BA:  MOVLW  3A
0B0BC:  BTFSS  F9E.4
0B0BE:  BRA    B0BC
0B0C0:  MOVWF  FAD
0B0C2:  MOVFF  3AE,3BE
0B0C6:  MOVLW  01
0B0C8:  MOVLB  3
0B0CA:  MOVWF  xBF
0B0CC:  MOVLB  0
0B0CE:  CALL   46A8
0B0D2:  MOVLW  22
0B0D4:  BTFSS  F9E.4
0B0D6:  BRA    B0D4
0B0D8:  MOVWF  FAD
....................       SendDataDisplay();  
0B0DA:  CALL   3542
0B0DE:  MOVLB  3
....................     } 
.................... //_--------------------------------------------------------------------------------------------------------------------------------------------------------        
....................  
....................    } 
0B0E0:  GOTO   5BB0
.................... } 
0B0E4:  SLEEP 

Configuration Fuses:
   Word  1: 0200   HS NOIESO NOFCMEN
   Word  2: 1B1F   BROWNOUT WDT BORV20 NOPUT WDT8192
   Word  3: 0000   NOPBADEN NOLPT1OSC NOMCLR
   Word  4: 00B0   NOSTVREN NODEBUG NOLVP NOXINST BBSIZ4K
   Word  5: C03F   NOPROTECT NOCPD NOCPB
   Word  6: E03F   NOWRT NOWRTD NOWRTC NOWRTB
   Word  7: 403F   NOEBTR NOEBTRB
