CCS PCH C Compiler, Version 4.104, 5967               04-dic.-20 10:41

               Filename: D:\Laboratorio\Autoclave\Autoclave Horizontal\Con Precamara\2020\Autoclave 160L Sucroal  OP2020326 #004588427\Firmware V4.0.4 - Reservorio-Presion-Decimal-200Ciclos-Caldera\GLCD_Controller_V3.0.1\GLCD_Controller.lst

               ROM used: 54828 bytes (56%)
                         Largest free fragment is 32768
               RAM used: 1098 (33%) at main() level
                         1126 (34%) worst case
               Stack:    5 worst case (4 in main + 1 for interrupts)

*
00000:  GOTO   6B14
*
00008:  GOTO   00BA
0000C:  NOP   
0000E:  NOP   
00010:  NOP   
00012:  NOP   
00014:  NOP   
00016:  NOP   
00018:  MOVWF  04
0001A:  MOVFF  FD8,05
0001E:  MOVFF  FE0,06
00022:  MOVLB  0
00024:  MOVFF  FE9,0C
00028:  MOVFF  FEA,07
0002C:  MOVFF  FE1,08
00030:  MOVFF  FE2,09
00034:  MOVFF  FD9,0A
00038:  MOVFF  FDA,0B
0003C:  MOVFF  FF3,12
00040:  MOVFF  FF4,13
00044:  MOVFF  FFA,14
00048:  MOVFF  FFB,15
0004C:  MOVFF  00,0E
00050:  MOVFF  01,0F
00054:  MOVFF  02,10
00058:  MOVFF  03,11
0005C:  BTFSS  FF2.5
0005E:  GOTO   0068
00062:  BTFSC  FF2.2
00064:  GOTO   03A8
00068:  BTFSS  F9D.0
0006A:  GOTO   0074
0006E:  BTFSC  F9E.0
00070:  GOTO   0400
00074:  MOVFF  0E,00
00078:  MOVFF  0F,01
0007C:  MOVFF  10,02
00080:  MOVFF  11,03
00084:  MOVFF  0C,FE9
00088:  MOVFF  07,FEA
0008C:  BSF    07.7
0008E:  MOVFF  08,FE1
00092:  MOVFF  09,FE2
00096:  MOVFF  0A,FD9
0009A:  MOVFF  0B,FDA
0009E:  MOVFF  12,FF3
000A2:  MOVFF  13,FF4
000A6:  MOVFF  14,FFA
000AA:  MOVFF  15,FFB
000AE:  MOVF   04,W
000B0:  MOVFF  06,FE0
000B4:  MOVFF  05,FD8
000B8:  RETFIE 0
000BA:  MOVWF  17
000BC:  MOVFF  FD8,18
000C0:  MOVFF  FE0,19
000C4:  MOVLB  0
000C6:  MOVFF  FE9,1F
000CA:  MOVFF  FEA,1A
000CE:  MOVFF  FE1,1B
000D2:  MOVFF  FE2,1C
000D6:  MOVFF  FD9,1D
000DA:  MOVFF  FDA,1E
000DE:  MOVFF  FF3,25
000E2:  MOVFF  FF4,26
000E6:  MOVFF  FFA,27
000EA:  MOVFF  FFB,28
000EE:  MOVFF  00,21
000F2:  MOVFF  01,22
000F6:  MOVFF  02,23
000FA:  MOVFF  03,24
000FE:  BTFSS  F9D.5
00100:  GOTO   010A
00104:  BTFSC  F9E.5
00106:  GOTO   033A
0010A:  MOVFF  21,00
0010E:  MOVFF  22,01
00112:  MOVFF  23,02
00116:  MOVFF  24,03
0011A:  MOVFF  1F,FE9
0011E:  MOVFF  1A,FEA
00122:  BSF    1A.7
00124:  MOVFF  1B,FE1
00128:  MOVFF  1C,FE2
0012C:  MOVFF  1D,FD9
00130:  MOVFF  1E,FDA
00134:  MOVFF  25,FF3
00138:  MOVFF  26,FF4
0013C:  MOVFF  27,FFA
00140:  MOVFF  28,FFB
00144:  MOVF   17,W
00146:  MOVFF  19,FE0
0014A:  MOVFF  18,FD8
0014E:  RETFIE 0
.................... //Falta crear menu de ajuste de variables y de norma CFR21 
....................  
.................... #include <18F4685.h> 
.................... //////// Standard Header file for the PIC18F4685 device //////////////// 
.................... #device PIC18F4685 
.................... #list 
....................  
.................... #device adc=10 
.................... #device HIGH_INTS=TRUE //Activamos niveles de prioridad 
.................... #fuses HS,WDT8192,NOPROTECT,NOLVP,NODEBUG,NOSTVREN,NOPUT,NOCPD,NOWRT,NOIESO,NOFCMEN,NOPBADEN,NOWRTC,NOWRTB,NOEBTR,NOEBTRB,NOCPB,NOXINST,NOLPT1OSC,NOMCLR 
.................... #use delay(clock=20000000) 
*
019B0:  MOVLW  04
019B2:  MOVWF  FEA
019B4:  MOVLW  54
019B6:  MOVWF  FE9
019B8:  MOVF   FEF,W
019BA:  BZ    19D6
019BC:  MOVLW  06
019BE:  MOVWF  01
019C0:  CLRF   00
019C2:  DECFSZ 00,F
019C4:  BRA    19C2
019C6:  DECFSZ 01,F
019C8:  BRA    19C0
019CA:  MOVLW  7B
019CC:  MOVWF  00
019CE:  DECFSZ 00,F
019D0:  BRA    19CE
019D2:  DECFSZ FEF,F
019D4:  BRA    19BC
019D6:  RETLW  00
.................... #use i2c(Master,slow,sda=PIN_C4,scl=PIN_C3) 
*
04198:  MOVLW  08
0419A:  MOVWF  01
0419C:  MOVLW  05
0419E:  MOVWF  00
041A0:  DECFSZ 00,F
041A2:  BRA    41A0
041A4:  BCF    F8B.3
041A6:  BCF    F94.3
041A8:  MOVLW  06
041AA:  MOVWF  00
041AC:  DECFSZ 00,F
041AE:  BRA    41AC
041B0:  MOVLB  4
041B2:  RLCF   x58,F
041B4:  BCF    F8B.4
041B6:  BTFSC  FD8.0
041B8:  BSF    F94.4
041BA:  BTFSS  FD8.0
041BC:  BCF    F94.4
041BE:  BSF    F94.3
041C0:  BTFSS  F82.3
041C2:  BRA    41C0
041C4:  DECFSZ 01,F
041C6:  BRA    41CA
041C8:  BRA    41CE
041CA:  MOVLB  0
041CC:  BRA    419C
041CE:  MOVLW  05
041D0:  MOVWF  00
041D2:  DECFSZ 00,F
041D4:  BRA    41D2
041D6:  BCF    F8B.3
041D8:  BCF    F94.3
041DA:  NOP   
041DC:  BSF    F94.4
041DE:  MOVLW  06
041E0:  MOVWF  00
041E2:  DECFSZ 00,F
041E4:  BRA    41E2
041E6:  MOVLW  06
041E8:  MOVWF  00
041EA:  DECFSZ 00,F
041EC:  BRA    41EA
041EE:  BSF    F94.3
041F0:  BTFSS  F82.3
041F2:  BRA    41F0
041F4:  CLRF   01
041F6:  MOVLW  06
041F8:  MOVWF  00
041FA:  DECFSZ 00,F
041FC:  BRA    41FA
041FE:  BTFSC  F82.4
04200:  BSF    01.0
04202:  BCF    F8B.3
04204:  BCF    F94.3
04206:  BCF    F8B.4
04208:  BCF    F94.4
0420A:  MOVLB  0
0420C:  RETLW  00
*
04E92:  MOVLW  08
04E94:  MOVLB  4
04E96:  MOVWF  x48
04E98:  MOVFF  00,449
04E9C:  BSF    F94.4
04E9E:  MOVLW  06
04EA0:  MOVWF  00
04EA2:  DECFSZ 00,F
04EA4:  BRA    4EA2
04EA6:  BSF    F94.3
04EA8:  BTFSS  F82.3
04EAA:  BRA    4EA8
04EAC:  BTFSC  F82.4
04EAE:  BSF    FD8.0
04EB0:  BTFSS  F82.4
04EB2:  BCF    FD8.0
04EB4:  RLCF   01,F
04EB6:  MOVLW  05
04EB8:  MOVWF  00
04EBA:  DECFSZ 00,F
04EBC:  BRA    4EBA
04EBE:  BCF    F94.3
04EC0:  BCF    F8B.3
04EC2:  DECFSZ x48,F
04EC4:  BRA    4E9C
04EC6:  BSF    F94.4
04EC8:  MOVLW  06
04ECA:  MOVWF  00
04ECC:  DECFSZ 00,F
04ECE:  BRA    4ECC
04ED0:  BCF    F8B.4
04ED2:  MOVF   x49,W
04ED4:  BTFSS  FD8.2
04ED6:  BCF    F94.4
04ED8:  NOP   
04EDA:  BSF    F94.3
04EDC:  BTFSS  F82.3
04EDE:  BRA    4EDC
04EE0:  MOVLW  05
04EE2:  MOVWF  00
04EE4:  DECFSZ 00,F
04EE6:  BRA    4EE4
04EE8:  BCF    F8B.3
04EEA:  BCF    F94.3
04EEC:  MOVLW  06
04EEE:  MOVWF  00
04EF0:  DECFSZ 00,F
04EF2:  BRA    4EF0
04EF4:  BCF    F8B.4
04EF6:  BCF    F94.4
04EF8:  MOVLB  0
04EFA:  GOTO   4F80 (RETURN)
.................... #use rs232(baud=9600, xmit=PIN_C6, rcv=PIN_C7, bits=8, parity=N) 
*
0386C:  BTFSS  F9E.4
0386E:  BRA    386C
03870:  MOVWF  FAD
03872:  RETLW  00
.................... //#include "HDM64GS12.c" 
.................... //#include "GRAPHICS.c" 
.................... ///#include "imagen.h" 
.................... #include <stdio.h> 
.................... /////////////////////////////////////////////////////////////////////////// 
.................... ////        (C) Copyright 1996,2003 Custom Computer Services           //// 
.................... //// This source code may only be used by licensed users of the CCS C  //// 
.................... //// compiler.  This source code may only be distributed to other      //// 
.................... //// licensed users of the CCS C compiler.  No other use, reproduction //// 
.................... //// or distribution is permitted without written permission.          //// 
.................... //// Derivative programs created using this software in object code    //// 
.................... //// form are not restricted in any way.                               //// 
.................... /////////////////////////////////////////////////////////////////////////// 
....................  
.................... #ifndef _STDIO 
.................... #define _STDIO 
.................... #include <string.h> 
.................... //////////////////////////////////////////////////////////////////////////// 
.................... ////        (C) Copyright 1996,2008 Custom Computer Services            //// 
.................... //// This source code may only be used by licensed users of the CCS C   //// 
.................... //// compiler.  This source code may only be distributed to other       //// 
.................... //// licensed users of the CCS C compiler.  No other use, reproduction  //// 
.................... //// or distribution is permitted without written permission.           //// 
.................... //// Derivative programs created using this software in object code     //// 
.................... //// form are not restricted in any way.                                //// 
.................... //////////////////////////////////////////////////////////////////////////// 
....................  
.................... #ifndef _STRING 
.................... #define _STRING 
.................... #include <stddef.h> 
.................... /////////////////////////////////////////////////////////////////////////// 
.................... ////        (C) Copyright 1996,2003 Custom Computer Services           //// 
.................... //// This source code may only be used by licensed users of the CCS C  //// 
.................... //// compiler.  This source code may only be distributed to other      //// 
.................... //// licensed users of the CCS C compiler.  No other use, reproduction //// 
.................... //// or distribution is permitted without written permission.          //// 
.................... //// Derivative programs created using this software in object code    //// 
.................... //// form are not restricted in any way.                               //// 
.................... /////////////////////////////////////////////////////////////////////////// 
....................  
.................... #ifndef _STDDEF 
....................  
.................... #define _STDDEF 
....................  
.................... #if sizeof(unsigned int8 *)==1 
.................... #define ptrdiff_t unsigned int8 
.................... #else 
.................... #define ptrdiff_t unsigned int16 
.................... #endif 
....................  
.................... #define size_t unsigned int8 
.................... #define wchar_t char 
.................... #define NULL 0 
....................  
.................... #define offsetof(s,f) (offsetofbit(s,f)/8) 
....................  
.................... #endif 
....................  
.................... #include <ctype.h> 
.................... //////////////////////////////////////////////////////////////////////////// 
.................... ////        (C) Copyright 1996,2003 Custom Computer Services            //// 
.................... //// This source code may only be used by licensed users of the CCS C   //// 
.................... //// compiler.  This source code may only be distributed to other       //// 
.................... //// licensed users of the CCS C compiler.  No other use, reproduction  //// 
.................... //// or distribution is permitted without written permission.           //// 
.................... //// Derivative programs created using this software in object code     //// 
.................... //// form are not restricted in any way.                                //// 
.................... //////////////////////////////////////////////////////////////////////////// 
....................  
.................... #ifndef _CTYPE 
.................... #define _CTYPE 
....................  
.................... #define islower(x)  isamong(x,"abcdefghijklmnopqrstuvwxyz") 
.................... #define isupper(x)  isamong(x,"ABCDEFGHIJKLMNOPQRSTUVWXYZ") 
.................... #define isalnum(x)  isamong(x,"0123456789ABCDEFGHIJKLMNOPQRSTUVWXYZabcdefghijklmnopqrstuvwxyz") 
.................... #define isalpha(x)  isamong(x,"ABCDEFGHIJKLMNOPQRSTUVWXYZabcdefghijklmnopqrstuvwxyz") 
.................... #define isdigit(x)  isamong(x,"0123456789") 
.................... #define isspace(x)  ((x)==' ') 
.................... #define isxdigit(x) isamong(x,"0123456789ABCDEFabcdef") 
.................... #define iscntrl(x)  ((x)<' ') 
.................... #define isprint(x)  ((x)>=' ') 
.................... #define isgraph(x)  ((x)>' ') 
.................... #define ispunct(x)  (((x)>' ')&&!isalnum(x)) 
....................  
.................... #endif 
....................  
....................  
....................  
....................  
....................  
.................... ////////////////////////////////////////////// 
.................... //// Uncomment the following define to    //// 
.................... //// allow some functions to use a        //// 
.................... //// quicker algorithm, but use more ROM  //// 
.................... ////                                      //// 
.................... //// #define FASTER_BUT_MORE_ROM          //// 
.................... ////////////////////////////////////////////// 
....................  
....................  
....................  
.................... /*Copying functions*/ 
.................... /* standard template: 
....................    void *memmove(void *s1, void *s2, size_t n). 
....................    Copies max of n characters safely (not following ending '\0') 
....................    from s2 in s1; if s2 has less than n characters, appends 0 */ 
....................  
.................... char *memmove(void *s1,char *s2,size_t n) 
.................... { 
....................    char *sc1; 
....................    char *sc2; 
....................    sc1=s1; 
....................    sc2=s2; 
....................    if(sc2<sc1 && sc1 <sc2 +n) 
....................       for(sc1+=n,sc2+=n;0<n;--n) 
....................          *--sc1=*--sc2; 
....................    else 
....................       for(;0<n;--n) 
....................          *sc1++=*sc2++; 
....................   return s1; 
....................   } 
....................  
.................... /* Standard template: char *strcpy(char *s1, const char *s2) 
....................    copies the string s2 including the null character to s1. 
....................    This is a compiler built in to handle the different address 
....................    spaces */ 
....................  
.................... #define strcopy strcpy 
....................  
.................... /* standard template: 
....................    char *strncpy(char *s1, const char *s2, size_t n). 
....................    Copies max of n characters (not following ending '\0') 
....................    from s2 in s1; if s2 has less than n characters, appends 0 */ 
....................  
.................... char *strncpy(char *s1, char *s2, size_t n) 
.................... { 
....................   char *s; 
....................  
....................   for (s = s1; n > 0 && *s2 != '\0'; n--) 
....................      *s++ = *s2++; 
....................   for (; n > 0; n--) 
....................      *s++ = '\0'; 
....................  
....................   return(s1); 
.................... } 
.................... /***********************************************************/ 
....................  
.................... /*concatenation functions*/ 
.................... /* standard template: char *strcat(char *s1, const char *s2) 
.................... appends s2 to s1*/ 
....................  
.................... char *strcat(char *s1, char *s2) 
.................... { 
....................    char *s; 
....................  
....................    for (s = s1; *s != '\0'; ++s); 
....................    while(*s2 != '\0') 
....................    { 
....................       *s = *s2; 
....................       ++s; 
....................       ++s2; 
....................    } 
....................  
....................    *s = '\0'; 
....................    return(s1); 
.................... } 
.................... /* standard template: char *strncat(char *s1, char *s2,size_t n) 
.................... appends not more than n characters from s2 to s1*/ 
....................  
.................... char *strncat(char *s1, char *s2, size_t n) 
.................... { 
....................    char *s; 
....................  
....................    for (s = s1; *s != '\0'; ++s); 
....................    while(*s2 != '\0' && 0<n) 
....................    { 
....................       *s = *s2; 
....................       ++s; 
....................       ++s2; 
....................       --n; 
....................    } 
....................  
....................    *s = '\0'; 
....................    return(s1); 
.................... } 
....................  
.................... /***********************************************************/ 
....................  
....................  
.................... /*comparison functions*/ 
.................... /* standard template: signed int memcmp(void *s1, void *s2). 
....................    Compares s1 & s2; returns -1 if s1<s2, 0 if s1=s2, 1 if s1>s2 */ 
....................  
.................... signed int8 memcmp(void * s1,char *s2,size_t n) 
.................... { 
.................... char *su1, *su2; 
.................... for(su1=s1, su2=s2; 0<n; ++su1, ++su2, --n) 
.................... { 
....................    if(*su1!=*su2) 
....................       return ((*su1<*su2)?-1:+1); 
.................... } 
.................... return 0; 
.................... } 
....................  
.................... /* standard template: int strcmp(const char *s1, const char *s2). 
....................    Compares s1 & s2; returns -1 if s1<s2, 0 if s1=s2, 1 if s1>s2 */ 
....................  
.................... signed int8 strcmp(char *s1, char *s2) 
.................... { 
....................    for (; *s1 == *s2; s1++, s2++) 
....................       if (*s1 == '\0') 
....................          return(0); 
....................    return((*s1 < *s2) ? -1: 1); 
.................... } 
.................... /* standard template: int strcoll(const char *s1, const char *s2). 
....................    Compares s1 & s2; returns -1 if s1<s2, 0 if s1=s2, 1 if s1>s2 */ 
....................  
.................... signed int8 strcoll(char *s1, char *s2) 
.................... { 
....................    for (; *s1 == *s2; s1++, s2++) 
....................       if (*s1 == '\0') 
....................          return(0); 
....................    return((*s1 < *s2) ? -1: 1); 
.................... } 
....................  
.................... /* standard template: 
....................    int strncmp(const char *s1, const char *s2, size_t n). 
....................    Compares max of n characters (not following 0) from s1 to s2; 
....................    returns same as strcmp */ 
....................  
.................... signed int8 strncmp(char *s1, char *s2, size_t n) 
.................... { 
....................    for (; n > 0; s1++, s2++, n--) 
....................       if (*s1 != *s2) 
....................          return((*s1 <*s2) ? -1: 1); 
....................       else if (*s1 == '\0') 
....................          return(0); 
....................    return(0); 
.................... } 
.................... /* standard template: 
....................    int strxfrm(const char *s1, const char *s2, size_t n). 
....................    transforms maximum of n characters from s2 and places them into s1*/ 
.................... size_t strxfrm(char *s1, char *s2, size_t n) 
.................... { 
....................   char *s; 
....................   unsigned int8 n1; 
....................   n1=n; 
....................   for (s = s1; n > 0 && *s2 != '\0'; n--) 
....................      *s++ = *s2++; 
....................   for (; n > 0; n--) 
....................      *s++ = '\0'; 
....................  
....................   return(n1); 
.................... } 
....................  
....................  
....................  
....................  
....................  
.................... /***********************************************************/ 
.................... /*Search functions*/ 
.................... /* standard template: void *memchr(const char *s, int c). 
....................    Finds first occurrence of c in n characters of s */ 
....................  
.................... char *memchr(void *s,unsigned int8 c,size_t n) 
.................... { 
....................    char uc; 
....................    char *su; 
....................    uc=c; 
....................    for(su=s;0<n;++su,--n) 
....................       if(*su==uc) 
....................       return su; 
....................    return NULL; 
.................... } 
....................  
.................... /* standard template: char *strchr(const char *s, int c). 
....................    Finds first occurrence of c in s */ 
....................  
.................... char *strchr(char *s, unsigned int8 c) 
.................... { 
....................    for (; *s != c; s++) 
....................       if (*s == '\0') 
....................          return(0); 
....................    return(s); 
.................... } 
.................... /* standard template: 
....................    size_t strcspn(const char *s1, const char *s2). 
....................    Computes length of max initial segment of s1 that 
....................    consists entirely of characters NOT from s2*/ 
....................  
.................... unsigned int8  strcspn(char *s1, char *s2) 
.................... { 
....................    char *sc1, *sc2; 
....................  
....................    for (sc1 = s1; *sc1 != 0; sc1++) 
....................       for (sc2 = s2; *sc2 != 0; sc2++) 
....................          if (*sc1 == *sc2) 
....................             return(sc1 - s1); 
....................    return(sc1 - s1); 
.................... } 
.................... /* standard template: 
....................    char *strpbrk(const char *s1, const char *s2). 
....................    Locates first occurence of any character from s2 in s1; 
....................    returns s1 if s2 is empty string */ 
....................  
.................... char *strpbrk(char *s1, char *s2) 
.................... { 
....................    char *sc1, *sc2; 
....................  
....................    for (sc1 = s1; *sc1 != 0; sc1++) 
....................       for (sc2 = s2; *sc2 != 0; sc2++) 
....................          if (*sc1 == *sc2) 
....................             return(sc1); 
....................    return(0); 
.................... } 
....................  
....................  
.................... /* standard template: char *strrchr(const char *s, int c). 
....................    Finds last occurrence of c in s */ 
....................  
.................... char *strrchr(char *s, unsigned int8 c) 
.................... { 
....................    char *p; 
....................  
....................    for (p = 0; ; s++) 
....................    { 
....................       if (*s == c) 
....................          p = s; 
....................       if (*s == '\0') 
....................          return(p); 
....................    } 
.................... } 
.................... /* computes length of max initial segment of s1 consisting 
....................    entirely of characters from s2 */ 
....................  
.................... unsigned int8  strspn(char *s1, char *s2) 
.................... { 
....................    char *sc1, *sc2; 
....................  
....................    for (sc1 = s1; *sc1 != 0; sc1++) 
....................       for (sc2 = s2; ; sc2++) 
....................     if (*sc2 == '\0') 
....................        return(sc1 - s1); 
....................          else if (*sc1 == *sc2) 
....................             break; 
....................    return(sc1 - s1); 
.................... } 
.................... /* standard template: 
....................    char *strstr(const char *s1, const char *s2); 
....................    Locates first occurence of character sequence s2 in s1; 
....................    returns 0 if s2 is empty string 
....................  
....................    Uncomment #define FASTER_BUT_MORE_ROM at the top of the 
....................    file to use the faster algorithm */ 
.................... char *strstr(char *s1, char *s2) 
.................... { 
....................    char *s, *t; 
....................  
....................    #ifdef FASTER_BUT_MORE_ROM 
....................    if (*s2 == '\0') 
....................          return(s1); 
....................    #endif 
....................  
....................    while (*s1) 
....................    { 
....................       for(s = s1, t = s2; *t && (*s == *t); ++s, ++t); 
....................  
....................       if (*t == '\0') 
....................          return s1; 
....................       ++s1; 
....................       #ifdef FASTER_BUT_MORE_ROM 
....................          while(*s1 != '\0' && *s1 != *s2) 
....................             ++s1; 
....................       #endif 
....................    } 
....................    return 0; 
.................... } 
....................  
.................... /* standard template: char *strtok(char *s1, const char *s2). 
....................  
....................    Finds next token in s1 delimited by a character from separator 
....................    string s2 (which can be different from call to call).  First call 
....................    starts at beginning of s1 searching for first character NOT 
....................    contained in s2; returns 0 if none is found. 
....................    If one is found, it is the start of first token (return value). 
....................    Function then searches from there for a character contained in s2. 
....................    If none is found, current token extends to end of s1, and subsequent 
....................    searches for a token will return 0.  If one is found, it is 
....................    overwritten by '\0', which terminates current token.  Function saves 
....................    pointer to following character from which next search will start. 
....................    Each subsequent call, with 0 as first argument, starts searching 
....................    from saved pointer */ 
....................  
.................... char *strtok(char *s1, char *s2) 
.................... { 
....................    char *beg, *end; 
....................    static char *save; 
....................  
....................    beg = (s1)? s1: save; 
....................    beg += strspn(beg, s2); 
....................    if (*beg == '\0') 
....................    { 
....................       *save = ' '; 
....................       return(0); 
....................    } 
....................    end = strpbrk(beg, s2); 
....................    if (*end != '\0') 
....................    { 
....................       *end = '\0'; 
....................       end++; 
....................    } 
....................    save = end; 
....................    return(beg); 
.................... } 
....................  
.................... /*****************************************************************/ 
.................... /*Miscellaneous functions*/ 
.................... /* standard template 
.................... maps error number in errnum to an error message string 
.................... Returns: Pointer to string 
.................... */ 
.................... #ifdef _ERRNO 
.................... char * strerror(unsigned int8 errnum) 
.................... { 
.................... char s[15]; 
.................... switch( errnum) 
.................... { 
.................... case 0: 
....................    strcpy(s,"no errors"); 
....................    return s; 
.................... case EDOM : 
....................    strcpy(s,"domain error"); 
....................    return s; 
.................... case ERANGE: 
....................    strcpy(s,"range error"); 
....................    return s; 
.................... } 
.................... } 
.................... #ENDIF 
.................... /* standard template: size_t strlen(const char *s). 
....................    Computes length of s1 (preceding terminating 0) */ 
....................  
.................... unsigned int8 strlen(char *s) 
.................... { 
....................    char *sc; 
....................  
....................    for (sc = s; *sc != 0; sc++); 
....................    return(sc - s); 
.................... } 
....................  
.................... /* standard template: size_t stricmp(const char *s1, const char *s2). 
....................    Compares s1 to s2 ignoring case (upper vs. lower) */ 
....................  
.................... signed int8 stricmp(char *s1, char *s2) 
.................... { 
....................  for(; *s1==*s2||(isalpha(*s1)&&isalpha(*s2)&&(*s1==*s2+32||*s2==*s1+32)); 
....................     s1++, s2++) 
....................     if (*s1 == '\0') 
....................        return(0); 
....................  return((*s1 < *s2) ? -1: 1); 
.................... } 
....................  
....................  
.................... /* standard template: char *strlwr(char *s). 
....................    Replaces uppercase letters by lowercase; 
....................    returns pointer to new string s */ 
....................  
.................... char *strlwr(char *s) 
.................... { 
....................    char *p; 
....................  
....................    for (p = s; *p != '\0'; p++) 
....................       if (*p >= 'A' && *p <='Z') 
....................          *p += 'a' - 'A'; 
....................    return(s); 
.................... } 
....................  
....................  
.................... /************************************************************/ 
....................  
....................  
.................... #endif 
....................  
.................... #ifndef getc 
.................... #define getc getch 
.................... #define getchar getch 
.................... #define puts(s) {printf(s); putchar(13); putchar(10);} 
.................... #define putc putchar 
.................... #endif 
.................... /* maps error number to an error message. Writes a sequence of characters to 
.................... stderr stream thus: if s is not null then string pointed to by s follwed by 
.................... a colon (:) and a space and the appropriate error message returned by strerror 
.................... function with argument errno 
....................  
.................... Returns: no value 
.................... */ 
....................  
.................... #ifdef _ERRNO 
.................... void perror(char *s) 
.................... { 
....................   if(s) 
....................   fprintf(STDERR,"%s: ",s); 
....................   fprintf(STDERR,"%s\r\n",strerror(errno)); 
.................... } 
.................... #endif 
.................... #endif 
....................  
.................... #include <string.h> 
.................... //////////////////////////////////////////////////////////////////////////// 
.................... ////        (C) Copyright 1996,2008 Custom Computer Services            //// 
.................... //// This source code may only be used by licensed users of the CCS C   //// 
.................... //// compiler.  This source code may only be distributed to other       //// 
.................... //// licensed users of the CCS C compiler.  No other use, reproduction  //// 
.................... //// or distribution is permitted without written permission.           //// 
.................... //// Derivative programs created using this software in object code     //// 
.................... //// form are not restricted in any way.                                //// 
.................... //////////////////////////////////////////////////////////////////////////// 
....................  
.................... #ifndef _STRING 
.................... #define _STRING 
.................... #include <stddef.h> 
.................... #include <ctype.h> 
....................  
....................  
....................  
.................... ////////////////////////////////////////////// 
.................... //// Uncomment the following define to    //// 
.................... //// allow some functions to use a        //// 
.................... //// quicker algorithm, but use more ROM  //// 
.................... ////                                      //// 
.................... //// #define FASTER_BUT_MORE_ROM          //// 
.................... ////////////////////////////////////////////// 
....................  
....................  
....................  
.................... /*Copying functions*/ 
.................... /* standard template: 
....................    void *memmove(void *s1, void *s2, size_t n). 
....................    Copies max of n characters safely (not following ending '\0') 
....................    from s2 in s1; if s2 has less than n characters, appends 0 */ 
....................  
.................... char *memmove(void *s1,char *s2,size_t n) 
.................... { 
....................    char *sc1; 
....................    char *sc2; 
....................    sc1=s1; 
....................    sc2=s2; 
....................    if(sc2<sc1 && sc1 <sc2 +n) 
....................       for(sc1+=n,sc2+=n;0<n;--n) 
....................          *--sc1=*--sc2; 
....................    else 
....................       for(;0<n;--n) 
....................          *sc1++=*sc2++; 
....................   return s1; 
....................   } 
....................  
.................... /* Standard template: char *strcpy(char *s1, const char *s2) 
....................    copies the string s2 including the null character to s1. 
....................    This is a compiler built in to handle the different address 
....................    spaces */ 
....................  
.................... #define strcopy strcpy 
....................  
.................... /* standard template: 
....................    char *strncpy(char *s1, const char *s2, size_t n). 
....................    Copies max of n characters (not following ending '\0') 
....................    from s2 in s1; if s2 has less than n characters, appends 0 */ 
....................  
.................... char *strncpy(char *s1, char *s2, size_t n) 
.................... { 
....................   char *s; 
....................  
....................   for (s = s1; n > 0 && *s2 != '\0'; n--) 
....................      *s++ = *s2++; 
....................   for (; n > 0; n--) 
....................      *s++ = '\0'; 
....................  
....................   return(s1); 
.................... } 
.................... /***********************************************************/ 
....................  
.................... /*concatenation functions*/ 
.................... /* standard template: char *strcat(char *s1, const char *s2) 
.................... appends s2 to s1*/ 
....................  
.................... char *strcat(char *s1, char *s2) 
.................... { 
....................    char *s; 
....................  
....................    for (s = s1; *s != '\0'; ++s); 
....................    while(*s2 != '\0') 
....................    { 
....................       *s = *s2; 
....................       ++s; 
....................       ++s2; 
....................    } 
....................  
....................    *s = '\0'; 
....................    return(s1); 
.................... } 
.................... /* standard template: char *strncat(char *s1, char *s2,size_t n) 
.................... appends not more than n characters from s2 to s1*/ 
....................  
.................... char *strncat(char *s1, char *s2, size_t n) 
.................... { 
....................    char *s; 
....................  
....................    for (s = s1; *s != '\0'; ++s); 
....................    while(*s2 != '\0' && 0<n) 
....................    { 
....................       *s = *s2; 
....................       ++s; 
....................       ++s2; 
....................       --n; 
....................    } 
....................  
....................    *s = '\0'; 
....................    return(s1); 
.................... } 
....................  
.................... /***********************************************************/ 
....................  
....................  
.................... /*comparison functions*/ 
.................... /* standard template: signed int memcmp(void *s1, void *s2). 
....................    Compares s1 & s2; returns -1 if s1<s2, 0 if s1=s2, 1 if s1>s2 */ 
....................  
.................... signed int8 memcmp(void * s1,char *s2,size_t n) 
.................... { 
.................... char *su1, *su2; 
.................... for(su1=s1, su2=s2; 0<n; ++su1, ++su2, --n) 
.................... { 
....................    if(*su1!=*su2) 
....................       return ((*su1<*su2)?-1:+1); 
.................... } 
.................... return 0; 
.................... } 
....................  
.................... /* standard template: int strcmp(const char *s1, const char *s2). 
....................    Compares s1 & s2; returns -1 if s1<s2, 0 if s1=s2, 1 if s1>s2 */ 
....................  
.................... signed int8 strcmp(char *s1, char *s2) 
.................... { 
....................    for (; *s1 == *s2; s1++, s2++) 
....................       if (*s1 == '\0') 
....................          return(0); 
....................    return((*s1 < *s2) ? -1: 1); 
.................... } 
.................... /* standard template: int strcoll(const char *s1, const char *s2). 
....................    Compares s1 & s2; returns -1 if s1<s2, 0 if s1=s2, 1 if s1>s2 */ 
....................  
.................... signed int8 strcoll(char *s1, char *s2) 
.................... { 
....................    for (; *s1 == *s2; s1++, s2++) 
....................       if (*s1 == '\0') 
....................          return(0); 
....................    return((*s1 < *s2) ? -1: 1); 
.................... } 
....................  
.................... /* standard template: 
....................    int strncmp(const char *s1, const char *s2, size_t n). 
....................    Compares max of n characters (not following 0) from s1 to s2; 
....................    returns same as strcmp */ 
....................  
.................... signed int8 strncmp(char *s1, char *s2, size_t n) 
.................... { 
....................    for (; n > 0; s1++, s2++, n--) 
....................       if (*s1 != *s2) 
....................          return((*s1 <*s2) ? -1: 1); 
....................       else if (*s1 == '\0') 
....................          return(0); 
....................    return(0); 
.................... } 
.................... /* standard template: 
....................    int strxfrm(const char *s1, const char *s2, size_t n). 
....................    transforms maximum of n characters from s2 and places them into s1*/ 
.................... size_t strxfrm(char *s1, char *s2, size_t n) 
.................... { 
....................   char *s; 
....................   unsigned int8 n1; 
....................   n1=n; 
....................   for (s = s1; n > 0 && *s2 != '\0'; n--) 
....................      *s++ = *s2++; 
....................   for (; n > 0; n--) 
....................      *s++ = '\0'; 
....................  
....................   return(n1); 
.................... } 
....................  
....................  
....................  
....................  
....................  
.................... /***********************************************************/ 
.................... /*Search functions*/ 
.................... /* standard template: void *memchr(const char *s, int c). 
....................    Finds first occurrence of c in n characters of s */ 
....................  
.................... char *memchr(void *s,unsigned int8 c,size_t n) 
.................... { 
....................    char uc; 
....................    char *su; 
....................    uc=c; 
....................    for(su=s;0<n;++su,--n) 
....................       if(*su==uc) 
....................       return su; 
....................    return NULL; 
.................... } 
....................  
.................... /* standard template: char *strchr(const char *s, int c). 
....................    Finds first occurrence of c in s */ 
....................  
.................... char *strchr(char *s, unsigned int8 c) 
.................... { 
....................    for (; *s != c; s++) 
....................       if (*s == '\0') 
....................          return(0); 
....................    return(s); 
.................... } 
.................... /* standard template: 
....................    size_t strcspn(const char *s1, const char *s2). 
....................    Computes length of max initial segment of s1 that 
....................    consists entirely of characters NOT from s2*/ 
....................  
.................... unsigned int8  strcspn(char *s1, char *s2) 
.................... { 
....................    char *sc1, *sc2; 
....................  
....................    for (sc1 = s1; *sc1 != 0; sc1++) 
....................       for (sc2 = s2; *sc2 != 0; sc2++) 
....................          if (*sc1 == *sc2) 
....................             return(sc1 - s1); 
....................    return(sc1 - s1); 
.................... } 
.................... /* standard template: 
....................    char *strpbrk(const char *s1, const char *s2). 
....................    Locates first occurence of any character from s2 in s1; 
....................    returns s1 if s2 is empty string */ 
....................  
.................... char *strpbrk(char *s1, char *s2) 
.................... { 
....................    char *sc1, *sc2; 
....................  
....................    for (sc1 = s1; *sc1 != 0; sc1++) 
....................       for (sc2 = s2; *sc2 != 0; sc2++) 
....................          if (*sc1 == *sc2) 
....................             return(sc1); 
....................    return(0); 
.................... } 
....................  
....................  
.................... /* standard template: char *strrchr(const char *s, int c). 
....................    Finds last occurrence of c in s */ 
....................  
.................... char *strrchr(char *s, unsigned int8 c) 
.................... { 
....................    char *p; 
....................  
....................    for (p = 0; ; s++) 
....................    { 
....................       if (*s == c) 
....................          p = s; 
....................       if (*s == '\0') 
....................          return(p); 
....................    } 
.................... } 
.................... /* computes length of max initial segment of s1 consisting 
....................    entirely of characters from s2 */ 
....................  
.................... unsigned int8  strspn(char *s1, char *s2) 
.................... { 
....................    char *sc1, *sc2; 
....................  
....................    for (sc1 = s1; *sc1 != 0; sc1++) 
....................       for (sc2 = s2; ; sc2++) 
....................     if (*sc2 == '\0') 
....................        return(sc1 - s1); 
....................          else if (*sc1 == *sc2) 
....................             break; 
....................    return(sc1 - s1); 
.................... } 
.................... /* standard template: 
....................    char *strstr(const char *s1, const char *s2); 
....................    Locates first occurence of character sequence s2 in s1; 
....................    returns 0 if s2 is empty string 
....................  
....................    Uncomment #define FASTER_BUT_MORE_ROM at the top of the 
....................    file to use the faster algorithm */ 
.................... char *strstr(char *s1, char *s2) 
.................... { 
....................    char *s, *t; 
....................  
....................    #ifdef FASTER_BUT_MORE_ROM 
....................    if (*s2 == '\0') 
....................          return(s1); 
....................    #endif 
....................  
....................    while (*s1) 
....................    { 
....................       for(s = s1, t = s2; *t && (*s == *t); ++s, ++t); 
....................  
....................       if (*t == '\0') 
....................          return s1; 
....................       ++s1; 
....................       #ifdef FASTER_BUT_MORE_ROM 
....................          while(*s1 != '\0' && *s1 != *s2) 
....................             ++s1; 
....................       #endif 
....................    } 
....................    return 0; 
.................... } 
....................  
.................... /* standard template: char *strtok(char *s1, const char *s2). 
....................  
....................    Finds next token in s1 delimited by a character from separator 
....................    string s2 (which can be different from call to call).  First call 
....................    starts at beginning of s1 searching for first character NOT 
....................    contained in s2; returns 0 if none is found. 
....................    If one is found, it is the start of first token (return value). 
....................    Function then searches from there for a character contained in s2. 
....................    If none is found, current token extends to end of s1, and subsequent 
....................    searches for a token will return 0.  If one is found, it is 
....................    overwritten by '\0', which terminates current token.  Function saves 
....................    pointer to following character from which next search will start. 
....................    Each subsequent call, with 0 as first argument, starts searching 
....................    from saved pointer */ 
....................  
.................... char *strtok(char *s1, char *s2) 
.................... { 
....................    char *beg, *end; 
....................    static char *save; 
....................  
....................    beg = (s1)? s1: save; 
....................    beg += strspn(beg, s2); 
....................    if (*beg == '\0') 
....................    { 
....................       *save = ' '; 
....................       return(0); 
....................    } 
....................    end = strpbrk(beg, s2); 
....................    if (*end != '\0') 
....................    { 
....................       *end = '\0'; 
....................       end++; 
....................    } 
....................    save = end; 
....................    return(beg); 
.................... } 
....................  
.................... /*****************************************************************/ 
.................... /*Miscellaneous functions*/ 
.................... /* standard template 
.................... maps error number in errnum to an error message string 
.................... Returns: Pointer to string 
.................... */ 
.................... #ifdef _ERRNO 
.................... char * strerror(unsigned int8 errnum) 
.................... { 
.................... char s[15]; 
.................... switch( errnum) 
.................... { 
.................... case 0: 
....................    strcpy(s,"no errors"); 
....................    return s; 
.................... case EDOM : 
....................    strcpy(s,"domain error"); 
....................    return s; 
.................... case ERANGE: 
....................    strcpy(s,"range error"); 
....................    return s; 
.................... } 
.................... } 
.................... #ENDIF 
.................... /* standard template: size_t strlen(const char *s). 
....................    Computes length of s1 (preceding terminating 0) */ 
....................  
.................... unsigned int8 strlen(char *s) 
.................... { 
....................    char *sc; 
....................  
....................    for (sc = s; *sc != 0; sc++); 
....................    return(sc - s); 
.................... } 
....................  
.................... /* standard template: size_t stricmp(const char *s1, const char *s2). 
....................    Compares s1 to s2 ignoring case (upper vs. lower) */ 
....................  
.................... signed int8 stricmp(char *s1, char *s2) 
.................... { 
....................  for(; *s1==*s2||(isalpha(*s1)&&isalpha(*s2)&&(*s1==*s2+32||*s2==*s1+32)); 
....................     s1++, s2++) 
....................     if (*s1 == '\0') 
....................        return(0); 
....................  return((*s1 < *s2) ? -1: 1); 
.................... } 
....................  
....................  
.................... /* standard template: char *strlwr(char *s). 
....................    Replaces uppercase letters by lowercase; 
....................    returns pointer to new string s */ 
....................  
.................... char *strlwr(char *s) 
.................... { 
....................    char *p; 
....................  
....................    for (p = s; *p != '\0'; p++) 
....................       if (*p >= 'A' && *p <='Z') 
....................          *p += 'a' - 'A'; 
....................    return(s); 
.................... } 
....................  
....................  
.................... /************************************************************/ 
....................  
....................  
.................... #endif 
....................  
.................... #include <stdlib.h> 
.................... /////////////////////////////////////////////////////////////////////////// 
.................... ////        (C) Copyright 1996,2007 Custom Computer Services           //// 
.................... //// This source code may only be used by licensed users of the CCS C  //// 
.................... //// compiler.  This source code may only be distributed to other      //// 
.................... //// licensed users of the CCS C compiler.  No other use, reproduction //// 
.................... //// or distribution is permitted without written permission.          //// 
.................... //// Derivative programs created using this software in object code    //// 
.................... //// form are not restricted in any way.                               //// 
.................... /////////////////////////////////////////////////////////////////////////// 
....................  
.................... #ifndef _STDLIB 
.................... #define _STDLIB 
....................  
.................... //--------------------------------------------------------------------------- 
.................... // Definitions and types 
.................... //--------------------------------------------------------------------------- 
....................  
.................... #ifndef RAND_MAX 
.................... #define RAND_MAX  32767    // The value of which is the maximum value 
....................                            // ... returned by the rand function 
.................... #endif 
....................  
....................  
.................... #IF (sizeof(int16*)>1) 
.................... #DEFINE LONG_POINTERS 1 
.................... #ELSE  
.................... #DEFINE LONG_POINTERS 0 
.................... #ENDIF 
....................  
.................... typedef struct { 
....................    signed int quot; 
....................    signed int rem; 
.................... } div_t; 
....................  
.................... typedef struct { 
....................    signed long quot; 
....................    signed long rem; 
.................... } ldiv_t; 
....................  
.................... #include <stddef.h> 
.................... /////////////////////////////////////////////////////////////////////////// 
.................... ////        (C) Copyright 1996,2003 Custom Computer Services           //// 
.................... //// This source code may only be used by licensed users of the CCS C  //// 
.................... //// compiler.  This source code may only be distributed to other      //// 
.................... //// licensed users of the CCS C compiler.  No other use, reproduction //// 
.................... //// or distribution is permitted without written permission.          //// 
.................... //// Derivative programs created using this software in object code    //// 
.................... //// form are not restricted in any way.                               //// 
.................... /////////////////////////////////////////////////////////////////////////// 
....................  
.................... #ifndef _STDDEF 
....................  
.................... #define _STDDEF 
....................  
.................... #if sizeof(unsigned int8 *)==1 
.................... #define ptrdiff_t unsigned int8 
.................... #else 
.................... #define ptrdiff_t unsigned int16 
.................... #endif 
....................  
.................... #define size_t unsigned int8 
.................... #define wchar_t char 
.................... #define NULL 0 
....................  
.................... #define offsetof(s,f) (offsetofbit(s,f)/8) 
....................  
.................... #endif 
....................  
....................  
.................... //--------------------------------------------------------------------------- 
.................... // String conversion functions 
.................... //--------------------------------------------------------------------------- 
....................  
.................... /* Standard template: signed int  atoi(char * s) 
....................  * converts the initial portion of the string s to a signed int 
....................  * returns the converted value if any, 0 otherwise 
....................  */ 
.................... signed int atoi(char *s); 
....................  
.................... /* Syntax: signed int32  atoi32(char * s) 
....................    converts the initial portion of the string s to a signed int32 
....................    returns the converted value if any, 0 otherwise*/ 
.................... #if (sizeof(long)==4) 
....................  #define atoi32(s) atol(s) 
.................... #else  
....................  signed int32 atoi32(char *s); 
.................... #endif 
....................  
.................... #if defined(__PCD__) 
.................... // The following functions only work on the 24 bit compiler 
.................... // for the 30F, 33F, 24F and 24H parts 
.................... /* Syntax: signed int48  atoi48(char * s) 
....................    converts the initial portion of the string s to a signed int48 
....................    returns the converted value if any, 0 otherwise*/ 
....................     
.................... signed int48 atoi48(char *s); 
....................  
.................... /* Syntax: signed int64  atoi64(char * s) 
....................    converts the initial portion of the string s to a signed int64 
....................    returns the converted value if any, 0 otherwise*/ 
.................... signed int64 atoi64(char *s); 
.................... #endif 
....................  
.................... /* Syntax: char *  itoa(signed int32 num, int8 base, char * s) 
....................    converts the signed int32 to a string and 
....................    returns the converted value if any, 0 otherwise*/ 
.................... char * itoa(signed int32 num, unsigned int base, char * s); 
....................  
.................... /* Standard template: signed int16  atol(char * s) 
....................  * converts the initial portion of the string s to a signed int16 
....................  * returns the converted value if any, 0 otherwise 
....................  */ 
.................... signed long atol(char *s); 
....................  
.................... /* Standard template: int16 strtoul(char * s,char *endptr,signed int base) 
....................  * converts the initial portion of the string s, represented as an 
....................  * integral value of radix base  to a signed long. 
....................  * Returns the converted value if any, 0 otherwise 
....................  * the final string is returned in the endptr, if endptr is not null 
....................  */ 
.................... signed long strtol(char *s,char *endptr, signed int base); 
....................  
.................... /* Standard template: int16 strtoul(char * s,char *endptr,signed int base) 
....................  * converts the initial portion of the string s, represented as an 
....................  * integral value of radix base to a unsigned long. 
....................  * returns the converted value if any, 0 otherwise 
....................  * the final string is returned in the endptr, if endptr is not null 
....................  */ 
.................... unsigned long strtoul(char *s,char *endptr, signed int base); 
....................  
.................... /* Standart template: float strtof(char * s,char *endptr) 
....................                       float48 strtof48(char *s,char *endptr); 
....................                       float64 strtod(char *s,char *endptr); 
....................  * converts the initial portion of the string s to a float32, float48 or float64, 
....................  * returns the converted value if any, 0 otherwise 
....................  * the final string is returned in the endptr, if endptr is not null                    
.................... */ 
.................... float strtof(char *s,char *endptr); 
.................... #if defined(__PCD__) 
.................... float48 strtof48(char *s,char *endptr); 
.................... float64 strtod(char *s,char *endptr); 
.................... #else 
.................... //provided for compatibility 
.................... #define strtof48(s, e) strtof(s, e) 
.................... #define strtod(s, e) strtof(s, e) 
.................... #endif 
....................  
.................... /* Standard template: float32 atof(char * s) 
....................  * converts the initial portion of the string s to a float. 
....................  * returns the converted value if any, 0 otherwise 
....................  */ 
.................... #define atof(s)   strtof(s, 0) 
....................  
.................... #if defined(__PCD__) 
.................... // The following functions only work on the 24 bit compiler 
.................... // for the 30F, 33F, 24F and 24H parts 
....................  
.................... /* Standard template: float48 atof48(char * s) 
....................  * converts the initial portion of the string s to a float. 
....................  * returns the converted value if any, 0 otherwise 
....................  */ 
.................... #define atof48(s) strtof48(s, 0) 
....................  
.................... /* Standard template: float64 atof64(char * s) 
....................  * converts the initial portion of the string s to a float. 
....................  * returns the converted value if any, 0 otherwise 
....................  */ 
.................... #define atof64(s) strtod(s, 0) 
.................... #endif 
....................  
.................... /* Standard template: float32 atoe(char * s) 
....................  * converts the initial portion of the string s to a float. 
....................  * returns the converted value if any, 0 otherwise 
....................  * also handles E format numbers 
....................  */ 
.................... #if !defined(__PCD__) 
.................... float atoe(char * s); 
.................... #endif 
....................  
.................... #if defined(__PCD__) 
.................... float32 atoe(char * s); 
.................... #endif 
....................  
.................... //--------------------------------------------------------------------------- 
.................... // Pseudo-random sequence generation functions 
.................... //--------------------------------------------------------------------------- 
....................  
.................... /* The rand function computes a sequence of pseudo-random integers in 
....................  * the range 0 to RAND_MAX 
....................  * 
....................  * Parameters: 
....................  *       (none) 
....................  * 
....................  * Returns: 
....................  *       The pseudo-random integer 
....................  */ 
.................... unsigned int16 rand(void); 
....................  
.................... /* The srand function uses the argument as a seed for a new sequence of 
....................  * pseudo-random numbers to be returned by subsequent calls to rand. 
....................  * 
....................  * Parameters: 
....................  *       [in] seed: The seed value to start from. You might need to pass 
....................  * 
....................  * Returns: 
....................  *       (none) 
....................  * 
....................  * Remarks 
....................  *          The srand function sets the starting point for generating 
....................  *       a series of pseudorandom integers. To reinitialize the 
....................  *       generator, use 1 as the seed argument. Any other value for 
....................  *       seed sets the generator to a random starting point. rand 
....................  *       retrieves the pseudorandom numbers that are generated. 
....................  *       Calling rand before any call to srand generates the same 
....................  *       sequence as calling srand with seed passed as 1. 
....................  *          Usually, you need to pass a time here from outer source 
....................  *       so that the numbers will be different every time you run. 
....................  */ 
.................... void srand(unsigned int32 seed); 
....................  
.................... //--------------------------------------------------------------------------- 
.................... // Memory management functions 
.................... //--------------------------------------------------------------------------- 
....................  
.................... // Comming soon 
....................  
.................... //--------------------------------------------------------------------------- 
.................... // Communication with the environment 
.................... //--------------------------------------------------------------------------- 
....................  
.................... /* The function returns 0 always 
....................  */ 
.................... signed int8 system(char *string); 
....................  
.................... //--------------------------------------------------------------------------- 
.................... // Searching and sorting utilities 
.................... //--------------------------------------------------------------------------- 
....................  
.................... /* Performs a binary search of a sorted array.. 
....................  * 
....................  * Parameters: 
....................  *       [in] key: Object to search for 
....................  *       [in] base: Pointer to base of search data 
....................  *       [in] num: Number of elements 
....................  *       [in] width: Width of elements 
....................  *       [in] compare: Function that compares two elements 
....................  * 
....................  * Returns: 
....................  *       bsearch returns a pointer to an occurrence of key in the array pointed 
....................  *       to by base. If key is not found, the function returns NULL. If the 
....................  *       array is not in order or contains duplicate records with identical keys, 
....................  *       the result is unpredictable. 
....................  */ 
.................... //void *bsearch(const void *key, const void *base, size_t num, size_t width, 
.................... //              int (*compare)(const void *, const void *)); 
....................  
.................... /* Performs the shell-metzner sort (not the quick sort algorithm). The contents 
....................  * of the array are sorted into ascending order according to a comparison 
....................  * function pointed to by compar. 
....................  * 
....................  * Parameters: 
....................  *       [in] base: Pointer to base of search data 
....................  *       [in] num: Number of elements 
....................  *       [in] width: Width of elements 
....................  *       [in] compare: Function that compares two elements 
....................  * 
....................  * Returns: 
....................  *       (none) 
....................  */ 
.................... //void *qsort(const void *base, size_t num, size_t width, 
.................... //              int (*compare)(const void *, const void *)); 
....................  
.................... //--------------------------------------------------------------------------- 
.................... // Integer arithmetic functions 
.................... //--------------------------------------------------------------------------- 
....................  
.................... #define labs abs 
....................  
.................... div_t div(signed int numer, signed int denom); 
.................... ldiv_t ldiv(signed long numer, signed long denom); 
....................  
.................... //--------------------------------------------------------------------------- 
.................... // Multibyte character functions 
.................... //--------------------------------------------------------------------------- 
....................  
.................... // Not supported 
....................  
.................... //--------------------------------------------------------------------------- 
.................... // Multibyte string functions 
.................... //--------------------------------------------------------------------------- 
....................  
.................... // Not supported 
....................  
....................  
.................... //--------------------------------------------------------------------------- 
.................... // Internal implementation 
.................... //--------------------------------------------------------------------------- 
....................  
.................... #include <stddef.h> 
.................... /////////////////////////////////////////////////////////////////////////// 
.................... ////        (C) Copyright 1996,2003 Custom Computer Services           //// 
.................... //// This source code may only be used by licensed users of the CCS C  //// 
.................... //// compiler.  This source code may only be distributed to other      //// 
.................... //// licensed users of the CCS C compiler.  No other use, reproduction //// 
.................... //// or distribution is permitted without written permission.          //// 
.................... //// Derivative programs created using this software in object code    //// 
.................... //// form are not restricted in any way.                               //// 
.................... /////////////////////////////////////////////////////////////////////////// 
....................  
.................... #ifndef _STDDEF 
....................  
.................... #define _STDDEF 
....................  
.................... #if sizeof(unsigned int8 *)==1 
.................... #define ptrdiff_t unsigned int8 
.................... #else 
.................... #define ptrdiff_t unsigned int16 
.................... #endif 
....................  
.................... #define size_t unsigned int8 
.................... #define wchar_t char 
.................... #define NULL 0 
....................  
.................... #define offsetof(s,f) (offsetofbit(s,f)/8) 
....................  
.................... #endif 
....................  
.................... #include <string.h> 
.................... //////////////////////////////////////////////////////////////////////////// 
.................... ////        (C) Copyright 1996,2008 Custom Computer Services            //// 
.................... //// This source code may only be used by licensed users of the CCS C   //// 
.................... //// compiler.  This source code may only be distributed to other       //// 
.................... //// licensed users of the CCS C compiler.  No other use, reproduction  //// 
.................... //// or distribution is permitted without written permission.           //// 
.................... //// Derivative programs created using this software in object code     //// 
.................... //// form are not restricted in any way.                                //// 
.................... //////////////////////////////////////////////////////////////////////////// 
....................  
.................... #ifndef _STRING 
.................... #define _STRING 
.................... #include <stddef.h> 
.................... #include <ctype.h> 
....................  
....................  
....................  
.................... ////////////////////////////////////////////// 
.................... //// Uncomment the following define to    //// 
.................... //// allow some functions to use a        //// 
.................... //// quicker algorithm, but use more ROM  //// 
.................... ////                                      //// 
.................... //// #define FASTER_BUT_MORE_ROM          //// 
.................... ////////////////////////////////////////////// 
....................  
....................  
....................  
.................... /*Copying functions*/ 
.................... /* standard template: 
....................    void *memmove(void *s1, void *s2, size_t n). 
....................    Copies max of n characters safely (not following ending '\0') 
....................    from s2 in s1; if s2 has less than n characters, appends 0 */ 
....................  
.................... char *memmove(void *s1,char *s2,size_t n) 
.................... { 
....................    char *sc1; 
....................    char *sc2; 
....................    sc1=s1; 
....................    sc2=s2; 
....................    if(sc2<sc1 && sc1 <sc2 +n) 
....................       for(sc1+=n,sc2+=n;0<n;--n) 
....................          *--sc1=*--sc2; 
....................    else 
....................       for(;0<n;--n) 
....................          *sc1++=*sc2++; 
....................   return s1; 
....................   } 
....................  
.................... /* Standard template: char *strcpy(char *s1, const char *s2) 
....................    copies the string s2 including the null character to s1. 
....................    This is a compiler built in to handle the different address 
....................    spaces */ 
....................  
.................... #define strcopy strcpy 
....................  
.................... /* standard template: 
....................    char *strncpy(char *s1, const char *s2, size_t n). 
....................    Copies max of n characters (not following ending '\0') 
....................    from s2 in s1; if s2 has less than n characters, appends 0 */ 
....................  
.................... char *strncpy(char *s1, char *s2, size_t n) 
.................... { 
....................   char *s; 
....................  
....................   for (s = s1; n > 0 && *s2 != '\0'; n--) 
....................      *s++ = *s2++; 
....................   for (; n > 0; n--) 
....................      *s++ = '\0'; 
....................  
....................   return(s1); 
.................... } 
.................... /***********************************************************/ 
....................  
.................... /*concatenation functions*/ 
.................... /* standard template: char *strcat(char *s1, const char *s2) 
.................... appends s2 to s1*/ 
....................  
.................... char *strcat(char *s1, char *s2) 
.................... { 
....................    char *s; 
....................  
....................    for (s = s1; *s != '\0'; ++s); 
....................    while(*s2 != '\0') 
....................    { 
....................       *s = *s2; 
....................       ++s; 
....................       ++s2; 
....................    } 
....................  
....................    *s = '\0'; 
....................    return(s1); 
.................... } 
.................... /* standard template: char *strncat(char *s1, char *s2,size_t n) 
.................... appends not more than n characters from s2 to s1*/ 
....................  
.................... char *strncat(char *s1, char *s2, size_t n) 
.................... { 
....................    char *s; 
....................  
....................    for (s = s1; *s != '\0'; ++s); 
....................    while(*s2 != '\0' && 0<n) 
....................    { 
....................       *s = *s2; 
....................       ++s; 
....................       ++s2; 
....................       --n; 
....................    } 
....................  
....................    *s = '\0'; 
....................    return(s1); 
.................... } 
....................  
.................... /***********************************************************/ 
....................  
....................  
.................... /*comparison functions*/ 
.................... /* standard template: signed int memcmp(void *s1, void *s2). 
....................    Compares s1 & s2; returns -1 if s1<s2, 0 if s1=s2, 1 if s1>s2 */ 
....................  
.................... signed int8 memcmp(void * s1,char *s2,size_t n) 
.................... { 
.................... char *su1, *su2; 
.................... for(su1=s1, su2=s2; 0<n; ++su1, ++su2, --n) 
.................... { 
....................    if(*su1!=*su2) 
....................       return ((*su1<*su2)?-1:+1); 
.................... } 
.................... return 0; 
.................... } 
....................  
.................... /* standard template: int strcmp(const char *s1, const char *s2). 
....................    Compares s1 & s2; returns -1 if s1<s2, 0 if s1=s2, 1 if s1>s2 */ 
....................  
.................... signed int8 strcmp(char *s1, char *s2) 
.................... { 
....................    for (; *s1 == *s2; s1++, s2++) 
....................       if (*s1 == '\0') 
....................          return(0); 
....................    return((*s1 < *s2) ? -1: 1); 
.................... } 
.................... /* standard template: int strcoll(const char *s1, const char *s2). 
....................    Compares s1 & s2; returns -1 if s1<s2, 0 if s1=s2, 1 if s1>s2 */ 
....................  
.................... signed int8 strcoll(char *s1, char *s2) 
.................... { 
....................    for (; *s1 == *s2; s1++, s2++) 
....................       if (*s1 == '\0') 
....................          return(0); 
....................    return((*s1 < *s2) ? -1: 1); 
.................... } 
....................  
.................... /* standard template: 
....................    int strncmp(const char *s1, const char *s2, size_t n). 
....................    Compares max of n characters (not following 0) from s1 to s2; 
....................    returns same as strcmp */ 
....................  
.................... signed int8 strncmp(char *s1, char *s2, size_t n) 
.................... { 
....................    for (; n > 0; s1++, s2++, n--) 
....................       if (*s1 != *s2) 
....................          return((*s1 <*s2) ? -1: 1); 
....................       else if (*s1 == '\0') 
....................          return(0); 
....................    return(0); 
.................... } 
.................... /* standard template: 
....................    int strxfrm(const char *s1, const char *s2, size_t n). 
....................    transforms maximum of n characters from s2 and places them into s1*/ 
.................... size_t strxfrm(char *s1, char *s2, size_t n) 
.................... { 
....................   char *s; 
....................   unsigned int8 n1; 
....................   n1=n; 
....................   for (s = s1; n > 0 && *s2 != '\0'; n--) 
....................      *s++ = *s2++; 
....................   for (; n > 0; n--) 
....................      *s++ = '\0'; 
....................  
....................   return(n1); 
.................... } 
....................  
....................  
....................  
....................  
....................  
.................... /***********************************************************/ 
.................... /*Search functions*/ 
.................... /* standard template: void *memchr(const char *s, int c). 
....................    Finds first occurrence of c in n characters of s */ 
....................  
.................... char *memchr(void *s,unsigned int8 c,size_t n) 
.................... { 
....................    char uc; 
....................    char *su; 
....................    uc=c; 
....................    for(su=s;0<n;++su,--n) 
....................       if(*su==uc) 
....................       return su; 
....................    return NULL; 
.................... } 
....................  
.................... /* standard template: char *strchr(const char *s, int c). 
....................    Finds first occurrence of c in s */ 
....................  
.................... char *strchr(char *s, unsigned int8 c) 
.................... { 
....................    for (; *s != c; s++) 
....................       if (*s == '\0') 
....................          return(0); 
....................    return(s); 
.................... } 
.................... /* standard template: 
....................    size_t strcspn(const char *s1, const char *s2). 
....................    Computes length of max initial segment of s1 that 
....................    consists entirely of characters NOT from s2*/ 
....................  
.................... unsigned int8  strcspn(char *s1, char *s2) 
.................... { 
....................    char *sc1, *sc2; 
....................  
....................    for (sc1 = s1; *sc1 != 0; sc1++) 
....................       for (sc2 = s2; *sc2 != 0; sc2++) 
....................          if (*sc1 == *sc2) 
....................             return(sc1 - s1); 
....................    return(sc1 - s1); 
.................... } 
.................... /* standard template: 
....................    char *strpbrk(const char *s1, const char *s2). 
....................    Locates first occurence of any character from s2 in s1; 
....................    returns s1 if s2 is empty string */ 
....................  
.................... char *strpbrk(char *s1, char *s2) 
.................... { 
....................    char *sc1, *sc2; 
....................  
....................    for (sc1 = s1; *sc1 != 0; sc1++) 
....................       for (sc2 = s2; *sc2 != 0; sc2++) 
....................          if (*sc1 == *sc2) 
....................             return(sc1); 
....................    return(0); 
.................... } 
....................  
....................  
.................... /* standard template: char *strrchr(const char *s, int c). 
....................    Finds last occurrence of c in s */ 
....................  
.................... char *strrchr(char *s, unsigned int8 c) 
.................... { 
....................    char *p; 
....................  
....................    for (p = 0; ; s++) 
....................    { 
....................       if (*s == c) 
....................          p = s; 
....................       if (*s == '\0') 
....................          return(p); 
....................    } 
.................... } 
.................... /* computes length of max initial segment of s1 consisting 
....................    entirely of characters from s2 */ 
....................  
.................... unsigned int8  strspn(char *s1, char *s2) 
.................... { 
....................    char *sc1, *sc2; 
....................  
....................    for (sc1 = s1; *sc1 != 0; sc1++) 
....................       for (sc2 = s2; ; sc2++) 
....................     if (*sc2 == '\0') 
....................        return(sc1 - s1); 
....................          else if (*sc1 == *sc2) 
....................             break; 
....................    return(sc1 - s1); 
.................... } 
.................... /* standard template: 
....................    char *strstr(const char *s1, const char *s2); 
....................    Locates first occurence of character sequence s2 in s1; 
....................    returns 0 if s2 is empty string 
....................  
....................    Uncomment #define FASTER_BUT_MORE_ROM at the top of the 
....................    file to use the faster algorithm */ 
.................... char *strstr(char *s1, char *s2) 
.................... { 
....................    char *s, *t; 
....................  
....................    #ifdef FASTER_BUT_MORE_ROM 
....................    if (*s2 == '\0') 
....................          return(s1); 
....................    #endif 
....................  
....................    while (*s1) 
....................    { 
....................       for(s = s1, t = s2; *t && (*s == *t); ++s, ++t); 
....................  
....................       if (*t == '\0') 
....................          return s1; 
....................       ++s1; 
....................       #ifdef FASTER_BUT_MORE_ROM 
....................          while(*s1 != '\0' && *s1 != *s2) 
....................             ++s1; 
....................       #endif 
....................    } 
....................    return 0; 
.................... } 
....................  
.................... /* standard template: char *strtok(char *s1, const char *s2). 
....................  
....................    Finds next token in s1 delimited by a character from separator 
....................    string s2 (which can be different from call to call).  First call 
....................    starts at beginning of s1 searching for first character NOT 
....................    contained in s2; returns 0 if none is found. 
....................    If one is found, it is the start of first token (return value). 
....................    Function then searches from there for a character contained in s2. 
....................    If none is found, current token extends to end of s1, and subsequent 
....................    searches for a token will return 0.  If one is found, it is 
....................    overwritten by '\0', which terminates current token.  Function saves 
....................    pointer to following character from which next search will start. 
....................    Each subsequent call, with 0 as first argument, starts searching 
....................    from saved pointer */ 
....................  
.................... char *strtok(char *s1, char *s2) 
.................... { 
....................    char *beg, *end; 
....................    static char *save; 
....................  
....................    beg = (s1)? s1: save; 
....................    beg += strspn(beg, s2); 
....................    if (*beg == '\0') 
....................    { 
....................       *save = ' '; 
....................       return(0); 
....................    } 
....................    end = strpbrk(beg, s2); 
....................    if (*end != '\0') 
....................    { 
....................       *end = '\0'; 
....................       end++; 
....................    } 
....................    save = end; 
....................    return(beg); 
.................... } 
....................  
.................... /*****************************************************************/ 
.................... /*Miscellaneous functions*/ 
.................... /* standard template 
.................... maps error number in errnum to an error message string 
.................... Returns: Pointer to string 
.................... */ 
.................... #ifdef _ERRNO 
.................... char * strerror(unsigned int8 errnum) 
.................... { 
.................... char s[15]; 
.................... switch( errnum) 
.................... { 
.................... case 0: 
....................    strcpy(s,"no errors"); 
....................    return s; 
.................... case EDOM : 
....................    strcpy(s,"domain error"); 
....................    return s; 
.................... case ERANGE: 
....................    strcpy(s,"range error"); 
....................    return s; 
.................... } 
.................... } 
.................... #ENDIF 
.................... /* standard template: size_t strlen(const char *s). 
....................    Computes length of s1 (preceding terminating 0) */ 
....................  
.................... unsigned int8 strlen(char *s) 
.................... { 
....................    char *sc; 
....................  
....................    for (sc = s; *sc != 0; sc++); 
....................    return(sc - s); 
.................... } 
....................  
.................... /* standard template: size_t stricmp(const char *s1, const char *s2). 
....................    Compares s1 to s2 ignoring case (upper vs. lower) */ 
....................  
.................... signed int8 stricmp(char *s1, char *s2) 
.................... { 
....................  for(; *s1==*s2||(isalpha(*s1)&&isalpha(*s2)&&(*s1==*s2+32||*s2==*s1+32)); 
....................     s1++, s2++) 
....................     if (*s1 == '\0') 
....................        return(0); 
....................  return((*s1 < *s2) ? -1: 1); 
.................... } 
....................  
....................  
.................... /* standard template: char *strlwr(char *s). 
....................    Replaces uppercase letters by lowercase; 
....................    returns pointer to new string s */ 
....................  
.................... char *strlwr(char *s) 
.................... { 
....................    char *p; 
....................  
....................    for (p = s; *p != '\0'; p++) 
....................       if (*p >= 'A' && *p <='Z') 
....................          *p += 'a' - 'A'; 
....................    return(s); 
.................... } 
....................  
....................  
.................... /************************************************************/ 
....................  
....................  
.................... #endif 
....................  
....................  
.................... div_t div(signed int numer, signed int denom) 
.................... { 
....................    div_t val; 
....................    val.quot = numer / denom; 
....................    val.rem = numer - (denom * val.quot); 
....................    return (val); 
.................... } 
....................  
.................... ldiv_t ldiv(signed long numer, signed long denom) 
.................... { 
....................    ldiv_t val; 
....................  
....................    val.quot = numer / denom; 
....................    val.rem = numer - (denom * val.quot); 
....................    return (val); 
.................... } 
....................  
.................... #if defined(__PCD__) 
.................... float32 atoe(char * s) 
.................... { 
....................    float32 pow10 = 1.0; 
....................    float32 result = 0.0; 
....................    unsigned int8 sign = 0; 
....................    unsigned int8 expsign = 0; 
....................    char c; 
....................    unsigned int8 ptr = 0; 
....................    unsigned int8 i; 
....................    float32 exp = 1.0; 
....................    unsigned int8 expcnt = 0; 
....................  
....................    c = s[ptr++]; 
....................  
....................    if ((c>='0' && c<='9') || c=='+' || c=='-' || c=='.' || c=='E' || c=='e') { 
....................       if(c == '-') { 
....................          sign = 1; 
....................          c = s[ptr++]; 
....................       } 
....................       if(c == '+') 
....................          c = s[ptr++]; 
....................  
....................       while((c >= '0' && c <= '9')) { 
....................          result = 10*result + c - '0'; 
....................          c = s[ptr++]; 
....................       } 
....................  
....................       if (c == '.') { 
....................          c = s[ptr++]; 
....................          while((c >= '0' && c <= '9')) { 
....................              pow10 = pow10*10; 
....................              result += (c - '0')/pow10; 
....................              c = s[ptr++]; 
....................          } 
....................       } 
....................  
....................       // Handling the exponent 
....................       if (c=='e' || c=='E') { 
....................          c = s[ptr++]; 
....................  
....................          if(c == '-') { 
....................             expsign = 1; 
....................             c = s[ptr++]; 
....................          } 
....................          if(c == '+') 
....................             c = s[ptr++]; 
....................  
....................          while((c >= '0' && c <= '9')) { 
....................             expcnt = 10*expcnt + c - '0'; 
....................             c = s[ptr++]; 
....................          } 
....................  
....................          for(i=0;i<expcnt;i++) 
....................             exp*=10; 
....................  
....................          if(expsign==1) 
....................             result/=exp; 
....................          else 
....................             result*=exp; 
....................       } 
....................    } 
....................  
....................    if (sign == 1) 
....................       result = -1*result; 
....................    return(result); 
.................... } 
.................... #endif 
....................  
.................... #if !defined(__PCD__) 
.................... float atoe(char * s) 
.................... { 
....................    float pow10 = 1.0; 
....................    float result = 0.0; 
....................    unsigned int8 sign = 0; 
....................    unsigned int8 expsign = 0; 
....................    char c; 
....................    unsigned int8 ptr = 0; 
....................    unsigned int8 i; 
....................    float exp = 1.0; 
....................    unsigned int8 expcnt = 0; 
....................  
....................    c = s[ptr++]; 
....................  
....................    if ((c>='0' && c<='9') || c=='+' || c=='-' || c=='.' || c=='E' || c=='e') { 
....................       if(c == '-') { 
....................          sign = 1; 
....................          c = s[ptr++]; 
....................       } 
....................       if(c == '+') 
....................          c = s[ptr++]; 
....................  
....................       while((c >= '0' && c <= '9')) { 
....................          result = 10*result + c - '0'; 
....................          c = s[ptr++]; 
....................       } 
....................  
....................       if (c == '.') { 
....................          c = s[ptr++]; 
....................          while((c >= '0' && c <= '9')) { 
....................              pow10 = pow10*10; 
....................              result += (c - '0')/pow10; 
....................              c = s[ptr++]; 
....................          } 
....................       } 
....................  
....................       // Handling the exponent 
....................       if (c=='e' || c=='E') { 
....................          c = s[ptr++]; 
....................  
....................          if(c == '-') { 
....................             expsign = 1; 
....................             c = s[ptr++]; 
....................          } 
....................          if(c == '+') 
....................             c = s[ptr++]; 
....................  
....................          while((c >= '0' && c <= '9')) { 
....................             expcnt = 10*expcnt + c - '0'; 
....................             c = s[ptr++]; 
....................          } 
....................  
....................          for(i=0;i<expcnt;i++) 
....................             exp*=10; 
....................  
....................          if(expsign==1) 
....................             result/=exp; 
....................          else 
....................             result*=exp; 
....................       } 
....................    } 
....................  
....................    if (sign == 1) 
....................       result = -1*result; 
....................    return(result); 
.................... } 
.................... #endif 
....................  
.................... signed int atoi(char *s) 
.................... { 
....................    signed int result; 
....................    unsigned int sign, base, index; 
....................    char c; 
....................  
....................    index = 0; 
....................    sign = 0; 
....................    base = 10; 
....................    result = 0; 
....................  
....................    if (!s) 
....................       return 0; 
....................    // Omit all preceeding alpha characters 
....................    c = s[index++]; 
....................  
....................    // increase index if either positive or negative sign is detected 
....................    if (c == '-') 
....................    { 
....................       sign = 1;         // Set the sign to negative 
....................       c = s[index++]; 
....................    } 
....................    else if (c == '+') 
....................    { 
....................       c = s[index++]; 
....................    } 
....................  
....................    if (c >= '0' && c <= '9') 
....................    { 
....................  
....................       // Check for hexa number 
....................       if (c == '0' && (s[index] == 'x' || s[index] == 'X')) 
....................       { 
....................          base = 16; 
....................          index++; 
....................          c = s[index++]; 
....................       } 
....................  
....................       // The number is a decimal number 
....................       if (base == 10) 
....................       { 
....................          while (c >= '0' && c <= '9') 
....................          { 
....................             result = 10*result + (c - '0'); 
....................             c = s[index++]; 
....................          } 
....................       } 
....................       else if (base == 16)    // The number is a hexa number 
....................       { 
....................          c = toupper(c); 
....................          while ( (c >= '0' && c <= '9') || (c >= 'A' && c<='F')) 
....................          { 
....................             if (c >= '0' && c <= '9') 
....................                result = (result << 4) + (c - '0'); 
....................             else 
....................                result = (result << 4) + (c - 'A' + 10); 
....................  
....................             c = s[index++]; 
....................             c = toupper(c); 
....................          } 
....................       } 
....................    } 
....................  
....................    if (sign == 1 && base == 10) 
....................        result = -result; 
....................  
....................    return(result); 
.................... } 
....................  
.................... signed long atol(char *s) 
.................... { 
....................    signed long result; 
....................    unsigned int sign, base, index; 
....................    char c; 
....................  
....................    index = 0; 
....................    sign = 0; 
....................    base = 10; 
....................    result = 0; 
....................  
....................    if (!s) 
....................       return 0; 
....................    c = s[index++]; 
....................  
....................    // increase index if either positive or negative sign is detected 
....................    if (c == '-') 
....................    { 
....................       sign = 1;         // Set the sign to negative 
....................       c = s[index++]; 
....................    } 
....................    else if (c == '+') 
....................    { 
....................       c = s[index++]; 
....................    } 
....................  
....................    if (c >= '0' && c <= '9') 
....................    { 
....................       if (c == '0' && (s[index] == 'x' || s[index] == 'X')) 
....................       { 
....................          base = 16; 
....................          index++; 
....................          c = s[index++]; 
....................       } 
....................  
....................       // The number is a decimal number 
....................       if (base == 10) 
....................       { 
....................          while (c >= '0' && c <= '9') 
....................          { 
....................             result = 10*result + (c - '0'); 
....................             c = s[index++]; 
....................          } 
....................       } 
....................       else if (base == 16)    // The number is a hexa number 
....................       { 
....................          c = toupper(c); 
....................          while ( (c >= '0' && c <= '9') || (c >= 'A' && c <='F')) 
....................          { 
....................             if (c >= '0' && c <= '9') 
....................                result = (result << 4) + (c - '0'); 
....................             else 
....................                result = (result << 4) + (c - 'A' + 10); 
....................  
....................             c = s[index++];c = toupper(c); 
....................          } 
....................       } 
....................    } 
....................  
....................    if (base == 10 && sign == 1) 
....................       result = -result; 
....................  
....................    return(result); 
.................... } 
....................  
.................... /* A fast routine to multiply by 10 
....................  */ 
.................... signed int32 mult_with10(int32 num) 
.................... { 
....................    return ( (num << 1) + (num << 3) ); 
.................... } 
....................  
.................... #if sizeof(long)==2 
.................... signed int32 atoi32(char *s) 
.................... { 
....................    signed int32 result; 
....................    int8 sign, base, index; 
....................    char c; 
....................  
....................    index = 0; 
....................    sign = 0; 
....................    base = 10; 
....................    result = 0; 
....................  
....................    if (!s) 
....................       return 0; 
....................    c = s[index++]; 
....................  
....................    // increase index if either positive or negative sign is detected 
....................    if (c == '-') 
....................    { 
....................       sign = 1;         // Set the sign to negative 
....................       c = s[index++]; 
....................    } 
....................    else if (c == '+') 
....................    { 
....................       c = s[index++]; 
....................    } 
....................  
....................    if (c >= '0' && c <= '9') 
....................    { 
....................       if (c == '0' && (s[index] == 'x' || s[index] == 'X')) 
....................       { 
....................          base = 16; 
....................          index++; 
....................          c = s[index++]; 
....................       } 
....................  
....................       // The number is a decimal number 
....................       if (base == 10) 
....................       { 
....................          while (c >= '0' && c <= '9') { 
....................             result = (result << 1) + (result << 3);  // result *= 10; 
....................             result += (c - '0'); 
....................             c = s[index++]; 
....................          } 
....................       } 
....................       else if (base == 16)    // The number is a hexa number 
....................       { 
....................          c = toupper(c); 
....................          while ((c >= '0' && c <= '9') || (c >= 'A' && c <='F')) 
....................          { 
....................             if (c >= '0' && c <= '9') 
....................                result = (result << 4) + (c - '0'); 
....................             else 
....................                result = (result << 4) + (c - 'A' + 10); 
....................  
....................             c = s[index++];c = toupper(c); 
....................          } 
....................       } 
....................    } 
....................  
....................    if (base == 10 && sign == 1) 
....................       result = -result; 
....................  
....................    return(result); 
.................... } 
.................... #endif 
....................  
.................... #if defined(__PCD__) 
....................  
.................... signed int48 atoi48(char *s) 
.................... { 
....................    signed int48 result; 
....................    int8 sign, base, index; 
....................    char c; 
....................  
....................    index = 0; 
....................    sign = 0; 
....................    base = 10; 
....................    result = 0; 
....................  
....................    if (!s) 
....................       return 0; 
....................    c = s[index++]; 
....................  
....................    // increase index if either positive or negative sign is detected 
....................    if (c == '-') 
....................    { 
....................       sign = 1;         // Set the sign to negative 
....................       c = s[index++]; 
....................    } 
....................    else if (c == '+') 
....................    { 
....................       c = s[index++]; 
....................    } 
....................  
....................    if (c >= '0' && c <= '9') 
....................    { 
....................       if (c == '0' && (s[index] == 'x' || s[index] == 'X')) 
....................       { 
....................          base = 16; 
....................          index++; 
....................          c = s[index++]; 
....................       } 
....................  
....................       // The number is a decimal number 
....................       if (base == 10) 
....................       { 
....................          while (c >= '0' && c <= '9') { 
....................             result = (result << 1) + (result << 3);  // result *= 10; 
....................             result += (c - '0'); 
....................             c = s[index++]; 
....................          } 
....................       } 
....................       else if (base == 16)    // The number is a hexa number 
....................       { 
....................          c = toupper(c); 
....................          while ((c >= '0' && c <= '9') || (c >= 'A' && c <='F')) 
....................          { 
....................             if (c >= '0' && c <= '9') 
....................                result = (result << 4) + (c - '0'); 
....................             else 
....................                result = (result << 4) + (c - 'A' + 10); 
....................  
....................             c = s[index++];c = toupper(c); 
....................          } 
....................       } 
....................    } 
....................  
....................    if (base == 10 && sign == 1) 
....................       result = -result; 
....................  
....................    return(result); 
.................... } 
....................  
.................... signed int64 atoi64(char *s) 
.................... { 
....................    signed int64 result; 
....................    int8 sign, base, index; 
....................    char c; 
....................  
....................    index = 0; 
....................    sign = 0; 
....................    base = 10; 
....................    result = 0; 
....................  
....................    if (!s) 
....................       return 0; 
....................    c = s[index++]; 
....................  
....................    // increase index if either positive or negative sign is detected 
....................    if (c == '-') 
....................    { 
....................       sign = 1;         // Set the sign to negative 
....................       c = s[index++]; 
....................    } 
....................    else if (c == '+') 
....................    { 
....................       c = s[index++]; 
....................    } 
....................  
....................    if (c >= '0' && c <= '9') 
....................    { 
....................       if (c == '0' && (s[index] == 'x' || s[index] == 'X')) 
....................       { 
....................          base = 16; 
....................          index++; 
....................          c = s[index++]; 
....................       } 
....................  
....................       // The number is a decimal number 
....................       if (base == 10) 
....................       { 
....................          while (c >= '0' && c <= '9') { 
....................             result = (result << 1) + (result << 3);  // result *= 10; 
....................             result += (c - '0'); 
....................             c = s[index++]; 
....................          } 
....................       } 
....................       else if (base == 16)    // The number is a hexa number 
....................       { 
....................          c = toupper(c); 
....................          while ((c >= '0' && c <= '9') || (c >= 'A' && c <='F')) 
....................          { 
....................             if (c >= '0' && c <= '9') 
....................                result = (result << 4) + (c - '0'); 
....................             else 
....................                result = (result << 4) + (c - 'A' + 10); 
....................  
....................             c = s[index++];c = toupper(c); 
....................          } 
....................       } 
....................    } 
....................  
....................    if (base == 10 && sign == 1) 
....................       result = -result; 
....................  
....................    return(result); 
.................... } 
.................... #endif 
....................  
.................... char * itoa(signed int32 num, unsigned int base, char * s) 
.................... { 
....................      unsigned int32 temp=1; 
....................      unsigned int8 i,sign=0,cnt=0; 
....................      char c; 
....................  
....................      if(num<0) { 
....................          sign=1;        // Check for negative number 
....................          num*=-1; 
....................      } 
....................  
....................      while(temp>0) { 
....................          temp=(num/base); 
....................          s[cnt]=(num%base)+'0';    // Conversion 
....................  
....................          if(s[cnt]>0x39) 
....................             s[cnt]+=0x7; 
....................  
....................          cnt++; 
....................          num=temp; 
....................      } 
....................  
....................      if(sign==1) { 
....................          s[cnt]=0x2D;      // Negative sign 
....................          cnt++; 
....................      } 
....................  
....................      for(i = 0;i<(int8)(cnt/2);i++) { 
....................  
....................          c=s[i]; 
....................          s[i]=s[cnt-i-1];        // Reverse the number 
....................          s[cnt-i-1]=c; 
....................      } 
....................      s[cnt]='\0';     // End the string 
....................      return s; 
.................... } 
....................  
.................... float strtof(char *s, char *endptr) 
.................... { 
....................    float pow10 = 1.0; 
....................    float result = 0.0; 
....................    int1 skip = 1, sign = 0, point = 0; 
....................    char c; 
....................    unsigned int8 ptr = 0; 
....................  
....................    if (!s) 
....................       return 0; 
....................  
....................    for(c=s[ptr++]; c!=0; c=s[ptr++]) 
....................    { 
....................       if (skip && !isspace(c)) 
....................       { 
....................          skip = 0; 
....................          if (c == '+') 
....................          { 
....................             sign = 0; 
....................             continue; 
....................          }             
....................          else if (c == '-') 
....................          { 
....................             sign = 1; 
....................             continue; 
....................          } 
....................       } 
....................       if (!skip && (c == '.') && !point) 
....................          point = 1; 
....................       else if (!skip && isdigit(c)) 
....................       { 
....................          c -= '0'; 
....................          if (point) 
....................          { 
....................             pow10 = pow10 * 10.0; 
....................             result += (float)c / pow10;    
....................          } 
....................          else 
....................          { 
....................             result = 10.0 * result + (float)c; 
....................          } 
....................       } 
....................       else if (!skip) 
....................          break; 
....................    } 
....................  
....................    if (sign) 
....................       result = -1*result; 
....................        
....................    if(endptr) 
....................    { 
....................       if (ptr) { 
....................          ptr--; 
....................        #IF LONG_POINTERS  
....................          *((long *)endptr)= s+ptr;  
....................        #ELSE 
....................          *((char *)endptr)=s+ptr; 
....................        #ENDIF 
....................       } 
....................       else 
....................       { 
....................       #IF LONG_POINTERS 
....................       *((long *)endptr)= s;  
....................       #ELSE 
....................       *((char *)endptr)=s; 
....................       #ENDIF 
....................       } 
....................    } 
....................  
....................    return(result); 
.................... } 
....................  
.................... #if defined(__PCD__) 
.................... float48 strtof48(char *s, char *endptr) 
.................... { 
....................    float48 pow10 = 1.0; 
....................    float48 result = 0.0; 
....................    int1 skip = 1, sign = 0, point = 0; 
....................    char c; 
....................    unsigned int8 ptr = 0; 
....................  
....................    if (!s) 
....................       return 0; 
....................  
....................    for(c=s[ptr++]; c!=0; c=s[ptr++]) 
....................    { 
....................       if (skip && !isspace(c)) 
....................       { 
....................          skip = 0; 
....................          if (c == '+') 
....................          { 
....................             sign = 0; 
....................             continue; 
....................          }             
....................          else if (c == '-') 
....................          { 
....................             sign = 1; 
....................             continue; 
....................          } 
....................       } 
....................       if (!skip && (c == '.') && !point) 
....................          point = 1; 
....................       else if (!skip && isdigit(c)) 
....................       { 
....................          c -= '0'; 
....................          if (point) 
....................          { 
....................             pow10 = pow10 * 10.0; 
....................             result += (float48)c / pow10;    
....................          } 
....................          else 
....................          { 
....................             result = 10.0 * result + (float48)c; 
....................          } 
....................       } 
....................       else if (!skip) 
....................          break; 
....................    } 
....................  
....................    if (sign) 
....................       result = -1*result; 
....................        
....................    if(endptr) 
....................    { 
....................       if (ptr) { 
....................          ptr--; 
....................        #IF LONG_POINTERS  
....................          *((long *)endptr)= s+ptr;  
....................        #ELSE 
....................          *((char *)endptr)=s+ptr; 
....................        #ENDIF 
....................       } 
....................       else 
....................       { 
....................       #IF LONG_POINTERS 
....................       *((long *)endptr)= s;  
....................       #ELSE 
....................       *((char *)endptr)=s; 
....................       #ENDIF 
....................       } 
....................    } 
....................  
....................    return(result); 
.................... } 
....................  
.................... float64 strtod(char *s, char *endptr) 
.................... { 
....................    float64 pow10 = 1.0; 
....................    float64 result = 0.0; 
....................    int1 skip = 1, sign = 0, point = 0; 
....................    char c; 
....................    unsigned int8 ptr = 0; 
....................  
....................    if (!s) 
....................       return 0; 
....................  
....................    for(c=s[ptr++]; c!=0; c=s[ptr++]) 
....................    { 
....................       if (skip && !isspace(c)) 
....................       { 
....................          skip = 0; 
....................          if (c == '+') 
....................          { 
....................             sign = 0; 
....................             continue; 
....................          }             
....................          else if (c == '-') 
....................          { 
....................             sign = 1; 
....................             continue; 
....................          } 
....................       } 
....................       if (!skip && (c == '.') && !point) 
....................          point = 1; 
....................       else if (!skip && isdigit(c)) 
....................       { 
....................          c -= '0'; 
....................          if (point) 
....................          { 
....................             pow10 = pow10 * 10.0; 
....................             result += (float64)c / pow10;    
....................          } 
....................          else 
....................          { 
....................             result = 10.0 * result + (float64)c; 
....................          } 
....................       } 
....................       else if (!skip) 
....................          break; 
....................    } 
....................  
....................    if (sign) 
....................       result = -1*result; 
....................        
....................    if(endptr) 
....................    { 
....................       if (ptr) { 
....................          ptr--; 
....................        #IF LONG_POINTERS  
....................          *((long *)endptr)= s+ptr;  
....................        #ELSE 
....................          *((char *)endptr)=s+ptr; 
....................        #ENDIF 
....................       } 
....................       else 
....................       { 
....................       #IF LONG_POINTERS 
....................       *((long *)endptr)= s;  
....................       #ELSE 
....................       *((char *)endptr)=s; 
....................       #ENDIF 
....................       } 
....................    } 
....................  
....................    return(result); 
.................... } 
.................... #endif 
....................  
.................... unsigned long strtoul(char *s, char *endptr, signed int base) 
.................... { 
....................    char *sc,*s1,*sd; 
....................    unsigned long x=0; 
....................    char sign; 
....................    char digits[]="0123456789abcdefghijklmnopqstuvwxyz"; 
....................    for(sc=s;isspace(*sc);++sc); 
....................    sign=*sc=='-'||*sc=='+'?*sc++:'+'; 
....................    if(sign=='-' || base <0 || base ==1|| base >36) // invalid base 
....................    goto StrtoulGO; 
....................  
....................    else if (base) 
....................    { 
....................       if(base==16 && *sc =='0'&&(sc[1]=='x' || sc[1]=='X')) 
....................          sc+=2; 
....................       if(base==8 && *sc =='0') 
....................          sc+=1; 
....................       if(base==2 && *sc =='0'&&sc[1]=='b') 
....................          sc+=2; 
....................  
....................    } 
....................    else if(*sc!='0') // base is 0, find base 
....................       base=10; 
....................    else if (sc[1]=='x' || sc[1]=='X') 
....................       base =16,sc+=2; 
....................    else if(sc[1]=='b') 
....................       base=2,sc+=2; 
....................    else 
....................       base=8; 
....................    for (s1=sc;*sc=='0';++sc);// skip leading zeroes 
....................    sd=memchr(digits,tolower(*sc),base); 
....................    for(; sd!=0; ) 
....................    { 
....................       x=x*base+(int16)(sd-digits); 
....................       ++sc; 
....................       sd=memchr(digits,tolower(*sc),base); 
....................    } 
....................    if(s1==sc) 
....................    { 
....................    StrtoulGO: 
....................       if (endptr) 
....................       { 
....................          #IF LONG_POINTERS 
....................          *((long *)endptr)= s;  
....................          #ELSE 
....................          *((char *)endptr)=s; 
....................          #ENDIF 
....................          } 
....................    return 0; 
....................    } 
....................    if (endptr) 
....................    { 
....................          #IF LONG_POINTERS 
....................          *((long *)endptr)= sc;  
....................          #ELSE 
....................          *((char *)endptr)=sc;  
....................          #ENDIF 
....................    } 
....................    return x; 
.................... } 
....................  
....................  
.................... signed long strtol(char *s,char *endptr, signed int base) 
.................... { 
....................    char *sc,*s1,*sd; 
....................    signed long x=0; 
....................    char sign; 
....................    char digits[]="0123456789abcdefghijklmnopqstuvwxyz"; 
....................    for(sc=s;isspace(*sc);++sc); 
....................    sign=*sc=='-'||*sc=='+'?*sc++:'+'; 
....................    if (base <0 || base ==1|| base >36) // invalid base 
....................    goto StrtolGO; 
....................    else if (base) 
....................    { 
....................       if(base==16 && *sc =='0'&&(sc[1]=='x' || sc[1]=='X')) 
....................          sc+=2; 
....................       if(base==8 && *sc =='0') 
....................          sc+=1; 
....................       if(base==2 && *sc =='0'&&sc[1]=='b') 
....................          sc+=2; 
....................  
....................    } 
....................    else if(*sc!='0') // base is 0, find base 
....................       base=10; 
....................    else if (sc[1]=='x' || sc[1]=='X') 
....................       base =16,sc+=2; 
....................    else if(sc[1]=='b') 
....................       base=2,sc+=2; 
....................    else 
....................       base=8; 
....................    for (s1=sc;*sc=='0';++sc);// skip leading zeroes 
....................  
....................    sd=memchr(digits,tolower(*sc),base); 
....................    for(;sd!=0;) 
....................    { 
....................       x=x*base+(int16)(sd-digits); 
....................       ++sc; 
....................       sd=memchr(digits,tolower(*sc),base); 
....................    } 
....................    if(s1==sc) 
....................    { 
....................    StrtolGO: 
....................       if (endptr) 
....................       { 
....................          #IF LONG_POINTERS 
....................          *((long *)endptr)= s;  
....................          #ELSE 
....................          *((char *)endptr)=s; 
....................          #ENDIF 
....................       } 
....................    return 0; 
....................    } 
....................    if(sign=='-') 
....................       x  =-x; 
....................    if (endptr) 
....................    { 
....................         #IF LONG_POINTERS 
....................          *((long *)endptr)= sc;  
....................         #ELSE 
....................         *((char *)endptr)=sc; 
....................         #ENDIF 
....................    } 
....................    return x; 
.................... } 
....................  
.................... signed int8 system(char *string) 
.................... { 
....................    return 0; 
.................... } 
....................  
.................... int8 mblen(char *s,size_t n) 
.................... { 
....................    return strlen(s); 
.................... } 
....................  
.................... int8 mbtowc(wchar_t *pwc,char *s,size_t n) 
.................... { 
....................    *pwc=*s; 
....................    return 1; 
.................... } 
....................  
.................... int8 wctomb(char *s,wchar_t wchar) 
.................... { 
....................    *s=wchar; 
....................    return 1; 
.................... } 
....................  
.................... size_t mbstowcs(wchar_t *pwcs,char *s,size_t n) 
.................... { 
....................    strncpy(pwcs,s,n); 
....................    return strlen(pwcs); 
.................... } 
....................  
.................... size_t wcstombs(char *s,wchar_t *pwcs,size_t n) 
.................... { 
....................    strncpy(s,pwcs,n); 
....................    return strlen(s); 
.................... } 
....................  
.................... //--------------------------------------------------------------------------- 
.................... // The random number implementation 
.................... //--------------------------------------------------------------------------- 
....................  
.................... unsigned int32 _Randseed; 
....................  
.................... unsigned int16 rand(void) 
.................... { 
....................    _Randseed = _Randseed * 1103515245 + 12345; 
....................    return ((unsigned int16)(_Randseed >> 16) % RAND_MAX); 
.................... } 
....................  
.................... void srand(unsigned int32 seed) 
.................... { 
....................    _Randseed = seed; 
.................... } 
....................  
.................... //--------------------------------------------------------------------------- 
.................... // Searching and sorting utilities implementation 
.................... //--------------------------------------------------------------------------- 
....................  
.................... #if !defined(__PCD__) 
.................... typedef signed int8 (*_Cmpfun)(char * p1,char * p2);  
.................... #else  
.................... typedef signed int16 (*_Cmpfun)(char * p1,char * p2);  
.................... #endif 
....................  
....................  
....................  
.................... void qsort(char * qdata, unsigned int qitems, unsigned int qsize, _Cmpfun cmp) { 
....................    unsigned int m,j,i,l; 
....................    int1 done; 
....................    unsigned int8 t[16]; 
....................  
....................    m = qitems/2; 
....................    while( m > 0 ) { 
....................      for(j=0; j<(qitems-m); ++j) { 
....................         i = j; 
....................         do 
....................         { 
....................            done=1; 
....................            l = i+m; 
....................            if( (*cmp)(qdata+i*qsize, qdata+l*qsize) > 0 ) { 
....................               memcpy(t, qdata+i*qsize, qsize); 
....................               memcpy(qdata+i*qsize, qdata+l*qsize, qsize); 
....................               memcpy(qdata+l*qsize, t, qsize); 
....................               if(m <= i) 
....................                 i -= m; 
....................                 done = 0; 
....................            } 
....................         } while(!done); 
....................      } 
....................      m = m/2; 
....................    } 
.................... } 
....................  
....................  
.................... char *bsearch(char *key, char *base, size_t num, size_t width,_Cmpfun cmp) 
.................... { 
....................    char *p, *q; 
....................    size_t n; 
....................    size_t pivot; 
....................    signed int val; 
....................  
....................    p = base; 
....................    n = num; 
....................  
....................    while (n > 0) 
....................    { 
....................       pivot = n >> 1; 
....................       q = p + width * pivot; 
....................  
....................       val = (*cmp)(key, q); 
....................  
....................       if (val < 0) 
....................          n = pivot; 
....................       else if (val == 0) 
....................          return ((char *)q); 
....................       else { 
....................          p = q + width; 
....................          n -= pivot + 1; 
....................       } 
....................    } 
....................  
....................    return NULL;      // There's no match 
.................... } 
....................  
....................  
.................... #endif 
....................  
.................... #include <DS1302.c> 
.................... ////////////////////////////////////////////////////////////////////////// 
.................... ////                               DS1302.C                           //// 
.................... ////                     Driver for Real Time Clock                   //// 
.................... ////                                                                  //// 
.................... ////  rtc_init()                                   Call after power up//// 
.................... ////                                                                  //// 
.................... ////  rtc_set_datetime(day,mth,year,dow,hour,min)  Set the date/time  //// 
.................... ////                                                                  //// 
.................... ////  rtc_get_date(day,mth,year,dow)               Get the date       //// 
.................... ////                                                                  //// 
.................... ////  rtc_get_time(hr,min,sec)                     Get the time       //// 
.................... ////                                                                  //// 
.................... ////  rtc_write_nvr(address,data)                  Write to NVR       //// 
.................... ////                                                                  //// 
.................... ////  data = rtc_read_nvr(address)                 Read from NVR      //// 
.................... ////                                                                  //// 
.................... ////  get_bcd(data)                              Convert data to BCD  //// 
.................... ////                                                                  //// 
.................... ////  rm_bcd(data)                               Convert data to int  //// 
.................... ////                                                                  //// 
.................... ////////////////////////////////////////////////////////////////////////// 
.................... ////        (C) Copyright 1996,2003 Custom Computer Services          //// 
.................... //// This source code may only be used by licensed users of the CCS C //// 
.................... //// compiler.  This source code may only be distributed to other     //// 
.................... //// licensed users of the CCS C compiler.  No other use, reproduction//// 
.................... //// or distribution is permitted without written permission.         //// 
.................... //// Derivative programs created using this software in object code   //// 
.................... //// form are not restricted in any way.                              //// 
.................... ////////////////////////////////////////////////////////////////////////// 
....................  
.................... //#ifndef RTC_SCLK 
....................  
.................... #define RTC_SCLK PIN_D1 
.................... #define RTC_IO   PIN_D2 
.................... #define RTC_RST  PIN_D3 
....................  
.................... //#endif 
....................  
.................... void write_ds1302_byte(BYTE cmd) { 
....................    BYTE i; 
....................  
....................    for(i=0;i<=7;++i) { 
*
02BEC:  MOVLB  4
02BEE:  CLRF   x49
02BF0:  MOVF   x49,W
02BF2:  SUBLW  07
02BF4:  BNC   2C10
....................       output_bit(RTC_IO, shift_right(&cmd,1,0) ); 
02BF6:  BCF    FD8.0
02BF8:  RRCF   x48,F
02BFA:  BC    2C00
02BFC:  BCF    F8C.2
02BFE:  BRA    2C02
02C00:  BSF    F8C.2
02C02:  BCF    F95.2
....................       output_high(RTC_SCLK); 
02C04:  BCF    F95.1
02C06:  BSF    F8C.1
....................       output_low(RTC_SCLK); 
02C08:  BCF    F95.1
02C0A:  BCF    F8C.1
....................    } 
02C0C:  INCF   x49,F
02C0E:  BRA    2BF0
.................... } 
02C10:  MOVLB  0
02C12:  RETLW  00
....................  
.................... void write_ds1302(BYTE cmd, BYTE data) { 
....................  
....................    output_high(RTC_RST); 
02C14:  BCF    F95.3
02C16:  BSF    F8C.3
....................    write_ds1302_byte(cmd); 
02C18:  MOVFF  446,448
02C1C:  RCALL  2BEC
....................    write_ds1302_byte(data); 
02C1E:  MOVFF  447,448
02C22:  RCALL  2BEC
....................    output_low(RTC_RST); 
02C24:  BCF    F95.3
02C26:  BCF    F8C.3
.................... } 
02C28:  RETLW  00
....................  
.................... BYTE read_ds1302(BYTE cmd) { 
....................    BYTE i,data; 
....................  
....................    output_high(RTC_RST); 
02C2A:  BCF    F95.3
02C2C:  BSF    F8C.3
....................    write_ds1302_byte(cmd); 
02C2E:  MOVFF  443,448
02C32:  RCALL  2BEC
....................     
....................    input(RTC_IO); 
02C34:  BSF    F95.2
....................    delay_us(10); 
02C36:  MOVLW  10
02C38:  MOVWF  00
02C3A:  DECFSZ 00,F
02C3C:  BRA    2C3A
02C3E:  NOP   
....................           
....................    for(i=0;i<=7;++i) { 
02C40:  MOVLB  4
02C42:  CLRF   x44
02C44:  MOVF   x44,W
02C46:  SUBLW  07
02C48:  BNC   2C74
....................       shift_right(&data,1,input(RTC_IO)); 
02C4A:  BSF    F95.2
02C4C:  BTFSC  F83.2
02C4E:  BRA    2C54
02C50:  BCF    FD8.0
02C52:  BRA    2C56
02C54:  BSF    FD8.0
02C56:  RRCF   x45,F
....................       output_high(RTC_SCLK); 
02C58:  BCF    F95.1
02C5A:  BSF    F8C.1
....................       delay_us(20); 
02C5C:  MOVLW  21
02C5E:  MOVWF  00
02C60:  DECFSZ 00,F
02C62:  BRA    2C60
....................       output_low(RTC_SCLK); 
02C64:  BCF    F95.1
02C66:  BCF    F8C.1
....................       delay_us(20); 
02C68:  MOVLW  21
02C6A:  MOVWF  00
02C6C:  DECFSZ 00,F
02C6E:  BRA    2C6C
....................    } 
02C70:  INCF   x44,F
02C72:  BRA    2C44
....................    output_low(RTC_RST); 
02C74:  BCF    F95.3
02C76:  BCF    F8C.3
....................  
....................    return(data); 
02C78:  MOVFF  445,01
.................... } 
02C7C:  MOVLB  0
02C7E:  RETLW  00
....................  
.................... void rtc_init() { 
....................    BYTE x; 
....................    output_low(RTC_RST); 
02C80:  BCF    F95.3
02C82:  BCF    F8C.3
....................    delay_us(20); 
02C84:  MOVLW  21
02C86:  MOVWF  00
02C88:  DECFSZ 00,F
02C8A:  BRA    2C88
....................    output_low(RTC_SCLK); 
02C8C:  BCF    F95.1
02C8E:  BCF    F8C.1
....................    write_ds1302(0x8e,0); 
02C90:  MOVLW  8E
02C92:  MOVLB  4
02C94:  MOVWF  x46
02C96:  CLRF   x47
02C98:  MOVLB  0
02C9A:  RCALL  2C14
....................    write_ds1302(0x90,0xa4); 
02C9C:  MOVLW  90
02C9E:  MOVLB  4
02CA0:  MOVWF  x46
02CA2:  MOVLW  A4
02CA4:  MOVWF  x47
02CA6:  MOVLB  0
02CA8:  RCALL  2C14
....................    x=read_ds1302(0x81); 
02CAA:  MOVLW  81
02CAC:  MOVLB  4
02CAE:  MOVWF  x43
02CB0:  MOVLB  0
02CB2:  RCALL  2C2A
02CB4:  MOVFF  01,43F
....................    if((x & 0x80)!=0) 
02CB8:  MOVLB  4
02CBA:  MOVF   x3F,W
02CBC:  ANDLW  80
02CBE:  BZ    2CCC
....................      write_ds1302(0x80,0); 
02CC0:  MOVLW  80
02CC2:  MOVWF  x46
02CC4:  CLRF   x47
02CC6:  MOVLB  0
02CC8:  RCALL  2C14
02CCA:  MOVLB  4
.................... } 
02CCC:  MOVLB  0
02CCE:  GOTO   734E (RETURN)
....................  
.................... byte get_bcd(BYTE data) 
.................... { 
....................    byte nibh; 
....................    byte nibl; 
....................  
....................    nibh=data/10; 
*
04CE4:  MOVFF  445,449
04CE8:  MOVLW  0A
04CEA:  MOVLB  4
04CEC:  MOVWF  x4A
04CEE:  MOVLB  0
04CF0:  RCALL  480E
04CF2:  MOVFF  01,446
....................    nibl=data-(nibh*10); 
04CF6:  MOVLB  4
04CF8:  MOVF   x46,W
04CFA:  MULLW  0A
04CFC:  MOVF   FF3,W
04CFE:  SUBWF  x45,W
04D00:  MOVWF  x47
....................  
....................    return((nibh<<4)|nibl); 
04D02:  SWAPF  x46,W
04D04:  MOVWF  00
04D06:  MOVLW  F0
04D08:  ANDWF  00,F
04D0A:  MOVF   00,W
04D0C:  IORWF  x47,W
04D0E:  MOVWF  01
.................... } 
04D10:  MOVLB  0
04D12:  RETLW  00
....................  
.................... byte rm_bcd(BYTE data) 
.................... { 
....................    byte i; 
....................  
....................    i=data; 
*
046A8:  MOVFF  444,445
....................    data=(i>>4)*10; 
046AC:  MOVLB  4
046AE:  SWAPF  x45,W
046B0:  MOVWF  00
046B2:  MOVLW  0F
046B4:  ANDWF  00,F
046B6:  MOVF   00,W
046B8:  MULLW  0A
046BA:  MOVFF  FF3,444
....................    data=data+(i<<4>>4); 
046BE:  SWAPF  x45,W
046C0:  MOVWF  00
046C2:  MOVLW  F0
046C4:  ANDWF  00,F
046C6:  MOVF   00,W
046C8:  SWAPF  00,F
046CA:  MOVLW  0F
046CC:  ANDWF  00,F
046CE:  MOVF   00,W
046D0:  ADDWF  x44,F
....................  
....................    return data; 
046D2:  MOVFF  444,01
.................... } 
046D6:  MOVLB  0
046D8:  RETLW  00
....................  
.................... void rtc_set_datetime(BYTE day, BYTE mth, BYTE year, BYTE dow, BYTE hr, BYTE min) { 
....................  
....................    write_ds1302(0x86,get_bcd(day)); 
*
04D14:  MOVFF  43F,445
04D18:  RCALL  4CE4
04D1A:  MOVFF  01,445
04D1E:  MOVLW  86
04D20:  MOVLB  4
04D22:  MOVWF  x46
04D24:  MOVFF  01,447
04D28:  MOVLB  0
04D2A:  CALL   2C14
....................    write_ds1302(0x88,get_bcd(mth)); 
04D2E:  MOVFF  440,445
04D32:  RCALL  4CE4
04D34:  MOVFF  01,445
04D38:  MOVLW  88
04D3A:  MOVLB  4
04D3C:  MOVWF  x46
04D3E:  MOVFF  01,447
04D42:  MOVLB  0
04D44:  CALL   2C14
....................    write_ds1302(0x8c,get_bcd(year)); 
04D48:  MOVFF  441,445
04D4C:  RCALL  4CE4
04D4E:  MOVFF  01,445
04D52:  MOVLW  8C
04D54:  MOVLB  4
04D56:  MOVWF  x46
04D58:  MOVFF  01,447
04D5C:  MOVLB  0
04D5E:  CALL   2C14
....................    write_ds1302(0x8a,get_bcd(dow)); 
04D62:  MOVFF  442,445
04D66:  RCALL  4CE4
04D68:  MOVFF  01,445
04D6C:  MOVLW  8A
04D6E:  MOVLB  4
04D70:  MOVWF  x46
04D72:  MOVFF  01,447
04D76:  MOVLB  0
04D78:  CALL   2C14
....................    write_ds1302(0x84,get_bcd(hr)); 
04D7C:  MOVFF  443,445
04D80:  RCALL  4CE4
04D82:  MOVFF  01,445
04D86:  MOVLW  84
04D88:  MOVLB  4
04D8A:  MOVWF  x46
04D8C:  MOVFF  01,447
04D90:  MOVLB  0
04D92:  CALL   2C14
....................    write_ds1302(0x82,get_bcd(min)); 
04D96:  MOVFF  444,445
04D9A:  RCALL  4CE4
04D9C:  MOVFF  01,445
04DA0:  MOVLW  82
04DA2:  MOVLB  4
04DA4:  MOVWF  x46
04DA6:  MOVFF  01,447
04DAA:  MOVLB  0
04DAC:  CALL   2C14
....................    write_ds1302(0x80,get_bcd(0)); 
04DB0:  MOVLB  4
04DB2:  CLRF   x45
04DB4:  MOVLB  0
04DB6:  RCALL  4CE4
04DB8:  MOVFF  01,445
04DBC:  MOVLW  80
04DBE:  MOVLB  4
04DC0:  MOVWF  x46
04DC2:  MOVFF  01,447
04DC6:  MOVLB  0
04DC8:  CALL   2C14
.................... } 
04DCC:  GOTO   A322 (RETURN)
....................  
.................... void rtc_get_date(BYTE& day, BYTE& mth, BYTE& year, BYTE& dow) { 
....................    day = rm_bcd(read_ds1302(0x87)); 
*
0753C:  MOVLW  87
0753E:  MOVLB  4
07540:  MOVWF  x43
07542:  MOVLB  0
07544:  CALL   2C2A
07548:  MOVFF  01,43F
0754C:  MOVFF  01,444
07550:  CALL   46A8
07554:  MOVFF  01,3A0
....................    mth = rm_bcd(read_ds1302(0x89)); 
07558:  MOVLW  89
0755A:  MOVLB  4
0755C:  MOVWF  x43
0755E:  MOVLB  0
07560:  CALL   2C2A
07564:  MOVFF  01,43F
07568:  MOVFF  01,444
0756C:  CALL   46A8
07570:  MOVFF  01,39F
....................    year = rm_bcd(read_ds1302(0x8d)); 
07574:  MOVLW  8D
07576:  MOVLB  4
07578:  MOVWF  x43
0757A:  MOVLB  0
0757C:  CALL   2C2A
07580:  MOVFF  01,43F
07584:  MOVFF  01,444
07588:  CALL   46A8
0758C:  MOVFF  01,39E
....................    dow = rm_bcd(read_ds1302(0x8b)); 
07590:  MOVLW  8B
07592:  MOVLB  4
07594:  MOVWF  x43
07596:  MOVLB  0
07598:  CALL   2C2A
0759C:  MOVFF  01,43F
075A0:  MOVFF  01,444
075A4:  CALL   46A8
075A8:  MOVFF  01,3A4
.................... } 
....................  
.................... void rtc_get_time(BYTE& hr, BYTE& min, BYTE& sec) { 
....................    hr = rm_bcd(read_ds1302(0x85)); 
075AC:  MOVLW  85
075AE:  MOVLB  4
075B0:  MOVWF  x43
075B2:  MOVLB  0
075B4:  CALL   2C2A
075B8:  MOVFF  01,43F
075BC:  MOVFF  01,444
075C0:  CALL   46A8
075C4:  MOVFF  01,3A1
....................    min = rm_bcd(read_ds1302(0x83)); 
075C8:  MOVLW  83
075CA:  MOVLB  4
075CC:  MOVWF  x43
075CE:  MOVLB  0
075D0:  CALL   2C2A
075D4:  MOVFF  01,43F
075D8:  MOVFF  01,444
075DC:  CALL   46A8
075E0:  MOVFF  01,3A2
....................    sec = rm_bcd(read_ds1302(0x81)); 
075E4:  MOVLW  81
075E6:  MOVLB  4
075E8:  MOVWF  x43
075EA:  MOVLB  0
075EC:  CALL   2C2A
075F0:  MOVFF  01,43F
075F4:  MOVFF  01,444
075F8:  CALL   46A8
075FC:  MOVFF  01,3A3
.................... } 
....................  
.................... void rtc_write_nvr(BYTE address, BYTE data) { 
....................    write_ds1302(address|0xc0,data); 
.................... } 
....................  
.................... BYTE rtc_read_nvr(BYTE address) { 
....................     return(read_ds1302(address|0xc1)); 
.................... } 
....................  
.................... #include <24512.c> 
.................... /////////////////////////////////////////////////////////////////////////// 
.................... ////   Library for a 24LC512 serial EEPROM                             //// 
.................... ////                                                                   //// 
.................... ////   init_ext_eeprom();    Call before the other functions are used  //// 
.................... ////                                                                   //// 
.................... ////   write_ext_eeprom(a, d);  Write the byte d to the address a      //// 
.................... ////                                                                   //// 
.................... ////   d = read_ext_eeprom(a);   Read the byte d from the address a    //// 
.................... ////                                                                   //// 
.................... ////   The main program may define eeprom_sda                          //// 
.................... ////   and eeprom_scl to override the defaults below.                  //// 
.................... ////                                                                   //// 
.................... /////////////////////////////////////////////////////////////////////////// 
.................... ////        (C) Copyright 1996,2003 Custom Computer Services           //// 
.................... //// This source code may only be used by licensed users of the CCS C  //// 
.................... //// compiler.  This source code may only be distributed to other      //// 
.................... //// licensed users of the CCS C compiler.  No other use, reproduction //// 
.................... //// or distribution is permitted without written permission.          //// 
.................... //// Derivative programs created using this software in object code    //// 
.................... //// form are not restricted in any way.                               //// 
.................... /////////////////////////////////////////////////////////////////////////// 
....................  
.................... #ifndef EEPROM_SDA 
....................  
.................... #define EEPROM_SDA  PIN_C4 
.................... #define EEPROM_SCL  PIN_C3 
....................  
.................... #endif 
....................  
.................... //#use i2c(master, sda=EEPROM_SDA, scl=EEPROM_SCL) 
....................  
.................... #define EEPROM_ADDRESS long int 
.................... #define EEPROM_SIZE   65535 
....................  
.................... void init_ext_eeprom() 
.................... { 
....................    output_float(EEPROM_SCL); 
....................    output_float(EEPROM_SDA); 
....................  
.................... } 
....................  
.................... void write_ext_eeprom(long int address, BYTE data) 
.................... { 
....................    short int status; 
....................    i2c_start(); 
*
05FA4:  BSF    F94.4
05FA6:  MOVLW  05
05FA8:  MOVWF  00
05FAA:  DECFSZ 00,F
05FAC:  BRA    5FAA
05FAE:  BSF    F94.3
05FB0:  MOVLW  06
05FB2:  MOVWF  00
05FB4:  DECFSZ 00,F
05FB6:  BRA    5FB4
05FB8:  BCF    F8B.4
05FBA:  BCF    F94.4
05FBC:  MOVLW  05
05FBE:  MOVWF  00
05FC0:  DECFSZ 00,F
05FC2:  BRA    5FC0
05FC4:  BCF    F8B.3
05FC6:  BCF    F94.3
....................    i2c_write(0xa0); 
05FC8:  MOVLW  A0
05FCA:  MOVLB  4
05FCC:  MOVWF  x58
05FCE:  MOVLB  0
05FD0:  CALL   4198
....................    i2c_write(address>>8); 
05FD4:  MOVFF  447,44A
05FD8:  MOVLB  4
05FDA:  CLRF   x4B
05FDC:  MOVFF  447,458
05FE0:  MOVLB  0
05FE2:  CALL   4198
....................    i2c_write(address); 
05FE6:  MOVFF  446,458
05FEA:  CALL   4198
....................    i2c_write(data); 
05FEE:  MOVFF  448,458
05FF2:  CALL   4198
....................    i2c_stop(); 
05FF6:  BCF    F94.4
05FF8:  NOP   
05FFA:  BSF    F94.3
05FFC:  BTFSS  F82.3
05FFE:  BRA    5FFC
06000:  MOVLW  05
06002:  MOVWF  00
06004:  DECFSZ 00,F
06006:  BRA    6004
06008:  BRA    600A
0600A:  NOP   
0600C:  BSF    F94.4
0600E:  MOVLW  05
06010:  MOVWF  00
06012:  DECFSZ 00,F
06014:  BRA    6012
....................    i2c_start(); 
06016:  BSF    F94.4
06018:  MOVLW  05
0601A:  MOVWF  00
0601C:  DECFSZ 00,F
0601E:  BRA    601C
06020:  BSF    F94.3
06022:  MOVLW  06
06024:  MOVWF  00
06026:  DECFSZ 00,F
06028:  BRA    6026
0602A:  BCF    F8B.4
0602C:  BCF    F94.4
0602E:  MOVLW  05
06030:  MOVWF  00
06032:  DECFSZ 00,F
06034:  BRA    6032
06036:  BCF    F8B.3
06038:  BCF    F94.3
....................    status=i2c_write(0xa0); 
0603A:  MOVLW  A0
0603C:  MOVLB  4
0603E:  MOVWF  x58
06040:  MOVLB  0
06042:  CALL   4198
06046:  MOVF   01,W
06048:  MOVLB  4
0604A:  BCF    x49.0
0604C:  BTFSC  01.0
0604E:  BSF    x49.0
....................    while(status==1) 
....................    { 
06050:  BTFSS  x49.0
06052:  BRA    6092
....................       i2c_start(); 
06054:  BSF    F94.4
06056:  MOVLW  05
06058:  MOVWF  00
0605A:  DECFSZ 00,F
0605C:  BRA    605A
0605E:  BSF    F94.3
06060:  MOVLW  06
06062:  MOVWF  00
06064:  DECFSZ 00,F
06066:  BRA    6064
06068:  BTFSS  F82.3
0606A:  BRA    6068
0606C:  BCF    F8B.4
0606E:  BCF    F94.4
06070:  MOVLW  05
06072:  MOVWF  00
06074:  DECFSZ 00,F
06076:  BRA    6074
06078:  BCF    F8B.3
0607A:  BCF    F94.3
....................       status=i2c_write(0xa0); 
0607C:  MOVLW  A0
0607E:  MOVWF  x58
06080:  MOVLB  0
06082:  CALL   4198
06086:  MOVF   01,W
06088:  MOVLB  4
0608A:  BCF    x49.0
0608C:  BTFSC  01.0
0608E:  BSF    x49.0
....................    } 
06090:  BRA    6050
....................    i2c_stop(); 
06092:  BCF    F94.4
06094:  NOP   
06096:  BSF    F94.3
06098:  BTFSS  F82.3
0609A:  BRA    6098
0609C:  MOVLW  05
0609E:  MOVWF  00
060A0:  DECFSZ 00,F
060A2:  BRA    60A0
060A4:  BRA    60A6
060A6:  NOP   
060A8:  BSF    F94.4
060AA:  MOVLW  05
060AC:  MOVWF  00
060AE:  DECFSZ 00,F
060B0:  BRA    60AE
.................... } 
060B2:  MOVLB  0
060B4:  RETLW  00
....................  
.................... BYTE read_ext_eeprom(long int address) { 
....................    BYTE data; 
....................    i2c_start(); 
*
04EFE:  BSF    F94.4
04F00:  MOVLW  05
04F02:  MOVWF  00
04F04:  DECFSZ 00,F
04F06:  BRA    4F04
04F08:  BSF    F94.3
04F0A:  MOVLW  06
04F0C:  MOVWF  00
04F0E:  DECFSZ 00,F
04F10:  BRA    4F0E
04F12:  BCF    F8B.4
04F14:  BCF    F94.4
04F16:  MOVLW  05
04F18:  MOVWF  00
04F1A:  DECFSZ 00,F
04F1C:  BRA    4F1A
04F1E:  BCF    F8B.3
04F20:  BCF    F94.3
....................    i2c_write(0xa0); 
04F22:  MOVLW  A0
04F24:  MOVLB  4
04F26:  MOVWF  x58
04F28:  MOVLB  0
04F2A:  CALL   4198
....................    i2c_write(address>>8); 
04F2E:  MOVFF  445,447
04F32:  MOVLB  4
04F34:  CLRF   x48
04F36:  MOVFF  445,458
04F3A:  MOVLB  0
04F3C:  CALL   4198
....................    i2c_write(address); 
04F40:  MOVFF  444,458
04F44:  CALL   4198
....................    i2c_start(); 
04F48:  BSF    F94.4
04F4A:  MOVLW  05
04F4C:  MOVWF  00
04F4E:  DECFSZ 00,F
04F50:  BRA    4F4E
04F52:  BSF    F94.3
04F54:  MOVLW  06
04F56:  MOVWF  00
04F58:  DECFSZ 00,F
04F5A:  BRA    4F58
04F5C:  BTFSS  F82.3
04F5E:  BRA    4F5C
04F60:  BCF    F8B.4
04F62:  BCF    F94.4
04F64:  MOVLW  05
04F66:  MOVWF  00
04F68:  DECFSZ 00,F
04F6A:  BRA    4F68
04F6C:  BCF    F8B.3
04F6E:  BCF    F94.3
....................    i2c_write(0xa1); 
04F70:  MOVLW  A1
04F72:  MOVLB  4
04F74:  MOVWF  x58
04F76:  MOVLB  0
04F78:  CALL   4198
....................    data=i2c_read(0); 
04F7C:  CLRF   00
04F7E:  BRA    4E92
04F80:  MOVFF  01,446
....................    i2c_stop(); 
04F84:  BCF    F94.4
04F86:  NOP   
04F88:  BSF    F94.3
04F8A:  BTFSS  F82.3
04F8C:  BRA    4F8A
04F8E:  MOVLW  05
04F90:  MOVWF  00
04F92:  DECFSZ 00,F
04F94:  BRA    4F92
04F96:  BRA    4F98
04F98:  NOP   
04F9A:  BSF    F94.4
04F9C:  MOVLW  05
04F9E:  MOVWF  00
04FA0:  DECFSZ 00,F
04FA2:  BRA    4FA0
....................    return(data); 
04FA4:  MOVLB  4
04FA6:  MOVFF  446,01
.................... } 
04FAA:  MOVLB  0
04FAC:  RETLW  00
....................  
....................  
.................... //#define PT100Fija //Define para autcolaves con reservorio y Pt100 fija (NO FLEXIBLE) 
....................  
.................... #define   UP            !input(PIN_B0) 
.................... #define   DOWN          !input(PIN_B1) 
.................... #define   RIGHT         !input(PIN_B2) 
.................... #define   LEFT          !input(PIN_B3) 
....................  
.................... #define   DOOR          !input(PIN_B6) 
.................... #define   STOP          !input(PIN_B7) 
.................... #define   TERM          !input(PIN_B5) 
....................  
.................... #define   LOW           input(PIN_C1) 
.................... #define   HIG           input(PIN_C0) 
....................  
.................... #define   SSR_on           output_bit(PIN_C2,0) 
.................... #define   SSR_off          output_bit(PIN_C2,1) 
....................  
.................... #define   Buzzer_on        output_bit(PIN_D0,1) 
.................... #define   Buzzer_off       output_bit(PIN_D0,0) 
....................  
.................... #define   Desfogue_on      output_bit(PIN_D4,1) 
.................... #define   Desfogue_off     output_bit(PIN_D4,0) 
....................  
.................... #define   Suministro_on    output_bit(PIN_D5,1) 
.................... #define   Suministro_off   output_bit(PIN_D5,0) 
....................  
.................... #define   Paso_on          output_bit(PIN_D6,1) 
.................... #define   Paso_off         output_bit(PIN_D6,0) 
....................  
.................... #define OFF 0 
.................... #define ON  1 
.................... #define RX_BUFFER_SIZE  10 
.................... char Rx_Buffer[RX_BUFFER_SIZE+1]; 
.................... char Rx_Buffer2[RX_BUFFER_SIZE+1]; 
.................... char RX_Wr_Index=0; 
.................... char RX_Rd_Index=0; 
.................... char RX_Counter=0; 
....................  
.................... #define TX_BUFFER_SIZE  24 
.................... char Tx_Buffer[TX_BUFFER_SIZE+1]; 
.................... char TX_Wr_Index=0; 
.................... char TX_Counter=0; 
.................... //int1 RX_Buffer_Overflow=0; 
....................  
.................... //Comunicacion//------------------------ 
.................... byte SlaveA0Tx[0X20]; 
.................... byte dato=0;            //Contendr la informacin a enviar o recibir 
.................... byte direccion=0;       //Contendr la direccin del esclavo en el bus I2C 
.................... byte posicion=0;        //Contendr la posicin en el buffer de memoria del esclavo donde se almacenar o de donde se recuperar el dato 
....................  
.................... /* Tabla de Modulos, Primera Fila Ao Regular y el siguiente ao Bisiesto 
.................... E   F   M   A   M   J   J   A   S   O   N   D 
.................... 0   3   3   6   1   4   6   2   5   0   3   5 
.................... 0   3   4   0   2   5   0   3   6   1   4   6 
.................... */ 
.................... int8 Regular[12]={0,3,3,6,1,4,6,2,5,0,3,5}; 
.................... int8 Bisiesto[12]={0,3,4,0,2,5,0,3,6,1,4,6}; 
....................  
.................... //Alarmas//--------------------- 
.................... short AlarmaTiempoProlongado=OFF,AlarmaSobreTemperatura=OFF,AlarmaLlenado=OFF,AlarmaTermostato=OFF,AlarmaPuerta=OFF,AlarmaEmergencia=OFF,AlarmaCiclo=OFF; 
....................  
.................... //Banderas//-------------------- 
.................... short IniciaLlenado=OFF,CalderinLleno=OFF,IniciaCiclo=OFF,Esterilizando=OFF,Secando=OFF,SensadoNivel=OFF,Desfogando=OFF,DesfogueSuave=OFF; 
.................... short EstadoDesfogue=OFF,EstadoAgua=OFF,EstadoSSR=OFF,PruebaEstados=OFF,Ciclo=OFF,flagCalentando=OFF,flagEsterilizando=OFF,EstadoAire=OFF; 
.................... short flagDesfogando=OFF,Op=OFF,Op2=OFF,Minutos=OFF,Segundos=OFF,GuardaEEPROM=OFF,EstadoPaso=OFF,EstadoBuzzer=OFF,flagAlarma=OFF,Precalentamiento=OFF; 
.................... short flagBuzzer=OFF,flagSilencio=OFF,Finalizo=OFF,AlarmaPresion=OFF,Libre=OFF,purga=OFF,entro=OFF,Aire=OFF,disp_Guarda=OFF,guardaCiclo=OFF; 
....................  
.................... //Tiempos//--------------------- 
.................... int16 TiempoCiclo=0,TiempoLlenado=0,TiempoSensadoNivel=0,Tp=0,Tc=0,tguarda=0; 
.................... signed int  Testerilizacion[5]={0,0,0,0,0};   // Tiempo transcurrido 
.................... signed int  Testerilizacionp[5]={0,0,0,0,0};   // Tiempo transcurrido 
.................... signed int  Tsecado[4]={0,0,0,0};   // Tiempo transcurrido 
.................... signed int  Tsecadop[4]={0,0,0,0};   // Tiempo transcurrido 
....................  
.................... //Control//------------------------ 
.................... float promedio[80]={0.0,0.0,0.0,0.0,0.0,0.0,0.0,0.0,0.0,0.0,0.0,0.0,0.0,0.0,0.0,0.0,0.0,0.0,0.0,0.0,0.0,0.0,0.0,0.0,0.0,0.0,0.0,0.0,0.0,0.0,0.0,0.0,0.0,0.0,0.0,0.0,0.0,0.0,0.0,0.0,0.0,0.0,0.0,0.0,0.0,0.0,0.0,0.0,0.0,0.0,0.0,0.0,0.0,0.0,0.0,0.0,0.0,0.0,0.0,0.0,0.0,0.0,0.0,0.0}; 
.................... float PromPresion[20]={0.0,0.0,0.0,0.0,0.0,0.0,0.0,0.0,0.0,0.0,0.0,0.0,0.0,0.0,0.0,0.0,0.0,0.0,0.0,0.0}; 
.................... float PromPresionp[20]={0.0,0.0,0.0,0.0,0.0,0.0,0.0,0.0,0.0,0.0,0.0,0.0,0.0,0.0,0.0,0.0,0.0,0.0,0.0,0.0}; 
.................... float Gain=141.6,RPT100=0.5,Temporal=0.0; 
.................... float R1=100,R10=6770; 
.................... float X[2]={0.0,0.0}; 
.................... float Xx[2]={0.0,0.0}; 
.................... float promediopresion=0.0,Aumento=0.0,Aumento2=0.0,promediopresionp=0.0; 
.................... int8 h=0,l=0,Ajuste=0,Ajusten=0,MediaMovil=20,TTrampa=0,PantallaPrincipal=0,TipoClave=0,Modulo=0,Digito=0,yy=0,cicloVisto=0,cicloVisualizado=0,posicionDato=0,j=0,codigoAlarma=0,codigoAnt=0; 
.................... float V0=0.0,Pt,Tciclo=10.0,Tpulso=0.0,error=0.0,Prom=0.0,Temperature=0.0,tmp=0.0,Ganancia=25.0,Ganancia2=20.0,desvio=1.2,tmp2=0.0; 
.................... float V1=0.0,Presion=0.0,V2=0.0,Presionp=0.0; 
.................... float Temperatura=0.0,K=0.0012858,Histeresis=0.0; 
.................... float a=0.0011,b=2.3302,c=-244.0723; 
.................... int8 Integral=0,Derivativo=0,CicloLibre=0; 
.................... float p1=0.0000011617,p2=-0.0010575,p3=0.44114,p4=65.043,Tactual=0.0; 
....................  
.................... //Varios//-------------------------------- 
.................... short desfoguelento=0,Lectura=0,Grafica=0; 
.................... short disp_Stop=0,flagTC=0,flagImprime=0,flagImprimir=0; 
.................... int8 Control=0,tiemporecta=0,Controlando=0,ActivaImpresion=1,timpresion=2,CalculoImpresion=0,Inicio=1,Dato_Exitoso=0,Dato2=0,z=0; 
.................... int8 Menu=0, MenuAnt=0,MenuAntt=240,i=0,CiclosL=0,CiclosH=0,CicloSeleccionado=0,desviacion=0,histe=0; 
.................... int8 Setpoint=0,Opcion=1,Opcion2=1,tiempo_esterilizacion=0,tiempo_secado=0,tiempoImpresion=0; 
.................... int16 tiempos=0,tiempos2=0,tiempos3=0,tiempoctrl=0,Nivel=0,tinicio=0,PresionCamara=0,PresionPreCamara=0,Ciclos=0,NivelSeleccionado=0; 
.................... signed int  Contrasena[4]={0,0,0,0};      // Contrasena de 4 digitos 
.................... signed int  Password[4]={0,0,0,0};        // Contrasena Almacenada de 4 digitos 
.................... int8 r=0,t=0,r22=0,t2=0,TiempoControl=0; 
.................... int8 y=0,ConteoBuzzer=0; 
.................... int16 t_exhaust=0,tbuzzer=0,tsilencio=0,tiempoAgua=0,tPurgaAire=0; 
.................... int8 Year=18,Mes=9,Dia=13,Hora=0,Minuto=0,Segundo=0,dow=0; 
.................... int8 YearTx=0,MesTx=0,DiaTx=0,HoraTx=0,MinutoTx=0,SegundoTx=0,dowTx=0,SetTime=0,Imprime=0; 
.................... int8 Atmosferica=72; 
.................... signed int8 G1=0,G2=0,sg1=0,sg2=0; 
.................... int8 iconoGrande[9]={86,88,80,84,82,90,78,76,92}; 
.................... int8 iconoPeque[9]={85,87,79,83,81,89,77,75,91}; 
.................... char const texto[9][20]={"LIQUIDOS A","CAUCHO","INSTRUMENTAL","LIQUIDOS B","LIBRE","TEST","HORA Y FECHA","CLAVE","DATOS"}; 
.................... int8 diaCiclos=0,mesCiclos=0,yearCiclos=0,usuarioCiclos=0,cicloCiclos=0; 
....................  
.................... float TCiclos[7]; 
.................... int16 PcCiclos[7]; 
.................... int16 PpcCiclos[7]; 
.................... int8 horaCiclos[7]; 
.................... int8 minutoCiclos[7]; 
.................... int8 ACiclos[7]; 
....................  
.................... typedef struct{ 
....................    int8 Temperatura; 
....................    int8 MinutoestH; 
....................    int8 MinutoestL; 
....................    int8 Segundoest; 
....................    int8 Minutosec; 
....................    int8 Segundosec; 
....................    int8 PulsosVacio; 
....................    int8 NivelVacio; 
....................    int8 NivelDesfogue; 
....................    int8 Minutoest; 
.................... }Personalizado; 
....................  
.................... Personalizado CiclosPersonalizados[4]; 
....................  
.................... #include "Funciones.h" 
.................... float inttofloat(int8 decimal){ 
....................    float tmp; 
....................    tmp=decimal; 
04FAE:  MOVLB  4
04FB0:  CLRF   x55
04FB2:  MOVFF  443,454
04FB6:  MOVLB  0
04FB8:  CALL   19D8
04FBC:  MOVFF  03,447
04FC0:  MOVFF  02,446
04FC4:  MOVFF  01,445
04FC8:  MOVFF  00,444
....................    return tmp/10; 
04FCC:  MOVFF  447,44B
04FD0:  MOVFF  446,44A
04FD4:  MOVFF  445,449
04FD8:  MOVFF  444,448
04FDC:  MOVLB  4
04FDE:  CLRF   x4F
04FE0:  CLRF   x4E
04FE2:  MOVLW  20
04FE4:  MOVWF  x4D
04FE6:  MOVLW  82
04FE8:  MOVWF  x4C
04FEA:  MOVLB  0
04FEC:  CALL   1A0E
.................... } 
04FF0:  GOTO   5310 (RETURN)
....................  
.................... void BorraBuffer(void){ 
.................... RX_Buffer[0]=0; 
*
047B0:  CLRF   30
.................... RX_Buffer[1]=0; 
047B2:  CLRF   31
.................... RX_Buffer[2]=0; 
047B4:  CLRF   32
.................... RX_Buffer[3]=0; 
047B6:  CLRF   33
.................... RX_Buffer[4]=0; 
047B8:  CLRF   34
.................... RX_Buffer[5]=0; 
047BA:  CLRF   35
.................... RX_Buffer[6]=0; 
047BC:  CLRF   36
.................... RX_Buffer[7]=0; 
047BE:  CLRF   37
.................... RX_Buffer[8]=0; 
047C0:  CLRF   38
.................... RX_Buffer[9]=0; 
047C2:  CLRF   39
....................  
.................... RX_Buffer2[0]=0; 
047C4:  CLRF   3B
.................... RX_Buffer2[1]=0; 
047C6:  CLRF   3C
.................... RX_Buffer2[2]=0; 
047C8:  CLRF   3D
.................... RX_Buffer2[3]=0; 
047CA:  CLRF   3E
.................... RX_Buffer2[4]=0; 
047CC:  CLRF   3F
.................... RX_Buffer2[5]=0; 
047CE:  CLRF   40
.................... RX_Buffer2[6]=0; 
047D0:  CLRF   41
.................... RX_Buffer2[7]=0; 
047D2:  CLRF   42
.................... RX_Buffer2[8]=0; 
047D4:  CLRF   43
.................... RX_Buffer2[9]=0; 
047D6:  CLRF   44
....................  
.................... } 
047D8:  GOTO   7668 (RETURN)
....................  
.................... char bgetc(void){ 
....................    char c; 
....................    while(RX_Counter==0) 
....................       ; 
....................    c=Rx_Buffer2[RX_Rd_Index]; 
....................    if(++RX_Rd_Index>RX_BUFFER_SIZE) 
....................       RX_Rd_Index=0; 
....................    if(RX_Counter) 
....................       RX_Counter--; 
....................    return c; 
.................... } 
....................  
.................... void bputc(char c){ 
....................    char restart=0; 
....................    while(TX_Counter> (TX_BUFFER_SIZE-1)) 
....................       ; 
....................    if(TX_Counter==0) 
....................       restart=1; 
....................    TX_Buffer[TX_Wr_Index++]=c; 
....................    if(TX_Wr_Index>TX_BUFFER_SIZE) 
....................       TX_Wr_Index=0; 
....................     
....................    TX_Counter++; 
....................     
....................    if(restart==1) 
....................       enable_interrupts(int_tbe); 
.................... } 
....................  
.................... void SendDataDisplay(void){ 
.................... delay_us(10); 
*
03874:  MOVLW  10
03876:  MOVWF  00
03878:  DECFSZ 00,F
0387A:  BRA    3878
0387C:  NOP   
.................... putc(0xFF); 
0387E:  MOVLW  FF
03880:  RCALL  386C
.................... delay_us(10); 
03882:  MOVLW  10
03884:  MOVWF  00
03886:  DECFSZ 00,F
03888:  BRA    3886
0388A:  NOP   
.................... putc(0xFF); 
0388C:  MOVLW  FF
0388E:  RCALL  386C
.................... delay_us(10); 
03890:  MOVLW  10
03892:  MOVWF  00
03894:  DECFSZ 00,F
03896:  BRA    3894
03898:  NOP   
.................... putc(0xFF); 
0389A:  MOVLW  FF
0389C:  RCALL  386C
.................... delay_us(10); 
0389E:  MOVLW  10
038A0:  MOVWF  00
038A2:  DECFSZ 00,F
038A4:  BRA    38A2
038A6:  NOP   
.................... } 
038A8:  RETLW  00
....................  
.................... short esBisiesto(int8 year) { 
....................      return ((year % 4 == 0 && year % 100 != 0) || year % 400 == 0); 
*
04C92:  MOVLB  4
04C94:  MOVF   x3F,W
04C96:  ANDLW  03
04C98:  BNZ   4CAC
04C9A:  MOVFF  43F,449
04C9E:  MOVLW  64
04CA0:  MOVWF  x4A
04CA2:  MOVLB  0
04CA4:  RCALL  480E
04CA6:  MOVF   00,F
04CA8:  BNZ   4CDA
04CAA:  MOVLB  4
04CAC:  CLRF   x44
04CAE:  MOVFF  43F,443
04CB2:  MOVLW  01
04CB4:  MOVWF  x46
04CB6:  MOVLW  90
04CB8:  MOVWF  x45
04CBA:  MOVLB  0
04CBC:  RCALL  4C4C
04CBE:  MOVFF  00,440
04CC2:  MOVLB  4
04CC4:  MOVFF  03,441
04CC8:  MOVF   x40,F
04CCA:  BNZ   4CD6
04CCC:  MOVF   x41,F
04CCE:  BTFSS  FD8.2
04CD0:  BRA    4CD6
04CD2:  MOVLB  0
04CD4:  BRA    4CDA
04CD6:  MOVLW  00
04CD8:  BRA    4CDE
04CDA:  MOVLW  01
04CDC:  MOVLB  4
04CDE:  MOVWF  01
.................... } 
04CE0:  MOVLB  0
04CE2:  RETLW  00
....................  
.................... void LimitaDia(){ 
....................    if(MesTx>12) 
*
04DD0:  MOVLB  3
04DD2:  MOVF   xA6,W
04DD4:  SUBLW  0C
04DD6:  BC    4DDC
....................       MesTx=10; 
04DD8:  MOVLW  0A
04DDA:  MOVWF  xA6
....................    if(DiaTx>31) 
04DDC:  MOVF   xA7,W
04DDE:  SUBLW  1F
04DE0:  BC    4DE6
....................       DiaTx=16; 
04DE2:  MOVLW  10
04DE4:  MOVWF  xA7
....................    if(YearTx>99) 
04DE6:  MOVF   xA5,W
04DE8:  SUBLW  63
04DEA:  BC    4DF0
....................       YearTx=18;    
04DEC:  MOVLW  12
04DEE:  MOVWF  xA5
....................    if(HoraTx>24) 
04DF0:  MOVF   xA8,W
04DF2:  SUBLW  18
04DF4:  BC    4DFA
....................       HoraTx=11;       
04DF6:  MOVLW  0B
04DF8:  MOVWF  xA8
....................    if(MinutoTx>59) 
04DFA:  MOVF   xA9,W
04DFC:  SUBLW  3B
04DFE:  BC    4E04
....................       MinutoTx=30;       
04E00:  MOVLW  1E
04E02:  MOVWF  xA9
....................     
....................       if(MesTx==2){ 
04E04:  MOVF   xA6,W
04E06:  SUBLW  02
04E08:  BNZ   4E34
....................          if(esBisiesto(YearTx)){ 
04E0A:  MOVFF  3A5,43F
04E0E:  MOVLB  0
04E10:  RCALL  4C92
04E12:  MOVF   01,F
04E14:  BZ    4E26
....................             if(DiaTx>29){ 
04E16:  MOVLB  3
04E18:  MOVF   xA7,W
04E1A:  SUBLW  1D
04E1C:  BC    4E22
....................                DiaTx=29; 
04E1E:  MOVLW  1D
04E20:  MOVWF  xA7
....................                //glcd_fillScreen(OFF); 
....................             } 
....................          }else{ 
04E22:  BRA    4E32
04E24:  MOVLB  0
....................             if(DiaTx>28){ 
04E26:  MOVLB  3
04E28:  MOVF   xA7,W
04E2A:  SUBLW  1C
04E2C:  BC    4E32
....................                DiaTx=28; 
04E2E:  MOVLW  1C
04E30:  MOVWF  xA7
....................                //glcd_fillScreen(OFF); 
....................             } 
....................          } 
....................       }else{ 
04E32:  BRA    4E5E
....................          if(MesTx<=7){ 
04E34:  MOVF   xA6,W
04E36:  SUBLW  07
04E38:  BNC   4E4C
....................             if(MesTx % 2 ==0){ 
04E3A:  MOVF   xA6,W
04E3C:  ANDLW  01
04E3E:  BNZ   4E4A
....................                if(DiaTx>30){ 
04E40:  MOVF   xA7,W
04E42:  SUBLW  1E
04E44:  BC    4E4A
....................                   DiaTx=30;  
04E46:  MOVLW  1E
04E48:  MOVWF  xA7
....................                   //glcd_fillScreen(OFF); 
....................                } 
....................             } 
....................          }else{ 
04E4A:  BRA    4E5E
....................             if(MesTx % 2 ==1){ 
04E4C:  MOVF   xA6,W
04E4E:  ANDLW  01
04E50:  SUBLW  01
04E52:  BNZ   4E5E
....................                if(DiaTx>30){ 
04E54:  MOVF   xA7,W
04E56:  SUBLW  1E
04E58:  BC    4E5E
....................                   DiaTx=30;  
04E5A:  MOVLW  1E
04E5C:  MOVWF  xA7
....................                   //glcd_fillScreen(OFF); 
....................                } 
....................             } 
....................          } 
....................       } 
.................... } 
04E5E:  MOVLB  0
04E60:  GOTO   A5C0 (RETURN)
....................  
.................... void ActualizaRecta(){ 
....................    X[y]=Temperature; 
....................    y++; 
....................    if(y>=2) 
....................    { 
....................       y=0; 
....................       Aumento=X[1]-X[0]; 
....................    } 
.................... } 
....................  
.................... void ActualizaRectaPresion(){ 
....................    Xx[yy]=Tactual; 
....................    yy++; 
....................    if(yy>=2){ 
....................       yy=0; 
....................       Aumento2=Xx[1]-Xx[0]; 
....................    } 
.................... } 
....................  
.................... // Funcion para conversor analogo-digital 
.................... float sensores(int x){ 
.................... float y;set_adc_channel(x);delay_ms(1);y=read_adc();return (y); 
*
038C8:  MOVLB  4
038CA:  RLCF   x48,W
038CC:  MOVWF  00
038CE:  RLCF   00,F
038D0:  MOVLW  FC
038D2:  ANDWF  00,F
038D4:  MOVFF  00,01
038D8:  MOVF   FC2,W
038DA:  ANDLW  C3
038DC:  IORWF  00,W
038DE:  MOVWF  FC2
038E0:  MOVLW  01
038E2:  MOVWF  x54
038E4:  MOVLB  0
038E6:  CALL   19B0
038EA:  BSF    FC2.1
038EC:  BTFSC  FC2.1
038EE:  BRA    38EC
038F0:  MOVFF  FC4,455
038F4:  MOVFF  FC3,454
038F8:  MOVLB  0
038FA:  CALL   19D8
038FE:  MOVFF  03,44C
03902:  MOVFF  02,44B
03906:  MOVFF  01,44A
0390A:  MOVFF  00,449
0390E:  MOVFF  449,00
03912:  MOVFF  44A,01
03916:  MOVFF  44B,02
0391A:  MOVFF  44C,03
.................... } 
0391E:  RETLW  00
.................... float LeerPT100(int media) 
.................... { 
*
03A38:  MOVLB  4
03A3A:  CLRF   x43
03A3C:  CLRF   x42
03A3E:  CLRF   x41
03A40:  CLRF   x40
03A42:  CLRF   x47
03A44:  CLRF   x46
03A46:  CLRF   x45
03A48:  CLRF   x44
....................    float ajp=0.0,ajn=0.0; 
....................    Prom=0.0; 
03A4A:  MOVLB  2
03A4C:  CLRF   xFF
03A4E:  CLRF   xFE
03A50:  CLRF   xFD
03A52:  CLRF   xFC
....................    V0 = sensores(0);   //Lectura de Divisor de Voltaje de PT100 con resistencia de 6.18k (+-2%) 
03A54:  MOVLB  4
03A56:  CLRF   x48
03A58:  MOVLB  0
03A5A:  RCALL  38C8
03A5C:  MOVFF  03,2EB
03A60:  MOVFF  02,2EA
03A64:  MOVFF  01,2E9
03A68:  MOVFF  00,2E8
....................    V0 = V0/106.23; // Se elimina la ganancia 
03A6C:  MOVFF  2EB,44B
03A70:  MOVFF  2EA,44A
03A74:  MOVFF  2E9,449
03A78:  MOVFF  2E8,448
03A7C:  MOVLW  C3
03A7E:  MOVLB  4
03A80:  MOVWF  x4F
03A82:  MOVLW  75
03A84:  MOVWF  x4E
03A86:  MOVLW  54
03A88:  MOVWF  x4D
03A8A:  MOVLW  85
03A8C:  MOVWF  x4C
03A8E:  MOVLB  0
03A90:  CALL   1A0E
03A94:  MOVFF  03,2EB
03A98:  MOVFF  02,2EA
03A9C:  MOVFF  01,2E9
03AA0:  MOVFF  00,2E8
....................    //V0 += 14.82; 
....................    V0 += 14.82;//5.039V 73.0mV 
03AA4:  BCF    FD8.1
03AA6:  MOVFF  2EB,457
03AAA:  MOVFF  2EA,456
03AAE:  MOVFF  2E9,455
03AB2:  MOVFF  2E8,454
03AB6:  MOVLW  B8
03AB8:  MOVLB  4
03ABA:  MOVWF  x5B
03ABC:  MOVLW  1E
03ABE:  MOVWF  x5A
03AC0:  MOVLW  6D
03AC2:  MOVWF  x59
03AC4:  MOVLW  82
03AC6:  MOVWF  x58
03AC8:  MOVLB  0
03ACA:  CALL   1B6C
03ACE:  MOVFF  03,2EB
03AD2:  MOVFF  02,2EA
03AD6:  MOVFF  01,2E9
03ADA:  MOVFF  00,2E8
....................    Pt=R10/((1023/V0)-1); 
03ADE:  MOVLB  4
03AE0:  CLRF   x4B
03AE2:  MOVLW  C0
03AE4:  MOVWF  x4A
03AE6:  MOVLW  7F
03AE8:  MOVWF  x49
03AEA:  MOVLW  88
03AEC:  MOVWF  x48
03AEE:  MOVFF  2EB,44F
03AF2:  MOVFF  2EA,44E
03AF6:  MOVFF  2E9,44D
03AFA:  MOVFF  2E8,44C
03AFE:  MOVLB  0
03B00:  CALL   1A0E
03B04:  MOVFF  00,448
03B08:  MOVFF  01,449
03B0C:  MOVFF  02,44A
03B10:  MOVFF  03,44B
03B14:  BSF    FD8.1
03B16:  MOVFF  03,457
03B1A:  MOVFF  02,456
03B1E:  MOVFF  01,455
03B22:  MOVFF  00,454
03B26:  MOVLB  4
03B28:  CLRF   x5B
03B2A:  CLRF   x5A
03B2C:  CLRF   x59
03B2E:  MOVLW  7F
03B30:  MOVWF  x58
03B32:  MOVLB  0
03B34:  CALL   1B6C
03B38:  MOVFF  2B6,44B
03B3C:  MOVFF  2B5,44A
03B40:  MOVFF  2B4,449
03B44:  MOVFF  2B3,448
03B48:  MOVFF  03,44F
03B4C:  MOVFF  02,44E
03B50:  MOVFF  01,44D
03B54:  MOVFF  00,44C
03B58:  CALL   1A0E
03B5C:  MOVFF  03,2EF
03B60:  MOVFF  02,2EE
03B64:  MOVFF  01,2ED
03B68:  MOVFF  00,2EC
....................              
....................    if(l>(media-1)) 
03B6C:  MOVLW  01
03B6E:  MOVLB  4
03B70:  SUBWF  x3F,W
03B72:  MOVLB  2
03B74:  SUBWF  xD8,W
03B76:  BZ    3B7C
03B78:  BNC   3B7C
....................    {l=0;} 
03B7A:  CLRF   xD8
....................    //promedio[l]=Temperature;l++; 
....................    promedio[l]=Pt;l++; 
03B7C:  MOVLB  4
03B7E:  CLRF   x49
03B80:  MOVFF  2D8,448
03B84:  CLRF   x4B
03B86:  MOVLW  04
03B88:  MOVWF  x4A
03B8A:  MOVLB  0
03B8C:  RCALL  3920
03B8E:  MOVF   01,W
03B90:  ADDLW  C3
03B92:  MOVWF  FE9
03B94:  MOVLW  00
03B96:  ADDWFC 02,W
03B98:  MOVWF  FEA
03B9A:  MOVFF  2EC,FEF
03B9E:  MOVFF  2ED,FEC
03BA2:  MOVFF  2EE,FEC
03BA6:  MOVFF  2EF,FEC
03BAA:  MOVLB  2
03BAC:  INCF   xD8,F
....................           
....................    for(h=0;h<media;h++) 
03BAE:  CLRF   xD7
03BB0:  MOVLB  4
03BB2:  MOVF   x3F,W
03BB4:  MOVLB  2
03BB6:  SUBWF  xD7,W
03BB8:  BC    3C38
....................    { 
....................       Prom+=promedio[h]; 
03BBA:  MOVLB  4
03BBC:  CLRF   x49
03BBE:  MOVFF  2D7,448
03BC2:  CLRF   x4B
03BC4:  MOVLW  04
03BC6:  MOVWF  x4A
03BC8:  MOVLB  0
03BCA:  RCALL  3920
03BCC:  MOVFF  02,03
03BD0:  MOVF   01,W
03BD2:  ADDLW  C3
03BD4:  MOVWF  FE9
03BD6:  MOVLW  00
03BD8:  ADDWFC 02,W
03BDA:  MOVWF  FEA
03BDC:  MOVFF  FEF,00
03BE0:  MOVFF  FEC,01
03BE4:  MOVFF  FEC,02
03BE8:  MOVFF  FEC,03
03BEC:  MOVFF  FEA,449
03BF0:  MOVFF  FE9,448
03BF4:  BCF    FD8.1
03BF6:  MOVFF  2FF,457
03BFA:  MOVFF  2FE,456
03BFE:  MOVFF  2FD,455
03C02:  MOVFF  2FC,454
03C06:  MOVFF  03,45B
03C0A:  MOVFF  02,45A
03C0E:  MOVFF  01,459
03C12:  MOVFF  00,458
03C16:  CALL   1B6C
03C1A:  MOVFF  449,FEA
03C1E:  MOVFF  448,FE9
03C22:  MOVFF  03,2FF
03C26:  MOVFF  02,2FE
03C2A:  MOVFF  01,2FD
03C2E:  MOVFF  00,2FC
....................    }  
03C32:  MOVLB  2
03C34:  INCF   xD7,F
03C36:  BRA    3BB0
....................    Prom=Prom/media;    
03C38:  MOVLB  4
03C3A:  CLRF   x55
03C3C:  MOVFF  43F,454
03C40:  MOVLB  0
03C42:  CALL   19D8
03C46:  MOVFF  2FF,44B
03C4A:  MOVFF  2FE,44A
03C4E:  MOVFF  2FD,449
03C52:  MOVFF  2FC,448
03C56:  MOVFF  03,44F
03C5A:  MOVFF  02,44E
03C5E:  MOVFF  01,44D
03C62:  MOVFF  00,44C
03C66:  CALL   1A0E
03C6A:  MOVFF  03,2FF
03C6E:  MOVFF  02,2FE
03C72:  MOVFF  01,2FD
03C76:  MOVFF  00,2FC
....................    //Temperature=(Prom-100.0)/(0.385);  // Ecuacin determinada por linealizacin en Matlab. Revisar este polinomio.   
....................    Temperature=((Prom*Prom)*a)+(Prom*b)+c;  // Ecuacin determinada por linealizacin en Matlab. Revisar este polinomio. 
03C7A:  MOVFF  2FF,45B
03C7E:  MOVFF  2FE,45A
03C82:  MOVFF  2FD,459
03C86:  MOVFF  2FC,458
03C8A:  MOVFF  2FF,45F
03C8E:  MOVFF  2FE,45E
03C92:  MOVFF  2FD,45D
03C96:  MOVFF  2FC,45C
03C9A:  RCALL  3942
03C9C:  MOVFF  00,448
03CA0:  MOVFF  01,449
03CA4:  MOVFF  02,44A
03CA8:  MOVFF  03,44B
03CAC:  MOVFF  03,45B
03CB0:  MOVFF  02,45A
03CB4:  MOVFF  01,459
03CB8:  MOVFF  00,458
03CBC:  MOVFF  337,45F
03CC0:  MOVFF  336,45E
03CC4:  MOVFF  335,45D
03CC8:  MOVFF  334,45C
03CCC:  RCALL  3942
03CCE:  MOVFF  00,448
03CD2:  MOVFF  01,449
03CD6:  MOVFF  02,44A
03CDA:  MOVFF  03,44B
03CDE:  MOVFF  2FF,45B
03CE2:  MOVFF  2FE,45A
03CE6:  MOVFF  2FD,459
03CEA:  MOVFF  2FC,458
03CEE:  MOVFF  33B,45F
03CF2:  MOVFF  33A,45E
03CF6:  MOVFF  339,45D
03CFA:  MOVFF  338,45C
03CFE:  RCALL  3942
03D00:  BCF    FD8.1
03D02:  MOVFF  44B,457
03D06:  MOVFF  44A,456
03D0A:  MOVFF  449,455
03D0E:  MOVFF  448,454
03D12:  MOVFF  03,45B
03D16:  MOVFF  02,45A
03D1A:  MOVFF  01,459
03D1E:  MOVFF  00,458
03D22:  CALL   1B6C
03D26:  MOVFF  00,448
03D2A:  MOVFF  01,449
03D2E:  MOVFF  02,44A
03D32:  MOVFF  03,44B
03D36:  BCF    FD8.1
03D38:  MOVFF  03,457
03D3C:  MOVFF  02,456
03D40:  MOVFF  01,455
03D44:  MOVFF  00,454
03D48:  MOVFF  33F,45B
03D4C:  MOVFF  33E,45A
03D50:  MOVFF  33D,459
03D54:  MOVFF  33C,458
03D58:  CALL   1B6C
03D5C:  MOVFF  03,303
03D60:  MOVFF  02,302
03D64:  MOVFF  01,301
03D68:  MOVFF  00,300
....................    ajp=(float)Ajuste; 
03D6C:  MOVLB  4
03D6E:  CLRF   x55
03D70:  MOVFF  2D9,454
03D74:  MOVLB  0
03D76:  CALL   19D8
03D7A:  MOVFF  03,443
03D7E:  MOVFF  02,442
03D82:  MOVFF  01,441
03D86:  MOVFF  00,440
....................    ajp=ajp/10; 
03D8A:  MOVFF  443,44B
03D8E:  MOVFF  442,44A
03D92:  MOVFF  441,449
03D96:  MOVFF  440,448
03D9A:  MOVLB  4
03D9C:  CLRF   x4F
03D9E:  CLRF   x4E
03DA0:  MOVLW  20
03DA2:  MOVWF  x4D
03DA4:  MOVLW  82
03DA6:  MOVWF  x4C
03DA8:  MOVLB  0
03DAA:  CALL   1A0E
03DAE:  MOVFF  03,443
03DB2:  MOVFF  02,442
03DB6:  MOVFF  01,441
03DBA:  MOVFF  00,440
....................    ajn=(float)Ajusten; 
03DBE:  MOVLB  4
03DC0:  CLRF   x55
03DC2:  MOVFF  2DA,454
03DC6:  MOVLB  0
03DC8:  CALL   19D8
03DCC:  MOVFF  03,447
03DD0:  MOVFF  02,446
03DD4:  MOVFF  01,445
03DD8:  MOVFF  00,444
....................    ajn=ajn/10; 
03DDC:  MOVFF  447,44B
03DE0:  MOVFF  446,44A
03DE4:  MOVFF  445,449
03DE8:  MOVFF  444,448
03DEC:  MOVLB  4
03DEE:  CLRF   x4F
03DF0:  CLRF   x4E
03DF2:  MOVLW  20
03DF4:  MOVWF  x4D
03DF6:  MOVLW  82
03DF8:  MOVWF  x4C
03DFA:  MOVLB  0
03DFC:  CALL   1A0E
03E00:  MOVFF  03,447
03E04:  MOVFF  02,446
03E08:  MOVFF  01,445
03E0C:  MOVFF  00,444
....................    Temperature+=(ajp-ajn); 
03E10:  BSF    FD8.1
03E12:  MOVFF  443,457
03E16:  MOVFF  442,456
03E1A:  MOVFF  441,455
03E1E:  MOVFF  440,454
03E22:  MOVFF  447,45B
03E26:  MOVFF  446,45A
03E2A:  MOVFF  445,459
03E2E:  MOVFF  444,458
03E32:  CALL   1B6C
03E36:  BCF    FD8.1
03E38:  MOVFF  303,457
03E3C:  MOVFF  302,456
03E40:  MOVFF  301,455
03E44:  MOVFF  300,454
03E48:  MOVFF  03,45B
03E4C:  MOVFF  02,45A
03E50:  MOVFF  01,459
03E54:  MOVFF  00,458
03E58:  CALL   1B6C
03E5C:  MOVFF  03,303
03E60:  MOVFF  02,302
03E64:  MOVFF  01,301
03E68:  MOVFF  00,300
....................    //Temperature-=39.0; 
....................     
....................    //return Prom; 
....................    return Temperature; 
03E6C:  MOVFF  300,00
03E70:  MOVFF  301,01
03E74:  MOVFF  302,02
03E78:  MOVFF  303,03
.................... } 
03E7C:  RETLW  00
....................  
.................... float Leer_Sensor_Presion_Camara(int media){ 
....................    promediopresion=0.0; 
*
042A8:  MOVLB  2
042AA:  CLRF   xCA
042AC:  CLRF   xC9
042AE:  CLRF   xC8
042B0:  CLRF   xC7
....................    V1 = sensores(2);   //Lectura de Divisor de Voltaje de PT100 con resistencia de 1k (+-10%) 
042B2:  MOVLW  02
042B4:  MOVLB  4
042B6:  MOVWF  x48
042B8:  MOVLB  0
042BA:  CALL   38C8
042BE:  MOVFF  03,31B
042C2:  MOVFF  02,31A
042C6:  MOVFF  01,319
042CA:  MOVFF  00,318
....................    //V1 = V1*(5.0/1024.0); 
....................    //Presion=(V1-0.2)/(K); 
....................    Presion=(((V1)/1023)-0.04)/K; 
042CE:  MOVFF  31B,44B
042D2:  MOVFF  31A,44A
042D6:  MOVFF  319,449
042DA:  MOVFF  318,448
042DE:  MOVLB  4
042E0:  CLRF   x4F
042E2:  MOVLW  C0
042E4:  MOVWF  x4E
042E6:  MOVLW  7F
042E8:  MOVWF  x4D
042EA:  MOVLW  88
042EC:  MOVWF  x4C
042EE:  MOVLB  0
042F0:  CALL   1A0E
042F4:  MOVFF  00,440
042F8:  MOVFF  01,441
042FC:  MOVFF  02,442
04300:  MOVFF  03,443
04304:  BSF    FD8.1
04306:  MOVFF  03,457
0430A:  MOVFF  02,456
0430E:  MOVFF  01,455
04312:  MOVFF  00,454
04316:  MOVLW  0A
04318:  MOVLB  4
0431A:  MOVWF  x5B
0431C:  MOVLW  D7
0431E:  MOVWF  x5A
04320:  MOVLW  23
04322:  MOVWF  x59
04324:  MOVLW  7A
04326:  MOVWF  x58
04328:  MOVLB  0
0432A:  CALL   1B6C
0432E:  MOVFF  00,440
04332:  MOVFF  01,441
04336:  MOVFF  02,442
0433A:  MOVFF  03,443
0433E:  MOVFF  03,44B
04342:  MOVFF  02,44A
04346:  MOVFF  01,449
0434A:  MOVFF  00,448
0434E:  MOVFF  32F,44F
04352:  MOVFF  32E,44E
04356:  MOVFF  32D,44D
0435A:  MOVFF  32C,44C
0435E:  CALL   1A0E
04362:  MOVFF  03,31F
04366:  MOVFF  02,31E
0436A:  MOVFF  01,31D
0436E:  MOVFF  00,31C
....................     
....................    if(Presion<0.0) 
04372:  MOVFF  31F,446
04376:  MOVFF  31E,445
0437A:  MOVFF  31D,444
0437E:  MOVFF  31C,443
04382:  MOVLB  4
04384:  CLRF   x4A
04386:  CLRF   x49
04388:  CLRF   x48
0438A:  CLRF   x47
0438C:  MOVLB  0
0438E:  CALL   2CD2
04392:  BNC   439E
....................    { 
....................       Presion=0.0; 
04394:  MOVLB  3
04396:  CLRF   x1F
04398:  CLRF   x1E
0439A:  CLRF   x1D
0439C:  CLRF   x1C
....................    } 
....................     
....................    if(r>media-1) 
0439E:  MOVLW  01
043A0:  MOVLB  4
043A2:  SUBWF  x3F,W
043A4:  MOVLB  3
043A6:  SUBWF  x8D,W
043A8:  BZ    43AE
043AA:  BNC   43AE
....................    {r=0;} 
043AC:  CLRF   x8D
....................    PromPresion[r]=Presion;r++; 
043AE:  MOVF   x8D,W
043B0:  MULLW  04
043B2:  MOVF   FF3,W
043B4:  CLRF   03
043B6:  ADDLW  03
043B8:  MOVWF  FE9
043BA:  MOVLW  02
043BC:  ADDWFC 03,W
043BE:  MOVWF  FEA
043C0:  MOVFF  31C,FEF
043C4:  MOVFF  31D,FEC
043C8:  MOVFF  31E,FEC
043CC:  MOVFF  31F,FEC
043D0:  INCF   x8D,F
....................           
....................    for(t=0;t<=(media-1);t++) 
043D2:  CLRF   x8E
043D4:  MOVLW  01
043D6:  MOVLB  4
043D8:  SUBWF  x3F,W
043DA:  MOVLB  3
043DC:  SUBWF  x8E,W
043DE:  BZ    43E2
043E0:  BC    4452
....................    { 
....................       promediopresion+=PromPresion[t]; 
043E2:  MOVF   x8E,W
043E4:  MULLW  04
043E6:  MOVF   FF3,W
043E8:  CLRF   03
043EA:  ADDLW  03
043EC:  MOVWF  FE9
043EE:  MOVLW  02
043F0:  ADDWFC 03,W
043F2:  MOVWF  FEA
043F4:  MOVFF  FEF,00
043F8:  MOVFF  FEC,01
043FC:  MOVFF  FEC,02
04400:  MOVFF  FEC,03
04404:  MOVFF  FEA,441
04408:  MOVFF  FE9,440
0440C:  BCF    FD8.1
0440E:  MOVFF  2CA,457
04412:  MOVFF  2C9,456
04416:  MOVFF  2C8,455
0441A:  MOVFF  2C7,454
0441E:  MOVFF  03,45B
04422:  MOVFF  02,45A
04426:  MOVFF  01,459
0442A:  MOVFF  00,458
0442E:  MOVLB  0
04430:  CALL   1B6C
04434:  MOVFF  441,FEA
04438:  MOVFF  440,FE9
0443C:  MOVFF  03,2CA
04440:  MOVFF  02,2C9
04444:  MOVFF  01,2C8
04448:  MOVFF  00,2C7
....................    }  
0444C:  MOVLB  3
0444E:  INCF   x8E,F
04450:  BRA    43D4
....................    promediopresion=promediopresion/media;    
04452:  MOVLB  4
04454:  CLRF   x55
04456:  MOVFF  43F,454
0445A:  MOVLB  0
0445C:  CALL   19D8
04460:  MOVFF  2CA,44B
04464:  MOVFF  2C9,44A
04468:  MOVFF  2C8,449
0446C:  MOVFF  2C7,448
04470:  MOVFF  03,44F
04474:  MOVFF  02,44E
04478:  MOVFF  01,44D
0447C:  MOVFF  00,44C
04480:  CALL   1A0E
04484:  MOVFF  03,2CA
04488:  MOVFF  02,2C9
0448C:  MOVFF  01,2C8
04490:  MOVFF  00,2C7
....................     
....................    return promediopresion; 
04494:  MOVFF  2C7,00
04498:  MOVFF  2C8,01
0449C:  MOVFF  2C9,02
044A0:  MOVFF  2CA,03
.................... } 
044A4:  GOTO   74F8 (RETURN)
....................  
.................... float Leer_Sensor_Presion_PreCamara(int media){ 
....................    promediopresionp=0.0; 
044A8:  MOVLB  2
044AA:  CLRF   xD6
044AC:  CLRF   xD5
044AE:  CLRF   xD4
044B0:  CLRF   xD3
....................    V2 = sensores(3);   //Lectura de Divisor de Voltaje de PT100 con resistencia de 1k (+-10%) 
044B2:  MOVLW  03
044B4:  MOVLB  4
044B6:  MOVWF  x48
044B8:  MOVLB  0
044BA:  CALL   38C8
044BE:  MOVFF  03,323
044C2:  MOVFF  02,322
044C6:  MOVFF  01,321
044CA:  MOVFF  00,320
....................    //V2 = V2*(5.0/1024.0); 
....................    //Presionp=(V2-0.2)/(K); 
....................    Presionp=(((V2)/1023)-0.04)/K; 
044CE:  MOVFF  323,44B
044D2:  MOVFF  322,44A
044D6:  MOVFF  321,449
044DA:  MOVFF  320,448
044DE:  MOVLB  4
044E0:  CLRF   x4F
044E2:  MOVLW  C0
044E4:  MOVWF  x4E
044E6:  MOVLW  7F
044E8:  MOVWF  x4D
044EA:  MOVLW  88
044EC:  MOVWF  x4C
044EE:  MOVLB  0
044F0:  CALL   1A0E
044F4:  MOVFF  00,440
044F8:  MOVFF  01,441
044FC:  MOVFF  02,442
04500:  MOVFF  03,443
04504:  BSF    FD8.1
04506:  MOVFF  03,457
0450A:  MOVFF  02,456
0450E:  MOVFF  01,455
04512:  MOVFF  00,454
04516:  MOVLW  0A
04518:  MOVLB  4
0451A:  MOVWF  x5B
0451C:  MOVLW  D7
0451E:  MOVWF  x5A
04520:  MOVLW  23
04522:  MOVWF  x59
04524:  MOVLW  7A
04526:  MOVWF  x58
04528:  MOVLB  0
0452A:  CALL   1B6C
0452E:  MOVFF  00,440
04532:  MOVFF  01,441
04536:  MOVFF  02,442
0453A:  MOVFF  03,443
0453E:  MOVFF  03,44B
04542:  MOVFF  02,44A
04546:  MOVFF  01,449
0454A:  MOVFF  00,448
0454E:  MOVFF  32F,44F
04552:  MOVFF  32E,44E
04556:  MOVFF  32D,44D
0455A:  MOVFF  32C,44C
0455E:  CALL   1A0E
04562:  MOVFF  03,327
04566:  MOVFF  02,326
0456A:  MOVFF  01,325
0456E:  MOVFF  00,324
....................     
....................    if(Presionp<0.0) 
04572:  MOVFF  327,446
04576:  MOVFF  326,445
0457A:  MOVFF  325,444
0457E:  MOVFF  324,443
04582:  MOVLB  4
04584:  CLRF   x4A
04586:  CLRF   x49
04588:  CLRF   x48
0458A:  CLRF   x47
0458C:  MOVLB  0
0458E:  CALL   2CD2
04592:  BNC   459E
....................    { 
....................       Presionp=0.0; 
04594:  MOVLB  3
04596:  CLRF   x27
04598:  CLRF   x26
0459A:  CLRF   x25
0459C:  CLRF   x24
....................    } 
....................     
....................    if(r22>media-1) 
0459E:  MOVLW  01
045A0:  MOVLB  4
045A2:  SUBWF  x3F,W
045A4:  MOVLB  3
045A6:  SUBWF  x8F,W
045A8:  BZ    45AE
045AA:  BNC   45AE
....................    {r22=0;} 
045AC:  CLRF   x8F
....................    PromPresionp[r22]=Presionp;r22++; 
045AE:  MOVF   x8F,W
045B0:  MULLW  04
045B2:  MOVF   FF3,W
045B4:  CLRF   03
045B6:  ADDLW  53
045B8:  MOVWF  FE9
045BA:  MOVLW  02
045BC:  ADDWFC 03,W
045BE:  MOVWF  FEA
045C0:  MOVFF  324,FEF
045C4:  MOVFF  325,FEC
045C8:  MOVFF  326,FEC
045CC:  MOVFF  327,FEC
045D0:  INCF   x8F,F
....................           
....................    for(t2=0;t2<=(media-1);t2++) 
045D2:  CLRF   x90
045D4:  MOVLW  01
045D6:  MOVLB  4
045D8:  SUBWF  x3F,W
045DA:  MOVLB  3
045DC:  SUBWF  x90,W
045DE:  BZ    45E2
045E0:  BC    4652
....................    { 
....................       promediopresionp+=PromPresionp[t2]; 
045E2:  MOVF   x90,W
045E4:  MULLW  04
045E6:  MOVF   FF3,W
045E8:  CLRF   03
045EA:  ADDLW  53
045EC:  MOVWF  FE9
045EE:  MOVLW  02
045F0:  ADDWFC 03,W
045F2:  MOVWF  FEA
045F4:  MOVFF  FEF,00
045F8:  MOVFF  FEC,01
045FC:  MOVFF  FEC,02
04600:  MOVFF  FEC,03
04604:  MOVFF  FEA,441
04608:  MOVFF  FE9,440
0460C:  BCF    FD8.1
0460E:  MOVFF  2D6,457
04612:  MOVFF  2D5,456
04616:  MOVFF  2D4,455
0461A:  MOVFF  2D3,454
0461E:  MOVFF  03,45B
04622:  MOVFF  02,45A
04626:  MOVFF  01,459
0462A:  MOVFF  00,458
0462E:  MOVLB  0
04630:  CALL   1B6C
04634:  MOVFF  441,FEA
04638:  MOVFF  440,FE9
0463C:  MOVFF  03,2D6
04640:  MOVFF  02,2D5
04644:  MOVFF  01,2D4
04648:  MOVFF  00,2D3
....................    }  
0464C:  MOVLB  3
0464E:  INCF   x90,F
04650:  BRA    45D4
....................    promediopresionp=promediopresionp/media;    
04652:  MOVLB  4
04654:  CLRF   x55
04656:  MOVFF  43F,454
0465A:  MOVLB  0
0465C:  CALL   19D8
04660:  MOVFF  2D6,44B
04664:  MOVFF  2D5,44A
04668:  MOVFF  2D4,449
0466C:  MOVFF  2D3,448
04670:  MOVFF  03,44F
04674:  MOVFF  02,44E
04678:  MOVFF  01,44D
0467C:  MOVFF  00,44C
04680:  CALL   1A0E
04684:  MOVFF  03,2D6
04688:  MOVFF  02,2D5
0468C:  MOVFF  01,2D4
04690:  MOVFF  00,2D3
....................     
....................    return promediopresionp; 
04694:  MOVFF  2D3,00
04698:  MOVFF  2D4,01
0469C:  MOVFF  2D5,02
046A0:  MOVFF  2D6,03
.................... } 
046A4:  GOTO   7520 (RETURN)
....................  
.................... void ControlaPresion(){ 
*
0682C:  MOVLB  4
0682E:  CLRF   x42
06830:  CLRF   x41
06832:  CLRF   x40
06834:  CLRF   x3F
....................    float prc=0.0;    
....................    prc=(float)PresionCamara; 
06836:  MOVFF  37E,455
0683A:  MOVFF  37D,454
0683E:  MOVLB  0
06840:  CALL   19D8
06844:  MOVFF  03,442
06848:  MOVFF  02,441
0684C:  MOVFF  01,440
06850:  MOVFF  00,43F
....................    Tactual=((prc)*(prc)*(prc)*p1)+((prc)*(prc)*p2)+(p3*prc)+p4; 
06854:  MOVFF  442,45B
06858:  MOVFF  441,45A
0685C:  MOVFF  440,459
06860:  MOVFF  43F,458
06864:  MOVFF  442,45F
06868:  MOVFF  441,45E
0686C:  MOVFF  440,45D
06870:  MOVFF  43F,45C
06874:  CALL   3942
06878:  MOVFF  00,443
0687C:  MOVFF  01,444
06880:  MOVFF  02,445
06884:  MOVFF  03,446
06888:  MOVFF  03,45B
0688C:  MOVFF  02,45A
06890:  MOVFF  01,459
06894:  MOVFF  00,458
06898:  MOVFF  442,45F
0689C:  MOVFF  441,45E
068A0:  MOVFF  440,45D
068A4:  MOVFF  43F,45C
068A8:  CALL   3942
068AC:  MOVFF  00,443
068B0:  MOVFF  01,444
068B4:  MOVFF  02,445
068B8:  MOVFF  03,446
068BC:  MOVFF  03,45B
068C0:  MOVFF  02,45A
068C4:  MOVFF  01,459
068C8:  MOVFF  00,458
068CC:  MOVFF  346,45F
068D0:  MOVFF  345,45E
068D4:  MOVFF  344,45D
068D8:  MOVFF  343,45C
068DC:  CALL   3942
068E0:  MOVFF  00,443
068E4:  MOVFF  01,444
068E8:  MOVFF  02,445
068EC:  MOVFF  03,446
068F0:  MOVFF  442,45B
068F4:  MOVFF  441,45A
068F8:  MOVFF  440,459
068FC:  MOVFF  43F,458
06900:  MOVFF  442,45F
06904:  MOVFF  441,45E
06908:  MOVFF  440,45D
0690C:  MOVFF  43F,45C
06910:  CALL   3942
06914:  MOVFF  00,447
06918:  MOVFF  01,448
0691C:  MOVFF  02,449
06920:  MOVFF  03,44A
06924:  MOVFF  03,45B
06928:  MOVFF  02,45A
0692C:  MOVFF  01,459
06930:  MOVFF  00,458
06934:  MOVFF  34A,45F
06938:  MOVFF  349,45E
0693C:  MOVFF  348,45D
06940:  MOVFF  347,45C
06944:  CALL   3942
06948:  BCF    FD8.1
0694A:  MOVFF  446,457
0694E:  MOVFF  445,456
06952:  MOVFF  444,455
06956:  MOVFF  443,454
0695A:  MOVFF  03,45B
0695E:  MOVFF  02,45A
06962:  MOVFF  01,459
06966:  MOVFF  00,458
0696A:  CALL   1B6C
0696E:  MOVFF  00,443
06972:  MOVFF  01,444
06976:  MOVFF  02,445
0697A:  MOVFF  03,446
0697E:  MOVFF  34E,45B
06982:  MOVFF  34D,45A
06986:  MOVFF  34C,459
0698A:  MOVFF  34B,458
0698E:  MOVFF  442,45F
06992:  MOVFF  441,45E
06996:  MOVFF  440,45D
0699A:  MOVFF  43F,45C
0699E:  CALL   3942
069A2:  BCF    FD8.1
069A4:  MOVFF  446,457
069A8:  MOVFF  445,456
069AC:  MOVFF  444,455
069B0:  MOVFF  443,454
069B4:  MOVFF  03,45B
069B8:  MOVFF  02,45A
069BC:  MOVFF  01,459
069C0:  MOVFF  00,458
069C4:  CALL   1B6C
069C8:  MOVFF  00,443
069CC:  MOVFF  01,444
069D0:  MOVFF  02,445
069D4:  MOVFF  03,446
069D8:  BCF    FD8.1
069DA:  MOVFF  03,457
069DE:  MOVFF  02,456
069E2:  MOVFF  01,455
069E6:  MOVFF  00,454
069EA:  MOVFF  352,45B
069EE:  MOVFF  351,45A
069F2:  MOVFF  350,459
069F6:  MOVFF  34F,458
069FA:  CALL   1B6C
069FE:  MOVFF  03,356
06A02:  MOVFF  02,355
06A06:  MOVFF  01,354
06A0A:  MOVFF  00,353
....................    Controlando=1;    
06A0E:  MOVLW  01
06A10:  MOVLB  3
06A12:  MOVWF  x5A
....................    if(Tactual>Setpoint+desvio){ 
06A14:  MOVLB  4
06A16:  CLRF   x55
06A18:  MOVFF  36B,454
06A1C:  MOVLB  0
06A1E:  CALL   19D8
06A22:  BCF    FD8.1
06A24:  MOVFF  03,457
06A28:  MOVFF  02,456
06A2C:  MOVFF  01,455
06A30:  MOVFF  00,454
06A34:  MOVFF  313,45B
06A38:  MOVFF  312,45A
06A3C:  MOVFF  311,459
06A40:  MOVFF  310,458
06A44:  CALL   1B6C
06A48:  MOVFF  03,446
06A4C:  MOVFF  02,445
06A50:  MOVFF  01,444
06A54:  MOVFF  00,443
06A58:  MOVFF  356,44A
06A5C:  MOVFF  355,449
06A60:  MOVFF  354,448
06A64:  MOVFF  353,447
06A68:  CALL   2CD2
06A6C:  BNC   6A78
....................       Suministro_off; 
06A6E:  BCF    F8C.5
06A70:  BCF    F95.5
....................       Paso_on; 
06A72:  BSF    F8C.6
06A74:  BCF    F95.6
....................    }else if(Tactual<=Setpoint+desvio-Histeresis){ 
06A76:  BRA    6B12
06A78:  MOVLB  4
06A7A:  CLRF   x55
06A7C:  MOVFF  36B,454
06A80:  MOVLB  0
06A82:  CALL   19D8
06A86:  BCF    FD8.1
06A88:  MOVFF  03,457
06A8C:  MOVFF  02,456
06A90:  MOVFF  01,455
06A94:  MOVFF  00,454
06A98:  MOVFF  313,45B
06A9C:  MOVFF  312,45A
06AA0:  MOVFF  311,459
06AA4:  MOVFF  310,458
06AA8:  CALL   1B6C
06AAC:  MOVFF  00,443
06AB0:  MOVFF  01,444
06AB4:  MOVFF  02,445
06AB8:  MOVFF  03,446
06ABC:  BSF    FD8.1
06ABE:  MOVFF  03,457
06AC2:  MOVFF  02,456
06AC6:  MOVFF  01,455
06ACA:  MOVFF  00,454
06ACE:  MOVFF  333,45B
06AD2:  MOVFF  332,45A
06AD6:  MOVFF  331,459
06ADA:  MOVFF  330,458
06ADE:  CALL   1B6C
06AE2:  MOVFF  356,446
06AE6:  MOVFF  355,445
06AEA:  MOVFF  354,444
06AEE:  MOVFF  353,443
06AF2:  MOVFF  03,44A
06AF6:  MOVFF  02,449
06AFA:  MOVFF  01,448
06AFE:  MOVFF  00,447
06B02:  CALL   2CD2
06B06:  BC    6B0A
06B08:  BNZ   6B12
....................       Suministro_on; 
06B0A:  BSF    F8C.5
06B0C:  BCF    F95.5
....................       Paso_on; 
06B0E:  BSF    F8C.6
06B10:  BCF    F95.6
....................    } 
.................... //--------------------------------------------------------------------------------------------------------------------//    
.................... } 
06B12:  RETLW  00
....................  
.................... void ControlaPresionPre(){ 
....................    if(Setpoint<120){ 
*
067A2:  MOVLB  3
067A4:  MOVF   x6B,W
067A6:  SUBLW  77
067A8:  BNC   67D8
....................       if(PresionPrecamara>=Atmosferica+110){ 
067AA:  MOVLW  6E
067AC:  ADDWF  xAE,W
067AE:  MOVF   x80,F
067B0:  BNZ   67B6
067B2:  SUBWF  x7F,W
067B4:  BNC   67C2
....................          Suministro_off; 
067B6:  BCF    F8C.5
067B8:  BCF    F95.5
....................          Precalentamiento=ON; 
067BA:  MOVLB  0
067BC:  BSF    xA3.0
....................       }else if(PresionPrecamara<Atmosferica+90){ 
067BE:  BRA    67D4
067C0:  MOVLB  3
067C2:  MOVLW  5A
067C4:  ADDWF  xAE,W
067C6:  MOVF   x80,F
067C8:  BNZ   67D2
067CA:  SUBWF  x7F,W
067CC:  BC    67D2
....................          Suministro_on; 
067CE:  BSF    F8C.5
067D0:  BCF    F95.5
067D2:  MOVLB  0
....................       } 
....................    }else{ 
067D4:  BRA    6800
067D6:  MOVLB  3
....................       if(PresionPrecamara>=Atmosferica+180){ 
067D8:  MOVLW  B4
067DA:  ADDWF  xAE,W
067DC:  MOVF   x80,F
067DE:  BNZ   67E4
067E0:  SUBWF  x7F,W
067E2:  BNC   67F0
....................          Suministro_off; 
067E4:  BCF    F8C.5
067E6:  BCF    F95.5
....................          Precalentamiento=ON; 
067E8:  MOVLB  0
067EA:  BSF    xA3.0
....................       }else if(PresionPrecamara<Atmosferica+160){ 
067EC:  BRA    6800
067EE:  MOVLB  3
067F0:  MOVLW  A0
067F2:  ADDWF  xAE,W
067F4:  MOVF   x80,F
067F6:  BNZ   6800
067F8:  SUBWF  x7F,W
067FA:  BC    6800
....................          Suministro_on; 
067FC:  BSF    F8C.5
067FE:  BCF    F95.5
06800:  MOVLB  0
....................       } 
....................    } 
.................... } 
06802:  RETLW  00
....................  
.................... void Controla(){ 
....................    float prc=0.0;    
....................    if(tiemporecta>=Derivativo/2.0){ 
....................       ActualizaRectaPresion(); 
....................       tiemporecta=0; 
....................    }  
....................    prc=(float)PresionCamara; 
....................    Tactual=((prc)*(prc)*(prc)*p1)+((prc)*(prc)*p2)+(p3*prc)+p4; 
.................... //-------------------------------Control de Calentamiento------------------------------------------------------------//          
....................    if(Esterilizando){ 
....................       error=desvio+Setpoint-Tactual;      // Clculo del error ****** 
....................    }else{ 
....................       error=desvio+1.0+Setpoint-Tactual;      // Clculo del error ****** 
....................    } 
....................     
....................    if(error>1.0 && error<20 && Aumento2<0.3){ 
....................       if(Tpulso<=6.0){ 
....................          flagTC=1; 
....................          if(TiempoControl>=Derivativo){ 
....................             TiempoControl=0; 
....................             if(Aumento2<-0.5){ 
....................                Ganancia+=Integral+0.2; 
....................             }else{ 
....................                if(Aumento2<-0.1){ 
....................                   Ganancia+=Integral-0.2; 
....................                }else{ 
....................                   Ganancia+=Integral-0.5; 
....................                } 
....................             } 
....................          } 
....................       }else{ 
....................          flagTC=0; 
....................       } 
....................    } 
....................     
....................    if(error<-0.3) 
....................       Ganancia=Ganancia2; 
....................     
....................    if(Ganancia<1) 
....................       Ganancia=1; 
....................     
....................    if(error<0.0)     // Anti Wind_DOWN     
....................       error=0.0; 
....................    //tmp=(Setpoint-Prom)*Ganancia;  // Control Proporcional. 
....................    tmp=error*Ganancia;  // Control Proporcional. 
....................           
....................    if(tmp>Setpoint)   // Anti Wind-UP       
....................       tmp=Setpoint; 
....................                 
....................    if(tmp<0.0)     // Anti Wind_DOWN     
....................       tmp=0.0; 
....................     
....................    // Tpulso(t)= Tciclo*(y(t)-ymin)/(ymax - ymin); calculo de ciclo util para control de resistencia.ymax=140.ymin=0; 
....................    // Tpulso es float, hay que pasar ese ciclo a una salida de un puerto usando el TMR1. 
....................    tmp2=(tmp/Setpoint); 
....................    //if(tmp2>0.8) 
....................    //tmp2=0.8; 
....................    Tpulso=tmp2*Tciclo;   
....................                                        
....................    Tp=(Tpulso/0.005); 
....................    Tc=(Tciclo/0.005); 
....................    Controlando=1;    
.................... //--------------------------------------------------------------------------------------------------------------------//    
.................... } 
....................  
....................  
.................... void Envio_I2C(direccion, posicion, dato){ 
....................  
....................    i2c_start();            // Comienzo comunicacin 
*
0420E:  BSF    F94.4
04210:  MOVLW  05
04212:  MOVWF  00
04214:  DECFSZ 00,F
04216:  BRA    4214
04218:  BSF    F94.3
0421A:  MOVLW  06
0421C:  MOVWF  00
0421E:  DECFSZ 00,F
04220:  BRA    421E
04222:  BCF    F8B.4
04224:  BCF    F94.4
04226:  MOVLW  05
04228:  MOVWF  00
0422A:  DECFSZ 00,F
0422C:  BRA    422A
0422E:  BCF    F8B.3
04230:  BCF    F94.3
....................    i2c_write(direccion);   // Direccin del esclavo en el bus I2C 
04232:  MOVFF  455,458
04236:  RCALL  4198
....................    i2c_write(posicion);    // Posicin donde se guardara el dato transmitido 
04238:  MOVFF  456,458
0423C:  RCALL  4198
....................    i2c_write(dato);        // Dato a transmitir 
0423E:  MOVFF  457,458
04242:  RCALL  4198
....................    i2c_stop();             // Fin comunicacin 
04244:  BCF    F94.4
04246:  NOP   
04248:  BSF    F94.3
0424A:  BTFSS  F82.3
0424C:  BRA    424A
0424E:  MOVLW  05
04250:  MOVWF  00
04252:  DECFSZ 00,F
04254:  BRA    4252
04256:  BRA    4258
04258:  NOP   
0425A:  BSF    F94.4
0425C:  MOVLW  05
0425E:  MOVWF  00
04260:  DECFSZ 00,F
04262:  BRA    4260
....................  } 
04264:  GOTO   429E (RETURN)
....................  
.................... void Lectura_I2C (byte direccion, byte posicion, byte &dato) { 
....................  
....................    i2c_start();            // Comienzo de la comunicacin 
....................    i2c_write(direccion);   // Direccin del esclavo en el bus I2C 
....................    i2c_write(posicion);    // Posicin de donde se leer el dato en el esclavo 
....................    i2c_start();            // Reinicio 
....................    i2c_write(direccion+1); // Direccin del esclavo en modo lectura 
....................    dato=i2c_read(0);       // Lectura del dato 
....................    i2c_stop();             // Fin comunicacin 
.................... } 
....................  
.................... void Carga_Vector(void){ 
....................    SlaveA0Tx[0]=(int8)Temperatura; 
*
0404A:  MOVFF  32B,457
0404E:  MOVFF  32A,456
04052:  MOVFF  329,455
04056:  MOVFF  328,454
0405A:  RCALL  400E
0405C:  MOVFF  01,64
....................    SlaveA0Tx[1]=(Temperatura-((int8)Temperatura))*10; 
04060:  MOVFF  32B,457
04064:  MOVFF  32A,456
04068:  MOVFF  329,455
0406C:  MOVFF  328,454
04070:  RCALL  400E
04072:  MOVLB  4
04074:  CLRF   x55
04076:  MOVFF  01,454
0407A:  MOVLB  0
0407C:  CALL   19D8
04080:  BSF    FD8.1
04082:  MOVFF  32B,457
04086:  MOVFF  32A,456
0408A:  MOVFF  329,455
0408E:  MOVFF  328,454
04092:  MOVFF  03,45B
04096:  MOVFF  02,45A
0409A:  MOVFF  01,459
0409E:  MOVFF  00,458
040A2:  CALL   1B6C
040A6:  MOVFF  00,454
040AA:  MOVFF  01,455
040AE:  MOVFF  02,456
040B2:  MOVFF  03,457
040B6:  MOVFF  03,45B
040BA:  MOVFF  02,45A
040BE:  MOVFF  01,459
040C2:  MOVFF  00,458
040C6:  MOVLB  4
040C8:  CLRF   x5F
040CA:  CLRF   x5E
040CC:  MOVLW  20
040CE:  MOVWF  x5D
040D0:  MOVLW  82
040D2:  MOVWF  x5C
040D4:  MOVLB  0
040D6:  RCALL  3942
040D8:  MOVFF  03,457
040DC:  MOVFF  02,456
040E0:  MOVFF  01,455
040E4:  MOVFF  00,454
040E8:  RCALL  400E
040EA:  MOVFF  01,65
....................    SlaveA0Tx[2]=make8((int16)PresionCamara,0); 
040EE:  MOVFF  37D,66
040F2:  MOVLB  0
....................    SlaveA0Tx[3]=make8((int16)PresionCamara,1); 
040F4:  MOVFF  37E,67
040F8:  MOVLB  0
....................    SlaveA0Tx[4]=make8((int16)PresionPreCamara,0); 
040FA:  MOVFF  37F,68
040FE:  MOVLB  0
....................    SlaveA0Tx[5]=make8((int16)PresionPreCamara,1); 
04100:  MOVFF  380,69
04104:  MOVLB  0
....................    SlaveA0Tx[6]=(int8)Tpulso*10; 
04106:  MOVFF  2F7,457
0410A:  MOVFF  2F6,456
0410E:  MOVFF  2F5,455
04112:  MOVFF  2F4,454
04116:  RCALL  400E
04118:  MOVF   01,W
0411A:  MULLW  0A
0411C:  MOVFF  FF3,6A
....................    SlaveA0Tx[7]=HIG; 
04120:  BSF    F94.0
04122:  CLRF   x6B
04124:  BTFSC  F82.0
04126:  INCF   x6B,F
....................    SlaveA0Tx[8]=LOW; 
04128:  BSF    F94.1
0412A:  CLRF   x6C
0412C:  BTFSC  F82.1
0412E:  INCF   x6C,F
....................    SlaveA0Tx[9]=TERM; 
04130:  BSF    F93.5
04132:  CLRF   x6D
04134:  BTFSS  F81.5
04136:  INCF   x6D,F
....................    SlaveA0Tx[10]=DOOR; 
04138:  BSF    F93.6
0413A:  CLRF   x6E
0413C:  BTFSS  F81.6
0413E:  INCF   x6E,F
....................    SlaveA0Tx[11]=STOP; 
04140:  BSF    F93.7
04142:  CLRF   x6F
04144:  BTFSS  F81.7
04146:  INCF   x6F,F
....................    SlaveA0Tx[12]=(int8)error; 
04148:  MOVFF  2FB,457
0414C:  MOVFF  2FA,456
04150:  MOVFF  2F9,455
04154:  MOVFF  2F8,454
04158:  RCALL  400E
0415A:  MOVFF  01,70
....................    SlaveA0Tx[13]=CicloSeleccionado; 
0415E:  MOVFF  368,71
....................    SlaveA0Tx[14]=SetTime; 
04162:  MOVFF  3AC,72
....................    SlaveA0Tx[15]=Dia; 
04166:  MOVFF  3A0,73
....................    SlaveA0Tx[16]=Mes; 
0416A:  MOVFF  39F,74
....................    SlaveA0Tx[17]=Year; 
0416E:  MOVFF  39E,75
....................    SlaveA0Tx[18]=Hora; 
04172:  MOVFF  3A1,76
....................    SlaveA0Tx[19]=Minuto; 
04176:  MOVFF  3A2,77
....................    SlaveA0Tx[20]=Segundo; 
0417A:  MOVFF  3A3,78
....................    SlaveA0Tx[21]=Imprime; 
0417E:  MOVFF  3AD,79
....................    SlaveA0Tx[22]=Aire; 
04182:  CLRF   x7A
04184:  BTFSC  xA4.0
04186:  INCF   x7A,F
....................    SlaveA0Tx[23]=make8(Ciclos,0); 
04188:  MOVFF  381,7B
0418C:  MOVLB  0
....................    SlaveA0Tx[24]=make8(Ciclos,1); 
0418E:  MOVFF  382,7C
04192:  MOVLB  0
.................... } 
04194:  GOTO   426A (RETURN)
....................  
.................... void Lee_Vector(void){ 
....................    /*Dia=txbuf[0]; 
....................    Mess=txbuf[1]; 
....................    Year=txbuf[2]; 
....................    Hora=txbuf[3]; 
....................    Minuto=txbuf[4]; 
....................    Segundo=txbuf[5]; 
....................    dow=txbuf[6];*/ 
.................... } 
....................  
.................... void Envio_Esclavos(void){ 
....................    Carga_Vector(); 
*
04268:  BRA    404A
....................    for(i=0;i<25;i++) 
0426A:  MOVLB  3
0426C:  CLRF   x65
0426E:  MOVF   x65,W
04270:  SUBLW  18
04272:  BNC   42A4
....................    { 
....................       direccion=0xB0; 
04274:  MOVLW  B0
04276:  MOVLB  0
04278:  MOVWF  x85
....................       Envio_I2C(direccion,i,SlaveA0Tx[i]); 
0427A:  CLRF   03
0427C:  MOVLB  3
0427E:  MOVF   x65,W
04280:  ADDLW  64
04282:  MOVWF  FE9
04284:  MOVLW  00
04286:  ADDWFC 03,W
04288:  MOVWF  FEA
0428A:  MOVFF  FEF,454
0428E:  MOVFF  85,455
04292:  MOVFF  365,456
04296:  MOVFF  454,457
0429A:  MOVLB  0
0429C:  BRA    420E
....................    }  
0429E:  MOVLB  3
042A0:  INCF   x65,F
042A2:  BRA    426E
.................... } 
042A4:  MOVLB  0
042A6:  RETLW  00
.................... void Lectura_Esclavos(void){ 
....................    //for(i=0;i<7;i++) 
....................    //{ 
....................    //   direccion=0xA0;                        //Direccin en el bus I2c 
....................    //   posicion=i;                         //Posicin de memoria a leer 
....................    //   Lectura_I2C(direccion, posicion, dato);    //Lectura por I2C 
....................    //   txbuf[i]=(int8)dato; 
....................    //} 
....................    //Lee_Vector(); 
.................... } 
....................  
.................... void LeeEEPROM(){ 
.................... //Lectura EEPROM//-------------------------- 
....................    Testerilizacionp[0]=read_eeprom(0); 
*
01DE4:  MOVFF  FF2,43F
01DE8:  BCF    FF2.6
01DEA:  BCF    FF2.7
01DEC:  CLRF   FAA
01DEE:  CLRF   FA9
01DF0:  BCF    FA6.6
01DF2:  BCF    FA6.7
01DF4:  BSF    FA6.0
01DF6:  MOVF   FA8,W
01DF8:  MOVLB  4
01DFA:  BTFSC  x3F.6
01DFC:  BSF    FF2.6
01DFE:  BTFSC  x3F.7
01E00:  BSF    FF2.7
01E02:  MOVLB  0
01E04:  MOVWF  xB6
....................    delay_ms(10); 
01E06:  MOVLW  0A
01E08:  MOVLB  4
01E0A:  MOVWF  x54
01E0C:  MOVLB  0
01E0E:  RCALL  19B0
....................    Testerilizacionp[1]=read_eeprom(1); 
01E10:  MOVFF  FF2,43F
01E14:  BCF    FF2.6
01E16:  BCF    FF2.7
01E18:  CLRF   FAA
01E1A:  MOVLW  01
01E1C:  MOVWF  FA9
01E1E:  BCF    FA6.6
01E20:  BCF    FA6.7
01E22:  BSF    FA6.0
01E24:  MOVF   FA8,W
01E26:  MOVLB  4
01E28:  BTFSC  x3F.6
01E2A:  BSF    FF2.6
01E2C:  BTFSC  x3F.7
01E2E:  BSF    FF2.7
01E30:  MOVLB  0
01E32:  MOVWF  xB7
....................    delay_ms(10); 
01E34:  MOVLW  0A
01E36:  MOVLB  4
01E38:  MOVWF  x54
01E3A:  MOVLB  0
01E3C:  RCALL  19B0
....................    Testerilizacionp[2]=read_eeprom(2); 
01E3E:  MOVFF  FF2,43F
01E42:  BCF    FF2.6
01E44:  BCF    FF2.7
01E46:  CLRF   FAA
01E48:  MOVLW  02
01E4A:  MOVWF  FA9
01E4C:  BCF    FA6.6
01E4E:  BCF    FA6.7
01E50:  BSF    FA6.0
01E52:  MOVF   FA8,W
01E54:  MOVLB  4
01E56:  BTFSC  x3F.6
01E58:  BSF    FF2.6
01E5A:  BTFSC  x3F.7
01E5C:  BSF    FF2.7
01E5E:  MOVLB  0
01E60:  MOVWF  xB8
....................    delay_ms(10); 
01E62:  MOVLW  0A
01E64:  MOVLB  4
01E66:  MOVWF  x54
01E68:  MOVLB  0
01E6A:  RCALL  19B0
....................    Testerilizacionp[3]=read_eeprom(3); 
01E6C:  MOVFF  FF2,43F
01E70:  BCF    FF2.6
01E72:  BCF    FF2.7
01E74:  CLRF   FAA
01E76:  MOVLW  03
01E78:  MOVWF  FA9
01E7A:  BCF    FA6.6
01E7C:  BCF    FA6.7
01E7E:  BSF    FA6.0
01E80:  MOVF   FA8,W
01E82:  MOVLB  4
01E84:  BTFSC  x3F.6
01E86:  BSF    FF2.6
01E88:  BTFSC  x3F.7
01E8A:  BSF    FF2.7
01E8C:  MOVLB  0
01E8E:  MOVWF  xB9
....................    delay_ms(10); 
01E90:  MOVLW  0A
01E92:  MOVLB  4
01E94:  MOVWF  x54
01E96:  MOVLB  0
01E98:  RCALL  19B0
....................    Tsecadop[0]=read_eeprom(4); 
01E9A:  MOVFF  FF2,43F
01E9E:  BCF    FF2.6
01EA0:  BCF    FF2.7
01EA2:  CLRF   FAA
01EA4:  MOVLW  04
01EA6:  MOVWF  FA9
01EA8:  BCF    FA6.6
01EAA:  BCF    FA6.7
01EAC:  BSF    FA6.0
01EAE:  MOVF   FA8,W
01EB0:  MOVLB  4
01EB2:  BTFSC  x3F.6
01EB4:  BSF    FF2.6
01EB6:  BTFSC  x3F.7
01EB8:  BSF    FF2.7
01EBA:  MOVLB  0
01EBC:  MOVWF  xBF
....................    delay_ms(10); 
01EBE:  MOVLW  0A
01EC0:  MOVLB  4
01EC2:  MOVWF  x54
01EC4:  MOVLB  0
01EC6:  RCALL  19B0
....................    Tsecadop[1]=read_eeprom(5); 
01EC8:  MOVFF  FF2,43F
01ECC:  BCF    FF2.6
01ECE:  BCF    FF2.7
01ED0:  CLRF   FAA
01ED2:  MOVLW  05
01ED4:  MOVWF  FA9
01ED6:  BCF    FA6.6
01ED8:  BCF    FA6.7
01EDA:  BSF    FA6.0
01EDC:  MOVF   FA8,W
01EDE:  MOVLB  4
01EE0:  BTFSC  x3F.6
01EE2:  BSF    FF2.6
01EE4:  BTFSC  x3F.7
01EE6:  BSF    FF2.7
01EE8:  MOVLB  0
01EEA:  MOVWF  xC0
....................    delay_ms(10); 
01EEC:  MOVLW  0A
01EEE:  MOVLB  4
01EF0:  MOVWF  x54
01EF2:  MOVLB  0
01EF4:  RCALL  19B0
....................    Tsecadop[2]=read_eeprom(6); 
01EF6:  MOVFF  FF2,43F
01EFA:  BCF    FF2.6
01EFC:  BCF    FF2.7
01EFE:  CLRF   FAA
01F00:  MOVLW  06
01F02:  MOVWF  FA9
01F04:  BCF    FA6.6
01F06:  BCF    FA6.7
01F08:  BSF    FA6.0
01F0A:  MOVF   FA8,W
01F0C:  MOVLB  4
01F0E:  BTFSC  x3F.6
01F10:  BSF    FF2.6
01F12:  BTFSC  x3F.7
01F14:  BSF    FF2.7
01F16:  MOVLB  0
01F18:  MOVWF  xC1
....................    delay_ms(10); 
01F1A:  MOVLW  0A
01F1C:  MOVLB  4
01F1E:  MOVWF  x54
01F20:  MOVLB  0
01F22:  RCALL  19B0
....................    Tsecadop[3]=read_eeprom(7); 
01F24:  MOVFF  FF2,43F
01F28:  BCF    FF2.6
01F2A:  BCF    FF2.7
01F2C:  CLRF   FAA
01F2E:  MOVLW  07
01F30:  MOVWF  FA9
01F32:  BCF    FA6.6
01F34:  BCF    FA6.7
01F36:  BSF    FA6.0
01F38:  MOVF   FA8,W
01F3A:  MOVLB  4
01F3C:  BTFSC  x3F.6
01F3E:  BSF    FF2.6
01F40:  BTFSC  x3F.7
01F42:  BSF    FF2.7
01F44:  MOVLB  0
01F46:  MOVWF  xC2
....................    delay_ms(10); 
01F48:  MOVLW  0A
01F4A:  MOVLB  4
01F4C:  MOVWF  x54
01F4E:  MOVLB  0
01F50:  RCALL  19B0
....................    Setpoint=read_eeprom(8); 
01F52:  MOVFF  FF2,43F
01F56:  BCF    FF2.6
01F58:  BCF    FF2.7
01F5A:  CLRF   FAA
01F5C:  MOVLW  08
01F5E:  MOVWF  FA9
01F60:  BCF    FA6.6
01F62:  BCF    FA6.7
01F64:  BSF    FA6.0
01F66:  MOVF   FA8,W
01F68:  MOVLB  4
01F6A:  BTFSC  x3F.6
01F6C:  BSF    FF2.6
01F6E:  BTFSC  x3F.7
01F70:  BSF    FF2.7
01F72:  MOVLB  3
01F74:  MOVWF  x6B
....................    delay_ms(10); 
01F76:  MOVLW  0A
01F78:  MOVLB  4
01F7A:  MOVWF  x54
01F7C:  MOVLB  0
01F7E:  RCALL  19B0
....................    Nivel=read_eeprom(9); 
01F80:  MOVFF  FF2,43F
01F84:  BCF    FF2.6
01F86:  BCF    FF2.7
01F88:  CLRF   FAA
01F8A:  MOVLW  09
01F8C:  MOVWF  FA9
01F8E:  BCF    FA6.6
01F90:  BCF    FA6.7
01F92:  BSF    FA6.0
01F94:  MOVF   FA8,W
01F96:  MOVLB  4
01F98:  BTFSC  x3F.6
01F9A:  BSF    FF2.6
01F9C:  BTFSC  x3F.7
01F9E:  BSF    FF2.7
01FA0:  MOVLB  3
01FA2:  CLRF   x7A
01FA4:  MOVWF  x79
....................    delay_ms(10); 
01FA6:  MOVLW  0A
01FA8:  MOVLB  4
01FAA:  MOVWF  x54
01FAC:  MOVLB  0
01FAE:  RCALL  19B0
....................    Password[0]=read_eeprom(10); 
01FB0:  MOVFF  FF2,43F
01FB4:  BCF    FF2.6
01FB6:  BCF    FF2.7
01FB8:  CLRF   FAA
01FBA:  MOVLW  0A
01FBC:  MOVWF  FA9
01FBE:  BCF    FA6.6
01FC0:  BCF    FA6.7
01FC2:  BSF    FA6.0
01FC4:  MOVF   FA8,W
01FC6:  MOVLB  4
01FC8:  BTFSC  x3F.6
01FCA:  BSF    FF2.6
01FCC:  BTFSC  x3F.7
01FCE:  BSF    FF2.7
01FD0:  MOVLB  3
01FD2:  MOVWF  x89
....................    delay_ms(10); 
01FD4:  MOVLW  0A
01FD6:  MOVLB  4
01FD8:  MOVWF  x54
01FDA:  MOVLB  0
01FDC:  RCALL  19B0
....................    Password[1]=read_eeprom(11); 
01FDE:  MOVFF  FF2,43F
01FE2:  BCF    FF2.6
01FE4:  BCF    FF2.7
01FE6:  CLRF   FAA
01FE8:  MOVLW  0B
01FEA:  MOVWF  FA9
01FEC:  BCF    FA6.6
01FEE:  BCF    FA6.7
01FF0:  BSF    FA6.0
01FF2:  MOVF   FA8,W
01FF4:  MOVLB  4
01FF6:  BTFSC  x3F.6
01FF8:  BSF    FF2.6
01FFA:  BTFSC  x3F.7
01FFC:  BSF    FF2.7
01FFE:  MOVLB  3
02000:  MOVWF  x8A
....................    delay_ms(10); 
02002:  MOVLW  0A
02004:  MOVLB  4
02006:  MOVWF  x54
02008:  MOVLB  0
0200A:  RCALL  19B0
....................    Password[2]=read_eeprom(12); 
0200C:  MOVFF  FF2,43F
02010:  BCF    FF2.6
02012:  BCF    FF2.7
02014:  CLRF   FAA
02016:  MOVLW  0C
02018:  MOVWF  FA9
0201A:  BCF    FA6.6
0201C:  BCF    FA6.7
0201E:  BSF    FA6.0
02020:  MOVF   FA8,W
02022:  MOVLB  4
02024:  BTFSC  x3F.6
02026:  BSF    FF2.6
02028:  BTFSC  x3F.7
0202A:  BSF    FF2.7
0202C:  MOVLB  3
0202E:  MOVWF  x8B
....................    delay_ms(10); 
02030:  MOVLW  0A
02032:  MOVLB  4
02034:  MOVWF  x54
02036:  MOVLB  0
02038:  RCALL  19B0
....................    Password[3]=read_eeprom(13); 
0203A:  MOVFF  FF2,43F
0203E:  BCF    FF2.6
02040:  BCF    FF2.7
02042:  CLRF   FAA
02044:  MOVLW  0D
02046:  MOVWF  FA9
02048:  BCF    FA6.6
0204A:  BCF    FA6.7
0204C:  BSF    FA6.0
0204E:  MOVF   FA8,W
02050:  MOVLB  4
02052:  BTFSC  x3F.6
02054:  BSF    FF2.6
02056:  BTFSC  x3F.7
02058:  BSF    FF2.7
0205A:  MOVLB  3
0205C:  MOVWF  x8C
....................    delay_ms(10); 
0205E:  MOVLW  0A
02060:  MOVLB  4
02062:  MOVWF  x54
02064:  MOVLB  0
02066:  RCALL  19B0
....................    Ganancia=read_eeprom(20); 
02068:  MOVFF  FF2,43F
0206C:  BCF    FF2.6
0206E:  BCF    FF2.7
02070:  CLRF   FAA
02072:  MOVLW  14
02074:  MOVWF  FA9
02076:  BCF    FA6.6
02078:  BCF    FA6.7
0207A:  BSF    FA6.0
0207C:  MOVF   FA8,W
0207E:  MOVLB  4
02080:  BTFSC  x3F.6
02082:  BSF    FF2.6
02084:  BTFSC  x3F.7
02086:  BSF    FF2.7
02088:  CLRF   x55
0208A:  MOVWF  x54
0208C:  MOVLB  0
0208E:  RCALL  19D8
02090:  MOVFF  03,30B
02094:  MOVFF  02,30A
02098:  MOVFF  01,309
0209C:  MOVFF  00,308
....................    delay_ms(10); 
020A0:  MOVLW  0A
020A2:  MOVLB  4
020A4:  MOVWF  x54
020A6:  MOVLB  0
020A8:  RCALL  19B0
....................    Ajuste=read_eeprom(21); 
020AA:  MOVFF  FF2,43F
020AE:  BCF    FF2.6
020B0:  BCF    FF2.7
020B2:  CLRF   FAA
020B4:  MOVLW  15
020B6:  MOVWF  FA9
020B8:  BCF    FA6.6
020BA:  BCF    FA6.7
020BC:  BSF    FA6.0
020BE:  MOVF   FA8,W
020C0:  MOVLB  4
020C2:  BTFSC  x3F.6
020C4:  BSF    FF2.6
020C6:  BTFSC  x3F.7
020C8:  BSF    FF2.7
020CA:  MOVLB  2
020CC:  MOVWF  xD9
....................    delay_ms(10); 
020CE:  MOVLW  0A
020D0:  MOVLB  4
020D2:  MOVWF  x54
020D4:  MOVLB  0
020D6:  RCALL  19B0
....................    Ajusten=read_eeprom(22); 
020D8:  MOVFF  FF2,43F
020DC:  BCF    FF2.6
020DE:  BCF    FF2.7
020E0:  CLRF   FAA
020E2:  MOVLW  16
020E4:  MOVWF  FA9
020E6:  BCF    FA6.6
020E8:  BCF    FA6.7
020EA:  BSF    FA6.0
020EC:  MOVF   FA8,W
020EE:  MOVLB  4
020F0:  BTFSC  x3F.6
020F2:  BSF    FF2.6
020F4:  BTFSC  x3F.7
020F6:  BSF    FF2.7
020F8:  MOVLB  2
020FA:  MOVWF  xDA
....................    delay_ms(10); 
020FC:  MOVLW  0A
020FE:  MOVLB  4
02100:  MOVWF  x54
02102:  MOVLB  0
02104:  RCALL  19B0
....................    //Desvio=read_eeprom(23); 
....................    MediaMovil=read_eeprom(24); 
02106:  MOVFF  FF2,43F
0210A:  BCF    FF2.6
0210C:  BCF    FF2.7
0210E:  CLRF   FAA
02110:  MOVLW  18
02112:  MOVWF  FA9
02114:  BCF    FA6.6
02116:  BCF    FA6.7
02118:  BSF    FA6.0
0211A:  MOVF   FA8,W
0211C:  MOVLB  4
0211E:  BTFSC  x3F.6
02120:  BSF    FF2.6
02122:  BTFSC  x3F.7
02124:  BSF    FF2.7
02126:  MOVLB  2
02128:  MOVWF  xDB
....................    delay_ms(10); 
0212A:  MOVLW  0A
0212C:  MOVLB  4
0212E:  MOVWF  x54
02130:  MOVLB  0
02132:  RCALL  19B0
....................    Tciclo=read_eeprom(25); 
02134:  MOVFF  FF2,43F
02138:  BCF    FF2.6
0213A:  BCF    FF2.7
0213C:  CLRF   FAA
0213E:  MOVLW  19
02140:  MOVWF  FA9
02142:  BCF    FA6.6
02144:  BCF    FA6.7
02146:  BSF    FA6.0
02148:  MOVF   FA8,W
0214A:  MOVLB  4
0214C:  BTFSC  x3F.6
0214E:  BSF    FF2.6
02150:  BTFSC  x3F.7
02152:  BSF    FF2.7
02154:  CLRF   x55
02156:  MOVWF  x54
02158:  MOVLB  0
0215A:  RCALL  19D8
0215C:  MOVFF  03,2F3
02160:  MOVFF  02,2F2
02164:  MOVFF  01,2F1
02168:  MOVFF  00,2F0
....................    delay_ms(10); 
0216C:  MOVLW  0A
0216E:  MOVLB  4
02170:  MOVWF  x54
02172:  MOVLB  0
02174:  RCALL  19B0
....................    Integral=read_eeprom(26); 
02176:  MOVFF  FF2,43F
0217A:  BCF    FF2.6
0217C:  BCF    FF2.7
0217E:  CLRF   FAA
02180:  MOVLW  1A
02182:  MOVWF  FA9
02184:  BCF    FA6.6
02186:  BCF    FA6.7
02188:  BSF    FA6.0
0218A:  MOVF   FA8,W
0218C:  MOVLB  4
0218E:  BTFSC  x3F.6
02190:  BSF    FF2.6
02192:  BTFSC  x3F.7
02194:  BSF    FF2.7
02196:  MOVLB  3
02198:  MOVWF  x40
....................    delay_ms(10); 
0219A:  MOVLW  0A
0219C:  MOVLB  4
0219E:  MOVWF  x54
021A0:  MOVLB  0
021A2:  RCALL  19B0
....................    Derivativo=read_eeprom(27); 
021A4:  MOVFF  FF2,43F
021A8:  BCF    FF2.6
021AA:  BCF    FF2.7
021AC:  CLRF   FAA
021AE:  MOVLW  1B
021B0:  MOVWF  FA9
021B2:  BCF    FA6.6
021B4:  BCF    FA6.7
021B6:  BSF    FA6.0
021B8:  MOVF   FA8,W
021BA:  MOVLB  4
021BC:  BTFSC  x3F.6
021BE:  BSF    FF2.6
021C0:  BTFSC  x3F.7
021C2:  BSF    FF2.7
021C4:  MOVLB  3
021C6:  MOVWF  x41
....................    delay_ms(10); 
021C8:  MOVLW  0A
021CA:  MOVLB  4
021CC:  MOVWF  x54
021CE:  MOVLB  0
021D0:  CALL   19B0
....................    Temporal=read_eeprom(29); 
021D4:  MOVFF  FF2,43F
021D8:  BCF    FF2.6
021DA:  BCF    FF2.7
021DC:  CLRF   FAA
021DE:  MOVLW  1D
021E0:  MOVWF  FA9
021E2:  BCF    FA6.6
021E4:  BCF    FA6.7
021E6:  BSF    FA6.0
021E8:  MOVF   FA8,W
021EA:  MOVLB  4
021EC:  BTFSC  x3F.6
021EE:  BSF    FF2.6
021F0:  BTFSC  x3F.7
021F2:  BSF    FF2.7
021F4:  CLRF   x55
021F6:  MOVWF  x54
021F8:  MOVLB  0
021FA:  CALL   19D8
021FE:  MOVFF  03,2AE
02202:  MOVFF  02,2AD
02206:  MOVFF  01,2AC
0220A:  MOVFF  00,2AB
....................    Temporal=Temporal/10.0; 
0220E:  MOVFF  2AE,44B
02212:  MOVFF  2AD,44A
02216:  MOVFF  2AC,449
0221A:  MOVFF  2AB,448
0221E:  MOVLB  4
02220:  CLRF   x4F
02222:  CLRF   x4E
02224:  MOVLW  20
02226:  MOVWF  x4D
02228:  MOVLW  82
0222A:  MOVWF  x4C
0222C:  MOVLB  0
0222E:  CALL   1A0E
02232:  MOVFF  03,2AE
02236:  MOVFF  02,2AD
0223A:  MOVFF  01,2AC
0223E:  MOVFF  00,2AB
....................    delay_ms(10); 
02242:  MOVLW  0A
02244:  MOVLB  4
02246:  MOVWF  x54
02248:  MOVLB  0
0224A:  CALL   19B0
....................    Gain=read_eeprom(28)+Temporal; 
0224E:  MOVFF  FF2,43F
02252:  BCF    FF2.6
02254:  BCF    FF2.7
02256:  CLRF   FAA
02258:  MOVLW  1C
0225A:  MOVWF  FA9
0225C:  BCF    FA6.6
0225E:  BCF    FA6.7
02260:  BSF    FA6.0
02262:  MOVF   FA8,W
02264:  MOVLB  4
02266:  BTFSC  x3F.6
02268:  BSF    FF2.6
0226A:  BTFSC  x3F.7
0226C:  BSF    FF2.7
0226E:  CLRF   x55
02270:  MOVWF  x54
02272:  MOVLB  0
02274:  CALL   19D8
02278:  BCF    FD8.1
0227A:  MOVFF  03,457
0227E:  MOVFF  02,456
02282:  MOVFF  01,455
02286:  MOVFF  00,454
0228A:  MOVFF  2AE,45B
0228E:  MOVFF  2AD,45A
02292:  MOVFF  2AC,459
02296:  MOVFF  2AB,458
0229A:  RCALL  1B6C
0229C:  MOVFF  03,2A6
022A0:  MOVFF  02,2A5
022A4:  MOVFF  01,2A4
022A8:  MOVFF  00,2A3
....................    delay_ms(10); 
022AC:  MOVLW  0A
022AE:  MOVLB  4
022B0:  MOVWF  x54
022B2:  MOVLB  0
022B4:  CALL   19B0
....................    R1=make16(read_eeprom(31),read_eeprom(30)); 
022B8:  MOVFF  FF2,43F
022BC:  BCF    FF2.6
022BE:  BCF    FF2.7
022C0:  CLRF   FAA
022C2:  MOVLW  1F
022C4:  MOVWF  FA9
022C6:  BCF    FA6.6
022C8:  BCF    FA6.7
022CA:  BSF    FA6.0
022CC:  MOVF   FA8,W
022CE:  MOVLB  4
022D0:  BTFSC  x3F.6
022D2:  BSF    FF2.6
022D4:  BTFSC  x3F.7
022D6:  BSF    FF2.7
022D8:  MOVWF  x40
022DA:  MOVFF  FF2,441
022DE:  BCF    FF2.6
022E0:  BCF    FF2.7
022E2:  CLRF   FAA
022E4:  MOVLW  1E
022E6:  MOVWF  FA9
022E8:  BCF    FA6.6
022EA:  BCF    FA6.7
022EC:  BSF    FA6.0
022EE:  MOVF   FA8,W
022F0:  BTFSC  x41.6
022F2:  BSF    FF2.6
022F4:  BTFSC  x41.7
022F6:  BSF    FF2.7
022F8:  MOVWF  x42
022FA:  MOVFF  440,03
022FE:  MOVF   x42,W
02300:  MOVWF  x54
02302:  MOVFF  03,455
02306:  MOVLB  0
02308:  CALL   19D8
0230C:  MOVFF  03,2B2
02310:  MOVFF  02,2B1
02314:  MOVFF  01,2B0
02318:  MOVFF  00,2AF
....................    delay_ms(10); 
0231C:  MOVLW  0A
0231E:  MOVLB  4
02320:  MOVWF  x54
02322:  MOVLB  0
02324:  CALL   19B0
....................    histe=read_eeprom(32); 
02328:  MOVFF  FF2,43F
0232C:  BCF    FF2.6
0232E:  BCF    FF2.7
02330:  CLRF   FAA
02332:  MOVLW  20
02334:  MOVWF  FA9
02336:  BCF    FA6.6
02338:  BCF    FA6.7
0233A:  BSF    FA6.0
0233C:  MOVF   FA8,W
0233E:  MOVLB  4
02340:  BTFSC  x3F.6
02342:  BSF    FF2.6
02344:  BTFSC  x3F.7
02346:  BSF    FF2.7
02348:  MOVLB  3
0234A:  MOVWF  x6A
....................    delay_ms(10); 
0234C:  MOVLW  0A
0234E:  MOVLB  4
02350:  MOVWF  x54
02352:  MOVLB  0
02354:  CALL   19B0
....................    Histeresis=(float)histe; 
02358:  MOVLB  4
0235A:  CLRF   x55
0235C:  MOVFF  36A,454
02360:  MOVLB  0
02362:  CALL   19D8
02366:  MOVFF  03,333
0236A:  MOVFF  02,332
0236E:  MOVFF  01,331
02372:  MOVFF  00,330
....................    Histeresis=Histeresis/10.0; 
02376:  MOVFF  333,44B
0237A:  MOVFF  332,44A
0237E:  MOVFF  331,449
02382:  MOVFF  330,448
02386:  MOVLB  4
02388:  CLRF   x4F
0238A:  CLRF   x4E
0238C:  MOVLW  20
0238E:  MOVWF  x4D
02390:  MOVLW  82
02392:  MOVWF  x4C
02394:  MOVLB  0
02396:  CALL   1A0E
0239A:  MOVFF  03,333
0239E:  MOVFF  02,332
023A2:  MOVFF  01,331
023A6:  MOVFF  00,330
....................    desviacion=read_eeprom(33); 
023AA:  MOVFF  FF2,43F
023AE:  BCF    FF2.6
023B0:  BCF    FF2.7
023B2:  CLRF   FAA
023B4:  MOVLW  21
023B6:  MOVWF  FA9
023B8:  BCF    FA6.6
023BA:  BCF    FA6.7
023BC:  BSF    FA6.0
023BE:  MOVF   FA8,W
023C0:  MOVLB  4
023C2:  BTFSC  x3F.6
023C4:  BSF    FF2.6
023C6:  BTFSC  x3F.7
023C8:  BSF    FF2.7
023CA:  MOVLB  3
023CC:  MOVWF  x69
....................    delay_ms(10); 
023CE:  MOVLW  0A
023D0:  MOVLB  4
023D2:  MOVWF  x54
023D4:  MOVLB  0
023D6:  CALL   19B0
....................    desvio=(float)desviacion; 
023DA:  MOVLB  4
023DC:  CLRF   x55
023DE:  MOVFF  369,454
023E2:  MOVLB  0
023E4:  CALL   19D8
023E8:  MOVFF  03,313
023EC:  MOVFF  02,312
023F0:  MOVFF  01,311
023F4:  MOVFF  00,310
....................    desvio=desvio/10.0; 
023F8:  MOVFF  313,44B
023FC:  MOVFF  312,44A
02400:  MOVFF  311,449
02404:  MOVFF  310,448
02408:  MOVLB  4
0240A:  CLRF   x4F
0240C:  CLRF   x4E
0240E:  MOVLW  20
02410:  MOVWF  x4D
02412:  MOVLW  82
02414:  MOVWF  x4C
02416:  MOVLB  0
02418:  CALL   1A0E
0241C:  MOVFF  03,313
02420:  MOVFF  02,312
02424:  MOVFF  01,311
02428:  MOVFF  00,310
....................    CiclosL=read_eeprom(37); 
0242C:  MOVFF  FF2,43F
02430:  BCF    FF2.6
02432:  BCF    FF2.7
02434:  CLRF   FAA
02436:  MOVLW  25
02438:  MOVWF  FA9
0243A:  BCF    FA6.6
0243C:  BCF    FA6.7
0243E:  BSF    FA6.0
02440:  MOVF   FA8,W
02442:  MOVLB  4
02444:  BTFSC  x3F.6
02446:  BSF    FF2.6
02448:  BTFSC  x3F.7
0244A:  BSF    FF2.7
0244C:  MOVLB  3
0244E:  MOVWF  x66
....................    delay_ms(10); 
02450:  MOVLW  0A
02452:  MOVLB  4
02454:  MOVWF  x54
02456:  MOVLB  0
02458:  CALL   19B0
....................    CiclosH=read_eeprom(38); 
0245C:  MOVFF  FF2,43F
02460:  BCF    FF2.6
02462:  BCF    FF2.7
02464:  CLRF   FAA
02466:  MOVLW  26
02468:  MOVWF  FA9
0246A:  BCF    FA6.6
0246C:  BCF    FA6.7
0246E:  BSF    FA6.0
02470:  MOVF   FA8,W
02472:  MOVLB  4
02474:  BTFSC  x3F.6
02476:  BSF    FF2.6
02478:  BTFSC  x3F.7
0247A:  BSF    FF2.7
0247C:  MOVLB  3
0247E:  MOVWF  x67
....................    delay_ms(10); 
02480:  MOVLW  0A
02482:  MOVLB  4
02484:  MOVWF  x54
02486:  MOVLB  0
02488:  CALL   19B0
....................    Ciclos=make16(CiclosH,CiclosL); 
0248C:  MOVFF  367,382
02490:  MOVFF  366,381
....................    delay_ms(10); 
02494:  MOVLW  0A
02496:  MOVLB  4
02498:  MOVWF  x54
0249A:  MOVLB  0
0249C:  CALL   19B0
....................    TTrampa=read_eeprom(39); 
024A0:  MOVFF  FF2,43F
024A4:  BCF    FF2.6
024A6:  BCF    FF2.7
024A8:  CLRF   FAA
024AA:  MOVLW  27
024AC:  MOVWF  FA9
024AE:  BCF    FA6.6
024B0:  BCF    FA6.7
024B2:  BSF    FA6.0
024B4:  MOVF   FA8,W
024B6:  MOVLB  4
024B8:  BTFSC  x3F.6
024BA:  BSF    FF2.6
024BC:  BTFSC  x3F.7
024BE:  BSF    FF2.7
024C0:  MOVLB  2
024C2:  MOVWF  xDC
....................    delay_ms(10); 
024C4:  MOVLW  0A
024C6:  MOVLB  4
024C8:  MOVWF  x54
024CA:  MOVLB  0
024CC:  CALL   19B0
....................    ActivaImpresion=read_eeprom(40); 
024D0:  MOVFF  FF2,43F
024D4:  BCF    FF2.6
024D6:  BCF    FF2.7
024D8:  CLRF   FAA
024DA:  MOVLW  28
024DC:  MOVWF  FA9
024DE:  BCF    FA6.6
024E0:  BCF    FA6.7
024E2:  BSF    FA6.0
024E4:  MOVF   FA8,W
024E6:  MOVLB  4
024E8:  BTFSC  x3F.6
024EA:  BSF    FF2.6
024EC:  BTFSC  x3F.7
024EE:  BSF    FF2.7
024F0:  MOVLB  3
024F2:  MOVWF  x5B
....................    delay_ms(10); 
024F4:  MOVLW  0A
024F6:  MOVLB  4
024F8:  MOVWF  x54
024FA:  MOVLB  0
024FC:  CALL   19B0
....................    timpresion=read_eeprom(41); 
02500:  MOVFF  FF2,43F
02504:  BCF    FF2.6
02506:  BCF    FF2.7
02508:  CLRF   FAA
0250A:  MOVLW  29
0250C:  MOVWF  FA9
0250E:  BCF    FA6.6
02510:  BCF    FA6.7
02512:  BSF    FA6.0
02514:  MOVF   FA8,W
02516:  MOVLB  4
02518:  BTFSC  x3F.6
0251A:  BSF    FF2.6
0251C:  BTFSC  x3F.7
0251E:  BSF    FF2.7
02520:  MOVLB  3
02522:  MOVWF  x5C
....................    delay_ms(10); 
02524:  MOVLW  0A
02526:  MOVLB  4
02528:  MOVWF  x54
0252A:  MOVLB  0
0252C:  CALL   19B0
....................    G1=read_eeprom(42); 
02530:  MOVFF  FF2,43F
02534:  BCF    FF2.6
02536:  BCF    FF2.7
02538:  CLRF   FAA
0253A:  MOVLW  2A
0253C:  MOVWF  FA9
0253E:  BCF    FA6.6
02540:  BCF    FA6.7
02542:  BSF    FA6.0
02544:  MOVF   FA8,W
02546:  MOVLB  4
02548:  BTFSC  x3F.6
0254A:  BSF    FF2.6
0254C:  BTFSC  x3F.7
0254E:  BSF    FF2.7
02550:  MOVLB  3
02552:  MOVWF  xAF
....................    delay_ms(10); 
02554:  MOVLW  0A
02556:  MOVLB  4
02558:  MOVWF  x54
0255A:  MOVLB  0
0255C:  CALL   19B0
....................    G2=read_eeprom(43); 
02560:  MOVFF  FF2,43F
02564:  BCF    FF2.6
02566:  BCF    FF2.7
02568:  CLRF   FAA
0256A:  MOVLW  2B
0256C:  MOVWF  FA9
0256E:  BCF    FA6.6
02570:  BCF    FA6.7
02572:  BSF    FA6.0
02574:  MOVF   FA8,W
02576:  MOVLB  4
02578:  BTFSC  x3F.6
0257A:  BSF    FF2.6
0257C:  BTFSC  x3F.7
0257E:  BSF    FF2.7
02580:  MOVLB  3
02582:  MOVWF  xB0
....................    delay_ms(10); 
02584:  MOVLW  0A
02586:  MOVLB  4
02588:  MOVWF  x54
0258A:  MOVLB  0
0258C:  CALL   19B0
....................    sg1=read_eeprom(44); 
02590:  MOVFF  FF2,43F
02594:  BCF    FF2.6
02596:  BCF    FF2.7
02598:  CLRF   FAA
0259A:  MOVLW  2C
0259C:  MOVWF  FA9
0259E:  BCF    FA6.6
025A0:  BCF    FA6.7
025A2:  BSF    FA6.0
025A4:  MOVF   FA8,W
025A6:  MOVLB  4
025A8:  BTFSC  x3F.6
025AA:  BSF    FF2.6
025AC:  BTFSC  x3F.7
025AE:  BSF    FF2.7
025B0:  MOVLB  3
025B2:  MOVWF  xB1
....................    delay_ms(10); 
025B4:  MOVLW  0A
025B6:  MOVLB  4
025B8:  MOVWF  x54
025BA:  MOVLB  0
025BC:  CALL   19B0
....................    sg2=read_eeprom(45); 
025C0:  MOVFF  FF2,43F
025C4:  BCF    FF2.6
025C6:  BCF    FF2.7
025C8:  CLRF   FAA
025CA:  MOVLW  2D
025CC:  MOVWF  FA9
025CE:  BCF    FA6.6
025D0:  BCF    FA6.7
025D2:  BSF    FA6.0
025D4:  MOVF   FA8,W
025D6:  MOVLB  4
025D8:  BTFSC  x3F.6
025DA:  BSF    FF2.6
025DC:  BTFSC  x3F.7
025DE:  BSF    FF2.7
025E0:  MOVLB  3
025E2:  MOVWF  xB2
....................    delay_ms(10); 
025E4:  MOVLW  0A
025E6:  MOVLB  4
025E8:  MOVWF  x54
025EA:  MOVLB  0
025EC:  CALL   19B0
....................    Atmosferica=read_eeprom(46); 
025F0:  MOVFF  FF2,43F
025F4:  BCF    FF2.6
025F6:  BCF    FF2.7
025F8:  CLRF   FAA
025FA:  MOVLW  2E
025FC:  MOVWF  FA9
025FE:  BCF    FA6.6
02600:  BCF    FA6.7
02602:  BSF    FA6.0
02604:  MOVF   FA8,W
02606:  MOVLB  4
02608:  BTFSC  x3F.6
0260A:  BSF    FF2.6
0260C:  BTFSC  x3F.7
0260E:  BSF    FF2.7
02610:  MOVLB  3
02612:  MOVWF  xAE
....................     
....................    for(i=0;i<4;i++){//Lee valores almacenados de ciclos personalizados 
02614:  CLRF   x65
02616:  MOVF   x65,W
02618:  SUBLW  03
0261A:  BTFSS  FD8.0
0261C:  BRA    2BE6
....................       CiclosPersonalizados[i].Temperatura=read_eeprom(100+(i*8));  
0261E:  MOVF   x65,W
02620:  MULLW  0A
02622:  MOVF   FF3,W
02624:  MOVLB  4
02626:  CLRF   x40
02628:  MOVWF  x3F
0262A:  MOVLW  17
0262C:  ADDWF  x3F,W
0262E:  MOVWF  FE9
02630:  MOVLW  04
02632:  ADDWFC x40,W
02634:  MOVWF  FEA
02636:  MOVLB  3
02638:  MOVF   x65,W
0263A:  MULLW  08
0263C:  MOVF   FF3,W
0263E:  ADDLW  64
02640:  MOVLB  4
02642:  MOVWF  x41
02644:  MOVFF  FF2,442
02648:  BCF    FF2.6
0264A:  BCF    FF2.7
0264C:  CLRF   FAA
0264E:  MOVFF  441,FA9
02652:  BCF    FA6.6
02654:  BCF    FA6.7
02656:  BSF    FA6.0
02658:  MOVF   FA8,W
0265A:  BTFSC  x42.6
0265C:  BSF    FF2.6
0265E:  BTFSC  x42.7
02660:  BSF    FF2.7
02662:  MOVWF  FEF
....................       CiclosPersonalizados[i].MinutoestH=read_eeprom(101+(i*8));  
02664:  MOVLB  3
02666:  MOVF   x65,W
02668:  MULLW  0A
0266A:  MOVF   FF3,W
0266C:  MOVLB  4
0266E:  CLRF   x40
02670:  MOVWF  x3F
02672:  MOVLW  01
02674:  ADDWF  x3F,W
02676:  MOVWF  01
02678:  MOVLW  00
0267A:  ADDWFC x40,W
0267C:  MOVWF  03
0267E:  MOVF   01,W
02680:  ADDLW  17
02682:  MOVWF  FE9
02684:  MOVLW  04
02686:  ADDWFC 03,W
02688:  MOVWF  FEA
0268A:  MOVLB  3
0268C:  MOVF   x65,W
0268E:  MULLW  08
02690:  MOVF   FF3,W
02692:  ADDLW  65
02694:  MOVLB  4
02696:  MOVWF  x41
02698:  MOVFF  FF2,442
0269C:  BCF    FF2.6
0269E:  BCF    FF2.7
026A0:  CLRF   FAA
026A2:  MOVFF  441,FA9
026A6:  BCF    FA6.6
026A8:  BCF    FA6.7
026AA:  BSF    FA6.0
026AC:  MOVF   FA8,W
026AE:  BTFSC  x42.6
026B0:  BSF    FF2.6
026B2:  BTFSC  x42.7
026B4:  BSF    FF2.7
026B6:  MOVWF  FEF
....................       CiclosPersonalizados[i].Minutoest=read_eeprom(102+(i*8));  
026B8:  MOVLB  3
026BA:  MOVF   x65,W
026BC:  MULLW  0A
026BE:  MOVF   FF3,W
026C0:  MOVLB  4
026C2:  CLRF   x40
026C4:  MOVWF  x3F
026C6:  MOVLW  09
026C8:  ADDWF  x3F,W
026CA:  MOVWF  01
026CC:  MOVLW  00
026CE:  ADDWFC x40,W
026D0:  MOVWF  03
026D2:  MOVF   01,W
026D4:  ADDLW  17
026D6:  MOVWF  FE9
026D8:  MOVLW  04
026DA:  ADDWFC 03,W
026DC:  MOVWF  FEA
026DE:  MOVLB  3
026E0:  MOVF   x65,W
026E2:  MULLW  08
026E4:  MOVF   FF3,W
026E6:  ADDLW  66
026E8:  MOVLB  4
026EA:  MOVWF  x41
026EC:  MOVFF  FF2,442
026F0:  BCF    FF2.6
026F2:  BCF    FF2.7
026F4:  CLRF   FAA
026F6:  MOVFF  441,FA9
026FA:  BCF    FA6.6
026FC:  BCF    FA6.7
026FE:  BSF    FA6.0
02700:  MOVF   FA8,W
02702:  BTFSC  x42.6
02704:  BSF    FF2.6
02706:  BTFSC  x42.7
02708:  BSF    FF2.7
0270A:  MOVWF  FEF
....................       CiclosPersonalizados[i].Segundoest=read_eeprom(103+(i*8));  
0270C:  MOVLB  3
0270E:  MOVF   x65,W
02710:  MULLW  0A
02712:  MOVF   FF3,W
02714:  MOVLB  4
02716:  CLRF   x40
02718:  MOVWF  x3F
0271A:  MOVLW  03
0271C:  ADDWF  x3F,W
0271E:  MOVWF  01
02720:  MOVLW  00
02722:  ADDWFC x40,W
02724:  MOVWF  03
02726:  MOVF   01,W
02728:  ADDLW  17
0272A:  MOVWF  FE9
0272C:  MOVLW  04
0272E:  ADDWFC 03,W
02730:  MOVWF  FEA
02732:  MOVLB  3
02734:  MOVF   x65,W
02736:  MULLW  08
02738:  MOVF   FF3,W
0273A:  ADDLW  67
0273C:  MOVLB  4
0273E:  MOVWF  x41
02740:  MOVFF  FF2,442
02744:  BCF    FF2.6
02746:  BCF    FF2.7
02748:  CLRF   FAA
0274A:  MOVFF  441,FA9
0274E:  BCF    FA6.6
02750:  BCF    FA6.7
02752:  BSF    FA6.0
02754:  MOVF   FA8,W
02756:  BTFSC  x42.6
02758:  BSF    FF2.6
0275A:  BTFSC  x42.7
0275C:  BSF    FF2.7
0275E:  MOVWF  FEF
....................       CiclosPersonalizados[i].Minutosec=read_eeprom(104+(i*8));  
02760:  MOVLB  3
02762:  MOVF   x65,W
02764:  MULLW  0A
02766:  MOVF   FF3,W
02768:  MOVLB  4
0276A:  CLRF   x40
0276C:  MOVWF  x3F
0276E:  MOVLW  04
02770:  ADDWF  x3F,W
02772:  MOVWF  01
02774:  MOVLW  00
02776:  ADDWFC x40,W
02778:  MOVWF  03
0277A:  MOVF   01,W
0277C:  ADDLW  17
0277E:  MOVWF  FE9
02780:  MOVLW  04
02782:  ADDWFC 03,W
02784:  MOVWF  FEA
02786:  MOVLB  3
02788:  MOVF   x65,W
0278A:  MULLW  08
0278C:  MOVF   FF3,W
0278E:  ADDLW  68
02790:  MOVLB  4
02792:  MOVWF  x41
02794:  MOVFF  FF2,442
02798:  BCF    FF2.6
0279A:  BCF    FF2.7
0279C:  CLRF   FAA
0279E:  MOVFF  441,FA9
027A2:  BCF    FA6.6
027A4:  BCF    FA6.7
027A6:  BSF    FA6.0
027A8:  MOVF   FA8,W
027AA:  BTFSC  x42.6
027AC:  BSF    FF2.6
027AE:  BTFSC  x42.7
027B0:  BSF    FF2.7
027B2:  MOVWF  FEF
....................       CiclosPersonalizados[i].Segundosec=read_eeprom(105+(i*8));  
027B4:  MOVLB  3
027B6:  MOVF   x65,W
027B8:  MULLW  0A
027BA:  MOVF   FF3,W
027BC:  MOVLB  4
027BE:  CLRF   x40
027C0:  MOVWF  x3F
027C2:  MOVLW  05
027C4:  ADDWF  x3F,W
027C6:  MOVWF  01
027C8:  MOVLW  00
027CA:  ADDWFC x40,W
027CC:  MOVWF  03
027CE:  MOVF   01,W
027D0:  ADDLW  17
027D2:  MOVWF  FE9
027D4:  MOVLW  04
027D6:  ADDWFC 03,W
027D8:  MOVWF  FEA
027DA:  MOVLB  3
027DC:  MOVF   x65,W
027DE:  MULLW  08
027E0:  MOVF   FF3,W
027E2:  ADDLW  69
027E4:  MOVLB  4
027E6:  MOVWF  x41
027E8:  MOVFF  FF2,442
027EC:  BCF    FF2.6
027EE:  BCF    FF2.7
027F0:  CLRF   FAA
027F2:  MOVFF  441,FA9
027F6:  BCF    FA6.6
027F8:  BCF    FA6.7
027FA:  BSF    FA6.0
027FC:  MOVF   FA8,W
027FE:  BTFSC  x42.6
02800:  BSF    FF2.6
02802:  BTFSC  x42.7
02804:  BSF    FF2.7
02806:  MOVWF  FEF
....................       CiclosPersonalizados[i].PulsosVacio=read_eeprom(106+(i*8));  
02808:  MOVLB  3
0280A:  MOVF   x65,W
0280C:  MULLW  0A
0280E:  MOVF   FF3,W
02810:  MOVLB  4
02812:  CLRF   x40
02814:  MOVWF  x3F
02816:  MOVLW  06
02818:  ADDWF  x3F,W
0281A:  MOVWF  01
0281C:  MOVLW  00
0281E:  ADDWFC x40,W
02820:  MOVWF  03
02822:  MOVF   01,W
02824:  ADDLW  17
02826:  MOVWF  FE9
02828:  MOVLW  04
0282A:  ADDWFC 03,W
0282C:  MOVWF  FEA
0282E:  MOVLB  3
02830:  MOVF   x65,W
02832:  MULLW  08
02834:  MOVF   FF3,W
02836:  ADDLW  6A
02838:  MOVLB  4
0283A:  MOVWF  x41
0283C:  MOVFF  FF2,442
02840:  BCF    FF2.6
02842:  BCF    FF2.7
02844:  CLRF   FAA
02846:  MOVFF  441,FA9
0284A:  BCF    FA6.6
0284C:  BCF    FA6.7
0284E:  BSF    FA6.0
02850:  MOVF   FA8,W
02852:  BTFSC  x42.6
02854:  BSF    FF2.6
02856:  BTFSC  x42.7
02858:  BSF    FF2.7
0285A:  MOVWF  FEF
....................       CiclosPersonalizados[i].NivelDesfogue=read_eeprom(107+(i*8));  
0285C:  MOVLB  3
0285E:  MOVF   x65,W
02860:  MULLW  0A
02862:  MOVF   FF3,W
02864:  MOVLB  4
02866:  CLRF   x40
02868:  MOVWF  x3F
0286A:  MOVLW  08
0286C:  ADDWF  x3F,W
0286E:  MOVWF  01
02870:  MOVLW  00
02872:  ADDWFC x40,W
02874:  MOVWF  03
02876:  MOVF   01,W
02878:  ADDLW  17
0287A:  MOVWF  FE9
0287C:  MOVLW  04
0287E:  ADDWFC 03,W
02880:  MOVWF  FEA
02882:  MOVLB  3
02884:  MOVF   x65,W
02886:  MULLW  08
02888:  MOVF   FF3,W
0288A:  ADDLW  6B
0288C:  MOVLB  4
0288E:  MOVWF  x41
02890:  MOVFF  FF2,442
02894:  BCF    FF2.6
02896:  BCF    FF2.7
02898:  CLRF   FAA
0289A:  MOVFF  441,FA9
0289E:  BCF    FA6.6
028A0:  BCF    FA6.7
028A2:  BSF    FA6.0
028A4:  MOVF   FA8,W
028A6:  BTFSC  x42.6
028A8:  BSF    FF2.6
028AA:  BTFSC  x42.7
028AC:  BSF    FF2.7
028AE:  MOVWF  FEF
....................        
....................       if(CiclosPersonalizados[i].Temperatura>128 || CiclosPersonalizados[i].Temperatura<105) 
028B0:  MOVLB  3
028B2:  MOVF   x65,W
028B4:  MULLW  0A
028B6:  MOVF   FF3,W
028B8:  MOVLB  4
028BA:  CLRF   x40
028BC:  MOVWF  x3F
028BE:  MOVLW  17
028C0:  ADDWF  x3F,W
028C2:  MOVWF  FE9
028C4:  MOVLW  04
028C6:  ADDWFC x40,W
028C8:  MOVWF  FEA
028CA:  MOVF   FEF,W
028CC:  SUBLW  80
028CE:  BNC   28F0
028D0:  MOVLB  3
028D2:  MOVF   x65,W
028D4:  MULLW  0A
028D6:  MOVF   FF3,W
028D8:  MOVLB  4
028DA:  CLRF   x40
028DC:  MOVWF  x3F
028DE:  MOVLW  17
028E0:  ADDWF  x3F,W
028E2:  MOVWF  FE9
028E4:  MOVLW  04
028E6:  ADDWFC x40,W
028E8:  MOVWF  FEA
028EA:  MOVF   FEF,W
028EC:  SUBLW  68
028EE:  BNC   290E
....................          CiclosPersonalizados[i].Temperatura=121; 
028F0:  MOVLB  3
028F2:  MOVF   x65,W
028F4:  MULLW  0A
028F6:  MOVF   FF3,W
028F8:  MOVLB  4
028FA:  CLRF   x40
028FC:  MOVWF  x3F
028FE:  MOVLW  17
02900:  ADDWF  x3F,W
02902:  MOVWF  FE9
02904:  MOVLW  04
02906:  ADDWFC x40,W
02908:  MOVWF  FEA
0290A:  MOVLW  79
0290C:  MOVWF  FEF
....................       if(CiclosPersonalizados[i].Minutoest>59) 
0290E:  MOVLB  3
02910:  MOVF   x65,W
02912:  MULLW  0A
02914:  MOVF   FF3,W
02916:  MOVLB  4
02918:  CLRF   x40
0291A:  MOVWF  x3F
0291C:  MOVLW  09
0291E:  ADDWF  x3F,W
02920:  MOVWF  01
02922:  MOVLW  00
02924:  ADDWFC x40,W
02926:  MOVWF  03
02928:  MOVF   01,W
0292A:  ADDLW  17
0292C:  MOVWF  FE9
0292E:  MOVLW  04
02930:  ADDWFC 03,W
02932:  MOVWF  FEA
02934:  MOVF   FEF,W
02936:  SUBLW  3B
02938:  BC    2962
....................          CiclosPersonalizados[i].Minutoest=0; 
0293A:  MOVLB  3
0293C:  MOVF   x65,W
0293E:  MULLW  0A
02940:  MOVF   FF3,W
02942:  MOVLB  4
02944:  CLRF   x40
02946:  MOVWF  x3F
02948:  MOVLW  09
0294A:  ADDWF  x3F,W
0294C:  MOVWF  01
0294E:  MOVLW  00
02950:  ADDWFC x40,W
02952:  MOVWF  03
02954:  MOVF   01,W
02956:  ADDLW  17
02958:  MOVWF  FE9
0295A:  MOVLW  04
0295C:  ADDWFC 03,W
0295E:  MOVWF  FEA
02960:  CLRF   FEF
....................       if(CiclosPersonalizados[i].Segundoest>59) 
02962:  MOVLB  3
02964:  MOVF   x65,W
02966:  MULLW  0A
02968:  MOVF   FF3,W
0296A:  MOVLB  4
0296C:  CLRF   x40
0296E:  MOVWF  x3F
02970:  MOVLW  03
02972:  ADDWF  x3F,W
02974:  MOVWF  01
02976:  MOVLW  00
02978:  ADDWFC x40,W
0297A:  MOVWF  03
0297C:  MOVF   01,W
0297E:  ADDLW  17
02980:  MOVWF  FE9
02982:  MOVLW  04
02984:  ADDWFC 03,W
02986:  MOVWF  FEA
02988:  MOVF   FEF,W
0298A:  SUBLW  3B
0298C:  BC    29B6
....................          CiclosPersonalizados[i].Segundoest=0; 
0298E:  MOVLB  3
02990:  MOVF   x65,W
02992:  MULLW  0A
02994:  MOVF   FF3,W
02996:  MOVLB  4
02998:  CLRF   x40
0299A:  MOVWF  x3F
0299C:  MOVLW  03
0299E:  ADDWF  x3F,W
029A0:  MOVWF  01
029A2:  MOVLW  00
029A4:  ADDWFC x40,W
029A6:  MOVWF  03
029A8:  MOVF   01,W
029AA:  ADDLW  17
029AC:  MOVWF  FE9
029AE:  MOVLW  04
029B0:  ADDWFC 03,W
029B2:  MOVWF  FEA
029B4:  CLRF   FEF
....................       if(CiclosPersonalizados[i].Minutosec>59) 
029B6:  MOVLB  3
029B8:  MOVF   x65,W
029BA:  MULLW  0A
029BC:  MOVF   FF3,W
029BE:  MOVLB  4
029C0:  CLRF   x40
029C2:  MOVWF  x3F
029C4:  MOVLW  04
029C6:  ADDWF  x3F,W
029C8:  MOVWF  01
029CA:  MOVLW  00
029CC:  ADDWFC x40,W
029CE:  MOVWF  03
029D0:  MOVF   01,W
029D2:  ADDLW  17
029D4:  MOVWF  FE9
029D6:  MOVLW  04
029D8:  ADDWFC 03,W
029DA:  MOVWF  FEA
029DC:  MOVF   FEF,W
029DE:  SUBLW  3B
029E0:  BC    2A0A
....................          CiclosPersonalizados[i].Minutosec=0;    
029E2:  MOVLB  3
029E4:  MOVF   x65,W
029E6:  MULLW  0A
029E8:  MOVF   FF3,W
029EA:  MOVLB  4
029EC:  CLRF   x40
029EE:  MOVWF  x3F
029F0:  MOVLW  04
029F2:  ADDWF  x3F,W
029F4:  MOVWF  01
029F6:  MOVLW  00
029F8:  ADDWFC x40,W
029FA:  MOVWF  03
029FC:  MOVF   01,W
029FE:  ADDLW  17
02A00:  MOVWF  FE9
02A02:  MOVLW  04
02A04:  ADDWFC 03,W
02A06:  MOVWF  FEA
02A08:  CLRF   FEF
....................       if(CiclosPersonalizados[i].Segundoest>59) 
02A0A:  MOVLB  3
02A0C:  MOVF   x65,W
02A0E:  MULLW  0A
02A10:  MOVF   FF3,W
02A12:  MOVLB  4
02A14:  CLRF   x40
02A16:  MOVWF  x3F
02A18:  MOVLW  03
02A1A:  ADDWF  x3F,W
02A1C:  MOVWF  01
02A1E:  MOVLW  00
02A20:  ADDWFC x40,W
02A22:  MOVWF  03
02A24:  MOVF   01,W
02A26:  ADDLW  17
02A28:  MOVWF  FE9
02A2A:  MOVLW  04
02A2C:  ADDWFC 03,W
02A2E:  MOVWF  FEA
02A30:  MOVF   FEF,W
02A32:  SUBLW  3B
02A34:  BC    2A5E
....................          CiclosPersonalizados[i].Segundoest=0; 
02A36:  MOVLB  3
02A38:  MOVF   x65,W
02A3A:  MULLW  0A
02A3C:  MOVF   FF3,W
02A3E:  MOVLB  4
02A40:  CLRF   x40
02A42:  MOVWF  x3F
02A44:  MOVLW  03
02A46:  ADDWF  x3F,W
02A48:  MOVWF  01
02A4A:  MOVLW  00
02A4C:  ADDWFC x40,W
02A4E:  MOVWF  03
02A50:  MOVF   01,W
02A52:  ADDLW  17
02A54:  MOVWF  FE9
02A56:  MOVLW  04
02A58:  ADDWFC 03,W
02A5A:  MOVWF  FEA
02A5C:  CLRF   FEF
....................       if(CiclosPersonalizados[i].Segundosec>59) 
02A5E:  MOVLB  3
02A60:  MOVF   x65,W
02A62:  MULLW  0A
02A64:  MOVF   FF3,W
02A66:  MOVLB  4
02A68:  CLRF   x40
02A6A:  MOVWF  x3F
02A6C:  MOVLW  05
02A6E:  ADDWF  x3F,W
02A70:  MOVWF  01
02A72:  MOVLW  00
02A74:  ADDWFC x40,W
02A76:  MOVWF  03
02A78:  MOVF   01,W
02A7A:  ADDLW  17
02A7C:  MOVWF  FE9
02A7E:  MOVLW  04
02A80:  ADDWFC 03,W
02A82:  MOVWF  FEA
02A84:  MOVF   FEF,W
02A86:  SUBLW  3B
02A88:  BC    2AB2
....................          CiclosPersonalizados[i].Segundosec=0;       
02A8A:  MOVLB  3
02A8C:  MOVF   x65,W
02A8E:  MULLW  0A
02A90:  MOVF   FF3,W
02A92:  MOVLB  4
02A94:  CLRF   x40
02A96:  MOVWF  x3F
02A98:  MOVLW  05
02A9A:  ADDWF  x3F,W
02A9C:  MOVWF  01
02A9E:  MOVLW  00
02AA0:  ADDWFC x40,W
02AA2:  MOVWF  03
02AA4:  MOVF   01,W
02AA6:  ADDLW  17
02AA8:  MOVWF  FE9
02AAA:  MOVLW  04
02AAC:  ADDWFC 03,W
02AAE:  MOVWF  FEA
02AB0:  CLRF   FEF
....................       if(CiclosPersonalizados[i].PulsosVacio>15) 
02AB2:  MOVLB  3
02AB4:  MOVF   x65,W
02AB6:  MULLW  0A
02AB8:  MOVF   FF3,W
02ABA:  MOVLB  4
02ABC:  CLRF   x40
02ABE:  MOVWF  x3F
02AC0:  MOVLW  06
02AC2:  ADDWF  x3F,W
02AC4:  MOVWF  01
02AC6:  MOVLW  00
02AC8:  ADDWFC x40,W
02ACA:  MOVWF  03
02ACC:  MOVF   01,W
02ACE:  ADDLW  17
02AD0:  MOVWF  FE9
02AD2:  MOVLW  04
02AD4:  ADDWFC 03,W
02AD6:  MOVWF  FEA
02AD8:  MOVF   FEF,W
02ADA:  SUBLW  0F
02ADC:  BC    2B08
....................          CiclosPersonalizados[i].PulsosVacio=4; 
02ADE:  MOVLB  3
02AE0:  MOVF   x65,W
02AE2:  MULLW  0A
02AE4:  MOVF   FF3,W
02AE6:  MOVLB  4
02AE8:  CLRF   x40
02AEA:  MOVWF  x3F
02AEC:  MOVLW  06
02AEE:  ADDWF  x3F,W
02AF0:  MOVWF  01
02AF2:  MOVLW  00
02AF4:  ADDWFC x40,W
02AF6:  MOVWF  03
02AF8:  MOVF   01,W
02AFA:  ADDLW  17
02AFC:  MOVWF  FE9
02AFE:  MOVLW  04
02B00:  ADDWFC 03,W
02B02:  MOVWF  FEA
02B04:  MOVLW  04
02B06:  MOVWF  FEF
....................       if(CiclosPersonalizados[i].NivelVacio>100 || CiclosPersonalizados[i].NivelVacio<10) 
02B08:  MOVLB  3
02B0A:  MOVF   x65,W
02B0C:  MULLW  0A
02B0E:  MOVF   FF3,W
02B10:  MOVLB  4
02B12:  CLRF   x40
02B14:  MOVWF  x3F
02B16:  MOVLW  07
02B18:  ADDWF  x3F,W
02B1A:  MOVWF  01
02B1C:  MOVLW  00
02B1E:  ADDWFC x40,W
02B20:  MOVWF  03
02B22:  MOVF   01,W
02B24:  ADDLW  17
02B26:  MOVWF  FE9
02B28:  MOVLW  04
02B2A:  ADDWFC 03,W
02B2C:  MOVWF  FEA
02B2E:  MOVF   FEF,W
02B30:  SUBLW  64
02B32:  BNC   2B60
02B34:  MOVLB  3
02B36:  MOVF   x65,W
02B38:  MULLW  0A
02B3A:  MOVF   FF3,W
02B3C:  MOVLB  4
02B3E:  CLRF   x40
02B40:  MOVWF  x3F
02B42:  MOVLW  07
02B44:  ADDWF  x3F,W
02B46:  MOVWF  01
02B48:  MOVLW  00
02B4A:  ADDWFC x40,W
02B4C:  MOVWF  03
02B4E:  MOVF   01,W
02B50:  ADDLW  17
02B52:  MOVWF  FE9
02B54:  MOVLW  04
02B56:  ADDWFC 03,W
02B58:  MOVWF  FEA
02B5A:  MOVF   FEF,W
02B5C:  SUBLW  09
02B5E:  BNC   2B8A
....................          CiclosPersonalizados[i].NivelVacio=25;    
02B60:  MOVLB  3
02B62:  MOVF   x65,W
02B64:  MULLW  0A
02B66:  MOVF   FF3,W
02B68:  MOVLB  4
02B6A:  CLRF   x40
02B6C:  MOVWF  x3F
02B6E:  MOVLW  07
02B70:  ADDWF  x3F,W
02B72:  MOVWF  01
02B74:  MOVLW  00
02B76:  ADDWFC x40,W
02B78:  MOVWF  03
02B7A:  MOVF   01,W
02B7C:  ADDLW  17
02B7E:  MOVWF  FE9
02B80:  MOVLW  04
02B82:  ADDWFC 03,W
02B84:  MOVWF  FEA
02B86:  MOVLW  19
02B88:  MOVWF  FEF
....................       if(CiclosPersonalizados[i].NivelDesfogue>6) 
02B8A:  MOVLB  3
02B8C:  MOVF   x65,W
02B8E:  MULLW  0A
02B90:  MOVF   FF3,W
02B92:  MOVLB  4
02B94:  CLRF   x40
02B96:  MOVWF  x3F
02B98:  MOVLW  08
02B9A:  ADDWF  x3F,W
02B9C:  MOVWF  01
02B9E:  MOVLW  00
02BA0:  ADDWFC x40,W
02BA2:  MOVWF  03
02BA4:  MOVF   01,W
02BA6:  ADDLW  17
02BA8:  MOVWF  FE9
02BAA:  MOVLW  04
02BAC:  ADDWFC 03,W
02BAE:  MOVWF  FEA
02BB0:  MOVF   FEF,W
02BB2:  SUBLW  06
02BB4:  BC    2BE0
....................          CiclosPersonalizados[i].NivelDesfogue=6; 
02BB6:  MOVLB  3
02BB8:  MOVF   x65,W
02BBA:  MULLW  0A
02BBC:  MOVF   FF3,W
02BBE:  MOVLB  4
02BC0:  CLRF   x40
02BC2:  MOVWF  x3F
02BC4:  MOVLW  08
02BC6:  ADDWF  x3F,W
02BC8:  MOVWF  01
02BCA:  MOVLW  00
02BCC:  ADDWFC x40,W
02BCE:  MOVWF  03
02BD0:  MOVF   01,W
02BD2:  ADDLW  17
02BD4:  MOVWF  FE9
02BD6:  MOVLW  04
02BD8:  ADDWFC 03,W
02BDA:  MOVWF  FEA
02BDC:  MOVLW  06
02BDE:  MOVWF  FEF
....................    } 
02BE0:  MOVLB  3
02BE2:  INCF   x65,F
02BE4:  BRA    2616
.................... } 
02BE6:  MOVLB  0
02BE8:  GOTO   734A (RETURN)
....................  
.................... void LimitaValores(){ 
....................    if(Testerilizacionp[0]>9 || Testerilizacionp[0]<0){ 
*
02D9A:  BTFSC  xB6.7
02D9C:  BRA    2DA4
02D9E:  MOVF   xB6,W
02DA0:  SUBLW  09
02DA2:  BNC   2DAA
02DA4:  BTFSC  xB6.7
02DA6:  BRA    2DAA
02DA8:  BRA    2DE2
....................       Testerilizacionp[0]=0; 
02DAA:  CLRF   xB6
....................       write_eeprom(0,0); 
02DAC:  CLRF   FAA
02DAE:  CLRF   FA9
02DB0:  CLRF   FA8
02DB2:  BCF    FA6.6
02DB4:  BCF    FA6.7
02DB6:  BSF    FA6.2
02DB8:  MOVF   FF2,W
02DBA:  MOVWF  00
02DBC:  BCF    FF2.6
02DBE:  BCF    FF2.7
02DC0:  MOVLB  F
02DC2:  MOVLW  55
02DC4:  MOVWF  FA7
02DC6:  MOVLW  AA
02DC8:  MOVWF  FA7
02DCA:  BSF    FA6.1
02DCC:  BTFSC  FA6.1
02DCE:  BRA    2DCC
02DD0:  BCF    FA6.2
02DD2:  MOVF   00,W
02DD4:  IORWF  FF2,F
....................       delay_ms(10); 
02DD6:  MOVLW  0A
02DD8:  MOVLB  4
02DDA:  MOVWF  x54
02DDC:  MOVLB  0
02DDE:  CALL   19B0
....................    } 
....................    if(Testerilizacionp[1]>9 || Testerilizacionp[1]<0){ 
02DE2:  BTFSC  xB7.7
02DE4:  BRA    2DEC
02DE6:  MOVF   xB7,W
02DE8:  SUBLW  09
02DEA:  BNC   2DF2
02DEC:  BTFSC  xB7.7
02DEE:  BRA    2DF2
02DF0:  BRA    2E2C
....................       Testerilizacionp[1]=0; 
02DF2:  CLRF   xB7
....................       write_eeprom(1,0); 
02DF4:  CLRF   FAA
02DF6:  MOVLW  01
02DF8:  MOVWF  FA9
02DFA:  CLRF   FA8
02DFC:  BCF    FA6.6
02DFE:  BCF    FA6.7
02E00:  BSF    FA6.2
02E02:  MOVF   FF2,W
02E04:  MOVWF  00
02E06:  BCF    FF2.6
02E08:  BCF    FF2.7
02E0A:  MOVLB  F
02E0C:  MOVLW  55
02E0E:  MOVWF  FA7
02E10:  MOVLW  AA
02E12:  MOVWF  FA7
02E14:  BSF    FA6.1
02E16:  BTFSC  FA6.1
02E18:  BRA    2E16
02E1A:  BCF    FA6.2
02E1C:  MOVF   00,W
02E1E:  IORWF  FF2,F
....................       delay_ms(10); 
02E20:  MOVLW  0A
02E22:  MOVLB  4
02E24:  MOVWF  x54
02E26:  MOVLB  0
02E28:  CALL   19B0
....................    } 
....................    if(Testerilizacionp[2]>9 || Testerilizacionp[2]<0){ 
02E2C:  BTFSC  xB8.7
02E2E:  BRA    2E36
02E30:  MOVF   xB8,W
02E32:  SUBLW  09
02E34:  BNC   2E3C
02E36:  BTFSC  xB8.7
02E38:  BRA    2E3C
02E3A:  BRA    2E76
....................       Testerilizacionp[2]=0; 
02E3C:  CLRF   xB8
....................       write_eeprom(2,0); 
02E3E:  CLRF   FAA
02E40:  MOVLW  02
02E42:  MOVWF  FA9
02E44:  CLRF   FA8
02E46:  BCF    FA6.6
02E48:  BCF    FA6.7
02E4A:  BSF    FA6.2
02E4C:  MOVF   FF2,W
02E4E:  MOVWF  00
02E50:  BCF    FF2.6
02E52:  BCF    FF2.7
02E54:  MOVLB  F
02E56:  MOVLW  55
02E58:  MOVWF  FA7
02E5A:  MOVLW  AA
02E5C:  MOVWF  FA7
02E5E:  BSF    FA6.1
02E60:  BTFSC  FA6.1
02E62:  BRA    2E60
02E64:  BCF    FA6.2
02E66:  MOVF   00,W
02E68:  IORWF  FF2,F
....................       delay_ms(10); 
02E6A:  MOVLW  0A
02E6C:  MOVLB  4
02E6E:  MOVWF  x54
02E70:  MOVLB  0
02E72:  CALL   19B0
....................    } 
....................    if(Testerilizacionp[3]>9 || Testerilizacionp[3]<0){ 
02E76:  BTFSC  xB9.7
02E78:  BRA    2E80
02E7A:  MOVF   xB9,W
02E7C:  SUBLW  09
02E7E:  BNC   2E86
02E80:  BTFSC  xB9.7
02E82:  BRA    2E86
02E84:  BRA    2EC0
....................       Testerilizacionp[3]=0; 
02E86:  CLRF   xB9
....................       write_eeprom(3,0); 
02E88:  CLRF   FAA
02E8A:  MOVLW  03
02E8C:  MOVWF  FA9
02E8E:  CLRF   FA8
02E90:  BCF    FA6.6
02E92:  BCF    FA6.7
02E94:  BSF    FA6.2
02E96:  MOVF   FF2,W
02E98:  MOVWF  00
02E9A:  BCF    FF2.6
02E9C:  BCF    FF2.7
02E9E:  MOVLB  F
02EA0:  MOVLW  55
02EA2:  MOVWF  FA7
02EA4:  MOVLW  AA
02EA6:  MOVWF  FA7
02EA8:  BSF    FA6.1
02EAA:  BTFSC  FA6.1
02EAC:  BRA    2EAA
02EAE:  BCF    FA6.2
02EB0:  MOVF   00,W
02EB2:  IORWF  FF2,F
....................       delay_ms(10); 
02EB4:  MOVLW  0A
02EB6:  MOVLB  4
02EB8:  MOVWF  x54
02EBA:  MOVLB  0
02EBC:  CALL   19B0
....................    } 
....................    if(Tsecadop[0]>9 || Tsecadop[0]<0){ 
02EC0:  BTFSC  xBF.7
02EC2:  BRA    2ECA
02EC4:  MOVF   xBF,W
02EC6:  SUBLW  09
02EC8:  BNC   2ED0
02ECA:  BTFSC  xBF.7
02ECC:  BRA    2ED0
02ECE:  BRA    2F0A
....................       Tsecadop[0]=0; 
02ED0:  CLRF   xBF
....................       write_eeprom(4,0); 
02ED2:  CLRF   FAA
02ED4:  MOVLW  04
02ED6:  MOVWF  FA9
02ED8:  CLRF   FA8
02EDA:  BCF    FA6.6
02EDC:  BCF    FA6.7
02EDE:  BSF    FA6.2
02EE0:  MOVF   FF2,W
02EE2:  MOVWF  00
02EE4:  BCF    FF2.6
02EE6:  BCF    FF2.7
02EE8:  MOVLB  F
02EEA:  MOVLW  55
02EEC:  MOVWF  FA7
02EEE:  MOVLW  AA
02EF0:  MOVWF  FA7
02EF2:  BSF    FA6.1
02EF4:  BTFSC  FA6.1
02EF6:  BRA    2EF4
02EF8:  BCF    FA6.2
02EFA:  MOVF   00,W
02EFC:  IORWF  FF2,F
....................       delay_ms(10); 
02EFE:  MOVLW  0A
02F00:  MOVLB  4
02F02:  MOVWF  x54
02F04:  MOVLB  0
02F06:  CALL   19B0
....................    } 
....................    if(Tsecadop[1]>9 || Tsecadop[1]<0){ 
02F0A:  BTFSC  xC0.7
02F0C:  BRA    2F14
02F0E:  MOVF   xC0,W
02F10:  SUBLW  09
02F12:  BNC   2F1A
02F14:  BTFSC  xC0.7
02F16:  BRA    2F1A
02F18:  BRA    2F54
....................       Tsecadop[1]=0; 
02F1A:  CLRF   xC0
....................       write_eeprom(5,0); 
02F1C:  CLRF   FAA
02F1E:  MOVLW  05
02F20:  MOVWF  FA9
02F22:  CLRF   FA8
02F24:  BCF    FA6.6
02F26:  BCF    FA6.7
02F28:  BSF    FA6.2
02F2A:  MOVF   FF2,W
02F2C:  MOVWF  00
02F2E:  BCF    FF2.6
02F30:  BCF    FF2.7
02F32:  MOVLB  F
02F34:  MOVLW  55
02F36:  MOVWF  FA7
02F38:  MOVLW  AA
02F3A:  MOVWF  FA7
02F3C:  BSF    FA6.1
02F3E:  BTFSC  FA6.1
02F40:  BRA    2F3E
02F42:  BCF    FA6.2
02F44:  MOVF   00,W
02F46:  IORWF  FF2,F
....................       delay_ms(10); 
02F48:  MOVLW  0A
02F4A:  MOVLB  4
02F4C:  MOVWF  x54
02F4E:  MOVLB  0
02F50:  CALL   19B0
....................    } 
....................    if(Tsecadop[2]>9 || Tsecadop[2]<0){ 
02F54:  BTFSC  xC1.7
02F56:  BRA    2F5E
02F58:  MOVF   xC1,W
02F5A:  SUBLW  09
02F5C:  BNC   2F64
02F5E:  BTFSC  xC1.7
02F60:  BRA    2F64
02F62:  BRA    2F9E
....................       Tsecadop[2]=0; 
02F64:  CLRF   xC1
....................       write_eeprom(6,0); 
02F66:  CLRF   FAA
02F68:  MOVLW  06
02F6A:  MOVWF  FA9
02F6C:  CLRF   FA8
02F6E:  BCF    FA6.6
02F70:  BCF    FA6.7
02F72:  BSF    FA6.2
02F74:  MOVF   FF2,W
02F76:  MOVWF  00
02F78:  BCF    FF2.6
02F7A:  BCF    FF2.7
02F7C:  MOVLB  F
02F7E:  MOVLW  55
02F80:  MOVWF  FA7
02F82:  MOVLW  AA
02F84:  MOVWF  FA7
02F86:  BSF    FA6.1
02F88:  BTFSC  FA6.1
02F8A:  BRA    2F88
02F8C:  BCF    FA6.2
02F8E:  MOVF   00,W
02F90:  IORWF  FF2,F
....................       delay_ms(10); 
02F92:  MOVLW  0A
02F94:  MOVLB  4
02F96:  MOVWF  x54
02F98:  MOVLB  0
02F9A:  CALL   19B0
....................    } 
....................    if(Tsecadop[3]>9 || Tsecadop[3]<0){ 
02F9E:  BTFSC  xC2.7
02FA0:  BRA    2FA8
02FA2:  MOVF   xC2,W
02FA4:  SUBLW  09
02FA6:  BNC   2FAE
02FA8:  BTFSC  xC2.7
02FAA:  BRA    2FAE
02FAC:  BRA    2FE8
....................       Tsecadop[3]=0; 
02FAE:  CLRF   xC2
....................       write_eeprom(7,0); 
02FB0:  CLRF   FAA
02FB2:  MOVLW  07
02FB4:  MOVWF  FA9
02FB6:  CLRF   FA8
02FB8:  BCF    FA6.6
02FBA:  BCF    FA6.7
02FBC:  BSF    FA6.2
02FBE:  MOVF   FF2,W
02FC0:  MOVWF  00
02FC2:  BCF    FF2.6
02FC4:  BCF    FF2.7
02FC6:  MOVLB  F
02FC8:  MOVLW  55
02FCA:  MOVWF  FA7
02FCC:  MOVLW  AA
02FCE:  MOVWF  FA7
02FD0:  BSF    FA6.1
02FD2:  BTFSC  FA6.1
02FD4:  BRA    2FD2
02FD6:  BCF    FA6.2
02FD8:  MOVF   00,W
02FDA:  IORWF  FF2,F
....................       delay_ms(10); 
02FDC:  MOVLW  0A
02FDE:  MOVLB  4
02FE0:  MOVWF  x54
02FE2:  MOVLB  0
02FE4:  CALL   19B0
....................    } 
....................    if(Setpoint>134){ 
02FE8:  MOVLB  3
02FEA:  MOVF   x6B,W
02FEC:  SUBLW  86
02FEE:  BC    3030
....................       Setpoint=134; 
02FF0:  MOVLW  86
02FF2:  MOVWF  x6B
....................       write_eeprom(8,134); 
02FF4:  CLRF   FAA
02FF6:  MOVLW  08
02FF8:  MOVWF  FA9
02FFA:  MOVLW  86
02FFC:  MOVWF  FA8
02FFE:  BCF    FA6.6
03000:  BCF    FA6.7
03002:  BSF    FA6.2
03004:  MOVF   FF2,W
03006:  MOVWF  00
03008:  BCF    FF2.6
0300A:  BCF    FF2.7
0300C:  MOVLB  F
0300E:  MOVLW  55
03010:  MOVWF  FA7
03012:  MOVLW  AA
03014:  MOVWF  FA7
03016:  BSF    FA6.1
03018:  BTFSC  FA6.1
0301A:  BRA    3018
0301C:  BCF    FA6.2
0301E:  MOVF   00,W
03020:  IORWF  FF2,F
....................       delay_ms(10); 
03022:  MOVLW  0A
03024:  MOVLB  4
03026:  MOVWF  x54
03028:  MOVLB  0
0302A:  CALL   19B0
0302E:  MOVLB  3
....................    } 
....................    if(Nivel>6){ 
03030:  MOVF   x7A,F
03032:  BNZ   303A
03034:  MOVF   x79,W
03036:  SUBLW  06
03038:  BC    307C
....................       Nivel=3; 
0303A:  CLRF   x7A
0303C:  MOVLW  03
0303E:  MOVWF  x79
....................       write_eeprom(9,3); 
03040:  CLRF   FAA
03042:  MOVLW  09
03044:  MOVWF  FA9
03046:  MOVLW  03
03048:  MOVWF  FA8
0304A:  BCF    FA6.6
0304C:  BCF    FA6.7
0304E:  BSF    FA6.2
03050:  MOVF   FF2,W
03052:  MOVWF  00
03054:  BCF    FF2.6
03056:  BCF    FF2.7
03058:  MOVLB  F
0305A:  MOVLW  55
0305C:  MOVWF  FA7
0305E:  MOVLW  AA
03060:  MOVWF  FA7
03062:  BSF    FA6.1
03064:  BTFSC  FA6.1
03066:  BRA    3064
03068:  BCF    FA6.2
0306A:  MOVF   00,W
0306C:  IORWF  FF2,F
....................       delay_ms(10); 
0306E:  MOVLW  0A
03070:  MOVLB  4
03072:  MOVWF  x54
03074:  MOVLB  0
03076:  CALL   19B0
0307A:  MOVLB  3
....................    } 
....................    if(Password[0]>9 || Password[0]<0){ 
0307C:  BTFSC  x89.7
0307E:  BRA    3086
03080:  MOVF   x89,W
03082:  SUBLW  09
03084:  BNC   308C
03086:  BTFSC  x89.7
03088:  BRA    308C
0308A:  BRA    30C8
....................       Password[0]=0; 
0308C:  CLRF   x89
....................       write_eeprom(10,0); 
0308E:  CLRF   FAA
03090:  MOVLW  0A
03092:  MOVWF  FA9
03094:  CLRF   FA8
03096:  BCF    FA6.6
03098:  BCF    FA6.7
0309A:  BSF    FA6.2
0309C:  MOVF   FF2,W
0309E:  MOVWF  00
030A0:  BCF    FF2.6
030A2:  BCF    FF2.7
030A4:  MOVLB  F
030A6:  MOVLW  55
030A8:  MOVWF  FA7
030AA:  MOVLW  AA
030AC:  MOVWF  FA7
030AE:  BSF    FA6.1
030B0:  BTFSC  FA6.1
030B2:  BRA    30B0
030B4:  BCF    FA6.2
030B6:  MOVF   00,W
030B8:  IORWF  FF2,F
....................       delay_ms(10); 
030BA:  MOVLW  0A
030BC:  MOVLB  4
030BE:  MOVWF  x54
030C0:  MOVLB  0
030C2:  CALL   19B0
030C6:  MOVLB  3
....................    } 
....................    if(Password[1]>9 || Password[1]<0){ 
030C8:  BTFSC  x8A.7
030CA:  BRA    30D2
030CC:  MOVF   x8A,W
030CE:  SUBLW  09
030D0:  BNC   30D8
030D2:  BTFSC  x8A.7
030D4:  BRA    30D8
030D6:  BRA    3114
....................       Password[1]=0; 
030D8:  CLRF   x8A
....................       write_eeprom(11,0); 
030DA:  CLRF   FAA
030DC:  MOVLW  0B
030DE:  MOVWF  FA9
030E0:  CLRF   FA8
030E2:  BCF    FA6.6
030E4:  BCF    FA6.7
030E6:  BSF    FA6.2
030E8:  MOVF   FF2,W
030EA:  MOVWF  00
030EC:  BCF    FF2.6
030EE:  BCF    FF2.7
030F0:  MOVLB  F
030F2:  MOVLW  55
030F4:  MOVWF  FA7
030F6:  MOVLW  AA
030F8:  MOVWF  FA7
030FA:  BSF    FA6.1
030FC:  BTFSC  FA6.1
030FE:  BRA    30FC
03100:  BCF    FA6.2
03102:  MOVF   00,W
03104:  IORWF  FF2,F
....................       delay_ms(10); 
03106:  MOVLW  0A
03108:  MOVLB  4
0310A:  MOVWF  x54
0310C:  MOVLB  0
0310E:  CALL   19B0
03112:  MOVLB  3
....................    } 
....................    if(Password[2]>9 || Password[2]<0){ 
03114:  BTFSC  x8B.7
03116:  BRA    311E
03118:  MOVF   x8B,W
0311A:  SUBLW  09
0311C:  BNC   3124
0311E:  BTFSC  x8B.7
03120:  BRA    3124
03122:  BRA    3160
....................       Password[2]=0; 
03124:  CLRF   x8B
....................       write_eeprom(12,0); 
03126:  CLRF   FAA
03128:  MOVLW  0C
0312A:  MOVWF  FA9
0312C:  CLRF   FA8
0312E:  BCF    FA6.6
03130:  BCF    FA6.7
03132:  BSF    FA6.2
03134:  MOVF   FF2,W
03136:  MOVWF  00
03138:  BCF    FF2.6
0313A:  BCF    FF2.7
0313C:  MOVLB  F
0313E:  MOVLW  55
03140:  MOVWF  FA7
03142:  MOVLW  AA
03144:  MOVWF  FA7
03146:  BSF    FA6.1
03148:  BTFSC  FA6.1
0314A:  BRA    3148
0314C:  BCF    FA6.2
0314E:  MOVF   00,W
03150:  IORWF  FF2,F
....................       delay_ms(10); 
03152:  MOVLW  0A
03154:  MOVLB  4
03156:  MOVWF  x54
03158:  MOVLB  0
0315A:  CALL   19B0
0315E:  MOVLB  3
....................    } 
....................    if(Password[3]>9 || Password[3]<0){ 
03160:  BTFSC  x8C.7
03162:  BRA    316A
03164:  MOVF   x8C,W
03166:  SUBLW  09
03168:  BNC   3170
0316A:  BTFSC  x8C.7
0316C:  BRA    3170
0316E:  BRA    31AA
....................       Password[3]=0; 
03170:  CLRF   x8C
....................       write_eeprom(13,0); 
03172:  CLRF   FAA
03174:  MOVLW  0D
03176:  MOVWF  FA9
03178:  CLRF   FA8
0317A:  BCF    FA6.6
0317C:  BCF    FA6.7
0317E:  BSF    FA6.2
03180:  MOVF   FF2,W
03182:  MOVWF  00
03184:  BCF    FF2.6
03186:  BCF    FF2.7
03188:  MOVLB  F
0318A:  MOVLW  55
0318C:  MOVWF  FA7
0318E:  MOVLW  AA
03190:  MOVWF  FA7
03192:  BSF    FA6.1
03194:  BTFSC  FA6.1
03196:  BRA    3194
03198:  BCF    FA6.2
0319A:  MOVF   00,W
0319C:  IORWF  FF2,F
....................       delay_ms(10); 
0319E:  MOVLW  0A
031A0:  MOVLB  4
031A2:  MOVWF  x54
031A4:  MOVLB  0
031A6:  CALL   19B0
....................    } 
....................    if(Ganancia>12.0){ 
031AA:  MOVLB  4
031AC:  CLRF   x46
031AE:  CLRF   x45
031B0:  MOVLW  40
031B2:  MOVWF  x44
031B4:  MOVLW  82
031B6:  MOVWF  x43
031B8:  MOVFF  30B,44A
031BC:  MOVFF  30A,449
031C0:  MOVFF  309,448
031C4:  MOVFF  308,447
031C8:  MOVLB  0
031CA:  RCALL  2CD2
031CC:  BNC   3216
....................       Ganancia=12.0; 
031CE:  MOVLB  3
031D0:  CLRF   x0B
031D2:  CLRF   x0A
031D4:  MOVLW  40
031D6:  MOVWF  x09
031D8:  MOVLW  82
031DA:  MOVWF  x08
....................       write_eeprom(20,12); 
031DC:  CLRF   FAA
031DE:  MOVLW  14
031E0:  MOVWF  FA9
031E2:  MOVLW  0C
031E4:  MOVWF  FA8
031E6:  BCF    FA6.6
031E8:  BCF    FA6.7
031EA:  BSF    FA6.2
031EC:  MOVF   FF2,W
031EE:  MOVWF  00
031F0:  BCF    FF2.6
031F2:  BCF    FF2.7
031F4:  MOVLB  F
031F6:  MOVLW  55
031F8:  MOVWF  FA7
031FA:  MOVLW  AA
031FC:  MOVWF  FA7
031FE:  BSF    FA6.1
03200:  BTFSC  FA6.1
03202:  BRA    3200
03204:  BCF    FA6.2
03206:  MOVF   00,W
03208:  IORWF  FF2,F
....................       delay_ms(10); 
0320A:  MOVLW  0A
0320C:  MOVLB  4
0320E:  MOVWF  x54
03210:  MOVLB  0
03212:  CALL   19B0
....................    } 
....................    if(Ajuste>100){ 
03216:  MOVLB  2
03218:  MOVF   xD9,W
0321A:  SUBLW  64
0321C:  BC    325A
....................       Ajuste=0; 
0321E:  CLRF   xD9
....................       write_eeprom(21,0); 
03220:  CLRF   FAA
03222:  MOVLW  15
03224:  MOVWF  FA9
03226:  CLRF   FA8
03228:  BCF    FA6.6
0322A:  BCF    FA6.7
0322C:  BSF    FA6.2
0322E:  MOVF   FF2,W
03230:  MOVWF  00
03232:  BCF    FF2.6
03234:  BCF    FF2.7
03236:  MOVLB  F
03238:  MOVLW  55
0323A:  MOVWF  FA7
0323C:  MOVLW  AA
0323E:  MOVWF  FA7
03240:  BSF    FA6.1
03242:  BTFSC  FA6.1
03244:  BRA    3242
03246:  BCF    FA6.2
03248:  MOVF   00,W
0324A:  IORWF  FF2,F
....................       delay_ms(10); 
0324C:  MOVLW  0A
0324E:  MOVLB  4
03250:  MOVWF  x54
03252:  MOVLB  0
03254:  CALL   19B0
03258:  MOVLB  2
....................    } 
....................    if(Ajusten>100){ 
0325A:  MOVF   xDA,W
0325C:  SUBLW  64
0325E:  BC    329C
....................       Ajusten=0; 
03260:  CLRF   xDA
....................       write_eeprom(22,0); 
03262:  CLRF   FAA
03264:  MOVLW  16
03266:  MOVWF  FA9
03268:  CLRF   FA8
0326A:  BCF    FA6.6
0326C:  BCF    FA6.7
0326E:  BSF    FA6.2
03270:  MOVF   FF2,W
03272:  MOVWF  00
03274:  BCF    FF2.6
03276:  BCF    FF2.7
03278:  MOVLB  F
0327A:  MOVLW  55
0327C:  MOVWF  FA7
0327E:  MOVLW  AA
03280:  MOVWF  FA7
03282:  BSF    FA6.1
03284:  BTFSC  FA6.1
03286:  BRA    3284
03288:  BCF    FA6.2
0328A:  MOVF   00,W
0328C:  IORWF  FF2,F
....................       delay_ms(10); 
0328E:  MOVLW  0A
03290:  MOVLB  4
03292:  MOVWF  x54
03294:  MOVLB  0
03296:  CALL   19B0
0329A:  MOVLB  2
....................    } 
....................    if(MediaMovil>80){ 
0329C:  MOVF   xDB,W
0329E:  SUBLW  50
032A0:  BC    32E0
....................       MediaMovil=80; 
032A2:  MOVLW  50
032A4:  MOVWF  xDB
....................       write_eeprom(24,80); 
032A6:  CLRF   FAA
032A8:  MOVLW  18
032AA:  MOVWF  FA9
032AC:  MOVLW  50
032AE:  MOVWF  FA8
032B0:  BCF    FA6.6
032B2:  BCF    FA6.7
032B4:  BSF    FA6.2
032B6:  MOVF   FF2,W
032B8:  MOVWF  00
032BA:  BCF    FF2.6
032BC:  BCF    FF2.7
032BE:  MOVLB  F
032C0:  MOVLW  55
032C2:  MOVWF  FA7
032C4:  MOVLW  AA
032C6:  MOVWF  FA7
032C8:  BSF    FA6.1
032CA:  BTFSC  FA6.1
032CC:  BRA    32CA
032CE:  BCF    FA6.2
032D0:  MOVF   00,W
032D2:  IORWF  FF2,F
....................       delay_ms(10); 
032D4:  MOVLW  0A
032D6:  MOVLB  4
032D8:  MOVWF  x54
032DA:  MOVLB  0
032DC:  CALL   19B0
....................    } 
....................    if(Tciclo>10){ 
032E0:  MOVLB  4
032E2:  CLRF   x46
032E4:  CLRF   x45
032E6:  MOVLW  20
032E8:  MOVWF  x44
032EA:  MOVLW  82
032EC:  MOVWF  x43
032EE:  MOVFF  2F3,44A
032F2:  MOVFF  2F2,449
032F6:  MOVFF  2F1,448
032FA:  MOVFF  2F0,447
032FE:  MOVLB  0
03300:  RCALL  2CD2
03302:  BNC   334C
....................       Tciclo=10; 
03304:  MOVLB  2
03306:  CLRF   xF3
03308:  CLRF   xF2
0330A:  MOVLW  20
0330C:  MOVWF  xF1
0330E:  MOVLW  82
03310:  MOVWF  xF0
....................       write_eeprom(25,10); 
03312:  CLRF   FAA
03314:  MOVLW  19
03316:  MOVWF  FA9
03318:  MOVLW  0A
0331A:  MOVWF  FA8
0331C:  BCF    FA6.6
0331E:  BCF    FA6.7
03320:  BSF    FA6.2
03322:  MOVF   FF2,W
03324:  MOVWF  00
03326:  BCF    FF2.6
03328:  BCF    FF2.7
0332A:  MOVLB  F
0332C:  MOVLW  55
0332E:  MOVWF  FA7
03330:  MOVLW  AA
03332:  MOVWF  FA7
03334:  BSF    FA6.1
03336:  BTFSC  FA6.1
03338:  BRA    3336
0333A:  BCF    FA6.2
0333C:  MOVF   00,W
0333E:  IORWF  FF2,F
....................       delay_ms(10); 
03340:  MOVLW  0A
03342:  MOVLB  4
03344:  MOVWF  x54
03346:  MOVLB  0
03348:  CALL   19B0
....................    } 
....................    if(Integral>2.0){ 
0334C:  MOVLB  4
0334E:  CLRF   x55
03350:  MOVFF  340,454
03354:  MOVLB  0
03356:  CALL   19D8
0335A:  MOVLB  4
0335C:  CLRF   x46
0335E:  CLRF   x45
03360:  CLRF   x44
03362:  MOVLW  80
03364:  MOVWF  x43
03366:  MOVFF  03,44A
0336A:  MOVFF  02,449
0336E:  MOVFF  01,448
03372:  MOVFF  00,447
03376:  MOVLB  0
03378:  RCALL  2CD2
0337A:  BNC   33BC
....................       Integral=1.0; 
0337C:  MOVLW  01
0337E:  MOVLB  3
03380:  MOVWF  x40
....................       write_eeprom(26,1); 
03382:  CLRF   FAA
03384:  MOVLW  1A
03386:  MOVWF  FA9
03388:  MOVLW  01
0338A:  MOVWF  FA8
0338C:  BCF    FA6.6
0338E:  BCF    FA6.7
03390:  BSF    FA6.2
03392:  MOVF   FF2,W
03394:  MOVWF  00
03396:  BCF    FF2.6
03398:  BCF    FF2.7
0339A:  MOVLB  F
0339C:  MOVLW  55
0339E:  MOVWF  FA7
033A0:  MOVLW  AA
033A2:  MOVWF  FA7
033A4:  BSF    FA6.1
033A6:  BTFSC  FA6.1
033A8:  BRA    33A6
033AA:  BCF    FA6.2
033AC:  MOVF   00,W
033AE:  IORWF  FF2,F
....................       delay_ms(10); 
033B0:  MOVLW  0A
033B2:  MOVLB  4
033B4:  MOVWF  x54
033B6:  MOVLB  0
033B8:  CALL   19B0
....................    } 
....................    if(Derivativo>20.0){ 
033BC:  MOVLB  4
033BE:  CLRF   x55
033C0:  MOVFF  341,454
033C4:  MOVLB  0
033C6:  CALL   19D8
033CA:  MOVLB  4
033CC:  CLRF   x46
033CE:  CLRF   x45
033D0:  MOVLW  20
033D2:  MOVWF  x44
033D4:  MOVLW  83
033D6:  MOVWF  x43
033D8:  MOVFF  03,44A
033DC:  MOVFF  02,449
033E0:  MOVFF  01,448
033E4:  MOVFF  00,447
033E8:  MOVLB  0
033EA:  RCALL  2CD2
033EC:  BNC   342E
....................       Derivativo=15.0; 
033EE:  MOVLW  0F
033F0:  MOVLB  3
033F2:  MOVWF  x41
....................       write_eeprom(27,15); 
033F4:  CLRF   FAA
033F6:  MOVLW  1B
033F8:  MOVWF  FA9
033FA:  MOVLW  0F
033FC:  MOVWF  FA8
033FE:  BCF    FA6.6
03400:  BCF    FA6.7
03402:  BSF    FA6.2
03404:  MOVF   FF2,W
03406:  MOVWF  00
03408:  BCF    FF2.6
0340A:  BCF    FF2.7
0340C:  MOVLB  F
0340E:  MOVLW  55
03410:  MOVWF  FA7
03412:  MOVLW  AA
03414:  MOVWF  FA7
03416:  BSF    FA6.1
03418:  BTFSC  FA6.1
0341A:  BRA    3418
0341C:  BCF    FA6.2
0341E:  MOVF   00,W
03420:  IORWF  FF2,F
....................       delay_ms(10); 
03422:  MOVLW  0A
03424:  MOVLB  4
03426:  MOVWF  x54
03428:  MOVLB  0
0342A:  CALL   19B0
....................    } 
....................    if(Gain>50){ 
0342E:  MOVLB  4
03430:  CLRF   x46
03432:  CLRF   x45
03434:  MOVLW  48
03436:  MOVWF  x44
03438:  MOVLW  84
0343A:  MOVWF  x43
0343C:  MOVFF  2A6,44A
03440:  MOVFF  2A5,449
03444:  MOVFF  2A4,448
03448:  MOVFF  2A3,447
0344C:  MOVLB  0
0344E:  RCALL  2CD2
03450:  BNC   34D8
....................       Gain=40.2; 
03452:  MOVLW  CD
03454:  MOVLB  2
03456:  MOVWF  xA6
03458:  MOVLW  CC
0345A:  MOVWF  xA5
0345C:  MOVLW  20
0345E:  MOVWF  xA4
03460:  MOVLW  84
03462:  MOVWF  xA3
....................       write_eeprom(28,40); 
03464:  CLRF   FAA
03466:  MOVLW  1C
03468:  MOVWF  FA9
0346A:  MOVLW  28
0346C:  MOVWF  FA8
0346E:  BCF    FA6.6
03470:  BCF    FA6.7
03472:  BSF    FA6.2
03474:  MOVF   FF2,W
03476:  MOVWF  00
03478:  BCF    FF2.6
0347A:  BCF    FF2.7
0347C:  MOVLB  F
0347E:  MOVLW  55
03480:  MOVWF  FA7
03482:  MOVLW  AA
03484:  MOVWF  FA7
03486:  BSF    FA6.1
03488:  BTFSC  FA6.1
0348A:  BRA    3488
0348C:  BCF    FA6.2
0348E:  MOVF   00,W
03490:  IORWF  FF2,F
....................       delay_ms(10); 
03492:  MOVLW  0A
03494:  MOVLB  4
03496:  MOVWF  x54
03498:  MOVLB  0
0349A:  CALL   19B0
....................       write_eeprom(29,2); 
0349E:  CLRF   FAA
034A0:  MOVLW  1D
034A2:  MOVWF  FA9
034A4:  MOVLW  02
034A6:  MOVWF  FA8
034A8:  BCF    FA6.6
034AA:  BCF    FA6.7
034AC:  BSF    FA6.2
034AE:  MOVF   FF2,W
034B0:  MOVWF  00
034B2:  BCF    FF2.6
034B4:  BCF    FF2.7
034B6:  MOVLB  F
034B8:  MOVLW  55
034BA:  MOVWF  FA7
034BC:  MOVLW  AA
034BE:  MOVWF  FA7
034C0:  BSF    FA6.1
034C2:  BTFSC  FA6.1
034C4:  BRA    34C2
034C6:  BCF    FA6.2
034C8:  MOVF   00,W
034CA:  IORWF  FF2,F
....................       delay_ms(10); 
034CC:  MOVLW  0A
034CE:  MOVLB  4
034D0:  MOVWF  x54
034D2:  MOVLB  0
034D4:  CALL   19B0
....................    } 
....................    if(R1>6400){ 
034D8:  MOVLB  4
034DA:  CLRF   x46
034DC:  CLRF   x45
034DE:  MOVLW  48
034E0:  MOVWF  x44
034E2:  MOVLW  8B
034E4:  MOVWF  x43
034E6:  MOVFF  2B2,44A
034EA:  MOVFF  2B1,449
034EE:  MOVFF  2B0,448
034F2:  MOVFF  2AF,447
034F6:  MOVLB  0
034F8:  CALL   2CD2
034FC:  BNC   3582
....................       R1=6200; 
034FE:  MOVLB  2
03500:  CLRF   xB2
03502:  MOVLW  C0
03504:  MOVWF  xB1
03506:  MOVLW  41
03508:  MOVWF  xB0
0350A:  MOVLW  8B
0350C:  MOVWF  xAF
....................       write_eeprom(30,0x38); 
0350E:  CLRF   FAA
03510:  MOVLW  1E
03512:  MOVWF  FA9
03514:  MOVLW  38
03516:  MOVWF  FA8
03518:  BCF    FA6.6
0351A:  BCF    FA6.7
0351C:  BSF    FA6.2
0351E:  MOVF   FF2,W
03520:  MOVWF  00
03522:  BCF    FF2.6
03524:  BCF    FF2.7
03526:  MOVLB  F
03528:  MOVLW  55
0352A:  MOVWF  FA7
0352C:  MOVLW  AA
0352E:  MOVWF  FA7
03530:  BSF    FA6.1
03532:  BTFSC  FA6.1
03534:  BRA    3532
03536:  BCF    FA6.2
03538:  MOVF   00,W
0353A:  IORWF  FF2,F
....................       delay_ms(10); 
0353C:  MOVLW  0A
0353E:  MOVLB  4
03540:  MOVWF  x54
03542:  MOVLB  0
03544:  CALL   19B0
....................       write_eeprom(31,0x18); 
03548:  CLRF   FAA
0354A:  MOVLW  1F
0354C:  MOVWF  FA9
0354E:  MOVLW  18
03550:  MOVWF  FA8
03552:  BCF    FA6.6
03554:  BCF    FA6.7
03556:  BSF    FA6.2
03558:  MOVF   FF2,W
0355A:  MOVWF  00
0355C:  BCF    FF2.6
0355E:  BCF    FF2.7
03560:  MOVLB  F
03562:  MOVLW  55
03564:  MOVWF  FA7
03566:  MOVLW  AA
03568:  MOVWF  FA7
0356A:  BSF    FA6.1
0356C:  BTFSC  FA6.1
0356E:  BRA    356C
03570:  BCF    FA6.2
03572:  MOVF   00,W
03574:  IORWF  FF2,F
....................       delay_ms(10); 
03576:  MOVLW  0A
03578:  MOVLB  4
0357A:  MOVWF  x54
0357C:  MOVLB  0
0357E:  CALL   19B0
....................    } 
....................    if(desvio>2.0){ 
03582:  MOVLB  4
03584:  CLRF   x46
03586:  CLRF   x45
03588:  CLRF   x44
0358A:  MOVLW  80
0358C:  MOVWF  x43
0358E:  MOVFF  313,44A
03592:  MOVFF  312,449
03596:  MOVFF  311,448
0359A:  MOVFF  310,447
0359E:  MOVLB  0
035A0:  CALL   2CD2
035A4:  BNC   35EC
....................       desvio=0.5;write_eeprom(32,5);delay_ms(10); 
035A6:  MOVLB  3
035A8:  CLRF   x13
035AA:  CLRF   x12
035AC:  CLRF   x11
035AE:  MOVLW  7E
035B0:  MOVWF  x10
035B2:  CLRF   FAA
035B4:  MOVLW  20
035B6:  MOVWF  FA9
035B8:  MOVLW  05
035BA:  MOVWF  FA8
035BC:  BCF    FA6.6
035BE:  BCF    FA6.7
035C0:  BSF    FA6.2
035C2:  MOVF   FF2,W
035C4:  MOVWF  00
035C6:  BCF    FF2.6
035C8:  BCF    FF2.7
035CA:  MOVLB  F
035CC:  MOVLW  55
035CE:  MOVWF  FA7
035D0:  MOVLW  AA
035D2:  MOVWF  FA7
035D4:  BSF    FA6.1
035D6:  BTFSC  FA6.1
035D8:  BRA    35D6
035DA:  BCF    FA6.2
035DC:  MOVF   00,W
035DE:  IORWF  FF2,F
035E0:  MOVLW  0A
035E2:  MOVLB  4
035E4:  MOVWF  x54
035E6:  MOVLB  0
035E8:  CALL   19B0
....................    } 
....................    if(Histeresis>3.0){ 
035EC:  MOVLB  4
035EE:  CLRF   x46
035F0:  CLRF   x45
035F2:  MOVLW  40
035F4:  MOVWF  x44
035F6:  MOVLW  80
035F8:  MOVWF  x43
035FA:  MOVFF  333,44A
035FE:  MOVFF  332,449
03602:  MOVFF  331,448
03606:  MOVFF  330,447
0360A:  MOVLB  0
0360C:  CALL   2CD2
03610:  BNC   365E
....................       Histeresis=0.1;write_eeprom(33,1);delay_ms(10); 
03612:  MOVLW  CD
03614:  MOVLB  3
03616:  MOVWF  x33
03618:  MOVLW  CC
0361A:  MOVWF  x32
0361C:  MOVLW  4C
0361E:  MOVWF  x31
03620:  MOVLW  7B
03622:  MOVWF  x30
03624:  CLRF   FAA
03626:  MOVLW  21
03628:  MOVWF  FA9
0362A:  MOVLW  01
0362C:  MOVWF  FA8
0362E:  BCF    FA6.6
03630:  BCF    FA6.7
03632:  BSF    FA6.2
03634:  MOVF   FF2,W
03636:  MOVWF  00
03638:  BCF    FF2.6
0363A:  BCF    FF2.7
0363C:  MOVLB  F
0363E:  MOVLW  55
03640:  MOVWF  FA7
03642:  MOVLW  AA
03644:  MOVWF  FA7
03646:  BSF    FA6.1
03648:  BTFSC  FA6.1
0364A:  BRA    3648
0364C:  BCF    FA6.2
0364E:  MOVF   00,W
03650:  IORWF  FF2,F
03652:  MOVLW  0A
03654:  MOVLB  4
03656:  MOVWF  x54
03658:  MOVLB  0
0365A:  CALL   19B0
....................    } 
....................    if(Ciclos>60000){ 
0365E:  MOVLB  3
03660:  MOVF   x82,W
03662:  SUBLW  E9
03664:  BC    36E4
03666:  XORLW  FF
03668:  BNZ   3670
0366A:  MOVF   x81,W
0366C:  SUBLW  60
0366E:  BC    36E4
....................       Ciclos=0; 
03670:  CLRF   x82
03672:  CLRF   x81
....................       write_eeprom(37,0); 
03674:  CLRF   FAA
03676:  MOVLW  25
03678:  MOVWF  FA9
0367A:  CLRF   FA8
0367C:  BCF    FA6.6
0367E:  BCF    FA6.7
03680:  BSF    FA6.2
03682:  MOVF   FF2,W
03684:  MOVWF  00
03686:  BCF    FF2.6
03688:  BCF    FF2.7
0368A:  MOVLB  F
0368C:  MOVLW  55
0368E:  MOVWF  FA7
03690:  MOVLW  AA
03692:  MOVWF  FA7
03694:  BSF    FA6.1
03696:  BTFSC  FA6.1
03698:  BRA    3696
0369A:  BCF    FA6.2
0369C:  MOVF   00,W
0369E:  IORWF  FF2,F
....................       delay_ms(10); 
036A0:  MOVLW  0A
036A2:  MOVLB  4
036A4:  MOVWF  x54
036A6:  MOVLB  0
036A8:  CALL   19B0
....................       write_eeprom(38,0); 
036AC:  CLRF   FAA
036AE:  MOVLW  26
036B0:  MOVWF  FA9
036B2:  CLRF   FA8
036B4:  BCF    FA6.6
036B6:  BCF    FA6.7
036B8:  BSF    FA6.2
036BA:  MOVF   FF2,W
036BC:  MOVWF  00
036BE:  BCF    FF2.6
036C0:  BCF    FF2.7
036C2:  MOVLB  F
036C4:  MOVLW  55
036C6:  MOVWF  FA7
036C8:  MOVLW  AA
036CA:  MOVWF  FA7
036CC:  BSF    FA6.1
036CE:  BTFSC  FA6.1
036D0:  BRA    36CE
036D2:  BCF    FA6.2
036D4:  MOVF   00,W
036D6:  IORWF  FF2,F
....................       delay_ms(10); 
036D8:  MOVLW  0A
036DA:  MOVLB  4
036DC:  MOVWF  x54
036DE:  MOVLB  0
036E0:  CALL   19B0
....................    } 
....................    if(TTrampa>100){ 
036E4:  MOVLB  2
036E6:  MOVF   xDC,W
036E8:  SUBLW  64
036EA:  BC    372A
....................       TTrampa=60; 
036EC:  MOVLW  3C
036EE:  MOVWF  xDC
....................       write_eeprom(39,60); 
036F0:  CLRF   FAA
036F2:  MOVLW  27
036F4:  MOVWF  FA9
036F6:  MOVLW  3C
036F8:  MOVWF  FA8
036FA:  BCF    FA6.6
036FC:  BCF    FA6.7
036FE:  BSF    FA6.2
03700:  MOVF   FF2,W
03702:  MOVWF  00
03704:  BCF    FF2.6
03706:  BCF    FF2.7
03708:  MOVLB  F
0370A:  MOVLW  55
0370C:  MOVWF  FA7
0370E:  MOVLW  AA
03710:  MOVWF  FA7
03712:  BSF    FA6.1
03714:  BTFSC  FA6.1
03716:  BRA    3714
03718:  BCF    FA6.2
0371A:  MOVF   00,W
0371C:  IORWF  FF2,F
....................       delay_ms(10); 
0371E:  MOVLW  0A
03720:  MOVLB  4
03722:  MOVWF  x54
03724:  MOVLB  0
03726:  CALL   19B0
....................    } 
....................    if(ActivaImpresion>1){ 
0372A:  MOVLB  3
0372C:  MOVF   x5B,W
0372E:  SUBLW  01
03730:  BC    3772
....................       ActivaImpresion=1; 
03732:  MOVLW  01
03734:  MOVWF  x5B
....................       write_eeprom(40,1); 
03736:  CLRF   FAA
03738:  MOVLW  28
0373A:  MOVWF  FA9
0373C:  MOVLW  01
0373E:  MOVWF  FA8
03740:  BCF    FA6.6
03742:  BCF    FA6.7
03744:  BSF    FA6.2
03746:  MOVF   FF2,W
03748:  MOVWF  00
0374A:  BCF    FF2.6
0374C:  BCF    FF2.7
0374E:  MOVLB  F
03750:  MOVLW  55
03752:  MOVWF  FA7
03754:  MOVLW  AA
03756:  MOVWF  FA7
03758:  BSF    FA6.1
0375A:  BTFSC  FA6.1
0375C:  BRA    375A
0375E:  BCF    FA6.2
03760:  MOVF   00,W
03762:  IORWF  FF2,F
....................       delay_ms(10); 
03764:  MOVLW  0A
03766:  MOVLB  4
03768:  MOVWF  x54
0376A:  MOVLB  0
0376C:  CALL   19B0
03770:  MOVLB  3
....................    } 
....................    if(timpresion>30){ 
03772:  MOVF   x5C,W
03774:  SUBLW  1E
03776:  BC    37B8
....................       timpresion=2; 
03778:  MOVLW  02
0377A:  MOVWF  x5C
....................       write_eeprom(41,2); 
0377C:  CLRF   FAA
0377E:  MOVLW  29
03780:  MOVWF  FA9
03782:  MOVLW  02
03784:  MOVWF  FA8
03786:  BCF    FA6.6
03788:  BCF    FA6.7
0378A:  BSF    FA6.2
0378C:  MOVF   FF2,W
0378E:  MOVWF  00
03790:  BCF    FF2.6
03792:  BCF    FF2.7
03794:  MOVLB  F
03796:  MOVLW  55
03798:  MOVWF  FA7
0379A:  MOVLW  AA
0379C:  MOVWF  FA7
0379E:  BSF    FA6.1
037A0:  BTFSC  FA6.1
037A2:  BRA    37A0
037A4:  BCF    FA6.2
037A6:  MOVF   00,W
037A8:  IORWF  FF2,F
....................       delay_ms(10); 
037AA:  MOVLW  0A
037AC:  MOVLB  4
037AE:  MOVWF  x54
037B0:  MOVLB  0
037B2:  CALL   19B0
037B6:  MOVLB  3
....................    } 
....................    if(Atmosferica>100 || Atmosferica<50){ 
037B8:  MOVF   xAE,W
037BA:  SUBLW  64
037BC:  BNC   37C4
037BE:  MOVF   xAE,W
037C0:  SUBLW  31
037C2:  BNC   3804
....................       Atmosferica=72; 
037C4:  MOVLW  48
037C6:  MOVWF  xAE
....................       write_eeprom(46,72); 
037C8:  CLRF   FAA
037CA:  MOVLW  2E
037CC:  MOVWF  FA9
037CE:  MOVLW  48
037D0:  MOVWF  FA8
037D2:  BCF    FA6.6
037D4:  BCF    FA6.7
037D6:  BSF    FA6.2
037D8:  MOVF   FF2,W
037DA:  MOVWF  00
037DC:  BCF    FF2.6
037DE:  BCF    FF2.7
037E0:  MOVLB  F
037E2:  MOVLW  55
037E4:  MOVWF  FA7
037E6:  MOVLW  AA
037E8:  MOVWF  FA7
037EA:  BSF    FA6.1
037EC:  BTFSC  FA6.1
037EE:  BRA    37EC
037F0:  BCF    FA6.2
037F2:  MOVF   00,W
037F4:  IORWF  FF2,F
....................       delay_ms(10); 
037F6:  MOVLW  0A
037F8:  MOVLB  4
037FA:  MOVWF  x54
037FC:  MOVLB  0
037FE:  CALL   19B0
03802:  MOVLB  3
....................    } 
....................    if(sg1==10){ 
03804:  MOVF   xB1,W
03806:  SUBLW  0A
03808:  BNZ   3820
....................       G1=G1*(-1); 
0380A:  MOVFF  3AF,441
0380E:  MOVLW  FF
03810:  MOVLB  4
03812:  MOVWF  x42
03814:  MOVLB  0
03816:  CALL   2D4C
0381A:  MOVFF  01,3AF
0381E:  MOVLB  3
....................    } 
....................    if(sg2==10){ 
03820:  MOVF   xB2,W
03822:  SUBLW  0A
03824:  BNZ   383C
....................       G2=G2*(-1); 
03826:  MOVFF  3B0,441
0382A:  MOVLW  FF
0382C:  MOVLB  4
0382E:  MOVWF  x42
03830:  MOVLB  0
03832:  CALL   2D4C
03836:  MOVFF  01,3B0
0383A:  MOVLB  3
....................    } 
.................... } 
0383C:  MOVLB  0
0383E:  GOTO   735E (RETURN)
....................  
.................... void LeeDisplay(void){ 
....................    if(Dato_Exitoso==5){ 
*
03E7E:  MOVLB  3
03E80:  MOVF   x5F,W
03E82:  SUBLW  05
03E84:  BTFSS  FD8.2
03E86:  BRA    3FFC
....................          RX_Buffer[0]=RX_Buffer2[0]; 
03E88:  MOVFF  3B,30
....................          RX_Buffer[1]=RX_Buffer2[1]; 
03E8C:  MOVFF  3C,31
....................          RX_Buffer[2]=RX_Buffer2[2]; 
03E90:  MOVFF  3D,32
....................          RX_Buffer[3]=RX_Buffer2[3]; 
03E94:  MOVFF  3E,33
....................          RX_Buffer[4]=RX_Buffer2[4]; 
03E98:  MOVFF  3F,34
....................          RX_Buffer[5]=RX_Buffer2[5]; 
03E9C:  MOVFF  40,35
....................          RX_Buffer[6]=RX_Buffer2[6]; 
03EA0:  MOVFF  41,36
....................          RX_Buffer[7]=RX_Buffer2[7]; 
03EA4:  MOVFF  42,37
....................          RX_Buffer[8]=RX_Buffer2[8]; 
03EA8:  MOVFF  43,38
....................          RX_Buffer[9]=RX_Buffer2[9]; 
03EAC:  MOVFF  44,39
....................           
....................       if(RX_Buffer[3]==0x01){// Pregunta por la pagina en la que esta el display,01 es Contrasea de Acceso 
03EB0:  DECFSZ 33,W
03EB2:  BRA    3EC2
....................          Menu=0; 
03EB4:  CLRF   x62
....................          if(MenuAntt!=Menu) 
03EB6:  MOVF   x62,W
03EB8:  SUBWF  x64,W
03EBA:  BZ    3EC0
....................             MenuAntt=Menu; 
03EBC:  MOVFF  362,364
....................       }else if(RX_Buffer[3]==0x02){//02 es Menu Principal con PantallaPriincipal=0, y con PantallaPrincipal=1 es Ciclo Libre 
03EC0:  BRA    3FFA
03EC2:  MOVF   33,W
03EC4:  SUBLW  02
03EC6:  BNZ   3ED8
....................          Menu=1; 
03EC8:  MOVLW  01
03ECA:  MOVWF  x62
....................          if(MenuAntt!=Menu) 
03ECC:  MOVF   x62,W
03ECE:  SUBWF  x64,W
03ED0:  BZ    3ED6
....................             MenuAntt=Menu; 
03ED2:  MOVFF  362,364
....................       }else if(RX_Buffer[3]==0x03){//03 es Tiempo Esterilizacion 
03ED6:  BRA    3FFA
03ED8:  MOVF   33,W
03EDA:  SUBLW  03
03EDC:  BNZ   3EEE
....................          Menu=2; 
03EDE:  MOVLW  02
03EE0:  MOVWF  x62
....................          if(MenuAntt!=Menu) 
03EE2:  MOVF   x62,W
03EE4:  SUBWF  x64,W
03EE6:  BZ    3EEC
....................             MenuAntt=Menu; 
03EE8:  MOVFF  362,364
....................       }else if(RX_Buffer[3]==0x04){//04 es Tiempo de Secado 
03EEC:  BRA    3FFA
03EEE:  MOVF   33,W
03EF0:  SUBLW  04
03EF2:  BNZ   3F04
....................          Menu=3; 
03EF4:  MOVLW  03
03EF6:  MOVWF  x62
....................          if(MenuAntt!=Menu) 
03EF8:  MOVF   x62,W
03EFA:  SUBWF  x64,W
03EFC:  BZ    3F02
....................             MenuAntt=Menu; 
03EFE:  MOVFF  362,364
....................       }else if(RX_Buffer[3]==0x05){//05 es Temperatura 
03F02:  BRA    3FFA
03F04:  MOVF   33,W
03F06:  SUBLW  05
03F08:  BNZ   3F1A
....................          Menu=4; 
03F0A:  MOVLW  04
03F0C:  MOVWF  x62
....................          if(MenuAntt!=Menu) 
03F0E:  MOVF   x62,W
03F10:  SUBWF  x64,W
03F12:  BZ    3F18
....................             MenuAntt=Menu; 
03F14:  MOVFF  362,364
....................       }else if(RX_Buffer[3]==0x06){//06 es Nivel 
03F18:  BRA    3FFA
03F1A:  MOVF   33,W
03F1C:  SUBLW  06
03F1E:  BNZ   3F30
....................          Menu=5; 
03F20:  MOVLW  05
03F22:  MOVWF  x62
....................          if(MenuAntt!=Menu) 
03F24:  MOVF   x62,W
03F26:  SUBWF  x64,W
03F28:  BZ    3F2E
....................             MenuAntt=Menu; 
03F2A:  MOVFF  362,364
....................       }else if(RX_Buffer[3]==0x07){//07 es Test de Componentes 
03F2E:  BRA    3FFA
03F30:  MOVF   33,W
03F32:  SUBLW  07
03F34:  BNZ   3F46
....................          Menu=6; 
03F36:  MOVLW  06
03F38:  MOVWF  x62
....................          if(MenuAntt!=Menu) 
03F3A:  MOVF   x62,W
03F3C:  SUBWF  x64,W
03F3E:  BZ    3F44
....................             MenuAntt=Menu; 
03F40:  MOVFF  362,364
....................       }else if(RX_Buffer[3]==0x08){//08 es Fecha y hora 
03F44:  BRA    3FFA
03F46:  MOVF   33,W
03F48:  SUBLW  08
03F4A:  BNZ   3F5C
....................          Menu=7; 
03F4C:  MOVLW  07
03F4E:  MOVWF  x62
....................          if(MenuAntt!=Menu) 
03F50:  MOVF   x62,W
03F52:  SUBWF  x64,W
03F54:  BZ    3F5A
....................             MenuAntt=Menu; 
03F56:  MOVFF  362,364
....................       }else if(RX_Buffer[3]==0x09){//09 es Ciclos Personalizados 
03F5A:  BRA    3FFA
03F5C:  MOVF   33,W
03F5E:  SUBLW  09
03F60:  BNZ   3F72
....................          Menu=8; 
03F62:  MOVLW  08
03F64:  MOVWF  x62
....................          if(MenuAntt!=Menu) 
03F66:  MOVF   x62,W
03F68:  SUBWF  x64,W
03F6A:  BZ    3F70
....................             MenuAntt=Menu; 
03F6C:  MOVFF  362,364
....................       }else if(RX_Buffer[3]==0x0d){//0d es Ciclos 
03F70:  BRA    3FFA
03F72:  MOVF   33,W
03F74:  SUBLW  0D
03F76:  BNZ   3F88
....................          Menu=12; 
03F78:  MOVLW  0C
03F7A:  MOVWF  x62
....................          if(MenuAntt!=Menu) 
03F7C:  MOVF   x62,W
03F7E:  SUBWF  x64,W
03F80:  BZ    3F86
....................             MenuAntt=Menu; 
03F82:  MOVFF  362,364
....................       }else if(RX_Buffer[3]==0x0f){//0f es Recibe caracteres de contrasea desde display 
03F86:  BRA    3FFA
03F88:  MOVF   33,W
03F8A:  SUBLW  0F
03F8C:  BNZ   3F90
....................           
....................       }else if(RX_Buffer[3]==0x1a){//1a es Menu de Funcionamiento 
03F8E:  BRA    3FFA
03F90:  MOVF   33,W
03F92:  SUBLW  1A
03F94:  BNZ   3FA6
....................          Menu=20; 
03F96:  MOVLW  14
03F98:  MOVWF  x62
....................          if(MenuAntt!=Menu) 
03F9A:  MOVF   x62,W
03F9C:  SUBWF  x64,W
03F9E:  BZ    3FA4
....................             MenuAntt=Menu; 
03FA0:  MOVFF  362,364
....................       }else if(RX_Buffer[3]==0x1b){//1b es Menu de clave correcta 
03FA4:  BRA    3FFA
03FA6:  MOVF   33,W
03FA8:  SUBLW  1B
03FAA:  BNZ   3FBC
....................          Menu=15; 
03FAC:  MOVLW  0F
03FAE:  MOVWF  x62
....................          if(MenuAntt!=Menu) 
03FB0:  MOVF   x62,W
03FB2:  SUBWF  x64,W
03FB4:  BZ    3FBA
....................             MenuAntt=Menu; 
03FB6:  MOVFF  362,364
....................       }else if(RX_Buffer[3]==0x1c){//1c es Menu de clave incorrecta 
03FBA:  BRA    3FFA
03FBC:  MOVF   33,W
03FBE:  SUBLW  1C
03FC0:  BNZ   3FD2
....................          Menu=16; 
03FC2:  MOVLW  10
03FC4:  MOVWF  x62
....................          if(MenuAntt!=Menu) 
03FC6:  MOVF   x62,W
03FC8:  SUBWF  x64,W
03FCA:  BZ    3FD0
....................             MenuAntt=Menu; 
03FCC:  MOVFF  362,364
....................       }else if(RX_Buffer[3]==0x2c){//2c es Menu de Configuracion de Parametros 
03FD0:  BRA    3FFA
03FD2:  MOVF   33,W
03FD4:  SUBLW  2C
03FD6:  BNZ   3FE8
....................          Menu=100; 
03FD8:  MOVLW  64
03FDA:  MOVWF  x62
....................          if(MenuAntt!=Menu) 
03FDC:  MOVF   x62,W
03FDE:  SUBWF  x64,W
03FE0:  BZ    3FE6
....................             MenuAntt=Menu; 
03FE2:  MOVFF  362,364
....................       }else if(RX_Buffer[3]==0xcc){//cc es Menu de Bienvenida 
03FE6:  BRA    3FFA
03FE8:  MOVF   33,W
03FEA:  SUBLW  CC
03FEC:  BNZ   3FFA
....................          Menu=240; 
03FEE:  MOVLW  F0
03FF0:  MOVWF  x62
....................          if(MenuAntt!=240) 
03FF2:  MOVF   x64,W
03FF4:  SUBLW  F0
03FF6:  BZ    3FFA
....................             reset_cpu(); 
03FF8:  RESET
....................       } 
....................    }else{ 
03FFA:  BRA    4008
....................       for(z=0;z<RX_BUFFER_SIZE;z++){ 
03FFC:  CLRF   x61
03FFE:  MOVF   x61,W
04000:  SUBLW  09
04002:  BNC   4008
....................             //Rx_Buffer[z]=0; 
....................             //Rx_Buffer2[z]=0; 
....................          } 
04004:  INCF   x61,F
04006:  BRA    3FFE
....................    } 
.................... } 
04008:  MOVLB  0
0400A:  GOTO   7482 (RETURN)
....................  
.................... void ConfiguraCiclo(int8 este0,este1,este2,este3,secado0,secado1,secado2,secado3,liquidos,ciclo,temperatura){ 
....................    Testerilizacionp[0]=este0;Testerilizacionp[1]=este1;Testerilizacionp[2]=este2;Testerilizacionp[3]=este3; 
*
04B20:  MOVFF  449,B6
04B24:  MOVFF  44A,B7
04B28:  MOVFF  44B,B8
04B2C:  MOVFF  44C,B9
....................    Tsecadop[0]=secado0;Tsecadop[1]=secado1;Tsecadop[2]=secado2;Tsecadop[3]=secado3; 
04B30:  MOVFF  44D,BF
04B34:  MOVFF  44E,C0
04B38:  MOVFF  44F,C1
04B3C:  MOVFF  450,C2
....................    Setpoint=temperatura;                
04B40:  MOVFF  453,36B
....................    tiempo_secado=0; 
04B44:  MOVLB  3
04B46:  CLRF   x6F
....................    desfoguelento=liquidos; 
04B48:  MOVLB  0
04B4A:  BCF    xA4.3
04B4C:  MOVLB  4
04B4E:  BTFSS  x51.0
04B50:  BRA    4B58
04B52:  MOVLB  0
04B54:  BSF    xA4.3
04B56:  MOVLB  4
....................    CicloSeleccionado=ciclo; 
04B58:  MOVFF  452,368
....................    Testerilizacion[0]=Testerilizacionp[0];Testerilizacion[1]=Testerilizacionp[1];Testerilizacion[2]=Testerilizacionp[2]; 
04B5C:  MOVFF  B6,B1
04B60:  MOVFF  B7,B2
04B64:  MOVFF  B8,B3
....................    Testerilizacion[3]=Testerilizacionp[3];Testerilizacion[4]=Testerilizacionp[4]; 
04B68:  MOVFF  B9,B4
04B6C:  MOVFF  BA,B5
....................    Tsecado[0]=Tsecadop[0];Tsecado[1]=Tsecadop[1];Tsecado[2]=Tsecadop[2];Tsecado[3]=Tsecadop[3]; 
04B70:  MOVFF  BF,BB
04B74:  MOVFF  C0,BC
04B78:  MOVFF  C1,BD
04B7C:  MOVFF  C2,BE
....................    Imprime=15; 
04B80:  MOVLW  0F
04B82:  MOVLB  3
04B84:  MOVWF  xAD
....................    Envio_Esclavos(); 
04B86:  MOVLB  0
04B88:  CALL   4268
....................    delay_ms(100); 
04B8C:  MOVLW  64
04B8E:  MOVLB  4
04B90:  MOVWF  x54
04B92:  MOVLB  0
04B94:  CALL   19B0
....................    Imprime=10; 
04B98:  MOVLW  0A
04B9A:  MOVLB  3
04B9C:  MOVWF  xAD
.................... } 
04B9E:  MOVLB  0
04BA0:  RETLW  00
....................  
.................... void ActivaAlarma(int8 Tipo){ 
....................     
....................    if(tsilencio>12000){ 
*
046DA:  MOVLB  3
046DC:  MOVF   x99,W
046DE:  SUBLW  2D
046E0:  BC    46F4
046E2:  XORLW  FF
046E4:  BNZ   46EC
046E6:  MOVF   x98,W
046E8:  SUBLW  E0
046EA:  BC    46F4
....................       tsilencio=0; 
046EC:  CLRF   x99
046EE:  CLRF   x98
....................       flagSilencio=OFF; 
046F0:  MOVLB  0
046F2:  BCF    xA3.2
....................    } 
....................     
....................    if(Tipo==1){ // Alarma por Error 
046F4:  MOVLB  4
046F6:  DECFSZ x3F,W
046F8:  BRA    4750
....................    if(UP || DOWN || RIGHT || LEFT) 
046FA:  BSF    F93.0
046FC:  BTFSS  F81.0
046FE:  BRA    4712
04700:  BSF    F93.1
04702:  BTFSS  F81.1
04704:  BRA    4712
04706:  BSF    F93.2
04708:  BTFSS  F81.2
0470A:  BRA    4712
0470C:  BSF    F93.3
0470E:  BTFSC  F81.3
04710:  BRA    4716
....................       flagSilencio=ON; 
04712:  MOVLB  0
04714:  BSF    xA3.2
....................        
....................       if(!flagSilencio){ 
04716:  MOVLB  0
04718:  BTFSC  xA3.2
0471A:  BRA    4746
....................          flagAlarma=1; 
0471C:  BSF    xA2.7
....................          if(tbuzzer>200){ 
0471E:  MOVLB  3
04720:  MOVF   x97,F
04722:  BNZ   472A
04724:  MOVF   x96,W
04726:  SUBLW  C8
04728:  BC    4742
....................             tbuzzer=0; 
0472A:  CLRF   x97
0472C:  CLRF   x96
....................             flagBuzzer=!flagBuzzer; 
0472E:  MOVLB  0
04730:  BTG    xA3.1
....................             if(flagBuzzer) 
04732:  BTFSS  xA3.1
04734:  BRA    473C
....................                Buzzer_on; 
04736:  BSF    F8C.0
04738:  BCF    F95.0
....................             else 
0473A:  BRA    4740
....................                Buzzer_off; 
0473C:  BCF    F8C.0
0473E:  BCF    F95.0
04740:  MOVLB  3
....................          } 
....................       }else{ 
04742:  BRA    474C
04744:  MOVLB  0
....................          Buzzer_off; 
04746:  BCF    F8C.0
04748:  BCF    F95.0
0474A:  MOVLB  3
....................       } 
....................    }else if(Tipo==2){ 
0474C:  BRA    47AA
0474E:  MOVLB  4
04750:  MOVF   x3F,W
04752:  SUBLW  02
04754:  BNZ   47AC
....................    if(UP || DOWN || RIGHT || LEFT) 
04756:  BSF    F93.0
04758:  BTFSS  F81.0
0475A:  BRA    476E
0475C:  BSF    F93.1
0475E:  BTFSS  F81.1
04760:  BRA    476E
04762:  BSF    F93.2
04764:  BTFSS  F81.2
04766:  BRA    476E
04768:  BSF    F93.3
0476A:  BTFSC  F81.3
0476C:  BRA    4774
....................       ConteoBuzzer=21; 
0476E:  MOVLW  15
04770:  MOVLB  3
04772:  MOVWF  x93
....................        
....................       flagAlarma=1; 
04774:  MOVLB  0
04776:  BSF    xA2.7
....................       if(ConteoBuzzer<20){    
04778:  MOVLB  3
0477A:  MOVF   x93,W
0477C:  SUBLW  13
0477E:  BNC   47A6
....................          if(tbuzzer>100){ 
04780:  MOVF   x97,F
04782:  BNZ   478A
04784:  MOVF   x96,W
04786:  SUBLW  64
04788:  BC    47A4
....................             tbuzzer=0; 
0478A:  CLRF   x97
0478C:  CLRF   x96
....................             flagBuzzer=!flagBuzzer; 
0478E:  MOVLB  0
04790:  BTG    xA3.1
....................             if(flagBuzzer) 
04792:  BTFSS  xA3.1
04794:  BRA    479C
....................                Buzzer_on; 
04796:  BSF    F8C.0
04798:  BCF    F95.0
....................             else 
0479A:  BRA    47A0
....................                Buzzer_off; 
0479C:  BCF    F8C.0
0479E:  BCF    F95.0
....................                 
....................             ConteoBuzzer++;    
047A0:  MOVLB  3
047A2:  INCF   x93,F
....................          } 
....................       }else{ 
047A4:  BRA    47AA
....................          Buzzer_off; 
047A6:  BCF    F8C.0
047A8:  BCF    F95.0
047AA:  MOVLB  4
....................       } 
....................    } 
.................... } 
047AC:  MOVLB  0
047AE:  RETLW  00
....................  
.................... void ApagaSalidas(){ 
....................    Desfogue_off; 
*
038AA:  BCF    F8C.4
038AC:  BCF    F95.4
....................    Paso_off; 
038AE:  BCF    F8C.6
038B0:  BCF    F95.6
....................    Suministro_off; 
038B2:  BCF    F8C.5
038B4:  BCF    F95.5
....................    Buzzer_off; 
038B6:  BCF    F8C.0
038B8:  BCF    F95.0
....................    SSR_off; 
038BA:  BSF    F8B.2
038BC:  BCF    F94.2
....................    Aire=OFF; 
038BE:  BCF    xA4.0
....................    Controlando=0; 
038C0:  MOVLB  3
038C2:  CLRF   x5A
.................... } 
038C4:  MOVLB  0
038C6:  RETLW  00
....................  
.................... void purgaAire(){ 
....................    if(tPurgaAire<Ttrampa){ 
*
06804:  MOVLB  3
06806:  MOVF   x9D,F
06808:  BNZ   6820
0680A:  MOVLB  2
0680C:  MOVF   xDC,W
0680E:  MOVLB  3
06810:  SUBWF  x9C,W
06812:  BC    6820
....................       purga=ON; 
06814:  MOVLB  0
06816:  BSF    xA3.6
....................       Desfogue_on; 
06818:  BSF    F8C.4
0681A:  BCF    F95.4
....................    }else{ 
0681C:  BRA    6828
0681E:  MOVLB  3
....................       purga=OFF; 
06820:  MOVLB  0
06822:  BCF    xA3.6
....................       Desfogue_off; 
06824:  BCF    F8C.4
06826:  BCF    F95.4
....................    } 
.................... } 
06828:  GOTO   C280 (RETURN)
....................  
.................... int8 extraeDecima(int8 tiempo){ 
*
04E64:  MOVLB  4
04E66:  CLRF   x47
04E68:  CLRF   x48
....................    int8 tmp=0,decima=0; 
....................    tmp=tiempo/10; 
04E6A:  MOVFF  446,449
04E6E:  MOVLW  0A
04E70:  MOVWF  x4A
04E72:  MOVLB  0
04E74:  RCALL  480E
04E76:  MOVFF  01,447
....................    tmp=tmp*10; 
04E7A:  MOVLB  4
04E7C:  MOVF   x47,W
04E7E:  MULLW  0A
04E80:  MOVFF  FF3,447
....................    decima=tiempo-tmp; 
04E84:  MOVF   x47,W
04E86:  SUBWF  x46,W
04E88:  MOVWF  x48
....................    return decima; 
04E8A:  MOVFF  448,01
.................... } 
04E8E:  MOVLB  0
04E90:  RETLW  00
....................  
.................... int8 extraeDecimal(float data){ 
*
062A8:  MOVLB  4
062AA:  CLRF   x4C
062AC:  CLRF   x4B
062AE:  CLRF   x4A
062B0:  CLRF   x49
062B2:  CLRF   x50
062B4:  CLRF   x4F
062B6:  CLRF   x4E
062B8:  CLRF   x4D
....................    float entero=0; 
....................    float tmp=0.0; 
....................     
....................    entero=(int8)data; 
062BA:  MOVFF  448,457
062BE:  MOVFF  447,456
062C2:  MOVFF  446,455
062C6:  MOVFF  445,454
062CA:  MOVLB  0
062CC:  CALL   400E
062D0:  MOVLB  4
062D2:  CLRF   x55
062D4:  MOVFF  01,454
062D8:  MOVLB  0
062DA:  CALL   19D8
062DE:  MOVFF  03,44C
062E2:  MOVFF  02,44B
062E6:  MOVFF  01,44A
062EA:  MOVFF  00,449
....................    tmp=(data-entero)*10; 
062EE:  BSF    FD8.1
062F0:  MOVFF  448,457
062F4:  MOVFF  447,456
062F8:  MOVFF  446,455
062FC:  MOVFF  445,454
06300:  MOVFF  44C,45B
06304:  MOVFF  44B,45A
06308:  MOVFF  44A,459
0630C:  MOVFF  449,458
06310:  CALL   1B6C
06314:  MOVFF  00,451
06318:  MOVFF  01,452
0631C:  MOVFF  02,453
06320:  MOVFF  03,454
06324:  MOVFF  03,45B
06328:  MOVFF  02,45A
0632C:  MOVFF  01,459
06330:  MOVFF  00,458
06334:  MOVLB  4
06336:  CLRF   x5F
06338:  CLRF   x5E
0633A:  MOVLW  20
0633C:  MOVWF  x5D
0633E:  MOVLW  82
06340:  MOVWF  x5C
06342:  MOVLB  0
06344:  CALL   3942
06348:  MOVFF  03,450
0634C:  MOVFF  02,44F
06350:  MOVFF  01,44E
06354:  MOVFF  00,44D
....................    return (int8)tmp; 
06358:  MOVFF  450,457
0635C:  MOVFF  44F,456
06360:  MOVFF  44E,455
06364:  MOVFF  44D,454
06368:  CALL   400E
0636C:  MOVF   01,W
.................... } 
0636E:  GOTO   6480 (RETURN)
....................  
.................... void actualizaTabla(){ 
....................    diaCiclos=read_ext_eeprom(2+(cicloVisto*320)); 
*
04FF4:  MOVLB  4
04FF6:  CLRF   x49
04FF8:  MOVFF  2E2,448
04FFC:  MOVLW  01
04FFE:  MOVWF  x4B
05000:  MOVLW  40
05002:  MOVWF  x4A
05004:  MOVLB  0
05006:  CALL   3920
0500A:  MOVFF  02,03
0500E:  MOVF   01,W
05010:  ADDLW  02
05012:  MOVLB  4
05014:  MOVWF  x3F
05016:  MOVLW  00
05018:  ADDWFC 02,W
0501A:  MOVWF  x40
0501C:  MOVWF  x45
0501E:  MOVFF  43F,444
05022:  MOVLB  0
05024:  RCALL  4EFE
05026:  MOVFF  01,3C5
....................          if(diaCiclos>31) 
0502A:  MOVLB  3
0502C:  MOVF   xC5,W
0502E:  SUBLW  1F
05030:  BC    5036
....................             diaCiclos=1; 
05032:  MOVLW  01
05034:  MOVWF  xC5
....................          mesCiclos=read_ext_eeprom(3+(cicloVisto*320)); 
05036:  MOVLB  4
05038:  CLRF   x49
0503A:  MOVFF  2E2,448
0503E:  MOVLW  01
05040:  MOVWF  x4B
05042:  MOVLW  40
05044:  MOVWF  x4A
05046:  MOVLB  0
05048:  CALL   3920
0504C:  MOVFF  02,03
05050:  MOVF   01,W
05052:  ADDLW  03
05054:  MOVLB  4
05056:  MOVWF  x3F
05058:  MOVLW  00
0505A:  ADDWFC 02,W
0505C:  MOVWF  x40
0505E:  MOVWF  x45
05060:  MOVFF  43F,444
05064:  MOVLB  0
05066:  RCALL  4EFE
05068:  MOVFF  01,3C6
....................          if(mesCiclos>12) 
0506C:  MOVLB  3
0506E:  MOVF   xC6,W
05070:  SUBLW  0C
05072:  BC    5078
....................             mesCiclos=1; 
05074:  MOVLW  01
05076:  MOVWF  xC6
....................          yearCiclos=read_ext_eeprom(4+(cicloVisto*320)); 
05078:  MOVLB  4
0507A:  CLRF   x49
0507C:  MOVFF  2E2,448
05080:  MOVLW  01
05082:  MOVWF  x4B
05084:  MOVLW  40
05086:  MOVWF  x4A
05088:  MOVLB  0
0508A:  CALL   3920
0508E:  MOVFF  02,03
05092:  MOVF   01,W
05094:  ADDLW  04
05096:  MOVLB  4
05098:  MOVWF  x3F
0509A:  MOVLW  00
0509C:  ADDWFC 02,W
0509E:  MOVWF  x40
050A0:  MOVWF  x45
050A2:  MOVFF  43F,444
050A6:  MOVLB  0
050A8:  RCALL  4EFE
050AA:  MOVFF  01,3C7
....................          if(yearCiclos>99) 
050AE:  MOVLB  3
050B0:  MOVF   xC7,W
050B2:  SUBLW  63
050B4:  BC    50BA
....................             yearCiclos=19; 
050B6:  MOVLW  13
050B8:  MOVWF  xC7
....................          cicloCiclos=read_ext_eeprom(1+(cicloVisto*320)); 
050BA:  MOVLB  4
050BC:  CLRF   x49
050BE:  MOVFF  2E2,448
050C2:  MOVLW  01
050C4:  MOVWF  x4B
050C6:  MOVLW  40
050C8:  MOVWF  x4A
050CA:  MOVLB  0
050CC:  CALL   3920
050D0:  MOVFF  02,03
050D4:  MOVF   01,W
050D6:  ADDLW  01
050D8:  MOVLB  4
050DA:  MOVWF  x3F
050DC:  MOVLW  00
050DE:  ADDWFC 02,W
050E0:  MOVWF  x40
050E2:  MOVWF  x45
050E4:  MOVFF  43F,444
050E8:  MOVLB  0
050EA:  RCALL  4EFE
050EC:  MOVFF  01,3C9
....................          if(cicloCiclos>20) 
050F0:  MOVLB  3
050F2:  MOVF   xC9,W
050F4:  SUBLW  14
050F6:  BC    50FC
....................             cicloCiclos=1; 
050F8:  MOVLW  01
050FA:  MOVWF  xC9
....................          usuarioCiclos=read_ext_eeprom((cicloVisto*320)); 
050FC:  MOVLB  4
050FE:  CLRF   x49
05100:  MOVFF  2E2,448
05104:  MOVLW  01
05106:  MOVWF  x4B
05108:  MOVLW  40
0510A:  MOVWF  x4A
0510C:  MOVLB  0
0510E:  CALL   3920
05112:  MOVFF  02,440
05116:  MOVFF  01,43F
0511A:  MOVFF  02,445
0511E:  MOVFF  01,444
05122:  RCALL  4EFE
05124:  MOVFF  01,3C8
....................          if(usuarioCiclos>10) 
05128:  MOVLB  3
0512A:  MOVF   xC8,W
0512C:  SUBLW  0A
0512E:  BC    5134
....................             usuarioCiclos=1; 
05130:  MOVLW  01
05132:  MOVWF  xC8
....................          for(i=0;i<7;i++){//Lee Valores para completar la Tabla 
05134:  CLRF   x65
05136:  MOVF   x65,W
05138:  SUBLW  06
0513A:  BTFSS  FD8.0
0513C:  BRA    5684
....................             horaCiclos[i]=read_ext_eeprom((cicloVisto*320)+11+((cicloVisualizado+i)*9)); 
0513E:  CLRF   03
05140:  MOVF   x65,W
05142:  ADDLW  02
05144:  MOVWF  01
05146:  MOVLW  04
05148:  ADDWFC 03,F
0514A:  MOVFF  01,43F
0514E:  MOVLB  4
05150:  MOVFF  03,440
05154:  CLRF   x49
05156:  MOVFF  2E2,448
0515A:  MOVLW  01
0515C:  MOVWF  x4B
0515E:  MOVLW  40
05160:  MOVWF  x4A
05162:  MOVLB  0
05164:  CALL   3920
05168:  MOVFF  02,442
0516C:  MOVFF  01,441
05170:  MOVLW  0B
05172:  MOVLB  4
05174:  ADDWF  x41,F
05176:  MOVLW  00
05178:  ADDWFC x42,F
0517A:  MOVLB  3
0517C:  MOVF   x65,W
0517E:  MOVLB  2
05180:  ADDWF  xE3,W
05182:  MULLW  09
05184:  MOVF   FF3,W
05186:  MOVLB  4
05188:  ADDWF  x41,F
0518A:  MOVLW  00
0518C:  ADDWFC x42,F
0518E:  MOVFF  442,445
05192:  MOVFF  441,444
05196:  MOVLB  0
05198:  RCALL  4EFE
0519A:  MOVFF  440,FEA
0519E:  MOVFF  43F,FE9
051A2:  MOVFF  01,FEF
....................             if(horaCiclos[i]>24) 
051A6:  CLRF   03
051A8:  MOVLB  3
051AA:  MOVF   x65,W
051AC:  ADDLW  02
051AE:  MOVWF  FE9
051B0:  MOVLW  04
051B2:  ADDWFC 03,W
051B4:  MOVWF  FEA
051B6:  MOVF   FEF,W
051B8:  SUBLW  18
051BA:  BC    51CC
....................                horaCiclos[i]=0; 
051BC:  CLRF   03
051BE:  MOVF   x65,W
051C0:  ADDLW  02
051C2:  MOVWF  FE9
051C4:  MOVLW  04
051C6:  ADDWFC 03,W
051C8:  MOVWF  FEA
051CA:  CLRF   FEF
....................             minutoCiclos[i]=read_ext_eeprom((cicloVisto*320)+12+((cicloVisualizado+i)*9)); 
051CC:  CLRF   03
051CE:  MOVF   x65,W
051D0:  ADDLW  09
051D2:  MOVWF  01
051D4:  MOVLW  04
051D6:  ADDWFC 03,F
051D8:  MOVFF  01,43F
051DC:  MOVLB  4
051DE:  MOVFF  03,440
051E2:  CLRF   x49
051E4:  MOVFF  2E2,448
051E8:  MOVLW  01
051EA:  MOVWF  x4B
051EC:  MOVLW  40
051EE:  MOVWF  x4A
051F0:  MOVLB  0
051F2:  CALL   3920
051F6:  MOVFF  02,442
051FA:  MOVFF  01,441
051FE:  MOVLW  0C
05200:  MOVLB  4
05202:  ADDWF  x41,F
05204:  MOVLW  00
05206:  ADDWFC x42,F
05208:  MOVLB  3
0520A:  MOVF   x65,W
0520C:  MOVLB  2
0520E:  ADDWF  xE3,W
05210:  MULLW  09
05212:  MOVF   FF3,W
05214:  MOVLB  4
05216:  ADDWF  x41,F
05218:  MOVLW  00
0521A:  ADDWFC x42,F
0521C:  MOVFF  442,445
05220:  MOVFF  441,444
05224:  MOVLB  0
05226:  RCALL  4EFE
05228:  MOVFF  440,FEA
0522C:  MOVFF  43F,FE9
05230:  MOVFF  01,FEF
....................             if(minutoCiclos[i]>59) 
05234:  CLRF   03
05236:  MOVLB  3
05238:  MOVF   x65,W
0523A:  ADDLW  09
0523C:  MOVWF  FE9
0523E:  MOVLW  04
05240:  ADDWFC 03,W
05242:  MOVWF  FEA
05244:  MOVF   FEF,W
05246:  SUBLW  3B
05248:  BC    525A
....................                minutoCiclos[i]=0; 
0524A:  CLRF   03
0524C:  MOVF   x65,W
0524E:  ADDLW  09
05250:  MOVWF  FE9
05252:  MOVLW  04
05254:  ADDWFC 03,W
05256:  MOVWF  FEA
05258:  CLRF   FEF
....................             TCiclos[i]=read_ext_eeprom((cicloVisto*320)+5+((cicloVisualizado+i)*9))+inttofloat(read_ext_eeprom((cicloVisto*320)+6+((cicloVisualizado+i)*9))); 
0525A:  MOVF   x65,W
0525C:  MULLW  04
0525E:  MOVF   FF3,W
05260:  CLRF   03
05262:  ADDLW  CA
05264:  MOVWF  01
05266:  MOVLW  03
05268:  ADDWFC 03,F
0526A:  MOVFF  01,43F
0526E:  MOVLB  4
05270:  MOVFF  03,440
05274:  CLRF   x49
05276:  MOVFF  2E2,448
0527A:  MOVLW  01
0527C:  MOVWF  x4B
0527E:  MOVLW  40
05280:  MOVWF  x4A
05282:  MOVLB  0
05284:  CALL   3920
05288:  MOVFF  02,442
0528C:  MOVFF  01,441
05290:  MOVLW  05
05292:  MOVLB  4
05294:  ADDWF  x41,F
05296:  MOVLW  00
05298:  ADDWFC x42,F
0529A:  MOVLB  3
0529C:  MOVF   x65,W
0529E:  MOVLB  2
052A0:  ADDWF  xE3,W
052A2:  MULLW  09
052A4:  MOVF   FF3,W
052A6:  MOVLB  4
052A8:  ADDWF  x41,F
052AA:  MOVLW  00
052AC:  ADDWFC x42,F
052AE:  MOVFF  442,445
052B2:  MOVFF  441,444
052B6:  MOVLB  0
052B8:  RCALL  4EFE
052BA:  MOVFF  01,441
052BE:  MOVLB  4
052C0:  CLRF   x49
052C2:  MOVFF  2E2,448
052C6:  MOVLW  01
052C8:  MOVWF  x4B
052CA:  MOVLW  40
052CC:  MOVWF  x4A
052CE:  MOVLB  0
052D0:  CALL   3920
052D4:  MOVFF  02,443
052D8:  MOVFF  01,442
052DC:  MOVLW  06
052DE:  MOVLB  4
052E0:  ADDWF  x42,F
052E2:  MOVLW  00
052E4:  ADDWFC x43,F
052E6:  MOVLB  3
052E8:  MOVF   x65,W
052EA:  MOVLB  2
052EC:  ADDWF  xE3,W
052EE:  MULLW  09
052F0:  MOVF   FF3,W
052F2:  MOVLB  4
052F4:  ADDWF  x42,F
052F6:  MOVLW  00
052F8:  ADDWFC x43,F
052FA:  MOVFF  443,445
052FE:  MOVFF  442,444
05302:  MOVLB  0
05304:  RCALL  4EFE
05306:  MOVFF  01,442
0530A:  MOVFF  01,443
0530E:  BRA    4FAE
05310:  MOVFF  00,442
05314:  MOVFF  01,443
05318:  MOVFF  02,444
0531C:  MOVFF  03,445
05320:  MOVLB  4
05322:  CLRF   x55
05324:  MOVFF  441,454
05328:  MOVLB  0
0532A:  CALL   19D8
0532E:  MOVFF  FEA,447
05332:  MOVFF  FE9,446
05336:  BCF    FD8.1
05338:  MOVFF  03,457
0533C:  MOVFF  02,456
05340:  MOVFF  01,455
05344:  MOVFF  00,454
05348:  MOVFF  445,45B
0534C:  MOVFF  444,45A
05350:  MOVFF  443,459
05354:  MOVFF  442,458
05358:  CALL   1B6C
0535C:  MOVFF  447,FEA
05360:  MOVFF  446,FE9
05364:  MOVFF  440,FEA
05368:  MOVFF  43F,FE9
0536C:  MOVFF  00,FEF
05370:  MOVFF  01,FEC
05374:  MOVFF  02,FEC
05378:  MOVFF  03,FEC
....................             if(TCiclos[i]>150) 
0537C:  MOVLB  3
0537E:  MOVF   x65,W
05380:  MULLW  04
05382:  MOVF   FF3,W
05384:  CLRF   03
05386:  ADDLW  CA
05388:  MOVWF  FE9
0538A:  MOVLW  03
0538C:  ADDWFC 03,W
0538E:  MOVWF  FEA
05390:  MOVFF  FEF,43F
05394:  MOVFF  FEC,440
05398:  MOVFF  FEC,441
0539C:  MOVFF  FEC,442
053A0:  MOVLB  4
053A2:  CLRF   x46
053A4:  CLRF   x45
053A6:  MOVLW  16
053A8:  MOVWF  x44
053AA:  MOVLW  86
053AC:  MOVWF  x43
053AE:  MOVFF  442,44A
053B2:  MOVFF  441,449
053B6:  MOVFF  440,448
053BA:  MOVFF  43F,447
053BE:  MOVLB  0
053C0:  CALL   2CD2
053C4:  BNC   53E4
....................                TCiclos[i]=0; 
053C6:  MOVLB  3
053C8:  MOVF   x65,W
053CA:  MULLW  04
053CC:  MOVF   FF3,W
053CE:  CLRF   03
053D0:  ADDLW  CA
053D2:  MOVWF  FE9
053D4:  MOVLW  03
053D6:  ADDWFC 03,W
053D8:  MOVWF  FEA
053DA:  CLRF   FEF
053DC:  CLRF   FEC
053DE:  CLRF   FEC
053E0:  CLRF   FEC
053E2:  MOVLB  0
....................             PcCiclos[i]=make16(read_ext_eeprom((cicloVisto*320)+7+((cicloVisualizado+i)*9)),read_ext_eeprom((cicloVisto*320)+8+((cicloVisualizado+i)*9))); 
053E4:  BCF    FD8.0
053E6:  MOVLB  3
053E8:  RLCF   x65,W
053EA:  CLRF   03
053EC:  ADDLW  E6
053EE:  MOVWF  01
053F0:  MOVLW  03
053F2:  ADDWFC 03,F
053F4:  MOVFF  01,43F
053F8:  MOVLB  4
053FA:  MOVFF  03,440
053FE:  CLRF   x49
05400:  MOVFF  2E2,448
05404:  MOVLW  01
05406:  MOVWF  x4B
05408:  MOVLW  40
0540A:  MOVWF  x4A
0540C:  MOVLB  0
0540E:  CALL   3920
05412:  MOVFF  02,442
05416:  MOVFF  01,441
0541A:  MOVLW  07
0541C:  MOVLB  4
0541E:  ADDWF  x41,F
05420:  MOVLW  00
05422:  ADDWFC x42,F
05424:  MOVLB  3
05426:  MOVF   x65,W
05428:  MOVLB  2
0542A:  ADDWF  xE3,W
0542C:  MULLW  09
0542E:  MOVF   FF3,W
05430:  MOVLB  4
05432:  ADDWF  x41,F
05434:  MOVLW  00
05436:  ADDWFC x42,F
05438:  MOVFF  442,445
0543C:  MOVFF  441,444
05440:  MOVLB  0
05442:  RCALL  4EFE
05444:  MOVFF  01,441
05448:  MOVLB  4
0544A:  CLRF   x49
0544C:  MOVFF  2E2,448
05450:  MOVLW  01
05452:  MOVWF  x4B
05454:  MOVLW  40
05456:  MOVWF  x4A
05458:  MOVLB  0
0545A:  CALL   3920
0545E:  MOVFF  02,443
05462:  MOVFF  01,442
05466:  MOVLW  08
05468:  MOVLB  4
0546A:  ADDWF  x42,F
0546C:  MOVLW  00
0546E:  ADDWFC x43,F
05470:  MOVLB  3
05472:  MOVF   x65,W
05474:  MOVLB  2
05476:  ADDWF  xE3,W
05478:  MULLW  09
0547A:  MOVF   FF3,W
0547C:  MOVLB  4
0547E:  ADDWF  x42,F
05480:  MOVLW  00
05482:  ADDWFC x43,F
05484:  MOVFF  443,445
05488:  MOVFF  442,444
0548C:  MOVLB  0
0548E:  RCALL  4EFE
05490:  MOVFF  440,FEA
05494:  MOVFF  43F,FE9
05498:  MOVFF  441,FEC
0549C:  MOVF   FED,F
0549E:  MOVFF  01,FEF
....................             if(PcCiclos[i]>400) 
054A2:  BCF    FD8.0
054A4:  MOVLB  3
054A6:  RLCF   x65,W
054A8:  CLRF   03
054AA:  ADDLW  E6
054AC:  MOVWF  FE9
054AE:  MOVLW  03
054B0:  ADDWFC 03,W
054B2:  MOVWF  FEA
054B4:  MOVFF  FEC,440
054B8:  MOVF   FED,F
054BA:  MOVFF  FEF,43F
054BE:  MOVLB  4
054C0:  MOVF   x40,W
054C2:  SUBLW  00
054C4:  BC    54EA
054C6:  XORLW  FF
054C8:  BNZ   54D0
054CA:  MOVF   x3F,W
054CC:  SUBLW  90
054CE:  BC    54EA
....................                PcCiclos[i]=0; 
054D0:  BCF    FD8.0
054D2:  MOVLB  3
054D4:  RLCF   x65,W
054D6:  CLRF   03
054D8:  ADDLW  E6
054DA:  MOVWF  FE9
054DC:  MOVLW  03
054DE:  ADDWFC 03,W
054E0:  MOVWF  FEA
054E2:  CLRF   FEC
054E4:  MOVF   FED,F
054E6:  CLRF   FEF
054E8:  MOVLB  4
....................             PpcCiclos[i]=make16(read_ext_eeprom((cicloVisto*320)+9+((cicloVisualizado+i)*9)),read_ext_eeprom((cicloVisto*320)+10+((cicloVisualizado+i)*9))); 
054EA:  BCF    FD8.0
054EC:  MOVLB  3
054EE:  RLCF   x65,W
054F0:  CLRF   03
054F2:  ADDLW  F4
054F4:  MOVWF  01
054F6:  MOVLW  03
054F8:  ADDWFC 03,F
054FA:  MOVFF  01,43F
054FE:  MOVLB  4
05500:  MOVFF  03,440
05504:  CLRF   x49
05506:  MOVFF  2E2,448
0550A:  MOVLW  01
0550C:  MOVWF  x4B
0550E:  MOVLW  40
05510:  MOVWF  x4A
05512:  MOVLB  0
05514:  CALL   3920
05518:  MOVFF  02,442
0551C:  MOVFF  01,441
05520:  MOVLW  09
05522:  MOVLB  4
05524:  ADDWF  x41,F
05526:  MOVLW  00
05528:  ADDWFC x42,F
0552A:  MOVLB  3
0552C:  MOVF   x65,W
0552E:  MOVLB  2
05530:  ADDWF  xE3,W
05532:  MULLW  09
05534:  MOVF   FF3,W
05536:  MOVLB  4
05538:  ADDWF  x41,F
0553A:  MOVLW  00
0553C:  ADDWFC x42,F
0553E:  MOVFF  442,445
05542:  MOVFF  441,444
05546:  MOVLB  0
05548:  RCALL  4EFE
0554A:  MOVFF  01,441
0554E:  MOVLB  4
05550:  CLRF   x49
05552:  MOVFF  2E2,448
05556:  MOVLW  01
05558:  MOVWF  x4B
0555A:  MOVLW  40
0555C:  MOVWF  x4A
0555E:  MOVLB  0
05560:  CALL   3920
05564:  MOVFF  02,443
05568:  MOVFF  01,442
0556C:  MOVLW  0A
0556E:  MOVLB  4
05570:  ADDWF  x42,F
05572:  MOVLW  00
05574:  ADDWFC x43,F
05576:  MOVLB  3
05578:  MOVF   x65,W
0557A:  MOVLB  2
0557C:  ADDWF  xE3,W
0557E:  MULLW  09
05580:  MOVF   FF3,W
05582:  MOVLB  4
05584:  ADDWF  x42,F
05586:  MOVLW  00
05588:  ADDWFC x43,F
0558A:  MOVFF  443,445
0558E:  MOVFF  442,444
05592:  MOVLB  0
05594:  RCALL  4EFE
05596:  MOVFF  440,FEA
0559A:  MOVFF  43F,FE9
0559E:  MOVFF  441,FEC
055A2:  MOVF   FED,F
055A4:  MOVFF  01,FEF
....................             if(PpcCiclos[i]>400) 
055A8:  BCF    FD8.0
055AA:  MOVLB  3
055AC:  RLCF   x65,W
055AE:  CLRF   03
055B0:  ADDLW  F4
055B2:  MOVWF  FE9
055B4:  MOVLW  03
055B6:  ADDWFC 03,W
055B8:  MOVWF  FEA
055BA:  MOVFF  FEC,440
055BE:  MOVF   FED,F
055C0:  MOVFF  FEF,43F
055C4:  MOVLB  4
055C6:  MOVF   x40,W
055C8:  SUBLW  00
055CA:  BC    55F0
055CC:  XORLW  FF
055CE:  BNZ   55D6
055D0:  MOVF   x3F,W
055D2:  SUBLW  90
055D4:  BC    55F0
....................                PpcCiclos[i]=0; 
055D6:  BCF    FD8.0
055D8:  MOVLB  3
055DA:  RLCF   x65,W
055DC:  CLRF   03
055DE:  ADDLW  F4
055E0:  MOVWF  FE9
055E2:  MOVLW  03
055E4:  ADDWFC 03,W
055E6:  MOVWF  FEA
055E8:  CLRF   FEC
055EA:  MOVF   FED,F
055EC:  CLRF   FEF
055EE:  MOVLB  4
....................             ACiclos[i]=read_ext_eeprom((cicloVisto*320)+13+((cicloVisualizado+i)*9)); 
055F0:  CLRF   03
055F2:  MOVLB  3
055F4:  MOVF   x65,W
055F6:  ADDLW  10
055F8:  MOVWF  01
055FA:  MOVLW  04
055FC:  ADDWFC 03,F
055FE:  MOVFF  01,43F
05602:  MOVLB  4
05604:  MOVFF  03,440
05608:  CLRF   x49
0560A:  MOVFF  2E2,448
0560E:  MOVLW  01
05610:  MOVWF  x4B
05612:  MOVLW  40
05614:  MOVWF  x4A
05616:  MOVLB  0
05618:  CALL   3920
0561C:  MOVFF  02,442
05620:  MOVFF  01,441
05624:  MOVLW  0D
05626:  MOVLB  4
05628:  ADDWF  x41,F
0562A:  MOVLW  00
0562C:  ADDWFC x42,F
0562E:  MOVLB  3
05630:  MOVF   x65,W
05632:  MOVLB  2
05634:  ADDWF  xE3,W
05636:  MULLW  09
05638:  MOVF   FF3,W
0563A:  MOVLB  4
0563C:  ADDWF  x41,F
0563E:  MOVLW  00
05640:  ADDWFC x42,F
05642:  MOVFF  442,445
05646:  MOVFF  441,444
0564A:  MOVLB  0
0564C:  RCALL  4EFE
0564E:  MOVFF  440,FEA
05652:  MOVFF  43F,FE9
05656:  MOVFF  01,FEF
....................             if(ACiclos[i]>30) 
0565A:  CLRF   03
0565C:  MOVLB  3
0565E:  MOVF   x65,W
05660:  ADDLW  10
05662:  MOVWF  FE9
05664:  MOVLW  04
05666:  ADDWFC 03,W
05668:  MOVWF  FEA
0566A:  MOVF   FEF,W
0566C:  SUBLW  1E
0566E:  BC    5680
....................                ACiclos[i]=0; 
05670:  CLRF   03
05672:  MOVF   x65,W
05674:  ADDLW  10
05676:  MOVWF  FE9
05678:  MOVLW  04
0567A:  ADDWFC 03,W
0567C:  MOVWF  FEA
0567E:  CLRF   FEF
....................          } 
05680:  INCF   x65,F
05682:  BRA    5136
.................... } 
05684:  MOVLB  0
05686:  RETLW  00
.................... void GuardaDatoEstatico(){ 
*
060B6:  MOVLB  4
060B8:  CLRF   x40
060BA:  CLRF   x3F
060BC:  CLRF   x42
060BE:  CLRF   x41
....................    int16 posCiclo=0,cicloMemoria=0; 
....................    posCiclo=Ciclos/200; 
060C0:  MOVFF  382,444
060C4:  MOVFF  381,443
060C8:  CLRF   x46
060CA:  MOVLW  C8
060CC:  MOVWF  x45
060CE:  MOVLB  0
060D0:  CALL   4C4C
060D4:  MOVFF  02,440
060D8:  MOVFF  01,43F
....................    cicloMemoria=Ciclos-(posCiclo*200); 
060DC:  MOVFF  440,449
060E0:  MOVFF  43F,448
060E4:  MOVLB  4
060E6:  CLRF   x4B
060E8:  MOVLW  C8
060EA:  MOVWF  x4A
060EC:  MOVLB  0
060EE:  CALL   3920
060F2:  MOVF   01,W
060F4:  MOVLB  3
060F6:  SUBWF  x81,W
060F8:  MOVLB  4
060FA:  MOVWF  x41
060FC:  MOVF   02,W
060FE:  MOVLB  3
06100:  SUBWFB x82,W
06102:  MOVLB  4
06104:  MOVWF  x42
....................    if(!disp_Guarda){ 
06106:  MOVLB  0
06108:  BTFSC  xA4.1
0610A:  BRA    62A4
....................       write_ext_eeprom(cicloMemoria*320,1); 
0610C:  MOVFF  442,449
06110:  MOVFF  441,448
06114:  MOVLW  01
06116:  MOVLB  4
06118:  MOVWF  x4B
0611A:  MOVLW  40
0611C:  MOVWF  x4A
0611E:  MOVLB  0
06120:  CALL   3920
06124:  MOVFF  02,444
06128:  MOVFF  01,443
0612C:  MOVFF  02,447
06130:  MOVFF  01,446
06134:  MOVLW  01
06136:  MOVLB  4
06138:  MOVWF  x48
0613A:  MOVLB  0
0613C:  RCALL  5FA4
....................       delay_ms(10); 
0613E:  MOVLW  0A
06140:  MOVLB  4
06142:  MOVWF  x54
06144:  MOVLB  0
06146:  CALL   19B0
....................       if(!Libre) 
0614A:  BTFSC  xA3.5
0614C:  BRA    6188
....................          write_ext_eeprom(1+(cicloMemoria*320),CicloSeleccionado); 
0614E:  MOVFF  442,449
06152:  MOVFF  441,448
06156:  MOVLW  01
06158:  MOVLB  4
0615A:  MOVWF  x4B
0615C:  MOVLW  40
0615E:  MOVWF  x4A
06160:  MOVLB  0
06162:  CALL   3920
06166:  MOVFF  02,03
0616A:  MOVF   01,W
0616C:  ADDLW  01
0616E:  MOVLB  4
06170:  MOVWF  x43
06172:  MOVLW  00
06174:  ADDWFC 02,W
06176:  MOVWF  x44
06178:  MOVWF  x47
0617A:  MOVFF  443,446
0617E:  MOVFF  368,448
06182:  MOVLB  0
06184:  RCALL  5FA4
....................       else 
06186:  BRA    61CA
....................          write_ext_eeprom(1+(cicloMemoria*320),CicloLibre+4); 
06188:  MOVFF  442,449
0618C:  MOVFF  441,448
06190:  MOVLW  01
06192:  MOVLB  4
06194:  MOVWF  x4B
06196:  MOVLW  40
06198:  MOVWF  x4A
0619A:  MOVLB  0
0619C:  CALL   3920
061A0:  MOVFF  02,03
061A4:  MOVF   01,W
061A6:  ADDLW  01
061A8:  MOVLB  4
061AA:  MOVWF  x43
061AC:  MOVLW  00
061AE:  ADDWFC 02,W
061B0:  MOVWF  x44
061B2:  MOVLW  04
061B4:  MOVLB  3
061B6:  ADDWF  x42,W
061B8:  MOVLB  4
061BA:  MOVWF  x45
061BC:  MOVFF  444,447
061C0:  MOVFF  443,446
061C4:  MOVWF  x48
061C6:  MOVLB  0
061C8:  RCALL  5FA4
....................       delay_ms(10); 
061CA:  MOVLW  0A
061CC:  MOVLB  4
061CE:  MOVWF  x54
061D0:  MOVLB  0
061D2:  CALL   19B0
....................       write_ext_eeprom(2+(cicloMemoria*320),Dia); 
061D6:  MOVFF  442,449
061DA:  MOVFF  441,448
061DE:  MOVLW  01
061E0:  MOVLB  4
061E2:  MOVWF  x4B
061E4:  MOVLW  40
061E6:  MOVWF  x4A
061E8:  MOVLB  0
061EA:  CALL   3920
061EE:  MOVFF  02,03
061F2:  MOVF   01,W
061F4:  ADDLW  02
061F6:  MOVLB  4
061F8:  MOVWF  x43
061FA:  MOVLW  00
061FC:  ADDWFC 02,W
061FE:  MOVWF  x44
06200:  MOVWF  x47
06202:  MOVFF  443,446
06206:  MOVFF  3A0,448
0620A:  MOVLB  0
0620C:  RCALL  5FA4
....................       delay_ms(10); 
0620E:  MOVLW  0A
06210:  MOVLB  4
06212:  MOVWF  x54
06214:  MOVLB  0
06216:  CALL   19B0
....................       write_ext_eeprom(3+(cicloMemoria*320),Mes); 
0621A:  MOVFF  442,449
0621E:  MOVFF  441,448
06222:  MOVLW  01
06224:  MOVLB  4
06226:  MOVWF  x4B
06228:  MOVLW  40
0622A:  MOVWF  x4A
0622C:  MOVLB  0
0622E:  CALL   3920
06232:  MOVFF  02,03
06236:  MOVF   01,W
06238:  ADDLW  03
0623A:  MOVLB  4
0623C:  MOVWF  x43
0623E:  MOVLW  00
06240:  ADDWFC 02,W
06242:  MOVWF  x44
06244:  MOVWF  x47
06246:  MOVFF  443,446
0624A:  MOVFF  39F,448
0624E:  MOVLB  0
06250:  RCALL  5FA4
....................       delay_ms(10); 
06252:  MOVLW  0A
06254:  MOVLB  4
06256:  MOVWF  x54
06258:  MOVLB  0
0625A:  CALL   19B0
....................       write_ext_eeprom(4+(cicloMemoria*320),Year); 
0625E:  MOVFF  442,449
06262:  MOVFF  441,448
06266:  MOVLW  01
06268:  MOVLB  4
0626A:  MOVWF  x4B
0626C:  MOVLW  40
0626E:  MOVWF  x4A
06270:  MOVLB  0
06272:  CALL   3920
06276:  MOVFF  02,03
0627A:  MOVF   01,W
0627C:  ADDLW  04
0627E:  MOVLB  4
06280:  MOVWF  x43
06282:  MOVLW  00
06284:  ADDWFC 02,W
06286:  MOVWF  x44
06288:  MOVWF  x47
0628A:  MOVFF  443,446
0628E:  MOVFF  39E,448
06292:  MOVLB  0
06294:  RCALL  5FA4
....................       delay_ms(10);  
06296:  MOVLW  0A
06298:  MOVLB  4
0629A:  MOVWF  x54
0629C:  MOVLB  0
0629E:  CALL   19B0
....................       disp_Guarda=1; 
062A2:  BSF    xA4.1
....................    }    
.................... } 
062A4:  GOTO   BA06 (RETURN)
....................  
.................... void GuardaDatoCiclo(){ 
*
06372:  MOVLB  4
06374:  CLRF   x40
06376:  CLRF   x3F
06378:  CLRF   x42
0637A:  CLRF   x41
....................    int16 posCiclo=0,cicloMemoria=0; 
....................    posCiclo=Ciclos/200; 
0637C:  MOVFF  382,444
06380:  MOVFF  381,443
06384:  CLRF   x46
06386:  MOVLW  C8
06388:  MOVWF  x45
0638A:  MOVLB  0
0638C:  CALL   4C4C
06390:  MOVFF  02,440
06394:  MOVFF  01,43F
....................    if(!Ciclo){ 
06398:  BTFSC  xA1.3
0639A:  BRA    6712
....................       cicloMemoria=Ciclos-(posCiclo*200); 
0639C:  MOVFF  440,449
063A0:  MOVFF  43F,448
063A4:  MOVLB  4
063A6:  CLRF   x4B
063A8:  MOVLW  C8
063AA:  MOVWF  x4A
063AC:  MOVLB  0
063AE:  CALL   3920
063B2:  MOVF   01,W
063B4:  MOVLB  3
063B6:  SUBWF  x81,W
063B8:  MOVLB  4
063BA:  MOVWF  x41
063BC:  MOVF   02,W
063BE:  MOVLB  3
063C0:  SUBWFB x82,W
063C2:  MOVLB  4
063C4:  MOVWF  x42
....................       write_ext_eeprom(5+(cicloMemoria*320)+(posicionDato*9),(int8)Temperatura); 
063C6:  MOVFF  442,449
063CA:  MOVFF  441,448
063CE:  MOVLW  01
063D0:  MOVWF  x4B
063D2:  MOVLW  40
063D4:  MOVWF  x4A
063D6:  MOVLB  0
063D8:  CALL   3920
063DC:  MOVFF  02,03
063E0:  MOVF   01,W
063E2:  ADDLW  05
063E4:  MOVLB  4
063E6:  MOVWF  x43
063E8:  MOVLW  00
063EA:  ADDWFC 02,W
063EC:  MOVWF  x44
063EE:  MOVLB  2
063F0:  MOVF   xE4,W
063F2:  MULLW  09
063F4:  MOVF   FF3,W
063F6:  MOVLB  4
063F8:  ADDWF  x43,F
063FA:  MOVLW  00
063FC:  ADDWFC x44,F
063FE:  MOVFF  32B,457
06402:  MOVFF  32A,456
06406:  MOVFF  329,455
0640A:  MOVFF  328,454
0640E:  MOVLB  0
06410:  CALL   400E
06414:  MOVFF  01,445
06418:  MOVFF  444,447
0641C:  MOVFF  443,446
06420:  MOVFF  01,448
06424:  RCALL  5FA4
....................       delay_ms(10); 
06426:  MOVLW  0A
06428:  MOVLB  4
0642A:  MOVWF  x54
0642C:  MOVLB  0
0642E:  CALL   19B0
....................       write_ext_eeprom(6+(cicloMemoria*320)+(posicionDato*9),extraeDecimal(Temperatura)); 
06432:  MOVFF  442,449
06436:  MOVFF  441,448
0643A:  MOVLW  01
0643C:  MOVLB  4
0643E:  MOVWF  x4B
06440:  MOVLW  40
06442:  MOVWF  x4A
06444:  MOVLB  0
06446:  CALL   3920
0644A:  MOVFF  02,03
0644E:  MOVF   01,W
06450:  ADDLW  06
06452:  MOVLB  4
06454:  MOVWF  x43
06456:  MOVLW  00
06458:  ADDWFC 02,W
0645A:  MOVWF  x44
0645C:  MOVLB  2
0645E:  MOVF   xE4,W
06460:  MULLW  09
06462:  MOVF   FF3,W
06464:  MOVLB  4
06466:  ADDWF  x43,F
06468:  MOVLW  00
0646A:  ADDWFC x44,F
0646C:  MOVFF  32B,448
06470:  MOVFF  32A,447
06474:  MOVFF  329,446
06478:  MOVFF  328,445
0647C:  MOVLB  0
0647E:  BRA    62A8
06480:  MOVFF  01,445
06484:  MOVFF  444,447
06488:  MOVFF  443,446
0648C:  MOVFF  01,448
06490:  RCALL  5FA4
....................       delay_ms(10); 
06492:  MOVLW  0A
06494:  MOVLB  4
06496:  MOVWF  x54
06498:  MOVLB  0
0649A:  CALL   19B0
....................       write_ext_eeprom(7+(cicloMemoria*320)+(posicionDato*9),make8(PresionCamara,1)); 
0649E:  MOVFF  442,449
064A2:  MOVFF  441,448
064A6:  MOVLW  01
064A8:  MOVLB  4
064AA:  MOVWF  x4B
064AC:  MOVLW  40
064AE:  MOVWF  x4A
064B0:  MOVLB  0
064B2:  CALL   3920
064B6:  MOVFF  02,03
064BA:  MOVF   01,W
064BC:  ADDLW  07
064BE:  MOVLB  4
064C0:  MOVWF  x43
064C2:  MOVLW  00
064C4:  ADDWFC 02,W
064C6:  MOVWF  x44
064C8:  MOVLB  2
064CA:  MOVF   xE4,W
064CC:  MULLW  09
064CE:  MOVF   FF3,W
064D0:  MOVLB  4
064D2:  ADDWF  x43,F
064D4:  MOVLW  00
064D6:  ADDWFC x44,F
064D8:  MOVFF  37E,445
064DC:  MOVFF  444,447
064E0:  MOVFF  443,446
064E4:  MOVFF  37E,448
064E8:  MOVLB  0
064EA:  RCALL  5FA4
....................       delay_ms(10); 
064EC:  MOVLW  0A
064EE:  MOVLB  4
064F0:  MOVWF  x54
064F2:  MOVLB  0
064F4:  CALL   19B0
....................       write_ext_eeprom(8+(cicloMemoria*320)+(posicionDato*9),make8(PresionCamara,0)); 
064F8:  MOVFF  442,449
064FC:  MOVFF  441,448
06500:  MOVLW  01
06502:  MOVLB  4
06504:  MOVWF  x4B
06506:  MOVLW  40
06508:  MOVWF  x4A
0650A:  MOVLB  0
0650C:  CALL   3920
06510:  MOVFF  02,03
06514:  MOVF   01,W
06516:  ADDLW  08
06518:  MOVLB  4
0651A:  MOVWF  x43
0651C:  MOVLW  00
0651E:  ADDWFC 02,W
06520:  MOVWF  x44
06522:  MOVLB  2
06524:  MOVF   xE4,W
06526:  MULLW  09
06528:  MOVF   FF3,W
0652A:  MOVLB  4
0652C:  ADDWF  x43,F
0652E:  MOVLW  00
06530:  ADDWFC x44,F
06532:  MOVFF  37D,445
06536:  MOVFF  444,447
0653A:  MOVFF  443,446
0653E:  MOVFF  37D,448
06542:  MOVLB  0
06544:  RCALL  5FA4
....................       delay_ms(10); 
06546:  MOVLW  0A
06548:  MOVLB  4
0654A:  MOVWF  x54
0654C:  MOVLB  0
0654E:  CALL   19B0
....................       write_ext_eeprom(9+(cicloMemoria*320)+(posicionDato*9),make8(PresionPreCamara,1)); 
06552:  MOVFF  442,449
06556:  MOVFF  441,448
0655A:  MOVLW  01
0655C:  MOVLB  4
0655E:  MOVWF  x4B
06560:  MOVLW  40
06562:  MOVWF  x4A
06564:  MOVLB  0
06566:  CALL   3920
0656A:  MOVFF  02,03
0656E:  MOVF   01,W
06570:  ADDLW  09
06572:  MOVLB  4
06574:  MOVWF  x43
06576:  MOVLW  00
06578:  ADDWFC 02,W
0657A:  MOVWF  x44
0657C:  MOVLB  2
0657E:  MOVF   xE4,W
06580:  MULLW  09
06582:  MOVF   FF3,W
06584:  MOVLB  4
06586:  ADDWF  x43,F
06588:  MOVLW  00
0658A:  ADDWFC x44,F
0658C:  MOVFF  380,445
06590:  MOVFF  444,447
06594:  MOVFF  443,446
06598:  MOVFF  380,448
0659C:  MOVLB  0
0659E:  RCALL  5FA4
....................       delay_ms(10); 
065A0:  MOVLW  0A
065A2:  MOVLB  4
065A4:  MOVWF  x54
065A6:  MOVLB  0
065A8:  CALL   19B0
....................       write_ext_eeprom(10+(cicloMemoria*320)+(posicionDato*9),make8(PresionPreCamara,0)); 
065AC:  MOVFF  442,449
065B0:  MOVFF  441,448
065B4:  MOVLW  01
065B6:  MOVLB  4
065B8:  MOVWF  x4B
065BA:  MOVLW  40
065BC:  MOVWF  x4A
065BE:  MOVLB  0
065C0:  CALL   3920
065C4:  MOVFF  02,03
065C8:  MOVF   01,W
065CA:  ADDLW  0A
065CC:  MOVLB  4
065CE:  MOVWF  x43
065D0:  MOVLW  00
065D2:  ADDWFC 02,W
065D4:  MOVWF  x44
065D6:  MOVLB  2
065D8:  MOVF   xE4,W
065DA:  MULLW  09
065DC:  MOVF   FF3,W
065DE:  MOVLB  4
065E0:  ADDWF  x43,F
065E2:  MOVLW  00
065E4:  ADDWFC x44,F
065E6:  MOVFF  37F,445
065EA:  MOVFF  444,447
065EE:  MOVFF  443,446
065F2:  MOVFF  37F,448
065F6:  MOVLB  0
065F8:  RCALL  5FA4
....................       delay_ms(10); 
065FA:  MOVLW  0A
065FC:  MOVLB  4
065FE:  MOVWF  x54
06600:  MOVLB  0
06602:  CALL   19B0
....................       write_ext_eeprom(11+(cicloMemoria*320)+(posicionDato*9),Hora); 
06606:  MOVFF  442,449
0660A:  MOVFF  441,448
0660E:  MOVLW  01
06610:  MOVLB  4
06612:  MOVWF  x4B
06614:  MOVLW  40
06616:  MOVWF  x4A
06618:  MOVLB  0
0661A:  CALL   3920
0661E:  MOVFF  02,03
06622:  MOVF   01,W
06624:  ADDLW  0B
06626:  MOVLB  4
06628:  MOVWF  x43
0662A:  MOVLW  00
0662C:  ADDWFC 02,W
0662E:  MOVWF  x44
06630:  MOVLB  2
06632:  MOVF   xE4,W
06634:  MULLW  09
06636:  MOVF   FF3,W
06638:  MOVLB  4
0663A:  ADDWF  x43,F
0663C:  MOVLW  00
0663E:  ADDWFC x44,F
06640:  MOVFF  444,447
06644:  MOVFF  443,446
06648:  MOVFF  3A1,448
0664C:  MOVLB  0
0664E:  RCALL  5FA4
....................       delay_ms(10); 
06650:  MOVLW  0A
06652:  MOVLB  4
06654:  MOVWF  x54
06656:  MOVLB  0
06658:  CALL   19B0
....................       write_ext_eeprom(12+(cicloMemoria*320)+(posicionDato*9),Minuto); 
0665C:  MOVFF  442,449
06660:  MOVFF  441,448
06664:  MOVLW  01
06666:  MOVLB  4
06668:  MOVWF  x4B
0666A:  MOVLW  40
0666C:  MOVWF  x4A
0666E:  MOVLB  0
06670:  CALL   3920
06674:  MOVFF  02,03
06678:  MOVF   01,W
0667A:  ADDLW  0C
0667C:  MOVLB  4
0667E:  MOVWF  x43
06680:  MOVLW  00
06682:  ADDWFC 02,W
06684:  MOVWF  x44
06686:  MOVLB  2
06688:  MOVF   xE4,W
0668A:  MULLW  09
0668C:  MOVF   FF3,W
0668E:  MOVLB  4
06690:  ADDWF  x43,F
06692:  MOVLW  00
06694:  ADDWFC x44,F
06696:  MOVFF  444,447
0669A:  MOVFF  443,446
0669E:  MOVFF  3A2,448
066A2:  MOVLB  0
066A4:  RCALL  5FA4
....................       delay_ms(10); 
066A6:  MOVLW  0A
066A8:  MOVLB  4
066AA:  MOVWF  x54
066AC:  MOVLB  0
066AE:  CALL   19B0
....................       write_ext_eeprom(13+(cicloMemoria*320)+(posicionDato*9),codigoAlarma); 
066B2:  MOVFF  442,449
066B6:  MOVFF  441,448
066BA:  MOVLW  01
066BC:  MOVLB  4
066BE:  MOVWF  x4B
066C0:  MOVLW  40
066C2:  MOVWF  x4A
066C4:  MOVLB  0
066C6:  CALL   3920
066CA:  MOVFF  02,03
066CE:  MOVF   01,W
066D0:  ADDLW  0D
066D2:  MOVLB  4
066D4:  MOVWF  x43
066D6:  MOVLW  00
066D8:  ADDWFC 02,W
066DA:  MOVWF  x44
066DC:  MOVLB  2
066DE:  MOVF   xE4,W
066E0:  MULLW  09
066E2:  MOVF   FF3,W
066E4:  MOVLB  4
066E6:  ADDWF  x43,F
066E8:  MOVLW  00
066EA:  ADDWFC x44,F
066EC:  MOVFF  444,447
066F0:  MOVFF  443,446
066F4:  MOVFF  2E6,448
066F8:  MOVLB  0
066FA:  RCALL  5FA4
....................       delay_ms(10); 
066FC:  MOVLW  0A
066FE:  MOVLB  4
06700:  MOVWF  x54
06702:  MOVLB  0
06704:  CALL   19B0
....................     
....................       if(posicionDato<35) 
06708:  MOVLB  2
0670A:  MOVF   xE4,W
0670C:  SUBLW  22
0670E:  BNC   6712
....................          ++posicionDato; 
06710:  INCF   xE4,F
06712:  MOVLB  0
....................    } 
.................... } 
06714:  RETLW  00
....................  
.................... void incrementaCiclos(){ 
....................    if(!Ciclo){ 
06716:  BTFSC  xA1.3
06718:  BRA    67A0
....................       Ciclo=ON; 
0671A:  BSF    xA1.3
....................       Ciclos++; 
0671C:  MOVLB  3
0671E:  INCF   x81,F
06720:  BTFSC  FD8.2
06722:  INCF   x82,F
....................       CiclosL=make8(Ciclos,0); 
06724:  MOVFF  381,366
....................       CiclosH=make8(Ciclos,1); 
06728:  MOVFF  382,367
....................       write_eeprom(37,CiclosL); 
0672C:  CLRF   FAA
0672E:  MOVLW  25
06730:  MOVWF  FA9
06732:  MOVFF  366,FA8
06736:  BCF    FA6.6
06738:  BCF    FA6.7
0673A:  BSF    FA6.2
0673C:  MOVF   FF2,W
0673E:  MOVWF  00
06740:  BCF    FF2.6
06742:  BCF    FF2.7
06744:  MOVLB  F
06746:  MOVLW  55
06748:  MOVWF  FA7
0674A:  MOVLW  AA
0674C:  MOVWF  FA7
0674E:  BSF    FA6.1
06750:  BTFSC  FA6.1
06752:  BRA    6750
06754:  BCF    FA6.2
06756:  MOVF   00,W
06758:  IORWF  FF2,F
....................       delay_ms(20); 
0675A:  MOVLW  14
0675C:  MOVLB  4
0675E:  MOVWF  x54
06760:  MOVLB  0
06762:  CALL   19B0
....................       write_eeprom(38,CiclosH); 
06766:  CLRF   FAA
06768:  MOVLW  26
0676A:  MOVWF  FA9
0676C:  MOVFF  367,FA8
06770:  BCF    FA6.6
06772:  BCF    FA6.7
06774:  BSF    FA6.2
06776:  MOVF   FF2,W
06778:  MOVWF  00
0677A:  BCF    FF2.6
0677C:  BCF    FF2.7
0677E:  MOVLB  F
06780:  MOVLW  55
06782:  MOVWF  FA7
06784:  MOVLW  AA
06786:  MOVWF  FA7
06788:  BSF    FA6.1
0678A:  BTFSC  FA6.1
0678C:  BRA    678A
0678E:  BCF    FA6.2
06790:  MOVF   00,W
06792:  IORWF  FF2,F
....................       delay_ms(20); 
06794:  MOVLW  14
06796:  MOVLB  4
06798:  MOVWF  x54
0679A:  MOVLB  0
0679C:  CALL   19B0
....................    } 
.................... } 
067A0:  RETLW  00
....................  
.................... void exportarData(){ 
*
05688:  MOVLB  4
0568A:  CLRF   x40
0568C:  CLRF   x3F
0568E:  CLRF   x41
.................... int16 posicion=0; 
.................... int8 tmp=0; 
.................... posicion=40; 
05690:  CLRF   x40
05692:  MOVLW  28
05694:  MOVWF  x3F
.................... direccion=0xB0; 
05696:  MOVLW  B0
05698:  MOVLB  0
0569A:  MOVWF  x85
.................... //Buzzer_on; 
.................... //Inicio de Transmision 
.................... i2c_start();            // Comienzo comunicacin 
0569C:  BSF    F94.4
0569E:  MOVLW  05
056A0:  MOVWF  00
056A2:  DECFSZ 00,F
056A4:  BRA    56A2
056A6:  BSF    F94.3
056A8:  MOVLW  06
056AA:  MOVWF  00
056AC:  DECFSZ 00,F
056AE:  BRA    56AC
056B0:  BCF    F8B.4
056B2:  BCF    F94.4
056B4:  MOVLW  05
056B6:  MOVWF  00
056B8:  DECFSZ 00,F
056BA:  BRA    56B8
056BC:  BCF    F8B.3
056BE:  BCF    F94.3
.................... i2c_write(direccion);   // Direccin del esclavo en el bus I2C 
056C0:  MOVFF  85,458
056C4:  CALL   4198
.................... i2c_write(make8(posicion,0));    // Posicin donde se guardara el dato transmitido 
056C8:  MOVFF  43F,442
056CC:  MOVFF  43F,458
056D0:  CALL   4198
.................... i2c_write(make8(posicion,1));    // Posicin donde se guardara el dato transmitido 
056D4:  MOVFF  440,442
056D8:  MOVFF  440,458
056DC:  CALL   4198
.................... i2c_write(0xff);        // Dato a transmitir 
056E0:  MOVLW  FF
056E2:  MOVLB  4
056E4:  MOVWF  x58
056E6:  MOVLB  0
056E8:  CALL   4198
.................... i2c_stop(); 
056EC:  BCF    F94.4
056EE:  NOP   
056F0:  BSF    F94.3
056F2:  BTFSS  F82.3
056F4:  BRA    56F2
056F6:  MOVLW  05
056F8:  MOVWF  00
056FA:  DECFSZ 00,F
056FC:  BRA    56FA
056FE:  BRA    5700
05700:  NOP   
05702:  BSF    F94.4
05704:  MOVLW  05
05706:  MOVWF  00
05708:  DECFSZ 00,F
0570A:  BRA    5708
.................... ++posicion; 
0570C:  MOVLB  4
0570E:  INCF   x3F,F
05710:  BTFSC  FD8.2
05712:  INCF   x40,F
.................... i2c_start();            // Comienzo comunicacin 
05714:  BSF    F94.4
05716:  MOVLW  05
05718:  MOVWF  00
0571A:  DECFSZ 00,F
0571C:  BRA    571A
0571E:  BSF    F94.3
05720:  MOVLW  06
05722:  MOVWF  00
05724:  DECFSZ 00,F
05726:  BRA    5724
05728:  BCF    F8B.4
0572A:  BCF    F94.4
0572C:  MOVLW  05
0572E:  MOVWF  00
05730:  DECFSZ 00,F
05732:  BRA    5730
05734:  BCF    F8B.3
05736:  BCF    F94.3
.................... i2c_write(direccion);   // Direccin del esclavo en el bus I2C 
05738:  MOVFF  85,458
0573C:  MOVLB  0
0573E:  CALL   4198
.................... i2c_write(make8(posicion,0));    // Posicin donde se guardara el dato transmitido 
05742:  MOVFF  43F,442
05746:  MOVFF  43F,458
0574A:  CALL   4198
.................... i2c_write(make8(posicion,1));    // Posicin donde se guardara el dato transmitido 
0574E:  MOVFF  440,442
05752:  MOVFF  440,458
05756:  CALL   4198
.................... i2c_write(0xff);        // Dato a transmitir 
0575A:  MOVLW  FF
0575C:  MOVLB  4
0575E:  MOVWF  x58
05760:  MOVLB  0
05762:  CALL   4198
.................... i2c_stop(); 
05766:  BCF    F94.4
05768:  NOP   
0576A:  BSF    F94.3
0576C:  BTFSS  F82.3
0576E:  BRA    576C
05770:  MOVLW  05
05772:  MOVWF  00
05774:  DECFSZ 00,F
05776:  BRA    5774
05778:  BRA    577A
0577A:  NOP   
0577C:  BSF    F94.4
0577E:  MOVLW  05
05780:  MOVWF  00
05782:  DECFSZ 00,F
05784:  BRA    5782
.................... ++posicion; 
05786:  MOVLB  4
05788:  INCF   x3F,F
0578A:  BTFSC  FD8.2
0578C:  INCF   x40,F
.................... //Se envian 2 veces ff para indicar que se inicia la transmision. 
....................  
....................    for(i=0;i<5;i++){ 
0578E:  MOVLB  3
05790:  CLRF   x65
05792:  MOVF   x65,W
05794:  SUBLW  04
05796:  BNC   584E
....................       tmp=read_ext_eeprom((cicloVisto*320)+i); 
05798:  MOVLB  4
0579A:  CLRF   x49
0579C:  MOVFF  2E2,448
057A0:  MOVLW  01
057A2:  MOVWF  x4B
057A4:  MOVLW  40
057A6:  MOVWF  x4A
057A8:  MOVLB  0
057AA:  CALL   3920
057AE:  MOVFF  02,443
057B2:  MOVFF  01,442
057B6:  MOVLB  3
057B8:  MOVF   x65,W
057BA:  MOVLB  4
057BC:  ADDWF  x42,F
057BE:  MOVLW  00
057C0:  ADDWFC x43,F
057C2:  MOVFF  443,445
057C6:  MOVFF  442,444
057CA:  MOVLB  0
057CC:  CALL   4EFE
057D0:  MOVFF  01,441
....................       //if(tmp>250) 
....................       //   tmp=20; 
....................       i2c_start();            // Comienzo comunicacin 
057D4:  BSF    F94.4
057D6:  MOVLW  05
057D8:  MOVWF  00
057DA:  DECFSZ 00,F
057DC:  BRA    57DA
057DE:  BSF    F94.3
057E0:  MOVLW  06
057E2:  MOVWF  00
057E4:  DECFSZ 00,F
057E6:  BRA    57E4
057E8:  BCF    F8B.4
057EA:  BCF    F94.4
057EC:  MOVLW  05
057EE:  MOVWF  00
057F0:  DECFSZ 00,F
057F2:  BRA    57F0
057F4:  BCF    F8B.3
057F6:  BCF    F94.3
....................       i2c_write(direccion);   // Direccin del esclavo en el bus I2C 
057F8:  MOVFF  85,458
057FC:  CALL   4198
....................       i2c_write(make8(posicion,0));    // Posicin donde se guardara el dato transmitido 
05800:  MOVFF  43F,442
05804:  MOVFF  43F,458
05808:  CALL   4198
....................       i2c_write(make8(posicion,1));    // Posicin donde se guardara el dato transmitido 
0580C:  MOVFF  440,442
05810:  MOVFF  440,458
05814:  CALL   4198
....................       i2c_write(tmp);        // Dato a transmitir 
05818:  MOVFF  441,458
0581C:  CALL   4198
....................       i2c_stop();  
05820:  BCF    F94.4
05822:  NOP   
05824:  BSF    F94.3
05826:  BTFSS  F82.3
05828:  BRA    5826
0582A:  MOVLW  05
0582C:  MOVWF  00
0582E:  DECFSZ 00,F
05830:  BRA    582E
05832:  BRA    5834
05834:  NOP   
05836:  BSF    F94.4
05838:  MOVLW  05
0583A:  MOVWF  00
0583C:  DECFSZ 00,F
0583E:  BRA    583C
....................       ++posicion; 
05840:  MOVLB  4
05842:  INCF   x3F,F
05844:  BTFSC  FD8.2
05846:  INCF   x40,F
....................    } 
05848:  MOVLB  3
0584A:  INCF   x65,F
0584C:  BRA    5792
....................    for(i=0;i<35;i++){//Lee Valores para completar la Tabla 
0584E:  CLRF   x65
05850:  MOVF   x65,W
05852:  SUBLW  22
05854:  BNC   592E
....................       for(j=5;j<14;j++){//Lee Valores para completar la Tabla 
05856:  MOVLW  05
05858:  MOVLB  2
0585A:  MOVWF  xE5
0585C:  MOVF   xE5,W
0585E:  SUBLW  0D
05860:  BNC   5928
....................          tmp=read_ext_eeprom((cicloVisto*320)+j+(i*9)); 
05862:  MOVLB  4
05864:  CLRF   x49
05866:  MOVFF  2E2,448
0586A:  MOVLW  01
0586C:  MOVWF  x4B
0586E:  MOVLW  40
05870:  MOVWF  x4A
05872:  MOVLB  0
05874:  CALL   3920
05878:  MOVFF  02,443
0587C:  MOVFF  01,442
05880:  MOVLB  2
05882:  MOVF   xE5,W
05884:  MOVLB  4
05886:  ADDWF  x42,F
05888:  MOVLW  00
0588A:  ADDWFC x43,F
0588C:  MOVLB  3
0588E:  MOVF   x65,W
05890:  MULLW  09
05892:  MOVF   FF3,W
05894:  MOVLB  4
05896:  ADDWF  x42,F
05898:  MOVLW  00
0589A:  ADDWFC x43,F
0589C:  MOVFF  443,445
058A0:  MOVFF  442,444
058A4:  MOVLB  0
058A6:  CALL   4EFE
058AA:  MOVFF  01,441
....................          //if(tmp>250) 
....................          //   tmp=20; 
....................          i2c_start();            // Comienzo comunicacin 
058AE:  BSF    F94.4
058B0:  MOVLW  05
058B2:  MOVWF  00
058B4:  DECFSZ 00,F
058B6:  BRA    58B4
058B8:  BSF    F94.3
058BA:  MOVLW  06
058BC:  MOVWF  00
058BE:  DECFSZ 00,F
058C0:  BRA    58BE
058C2:  BCF    F8B.4
058C4:  BCF    F94.4
058C6:  MOVLW  05
058C8:  MOVWF  00
058CA:  DECFSZ 00,F
058CC:  BRA    58CA
058CE:  BCF    F8B.3
058D0:  BCF    F94.3
....................          i2c_write(direccion);   // Direccin del esclavo en el bus I2C 
058D2:  MOVFF  85,458
058D6:  CALL   4198
....................          i2c_write(make8(posicion,0));    // Posicin donde se guardara el dato transmitido 
058DA:  MOVFF  43F,442
058DE:  MOVFF  43F,458
058E2:  CALL   4198
....................          i2c_write(make8(posicion,1));    // Posicin donde se guardara el dato transmitido 
058E6:  MOVFF  440,442
058EA:  MOVFF  440,458
058EE:  CALL   4198
....................          i2c_write(tmp);        // Dato a transmitir 
058F2:  MOVFF  441,458
058F6:  CALL   4198
....................          i2c_stop();  
058FA:  BCF    F94.4
058FC:  NOP   
058FE:  BSF    F94.3
05900:  BTFSS  F82.3
05902:  BRA    5900
05904:  MOVLW  05
05906:  MOVWF  00
05908:  DECFSZ 00,F
0590A:  BRA    5908
0590C:  BRA    590E
0590E:  NOP   
05910:  BSF    F94.4
05912:  MOVLW  05
05914:  MOVWF  00
05916:  DECFSZ 00,F
05918:  BRA    5916
....................          ++posicion; 
0591A:  MOVLB  4
0591C:  INCF   x3F,F
0591E:  BTFSC  FD8.2
05920:  INCF   x40,F
....................       } 
05922:  MOVLB  2
05924:  INCF   xE5,F
05926:  BRA    585C
....................    } 
05928:  MOVLB  3
0592A:  INCF   x65,F
0592C:  BRA    5850
....................  
.................... //Fin de Transmision 
.................... i2c_start();            // Comienzo comunicacin 
0592E:  BSF    F94.4
05930:  MOVLW  05
05932:  MOVWF  00
05934:  DECFSZ 00,F
05936:  BRA    5934
05938:  BSF    F94.3
0593A:  MOVLW  06
0593C:  MOVWF  00
0593E:  DECFSZ 00,F
05940:  BRA    593E
05942:  BCF    F8B.4
05944:  BCF    F94.4
05946:  MOVLW  05
05948:  MOVWF  00
0594A:  DECFSZ 00,F
0594C:  BRA    594A
0594E:  BCF    F8B.3
05950:  BCF    F94.3
.................... i2c_write(direccion);   // Direccin del esclavo en el bus I2C 
05952:  MOVFF  85,458
05956:  MOVLB  0
05958:  CALL   4198
.................... i2c_write(make8(posicion,0));    // Posicin donde se guardara el dato transmitido 
0595C:  MOVFF  43F,442
05960:  MOVFF  43F,458
05964:  CALL   4198
.................... i2c_write(make8(posicion,1));    // Posicin donde se guardara el dato transmitido 
05968:  MOVFF  440,442
0596C:  MOVFF  440,458
05970:  CALL   4198
.................... i2c_write(0x1f);        // Dato a transmitir 
05974:  MOVLW  1F
05976:  MOVLB  4
05978:  MOVWF  x58
0597A:  MOVLB  0
0597C:  CALL   4198
.................... i2c_stop(); 
05980:  BCF    F94.4
05982:  NOP   
05984:  BSF    F94.3
05986:  BTFSS  F82.3
05988:  BRA    5986
0598A:  MOVLW  05
0598C:  MOVWF  00
0598E:  DECFSZ 00,F
05990:  BRA    598E
05992:  BRA    5994
05994:  NOP   
05996:  BSF    F94.4
05998:  MOVLW  05
0599A:  MOVWF  00
0599C:  DECFSZ 00,F
0599E:  BRA    599C
.................... ++posicion; 
059A0:  MOVLB  4
059A2:  INCF   x3F,F
059A4:  BTFSC  FD8.2
059A6:  INCF   x40,F
.................... i2c_start();            // Comienzo comunicacin 
059A8:  BSF    F94.4
059AA:  MOVLW  05
059AC:  MOVWF  00
059AE:  DECFSZ 00,F
059B0:  BRA    59AE
059B2:  BSF    F94.3
059B4:  MOVLW  06
059B6:  MOVWF  00
059B8:  DECFSZ 00,F
059BA:  BRA    59B8
059BC:  BCF    F8B.4
059BE:  BCF    F94.4
059C0:  MOVLW  05
059C2:  MOVWF  00
059C4:  DECFSZ 00,F
059C6:  BRA    59C4
059C8:  BCF    F8B.3
059CA:  BCF    F94.3
.................... i2c_write(direccion);   // Direccin del esclavo en el bus I2C 
059CC:  MOVFF  85,458
059D0:  MOVLB  0
059D2:  CALL   4198
.................... i2c_write(make8(posicion,0));    // Posicin donde se guardara el dato transmitido 
059D6:  MOVFF  43F,442
059DA:  MOVFF  43F,458
059DE:  CALL   4198
.................... i2c_write(make8(posicion,1));    // Posicin donde se guardara el dato transmitido 
059E2:  MOVFF  440,442
059E6:  MOVFF  440,458
059EA:  CALL   4198
.................... i2c_write(0x1f);        // Dato a transmitir 
059EE:  MOVLW  1F
059F0:  MOVLB  4
059F2:  MOVWF  x58
059F4:  MOVLB  0
059F6:  CALL   4198
.................... i2c_stop(); 
059FA:  BCF    F94.4
059FC:  NOP   
059FE:  BSF    F94.3
05A00:  BTFSS  F82.3
05A02:  BRA    5A00
05A04:  MOVLW  05
05A06:  MOVWF  00
05A08:  DECFSZ 00,F
05A0A:  BRA    5A08
05A0C:  BRA    5A0E
05A0E:  NOP   
05A10:  BSF    F94.4
05A12:  MOVLW  05
05A14:  MOVWF  00
05A16:  DECFSZ 00,F
05A18:  BRA    5A16
.................... ++posicion; 
05A1A:  MOVLB  4
05A1C:  INCF   x3F,F
05A1E:  BTFSC  FD8.2
05A20:  INCF   x40,F
.................... //Se envian 2 veces 1f para indicar que se inicia la transmision. 
.................... delay_ms(200); 
05A22:  MOVLW  C8
05A24:  MOVWF  x54
05A26:  MOVLB  0
05A28:  CALL   19B0
.................... //Buzzer_off; 
.................... } 
05A2C:  GOTO   B5D6 (RETURN)
....................  
.................... void codificaAlarma(){ 
....................    if(ACiclos[i]==0){ 
05A30:  CLRF   03
05A32:  MOVLB  3
05A34:  MOVF   x65,W
05A36:  ADDLW  10
05A38:  MOVWF  FE9
05A3A:  MOVLW  04
05A3C:  ADDWFC 03,W
05A3E:  MOVWF  FEA
05A40:  MOVF   FEF,F
05A42:  BNZ   5A82
....................       printf("A%u.txt=\"----\"",i+1); 
05A44:  MOVLW  01
05A46:  ADDWF  x65,W
05A48:  MOVLB  4
05A4A:  MOVWF  x3F
05A4C:  MOVLW  41
05A4E:  BTFSS  F9E.4
05A50:  BRA    5A4E
05A52:  MOVWF  FAD
05A54:  MOVFF  43F,444
05A58:  MOVLW  1B
05A5A:  MOVWF  x45
05A5C:  MOVLB  0
05A5E:  CALL   483A
05A62:  MOVLW  F9
05A64:  MOVWF  FF6
05A66:  MOVLW  01
05A68:  MOVWF  FF7
05A6A:  MOVLW  00
05A6C:  MOVWF  FF8
05A6E:  MOVLW  0B
05A70:  MOVLB  4
05A72:  MOVWF  x44
05A74:  MOVLB  0
05A76:  CALL   47DC
....................       SendDataDisplay(); 
05A7A:  CALL   3874
....................    }else if(ACiclos[i]==1){ 
05A7E:  BRA    5F9C
05A80:  MOVLB  3
05A82:  CLRF   03
05A84:  MOVF   x65,W
05A86:  ADDLW  10
05A88:  MOVWF  FE9
05A8A:  MOVLW  04
05A8C:  ADDWFC 03,W
05A8E:  MOVWF  FEA
05A90:  DECFSZ FEF,W
05A92:  BRA    5AD2
....................       printf("A%u.txt=\"Parada\"",i+1); 
05A94:  MOVLW  01
05A96:  ADDWF  x65,W
05A98:  MOVLB  4
05A9A:  MOVWF  x3F
05A9C:  MOVLW  41
05A9E:  BTFSS  F9E.4
05AA0:  BRA    5A9E
05AA2:  MOVWF  FAD
05AA4:  MOVFF  43F,444
05AA8:  MOVLW  1B
05AAA:  MOVWF  x45
05AAC:  MOVLB  0
05AAE:  CALL   483A
05AB2:  MOVLW  09
05AB4:  MOVWF  FF6
05AB6:  MOVLW  02
05AB8:  MOVWF  FF7
05ABA:  MOVLW  00
05ABC:  MOVWF  FF8
05ABE:  MOVLW  0D
05AC0:  MOVLB  4
05AC2:  MOVWF  x44
05AC4:  MOVLB  0
05AC6:  CALL   47DC
....................       SendDataDisplay(); 
05ACA:  CALL   3874
....................    }else if(ACiclos[i]==2){ 
05ACE:  BRA    5F9C
05AD0:  MOVLB  3
05AD2:  CLRF   03
05AD4:  MOVF   x65,W
05AD6:  ADDLW  10
05AD8:  MOVWF  FE9
05ADA:  MOVLW  04
05ADC:  ADDWFC 03,W
05ADE:  MOVWF  FEA
05AE0:  MOVF   FEF,W
05AE2:  SUBLW  02
05AE4:  BNZ   5B24
....................       printf("A%u.txt=\"Puerta\"",i+1); 
05AE6:  MOVLW  01
05AE8:  ADDWF  x65,W
05AEA:  MOVLB  4
05AEC:  MOVWF  x3F
05AEE:  MOVLW  41
05AF0:  BTFSS  F9E.4
05AF2:  BRA    5AF0
05AF4:  MOVWF  FAD
05AF6:  MOVFF  43F,444
05AFA:  MOVLW  1B
05AFC:  MOVWF  x45
05AFE:  MOVLB  0
05B00:  CALL   483A
05B04:  MOVLW  1B
05B06:  MOVWF  FF6
05B08:  MOVLW  02
05B0A:  MOVWF  FF7
05B0C:  MOVLW  00
05B0E:  MOVWF  FF8
05B10:  MOVLW  0D
05B12:  MOVLB  4
05B14:  MOVWF  x44
05B16:  MOVLB  0
05B18:  CALL   47DC
....................       SendDataDisplay(); 
05B1C:  CALL   3874
....................    }else if(ACiclos[i]==3){ 
05B20:  BRA    5F9C
05B22:  MOVLB  3
05B24:  CLRF   03
05B26:  MOVF   x65,W
05B28:  ADDLW  10
05B2A:  MOVWF  FE9
05B2C:  MOVLW  04
05B2E:  ADDWFC 03,W
05B30:  MOVWF  FEA
05B32:  MOVF   FEF,W
05B34:  SUBLW  03
05B36:  BNZ   5B76
....................       printf("A%u.txt=\"Termostato\"",i+1); 
05B38:  MOVLW  01
05B3A:  ADDWF  x65,W
05B3C:  MOVLB  4
05B3E:  MOVWF  x3F
05B40:  MOVLW  41
05B42:  BTFSS  F9E.4
05B44:  BRA    5B42
05B46:  MOVWF  FAD
05B48:  MOVFF  43F,444
05B4C:  MOVLW  1B
05B4E:  MOVWF  x45
05B50:  MOVLB  0
05B52:  CALL   483A
05B56:  MOVLW  2D
05B58:  MOVWF  FF6
05B5A:  MOVLW  02
05B5C:  MOVWF  FF7
05B5E:  MOVLW  00
05B60:  MOVWF  FF8
05B62:  MOVLW  11
05B64:  MOVLB  4
05B66:  MOVWF  x44
05B68:  MOVLB  0
05B6A:  CALL   47DC
....................       SendDataDisplay(); 
05B6E:  CALL   3874
....................    }else if(ACiclos[i]==4){ 
05B72:  BRA    5F9C
05B74:  MOVLB  3
05B76:  CLRF   03
05B78:  MOVF   x65,W
05B7A:  ADDLW  10
05B7C:  MOVWF  FE9
05B7E:  MOVLW  04
05B80:  ADDWFC 03,W
05B82:  MOVWF  FEA
05B84:  MOVF   FEF,W
05B86:  SUBLW  04
05B88:  BNZ   5BC8
....................       printf("A%u.txt=\"SobreT\"",i+1); 
05B8A:  MOVLW  01
05B8C:  ADDWF  x65,W
05B8E:  MOVLB  4
05B90:  MOVWF  x3F
05B92:  MOVLW  41
05B94:  BTFSS  F9E.4
05B96:  BRA    5B94
05B98:  MOVWF  FAD
05B9A:  MOVFF  43F,444
05B9E:  MOVLW  1B
05BA0:  MOVWF  x45
05BA2:  MOVLB  0
05BA4:  CALL   483A
05BA8:  MOVLW  43
05BAA:  MOVWF  FF6
05BAC:  MOVLW  02
05BAE:  MOVWF  FF7
05BB0:  MOVLW  00
05BB2:  MOVWF  FF8
05BB4:  MOVLW  0D
05BB6:  MOVLB  4
05BB8:  MOVWF  x44
05BBA:  MOVLB  0
05BBC:  CALL   47DC
....................       SendDataDisplay(); 
05BC0:  CALL   3874
....................    }else if(ACiclos[i]==5){ 
05BC4:  BRA    5F9C
05BC6:  MOVLB  3
05BC8:  CLRF   03
05BCA:  MOVF   x65,W
05BCC:  ADDLW  10
05BCE:  MOVWF  FE9
05BD0:  MOVLW  04
05BD2:  ADDWFC 03,W
05BD4:  MOVWF  FEA
05BD6:  MOVF   FEF,W
05BD8:  SUBLW  05
05BDA:  BNZ   5C1A
....................       printf("A%u.txt=\"Tiempo\"",i+1); 
05BDC:  MOVLW  01
05BDE:  ADDWF  x65,W
05BE0:  MOVLB  4
05BE2:  MOVWF  x3F
05BE4:  MOVLW  41
05BE6:  BTFSS  F9E.4
05BE8:  BRA    5BE6
05BEA:  MOVWF  FAD
05BEC:  MOVFF  43F,444
05BF0:  MOVLW  1B
05BF2:  MOVWF  x45
05BF4:  MOVLB  0
05BF6:  CALL   483A
05BFA:  MOVLW  55
05BFC:  MOVWF  FF6
05BFE:  MOVLW  02
05C00:  MOVWF  FF7
05C02:  MOVLW  00
05C04:  MOVWF  FF8
05C06:  MOVLW  0D
05C08:  MOVLB  4
05C0A:  MOVWF  x44
05C0C:  MOVLB  0
05C0E:  CALL   47DC
....................       SendDataDisplay(); 
05C12:  CALL   3874
....................    }else if(ACiclos[i]==6){ 
05C16:  BRA    5F9C
05C18:  MOVLB  3
05C1A:  CLRF   03
05C1C:  MOVF   x65,W
05C1E:  ADDLW  10
05C20:  MOVWF  FE9
05C22:  MOVLW  04
05C24:  ADDWFC 03,W
05C26:  MOVWF  FEA
05C28:  MOVF   FEF,W
05C2A:  SUBLW  06
05C2C:  BNZ   5C6C
....................       printf("A%u.txt=\"Presion\"",i+1); 
05C2E:  MOVLW  01
05C30:  ADDWF  x65,W
05C32:  MOVLB  4
05C34:  MOVWF  x3F
05C36:  MOVLW  41
05C38:  BTFSS  F9E.4
05C3A:  BRA    5C38
05C3C:  MOVWF  FAD
05C3E:  MOVFF  43F,444
05C42:  MOVLW  1B
05C44:  MOVWF  x45
05C46:  MOVLB  0
05C48:  CALL   483A
05C4C:  MOVLW  67
05C4E:  MOVWF  FF6
05C50:  MOVLW  02
05C52:  MOVWF  FF7
05C54:  MOVLW  00
05C56:  MOVWF  FF8
05C58:  MOVLW  0E
05C5A:  MOVLB  4
05C5C:  MOVWF  x44
05C5E:  MOVLB  0
05C60:  CALL   47DC
....................       SendDataDisplay(); 
05C64:  CALL   3874
....................    }else if(ACiclos[i]==7){ 
05C68:  BRA    5F9C
05C6A:  MOVLB  3
05C6C:  CLRF   03
05C6E:  MOVF   x65,W
05C70:  ADDLW  10
05C72:  MOVWF  FE9
05C74:  MOVLW  04
05C76:  ADDWFC 03,W
05C78:  MOVWF  FEA
05C7A:  MOVF   FEF,W
05C7C:  SUBLW  07
05C7E:  BNZ   5CBE
....................       printf("A%u.txt=\"ERR Ciclo\"",i+1); 
05C80:  MOVLW  01
05C82:  ADDWF  x65,W
05C84:  MOVLB  4
05C86:  MOVWF  x3F
05C88:  MOVLW  41
05C8A:  BTFSS  F9E.4
05C8C:  BRA    5C8A
05C8E:  MOVWF  FAD
05C90:  MOVFF  43F,444
05C94:  MOVLW  1B
05C96:  MOVWF  x45
05C98:  MOVLB  0
05C9A:  CALL   483A
05C9E:  MOVLW  79
05CA0:  MOVWF  FF6
05CA2:  MOVLW  02
05CA4:  MOVWF  FF7
05CA6:  MOVLW  00
05CA8:  MOVWF  FF8
05CAA:  MOVLW  10
05CAC:  MOVLB  4
05CAE:  MOVWF  x44
05CB0:  MOVLB  0
05CB2:  CALL   47DC
....................       SendDataDisplay(); 
05CB6:  CALL   3874
....................    }else if(ACiclos[i]==8){ 
05CBA:  BRA    5F9C
05CBC:  MOVLB  3
05CBE:  CLRF   03
05CC0:  MOVF   x65,W
05CC2:  ADDLW  10
05CC4:  MOVWF  FE9
05CC6:  MOVLW  04
05CC8:  ADDWFC 03,W
05CCA:  MOVWF  FEA
05CCC:  MOVF   FEF,W
05CCE:  SUBLW  08
05CD0:  BNZ   5D10
....................       printf("A%u.txt=\"Llenado\"",i+1); 
05CD2:  MOVLW  01
05CD4:  ADDWF  x65,W
05CD6:  MOVLB  4
05CD8:  MOVWF  x3F
05CDA:  MOVLW  41
05CDC:  BTFSS  F9E.4
05CDE:  BRA    5CDC
05CE0:  MOVWF  FAD
05CE2:  MOVFF  43F,444
05CE6:  MOVLW  1B
05CE8:  MOVWF  x45
05CEA:  MOVLB  0
05CEC:  CALL   483A
05CF0:  MOVLW  8D
05CF2:  MOVWF  FF6
05CF4:  MOVLW  02
05CF6:  MOVWF  FF7
05CF8:  MOVLW  00
05CFA:  MOVWF  FF8
05CFC:  MOVLW  0E
05CFE:  MOVLB  4
05D00:  MOVWF  x44
05D02:  MOVLB  0
05D04:  CALL   47DC
....................       SendDataDisplay(); 
05D08:  CALL   3874
....................    }else if(ACiclos[i]==10){ 
05D0C:  BRA    5F9C
05D0E:  MOVLB  3
05D10:  CLRF   03
05D12:  MOVF   x65,W
05D14:  ADDLW  10
05D16:  MOVWF  FE9
05D18:  MOVLW  04
05D1A:  ADDWFC 03,W
05D1C:  MOVWF  FEA
05D1E:  MOVF   FEF,W
05D20:  SUBLW  0A
05D22:  BNZ   5D62
....................       printf("A%u.txt=\"PreCalentando\"",i+1); 
05D24:  MOVLW  01
05D26:  ADDWF  x65,W
05D28:  MOVLB  4
05D2A:  MOVWF  x3F
05D2C:  MOVLW  41
05D2E:  BTFSS  F9E.4
05D30:  BRA    5D2E
05D32:  MOVWF  FAD
05D34:  MOVFF  43F,444
05D38:  MOVLW  1B
05D3A:  MOVWF  x45
05D3C:  MOVLB  0
05D3E:  CALL   483A
05D42:  MOVLW  9F
05D44:  MOVWF  FF6
05D46:  MOVLW  02
05D48:  MOVWF  FF7
05D4A:  MOVLW  00
05D4C:  MOVWF  FF8
05D4E:  MOVLW  14
05D50:  MOVLB  4
05D52:  MOVWF  x44
05D54:  MOVLB  0
05D56:  CALL   47DC
....................       SendDataDisplay(); 
05D5A:  CALL   3874
....................    }else if(ACiclos[i]==11){ 
05D5E:  BRA    5F9C
05D60:  MOVLB  3
05D62:  CLRF   03
05D64:  MOVF   x65,W
05D66:  ADDLW  10
05D68:  MOVWF  FE9
05D6A:  MOVLW  04
05D6C:  ADDWFC 03,W
05D6E:  MOVWF  FEA
05D70:  MOVF   FEF,W
05D72:  SUBLW  0B
05D74:  BNZ   5DB4
....................       printf("A%u.txt=\"Vacio\"",i+1); 
05D76:  MOVLW  01
05D78:  ADDWF  x65,W
05D7A:  MOVLB  4
05D7C:  MOVWF  x3F
05D7E:  MOVLW  41
05D80:  BTFSS  F9E.4
05D82:  BRA    5D80
05D84:  MOVWF  FAD
05D86:  MOVFF  43F,444
05D8A:  MOVLW  1B
05D8C:  MOVWF  x45
05D8E:  MOVLB  0
05D90:  CALL   483A
05D94:  MOVLW  B7
05D96:  MOVWF  FF6
05D98:  MOVLW  02
05D9A:  MOVWF  FF7
05D9C:  MOVLW  00
05D9E:  MOVWF  FF8
05DA0:  MOVLW  0C
05DA2:  MOVLB  4
05DA4:  MOVWF  x44
05DA6:  MOVLB  0
05DA8:  CALL   47DC
....................       SendDataDisplay(); 
05DAC:  CALL   3874
....................    }else if(ACiclos[i]==12){ 
05DB0:  BRA    5F9C
05DB2:  MOVLB  3
05DB4:  CLRF   03
05DB6:  MOVF   x65,W
05DB8:  ADDLW  10
05DBA:  MOVWF  FE9
05DBC:  MOVLW  04
05DBE:  ADDWFC 03,W
05DC0:  MOVWF  FEA
05DC2:  MOVF   FEF,W
05DC4:  SUBLW  0C
05DC6:  BNZ   5E06
....................       printf("A%u.txt=\"Calen\"",i+1); 
05DC8:  MOVLW  01
05DCA:  ADDWF  x65,W
05DCC:  MOVLB  4
05DCE:  MOVWF  x3F
05DD0:  MOVLW  41
05DD2:  BTFSS  F9E.4
05DD4:  BRA    5DD2
05DD6:  MOVWF  FAD
05DD8:  MOVFF  43F,444
05DDC:  MOVLW  1B
05DDE:  MOVWF  x45
05DE0:  MOVLB  0
05DE2:  CALL   483A
05DE6:  MOVLW  C7
05DE8:  MOVWF  FF6
05DEA:  MOVLW  02
05DEC:  MOVWF  FF7
05DEE:  MOVLW  00
05DF0:  MOVWF  FF8
05DF2:  MOVLW  0C
05DF4:  MOVLB  4
05DF6:  MOVWF  x44
05DF8:  MOVLB  0
05DFA:  CALL   47DC
....................       SendDataDisplay(); 
05DFE:  CALL   3874
....................    }else if(ACiclos[i]==13){ 
05E02:  BRA    5F9C
05E04:  MOVLB  3
05E06:  CLRF   03
05E08:  MOVF   x65,W
05E0A:  ADDLW  10
05E0C:  MOVWF  FE9
05E0E:  MOVLW  04
05E10:  ADDWFC 03,W
05E12:  MOVWF  FEA
05E14:  MOVF   FEF,W
05E16:  SUBLW  0D
05E18:  BNZ   5E58
....................       printf("A%u.txt=\"Desfoga\"",i+1); 
05E1A:  MOVLW  01
05E1C:  ADDWF  x65,W
05E1E:  MOVLB  4
05E20:  MOVWF  x3F
05E22:  MOVLW  41
05E24:  BTFSS  F9E.4
05E26:  BRA    5E24
05E28:  MOVWF  FAD
05E2A:  MOVFF  43F,444
05E2E:  MOVLW  1B
05E30:  MOVWF  x45
05E32:  MOVLB  0
05E34:  CALL   483A
05E38:  MOVLW  D7
05E3A:  MOVWF  FF6
05E3C:  MOVLW  02
05E3E:  MOVWF  FF7
05E40:  MOVLW  00
05E42:  MOVWF  FF8
05E44:  MOVLW  0E
05E46:  MOVLB  4
05E48:  MOVWF  x44
05E4A:  MOVLB  0
05E4C:  CALL   47DC
....................       SendDataDisplay(); 
05E50:  CALL   3874
....................    }else if(ACiclos[i]==14){ 
05E54:  BRA    5F9C
05E56:  MOVLB  3
05E58:  CLRF   03
05E5A:  MOVF   x65,W
05E5C:  ADDLW  10
05E5E:  MOVWF  FE9
05E60:  MOVLW  04
05E62:  ADDWFC 03,W
05E64:  MOVWF  FEA
05E66:  MOVF   FEF,W
05E68:  SUBLW  0E
05E6A:  BNZ   5EAA
....................       printf("A%u.txt=\"Finalizado\"",i+1); 
05E6C:  MOVLW  01
05E6E:  ADDWF  x65,W
05E70:  MOVLB  4
05E72:  MOVWF  x3F
05E74:  MOVLW  41
05E76:  BTFSS  F9E.4
05E78:  BRA    5E76
05E7A:  MOVWF  FAD
05E7C:  MOVFF  43F,444
05E80:  MOVLW  1B
05E82:  MOVWF  x45
05E84:  MOVLB  0
05E86:  CALL   483A
05E8A:  MOVLW  E9
05E8C:  MOVWF  FF6
05E8E:  MOVLW  02
05E90:  MOVWF  FF7
05E92:  MOVLW  00
05E94:  MOVWF  FF8
05E96:  MOVLW  11
05E98:  MOVLB  4
05E9A:  MOVWF  x44
05E9C:  MOVLB  0
05E9E:  CALL   47DC
....................       SendDataDisplay(); 
05EA2:  CALL   3874
....................    }else if(ACiclos[i]==15){ 
05EA6:  BRA    5F9C
05EA8:  MOVLB  3
05EAA:  CLRF   03
05EAC:  MOVF   x65,W
05EAE:  ADDLW  10
05EB0:  MOVWF  FE9
05EB2:  MOVLW  04
05EB4:  ADDWFC 03,W
05EB6:  MOVWF  FEA
05EB8:  MOVF   FEF,W
05EBA:  SUBLW  0F
05EBC:  BNZ   5EFC
....................       printf("A%u.txt=\"Secando\"",i+1); 
05EBE:  MOVLW  01
05EC0:  ADDWF  x65,W
05EC2:  MOVLB  4
05EC4:  MOVWF  x3F
05EC6:  MOVLW  41
05EC8:  BTFSS  F9E.4
05ECA:  BRA    5EC8
05ECC:  MOVWF  FAD
05ECE:  MOVFF  43F,444
05ED2:  MOVLW  1B
05ED4:  MOVWF  x45
05ED6:  MOVLB  0
05ED8:  CALL   483A
05EDC:  MOVLW  FF
05EDE:  MOVWF  FF6
05EE0:  MOVLW  02
05EE2:  MOVWF  FF7
05EE4:  MOVLW  00
05EE6:  MOVWF  FF8
05EE8:  MOVLW  0E
05EEA:  MOVLB  4
05EEC:  MOVWF  x44
05EEE:  MOVLB  0
05EF0:  CALL   47DC
....................       SendDataDisplay(); 
05EF4:  CALL   3874
....................    }else if(ACiclos[i]==16){ 
05EF8:  BRA    5F9C
05EFA:  MOVLB  3
05EFC:  CLRF   03
05EFE:  MOVF   x65,W
05F00:  ADDLW  10
05F02:  MOVWF  FE9
05F04:  MOVLW  04
05F06:  ADDWFC 03,W
05F08:  MOVWF  FEA
05F0A:  MOVF   FEF,W
05F0C:  SUBLW  10
05F0E:  BNZ   5F4E
....................       printf("A%u.txt=\"Esterilizando\"",i+1); 
05F10:  MOVLW  01
05F12:  ADDWF  x65,W
05F14:  MOVLB  4
05F16:  MOVWF  x3F
05F18:  MOVLW  41
05F1A:  BTFSS  F9E.4
05F1C:  BRA    5F1A
05F1E:  MOVWF  FAD
05F20:  MOVFF  43F,444
05F24:  MOVLW  1B
05F26:  MOVWF  x45
05F28:  MOVLB  0
05F2A:  CALL   483A
05F2E:  MOVLW  11
05F30:  MOVWF  FF6
05F32:  MOVLW  03
05F34:  MOVWF  FF7
05F36:  MOVLW  00
05F38:  MOVWF  FF8
05F3A:  MOVLW  14
05F3C:  MOVLB  4
05F3E:  MOVWF  x44
05F40:  MOVLB  0
05F42:  CALL   47DC
....................       SendDataDisplay(); 
05F46:  CALL   3874
....................    }else if(ACiclos[i]==17){ 
05F4A:  BRA    5F9C
05F4C:  MOVLB  3
05F4E:  CLRF   03
05F50:  MOVF   x65,W
05F52:  ADDLW  10
05F54:  MOVWF  FE9
05F56:  MOVLW  04
05F58:  ADDWFC 03,W
05F5A:  MOVWF  FEA
05F5C:  MOVF   FEF,W
05F5E:  SUBLW  11
05F60:  BNZ   5F9E
....................       printf("A%u.txt=\"Enfriando\"",i+1); 
05F62:  MOVLW  01
05F64:  ADDWF  x65,W
05F66:  MOVLB  4
05F68:  MOVWF  x3F
05F6A:  MOVLW  41
05F6C:  BTFSS  F9E.4
05F6E:  BRA    5F6C
05F70:  MOVWF  FAD
05F72:  MOVFF  43F,444
05F76:  MOVLW  1B
05F78:  MOVWF  x45
05F7A:  MOVLB  0
05F7C:  CALL   483A
05F80:  MOVLW  29
05F82:  MOVWF  FF6
05F84:  MOVLW  03
05F86:  MOVWF  FF7
05F88:  MOVLW  00
05F8A:  MOVWF  FF8
05F8C:  MOVLW  10
05F8E:  MOVLB  4
05F90:  MOVWF  x44
05F92:  MOVLB  0
05F94:  CALL   47DC
....................       SendDataDisplay(); 
05F98:  CALL   3874
05F9C:  MOVLB  3
....................    } 
.................... } 
05F9E:  MOVLB  0
05FA0:  GOTO   B978 (RETURN)
....................  
....................  
....................  
.................... #int_rda HIGH 
.................... void serial_rx_isr(){ 
....................  
....................    Dato2=fgetc(); 
*
0033A:  BTFSS  F9E.5
0033C:  BRA    033A
0033E:  MOVFF  FAE,360
00342:  MOVLB  3
....................    if(Dato2==0x65){//Inicio Comunicacion 
00344:  MOVF   x60,W
00346:  SUBLW  65
00348:  BNZ   0350
....................       Inicio=1; 
0034A:  MOVLW  01
0034C:  MOVWF  x5E
....................       RX_Wr_Index =0; 
0034E:  CLRF   46
....................    } 
....................    //Inicio=1; 
....................    if(Inicio==1){ 
00350:  DECFSZ x5E,W
00352:  BRA    0368
....................       Rx_Buffer2[RX_Wr_Index] = Dato2; 
00354:  CLRF   03
00356:  MOVF   46,W
00358:  ADDLW  3B
0035A:  MOVWF  FE9
0035C:  MOVLW  00
0035E:  ADDWFC 03,W
00360:  MOVWF  FEA
00362:  MOVFF  360,FEF
....................       RX_Wr_Index++; 
00366:  INCF   46,F
....................    } 
....................    if(RX_Wr_Index >= RX_BUFFER_SIZE){ 
00368:  MOVF   46,W
0036A:  SUBLW  09
0036C:  BC    0372
....................       RX_Wr_Index =0; 
0036E:  CLRF   46
....................       Inicio=0; 
00370:  CLRF   x5E
....................    } 
....................  
....................    if(RX_Wr_Index==0){ 
00372:  MOVF   46,F
00374:  BNZ   0396
....................       if(Rx_Buffer2[0]==0x65 && Rx_Buffer2[1]==0xff && Rx_Buffer2[2]==0xff && Rx_Buffer2[8]==0x00 && Rx_Buffer2[9]==0xff ){ 
00376:  MOVF   3B,W
00378:  SUBLW  65
0037A:  BNZ   0392
0037C:  INCFSZ 3C,W
0037E:  BRA    0392
00380:  INCFSZ 3D,W
00382:  BRA    0392
00384:  MOVF   43,F
00386:  BNZ   0392
00388:  INCFSZ 44,W
0038A:  BRA    0392
....................          Dato_Exitoso=5; 
0038C:  MOVLW  05
0038E:  MOVWF  x5F
....................       }else{ 
00390:  BRA    0396
....................          Dato_Exitoso=10; 
00392:  MOVLW  0A
00394:  MOVWF  x5F
....................       } 
....................    } 
....................    //Dato_Exitoso=5; 
....................    if(Menu==20) 
00396:  MOVF   x62,W
00398:  SUBLW  14
0039A:  BNZ   03A0
....................      Buzzer_on; 
0039C:  BSF    F8C.0
0039E:  BCF    F95.0
.................... } 
....................  
003A0:  BCF    F9E.5
003A2:  MOVLB  0
003A4:  GOTO   010A
.................... #int_TIMER0 
.................... void temp0s(void){ 
....................    set_timer0(0); 
003A8:  CLRF   FD7
003AA:  CLRF   FD6
....................    t_exhaust++; 
003AC:  MOVLB  3
003AE:  INCF   x94,F
003B0:  BTFSC  FD8.2
003B2:  INCF   x95,F
....................    if(DesfogueSuave){ 
003B4:  MOVLB  0
003B6:  BTFSS  xA0.6
003B8:  BRA    03FA
....................       if(Nivel<6){ 
003BA:  MOVLB  3
003BC:  MOVF   x7A,F
003BE:  BNZ   03F4
003C0:  MOVF   x79,W
003C2:  SUBLW  05
003C4:  BNC   03F4
....................          if(t_exhaust<=NivelSeleccionado) // Si el tiempo es menor o igual al tiempo de control se enciende la resistencia de lo contrario se apaga. 
003C6:  MOVF   x95,W
003C8:  SUBWF  x84,W
003CA:  BNC   03DA
003CC:  BNZ   03D4
003CE:  MOVF   x94,W
003D0:  SUBWF  x83,W
003D2:  BNC   03DA
....................             Desfogue_on; 
003D4:  BSF    F8C.4
003D6:  BCF    F95.4
....................          else             
003D8:  BRA    03DE
....................             Desfogue_off; 
003DA:  BCF    F8C.4
003DC:  BCF    F95.4
....................        
....................          if(t_exhaust>=60000) // Si el tiempo de control es mayor al tiempo de ciclo se reinicia tiempo de control          
003DE:  MOVF   x95,W
003E0:  SUBLW  E9
003E2:  BC    03F2
003E4:  XORLW  FF
003E6:  BNZ   03EE
003E8:  MOVF   x94,W
003EA:  SUBLW  5F
003EC:  BC    03F2
....................             t_exhaust=0; // tiempoctrl incrementa una unidad cada Xms, por eso se dividen los tiempos por 0.005. 
003EE:  CLRF   x95
003F0:  CLRF   x94
....................       }else{ 
003F2:  BRA    03F8
....................          Desfogue_on; 
003F4:  BSF    F8C.4
003F6:  BCF    F95.4
003F8:  MOVLB  0
....................       } 
....................    }   
.................... } 
....................  
003FA:  BCF    FF2.2
003FC:  GOTO   0074
.................... #int_TIMER1 
.................... void temp1s(void){ 
....................    set_timer1(40536); // Se repite cada 5ms 
00400:  MOVLW  9E
00402:  MOVWF  FCF
00404:  MOVLW  58
00406:  MOVWF  FCE
....................    tiempos++; 
00408:  MOVLB  3
0040A:  INCF   x71,F
0040C:  BTFSC  FD8.2
0040E:  INCF   x72,F
....................    tiempos2++; 
00410:  INCF   x73,F
00412:  BTFSC  FD8.2
00414:  INCF   x74,F
....................    tiempos3++; 
00416:  INCF   x75,F
00418:  BTFSC  FD8.2
0041A:  INCF   x76,F
....................    tiempoctrl++; 
0041C:  INCF   x77,F
0041E:  BTFSC  FD8.2
00420:  INCF   x78,F
....................     
....................    if(flagAlarma) 
00422:  MOVLB  0
00424:  BTFSS  xA2.7
00426:  BRA    0432
....................       tbuzzer++; 
00428:  MOVLB  3
0042A:  INCF   x96,F
0042C:  BTFSC  FD8.2
0042E:  INCF   x97,F
00430:  MOVLB  0
....................        
....................    if(flagSilencio)    
00432:  BTFSS  xA3.2
00434:  BRA    043E
....................       tsilencio++; 
00436:  MOVLB  3
00438:  INCF   x98,F
0043A:  BTFSC  FD8.2
0043C:  INCF   x99,F
....................     
....................    if(Controlando==1){ 
0043E:  MOVLB  3
00440:  DECFSZ x5A,W
00442:  BRA    0480
....................       if(tiempoctrl<Tp) // Si el tiempo es menor o igual al tiempo de control se enciende la resistencia de lo contrario se apaga. 
00444:  MOVF   x78,W
00446:  MOVLB  0
00448:  SUBWF  xAC,W
0044A:  BNC   0464
0044C:  BNZ   045E
0044E:  MOVF   xAB,W
00450:  MOVLB  3
00452:  SUBWF  x77,W
00454:  BTFSS  FD8.0
00456:  BRA    045C
00458:  MOVLB  0
0045A:  BRA    0464
0045C:  MOVLB  0
....................          SSR_on; 
0045E:  BCF    F8B.2
00460:  BCF    F94.2
....................       else          
00462:  BRA    0468
....................          SSR_off; 
00464:  BSF    F8B.2
00466:  BCF    F94.2
....................              
....................       if(tiempoctrl>=Tc) // Si el tiempo de control es mayor al tiempo de ciclo se reinicia tiempo de control 
00468:  MOVF   xAE,W
0046A:  MOVLB  3
0046C:  SUBWF  x78,W
0046E:  BNC   0480
00470:  BNZ   047C
00472:  MOVLB  0
00474:  MOVF   xAD,W
00476:  MOVLB  3
00478:  SUBWF  x77,W
0047A:  BNC   0480
....................          tiempoctrl=0;// tiempoctrl incrementa una unidad cada 5ms, por eso se dividen los tiempos por 0.005. 
0047C:  CLRF   x78
0047E:  CLRF   x77
....................    } 
....................     
....................    if(tiempos>=200)  // 12000 para que incremente cada minuto, 200para que incremente cada segundo. 
00480:  MOVF   x72,F
00482:  BNZ   048C
00484:  MOVF   x71,W
00486:  SUBLW  C7
00488:  BTFSC  FD8.0
0048A:  BRA    05C6
....................    { 
....................       if(flagTC) 
0048C:  MOVLB  0
0048E:  BTFSS  xA4.7
00490:  BRA    0496
....................          TiempoControl++; 
00492:  MOVLB  3
00494:  INCF   x91,F
....................        
....................       tiemporecta++; 
00496:  MOVLB  3
00498:  INCF   x59,F
....................        
....................       if(IniciaCiclo && tiempoImpresion<CalculoImpresion){ 
0049A:  MOVLB  0
0049C:  BTFSS  xA0.1
0049E:  BRA    04B2
004A0:  MOVLB  3
004A2:  MOVF   x5D,W
004A4:  SUBWF  x70,W
004A6:  BTFSS  FD8.0
004A8:  BRA    04AE
004AA:  MOVLB  0
004AC:  BRA    04B2
....................          tiempoImpresion++; 
004AE:  INCF   x70,F
....................       }else if(tiempoImpresion>=CalculoImpresion){ 
004B0:  BRA    04BE
004B2:  MOVLB  3
004B4:  MOVF   x5D,W
004B6:  SUBWF  x70,W
004B8:  BNC   04BE
....................          flagImprime=1; 
004BA:  BSF    x57.0
....................          tiempoImpresion=0; 
004BC:  CLRF   x70
....................       } 
....................        
....................       if(purga) 
004BE:  MOVLB  0
004C0:  BTFSS  xA3.6
004C2:  BRA    04CE
....................          tPurgaAire++; 
004C4:  MOVLB  3
004C6:  INCF   x9C,F
004C8:  BTFSC  FD8.2
004CA:  INCF   x9D,F
004CC:  MOVLB  0
....................        
....................       if(IniciaCiclo && !Esterilizando){ 
004CE:  BTFSS  xA0.1
004D0:  BRA    04E6
004D2:  BTFSC  xA0.2
004D4:  BRA    04E6
....................          TiempoCiclo++; 
004D6:  INCF   xA5,F
004D8:  BTFSC  FD8.2
004DA:  INCF   xA6,F
....................          tiempoAgua++; 
004DC:  MOVLB  3
004DE:  INCF   x9A,F
004E0:  BTFSC  FD8.2
004E2:  INCF   x9B,F
004E4:  MOVLB  0
....................       } 
....................        
....................       if(IniciaLlenado && !CalderinLleno){ 
004E6:  BTFSS  x9F.7
004E8:  BRA    04F4
004EA:  BTFSC  xA0.0
004EC:  BRA    04F4
....................          TiempoLlenado++; 
004EE:  INCF   xA7,F
004F0:  BTFSC  FD8.2
004F2:  INCF   xA8,F
....................       } 
....................        
....................       if(SensadoNivel){ 
004F4:  BTFSS  xA0.4
004F6:  BRA    04FE
....................          TiempoSensadoNivel++; 
004F8:  INCF   xA9,F
004FA:  BTFSC  FD8.2
004FC:  INCF   xAA,F
....................       } 
....................        
....................       if(guardaCiclo) 
004FE:  BTFSS  xA4.2
00500:  BRA    0508
....................          tguarda++;  
00502:  INCF   xAF,F
00504:  BTFSC  FD8.2
00506:  INCF   xB0,F
....................        
....................       tiempos=0;Lectura=1;tinicio++; 
00508:  MOVLB  3
0050A:  CLRF   x72
0050C:  CLRF   x71
0050E:  MOVLB  0
00510:  BSF    xA4.4
00512:  MOVLB  3
00514:  INCF   x7B,F
00516:  BTFSC  FD8.2
00518:  INCF   x7C,F
....................     
....................       if(Esterilizando && !Desfogando){                
0051A:  MOVLB  0
0051C:  BTFSS  xA0.2
0051E:  BRA    0572
00520:  BTFSC  xA0.5
00522:  BRA    0572
....................          if(Testerilizacion[0]>0){ 
00524:  BTFSC  xB1.7
00526:  BRA    0532
00528:  MOVF   xB1,W
0052A:  SUBLW  00
0052C:  BC    0532
....................             Testerilizacion[0]--; 
0052E:  DECF   xB1,F
....................          }else if(Testerilizacion[1]>0){ 
00530:  BRA    0572
00532:  BTFSC  xB2.7
00534:  BRA    0544
00536:  MOVF   xB2,W
00538:  SUBLW  00
0053A:  BC    0544
....................             Testerilizacion[1]--; 
0053C:  DECF   xB2,F
....................             Testerilizacion[0]=9; 
0053E:  MOVLW  09
00540:  MOVWF  xB1
....................          }else if(Testerilizacion[2]>0){ 
00542:  BRA    0572
00544:  BTFSC  xB3.7
00546:  BRA    055A
00548:  MOVF   xB3,W
0054A:  SUBLW  00
0054C:  BC    055A
....................             Testerilizacion[2]--; 
0054E:  DECF   xB3,F
....................             Testerilizacion[1]=5; 
00550:  MOVLW  05
00552:  MOVWF  xB2
....................             Testerilizacion[0]=9; 
00554:  MOVLW  09
00556:  MOVWF  xB1
....................          }else if(Testerilizacion[3]>0){ 
00558:  BRA    0572
0055A:  BTFSC  xB4.7
0055C:  BRA    0572
0055E:  MOVF   xB4,W
00560:  SUBLW  00
00562:  BC    0572
....................             Testerilizacion[3]--; 
00564:  DECF   xB4,F
....................             Testerilizacion[2]=9; 
00566:  MOVLW  09
00568:  MOVWF  xB3
....................             Testerilizacion[1]=5; 
0056A:  MOVLW  05
0056C:  MOVWF  xB2
....................             Testerilizacion[0]=9; 
0056E:  MOVLW  09
00570:  MOVWF  xB1
....................          } 
....................       } 
....................        
....................       if(Secando){ 
00572:  BTFSS  xA0.3
00574:  BRA    05C4
....................          if(Tsecado[0]>0){ 
00576:  BTFSC  xBB.7
00578:  BRA    0584
0057A:  MOVF   xBB,W
0057C:  SUBLW  00
0057E:  BC    0584
....................             Tsecado[0]--; 
00580:  DECF   xBB,F
....................          }else if(Tsecado[1]>0){ 
00582:  BRA    05C4
00584:  BTFSC  xBC.7
00586:  BRA    0596
00588:  MOVF   xBC,W
0058A:  SUBLW  00
0058C:  BC    0596
....................             Tsecado[1]--; 
0058E:  DECF   xBC,F
....................             Tsecado[0]=9; 
00590:  MOVLW  09
00592:  MOVWF  xBB
....................          }else if(Tsecado[2]>0){ 
00594:  BRA    05C4
00596:  BTFSC  xBD.7
00598:  BRA    05AC
0059A:  MOVF   xBD,W
0059C:  SUBLW  00
0059E:  BC    05AC
....................             Tsecado[2]--; 
005A0:  DECF   xBD,F
....................             Tsecado[1]=5; 
005A2:  MOVLW  05
005A4:  MOVWF  xBC
....................             Tsecado[0]=9; 
005A6:  MOVLW  09
005A8:  MOVWF  xBB
....................          }else if(Tsecado[3]>0){ 
005AA:  BRA    05C4
005AC:  BTFSC  xBE.7
005AE:  BRA    05C4
005B0:  MOVF   xBE,W
005B2:  SUBLW  00
005B4:  BC    05C4
....................             Tsecado[3]--; 
005B6:  DECF   xBE,F
....................             Tsecado[2]=9; 
005B8:  MOVLW  09
005BA:  MOVWF  xBD
....................             Tsecado[1]=5; 
005BC:  MOVLW  05
005BE:  MOVWF  xBC
....................             Tsecado[0]=9; 
005C0:  MOVLW  09
005C2:  MOVWF  xBB
005C4:  MOVLB  3
....................          } 
....................       } 
....................    } 
.................... } 
....................  
005C6:  BCF    F9E.0
005C8:  MOVLB  0
005CA:  GOTO   0074
.................... void main() 
.................... { 
*
06B14:  CLRF   FF8
06B16:  BCF    FF1.2
06B18:  BCF    F9F.0
06B1A:  BSF    F9F.5
06B1C:  BSF    FD0.7
06B1E:  BSF    07.7
06B20:  CLRF   FEA
06B22:  CLRF   FE9
06B24:  BSF    FB8.3
06B26:  MOVLW  08
06B28:  MOVWF  FAF
06B2A:  MOVLW  02
06B2C:  MOVWF  FB0
06B2E:  MOVLW  A6
06B30:  MOVWF  FAC
06B32:  MOVLW  90
06B34:  MOVWF  FAB
06B36:  CLRF   46
06B38:  CLRF   47
06B3A:  CLRF   48
06B3C:  CLRF   x62
06B3E:  CLRF   x63
06B40:  CLRF   x84
06B42:  CLRF   x85
06B44:  CLRF   x86
06B46:  BCF    x9F.0
06B48:  BCF    x9F.1
06B4A:  BCF    x9F.2
06B4C:  BCF    x9F.3
06B4E:  BCF    x9F.4
06B50:  BCF    x9F.5
06B52:  BCF    x9F.6
06B54:  BCF    x9F.7
06B56:  BCF    xA0.0
06B58:  BCF    xA0.1
06B5A:  BCF    xA0.2
06B5C:  BCF    xA0.3
06B5E:  BCF    xA0.4
06B60:  BCF    xA0.5
06B62:  BCF    xA0.6
06B64:  BCF    xA0.7
06B66:  BCF    xA1.0
06B68:  BCF    xA1.1
06B6A:  BCF    xA1.2
06B6C:  BCF    xA1.3
06B6E:  BCF    xA1.4
06B70:  BCF    xA1.5
06B72:  BCF    xA1.6
06B74:  BCF    xA1.7
06B76:  BCF    xA2.0
06B78:  BCF    xA2.1
06B7A:  BCF    xA2.2
06B7C:  BCF    xA2.3
06B7E:  BCF    xA2.4
06B80:  BCF    xA2.5
06B82:  BCF    xA2.6
06B84:  BCF    xA2.7
06B86:  BCF    xA3.0
06B88:  BCF    xA3.1
06B8A:  BCF    xA3.2
06B8C:  BCF    xA3.3
06B8E:  BCF    xA3.4
06B90:  BCF    xA3.5
06B92:  BCF    xA3.6
06B94:  BCF    xA3.7
06B96:  BCF    xA4.0
06B98:  BCF    xA4.1
06B9A:  BCF    xA4.2
06B9C:  CLRF   xA6
06B9E:  CLRF   xA5
06BA0:  CLRF   xA8
06BA2:  CLRF   xA7
06BA4:  CLRF   xAA
06BA6:  CLRF   xA9
06BA8:  CLRF   xAC
06BAA:  CLRF   xAB
06BAC:  CLRF   xAE
06BAE:  CLRF   xAD
06BB0:  CLRF   xB0
06BB2:  CLRF   xAF
06BB4:  MOVLW  9A
06BB6:  MOVLB  2
06BB8:  MOVWF  xA6
06BBA:  MOVLW  99
06BBC:  MOVWF  xA5
06BBE:  MOVLW  0D
06BC0:  MOVWF  xA4
06BC2:  MOVLW  86
06BC4:  MOVWF  xA3
06BC6:  CLRF   xAA
06BC8:  CLRF   xA9
06BCA:  CLRF   xA8
06BCC:  MOVLW  7E
06BCE:  MOVWF  xA7
06BD0:  CLRF   xAE
06BD2:  CLRF   xAD
06BD4:  CLRF   xAC
06BD6:  CLRF   xAB
06BD8:  CLRF   xB2
06BDA:  CLRF   xB1
06BDC:  MOVLW  48
06BDE:  MOVWF  xB0
06BE0:  MOVLW  85
06BE2:  MOVWF  xAF
06BE4:  CLRF   xB6
06BE6:  MOVLW  90
06BE8:  MOVWF  xB5
06BEA:  MOVLW  53
06BEC:  MOVWF  xB4
06BEE:  MOVLW  8B
06BF0:  MOVWF  xB3
06BF2:  CLRF   xCA
06BF4:  CLRF   xC9
06BF6:  CLRF   xC8
06BF8:  CLRF   xC7
06BFA:  CLRF   xCE
06BFC:  CLRF   xCD
06BFE:  CLRF   xCC
06C00:  CLRF   xCB
06C02:  CLRF   xD2
06C04:  CLRF   xD1
06C06:  CLRF   xD0
06C08:  CLRF   xCF
06C0A:  CLRF   xD6
06C0C:  CLRF   xD5
06C0E:  CLRF   xD4
06C10:  CLRF   xD3
06C12:  CLRF   xD7
06C14:  CLRF   xD8
06C16:  CLRF   xD9
06C18:  CLRF   xDA
06C1A:  MOVLW  14
06C1C:  MOVWF  xDB
06C1E:  CLRF   xDC
06C20:  CLRF   xDD
06C22:  CLRF   xDE
06C24:  CLRF   xDF
06C26:  CLRF   xE0
06C28:  CLRF   xE1
06C2A:  CLRF   xE2
06C2C:  CLRF   xE3
06C2E:  CLRF   xE4
06C30:  CLRF   xE5
06C32:  CLRF   xE6
06C34:  CLRF   xE7
06C36:  CLRF   xEB
06C38:  CLRF   xEA
06C3A:  CLRF   xE9
06C3C:  CLRF   xE8
06C3E:  CLRF   xF3
06C40:  CLRF   xF2
06C42:  MOVLW  20
06C44:  MOVWF  xF1
06C46:  MOVLW  82
06C48:  MOVWF  xF0
06C4A:  CLRF   xF7
06C4C:  CLRF   xF6
06C4E:  CLRF   xF5
06C50:  CLRF   xF4
06C52:  CLRF   xFB
06C54:  CLRF   xFA
06C56:  CLRF   xF9
06C58:  CLRF   xF8
06C5A:  CLRF   xFF
06C5C:  CLRF   xFE
06C5E:  CLRF   xFD
06C60:  CLRF   xFC
06C62:  MOVLB  3
06C64:  CLRF   x03
06C66:  CLRF   x02
06C68:  CLRF   x01
06C6A:  CLRF   x00
06C6C:  CLRF   x07
06C6E:  CLRF   x06
06C70:  CLRF   x05
06C72:  CLRF   x04
06C74:  CLRF   x0B
06C76:  CLRF   x0A
06C78:  MOVLW  48
06C7A:  MOVWF  x09
06C7C:  MOVLW  83
06C7E:  MOVWF  x08
06C80:  CLRF   x0F
06C82:  CLRF   x0E
06C84:  MOVLW  20
06C86:  MOVWF  x0D
06C88:  MOVLW  83
06C8A:  MOVWF  x0C
06C8C:  MOVLW  9A
06C8E:  MOVWF  x13
06C90:  MOVLW  99
06C92:  MOVWF  x12
06C94:  MOVLW  19
06C96:  MOVWF  x11
06C98:  MOVLW  7F
06C9A:  MOVWF  x10
06C9C:  CLRF   x17
06C9E:  CLRF   x16
06CA0:  CLRF   x15
06CA2:  CLRF   x14
06CA4:  CLRF   x1B
06CA6:  CLRF   x1A
06CA8:  CLRF   x19
06CAA:  CLRF   x18
06CAC:  CLRF   x1F
06CAE:  CLRF   x1E
06CB0:  CLRF   x1D
06CB2:  CLRF   x1C
06CB4:  CLRF   x23
06CB6:  CLRF   x22
06CB8:  CLRF   x21
06CBA:  CLRF   x20
06CBC:  CLRF   x27
06CBE:  CLRF   x26
06CC0:  CLRF   x25
06CC2:  CLRF   x24
06CC4:  CLRF   x2B
06CC6:  CLRF   x2A
06CC8:  CLRF   x29
06CCA:  CLRF   x28
06CCC:  MOVLW  4A
06CCE:  MOVWF  x2F
06CD0:  MOVLW  88
06CD2:  MOVWF  x2E
06CD4:  MOVLW  28
06CD6:  MOVWF  x2D
06CD8:  MOVLW  75
06CDA:  MOVWF  x2C
06CDC:  CLRF   x33
06CDE:  CLRF   x32
06CE0:  CLRF   x31
06CE2:  CLRF   x30
06CE4:  MOVLW  E0
06CE6:  MOVWF  x37
06CE8:  MOVLW  2D
06CEA:  MOVWF  x36
06CEC:  MOVLW  10
06CEE:  MOVWF  x35
06CF0:  MOVLW  75
06CF2:  MOVWF  x34
06CF4:  MOVLW  FF
06CF6:  MOVWF  x3B
06CF8:  MOVLW  21
06CFA:  MOVWF  x3A
06CFC:  MOVLW  15
06CFE:  MOVWF  x39
06D00:  MOVLW  80
06D02:  MOVWF  x38
06D04:  MOVLW  82
06D06:  MOVWF  x3F
06D08:  MOVLW  12
06D0A:  MOVWF  x3E
06D0C:  MOVLW  F4
06D0E:  MOVWF  x3D
06D10:  MOVLW  86
06D12:  MOVWF  x3C
06D14:  CLRF   x40
06D16:  CLRF   x41
06D18:  CLRF   x42
06D1A:  MOVLW  B5
06D1C:  MOVWF  x46
06D1E:  MOVLW  EB
06D20:  MOVWF  x45
06D22:  MOVLW  1B
06D24:  MOVWF  x44
06D26:  MOVLW  6B
06D28:  MOVWF  x43
06D2A:  MOVLW  D0
06D2C:  MOVWF  x4A
06D2E:  MOVLW  9B
06D30:  MOVWF  x49
06D32:  MOVLW  8A
06D34:  MOVWF  x48
06D36:  MOVLW  75
06D38:  MOVWF  x47
06D3A:  MOVLW  1A
06D3C:  MOVWF  x4E
06D3E:  MOVLW  DD
06D40:  MOVWF  x4D
06D42:  MOVLW  61
06D44:  MOVWF  x4C
06D46:  MOVLW  7D
06D48:  MOVWF  x4B
06D4A:  MOVLW  04
06D4C:  MOVWF  x52
06D4E:  MOVLW  16
06D50:  MOVWF  x51
06D52:  MOVLW  02
06D54:  MOVWF  x50
06D56:  MOVLW  85
06D58:  MOVWF  x4F
06D5A:  CLRF   x56
06D5C:  CLRF   x55
06D5E:  CLRF   x54
06D60:  CLRF   x53
06D62:  MOVLB  0
06D64:  BCF    xA4.3
06D66:  BCF    xA4.4
06D68:  BCF    xA4.5
06D6A:  BCF    xA4.6
06D6C:  BCF    xA4.7
06D6E:  MOVLB  3
06D70:  BCF    x57.0
06D72:  BCF    x57.1
06D74:  CLRF   x58
06D76:  CLRF   x59
06D78:  CLRF   x5A
06D7A:  MOVLW  01
06D7C:  MOVWF  x5B
06D7E:  MOVLW  02
06D80:  MOVWF  x5C
06D82:  CLRF   x5D
06D84:  MOVLW  01
06D86:  MOVWF  x5E
06D88:  CLRF   x5F
06D8A:  CLRF   x60
06D8C:  CLRF   x61
06D8E:  CLRF   x62
06D90:  CLRF   x63
06D92:  MOVLW  F0
06D94:  MOVWF  x64
06D96:  CLRF   x65
06D98:  CLRF   x66
06D9A:  CLRF   x67
06D9C:  CLRF   x68
06D9E:  CLRF   x69
06DA0:  CLRF   x6A
06DA2:  CLRF   x6B
06DA4:  MOVLW  01
06DA6:  MOVWF  x6C
06DA8:  MOVWF  x6D
06DAA:  CLRF   x6E
06DAC:  CLRF   x6F
06DAE:  CLRF   x70
06DB0:  CLRF   x72
06DB2:  CLRF   x71
06DB4:  CLRF   x74
06DB6:  CLRF   x73
06DB8:  CLRF   x76
06DBA:  CLRF   x75
06DBC:  CLRF   x78
06DBE:  CLRF   x77
06DC0:  CLRF   x7A
06DC2:  CLRF   x79
06DC4:  CLRF   x7C
06DC6:  CLRF   x7B
06DC8:  CLRF   x7E
06DCA:  CLRF   x7D
06DCC:  CLRF   x80
06DCE:  CLRF   x7F
06DD0:  CLRF   x82
06DD2:  CLRF   x81
06DD4:  CLRF   x84
06DD6:  CLRF   x83
06DD8:  CLRF   x8D
06DDA:  CLRF   x8E
06DDC:  CLRF   x8F
06DDE:  CLRF   x90
06DE0:  CLRF   x91
06DE2:  CLRF   x92
06DE4:  CLRF   x93
06DE6:  CLRF   x95
06DE8:  CLRF   x94
06DEA:  CLRF   x97
06DEC:  CLRF   x96
06DEE:  CLRF   x99
06DF0:  CLRF   x98
06DF2:  CLRF   x9B
06DF4:  CLRF   x9A
06DF6:  CLRF   x9D
06DF8:  CLRF   x9C
06DFA:  MOVLW  12
06DFC:  MOVWF  x9E
06DFE:  MOVLW  09
06E00:  MOVWF  x9F
06E02:  MOVLW  0D
06E04:  MOVWF  xA0
06E06:  CLRF   xA1
06E08:  CLRF   xA2
06E0A:  CLRF   xA3
06E0C:  CLRF   xA4
06E0E:  CLRF   xA5
06E10:  CLRF   xA6
06E12:  CLRF   xA7
06E14:  CLRF   xA8
06E16:  CLRF   xA9
06E18:  CLRF   xAA
06E1A:  CLRF   xAB
06E1C:  CLRF   xAC
06E1E:  CLRF   xAD
06E20:  MOVLW  48
06E22:  MOVWF  xAE
06E24:  CLRF   xAF
06E26:  CLRF   xB0
06E28:  CLRF   xB1
06E2A:  CLRF   xB2
06E2C:  CLRF   xC5
06E2E:  CLRF   xC6
06E30:  CLRF   xC7
06E32:  CLRF   xC8
06E34:  CLRF   xC9
06E36:  MOVF   FC1,W
06E38:  ANDLW  C0
06E3A:  IORLW  0F
06E3C:  MOVWF  FC1
06E3E:  MOVLW  07
06E40:  MOVWF  FB4
06E42:  CLRF   2A
06E44:  CLRF   2B
06E46:  MOVLB  0
06E48:  CLRF   x87
06E4A:  MOVLW  03
06E4C:  MOVWF  x88
06E4E:  MOVWF  x89
06E50:  MOVLW  06
06E52:  MOVWF  x8A
06E54:  MOVLW  01
06E56:  MOVWF  x8B
06E58:  MOVLW  04
06E5A:  MOVWF  x8C
06E5C:  MOVLW  06
06E5E:  MOVWF  x8D
06E60:  MOVLW  02
06E62:  MOVWF  x8E
06E64:  MOVLW  05
06E66:  MOVWF  x8F
06E68:  CLRF   x90
06E6A:  MOVLW  03
06E6C:  MOVWF  x91
06E6E:  MOVLW  05
06E70:  MOVWF  x92
06E72:  CLRF   x93
06E74:  MOVLW  03
06E76:  MOVWF  x94
06E78:  MOVLW  04
06E7A:  MOVWF  x95
06E7C:  CLRF   x96
06E7E:  MOVLW  02
06E80:  MOVWF  x97
06E82:  MOVLW  05
06E84:  MOVWF  x98
06E86:  CLRF   x99
06E88:  MOVLW  03
06E8A:  MOVWF  x9A
06E8C:  MOVLW  06
06E8E:  MOVWF  x9B
06E90:  MOVLW  01
06E92:  MOVWF  x9C
06E94:  MOVLW  04
06E96:  MOVWF  x9D
06E98:  MOVLW  06
06E9A:  MOVWF  x9E
06E9C:  CLRF   xB1
06E9E:  CLRF   xB2
06EA0:  CLRF   xB3
06EA2:  CLRF   xB4
06EA4:  CLRF   xB5
06EA6:  CLRF   xB6
06EA8:  CLRF   xB7
06EAA:  CLRF   xB8
06EAC:  CLRF   xB9
06EAE:  CLRF   xBA
06EB0:  CLRF   xBB
06EB2:  CLRF   xBC
06EB4:  CLRF   xBD
06EB6:  CLRF   xBE
06EB8:  CLRF   xBF
06EBA:  CLRF   xC0
06EBC:  CLRF   xC1
06EBE:  CLRF   xC2
06EC0:  CLRF   xC3
06EC2:  CLRF   xC4
06EC4:  CLRF   xC5
06EC6:  CLRF   xC6
06EC8:  CLRF   xC7
06ECA:  CLRF   xC8
06ECC:  CLRF   xC9
06ECE:  CLRF   xCA
06ED0:  CLRF   xCB
06ED2:  CLRF   xCC
06ED4:  CLRF   xCD
06ED6:  CLRF   xCE
06ED8:  CLRF   xCF
06EDA:  CLRF   xD0
06EDC:  CLRF   xD1
06EDE:  CLRF   xD2
06EE0:  CLRF   xD3
06EE2:  CLRF   xD4
06EE4:  CLRF   xD5
06EE6:  CLRF   xD6
06EE8:  CLRF   xD7
06EEA:  CLRF   xD8
06EEC:  CLRF   xD9
06EEE:  CLRF   xDA
06EF0:  CLRF   xDB
06EF2:  CLRF   xDC
06EF4:  CLRF   xDD
06EF6:  CLRF   xDE
06EF8:  CLRF   xDF
06EFA:  CLRF   xE0
06EFC:  CLRF   xE1
06EFE:  CLRF   xE2
06F00:  CLRF   xE3
06F02:  CLRF   xE4
06F04:  CLRF   xE5
06F06:  CLRF   xE6
06F08:  CLRF   xE7
06F0A:  CLRF   xE8
06F0C:  CLRF   xE9
06F0E:  CLRF   xEA
06F10:  CLRF   xEB
06F12:  CLRF   xEC
06F14:  CLRF   xED
06F16:  CLRF   xEE
06F18:  CLRF   xEF
06F1A:  CLRF   xF0
06F1C:  CLRF   xF1
06F1E:  CLRF   xF2
06F20:  CLRF   xF3
06F22:  CLRF   xF4
06F24:  CLRF   xF5
06F26:  CLRF   xF6
06F28:  CLRF   xF7
06F2A:  CLRF   xF8
06F2C:  CLRF   xF9
06F2E:  CLRF   xFA
06F30:  CLRF   xFB
06F32:  CLRF   xFC
06F34:  CLRF   xFD
06F36:  CLRF   xFE
06F38:  CLRF   xFF
06F3A:  MOVLB  1
06F3C:  CLRF   x00
06F3E:  CLRF   x01
06F40:  CLRF   x02
06F42:  CLRF   x03
06F44:  CLRF   x04
06F46:  CLRF   x05
06F48:  CLRF   x06
06F4A:  CLRF   x07
06F4C:  CLRF   x08
06F4E:  CLRF   x09
06F50:  CLRF   x0A
06F52:  CLRF   x0B
06F54:  CLRF   x0C
06F56:  CLRF   x0D
06F58:  CLRF   x0E
06F5A:  CLRF   x0F
06F5C:  CLRF   x10
06F5E:  CLRF   x11
06F60:  CLRF   x12
06F62:  CLRF   x13
06F64:  CLRF   x14
06F66:  CLRF   x15
06F68:  CLRF   x16
06F6A:  CLRF   x17
06F6C:  CLRF   x18
06F6E:  CLRF   x19
06F70:  CLRF   x1A
06F72:  CLRF   x1B
06F74:  CLRF   x1C
06F76:  CLRF   x1D
06F78:  CLRF   x1E
06F7A:  CLRF   x1F
06F7C:  CLRF   x20
06F7E:  CLRF   x21
06F80:  CLRF   x22
06F82:  CLRF   x23
06F84:  CLRF   x24
06F86:  CLRF   x25
06F88:  CLRF   x26
06F8A:  CLRF   x27
06F8C:  CLRF   x28
06F8E:  CLRF   x29
06F90:  CLRF   x2A
06F92:  CLRF   x2B
06F94:  CLRF   x2C
06F96:  CLRF   x2D
06F98:  CLRF   x2E
06F9A:  CLRF   x2F
06F9C:  CLRF   x30
06F9E:  CLRF   x31
06FA0:  CLRF   x32
06FA2:  CLRF   x33
06FA4:  CLRF   x34
06FA6:  CLRF   x35
06FA8:  CLRF   x36
06FAA:  CLRF   x37
06FAC:  CLRF   x38
06FAE:  CLRF   x39
06FB0:  CLRF   x3A
06FB2:  CLRF   x3B
06FB4:  CLRF   x3C
06FB6:  CLRF   x3D
06FB8:  CLRF   x3E
06FBA:  CLRF   x3F
06FBC:  CLRF   x40
06FBE:  CLRF   x41
06FC0:  CLRF   x42
06FC2:  CLRF   x43
06FC4:  CLRF   x44
06FC6:  CLRF   x45
06FC8:  CLRF   x46
06FCA:  CLRF   x47
06FCC:  CLRF   x48
06FCE:  CLRF   x49
06FD0:  CLRF   x4A
06FD2:  CLRF   x4B
06FD4:  CLRF   x4C
06FD6:  CLRF   x4D
06FD8:  CLRF   x4E
06FDA:  CLRF   x4F
06FDC:  CLRF   x50
06FDE:  CLRF   x51
06FE0:  CLRF   x52
06FE2:  CLRF   x53
06FE4:  CLRF   x54
06FE6:  CLRF   x55
06FE8:  CLRF   x56
06FEA:  CLRF   x57
06FEC:  CLRF   x58
06FEE:  CLRF   x59
06FF0:  CLRF   x5A
06FF2:  CLRF   x5B
06FF4:  CLRF   x5C
06FF6:  CLRF   x5D
06FF8:  CLRF   x5E
06FFA:  CLRF   x5F
06FFC:  CLRF   x60
06FFE:  CLRF   x61
07000:  CLRF   x62
07002:  CLRF   x63
07004:  CLRF   x64
07006:  CLRF   x65
07008:  CLRF   x66
0700A:  CLRF   x67
0700C:  CLRF   x68
0700E:  CLRF   x69
07010:  CLRF   x6A
07012:  CLRF   x6B
07014:  CLRF   x6C
07016:  CLRF   x6D
07018:  CLRF   x6E
0701A:  CLRF   x6F
0701C:  CLRF   x70
0701E:  CLRF   x71
07020:  CLRF   x72
07022:  CLRF   x73
07024:  CLRF   x74
07026:  CLRF   x75
07028:  CLRF   x76
0702A:  CLRF   x77
0702C:  CLRF   x78
0702E:  CLRF   x79
07030:  CLRF   x7A
07032:  CLRF   x7B
07034:  CLRF   x7C
07036:  CLRF   x7D
07038:  CLRF   x7E
0703A:  CLRF   x7F
0703C:  CLRF   x80
0703E:  CLRF   x81
07040:  CLRF   x82
07042:  CLRF   x83
07044:  CLRF   x84
07046:  CLRF   x85
07048:  CLRF   x86
0704A:  CLRF   x87
0704C:  CLRF   x88
0704E:  CLRF   x89
07050:  CLRF   x8A
07052:  CLRF   x8B
07054:  CLRF   x8C
07056:  CLRF   x8D
07058:  CLRF   x8E
0705A:  CLRF   x8F
0705C:  CLRF   x90
0705E:  CLRF   x91
07060:  CLRF   x92
07062:  CLRF   x93
07064:  CLRF   x94
07066:  CLRF   x95
07068:  CLRF   x96
0706A:  CLRF   x97
0706C:  CLRF   x98
0706E:  CLRF   x99
07070:  CLRF   x9A
07072:  CLRF   x9B
07074:  CLRF   x9C
07076:  CLRF   x9D
07078:  CLRF   x9E
0707A:  CLRF   x9F
0707C:  CLRF   xA0
0707E:  CLRF   xA1
07080:  CLRF   xA2
07082:  CLRF   xA3
07084:  CLRF   xA4
07086:  CLRF   xA5
07088:  CLRF   xA6
0708A:  CLRF   xA7
0708C:  CLRF   xA8
0708E:  CLRF   xA9
07090:  CLRF   xAA
07092:  CLRF   xAB
07094:  CLRF   xAC
07096:  CLRF   xAD
07098:  CLRF   xAE
0709A:  CLRF   xAF
0709C:  CLRF   xB0
0709E:  CLRF   xB1
070A0:  CLRF   xB2
070A2:  CLRF   xB3
070A4:  CLRF   xB4
070A6:  CLRF   xB5
070A8:  CLRF   xB6
070AA:  CLRF   xB7
070AC:  CLRF   xB8
070AE:  CLRF   xB9
070B0:  CLRF   xBA
070B2:  CLRF   xBB
070B4:  CLRF   xBC
070B6:  CLRF   xBD
070B8:  CLRF   xBE
070BA:  CLRF   xBF
070BC:  CLRF   xC0
070BE:  CLRF   xC1
070C0:  CLRF   xC2
070C2:  CLRF   xC3
070C4:  CLRF   xC4
070C6:  CLRF   xC5
070C8:  CLRF   xC6
070CA:  CLRF   xC7
070CC:  CLRF   xC8
070CE:  CLRF   xC9
070D0:  CLRF   xCA
070D2:  CLRF   xCB
070D4:  CLRF   xCC
070D6:  CLRF   xCD
070D8:  CLRF   xCE
070DA:  CLRF   xCF
070DC:  CLRF   xD0
070DE:  CLRF   xD1
070E0:  CLRF   xD2
070E2:  CLRF   xD3
070E4:  CLRF   xD4
070E6:  CLRF   xD5
070E8:  CLRF   xD6
070EA:  CLRF   xD7
070EC:  CLRF   xD8
070EE:  CLRF   xD9
070F0:  CLRF   xDA
070F2:  CLRF   xDB
070F4:  CLRF   xDC
070F6:  CLRF   xDD
070F8:  CLRF   xDE
070FA:  CLRF   xDF
070FC:  CLRF   xE0
070FE:  CLRF   xE1
07100:  CLRF   xE2
07102:  CLRF   xE3
07104:  CLRF   xE4
07106:  CLRF   xE5
07108:  CLRF   xE6
0710A:  CLRF   xE7
0710C:  CLRF   xE8
0710E:  CLRF   xE9
07110:  CLRF   xEA
07112:  CLRF   xEB
07114:  CLRF   xEC
07116:  CLRF   xED
07118:  CLRF   xEE
0711A:  CLRF   xEF
0711C:  CLRF   xF0
0711E:  CLRF   xF1
07120:  CLRF   xF2
07122:  CLRF   xF3
07124:  CLRF   xF4
07126:  CLRF   xF5
07128:  CLRF   xF6
0712A:  CLRF   xF7
0712C:  CLRF   xF8
0712E:  CLRF   xF9
07130:  CLRF   xFA
07132:  CLRF   xFB
07134:  CLRF   xFC
07136:  CLRF   xFD
07138:  CLRF   xFE
0713A:  CLRF   xFF
0713C:  MOVLB  2
0713E:  CLRF   x00
07140:  CLRF   x01
07142:  CLRF   x02
07144:  CLRF   x03
07146:  CLRF   x04
07148:  CLRF   x05
0714A:  CLRF   x06
0714C:  CLRF   x07
0714E:  CLRF   x08
07150:  CLRF   x09
07152:  CLRF   x0A
07154:  CLRF   x0B
07156:  CLRF   x0C
07158:  CLRF   x0D
0715A:  CLRF   x0E
0715C:  CLRF   x0F
0715E:  CLRF   x10
07160:  CLRF   x11
07162:  CLRF   x12
07164:  CLRF   x13
07166:  CLRF   x14
07168:  CLRF   x15
0716A:  CLRF   x16
0716C:  CLRF   x17
0716E:  CLRF   x18
07170:  CLRF   x19
07172:  CLRF   x1A
07174:  CLRF   x1B
07176:  CLRF   x1C
07178:  CLRF   x1D
0717A:  CLRF   x1E
0717C:  CLRF   x1F
0717E:  CLRF   x20
07180:  CLRF   x21
07182:  CLRF   x22
07184:  CLRF   x23
07186:  CLRF   x24
07188:  CLRF   x25
0718A:  CLRF   x26
0718C:  CLRF   x27
0718E:  CLRF   x28
07190:  CLRF   x29
07192:  CLRF   x2A
07194:  CLRF   x2B
07196:  CLRF   x2C
07198:  CLRF   x2D
0719A:  CLRF   x2E
0719C:  CLRF   x2F
0719E:  CLRF   x30
071A0:  CLRF   x31
071A2:  CLRF   x32
071A4:  CLRF   x33
071A6:  CLRF   x34
071A8:  CLRF   x35
071AA:  CLRF   x36
071AC:  CLRF   x37
071AE:  CLRF   x38
071B0:  CLRF   x39
071B2:  CLRF   x3A
071B4:  CLRF   x3B
071B6:  CLRF   x3C
071B8:  CLRF   x3D
071BA:  CLRF   x3E
071BC:  CLRF   x3F
071BE:  CLRF   x40
071C0:  CLRF   x41
071C2:  CLRF   x42
071C4:  CLRF   x43
071C6:  CLRF   x44
071C8:  CLRF   x45
071CA:  CLRF   x46
071CC:  CLRF   x47
071CE:  CLRF   x48
071D0:  CLRF   x49
071D2:  CLRF   x4A
071D4:  CLRF   x4B
071D6:  CLRF   x4C
071D8:  CLRF   x4D
071DA:  CLRF   x4E
071DC:  CLRF   x4F
071DE:  CLRF   x50
071E0:  CLRF   x51
071E2:  CLRF   x52
071E4:  CLRF   x53
071E6:  CLRF   x54
071E8:  CLRF   x55
071EA:  CLRF   x56
071EC:  CLRF   x57
071EE:  CLRF   x58
071F0:  CLRF   x59
071F2:  CLRF   x5A
071F4:  CLRF   x5B
071F6:  CLRF   x5C
071F8:  CLRF   x5D
071FA:  CLRF   x5E
071FC:  CLRF   x5F
071FE:  CLRF   x60
07200:  CLRF   x61
07202:  CLRF   x62
07204:  CLRF   x63
07206:  CLRF   x64
07208:  CLRF   x65
0720A:  CLRF   x66
0720C:  CLRF   x67
0720E:  CLRF   x68
07210:  CLRF   x69
07212:  CLRF   x6A
07214:  CLRF   x6B
07216:  CLRF   x6C
07218:  CLRF   x6D
0721A:  CLRF   x6E
0721C:  CLRF   x6F
0721E:  CLRF   x70
07220:  CLRF   x71
07222:  CLRF   x72
07224:  CLRF   x73
07226:  CLRF   x74
07228:  CLRF   x75
0722A:  CLRF   x76
0722C:  CLRF   x77
0722E:  CLRF   x78
07230:  CLRF   x79
07232:  CLRF   x7A
07234:  CLRF   x7B
07236:  CLRF   x7C
07238:  CLRF   x7D
0723A:  CLRF   x7E
0723C:  CLRF   x7F
0723E:  CLRF   x80
07240:  CLRF   x81
07242:  CLRF   x82
07244:  CLRF   x83
07246:  CLRF   x84
07248:  CLRF   x85
0724A:  CLRF   x86
0724C:  CLRF   x87
0724E:  CLRF   x88
07250:  CLRF   x89
07252:  CLRF   x8A
07254:  CLRF   x8B
07256:  CLRF   x8C
07258:  CLRF   x8D
0725A:  CLRF   x8E
0725C:  CLRF   x8F
0725E:  CLRF   x90
07260:  CLRF   x91
07262:  CLRF   x92
07264:  CLRF   x93
07266:  CLRF   x94
07268:  CLRF   x95
0726A:  CLRF   x96
0726C:  CLRF   x97
0726E:  CLRF   x98
07270:  CLRF   x99
07272:  CLRF   x9A
07274:  CLRF   x9B
07276:  CLRF   x9C
07278:  CLRF   x9D
0727A:  CLRF   x9E
0727C:  CLRF   x9F
0727E:  CLRF   xA0
07280:  CLRF   xA1
07282:  CLRF   xA2
07284:  CLRF   xB7
07286:  CLRF   xB8
07288:  CLRF   xB9
0728A:  CLRF   xBA
0728C:  CLRF   xBB
0728E:  CLRF   xBC
07290:  CLRF   xBD
07292:  CLRF   xBE
07294:  CLRF   xBF
07296:  CLRF   xC0
07298:  CLRF   xC1
0729A:  CLRF   xC2
0729C:  CLRF   xC3
0729E:  CLRF   xC4
072A0:  CLRF   xC5
072A2:  CLRF   xC6
072A4:  MOVLB  3
072A6:  CLRF   x85
072A8:  CLRF   x86
072AA:  CLRF   x87
072AC:  CLRF   x88
072AE:  CLRF   x89
072B0:  CLRF   x8A
072B2:  CLRF   x8B
072B4:  CLRF   x8C
072B6:  MOVLW  56
072B8:  MOVWF  xB3
072BA:  MOVLW  58
072BC:  MOVWF  xB4
072BE:  MOVLW  50
072C0:  MOVWF  xB5
072C2:  MOVLW  54
072C4:  MOVWF  xB6
072C6:  MOVLW  52
072C8:  MOVWF  xB7
072CA:  MOVLW  5A
072CC:  MOVWF  xB8
072CE:  MOVLW  4E
072D0:  MOVWF  xB9
072D2:  MOVLW  4C
072D4:  MOVWF  xBA
072D6:  MOVLW  5C
072D8:  MOVWF  xBB
072DA:  MOVLW  55
072DC:  MOVWF  xBC
072DE:  MOVLW  57
072E0:  MOVWF  xBD
072E2:  MOVLW  4F
072E4:  MOVWF  xBE
072E6:  MOVLW  53
072E8:  MOVWF  xBF
072EA:  MOVLW  51
072EC:  MOVWF  xC0
072EE:  MOVLW  59
072F0:  MOVWF  xC1
072F2:  MOVLW  4D
072F4:  MOVWF  xC2
072F6:  MOVLW  4B
072F8:  MOVWF  xC3
072FA:  MOVLW  5B
072FC:  MOVWF  xC4
....................     
....................    for (posicion=0;posicion<0x10;posicion++){ 
072FE:  MOVLB  0
07300:  CLRF   x86
07302:  MOVF   x86,W
07304:  SUBLW  0F
07306:  BNC   731C
....................       SlaveA0Tx[posicion] = 0x00; 
07308:  CLRF   03
0730A:  MOVF   x86,W
0730C:  ADDLW  64
0730E:  MOVWF  FE9
07310:  MOVLW  00
07312:  ADDWFC 03,W
07314:  MOVWF  FEA
07316:  CLRF   FEF
....................    } 
07318:  INCF   x86,F
0731A:  BRA    7302
....................    setup_timer_0(RTCC_8_BIT|RTCC_DIV_1); 
0731C:  MOVLW  C8
0731E:  MOVWF  FD5
....................    enable_interrupts(INT_TIMER0); 
07320:  BSF    FF2.5
....................    setup_timer_1(T1_INTERNAL|T1_DIV_BY_1); 
07322:  MOVLW  85
07324:  MOVWF  FCD
....................    enable_interrupts(INT_TIMER1); 
07326:  BSF    F9D.0
....................    setup_adc_ports(AN0_TO_AN3); 
07328:  MOVF   FC1,W
0732A:  ANDLW  C0
0732C:  IORLW  0B
0732E:  MOVWF  FC1
....................    setup_adc(ADC_CLOCK_DIV_32 ); 
07330:  MOVF   FC0,W
07332:  ANDLW  C0
07334:  IORLW  02
07336:  MOVWF  FC0
07338:  BSF    FC0.7
0733A:  BSF    FC2.0
....................    port_b_pullups(true); 
0733C:  BCF    FF1.7
....................    enable_interrupts(int_rda); 
0733E:  BSF    F9D.5
....................    setup_wdt(WDT_ON); 
07340:  BSF    FD1.0
....................    enable_interrupts(global); 
07342:  MOVLW  C0
07344:  IORWF  FF2,F
....................    LeeEEPROM(); 
07346:  GOTO   1DE4
....................    rtc_init(); 
0734A:  GOTO   2C80
....................    delay_ms(1); 
0734E:  MOVLW  01
07350:  MOVLB  4
07352:  MOVWF  x54
07354:  MOVLB  0
07356:  CALL   19B0
....................    LimitaValores(); 
0735A:  GOTO   2D9A
....................    CalculoImpresion=timpresion*60; 
0735E:  MOVLB  3
07360:  MOVF   x5C,W
07362:  MULLW  3C
07364:  MOVFF  FF3,35D
....................    printf("page Bienvenida"); 
07368:  MOVLW  CE
0736A:  MOVWF  FF6
0736C:  MOVLW  05
0736E:  MOVWF  FF7
07370:  MOVLW  00
07372:  MOVWF  FF8
07374:  MOVLB  0
07376:  CALL   3842
....................    SendDataDisplay(); 
0737A:  CALL   3874
....................    printf("bkcmd=0"); 
0737E:  MOVLW  DE
07380:  MOVWF  FF6
07382:  MOVLW  05
07384:  MOVWF  FF7
07386:  MOVLW  00
07388:  MOVWF  FF8
0738A:  CALL   3842
....................    SendDataDisplay(); 
0738E:  CALL   3874
....................    delay_ms(1500); 
07392:  MOVLW  06
07394:  MOVLB  4
07396:  MOVWF  x3F
07398:  MOVLW  FA
0739A:  MOVWF  x54
0739C:  MOVLB  0
0739E:  CALL   19B0
073A2:  MOVLB  4
073A4:  DECFSZ x3F,F
073A6:  BRA    7398
....................    printf("page Clave"); 
073A8:  MOVLW  E6
073AA:  MOVWF  FF6
073AC:  MOVLW  05
073AE:  MOVWF  FF7
073B0:  MOVLW  00
073B2:  MOVWF  FF8
073B4:  MOVLB  0
073B6:  CALL   3842
....................    SendDataDisplay(); 
073BA:  CALL   3874
....................    ApagaSalidas(); 
073BE:  CALL   38AA
....................     
....................    for(i=0;i<MediaMovil;i++){ 
073C2:  MOVLB  3
073C4:  CLRF   x65
073C6:  MOVLB  2
073C8:  MOVF   xDB,W
073CA:  MOVLB  3
073CC:  SUBWF  x65,W
073CE:  BC    73F0
....................       Temperatura=LeerPT100(MediaMovil); 
073D0:  MOVFF  2DB,43F
073D4:  MOVLB  0
073D6:  CALL   3A38
073DA:  MOVFF  03,32B
073DE:  MOVFF  02,32A
073E2:  MOVFF  01,329
073E6:  MOVFF  00,328
....................    } 
073EA:  MOVLB  3
073EC:  INCF   x65,F
073EE:  BRA    73C6
....................     
....................    if(UP && DOWN && RIGHT && LEFT)//Si oprime boton de Toma. 
073F0:  BSF    F93.0
073F2:  BTFSC  F81.0
073F4:  BRA    747C
073F6:  BSF    F93.1
073F8:  BTFSC  F81.1
073FA:  BRA    747C
073FC:  BSF    F93.2
073FE:  BTFSC  F81.2
07400:  BRA    747C
07402:  BSF    F93.3
07404:  BTFSC  F81.3
07406:  BRA    747C
....................    { 
....................       write_eeprom(37,0); 
07408:  CLRF   FAA
0740A:  MOVLW  25
0740C:  MOVWF  FA9
0740E:  CLRF   FA8
07410:  BCF    FA6.6
07412:  BCF    FA6.7
07414:  BSF    FA6.2
07416:  MOVF   FF2,W
07418:  MOVWF  00
0741A:  BCF    FF2.6
0741C:  BCF    FF2.7
0741E:  MOVLB  F
07420:  MOVLW  55
07422:  MOVWF  FA7
07424:  MOVLW  AA
07426:  MOVWF  FA7
07428:  BSF    FA6.1
0742A:  BTFSC  FA6.1
0742C:  BRA    742A
0742E:  BCF    FA6.2
07430:  MOVF   00,W
07432:  IORWF  FF2,F
....................       delay_ms(20); 
07434:  MOVLW  14
07436:  MOVLB  4
07438:  MOVWF  x54
0743A:  MOVLB  0
0743C:  CALL   19B0
....................       write_eeprom(38,0); 
07440:  CLRF   FAA
07442:  MOVLW  26
07444:  MOVWF  FA9
07446:  CLRF   FA8
07448:  BCF    FA6.6
0744A:  BCF    FA6.7
0744C:  BSF    FA6.2
0744E:  MOVF   FF2,W
07450:  MOVWF  00
07452:  BCF    FF2.6
07454:  BCF    FF2.7
07456:  MOVLB  F
07458:  MOVLW  55
0745A:  MOVWF  FA7
0745C:  MOVLW  AA
0745E:  MOVWF  FA7
07460:  BSF    FA6.1
07462:  BTFSC  FA6.1
07464:  BRA    7462
07466:  BCF    FA6.2
07468:  MOVF   00,W
0746A:  IORWF  FF2,F
....................       delay_ms(20); 
0746C:  MOVLW  14
0746E:  MOVLB  4
07470:  MOVWF  x54
07472:  MOVLB  0
07474:  CALL   19B0
....................       reset_cpu(); 
07478:  RESET
0747A:  MOVLB  3
....................    } 
....................     
....................    #ifdef PT100Fija 
....................       Atmosferica=0; 
....................    #endif 
....................    while(true) 
....................    { 
....................       LeeDisplay(); 
0747C:  MOVLB  0
0747E:  GOTO   3E7E
....................       Envio_Esclavos(); 
07482:  CALL   4268
....................       delay_ms(1); 
07486:  MOVLW  01
07488:  MOVLB  4
0748A:  MOVWF  x54
0748C:  MOVLB  0
0748E:  CALL   19B0
....................       //Lectura_Esclavos(); 
....................       restart_wdt(); 
07492:  CLRWDT
....................        
....................       if(!Esterilizando || Desfogando){ 
07494:  BTFSS  xA0.2
07496:  BRA    749C
07498:  BTFSS  xA0.5
0749A:  BRA    74A6
....................          CalculoImpresion=180; 
0749C:  MOVLW  B4
0749E:  MOVLB  3
074A0:  MOVWF  x5D
....................       }else{ 
074A2:  BRA    74AC
074A4:  MOVLB  0
....................          CalculoImpresion=60; 
074A6:  MOVLW  3C
074A8:  MOVLB  3
074AA:  MOVWF  x5D
....................       } 
.................... // Tiempo de Grafica//-------------------------------------- 
....................       if(tiempos2>=4000){ 
074AC:  MOVF   x74,W
074AE:  SUBLW  0E
074B0:  BC    74C6
074B2:  XORLW  FF
074B4:  BNZ   74BC
074B6:  MOVF   x73,W
074B8:  SUBLW  9F
074BA:  BC    74C6
....................          Grafica=1; 
074BC:  MOVLB  0
074BE:  BSF    xA4.5
....................          tiempos2=0; 
074C0:  MOVLB  3
074C2:  CLRF   x74
074C4:  CLRF   x73
....................       } 
....................  
.................... // Tiempo de Muestreo//-------------------------------------- 
....................       if(tiempos3>=20){ 
074C6:  MOVF   x76,F
074C8:  BNZ   74D2
074CA:  MOVF   x75,W
074CC:  SUBLW  13
074CE:  BTFSC  FD8.0
074D0:  BRA    7606
....................          Temperatura=LeerPt100(MediaMovil); 
074D2:  MOVFF  2DB,43F
074D6:  MOVLB  0
074D8:  CALL   3A38
074DC:  MOVFF  03,32B
074E0:  MOVFF  02,32A
074E4:  MOVFF  01,329
074E8:  MOVFF  00,328
....................          PresionCamara=Leer_Sensor_Presion_Camara(5); 
074EC:  MOVLW  05
074EE:  MOVLB  4
074F0:  MOVWF  x3F
074F2:  MOVLB  0
074F4:  GOTO   42A8
074F8:  MOVFF  03,457
074FC:  MOVFF  02,456
07500:  MOVFF  01,455
07504:  MOVFF  00,454
07508:  CALL   400E
0750C:  MOVFF  02,37E
07510:  MOVFF  01,37D
....................          PresionPreCamara=Leer_Sensor_Presion_PreCamara(5); 
07514:  MOVLW  05
07516:  MOVLB  4
07518:  MOVWF  x3F
0751A:  MOVLB  0
0751C:  GOTO   44A8
07520:  MOVFF  03,457
07524:  MOVFF  02,456
07528:  MOVFF  01,455
0752C:  MOVFF  00,454
07530:  CALL   400E
07534:  MOVFF  02,380
07538:  MOVFF  01,37F
....................          rtc_get_date(Dia,Mes,Year,dow); 
....................          rtc_get_time(Hora,Minuto,Segundo); 
....................          tiempos3=0; 
*
07600:  MOVLB  3
07602:  CLRF   x76
07604:  CLRF   x75
....................       } 
....................        
.................... // Monitoreo Parada Emergencia//--------------------------------------       
....................       if(!STOP && !IniciaCiclo && !PruebaEstados){ 
07606:  BSF    F93.7
07608:  BTFSS  F81.7
0760A:  BRA    766C
0760C:  MOVLB  0
0760E:  BTFSS  xA0.1
07610:  BRA    7616
07612:  MOVLB  3
07614:  BRA    766C
07616:  BTFSS  xA1.2
07618:  BRA    761E
0761A:  MOVLB  3
0761C:  BRA    766C
....................          if(!disp_Stop){ 
0761E:  BTFSC  xA4.6
07620:  BRA    7640
....................             disp_Stop=1;Menu=255; 
07622:  BSF    xA4.6
07624:  MOVLW  FF
07626:  MOVLB  3
07628:  MOVWF  x62
....................             printf("page Emergencia"); 
0762A:  MOVLW  F2
0762C:  MOVWF  FF6
0762E:  MOVLW  05
07630:  MOVWF  FF7
07632:  MOVLW  00
07634:  MOVWF  FF8
07636:  MOVLB  0
07638:  CALL   3842
....................             SendDataDisplay(); 
0763C:  CALL   3874
....................          } 
....................          Controlando=0; 
07640:  MOVLB  3
07642:  CLRF   x5A
....................          Desfogue_on; 
07644:  BSF    F8C.4
07646:  BCF    F95.4
....................          SSR_off; 
07648:  BSF    F8B.2
0764A:  BCF    F94.2
....................          Paso_off; 
0764C:  BCF    F8C.6
0764E:  BCF    F95.6
....................          Suministro_off; 
07650:  BCF    F8C.5
07652:  BCF    F95.5
....................          DesfogueSuave=OFF; 
07654:  MOVLB  0
07656:  BCF    xA0.6
....................          ActivaAlarma(1); 
07658:  MOVLW  01
0765A:  MOVLB  4
0765C:  MOVWF  x3F
0765E:  MOVLB  0
07660:  CALL   46DA
....................          BorraBuffer(); 
07664:  GOTO   47B0
....................       }else{ 
07668:  BRA    7674
0766A:  MOVLB  3
....................          if(disp_Stop){ 
0766C:  MOVLB  0
0766E:  BTFSS  xA4.6
07670:  BRA    7674
....................             reset_cpu(); 
07672:  RESET
....................          } 
....................       }            
....................    //Buzzer_off;    
.................... //_-------------------------------------------------------------------------------------------------------------------------------------------------------- 
....................    if(Menu==240){ //Menu de Bienvenida. 
07674:  MOVLB  3
07676:  MOVF   x62,W
07678:  SUBLW  F0
0767A:  BNZ   76C4
....................       printf("bkcmd=0"); 
0767C:  MOVLW  02
0767E:  MOVWF  FF6
07680:  MOVLW  06
07682:  MOVWF  FF7
07684:  MOVLW  00
07686:  MOVWF  FF8
07688:  MOVLB  0
0768A:  CALL   3842
....................       SendDataDisplay(); 
0768E:  CALL   3874
....................       delay_ms(1500); 
07692:  MOVLW  06
07694:  MOVLB  4
07696:  MOVWF  x3F
07698:  MOVLW  FA
0769A:  MOVWF  x54
0769C:  MOVLB  0
0769E:  CALL   19B0
076A2:  MOVLB  4
076A4:  DECFSZ x3F,F
076A6:  BRA    7698
....................       printf("page Clave"); 
076A8:  MOVLW  0A
076AA:  MOVWF  FF6
076AC:  MOVLW  06
076AE:  MOVWF  FF7
076B0:  MOVLW  00
076B2:  MOVWF  FF8
076B4:  MOVLB  0
076B6:  CALL   3842
....................       SendDataDisplay(); 
076BA:  CALL   3874
....................       ApagaSalidas(); 
076BE:  CALL   38AA
076C2:  MOVLB  3
....................    } 
.................... //_-------------------------------------------------------------------------------------------------------------------------------------------------------- 
....................  
.................... //_-------------------------------------------------------------------------------------------------------------------------------------------------------- 
....................     if(Menu==0){ //Menu de Contrasea de acceso. 
076C4:  MOVF   x62,F
076C6:  BTFSS  FD8.2
076C8:  GOTO   8142
....................       ApagaSalidas(); 
076CC:  MOVLB  0
076CE:  CALL   38AA
....................       entro=OFF; 
076D2:  BCF    xA3.7
....................       if(Digito==1){ 
076D4:  MOVLB  2
076D6:  DECFSZ xE0,W
076D8:  BRA    7724
....................          printf("t0.txt=\"%u\"",Contrasena[0]); 
076DA:  MOVLW  16
076DC:  MOVWF  FF6
076DE:  MOVLW  06
076E0:  MOVWF  FF7
076E2:  MOVLW  00
076E4:  MOVWF  FF8
076E6:  MOVLW  08
076E8:  MOVLB  4
076EA:  MOVWF  x44
076EC:  MOVLB  0
076EE:  CALL   47DC
076F2:  MOVFF  385,444
076F6:  MOVLW  1B
076F8:  MOVLB  4
076FA:  MOVWF  x45
076FC:  MOVLB  0
076FE:  CALL   483A
07702:  MOVLW  22
07704:  BTFSS  F9E.4
07706:  BRA    7704
07708:  MOVWF  FAD
....................          SendDataDisplay(); 
0770A:  CALL   3874
....................          printf("va0.val=1"); 
0770E:  MOVLW  22
07710:  MOVWF  FF6
07712:  MOVLW  06
07714:  MOVWF  FF7
07716:  MOVLW  00
07718:  MOVWF  FF8
0771A:  CALL   3842
....................          SendDataDisplay(); 
0771E:  CALL   3874
07722:  MOVLB  2
....................       } 
....................        
....................       if(Digito==2){ 
07724:  MOVF   xE0,W
07726:  SUBLW  02
07728:  BNZ   7784
....................          printf("t0.txt=\"%u%u\"",Contrasena[0],Contrasena[1]); 
0772A:  MOVLW  2C
0772C:  MOVWF  FF6
0772E:  MOVLW  06
07730:  MOVWF  FF7
07732:  MOVLW  00
07734:  MOVWF  FF8
07736:  MOVLW  08
07738:  MOVLB  4
0773A:  MOVWF  x44
0773C:  MOVLB  0
0773E:  CALL   47DC
07742:  MOVFF  385,444
07746:  MOVLW  1B
07748:  MOVLB  4
0774A:  MOVWF  x45
0774C:  MOVLB  0
0774E:  CALL   483A
07752:  MOVFF  386,444
07756:  MOVLW  1B
07758:  MOVLB  4
0775A:  MOVWF  x45
0775C:  MOVLB  0
0775E:  CALL   483A
07762:  MOVLW  22
07764:  BTFSS  F9E.4
07766:  BRA    7764
07768:  MOVWF  FAD
....................          SendDataDisplay(); 
0776A:  CALL   3874
....................          printf("va0.val=2"); 
0776E:  MOVLW  3A
07770:  MOVWF  FF6
07772:  MOVLW  06
07774:  MOVWF  FF7
07776:  MOVLW  00
07778:  MOVWF  FF8
0777A:  CALL   3842
....................          SendDataDisplay(); 
0777E:  CALL   3874
07782:  MOVLB  2
....................       } 
....................        
....................       if(Digito==3){ 
07784:  MOVF   xE0,W
07786:  SUBLW  03
07788:  BNZ   77F4
....................          printf("t0.txt=\"%u%u%u\"",Contrasena[0],Contrasena[1],Contrasena[2]); 
0778A:  MOVLW  44
0778C:  MOVWF  FF6
0778E:  MOVLW  06
07790:  MOVWF  FF7
07792:  MOVLW  00
07794:  MOVWF  FF8
07796:  MOVLW  08
07798:  MOVLB  4
0779A:  MOVWF  x44
0779C:  MOVLB  0
0779E:  CALL   47DC
077A2:  MOVFF  385,444
077A6:  MOVLW  1B
077A8:  MOVLB  4
077AA:  MOVWF  x45
077AC:  MOVLB  0
077AE:  CALL   483A
077B2:  MOVFF  386,444
077B6:  MOVLW  1B
077B8:  MOVLB  4
077BA:  MOVWF  x45
077BC:  MOVLB  0
077BE:  CALL   483A
077C2:  MOVFF  387,444
077C6:  MOVLW  1B
077C8:  MOVLB  4
077CA:  MOVWF  x45
077CC:  MOVLB  0
077CE:  CALL   483A
077D2:  MOVLW  22
077D4:  BTFSS  F9E.4
077D6:  BRA    77D4
077D8:  MOVWF  FAD
....................          SendDataDisplay(); 
077DA:  CALL   3874
....................          printf("va0.val=3"); 
077DE:  MOVLW  54
077E0:  MOVWF  FF6
077E2:  MOVLW  06
077E4:  MOVWF  FF7
077E6:  MOVLW  00
077E8:  MOVWF  FF8
077EA:  CALL   3842
....................          SendDataDisplay(); 
077EE:  CALL   3874
077F2:  MOVLB  2
....................       } 
....................        
....................       if(Digito==4){ 
077F4:  MOVF   xE0,W
077F6:  SUBLW  04
077F8:  BNZ   7874
....................          printf("t0.txt=\"%u%u%u%u\"",Contrasena[0],Contrasena[1],Contrasena[2],Contrasena[3]); 
077FA:  MOVLW  5E
077FC:  MOVWF  FF6
077FE:  MOVLW  06
07800:  MOVWF  FF7
07802:  MOVLW  00
07804:  MOVWF  FF8
07806:  MOVLW  08
07808:  MOVLB  4
0780A:  MOVWF  x44
0780C:  MOVLB  0
0780E:  CALL   47DC
07812:  MOVFF  385,444
07816:  MOVLW  1B
07818:  MOVLB  4
0781A:  MOVWF  x45
0781C:  MOVLB  0
0781E:  CALL   483A
07822:  MOVFF  386,444
07826:  MOVLW  1B
07828:  MOVLB  4
0782A:  MOVWF  x45
0782C:  MOVLB  0
0782E:  CALL   483A
07832:  MOVFF  387,444
07836:  MOVLW  1B
07838:  MOVLB  4
0783A:  MOVWF  x45
0783C:  MOVLB  0
0783E:  CALL   483A
07842:  MOVFF  388,444
07846:  MOVLW  1B
07848:  MOVLB  4
0784A:  MOVWF  x45
0784C:  MOVLB  0
0784E:  CALL   483A
07852:  MOVLW  22
07854:  BTFSS  F9E.4
07856:  BRA    7854
07858:  MOVWF  FAD
....................          SendDataDisplay(); 
0785A:  CALL   3874
....................          printf("va0.val=4"); 
0785E:  MOVLW  70
07860:  MOVWF  FF6
07862:  MOVLW  06
07864:  MOVWF  FF7
07866:  MOVLW  00
07868:  MOVWF  FF8
0786A:  CALL   3842
....................          SendDataDisplay(); 
0786E:  CALL   3874
07872:  MOVLB  2
....................       } 
....................        
....................       if(UP){ 
07874:  BSF    F93.0
07876:  BTFSC  F81.0
07878:  BRA    78C2
....................          delay_ms(100); 
0787A:  MOVLW  64
0787C:  MOVLB  4
0787E:  MOVWF  x54
07880:  MOVLB  0
07882:  CALL   19B0
....................          if(UP){ 
07886:  BSF    F93.0
07888:  BTFSC  F81.0
0788A:  BRA    78C4
....................          if(Digito==0) 
0788C:  MOVLB  2
0788E:  MOVF   xE0,F
07890:  BNZ   7896
....................             Digito=1; 
07892:  MOVLW  01
07894:  MOVWF  xE0
....................             if(Contrasena[Digito-1]<9) 
07896:  MOVLW  01
07898:  SUBWF  xE0,W
0789A:  CLRF   03
0789C:  ADDLW  85
0789E:  MOVWF  FE9
078A0:  MOVLW  03
078A2:  ADDWFC 03,W
078A4:  MOVWF  FEA
078A6:  BTFSC  FEF.7
078A8:  BRA    78B0
078AA:  MOVF   FEF,W
078AC:  SUBLW  08
078AE:  BNC   78C2
....................                Contrasena[Digito-1]++; 
078B0:  MOVLW  01
078B2:  SUBWF  xE0,W
078B4:  CLRF   03
078B6:  ADDLW  85
078B8:  MOVWF  FE9
078BA:  MOVLW  03
078BC:  ADDWFC 03,W
078BE:  MOVWF  FEA
078C0:  INCF   FEF,F
078C2:  MOVLB  0
....................          } 
....................       } 
....................        
....................       if(DOWN){ 
078C4:  BSF    F93.1
078C6:  BTFSC  F81.1
078C8:  BRA    7914
....................          delay_ms(100); 
078CA:  MOVLW  64
078CC:  MOVLB  4
078CE:  MOVWF  x54
078D0:  MOVLB  0
078D2:  CALL   19B0
....................          if(Digito==0) 
078D6:  MOVLB  2
078D8:  MOVF   xE0,F
078DA:  BNZ   78E0
....................             Digito=1; 
078DC:  MOVLW  01
078DE:  MOVWF  xE0
....................          if(DOWN){ 
078E0:  BSF    F93.1
078E2:  BTFSC  F81.1
078E4:  BRA    7912
....................             if(Contrasena[Digito-1]>0) 
078E6:  MOVLW  01
078E8:  SUBWF  xE0,W
078EA:  CLRF   03
078EC:  ADDLW  85
078EE:  MOVWF  FE9
078F0:  MOVLW  03
078F2:  ADDWFC 03,W
078F4:  MOVWF  FEA
078F6:  BTFSC  FEF.7
078F8:  BRA    7912
078FA:  MOVF   FEF,W
078FC:  SUBLW  00
078FE:  BC    7912
....................                Contrasena[Digito-1]--; 
07900:  MOVLW  01
07902:  SUBWF  xE0,W
07904:  CLRF   03
07906:  ADDLW  85
07908:  MOVWF  FE9
0790A:  MOVLW  03
0790C:  ADDWFC 03,W
0790E:  MOVWF  FEA
07910:  DECF   FEF,F
07912:  MOVLB  0
....................          } 
....................       } 
....................        
....................       if(RIGHT){ 
07914:  BSF    F93.2
07916:  BTFSC  F81.2
07918:  BRA    7932
....................          delay_ms(100); 
0791A:  MOVLW  64
0791C:  MOVLB  4
0791E:  MOVWF  x54
07920:  MOVLB  0
07922:  CALL   19B0
....................          if(RIGHT){ 
07926:  BSF    F93.2
07928:  BTFSC  F81.2
0792A:  BRA    7932
....................             Digito++; 
0792C:  MOVLB  2
0792E:  INCF   xE0,F
07930:  MOVLB  0
....................          } 
....................       } 
....................        
....................       if(Digito>4){ 
07932:  MOVLB  2
07934:  MOVF   xE0,W
07936:  SUBLW  04
07938:  BTFSC  FD8.0
0793A:  BRA    7C8C
....................       Digito=0; 
0793C:  CLRF   xE0
....................       printf("t0.txt=\"\""); 
0793E:  MOVLW  7A
07940:  MOVWF  FF6
07942:  MOVLW  06
07944:  MOVWF  FF7
07946:  MOVLW  00
07948:  MOVWF  FF8
0794A:  MOVLB  0
0794C:  CALL   3842
....................       SendDataDisplay(); 
07950:  CALL   3874
....................          if(TipoClave==0){ 
07954:  MOVLB  2
07956:  MOVF   xDE,F
07958:  BTFSS  FD8.2
0795A:  BRA    7AAA
....................             if(Contrasena[0]==3&&Contrasena[1]==8&&Contrasena[2]==9&&Contrasena[3]==2){ // Si Ingresa clave para reset general del sistema. 
0795C:  MOVLB  3
0795E:  MOVF   x85,W
07960:  SUBLW  03
07962:  BTFSS  FD8.2
07964:  BRA    7A5E
07966:  MOVF   x86,W
07968:  SUBLW  08
0796A:  BTFSS  FD8.2
0796C:  BRA    7A5E
0796E:  MOVF   x87,W
07970:  SUBLW  09
07972:  BNZ   7A5E
07974:  MOVF   x88,W
07976:  SUBLW  02
07978:  BNZ   7A5E
....................                write_eeprom(10,0);delay_ms(20);write_eeprom(11,0);delay_ms(20);// Reestablece a contrasea de Fabrica y reinicia Programa. 
0797A:  CLRF   FAA
0797C:  MOVLW  0A
0797E:  MOVWF  FA9
07980:  CLRF   FA8
07982:  BCF    FA6.6
07984:  BCF    FA6.7
07986:  BSF    FA6.2
07988:  MOVF   FF2,W
0798A:  MOVWF  00
0798C:  BCF    FF2.6
0798E:  BCF    FF2.7
07990:  MOVLB  F
07992:  MOVLW  55
07994:  MOVWF  FA7
07996:  MOVLW  AA
07998:  MOVWF  FA7
0799A:  BSF    FA6.1
0799C:  BTFSC  FA6.1
0799E:  BRA    799C
079A0:  BCF    FA6.2
079A2:  MOVF   00,W
079A4:  IORWF  FF2,F
079A6:  MOVLW  14
079A8:  MOVLB  4
079AA:  MOVWF  x54
079AC:  MOVLB  0
079AE:  CALL   19B0
079B2:  CLRF   FAA
079B4:  MOVLW  0B
079B6:  MOVWF  FA9
079B8:  CLRF   FA8
079BA:  BCF    FA6.6
079BC:  BCF    FA6.7
079BE:  BSF    FA6.2
079C0:  MOVF   FF2,W
079C2:  MOVWF  00
079C4:  BCF    FF2.6
079C6:  BCF    FF2.7
079C8:  MOVLB  F
079CA:  MOVLW  55
079CC:  MOVWF  FA7
079CE:  MOVLW  AA
079D0:  MOVWF  FA7
079D2:  BSF    FA6.1
079D4:  BTFSC  FA6.1
079D6:  BRA    79D4
079D8:  BCF    FA6.2
079DA:  MOVF   00,W
079DC:  IORWF  FF2,F
079DE:  MOVLW  14
079E0:  MOVLB  4
079E2:  MOVWF  x54
079E4:  MOVLB  0
079E6:  CALL   19B0
....................                write_eeprom(12,0);delay_ms(20);write_eeprom(13,0);delay_ms(20); 
079EA:  CLRF   FAA
079EC:  MOVLW  0C
079EE:  MOVWF  FA9
079F0:  CLRF   FA8
079F2:  BCF    FA6.6
079F4:  BCF    FA6.7
079F6:  BSF    FA6.2
079F8:  MOVF   FF2,W
079FA:  MOVWF  00
079FC:  BCF    FF2.6
079FE:  BCF    FF2.7
07A00:  MOVLB  F
07A02:  MOVLW  55
07A04:  MOVWF  FA7
07A06:  MOVLW  AA
07A08:  MOVWF  FA7
07A0A:  BSF    FA6.1
07A0C:  BTFSC  FA6.1
07A0E:  BRA    7A0C
07A10:  BCF    FA6.2
07A12:  MOVF   00,W
07A14:  IORWF  FF2,F
07A16:  MOVLW  14
07A18:  MOVLB  4
07A1A:  MOVWF  x54
07A1C:  MOVLB  0
07A1E:  CALL   19B0
07A22:  CLRF   FAA
07A24:  MOVLW  0D
07A26:  MOVWF  FA9
07A28:  CLRF   FA8
07A2A:  BCF    FA6.6
07A2C:  BCF    FA6.7
07A2E:  BSF    FA6.2
07A30:  MOVF   FF2,W
07A32:  MOVWF  00
07A34:  BCF    FF2.6
07A36:  BCF    FF2.7
07A38:  MOVLB  F
07A3A:  MOVLW  55
07A3C:  MOVWF  FA7
07A3E:  MOVLW  AA
07A40:  MOVWF  FA7
07A42:  BSF    FA6.1
07A44:  BTFSC  FA6.1
07A46:  BRA    7A44
07A48:  BCF    FA6.2
07A4A:  MOVF   00,W
07A4C:  IORWF  FF2,F
07A4E:  MOVLW  14
07A50:  MOVLB  4
07A52:  MOVWF  x54
07A54:  MOVLB  0
07A56:  CALL   19B0
....................                reset_cpu(); 
07A5A:  RESET
07A5C:  MOVLB  3
....................             } 
....................              
....................             if((Contrasena[0]==Password[0])&&(Contrasena[1]==Password[1])&&(Contrasena[2]==Password[2])&&(Contrasena[3]==Password[3])){ 
07A5E:  MOVF   x89,W
07A60:  SUBWF  x85,W
07A62:  BNZ   7A90
07A64:  MOVF   x8A,W
07A66:  SUBWF  x86,W
07A68:  BNZ   7A90
07A6A:  MOVF   x8B,W
07A6C:  SUBWF  x87,W
07A6E:  BNZ   7A90
07A70:  MOVF   x8C,W
07A72:  SUBWF  x88,W
07A74:  BNZ   7A90
....................                //BorraBuffer(); 
....................                printf("page ClaveCorrecta"); 
07A76:  MOVLW  84
07A78:  MOVWF  FF6
07A7A:  MOVLW  06
07A7C:  MOVWF  FF7
07A7E:  MOVLW  00
07A80:  MOVWF  FF8
07A82:  MOVLB  0
07A84:  CALL   3842
....................                SendDataDisplay(); 
07A88:  CALL   3874
....................             }else{ 
07A8C:  BRA    7AA6
07A8E:  MOVLB  3
....................                //BorraBuffer(); 
....................                printf("page ClaveBad"); 
07A90:  MOVLW  98
07A92:  MOVWF  FF6
07A94:  MOVLW  06
07A96:  MOVWF  FF7
07A98:  MOVLW  00
07A9A:  MOVWF  FF8
07A9C:  MOVLB  0
07A9E:  CALL   3842
....................                SendDataDisplay(); 
07AA2:  CALL   3874
....................             }  
....................          }else if(TipoClave==1){ 
07AA6:  BRA    7C8A
07AA8:  MOVLB  2
07AAA:  DECFSZ xDE,W
07AAC:  BRA    7AFC
....................             if(Contrasena[0]==4&&Contrasena[1]==4&&Contrasena[2]==4&&Contrasena[3]==4){ // Si Ingresa clave de Servicio Tecnico 
07AAE:  MOVLB  3
07AB0:  MOVF   x85,W
07AB2:  SUBLW  04
07AB4:  BNZ   7AE2
07AB6:  MOVF   x86,W
07AB8:  SUBLW  04
07ABA:  BNZ   7AE2
07ABC:  MOVF   x87,W
07ABE:  SUBLW  04
07AC0:  BNZ   7AE2
07AC2:  MOVF   x88,W
07AC4:  SUBLW  04
07AC6:  BNZ   7AE2
....................                printf("page Config"); 
07AC8:  MOVLW  A6
07ACA:  MOVWF  FF6
07ACC:  MOVLW  06
07ACE:  MOVWF  FF7
07AD0:  MOVLW  00
07AD2:  MOVWF  FF8
07AD4:  MOVLB  0
07AD6:  CALL   3842
....................                SendDataDisplay(); 
07ADA:  CALL   3874
....................             }else{ 
07ADE:  BRA    7AF8
07AE0:  MOVLB  3
....................                printf("page MenuPrincipal"); 
07AE2:  MOVLW  B2
07AE4:  MOVWF  FF6
07AE6:  MOVLW  06
07AE8:  MOVWF  FF7
07AEA:  MOVLW  00
07AEC:  MOVWF  FF8
07AEE:  MOVLB  0
07AF0:  CALL   3842
....................                SendDataDisplay(); 
07AF4:  CALL   3874
....................             } 
....................          }else if(TipoClave==2){ 
07AF8:  BRA    7C8A
07AFA:  MOVLB  2
07AFC:  MOVF   xDE,W
07AFE:  SUBLW  02
07B00:  BNZ   7B6A
....................             if((Contrasena[0]==Password[0])&&(Contrasena[1]==Password[1])&&(Contrasena[2]==Password[2])&&(Contrasena[3]==Password[3])){ 
07B02:  MOVLB  3
07B04:  MOVF   x89,W
07B06:  SUBWF  x85,W
07B08:  BNZ   7B50
07B0A:  MOVF   x8A,W
07B0C:  SUBWF  x86,W
07B0E:  BNZ   7B50
07B10:  MOVF   x8B,W
07B12:  SUBWF  x87,W
07B14:  BNZ   7B50
07B16:  MOVF   x8C,W
07B18:  SUBWF  x88,W
07B1A:  BNZ   7B50
....................                printf("page Clave"); 
07B1C:  MOVLW  C6
07B1E:  MOVWF  FF6
07B20:  MOVLW  06
07B22:  MOVWF  FF7
07B24:  MOVLW  00
07B26:  MOVWF  FF8
07B28:  MOVLB  0
07B2A:  CALL   3842
....................                SendDataDisplay(); 
07B2E:  CALL   3874
....................                printf("titulo.txt=\"Clave Nueva\""); 
07B32:  MOVLW  D2
07B34:  MOVWF  FF6
07B36:  MOVLW  06
07B38:  MOVWF  FF7
07B3A:  MOVLW  00
07B3C:  MOVWF  FF8
07B3E:  CALL   3842
....................                SendDataDisplay(); 
07B42:  CALL   3874
....................                TipoClave=3; 
07B46:  MOVLW  03
07B48:  MOVLB  2
07B4A:  MOVWF  xDE
....................             }else{ 
07B4C:  BRA    7B68
07B4E:  MOVLB  3
....................                printf("page MenuPrincipal"); 
07B50:  MOVLW  EC
07B52:  MOVWF  FF6
07B54:  MOVLW  06
07B56:  MOVWF  FF7
07B58:  MOVLW  00
07B5A:  MOVWF  FF8
07B5C:  MOVLB  0
07B5E:  CALL   3842
....................                SendDataDisplay(); 
07B62:  CALL   3874
07B66:  MOVLB  2
....................             }  
....................          }else if(TipoClave==3){ 
07B68:  BRA    7C8C
07B6A:  MOVF   xDE,W
07B6C:  SUBLW  03
07B6E:  BTFSS  FD8.2
07B70:  BRA    7C8C
....................             printf("titulo.txt=\"Clave Nueva\""); 
07B72:  MOVLW  00
07B74:  MOVWF  FF6
07B76:  MOVLW  07
07B78:  MOVWF  FF7
07B7A:  MOVLW  00
07B7C:  MOVWF  FF8
07B7E:  MOVLB  0
07B80:  CALL   3842
....................             SendDataDisplay(); 
07B84:  CALL   3874
....................             printf("page MenuPrincipal"); 
07B88:  MOVLW  1A
07B8A:  MOVWF  FF6
07B8C:  MOVLW  07
07B8E:  MOVWF  FF7
07B90:  MOVLW  00
07B92:  MOVWF  FF8
07B94:  CALL   3842
....................             SendDataDisplay(); 
07B98:  CALL   3874
....................             if(!GuardaEEPROM){ 
07B9C:  BTFSC  xA2.4
07B9E:  BRA    7C8A
....................                write_eeprom(10,Contrasena[0]);delay_ms(20);write_eeprom(11,Contrasena[1]);delay_ms(20); 
07BA0:  CLRF   FAA
07BA2:  MOVLW  0A
07BA4:  MOVWF  FA9
07BA6:  MOVFF  385,FA8
07BAA:  BCF    FA6.6
07BAC:  BCF    FA6.7
07BAE:  BSF    FA6.2
07BB0:  MOVF   FF2,W
07BB2:  MOVWF  00
07BB4:  BCF    FF2.6
07BB6:  BCF    FF2.7
07BB8:  MOVLB  F
07BBA:  MOVLW  55
07BBC:  MOVWF  FA7
07BBE:  MOVLW  AA
07BC0:  MOVWF  FA7
07BC2:  BSF    FA6.1
07BC4:  BTFSC  FA6.1
07BC6:  BRA    7BC4
07BC8:  BCF    FA6.2
07BCA:  MOVF   00,W
07BCC:  IORWF  FF2,F
07BCE:  MOVLW  14
07BD0:  MOVLB  4
07BD2:  MOVWF  x54
07BD4:  MOVLB  0
07BD6:  CALL   19B0
07BDA:  CLRF   FAA
07BDC:  MOVLW  0B
07BDE:  MOVWF  FA9
07BE0:  MOVFF  386,FA8
07BE4:  BCF    FA6.6
07BE6:  BCF    FA6.7
07BE8:  BSF    FA6.2
07BEA:  MOVF   FF2,W
07BEC:  MOVWF  00
07BEE:  BCF    FF2.6
07BF0:  BCF    FF2.7
07BF2:  MOVLB  F
07BF4:  MOVLW  55
07BF6:  MOVWF  FA7
07BF8:  MOVLW  AA
07BFA:  MOVWF  FA7
07BFC:  BSF    FA6.1
07BFE:  BTFSC  FA6.1
07C00:  BRA    7BFE
07C02:  BCF    FA6.2
07C04:  MOVF   00,W
07C06:  IORWF  FF2,F
07C08:  MOVLW  14
07C0A:  MOVLB  4
07C0C:  MOVWF  x54
07C0E:  MOVLB  0
07C10:  CALL   19B0
....................                write_eeprom(12,Contrasena[2]);delay_ms(20);write_eeprom(13,Contrasena[3]);delay_ms(20); 
07C14:  CLRF   FAA
07C16:  MOVLW  0C
07C18:  MOVWF  FA9
07C1A:  MOVFF  387,FA8
07C1E:  BCF    FA6.6
07C20:  BCF    FA6.7
07C22:  BSF    FA6.2
07C24:  MOVF   FF2,W
07C26:  MOVWF  00
07C28:  BCF    FF2.6
07C2A:  BCF    FF2.7
07C2C:  MOVLB  F
07C2E:  MOVLW  55
07C30:  MOVWF  FA7
07C32:  MOVLW  AA
07C34:  MOVWF  FA7
07C36:  BSF    FA6.1
07C38:  BTFSC  FA6.1
07C3A:  BRA    7C38
07C3C:  BCF    FA6.2
07C3E:  MOVF   00,W
07C40:  IORWF  FF2,F
07C42:  MOVLW  14
07C44:  MOVLB  4
07C46:  MOVWF  x54
07C48:  MOVLB  0
07C4A:  CALL   19B0
07C4E:  CLRF   FAA
07C50:  MOVLW  0D
07C52:  MOVWF  FA9
07C54:  MOVFF  388,FA8
07C58:  BCF    FA6.6
07C5A:  BCF    FA6.7
07C5C:  BSF    FA6.2
07C5E:  MOVF   FF2,W
07C60:  MOVWF  00
07C62:  BCF    FF2.6
07C64:  BCF    FF2.7
07C66:  MOVLB  F
07C68:  MOVLW  55
07C6A:  MOVWF  FA7
07C6C:  MOVLW  AA
07C6E:  MOVWF  FA7
07C70:  BSF    FA6.1
07C72:  BTFSC  FA6.1
07C74:  BRA    7C72
07C76:  BCF    FA6.2
07C78:  MOVF   00,W
07C7A:  IORWF  FF2,F
07C7C:  MOVLW  14
07C7E:  MOVLB  4
07C80:  MOVWF  x54
07C82:  MOVLB  0
07C84:  CALL   19B0
....................                GuardaEEPROM=ON; 
07C88:  BSF    xA2.4
07C8A:  MOVLB  2
....................             } 
....................          } 
....................       } 
....................        
....................       if(RX_Buffer[4]==0x11){//11 
07C8C:  MOVF   34,W
07C8E:  SUBLW  11
07C90:  BNZ   7CB0
....................          if(TipoClave!=0){ 
07C92:  MOVF   xDE,F
07C94:  BZ    7CB0
....................             printf("page MenuPrincipal"); 
07C96:  MOVLW  2E
07C98:  MOVWF  FF6
07C9A:  MOVLW  07
07C9C:  MOVWF  FF7
07C9E:  MOVLW  00
07CA0:  MOVWF  FF8
07CA2:  MOVLB  0
07CA4:  CALL   3842
....................             SendDataDisplay(); 
07CA8:  CALL   3874
....................             PantallaPrincipal=0; 
07CAC:  MOVLB  2
07CAE:  CLRF   xDD
....................          } 
....................       } 
....................        
....................       if(TipoClave==3){ 
07CB0:  MOVF   xDE,W
07CB2:  SUBLW  03
07CB4:  BNZ   7CE2
....................          printf("titulo.txt=\"Clave Nueva\""); 
07CB6:  MOVLW  42
07CB8:  MOVWF  FF6
07CBA:  MOVLW  07
07CBC:  MOVWF  FF7
07CBE:  MOVLW  00
07CC0:  MOVWF  FF8
07CC2:  MOVLB  0
07CC4:  CALL   3842
....................          SendDataDisplay(); 
07CC8:  CALL   3874
....................          printf("doevents"); 
07CCC:  MOVLW  5C
07CCE:  MOVWF  FF6
07CD0:  MOVLW  07
07CD2:  MOVWF  FF7
07CD4:  MOVLW  00
07CD6:  MOVWF  FF8
07CD8:  CALL   3842
....................          SendDataDisplay(); 
07CDC:  CALL   3874
07CE0:  MOVLB  2
....................       } 
....................        
....................       if(TipoClave==2){ 
07CE2:  MOVF   xDE,W
07CE4:  SUBLW  02
07CE6:  BNZ   7D14
....................          printf("titulo.txt=\"Clave Actual\""); 
07CE8:  MOVLW  66
07CEA:  MOVWF  FF6
07CEC:  MOVLW  07
07CEE:  MOVWF  FF7
07CF0:  MOVLW  00
07CF2:  MOVWF  FF8
07CF4:  MOVLB  0
07CF6:  CALL   3842
....................          SendDataDisplay(); 
07CFA:  CALL   3874
....................          printf("doevents"); 
07CFE:  MOVLW  80
07D00:  MOVWF  FF6
07D02:  MOVLW  07
07D04:  MOVWF  FF7
07D06:  MOVLW  00
07D08:  MOVWF  FF8
07D0A:  CALL   3842
....................          SendDataDisplay(); 
07D0E:  CALL   3874
07D12:  MOVLB  2
....................       } 
....................        
....................       if(TipoClave==1){ 
07D14:  DECFSZ xDE,W
07D16:  BRA    7D44
....................          printf("titulo.txt=\"Clave Tecnico\""); 
07D18:  MOVLW  8A
07D1A:  MOVWF  FF6
07D1C:  MOVLW  07
07D1E:  MOVWF  FF7
07D20:  MOVLW  00
07D22:  MOVWF  FF8
07D24:  MOVLB  0
07D26:  CALL   3842
....................          SendDataDisplay(); 
07D2A:  CALL   3874
....................          printf("doevents"); 
07D2E:  MOVLW  A6
07D30:  MOVWF  FF6
07D32:  MOVLW  07
07D34:  MOVWF  FF7
07D36:  MOVLW  00
07D38:  MOVWF  FF8
07D3A:  CALL   3842
....................          SendDataDisplay(); 
07D3E:  CALL   3874
07D42:  MOVLB  2
....................       } 
....................        
....................       if(TipoClave==0){ 
07D44:  MOVF   xDE,F
07D46:  BNZ   7D60
....................          printf("titulo.txt=\"Ingrese Contrasea\""); 
07D48:  MOVLW  B0
07D4A:  MOVWF  FF6
07D4C:  MOVLW  07
07D4E:  MOVWF  FF7
07D50:  MOVLW  00
07D52:  MOVWF  FF8
07D54:  MOVLB  0
07D56:  CALL   3842
....................          SendDataDisplay(); 
07D5A:  CALL   3874
07D5E:  MOVLB  2
....................       } 
....................       if(RX_Buffer[3]==0x0f){//0f, recibe caracteres ingresados desde el Display 
07D60:  MOVF   33,W
07D62:  SUBLW  0F
07D64:  BTFSS  FD8.2
07D66:  BRA    8140
....................          if(TipoClave==0){ 
07D68:  MOVF   xDE,F
07D6A:  BTFSS  FD8.2
07D6C:  BRA    7EFC
....................             if(RX_Buffer[4]==0x33&&RX_Buffer[5]==0x38&&RX_Buffer[6]==0x39&&RX_Buffer[7]==0x32){ // Si Ingresa clave para reset general del sistema. 
07D6E:  MOVF   34,W
07D70:  SUBLW  33
07D72:  BTFSS  FD8.2
07D74:  BRA    7E6E
07D76:  MOVF   35,W
07D78:  SUBLW  38
07D7A:  BTFSS  FD8.2
07D7C:  BRA    7E6E
07D7E:  MOVF   36,W
07D80:  SUBLW  39
07D82:  BNZ   7E6E
07D84:  MOVF   37,W
07D86:  SUBLW  32
07D88:  BNZ   7E6E
....................                write_eeprom(10,0);delay_ms(20);write_eeprom(11,0);delay_ms(20);// Reestablece a contrasea de Fabrica y reinicia Programa. 
07D8A:  CLRF   FAA
07D8C:  MOVLW  0A
07D8E:  MOVWF  FA9
07D90:  CLRF   FA8
07D92:  BCF    FA6.6
07D94:  BCF    FA6.7
07D96:  BSF    FA6.2
07D98:  MOVF   FF2,W
07D9A:  MOVWF  00
07D9C:  BCF    FF2.6
07D9E:  BCF    FF2.7
07DA0:  MOVLB  F
07DA2:  MOVLW  55
07DA4:  MOVWF  FA7
07DA6:  MOVLW  AA
07DA8:  MOVWF  FA7
07DAA:  BSF    FA6.1
07DAC:  BTFSC  FA6.1
07DAE:  BRA    7DAC
07DB0:  BCF    FA6.2
07DB2:  MOVF   00,W
07DB4:  IORWF  FF2,F
07DB6:  MOVLW  14
07DB8:  MOVLB  4
07DBA:  MOVWF  x54
07DBC:  MOVLB  0
07DBE:  CALL   19B0
07DC2:  CLRF   FAA
07DC4:  MOVLW  0B
07DC6:  MOVWF  FA9
07DC8:  CLRF   FA8
07DCA:  BCF    FA6.6
07DCC:  BCF    FA6.7
07DCE:  BSF    FA6.2
07DD0:  MOVF   FF2,W
07DD2:  MOVWF  00
07DD4:  BCF    FF2.6
07DD6:  BCF    FF2.7
07DD8:  MOVLB  F
07DDA:  MOVLW  55
07DDC:  MOVWF  FA7
07DDE:  MOVLW  AA
07DE0:  MOVWF  FA7
07DE2:  BSF    FA6.1
07DE4:  BTFSC  FA6.1
07DE6:  BRA    7DE4
07DE8:  BCF    FA6.2
07DEA:  MOVF   00,W
07DEC:  IORWF  FF2,F
07DEE:  MOVLW  14
07DF0:  MOVLB  4
07DF2:  MOVWF  x54
07DF4:  MOVLB  0
07DF6:  CALL   19B0
....................                write_eeprom(12,0);delay_ms(20);write_eeprom(13,0);delay_ms(20); 
07DFA:  CLRF   FAA
07DFC:  MOVLW  0C
07DFE:  MOVWF  FA9
07E00:  CLRF   FA8
07E02:  BCF    FA6.6
07E04:  BCF    FA6.7
07E06:  BSF    FA6.2
07E08:  MOVF   FF2,W
07E0A:  MOVWF  00
07E0C:  BCF    FF2.6
07E0E:  BCF    FF2.7
07E10:  MOVLB  F
07E12:  MOVLW  55
07E14:  MOVWF  FA7
07E16:  MOVLW  AA
07E18:  MOVWF  FA7
07E1A:  BSF    FA6.1
07E1C:  BTFSC  FA6.1
07E1E:  BRA    7E1C
07E20:  BCF    FA6.2
07E22:  MOVF   00,W
07E24:  IORWF  FF2,F
07E26:  MOVLW  14
07E28:  MOVLB  4
07E2A:  MOVWF  x54
07E2C:  MOVLB  0
07E2E:  CALL   19B0
07E32:  CLRF   FAA
07E34:  MOVLW  0D
07E36:  MOVWF  FA9
07E38:  CLRF   FA8
07E3A:  BCF    FA6.6
07E3C:  BCF    FA6.7
07E3E:  BSF    FA6.2
07E40:  MOVF   FF2,W
07E42:  MOVWF  00
07E44:  BCF    FF2.6
07E46:  BCF    FF2.7
07E48:  MOVLB  F
07E4A:  MOVLW  55
07E4C:  MOVWF  FA7
07E4E:  MOVLW  AA
07E50:  MOVWF  FA7
07E52:  BSF    FA6.1
07E54:  BTFSC  FA6.1
07E56:  BRA    7E54
07E58:  BCF    FA6.2
07E5A:  MOVF   00,W
07E5C:  IORWF  FF2,F
07E5E:  MOVLW  14
07E60:  MOVLB  4
07E62:  MOVWF  x54
07E64:  MOVLB  0
07E66:  CALL   19B0
....................                reset_cpu(); 
07E6A:  RESET
07E6C:  MOVLB  2
....................             } 
....................             if(RX_Buffer[4]>=0x30 && RX_Buffer[5]>=0x30 && RX_Buffer[6]>=0x30 && RX_Buffer[7]>=0x30 
....................             && RX_Buffer[4]<=0x39 && RX_Buffer[5]<=0x39 && RX_Buffer[6]<=0x39 && RX_Buffer[7]<=0x39){ 
07E6E:  MOVF   34,W
07E70:  SUBLW  2F
07E72:  BC    7EFA
07E74:  MOVF   35,W
07E76:  SUBLW  2F
07E78:  BC    7EFA
07E7A:  MOVF   36,W
07E7C:  SUBLW  2F
07E7E:  BC    7EFA
07E80:  MOVF   37,W
07E82:  SUBLW  2F
07E84:  BC    7EFA
07E86:  MOVF   34,W
07E88:  SUBLW  39
07E8A:  BNC   7EFA
07E8C:  MOVF   35,W
07E8E:  SUBLW  39
07E90:  BNC   7EFA
07E92:  MOVF   36,W
07E94:  SUBLW  39
07E96:  BNC   7EFA
07E98:  MOVF   37,W
07E9A:  SUBLW  39
07E9C:  BNC   7EFA
....................             if((RX_Buffer[4]==Password[0]+0x30)&&(RX_Buffer[5]==Password[1]+0x30)&&(RX_Buffer[6]==Password[2]+0x30)&&(RX_Buffer[7]==Password[3]+0x30)){ 
07E9E:  MOVLW  30
07EA0:  MOVLB  3
07EA2:  ADDWF  x89,W
07EA4:  SUBWF  34,W
07EA6:  BNZ   7EDE
07EA8:  MOVLW  30
07EAA:  ADDWF  x8A,W
07EAC:  SUBWF  35,W
07EAE:  BNZ   7EDE
07EB0:  MOVLW  30
07EB2:  ADDWF  x8B,W
07EB4:  SUBWF  36,W
07EB6:  BNZ   7EDE
07EB8:  MOVLW  30
07EBA:  ADDWF  x8C,W
07EBC:  SUBWF  37,W
07EBE:  BNZ   7EDE
....................                   printf("page ClaveCorrecta"); 
07EC0:  MOVLW  D0
07EC2:  MOVWF  FF6
07EC4:  MOVLW  07
07EC6:  MOVWF  FF7
07EC8:  MOVLW  00
07ECA:  MOVWF  FF8
07ECC:  MOVLB  0
07ECE:  CALL   3842
....................                   //printf("page MenuPrincipal"); 
....................                   SendDataDisplay(); 
07ED2:  CALL   3874
....................                   RX_Buffer[3]=0x00;RX_Buffer2[3]=0x00;   
07ED6:  CLRF   33
07ED8:  CLRF   3E
....................                }else{ 
07EDA:  BRA    7EF8
07EDC:  MOVLB  3
....................                   printf("page ClaveBad"); 
07EDE:  MOVLW  E4
07EE0:  MOVWF  FF6
07EE2:  MOVLW  07
07EE4:  MOVWF  FF7
07EE6:  MOVLW  00
07EE8:  MOVWF  FF8
07EEA:  MOVLB  0
07EEC:  CALL   3842
....................                   SendDataDisplay(); 
07EF0:  CALL   3874
....................                   RX_Buffer[3]=0x00;RX_Buffer2[3]=0x00;   
07EF4:  CLRF   33
07EF6:  CLRF   3E
07EF8:  MOVLB  2
....................                }  
....................             } 
....................          }else if(TipoClave==1){ 
07EFA:  BRA    8140
07EFC:  DECFSZ xDE,W
07EFE:  BRA    7F4C
....................             if(RX_Buffer[4]==0x34&&RX_Buffer[5]==0x34&&RX_Buffer[6]==0x34&&RX_Buffer[7]==0x34){ // Si Ingresa clave de Servicio Tecnico 
07F00:  MOVF   34,W
07F02:  SUBLW  34
07F04:  BNZ   7F32
07F06:  MOVF   35,W
07F08:  SUBLW  34
07F0A:  BNZ   7F32
07F0C:  MOVF   36,W
07F0E:  SUBLW  34
07F10:  BNZ   7F32
07F12:  MOVF   37,W
07F14:  SUBLW  34
07F16:  BNZ   7F32
....................                printf("page Config"); 
07F18:  MOVLW  F2
07F1A:  MOVWF  FF6
07F1C:  MOVLW  07
07F1E:  MOVWF  FF7
07F20:  MOVLW  00
07F22:  MOVWF  FF8
07F24:  MOVLB  0
07F26:  CALL   3842
....................                SendDataDisplay(); 
07F2A:  CALL   3874
....................             }else{ 
07F2E:  BRA    7F48
07F30:  MOVLB  2
....................                printf("page MenuPrincipal"); 
07F32:  MOVLW  FE
07F34:  MOVWF  FF6
07F36:  MOVLW  07
07F38:  MOVWF  FF7
07F3A:  MOVLW  00
07F3C:  MOVWF  FF8
07F3E:  MOVLB  0
07F40:  CALL   3842
....................                SendDataDisplay(); 
07F44:  CALL   3874
....................             } 
....................          }else if(TipoClave==2){ 
07F48:  BRA    813E
07F4A:  MOVLB  2
07F4C:  MOVF   xDE,W
07F4E:  SUBLW  02
07F50:  BNZ   7FFA
....................             if(RX_Buffer[4]>=0x30 && RX_Buffer[5]>=0x30 && RX_Buffer[6]>=0x30 && RX_Buffer[7]>=0x30 
....................             && RX_Buffer[4]<=0x39 && RX_Buffer[5]<=0x39 && RX_Buffer[6]<=0x39 && RX_Buffer[7]<=0x39){ 
07F52:  MOVF   34,W
07F54:  SUBLW  2F
07F56:  BC    7FF8
07F58:  MOVF   35,W
07F5A:  SUBLW  2F
07F5C:  BC    7FF8
07F5E:  MOVF   36,W
07F60:  SUBLW  2F
07F62:  BC    7FF8
07F64:  MOVF   37,W
07F66:  SUBLW  2F
07F68:  BC    7FF8
07F6A:  MOVF   34,W
07F6C:  SUBLW  39
07F6E:  BNC   7FF8
07F70:  MOVF   35,W
07F72:  SUBLW  39
07F74:  BNC   7FF8
07F76:  MOVF   36,W
07F78:  SUBLW  39
07F7A:  BNC   7FF8
07F7C:  MOVF   37,W
07F7E:  SUBLW  39
07F80:  BNC   7FF8
....................             if((RX_Buffer[4]==Password[0]+0x30)&&(RX_Buffer[5]==Password[1]+0x30)&&(RX_Buffer[6]==Password[2]+0x30)&&(RX_Buffer[7]==Password[3]+0x30)){ 
07F82:  MOVLW  30
07F84:  MOVLB  3
07F86:  ADDWF  x89,W
07F88:  SUBWF  34,W
07F8A:  BNZ   7FDC
07F8C:  MOVLW  30
07F8E:  ADDWF  x8A,W
07F90:  SUBWF  35,W
07F92:  BNZ   7FDC
07F94:  MOVLW  30
07F96:  ADDWF  x8B,W
07F98:  SUBWF  36,W
07F9A:  BNZ   7FDC
07F9C:  MOVLW  30
07F9E:  ADDWF  x8C,W
07FA0:  SUBWF  37,W
07FA2:  BNZ   7FDC
....................                printf("page Clave"); 
07FA4:  MOVLW  12
07FA6:  MOVWF  FF6
07FA8:  MOVLW  08
07FAA:  MOVWF  FF7
07FAC:  MOVLW  00
07FAE:  MOVWF  FF8
07FB0:  MOVLB  0
07FB2:  CALL   3842
....................                SendDataDisplay(); 
07FB6:  CALL   3874
....................                printf("titulo.txt=\"Clave Nueva\""); 
07FBA:  MOVLW  1E
07FBC:  MOVWF  FF6
07FBE:  MOVLW  08
07FC0:  MOVWF  FF7
07FC2:  MOVLW  00
07FC4:  MOVWF  FF8
07FC6:  CALL   3842
....................                SendDataDisplay(); 
07FCA:  CALL   3874
....................                TipoClave=3; 
07FCE:  MOVLW  03
07FD0:  MOVLB  2
07FD2:  MOVWF  xDE
....................                RX_Buffer[3]=0x00; 
07FD4:  CLRF   33
....................                RX_Buffer2[3]=0x00; 
07FD6:  CLRF   3E
....................             }else{ 
07FD8:  BRA    7FF8
07FDA:  MOVLB  3
....................                printf("page MenuPrincipal"); 
07FDC:  MOVLW  38
07FDE:  MOVWF  FF6
07FE0:  MOVLW  08
07FE2:  MOVWF  FF7
07FE4:  MOVLW  00
07FE6:  MOVWF  FF8
07FE8:  MOVLB  0
07FEA:  CALL   3842
....................                SendDataDisplay(); 
07FEE:  CALL   3874
....................                RX_Buffer[3]=0x00; 
07FF2:  CLRF   33
....................                RX_Buffer2[3]=0x00; 
07FF4:  CLRF   3E
07FF6:  MOVLB  2
....................             }  
....................             } 
....................          }else if(TipoClave==3){ 
07FF8:  BRA    8140
07FFA:  MOVF   xDE,W
07FFC:  SUBLW  03
07FFE:  BTFSS  FD8.2
08000:  BRA    8140
....................             printf("titulo.txt=\"Clave Nueva\""); 
08002:  MOVLW  4C
08004:  MOVWF  FF6
08006:  MOVLW  08
08008:  MOVWF  FF7
0800A:  MOVLW  00
0800C:  MOVWF  FF8
0800E:  MOVLB  0
08010:  CALL   3842
....................             SendDataDisplay(); 
08014:  CALL   3874
....................             printf("page MenuPrincipal"); 
08018:  MOVLW  66
0801A:  MOVWF  FF6
0801C:  MOVLW  08
0801E:  MOVWF  FF7
08020:  MOVLW  00
08022:  MOVWF  FF8
08024:  CALL   3842
....................             SendDataDisplay(); 
08028:  CALL   3874
....................             if(!GuardaEEPROM){ 
0802C:  BTFSC  xA2.4
0802E:  BRA    813A
....................                write_eeprom(10,RX_Buffer[4]-0x30);delay_ms(20);write_eeprom(11,RX_Buffer[5]-0x30);delay_ms(20); 
08030:  MOVLW  30
08032:  SUBWF  34,W
08034:  MOVLB  4
08036:  MOVWF  x3F
08038:  CLRF   FAA
0803A:  MOVLW  0A
0803C:  MOVWF  FA9
0803E:  MOVFF  43F,FA8
08042:  BCF    FA6.6
08044:  BCF    FA6.7
08046:  BSF    FA6.2
08048:  MOVF   FF2,W
0804A:  MOVWF  00
0804C:  BCF    FF2.6
0804E:  BCF    FF2.7
08050:  MOVLB  F
08052:  MOVLW  55
08054:  MOVWF  FA7
08056:  MOVLW  AA
08058:  MOVWF  FA7
0805A:  BSF    FA6.1
0805C:  BTFSC  FA6.1
0805E:  BRA    805C
08060:  BCF    FA6.2
08062:  MOVF   00,W
08064:  IORWF  FF2,F
08066:  MOVLW  14
08068:  MOVLB  4
0806A:  MOVWF  x54
0806C:  MOVLB  0
0806E:  CALL   19B0
08072:  MOVLW  30
08074:  SUBWF  35,W
08076:  MOVLB  4
08078:  MOVWF  x3F
0807A:  CLRF   FAA
0807C:  MOVLW  0B
0807E:  MOVWF  FA9
08080:  MOVFF  43F,FA8
08084:  BCF    FA6.6
08086:  BCF    FA6.7
08088:  BSF    FA6.2
0808A:  MOVF   FF2,W
0808C:  MOVWF  00
0808E:  BCF    FF2.6
08090:  BCF    FF2.7
08092:  MOVLB  F
08094:  MOVLW  55
08096:  MOVWF  FA7
08098:  MOVLW  AA
0809A:  MOVWF  FA7
0809C:  BSF    FA6.1
0809E:  BTFSC  FA6.1
080A0:  BRA    809E
080A2:  BCF    FA6.2
080A4:  MOVF   00,W
080A6:  IORWF  FF2,F
080A8:  MOVLW  14
080AA:  MOVLB  4
080AC:  MOVWF  x54
080AE:  MOVLB  0
080B0:  CALL   19B0
....................                write_eeprom(12,RX_Buffer[6]-0x30);delay_ms(20);write_eeprom(13,RX_Buffer[7]-0x30);delay_ms(20); 
080B4:  MOVLW  30
080B6:  SUBWF  36,W
080B8:  MOVLB  4
080BA:  MOVWF  x3F
080BC:  CLRF   FAA
080BE:  MOVLW  0C
080C0:  MOVWF  FA9
080C2:  MOVFF  43F,FA8
080C6:  BCF    FA6.6
080C8:  BCF    FA6.7
080CA:  BSF    FA6.2
080CC:  MOVF   FF2,W
080CE:  MOVWF  00
080D0:  BCF    FF2.6
080D2:  BCF    FF2.7
080D4:  MOVLB  F
080D6:  MOVLW  55
080D8:  MOVWF  FA7
080DA:  MOVLW  AA
080DC:  MOVWF  FA7
080DE:  BSF    FA6.1
080E0:  BTFSC  FA6.1
080E2:  BRA    80E0
080E4:  BCF    FA6.2
080E6:  MOVF   00,W
080E8:  IORWF  FF2,F
080EA:  MOVLW  14
080EC:  MOVLB  4
080EE:  MOVWF  x54
080F0:  MOVLB  0
080F2:  CALL   19B0
080F6:  MOVLW  30
080F8:  SUBWF  37,W
080FA:  MOVLB  4
080FC:  MOVWF  x3F
080FE:  CLRF   FAA
08100:  MOVLW  0D
08102:  MOVWF  FA9
08104:  MOVFF  43F,FA8
08108:  BCF    FA6.6
0810A:  BCF    FA6.7
0810C:  BSF    FA6.2
0810E:  MOVF   FF2,W
08110:  MOVWF  00
08112:  BCF    FF2.6
08114:  BCF    FF2.7
08116:  MOVLB  F
08118:  MOVLW  55
0811A:  MOVWF  FA7
0811C:  MOVLW  AA
0811E:  MOVWF  FA7
08120:  BSF    FA6.1
08122:  BTFSC  FA6.1
08124:  BRA    8122
08126:  BCF    FA6.2
08128:  MOVF   00,W
0812A:  IORWF  FF2,F
0812C:  MOVLW  14
0812E:  MOVLB  4
08130:  MOVWF  x54
08132:  MOVLB  0
08134:  CALL   19B0
....................                GuardaEEPROM=ON; 
08138:  BSF    xA2.4
....................             } 
....................             RX_Buffer[3]=0x00; 
0813A:  CLRF   33
....................             RX_Buffer2[3]=0x00; 
0813C:  CLRF   3E
0813E:  MOVLB  2
08140:  MOVLB  3
....................          } 
....................       } 
....................     } 
.................... //_--------------------------------------------------------------------------------------------------------------------------------------------------------        
....................  
.................... //_-------------------------------------------------------------------------------------------------------------------------------------------------------- 
....................    if(Menu==1){ //Menu Principal. 
08142:  DECFSZ x62,W
08144:  GOTO   8B26
....................       printf("fecha.txt=\"T:%3.1fC Fecha:%02u/%02u/20%02u Hora: %02u:%02u:%02u\"",Temperatura,Dia,Mes,Year,Hora,Minuto,Segundo); 
08148:  MOVLW  7A
0814A:  MOVWF  FF6
0814C:  MOVLW  08
0814E:  MOVWF  FF7
08150:  MOVLW  00
08152:  MOVWF  FF8
08154:  MOVLW  0D
08156:  MOVLB  4
08158:  MOVWF  x44
0815A:  MOVLB  0
0815C:  CALL   47DC
08160:  MOVLW  02
08162:  MOVWF  FE9
08164:  MOVFF  32B,447
08168:  MOVFF  32A,446
0816C:  MOVFF  329,445
08170:  MOVFF  328,444
08174:  MOVLW  01
08176:  MOVLB  4
08178:  MOVWF  x48
0817A:  MOVLB  0
0817C:  CALL   497C
08180:  MOVLW  8C
08182:  MOVWF  FF6
08184:  MOVLW  08
08186:  MOVWF  FF7
08188:  MOVLW  00
0818A:  MOVWF  FF8
0818C:  MOVLW  09
0818E:  MOVLB  4
08190:  MOVWF  x44
08192:  MOVLB  0
08194:  CALL   47DC
08198:  MOVFF  3A0,444
0819C:  MOVLW  01
0819E:  MOVLB  4
081A0:  MOVWF  x45
081A2:  MOVLB  0
081A4:  CALL   483A
081A8:  MOVLW  2F
081AA:  BTFSS  F9E.4
081AC:  BRA    81AA
081AE:  MOVWF  FAD
081B0:  MOVFF  39F,444
081B4:  MOVLW  01
081B6:  MOVLB  4
081B8:  MOVWF  x45
081BA:  MOVLB  0
081BC:  CALL   483A
081C0:  MOVLW  2F
081C2:  BTFSS  F9E.4
081C4:  BRA    81C2
081C6:  MOVWF  FAD
081C8:  MOVLW  32
081CA:  BTFSS  F9E.4
081CC:  BRA    81CA
081CE:  MOVWF  FAD
081D0:  MOVLW  30
081D2:  BTFSS  F9E.4
081D4:  BRA    81D2
081D6:  MOVWF  FAD
081D8:  MOVFF  39E,444
081DC:  MOVLW  01
081DE:  MOVLB  4
081E0:  MOVWF  x45
081E2:  MOVLB  0
081E4:  CALL   483A
081E8:  MOVLW  A5
081EA:  MOVWF  FF6
081EC:  MOVLW  08
081EE:  MOVWF  FF7
081F0:  MOVLW  00
081F2:  MOVWF  FF8
081F4:  MOVLW  07
081F6:  MOVLB  4
081F8:  MOVWF  x44
081FA:  MOVLB  0
081FC:  CALL   47DC
08200:  MOVFF  3A1,444
08204:  MOVLW  01
08206:  MOVLB  4
08208:  MOVWF  x45
0820A:  MOVLB  0
0820C:  CALL   483A
08210:  MOVLW  3A
08212:  BTFSS  F9E.4
08214:  BRA    8212
08216:  MOVWF  FAD
08218:  MOVFF  3A2,444
0821C:  MOVLW  01
0821E:  MOVLB  4
08220:  MOVWF  x45
08222:  MOVLB  0
08224:  CALL   483A
08228:  MOVLW  3A
0822A:  BTFSS  F9E.4
0822C:  BRA    822A
0822E:  MOVWF  FAD
08230:  MOVFF  3A3,444
08234:  MOVLW  01
08236:  MOVLB  4
08238:  MOVWF  x45
0823A:  MOVLB  0
0823C:  CALL   483A
08240:  MOVLW  22
08242:  BTFSS  F9E.4
08244:  BRA    8242
08246:  MOVWF  FAD
....................       SendDataDisplay(); 
08248:  CALL   3874
....................       GuardaEEPROM=OFF; 
0824C:  BCF    xA2.4
....................       if(RX_Buffer[3]==0x0f || UP){//0f, recibe caracteres ingresados desde el Display 
0824E:  MOVF   33,W
08250:  SUBLW  0F
08252:  BZ    825A
08254:  BSF    F93.0
08256:  BTFSC  F81.0
08258:  BRA    84DE
....................          delay_ms(5); 
0825A:  MOVLW  05
0825C:  MOVLB  4
0825E:  MOVWF  x54
08260:  MOVLB  0
08262:  CALL   19B0
....................          if(RX_Buffer[3]==0x0f || UP){ 
08266:  MOVF   33,W
08268:  SUBLW  0F
0826A:  BZ    8272
0826C:  BSF    F93.0
0826E:  BTFSC  F81.0
08270:  BRA    84D8
....................          if(PantallaPrincipal==0){//Si esta en menu principal 
08272:  MOVLB  2
08274:  MOVF   xDD,F
08276:  BTFSS  FD8.2
08278:  BRA    84DC
....................             if(RX_Buffer[4]==0x37){//Ajustes y pasa a solicitud de password de tecnico 
0827A:  MOVF   34,W
0827C:  SUBLW  37
0827E:  BNZ   82AC
....................                printf("page Clave"); 
08280:  MOVLW  BC
08282:  MOVWF  FF6
08284:  MOVLW  08
08286:  MOVWF  FF7
08288:  MOVLW  00
0828A:  MOVWF  FF8
0828C:  MOVLB  0
0828E:  CALL   3842
....................                SendDataDisplay();  
08292:  CALL   3874
....................                Op=OFF; 
08296:  BCF    xA2.0
....................                Op2=OFF; 
08298:  BCF    xA2.1
....................                MenuAnt=Menu; 
0829A:  MOVFF  362,363
....................                TipoClave=1; 
0829E:  MOVLW  01
082A0:  MOVLB  2
082A2:  MOVWF  xDE
....................                RX_Buffer[3]=0x00; 
082A4:  CLRF   33
....................                RX_Buffer2[3]=0x00; 
082A6:  CLRF   3E
....................                Opcion=0; 
082A8:  MOVLB  3
082AA:  CLRF   x6C
....................             }if(Opcion==9){// Datos Ciclo 
082AC:  MOVLB  3
082AE:  MOVF   x6C,W
082B0:  SUBLW  09
082B2:  BNZ   82DE
....................                printf("page Ciclos"); 
082B4:  MOVLW  C8
082B6:  MOVWF  FF6
082B8:  MOVLW  08
082BA:  MOVWF  FF7
082BC:  MOVLW  00
082BE:  MOVWF  FF8
082C0:  MOVLB  0
082C2:  CALL   3842
....................                SendDataDisplay();  
082C6:  CALL   3874
....................                Op=OFF; 
082CA:  BCF    xA2.0
....................                Op2=OFF; 
082CC:  BCF    xA2.1
....................                MenuAnt=Menu; 
082CE:  MOVFF  362,363
....................                RX_Buffer[3]=0x00; 
082D2:  CLRF   33
....................                RX_Buffer2[3]=0x00; 
082D4:  CLRF   3E
....................                Opcion=1; 
082D6:  MOVLW  01
082D8:  MOVLB  3
082DA:  MOVWF  x6C
....................             }else if(Opcion==8){// Cambio de Clave 
082DC:  BRA    84DA
082DE:  MOVF   x6C,W
082E0:  SUBLW  08
082E2:  BNZ   8312
....................                printf("page Clave"); 
082E4:  MOVLW  D4
082E6:  MOVWF  FF6
082E8:  MOVLW  08
082EA:  MOVWF  FF7
082EC:  MOVLW  00
082EE:  MOVWF  FF8
082F0:  MOVLB  0
082F2:  CALL   3842
....................                SendDataDisplay();  
082F6:  CALL   3874
....................                Op=OFF; 
082FA:  BCF    xA2.0
....................                Op2=OFF; 
082FC:  BCF    xA2.1
....................                MenuAnt=Menu; 
082FE:  MOVFF  362,363
....................                TipoClave=2; 
08302:  MOVLW  02
08304:  MOVLB  2
08306:  MOVWF  xDE
....................                RX_Buffer[3]=0x00; 
08308:  CLRF   33
....................                RX_Buffer2[3]=0x00; 
0830A:  CLRF   3E
....................                Opcion=0; 
0830C:  MOVLB  3
0830E:  CLRF   x6C
....................             }else if(Opcion==7){//Hora y Fecha 
08310:  BRA    84DA
08312:  MOVF   x6C,W
08314:  SUBLW  07
08316:  BNZ   8354
....................                printf("page Fecha"); 
08318:  MOVLW  E0
0831A:  MOVWF  FF6
0831C:  MOVLW  08
0831E:  MOVWF  FF7
08320:  MOVLW  00
08322:  MOVWF  FF8
08324:  MOVLB  0
08326:  CALL   3842
....................                SendDataDisplay();      
0832A:  CALL   3874
....................                PantallaPrincipal=0; 
0832E:  MOVLB  2
08330:  CLRF   xDD
....................                MenuAnt=Menu; 
08332:  MOVFF  362,363
....................                Op=OFF; 
08336:  MOVLB  0
08338:  BCF    xA2.0
....................                Op2=OFF; 
0833A:  BCF    xA2.1
....................                DiaTx=Dia; 
0833C:  MOVFF  3A0,3A7
....................                MesTx=Mes; 
08340:  MOVFF  39F,3A6
....................                YearTx=Year; 
08344:  MOVFF  39E,3A5
....................                HoraTx=Hora; 
08348:  MOVFF  3A1,3A8
....................                MinutoTx=Minuto; 
0834C:  MOVFF  3A2,3A9
....................             }else if(Opcion==6){//Test 
08350:  BRA    84D8
08352:  MOVLB  3
08354:  MOVF   x6C,W
08356:  SUBLW  06
08358:  BNZ   8382
....................                printf("page Test"); 
0835A:  MOVLW  EC
0835C:  MOVWF  FF6
0835E:  MOVLW  08
08360:  MOVWF  FF7
08362:  MOVLW  00
08364:  MOVWF  FF8
08366:  MOVLB  0
08368:  CALL   3842
....................                SendDataDisplay();      
0836C:  CALL   3874
....................                PantallaPrincipal=0; 
08370:  MOVLB  2
08372:  CLRF   xDD
....................                MenuAnt=Menu; 
08374:  MOVFF  362,363
....................                Op=OFF; 
08378:  MOVLB  0
0837A:  BCF    xA2.0
....................                Op2=OFF; 
0837C:  BCF    xA2.1
....................             }else if(Opcion==5){//Ciclo Personalizado 
0837E:  BRA    84D8
08380:  MOVLB  3
08382:  MOVF   x6C,W
08384:  SUBLW  05
08386:  BNZ   83AA
....................                printf("page CicloPersona"); 
08388:  MOVLW  F6
0838A:  MOVWF  FF6
0838C:  MOVLW  08
0838E:  MOVWF  FF7
08390:  MOVLW  00
08392:  MOVWF  FF8
08394:  MOVLB  0
08396:  CALL   3842
....................                SendDataDisplay();  
0839A:  CALL   3874
....................                MenuAnt=Menu; 
0839E:  MOVFF  362,363
....................                Op=OFF; 
083A2:  BCF    xA2.0
....................                Op2=OFF; 
083A4:  BCF    xA2.1
....................             }else if(Opcion==4){//LiquidosB 
083A6:  BRA    84D8
083A8:  MOVLB  3
083AA:  MOVF   x6C,W
083AC:  SUBLW  04
083AE:  BNZ   83F8
....................                printf("page Nivel"); 
083B0:  MOVLW  08
083B2:  MOVWF  FF6
083B4:  MOVLW  09
083B6:  MOVWF  FF7
083B8:  MOVLW  00
083BA:  MOVWF  FF8
083BC:  MOVLB  0
083BE:  CALL   3842
....................                SendDataDisplay();        
083C2:  CALL   3874
....................                ConfiguraCiclo(0,0,0,3,0,0,0,0,1,4,121); 
083C6:  MOVLB  4
083C8:  CLRF   x49
083CA:  CLRF   x4A
083CC:  CLRF   x4B
083CE:  MOVLW  03
083D0:  MOVWF  x4C
083D2:  CLRF   x4D
083D4:  CLRF   x4E
083D6:  CLRF   x4F
083D8:  CLRF   x50
083DA:  MOVLW  01
083DC:  MOVWF  x51
083DE:  MOVLW  04
083E0:  MOVWF  x52
083E2:  MOVLW  79
083E4:  MOVWF  x53
083E6:  MOVLB  0
083E8:  CALL   4B20
....................                Op=OFF; 
083EC:  BCF    xA2.0
....................                Op2=OFF; 
083EE:  BCF    xA2.1
....................                MenuAnt=2; 
083F0:  MOVLW  02
083F2:  MOVLB  3
083F4:  MOVWF  x63
....................             }else if(Opcion==1){//LiquidosA 
083F6:  BRA    84DA
083F8:  DECFSZ x6C,W
083FA:  BRA    8442
....................                printf("page Nivel"); 
083FC:  MOVLW  14
083FE:  MOVWF  FF6
08400:  MOVLW  09
08402:  MOVWF  FF7
08404:  MOVLW  00
08406:  MOVWF  FF8
08408:  MOVLB  0
0840A:  CALL   3842
....................                SendDataDisplay();        
0840E:  CALL   3874
....................                ConfiguraCiclo(0,0,5,1,0,0,0,0,1,1,121); 
08412:  MOVLB  4
08414:  CLRF   x49
08416:  CLRF   x4A
08418:  MOVLW  05
0841A:  MOVWF  x4B
0841C:  MOVLW  01
0841E:  MOVWF  x4C
08420:  CLRF   x4D
08422:  CLRF   x4E
08424:  CLRF   x4F
08426:  CLRF   x50
08428:  MOVWF  x51
0842A:  MOVWF  x52
0842C:  MOVLW  79
0842E:  MOVWF  x53
08430:  MOVLB  0
08432:  CALL   4B20
....................                Op=OFF; 
08436:  BCF    xA2.0
....................                Op2=OFF; 
08438:  BCF    xA2.1
....................                MenuAnt=2; 
0843A:  MOVLW  02
0843C:  MOVLB  3
0843E:  MOVWF  x63
....................             }else if(Opcion==3){//Instrumental 
08440:  BRA    84DA
08442:  MOVF   x6C,W
08444:  SUBLW  03
08446:  BNZ   848C
....................                printf("page Funcionamiento"); 
08448:  MOVLW  20
0844A:  MOVWF  FF6
0844C:  MOVLW  09
0844E:  MOVWF  FF7
08450:  MOVLW  00
08452:  MOVWF  FF8
08454:  MOVLB  0
08456:  CALL   3842
....................                SendDataDisplay();        
0845A:  CALL   3874
....................                ConfiguraCiclo(0,0,0,3,0,0,0,3,0,3,121); 
0845E:  MOVLB  4
08460:  CLRF   x49
08462:  CLRF   x4A
08464:  CLRF   x4B
08466:  MOVLW  03
08468:  MOVWF  x4C
0846A:  CLRF   x4D
0846C:  CLRF   x4E
0846E:  CLRF   x4F
08470:  MOVWF  x50
08472:  CLRF   x51
08474:  MOVWF  x52
08476:  MOVLW  79
08478:  MOVWF  x53
0847A:  MOVLB  0
0847C:  CALL   4B20
....................                Op=OFF; 
08480:  BCF    xA2.0
....................                Op2=OFF; 
08482:  BCF    xA2.1
....................                MenuAnt=Menu; 
08484:  MOVFF  362,363
....................                //if(Temperatura>60)TTrampa=TTrampa+5; 
....................             }else if(Opcion==2){//Caucho 
08488:  BRA    84D8
0848A:  MOVLB  3
0848C:  MOVF   x6C,W
0848E:  SUBLW  02
08490:  BNZ   84DA
....................                printf("page Funcionamiento"); 
08492:  MOVLW  34
08494:  MOVWF  FF6
08496:  MOVLW  09
08498:  MOVWF  FF7
0849A:  MOVLW  00
0849C:  MOVWF  FF8
0849E:  MOVLB  0
084A0:  CALL   3842
....................                SendDataDisplay();        
084A4:  CALL   3874
....................                ConfiguraCiclo(0,0,5,1,0,0,3,0,0,2,121); 
084A8:  MOVLB  4
084AA:  CLRF   x49
084AC:  CLRF   x4A
084AE:  MOVLW  05
084B0:  MOVWF  x4B
084B2:  MOVLW  01
084B4:  MOVWF  x4C
084B6:  CLRF   x4D
084B8:  CLRF   x4E
084BA:  MOVLW  03
084BC:  MOVWF  x4F
084BE:  CLRF   x50
084C0:  CLRF   x51
084C2:  MOVLW  02
084C4:  MOVWF  x52
084C6:  MOVLW  79
084C8:  MOVWF  x53
084CA:  MOVLB  0
084CC:  CALL   4B20
....................                Op=OFF; 
084D0:  BCF    xA2.0
....................                Op2=OFF; 
084D2:  BCF    xA2.1
....................                MenuAnt=Menu; 
084D4:  MOVFF  362,363
084D8:  MOVLB  3
084DA:  MOVLB  2
....................                //if(Temperatura>60)TTrampa=TTrampa+5; 
....................             } 
....................          } 
....................          } 
....................       }else if(PantallaPrincipal==0){ 
084DC:  BRA    8AD8
084DE:  MOVLB  2
084E0:  MOVF   xDD,F
084E2:  BTFSS  FD8.2
084E4:  BRA    8AD8
....................          if(Opcion>sizeof(iconoGrande)) 
084E6:  MOVLB  3
084E8:  MOVF   x6C,W
084EA:  SUBLW  09
084EC:  BC    84F2
....................             Opcion=1; 
084EE:  MOVLW  01
084F0:  MOVWF  x6C
....................              
....................          if(Opcion<1) 
084F2:  MOVF   x6C,F
084F4:  BNZ   84FA
....................             Opcion=sizeof(iconoGrande); 
084F6:  MOVLW  09
084F8:  MOVWF  x6C
....................           
....................          if(Opcion==1){ 
084FA:  DECFSZ x6C,W
084FC:  BRA    86AA
....................             printf("bc.pic=%u",iconoGrande[Opcion-1]); 
084FE:  MOVLW  01
08500:  SUBWF  x6C,W
08502:  CLRF   03
08504:  ADDLW  B3
08506:  MOVWF  FE9
08508:  MOVLW  03
0850A:  ADDWFC 03,W
0850C:  MOVWF  FEA
0850E:  MOVFF  FEF,43F
08512:  MOVLW  48
08514:  MOVWF  FF6
08516:  MOVLW  09
08518:  MOVWF  FF7
0851A:  MOVLW  00
0851C:  MOVWF  FF8
0851E:  MOVLW  07
08520:  MOVLB  4
08522:  MOVWF  x44
08524:  MOVLB  0
08526:  CALL   47DC
0852A:  MOVFF  43F,444
0852E:  MOVLW  1B
08530:  MOVLB  4
08532:  MOVWF  x45
08534:  MOVLB  0
08536:  CALL   483A
....................             SendDataDisplay(); 
0853A:  CALL   3874
....................             printf("bd.pic=%u",iconoPeque[Opcion]); 
0853E:  CLRF   03
08540:  MOVLB  3
08542:  MOVF   x6C,W
08544:  ADDLW  BC
08546:  MOVWF  FE9
08548:  MOVLW  03
0854A:  ADDWFC 03,W
0854C:  MOVWF  FEA
0854E:  MOVFF  FEF,43F
08552:  MOVLW  52
08554:  MOVWF  FF6
08556:  MOVLW  09
08558:  MOVWF  FF7
0855A:  MOVLW  00
0855C:  MOVWF  FF8
0855E:  MOVLW  07
08560:  MOVLB  4
08562:  MOVWF  x44
08564:  MOVLB  0
08566:  CALL   47DC
0856A:  MOVFF  43F,444
0856E:  MOVLW  1B
08570:  MOVLB  4
08572:  MOVWF  x45
08574:  MOVLB  0
08576:  CALL   483A
....................             SendDataDisplay(); 
0857A:  CALL   3874
....................             printf("bi.pic=%u",iconoPeque[sizeof(iconoGrande)-1]); 
0857E:  MOVLW  5C
08580:  MOVWF  FF6
08582:  MOVLW  09
08584:  MOVWF  FF7
08586:  MOVLW  00
08588:  MOVWF  FF8
0858A:  MOVLW  07
0858C:  MOVLB  4
0858E:  MOVWF  x44
08590:  MOVLB  0
08592:  CALL   47DC
08596:  MOVFF  3C4,444
0859A:  MOVLW  1B
0859C:  MOVLB  4
0859E:  MOVWF  x45
085A0:  MOVLB  0
085A2:  CALL   483A
....................             SendDataDisplay(); 
085A6:  CALL   3874
....................             printf("bc.pic2=%u",iconoGrande[Opcion-1]); 
085AA:  MOVLW  01
085AC:  MOVLB  3
085AE:  SUBWF  x6C,W
085B0:  CLRF   03
085B2:  ADDLW  B3
085B4:  MOVWF  FE9
085B6:  MOVLW  03
085B8:  ADDWFC 03,W
085BA:  MOVWF  FEA
085BC:  MOVFF  FEF,43F
085C0:  MOVLW  66
085C2:  MOVWF  FF6
085C4:  MOVLW  09
085C6:  MOVWF  FF7
085C8:  MOVLW  00
085CA:  MOVWF  FF8
085CC:  MOVLW  08
085CE:  MOVLB  4
085D0:  MOVWF  x44
085D2:  MOVLB  0
085D4:  CALL   47DC
085D8:  MOVFF  43F,444
085DC:  MOVLW  1B
085DE:  MOVLB  4
085E0:  MOVWF  x45
085E2:  MOVLB  0
085E4:  CALL   483A
....................             SendDataDisplay(); 
085E8:  CALL   3874
....................             printf("bd.pic2=%u",iconoPeque[Opcion]); 
085EC:  CLRF   03
085EE:  MOVLB  3
085F0:  MOVF   x6C,W
085F2:  ADDLW  BC
085F4:  MOVWF  FE9
085F6:  MOVLW  03
085F8:  ADDWFC 03,W
085FA:  MOVWF  FEA
085FC:  MOVFF  FEF,43F
08600:  MOVLW  72
08602:  MOVWF  FF6
08604:  MOVLW  09
08606:  MOVWF  FF7
08608:  MOVLW  00
0860A:  MOVWF  FF8
0860C:  MOVLW  08
0860E:  MOVLB  4
08610:  MOVWF  x44
08612:  MOVLB  0
08614:  CALL   47DC
08618:  MOVFF  43F,444
0861C:  MOVLW  1B
0861E:  MOVLB  4
08620:  MOVWF  x45
08622:  MOVLB  0
08624:  CALL   483A
....................             SendDataDisplay(); 
08628:  CALL   3874
....................             printf("bi.pic2=%u",iconoPeque[sizeof(iconoGrande)-1]); 
0862C:  MOVLW  7E
0862E:  MOVWF  FF6
08630:  MOVLW  09
08632:  MOVWF  FF7
08634:  MOVLW  00
08636:  MOVWF  FF8
08638:  MOVLW  08
0863A:  MOVLB  4
0863C:  MOVWF  x44
0863E:  MOVLB  0
08640:  CALL   47DC
08644:  MOVFF  3C4,444
08648:  MOVLW  1B
0864A:  MOVLB  4
0864C:  MOVWF  x45
0864E:  MOVLB  0
08650:  CALL   483A
....................             SendDataDisplay(); 
08654:  CALL   3874
....................             printf("textop.txt=\"%s\"",texto[Opcion-1]); 
08658:  MOVLW  01
0865A:  MOVLB  3
0865C:  SUBWF  x6C,W
0865E:  MULLW  14
08660:  MOVF   FF3,W
08662:  CLRF   03
08664:  MOVLB  4
08666:  MOVWF  x3F
08668:  MOVLW  8A
0866A:  MOVWF  FF6
0866C:  MOVLW  09
0866E:  MOVWF  FF7
08670:  MOVLW  00
08672:  MOVWF  FF8
08674:  MOVLW  0C
08676:  MOVWF  x44
08678:  MOVLB  0
0867A:  CALL   47DC
0867E:  MOVLW  50
08680:  MOVWF  FF6
08682:  MOVLW  01
08684:  MOVWF  FF7
08686:  MOVLW  00
08688:  MOVWF  FF8
0868A:  MOVLB  4
0868C:  MOVF   x3F,W
0868E:  ADDWF  FF6,F
08690:  MOVLW  00
08692:  ADDWFC FF7,F
08694:  MOVLB  0
08696:  CALL   3842
0869A:  MOVLW  22
0869C:  BTFSS  F9E.4
0869E:  BRA    869C
086A0:  MOVWF  FAD
....................             SendDataDisplay(); 
086A2:  CALL   3874
....................          }else if(Opcion==sizeof(iconoGrande)){ 
086A6:  BRA    8A36
086A8:  MOVLB  3
086AA:  MOVF   x6C,W
086AC:  SUBLW  09
086AE:  BTFSS  FD8.2
086B0:  BRA    8862
....................             printf("bc.pic=%u",iconoGrande[Opcion-1]); 
086B2:  MOVLW  01
086B4:  SUBWF  x6C,W
086B6:  CLRF   03
086B8:  ADDLW  B3
086BA:  MOVWF  FE9
086BC:  MOVLW  03
086BE:  ADDWFC 03,W
086C0:  MOVWF  FEA
086C2:  MOVFF  FEF,43F
086C6:  MOVLW  9A
086C8:  MOVWF  FF6
086CA:  MOVLW  09
086CC:  MOVWF  FF7
086CE:  MOVLW  00
086D0:  MOVWF  FF8
086D2:  MOVLW  07
086D4:  MOVLB  4
086D6:  MOVWF  x44
086D8:  MOVLB  0
086DA:  CALL   47DC
086DE:  MOVFF  43F,444
086E2:  MOVLW  1B
086E4:  MOVLB  4
086E6:  MOVWF  x45
086E8:  MOVLB  0
086EA:  CALL   483A
....................             SendDataDisplay(); 
086EE:  CALL   3874
....................             printf("bd.pic=%u",iconoPeque[0]); 
086F2:  MOVLW  A4
086F4:  MOVWF  FF6
086F6:  MOVLW  09
086F8:  MOVWF  FF7
086FA:  MOVLW  00
086FC:  MOVWF  FF8
086FE:  MOVLW  07
08700:  MOVLB  4
08702:  MOVWF  x44
08704:  MOVLB  0
08706:  CALL   47DC
0870A:  MOVFF  3BC,444
0870E:  MOVLW  1B
08710:  MOVLB  4
08712:  MOVWF  x45
08714:  MOVLB  0
08716:  CALL   483A
....................             SendDataDisplay(); 
0871A:  CALL   3874
....................             printf("bi.pic=%u",iconoPeque[Opcion-2]); 
0871E:  MOVLW  02
08720:  MOVLB  3
08722:  SUBWF  x6C,W
08724:  CLRF   03
08726:  ADDLW  BC
08728:  MOVWF  FE9
0872A:  MOVLW  03
0872C:  ADDWFC 03,W
0872E:  MOVWF  FEA
08730:  MOVFF  FEF,43F
08734:  MOVLW  AE
08736:  MOVWF  FF6
08738:  MOVLW  09
0873A:  MOVWF  FF7
0873C:  MOVLW  00
0873E:  MOVWF  FF8
08740:  MOVLW  07
08742:  MOVLB  4
08744:  MOVWF  x44
08746:  MOVLB  0
08748:  CALL   47DC
0874C:  MOVFF  43F,444
08750:  MOVLW  1B
08752:  MOVLB  4
08754:  MOVWF  x45
08756:  MOVLB  0
08758:  CALL   483A
....................             SendDataDisplay(); 
0875C:  CALL   3874
....................             printf("bc.pic2=%u",iconoGrande[Opcion-1]); 
08760:  MOVLW  01
08762:  MOVLB  3
08764:  SUBWF  x6C,W
08766:  CLRF   03
08768:  ADDLW  B3
0876A:  MOVWF  FE9
0876C:  MOVLW  03
0876E:  ADDWFC 03,W
08770:  MOVWF  FEA
08772:  MOVFF  FEF,43F
08776:  MOVLW  B8
08778:  MOVWF  FF6
0877A:  MOVLW  09
0877C:  MOVWF  FF7
0877E:  MOVLW  00
08780:  MOVWF  FF8
08782:  MOVLW  08
08784:  MOVLB  4
08786:  MOVWF  x44
08788:  MOVLB  0
0878A:  CALL   47DC
0878E:  MOVFF  43F,444
08792:  MOVLW  1B
08794:  MOVLB  4
08796:  MOVWF  x45
08798:  MOVLB  0
0879A:  CALL   483A
....................             SendDataDisplay(); 
0879E:  CALL   3874
....................             printf("bd.pic2=%u",iconoPeque[0]); 
087A2:  MOVLW  C4
087A4:  MOVWF  FF6
087A6:  MOVLW  09
087A8:  MOVWF  FF7
087AA:  MOVLW  00
087AC:  MOVWF  FF8
087AE:  MOVLW  08
087B0:  MOVLB  4
087B2:  MOVWF  x44
087B4:  MOVLB  0
087B6:  CALL   47DC
087BA:  MOVFF  3BC,444
087BE:  MOVLW  1B
087C0:  MOVLB  4
087C2:  MOVWF  x45
087C4:  MOVLB  0
087C6:  CALL   483A
....................             SendDataDisplay(); 
087CA:  CALL   3874
....................             printf("bi.pic2=%u",iconoPeque[Opcion-2]); 
087CE:  MOVLW  02
087D0:  MOVLB  3
087D2:  SUBWF  x6C,W
087D4:  CLRF   03
087D6:  ADDLW  BC
087D8:  MOVWF  FE9
087DA:  MOVLW  03
087DC:  ADDWFC 03,W
087DE:  MOVWF  FEA
087E0:  MOVFF  FEF,43F
087E4:  MOVLW  D0
087E6:  MOVWF  FF6
087E8:  MOVLW  09
087EA:  MOVWF  FF7
087EC:  MOVLW  00
087EE:  MOVWF  FF8
087F0:  MOVLW  08
087F2:  MOVLB  4
087F4:  MOVWF  x44
087F6:  MOVLB  0
087F8:  CALL   47DC
087FC:  MOVFF  43F,444
08800:  MOVLW  1B
08802:  MOVLB  4
08804:  MOVWF  x45
08806:  MOVLB  0
08808:  CALL   483A
....................             SendDataDisplay(); 
0880C:  CALL   3874
....................             printf("textop.txt=\"%s\"",texto[Opcion-1]); 
08810:  MOVLW  01
08812:  MOVLB  3
08814:  SUBWF  x6C,W
08816:  MULLW  14
08818:  MOVF   FF3,W
0881A:  CLRF   03
0881C:  MOVLB  4
0881E:  MOVWF  x3F
08820:  MOVLW  DC
08822:  MOVWF  FF6
08824:  MOVLW  09
08826:  MOVWF  FF7
08828:  MOVLW  00
0882A:  MOVWF  FF8
0882C:  MOVLW  0C
0882E:  MOVWF  x44
08830:  MOVLB  0
08832:  CALL   47DC
08836:  MOVLW  50
08838:  MOVWF  FF6
0883A:  MOVLW  01
0883C:  MOVWF  FF7
0883E:  MOVLW  00
08840:  MOVWF  FF8
08842:  MOVLB  4
08844:  MOVF   x3F,W
08846:  ADDWF  FF6,F
08848:  MOVLW  00
0884A:  ADDWFC FF7,F
0884C:  MOVLB  0
0884E:  CALL   3842
08852:  MOVLW  22
08854:  BTFSS  F9E.4
08856:  BRA    8854
08858:  MOVWF  FAD
....................             SendDataDisplay(); 
0885A:  CALL   3874
....................          }else{ 
0885E:  BRA    8A36
08860:  MOVLB  3
....................             printf("bc.pic=%u",iconoGrande[Opcion-1]); 
08862:  MOVLW  01
08864:  SUBWF  x6C,W
08866:  CLRF   03
08868:  ADDLW  B3
0886A:  MOVWF  FE9
0886C:  MOVLW  03
0886E:  ADDWFC 03,W
08870:  MOVWF  FEA
08872:  MOVFF  FEF,43F
08876:  MOVLW  EC
08878:  MOVWF  FF6
0887A:  MOVLW  09
0887C:  MOVWF  FF7
0887E:  MOVLW  00
08880:  MOVWF  FF8
08882:  MOVLW  07
08884:  MOVLB  4
08886:  MOVWF  x44
08888:  MOVLB  0
0888A:  CALL   47DC
0888E:  MOVFF  43F,444
08892:  MOVLW  1B
08894:  MOVLB  4
08896:  MOVWF  x45
08898:  MOVLB  0
0889A:  CALL   483A
....................             SendDataDisplay(); 
0889E:  CALL   3874
....................             printf("bd.pic=%u",iconoPeque[Opcion]); 
088A2:  CLRF   03
088A4:  MOVLB  3
088A6:  MOVF   x6C,W
088A8:  ADDLW  BC
088AA:  MOVWF  FE9
088AC:  MOVLW  03
088AE:  ADDWFC 03,W
088B0:  MOVWF  FEA
088B2:  MOVFF  FEF,43F
088B6:  MOVLW  F6
088B8:  MOVWF  FF6
088BA:  MOVLW  09
088BC:  MOVWF  FF7
088BE:  MOVLW  00
088C0:  MOVWF  FF8
088C2:  MOVLW  07
088C4:  MOVLB  4
088C6:  MOVWF  x44
088C8:  MOVLB  0
088CA:  CALL   47DC
088CE:  MOVFF  43F,444
088D2:  MOVLW  1B
088D4:  MOVLB  4
088D6:  MOVWF  x45
088D8:  MOVLB  0
088DA:  CALL   483A
....................             SendDataDisplay(); 
088DE:  CALL   3874
....................             printf("bi.pic=%u",iconoPeque[Opcion-2]); 
088E2:  MOVLW  02
088E4:  MOVLB  3
088E6:  SUBWF  x6C,W
088E8:  CLRF   03
088EA:  ADDLW  BC
088EC:  MOVWF  FE9
088EE:  MOVLW  03
088F0:  ADDWFC 03,W
088F2:  MOVWF  FEA
088F4:  MOVFF  FEF,43F
088F8:  MOVLW  00
088FA:  MOVWF  FF6
088FC:  MOVLW  0A
088FE:  MOVWF  FF7
08900:  MOVLW  00
08902:  MOVWF  FF8
08904:  MOVLW  07
08906:  MOVLB  4
08908:  MOVWF  x44
0890A:  MOVLB  0
0890C:  CALL   47DC
08910:  MOVFF  43F,444
08914:  MOVLW  1B
08916:  MOVLB  4
08918:  MOVWF  x45
0891A:  MOVLB  0
0891C:  CALL   483A
....................             SendDataDisplay(); 
08920:  CALL   3874
....................             printf("bc.pic2=%u",iconoGrande[Opcion-1]); 
08924:  MOVLW  01
08926:  MOVLB  3
08928:  SUBWF  x6C,W
0892A:  CLRF   03
0892C:  ADDLW  B3
0892E:  MOVWF  FE9
08930:  MOVLW  03
08932:  ADDWFC 03,W
08934:  MOVWF  FEA
08936:  MOVFF  FEF,43F
0893A:  MOVLW  0A
0893C:  MOVWF  FF6
0893E:  MOVLW  0A
08940:  MOVWF  FF7
08942:  MOVLW  00
08944:  MOVWF  FF8
08946:  MOVLW  08
08948:  MOVLB  4
0894A:  MOVWF  x44
0894C:  MOVLB  0
0894E:  CALL   47DC
08952:  MOVFF  43F,444
08956:  MOVLW  1B
08958:  MOVLB  4
0895A:  MOVWF  x45
0895C:  MOVLB  0
0895E:  CALL   483A
....................             SendDataDisplay(); 
08962:  CALL   3874
....................             printf("bd.pic2=%u",iconoPeque[Opcion]); 
08966:  CLRF   03
08968:  MOVLB  3
0896A:  MOVF   x6C,W
0896C:  ADDLW  BC
0896E:  MOVWF  FE9
08970:  MOVLW  03
08972:  ADDWFC 03,W
08974:  MOVWF  FEA
08976:  MOVFF  FEF,43F
0897A:  MOVLW  16
0897C:  MOVWF  FF6
0897E:  MOVLW  0A
08980:  MOVWF  FF7
08982:  MOVLW  00
08984:  MOVWF  FF8
08986:  MOVLW  08
08988:  MOVLB  4
0898A:  MOVWF  x44
0898C:  MOVLB  0
0898E:  CALL   47DC
08992:  MOVFF  43F,444
08996:  MOVLW  1B
08998:  MOVLB  4
0899A:  MOVWF  x45
0899C:  MOVLB  0
0899E:  CALL   483A
....................             SendDataDisplay(); 
089A2:  CALL   3874
....................             printf("bi.pic2=%u",iconoPeque[Opcion-2]); 
089A6:  MOVLW  02
089A8:  MOVLB  3
089AA:  SUBWF  x6C,W
089AC:  CLRF   03
089AE:  ADDLW  BC
089B0:  MOVWF  FE9
089B2:  MOVLW  03
089B4:  ADDWFC 03,W
089B6:  MOVWF  FEA
089B8:  MOVFF  FEF,43F
089BC:  MOVLW  22
089BE:  MOVWF  FF6
089C0:  MOVLW  0A
089C2:  MOVWF  FF7
089C4:  MOVLW  00
089C6:  MOVWF  FF8
089C8:  MOVLW  08
089CA:  MOVLB  4
089CC:  MOVWF  x44
089CE:  MOVLB  0
089D0:  CALL   47DC
089D4:  MOVFF  43F,444
089D8:  MOVLW  1B
089DA:  MOVLB  4
089DC:  MOVWF  x45
089DE:  MOVLB  0
089E0:  CALL   483A
....................             SendDataDisplay(); 
089E4:  CALL   3874
....................             printf("textop.txt=\"%s\"",texto[Opcion-1]); 
089E8:  MOVLW  01
089EA:  MOVLB  3
089EC:  SUBWF  x6C,W
089EE:  MULLW  14
089F0:  MOVF   FF3,W
089F2:  CLRF   03
089F4:  MOVLB  4
089F6:  MOVWF  x3F
089F8:  MOVLW  2E
089FA:  MOVWF  FF6
089FC:  MOVLW  0A
089FE:  MOVWF  FF7
08A00:  MOVLW  00
08A02:  MOVWF  FF8
08A04:  MOVLW  0C
08A06:  MOVWF  x44
08A08:  MOVLB  0
08A0A:  CALL   47DC
08A0E:  MOVLW  50
08A10:  MOVWF  FF6
08A12:  MOVLW  01
08A14:  MOVWF  FF7
08A16:  MOVLW  00
08A18:  MOVWF  FF8
08A1A:  MOVLB  4
08A1C:  MOVF   x3F,W
08A1E:  ADDWF  FF6,F
08A20:  MOVLW  00
08A22:  ADDWFC FF7,F
08A24:  MOVLB  0
08A26:  CALL   3842
08A2A:  MOVLW  22
08A2C:  BTFSS  F9E.4
08A2E:  BRA    8A2C
08A30:  MOVWF  FAD
....................             SendDataDisplay(); 
08A32:  CALL   3874
....................          } 
....................           
....................          printf("ttitulo.txt=\"SELECCIONE SU CICLO\""); 
08A36:  MOVLW  3E
08A38:  MOVWF  FF6
08A3A:  MOVLW  0A
08A3C:  MOVWF  FF7
08A3E:  MOVLW  00
08A40:  MOVWF  FF8
08A42:  CALL   3842
....................          SendDataDisplay(); 
08A46:  CALL   3874
....................           
....................          if(RIGHT){ 
08A4A:  BSF    F93.2
08A4C:  BTFSC  F81.2
08A4E:  BRA    8A68
....................             delay_ms(20); 
08A50:  MOVLW  14
08A52:  MOVLB  4
08A54:  MOVWF  x54
08A56:  MOVLB  0
08A58:  CALL   19B0
....................             if(RIGHT){ 
08A5C:  BSF    F93.2
08A5E:  BTFSC  F81.2
08A60:  BRA    8A68
....................                Opcion++; 
08A62:  MOVLB  3
08A64:  INCF   x6C,F
08A66:  MOVLB  0
....................             } 
....................          } 
....................           
....................          if(LEFT){ 
08A68:  BSF    F93.3
08A6A:  BTFSC  F81.3
08A6C:  BRA    8A86
....................             delay_ms(20); 
08A6E:  MOVLW  14
08A70:  MOVLB  4
08A72:  MOVWF  x54
08A74:  MOVLB  0
08A76:  CALL   19B0
....................             if(LEFT){ 
08A7A:  BSF    F93.3
08A7C:  BTFSC  F81.3
08A7E:  BRA    8A86
....................                Opcion--; 
08A80:  MOVLB  3
08A82:  DECF   x6C,F
08A84:  MOVLB  0
....................             } 
....................          } 
....................           
....................          if(RX_Buffer[4]==0x0d && !Op){//Tecla Derecha Oprimida 
08A86:  MOVF   34,W
08A88:  SUBLW  0D
08A8A:  BNZ   8A9A
08A8C:  BTFSC  xA2.0
08A8E:  BRA    8A9A
....................             Opcion++; 
08A90:  MOVLB  3
08A92:  INCF   x6C,F
....................             RX_Buffer[4]=0x00; 
08A94:  CLRF   34
....................             Op=ON; 
08A96:  MOVLB  0
08A98:  BSF    xA2.0
....................             //BorraBuffer(); 
....................          } 
....................           
....................          if(RX_Buffer[4]==0x0c && Op){//Tecla Derecha Oprimida 
08A9A:  MOVF   34,W
08A9C:  SUBLW  0C
08A9E:  BNZ   8AAE
08AA0:  BTFSS  xA2.0
08AA2:  BRA    8AAE
....................             Opcion++; 
08AA4:  MOVLB  3
08AA6:  INCF   x6C,F
....................             RX_Buffer[4]=0x00; 
08AA8:  CLRF   34
....................             Op=OFF; 
08AAA:  MOVLB  0
08AAC:  BCF    xA2.0
....................             //BorraBuffer(); 
....................          } 
....................           
....................          if(RX_Buffer[4]==0x0e && !Op2){//Tecla Izquierda Oprimida 
08AAE:  MOVF   34,W
08AB0:  SUBLW  0E
08AB2:  BNZ   8AC2
08AB4:  BTFSC  xA2.1
08AB6:  BRA    8AC2
....................             Opcion--; 
08AB8:  MOVLB  3
08ABA:  DECF   x6C,F
....................             RX_Buffer[4]=0x00; 
08ABC:  CLRF   34
....................             Op2=ON; 
08ABE:  MOVLB  0
08AC0:  BSF    xA2.1
....................             //BorraBuffer(); 
....................          } 
....................           
....................          if(RX_Buffer[4]==0x0f && Op2){//Tecla Izquierda Oprimida 
08AC2:  MOVF   34,W
08AC4:  SUBLW  0F
08AC6:  BNZ   8AD6
08AC8:  BTFSS  xA2.1
08ACA:  BRA    8AD6
....................             Opcion--; 
08ACC:  MOVLB  3
08ACE:  DECF   x6C,F
....................             RX_Buffer[4]=0x00; 
08AD0:  CLRF   34
....................             Op2=OFF; 
08AD2:  MOVLB  0
08AD4:  BCF    xA2.1
08AD6:  MOVLB  2
....................             //BorraBuffer(); 
....................          } 
....................           
....................       } 
....................          if(RIGHT && LEFT){ 
08AD8:  BSF    F93.2
08ADA:  BTFSC  F81.2
08ADC:  BRA    8B2A
08ADE:  BSF    F93.3
08AE0:  BTFSC  F81.3
08AE2:  BRA    8B2A
....................             delay_ms(20); 
08AE4:  MOVLW  14
08AE6:  MOVLB  4
08AE8:  MOVWF  x54
08AEA:  MOVLB  0
08AEC:  CALL   19B0
....................             if(RIGHT && LEFT){ 
08AF0:  BSF    F93.2
08AF2:  BTFSC  F81.2
08AF4:  BRA    8B28
08AF6:  BSF    F93.3
08AF8:  BTFSC  F81.3
08AFA:  BRA    8B28
....................                printf("page Clave"); 
08AFC:  MOVLW  60
08AFE:  MOVWF  FF6
08B00:  MOVLW  0A
08B02:  MOVWF  FF7
08B04:  MOVLW  00
08B06:  MOVWF  FF8
08B08:  CALL   3842
....................                SendDataDisplay();  
08B0C:  CALL   3874
....................                Op=OFF; 
08B10:  BCF    xA2.0
....................                Op2=OFF; 
08B12:  BCF    xA2.1
....................                MenuAnt=Menu; 
08B14:  MOVFF  362,363
....................                TipoClave=1; 
08B18:  MOVLW  01
08B1A:  MOVLB  2
08B1C:  MOVWF  xDE
....................                RX_Buffer[3]=0x00; 
08B1E:  CLRF   33
....................                RX_Buffer2[3]=0x00; 
08B20:  CLRF   3E
....................                Opcion=0; 
08B22:  MOVLB  3
08B24:  CLRF   x6C
08B26:  MOVLB  0
08B28:  MOVLB  2
....................             } 
....................          } 
....................    } 
.................... //_--------------------------------------------------------------------------------------------------------------------------------------------------------        
....................  
.................... //_-------------------------------------------------------------------------------------------------------------------------------------------------------- 
....................     if(Menu==2){ //Menu de Tiempo Esterilizacion      
08B2A:  MOVLB  3
08B2C:  MOVF   x62,W
08B2E:  SUBLW  02
08B30:  BTFSS  FD8.2
08B32:  BRA    905E
....................       printf("fecha.txt=\"T:%3.1fC Fecha:%02u/%02u/20%02u Hora: %02u:%02u:%02u\"",Temperatura,Dia,Mes,Year,Hora,Minuto,Segundo); 
08B34:  MOVLW  6C
08B36:  MOVWF  FF6
08B38:  MOVLW  0A
08B3A:  MOVWF  FF7
08B3C:  MOVLW  00
08B3E:  MOVWF  FF8
08B40:  MOVLW  0D
08B42:  MOVLB  4
08B44:  MOVWF  x44
08B46:  MOVLB  0
08B48:  CALL   47DC
08B4C:  MOVLW  02
08B4E:  MOVWF  FE9
08B50:  MOVFF  32B,447
08B54:  MOVFF  32A,446
08B58:  MOVFF  329,445
08B5C:  MOVFF  328,444
08B60:  MOVLW  01
08B62:  MOVLB  4
08B64:  MOVWF  x48
08B66:  MOVLB  0
08B68:  CALL   497C
08B6C:  MOVLW  7E
08B6E:  MOVWF  FF6
08B70:  MOVLW  0A
08B72:  MOVWF  FF7
08B74:  MOVLW  00
08B76:  MOVWF  FF8
08B78:  MOVLW  09
08B7A:  MOVLB  4
08B7C:  MOVWF  x44
08B7E:  MOVLB  0
08B80:  CALL   47DC
08B84:  MOVFF  3A0,444
08B88:  MOVLW  01
08B8A:  MOVLB  4
08B8C:  MOVWF  x45
08B8E:  MOVLB  0
08B90:  CALL   483A
08B94:  MOVLW  2F
08B96:  BTFSS  F9E.4
08B98:  BRA    8B96
08B9A:  MOVWF  FAD
08B9C:  MOVFF  39F,444
08BA0:  MOVLW  01
08BA2:  MOVLB  4
08BA4:  MOVWF  x45
08BA6:  MOVLB  0
08BA8:  CALL   483A
08BAC:  MOVLW  2F
08BAE:  BTFSS  F9E.4
08BB0:  BRA    8BAE
08BB2:  MOVWF  FAD
08BB4:  MOVLW  32
08BB6:  BTFSS  F9E.4
08BB8:  BRA    8BB6
08BBA:  MOVWF  FAD
08BBC:  MOVLW  30
08BBE:  BTFSS  F9E.4
08BC0:  BRA    8BBE
08BC2:  MOVWF  FAD
08BC4:  MOVFF  39E,444
08BC8:  MOVLW  01
08BCA:  MOVLB  4
08BCC:  MOVWF  x45
08BCE:  MOVLB  0
08BD0:  CALL   483A
08BD4:  MOVLW  97
08BD6:  MOVWF  FF6
08BD8:  MOVLW  0A
08BDA:  MOVWF  FF7
08BDC:  MOVLW  00
08BDE:  MOVWF  FF8
08BE0:  MOVLW  07
08BE2:  MOVLB  4
08BE4:  MOVWF  x44
08BE6:  MOVLB  0
08BE8:  CALL   47DC
08BEC:  MOVFF  3A1,444
08BF0:  MOVLW  01
08BF2:  MOVLB  4
08BF4:  MOVWF  x45
08BF6:  MOVLB  0
08BF8:  CALL   483A
08BFC:  MOVLW  3A
08BFE:  BTFSS  F9E.4
08C00:  BRA    8BFE
08C02:  MOVWF  FAD
08C04:  MOVFF  3A2,444
08C08:  MOVLW  01
08C0A:  MOVLB  4
08C0C:  MOVWF  x45
08C0E:  MOVLB  0
08C10:  CALL   483A
08C14:  MOVLW  3A
08C16:  BTFSS  F9E.4
08C18:  BRA    8C16
08C1A:  MOVWF  FAD
08C1C:  MOVFF  3A3,444
08C20:  MOVLW  01
08C22:  MOVLB  4
08C24:  MOVWF  x45
08C26:  MOVLB  0
08C28:  CALL   483A
08C2C:  MOVLW  22
08C2E:  BTFSS  F9E.4
08C30:  BRA    8C2E
08C32:  MOVWF  FAD
....................       SendDataDisplay(); 
08C34:  CALL   3874
....................          if(RX_Buffer[4]==0x0a){//Selecciono Minutos 
08C38:  MOVF   34,W
08C3A:  SUBLW  0A
08C3C:  BNZ   8C42
....................             Minutos=ON; 
08C3E:  BSF    xA2.2
....................             Segundos=OFF; 
08C40:  BCF    xA2.3
....................          } 
....................           
....................          if(RX_Buffer[4]==0x0b){//Selecciono Segundos 
08C42:  MOVF   34,W
08C44:  SUBLW  0B
08C46:  BNZ   8C4C
....................             Segundos=ON; 
08C48:  BSF    xA2.3
....................             Minutos=OFF; 
08C4A:  BCF    xA2.2
....................          }            
....................           
....................          if(RX_Buffer[4]==0x11 || LEFT){//Selecciono Regresar 
08C4C:  MOVF   34,W
08C4E:  SUBLW  11
08C50:  BZ    8C58
08C52:  BSF    F93.3
08C54:  BTFSC  F81.3
08C56:  BRA    8DE2
....................             delay_ms(100); 
08C58:  MOVLW  64
08C5A:  MOVLB  4
08C5C:  MOVWF  x54
08C5E:  MOVLB  0
08C60:  CALL   19B0
....................             if(RX_Buffer[4]==0x11 || LEFT){ 
08C64:  MOVF   34,W
08C66:  SUBLW  11
08C68:  BZ    8C70
08C6A:  BSF    F93.3
08C6C:  BTFSC  F81.3
08C6E:  BRA    8DE2
....................                Segundos=OFF; 
08C70:  BCF    xA2.3
....................                Minutos=OFF; 
08C72:  BCF    xA2.2
....................                printf("page CicloPersona"); 
08C74:  MOVLW  AE
08C76:  MOVWF  FF6
08C78:  MOVLW  0A
08C7A:  MOVWF  FF7
08C7C:  MOVLW  00
08C7E:  MOVWF  FF8
08C80:  CALL   3842
....................                SendDataDisplay();   
08C84:  CALL   3874
....................                PantallaPrincipal=1; 
08C88:  MOVLW  01
08C8A:  MOVLB  2
08C8C:  MOVWF  xDD
....................                Op=OFF; 
08C8E:  MOVLB  0
08C90:  BCF    xA2.0
....................                Op2=OFF; 
08C92:  BCF    xA2.1
....................                if(!GuardaEEPROM){ 
08C94:  BTFSC  xA2.4
08C96:  BRA    8DE2
....................                   CiclosPersonalizados[CicloLibre-1].Minutoest=Testerilizacionp[2]+(Testerilizacionp[3]*10); 
08C98:  MOVLW  01
08C9A:  MOVLB  3
08C9C:  SUBWF  x42,W
08C9E:  MULLW  0A
08CA0:  MOVF   FF3,W
08CA2:  MOVLB  4
08CA4:  CLRF   x40
08CA6:  MOVWF  x3F
08CA8:  MOVLW  09
08CAA:  ADDWF  x3F,W
08CAC:  MOVWF  01
08CAE:  MOVLW  00
08CB0:  ADDWFC x40,W
08CB2:  MOVWF  03
08CB4:  MOVF   01,W
08CB6:  ADDLW  17
08CB8:  MOVWF  FE9
08CBA:  MOVLW  04
08CBC:  ADDWFC 03,W
08CBE:  MOVWF  FEA
08CC0:  MOVFF  B9,441
08CC4:  MOVLW  0A
08CC6:  MOVWF  x42
08CC8:  MOVLB  0
08CCA:  CALL   2D4C
08CCE:  MOVF   01,W
08CD0:  ADDWF  xB8,W
08CD2:  MOVWF  FEF
....................                   CiclosPersonalizados[CicloLibre-1].Segundoest=Testerilizacionp[0]+(Testerilizacionp[1]*10); 
08CD4:  MOVLW  01
08CD6:  MOVLB  3
08CD8:  SUBWF  x42,W
08CDA:  MULLW  0A
08CDC:  MOVF   FF3,W
08CDE:  MOVLB  4
08CE0:  CLRF   x40
08CE2:  MOVWF  x3F
08CE4:  MOVLW  03
08CE6:  ADDWF  x3F,W
08CE8:  MOVWF  01
08CEA:  MOVLW  00
08CEC:  ADDWFC x40,W
08CEE:  MOVWF  03
08CF0:  MOVF   01,W
08CF2:  ADDLW  17
08CF4:  MOVWF  FE9
08CF6:  MOVLW  04
08CF8:  ADDWFC 03,W
08CFA:  MOVWF  FEA
08CFC:  MOVFF  B7,441
08D00:  MOVLW  0A
08D02:  MOVWF  x42
08D04:  MOVLB  0
08D06:  CALL   2D4C
08D0A:  MOVF   01,W
08D0C:  ADDWF  xB6,W
08D0E:  MOVWF  FEF
....................                   write_eeprom(102+((CicloLibre-1)*8),Testerilizacionp[2]+(Testerilizacionp[3]*10)); 
08D10:  MOVLW  01
08D12:  MOVLB  3
08D14:  SUBWF  x42,W
08D16:  MULLW  08
08D18:  MOVF   FF3,W
08D1A:  ADDLW  66
08D1C:  MOVLB  4
08D1E:  MOVWF  x3F
08D20:  MOVFF  B9,441
08D24:  MOVLW  0A
08D26:  MOVWF  x42
08D28:  MOVLB  0
08D2A:  CALL   2D4C
08D2E:  MOVF   01,W
08D30:  ADDWF  xB8,W
08D32:  MOVLB  4
08D34:  MOVWF  x40
08D36:  CLRF   FAA
08D38:  MOVFF  43F,FA9
08D3C:  MOVFF  440,FA8
08D40:  BCF    FA6.6
08D42:  BCF    FA6.7
08D44:  BSF    FA6.2
08D46:  MOVF   FF2,W
08D48:  MOVWF  00
08D4A:  BCF    FF2.6
08D4C:  BCF    FF2.7
08D4E:  MOVLB  F
08D50:  MOVLW  55
08D52:  MOVWF  FA7
08D54:  MOVLW  AA
08D56:  MOVWF  FA7
08D58:  BSF    FA6.1
08D5A:  BTFSC  FA6.1
08D5C:  BRA    8D5A
08D5E:  BCF    FA6.2
08D60:  MOVF   00,W
08D62:  IORWF  FF2,F
....................                   delay_ms(10); 
08D64:  MOVLW  0A
08D66:  MOVLB  4
08D68:  MOVWF  x54
08D6A:  MOVLB  0
08D6C:  CALL   19B0
....................                   write_eeprom(103+((CicloLibre-1)*8),Testerilizacionp[0]+(Testerilizacionp[1]*10)); 
08D70:  MOVLW  01
08D72:  MOVLB  3
08D74:  SUBWF  x42,W
08D76:  MULLW  08
08D78:  MOVF   FF3,W
08D7A:  ADDLW  67
08D7C:  MOVLB  4
08D7E:  MOVWF  x3F
08D80:  MOVFF  B7,441
08D84:  MOVLW  0A
08D86:  MOVWF  x42
08D88:  MOVLB  0
08D8A:  CALL   2D4C
08D8E:  MOVF   01,W
08D90:  ADDWF  xB6,W
08D92:  MOVLB  4
08D94:  MOVWF  x40
08D96:  CLRF   FAA
08D98:  MOVFF  43F,FA9
08D9C:  MOVFF  440,FA8
08DA0:  BCF    FA6.6
08DA2:  BCF    FA6.7
08DA4:  BSF    FA6.2
08DA6:  MOVF   FF2,W
08DA8:  MOVWF  00
08DAA:  BCF    FF2.6
08DAC:  BCF    FF2.7
08DAE:  MOVLB  F
08DB0:  MOVLW  55
08DB2:  MOVWF  FA7
08DB4:  MOVLW  AA
08DB6:  MOVWF  FA7
08DB8:  BSF    FA6.1
08DBA:  BTFSC  FA6.1
08DBC:  BRA    8DBA
08DBE:  BCF    FA6.2
08DC0:  MOVF   00,W
08DC2:  IORWF  FF2,F
....................                   delay_ms(10); 
08DC4:  MOVLW  0A
08DC6:  MOVLB  4
08DC8:  MOVWF  x54
08DCA:  MOVLB  0
08DCC:  CALL   19B0
....................                   Testerilizacion[0]=Testerilizacionp[0]; 
08DD0:  MOVFF  B6,B1
....................                   Testerilizacion[1]=Testerilizacionp[1]; 
08DD4:  MOVFF  B7,B2
....................                   Testerilizacion[2]=Testerilizacionp[2]; 
08DD8:  MOVFF  B8,B3
....................                   Testerilizacion[3]=Testerilizacionp[3];                   
08DDC:  MOVFF  B9,B4
....................                   GuardaEEPROM=ON; 
08DE0:  BSF    xA2.4
....................                } 
....................             } 
....................          } 
....................           
....................          if(RIGHT){ 
08DE2:  BSF    F93.2
08DE4:  BTFSC  F81.2
08DE6:  BRA    8E5C
....................             delay_ms(100); 
08DE8:  MOVLW  64
08DEA:  MOVLB  4
08DEC:  MOVWF  x54
08DEE:  MOVLB  0
08DF0:  CALL   19B0
....................             if(RIGHT){ 
08DF4:  BSF    F93.2
08DF6:  BTFSC  F81.2
08DF8:  BRA    8E5C
....................                if(!Segundos){ 
08DFA:  BTFSC  xA2.3
08DFC:  BRA    8E2C
....................                   Segundos=ON; 
08DFE:  BSF    xA2.3
....................                   Minutos=OFF; 
08E00:  BCF    xA2.2
....................                   printf("tsecest.pco=65535"); 
08E02:  MOVLW  C0
08E04:  MOVWF  FF6
08E06:  MOVLW  0A
08E08:  MOVWF  FF7
08E0A:  MOVLW  00
08E0C:  MOVWF  FF8
08E0E:  CALL   3842
....................                   SendDataDisplay();   
08E12:  CALL   3874
....................                   printf("tminest.pco=0"); 
08E16:  MOVLW  D2
08E18:  MOVWF  FF6
08E1A:  MOVLW  0A
08E1C:  MOVWF  FF7
08E1E:  MOVLW  00
08E20:  MOVWF  FF8
08E22:  CALL   3842
....................                   SendDataDisplay();   
08E26:  CALL   3874
....................                }else if(!Minutos){ 
08E2A:  BRA    8E5C
08E2C:  BTFSC  xA2.2
08E2E:  BRA    8E5C
....................                   Segundos=OFF; 
08E30:  BCF    xA2.3
....................                   Minutos=ON; 
08E32:  BSF    xA2.2
....................                   printf("tsecest.pco=0"); 
08E34:  MOVLW  E0
08E36:  MOVWF  FF6
08E38:  MOVLW  0A
08E3A:  MOVWF  FF7
08E3C:  MOVLW  00
08E3E:  MOVWF  FF8
08E40:  CALL   3842
....................                   SendDataDisplay();   
08E44:  CALL   3874
....................                   printf("tminest.pco=65535"); 
08E48:  MOVLW  EE
08E4A:  MOVWF  FF6
08E4C:  MOVLW  0A
08E4E:  MOVWF  FF7
08E50:  MOVLW  00
08E52:  MOVWF  FF8
08E54:  CALL   3842
....................                   SendDataDisplay();   
08E58:  CALL   3874
....................                } 
....................             } 
....................          } 
....................           
....................          if(UP){ 
08E5C:  BSF    F93.0
08E5E:  BTFSC  F81.0
08E60:  BRA    8EA8
....................             delay_ms(100); 
08E62:  MOVLW  64
08E64:  MOVLB  4
08E66:  MOVWF  x54
08E68:  MOVLB  0
08E6A:  CALL   19B0
....................             if(UP){ 
08E6E:  BSF    F93.0
08E70:  BTFSC  F81.0
08E72:  BRA    8EA8
....................                if(Segundos){ 
08E74:  BTFSS  xA2.3
08E76:  BRA    8E88
....................                   Testerilizacionp[0]++; 
08E78:  INCF   xB6,F
....................                   if(Testerilizacionp[0]>9){ 
08E7A:  BTFSC  xB6.7
08E7C:  BRA    8E88
08E7E:  MOVF   xB6,W
08E80:  SUBLW  09
08E82:  BC    8E88
....................                      Testerilizacionp[1]++; 
08E84:  INCF   xB7,F
....................                      Testerilizacionp[0]=0; 
08E86:  CLRF   xB6
....................                   } 
....................                } 
....................                if(Minutos){ 
08E88:  BTFSS  xA2.2
08E8A:  BRA    8EA8
....................                   Testerilizacionp[2]++; 
08E8C:  INCF   xB8,F
....................                   if(Testerilizacionp[2]>9){ 
08E8E:  BTFSC  xB8.7
08E90:  BRA    8E9C
08E92:  MOVF   xB8,W
08E94:  SUBLW  09
08E96:  BC    8E9C
....................                      Testerilizacionp[3]++; 
08E98:  INCF   xB9,F
....................                      Testerilizacionp[2]=0; 
08E9A:  CLRF   xB8
....................                   } 
....................                   if(Testerilizacionp[3]>9){                      
08E9C:  BTFSC  xB9.7
08E9E:  BRA    8EA8
08EA0:  MOVF   xB9,W
08EA2:  SUBLW  09
08EA4:  BC    8EA8
....................                      Testerilizacionp[3]=0; 
08EA6:  CLRF   xB9
....................                   } 
....................                }     
....................             } 
....................          } 
....................           
....................          if(DOWN){ 
08EA8:  BSF    F93.1
08EAA:  BTFSC  F81.1
08EAC:  BRA    8EEE
....................             delay_ms(100); 
08EAE:  MOVLW  64
08EB0:  MOVLB  4
08EB2:  MOVWF  x54
08EB4:  MOVLB  0
08EB6:  CALL   19B0
....................             if(DOWN){ 
08EBA:  BSF    F93.1
08EBC:  BTFSC  F81.1
08EBE:  BRA    8EEE
....................                if(Segundos){ 
08EC0:  BTFSS  xA2.3
08EC2:  BRA    8ED2
....................                   Testerilizacionp[0]--; 
08EC4:  DECF   xB6,F
....................                   if(Testerilizacionp[0]<0){ 
08EC6:  BTFSC  xB6.7
08EC8:  BRA    8ECC
08ECA:  BRA    8ED2
....................                      Testerilizacionp[1]--; 
08ECC:  DECF   xB7,F
....................                      Testerilizacionp[0]=9; 
08ECE:  MOVLW  09
08ED0:  MOVWF  xB6
....................                   } 
....................                } 
....................                if(Minutos){ 
08ED2:  BTFSS  xA2.2
08ED4:  BRA    8EEE
....................                   Testerilizacionp[2]--; 
08ED6:  DECF   xB8,F
....................                   if(Testerilizacionp[2]<0){ 
08ED8:  BTFSC  xB8.7
08EDA:  BRA    8EDE
08EDC:  BRA    8EE4
....................                      Testerilizacionp[3]--; 
08EDE:  DECF   xB9,F
....................                      Testerilizacionp[2]=9; 
08EE0:  MOVLW  09
08EE2:  MOVWF  xB8
....................                   } 
....................                   if(Testerilizacionp[3]<0){ 
08EE4:  BTFSC  xB9.7
08EE6:  BRA    8EEA
08EE8:  BRA    8EEE
....................                      Testerilizacionp[3]=9; 
08EEA:  MOVLW  09
08EEC:  MOVWF  xB9
....................                   } 
....................                }     
....................             } 
....................          } 
....................           
....................          if(RX_Buffer[4]==0x0c || RX_Buffer[4]==0x0d){//Tecla Derecha Oprimida 
08EEE:  MOVF   34,W
08EF0:  SUBLW  0C
08EF2:  BZ    8EFA
08EF4:  MOVF   34,W
08EF6:  SUBLW  0D
08EF8:  BNZ   8F32
....................             if(Segundos){ 
08EFA:  BTFSS  xA2.3
08EFC:  BRA    8F0E
....................                Testerilizacionp[0]++; 
08EFE:  INCF   xB6,F
....................                if(Testerilizacionp[0]>9){ 
08F00:  BTFSC  xB6.7
08F02:  BRA    8F0E
08F04:  MOVF   xB6,W
08F06:  SUBLW  09
08F08:  BC    8F0E
....................                   Testerilizacionp[1]++; 
08F0A:  INCF   xB7,F
....................                   Testerilizacionp[0]=0; 
08F0C:  CLRF   xB6
....................                } 
....................             } 
....................             if(Minutos){ 
08F0E:  BTFSS  xA2.2
08F10:  BRA    8F2E
....................                Testerilizacionp[2]++; 
08F12:  INCF   xB8,F
....................                if(Testerilizacionp[2]>9){ 
08F14:  BTFSC  xB8.7
08F16:  BRA    8F22
08F18:  MOVF   xB8,W
08F1A:  SUBLW  09
08F1C:  BC    8F22
....................                   Testerilizacionp[3]++; 
08F1E:  INCF   xB9,F
....................                   Testerilizacionp[2]=0; 
08F20:  CLRF   xB8
....................                } 
....................                if(Testerilizacionp[3]>9){                   
08F22:  BTFSC  xB9.7
08F24:  BRA    8F2E
08F26:  MOVF   xB9,W
08F28:  SUBLW  09
08F2A:  BC    8F2E
....................                   Testerilizacionp[3]=0; 
08F2C:  CLRF   xB9
....................                } 
....................             } 
....................             RX_Buffer[4]=0x00;   
08F2E:  CLRF   34
....................             RX_Buffer2[4]=0x00; 
08F30:  CLRF   3F
....................          } 
....................           
....................          if(RX_Buffer[4]==0x0f || RX_Buffer[4]==0x0e){//Tecla Izquierda Oprimida 
08F32:  MOVF   34,W
08F34:  SUBLW  0F
08F36:  BZ    8F3E
08F38:  MOVF   34,W
08F3A:  SUBLW  0E
08F3C:  BNZ   8F70
....................              
....................             if(Segundos){ 
08F3E:  BTFSS  xA2.3
08F40:  BRA    8F50
....................                Testerilizacionp[0]--; 
08F42:  DECF   xB6,F
....................                if(Testerilizacionp[0]<0){ 
08F44:  BTFSC  xB6.7
08F46:  BRA    8F4A
08F48:  BRA    8F50
....................                   Testerilizacionp[1]--; 
08F4A:  DECF   xB7,F
....................                   Testerilizacionp[0]=9; 
08F4C:  MOVLW  09
08F4E:  MOVWF  xB6
....................                } 
....................             } 
....................             if(Minutos){ 
08F50:  BTFSS  xA2.2
08F52:  BRA    8F6C
....................                Testerilizacionp[2]--; 
08F54:  DECF   xB8,F
....................                if(Testerilizacionp[2]<0){ 
08F56:  BTFSC  xB8.7
08F58:  BRA    8F5C
08F5A:  BRA    8F62
....................                   Testerilizacionp[3]--; 
08F5C:  DECF   xB9,F
....................                   Testerilizacionp[2]=9; 
08F5E:  MOVLW  09
08F60:  MOVWF  xB8
....................                } 
....................                if(Testerilizacionp[3]<0){ 
08F62:  BTFSC  xB9.7
08F64:  BRA    8F68
08F66:  BRA    8F6C
....................                   Testerilizacionp[3]=9; 
08F68:  MOVLW  09
08F6A:  MOVWF  xB9
....................                } 
....................             } 
....................             RX_Buffer[4]=0x00;   
08F6C:  CLRF   34
....................             RX_Buffer2[4]=0x00; 
08F6E:  CLRF   3F
....................          } 
....................           
....................          if(Testerilizacionp[0]<0) 
08F70:  BTFSC  xB6.7
08F72:  BRA    8F76
08F74:  BRA    8F7A
....................             Testerilizacionp[0]=9;             
08F76:  MOVLW  09
08F78:  MOVWF  xB6
....................          if(Testerilizacionp[1]<0) 
08F7A:  BTFSC  xB7.7
08F7C:  BRA    8F80
08F7E:  BRA    8F84
....................             Testerilizacionp[1]=5;             
08F80:  MOVLW  05
08F82:  MOVWF  xB7
....................          if(Testerilizacionp[2]<0) 
08F84:  BTFSC  xB8.7
08F86:  BRA    8F8A
08F88:  BRA    8F8E
....................             Testerilizacionp[2]=9;             
08F8A:  MOVLW  09
08F8C:  MOVWF  xB8
....................          if(Testerilizacionp[3]<0) 
08F8E:  BTFSC  xB9.7
08F90:  BRA    8F94
08F92:  BRA    8F98
....................             Testerilizacionp[3]=9;             
08F94:  MOVLW  09
08F96:  MOVWF  xB9
....................           
....................          if(Testerilizacionp[0]>9) 
08F98:  BTFSC  xB6.7
08F9A:  BRA    8FA4
08F9C:  MOVF   xB6,W
08F9E:  SUBLW  09
08FA0:  BC    8FA4
....................             Testerilizacionp[0]=0;             
08FA2:  CLRF   xB6
....................          if(Testerilizacionp[1]>5) 
08FA4:  BTFSC  xB7.7
08FA6:  BRA    8FB0
08FA8:  MOVF   xB7,W
08FAA:  SUBLW  05
08FAC:  BC    8FB0
....................             Testerilizacionp[1]=0;             
08FAE:  CLRF   xB7
....................          if(Testerilizacionp[2]>9) 
08FB0:  BTFSC  xB8.7
08FB2:  BRA    8FBC
08FB4:  MOVF   xB8,W
08FB6:  SUBLW  09
08FB8:  BC    8FBC
....................             Testerilizacionp[2]=0;             
08FBA:  CLRF   xB8
....................          if(Testerilizacionp[3]>9) 
08FBC:  BTFSC  xB9.7
08FBE:  BRA    8FC8
08FC0:  MOVF   xB9,W
08FC2:  SUBLW  09
08FC4:  BC    8FC8
....................             Testerilizacionp[3]=0;  
08FC6:  CLRF   xB9
....................              
....................          printf("tminest.txt=\"%02u\"",((Testerilizacionp[3]*10)+Testerilizacionp[2])); 
08FC8:  MOVFF  B9,441
08FCC:  MOVLW  0A
08FCE:  MOVLB  4
08FD0:  MOVWF  x42
08FD2:  MOVLB  0
08FD4:  CALL   2D4C
08FD8:  MOVF   xB8,W
08FDA:  ADDWF  01,W
08FDC:  MOVLB  4
08FDE:  MOVWF  x3F
08FE0:  MOVLW  00
08FE2:  MOVWF  FF6
08FE4:  MOVLW  0B
08FE6:  MOVWF  FF7
08FE8:  MOVLW  00
08FEA:  MOVWF  FF8
08FEC:  MOVLW  0D
08FEE:  MOVWF  x44
08FF0:  MOVLB  0
08FF2:  CALL   47DC
08FF6:  MOVFF  43F,444
08FFA:  MOVLW  01
08FFC:  MOVLB  4
08FFE:  MOVWF  x45
09000:  MOVLB  0
09002:  CALL   483A
09006:  MOVLW  22
09008:  BTFSS  F9E.4
0900A:  BRA    9008
0900C:  MOVWF  FAD
....................          SendDataDisplay(); 
0900E:  CALL   3874
....................          printf("tsecest.txt=\"%02u\"",((Testerilizacionp[1]*10)+Testerilizacionp[0])); 
09012:  MOVFF  B7,441
09016:  MOVLW  0A
09018:  MOVLB  4
0901A:  MOVWF  x42
0901C:  MOVLB  0
0901E:  CALL   2D4C
09022:  MOVF   xB6,W
09024:  ADDWF  01,W
09026:  MOVLB  4
09028:  MOVWF  x3F
0902A:  MOVLW  14
0902C:  MOVWF  FF6
0902E:  MOVLW  0B
09030:  MOVWF  FF7
09032:  MOVLW  00
09034:  MOVWF  FF8
09036:  MOVLW  0D
09038:  MOVWF  x44
0903A:  MOVLB  0
0903C:  CALL   47DC
09040:  MOVFF  43F,444
09044:  MOVLW  01
09046:  MOVLB  4
09048:  MOVWF  x45
0904A:  MOVLB  0
0904C:  CALL   483A
09050:  MOVLW  22
09052:  BTFSS  F9E.4
09054:  BRA    9052
09056:  MOVWF  FAD
....................          SendDataDisplay(); 
09058:  CALL   3874
0905C:  MOVLB  3
....................     } 
.................... //_--------------------------------------------------------------------------------------------------------------------------------------------------------        
....................  
.................... //_-------------------------------------------------------------------------------------------------------------------------------------------------------- 
....................     if(Menu==3){ //Menu de Tiempo de Secado 
0905E:  MOVF   x62,W
09060:  SUBLW  03
09062:  BTFSS  FD8.2
09064:  BRA    9560
....................       printf("fecha.txt=\"T:%3.1fC Fecha:%02u/%02u/20%02u Hora: %02u:%02u:%02u\"",Temperatura,Dia,Mes,Year,Hora,Minuto,Segundo); 
09066:  MOVLW  28
09068:  MOVWF  FF6
0906A:  MOVLW  0B
0906C:  MOVWF  FF7
0906E:  MOVLW  00
09070:  MOVWF  FF8
09072:  MOVLW  0D
09074:  MOVLB  4
09076:  MOVWF  x44
09078:  MOVLB  0
0907A:  CALL   47DC
0907E:  MOVLW  02
09080:  MOVWF  FE9
09082:  MOVFF  32B,447
09086:  MOVFF  32A,446
0908A:  MOVFF  329,445
0908E:  MOVFF  328,444
09092:  MOVLW  01
09094:  MOVLB  4
09096:  MOVWF  x48
09098:  MOVLB  0
0909A:  CALL   497C
0909E:  MOVLW  3A
090A0:  MOVWF  FF6
090A2:  MOVLW  0B
090A4:  MOVWF  FF7
090A6:  MOVLW  00
090A8:  MOVWF  FF8
090AA:  MOVLW  09
090AC:  MOVLB  4
090AE:  MOVWF  x44
090B0:  MOVLB  0
090B2:  CALL   47DC
090B6:  MOVFF  3A0,444
090BA:  MOVLW  01
090BC:  MOVLB  4
090BE:  MOVWF  x45
090C0:  MOVLB  0
090C2:  CALL   483A
090C6:  MOVLW  2F
090C8:  BTFSS  F9E.4
090CA:  BRA    90C8
090CC:  MOVWF  FAD
090CE:  MOVFF  39F,444
090D2:  MOVLW  01
090D4:  MOVLB  4
090D6:  MOVWF  x45
090D8:  MOVLB  0
090DA:  CALL   483A
090DE:  MOVLW  2F
090E0:  BTFSS  F9E.4
090E2:  BRA    90E0
090E4:  MOVWF  FAD
090E6:  MOVLW  32
090E8:  BTFSS  F9E.4
090EA:  BRA    90E8
090EC:  MOVWF  FAD
090EE:  MOVLW  30
090F0:  BTFSS  F9E.4
090F2:  BRA    90F0
090F4:  MOVWF  FAD
090F6:  MOVFF  39E,444
090FA:  MOVLW  01
090FC:  MOVLB  4
090FE:  MOVWF  x45
09100:  MOVLB  0
09102:  CALL   483A
09106:  MOVLW  53
09108:  MOVWF  FF6
0910A:  MOVLW  0B
0910C:  MOVWF  FF7
0910E:  MOVLW  00
09110:  MOVWF  FF8
09112:  MOVLW  07
09114:  MOVLB  4
09116:  MOVWF  x44
09118:  MOVLB  0
0911A:  CALL   47DC
0911E:  MOVFF  3A1,444
09122:  MOVLW  01
09124:  MOVLB  4
09126:  MOVWF  x45
09128:  MOVLB  0
0912A:  CALL   483A
0912E:  MOVLW  3A
09130:  BTFSS  F9E.4
09132:  BRA    9130
09134:  MOVWF  FAD
09136:  MOVFF  3A2,444
0913A:  MOVLW  01
0913C:  MOVLB  4
0913E:  MOVWF  x45
09140:  MOVLB  0
09142:  CALL   483A
09146:  MOVLW  3A
09148:  BTFSS  F9E.4
0914A:  BRA    9148
0914C:  MOVWF  FAD
0914E:  MOVFF  3A3,444
09152:  MOVLW  01
09154:  MOVLB  4
09156:  MOVWF  x45
09158:  MOVLB  0
0915A:  CALL   483A
0915E:  MOVLW  22
09160:  BTFSS  F9E.4
09162:  BRA    9160
09164:  MOVWF  FAD
....................       SendDataDisplay();             
09166:  CALL   3874
....................              
....................          if(RX_Buffer[4]==0x0a){//Selecciono Minutos 
0916A:  MOVF   34,W
0916C:  SUBLW  0A
0916E:  BNZ   9174
....................             Minutos=ON; 
09170:  BSF    xA2.2
....................             Segundos=OFF; 
09172:  BCF    xA2.3
....................          } 
....................           
....................          if(RX_Buffer[4]==0x0b){//Selecciono Segundos 
09174:  MOVF   34,W
09176:  SUBLW  0B
09178:  BNZ   917E
....................             Segundos=ON; 
0917A:  BSF    xA2.3
....................             Minutos=OFF; 
0917C:  BCF    xA2.2
....................          } 
....................           
....................          if(RX_Buffer[4]==0x11 || LEFT){//Selecciono Regresar 
0917E:  MOVF   34,W
09180:  SUBLW  11
09182:  BZ    918A
09184:  BSF    F93.3
09186:  BTFSC  F81.3
09188:  BRA    92F4
....................             Segundos=OFF; 
0918A:  BCF    xA2.3
....................             Minutos=OFF; 
0918C:  BCF    xA2.2
....................             printf("page CicloPersona"); 
0918E:  MOVLW  6A
09190:  MOVWF  FF6
09192:  MOVLW  0B
09194:  MOVWF  FF7
09196:  MOVLW  00
09198:  MOVWF  FF8
0919A:  CALL   3842
....................             SendDataDisplay();   
0919E:  CALL   3874
....................             //PantallaPrincipal=1; 
....................             Op=OFF; 
091A2:  BCF    xA2.0
....................             Op2=OFF; 
091A4:  BCF    xA2.1
....................             if(!GuardaEEPROM){ 
091A6:  BTFSC  xA2.4
091A8:  BRA    92F4
....................                CiclosPersonalizados[CicloLibre-1].Minutosec=Tsecadop[2]+(Tsecadop[3]*10); 
091AA:  MOVLW  01
091AC:  MOVLB  3
091AE:  SUBWF  x42,W
091B0:  MULLW  0A
091B2:  MOVF   FF3,W
091B4:  MOVLB  4
091B6:  CLRF   x40
091B8:  MOVWF  x3F
091BA:  MOVLW  04
091BC:  ADDWF  x3F,W
091BE:  MOVWF  01
091C0:  MOVLW  00
091C2:  ADDWFC x40,W
091C4:  MOVWF  03
091C6:  MOVF   01,W
091C8:  ADDLW  17
091CA:  MOVWF  FE9
091CC:  MOVLW  04
091CE:  ADDWFC 03,W
091D0:  MOVWF  FEA
091D2:  MOVFF  C2,441
091D6:  MOVLW  0A
091D8:  MOVWF  x42
091DA:  MOVLB  0
091DC:  CALL   2D4C
091E0:  MOVF   01,W
091E2:  ADDWF  xC1,W
091E4:  MOVWF  FEF
....................                CiclosPersonalizados[CicloLibre-1].Segundosec=Tsecadop[0]+(Tsecadop[1]*10); 
091E6:  MOVLW  01
091E8:  MOVLB  3
091EA:  SUBWF  x42,W
091EC:  MULLW  0A
091EE:  MOVF   FF3,W
091F0:  MOVLB  4
091F2:  CLRF   x40
091F4:  MOVWF  x3F
091F6:  MOVLW  05
091F8:  ADDWF  x3F,W
091FA:  MOVWF  01
091FC:  MOVLW  00
091FE:  ADDWFC x40,W
09200:  MOVWF  03
09202:  MOVF   01,W
09204:  ADDLW  17
09206:  MOVWF  FE9
09208:  MOVLW  04
0920A:  ADDWFC 03,W
0920C:  MOVWF  FEA
0920E:  MOVFF  C0,441
09212:  MOVLW  0A
09214:  MOVWF  x42
09216:  MOVLB  0
09218:  CALL   2D4C
0921C:  MOVF   01,W
0921E:  ADDWF  xBF,W
09220:  MOVWF  FEF
....................                write_eeprom(104+((CicloLibre-1)*8),Tsecadop[2]+(Tsecadop[3]*10)); 
09222:  MOVLW  01
09224:  MOVLB  3
09226:  SUBWF  x42,W
09228:  MULLW  08
0922A:  MOVF   FF3,W
0922C:  ADDLW  68
0922E:  MOVLB  4
09230:  MOVWF  x3F
09232:  MOVFF  C2,441
09236:  MOVLW  0A
09238:  MOVWF  x42
0923A:  MOVLB  0
0923C:  CALL   2D4C
09240:  MOVF   01,W
09242:  ADDWF  xC1,W
09244:  MOVLB  4
09246:  MOVWF  x40
09248:  CLRF   FAA
0924A:  MOVFF  43F,FA9
0924E:  MOVFF  440,FA8
09252:  BCF    FA6.6
09254:  BCF    FA6.7
09256:  BSF    FA6.2
09258:  MOVF   FF2,W
0925A:  MOVWF  00
0925C:  BCF    FF2.6
0925E:  BCF    FF2.7
09260:  MOVLB  F
09262:  MOVLW  55
09264:  MOVWF  FA7
09266:  MOVLW  AA
09268:  MOVWF  FA7
0926A:  BSF    FA6.1
0926C:  BTFSC  FA6.1
0926E:  BRA    926C
09270:  BCF    FA6.2
09272:  MOVF   00,W
09274:  IORWF  FF2,F
....................                delay_ms(10); 
09276:  MOVLW  0A
09278:  MOVLB  4
0927A:  MOVWF  x54
0927C:  MOVLB  0
0927E:  CALL   19B0
....................                write_eeprom(105+((CicloLibre-1)*8),Tsecadop[0]+(Tsecadop[1]*10)); 
09282:  MOVLW  01
09284:  MOVLB  3
09286:  SUBWF  x42,W
09288:  MULLW  08
0928A:  MOVF   FF3,W
0928C:  ADDLW  69
0928E:  MOVLB  4
09290:  MOVWF  x3F
09292:  MOVFF  C0,441
09296:  MOVLW  0A
09298:  MOVWF  x42
0929A:  MOVLB  0
0929C:  CALL   2D4C
092A0:  MOVF   01,W
092A2:  ADDWF  xBF,W
092A4:  MOVLB  4
092A6:  MOVWF  x40
092A8:  CLRF   FAA
092AA:  MOVFF  43F,FA9
092AE:  MOVFF  440,FA8
092B2:  BCF    FA6.6
092B4:  BCF    FA6.7
092B6:  BSF    FA6.2
092B8:  MOVF   FF2,W
092BA:  MOVWF  00
092BC:  BCF    FF2.6
092BE:  BCF    FF2.7
092C0:  MOVLB  F
092C2:  MOVLW  55
092C4:  MOVWF  FA7
092C6:  MOVLW  AA
092C8:  MOVWF  FA7
092CA:  BSF    FA6.1
092CC:  BTFSC  FA6.1
092CE:  BRA    92CC
092D0:  BCF    FA6.2
092D2:  MOVF   00,W
092D4:  IORWF  FF2,F
....................                delay_ms(10); 
092D6:  MOVLW  0A
092D8:  MOVLB  4
092DA:  MOVWF  x54
092DC:  MOVLB  0
092DE:  CALL   19B0
....................                Tsecado[0]=Tsecadop[0]; 
092E2:  MOVFF  BF,BB
....................                Tsecado[1]=Tsecadop[1]; 
092E6:  MOVFF  C0,BC
....................                Tsecado[2]=Tsecadop[2]; 
092EA:  MOVFF  C1,BD
....................                Tsecado[3]=Tsecadop[3]; 
092EE:  MOVFF  C2,BE
....................                GuardaEEPROM=ON; 
092F2:  BSF    xA2.4
....................             } 
....................          } 
....................           
....................          if(RIGHT){ 
092F4:  BSF    F93.2
092F6:  BTFSC  F81.2
092F8:  BRA    936E
....................             delay_ms(100); 
092FA:  MOVLW  64
092FC:  MOVLB  4
092FE:  MOVWF  x54
09300:  MOVLB  0
09302:  CALL   19B0
....................             if(RIGHT){ 
09306:  BSF    F93.2
09308:  BTFSC  F81.2
0930A:  BRA    936E
....................                if(!Segundos){ 
0930C:  BTFSC  xA2.3
0930E:  BRA    933E
....................                   Segundos=ON; 
09310:  BSF    xA2.3
....................                   Minutos=OFF; 
09312:  BCF    xA2.2
....................                   printf("tminsec.pco=0"); 
09314:  MOVLW  7C
09316:  MOVWF  FF6
09318:  MOVLW  0B
0931A:  MOVWF  FF7
0931C:  MOVLW  00
0931E:  MOVWF  FF8
09320:  CALL   3842
....................                   SendDataDisplay();                    
09324:  CALL   3874
....................                   printf("tsecsec.pco=65535"); 
09328:  MOVLW  8A
0932A:  MOVWF  FF6
0932C:  MOVLW  0B
0932E:  MOVWF  FF7
09330:  MOVLW  00
09332:  MOVWF  FF8
09334:  CALL   3842
....................                   SendDataDisplay();   
09338:  CALL   3874
....................                }else if(!Minutos){ 
0933C:  BRA    936E
0933E:  BTFSC  xA2.2
09340:  BRA    936E
....................                   Segundos=OFF; 
09342:  BCF    xA2.3
....................                   Minutos=ON; 
09344:  BSF    xA2.2
....................                   printf("tminsec.pco=65535"); 
09346:  MOVLW  9C
09348:  MOVWF  FF6
0934A:  MOVLW  0B
0934C:  MOVWF  FF7
0934E:  MOVLW  00
09350:  MOVWF  FF8
09352:  CALL   3842
....................                   SendDataDisplay();   
09356:  CALL   3874
....................                   printf("tsecsec.pco=0"); 
0935A:  MOVLW  AE
0935C:  MOVWF  FF6
0935E:  MOVLW  0B
09360:  MOVWF  FF7
09362:  MOVLW  00
09364:  MOVWF  FF8
09366:  CALL   3842
....................                   SendDataDisplay();   
0936A:  CALL   3874
....................                } 
....................             } 
....................          } 
....................           
....................          if(UP){ 
0936E:  BSF    F93.0
09370:  BTFSC  F81.0
09372:  BRA    93AE
....................             delay_ms(100); 
09374:  MOVLW  64
09376:  MOVLB  4
09378:  MOVWF  x54
0937A:  MOVLB  0
0937C:  CALL   19B0
....................             if(UP){ 
09380:  BSF    F93.0
09382:  BTFSC  F81.0
09384:  BRA    93AE
....................                if(Segundos){ 
09386:  BTFSS  xA2.3
09388:  BRA    939A
....................                   Tsecadop[0]++; 
0938A:  INCF   xBF,F
....................                   if(Tsecadop[0]>9){ 
0938C:  BTFSC  xBF.7
0938E:  BRA    939A
09390:  MOVF   xBF,W
09392:  SUBLW  09
09394:  BC    939A
....................                      Tsecadop[1]++; 
09396:  INCF   xC0,F
....................                      Tsecadop[0]=0; 
09398:  CLRF   xBF
....................                   } 
....................                } 
....................                if(Minutos){ 
0939A:  BTFSS  xA2.2
0939C:  BRA    93AE
....................                   Tsecado[2]++; 
0939E:  INCF   xBD,F
....................                   if(Tsecadop[2]>9){ 
093A0:  BTFSC  xC1.7
093A2:  BRA    93AE
093A4:  MOVF   xC1,W
093A6:  SUBLW  09
093A8:  BC    93AE
....................                      Tsecadop[3]++; 
093AA:  INCF   xC2,F
....................                      Tsecadop[2]=0; 
093AC:  CLRF   xC1
....................                   } 
....................                }   
....................             } 
....................          } 
....................           
....................          if(DOWN){ 
093AE:  BSF    F93.1
093B0:  BTFSC  F81.1
093B2:  BRA    93F8
....................             delay_ms(100); 
093B4:  MOVLW  64
093B6:  MOVLB  4
093B8:  MOVWF  x54
093BA:  MOVLB  0
093BC:  CALL   19B0
....................             if(DOWN){ 
093C0:  BSF    F93.1
093C2:  BTFSC  F81.1
093C4:  BRA    93F8
....................                if(Segundos){ 
093C6:  BTFSS  xA2.3
093C8:  BRA    93E6
....................                   Tsecadop[0]--; 
093CA:  DECF   xBF,F
....................                   if(Tsecadop[0]<0){ 
093CC:  BTFSC  xBF.7
093CE:  BRA    93D2
093D0:  BRA    93D8
....................                      Tsecadop[1]--; 
093D2:  DECF   xC0,F
....................                      Tsecadop[0]=9; 
093D4:  MOVLW  09
093D6:  MOVWF  xBF
....................                   } 
....................                   if(Tsecadop[1]<0){ 
093D8:  BTFSC  xC0.7
093DA:  BRA    93DE
093DC:  BRA    93E6
....................                      Tsecadop[1]=5; 
093DE:  MOVLW  05
093E0:  MOVWF  xC0
....................                      Tsecadop[0]=9; 
093E2:  MOVLW  09
093E4:  MOVWF  xBF
....................                   } 
....................                } 
....................                if(Minutos){ 
093E6:  BTFSS  xA2.2
093E8:  BRA    93F8
....................                   Tsecadop[2]--; 
093EA:  DECF   xC1,F
....................                   if(Tsecadop[2]<0){ 
093EC:  BTFSC  xC1.7
093EE:  BRA    93F2
093F0:  BRA    93F8
....................                      Tsecadop[3]--; 
093F2:  DECF   xC2,F
....................                      Tsecadop[2]=9; 
093F4:  MOVLW  09
093F6:  MOVWF  xC1
....................                   } 
....................                }   
....................             } 
....................          } 
....................           
....................          if(RX_Buffer[4]==0x0c || RX_Buffer[4]==0x0d){//Tecla Derecha Oprimida 
093F8:  MOVF   34,W
093FA:  SUBLW  0C
093FC:  BZ    9404
093FE:  MOVF   34,W
09400:  SUBLW  0D
09402:  BNZ   9430
....................             if(Segundos){ 
09404:  BTFSS  xA2.3
09406:  BRA    9418
....................                Tsecadop[0]++; 
09408:  INCF   xBF,F
....................                if(Tsecadop[0]>9){ 
0940A:  BTFSC  xBF.7
0940C:  BRA    9418
0940E:  MOVF   xBF,W
09410:  SUBLW  09
09412:  BC    9418
....................                   Tsecadop[1]++; 
09414:  INCF   xC0,F
....................                   Tsecadop[0]=0; 
09416:  CLRF   xBF
....................                } 
....................             } 
....................             if(Minutos){ 
09418:  BTFSS  xA2.2
0941A:  BRA    942C
....................                Tsecadop[2]++; 
0941C:  INCF   xC1,F
....................                if(Tsecadop[2]>9){ 
0941E:  BTFSC  xC1.7
09420:  BRA    942C
09422:  MOVF   xC1,W
09424:  SUBLW  09
09426:  BC    942C
....................                   Tsecadop[3]++; 
09428:  INCF   xC2,F
....................                   Tsecadop[2]=0; 
0942A:  CLRF   xC1
....................                } 
....................             } 
....................             RX_Buffer[4]=0x00;   
0942C:  CLRF   34
....................             RX_Buffer2[4]=0x00;  
0942E:  CLRF   3F
....................          } 
....................           
....................          if(RX_Buffer[4]==0x0f || RX_Buffer[4]==0x0e){//Tecla Izquierda Oprimida 
09430:  MOVF   34,W
09432:  SUBLW  0F
09434:  BZ    943C
09436:  MOVF   34,W
09438:  SUBLW  0E
0943A:  BNZ   9472
....................             if(Segundos){ 
0943C:  BTFSS  xA2.3
0943E:  BRA    945C
....................                Tsecadop[0]--; 
09440:  DECF   xBF,F
....................                if(Tsecadop[0]<0){ 
09442:  BTFSC  xBF.7
09444:  BRA    9448
09446:  BRA    944E
....................                   Tsecadop[1]--; 
09448:  DECF   xC0,F
....................                   Tsecadop[0]=9; 
0944A:  MOVLW  09
0944C:  MOVWF  xBF
....................                } 
....................                if(Tsecadop[1]<0){ 
0944E:  BTFSC  xC0.7
09450:  BRA    9454
09452:  BRA    945C
....................                   Tsecadop[1]=5; 
09454:  MOVLW  05
09456:  MOVWF  xC0
....................                   Tsecadop[0]=9; 
09458:  MOVLW  09
0945A:  MOVWF  xBF
....................                } 
....................             } 
....................             if(Minutos){ 
0945C:  BTFSS  xA2.2
0945E:  BRA    946E
....................                Tsecadop[2]--; 
09460:  DECF   xC1,F
....................                if(Tsecadop[2]<0){ 
09462:  BTFSC  xC1.7
09464:  BRA    9468
09466:  BRA    946E
....................                   Tsecadop[3]--; 
09468:  DECF   xC2,F
....................                   Tsecadop[2]=9; 
0946A:  MOVLW  09
0946C:  MOVWF  xC1
....................                } 
....................             } 
....................             RX_Buffer[4]=0x00;   
0946E:  CLRF   34
....................             RX_Buffer2[4]=0x00;             
09470:  CLRF   3F
....................          } 
....................        
....................          if(Tsecadop[0]<0) 
09472:  BTFSC  xBF.7
09474:  BRA    9478
09476:  BRA    947C
....................             Tsecadop[0]=9;             
09478:  MOVLW  09
0947A:  MOVWF  xBF
....................          if(Tsecadop[1]<0) 
0947C:  BTFSC  xC0.7
0947E:  BRA    9482
09480:  BRA    9486
....................             Tsecadop[1]=5;             
09482:  MOVLW  05
09484:  MOVWF  xC0
....................          if(Tsecadop[2]<0) 
09486:  BTFSC  xC1.7
09488:  BRA    948C
0948A:  BRA    9490
....................             Tsecadop[2]=9;             
0948C:  MOVLW  09
0948E:  MOVWF  xC1
....................          if(Tsecadop[3]<0) 
09490:  BTFSC  xC2.7
09492:  BRA    9496
09494:  BRA    949A
....................             Tsecadop[3]=9;             
09496:  MOVLW  09
09498:  MOVWF  xC2
....................           
....................          if(Tsecadop[0]>9) 
0949A:  BTFSC  xBF.7
0949C:  BRA    94A6
0949E:  MOVF   xBF,W
094A0:  SUBLW  09
094A2:  BC    94A6
....................             Tsecadop[0]=0;             
094A4:  CLRF   xBF
....................          if(Tsecadop[1]>5) 
094A6:  BTFSC  xC0.7
094A8:  BRA    94B2
094AA:  MOVF   xC0,W
094AC:  SUBLW  05
094AE:  BC    94B2
....................             Tsecadop[1]=0;             
094B0:  CLRF   xC0
....................          if(Tsecadop[2]>9) 
094B2:  BTFSC  xC1.7
094B4:  BRA    94BE
094B6:  MOVF   xC1,W
094B8:  SUBLW  09
094BA:  BC    94BE
....................             Tsecadop[2]=0;             
094BC:  CLRF   xC1
....................          if(Tsecadop[3]>9) 
094BE:  BTFSC  xC2.7
094C0:  BRA    94CA
094C2:  MOVF   xC2,W
094C4:  SUBLW  09
094C6:  BC    94CA
....................             Tsecadop[3]=0; 
094C8:  CLRF   xC2
....................              
....................       printf("tminsec.txt=\"%02u\"",((Tsecadop[3]*10)+Tsecadop[2])); 
094CA:  MOVFF  C2,441
094CE:  MOVLW  0A
094D0:  MOVLB  4
094D2:  MOVWF  x42
094D4:  MOVLB  0
094D6:  CALL   2D4C
094DA:  MOVF   xC1,W
094DC:  ADDWF  01,W
094DE:  MOVLB  4
094E0:  MOVWF  x3F
094E2:  MOVLW  BC
094E4:  MOVWF  FF6
094E6:  MOVLW  0B
094E8:  MOVWF  FF7
094EA:  MOVLW  00
094EC:  MOVWF  FF8
094EE:  MOVLW  0D
094F0:  MOVWF  x44
094F2:  MOVLB  0
094F4:  CALL   47DC
094F8:  MOVFF  43F,444
094FC:  MOVLW  01
094FE:  MOVLB  4
09500:  MOVWF  x45
09502:  MOVLB  0
09504:  CALL   483A
09508:  MOVLW  22
0950A:  BTFSS  F9E.4
0950C:  BRA    950A
0950E:  MOVWF  FAD
....................       SendDataDisplay(); 
09510:  CALL   3874
....................       printf("tsecsec.txt=\"%02u\"",((Tsecadop[1]*10)+Tsecadop[0])); 
09514:  MOVFF  C0,441
09518:  MOVLW  0A
0951A:  MOVLB  4
0951C:  MOVWF  x42
0951E:  MOVLB  0
09520:  CALL   2D4C
09524:  MOVF   xBF,W
09526:  ADDWF  01,W
09528:  MOVLB  4
0952A:  MOVWF  x3F
0952C:  MOVLW  D0
0952E:  MOVWF  FF6
09530:  MOVLW  0B
09532:  MOVWF  FF7
09534:  MOVLW  00
09536:  MOVWF  FF8
09538:  MOVLW  0D
0953A:  MOVWF  x44
0953C:  MOVLB  0
0953E:  CALL   47DC
09542:  MOVFF  43F,444
09546:  MOVLW  01
09548:  MOVLB  4
0954A:  MOVWF  x45
0954C:  MOVLB  0
0954E:  CALL   483A
09552:  MOVLW  22
09554:  BTFSS  F9E.4
09556:  BRA    9554
09558:  MOVWF  FAD
....................       SendDataDisplay(); 
0955A:  CALL   3874
0955E:  MOVLB  3
....................     } 
.................... //_--------------------------------------------------------------------------------------------------------------------------------------------------------        
....................  
.................... //_-------------------------------------------------------------------------------------------------------------------------------------------------------- 
....................     if(Menu==4){ //Menu de Temperatura 
09560:  MOVF   x62,W
09562:  SUBLW  04
09564:  BTFSS  FD8.2
09566:  BRA    9768
....................       printf("fecha.txt=\"Fecha:%02u/%02u/20%02u    Hora: %02u:%02u\"",Dia,Mes,Year,Hora,Minuto); 
09568:  MOVLW  E4
0956A:  MOVWF  FF6
0956C:  MOVLW  0B
0956E:  MOVWF  FF7
09570:  MOVLW  00
09572:  MOVWF  FF8
09574:  MOVLW  11
09576:  MOVLB  4
09578:  MOVWF  x44
0957A:  MOVLB  0
0957C:  CALL   47DC
09580:  MOVFF  3A0,444
09584:  MOVLW  01
09586:  MOVLB  4
09588:  MOVWF  x45
0958A:  MOVLB  0
0958C:  CALL   483A
09590:  MOVLW  2F
09592:  BTFSS  F9E.4
09594:  BRA    9592
09596:  MOVWF  FAD
09598:  MOVFF  39F,444
0959C:  MOVLW  01
0959E:  MOVLB  4
095A0:  MOVWF  x45
095A2:  MOVLB  0
095A4:  CALL   483A
095A8:  MOVLW  2F
095AA:  BTFSS  F9E.4
095AC:  BRA    95AA
095AE:  MOVWF  FAD
095B0:  MOVLW  32
095B2:  BTFSS  F9E.4
095B4:  BRA    95B2
095B6:  MOVWF  FAD
095B8:  MOVLW  30
095BA:  BTFSS  F9E.4
095BC:  BRA    95BA
095BE:  MOVWF  FAD
095C0:  MOVFF  39E,444
095C4:  MOVLW  01
095C6:  MOVLB  4
095C8:  MOVWF  x45
095CA:  MOVLB  0
095CC:  CALL   483A
095D0:  MOVLW  05
095D2:  MOVWF  FF6
095D4:  MOVLW  0C
095D6:  MOVWF  FF7
095D8:  MOVLW  00
095DA:  MOVWF  FF8
095DC:  MOVLW  0A
095DE:  MOVLB  4
095E0:  MOVWF  x44
095E2:  MOVLB  0
095E4:  CALL   47DC
095E8:  MOVFF  3A1,444
095EC:  MOVLW  01
095EE:  MOVLB  4
095F0:  MOVWF  x45
095F2:  MOVLB  0
095F4:  CALL   483A
095F8:  MOVLW  3A
095FA:  BTFSS  F9E.4
095FC:  BRA    95FA
095FE:  MOVWF  FAD
09600:  MOVFF  3A2,444
09604:  MOVLW  01
09606:  MOVLB  4
09608:  MOVWF  x45
0960A:  MOVLB  0
0960C:  CALL   483A
09610:  MOVLW  22
09612:  BTFSS  F9E.4
09614:  BRA    9612
09616:  MOVWF  FAD
....................       SendDataDisplay(); 
09618:  CALL   3874
....................          if(Setpoint<105) 
0961C:  MOVLB  3
0961E:  MOVF   x6B,W
09620:  SUBLW  68
09622:  BNC   9628
....................             Setpoint=128; 
09624:  MOVLW  80
09626:  MOVWF  x6B
....................          if(Setpoint>128) 
09628:  MOVF   x6B,W
0962A:  SUBLW  80
0962C:  BC    9632
....................             Setpoint=105; 
0962E:  MOVLW  69
09630:  MOVWF  x6B
....................           
....................          if(RX_Buffer[4]==0x11 || LEFT){//Selecciono Regresar 
09632:  MOVF   34,W
09634:  SUBLW  11
09636:  BZ    963E
09638:  BSF    F93.3
0963A:  BTFSC  F81.3
0963C:  BRA    96D6
....................             Segundos=OFF; 
0963E:  MOVLB  0
09640:  BCF    xA2.3
....................             Minutos=OFF; 
09642:  BCF    xA2.2
....................             printf("page CicloPersona"); 
09644:  MOVLW  1A
09646:  MOVWF  FF6
09648:  MOVLW  0C
0964A:  MOVWF  FF7
0964C:  MOVLW  00
0964E:  MOVWF  FF8
09650:  CALL   3842
....................             SendDataDisplay();   
09654:  CALL   3874
....................             PantallaPrincipal=1; 
09658:  MOVLW  01
0965A:  MOVLB  2
0965C:  MOVWF  xDD
....................             Op=OFF; 
0965E:  MOVLB  0
09660:  BCF    xA2.0
....................             Op2=OFF; 
09662:  BCF    xA2.1
....................             if(!GuardaEEPROM){ 
09664:  BTFSC  xA2.4
09666:  BRA    96D4
....................                CiclosPersonalizados[CicloLibre-1].Temperatura=Setpoint; 
09668:  MOVLW  01
0966A:  MOVLB  3
0966C:  SUBWF  x42,W
0966E:  MULLW  0A
09670:  MOVF   FF3,W
09672:  MOVLB  4
09674:  CLRF   x40
09676:  MOVWF  x3F
09678:  MOVLW  17
0967A:  ADDWF  x3F,W
0967C:  MOVWF  FE9
0967E:  MOVLW  04
09680:  ADDWFC x40,W
09682:  MOVWF  FEA
09684:  MOVFF  36B,FEF
....................                write_eeprom(100+((CicloLibre-1)*8),Setpoint); 
09688:  MOVLW  01
0968A:  MOVLB  3
0968C:  SUBWF  x42,W
0968E:  MULLW  08
09690:  MOVF   FF3,W
09692:  ADDLW  64
09694:  MOVLB  4
09696:  MOVWF  x3F
09698:  CLRF   FAA
0969A:  MOVFF  43F,FA9
0969E:  MOVFF  36B,FA8
096A2:  BCF    FA6.6
096A4:  BCF    FA6.7
096A6:  BSF    FA6.2
096A8:  MOVF   FF2,W
096AA:  MOVWF  00
096AC:  BCF    FF2.6
096AE:  BCF    FF2.7
096B0:  MOVLB  F
096B2:  MOVLW  55
096B4:  MOVWF  FA7
096B6:  MOVLW  AA
096B8:  MOVWF  FA7
096BA:  BSF    FA6.1
096BC:  BTFSC  FA6.1
096BE:  BRA    96BC
096C0:  BCF    FA6.2
096C2:  MOVF   00,W
096C4:  IORWF  FF2,F
....................                delay_ms(10); 
096C6:  MOVLW  0A
096C8:  MOVLB  4
096CA:  MOVWF  x54
096CC:  MOVLB  0
096CE:  CALL   19B0
....................                GuardaEEPROM=ON; 
096D2:  BSF    xA2.4
096D4:  MOVLB  3
....................             } 
....................          } 
....................           
....................          if(UP){ 
096D6:  BSF    F93.0
096D8:  BTFSC  F81.0
096DA:  BRA    96F2
....................             delay_ms(100); 
096DC:  MOVLW  64
096DE:  MOVLB  4
096E0:  MOVWF  x54
096E2:  MOVLB  0
096E4:  CALL   19B0
....................             if(UP){ 
096E8:  BSF    F93.0
096EA:  BTFSC  F81.0
096EC:  BRA    96F4
....................                Setpoint++; 
096EE:  MOVLB  3
096F0:  INCF   x6B,F
096F2:  MOVLB  0
....................             } 
....................          } 
....................           
....................          if(DOWN){ 
096F4:  BSF    F93.1
096F6:  BTFSC  F81.1
096F8:  BRA    9712
....................             delay_ms(100); 
096FA:  MOVLW  64
096FC:  MOVLB  4
096FE:  MOVWF  x54
09700:  MOVLB  0
09702:  CALL   19B0
....................             if(DOWN){ 
09706:  BSF    F93.1
09708:  BTFSC  F81.1
0970A:  BRA    9712
....................                Setpoint--; 
0970C:  MOVLB  3
0970E:  DECF   x6B,F
09710:  MOVLB  0
....................             } 
....................          } 
....................           
....................          if(RX_Buffer[4]==0x0d){//Tecla Arriba Oprimida 
09712:  MOVF   34,W
09714:  SUBLW  0D
09716:  BNZ   9722
....................             Setpoint++; 
09718:  MOVLB  3
0971A:  INCF   x6B,F
....................             RX_Buffer[4]=0x00;   
0971C:  CLRF   34
....................             RX_Buffer2[4]=0x00;             
0971E:  CLRF   3F
09720:  MOVLB  0
....................             //BorraBuffer(); 
....................          } 
....................           
....................          if(RX_Buffer[4]==0x0c){//Tecla Abajo Oprimida 
09722:  MOVF   34,W
09724:  SUBLW  0C
09726:  BNZ   9732
....................             Setpoint--; 
09728:  MOVLB  3
0972A:  DECF   x6B,F
....................             RX_Buffer[4]=0x00; 
0972C:  CLRF   34
....................             RX_Buffer2[4]=0x00;             
0972E:  CLRF   3F
09730:  MOVLB  0
....................             //BorraBuffer(); 
....................          } 
....................           
....................       printf("tsettem.txt=\"%03u\"",Setpoint); 
09732:  MOVLW  2C
09734:  MOVWF  FF6
09736:  MOVLW  0C
09738:  MOVWF  FF7
0973A:  MOVLW  00
0973C:  MOVWF  FF8
0973E:  MOVLW  0D
09740:  MOVLB  4
09742:  MOVWF  x44
09744:  MOVLB  0
09746:  CALL   47DC
0974A:  MOVFF  36B,444
0974E:  MOVLW  03
09750:  MOVLB  4
09752:  MOVWF  x45
09754:  MOVLB  0
09756:  CALL   483A
0975A:  MOVLW  22
0975C:  BTFSS  F9E.4
0975E:  BRA    975C
09760:  MOVWF  FAD
....................       SendDataDisplay(); 
09762:  CALL   3874
09766:  MOVLB  3
....................     } 
.................... //_--------------------------------------------------------------------------------------------------------------------------------------------------------        
....................  
.................... //_--------------------------------------------------------------------------------------------------------------------------------------------------------       
....................    if(Menu==5){//Menu de Nivel 
09768:  MOVF   x62,W
0976A:  SUBLW  05
0976C:  BTFSS  FD8.2
0976E:  BRA    9A42
....................       printf("fecha.txt=\"T:%3.1fC Fecha:%02u/%02u/20%02u Hora: %02u:%02u:%02u\"",Temperatura,Dia,Mes,Year,Hora,Minuto,Segundo); 
09770:  MOVLW  40
09772:  MOVWF  FF6
09774:  MOVLW  0C
09776:  MOVWF  FF7
09778:  MOVLW  00
0977A:  MOVWF  FF8
0977C:  MOVLW  0D
0977E:  MOVLB  4
09780:  MOVWF  x44
09782:  MOVLB  0
09784:  CALL   47DC
09788:  MOVLW  02
0978A:  MOVWF  FE9
0978C:  MOVFF  32B,447
09790:  MOVFF  32A,446
09794:  MOVFF  329,445
09798:  MOVFF  328,444
0979C:  MOVLW  01
0979E:  MOVLB  4
097A0:  MOVWF  x48
097A2:  MOVLB  0
097A4:  CALL   497C
097A8:  MOVLW  52
097AA:  MOVWF  FF6
097AC:  MOVLW  0C
097AE:  MOVWF  FF7
097B0:  MOVLW  00
097B2:  MOVWF  FF8
097B4:  MOVLW  09
097B6:  MOVLB  4
097B8:  MOVWF  x44
097BA:  MOVLB  0
097BC:  CALL   47DC
097C0:  MOVFF  3A0,444
097C4:  MOVLW  01
097C6:  MOVLB  4
097C8:  MOVWF  x45
097CA:  MOVLB  0
097CC:  CALL   483A
097D0:  MOVLW  2F
097D2:  BTFSS  F9E.4
097D4:  BRA    97D2
097D6:  MOVWF  FAD
097D8:  MOVFF  39F,444
097DC:  MOVLW  01
097DE:  MOVLB  4
097E0:  MOVWF  x45
097E2:  MOVLB  0
097E4:  CALL   483A
097E8:  MOVLW  2F
097EA:  BTFSS  F9E.4
097EC:  BRA    97EA
097EE:  MOVWF  FAD
097F0:  MOVLW  32
097F2:  BTFSS  F9E.4
097F4:  BRA    97F2
097F6:  MOVWF  FAD
097F8:  MOVLW  30
097FA:  BTFSS  F9E.4
097FC:  BRA    97FA
097FE:  MOVWF  FAD
09800:  MOVFF  39E,444
09804:  MOVLW  01
09806:  MOVLB  4
09808:  MOVWF  x45
0980A:  MOVLB  0
0980C:  CALL   483A
09810:  MOVLW  6B
09812:  MOVWF  FF6
09814:  MOVLW  0C
09816:  MOVWF  FF7
09818:  MOVLW  00
0981A:  MOVWF  FF8
0981C:  MOVLW  07
0981E:  MOVLB  4
09820:  MOVWF  x44
09822:  MOVLB  0
09824:  CALL   47DC
09828:  MOVFF  3A1,444
0982C:  MOVLW  01
0982E:  MOVLB  4
09830:  MOVWF  x45
09832:  MOVLB  0
09834:  CALL   483A
09838:  MOVLW  3A
0983A:  BTFSS  F9E.4
0983C:  BRA    983A
0983E:  MOVWF  FAD
09840:  MOVFF  3A2,444
09844:  MOVLW  01
09846:  MOVLB  4
09848:  MOVWF  x45
0984A:  MOVLB  0
0984C:  CALL   483A
09850:  MOVLW  3A
09852:  BTFSS  F9E.4
09854:  BRA    9852
09856:  MOVWF  FAD
09858:  MOVFF  3A3,444
0985C:  MOVLW  01
0985E:  MOVLB  4
09860:  MOVWF  x45
09862:  MOVLB  0
09864:  CALL   483A
09868:  MOVLW  22
0986A:  BTFSS  F9E.4
0986C:  BRA    986A
0986E:  MOVWF  FAD
....................       SendDataDisplay(); 
09870:  CALL   3874
....................          if(Nivel<1) 
09874:  MOVLB  3
09876:  MOVF   x79,F
09878:  BNZ   9884
0987A:  MOVF   x7A,F
0987C:  BNZ   9884
....................             Nivel=6; 
0987E:  CLRF   x7A
09880:  MOVLW  06
09882:  MOVWF  x79
....................          if(Nivel>6) 
09884:  MOVF   x7A,F
09886:  BNZ   988E
09888:  MOVF   x79,W
0988A:  SUBLW  06
0988C:  BC    9894
....................             Nivel=1; 
0988E:  CLRF   x7A
09890:  MOVLW  01
09892:  MOVWF  x79
....................           
....................          if(RX_Buffer[4]==0x11 || LEFT){//Selecciono Regresar 
09894:  MOVF   34,W
09896:  SUBLW  11
09898:  BZ    98A0
0989A:  BSF    F93.3
0989C:  BTFSC  F81.3
0989E:  BRA    999C
....................             Segundos=OFF; 
098A0:  MOVLB  0
098A2:  BCF    xA2.3
....................             Minutos=OFF;             
098A4:  BCF    xA2.2
....................             tiempo_secado=0; 
098A6:  MOVLB  3
098A8:  CLRF   x6F
....................              
....................             if(!GuardaEEPROM){     
098AA:  MOVLB  0
098AC:  BTFSC  xA2.4
098AE:  BRA    9948
....................                CiclosPersonalizados[CicloLibre-1].NivelDesfogue=Nivel; 
098B0:  MOVLW  01
098B2:  MOVLB  3
098B4:  SUBWF  x42,W
098B6:  MULLW  0A
098B8:  MOVF   FF3,W
098BA:  MOVLB  4
098BC:  CLRF   x40
098BE:  MOVWF  x3F
098C0:  MOVLW  08
098C2:  ADDWF  x3F,W
098C4:  MOVWF  01
098C6:  MOVLW  00
098C8:  ADDWFC x40,W
098CA:  MOVWF  03
098CC:  MOVF   01,W
098CE:  ADDLW  17
098D0:  MOVWF  FE9
098D2:  MOVLW  04
098D4:  ADDWFC 03,W
098D6:  MOVWF  FEA
098D8:  MOVFF  379,FEF
....................                write_eeprom(107+((CicloLibre-1)*8),Nivel); 
098DC:  MOVLW  01
098DE:  MOVLB  3
098E0:  SUBWF  x42,W
098E2:  MULLW  08
098E4:  MOVF   FF3,W
098E6:  ADDLW  6B
098E8:  MOVLB  4
098EA:  MOVWF  x3F
098EC:  CLRF   FAA
098EE:  MOVFF  43F,FA9
098F2:  MOVFF  379,FA8
098F6:  BCF    FA6.6
098F8:  BCF    FA6.7
098FA:  BSF    FA6.2
098FC:  MOVF   FF2,W
098FE:  MOVWF  00
09900:  BCF    FF2.6
09902:  BCF    FF2.7
09904:  MOVLB  F
09906:  MOVLW  55
09908:  MOVWF  FA7
0990A:  MOVLW  AA
0990C:  MOVWF  FA7
0990E:  BSF    FA6.1
09910:  BTFSC  FA6.1
09912:  BRA    9910
09914:  BCF    FA6.2
09916:  MOVF   00,W
09918:  IORWF  FF2,F
....................                delay_ms(20);             
0991A:  MOVLW  14
0991C:  MOVLB  4
0991E:  MOVWF  x54
09920:  MOVLB  0
09922:  CALL   19B0
....................                NivelSeleccionado=4995*Nivel; 
09926:  MOVLW  13
09928:  MOVLB  4
0992A:  MOVWF  x49
0992C:  MOVLW  83
0992E:  MOVWF  x48
09930:  MOVFF  37A,44B
09934:  MOVFF  379,44A
09938:  MOVLB  0
0993A:  CALL   3920
0993E:  MOVFF  02,384
09942:  MOVFF  01,383
....................                GuardaEEPROM=ON; 
09946:  BSF    xA2.4
....................             } 
....................              
....................             if(Nivel<6) 
09948:  MOVLB  3
0994A:  MOVF   x7A,F
0994C:  BNZ   995A
0994E:  MOVF   x79,W
09950:  SUBLW  05
09952:  BNC   995A
....................                desfoguelento=1; 
09954:  MOVLB  0
09956:  BSF    xA4.3
....................             else             
09958:  BRA    995E
....................                desfoguelento=0; 
0995A:  MOVLB  0
0995C:  BCF    xA4.3
....................  
....................             if(MenuAnt==1){ 
0995E:  MOVLB  3
09960:  DECFSZ x63,W
09962:  BRA    997E
....................                //Buzzer_on; 
....................                printf("page CicloPersona"); 
09964:  MOVLW  82
09966:  MOVWF  FF6
09968:  MOVLW  0C
0996A:  MOVWF  FF7
0996C:  MOVLW  00
0996E:  MOVWF  FF8
09970:  MOVLB  0
09972:  CALL   3842
....................                SendDataDisplay();  
09976:  CALL   3874
....................                //PantallaPrincipal=1; 
....................             }else if(MenuAnt==2){ 
0997A:  BRA    999A
0997C:  MOVLB  3
0997E:  MOVF   x63,W
09980:  SUBLW  02
09982:  BNZ   999C
....................                printf("page Funcionamiento"); 
09984:  MOVLW  94
09986:  MOVWF  FF6
09988:  MOVLW  0C
0998A:  MOVWF  FF7
0998C:  MOVLW  00
0998E:  MOVWF  FF8
09990:  MOVLB  0
09992:  CALL   3842
....................                SendDataDisplay();  
09996:  CALL   3874
0999A:  MOVLB  3
....................                //if(Temperatura>60)TTrampa=TTrampa+5; 
....................             } 
....................          } 
....................           
....................          if(UP){ 
0999C:  BSF    F93.0
0999E:  BTFSC  F81.0
099A0:  BRA    99BC
....................             delay_ms(100); 
099A2:  MOVLW  64
099A4:  MOVLB  4
099A6:  MOVWF  x54
099A8:  MOVLB  0
099AA:  CALL   19B0
....................             if(UP){ 
099AE:  BSF    F93.0
099B0:  BTFSC  F81.0
099B2:  BRA    99BE
....................                Nivel++; 
099B4:  MOVLB  3
099B6:  INCF   x79,F
099B8:  BTFSC  FD8.2
099BA:  INCF   x7A,F
099BC:  MOVLB  0
....................             } 
....................          } 
....................           
....................          if(DOWN){ 
099BE:  BSF    F93.1
099C0:  BTFSC  F81.1
099C2:  BRA    99E2
....................             delay_ms(100); 
099C4:  MOVLW  64
099C6:  MOVLB  4
099C8:  MOVWF  x54
099CA:  MOVLB  0
099CC:  CALL   19B0
....................             if(DOWN){ 
099D0:  BSF    F93.1
099D2:  BTFSC  F81.1
099D4:  BRA    99E2
....................                Nivel--; 
099D6:  MOVLB  3
099D8:  MOVF   x79,W
099DA:  BTFSC  FD8.2
099DC:  DECF   x7A,F
099DE:  DECF   x79,F
099E0:  MOVLB  0
....................             } 
....................          } 
....................           
....................          if(RX_Buffer[4]==0x0d){//Tecla Arriba Oprimida 
099E2:  MOVF   34,W
099E4:  SUBLW  0D
099E6:  BNZ   99F6
....................             Nivel++; 
099E8:  MOVLB  3
099EA:  INCF   x79,F
099EC:  BTFSC  FD8.2
099EE:  INCF   x7A,F
....................             RX_Buffer[4]=0x00;             
099F0:  CLRF   34
....................             RX_Buffer2[4]=0x00;             
099F2:  CLRF   3F
099F4:  MOVLB  0
....................             //BorraBuffer(); 
....................          } 
....................           
....................          if(RX_Buffer[4]==0x0c){//Tecla Abajo Oprimida 
099F6:  MOVF   34,W
099F8:  SUBLW  0C
099FA:  BNZ   9A0C
....................             Nivel--; 
099FC:  MOVLB  3
099FE:  MOVF   x79,W
09A00:  BTFSC  FD8.2
09A02:  DECF   x7A,F
09A04:  DECF   x79,F
....................             RX_Buffer[4]=0x00; 
09A06:  CLRF   34
....................             RX_Buffer2[4]=0x00;             
09A08:  CLRF   3F
09A0A:  MOVLB  0
....................             //BorraBuffer(); 
....................          } 
....................           
....................       printf("tnivel.txt=\"%Lu\"",Nivel); 
09A0C:  MOVLW  A8
09A0E:  MOVWF  FF6
09A10:  MOVLW  0C
09A12:  MOVWF  FF7
09A14:  MOVLW  00
09A16:  MOVWF  FF8
09A18:  MOVLW  0C
09A1A:  MOVLB  4
09A1C:  MOVWF  x44
09A1E:  MOVLB  0
09A20:  CALL   47DC
09A24:  MOVLW  10
09A26:  MOVWF  FE9
09A28:  MOVFF  37A,444
09A2C:  MOVFF  379,443
09A30:  CALL   4BA2
09A34:  MOVLW  22
09A36:  BTFSS  F9E.4
09A38:  BRA    9A36
09A3A:  MOVWF  FAD
....................       SendDataDisplay(); 
09A3C:  CALL   3874
09A40:  MOVLB  3
....................    } 
.................... //_--------------------------------------------------------------------------------------------------------------------------------------------------------       
....................  
.................... //_--------------------------------------------------------------------------------------------------------------------------------------------------------       
....................       if(Menu==6){ // Menu de Prueba de Componentes 
09A42:  MOVF   x62,W
09A44:  SUBLW  06
09A46:  BTFSS  FD8.2
09A48:  BRA    A194
....................          PruebaEstados=ON; 
09A4A:  MOVLB  0
09A4C:  BSF    xA1.2
....................           
....................          if(RX_Buffer[4]==0x02)//Oprimio EV Desfogue 
09A4E:  MOVF   34,W
09A50:  SUBLW  02
09A52:  BNZ   9A5A
....................          { 
....................             EstadoDesfogue=!EstadoDesfogue; 
09A54:  BTG    xA0.7
....................             RX_Buffer[4]=0x00; 
09A56:  CLRF   34
....................             RX_Buffer2[4]=0x00; 
09A58:  CLRF   3F
....................          } 
....................           
....................          if(EstadoDesfogue){ 
09A5A:  BTFSS  xA0.7
09A5C:  BRA    9A78
....................             printf("b1.bco=2016"); 
09A5E:  MOVLW  BA
09A60:  MOVWF  FF6
09A62:  MOVLW  0C
09A64:  MOVWF  FF7
09A66:  MOVLW  00
09A68:  MOVWF  FF8
09A6A:  CALL   3842
....................             SendDataDisplay();  
09A6E:  CALL   3874
....................             Desfogue_on; 
09A72:  BSF    F8C.4
09A74:  BCF    F95.4
....................          } 
....................          else{ 
09A76:  BRA    9A90
....................             printf("b1.bco=63488"); 
09A78:  MOVLW  C6
09A7A:  MOVWF  FF6
09A7C:  MOVLW  0C
09A7E:  MOVWF  FF7
09A80:  MOVLW  00
09A82:  MOVWF  FF8
09A84:  CALL   3842
....................             SendDataDisplay();  
09A88:  CALL   3874
....................             Desfogue_off; 
09A8C:  BCF    F8C.4
09A8E:  BCF    F95.4
....................          } 
....................           
....................          if(RX_Buffer[4]==0x01)//Oprimio EV Agua 
09A90:  DECFSZ 34,W
09A92:  BRA    9A9A
....................          { 
....................             EstadoAgua=!EstadoAgua; 
09A94:  BTG    xA1.0
....................             RX_Buffer[4]=0x00; 
09A96:  CLRF   34
....................             RX_Buffer2[4]=0x00; 
09A98:  CLRF   3F
....................          } 
....................           
....................          if(EstadoAgua){ 
09A9A:  BTFSS  xA1.0
09A9C:  BRA    9AB8
....................             printf("b0.bco=2016"); 
09A9E:  MOVLW  D4
09AA0:  MOVWF  FF6
09AA2:  MOVLW  0C
09AA4:  MOVWF  FF7
09AA6:  MOVLW  00
09AA8:  MOVWF  FF8
09AAA:  CALL   3842
....................             SendDataDisplay();  
09AAE:  CALL   3874
....................             Suministro_on; 
09AB2:  BSF    F8C.5
09AB4:  BCF    F95.5
....................          } 
....................          else{ 
09AB6:  BRA    9AD0
....................             printf("b0.bco=63488"); 
09AB8:  MOVLW  E0
09ABA:  MOVWF  FF6
09ABC:  MOVLW  0C
09ABE:  MOVWF  FF7
09AC0:  MOVLW  00
09AC2:  MOVWF  FF8
09AC4:  CALL   3842
....................             SendDataDisplay();  
09AC8:  CALL   3874
....................             Suministro_off; 
09ACC:  BCF    F8C.5
09ACE:  BCF    F95.5
....................          } 
....................           
....................          if(RX_Buffer[4]==0x03)//Oprimio EV Paso 
09AD0:  MOVF   34,W
09AD2:  SUBLW  03
09AD4:  BNZ   9ADC
....................          { 
....................             EstadoPaso=!EstadoPaso; 
09AD6:  BTG    xA2.5
....................             RX_Buffer[4]=0x00; 
09AD8:  CLRF   34
....................             RX_Buffer2[4]=0x00; 
09ADA:  CLRF   3F
....................          } 
....................           
....................          if(EstadoPaso){ 
09ADC:  BTFSS  xA2.5
09ADE:  BRA    9AFA
....................             printf("b2.bco=2016"); 
09AE0:  MOVLW  EE
09AE2:  MOVWF  FF6
09AE4:  MOVLW  0C
09AE6:  MOVWF  FF7
09AE8:  MOVLW  00
09AEA:  MOVWF  FF8
09AEC:  CALL   3842
....................             SendDataDisplay();  
09AF0:  CALL   3874
....................             Paso_on; 
09AF4:  BSF    F8C.6
09AF6:  BCF    F95.6
....................          } 
....................          else{ 
09AF8:  BRA    9B12
....................             printf("b2.bco=63488"); 
09AFA:  MOVLW  FA
09AFC:  MOVWF  FF6
09AFE:  MOVLW  0C
09B00:  MOVWF  FF7
09B02:  MOVLW  00
09B04:  MOVWF  FF8
09B06:  CALL   3842
....................             SendDataDisplay();  
09B0A:  CALL   3874
....................             Paso_off; 
09B0E:  BCF    F8C.6
09B10:  BCF    F95.6
....................          } 
....................          
....................           
....................          if(RX_Buffer[4]==0x05)//Oprimio Bloqueo 
09B12:  MOVF   34,W
09B14:  SUBLW  05
09B16:  BNZ   9B1E
....................          { 
....................             EstadoAire=!EstadoAire; 
09B18:  BTG    xA1.6
....................             RX_Buffer[4]=0x00; 
09B1A:  CLRF   34
....................             RX_Buffer2[4]=0x00; 
09B1C:  CLRF   3F
....................          } 
....................           
....................          if(EstadoAire){ 
09B1E:  BTFSS  xA1.6
09B20:  BRA    9B3A
....................             printf("b4.bco=2016"); 
09B22:  MOVLW  08
09B24:  MOVWF  FF6
09B26:  MOVLW  0D
09B28:  MOVWF  FF7
09B2A:  MOVLW  00
09B2C:  MOVWF  FF8
09B2E:  CALL   3842
....................             SendDataDisplay();  
09B32:  CALL   3874
....................             Aire=ON;    
09B36:  BSF    xA4.0
....................          }else{ 
09B38:  BRA    9B50
....................             printf("b4.bco=63488"); 
09B3A:  MOVLW  14
09B3C:  MOVWF  FF6
09B3E:  MOVLW  0D
09B40:  MOVWF  FF7
09B42:  MOVLW  00
09B44:  MOVWF  FF8
09B46:  CALL   3842
....................             SendDataDisplay();  
09B4A:  CALL   3874
....................             Aire=OFF; 
09B4E:  BCF    xA4.0
....................          } 
....................           
....................           
....................          if(RX_Buffer[4]==0x04)//Oprimio SSR1 
09B50:  MOVF   34,W
09B52:  SUBLW  04
09B54:  BNZ   9B5C
....................          { 
....................             EstadoSSR=!EstadoSSR; 
09B56:  BTG    xA1.1
....................             RX_Buffer[4]=0x00; 
09B58:  CLRF   34
....................             RX_Buffer2[4]=0x00; 
09B5A:  CLRF   3F
....................          } 
....................           
....................          if(EstadoSSR){ 
09B5C:  BTFSS  xA1.1
09B5E:  BRA    9B7A
....................             printf("b3.bco=2016"); 
09B60:  MOVLW  22
09B62:  MOVWF  FF6
09B64:  MOVLW  0D
09B66:  MOVWF  FF7
09B68:  MOVLW  00
09B6A:  MOVWF  FF8
09B6C:  CALL   3842
....................             SendDataDisplay();  
09B70:  CALL   3874
....................             SSR_on; 
09B74:  BCF    F8B.2
09B76:  BCF    F94.2
....................          } 
....................          else{ 
09B78:  BRA    9B92
....................             printf("b3.bco=63488"); 
09B7A:  MOVLW  2E
09B7C:  MOVWF  FF6
09B7E:  MOVLW  0D
09B80:  MOVWF  FF7
09B82:  MOVLW  00
09B84:  MOVWF  FF8
09B86:  CALL   3842
....................             SendDataDisplay();  
09B8A:  CALL   3874
....................             SSR_off; 
09B8E:  BSF    F8B.2
09B90:  BCF    F94.2
....................          } 
....................           
....................          if(DOOR){ 
09B92:  BSF    F93.6
09B94:  BTFSC  F81.6
09B96:  BRA    9BAE
....................             printf("b8.bco=2016"); 
09B98:  MOVLW  3C
09B9A:  MOVWF  FF6
09B9C:  MOVLW  0D
09B9E:  MOVWF  FF7
09BA0:  MOVLW  00
09BA2:  MOVWF  FF8
09BA4:  CALL   3842
....................             SendDataDisplay();  
09BA8:  CALL   3874
....................          }else{ 
09BAC:  BRA    9BC2
....................             printf("b8.bco=63488"); 
09BAE:  MOVLW  48
09BB0:  MOVWF  FF6
09BB2:  MOVLW  0D
09BB4:  MOVWF  FF7
09BB6:  MOVLW  00
09BB8:  MOVWF  FF8
09BBA:  CALL   3842
....................             SendDataDisplay();  
09BBE:  CALL   3874
....................          } 
....................           
....................          if(TERM){ 
09BC2:  BSF    F93.5
09BC4:  BTFSC  F81.5
09BC6:  BRA    9BDE
....................             printf("b9.bco=2016"); 
09BC8:  MOVLW  56
09BCA:  MOVWF  FF6
09BCC:  MOVLW  0D
09BCE:  MOVWF  FF7
09BD0:  MOVLW  00
09BD2:  MOVWF  FF8
09BD4:  CALL   3842
....................             SendDataDisplay();  
09BD8:  CALL   3874
....................          }else{ 
09BDC:  BRA    9BF2
....................             printf("b9.bco=63488"); 
09BDE:  MOVLW  62
09BE0:  MOVWF  FF6
09BE2:  MOVLW  0D
09BE4:  MOVWF  FF7
09BE6:  MOVLW  00
09BE8:  MOVWF  FF8
09BEA:  CALL   3842
....................             SendDataDisplay();  
09BEE:  CALL   3874
....................          } 
....................           
....................          if(STOP){ 
09BF2:  BSF    F93.7
09BF4:  BTFSC  F81.7
09BF6:  BRA    9C0E
....................             printf("b10.bco=2016"); 
09BF8:  MOVLW  70
09BFA:  MOVWF  FF6
09BFC:  MOVLW  0D
09BFE:  MOVWF  FF7
09C00:  MOVLW  00
09C02:  MOVWF  FF8
09C04:  CALL   3842
....................             SendDataDisplay();  
09C08:  CALL   3874
....................          }else{ 
09C0C:  BRA    9C22
....................             printf("b10.bco=63488"); 
09C0E:  MOVLW  7E
09C10:  MOVWF  FF6
09C12:  MOVLW  0D
09C14:  MOVWF  FF7
09C16:  MOVLW  00
09C18:  MOVWF  FF8
09C1A:  CALL   3842
....................             SendDataDisplay();  
09C1E:  CALL   3874
....................          } 
....................           
....................          /*if(PRES){ 
....................             printf("b11.bco=2016"); 
....................             SendDataDisplay();  
....................          }else{ 
....................             printf("b11.bco=63488"); 
....................             SendDataDisplay();  
....................          }*/ 
....................           
....................          if(RX_Buffer[4]==0x13)//Oprimio Buzzer 
09C22:  MOVF   34,W
09C24:  SUBLW  13
09C26:  BNZ   9C2E
....................          { 
....................             EstadoBuzzer=!EstadoBuzzer; 
09C28:  BTG    xA2.6
....................             RX_Buffer[4]=0x00; 
09C2A:  CLRF   34
....................             RX_Buffer2[4]=0x00; 
09C2C:  CLRF   3F
....................          } 
....................           
....................          if(EstadoBuzzer){ 
09C2E:  BTFSS  xA2.6
09C30:  BRA    9C4C
....................             printf("b12.bco=2016"); 
09C32:  MOVLW  8C
09C34:  MOVWF  FF6
09C36:  MOVLW  0D
09C38:  MOVWF  FF7
09C3A:  MOVLW  00
09C3C:  MOVWF  FF8
09C3E:  CALL   3842
....................             SendDataDisplay();  
09C42:  CALL   3874
....................             Buzzer_on; 
09C46:  BSF    F8C.0
09C48:  BCF    F95.0
....................          } 
....................          else{ 
09C4A:  BRA    9C64
....................             printf("b12.bco=63488"); 
09C4C:  MOVLW  9A
09C4E:  MOVWF  FF6
09C50:  MOVLW  0D
09C52:  MOVWF  FF7
09C54:  MOVLW  00
09C56:  MOVWF  FF8
09C58:  CALL   3842
....................             SendDataDisplay();  
09C5C:  CALL   3874
....................             Buzzer_off; 
09C60:  BCF    F8C.0
09C62:  BCF    F95.0
....................          } 
....................           
....................          if(HIG){ 
09C64:  BSF    F94.0
09C66:  BTFSS  F82.0
09C68:  BRA    9C80
....................             printf("b16.bco=2016"); 
09C6A:  MOVLW  A8
09C6C:  MOVWF  FF6
09C6E:  MOVLW  0D
09C70:  MOVWF  FF7
09C72:  MOVLW  00
09C74:  MOVWF  FF8
09C76:  CALL   3842
....................             SendDataDisplay();  
09C7A:  CALL   3874
....................          }else{ 
09C7E:  BRA    9C94
....................             printf("b16.bco=63488"); 
09C80:  MOVLW  B6
09C82:  MOVWF  FF6
09C84:  MOVLW  0D
09C86:  MOVWF  FF7
09C88:  MOVLW  00
09C8A:  MOVWF  FF8
09C8C:  CALL   3842
....................             SendDataDisplay();  
09C90:  CALL   3874
....................          } 
....................           
....................          if(LOW){ 
09C94:  BSF    F94.1
09C96:  BTFSS  F82.1
09C98:  BRA    9CB0
....................             printf("b17.bco=2016"); 
09C9A:  MOVLW  C4
09C9C:  MOVWF  FF6
09C9E:  MOVLW  0D
09CA0:  MOVWF  FF7
09CA2:  MOVLW  00
09CA4:  MOVWF  FF8
09CA6:  CALL   3842
....................             SendDataDisplay();  
09CAA:  CALL   3874
....................          }else{ 
09CAE:  BRA    9CC4
....................             printf("b17.bco=63488"); 
09CB0:  MOVLW  D2
09CB2:  MOVWF  FF6
09CB4:  MOVLW  0D
09CB6:  MOVWF  FF7
09CB8:  MOVLW  00
09CBA:  MOVWF  FF8
09CBC:  CALL   3842
....................             SendDataDisplay();  
09CC0:  CALL   3874
....................          } 
....................           
....................          printf("b13.txt=\"ADC0:%3.0f\"",sensores(0));          
09CC4:  MOVLB  4
09CC6:  CLRF   x48
09CC8:  MOVLB  0
09CCA:  CALL   38C8
09CCE:  MOVFF  00,43F
09CD2:  MOVFF  01,440
09CD6:  MOVFF  02,441
09CDA:  MOVFF  03,442
09CDE:  MOVLW  E0
09CE0:  MOVWF  FF6
09CE2:  MOVLW  0D
09CE4:  MOVWF  FF7
09CE6:  MOVLW  00
09CE8:  MOVWF  FF8
09CEA:  MOVLW  0E
09CEC:  MOVLB  4
09CEE:  MOVWF  x44
09CF0:  MOVLB  0
09CF2:  CALL   47DC
09CF6:  MOVLW  02
09CF8:  MOVWF  FE9
09CFA:  MOVFF  442,447
09CFE:  MOVFF  441,446
09D02:  MOVFF  440,445
09D06:  MOVFF  43F,444
09D0A:  MOVLB  4
09D0C:  CLRF   x48
09D0E:  MOVLB  0
09D10:  CALL   497C
09D14:  MOVLW  22
09D16:  BTFSS  F9E.4
09D18:  BRA    9D16
09D1A:  MOVWF  FAD
....................          SendDataDisplay(); 
09D1C:  CALL   3874
....................          printf("b14.txt=\"ADC1:%3.0f\"",sensores(1));          
09D20:  MOVLW  01
09D22:  MOVLB  4
09D24:  MOVWF  x48
09D26:  MOVLB  0
09D28:  CALL   38C8
09D2C:  MOVFF  00,43F
09D30:  MOVFF  01,440
09D34:  MOVFF  02,441
09D38:  MOVFF  03,442
09D3C:  MOVLW  F6
09D3E:  MOVWF  FF6
09D40:  MOVLW  0D
09D42:  MOVWF  FF7
09D44:  MOVLW  00
09D46:  MOVWF  FF8
09D48:  MOVLW  0E
09D4A:  MOVLB  4
09D4C:  MOVWF  x44
09D4E:  MOVLB  0
09D50:  CALL   47DC
09D54:  MOVLW  02
09D56:  MOVWF  FE9
09D58:  MOVFF  442,447
09D5C:  MOVFF  441,446
09D60:  MOVFF  440,445
09D64:  MOVFF  43F,444
09D68:  MOVLB  4
09D6A:  CLRF   x48
09D6C:  MOVLB  0
09D6E:  CALL   497C
09D72:  MOVLW  22
09D74:  BTFSS  F9E.4
09D76:  BRA    9D74
09D78:  MOVWF  FAD
....................          SendDataDisplay(); 
09D7A:  CALL   3874
....................          printf("b15.txt=\"A2:%3.0f %03Lu\"",sensores(2),PresionCamara); 
09D7E:  MOVLW  02
09D80:  MOVLB  4
09D82:  MOVWF  x48
09D84:  MOVLB  0
09D86:  CALL   38C8
09D8A:  MOVFF  00,43F
09D8E:  MOVFF  01,440
09D92:  MOVFF  02,441
09D96:  MOVFF  03,442
09D9A:  MOVLW  0C
09D9C:  MOVWF  FF6
09D9E:  MOVLW  0E
09DA0:  MOVWF  FF7
09DA2:  MOVLW  00
09DA4:  MOVWF  FF8
09DA6:  MOVLW  0C
09DA8:  MOVLB  4
09DAA:  MOVWF  x44
09DAC:  MOVLB  0
09DAE:  CALL   47DC
09DB2:  MOVLW  02
09DB4:  MOVWF  FE9
09DB6:  MOVFF  442,447
09DBA:  MOVFF  441,446
09DBE:  MOVFF  440,445
09DC2:  MOVFF  43F,444
09DC6:  MOVLB  4
09DC8:  CLRF   x48
09DCA:  MOVLB  0
09DCC:  CALL   497C
09DD0:  MOVLW  20
09DD2:  BTFSS  F9E.4
09DD4:  BRA    9DD2
09DD6:  MOVWF  FAD
09DD8:  MOVLW  0A
09DDA:  MOVWF  FE9
09DDC:  MOVFF  37E,444
09DE0:  MOVFF  37D,443
09DE4:  CALL   4BA2
09DE8:  MOVLW  22
09DEA:  BTFSS  F9E.4
09DEC:  BRA    9DEA
09DEE:  MOVWF  FAD
....................          SendDataDisplay(); 
09DF0:  CALL   3874
....................          printf("b18.txt=\"A3:%3.0f %03Lu\"",sensores(3),PresionPreCamara); 
09DF4:  MOVLW  03
09DF6:  MOVLB  4
09DF8:  MOVWF  x48
09DFA:  MOVLB  0
09DFC:  CALL   38C8
09E00:  MOVFF  00,43F
09E04:  MOVFF  01,440
09E08:  MOVFF  02,441
09E0C:  MOVFF  03,442
09E10:  MOVLW  26
09E12:  MOVWF  FF6
09E14:  MOVLW  0E
09E16:  MOVWF  FF7
09E18:  MOVLW  00
09E1A:  MOVWF  FF8
09E1C:  MOVLW  0C
09E1E:  MOVLB  4
09E20:  MOVWF  x44
09E22:  MOVLB  0
09E24:  CALL   47DC
09E28:  MOVLW  02
09E2A:  MOVWF  FE9
09E2C:  MOVFF  442,447
09E30:  MOVFF  441,446
09E34:  MOVFF  440,445
09E38:  MOVFF  43F,444
09E3C:  MOVLB  4
09E3E:  CLRF   x48
09E40:  MOVLB  0
09E42:  CALL   497C
09E46:  MOVLW  20
09E48:  BTFSS  F9E.4
09E4A:  BRA    9E48
09E4C:  MOVWF  FAD
09E4E:  MOVLW  0A
09E50:  MOVWF  FE9
09E52:  MOVFF  380,444
09E56:  MOVFF  37F,443
09E5A:  CALL   4BA2
09E5E:  MOVLW  22
09E60:  BTFSS  F9E.4
09E62:  BRA    9E60
09E64:  MOVWF  FAD
....................          SendDataDisplay(); 
09E66:  CALL   3874
....................          printf("b20.txt=\"T1:%3.1f\"",Temperatura); 
09E6A:  MOVLW  40
09E6C:  MOVWF  FF6
09E6E:  MOVLW  0E
09E70:  MOVWF  FF7
09E72:  MOVLW  00
09E74:  MOVWF  FF8
09E76:  MOVLW  0C
09E78:  MOVLB  4
09E7A:  MOVWF  x44
09E7C:  MOVLB  0
09E7E:  CALL   47DC
09E82:  MOVLW  02
09E84:  MOVWF  FE9
09E86:  MOVFF  32B,447
09E8A:  MOVFF  32A,446
09E8E:  MOVFF  329,445
09E92:  MOVFF  328,444
09E96:  MOVLW  01
09E98:  MOVLB  4
09E9A:  MOVWF  x48
09E9C:  MOVLB  0
09E9E:  CALL   497C
09EA2:  MOVLW  22
09EA4:  BTFSS  F9E.4
09EA6:  BRA    9EA4
09EA8:  MOVWF  FAD
....................          SendDataDisplay(); 
09EAA:  CALL   3874
....................           
....................          if(RX_Buffer[4]==0x21 || LEFT){//Oprimio salir 
09EAE:  MOVF   34,W
09EB0:  SUBLW  21
09EB2:  BZ    9EBA
09EB4:  BSF    F93.3
09EB6:  BTFSC  F81.3
09EB8:  BRA    9F02
....................             delay_ms(100); 
09EBA:  MOVLW  64
09EBC:  MOVLB  4
09EBE:  MOVWF  x54
09EC0:  MOVLB  0
09EC2:  CALL   19B0
....................             if(RX_Buffer[4]==0x21 || LEFT){ 
09EC6:  MOVF   34,W
09EC8:  SUBLW  21
09ECA:  BZ    9ED2
09ECC:  BSF    F93.3
09ECE:  BTFSC  F81.3
09ED0:  BRA    9F02
....................                printf("page MenuPrincipal"); 
09ED2:  MOVLW  54
09ED4:  MOVWF  FF6
09ED6:  MOVLW  0E
09ED8:  MOVWF  FF7
09EDA:  MOVLW  00
09EDC:  MOVWF  FF8
09EDE:  CALL   3842
....................                SendDataDisplay(); 
09EE2:  CALL   3874
....................                PantallaPrincipal=0; 
09EE6:  MOVLB  2
09EE8:  CLRF   xDD
....................                PruebaEstados=OFF;Desfogue_off;Paso_off;Suministro_off;SSR_off; 
09EEA:  MOVLB  0
09EEC:  BCF    xA1.2
09EEE:  BCF    F8C.4
09EF0:  BCF    F95.4
09EF2:  BCF    F8C.6
09EF4:  BCF    F95.6
09EF6:  BCF    F8C.5
09EF8:  BCF    F95.5
09EFA:  BSF    F8B.2
09EFC:  BCF    F94.2
....................                ApagaSalidas(); 
09EFE:  CALL   38AA
....................                // Falta apagar Todo 
....................             } 
....................          } 
....................           
....................          if(UP){ 
09F02:  BSF    F93.0
09F04:  BTFSC  F81.0
09F06:  BRA    A04A
....................             delay_ms(100); 
09F08:  MOVLW  64
09F0A:  MOVLB  4
09F0C:  MOVWF  x54
09F0E:  MOVLB  0
09F10:  CALL   19B0
....................             if(UP){ 
09F14:  BSF    F93.0
09F16:  BTFSC  F81.0
09F18:  BRA    A04A
....................                G1=41-sensores(2); 
09F1A:  MOVLW  02
09F1C:  MOVLB  4
09F1E:  MOVWF  x48
09F20:  MOVLB  0
09F22:  CALL   38C8
09F26:  MOVFF  FEA,440
09F2A:  MOVFF  FE9,43F
09F2E:  BSF    FD8.1
09F30:  MOVLB  4
09F32:  CLRF   x57
09F34:  CLRF   x56
09F36:  MOVLW  24
09F38:  MOVWF  x55
09F3A:  MOVLW  84
09F3C:  MOVWF  x54
09F3E:  MOVFF  03,45B
09F42:  MOVFF  02,45A
09F46:  MOVFF  01,459
09F4A:  MOVFF  00,458
09F4E:  MOVLB  0
09F50:  CALL   1B6C
09F54:  MOVFF  440,FEA
09F58:  MOVFF  43F,FE9
09F5C:  MOVFF  03,457
09F60:  MOVFF  02,456
09F64:  MOVFF  01,455
09F68:  MOVFF  00,454
09F6C:  CALL   400E
09F70:  MOVFF  01,3AF
....................                if(G1<0) 
09F74:  MOVLB  3
09F76:  BTFSC  xAF.7
09F78:  BRA    9F7C
09F7A:  BRA    9F82
....................                   sg1=10; 
09F7C:  MOVLW  0A
09F7E:  MOVWF  xB1
....................                else 
09F80:  BRA    9F86
....................                   sg1=5; 
09F82:  MOVLW  05
09F84:  MOVWF  xB1
....................                    
....................                write_eeprom(42,(int8)G1); 
09F86:  CLRF   FAA
09F88:  MOVLW  2A
09F8A:  MOVWF  FA9
09F8C:  MOVFF  3AF,FA8
09F90:  BCF    FA6.6
09F92:  BCF    FA6.7
09F94:  BSF    FA6.2
09F96:  MOVF   FF2,W
09F98:  MOVWF  00
09F9A:  BCF    FF2.6
09F9C:  BCF    FF2.7
09F9E:  MOVLB  F
09FA0:  MOVLW  55
09FA2:  MOVWF  FA7
09FA4:  MOVLW  AA
09FA6:  MOVWF  FA7
09FA8:  BSF    FA6.1
09FAA:  BTFSC  FA6.1
09FAC:  BRA    9FAA
09FAE:  BCF    FA6.2
09FB0:  MOVF   00,W
09FB2:  IORWF  FF2,F
....................                delay_ms(10); 
09FB4:  MOVLW  0A
09FB6:  MOVLB  4
09FB8:  MOVWF  x54
09FBA:  MOVLB  0
09FBC:  CALL   19B0
....................                write_eeprom(44,(int8)sg1); 
09FC0:  CLRF   FAA
09FC2:  MOVLW  2C
09FC4:  MOVWF  FA9
09FC6:  MOVFF  3B1,FA8
09FCA:  BCF    FA6.6
09FCC:  BCF    FA6.7
09FCE:  BSF    FA6.2
09FD0:  MOVF   FF2,W
09FD2:  MOVWF  00
09FD4:  BCF    FF2.6
09FD6:  BCF    FF2.7
09FD8:  MOVLB  F
09FDA:  MOVLW  55
09FDC:  MOVWF  FA7
09FDE:  MOVLW  AA
09FE0:  MOVWF  FA7
09FE2:  BSF    FA6.1
09FE4:  BTFSC  FA6.1
09FE6:  BRA    9FE4
09FE8:  BCF    FA6.2
09FEA:  MOVF   00,W
09FEC:  IORWF  FF2,F
....................                delay_ms(10); 
09FEE:  MOVLW  0A
09FF0:  MOVLB  4
09FF2:  MOVWF  x54
09FF4:  MOVLB  0
09FF6:  CALL   19B0
....................                Buzzer_on; 
09FFA:  BSF    F8C.0
09FFC:  BCF    F95.0
....................                delay_ms(1000); 
09FFE:  MOVLW  04
0A000:  MOVLB  4
0A002:  MOVWF  x3F
0A004:  MOVLW  FA
0A006:  MOVWF  x54
0A008:  MOVLB  0
0A00A:  CALL   19B0
0A00E:  MOVLB  4
0A010:  DECFSZ x3F,F
0A012:  BRA    A004
....................                Buzzer_off; 
0A014:  BCF    F8C.0
0A016:  BCF    F95.0
....................                delay_ms(1000); 
0A018:  MOVLW  04
0A01A:  MOVWF  x3F
0A01C:  MOVLW  FA
0A01E:  MOVWF  x54
0A020:  MOVLB  0
0A022:  CALL   19B0
0A026:  MOVLB  4
0A028:  DECFSZ x3F,F
0A02A:  BRA    A01C
....................                Buzzer_on; 
0A02C:  BSF    F8C.0
0A02E:  BCF    F95.0
....................                delay_ms(1000); 
0A030:  MOVLW  04
0A032:  MOVWF  x3F
0A034:  MOVLW  FA
0A036:  MOVWF  x54
0A038:  MOVLB  0
0A03A:  CALL   19B0
0A03E:  MOVLB  4
0A040:  DECFSZ x3F,F
0A042:  BRA    A034
....................                Buzzer_off; 
0A044:  BCF    F8C.0
0A046:  BCF    F95.0
0A048:  MOVLB  0
....................             } 
....................          } 
....................           
....................          if(DOWN){ 
0A04A:  BSF    F93.1
0A04C:  BTFSC  F81.1
0A04E:  BRA    A192
....................             delay_ms(100); 
0A050:  MOVLW  64
0A052:  MOVLB  4
0A054:  MOVWF  x54
0A056:  MOVLB  0
0A058:  CALL   19B0
....................             if(DOWN){ 
0A05C:  BSF    F93.1
0A05E:  BTFSC  F81.1
0A060:  BRA    A192
....................                G2=41-sensores(3); 
0A062:  MOVLW  03
0A064:  MOVLB  4
0A066:  MOVWF  x48
0A068:  MOVLB  0
0A06A:  CALL   38C8
0A06E:  MOVFF  FEA,440
0A072:  MOVFF  FE9,43F
0A076:  BSF    FD8.1
0A078:  MOVLB  4
0A07A:  CLRF   x57
0A07C:  CLRF   x56
0A07E:  MOVLW  24
0A080:  MOVWF  x55
0A082:  MOVLW  84
0A084:  MOVWF  x54
0A086:  MOVFF  03,45B
0A08A:  MOVFF  02,45A
0A08E:  MOVFF  01,459
0A092:  MOVFF  00,458
0A096:  MOVLB  0
0A098:  CALL   1B6C
0A09C:  MOVFF  440,FEA
0A0A0:  MOVFF  43F,FE9
0A0A4:  MOVFF  03,457
0A0A8:  MOVFF  02,456
0A0AC:  MOVFF  01,455
0A0B0:  MOVFF  00,454
0A0B4:  CALL   400E
0A0B8:  MOVFF  01,3B0
....................                if(G2<0) 
0A0BC:  MOVLB  3
0A0BE:  BTFSC  xB0.7
0A0C0:  BRA    A0C4
0A0C2:  BRA    A0CA
....................                   sg2=10; 
0A0C4:  MOVLW  0A
0A0C6:  MOVWF  xB2
....................                else 
0A0C8:  BRA    A0CE
....................                   sg2=5; 
0A0CA:  MOVLW  05
0A0CC:  MOVWF  xB2
....................                    
....................                write_eeprom(43,(int8)G2); 
0A0CE:  CLRF   FAA
0A0D0:  MOVLW  2B
0A0D2:  MOVWF  FA9
0A0D4:  MOVFF  3B0,FA8
0A0D8:  BCF    FA6.6
0A0DA:  BCF    FA6.7
0A0DC:  BSF    FA6.2
0A0DE:  MOVF   FF2,W
0A0E0:  MOVWF  00
0A0E2:  BCF    FF2.6
0A0E4:  BCF    FF2.7
0A0E6:  MOVLB  F
0A0E8:  MOVLW  55
0A0EA:  MOVWF  FA7
0A0EC:  MOVLW  AA
0A0EE:  MOVWF  FA7
0A0F0:  BSF    FA6.1
0A0F2:  BTFSC  FA6.1
0A0F4:  BRA    A0F2
0A0F6:  BCF    FA6.2
0A0F8:  MOVF   00,W
0A0FA:  IORWF  FF2,F
....................                delay_ms(10); 
0A0FC:  MOVLW  0A
0A0FE:  MOVLB  4
0A100:  MOVWF  x54
0A102:  MOVLB  0
0A104:  CALL   19B0
....................                write_eeprom(45,(int8)sg2); 
0A108:  CLRF   FAA
0A10A:  MOVLW  2D
0A10C:  MOVWF  FA9
0A10E:  MOVFF  3B2,FA8
0A112:  BCF    FA6.6
0A114:  BCF    FA6.7
0A116:  BSF    FA6.2
0A118:  MOVF   FF2,W
0A11A:  MOVWF  00
0A11C:  BCF    FF2.6
0A11E:  BCF    FF2.7
0A120:  MOVLB  F
0A122:  MOVLW  55
0A124:  MOVWF  FA7
0A126:  MOVLW  AA
0A128:  MOVWF  FA7
0A12A:  BSF    FA6.1
0A12C:  BTFSC  FA6.1
0A12E:  BRA    A12C
0A130:  BCF    FA6.2
0A132:  MOVF   00,W
0A134:  IORWF  FF2,F
....................                delay_ms(10); 
0A136:  MOVLW  0A
0A138:  MOVLB  4
0A13A:  MOVWF  x54
0A13C:  MOVLB  0
0A13E:  CALL   19B0
....................                Buzzer_on; 
0A142:  BSF    F8C.0
0A144:  BCF    F95.0
....................                delay_ms(1000); 
0A146:  MOVLW  04
0A148:  MOVLB  4
0A14A:  MOVWF  x3F
0A14C:  MOVLW  FA
0A14E:  MOVWF  x54
0A150:  MOVLB  0
0A152:  CALL   19B0
0A156:  MOVLB  4
0A158:  DECFSZ x3F,F
0A15A:  BRA    A14C
....................                Buzzer_off; 
0A15C:  BCF    F8C.0
0A15E:  BCF    F95.0
....................                delay_ms(1000); 
0A160:  MOVLW  04
0A162:  MOVWF  x3F
0A164:  MOVLW  FA
0A166:  MOVWF  x54
0A168:  MOVLB  0
0A16A:  CALL   19B0
0A16E:  MOVLB  4
0A170:  DECFSZ x3F,F
0A172:  BRA    A164
....................                Buzzer_on; 
0A174:  BSF    F8C.0
0A176:  BCF    F95.0
....................                delay_ms(1000); 
0A178:  MOVLW  04
0A17A:  MOVWF  x3F
0A17C:  MOVLW  FA
0A17E:  MOVWF  x54
0A180:  MOVLB  0
0A182:  CALL   19B0
0A186:  MOVLB  4
0A188:  DECFSZ x3F,F
0A18A:  BRA    A17C
....................                Buzzer_off; 
0A18C:  BCF    F8C.0
0A18E:  BCF    F95.0
0A190:  MOVLB  0
0A192:  MOVLB  3
....................             } 
....................          } 
....................      } 
.................... //_--------------------------------------------------------------------------------------------------------------------------------------------------------     
....................  
.................... //_--------------------------------------------------------------------------------------------------------------------------------------------------------       
....................       if(Menu==7){ //Menu de Configuracin de Fecha y Hora 
0A194:  MOVF   x62,W
0A196:  SUBLW  07
0A198:  BTFSS  FD8.2
0A19A:  BRA    A5C2
....................        
....................          if(RX_Buffer[4]==0x0a){//Selecciono Hora 
0A19C:  MOVF   34,W
0A19E:  SUBLW  0A
0A1A0:  BNZ   A1A6
....................             Opcion=4; 
0A1A2:  MOVLW  04
0A1A4:  MOVWF  x6C
....................          } 
....................           
....................          if(RX_Buffer[4]==0x0b){//Selecciono Minuto 
0A1A6:  MOVF   34,W
0A1A8:  SUBLW  0B
0A1AA:  BNZ   A1B0
....................             Opcion=5; 
0A1AC:  MOVLW  05
0A1AE:  MOVWF  x6C
....................          } 
....................           
....................          if(RX_Buffer[4]==0x0c){//Selecciono Dia 
0A1B0:  MOVF   34,W
0A1B2:  SUBLW  0C
0A1B4:  BNZ   A1BA
....................             Opcion=1; 
0A1B6:  MOVLW  01
0A1B8:  MOVWF  x6C
....................          } 
....................           
....................          if(RX_Buffer[4]==0x0d){//Selecciono Hora 
0A1BA:  MOVF   34,W
0A1BC:  SUBLW  0D
0A1BE:  BNZ   A1C4
....................             Opcion=2; 
0A1C0:  MOVLW  02
0A1C2:  MOVWF  x6C
....................          } 
....................           
....................          if(RX_Buffer[4]==0x0e){//Selecciono Year 
0A1C4:  MOVF   34,W
0A1C6:  SUBLW  0E
0A1C8:  BNZ   A1CE
....................             Opcion=3; 
0A1CA:  MOVLW  03
0A1CC:  MOVWF  x6C
....................          } 
....................           
....................          if(RIGHT){ 
0A1CE:  BSF    F93.2
0A1D0:  BTFSC  F81.2
0A1D2:  BRA    A1EA
....................             delay_ms(200); 
0A1D4:  MOVLW  C8
0A1D6:  MOVLB  4
0A1D8:  MOVWF  x54
0A1DA:  MOVLB  0
0A1DC:  CALL   19B0
....................             if(RIGHT){ 
0A1E0:  BSF    F93.2
0A1E2:  BTFSC  F81.2
0A1E4:  BRA    A1EC
....................                Opcion++; 
0A1E6:  MOVLB  3
0A1E8:  INCF   x6C,F
0A1EA:  MOVLB  0
....................             } 
....................          } 
....................          if(Opcion>5) 
0A1EC:  MOVLB  3
0A1EE:  MOVF   x6C,W
0A1F0:  SUBLW  05
0A1F2:  BC    A1F8
....................             Opcion=1; 
0A1F4:  MOVLW  01
0A1F6:  MOVWF  x6C
....................          if(Opcion<1) 
0A1F8:  MOVF   x6C,F
0A1FA:  BNZ   A200
....................             Opcion=5; 
0A1FC:  MOVLW  05
0A1FE:  MOVWF  x6C
....................              
....................          if(RX_Buffer[4]==0x11 || LEFT){//Selecciono Regresar 
0A200:  MOVF   34,W
0A202:  SUBLW  11
0A204:  BZ    A20C
0A206:  BSF    F93.3
0A208:  BTFSC  F81.3
0A20A:  BRA    A324
....................             printf("page MenuPrincipal"); 
0A20C:  MOVLW  68
0A20E:  MOVWF  FF6
0A210:  MOVLW  0E
0A212:  MOVWF  FF7
0A214:  MOVLW  00
0A216:  MOVWF  FF8
0A218:  MOVLB  0
0A21A:  CALL   3842
....................             SendDataDisplay();   
0A21E:  CALL   3874
....................             PantallaPrincipal=0; 
0A222:  MOVLB  2
0A224:  CLRF   xDD
....................             Op=OFF; 
0A226:  MOVLB  0
0A228:  BCF    xA2.0
....................             Op2=OFF; 
0A22A:  BCF    xA2.1
....................              
....................             if(esBisiesto(YearTx)) 
0A22C:  MOVFF  3A5,43F
0A230:  CALL   4C92
0A234:  MOVF   01,F
0A236:  BZ    A252
....................                Modulo=Bisiesto[MesTx]; 
0A238:  CLRF   03
0A23A:  MOVLB  3
0A23C:  MOVF   xA6,W
0A23E:  ADDLW  93
0A240:  MOVWF  FE9
0A242:  MOVLW  00
0A244:  ADDWFC 03,W
0A246:  MOVWF  FEA
0A248:  MOVFF  FEF,2DF
0A24C:  MOVLB  2
....................             else 
0A24E:  BRA    A268
0A250:  MOVLB  0
....................                Modulo=Regular[MesTx]; 
0A252:  CLRF   03
0A254:  MOVLB  3
0A256:  MOVF   xA6,W
0A258:  ADDLW  87
0A25A:  MOVWF  FE9
0A25C:  MOVLW  00
0A25E:  ADDWFC 03,W
0A260:  MOVWF  FEA
0A262:  MOVFF  FEF,2DF
0A266:  MOVLB  2
....................           
....................             dowTx=((YearTx-1)%7+((YearTx-1)/4-3*((YearTx-1)/100+1)/4)%7+Modulo+DiaTx%7)%7; 
0A268:  MOVLW  01
0A26A:  MOVLB  3
0A26C:  SUBWF  xA5,W
0A26E:  MOVLB  4
0A270:  MOVWF  x40
0A272:  MOVWF  x49
0A274:  MOVLW  07
0A276:  MOVWF  x4A
0A278:  MOVLB  0
0A27A:  CALL   480E
0A27E:  MOVFF  00,43F
0A282:  MOVLW  01
0A284:  MOVLB  3
0A286:  SUBWF  xA5,W
0A288:  MOVWF  00
0A28A:  RRCF   00,W
0A28C:  MOVLB  4
0A28E:  MOVWF  x40
0A290:  RRCF   x40,F
0A292:  MOVLW  3F
0A294:  ANDWF  x40,F
0A296:  MOVLW  01
0A298:  MOVLB  3
0A29A:  SUBWF  xA5,W
0A29C:  MOVLB  4
0A29E:  MOVWF  x42
0A2A0:  MOVWF  x49
0A2A2:  MOVLW  64
0A2A4:  MOVWF  x4A
0A2A6:  MOVLB  0
0A2A8:  CALL   480E
0A2AC:  MOVLW  01
0A2AE:  ADDWF  01,W
0A2B0:  MULLW  03
0A2B2:  MOVFF  FF3,00
0A2B6:  RRCF   00,F
0A2B8:  RRCF   00,F
0A2BA:  MOVLW  3F
0A2BC:  ANDWF  00,F
0A2BE:  MOVF   00,W
0A2C0:  MOVLB  4
0A2C2:  SUBWF  x40,W
0A2C4:  MOVWF  x41
0A2C6:  MOVWF  x49
0A2C8:  MOVLW  07
0A2CA:  MOVWF  x4A
0A2CC:  MOVLB  0
0A2CE:  CALL   480E
0A2D2:  MOVF   00,W
0A2D4:  MOVLB  4
0A2D6:  ADDWF  x3F,W
0A2D8:  MOVLB  2
0A2DA:  ADDWF  xDF,W
0A2DC:  MOVLB  4
0A2DE:  MOVWF  x3F
0A2E0:  MOVFF  3A7,449
0A2E4:  MOVLW  07
0A2E6:  MOVWF  x4A
0A2E8:  MOVLB  0
0A2EA:  CALL   480E
0A2EE:  MOVF   00,W
0A2F0:  MOVLB  4
0A2F2:  ADDWF  x3F,W
0A2F4:  MOVWF  x40
0A2F6:  MOVWF  x49
0A2F8:  MOVLW  07
0A2FA:  MOVWF  x4A
0A2FC:  MOVLB  0
0A2FE:  CALL   480E
0A302:  MOVFF  00,3AB
....................             rtc_set_datetime(DiaTx,MesTx,YearTx,dowTx,HoraTx,MinutoTx); 
0A306:  MOVFF  3A7,43F
0A30A:  MOVFF  3A6,440
0A30E:  MOVFF  3A5,441
0A312:  MOVFF  3AB,442
0A316:  MOVFF  3A8,443
0A31A:  MOVFF  3A9,444
0A31E:  GOTO   4D14
0A322:  MOVLB  3
....................          } 
....................           
....................          if((RX_Buffer[4]==0x2a)|| UP){//Tecla Arriba Oprimida 
0A324:  MOVF   34,W
0A326:  SUBLW  2A
0A328:  BZ    A330
0A32A:  BSF    F93.0
0A32C:  BTFSC  F81.0
0A32E:  BRA    A42E
....................             delay_ms(200); 
0A330:  MOVLW  C8
0A332:  MOVLB  4
0A334:  MOVWF  x54
0A336:  MOVLB  0
0A338:  CALL   19B0
....................             if((RX_Buffer[4]==0x2a)|| UP){    
0A33C:  MOVF   34,W
0A33E:  SUBLW  2A
0A340:  BZ    A348
0A342:  BSF    F93.0
0A344:  BTFSC  F81.0
0A346:  BRA    A430
....................                if(Opcion==1){ 
0A348:  MOVLB  3
0A34A:  DECFSZ x6C,W
0A34C:  BRA    A3DA
....................                   if(MesTx==2){ 
0A34E:  MOVF   xA6,W
0A350:  SUBLW  02
0A352:  BNZ   A388
....................                      if(esBisiesto(YearTx)){ 
0A354:  MOVFF  3A5,43F
0A358:  MOVLB  0
0A35A:  CALL   4C92
0A35E:  MOVF   01,F
0A360:  BZ    A376
....................                         if(DiaTx<29) 
0A362:  MOVLB  3
0A364:  MOVF   xA7,W
0A366:  SUBLW  1C
0A368:  BNC   A36E
....................                            DiaTx++; 
0A36A:  INCF   xA7,F
....................                         else 
0A36C:  BRA    A372
....................                            DiaTx=1;    
0A36E:  MOVLW  01
0A370:  MOVWF  xA7
....................                      }else{ 
0A372:  BRA    A386
0A374:  MOVLB  0
....................                         if(DiaTx<28) 
0A376:  MOVLB  3
0A378:  MOVF   xA7,W
0A37A:  SUBLW  1B
0A37C:  BNC   A382
....................                            DiaTx++; 
0A37E:  INCF   xA7,F
....................                         else 
0A380:  BRA    A386
....................                            DiaTx=1;    
0A382:  MOVLW  01
0A384:  MOVWF  xA7
....................                      } 
....................                   }else{ 
0A386:  BRA    A3D8
....................                      if(MesTx<=7){ 
0A388:  MOVF   xA6,W
0A38A:  SUBLW  07
0A38C:  BNC   A3B4
....................                         if(MesTx % 2 ==0){ 
0A38E:  MOVF   xA6,W
0A390:  ANDLW  01
0A392:  BNZ   A3A4
....................                            if(DiaTx<30) 
0A394:  MOVF   xA7,W
0A396:  SUBLW  1D
0A398:  BNC   A39E
....................                               DiaTx++;     
0A39A:  INCF   xA7,F
....................                            else 
0A39C:  BRA    A3A2
....................                               DiaTx=1;    
0A39E:  MOVLW  01
0A3A0:  MOVWF  xA7
....................                         }else{ 
0A3A2:  BRA    A3B2
....................                            if(DiaTx<31) 
0A3A4:  MOVF   xA7,W
0A3A6:  SUBLW  1E
0A3A8:  BNC   A3AE
....................                               DiaTx++;     
0A3AA:  INCF   xA7,F
....................                            else 
0A3AC:  BRA    A3B2
....................                               DiaTx=1;    
0A3AE:  MOVLW  01
0A3B0:  MOVWF  xA7
....................                         }     
....................                      }else{ 
0A3B2:  BRA    A3D8
....................                         if(MesTx % 2 ==0){ 
0A3B4:  MOVF   xA6,W
0A3B6:  ANDLW  01
0A3B8:  BNZ   A3CA
....................                            if(DiaTx<31) 
0A3BA:  MOVF   xA7,W
0A3BC:  SUBLW  1E
0A3BE:  BNC   A3C4
....................                               DiaTx++;   
0A3C0:  INCF   xA7,F
....................                            else 
0A3C2:  BRA    A3C8
....................                               DiaTx=1; 
0A3C4:  MOVLW  01
0A3C6:  MOVWF  xA7
....................                         }else{ 
0A3C8:  BRA    A3D8
....................                            if(DiaTx<30) 
0A3CA:  MOVF   xA7,W
0A3CC:  SUBLW  1D
0A3CE:  BNC   A3D4
....................                               DiaTx++;     
0A3D0:  INCF   xA7,F
....................                            else 
0A3D2:  BRA    A3D8
....................                               DiaTx=1; 
0A3D4:  MOVLW  01
0A3D6:  MOVWF  xA7
....................                         }     
....................                      } 
....................                   } 
....................                }else if(Opcion==2){ 
0A3D8:  BRA    A42A
0A3DA:  MOVF   x6C,W
0A3DC:  SUBLW  02
0A3DE:  BNZ   A3F0
....................                   if(MesTx<12) 
0A3E0:  MOVF   xA6,W
0A3E2:  SUBLW  0B
0A3E4:  BNC   A3EA
....................                      MesTx++; 
0A3E6:  INCF   xA6,F
....................                   else 
0A3E8:  BRA    A3EE
....................                      MesTx=1; 
0A3EA:  MOVLW  01
0A3EC:  MOVWF  xA6
....................                }else if(Opcion==3){ 
0A3EE:  BRA    A42A
0A3F0:  MOVF   x6C,W
0A3F2:  SUBLW  03
0A3F4:  BNZ   A404
....................                   if(YearTx<99) 
0A3F6:  MOVF   xA5,W
0A3F8:  SUBLW  62
0A3FA:  BNC   A400
....................                      YearTx++; 
0A3FC:  INCF   xA5,F
....................                   else  
0A3FE:  BRA    A402
....................                      YearTx=0; 
0A400:  CLRF   xA5
....................                }else if(Opcion==4){ 
0A402:  BRA    A42A
0A404:  MOVF   x6C,W
0A406:  SUBLW  04
0A408:  BNZ   A418
....................                   if(HoraTx<24) 
0A40A:  MOVF   xA8,W
0A40C:  SUBLW  17
0A40E:  BNC   A414
....................                      HoraTx++; 
0A410:  INCF   xA8,F
....................                   else 
0A412:  BRA    A416
....................                      HoraTx=0; 
0A414:  CLRF   xA8
....................                }else if(Opcion==5){ 
0A416:  BRA    A42A
0A418:  MOVF   x6C,W
0A41A:  SUBLW  05
0A41C:  BNZ   A42A
....................                   if(MinutoTx<59) 
0A41E:  MOVF   xA9,W
0A420:  SUBLW  3A
0A422:  BNC   A428
....................                      MinutoTx++; 
0A424:  INCF   xA9,F
....................                   else 
0A426:  BRA    A42A
....................                      MinutoTx=0; 
0A428:  CLRF   xA9
....................                } 
....................                RX_Buffer[4]=0x00; 
0A42A:  CLRF   34
....................                RX_Buffer2[4]=0x00; 
0A42C:  CLRF   3F
0A42E:  MOVLB  0
....................             } 
....................          } 
....................           
....................          if(RX_Buffer[4]==0x2b || DOWN){//Tecla Abajo Oprimida 
0A430:  MOVF   34,W
0A432:  SUBLW  2B
0A434:  BZ    A43C
0A436:  BSF    F93.1
0A438:  BTFSC  F81.1
0A43A:  BRA    A4B8
....................             delay_ms(200); 
0A43C:  MOVLW  C8
0A43E:  MOVLB  4
0A440:  MOVWF  x54
0A442:  MOVLB  0
0A444:  CALL   19B0
....................             if(RX_Buffer[4]==0x2b || DOWN){    
0A448:  MOVF   34,W
0A44A:  SUBLW  2B
0A44C:  BZ    A454
0A44E:  BSF    F93.1
0A450:  BTFSC  F81.1
0A452:  BRA    A4B8
....................                if(Opcion==1){ 
0A454:  MOVLB  3
0A456:  DECFSZ x6C,W
0A458:  BRA    A462
....................                   if(DiaTx>0) 
0A45A:  MOVF   xA7,F
0A45C:  BZ    A460
....................                      DiaTx--; 
0A45E:  DECF   xA7,F
....................                }else if(Opcion==2){ 
0A460:  BRA    A4B2
0A462:  MOVF   x6C,W
0A464:  SUBLW  02
0A466:  BNZ   A478
....................                   if(MesTx>1) 
0A468:  MOVF   xA6,W
0A46A:  SUBLW  01
0A46C:  BC    A472
....................                      MesTx--; 
0A46E:  DECF   xA6,F
....................                   else 
0A470:  BRA    A476
....................                      MesTx=12; 
0A472:  MOVLW  0C
0A474:  MOVWF  xA6
....................                }else if(Opcion==3){ 
0A476:  BRA    A4B2
0A478:  MOVF   x6C,W
0A47A:  SUBLW  03
0A47C:  BNZ   A48C
....................                   if(YearTx>0) 
0A47E:  MOVF   xA5,F
0A480:  BZ    A486
....................                      YearTx--; 
0A482:  DECF   xA5,F
....................                   else 
0A484:  BRA    A48A
....................                      YearTx=99; 
0A486:  MOVLW  63
0A488:  MOVWF  xA5
....................                }else if(Opcion==4){ 
0A48A:  BRA    A4B2
0A48C:  MOVF   x6C,W
0A48E:  SUBLW  04
0A490:  BNZ   A4A0
....................                   if(HoraTx>0) 
0A492:  MOVF   xA8,F
0A494:  BZ    A49A
....................                      HoraTx--; 
0A496:  DECF   xA8,F
....................                   else 
0A498:  BRA    A49E
....................                      HoraTx=23; 
0A49A:  MOVLW  17
0A49C:  MOVWF  xA8
....................                }else if(Opcion==5){ 
0A49E:  BRA    A4B2
0A4A0:  MOVF   x6C,W
0A4A2:  SUBLW  05
0A4A4:  BNZ   A4B2
....................                   if(MinutoTx>0) 
0A4A6:  MOVF   xA9,F
0A4A8:  BZ    A4AE
....................                      MinutoTx--; 
0A4AA:  DECF   xA9,F
....................                   else 
0A4AC:  BRA    A4B2
....................                      MinutoTx=59; 
0A4AE:  MOVLW  3B
0A4B0:  MOVWF  xA9
....................                } 
....................                RX_Buffer[4]=0x00; 
0A4B2:  CLRF   34
....................                RX_Buffer2[4]=0x00; 
0A4B4:  CLRF   3F
0A4B6:  MOVLB  0
....................             } 
....................          } 
....................        
....................       printf("thora.txt=\"%02u\"",HoraTx); 
0A4B8:  MOVLW  7C
0A4BA:  MOVWF  FF6
0A4BC:  MOVLW  0E
0A4BE:  MOVWF  FF7
0A4C0:  MOVLW  00
0A4C2:  MOVWF  FF8
0A4C4:  MOVLW  0B
0A4C6:  MOVLB  4
0A4C8:  MOVWF  x44
0A4CA:  MOVLB  0
0A4CC:  CALL   47DC
0A4D0:  MOVFF  3A8,444
0A4D4:  MOVLW  01
0A4D6:  MOVLB  4
0A4D8:  MOVWF  x45
0A4DA:  MOVLB  0
0A4DC:  CALL   483A
0A4E0:  MOVLW  22
0A4E2:  BTFSS  F9E.4
0A4E4:  BRA    A4E2
0A4E6:  MOVWF  FAD
....................       SendDataDisplay(); 
0A4E8:  CALL   3874
....................       printf("tminutos.txt=\"%02u\"",MinutoTx); 
0A4EC:  MOVLW  8E
0A4EE:  MOVWF  FF6
0A4F0:  MOVLW  0E
0A4F2:  MOVWF  FF7
0A4F4:  MOVLW  00
0A4F6:  MOVWF  FF8
0A4F8:  MOVLW  0E
0A4FA:  MOVLB  4
0A4FC:  MOVWF  x44
0A4FE:  MOVLB  0
0A500:  CALL   47DC
0A504:  MOVFF  3A9,444
0A508:  MOVLW  01
0A50A:  MOVLB  4
0A50C:  MOVWF  x45
0A50E:  MOVLB  0
0A510:  CALL   483A
0A514:  MOVLW  22
0A516:  BTFSS  F9E.4
0A518:  BRA    A516
0A51A:  MOVWF  FAD
....................       SendDataDisplay(); 
0A51C:  CALL   3874
....................       printf("tdia.txt=\"%02u\"",DiaTx); 
0A520:  MOVLW  A2
0A522:  MOVWF  FF6
0A524:  MOVLW  0E
0A526:  MOVWF  FF7
0A528:  MOVLW  00
0A52A:  MOVWF  FF8
0A52C:  MOVLW  0A
0A52E:  MOVLB  4
0A530:  MOVWF  x44
0A532:  MOVLB  0
0A534:  CALL   47DC
0A538:  MOVFF  3A7,444
0A53C:  MOVLW  01
0A53E:  MOVLB  4
0A540:  MOVWF  x45
0A542:  MOVLB  0
0A544:  CALL   483A
0A548:  MOVLW  22
0A54A:  BTFSS  F9E.4
0A54C:  BRA    A54A
0A54E:  MOVWF  FAD
....................       SendDataDisplay(); 
0A550:  CALL   3874
....................       printf("tmes.txt=\"%02u\"",MesTx); 
0A554:  MOVLW  B2
0A556:  MOVWF  FF6
0A558:  MOVLW  0E
0A55A:  MOVWF  FF7
0A55C:  MOVLW  00
0A55E:  MOVWF  FF8
0A560:  MOVLW  0A
0A562:  MOVLB  4
0A564:  MOVWF  x44
0A566:  MOVLB  0
0A568:  CALL   47DC
0A56C:  MOVFF  3A6,444
0A570:  MOVLW  01
0A572:  MOVLB  4
0A574:  MOVWF  x45
0A576:  MOVLB  0
0A578:  CALL   483A
0A57C:  MOVLW  22
0A57E:  BTFSS  F9E.4
0A580:  BRA    A57E
0A582:  MOVWF  FAD
....................       SendDataDisplay(); 
0A584:  CALL   3874
....................       printf("tyear.txt=\"%02u\"",YearTx); 
0A588:  MOVLW  C2
0A58A:  MOVWF  FF6
0A58C:  MOVLW  0E
0A58E:  MOVWF  FF7
0A590:  MOVLW  00
0A592:  MOVWF  FF8
0A594:  MOVLW  0B
0A596:  MOVLB  4
0A598:  MOVWF  x44
0A59A:  MOVLB  0
0A59C:  CALL   47DC
0A5A0:  MOVFF  3A5,444
0A5A4:  MOVLW  01
0A5A6:  MOVLB  4
0A5A8:  MOVWF  x45
0A5AA:  MOVLB  0
0A5AC:  CALL   483A
0A5B0:  MOVLW  22
0A5B2:  BTFSS  F9E.4
0A5B4:  BRA    A5B2
0A5B6:  MOVWF  FAD
....................       SendDataDisplay(); 
0A5B8:  CALL   3874
....................       LimitaDia();   
0A5BC:  GOTO   4DD0
0A5C0:  MOVLB  3
....................     } 
.................... //_--------------------------------------------------------------------------------------------------------------------------------------------------------        
....................  
.................... //_-------------------------------------------------------------------------------------------------------------------------------------------------------- 
....................    if(Menu==8){ //Menu Ciclos Personalizados 
0A5C2:  MOVF   x62,W
0A5C4:  SUBLW  08
0A5C6:  BTFSS  FD8.2
0A5C8:  GOTO   B424
....................       printf("fecha.txt=\"T:%3.1fC Fecha:%02u/%02u/20%02u Hora: %02u:%02u:%02u\"",Temperatura,Dia,Mes,Year,Hora,Minuto,Segundo); 
0A5CC:  MOVLW  D4
0A5CE:  MOVWF  FF6
0A5D0:  MOVLW  0E
0A5D2:  MOVWF  FF7
0A5D4:  MOVLW  00
0A5D6:  MOVWF  FF8
0A5D8:  MOVLW  0D
0A5DA:  MOVLB  4
0A5DC:  MOVWF  x44
0A5DE:  MOVLB  0
0A5E0:  CALL   47DC
0A5E4:  MOVLW  02
0A5E6:  MOVWF  FE9
0A5E8:  MOVFF  32B,447
0A5EC:  MOVFF  32A,446
0A5F0:  MOVFF  329,445
0A5F4:  MOVFF  328,444
0A5F8:  MOVLW  01
0A5FA:  MOVLB  4
0A5FC:  MOVWF  x48
0A5FE:  MOVLB  0
0A600:  CALL   497C
0A604:  MOVLW  E6
0A606:  MOVWF  FF6
0A608:  MOVLW  0E
0A60A:  MOVWF  FF7
0A60C:  MOVLW  00
0A60E:  MOVWF  FF8
0A610:  MOVLW  09
0A612:  MOVLB  4
0A614:  MOVWF  x44
0A616:  MOVLB  0
0A618:  CALL   47DC
0A61C:  MOVFF  3A0,444
0A620:  MOVLW  01
0A622:  MOVLB  4
0A624:  MOVWF  x45
0A626:  MOVLB  0
0A628:  CALL   483A
0A62C:  MOVLW  2F
0A62E:  BTFSS  F9E.4
0A630:  BRA    A62E
0A632:  MOVWF  FAD
0A634:  MOVFF  39F,444
0A638:  MOVLW  01
0A63A:  MOVLB  4
0A63C:  MOVWF  x45
0A63E:  MOVLB  0
0A640:  CALL   483A
0A644:  MOVLW  2F
0A646:  BTFSS  F9E.4
0A648:  BRA    A646
0A64A:  MOVWF  FAD
0A64C:  MOVLW  32
0A64E:  BTFSS  F9E.4
0A650:  BRA    A64E
0A652:  MOVWF  FAD
0A654:  MOVLW  30
0A656:  BTFSS  F9E.4
0A658:  BRA    A656
0A65A:  MOVWF  FAD
0A65C:  MOVFF  39E,444
0A660:  MOVLW  01
0A662:  MOVLB  4
0A664:  MOVWF  x45
0A666:  MOVLB  0
0A668:  CALL   483A
0A66C:  MOVLW  FF
0A66E:  MOVWF  FF6
0A670:  MOVLW  0E
0A672:  MOVWF  FF7
0A674:  MOVLW  00
0A676:  MOVWF  FF8
0A678:  MOVLW  07
0A67A:  MOVLB  4
0A67C:  MOVWF  x44
0A67E:  MOVLB  0
0A680:  CALL   47DC
0A684:  MOVFF  3A1,444
0A688:  MOVLW  01
0A68A:  MOVLB  4
0A68C:  MOVWF  x45
0A68E:  MOVLB  0
0A690:  CALL   483A
0A694:  MOVLW  3A
0A696:  BTFSS  F9E.4
0A698:  BRA    A696
0A69A:  MOVWF  FAD
0A69C:  MOVFF  3A2,444
0A6A0:  MOVLW  01
0A6A2:  MOVLB  4
0A6A4:  MOVWF  x45
0A6A6:  MOVLB  0
0A6A8:  CALL   483A
0A6AC:  MOVLW  3A
0A6AE:  BTFSS  F9E.4
0A6B0:  BRA    A6AE
0A6B2:  MOVWF  FAD
0A6B4:  MOVFF  3A3,444
0A6B8:  MOVLW  01
0A6BA:  MOVLB  4
0A6BC:  MOVWF  x45
0A6BE:  MOVLB  0
0A6C0:  CALL   483A
0A6C4:  MOVLW  22
0A6C6:  BTFSS  F9E.4
0A6C8:  BRA    A6C6
0A6CA:  MOVWF  FAD
....................       SendDataDisplay(); 
0A6CC:  CALL   3874
....................       GuardaEEPROM=OFF; 
0A6D0:  BCF    xA2.4
....................        
....................       if(RX_Buffer[4]>0x00 && RX_Buffer[4]<0x04){//Personalizados 
0A6D2:  MOVF   34,F
0A6D4:  BTFSC  FD8.2
0A6D6:  BRA    A904
0A6D8:  MOVF   34,W
0A6DA:  SUBLW  03
0A6DC:  BTFSS  FD8.0
0A6DE:  BRA    A904
....................          printf("ciclo.txt=\"CICLO P%02u\"",RX_Buffer[4]+0x04); 
0A6E0:  MOVLW  04
0A6E2:  ADDWF  34,W
0A6E4:  MOVLB  4
0A6E6:  MOVWF  x3F
0A6E8:  MOVLW  16
0A6EA:  MOVWF  FF6
0A6EC:  MOVLW  0F
0A6EE:  MOVWF  FF7
0A6F0:  MOVLW  00
0A6F2:  MOVWF  FF8
0A6F4:  MOVLW  12
0A6F6:  MOVWF  x44
0A6F8:  MOVLB  0
0A6FA:  CALL   47DC
0A6FE:  MOVFF  43F,444
0A702:  MOVLW  01
0A704:  MOVLB  4
0A706:  MOVWF  x45
0A708:  MOVLB  0
0A70A:  CALL   483A
0A70E:  MOVLW  22
0A710:  BTFSS  F9E.4
0A712:  BRA    A710
0A714:  MOVWF  FAD
....................          SendDataDisplay();           
0A716:  CALL   3874
....................          printf("temp.txt=\"%u\"",CiclosPersonalizados[RX_Buffer[4]-1].Temperatura); 
0A71A:  MOVLW  01
0A71C:  SUBWF  34,W
0A71E:  MULLW  0A
0A720:  MOVF   FF3,W
0A722:  MOVLB  4
0A724:  CLRF   x40
0A726:  MOVWF  x3F
0A728:  MOVLW  17
0A72A:  ADDWF  x3F,W
0A72C:  MOVWF  FE9
0A72E:  MOVLW  04
0A730:  ADDWFC x40,W
0A732:  MOVWF  FEA
0A734:  MOVFF  FEF,43F
0A738:  MOVLW  2E
0A73A:  MOVWF  FF6
0A73C:  MOVLW  0F
0A73E:  MOVWF  FF7
0A740:  MOVLW  00
0A742:  MOVWF  FF8
0A744:  MOVLW  0A
0A746:  MOVWF  x44
0A748:  MOVLB  0
0A74A:  CALL   47DC
0A74E:  MOVFF  43F,444
0A752:  MOVLW  1B
0A754:  MOVLB  4
0A756:  MOVWF  x45
0A758:  MOVLB  0
0A75A:  CALL   483A
0A75E:  MOVLW  22
0A760:  BTFSS  F9E.4
0A762:  BRA    A760
0A764:  MOVWF  FAD
....................          SendDataDisplay(); 
0A766:  CALL   3874
....................          printf("test.txt=\"%02u:%02u\"",CiclosPersonalizados[RX_Buffer[4]-1].Minutoest,CiclosPersonalizados[RX_Buffer[4]-1].Segundoest); 
0A76A:  MOVLW  01
0A76C:  SUBWF  34,W
0A76E:  MULLW  0A
0A770:  MOVF   FF3,W
0A772:  MOVLB  4
0A774:  CLRF   x40
0A776:  MOVWF  x3F
0A778:  MOVLW  09
0A77A:  ADDWF  x3F,W
0A77C:  MOVWF  01
0A77E:  MOVLW  00
0A780:  ADDWFC x40,W
0A782:  MOVWF  03
0A784:  MOVF   01,W
0A786:  ADDLW  17
0A788:  MOVWF  FE9
0A78A:  MOVLW  04
0A78C:  ADDWFC 03,W
0A78E:  MOVWF  FEA
0A790:  MOVFF  FEF,43F
0A794:  MOVLW  01
0A796:  SUBWF  34,W
0A798:  MULLW  0A
0A79A:  MOVF   FF3,W
0A79C:  CLRF   x41
0A79E:  MOVWF  x40
0A7A0:  MOVLW  03
0A7A2:  ADDWF  x40,W
0A7A4:  MOVWF  01
0A7A6:  MOVLW  00
0A7A8:  ADDWFC x41,W
0A7AA:  MOVWF  03
0A7AC:  MOVF   01,W
0A7AE:  ADDLW  17
0A7B0:  MOVWF  FE9
0A7B2:  MOVLW  04
0A7B4:  ADDWFC 03,W
0A7B6:  MOVWF  FEA
0A7B8:  MOVFF  FEF,440
0A7BC:  MOVLW  3C
0A7BE:  MOVWF  FF6
0A7C0:  MOVLW  0F
0A7C2:  MOVWF  FF7
0A7C4:  MOVLW  00
0A7C6:  MOVWF  FF8
0A7C8:  MOVLW  0A
0A7CA:  MOVWF  x44
0A7CC:  MOVLB  0
0A7CE:  CALL   47DC
0A7D2:  MOVFF  43F,444
0A7D6:  MOVLW  01
0A7D8:  MOVLB  4
0A7DA:  MOVWF  x45
0A7DC:  MOVLB  0
0A7DE:  CALL   483A
0A7E2:  MOVLW  3A
0A7E4:  BTFSS  F9E.4
0A7E6:  BRA    A7E4
0A7E8:  MOVWF  FAD
0A7EA:  MOVFF  440,444
0A7EE:  MOVLW  01
0A7F0:  MOVLB  4
0A7F2:  MOVWF  x45
0A7F4:  MOVLB  0
0A7F6:  CALL   483A
0A7FA:  MOVLW  22
0A7FC:  BTFSS  F9E.4
0A7FE:  BRA    A7FC
0A800:  MOVWF  FAD
....................          SendDataDisplay(); 
0A802:  CALL   3874
....................          printf("tsec.txt=\"%02u:%02u\"",CiclosPersonalizados[RX_Buffer[4]-1].Minutosec,CiclosPersonalizados[RX_Buffer[4]-1].Segundosec); 
0A806:  MOVLW  01
0A808:  SUBWF  34,W
0A80A:  MULLW  0A
0A80C:  MOVF   FF3,W
0A80E:  MOVLB  4
0A810:  CLRF   x40
0A812:  MOVWF  x3F
0A814:  MOVLW  04
0A816:  ADDWF  x3F,W
0A818:  MOVWF  01
0A81A:  MOVLW  00
0A81C:  ADDWFC x40,W
0A81E:  MOVWF  03
0A820:  MOVF   01,W
0A822:  ADDLW  17
0A824:  MOVWF  FE9
0A826:  MOVLW  04
0A828:  ADDWFC 03,W
0A82A:  MOVWF  FEA
0A82C:  MOVFF  FEF,43F
0A830:  MOVLW  01
0A832:  SUBWF  34,W
0A834:  MULLW  0A
0A836:  MOVF   FF3,W
0A838:  CLRF   x41
0A83A:  MOVWF  x40
0A83C:  MOVLW  05
0A83E:  ADDWF  x40,W
0A840:  MOVWF  01
0A842:  MOVLW  00
0A844:  ADDWFC x41,W
0A846:  MOVWF  03
0A848:  MOVF   01,W
0A84A:  ADDLW  17
0A84C:  MOVWF  FE9
0A84E:  MOVLW  04
0A850:  ADDWFC 03,W
0A852:  MOVWF  FEA
0A854:  MOVFF  FEF,440
0A858:  MOVLW  52
0A85A:  MOVWF  FF6
0A85C:  MOVLW  0F
0A85E:  MOVWF  FF7
0A860:  MOVLW  00
0A862:  MOVWF  FF8
0A864:  MOVLW  0A
0A866:  MOVWF  x44
0A868:  MOVLB  0
0A86A:  CALL   47DC
0A86E:  MOVFF  43F,444
0A872:  MOVLW  01
0A874:  MOVLB  4
0A876:  MOVWF  x45
0A878:  MOVLB  0
0A87A:  CALL   483A
0A87E:  MOVLW  3A
0A880:  BTFSS  F9E.4
0A882:  BRA    A880
0A884:  MOVWF  FAD
0A886:  MOVFF  440,444
0A88A:  MOVLW  01
0A88C:  MOVLB  4
0A88E:  MOVWF  x45
0A890:  MOVLB  0
0A892:  CALL   483A
0A896:  MOVLW  22
0A898:  BTFSS  F9E.4
0A89A:  BRA    A898
0A89C:  MOVWF  FAD
....................          SendDataDisplay(); 
0A89E:  CALL   3874
....................          printf("desfogue.txt=\"%u\"",CiclosPersonalizados[RX_Buffer[4]-1].NivelDesfogue); 
0A8A2:  MOVLW  01
0A8A4:  SUBWF  34,W
0A8A6:  MULLW  0A
0A8A8:  MOVF   FF3,W
0A8AA:  MOVLB  4
0A8AC:  CLRF   x40
0A8AE:  MOVWF  x3F
0A8B0:  MOVLW  08
0A8B2:  ADDWF  x3F,W
0A8B4:  MOVWF  01
0A8B6:  MOVLW  00
0A8B8:  ADDWFC x40,W
0A8BA:  MOVWF  03
0A8BC:  MOVF   01,W
0A8BE:  ADDLW  17
0A8C0:  MOVWF  FE9
0A8C2:  MOVLW  04
0A8C4:  ADDWFC 03,W
0A8C6:  MOVWF  FEA
0A8C8:  MOVFF  FEF,43F
0A8CC:  MOVLW  68
0A8CE:  MOVWF  FF6
0A8D0:  MOVLW  0F
0A8D2:  MOVWF  FF7
0A8D4:  MOVLW  00
0A8D6:  MOVWF  FF8
0A8D8:  MOVLW  0E
0A8DA:  MOVWF  x44
0A8DC:  MOVLB  0
0A8DE:  CALL   47DC
0A8E2:  MOVFF  43F,444
0A8E6:  MOVLW  1B
0A8E8:  MOVLB  4
0A8EA:  MOVWF  x45
0A8EC:  MOVLB  0
0A8EE:  CALL   483A
0A8F2:  MOVLW  22
0A8F4:  BTFSS  F9E.4
0A8F6:  BRA    A8F4
0A8F8:  MOVWF  FAD
....................          SendDataDisplay(); 
0A8FA:  CALL   3874
....................          CicloLibre=RX_Buffer[4]; 
0A8FE:  MOVFF  34,342
....................       }else if(CicloLibre==0x00){ 
0A902:  BRA    ABB0
0A904:  MOVLB  3
0A906:  MOVF   x42,F
0A908:  BNZ   A974
....................          printf("ciclo.txt=\"CICLO P--\""); 
0A90A:  MOVLW  7A
0A90C:  MOVWF  FF6
0A90E:  MOVLW  0F
0A910:  MOVWF  FF7
0A912:  MOVLW  00
0A914:  MOVWF  FF8
0A916:  MOVLB  0
0A918:  CALL   3842
....................          SendDataDisplay();           
0A91C:  CALL   3874
....................          printf("temp.txt=\"--\""); 
0A920:  MOVLW  90
0A922:  MOVWF  FF6
0A924:  MOVLW  0F
0A926:  MOVWF  FF7
0A928:  MOVLW  00
0A92A:  MOVWF  FF8
0A92C:  CALL   3842
....................          SendDataDisplay(); 
0A930:  CALL   3874
....................          printf("test.txt=\"--:--\""); 
0A934:  MOVLW  9E
0A936:  MOVWF  FF6
0A938:  MOVLW  0F
0A93A:  MOVWF  FF7
0A93C:  MOVLW  00
0A93E:  MOVWF  FF8
0A940:  CALL   3842
....................          SendDataDisplay(); 
0A944:  CALL   3874
....................          printf("tsec.txt=\"--:--\""); 
0A948:  MOVLW  B0
0A94A:  MOVWF  FF6
0A94C:  MOVLW  0F
0A94E:  MOVWF  FF7
0A950:  MOVLW  00
0A952:  MOVWF  FF8
0A954:  CALL   3842
....................          SendDataDisplay(); 
0A958:  CALL   3874
....................          printf("desfogue.txt=\"--\""); 
0A95C:  MOVLW  C2
0A95E:  MOVWF  FF6
0A960:  MOVLW  0F
0A962:  MOVWF  FF7
0A964:  MOVLW  00
0A966:  MOVWF  FF8
0A968:  CALL   3842
....................          SendDataDisplay(); 
0A96C:  CALL   3874
....................       }else if(CicloLibre>0 && CicloLibre<4){ 
0A970:  BRA    ABB0
0A972:  MOVLB  3
0A974:  MOVF   x42,F
0A976:  BTFSC  FD8.2
0A978:  BRA    ABB2
0A97A:  MOVF   x42,W
0A97C:  SUBLW  03
0A97E:  BTFSS  FD8.0
0A980:  BRA    ABB2
....................          printf("ciclo.txt=\"CICLO P%02u\"",CicloLibre+0x04); 
0A982:  MOVLW  04
0A984:  ADDWF  x42,W
0A986:  MOVLB  4
0A988:  MOVWF  x3F
0A98A:  MOVLW  D4
0A98C:  MOVWF  FF6
0A98E:  MOVLW  0F
0A990:  MOVWF  FF7
0A992:  MOVLW  00
0A994:  MOVWF  FF8
0A996:  MOVLW  12
0A998:  MOVWF  x44
0A99A:  MOVLB  0
0A99C:  CALL   47DC
0A9A0:  MOVFF  43F,444
0A9A4:  MOVLW  01
0A9A6:  MOVLB  4
0A9A8:  MOVWF  x45
0A9AA:  MOVLB  0
0A9AC:  CALL   483A
0A9B0:  MOVLW  22
0A9B2:  BTFSS  F9E.4
0A9B4:  BRA    A9B2
0A9B6:  MOVWF  FAD
....................          SendDataDisplay();           
0A9B8:  CALL   3874
....................          printf("temp.txt=\"%u\"",CiclosPersonalizados[CicloLibre-1].Temperatura); 
0A9BC:  MOVLW  01
0A9BE:  MOVLB  3
0A9C0:  SUBWF  x42,W
0A9C2:  MULLW  0A
0A9C4:  MOVF   FF3,W
0A9C6:  MOVLB  4
0A9C8:  CLRF   x40
0A9CA:  MOVWF  x3F
0A9CC:  MOVLW  17
0A9CE:  ADDWF  x3F,W
0A9D0:  MOVWF  FE9
0A9D2:  MOVLW  04
0A9D4:  ADDWFC x40,W
0A9D6:  MOVWF  FEA
0A9D8:  MOVFF  FEF,43F
0A9DC:  MOVLW  EC
0A9DE:  MOVWF  FF6
0A9E0:  MOVLW  0F
0A9E2:  MOVWF  FF7
0A9E4:  MOVLW  00
0A9E6:  MOVWF  FF8
0A9E8:  MOVLW  0A
0A9EA:  MOVWF  x44
0A9EC:  MOVLB  0
0A9EE:  CALL   47DC
0A9F2:  MOVFF  43F,444
0A9F6:  MOVLW  1B
0A9F8:  MOVLB  4
0A9FA:  MOVWF  x45
0A9FC:  MOVLB  0
0A9FE:  CALL   483A
0AA02:  MOVLW  22
0AA04:  BTFSS  F9E.4
0AA06:  BRA    AA04
0AA08:  MOVWF  FAD
....................          SendDataDisplay(); 
0AA0A:  CALL   3874
....................          printf("test.txt=\"%02u:%02u\"",CiclosPersonalizados[CicloLibre-1].Minutoest,CiclosPersonalizados[CicloLibre-1].Segundoest); 
0AA0E:  MOVLW  01
0AA10:  MOVLB  3
0AA12:  SUBWF  x42,W
0AA14:  MULLW  0A
0AA16:  MOVF   FF3,W
0AA18:  MOVLB  4
0AA1A:  CLRF   x40
0AA1C:  MOVWF  x3F
0AA1E:  MOVLW  09
0AA20:  ADDWF  x3F,W
0AA22:  MOVWF  01
0AA24:  MOVLW  00
0AA26:  ADDWFC x40,W
0AA28:  MOVWF  03
0AA2A:  MOVF   01,W
0AA2C:  ADDLW  17
0AA2E:  MOVWF  FE9
0AA30:  MOVLW  04
0AA32:  ADDWFC 03,W
0AA34:  MOVWF  FEA
0AA36:  MOVFF  FEF,43F
0AA3A:  MOVLW  01
0AA3C:  MOVLB  3
0AA3E:  SUBWF  x42,W
0AA40:  MULLW  0A
0AA42:  MOVF   FF3,W
0AA44:  MOVLB  4
0AA46:  CLRF   x41
0AA48:  MOVWF  x40
0AA4A:  MOVLW  03
0AA4C:  ADDWF  x40,W
0AA4E:  MOVWF  01
0AA50:  MOVLW  00
0AA52:  ADDWFC x41,W
0AA54:  MOVWF  03
0AA56:  MOVF   01,W
0AA58:  ADDLW  17
0AA5A:  MOVWF  FE9
0AA5C:  MOVLW  04
0AA5E:  ADDWFC 03,W
0AA60:  MOVWF  FEA
0AA62:  MOVFF  FEF,440
0AA66:  MOVLW  FA
0AA68:  MOVWF  FF6
0AA6A:  MOVLW  0F
0AA6C:  MOVWF  FF7
0AA6E:  MOVLW  00
0AA70:  MOVWF  FF8
0AA72:  MOVLW  0A
0AA74:  MOVWF  x44
0AA76:  MOVLB  0
0AA78:  CALL   47DC
0AA7C:  MOVFF  43F,444
0AA80:  MOVLW  01
0AA82:  MOVLB  4
0AA84:  MOVWF  x45
0AA86:  MOVLB  0
0AA88:  CALL   483A
0AA8C:  MOVLW  3A
0AA8E:  BTFSS  F9E.4
0AA90:  BRA    AA8E
0AA92:  MOVWF  FAD
0AA94:  MOVFF  440,444
0AA98:  MOVLW  01
0AA9A:  MOVLB  4
0AA9C:  MOVWF  x45
0AA9E:  MOVLB  0
0AAA0:  CALL   483A
0AAA4:  MOVLW  22
0AAA6:  BTFSS  F9E.4
0AAA8:  BRA    AAA6
0AAAA:  MOVWF  FAD
....................          SendDataDisplay(); 
0AAAC:  CALL   3874
....................          printf("tsec.txt=\"%02u:%02u\"",CiclosPersonalizados[CicloLibre-1].Minutosec,CiclosPersonalizados[CicloLibre-1].Segundosec); 
0AAB0:  MOVLW  01
0AAB2:  MOVLB  3
0AAB4:  SUBWF  x42,W
0AAB6:  MULLW  0A
0AAB8:  MOVF   FF3,W
0AABA:  MOVLB  4
0AABC:  CLRF   x40
0AABE:  MOVWF  x3F
0AAC0:  MOVLW  04
0AAC2:  ADDWF  x3F,W
0AAC4:  MOVWF  01
0AAC6:  MOVLW  00
0AAC8:  ADDWFC x40,W
0AACA:  MOVWF  03
0AACC:  MOVF   01,W
0AACE:  ADDLW  17
0AAD0:  MOVWF  FE9
0AAD2:  MOVLW  04
0AAD4:  ADDWFC 03,W
0AAD6:  MOVWF  FEA
0AAD8:  MOVFF  FEF,43F
0AADC:  MOVLW  01
0AADE:  MOVLB  3
0AAE0:  SUBWF  x42,W
0AAE2:  MULLW  0A
0AAE4:  MOVF   FF3,W
0AAE6:  MOVLB  4
0AAE8:  CLRF   x41
0AAEA:  MOVWF  x40
0AAEC:  MOVLW  05
0AAEE:  ADDWF  x40,W
0AAF0:  MOVWF  01
0AAF2:  MOVLW  00
0AAF4:  ADDWFC x41,W
0AAF6:  MOVWF  03
0AAF8:  MOVF   01,W
0AAFA:  ADDLW  17
0AAFC:  MOVWF  FE9
0AAFE:  MOVLW  04
0AB00:  ADDWFC 03,W
0AB02:  MOVWF  FEA
0AB04:  MOVFF  FEF,440
0AB08:  MOVLW  10
0AB0A:  MOVWF  FF6
0AB0C:  MOVLW  10
0AB0E:  MOVWF  FF7
0AB10:  MOVLW  00
0AB12:  MOVWF  FF8
0AB14:  MOVLW  0A
0AB16:  MOVWF  x44
0AB18:  MOVLB  0
0AB1A:  CALL   47DC
0AB1E:  MOVFF  43F,444
0AB22:  MOVLW  01
0AB24:  MOVLB  4
0AB26:  MOVWF  x45
0AB28:  MOVLB  0
0AB2A:  CALL   483A
0AB2E:  MOVLW  3A
0AB30:  BTFSS  F9E.4
0AB32:  BRA    AB30
0AB34:  MOVWF  FAD
0AB36:  MOVFF  440,444
0AB3A:  MOVLW  01
0AB3C:  MOVLB  4
0AB3E:  MOVWF  x45
0AB40:  MOVLB  0
0AB42:  CALL   483A
0AB46:  MOVLW  22
0AB48:  BTFSS  F9E.4
0AB4A:  BRA    AB48
0AB4C:  MOVWF  FAD
....................          SendDataDisplay(); 
0AB4E:  CALL   3874
....................          printf("desfogue.txt=\"%u\"",CiclosPersonalizados[CicloLibre-1].NivelDesfogue); 
0AB52:  MOVLW  01
0AB54:  MOVLB  3
0AB56:  SUBWF  x42,W
0AB58:  MULLW  0A
0AB5A:  MOVF   FF3,W
0AB5C:  MOVLB  4
0AB5E:  CLRF   x40
0AB60:  MOVWF  x3F
0AB62:  MOVLW  08
0AB64:  ADDWF  x3F,W
0AB66:  MOVWF  01
0AB68:  MOVLW  00
0AB6A:  ADDWFC x40,W
0AB6C:  MOVWF  03
0AB6E:  MOVF   01,W
0AB70:  ADDLW  17
0AB72:  MOVWF  FE9
0AB74:  MOVLW  04
0AB76:  ADDWFC 03,W
0AB78:  MOVWF  FEA
0AB7A:  MOVFF  FEF,43F
0AB7E:  MOVLW  26
0AB80:  MOVWF  FF6
0AB82:  MOVLW  10
0AB84:  MOVWF  FF7
0AB86:  MOVLW  00
0AB88:  MOVWF  FF8
0AB8A:  MOVLW  0E
0AB8C:  MOVWF  x44
0AB8E:  MOVLB  0
0AB90:  CALL   47DC
0AB94:  MOVFF  43F,444
0AB98:  MOVLW  1B
0AB9A:  MOVLB  4
0AB9C:  MOVWF  x45
0AB9E:  MOVLB  0
0ABA0:  CALL   483A
0ABA4:  MOVLW  22
0ABA6:  BTFSS  F9E.4
0ABA8:  BRA    ABA6
0ABAA:  MOVWF  FAD
....................          SendDataDisplay(); 
0ABAC:  CALL   3874
0ABB0:  MOVLB  3
....................       } 
....................        
....................       if(RIGHT){ 
0ABB2:  BSF    F93.2
0ABB4:  BTFSC  F81.2
0ABB6:  BRA    ABCE
....................          delay_ms(100); 
0ABB8:  MOVLW  64
0ABBA:  MOVLB  4
0ABBC:  MOVWF  x54
0ABBE:  MOVLB  0
0ABC0:  CALL   19B0
....................          if(RIGHT){ 
0ABC4:  BSF    F93.2
0ABC6:  BTFSC  F81.2
0ABC8:  BRA    ABD0
....................             CicloLibre++; 
0ABCA:  MOVLB  3
0ABCC:  INCF   x42,F
0ABCE:  MOVLB  0
....................          } 
....................       }       
....................        
....................       if(CicloLibre<1) 
0ABD0:  MOVLB  3
0ABD2:  MOVF   x42,F
0ABD4:  BNZ   ABDA
....................          CicloLibre=1; 
0ABD6:  MOVLW  01
0ABD8:  MOVWF  x42
....................       if(CicloLibre>4) 
0ABDA:  MOVF   x42,W
0ABDC:  SUBLW  04
0ABDE:  BC    ABE4
....................          CicloLibre=4; 
0ABE0:  MOVLW  04
0ABE2:  MOVWF  x42
....................        
....................       if(RX_Buffer[4]==0xa0 || LEFT){//a0, Menu Principal 
0ABE4:  MOVF   34,W
0ABE6:  SUBLW  A0
0ABE8:  BZ    ABF0
0ABEA:  BSF    F93.3
0ABEC:  BTFSC  F81.3
0ABEE:  BRA    AC28
....................          delay_ms(100); 
0ABF0:  MOVLW  64
0ABF2:  MOVLB  4
0ABF4:  MOVWF  x54
0ABF6:  MOVLB  0
0ABF8:  CALL   19B0
....................          if(RX_Buffer[4]==0xa0 || LEFT){ 
0ABFC:  MOVF   34,W
0ABFE:  SUBLW  A0
0AC00:  BZ    AC08
0AC02:  BSF    F93.3
0AC04:  BTFSC  F81.3
0AC06:  BRA    AC26
....................             printf("page MenuPrincipal"); 
0AC08:  MOVLW  38
0AC0A:  MOVWF  FF6
0AC0C:  MOVLW  10
0AC0E:  MOVWF  FF7
0AC10:  MOVLW  00
0AC12:  MOVWF  FF8
0AC14:  CALL   3842
....................             SendDataDisplay();      
0AC18:  CALL   3874
....................             PantallaPrincipal=0; 
0AC1C:  MOVLB  2
0AC1E:  CLRF   xDD
....................             Op=OFF; 
0AC20:  MOVLB  0
0AC22:  BCF    xA2.0
....................             Op2=OFF; 
0AC24:  BCF    xA2.1
0AC26:  MOVLB  3
....................          } 
....................       } 
....................        
....................       if(RX_Buffer[4]==0x20 && CicloLibre>0){//20, Temperatura 
0AC28:  MOVF   34,W
0AC2A:  SUBLW  20
0AC2C:  BNZ   AC6A
0AC2E:  MOVF   x42,F
0AC30:  BZ    AC6A
....................             printf("page Temperatura"); 
0AC32:  MOVLW  4C
0AC34:  MOVWF  FF6
0AC36:  MOVLW  10
0AC38:  MOVWF  FF7
0AC3A:  MOVLW  00
0AC3C:  MOVWF  FF8
0AC3E:  MOVLB  0
0AC40:  CALL   3842
....................             SendDataDisplay();      
0AC44:  CALL   3874
....................             Setpoint=CiclosPersonalizados[CicloLibre-1].Temperatura; 
0AC48:  MOVLW  01
0AC4A:  MOVLB  3
0AC4C:  SUBWF  x42,W
0AC4E:  MULLW  0A
0AC50:  MOVF   FF3,W
0AC52:  MOVLB  4
0AC54:  CLRF   x40
0AC56:  MOVWF  x3F
0AC58:  MOVLW  17
0AC5A:  ADDWF  x3F,W
0AC5C:  MOVWF  FE9
0AC5E:  MOVLW  04
0AC60:  ADDWFC x40,W
0AC62:  MOVWF  FEA
0AC64:  MOVFF  FEF,36B
0AC68:  MOVLB  3
....................       } 
....................        
....................       if(RX_Buffer[4]==0x30 && CicloLibre>0){//30, Test 
0AC6A:  MOVF   34,W
0AC6C:  SUBLW  30
0AC6E:  BTFSS  FD8.2
0AC70:  BRA    AD8C
0AC72:  MOVF   x42,F
0AC74:  BTFSC  FD8.2
0AC76:  BRA    AD8C
....................             printf("page TiempoEst"); 
0AC78:  MOVLW  5E
0AC7A:  MOVWF  FF6
0AC7C:  MOVLW  10
0AC7E:  MOVWF  FF7
0AC80:  MOVLW  00
0AC82:  MOVWF  FF8
0AC84:  MOVLB  0
0AC86:  CALL   3842
....................             SendDataDisplay();      
0AC8A:  CALL   3874
....................             Testerilizacionp[3]=CiclosPersonalizados[CicloLibre-1].Minutoest/10; 
0AC8E:  MOVLW  01
0AC90:  MOVLB  3
0AC92:  SUBWF  x42,W
0AC94:  MULLW  0A
0AC96:  MOVF   FF3,W
0AC98:  MOVLB  4
0AC9A:  CLRF   x40
0AC9C:  MOVWF  x3F
0AC9E:  MOVLW  09
0ACA0:  ADDWF  x3F,W
0ACA2:  MOVWF  01
0ACA4:  MOVLW  00
0ACA6:  ADDWFC x40,W
0ACA8:  MOVWF  03
0ACAA:  MOVF   01,W
0ACAC:  ADDLW  17
0ACAE:  MOVWF  FE9
0ACB0:  MOVLW  04
0ACB2:  ADDWFC 03,W
0ACB4:  MOVWF  FEA
0ACB6:  MOVFF  FEF,449
0ACBA:  MOVLW  0A
0ACBC:  MOVWF  x4A
0ACBE:  MOVLB  0
0ACC0:  CALL   480E
0ACC4:  MOVFF  01,B9
....................             Testerilizacionp[2]=CiclosPersonalizados[CicloLibre-1].Minutoest-(Testerilizacionp[3]*10); 
0ACC8:  MOVLW  01
0ACCA:  MOVLB  3
0ACCC:  SUBWF  x42,W
0ACCE:  MULLW  0A
0ACD0:  MOVF   FF3,W
0ACD2:  MOVLB  4
0ACD4:  CLRF   x40
0ACD6:  MOVWF  x3F
0ACD8:  MOVLW  09
0ACDA:  ADDWF  x3F,W
0ACDC:  MOVWF  01
0ACDE:  MOVLW  00
0ACE0:  ADDWFC x40,W
0ACE2:  MOVWF  03
0ACE4:  MOVF   01,W
0ACE6:  ADDLW  17
0ACE8:  MOVWF  FE9
0ACEA:  MOVLW  04
0ACEC:  ADDWFC 03,W
0ACEE:  MOVWF  FEA
0ACF0:  MOVFF  FEF,43F
0ACF4:  MOVFF  B9,441
0ACF8:  MOVLW  0A
0ACFA:  MOVWF  x42
0ACFC:  MOVLB  0
0ACFE:  CALL   2D4C
0AD02:  MOVF   01,W
0AD04:  MOVLB  4
0AD06:  SUBWF  x3F,W
0AD08:  MOVLB  0
0AD0A:  MOVWF  xB8
....................             Testerilizacionp[1]=CiclosPersonalizados[CicloLibre-1].Segundoest/10; 
0AD0C:  MOVLW  01
0AD0E:  MOVLB  3
0AD10:  SUBWF  x42,W
0AD12:  MULLW  0A
0AD14:  MOVF   FF3,W
0AD16:  MOVLB  4
0AD18:  CLRF   x40
0AD1A:  MOVWF  x3F
0AD1C:  MOVLW  03
0AD1E:  ADDWF  x3F,W
0AD20:  MOVWF  01
0AD22:  MOVLW  00
0AD24:  ADDWFC x40,W
0AD26:  MOVWF  03
0AD28:  MOVF   01,W
0AD2A:  ADDLW  17
0AD2C:  MOVWF  FE9
0AD2E:  MOVLW  04
0AD30:  ADDWFC 03,W
0AD32:  MOVWF  FEA
0AD34:  MOVFF  FEF,449
0AD38:  MOVLW  0A
0AD3A:  MOVWF  x4A
0AD3C:  MOVLB  0
0AD3E:  CALL   480E
0AD42:  MOVFF  01,B7
....................             Testerilizacionp[0]=CiclosPersonalizados[CicloLibre-1].Segundoest-(Testerilizacionp[1]*10); 
0AD46:  MOVLW  01
0AD48:  MOVLB  3
0AD4A:  SUBWF  x42,W
0AD4C:  MULLW  0A
0AD4E:  MOVF   FF3,W
0AD50:  MOVLB  4
0AD52:  CLRF   x40
0AD54:  MOVWF  x3F
0AD56:  MOVLW  03
0AD58:  ADDWF  x3F,W
0AD5A:  MOVWF  01
0AD5C:  MOVLW  00
0AD5E:  ADDWFC x40,W
0AD60:  MOVWF  03
0AD62:  MOVF   01,W
0AD64:  ADDLW  17
0AD66:  MOVWF  FE9
0AD68:  MOVLW  04
0AD6A:  ADDWFC 03,W
0AD6C:  MOVWF  FEA
0AD6E:  MOVFF  FEF,43F
0AD72:  MOVFF  B7,441
0AD76:  MOVLW  0A
0AD78:  MOVWF  x42
0AD7A:  MOVLB  0
0AD7C:  CALL   2D4C
0AD80:  MOVF   01,W
0AD82:  MOVLB  4
0AD84:  SUBWF  x3F,W
0AD86:  MOVLB  0
0AD88:  MOVWF  xB6
0AD8A:  MOVLB  3
....................       } 
....................        
....................       if(RX_Buffer[4]==0x40 && CicloLibre>0){//30, Test 
0AD8C:  MOVF   34,W
0AD8E:  SUBLW  40
0AD90:  BTFSS  FD8.2
0AD92:  BRA    AEAE
0AD94:  MOVF   x42,F
0AD96:  BTFSC  FD8.2
0AD98:  BRA    AEAE
....................             printf("page TiempoSec"); 
0AD9A:  MOVLW  6E
0AD9C:  MOVWF  FF6
0AD9E:  MOVLW  10
0ADA0:  MOVWF  FF7
0ADA2:  MOVLW  00
0ADA4:  MOVWF  FF8
0ADA6:  MOVLB  0
0ADA8:  CALL   3842
....................             SendDataDisplay();      
0ADAC:  CALL   3874
....................             Tsecadop[3]=CiclosPersonalizados[CicloLibre-1].Minutosec/10; 
0ADB0:  MOVLW  01
0ADB2:  MOVLB  3
0ADB4:  SUBWF  x42,W
0ADB6:  MULLW  0A
0ADB8:  MOVF   FF3,W
0ADBA:  MOVLB  4
0ADBC:  CLRF   x40
0ADBE:  MOVWF  x3F
0ADC0:  MOVLW  04
0ADC2:  ADDWF  x3F,W
0ADC4:  MOVWF  01
0ADC6:  MOVLW  00
0ADC8:  ADDWFC x40,W
0ADCA:  MOVWF  03
0ADCC:  MOVF   01,W
0ADCE:  ADDLW  17
0ADD0:  MOVWF  FE9
0ADD2:  MOVLW  04
0ADD4:  ADDWFC 03,W
0ADD6:  MOVWF  FEA
0ADD8:  MOVFF  FEF,449
0ADDC:  MOVLW  0A
0ADDE:  MOVWF  x4A
0ADE0:  MOVLB  0
0ADE2:  CALL   480E
0ADE6:  MOVFF  01,C2
....................             Tsecadop[2]=CiclosPersonalizados[CicloLibre-1].Minutosec-(Tsecadop[3]*10); 
0ADEA:  MOVLW  01
0ADEC:  MOVLB  3
0ADEE:  SUBWF  x42,W
0ADF0:  MULLW  0A
0ADF2:  MOVF   FF3,W
0ADF4:  MOVLB  4
0ADF6:  CLRF   x40
0ADF8:  MOVWF  x3F
0ADFA:  MOVLW  04
0ADFC:  ADDWF  x3F,W
0ADFE:  MOVWF  01
0AE00:  MOVLW  00
0AE02:  ADDWFC x40,W
0AE04:  MOVWF  03
0AE06:  MOVF   01,W
0AE08:  ADDLW  17
0AE0A:  MOVWF  FE9
0AE0C:  MOVLW  04
0AE0E:  ADDWFC 03,W
0AE10:  MOVWF  FEA
0AE12:  MOVFF  FEF,43F
0AE16:  MOVFF  C2,441
0AE1A:  MOVLW  0A
0AE1C:  MOVWF  x42
0AE1E:  MOVLB  0
0AE20:  CALL   2D4C
0AE24:  MOVF   01,W
0AE26:  MOVLB  4
0AE28:  SUBWF  x3F,W
0AE2A:  MOVLB  0
0AE2C:  MOVWF  xC1
....................             Tsecadop[1]=CiclosPersonalizados[CicloLibre-1].Segundosec/10; 
0AE2E:  MOVLW  01
0AE30:  MOVLB  3
0AE32:  SUBWF  x42,W
0AE34:  MULLW  0A
0AE36:  MOVF   FF3,W
0AE38:  MOVLB  4
0AE3A:  CLRF   x40
0AE3C:  MOVWF  x3F
0AE3E:  MOVLW  05
0AE40:  ADDWF  x3F,W
0AE42:  MOVWF  01
0AE44:  MOVLW  00
0AE46:  ADDWFC x40,W
0AE48:  MOVWF  03
0AE4A:  MOVF   01,W
0AE4C:  ADDLW  17
0AE4E:  MOVWF  FE9
0AE50:  MOVLW  04
0AE52:  ADDWFC 03,W
0AE54:  MOVWF  FEA
0AE56:  MOVFF  FEF,449
0AE5A:  MOVLW  0A
0AE5C:  MOVWF  x4A
0AE5E:  MOVLB  0
0AE60:  CALL   480E
0AE64:  MOVFF  01,C0
....................             Tsecadop[0]=CiclosPersonalizados[CicloLibre-1].Segundosec-(Tsecadop[1]*10); 
0AE68:  MOVLW  01
0AE6A:  MOVLB  3
0AE6C:  SUBWF  x42,W
0AE6E:  MULLW  0A
0AE70:  MOVF   FF3,W
0AE72:  MOVLB  4
0AE74:  CLRF   x40
0AE76:  MOVWF  x3F
0AE78:  MOVLW  05
0AE7A:  ADDWF  x3F,W
0AE7C:  MOVWF  01
0AE7E:  MOVLW  00
0AE80:  ADDWFC x40,W
0AE82:  MOVWF  03
0AE84:  MOVF   01,W
0AE86:  ADDLW  17
0AE88:  MOVWF  FE9
0AE8A:  MOVLW  04
0AE8C:  ADDWFC 03,W
0AE8E:  MOVWF  FEA
0AE90:  MOVFF  FEF,43F
0AE94:  MOVFF  C0,441
0AE98:  MOVLW  0A
0AE9A:  MOVWF  x42
0AE9C:  MOVLB  0
0AE9E:  CALL   2D4C
0AEA2:  MOVF   01,W
0AEA4:  MOVLB  4
0AEA6:  SUBWF  x3F,W
0AEA8:  MOVLB  0
0AEAA:  MOVWF  xBF
0AEAC:  MOVLB  3
....................       } 
....................        
....................       if(RX_Buffer[4]==0x80 && CicloLibre>0){//80, NivelDesfogue          
0AEAE:  MOVF   34,W
0AEB0:  SUBLW  80
0AEB2:  BNZ   AF02
0AEB4:  MOVF   x42,F
0AEB6:  BZ    AF02
....................             printf("page Nivel"); 
0AEB8:  MOVLW  7E
0AEBA:  MOVWF  FF6
0AEBC:  MOVLW  10
0AEBE:  MOVWF  FF7
0AEC0:  MOVLW  00
0AEC2:  MOVWF  FF8
0AEC4:  MOVLB  0
0AEC6:  CALL   3842
....................             SendDataDisplay();      
0AECA:  CALL   3874
....................             Nivel=CiclosPersonalizados[CicloLibre-1].NivelDesfogue;          
0AECE:  MOVLW  01
0AED0:  MOVLB  3
0AED2:  SUBWF  x42,W
0AED4:  MULLW  0A
0AED6:  MOVF   FF3,W
0AED8:  MOVLB  4
0AEDA:  CLRF   x40
0AEDC:  MOVWF  x3F
0AEDE:  MOVLW  08
0AEE0:  ADDWF  x3F,W
0AEE2:  MOVWF  01
0AEE4:  MOVLW  00
0AEE6:  ADDWFC x40,W
0AEE8:  MOVWF  03
0AEEA:  MOVF   01,W
0AEEC:  ADDLW  17
0AEEE:  MOVWF  FE9
0AEF0:  MOVLW  04
0AEF2:  ADDWFC 03,W
0AEF4:  MOVWF  FEA
0AEF6:  MOVF   FEF,W
0AEF8:  CLRF   03
0AEFA:  MOVLB  3
0AEFC:  MOVWF  x79
0AEFE:  MOVFF  03,37A
....................       } 
....................        
....................       if((RX_Buffer[4]==0x70 || UP)&& CicloLibre>0){//70, Iniciar Ciclo 
0AF02:  MOVF   34,W
0AF04:  SUBLW  70
0AF06:  BZ    AF0E
0AF08:  BSF    F93.0
0AF0A:  BTFSC  F81.0
0AF0C:  BRA    B424
0AF0E:  MOVF   x42,F
0AF10:  BTFSC  FD8.2
0AF12:  BRA    B424
....................          delay_ms(100); 
0AF14:  MOVLW  64
0AF16:  MOVLB  4
0AF18:  MOVWF  x54
0AF1A:  MOVLB  0
0AF1C:  CALL   19B0
....................          if((RX_Buffer[4]==0x70 || UP)&& CicloLibre>0){ 
0AF20:  MOVF   34,W
0AF22:  SUBLW  70
0AF24:  BZ    AF2C
0AF26:  BSF    F93.0
0AF28:  BTFSC  F81.0
0AF2A:  BRA    B422
0AF2C:  MOVLB  3
0AF2E:  MOVF   x42,F
0AF30:  BTFSS  FD8.2
0AF32:  BRA    AF38
0AF34:  MOVLB  0
0AF36:  BRA    B422
....................             printf("page Funcionamiento"); 
0AF38:  MOVLW  8A
0AF3A:  MOVWF  FF6
0AF3C:  MOVLW  10
0AF3E:  MOVWF  FF7
0AF40:  MOVLW  00
0AF42:  MOVWF  FF8
0AF44:  MOVLB  0
0AF46:  CALL   3842
....................             SendDataDisplay();        
0AF4A:  CALL   3874
....................             Libre=ON; 
0AF4E:  BSF    xA3.5
....................             if(CiclosPersonalizados[CicloLibre-1].NivelDesfogue>5){ 
0AF50:  MOVLW  01
0AF52:  MOVLB  3
0AF54:  SUBWF  x42,W
0AF56:  MULLW  0A
0AF58:  MOVF   FF3,W
0AF5A:  MOVLB  4
0AF5C:  CLRF   x40
0AF5E:  MOVWF  x3F
0AF60:  MOVLW  08
0AF62:  ADDWF  x3F,W
0AF64:  MOVWF  01
0AF66:  MOVLW  00
0AF68:  ADDWFC x40,W
0AF6A:  MOVWF  03
0AF6C:  MOVF   01,W
0AF6E:  ADDLW  17
0AF70:  MOVWF  FE9
0AF72:  MOVLW  04
0AF74:  ADDWFC 03,W
0AF76:  MOVWF  FEA
0AF78:  MOVF   FEF,W
0AF7A:  SUBLW  05
0AF7C:  BTFSC  FD8.0
0AF7E:  BRA    B1AE
....................                ConfiguraCiclo(extraeDecima(CiclosPersonalizados[CicloLibre-1].Segundoest), 
....................                            CiclosPersonalizados[CicloLibre-1].Segundoest/10, 
....................                            extraeDecima(CiclosPersonalizados[CicloLibre-1].Minutoest), 
....................                            CiclosPersonalizados[CicloLibre-1].Minutoest/10, 
....................                            extraeDecima(CiclosPersonalizados[CicloLibre-1].Segundosec), 
....................                            CiclosPersonalizados[CicloLibre-1].Segundosec/10, 
....................                            extraeDecima(CiclosPersonalizados[CicloLibre-1].Minutosec), 
....................                            CiclosPersonalizados[CicloLibre-1].Minutosec/10,0,CicloLibre+4,CiclosPersonalizados[CicloLibre-1].Temperatura);             
0AF80:  MOVLW  01
0AF82:  MOVLB  3
0AF84:  SUBWF  x42,W
0AF86:  MULLW  0A
0AF88:  MOVF   FF3,W
0AF8A:  MOVLB  4
0AF8C:  CLRF   x40
0AF8E:  MOVWF  x3F
0AF90:  MOVLW  03
0AF92:  ADDWF  x3F,W
0AF94:  MOVWF  01
0AF96:  MOVLW  00
0AF98:  ADDWFC x40,W
0AF9A:  MOVWF  03
0AF9C:  MOVF   01,W
0AF9E:  ADDLW  17
0AFA0:  MOVWF  FE9
0AFA2:  MOVLW  04
0AFA4:  ADDWFC 03,W
0AFA6:  MOVWF  FEA
0AFA8:  MOVFF  FEF,43F
0AFAC:  MOVFF  43F,446
0AFB0:  MOVLB  0
0AFB2:  CALL   4E64
0AFB6:  MOVFF  01,43F
0AFBA:  MOVLW  01
0AFBC:  MOVLB  3
0AFBE:  SUBWF  x42,W
0AFC0:  MULLW  0A
0AFC2:  MOVF   FF3,W
0AFC4:  MOVLB  4
0AFC6:  CLRF   x41
0AFC8:  MOVWF  x40
0AFCA:  MOVLW  03
0AFCC:  ADDWF  x40,W
0AFCE:  MOVWF  01
0AFD0:  MOVLW  00
0AFD2:  ADDWFC x41,W
0AFD4:  MOVWF  03
0AFD6:  MOVF   01,W
0AFD8:  ADDLW  17
0AFDA:  MOVWF  FE9
0AFDC:  MOVLW  04
0AFDE:  ADDWFC 03,W
0AFE0:  MOVWF  FEA
0AFE2:  MOVFF  FEF,449
0AFE6:  MOVLW  0A
0AFE8:  MOVWF  x4A
0AFEA:  MOVLB  0
0AFEC:  CALL   480E
0AFF0:  MOVFF  01,440
0AFF4:  MOVLW  01
0AFF6:  MOVLB  3
0AFF8:  SUBWF  x42,W
0AFFA:  MULLW  0A
0AFFC:  MOVF   FF3,W
0AFFE:  MOVLB  4
0B000:  CLRF   x42
0B002:  MOVWF  x41
0B004:  MOVLW  09
0B006:  ADDWF  x41,W
0B008:  MOVWF  01
0B00A:  MOVLW  00
0B00C:  ADDWFC x42,W
0B00E:  MOVWF  03
0B010:  MOVF   01,W
0B012:  ADDLW  17
0B014:  MOVWF  FE9
0B016:  MOVLW  04
0B018:  ADDWFC 03,W
0B01A:  MOVWF  FEA
0B01C:  MOVFF  FEF,441
0B020:  MOVFF  441,446
0B024:  MOVLB  0
0B026:  CALL   4E64
0B02A:  MOVFF  01,441
0B02E:  MOVLW  01
0B030:  MOVLB  3
0B032:  SUBWF  x42,W
0B034:  MULLW  0A
0B036:  MOVF   FF3,W
0B038:  MOVLB  4
0B03A:  CLRF   x43
0B03C:  MOVWF  x42
0B03E:  MOVLW  09
0B040:  ADDWF  x42,W
0B042:  MOVWF  01
0B044:  MOVLW  00
0B046:  ADDWFC x43,W
0B048:  MOVWF  03
0B04A:  MOVF   01,W
0B04C:  ADDLW  17
0B04E:  MOVWF  FE9
0B050:  MOVLW  04
0B052:  ADDWFC 03,W
0B054:  MOVWF  FEA
0B056:  MOVFF  FEF,449
0B05A:  MOVLW  0A
0B05C:  MOVWF  x4A
0B05E:  MOVLB  0
0B060:  CALL   480E
0B064:  MOVFF  01,442
0B068:  MOVLW  01
0B06A:  MOVLB  3
0B06C:  SUBWF  x42,W
0B06E:  MULLW  0A
0B070:  MOVF   FF3,W
0B072:  MOVLB  4
0B074:  CLRF   x44
0B076:  MOVWF  x43
0B078:  MOVLW  05
0B07A:  ADDWF  x43,W
0B07C:  MOVWF  01
0B07E:  MOVLW  00
0B080:  ADDWFC x44,W
0B082:  MOVWF  03
0B084:  MOVF   01,W
0B086:  ADDLW  17
0B088:  MOVWF  FE9
0B08A:  MOVLW  04
0B08C:  ADDWFC 03,W
0B08E:  MOVWF  FEA
0B090:  MOVFF  FEF,443
0B094:  MOVFF  443,446
0B098:  MOVLB  0
0B09A:  CALL   4E64
0B09E:  MOVFF  01,443
0B0A2:  MOVLW  01
0B0A4:  MOVLB  3
0B0A6:  SUBWF  x42,W
0B0A8:  MULLW  0A
0B0AA:  MOVF   FF3,W
0B0AC:  MOVLB  4
0B0AE:  CLRF   x45
0B0B0:  MOVWF  x44
0B0B2:  MOVLW  05
0B0B4:  ADDWF  x44,W
0B0B6:  MOVWF  01
0B0B8:  MOVLW  00
0B0BA:  ADDWFC x45,W
0B0BC:  MOVWF  03
0B0BE:  MOVF   01,W
0B0C0:  ADDLW  17
0B0C2:  MOVWF  FE9
0B0C4:  MOVLW  04
0B0C6:  ADDWFC 03,W
0B0C8:  MOVWF  FEA
0B0CA:  MOVFF  FEF,449
0B0CE:  MOVLW  0A
0B0D0:  MOVWF  x4A
0B0D2:  MOVLB  0
0B0D4:  CALL   480E
0B0D8:  MOVFF  01,444
0B0DC:  MOVLW  01
0B0DE:  MOVLB  3
0B0E0:  SUBWF  x42,W
0B0E2:  MULLW  0A
0B0E4:  MOVF   FF3,W
0B0E6:  MOVLB  4
0B0E8:  CLRF   x46
0B0EA:  MOVWF  x45
0B0EC:  MOVLW  04
0B0EE:  ADDWF  x45,W
0B0F0:  MOVWF  01
0B0F2:  MOVLW  00
0B0F4:  ADDWFC x46,W
0B0F6:  MOVWF  03
0B0F8:  MOVF   01,W
0B0FA:  ADDLW  17
0B0FC:  MOVWF  FE9
0B0FE:  MOVLW  04
0B100:  ADDWFC 03,W
0B102:  MOVWF  FEA
0B104:  MOVFF  FEF,445
0B108:  MOVFF  445,446
0B10C:  MOVLB  0
0B10E:  CALL   4E64
0B112:  MOVFF  01,445
0B116:  MOVLW  01
0B118:  MOVLB  3
0B11A:  SUBWF  x42,W
0B11C:  MULLW  0A
0B11E:  MOVF   FF3,W
0B120:  MOVLB  4
0B122:  CLRF   x47
0B124:  MOVWF  x46
0B126:  MOVLW  04
0B128:  ADDWF  x46,W
0B12A:  MOVWF  01
0B12C:  MOVLW  00
0B12E:  ADDWFC x47,W
0B130:  MOVWF  03
0B132:  MOVF   01,W
0B134:  ADDLW  17
0B136:  MOVWF  FE9
0B138:  MOVLW  04
0B13A:  ADDWFC 03,W
0B13C:  MOVWF  FEA
0B13E:  MOVFF  FEF,449
0B142:  MOVLW  0A
0B144:  MOVWF  x4A
0B146:  MOVLB  0
0B148:  CALL   480E
0B14C:  MOVFF  01,446
0B150:  MOVLW  04
0B152:  MOVLB  3
0B154:  ADDWF  x42,W
0B156:  MOVLB  4
0B158:  MOVWF  x47
0B15A:  MOVLW  01
0B15C:  MOVLB  3
0B15E:  SUBWF  x42,W
0B160:  MULLW  0A
0B162:  MOVF   FF3,W
0B164:  MOVLB  4
0B166:  CLRF   x49
0B168:  MOVWF  x48
0B16A:  MOVLW  17
0B16C:  ADDWF  x48,W
0B16E:  MOVWF  FE9
0B170:  MOVLW  04
0B172:  ADDWFC x49,W
0B174:  MOVWF  FEA
0B176:  MOVFF  FEF,448
0B17A:  MOVFF  43F,449
0B17E:  MOVFF  440,44A
0B182:  MOVFF  441,44B
0B186:  MOVFF  442,44C
0B18A:  MOVFF  443,44D
0B18E:  MOVFF  444,44E
0B192:  MOVFF  445,44F
0B196:  MOVFF  01,450
0B19A:  CLRF   x51
0B19C:  MOVFF  447,452
0B1A0:  MOVFF  448,453
0B1A4:  MOVLB  0
0B1A6:  CALL   4B20
....................             }else{ 
0B1AA:  BRA    B422
0B1AC:  MOVLB  4
....................                ConfiguraCiclo(extraeDecima(CiclosPersonalizados[CicloLibre-1].Segundoest), 
....................                            CiclosPersonalizados[CicloLibre-1].Segundoest/10, 
....................                            extraeDecima(CiclosPersonalizados[CicloLibre-1].Minutoest), 
....................                            CiclosPersonalizados[CicloLibre-1].Minutoest/10, 
....................                            extraeDecima(CiclosPersonalizados[CicloLibre-1].Segundosec), 
....................                            CiclosPersonalizados[CicloLibre-1].Segundosec/10, 
....................                            extraeDecima(CiclosPersonalizados[CicloLibre-1].Minutosec), 
....................                            CiclosPersonalizados[CicloLibre-1].Minutosec/10,1,CicloLibre+4,CiclosPersonalizados[CicloLibre-1].Temperatura);             
0B1AE:  MOVLW  01
0B1B0:  MOVLB  3
0B1B2:  SUBWF  x42,W
0B1B4:  MULLW  0A
0B1B6:  MOVF   FF3,W
0B1B8:  MOVLB  4
0B1BA:  CLRF   x40
0B1BC:  MOVWF  x3F
0B1BE:  MOVLW  03
0B1C0:  ADDWF  x3F,W
0B1C2:  MOVWF  01
0B1C4:  MOVLW  00
0B1C6:  ADDWFC x40,W
0B1C8:  MOVWF  03
0B1CA:  MOVF   01,W
0B1CC:  ADDLW  17
0B1CE:  MOVWF  FE9
0B1D0:  MOVLW  04
0B1D2:  ADDWFC 03,W
0B1D4:  MOVWF  FEA
0B1D6:  MOVFF  FEF,43F
0B1DA:  MOVFF  43F,446
0B1DE:  MOVLB  0
0B1E0:  CALL   4E64
0B1E4:  MOVFF  01,43F
0B1E8:  MOVLW  01
0B1EA:  MOVLB  3
0B1EC:  SUBWF  x42,W
0B1EE:  MULLW  0A
0B1F0:  MOVF   FF3,W
0B1F2:  MOVLB  4
0B1F4:  CLRF   x41
0B1F6:  MOVWF  x40
0B1F8:  MOVLW  03
0B1FA:  ADDWF  x40,W
0B1FC:  MOVWF  01
0B1FE:  MOVLW  00
0B200:  ADDWFC x41,W
0B202:  MOVWF  03
0B204:  MOVF   01,W
0B206:  ADDLW  17
0B208:  MOVWF  FE9
0B20A:  MOVLW  04
0B20C:  ADDWFC 03,W
0B20E:  MOVWF  FEA
0B210:  MOVFF  FEF,449
0B214:  MOVLW  0A
0B216:  MOVWF  x4A
0B218:  MOVLB  0
0B21A:  CALL   480E
0B21E:  MOVFF  01,440
0B222:  MOVLW  01
0B224:  MOVLB  3
0B226:  SUBWF  x42,W
0B228:  MULLW  0A
0B22A:  MOVF   FF3,W
0B22C:  MOVLB  4
0B22E:  CLRF   x42
0B230:  MOVWF  x41
0B232:  MOVLW  09
0B234:  ADDWF  x41,W
0B236:  MOVWF  01
0B238:  MOVLW  00
0B23A:  ADDWFC x42,W
0B23C:  MOVWF  03
0B23E:  MOVF   01,W
0B240:  ADDLW  17
0B242:  MOVWF  FE9
0B244:  MOVLW  04
0B246:  ADDWFC 03,W
0B248:  MOVWF  FEA
0B24A:  MOVFF  FEF,441
0B24E:  MOVFF  441,446
0B252:  MOVLB  0
0B254:  CALL   4E64
0B258:  MOVFF  01,441
0B25C:  MOVLW  01
0B25E:  MOVLB  3
0B260:  SUBWF  x42,W
0B262:  MULLW  0A
0B264:  MOVF   FF3,W
0B266:  MOVLB  4
0B268:  CLRF   x43
0B26A:  MOVWF  x42
0B26C:  MOVLW  09
0B26E:  ADDWF  x42,W
0B270:  MOVWF  01
0B272:  MOVLW  00
0B274:  ADDWFC x43,W
0B276:  MOVWF  03
0B278:  MOVF   01,W
0B27A:  ADDLW  17
0B27C:  MOVWF  FE9
0B27E:  MOVLW  04
0B280:  ADDWFC 03,W
0B282:  MOVWF  FEA
0B284:  MOVFF  FEF,449
0B288:  MOVLW  0A
0B28A:  MOVWF  x4A
0B28C:  MOVLB  0
0B28E:  CALL   480E
0B292:  MOVFF  01,442
0B296:  MOVLW  01
0B298:  MOVLB  3
0B29A:  SUBWF  x42,W
0B29C:  MULLW  0A
0B29E:  MOVF   FF3,W
0B2A0:  MOVLB  4
0B2A2:  CLRF   x44
0B2A4:  MOVWF  x43
0B2A6:  MOVLW  05
0B2A8:  ADDWF  x43,W
0B2AA:  MOVWF  01
0B2AC:  MOVLW  00
0B2AE:  ADDWFC x44,W
0B2B0:  MOVWF  03
0B2B2:  MOVF   01,W
0B2B4:  ADDLW  17
0B2B6:  MOVWF  FE9
0B2B8:  MOVLW  04
0B2BA:  ADDWFC 03,W
0B2BC:  MOVWF  FEA
0B2BE:  MOVFF  FEF,443
0B2C2:  MOVFF  443,446
0B2C6:  MOVLB  0
0B2C8:  CALL   4E64
0B2CC:  MOVFF  01,443
0B2D0:  MOVLW  01
0B2D2:  MOVLB  3
0B2D4:  SUBWF  x42,W
0B2D6:  MULLW  0A
0B2D8:  MOVF   FF3,W
0B2DA:  MOVLB  4
0B2DC:  CLRF   x45
0B2DE:  MOVWF  x44
0B2E0:  MOVLW  05
0B2E2:  ADDWF  x44,W
0B2E4:  MOVWF  01
0B2E6:  MOVLW  00
0B2E8:  ADDWFC x45,W
0B2EA:  MOVWF  03
0B2EC:  MOVF   01,W
0B2EE:  ADDLW  17
0B2F0:  MOVWF  FE9
0B2F2:  MOVLW  04
0B2F4:  ADDWFC 03,W
0B2F6:  MOVWF  FEA
0B2F8:  MOVFF  FEF,449
0B2FC:  MOVLW  0A
0B2FE:  MOVWF  x4A
0B300:  MOVLB  0
0B302:  CALL   480E
0B306:  MOVFF  01,444
0B30A:  MOVLW  01
0B30C:  MOVLB  3
0B30E:  SUBWF  x42,W
0B310:  MULLW  0A
0B312:  MOVF   FF3,W
0B314:  MOVLB  4
0B316:  CLRF   x46
0B318:  MOVWF  x45
0B31A:  MOVLW  04
0B31C:  ADDWF  x45,W
0B31E:  MOVWF  01
0B320:  MOVLW  00
0B322:  ADDWFC x46,W
0B324:  MOVWF  03
0B326:  MOVF   01,W
0B328:  ADDLW  17
0B32A:  MOVWF  FE9
0B32C:  MOVLW  04
0B32E:  ADDWFC 03,W
0B330:  MOVWF  FEA
0B332:  MOVFF  FEF,445
0B336:  MOVFF  445,446
0B33A:  MOVLB  0
0B33C:  CALL   4E64
0B340:  MOVFF  01,445
0B344:  MOVLW  01
0B346:  MOVLB  3
0B348:  SUBWF  x42,W
0B34A:  MULLW  0A
0B34C:  MOVF   FF3,W
0B34E:  MOVLB  4
0B350:  CLRF   x47
0B352:  MOVWF  x46
0B354:  MOVLW  04
0B356:  ADDWF  x46,W
0B358:  MOVWF  01
0B35A:  MOVLW  00
0B35C:  ADDWFC x47,W
0B35E:  MOVWF  03
0B360:  MOVF   01,W
0B362:  ADDLW  17
0B364:  MOVWF  FE9
0B366:  MOVLW  04
0B368:  ADDWFC 03,W
0B36A:  MOVWF  FEA
0B36C:  MOVFF  FEF,449
0B370:  MOVLW  0A
0B372:  MOVWF  x4A
0B374:  MOVLB  0
0B376:  CALL   480E
0B37A:  MOVFF  01,446
0B37E:  MOVLW  04
0B380:  MOVLB  3
0B382:  ADDWF  x42,W
0B384:  MOVLB  4
0B386:  MOVWF  x47
0B388:  MOVLW  01
0B38A:  MOVLB  3
0B38C:  SUBWF  x42,W
0B38E:  MULLW  0A
0B390:  MOVF   FF3,W
0B392:  MOVLB  4
0B394:  CLRF   x49
0B396:  MOVWF  x48
0B398:  MOVLW  17
0B39A:  ADDWF  x48,W
0B39C:  MOVWF  FE9
0B39E:  MOVLW  04
0B3A0:  ADDWFC x49,W
0B3A2:  MOVWF  FEA
0B3A4:  MOVFF  FEF,448
0B3A8:  MOVFF  43F,449
0B3AC:  MOVFF  440,44A
0B3B0:  MOVFF  441,44B
0B3B4:  MOVFF  442,44C
0B3B8:  MOVFF  443,44D
0B3BC:  MOVFF  444,44E
0B3C0:  MOVFF  445,44F
0B3C4:  MOVFF  01,450
0B3C8:  MOVLW  01
0B3CA:  MOVWF  x51
0B3CC:  MOVFF  447,452
0B3D0:  MOVFF  448,453
0B3D4:  MOVLB  0
0B3D6:  CALL   4B20
....................                NivelSeleccionado=4995*CiclosPersonalizados[CicloLibre-1].NivelDesfogue; 
0B3DA:  MOVLW  01
0B3DC:  MOVLB  3
0B3DE:  SUBWF  x42,W
0B3E0:  MULLW  0A
0B3E2:  MOVF   FF3,W
0B3E4:  MOVLB  4
0B3E6:  CLRF   x40
0B3E8:  MOVWF  x3F
0B3EA:  MOVLW  08
0B3EC:  ADDWF  x3F,W
0B3EE:  MOVWF  01
0B3F0:  MOVLW  00
0B3F2:  ADDWFC x40,W
0B3F4:  MOVWF  03
0B3F6:  MOVF   01,W
0B3F8:  ADDLW  17
0B3FA:  MOVWF  FE9
0B3FC:  MOVLW  04
0B3FE:  ADDWFC 03,W
0B400:  MOVWF  FEA
0B402:  MOVFF  FEF,43F
0B406:  MOVLW  13
0B408:  MOVWF  x49
0B40A:  MOVLW  83
0B40C:  MOVWF  x48
0B40E:  CLRF   x4B
0B410:  MOVFF  43F,44A
0B414:  MOVLB  0
0B416:  CALL   3920
0B41A:  MOVFF  02,384
0B41E:  MOVFF  01,383
0B422:  MOVLB  3
....................             } 
....................          } 
....................       } 
....................    } 
.................... //_--------------------------------------------------------------------------------------------------------------------------------------------------------        
....................  
.................... //_--------------------------------------------------------------------------------------------------------------------------------------------------------       
....................    if(Menu==12){//Menu de Visualizacion de Ciclos Realizados 
0B424:  MOVF   x62,W
0B426:  SUBLW  0C
0B428:  BTFSS  FD8.2
0B42A:  BRA    B97E
....................       //printf("fecha.txt=\"Fecha:%02u/%02u/20%02u    Hora: %02u:%02u\"",Dia,Mes,Year,Hora,Minuto); 
....................       //SendDataDisplay(); 
....................       GuardaEEPROM=OFF; 
0B42C:  MOVLB  0
0B42E:  BCF    xA2.4
....................       /*  
....................       i2c_start();            // Comienzo de la comunicacin 
....................       i2c_write(0xA0);   // Direccin del esclavo en el bus I2C 
....................       i2c_write(9);    // Posicin de donde se leer el dato en el esclavo 
....................       i2c_write(0);    // Posicin de donde se leer el dato en el esclavo 
....................       i2c_start();            // Reinicio 
....................       i2c_write(direccion+1); // Direccin del esclavo en modo lectura 
....................       dato=i2c_read(0);       // Lectura del dato 
....................       i2c_stop(); 
....................       */       
....................        
....................       if(RX_Buffer[6]==0x01){//01, Ciclos 
0B430:  DECFSZ 36,W
0B432:  BRA    B448
....................          printf("page MenuPrincipal"); 
0B434:  MOVLW  9E
0B436:  MOVWF  FF6
0B438:  MOVLW  10
0B43A:  MOVWF  FF7
0B43C:  MOVLW  00
0B43E:  MOVWF  FF8
0B440:  CALL   3842
....................          SendDataDisplay();      
0B444:  CALL   3874
....................       } 
....................        
....................       if(RX_Buffer[6]==0x02 || LEFT){//02, Izquierda 
0B448:  MOVF   36,W
0B44A:  SUBLW  02
0B44C:  BZ    B454
0B44E:  BSF    F93.3
0B450:  BTFSC  F81.3
0B452:  BRA    B4A2
....................          RX_Buffer[6]=0x00;   
0B454:  CLRF   36
....................          RX_Buffer2[6]=0x00; 
0B456:  CLRF   41
....................          if(cicloVisto>0) 
0B458:  MOVLB  2
0B45A:  MOVF   xE2,F
0B45C:  BZ    B460
....................             cicloVisto--; 
0B45E:  DECF   xE2,F
....................          printf("h0.val=%u",cicloVisto+1); 
0B460:  MOVLW  01
0B462:  ADDWF  xE2,W
0B464:  MOVLB  4
0B466:  MOVWF  x3F
0B468:  MOVLW  B2
0B46A:  MOVWF  FF6
0B46C:  MOVLW  10
0B46E:  MOVWF  FF7
0B470:  MOVLW  00
0B472:  MOVWF  FF8
0B474:  MOVLW  07
0B476:  MOVWF  x44
0B478:  MOVLB  0
0B47A:  CALL   47DC
0B47E:  MOVFF  43F,444
0B482:  MOVLW  1B
0B484:  MOVLB  4
0B486:  MOVWF  x45
0B488:  MOVLB  0
0B48A:  CALL   483A
....................          SendDataDisplay();      
0B48E:  CALL   3874
....................          actualizaTabla(); 
0B492:  CALL   4FF4
....................          delay_ms(10); 
0B496:  MOVLW  0A
0B498:  MOVLB  4
0B49A:  MOVWF  x54
0B49C:  MOVLB  0
0B49E:  CALL   19B0
....................       } 
....................        
....................       if(RX_Buffer[6]==0x03 || UP){//03, Arriba 
0B4A2:  MOVF   36,W
0B4A4:  SUBLW  03
0B4A6:  BZ    B4AE
0B4A8:  BSF    F93.0
0B4AA:  BTFSC  F81.0
0B4AC:  BRA    B4FE
....................          RX_Buffer[6]=0x00;   
0B4AE:  CLRF   36
....................          RX_Buffer2[6]=0x00; 
0B4B0:  CLRF   41
....................          if(cicloVisualizado<28) 
0B4B2:  MOVLB  2
0B4B4:  MOVF   xE3,W
0B4B6:  SUBLW  1B
0B4B8:  BNC   B4BC
....................             cicloVisualizado++; 
0B4BA:  INCF   xE3,F
....................          printf("h1.val=%u",cicloVisualizado+1); 
0B4BC:  MOVLW  01
0B4BE:  ADDWF  xE3,W
0B4C0:  MOVLB  4
0B4C2:  MOVWF  x3F
0B4C4:  MOVLW  BC
0B4C6:  MOVWF  FF6
0B4C8:  MOVLW  10
0B4CA:  MOVWF  FF7
0B4CC:  MOVLW  00
0B4CE:  MOVWF  FF8
0B4D0:  MOVLW  07
0B4D2:  MOVWF  x44
0B4D4:  MOVLB  0
0B4D6:  CALL   47DC
0B4DA:  MOVFF  43F,444
0B4DE:  MOVLW  1B
0B4E0:  MOVLB  4
0B4E2:  MOVWF  x45
0B4E4:  MOVLB  0
0B4E6:  CALL   483A
....................          SendDataDisplay();     
0B4EA:  CALL   3874
....................          actualizaTabla(); 
0B4EE:  CALL   4FF4
....................          delay_ms(10); 
0B4F2:  MOVLW  0A
0B4F4:  MOVLB  4
0B4F6:  MOVWF  x54
0B4F8:  MOVLB  0
0B4FA:  CALL   19B0
....................          //exportarData(); 
....................       } 
....................        
....................       if(RX_Buffer[6]==0x04 || DOWN){//04, Abajo 
0B4FE:  MOVF   36,W
0B500:  SUBLW  04
0B502:  BZ    B50A
0B504:  BSF    F93.1
0B506:  BTFSC  F81.1
0B508:  BRA    B558
....................          RX_Buffer[6]=0x00;   
0B50A:  CLRF   36
....................          RX_Buffer2[6]=0x00; 
0B50C:  CLRF   41
....................          if(cicloVisualizado>0) 
0B50E:  MOVLB  2
0B510:  MOVF   xE3,F
0B512:  BZ    B516
....................             cicloVisualizado--; 
0B514:  DECF   xE3,F
....................          printf("h1.val=%u",cicloVisualizado+1); 
0B516:  MOVLW  01
0B518:  ADDWF  xE3,W
0B51A:  MOVLB  4
0B51C:  MOVWF  x3F
0B51E:  MOVLW  C6
0B520:  MOVWF  FF6
0B522:  MOVLW  10
0B524:  MOVWF  FF7
0B526:  MOVLW  00
0B528:  MOVWF  FF8
0B52A:  MOVLW  07
0B52C:  MOVWF  x44
0B52E:  MOVLB  0
0B530:  CALL   47DC
0B534:  MOVFF  43F,444
0B538:  MOVLW  1B
0B53A:  MOVLB  4
0B53C:  MOVWF  x45
0B53E:  MOVLB  0
0B540:  CALL   483A
....................          SendDataDisplay();   
0B544:  CALL   3874
....................          actualizaTabla(); 
0B548:  CALL   4FF4
....................          delay_ms(10); 
0B54C:  MOVLW  0A
0B54E:  MOVLB  4
0B550:  MOVWF  x54
0B552:  MOVLB  0
0B554:  CALL   19B0
....................          //exportarData(); 
....................       } 
....................        
....................       if(RX_Buffer[6]==0x05 || RIGHT){//05, Derecha 
0B558:  MOVF   36,W
0B55A:  SUBLW  05
0B55C:  BZ    B564
0B55E:  BSF    F93.2
0B560:  BTFSC  F81.2
0B562:  BRA    B5B4
....................          RX_Buffer[6]=0x00;   
0B564:  CLRF   36
....................          RX_Buffer2[6]=0x00; 
0B566:  CLRF   41
....................          if(cicloVisto<200) 
0B568:  MOVLB  2
0B56A:  MOVF   xE2,W
0B56C:  SUBLW  C7
0B56E:  BNC   B572
....................             cicloVisto++; 
0B570:  INCF   xE2,F
....................          printf("h0.val=%u",cicloVisto+1); 
0B572:  MOVLW  01
0B574:  ADDWF  xE2,W
0B576:  MOVLB  4
0B578:  MOVWF  x3F
0B57A:  MOVLW  D0
0B57C:  MOVWF  FF6
0B57E:  MOVLW  10
0B580:  MOVWF  FF7
0B582:  MOVLW  00
0B584:  MOVWF  FF8
0B586:  MOVLW  07
0B588:  MOVWF  x44
0B58A:  MOVLB  0
0B58C:  CALL   47DC
0B590:  MOVFF  43F,444
0B594:  MOVLW  1B
0B596:  MOVLB  4
0B598:  MOVWF  x45
0B59A:  MOVLB  0
0B59C:  CALL   483A
....................          SendDataDisplay();   
0B5A0:  CALL   3874
....................          actualizaTabla(); 
0B5A4:  CALL   4FF4
....................          delay_ms(10); 
0B5A8:  MOVLW  0A
0B5AA:  MOVLB  4
0B5AC:  MOVWF  x54
0B5AE:  MOVLB  0
0B5B0:  CALL   19B0
....................          //exportarData(); 
....................       } 
....................        
....................       if(RX_Buffer[6]==0x06){//06, Imprime 
0B5B4:  MOVF   36,W
0B5B6:  SUBLW  06
0B5B8:  BNZ   B5D6
....................          RX_Buffer[6]=0x00;   
0B5BA:  CLRF   36
....................          RX_Buffer2[6]=0x00; 
0B5BC:  CLRF   41
....................          printf("t0.txt=\"!IMPRIMIENDO!\""); 
0B5BE:  MOVLW  DA
0B5C0:  MOVWF  FF6
0B5C2:  MOVLW  10
0B5C4:  MOVWF  FF7
0B5C6:  MOVLW  00
0B5C8:  MOVWF  FF8
0B5CA:  CALL   3842
....................          SendDataDisplay();  
0B5CE:  CALL   3874
....................          exportarData(); 
0B5D2:  GOTO   5688
....................       } 
....................        
....................       if(RX_Buffer[4]>0x00 || RX_Buffer[5]>0x00){ 
0B5D6:  MOVF   34,F
0B5D8:  BNZ   B5DE
0B5DA:  MOVF   35,F
0B5DC:  BZ    B5FA
....................          cicloVisualizado=RX_Buffer[4]-1; 
0B5DE:  MOVLW  01
0B5E0:  SUBWF  34,W
0B5E2:  MOVLB  2
0B5E4:  MOVWF  xE3
....................          cicloVisto=RX_Buffer[5]-1; 
0B5E6:  MOVLW  01
0B5E8:  SUBWF  35,W
0B5EA:  MOVWF  xE2
....................          RX_Buffer[4]=0x00; 
0B5EC:  CLRF   34
....................          RX_Buffer[5]=0x00; 
0B5EE:  CLRF   35
....................          RX_Buffer2[4]=0x00; 
0B5F0:  CLRF   3F
....................          RX_Buffer2[5]=0x00; 
0B5F2:  CLRF   40
....................          actualizaTabla(); 
0B5F4:  MOVLB  0
0B5F6:  CALL   4FF4
....................       } 
....................        
....................       //Imprime Valores Estaticos 
....................       printf("fecha.txt=\"%02u/%02u/%02u\"",diaCiclos,mesCiclos,yearCiclos); 
0B5FA:  MOVLW  F2
0B5FC:  MOVWF  FF6
0B5FE:  MOVLW  10
0B600:  MOVWF  FF7
0B602:  MOVLW  00
0B604:  MOVWF  FF8
0B606:  MOVLW  0B
0B608:  MOVLB  4
0B60A:  MOVWF  x44
0B60C:  MOVLB  0
0B60E:  CALL   47DC
0B612:  MOVFF  3C5,444
0B616:  MOVLW  01
0B618:  MOVLB  4
0B61A:  MOVWF  x45
0B61C:  MOVLB  0
0B61E:  CALL   483A
0B622:  MOVLW  2F
0B624:  BTFSS  F9E.4
0B626:  BRA    B624
0B628:  MOVWF  FAD
0B62A:  MOVFF  3C6,444
0B62E:  MOVLW  01
0B630:  MOVLB  4
0B632:  MOVWF  x45
0B634:  MOVLB  0
0B636:  CALL   483A
0B63A:  MOVLW  2F
0B63C:  BTFSS  F9E.4
0B63E:  BRA    B63C
0B640:  MOVWF  FAD
0B642:  MOVFF  3C7,444
0B646:  MOVLW  01
0B648:  MOVLB  4
0B64A:  MOVWF  x45
0B64C:  MOVLB  0
0B64E:  CALL   483A
0B652:  MOVLW  22
0B654:  BTFSS  F9E.4
0B656:  BRA    B654
0B658:  MOVWF  FAD
....................       SendDataDisplay(); 
0B65A:  CALL   3874
....................        
....................       printf("ciclo.txt=\"%02u\"",cicloCiclos); 
0B65E:  MOVLW  0E
0B660:  MOVWF  FF6
0B662:  MOVLW  11
0B664:  MOVWF  FF7
0B666:  MOVLW  00
0B668:  MOVWF  FF8
0B66A:  MOVLW  0B
0B66C:  MOVLB  4
0B66E:  MOVWF  x44
0B670:  MOVLB  0
0B672:  CALL   47DC
0B676:  MOVFF  3C9,444
0B67A:  MOVLW  01
0B67C:  MOVLB  4
0B67E:  MOVWF  x45
0B680:  MOVLB  0
0B682:  CALL   483A
0B686:  MOVLW  22
0B688:  BTFSS  F9E.4
0B68A:  BRA    B688
0B68C:  MOVWF  FAD
....................       SendDataDisplay(); 
0B68E:  CALL   3874
....................        
....................       printf("t0.txt=\"Ciclo %02u\"",cicloVisto); 
0B692:  MOVLW  20
0B694:  MOVWF  FF6
0B696:  MOVLW  11
0B698:  MOVWF  FF7
0B69A:  MOVLW  00
0B69C:  MOVWF  FF8
0B69E:  MOVLW  0E
0B6A0:  MOVLB  4
0B6A2:  MOVWF  x44
0B6A4:  MOVLB  0
0B6A6:  CALL   47DC
0B6AA:  MOVFF  2E2,444
0B6AE:  MOVLW  01
0B6B0:  MOVLB  4
0B6B2:  MOVWF  x45
0B6B4:  MOVLB  0
0B6B6:  CALL   483A
0B6BA:  MOVLW  22
0B6BC:  BTFSS  F9E.4
0B6BE:  BRA    B6BC
0B6C0:  MOVWF  FAD
....................       SendDataDisplay(); 
0B6C2:  CALL   3874
....................        
....................       printf("usuario.txt=\"---\""); 
0B6C6:  MOVLW  34
0B6C8:  MOVWF  FF6
0B6CA:  MOVLW  11
0B6CC:  MOVWF  FF7
0B6CE:  MOVLW  00
0B6D0:  MOVWF  FF8
0B6D2:  CALL   3842
....................       SendDataDisplay(); 
0B6D6:  CALL   3874
....................        
....................       //Imprime Valores Dinamicos 
....................       for(i=0;i<7;i++){ 
0B6DA:  MOVLB  3
0B6DC:  CLRF   x65
0B6DE:  MOVF   x65,W
0B6E0:  SUBLW  06
0B6E2:  BTFSS  FD8.0
0B6E4:  BRA    B97E
....................          printf("hora%u.txt=\"%02u.  %02u:%02u\"",i+1,cicloVisualizado+i+1,horaCiclos[i],minutoCiclos[i]); 
0B6E6:  MOVLW  01
0B6E8:  ADDWF  x65,W
0B6EA:  MOVLB  4
0B6EC:  MOVWF  x3F
0B6EE:  MOVLB  3
0B6F0:  MOVF   x65,W
0B6F2:  MOVLB  2
0B6F4:  ADDWF  xE3,W
0B6F6:  ADDLW  01
0B6F8:  MOVLB  4
0B6FA:  MOVWF  x40
0B6FC:  CLRF   03
0B6FE:  MOVLB  3
0B700:  MOVF   x65,W
0B702:  ADDLW  02
0B704:  MOVWF  FE9
0B706:  MOVLW  04
0B708:  ADDWFC 03,W
0B70A:  MOVWF  FEA
0B70C:  MOVFF  FEF,441
0B710:  CLRF   03
0B712:  MOVF   x65,W
0B714:  ADDLW  09
0B716:  MOVWF  FE9
0B718:  MOVLW  04
0B71A:  ADDWFC 03,W
0B71C:  MOVWF  FEA
0B71E:  MOVFF  FEF,442
0B722:  MOVLW  46
0B724:  MOVWF  FF6
0B726:  MOVLW  11
0B728:  MOVWF  FF7
0B72A:  MOVLW  00
0B72C:  MOVWF  FF8
0B72E:  MOVLW  04
0B730:  MOVLB  4
0B732:  MOVWF  x44
0B734:  MOVLB  0
0B736:  CALL   47DC
0B73A:  MOVFF  43F,444
0B73E:  MOVLW  1B
0B740:  MOVLB  4
0B742:  MOVWF  x45
0B744:  MOVLB  0
0B746:  CALL   483A
0B74A:  MOVLW  4C
0B74C:  MOVWF  FF6
0B74E:  MOVLW  11
0B750:  MOVWF  FF7
0B752:  MOVLW  00
0B754:  MOVWF  FF8
0B756:  MOVLW  06
0B758:  MOVLB  4
0B75A:  MOVWF  x44
0B75C:  MOVLB  0
0B75E:  CALL   47DC
0B762:  MOVFF  440,444
0B766:  MOVLW  01
0B768:  MOVLB  4
0B76A:  MOVWF  x45
0B76C:  MOVLB  0
0B76E:  CALL   483A
0B772:  MOVLW  2E
0B774:  BTFSS  F9E.4
0B776:  BRA    B774
0B778:  MOVWF  FAD
0B77A:  MOVLW  20
0B77C:  BTFSS  F9E.4
0B77E:  BRA    B77C
0B780:  MOVWF  FAD
0B782:  MOVLW  20
0B784:  BTFSS  F9E.4
0B786:  BRA    B784
0B788:  MOVWF  FAD
0B78A:  MOVFF  441,444
0B78E:  MOVLW  01
0B790:  MOVLB  4
0B792:  MOVWF  x45
0B794:  MOVLB  0
0B796:  CALL   483A
0B79A:  MOVLW  3A
0B79C:  BTFSS  F9E.4
0B79E:  BRA    B79C
0B7A0:  MOVWF  FAD
0B7A2:  MOVFF  442,444
0B7A6:  MOVLW  01
0B7A8:  MOVLB  4
0B7AA:  MOVWF  x45
0B7AC:  MOVLB  0
0B7AE:  CALL   483A
0B7B2:  MOVLW  22
0B7B4:  BTFSS  F9E.4
0B7B6:  BRA    B7B4
0B7B8:  MOVWF  FAD
....................          SendDataDisplay(); 
0B7BA:  CALL   3874
....................          printf("T%u.txt=\"%3.1fC\"",i+1,TCiclos[i]); 
0B7BE:  MOVLW  01
0B7C0:  MOVLB  3
0B7C2:  ADDWF  x65,W
0B7C4:  MOVLB  4
0B7C6:  MOVWF  x3F
0B7C8:  MOVLB  3
0B7CA:  MOVF   x65,W
0B7CC:  MULLW  04
0B7CE:  MOVF   FF3,W
0B7D0:  CLRF   03
0B7D2:  ADDLW  CA
0B7D4:  MOVWF  FE9
0B7D6:  MOVLW  03
0B7D8:  ADDWFC 03,W
0B7DA:  MOVWF  FEA
0B7DC:  MOVFF  FEF,440
0B7E0:  MOVFF  FEC,441
0B7E4:  MOVFF  FEC,442
0B7E8:  MOVFF  FEC,443
0B7EC:  MOVLW  54
0B7EE:  BTFSS  F9E.4
0B7F0:  BRA    B7EE
0B7F2:  MOVWF  FAD
0B7F4:  MOVFF  43F,444
0B7F8:  MOVLW  1B
0B7FA:  MOVLB  4
0B7FC:  MOVWF  x45
0B7FE:  MOVLB  0
0B800:  CALL   483A
0B804:  MOVLW  67
0B806:  MOVWF  FF6
0B808:  MOVLW  11
0B80A:  MOVWF  FF7
0B80C:  MOVLW  00
0B80E:  MOVWF  FF8
0B810:  MOVLW  06
0B812:  MOVLB  4
0B814:  MOVWF  x44
0B816:  MOVLB  0
0B818:  CALL   47DC
0B81C:  MOVLW  02
0B81E:  MOVWF  FE9
0B820:  MOVFF  443,447
0B824:  MOVFF  442,446
0B828:  MOVFF  441,445
0B82C:  MOVFF  440,444
0B830:  MOVLW  01
0B832:  MOVLB  4
0B834:  MOVWF  x48
0B836:  MOVLB  0
0B838:  CALL   497C
0B83C:  MOVLW  B0
0B83E:  BTFSS  F9E.4
0B840:  BRA    B83E
0B842:  MOVWF  FAD
0B844:  MOVLW  43
0B846:  BTFSS  F9E.4
0B848:  BRA    B846
0B84A:  MOVWF  FAD
0B84C:  MOVLW  22
0B84E:  BTFSS  F9E.4
0B850:  BRA    B84E
0B852:  MOVWF  FAD
....................          SendDataDisplay(); 
0B854:  CALL   3874
....................          printf("Pc%u.txt=\"%03LukPa\"",i+1,PcCiclos[i]); 
0B858:  MOVLW  01
0B85A:  MOVLB  3
0B85C:  ADDWF  x65,W
0B85E:  MOVLB  4
0B860:  MOVWF  x3F
0B862:  BCF    FD8.0
0B864:  MOVLB  3
0B866:  RLCF   x65,W
0B868:  CLRF   03
0B86A:  ADDLW  E6
0B86C:  MOVWF  FE9
0B86E:  MOVLW  03
0B870:  ADDWFC 03,W
0B872:  MOVWF  FEA
0B874:  MOVFF  FEC,441
0B878:  MOVF   FED,F
0B87A:  MOVFF  FEF,440
0B87E:  MOVLW  50
0B880:  BTFSS  F9E.4
0B882:  BRA    B880
0B884:  MOVWF  FAD
0B886:  MOVLW  63
0B888:  BTFSS  F9E.4
0B88A:  BRA    B888
0B88C:  MOVWF  FAD
0B88E:  MOVFF  43F,444
0B892:  MOVLW  1B
0B894:  MOVLB  4
0B896:  MOVWF  x45
0B898:  MOVLB  0
0B89A:  CALL   483A
0B89E:  MOVLW  7A
0B8A0:  MOVWF  FF6
0B8A2:  MOVLW  11
0B8A4:  MOVWF  FF7
0B8A6:  MOVLW  00
0B8A8:  MOVWF  FF8
0B8AA:  MOVLW  06
0B8AC:  MOVLB  4
0B8AE:  MOVWF  x44
0B8B0:  MOVLB  0
0B8B2:  CALL   47DC
0B8B6:  MOVLW  0A
0B8B8:  MOVWF  FE9
0B8BA:  MOVFF  441,444
0B8BE:  MOVFF  440,443
0B8C2:  CALL   4BA2
0B8C6:  MOVLW  85
0B8C8:  MOVWF  FF6
0B8CA:  MOVLW  11
0B8CC:  MOVWF  FF7
0B8CE:  MOVLW  00
0B8D0:  MOVWF  FF8
0B8D2:  MOVLW  04
0B8D4:  MOVLB  4
0B8D6:  MOVWF  x44
0B8D8:  MOVLB  0
0B8DA:  CALL   47DC
....................          SendDataDisplay(); 
0B8DE:  CALL   3874
....................          printf("Ppc%u.txt=\"%03LukPa\"",i+1,PpcCiclos[i]); 
0B8E2:  MOVLW  01
0B8E4:  MOVLB  3
0B8E6:  ADDWF  x65,W
0B8E8:  MOVLB  4
0B8EA:  MOVWF  x3F
0B8EC:  BCF    FD8.0
0B8EE:  MOVLB  3
0B8F0:  RLCF   x65,W
0B8F2:  CLRF   03
0B8F4:  ADDLW  F4
0B8F6:  MOVWF  FE9
0B8F8:  MOVLW  03
0B8FA:  ADDWFC 03,W
0B8FC:  MOVWF  FEA
0B8FE:  MOVFF  FEC,441
0B902:  MOVF   FED,F
0B904:  MOVFF  FEF,440
0B908:  MOVLW  50
0B90A:  BTFSS  F9E.4
0B90C:  BRA    B90A
0B90E:  MOVWF  FAD
0B910:  MOVLW  70
0B912:  BTFSS  F9E.4
0B914:  BRA    B912
0B916:  MOVWF  FAD
0B918:  MOVLW  63
0B91A:  BTFSS  F9E.4
0B91C:  BRA    B91A
0B91E:  MOVWF  FAD
0B920:  MOVFF  43F,444
0B924:  MOVLW  1B
0B926:  MOVLB  4
0B928:  MOVWF  x45
0B92A:  MOVLB  0
0B92C:  CALL   483A
0B930:  MOVLW  8F
0B932:  MOVWF  FF6
0B934:  MOVLW  11
0B936:  MOVWF  FF7
0B938:  MOVLW  00
0B93A:  MOVWF  FF8
0B93C:  MOVLW  06
0B93E:  MOVLB  4
0B940:  MOVWF  x44
0B942:  MOVLB  0
0B944:  CALL   47DC
0B948:  MOVLW  0A
0B94A:  MOVWF  FE9
0B94C:  MOVFF  441,444
0B950:  MOVFF  440,443
0B954:  CALL   4BA2
0B958:  MOVLW  9A
0B95A:  MOVWF  FF6
0B95C:  MOVLW  11
0B95E:  MOVWF  FF7
0B960:  MOVLW  00
0B962:  MOVWF  FF8
0B964:  MOVLW  04
0B966:  MOVLB  4
0B968:  MOVWF  x44
0B96A:  MOVLB  0
0B96C:  CALL   47DC
....................          SendDataDisplay();          
0B970:  CALL   3874
....................          codificaAlarma(); 
0B974:  GOTO   5A30
....................       }   
0B978:  MOVLB  3
0B97A:  INCF   x65,F
0B97C:  BRA    B6DE
....................    } 
.................... //_--------------------------------------------------------------------------------------------------------------------------------------------------------       
....................  
.................... //_--------------------------------------------------------------------------------------------------------------------------------------------------------       
....................     if(Menu==15){//Menu de Clave Correcta 
0B97E:  MOVF   x62,W
0B980:  SUBLW  0F
0B982:  BNZ   B9BA
....................       if(!entro){ 
0B984:  MOVLB  0
0B986:  BTFSC  xA3.7
0B988:  BRA    B9A4
....................          delay_ms(2000); 
0B98A:  MOVLW  08
0B98C:  MOVLB  4
0B98E:  MOVWF  x3F
0B990:  MOVLW  FA
0B992:  MOVWF  x54
0B994:  MOVLB  0
0B996:  CALL   19B0
0B99A:  MOVLB  4
0B99C:  DECFSZ x3F,F
0B99E:  BRA    B990
....................          entro=ON; 
0B9A0:  MOVLB  0
0B9A2:  BSF    xA3.7
....................       } 
....................       printf("page MenuPrincipal"); 
0B9A4:  MOVLW  A0
0B9A6:  MOVWF  FF6
0B9A8:  MOVLW  11
0B9AA:  MOVWF  FF7
0B9AC:  MOVLW  00
0B9AE:  MOVWF  FF8
0B9B0:  CALL   3842
....................       SendDataDisplay(); 
0B9B4:  CALL   3874
0B9B8:  MOVLB  3
....................    } 
.................... //_--------------------------------------------------------------------------------------------------------------------------------------------------------       
....................  
.................... //_--------------------------------------------------------------------------------------------------------------------------------------------------------       
....................     if(Menu==16){//Menu de Clave InCorrecta 
0B9BA:  MOVF   x62,W
0B9BC:  SUBLW  10
0B9BE:  BNZ   B9F6
....................       if(!entro){ 
0B9C0:  MOVLB  0
0B9C2:  BTFSC  xA3.7
0B9C4:  BRA    B9E0
....................          delay_ms(2000); 
0B9C6:  MOVLW  08
0B9C8:  MOVLB  4
0B9CA:  MOVWF  x3F
0B9CC:  MOVLW  FA
0B9CE:  MOVWF  x54
0B9D0:  MOVLB  0
0B9D2:  CALL   19B0
0B9D6:  MOVLB  4
0B9D8:  DECFSZ x3F,F
0B9DA:  BRA    B9CC
....................          entro=ON; 
0B9DC:  MOVLB  0
0B9DE:  BSF    xA3.7
....................       } 
....................       printf("page Clave"); 
0B9E0:  MOVLW  B4
0B9E2:  MOVWF  FF6
0B9E4:  MOVLW  11
0B9E6:  MOVWF  FF7
0B9E8:  MOVLW  00
0B9EA:  MOVWF  FF8
0B9EC:  CALL   3842
....................       SendDataDisplay(); 
0B9F0:  CALL   3874
0B9F4:  MOVLB  3
....................    } 
.................... //_--------------------------------------------------------------------------------------------------------------------------------------------------------       
....................  
.................... //_--------------------------------------------------------------------------------------------------------------------------------------------------------     
....................    if(Menu==20){ // Este es el menu de cuando el proceso se inicio. 
0B9F6:  MOVF   x62,W
0B9F8:  SUBLW  14
0B9FA:  BTFSS  FD8.2
0B9FC:  GOTO   CBCE
....................    //Lectura_Esclavos(); 
....................    GuardaDatoEstatico(); 
0BA00:  MOVLB  0
0BA02:  GOTO   60B6
....................    guardaCiclo=ON; 
0BA06:  BSF    xA4.2
....................    if(!Libre){ 
0BA08:  BTFSC  xA3.5
0BA0A:  BRA    BA90
....................       printf("t2f.txt=\"%u\"",CicloSeleccionado); 
0BA0C:  MOVLW  C0
0BA0E:  MOVWF  FF6
0BA10:  MOVLW  11
0BA12:  MOVWF  FF7
0BA14:  MOVLW  00
0BA16:  MOVWF  FF8
0BA18:  MOVLW  09
0BA1A:  MOVLB  4
0BA1C:  MOVWF  x44
0BA1E:  MOVLB  0
0BA20:  CALL   47DC
0BA24:  MOVFF  368,444
0BA28:  MOVLW  1B
0BA2A:  MOVLB  4
0BA2C:  MOVWF  x45
0BA2E:  MOVLB  0
0BA30:  CALL   483A
0BA34:  MOVLW  22
0BA36:  BTFSS  F9E.4
0BA38:  BRA    BA36
0BA3A:  MOVWF  FAD
....................       SendDataDisplay(); 
0BA3C:  CALL   3874
....................       printf("t3f.txt=\"%s\"",texto[CicloSeleccionado-1]); 
0BA40:  MOVLW  01
0BA42:  MOVLB  3
0BA44:  SUBWF  x68,W
0BA46:  MULLW  14
0BA48:  MOVF   FF3,W
0BA4A:  CLRF   03
0BA4C:  MOVLB  4
0BA4E:  MOVWF  x3F
0BA50:  MOVLW  CE
0BA52:  MOVWF  FF6
0BA54:  MOVLW  11
0BA56:  MOVWF  FF7
0BA58:  MOVLW  00
0BA5A:  MOVWF  FF8
0BA5C:  MOVLW  09
0BA5E:  MOVWF  x44
0BA60:  MOVLB  0
0BA62:  CALL   47DC
0BA66:  MOVLW  50
0BA68:  MOVWF  FF6
0BA6A:  MOVLW  01
0BA6C:  MOVWF  FF7
0BA6E:  MOVLW  00
0BA70:  MOVWF  FF8
0BA72:  MOVLB  4
0BA74:  MOVF   x3F,W
0BA76:  ADDWF  FF6,F
0BA78:  MOVLW  00
0BA7A:  ADDWFC FF7,F
0BA7C:  MOVLB  0
0BA7E:  CALL   3842
0BA82:  MOVLW  22
0BA84:  BTFSS  F9E.4
0BA86:  BRA    BA84
0BA88:  MOVWF  FAD
....................       SendDataDisplay(); 
0BA8A:  CALL   3874
....................    }else{ 
0BA8E:  BRA    BAE0
....................       printf("t2f.txt=\"%u\"",CicloLibre+4); 
0BA90:  MOVLW  04
0BA92:  MOVLB  3
0BA94:  ADDWF  x42,W
0BA96:  MOVLB  4
0BA98:  MOVWF  x3F
0BA9A:  MOVLW  DC
0BA9C:  MOVWF  FF6
0BA9E:  MOVLW  11
0BAA0:  MOVWF  FF7
0BAA2:  MOVLW  00
0BAA4:  MOVWF  FF8
0BAA6:  MOVLW  09
0BAA8:  MOVWF  x44
0BAAA:  MOVLB  0
0BAAC:  CALL   47DC
0BAB0:  MOVFF  43F,444
0BAB4:  MOVLW  1B
0BAB6:  MOVLB  4
0BAB8:  MOVWF  x45
0BABA:  MOVLB  0
0BABC:  CALL   483A
0BAC0:  MOVLW  22
0BAC2:  BTFSS  F9E.4
0BAC4:  BRA    BAC2
0BAC6:  MOVWF  FAD
....................       SendDataDisplay(); 
0BAC8:  CALL   3874
....................       printf("t3f.txt=\"Personalizado\""); 
0BACC:  MOVLW  EA
0BACE:  MOVWF  FF6
0BAD0:  MOVLW  11
0BAD2:  MOVWF  FF7
0BAD4:  MOVLW  00
0BAD6:  MOVWF  FF8
0BAD8:  CALL   3842
....................       SendDataDisplay(); 
0BADC:  CALL   3874
....................    } 
....................     
....................    if(RIGHT){ 
0BAE0:  BSF    F93.2
0BAE2:  BTFSC  F81.2
0BAE4:  BRA    BAFC
....................       //glcd_init(ON); 
....................       delay_ms(1000); 
0BAE6:  MOVLW  04
0BAE8:  MOVLB  4
0BAEA:  MOVWF  x3F
0BAEC:  MOVLW  FA
0BAEE:  MOVWF  x54
0BAF0:  MOVLB  0
0BAF2:  CALL   19B0
0BAF6:  MOVLB  4
0BAF8:  DECFSZ x3F,F
0BAFA:  BRA    BAEC
....................       /*flagCalentando=OFF; 
....................       flagDesfogando=OFF; 
....................       flagEsterilizando=OFF;*/ 
....................    } 
....................     
....................    if(PresionCamara>(int16)(Atmosferica)+242 || PresionPreCamara>(int16)(Atmosferica)+260){ 
0BAFC:  MOVLB  4
0BAFE:  CLRF   x40
0BB00:  MOVFF  3AE,43F
0BB04:  MOVLW  F2
0BB06:  ADDWF  x3F,W
0BB08:  MOVWF  01
0BB0A:  MOVLW  00
0BB0C:  ADDWFC x40,W
0BB0E:  MOVWF  03
0BB10:  MOVF   03,W
0BB12:  MOVLB  3
0BB14:  SUBWF  x7E,W
0BB16:  BNC   BB20
0BB18:  BNZ   BB44
0BB1A:  MOVF   x7D,W
0BB1C:  SUBWF  01,W
0BB1E:  BNC   BB44
0BB20:  MOVLB  4
0BB22:  CLRF   x40
0BB24:  MOVFF  3AE,43F
0BB28:  MOVLW  04
0BB2A:  ADDWF  x3F,W
0BB2C:  MOVWF  01
0BB2E:  MOVLW  01
0BB30:  ADDWFC x40,W
0BB32:  MOVWF  03
0BB34:  MOVF   03,W
0BB36:  MOVLB  3
0BB38:  SUBWF  x80,W
0BB3A:  BNC   BB48
0BB3C:  BNZ   BB44
0BB3E:  MOVF   x7F,W
0BB40:  SUBWF  01,W
0BB42:  BC    BB48
....................       AlarmaPresion=ON; 
0BB44:  MOVLB  0
0BB46:  BSF    xA3.4
....................    } 
....................     
....................    if(Temperatura>105 && PresionCamara<Atmosferica+10 && !Desfogando){ 
0BB48:  MOVLB  4
0BB4A:  CLRF   x46
0BB4C:  CLRF   x45
0BB4E:  MOVLW  52
0BB50:  MOVWF  x44
0BB52:  MOVLW  85
0BB54:  MOVWF  x43
0BB56:  MOVFF  32B,44A
0BB5A:  MOVFF  32A,449
0BB5E:  MOVFF  329,448
0BB62:  MOVFF  328,447
0BB66:  MOVLB  0
0BB68:  CALL   2CD2
0BB6C:  BNC   BB90
0BB6E:  MOVLW  0A
0BB70:  MOVLB  3
0BB72:  ADDWF  xAE,W
0BB74:  MOVF   x7E,F
0BB76:  BTFSC  FD8.2
0BB78:  BRA    BB7E
0BB7A:  MOVLB  0
0BB7C:  BRA    BB90
0BB7E:  SUBWF  x7D,W
0BB80:  BTFSS  FD8.0
0BB82:  BRA    BB88
0BB84:  MOVLB  0
0BB86:  BRA    BB90
0BB88:  MOVLB  0
0BB8A:  BTFSC  xA0.5
0BB8C:  BRA    BB90
....................       AlarmaCiclo=ON; 
0BB8E:  BSF    x9F.6
....................    } 
....................     
....................    if(TiempoCiclo>1800){ 
0BB90:  MOVF   xA6,W
0BB92:  SUBLW  06
0BB94:  BC    BBCA
0BB96:  XORLW  FF
0BB98:  BNZ   BBA0
0BB9A:  MOVF   xA5,W
0BB9C:  SUBLW  08
0BB9E:  BC    BBCA
....................       if(TiempoCiclo>3600) 
0BBA0:  MOVF   xA6,W
0BBA2:  SUBLW  0D
0BBA4:  BC    BBB2
0BBA6:  XORLW  FF
0BBA8:  BNZ   BBB0
0BBAA:  MOVF   xA5,W
0BBAC:  SUBLW  10
0BBAE:  BC    BBB2
....................          AlarmaTiempoProlongado=ON; 
0BBB0:  BSF    x9F.0
....................       if(PresionCamara<Atmosferica+10){ 
0BBB2:  MOVLW  0A
0BBB4:  MOVLB  3
0BBB6:  ADDWF  xAE,W
0BBB8:  MOVF   x7E,F
0BBBA:  BNZ   BBC6
0BBBC:  SUBWF  x7D,W
0BBBE:  BC    BBC6
....................          AlarmaTiempoProlongado=ON; 
0BBC0:  MOVLB  0
0BBC2:  BSF    x9F.0
0BBC4:  MOVLB  3
....................       } 
....................    }else{ 
0BBC6:  BRA    BBCC
0BBC8:  MOVLB  0
....................       AlarmaTiempoProlongado=OFF; 
0BBCA:  BCF    x9F.0
....................    } 
....................     
....................    if(Temperatura>Setpoint+4.0){ 
0BBCC:  MOVLB  4
0BBCE:  CLRF   x55
0BBD0:  MOVFF  36B,454
0BBD4:  MOVLB  0
0BBD6:  CALL   19D8
0BBDA:  BCF    FD8.1
0BBDC:  MOVFF  03,457
0BBE0:  MOVFF  02,456
0BBE4:  MOVFF  01,455
0BBE8:  MOVFF  00,454
0BBEC:  MOVLB  4
0BBEE:  CLRF   x5B
0BBF0:  CLRF   x5A
0BBF2:  CLRF   x59
0BBF4:  MOVLW  81
0BBF6:  MOVWF  x58
0BBF8:  MOVLB  0
0BBFA:  CALL   1B6C
0BBFE:  MOVFF  03,446
0BC02:  MOVFF  02,445
0BC06:  MOVFF  01,444
0BC0A:  MOVFF  00,443
0BC0E:  MOVFF  32B,44A
0BC12:  MOVFF  32A,449
0BC16:  MOVFF  329,448
0BC1A:  MOVFF  328,447
0BC1E:  CALL   2CD2
0BC22:  BNC   BC26
....................       AlarmaSobreTemperatura=ON; 
0BC24:  BSF    x9F.1
....................    } 
....................     
....................    if(TiempoLlenado>900){ 
0BC26:  MOVF   xA8,W
0BC28:  SUBLW  02
0BC2A:  BC    BC3A
0BC2C:  XORLW  FF
0BC2E:  BNZ   BC36
0BC30:  MOVF   xA7,W
0BC32:  SUBLW  84
0BC34:  BC    BC3A
....................       AlarmaLlenado=ON; 
0BC36:  BSF    x9F.2
....................    }else{ 
0BC38:  BRA    BC3C
....................       AlarmaLlenado=OFF; 
0BC3A:  BCF    x9F.2
....................    } 
....................     
....................    if(!TERM){ 
0BC3C:  BSF    F93.5
0BC3E:  BTFSS  F81.5
0BC40:  BRA    BC62
....................       delay_ms(1500); 
0BC42:  MOVLW  06
0BC44:  MOVLB  4
0BC46:  MOVWF  x3F
0BC48:  MOVLW  FA
0BC4A:  MOVWF  x54
0BC4C:  MOVLB  0
0BC4E:  CALL   19B0
0BC52:  MOVLB  4
0BC54:  DECFSZ x3F,F
0BC56:  BRA    BC48
....................       if(!TERM){ 
0BC58:  BSF    F93.5
0BC5A:  BTFSS  F81.5
0BC5C:  BRA    BC64
....................          AlarmaTermostato=ON; 
0BC5E:  MOVLB  0
0BC60:  BSF    x9F.3
0BC62:  MOVLB  4
....................       } 
....................    } 
....................     
....................    if(!DOOR){ 
0BC64:  BSF    F93.6
0BC66:  BTFSS  F81.6
0BC68:  BRA    BC7E
....................       //Desfogue_off; 
....................       //Solenoide_off; 
....................       //Agua_off; 
....................       //Bomba_off; 
....................       //Aire=OFF; 
....................       if(!Secando && !Finalizo && !Desfogando){ 
0BC6A:  MOVLB  0
0BC6C:  BTFSC  xA0.3
0BC6E:  BRA    BC7A
0BC70:  BTFSC  xA3.3
0BC72:  BRA    BC7A
0BC74:  BTFSC  xA0.5
0BC76:  BRA    BC7A
....................          AlarmaPuerta=ON; 
0BC78:  BSF    x9F.4
....................       } 
....................    }else{ 
0BC7A:  BRA    BC82
0BC7C:  MOVLB  4
....................       AlarmaPuerta=OFF; 
0BC7E:  MOVLB  0
0BC80:  BCF    x9F.4
....................    } 
....................  
....................    if(!STOP){ 
0BC82:  BSF    F93.7
0BC84:  BTFSS  F81.7
0BC86:  BRA    BC8A
....................       AlarmaEmergencia=ON; 
0BC88:  BSF    x9F.5
....................    } 
....................     
....................    if(AlarmaPuerta || AlarmaTermostato || AlarmaLlenado || AlarmaSobreTemperatura || AlarmaTiempoProlongado || AlarmaEmergencia || AlarmaPresion 
....................    || AlarmaCiclo){ 
0BC8A:  BTFSC  x9F.4
0BC8C:  BRA    BCAA
0BC8E:  BTFSC  x9F.3
0BC90:  BRA    BCAA
0BC92:  BTFSC  x9F.2
0BC94:  BRA    BCAA
0BC96:  BTFSC  x9F.1
0BC98:  BRA    BCAA
0BC9A:  BTFSC  x9F.0
0BC9C:  BRA    BCAA
0BC9E:  BTFSC  x9F.5
0BCA0:  BRA    BCAA
0BCA2:  BTFSC  xA3.4
0BCA4:  BRA    BCAA
0BCA6:  BTFSS  x9F.6
0BCA8:  BRA    C102
....................       ActivaAlarma(1); 
0BCAA:  MOVLW  01
0BCAC:  MOVLB  4
0BCAE:  MOVWF  x3F
0BCB0:  MOVLB  0
0BCB2:  CALL   46DA
....................       if(AlarmaEmergencia){ 
0BCB6:  BTFSS  x9F.5
0BCB8:  BRA    BD42
....................          printf("Funcionamiento.t4f.txt=\" Parada de Emergencia\""); 
0BCBA:  MOVLW  02
0BCBC:  MOVWF  FF6
0BCBE:  MOVLW  12
0BCC0:  MOVWF  FF7
0BCC2:  MOVLW  00
0BCC4:  MOVWF  FF8
0BCC6:  CALL   3842
....................          SendDataDisplay(); 
0BCCA:  CALL   3874
....................          printf("Funcionamiento.t5f.txt=\" Cancelado\""); 
0BCCE:  MOVLW  32
0BCD0:  MOVWF  FF6
0BCD2:  MOVLW  12
0BCD4:  MOVWF  FF7
0BCD6:  MOVLW  00
0BCD8:  MOVWF  FF8
0BCDA:  CALL   3842
....................          SendDataDisplay(); 
0BCDE:  CALL   3874
....................          Desfogue_on; 
0BCE2:  BSF    F8C.4
0BCE4:  BCF    F95.4
....................          SSR_off; 
0BCE6:  BSF    F8B.2
0BCE8:  BCF    F94.2
....................          Paso_off; 
0BCEA:  BCF    F8C.6
0BCEC:  BCF    F95.6
....................          Suministro_off; 
0BCEE:  BCF    F8C.5
0BCF0:  BCF    F95.5
....................          Aire=OFF; 
0BCF2:  BCF    xA4.0
....................          Esterilizando=OFF; 
0BCF4:  BCF    xA0.2
....................          Desfogando=OFF; 
0BCF6:  BCF    xA0.5
....................          DesfogueSuave=OFF; 
0BCF8:  BCF    xA0.6
....................          Esterilizando=OFF; 
0BCFA:  BCF    xA0.2
....................          //IniciaCiclo=OFF; 
....................          Controlando=0; 
0BCFC:  MOVLB  3
0BCFE:  CLRF   x5A
....................          codigoAlarma=1; 
0BD00:  MOVLW  01
0BD02:  MOVLB  2
0BD04:  MOVWF  xE6
....................          if(codigoAnt!=codigoAlarma){ 
0BD06:  MOVF   xE6,W
0BD08:  SUBWF  xE7,W
0BD0A:  BZ    BD1A
....................             codigoAnt=codigoAlarma; 
0BD0C:  MOVFF  2E6,2E7
....................             GuardaDatoCiclo(); 
0BD10:  MOVLB  0
0BD12:  CALL   6372
....................             incrementaCiclos(); 
0BD16:  CALL   6716
....................          } 
....................          if(!flagImprimir){ 
0BD1A:  MOVLB  3
0BD1C:  BTFSC  x57.1
0BD1E:  BRA    BD3E
....................             Imprime=20; 
0BD20:  MOVLW  14
0BD22:  MOVWF  xAD
....................             Envio_Esclavos(); 
0BD24:  MOVLB  0
0BD26:  CALL   4268
....................             delay_ms(100); 
0BD2A:  MOVLW  64
0BD2C:  MOVLB  4
0BD2E:  MOVWF  x54
0BD30:  MOVLB  0
0BD32:  CALL   19B0
....................             Imprime=10; 
0BD36:  MOVLW  0A
0BD38:  MOVLB  3
0BD3A:  MOVWF  xAD
....................             flagImprimir=1; 
0BD3C:  BSF    x57.1
....................          } 
....................       }else if(AlarmaPuerta){ 
0BD3E:  BRA    C0FC
0BD40:  MOVLB  0
0BD42:  BTFSS  x9F.4
0BD44:  BRA    BDA6
....................             codigoAlarma=2; 
0BD46:  MOVLW  02
0BD48:  MOVLB  2
0BD4A:  MOVWF  xE6
....................             printf("Funcionamiento.t4f.txt=\" Puerta Abierta\""); 
0BD4C:  MOVLW  56
0BD4E:  MOVWF  FF6
0BD50:  MOVLW  12
0BD52:  MOVWF  FF7
0BD54:  MOVLW  00
0BD56:  MOVWF  FF8
0BD58:  MOVLB  0
0BD5A:  CALL   3842
....................             SendDataDisplay(); 
0BD5E:  CALL   3874
....................             printf("Funcionamiento.t5f.txt=\" Pausado\""); 
0BD62:  MOVLW  80
0BD64:  MOVWF  FF6
0BD66:  MOVLW  12
0BD68:  MOVWF  FF7
0BD6A:  MOVLW  00
0BD6C:  MOVWF  FF8
0BD6E:  CALL   3842
....................             SendDataDisplay(); 
0BD72:  CALL   3874
....................             SSR_off; 
0BD76:  BSF    F8B.2
0BD78:  BCF    F94.2
....................             Paso_off; 
0BD7A:  BCF    F8C.6
0BD7C:  BCF    F95.6
....................          Suministro_off; 
0BD7E:  BCF    F8C.5
0BD80:  BCF    F95.5
....................             Aire=OFF; 
0BD82:  BCF    xA4.0
....................             IniciaLlenado=OFF; 
0BD84:  BCF    x9F.7
....................             IniciaCiclo=OFF; 
0BD86:  BCF    xA0.1
....................             Esterilizando=OFF; 
0BD88:  BCF    xA0.2
....................             Controlando=0; 
0BD8A:  MOVLB  3
0BD8C:  CLRF   x5A
....................             if(codigoAnt!=codigoAlarma){ 
0BD8E:  MOVLB  2
0BD90:  MOVF   xE6,W
0BD92:  SUBWF  xE7,W
0BD94:  BZ    BDA2
....................                codigoAnt=codigoAlarma; 
0BD96:  MOVFF  2E6,2E7
....................                GuardaDatoCiclo(); 
0BD9A:  MOVLB  0
0BD9C:  CALL   6372
0BDA0:  MOVLB  2
....................                //incrementaCiclos(); 
....................             } 
....................       }else if(AlarmaLlenado){ 
0BDA2:  BRA    C0FE
0BDA4:  MOVLB  0
0BDA6:  BTFSS  x9F.2
0BDA8:  BRA    BE34
....................             codigoAlarma=8; 
0BDAA:  MOVLW  08
0BDAC:  MOVLB  2
0BDAE:  MOVWF  xE6
....................             printf("Funcionamiento.t4f.txt=\" Tiempo Llenado\""); 
0BDB0:  MOVLW  A2
0BDB2:  MOVWF  FF6
0BDB4:  MOVLW  12
0BDB6:  MOVWF  FF7
0BDB8:  MOVLW  00
0BDBA:  MOVWF  FF8
0BDBC:  MOVLB  0
0BDBE:  CALL   3842
....................             SendDataDisplay(); 
0BDC2:  CALL   3874
....................             printf("Funcionamiento.t5f.txt=\" Cancelado\""); 
0BDC6:  MOVLW  CC
0BDC8:  MOVWF  FF6
0BDCA:  MOVLW  12
0BDCC:  MOVWF  FF7
0BDCE:  MOVLW  00
0BDD0:  MOVWF  FF8
0BDD2:  CALL   3842
....................             SendDataDisplay(); 
0BDD6:  CALL   3874
....................             Desfogue_off; 
0BDDA:  BCF    F8C.4
0BDDC:  BCF    F95.4
....................             SSR_off; 
0BDDE:  BSF    F8B.2
0BDE0:  BCF    F94.2
....................             Paso_off; 
0BDE2:  BCF    F8C.6
0BDE4:  BCF    F95.6
....................             Suministro_off; 
0BDE6:  BCF    F8C.5
0BDE8:  BCF    F95.5
....................             Aire=OFF; 
0BDEA:  BCF    xA4.0
....................             IniciaLlenado=OFF; 
0BDEC:  BCF    x9F.7
....................             IniciaCiclo=OFF; 
0BDEE:  BCF    xA0.1
....................             Esterilizando=OFF; 
0BDF0:  BCF    xA0.2
....................             Controlando=0; 
0BDF2:  MOVLB  3
0BDF4:  CLRF   x5A
....................             if(codigoAnt!=codigoAlarma){ 
0BDF6:  MOVLB  2
0BDF8:  MOVF   xE6,W
0BDFA:  SUBWF  xE7,W
0BDFC:  BZ    BE0C
....................                codigoAnt=codigoAlarma; 
0BDFE:  MOVFF  2E6,2E7
....................                GuardaDatoCiclo(); 
0BE02:  MOVLB  0
0BE04:  CALL   6372
....................                incrementaCiclos(); 
0BE08:  CALL   6716
....................             } 
....................             if(!flagImprimir){ 
0BE0C:  MOVLB  3
0BE0E:  BTFSC  x57.1
0BE10:  BRA    BE30
....................                Imprime=21; 
0BE12:  MOVLW  15
0BE14:  MOVWF  xAD
....................                Envio_Esclavos(); 
0BE16:  MOVLB  0
0BE18:  CALL   4268
....................                delay_ms(100); 
0BE1C:  MOVLW  64
0BE1E:  MOVLB  4
0BE20:  MOVWF  x54
0BE22:  MOVLB  0
0BE24:  CALL   19B0
....................                Imprime=10; 
0BE28:  MOVLW  0A
0BE2A:  MOVLB  3
0BE2C:  MOVWF  xAD
....................                flagImprimir=1; 
0BE2E:  BSF    x57.1
....................             } 
....................       }else if(AlarmaTermostato){ // Alarma de Termostato 
0BE30:  BRA    C0FC
0BE32:  MOVLB  0
0BE34:  BTFSS  x9F.3
0BE36:  BRA    BEC8
....................             codigoAlarma=3; 
0BE38:  MOVLW  03
0BE3A:  MOVLB  2
0BE3C:  MOVWF  xE6
....................             tiempo_esterilizacion=0;tiempo_secado=0; 
0BE3E:  MOVLB  3
0BE40:  CLRF   x6E
0BE42:  CLRF   x6F
....................             printf("Funcionamiento.t4f.txt=\" Termostato\""); 
0BE44:  MOVLW  F0
0BE46:  MOVWF  FF6
0BE48:  MOVLW  12
0BE4A:  MOVWF  FF7
0BE4C:  MOVLW  00
0BE4E:  MOVWF  FF8
0BE50:  MOVLB  0
0BE52:  CALL   3842
....................             SendDataDisplay(); 
0BE56:  CALL   3874
....................             printf("Funcionamiento.t5f.txt=\" Cancelado\""); 
0BE5A:  MOVLW  16
0BE5C:  MOVWF  FF6
0BE5E:  MOVLW  13
0BE60:  MOVWF  FF7
0BE62:  MOVLW  00
0BE64:  MOVWF  FF8
0BE66:  CALL   3842
....................             SendDataDisplay(); 
0BE6A:  CALL   3874
....................             Desfogue_on;             
0BE6E:  BSF    F8C.4
0BE70:  BCF    F95.4
....................             SSR_off; 
0BE72:  BSF    F8B.2
0BE74:  BCF    F94.2
....................             Paso_off; 
0BE76:  BCF    F8C.6
0BE78:  BCF    F95.6
....................             Suministro_off; 
0BE7A:  BCF    F8C.5
0BE7C:  BCF    F95.5
....................             Aire=OFF; 
0BE7E:  BCF    xA4.0
....................             Esterilizando=OFF; 
0BE80:  BCF    xA0.2
....................             Desfogando=OFF; 
0BE82:  BCF    xA0.5
....................             IniciaCiclo=OFF; 
0BE84:  BCF    xA0.1
....................             Controlando=0; 
0BE86:  MOVLB  3
0BE88:  CLRF   x5A
....................             if(codigoAnt!=codigoAlarma){ 
0BE8A:  MOVLB  2
0BE8C:  MOVF   xE6,W
0BE8E:  SUBWF  xE7,W
0BE90:  BZ    BEA0
....................                codigoAnt=codigoAlarma; 
0BE92:  MOVFF  2E6,2E7
....................                GuardaDatoCiclo(); 
0BE96:  MOVLB  0
0BE98:  CALL   6372
....................                incrementaCiclos(); 
0BE9C:  CALL   6716
....................             } 
....................             if(!flagImprimir){ 
0BEA0:  MOVLB  3
0BEA2:  BTFSC  x57.1
0BEA4:  BRA    BEC4
....................                Imprime=22; 
0BEA6:  MOVLW  16
0BEA8:  MOVWF  xAD
....................                Envio_Esclavos(); 
0BEAA:  MOVLB  0
0BEAC:  CALL   4268
....................                delay_ms(100); 
0BEB0:  MOVLW  64
0BEB2:  MOVLB  4
0BEB4:  MOVWF  x54
0BEB6:  MOVLB  0
0BEB8:  CALL   19B0
....................                Imprime=10; 
0BEBC:  MOVLW  0A
0BEBE:  MOVLB  3
0BEC0:  MOVWF  xAD
....................                flagImprimir=1; 
0BEC2:  BSF    x57.1
....................             } 
....................       }else if(AlarmaSobreTemperatura){ // Alarma de Sobre Temperatura 
0BEC4:  BRA    C0FC
0BEC6:  MOVLB  0
0BEC8:  BTFSS  x9F.1
0BECA:  BRA    BF5E
....................          codigoAlarma=4; 
0BECC:  MOVLW  04
0BECE:  MOVLB  2
0BED0:  MOVWF  xE6
....................          tiempo_esterilizacion=0;tiempo_secado=0; 
0BED2:  MOVLB  3
0BED4:  CLRF   x6E
0BED6:  CLRF   x6F
....................          printf("Funcionamiento.t4f.txt=\" Sobretemperatura\""); 
0BED8:  MOVLW  3A
0BEDA:  MOVWF  FF6
0BEDC:  MOVLW  13
0BEDE:  MOVWF  FF7
0BEE0:  MOVLW  00
0BEE2:  MOVWF  FF8
0BEE4:  MOVLB  0
0BEE6:  CALL   3842
....................          SendDataDisplay(); 
0BEEA:  CALL   3874
....................          printf("Funcionamiento.t5f.txt=\" Cancelado\""); 
0BEEE:  MOVLW  66
0BEF0:  MOVWF  FF6
0BEF2:  MOVLW  13
0BEF4:  MOVWF  FF7
0BEF6:  MOVLW  00
0BEF8:  MOVWF  FF8
0BEFA:  CALL   3842
....................          SendDataDisplay();   
0BEFE:  CALL   3874
....................          Desfogue_on; 
0BF02:  BSF    F8C.4
0BF04:  BCF    F95.4
....................          SSR_off; 
0BF06:  BSF    F8B.2
0BF08:  BCF    F94.2
....................          Paso_off; 
0BF0A:  BCF    F8C.6
0BF0C:  BCF    F95.6
....................          Suministro_off; 
0BF0E:  BCF    F8C.5
0BF10:  BCF    F95.5
....................          Aire=OFF; 
0BF12:  BCF    xA4.0
....................          Controlando=0; 
0BF14:  MOVLB  3
0BF16:  CLRF   x5A
....................          IniciaLlenado=OFF; 
0BF18:  MOVLB  0
0BF1A:  BCF    x9F.7
....................          IniciaCiclo=OFF; 
0BF1C:  BCF    xA0.1
....................          Esterilizando=OFF; 
0BF1E:  BCF    xA0.2
....................          if(codigoAnt!=codigoAlarma){ 
0BF20:  MOVLB  2
0BF22:  MOVF   xE6,W
0BF24:  SUBWF  xE7,W
0BF26:  BZ    BF36
....................             codigoAnt=codigoAlarma; 
0BF28:  MOVFF  2E6,2E7
....................             GuardaDatoCiclo(); 
0BF2C:  MOVLB  0
0BF2E:  CALL   6372
....................             incrementaCiclos(); 
0BF32:  CALL   6716
....................          } 
....................          if(!flagImprimir){ 
0BF36:  MOVLB  3
0BF38:  BTFSC  x57.1
0BF3A:  BRA    BF5A
....................             Imprime=23; 
0BF3C:  MOVLW  17
0BF3E:  MOVWF  xAD
....................             Envio_Esclavos(); 
0BF40:  MOVLB  0
0BF42:  CALL   4268
....................             delay_ms(100); 
0BF46:  MOVLW  64
0BF48:  MOVLB  4
0BF4A:  MOVWF  x54
0BF4C:  MOVLB  0
0BF4E:  CALL   19B0
....................             Imprime=10; 
0BF52:  MOVLW  0A
0BF54:  MOVLB  3
0BF56:  MOVWF  xAD
....................             flagImprimir=1; 
0BF58:  BSF    x57.1
....................          } 
....................       }else if(AlarmaTiempoProlongado){ // Alarma de Error de Tiempo: Error por exceso de tiempo de calentamiento. 
0BF5A:  BRA    C0FC
0BF5C:  MOVLB  0
0BF5E:  BTFSS  x9F.0
0BF60:  BRA    BFEE
....................          codigoAlarma=5; 
0BF62:  MOVLW  05
0BF64:  MOVLB  2
0BF66:  MOVWF  xE6
....................          printf("Funcionamiento.t4f.txt=\" Tiempo Prolongado\""); 
0BF68:  MOVLW  8A
0BF6A:  MOVWF  FF6
0BF6C:  MOVLW  13
0BF6E:  MOVWF  FF7
0BF70:  MOVLW  00
0BF72:  MOVWF  FF8
0BF74:  MOVLB  0
0BF76:  CALL   3842
....................          SendDataDisplay(); 
0BF7A:  CALL   3874
....................          printf("Funcionamiento.t5f.txt=\" Cancelado\""); 
0BF7E:  MOVLW  B6
0BF80:  MOVWF  FF6
0BF82:  MOVLW  13
0BF84:  MOVWF  FF7
0BF86:  MOVLW  00
0BF88:  MOVWF  FF8
0BF8A:  CALL   3842
....................          SendDataDisplay(); 
0BF8E:  CALL   3874
....................          Desfogue_on; 
0BF92:  BSF    F8C.4
0BF94:  BCF    F95.4
....................          SSR_off; 
0BF96:  BSF    F8B.2
0BF98:  BCF    F94.2
....................          Paso_off; 
0BF9A:  BCF    F8C.6
0BF9C:  BCF    F95.6
....................          Suministro_off; 
0BF9E:  BCF    F8C.5
0BFA0:  BCF    F95.5
....................          Aire=OFF; 
0BFA2:  BCF    xA4.0
....................          Controlando=0; 
0BFA4:  MOVLB  3
0BFA6:  CLRF   x5A
....................          IniciaLlenado=OFF; 
0BFA8:  MOVLB  0
0BFAA:  BCF    x9F.7
....................          IniciaCiclo=OFF; 
0BFAC:  BCF    xA0.1
....................          Esterilizando=OFF; 
0BFAE:  BCF    xA0.2
....................          if(codigoAnt!=codigoAlarma){ 
0BFB0:  MOVLB  2
0BFB2:  MOVF   xE6,W
0BFB4:  SUBWF  xE7,W
0BFB6:  BZ    BFC6
....................             codigoAnt=codigoAlarma; 
0BFB8:  MOVFF  2E6,2E7
....................             GuardaDatoCiclo(); 
0BFBC:  MOVLB  0
0BFBE:  CALL   6372
....................             incrementaCiclos(); 
0BFC2:  CALL   6716
....................          } 
....................          if(!flagImprimir){ 
0BFC6:  MOVLB  3
0BFC8:  BTFSC  x57.1
0BFCA:  BRA    BFEA
....................             Imprime=24; 
0BFCC:  MOVLW  18
0BFCE:  MOVWF  xAD
....................             Envio_Esclavos(); 
0BFD0:  MOVLB  0
0BFD2:  CALL   4268
....................             delay_ms(100); 
0BFD6:  MOVLW  64
0BFD8:  MOVLB  4
0BFDA:  MOVWF  x54
0BFDC:  MOVLB  0
0BFDE:  CALL   19B0
....................             Imprime=10; 
0BFE2:  MOVLW  0A
0BFE4:  MOVLB  3
0BFE6:  MOVWF  xAD
....................             flagImprimir=1; 
0BFE8:  BSF    x57.1
....................          } 
....................       }else if(AlarmaPresion){ // Alarma de Error de SobrePresion: Error por exceso de Presion. 
0BFEA:  BRA    C0FC
0BFEC:  MOVLB  0
0BFEE:  BTFSS  xA3.4
0BFF0:  BRA    C07C
....................          codigoAlarma=6; 
0BFF2:  MOVLW  06
0BFF4:  MOVLB  2
0BFF6:  MOVWF  xE6
....................          printf("Funcionamiento.t4f.txt=\" SobrePresion\""); 
0BFF8:  MOVLW  DA
0BFFA:  MOVWF  FF6
0BFFC:  MOVLW  13
0BFFE:  MOVWF  FF7
0C000:  MOVLW  00
0C002:  MOVWF  FF8
0C004:  MOVLB  0
0C006:  CALL   3842
....................          SendDataDisplay(); 
0C00A:  CALL   3874
....................          printf("Funcionamiento.t5f.txt=\" Cancelado\""); 
0C00E:  MOVLW  02
0C010:  MOVWF  FF6
0C012:  MOVLW  14
0C014:  MOVWF  FF7
0C016:  MOVLW  00
0C018:  MOVWF  FF8
0C01A:  CALL   3842
....................          SendDataDisplay(); 
0C01E:  CALL   3874
....................          Desfogue_on; 
0C022:  BSF    F8C.4
0C024:  BCF    F95.4
....................          SSR_off; 
0C026:  BSF    F8B.2
0C028:  BCF    F94.2
....................          IniciaLlenado=OFF; 
0C02A:  BCF    x9F.7
....................          IniciaCiclo=OFF; 
0C02C:  BCF    xA0.1
....................          Esterilizando=OFF; 
0C02E:  BCF    xA0.2
....................          Paso_off; 
0C030:  BCF    F8C.6
0C032:  BCF    F95.6
....................          Suministro_off; 
0C034:  BCF    F8C.5
0C036:  BCF    F95.5
....................          Aire=OFF; 
0C038:  BCF    xA4.0
....................          Controlando=0; 
0C03A:  MOVLB  3
0C03C:  CLRF   x5A
....................          if(codigoAnt!=codigoAlarma){ 
0C03E:  MOVLB  2
0C040:  MOVF   xE6,W
0C042:  SUBWF  xE7,W
0C044:  BZ    C054
....................             codigoAnt=codigoAlarma; 
0C046:  MOVFF  2E6,2E7
....................             GuardaDatoCiclo(); 
0C04A:  MOVLB  0
0C04C:  CALL   6372
....................             incrementaCiclos(); 
0C050:  CALL   6716
....................          } 
....................          if(!flagImprimir){ 
0C054:  MOVLB  3
0C056:  BTFSC  x57.1
0C058:  BRA    C078
....................             Imprime=25; 
0C05A:  MOVLW  19
0C05C:  MOVWF  xAD
....................             Envio_Esclavos(); 
0C05E:  MOVLB  0
0C060:  CALL   4268
....................             delay_ms(100); 
0C064:  MOVLW  64
0C066:  MOVLB  4
0C068:  MOVWF  x54
0C06A:  MOVLB  0
0C06C:  CALL   19B0
....................             Imprime=10; 
0C070:  MOVLW  0A
0C072:  MOVLB  3
0C074:  MOVWF  xAD
....................             flagImprimir=1; 
0C076:  BSF    x57.1
....................          } 
....................       }else if(AlarmaCiclo){ // Alarma de Error de SobrePresion: Error por exceso de Presion. 
0C078:  BRA    C0FC
0C07A:  MOVLB  0
0C07C:  BTFSS  x9F.6
0C07E:  BRA    C0FC
....................          codigoAlarma=7; 
0C080:  MOVLW  07
0C082:  MOVLB  2
0C084:  MOVWF  xE6
....................          printf("Funcionamiento.t4f.txt=\" Error Ciclo\""); 
0C086:  MOVLW  26
0C088:  MOVWF  FF6
0C08A:  MOVLW  14
0C08C:  MOVWF  FF7
0C08E:  MOVLW  00
0C090:  MOVWF  FF8
0C092:  MOVLB  0
0C094:  CALL   3842
....................          SendDataDisplay(); 
0C098:  CALL   3874
....................          printf("Funcionamiento.t5f.txt=\" Cancelado\""); 
0C09C:  MOVLW  4C
0C09E:  MOVWF  FF6
0C0A0:  MOVLW  14
0C0A2:  MOVWF  FF7
0C0A4:  MOVLW  00
0C0A6:  MOVWF  FF8
0C0A8:  CALL   3842
....................          SendDataDisplay(); 
0C0AC:  CALL   3874
....................          Desfogue_on; 
0C0B0:  BSF    F8C.4
0C0B2:  BCF    F95.4
....................          SSR_off; 
0C0B4:  BSF    F8B.2
0C0B6:  BCF    F94.2
....................          IniciaLlenado=OFF; 
0C0B8:  BCF    x9F.7
....................          IniciaCiclo=OFF; 
0C0BA:  BCF    xA0.1
....................          Esterilizando=OFF; 
0C0BC:  BCF    xA0.2
....................          Controlando=0; 
0C0BE:  MOVLB  3
0C0C0:  CLRF   x5A
....................          if(codigoAnt!=codigoAlarma){ 
0C0C2:  MOVLB  2
0C0C4:  MOVF   xE6,W
0C0C6:  SUBWF  xE7,W
0C0C8:  BZ    C0D8
....................             codigoAnt=codigoAlarma; 
0C0CA:  MOVFF  2E6,2E7
....................             GuardaDatoCiclo(); 
0C0CE:  MOVLB  0
0C0D0:  CALL   6372
....................             incrementaCiclos(); 
0C0D4:  CALL   6716
....................          } 
....................          if(!flagImprimir){ 
0C0D8:  MOVLB  3
0C0DA:  BTFSC  x57.1
0C0DC:  BRA    C0FC
....................             Imprime=26; 
0C0DE:  MOVLW  1A
0C0E0:  MOVWF  xAD
....................             Envio_Esclavos(); 
0C0E2:  MOVLB  0
0C0E4:  CALL   4268
....................             delay_ms(100); 
0C0E8:  MOVLW  64
0C0EA:  MOVLB  4
0C0EC:  MOVWF  x54
0C0EE:  MOVLB  0
0C0F0:  CALL   19B0
....................             Imprime=10; 
0C0F4:  MOVLW  0A
0C0F6:  MOVLB  3
0C0F8:  MOVWF  xAD
....................             flagImprimir=1; 
0C0FA:  BSF    x57.1
0C0FC:  MOVLB  2
....................          } 
....................       } 
....................    } 
....................    else{   
0C0FE:  BRA    C716
0C100:  MOVLB  0
....................       Buzzer_off; 
0C102:  BCF    F8C.0
0C104:  BCF    F95.0
....................       IniciaCiclo=ON; 
0C106:  BSF    xA0.1
....................       if(flagImprime){ 
0C108:  MOVLB  3
0C10A:  BTFSS  x57.0
0C10C:  BRA    C12C
....................          Imprime=5; 
0C10E:  MOVLW  05
0C110:  MOVWF  xAD
....................          Envio_Esclavos(); 
0C112:  MOVLB  0
0C114:  CALL   4268
....................          delay_ms(100); 
0C118:  MOVLW  64
0C11A:  MOVLB  4
0C11C:  MOVWF  x54
0C11E:  MOVLB  0
0C120:  CALL   19B0
....................          Imprime=10; 
0C124:  MOVLW  0A
0C126:  MOVLB  3
0C128:  MOVWF  xAD
....................          flagImprime=0; 
0C12A:  BCF    x57.0
....................       } 
....................          if(!Precalentamiento){       
0C12C:  MOVLB  0
0C12E:  BTFSC  xA3.0
0C130:  BRA    C186
....................             printf("Funcionamiento.t4f.txt=\" Ninguna\""); 
0C132:  MOVLW  70
0C134:  MOVWF  FF6
0C136:  MOVLW  14
0C138:  MOVWF  FF7
0C13A:  MOVLW  00
0C13C:  MOVWF  FF8
0C13E:  CALL   3842
....................             SendDataDisplay(); 
0C142:  CALL   3874
....................             printf("Funcionamiento.t5f.txt=\" PreCalentando\""); 
0C146:  MOVLW  92
0C148:  MOVWF  FF6
0C14A:  MOVLW  14
0C14C:  MOVWF  FF7
0C14E:  MOVLW  00
0C150:  MOVWF  FF8
0C152:  CALL   3842
....................             SendDataDisplay(); 
0C156:  CALL   3874
....................             ControlaPresionPre();  
0C15A:  CALL   67A2
....................             Control=0; 
0C15E:  MOVLB  3
0C160:  CLRF   x58
....................             Desfogue_on; 
0C162:  BSF    F8C.4
0C164:  BCF    F95.4
....................             Paso_off; 
0C166:  BCF    F8C.6
0C168:  BCF    F95.6
....................             codigoAlarma=10; 
0C16A:  MOVLW  0A
0C16C:  MOVLB  2
0C16E:  MOVWF  xE6
....................             if(codigoAnt!=codigoAlarma){ 
0C170:  MOVF   xE6,W
0C172:  SUBWF  xE7,W
0C174:  BZ    C182
....................                codigoAnt=codigoAlarma; 
0C176:  MOVFF  2E6,2E7
....................                GuardaDatoCiclo(); 
0C17A:  MOVLB  0
0C17C:  CALL   6372
0C180:  MOVLB  2
....................             } 
....................          }else{ 
0C182:  BRA    C716
0C184:  MOVLB  0
....................             if(Temperatura>=((float)Setpoint)){ 
0C186:  MOVLB  4
0C188:  CLRF   x55
0C18A:  MOVFF  36B,454
0C18E:  MOVLB  0
0C190:  CALL   19D8
0C194:  MOVFF  03,446
0C198:  MOVFF  02,445
0C19C:  MOVFF  01,444
0C1A0:  MOVFF  00,443
0C1A4:  MOVFF  32B,44A
0C1A8:  MOVFF  32A,449
0C1AC:  MOVFF  329,448
0C1B0:  MOVFF  328,447
0C1B4:  CALL   2CD2
0C1B8:  BC    C1BC
0C1BA:  BNZ   C1BE
....................                Esterilizando=ON; 
0C1BC:  BSF    xA0.2
....................             } 
....................              
....................             if(Temperatura<((float)Setpoint-0.9) && !Desfogando){ 
0C1BE:  MOVLB  4
0C1C0:  CLRF   x55
0C1C2:  MOVFF  36B,454
0C1C6:  MOVLB  0
0C1C8:  CALL   19D8
0C1CC:  MOVFF  00,43F
0C1D0:  MOVFF  01,440
0C1D4:  MOVFF  02,441
0C1D8:  MOVFF  03,442
0C1DC:  BSF    FD8.1
0C1DE:  MOVFF  03,457
0C1E2:  MOVFF  02,456
0C1E6:  MOVFF  01,455
0C1EA:  MOVFF  00,454
0C1EE:  MOVLW  66
0C1F0:  MOVLB  4
0C1F2:  MOVWF  x5B
0C1F4:  MOVWF  x5A
0C1F6:  MOVWF  x59
0C1F8:  MOVLW  7E
0C1FA:  MOVWF  x58
0C1FC:  MOVLB  0
0C1FE:  CALL   1B6C
0C202:  MOVFF  32B,446
0C206:  MOVFF  32A,445
0C20A:  MOVFF  329,444
0C20E:  MOVFF  328,443
0C212:  MOVFF  03,44A
0C216:  MOVFF  02,449
0C21A:  MOVFF  01,448
0C21E:  MOVFF  00,447
0C222:  CALL   2CD2
0C226:  BNC   C22E
0C228:  BTFSC  xA0.5
0C22A:  BRA    C22E
....................                Esterilizando=OFF; 
0C22C:  BCF    xA0.2
....................             } 
....................              
....................             if(!Esterilizando){ 
0C22E:  BTFSC  xA0.2
0C230:  BRA    C286
....................                codigoAlarma=12; 
0C232:  MOVLW  0C
0C234:  MOVLB  2
0C236:  MOVWF  xE6
....................                if(codigoAnt!=codigoAlarma){ 
0C238:  MOVF   xE6,W
0C23A:  SUBWF  xE7,W
0C23C:  BZ    C24A
....................                   codigoAnt=codigoAlarma; 
0C23E:  MOVFF  2E6,2E7
....................                   GuardaDatoCiclo();                   
0C242:  MOVLB  0
0C244:  CALL   6372
0C248:  MOVLB  2
....................                } 
....................                printf("Funcionamiento.t4f.txt=\" Ninguna\""); 
0C24A:  MOVLW  BA
0C24C:  MOVWF  FF6
0C24E:  MOVLW  14
0C250:  MOVWF  FF7
0C252:  MOVLW  00
0C254:  MOVWF  FF8
0C256:  MOVLB  0
0C258:  CALL   3842
....................                SendDataDisplay(); 
0C25C:  CALL   3874
....................                printf("Funcionamiento.t5f.txt=\" Calentando\""); 
0C260:  MOVLW  DC
0C262:  MOVWF  FF6
0C264:  MOVLW  14
0C266:  MOVWF  FF7
0C268:  MOVLW  00
0C26A:  MOVWF  FF8
0C26C:  CALL   3842
....................                SendDataDisplay(); 
0C270:  CALL   3874
....................                Control=1; 
0C274:  MOVLW  01
0C276:  MOVLB  3
0C278:  MOVWF  x58
....................                purgaAire(); 
0C27A:  MOVLB  0
0C27C:  GOTO   6804
....................                ControlaPresion(); 
0C280:  CALL   682C
....................             }else{ 
0C284:  BRA    C714
....................                TiempoCiclo=0; 
0C286:  CLRF   xA6
0C288:  CLRF   xA5
....................                if((Testerilizacion[0]==0)&&(Testerilizacion[1]==0)&& 
....................                (Testerilizacion[2]==0)&&(Testerilizacion[3]==0)){  
0C28A:  MOVF   xB1,F
0C28C:  BTFSS  FD8.2
0C28E:  BRA    C6C2
0C290:  MOVF   xB2,F
0C292:  BTFSS  FD8.2
0C294:  BRA    C6C2
0C296:  MOVF   xB3,F
0C298:  BTFSS  FD8.2
0C29A:  BRA    C6C2
0C29C:  MOVF   xB4,F
0C29E:  BTFSS  FD8.2
0C2A0:  BRA    C6C2
....................                   if(desfoguelento){ 
0C2A2:  BTFSS  xA4.3
0C2A4:  BRA    C486
....................                      Controlando=0; 
0C2A6:  MOVLB  3
0C2A8:  CLRF   x5A
....................                      if(PresionCamara<=Atmosferica+25){ 
0C2AA:  MOVLW  19
0C2AC:  ADDWF  xAE,W
0C2AE:  MOVF   x7E,F
0C2B0:  BTFSS  FD8.2
0C2B2:  BRA    C42A
0C2B4:  SUBWF  x7D,W
0C2B6:  BZ    C2BC
0C2B8:  BTFSC  FD8.0
0C2BA:  BRA    C42A
....................                         Secando=OFF; 
0C2BC:  MOVLB  0
0C2BE:  BCF    xA0.3
....................                         DesfogueSuave=OFF; 
0C2C0:  BCF    xA0.6
....................                         Suministro_off; 
0C2C2:  BCF    F8C.5
0C2C4:  BCF    F95.5
....................                         Paso_off; 
0C2C6:  BCF    F8C.6
0C2C8:  BCF    F95.6
....................                         Aire=OFF; 
0C2CA:  BCF    xA4.0
....................                         if(PresionCamara<Atmosferica+2){ 
0C2CC:  MOVLW  02
0C2CE:  MOVLB  3
0C2D0:  ADDWF  xAE,W
0C2D2:  MOVF   x7E,F
0C2D4:  BTFSS  FD8.2
0C2D6:  BRA    C414
0C2D8:  SUBWF  x7D,W
0C2DA:  BTFSC  FD8.0
0C2DC:  BRA    C414
....................                            if(DOOR){ 
0C2DE:  BSF    F93.6
0C2E0:  BTFSC  F81.6
0C2E2:  BRA    C2EA
....................                               Desfogue_on; 
0C2E4:  BSF    F8C.4
0C2E6:  BCF    F95.4
....................                            }else{ 
0C2E8:  BRA    C2EE
....................                               Desfogue_off; 
0C2EA:  BCF    F8C.4
0C2EC:  BCF    F95.4
....................                            } 
....................                            if(Temperatura<=90){ 
0C2EE:  MOVFF  32B,446
0C2F2:  MOVFF  32A,445
0C2F6:  MOVFF  329,444
0C2FA:  MOVFF  328,443
0C2FE:  MOVLB  4
0C300:  CLRF   x4A
0C302:  CLRF   x49
0C304:  MOVLW  34
0C306:  MOVWF  x48
0C308:  MOVLW  85
0C30A:  MOVWF  x47
0C30C:  MOVLB  0
0C30E:  CALL   2CD2
0C312:  BC    C318
0C314:  BTFSS  FD8.2
0C316:  BRA    C410
....................                               ActivaAlarma(2); 
0C318:  MOVLW  02
0C31A:  MOVLB  4
0C31C:  MOVWF  x3F
0C31E:  MOVLB  0
0C320:  CALL   46DA
....................                               printf("Funcionamiento.t4f.txt=\" Ninguna\""); 
0C324:  MOVLW  02
0C326:  MOVWF  FF6
0C328:  MOVLW  15
0C32A:  MOVWF  FF7
0C32C:  MOVLW  00
0C32E:  MOVWF  FF8
0C330:  CALL   3842
....................                               SendDataDisplay(); 
0C334:  CALL   3874
....................                               printf("Funcionamiento.t5f.txt=\" Finalizado\""); 
0C338:  MOVLW  24
0C33A:  MOVWF  FF6
0C33C:  MOVLW  15
0C33E:  MOVWF  FF7
0C340:  MOVLW  00
0C342:  MOVWF  FF8
0C344:  CALL   3842
....................                               SendDataDisplay(); 
0C348:  CALL   3874
....................                               Finalizo=ON; 
0C34C:  BSF    xA3.3
....................                               codigoAlarma=14; 
0C34E:  MOVLW  0E
0C350:  MOVLB  2
0C352:  MOVWF  xE6
....................                               if(codigoAnt!=codigoAlarma){ 
0C354:  MOVF   xE6,W
0C356:  SUBWF  xE7,W
0C358:  BZ    C364
....................                                  codigoAnt=codigoAlarma; 
0C35A:  MOVFF  2E6,2E7
....................                                  GuardaDatoCiclo();                   
0C35E:  MOVLB  0
0C360:  CALL   6372
....................                               } 
....................                               if(!Ciclo){ 
0C364:  MOVLB  0
0C366:  BTFSC  xA1.3
0C368:  BRA    C410
....................                                  Ciclo=ON; 
0C36A:  BSF    xA1.3
....................                                  Ciclos++; 
0C36C:  MOVLB  3
0C36E:  INCF   x81,F
0C370:  BTFSC  FD8.2
0C372:  INCF   x82,F
....................                                  CiclosL=make8(Ciclos,0); 
0C374:  MOVFF  381,366
....................                                  CiclosH=make8(Ciclos,1); 
0C378:  MOVFF  382,367
....................                                  write_eeprom(37,CiclosL); 
0C37C:  CLRF   FAA
0C37E:  MOVLW  25
0C380:  MOVWF  FA9
0C382:  MOVFF  366,FA8
0C386:  BCF    FA6.6
0C388:  BCF    FA6.7
0C38A:  BSF    FA6.2
0C38C:  MOVF   FF2,W
0C38E:  MOVWF  00
0C390:  BCF    FF2.6
0C392:  BCF    FF2.7
0C394:  MOVLB  F
0C396:  MOVLW  55
0C398:  MOVWF  FA7
0C39A:  MOVLW  AA
0C39C:  MOVWF  FA7
0C39E:  BSF    FA6.1
0C3A0:  BTFSC  FA6.1
0C3A2:  BRA    C3A0
0C3A4:  BCF    FA6.2
0C3A6:  MOVF   00,W
0C3A8:  IORWF  FF2,F
....................                                  delay_ms(20); 
0C3AA:  MOVLW  14
0C3AC:  MOVLB  4
0C3AE:  MOVWF  x54
0C3B0:  MOVLB  0
0C3B2:  CALL   19B0
....................                                  write_eeprom(38,CiclosH); 
0C3B6:  CLRF   FAA
0C3B8:  MOVLW  26
0C3BA:  MOVWF  FA9
0C3BC:  MOVFF  367,FA8
0C3C0:  BCF    FA6.6
0C3C2:  BCF    FA6.7
0C3C4:  BSF    FA6.2
0C3C6:  MOVF   FF2,W
0C3C8:  MOVWF  00
0C3CA:  BCF    FF2.6
0C3CC:  BCF    FF2.7
0C3CE:  MOVLB  F
0C3D0:  MOVLW  55
0C3D2:  MOVWF  FA7
0C3D4:  MOVLW  AA
0C3D6:  MOVWF  FA7
0C3D8:  BSF    FA6.1
0C3DA:  BTFSC  FA6.1
0C3DC:  BRA    C3DA
0C3DE:  BCF    FA6.2
0C3E0:  MOVF   00,W
0C3E2:  IORWF  FF2,F
....................                                  delay_ms(20);                               
0C3E4:  MOVLW  14
0C3E6:  MOVLB  4
0C3E8:  MOVWF  x54
0C3EA:  MOVLB  0
0C3EC:  CALL   19B0
....................                                  Imprime=28; 
0C3F0:  MOVLW  1C
0C3F2:  MOVLB  3
0C3F4:  MOVWF  xAD
....................                                  Envio_Esclavos(); 
0C3F6:  MOVLB  0
0C3F8:  CALL   4268
....................                                  delay_ms(100); 
0C3FC:  MOVLW  64
0C3FE:  MOVLB  4
0C400:  MOVWF  x54
0C402:  MOVLB  0
0C404:  CALL   19B0
....................                                  Imprime=10;                               
0C408:  MOVLW  0A
0C40A:  MOVLB  3
0C40C:  MOVWF  xAD
0C40E:  MOVLB  0
....................                               } 
....................                            } 
....................                         }else if(PresionCamara>=Atmosferica+7){ 
0C410:  BRA    C426
0C412:  MOVLB  3
0C414:  MOVLW  07
0C416:  ADDWF  xAE,W
0C418:  MOVF   x7E,F
0C41A:  BNZ   C420
0C41C:  SUBWF  x7D,W
0C41E:  BNC   C424
....................                            Desfogue_on; 
0C420:  BSF    F8C.4
0C422:  BCF    F95.4
0C424:  MOVLB  0
....................                         } 
....................                      }else{ 
0C426:  BRA    C484
0C428:  MOVLB  3
....................                         codigoAlarma=13; 
0C42A:  MOVLW  0D
0C42C:  MOVLB  2
0C42E:  MOVWF  xE6
....................                         if(codigoAnt!=codigoAlarma){ 
0C430:  MOVF   xE6,W
0C432:  SUBWF  xE7,W
0C434:  BZ    C440
....................                            codigoAnt=codigoAlarma; 
0C436:  MOVFF  2E6,2E7
....................                            GuardaDatoCiclo();                   
0C43A:  MOVLB  0
0C43C:  CALL   6372
....................                         } 
....................                         Desfogando=ON; 
0C440:  MOVLB  0
0C442:  BSF    xA0.5
....................                         DesfogueSuave=ON; 
0C444:  BSF    xA0.6
....................                         printf("Funcionamiento.t4f.txt=\" Ninguna\""); 
0C446:  MOVLW  4A
0C448:  MOVWF  FF6
0C44A:  MOVLW  15
0C44C:  MOVWF  FF7
0C44E:  MOVLW  00
0C450:  MOVWF  FF8
0C452:  CALL   3842
....................                         SendDataDisplay(); 
0C456:  CALL   3874
....................                         printf("Funcionamiento.t5f.txt=\" Despresurizando\""); 
0C45A:  MOVLW  6C
0C45C:  MOVWF  FF6
0C45E:  MOVLW  15
0C460:  MOVWF  FF7
0C462:  MOVLW  00
0C464:  MOVWF  FF8
0C466:  CALL   3842
....................                         SendDataDisplay(); 
0C46A:  CALL   3874
....................                         Control=0; 
0C46E:  MOVLB  3
0C470:  CLRF   x58
....................                         Controlando=0; 
0C472:  CLRF   x5A
....................                         SSR_off; 
0C474:  BSF    F8B.2
0C476:  BCF    F94.2
....................                         Paso_on; 
0C478:  BSF    F8C.6
0C47A:  BCF    F95.6
....................                         Suministro_off; 
0C47C:  BCF    F8C.5
0C47E:  BCF    F95.5
....................                         Aire=OFF; 
0C480:  MOVLB  0
0C482:  BCF    xA4.0
....................                      } 
....................                   }else{ 
0C484:  BRA    C6BC
....................                      //SSR_off; 
....................                      Controlando=0; 
0C486:  MOVLB  3
0C488:  CLRF   x5A
....................                      Control=0; 
0C48A:  CLRF   x58
....................                      if(PresionCamara<=Atmosferica+5){ 
0C48C:  MOVLW  05
0C48E:  ADDWF  xAE,W
0C490:  MOVF   x7E,F
0C492:  BTFSS  FD8.2
0C494:  BRA    C654
0C496:  SUBWF  x7D,W
0C498:  BZ    C49E
0C49A:  BTFSC  FD8.0
0C49C:  BRA    C654
....................                         if((Tsecado[0]==0)&&(Tsecado[1]==0)&&(Tsecado[2]==0)&&(Tsecado[3]==0)){ 
0C49E:  MOVLB  0
0C4A0:  MOVF   xBB,F
0C4A2:  BTFSS  FD8.2
0C4A4:  BRA    C602
0C4A6:  MOVF   xBC,F
0C4A8:  BTFSS  FD8.2
0C4AA:  BRA    C602
0C4AC:  MOVF   xBD,F
0C4AE:  BTFSS  FD8.2
0C4B0:  BRA    C602
0C4B2:  MOVF   xBE,F
0C4B4:  BTFSS  FD8.2
0C4B6:  BRA    C602
....................                            SSR_off; 
0C4B8:  BSF    F8B.2
0C4BA:  BCF    F94.2
....................                            Secando=OFF; 
0C4BC:  BCF    xA0.3
....................                            if(DOOR){ 
0C4BE:  BSF    F93.6
0C4C0:  BTFSC  F81.6
0C4C2:  BRA    C4CA
....................                               Desfogue_on; 
0C4C4:  BSF    F8C.4
0C4C6:  BCF    F95.4
....................                            }else{ 
0C4C8:  BRA    C4CE
....................                               Desfogue_off; 
0C4CA:  BCF    F8C.4
0C4CC:  BCF    F95.4
....................                            } 
....................                            Suministro_off; 
0C4CE:  BCF    F8C.5
0C4D0:  BCF    F95.5
....................                            Paso_off; 
0C4D2:  BCF    F8C.6
0C4D4:  BCF    F95.6
....................                            if(Temperatura<=90){ 
0C4D6:  MOVFF  32B,446
0C4DA:  MOVFF  32A,445
0C4DE:  MOVFF  329,444
0C4E2:  MOVFF  328,443
0C4E6:  MOVLB  4
0C4E8:  CLRF   x4A
0C4EA:  CLRF   x49
0C4EC:  MOVLW  34
0C4EE:  MOVWF  x48
0C4F0:  MOVLW  85
0C4F2:  MOVWF  x47
0C4F4:  MOVLB  0
0C4F6:  CALL   2CD2
0C4FA:  BC    C500
0C4FC:  BTFSS  FD8.2
0C4FE:  BRA    C5FE
....................                               ActivaAlarma(2); 
0C500:  MOVLW  02
0C502:  MOVLB  4
0C504:  MOVWF  x3F
0C506:  MOVLB  0
0C508:  CALL   46DA
....................                               printf("Funcionamiento.t4f.txt=\" Ninguna\""); 
0C50C:  MOVLW  96
0C50E:  MOVWF  FF6
0C510:  MOVLW  15
0C512:  MOVWF  FF7
0C514:  MOVLW  00
0C516:  MOVWF  FF8
0C518:  CALL   3842
....................                               SendDataDisplay(); 
0C51C:  CALL   3874
....................                               printf("Funcionamiento.t5f.txt=\" Finalizado\""); 
0C520:  MOVLW  B8
0C522:  MOVWF  FF6
0C524:  MOVLW  15
0C526:  MOVWF  FF7
0C528:  MOVLW  00
0C52A:  MOVWF  FF8
0C52C:  CALL   3842
....................                               SendDataDisplay(); 
0C530:  CALL   3874
....................                               Finalizo=ON; 
0C534:  BSF    xA3.3
....................                               Aire=OFF; 
0C536:  BCF    xA4.0
....................                               codigoAlarma=14; 
0C538:  MOVLW  0E
0C53A:  MOVLB  2
0C53C:  MOVWF  xE6
....................                               if(codigoAnt!=codigoAlarma){ 
0C53E:  MOVF   xE6,W
0C540:  SUBWF  xE7,W
0C542:  BZ    C54E
....................                                  codigoAnt=codigoAlarma; 
0C544:  MOVFF  2E6,2E7
....................                                  GuardaDatoCiclo();                   
0C548:  MOVLB  0
0C54A:  CALL   6372
....................                               } 
....................                               if(!Ciclo){ 
0C54E:  MOVLB  0
0C550:  BTFSC  xA1.3
0C552:  BRA    C5FE
....................                                  Ciclo=ON; 
0C554:  BSF    xA1.3
....................                                  Ciclos++; 
0C556:  MOVLB  3
0C558:  INCF   x81,F
0C55A:  BTFSC  FD8.2
0C55C:  INCF   x82,F
....................                                  CiclosL=make8(Ciclos,0); 
0C55E:  MOVFF  381,366
....................                                  CiclosH=make8(Ciclos,1); 
0C562:  MOVFF  382,367
....................                                  write_eeprom(37,CiclosL); 
0C566:  CLRF   FAA
0C568:  MOVLW  25
0C56A:  MOVWF  FA9
0C56C:  MOVFF  366,FA8
0C570:  BCF    FA6.6
0C572:  BCF    FA6.7
0C574:  BSF    FA6.2
0C576:  MOVF   FF2,W
0C578:  MOVWF  00
0C57A:  BCF    FF2.6
0C57C:  BCF    FF2.7
0C57E:  MOVLB  F
0C580:  MOVLW  55
0C582:  MOVWF  FA7
0C584:  MOVLW  AA
0C586:  MOVWF  FA7
0C588:  BSF    FA6.1
0C58A:  BTFSC  FA6.1
0C58C:  BRA    C58A
0C58E:  BCF    FA6.2
0C590:  MOVF   00,W
0C592:  IORWF  FF2,F
....................                                  delay_ms(20); 
0C594:  MOVLW  14
0C596:  MOVLB  4
0C598:  MOVWF  x54
0C59A:  MOVLB  0
0C59C:  CALL   19B0
....................                                  write_eeprom(38,CiclosH); 
0C5A0:  CLRF   FAA
0C5A2:  MOVLW  26
0C5A4:  MOVWF  FA9
0C5A6:  MOVFF  367,FA8
0C5AA:  BCF    FA6.6
0C5AC:  BCF    FA6.7
0C5AE:  BSF    FA6.2
0C5B0:  MOVF   FF2,W
0C5B2:  MOVWF  00
0C5B4:  BCF    FF2.6
0C5B6:  BCF    FF2.7
0C5B8:  MOVLB  F
0C5BA:  MOVLW  55
0C5BC:  MOVWF  FA7
0C5BE:  MOVLW  AA
0C5C0:  MOVWF  FA7
0C5C2:  BSF    FA6.1
0C5C4:  BTFSC  FA6.1
0C5C6:  BRA    C5C4
0C5C8:  BCF    FA6.2
0C5CA:  MOVF   00,W
0C5CC:  IORWF  FF2,F
....................                                  delay_ms(20); 
0C5CE:  MOVLW  14
0C5D0:  MOVLB  4
0C5D2:  MOVWF  x54
0C5D4:  MOVLB  0
0C5D6:  CALL   19B0
....................                                  if(ActivaImpresion==1){ 
0C5DA:  MOVLB  3
0C5DC:  DECFSZ x5B,W
0C5DE:  BRA    C5FC
....................                                     Imprime=28; 
0C5E0:  MOVLW  1C
0C5E2:  MOVWF  xAD
....................                                     Envio_Esclavos(); 
0C5E4:  MOVLB  0
0C5E6:  CALL   4268
....................                                     delay_ms(100); 
0C5EA:  MOVLW  64
0C5EC:  MOVLB  4
0C5EE:  MOVWF  x54
0C5F0:  MOVLB  0
0C5F2:  CALL   19B0
....................                                     Imprime=10; 
0C5F6:  MOVLW  0A
0C5F8:  MOVLB  3
0C5FA:  MOVWF  xAD
0C5FC:  MOVLB  0
....................                                  } 
....................                               } 
....................                            } 
....................                            Secando=OFF; 
0C5FE:  BCF    xA0.3
....................                         }else{ 
0C600:  BRA    C650
....................                            codigoAlarma=15; 
0C602:  MOVLW  0F
0C604:  MOVLB  2
0C606:  MOVWF  xE6
....................                            if(codigoAnt!=codigoAlarma){ 
0C608:  MOVF   xE6,W
0C60A:  SUBWF  xE7,W
0C60C:  BZ    C618
....................                               codigoAnt=codigoAlarma; 
0C60E:  MOVFF  2E6,2E7
....................                               GuardaDatoCiclo();                   
0C612:  MOVLB  0
0C614:  CALL   6372
....................                            } 
....................                            Secando=ON; 
0C618:  MOVLB  0
0C61A:  BSF    xA0.3
....................                            printf("Funcionamiento.t4f.txt=\" Ninguna\""); 
0C61C:  MOVLW  DE
0C61E:  MOVWF  FF6
0C620:  MOVLW  15
0C622:  MOVWF  FF7
0C624:  MOVLW  00
0C626:  MOVWF  FF8
0C628:  CALL   3842
....................                            SendDataDisplay(); 
0C62C:  CALL   3874
....................                            printf("Funcionamiento.t5f.txt=\" Secando\""); 
0C630:  MOVLW  00
0C632:  MOVWF  FF6
0C634:  MOVLW  16
0C636:  MOVWF  FF7
0C638:  MOVLW  00
0C63A:  MOVWF  FF8
0C63C:  CALL   3842
....................                            SendDataDisplay();                            
0C640:  CALL   3874
....................                            Desfogue_on; 
0C644:  BSF    F8C.4
0C646:  BCF    F95.4
....................                            ControlaPresionPre(); 
0C648:  CALL   67A2
....................                            Paso_off; 
0C64C:  BCF    F8C.6
0C64E:  BCF    F95.6
....................                         } 
....................                      }else if(PresionCamara>Atmosferica+6){ 
0C650:  BRA    C6BC
0C652:  MOVLB  3
0C654:  MOVLW  06
0C656:  ADDWF  xAE,W
0C658:  MOVF   x7E,F
0C65A:  BNZ   C662
0C65C:  SUBWF  x7D,W
0C65E:  BZ    C6BE
0C660:  BNC   C6BE
....................                         codigoAlarma=13; 
0C662:  MOVLW  0D
0C664:  MOVLB  2
0C666:  MOVWF  xE6
....................                         if(codigoAnt!=codigoAlarma){ 
0C668:  MOVF   xE6,W
0C66A:  SUBWF  xE7,W
0C66C:  BZ    C678
....................                            codigoAnt=codigoAlarma; 
0C66E:  MOVFF  2E6,2E7
....................                            GuardaDatoCiclo();                   
0C672:  MOVLB  0
0C674:  CALL   6372
....................                         } 
....................                         Desfogando=ON; 
0C678:  MOVLB  0
0C67A:  BSF    xA0.5
....................                         printf("Funcionamiento.t4f.txt=\" Ninguna\""); 
0C67C:  MOVLW  22
0C67E:  MOVWF  FF6
0C680:  MOVLW  16
0C682:  MOVWF  FF7
0C684:  MOVLW  00
0C686:  MOVWF  FF8
0C688:  CALL   3842
....................                         SendDataDisplay(); 
0C68C:  CALL   3874
....................                         printf("Funcionamiento.t5f.txt=\" Despresurizando\""); 
0C690:  MOVLW  44
0C692:  MOVWF  FF6
0C694:  MOVLW  16
0C696:  MOVWF  FF7
0C698:  MOVLW  00
0C69A:  MOVWF  FF8
0C69C:  CALL   3842
....................                         SendDataDisplay();                         
0C6A0:  CALL   3874
....................                         Controlando=0; 
0C6A4:  MOVLB  3
0C6A6:  CLRF   x5A
....................                         SSR_off; 
0C6A8:  BSF    F8B.2
0C6AA:  BCF    F94.2
....................                         Paso_off; 
0C6AC:  BCF    F8C.6
0C6AE:  BCF    F95.6
....................                         Suministro_off; 
0C6B0:  BCF    F8C.5
0C6B2:  BCF    F95.5
....................                         Aire=OFF; 
0C6B4:  MOVLB  0
0C6B6:  BCF    xA4.0
....................                         Desfogue_on; 
0C6B8:  BSF    F8C.4
0C6BA:  BCF    F95.4
0C6BC:  MOVLB  3
....................                      } 
....................                   } 
....................                    
....................                }else{ 
0C6BE:  BRA    C718
0C6C0:  MOVLB  0
....................                   printf("Funcionamiento.t4f.txt=\" Ninguna\""); 
0C6C2:  MOVLW  6E
0C6C4:  MOVWF  FF6
0C6C6:  MOVLW  16
0C6C8:  MOVWF  FF7
0C6CA:  MOVLW  00
0C6CC:  MOVWF  FF8
0C6CE:  CALL   3842
....................                   SendDataDisplay(); 
0C6D2:  CALL   3874
....................                   printf("Funcionamiento.t5f.txt=\" Esterilizando\""); 
0C6D6:  MOVLW  90
0C6D8:  MOVWF  FF6
0C6DA:  MOVLW  16
0C6DC:  MOVWF  FF7
0C6DE:  MOVLW  00
0C6E0:  MOVWF  FF8
0C6E2:  CALL   3842
....................                   SendDataDisplay(); 
0C6E6:  CALL   3874
....................                   Aire=OFF; 
0C6EA:  BCF    xA4.0
....................                   Desfogue_off; 
0C6EC:  BCF    F8C.4
0C6EE:  BCF    F95.4
....................                   Control=1; 
0C6F0:  MOVLW  01
0C6F2:  MOVLB  3
0C6F4:  MOVWF  x58
....................                   codigoAlarma=16; 
0C6F6:  MOVLW  10
0C6F8:  MOVLB  2
0C6FA:  MOVWF  xE6
....................                   ControlaPresion(); 
0C6FC:  MOVLB  0
0C6FE:  CALL   682C
....................                   if(codigoAnt!=codigoAlarma){ 
0C702:  MOVLB  2
0C704:  MOVF   xE6,W
0C706:  SUBWF  xE7,W
0C708:  BZ    C716
....................                      codigoAnt=codigoAlarma; 
0C70A:  MOVFF  2E6,2E7
....................                      GuardaDatoCiclo();                   
0C70E:  MOVLB  0
0C710:  CALL   6372
0C714:  MOVLB  2
0C716:  MOVLB  3
....................                   } 
....................                } 
....................             } 
....................          } 
....................    } 
....................  
....................    if(tguarda>=180){ 
0C718:  MOVLB  0
0C71A:  MOVF   xB0,F
0C71C:  BNZ   C724
0C71E:  MOVF   xAF,W
0C720:  SUBLW  B3
0C722:  BC    C730
....................       if(!Ciclo){ 
0C724:  BTFSC  xA1.3
0C726:  BRA    C730
....................          GuardaDatoCiclo(); 
0C728:  CALL   6372
....................          tguarda=0; 
0C72C:  CLRF   xB0
0C72E:  CLRF   xAF
....................       } 
....................    } 
....................     
....................    if(Grafica==1){ 
0C730:  BTFSS  xA4.5
0C732:  BRA    C8A4
....................       printf("add 14,0,%1.0f",Temperatura/1.667); 
0C734:  MOVFF  32B,44B
0C738:  MOVFF  32A,44A
0C73C:  MOVFF  329,449
0C740:  MOVFF  328,448
0C744:  MOVLW  42
0C746:  MOVLB  4
0C748:  MOVWF  x4F
0C74A:  MOVLW  60
0C74C:  MOVWF  x4E
0C74E:  MOVLW  55
0C750:  MOVWF  x4D
0C752:  MOVLW  7F
0C754:  MOVWF  x4C
0C756:  MOVLB  0
0C758:  CALL   1A0E
0C75C:  MOVFF  00,43F
0C760:  MOVFF  01,440
0C764:  MOVFF  02,441
0C768:  MOVFF  03,442
0C76C:  MOVLW  B8
0C76E:  MOVWF  FF6
0C770:  MOVLW  16
0C772:  MOVWF  FF7
0C774:  MOVLW  00
0C776:  MOVWF  FF8
0C778:  MOVLW  09
0C77A:  MOVLB  4
0C77C:  MOVWF  x44
0C77E:  MOVLB  0
0C780:  CALL   47DC
0C784:  MOVLW  00
0C786:  MOVWF  FE9
0C788:  MOVFF  442,447
0C78C:  MOVFF  441,446
0C790:  MOVFF  440,445
0C794:  MOVFF  43F,444
0C798:  MOVLB  4
0C79A:  CLRF   x48
0C79C:  MOVLB  0
0C79E:  CALL   497C
....................       SendDataDisplay(); 
0C7A2:  CALL   3874
....................       printf("add 14,1,%1.0f",PresionCamara/1.667); 
0C7A6:  MOVFF  37E,455
0C7AA:  MOVFF  37D,454
0C7AE:  CALL   19D8
0C7B2:  MOVFF  03,44B
0C7B6:  MOVFF  02,44A
0C7BA:  MOVFF  01,449
0C7BE:  MOVFF  00,448
0C7C2:  MOVLW  42
0C7C4:  MOVLB  4
0C7C6:  MOVWF  x4F
0C7C8:  MOVLW  60
0C7CA:  MOVWF  x4E
0C7CC:  MOVLW  55
0C7CE:  MOVWF  x4D
0C7D0:  MOVLW  7F
0C7D2:  MOVWF  x4C
0C7D4:  MOVLB  0
0C7D6:  CALL   1A0E
0C7DA:  MOVFF  00,43F
0C7DE:  MOVFF  01,440
0C7E2:  MOVFF  02,441
0C7E6:  MOVFF  03,442
0C7EA:  MOVLW  C8
0C7EC:  MOVWF  FF6
0C7EE:  MOVLW  16
0C7F0:  MOVWF  FF7
0C7F2:  MOVLW  00
0C7F4:  MOVWF  FF8
0C7F6:  MOVLW  09
0C7F8:  MOVLB  4
0C7FA:  MOVWF  x44
0C7FC:  MOVLB  0
0C7FE:  CALL   47DC
0C802:  MOVLW  00
0C804:  MOVWF  FE9
0C806:  MOVFF  442,447
0C80A:  MOVFF  441,446
0C80E:  MOVFF  440,445
0C812:  MOVFF  43F,444
0C816:  MOVLB  4
0C818:  CLRF   x48
0C81A:  MOVLB  0
0C81C:  CALL   497C
....................       SendDataDisplay(); 
0C820:  CALL   3874
....................       printf("add 14,2,%1.0f",PresionPreCamara/1.667); 
0C824:  MOVFF  380,455
0C828:  MOVFF  37F,454
0C82C:  CALL   19D8
0C830:  MOVFF  03,44B
0C834:  MOVFF  02,44A
0C838:  MOVFF  01,449
0C83C:  MOVFF  00,448
0C840:  MOVLW  42
0C842:  MOVLB  4
0C844:  MOVWF  x4F
0C846:  MOVLW  60
0C848:  MOVWF  x4E
0C84A:  MOVLW  55
0C84C:  MOVWF  x4D
0C84E:  MOVLW  7F
0C850:  MOVWF  x4C
0C852:  MOVLB  0
0C854:  CALL   1A0E
0C858:  MOVFF  00,43F
0C85C:  MOVFF  01,440
0C860:  MOVFF  02,441
0C864:  MOVFF  03,442
0C868:  MOVLW  D8
0C86A:  MOVWF  FF6
0C86C:  MOVLW  16
0C86E:  MOVWF  FF7
0C870:  MOVLW  00
0C872:  MOVWF  FF8
0C874:  MOVLW  09
0C876:  MOVLB  4
0C878:  MOVWF  x44
0C87A:  MOVLB  0
0C87C:  CALL   47DC
0C880:  MOVLW  00
0C882:  MOVWF  FE9
0C884:  MOVFF  442,447
0C888:  MOVFF  441,446
0C88C:  MOVFF  440,445
0C890:  MOVFF  43F,444
0C894:  MOVLB  4
0C896:  CLRF   x48
0C898:  MOVLB  0
0C89A:  CALL   497C
....................       SendDataDisplay(); 
0C89E:  CALL   3874
....................       //printf("add 14,0,%1.0f",Temperatura); 
....................       //SendDataDisplay(); 
....................       Grafica=0; 
0C8A2:  BCF    xA4.5
....................    } 
....................     
....................    if(Lectura==1)// Utilizado para visualizar la lectura de la temperatura 
0C8A4:  BTFSS  xA4.4
0C8A6:  BRA    CBCC
....................    {                             
....................       Lectura=0; 
0C8A8:  BCF    xA4.4
....................       printf("t6f.txt=\"%3.1fC\"",Temperatura); 
0C8AA:  MOVLW  E8
0C8AC:  MOVWF  FF6
0C8AE:  MOVLW  16
0C8B0:  MOVWF  FF7
0C8B2:  MOVLW  00
0C8B4:  MOVWF  FF8
0C8B6:  MOVLW  09
0C8B8:  MOVLB  4
0C8BA:  MOVWF  x44
0C8BC:  MOVLB  0
0C8BE:  CALL   47DC
0C8C2:  MOVLW  02
0C8C4:  MOVWF  FE9
0C8C6:  MOVFF  32B,447
0C8CA:  MOVFF  32A,446
0C8CE:  MOVFF  329,445
0C8D2:  MOVFF  328,444
0C8D6:  MOVLW  01
0C8D8:  MOVLB  4
0C8DA:  MOVWF  x48
0C8DC:  MOVLB  0
0C8DE:  CALL   497C
0C8E2:  MOVLW  B0
0C8E4:  BTFSS  F9E.4
0C8E6:  BRA    C8E4
0C8E8:  MOVWF  FAD
0C8EA:  MOVLW  43
0C8EC:  BTFSS  F9E.4
0C8EE:  BRA    C8EC
0C8F0:  MOVWF  FAD
0C8F2:  MOVLW  22
0C8F4:  BTFSS  F9E.4
0C8F6:  BRA    C8F4
0C8F8:  MOVWF  FAD
....................       SendDataDisplay(); 
0C8FA:  CALL   3874
....................       printf("Funcionamiento.t7f.txt=\"%03LukPa\"",PresionCamara); 
0C8FE:  MOVLW  FA
0C900:  MOVWF  FF6
0C902:  MOVLW  16
0C904:  MOVWF  FF7
0C906:  MOVLW  00
0C908:  MOVWF  FF8
0C90A:  MOVLW  18
0C90C:  MOVLB  4
0C90E:  MOVWF  x44
0C910:  MOVLB  0
0C912:  CALL   47DC
0C916:  MOVLW  0A
0C918:  MOVWF  FE9
0C91A:  MOVFF  37E,444
0C91E:  MOVFF  37D,443
0C922:  CALL   4BA2
0C926:  MOVLW  17
0C928:  MOVWF  FF6
0C92A:  MOVLW  17
0C92C:  MOVWF  FF7
0C92E:  MOVLW  00
0C930:  MOVWF  FF8
0C932:  MOVLW  04
0C934:  MOVLB  4
0C936:  MOVWF  x44
0C938:  MOVLB  0
0C93A:  CALL   47DC
....................       SendDataDisplay(); 
0C93E:  CALL   3874
....................       printf("Funcionamiento.t12f.txt=\"%03LukPa\"",PresionPreCamara); 
0C942:  MOVLW  1C
0C944:  MOVWF  FF6
0C946:  MOVLW  17
0C948:  MOVWF  FF7
0C94A:  MOVLW  00
0C94C:  MOVWF  FF8
0C94E:  MOVLW  19
0C950:  MOVLB  4
0C952:  MOVWF  x44
0C954:  MOVLB  0
0C956:  CALL   47DC
0C95A:  MOVLW  0A
0C95C:  MOVWF  FE9
0C95E:  MOVFF  380,444
0C962:  MOVFF  37F,443
0C966:  CALL   4BA2
0C96A:  MOVLW  3A
0C96C:  MOVWF  FF6
0C96E:  MOVLW  17
0C970:  MOVWF  FF7
0C972:  MOVLW  00
0C974:  MOVWF  FF8
0C976:  MOVLW  04
0C978:  MOVLB  4
0C97A:  MOVWF  x44
0C97C:  MOVLB  0
0C97E:  CALL   47DC
....................       //printf("Funcionamiento.t12f.txt=\"000kPa\""); 
....................       SendDataDisplay(); 
0C982:  CALL   3874
....................       printf("Funcionamiento.t9f.txt=\"%03u\"",Setpoint); 
0C986:  MOVLW  40
0C988:  MOVWF  FF6
0C98A:  MOVLW  17
0C98C:  MOVWF  FF7
0C98E:  MOVLW  00
0C990:  MOVWF  FF8
0C992:  MOVLW  18
0C994:  MOVLB  4
0C996:  MOVWF  x44
0C998:  MOVLB  0
0C99A:  CALL   47DC
0C99E:  MOVFF  36B,444
0C9A2:  MOVLW  03
0C9A4:  MOVLB  4
0C9A6:  MOVWF  x45
0C9A8:  MOVLB  0
0C9AA:  CALL   483A
0C9AE:  MOVLW  22
0C9B0:  BTFSS  F9E.4
0C9B2:  BRA    C9B0
0C9B4:  MOVWF  FAD
....................       SendDataDisplay();       
0C9B6:  CALL   3874
....................       printf("Funcionamiento.t10f.txt=\"%02u\"",((Testerilizacion[3]*10)+Testerilizacion[2])); 
0C9BA:  MOVFF  B4,441
0C9BE:  MOVLW  0A
0C9C0:  MOVLB  4
0C9C2:  MOVWF  x42
0C9C4:  MOVLB  0
0C9C6:  CALL   2D4C
0C9CA:  MOVF   xB3,W
0C9CC:  ADDWF  01,W
0C9CE:  MOVLB  4
0C9D0:  MOVWF  x3F
0C9D2:  MOVLW  5E
0C9D4:  MOVWF  FF6
0C9D6:  MOVLW  17
0C9D8:  MOVWF  FF7
0C9DA:  MOVLW  00
0C9DC:  MOVWF  FF8
0C9DE:  MOVLW  19
0C9E0:  MOVWF  x44
0C9E2:  MOVLB  0
0C9E4:  CALL   47DC
0C9E8:  MOVFF  43F,444
0C9EC:  MOVLW  01
0C9EE:  MOVLB  4
0C9F0:  MOVWF  x45
0C9F2:  MOVLB  0
0C9F4:  CALL   483A
0C9F8:  MOVLW  22
0C9FA:  BTFSS  F9E.4
0C9FC:  BRA    C9FA
0C9FE:  MOVWF  FAD
....................       SendDataDisplay();       
0CA00:  CALL   3874
....................       printf("Funcionamiento.t13f.txt=\"%02u\"",((Testerilizacion[1]*10)+Testerilizacion[0])); 
0CA04:  MOVFF  B2,441
0CA08:  MOVLW  0A
0CA0A:  MOVLB  4
0CA0C:  MOVWF  x42
0CA0E:  MOVLB  0
0CA10:  CALL   2D4C
0CA14:  MOVF   xB1,W
0CA16:  ADDWF  01,W
0CA18:  MOVLB  4
0CA1A:  MOVWF  x3F
0CA1C:  MOVLW  7E
0CA1E:  MOVWF  FF6
0CA20:  MOVLW  17
0CA22:  MOVWF  FF7
0CA24:  MOVLW  00
0CA26:  MOVWF  FF8
0CA28:  MOVLW  19
0CA2A:  MOVWF  x44
0CA2C:  MOVLB  0
0CA2E:  CALL   47DC
0CA32:  MOVFF  43F,444
0CA36:  MOVLW  01
0CA38:  MOVLB  4
0CA3A:  MOVWF  x45
0CA3C:  MOVLB  0
0CA3E:  CALL   483A
0CA42:  MOVLW  22
0CA44:  BTFSS  F9E.4
0CA46:  BRA    CA44
0CA48:  MOVWF  FAD
....................       SendDataDisplay();       
0CA4A:  CALL   3874
....................       printf("Funcionamiento.t11f.txt=\"%02u\"",((Tsecado[3]*10)+Tsecado[2])); 
0CA4E:  MOVFF  BE,441
0CA52:  MOVLW  0A
0CA54:  MOVLB  4
0CA56:  MOVWF  x42
0CA58:  MOVLB  0
0CA5A:  CALL   2D4C
0CA5E:  MOVF   xBD,W
0CA60:  ADDWF  01,W
0CA62:  MOVLB  4
0CA64:  MOVWF  x3F
0CA66:  MOVLW  9E
0CA68:  MOVWF  FF6
0CA6A:  MOVLW  17
0CA6C:  MOVWF  FF7
0CA6E:  MOVLW  00
0CA70:  MOVWF  FF8
0CA72:  MOVLW  19
0CA74:  MOVWF  x44
0CA76:  MOVLB  0
0CA78:  CALL   47DC
0CA7C:  MOVFF  43F,444
0CA80:  MOVLW  01
0CA82:  MOVLB  4
0CA84:  MOVWF  x45
0CA86:  MOVLB  0
0CA88:  CALL   483A
0CA8C:  MOVLW  22
0CA8E:  BTFSS  F9E.4
0CA90:  BRA    CA8E
0CA92:  MOVWF  FAD
....................       SendDataDisplay();       
0CA94:  CALL   3874
....................       printf("Funcionamiento.t16f.txt=\"%02u\"",((Tsecado[1]*10)+Tsecado[0])); 
0CA98:  MOVFF  BC,441
0CA9C:  MOVLW  0A
0CA9E:  MOVLB  4
0CAA0:  MOVWF  x42
0CAA2:  MOVLB  0
0CAA4:  CALL   2D4C
0CAA8:  MOVF   xBB,W
0CAAA:  ADDWF  01,W
0CAAC:  MOVLB  4
0CAAE:  MOVWF  x3F
0CAB0:  MOVLW  BE
0CAB2:  MOVWF  FF6
0CAB4:  MOVLW  17
0CAB6:  MOVWF  FF7
0CAB8:  MOVLW  00
0CABA:  MOVWF  FF8
0CABC:  MOVLW  19
0CABE:  MOVWF  x44
0CAC0:  MOVLB  0
0CAC2:  CALL   47DC
0CAC6:  MOVFF  43F,444
0CACA:  MOVLW  01
0CACC:  MOVLB  4
0CACE:  MOVWF  x45
0CAD0:  MOVLB  0
0CAD2:  CALL   483A
0CAD6:  MOVLW  22
0CAD8:  BTFSS  F9E.4
0CADA:  BRA    CAD8
0CADC:  MOVWF  FAD
....................       SendDataDisplay();       
0CADE:  CALL   3874
....................        
....................       printf("fecha.txt=\"T:%2.1f Fecha:%02u/%02u/20%02u    Hora: %02u:%02u\"",Tactual,Dia,Mes,Year,Hora,Minuto); 
0CAE2:  MOVLW  DE
0CAE4:  MOVWF  FF6
0CAE6:  MOVLW  17
0CAE8:  MOVWF  FF7
0CAEA:  MOVLW  00
0CAEC:  MOVWF  FF8
0CAEE:  MOVLW  0D
0CAF0:  MOVLB  4
0CAF2:  MOVWF  x44
0CAF4:  MOVLB  0
0CAF6:  CALL   47DC
0CAFA:  MOVLW  01
0CAFC:  MOVWF  FE9
0CAFE:  MOVFF  356,447
0CB02:  MOVFF  355,446
0CB06:  MOVFF  354,445
0CB0A:  MOVFF  353,444
0CB0E:  MOVLB  4
0CB10:  MOVWF  x48
0CB12:  MOVLB  0
0CB14:  CALL   497C
0CB18:  MOVLW  F0
0CB1A:  MOVWF  FF6
0CB1C:  MOVLW  17
0CB1E:  MOVWF  FF7
0CB20:  MOVLW  00
0CB22:  MOVWF  FF8
0CB24:  MOVLW  07
0CB26:  MOVLB  4
0CB28:  MOVWF  x44
0CB2A:  MOVLB  0
0CB2C:  CALL   47DC
0CB30:  MOVFF  3A0,444
0CB34:  MOVLW  01
0CB36:  MOVLB  4
0CB38:  MOVWF  x45
0CB3A:  MOVLB  0
0CB3C:  CALL   483A
0CB40:  MOVLW  2F
0CB42:  BTFSS  F9E.4
0CB44:  BRA    CB42
0CB46:  MOVWF  FAD
0CB48:  MOVFF  39F,444
0CB4C:  MOVLW  01
0CB4E:  MOVLB  4
0CB50:  MOVWF  x45
0CB52:  MOVLB  0
0CB54:  CALL   483A
0CB58:  MOVLW  2F
0CB5A:  BTFSS  F9E.4
0CB5C:  BRA    CB5A
0CB5E:  MOVWF  FAD
0CB60:  MOVLW  32
0CB62:  BTFSS  F9E.4
0CB64:  BRA    CB62
0CB66:  MOVWF  FAD
0CB68:  MOVLW  30
0CB6A:  BTFSS  F9E.4
0CB6C:  BRA    CB6A
0CB6E:  MOVWF  FAD
0CB70:  MOVFF  39E,444
0CB74:  MOVLW  01
0CB76:  MOVLB  4
0CB78:  MOVWF  x45
0CB7A:  MOVLB  0
0CB7C:  CALL   483A
0CB80:  MOVLW  07
0CB82:  MOVWF  FF6
0CB84:  MOVLW  18
0CB86:  MOVWF  FF7
0CB88:  MOVLW  00
0CB8A:  MOVWF  FF8
0CB8C:  MOVLW  0A
0CB8E:  MOVLB  4
0CB90:  MOVWF  x44
0CB92:  MOVLB  0
0CB94:  CALL   47DC
0CB98:  MOVFF  3A1,444
0CB9C:  MOVLW  01
0CB9E:  MOVLB  4
0CBA0:  MOVWF  x45
0CBA2:  MOVLB  0
0CBA4:  CALL   483A
0CBA8:  MOVLW  3A
0CBAA:  BTFSS  F9E.4
0CBAC:  BRA    CBAA
0CBAE:  MOVWF  FAD
0CBB0:  MOVFF  3A2,444
0CBB4:  MOVLW  01
0CBB6:  MOVLB  4
0CBB8:  MOVWF  x45
0CBBA:  MOVLB  0
0CBBC:  CALL   483A
0CBC0:  MOVLW  22
0CBC2:  BTFSS  F9E.4
0CBC4:  BRA    CBC2
0CBC6:  MOVWF  FAD
....................       SendDataDisplay(); 
0CBC8:  CALL   3874
0CBCC:  MOVLB  3
....................    } 
....................  
....................  
.................... } 
.................... //_-------------------------------------------------------------------------------------------------------------------------------------------------------- 
....................  
.................... //_-------------------------------------------------------------------------------------------------------------------------------------------------------- 
....................       if(Menu==100){ //Menu de Configuracin de Parametros de Control 
0CBCE:  MOVF   x62,W
0CBD0:  SUBLW  64
0CBD2:  BTFSS  FD8.2
0CBD4:  GOTO   D62A
....................       
....................       if(Opcion2>8) 
0CBD8:  MOVF   x6D,W
0CBDA:  SUBLW  08
0CBDC:  BC    CBE2
....................          Opcion2=1; 
0CBDE:  MOVLW  01
0CBE0:  MOVWF  x6D
....................       if(Opcion2<1) 
0CBE2:  MOVF   x6D,F
0CBE4:  BNZ   CBEA
....................          Opcion2=8; 
0CBE6:  MOVLW  08
0CBE8:  MOVWF  x6D
....................        
....................       if(Opcion2==1){ 
0CBEA:  DECFSZ x6D,W
0CBEC:  BRA    CCA2
....................          printf("Config.t2c.txt=\"Ajuste +\""); 
0CBEE:  MOVLW  1C
0CBF0:  MOVWF  FF6
0CBF2:  MOVLW  18
0CBF4:  MOVWF  FF7
0CBF6:  MOVLW  00
0CBF8:  MOVWF  FF8
0CBFA:  MOVLB  0
0CBFC:  CALL   3842
....................          SendDataDisplay();       
0CC00:  CALL   3874
....................          printf("t3c.txt=\"%u\"",Ajuste); 
0CC04:  MOVLW  36
0CC06:  MOVWF  FF6
0CC08:  MOVLW  18
0CC0A:  MOVWF  FF7
0CC0C:  MOVLW  00
0CC0E:  MOVWF  FF8
0CC10:  MOVLW  09
0CC12:  MOVLB  4
0CC14:  MOVWF  x44
0CC16:  MOVLB  0
0CC18:  CALL   47DC
0CC1C:  MOVFF  2D9,444
0CC20:  MOVLW  1B
0CC22:  MOVLB  4
0CC24:  MOVWF  x45
0CC26:  MOVLB  0
0CC28:  CALL   483A
0CC2C:  MOVLW  22
0CC2E:  BTFSS  F9E.4
0CC30:  BRA    CC2E
0CC32:  MOVWF  FAD
....................          SendDataDisplay(); 
0CC34:  CALL   3874
....................          if(RX_Buffer[4]==0x0a || UP){//Tecla Arriba Oprimida 
0CC38:  MOVF   34,W
0CC3A:  SUBLW  0A
0CC3C:  BZ    CC44
0CC3E:  BSF    F93.0
0CC40:  BTFSC  F81.0
0CC42:  BRA    CC6C
....................             delay_ms(20); 
0CC44:  MOVLW  14
0CC46:  MOVLB  4
0CC48:  MOVWF  x54
0CC4A:  MOVLB  0
0CC4C:  CALL   19B0
....................             if(RX_Buffer[4]==0x0a || UP){ 
0CC50:  MOVF   34,W
0CC52:  SUBLW  0A
0CC54:  BZ    CC5C
0CC56:  BSF    F93.0
0CC58:  BTFSC  F81.0
0CC5A:  BRA    CC6C
....................                if(Ajuste<40) 
0CC5C:  MOVLB  2
0CC5E:  MOVF   xD9,W
0CC60:  SUBLW  27
0CC62:  BNC   CC66
....................                   Ajuste++; 
0CC64:  INCF   xD9,F
....................                RX_Buffer[4]=0x00;   
0CC66:  CLRF   34
....................                RX_Buffer2[4]=0x00;             
0CC68:  CLRF   3F
0CC6A:  MOVLB  0
....................                //BorraBuffer(); 
....................             } 
....................          } 
....................              
....................          if(RX_Buffer[4]==0x0b || DOWN){//Tecla Abajo Oprimida 
0CC6C:  MOVF   34,W
0CC6E:  SUBLW  0B
0CC70:  BZ    CC78
0CC72:  BSF    F93.1
0CC74:  BTFSC  F81.1
0CC76:  BRA    CC9E
....................             delay_ms(20); 
0CC78:  MOVLW  14
0CC7A:  MOVLB  4
0CC7C:  MOVWF  x54
0CC7E:  MOVLB  0
0CC80:  CALL   19B0
....................             if(RX_Buffer[4]==0x0b || DOWN){ 
0CC84:  MOVF   34,W
0CC86:  SUBLW  0B
0CC88:  BZ    CC90
0CC8A:  BSF    F93.1
0CC8C:  BTFSC  F81.1
0CC8E:  BRA    CC9E
....................                if(Ajuste>0) 
0CC90:  MOVLB  2
0CC92:  MOVF   xD9,F
0CC94:  BZ    CC98
....................                   Ajuste--; 
0CC96:  DECF   xD9,F
....................                RX_Buffer[4]=0x00; 
0CC98:  CLRF   34
....................                RX_Buffer2[4]=0x00;             
0CC9A:  CLRF   3F
0CC9C:  MOVLB  0
....................                //BorraBuffer(); 
....................             } 
....................          } 
....................       }else if(Opcion2==2){ 
0CC9E:  BRA    D2BE
0CCA0:  MOVLB  3
0CCA2:  MOVF   x6D,W
0CCA4:  SUBLW  02
0CCA6:  BNZ   CD5C
....................          printf("Config.t2c.txt=\"Ajuste -\""); 
0CCA8:  MOVLW  44
0CCAA:  MOVWF  FF6
0CCAC:  MOVLW  18
0CCAE:  MOVWF  FF7
0CCB0:  MOVLW  00
0CCB2:  MOVWF  FF8
0CCB4:  MOVLB  0
0CCB6:  CALL   3842
....................          SendDataDisplay();       
0CCBA:  CALL   3874
....................          printf("t3c.txt=\"%u\"",Ajusten); 
0CCBE:  MOVLW  5E
0CCC0:  MOVWF  FF6
0CCC2:  MOVLW  18
0CCC4:  MOVWF  FF7
0CCC6:  MOVLW  00
0CCC8:  MOVWF  FF8
0CCCA:  MOVLW  09
0CCCC:  MOVLB  4
0CCCE:  MOVWF  x44
0CCD0:  MOVLB  0
0CCD2:  CALL   47DC
0CCD6:  MOVFF  2DA,444
0CCDA:  MOVLW  1B
0CCDC:  MOVLB  4
0CCDE:  MOVWF  x45
0CCE0:  MOVLB  0
0CCE2:  CALL   483A
0CCE6:  MOVLW  22
0CCE8:  BTFSS  F9E.4
0CCEA:  BRA    CCE8
0CCEC:  MOVWF  FAD
....................          SendDataDisplay(); 
0CCEE:  CALL   3874
....................          if(RX_Buffer[4]==0x0a || UP){//Tecla Arriba Oprimida 
0CCF2:  MOVF   34,W
0CCF4:  SUBLW  0A
0CCF6:  BZ    CCFE
0CCF8:  BSF    F93.0
0CCFA:  BTFSC  F81.0
0CCFC:  BRA    CD26
....................             delay_ms(20); 
0CCFE:  MOVLW  14
0CD00:  MOVLB  4
0CD02:  MOVWF  x54
0CD04:  MOVLB  0
0CD06:  CALL   19B0
....................             if(RX_Buffer[4]==0x0a || UP){ 
0CD0A:  MOVF   34,W
0CD0C:  SUBLW  0A
0CD0E:  BZ    CD16
0CD10:  BSF    F93.0
0CD12:  BTFSC  F81.0
0CD14:  BRA    CD26
....................                if(Ajusten<40) 
0CD16:  MOVLB  2
0CD18:  MOVF   xDA,W
0CD1A:  SUBLW  27
0CD1C:  BNC   CD20
....................                   Ajusten++; 
0CD1E:  INCF   xDA,F
....................                RX_Buffer[4]=0x00;   
0CD20:  CLRF   34
....................                RX_Buffer2[4]=0x00;             
0CD22:  CLRF   3F
0CD24:  MOVLB  0
....................                //BorraBuffer(); 
....................             } 
....................          } 
....................              
....................          if(RX_Buffer[4]==0x0b || DOWN){//Tecla Abajo Oprimida 
0CD26:  MOVF   34,W
0CD28:  SUBLW  0B
0CD2A:  BZ    CD32
0CD2C:  BSF    F93.1
0CD2E:  BTFSC  F81.1
0CD30:  BRA    CD58
....................             delay_ms(20); 
0CD32:  MOVLW  14
0CD34:  MOVLB  4
0CD36:  MOVWF  x54
0CD38:  MOVLB  0
0CD3A:  CALL   19B0
....................             if(RX_Buffer[4]==0x0b || DOWN){ 
0CD3E:  MOVF   34,W
0CD40:  SUBLW  0B
0CD42:  BZ    CD4A
0CD44:  BSF    F93.1
0CD46:  BTFSC  F81.1
0CD48:  BRA    CD58
....................                if(Ajusten>0) 
0CD4A:  MOVLB  2
0CD4C:  MOVF   xDA,F
0CD4E:  BZ    CD52
....................                   Ajusten--; 
0CD50:  DECF   xDA,F
....................                RX_Buffer[4]=0x00; 
0CD52:  CLRF   34
....................                RX_Buffer2[4]=0x00;             
0CD54:  CLRF   3F
0CD56:  MOVLB  0
....................                //BorraBuffer(); 
....................             } 
....................          } 
....................       }else if(Opcion2==3){ 
0CD58:  BRA    D2BE
0CD5A:  MOVLB  3
0CD5C:  MOVF   x6D,W
0CD5E:  SUBLW  03
0CD60:  BNZ   CE18
....................          printf("Config.t2c.txt=\"Media\""); 
0CD62:  MOVLW  6C
0CD64:  MOVWF  FF6
0CD66:  MOVLW  18
0CD68:  MOVWF  FF7
0CD6A:  MOVLW  00
0CD6C:  MOVWF  FF8
0CD6E:  MOVLB  0
0CD70:  CALL   3842
....................          SendDataDisplay();       
0CD74:  CALL   3874
....................          printf("t3c.txt=\"%u\"",MediaMovil); 
0CD78:  MOVLW  84
0CD7A:  MOVWF  FF6
0CD7C:  MOVLW  18
0CD7E:  MOVWF  FF7
0CD80:  MOVLW  00
0CD82:  MOVWF  FF8
0CD84:  MOVLW  09
0CD86:  MOVLB  4
0CD88:  MOVWF  x44
0CD8A:  MOVLB  0
0CD8C:  CALL   47DC
0CD90:  MOVFF  2DB,444
0CD94:  MOVLW  1B
0CD96:  MOVLB  4
0CD98:  MOVWF  x45
0CD9A:  MOVLB  0
0CD9C:  CALL   483A
0CDA0:  MOVLW  22
0CDA2:  BTFSS  F9E.4
0CDA4:  BRA    CDA2
0CDA6:  MOVWF  FAD
....................          SendDataDisplay(); 
0CDA8:  CALL   3874
....................          if(RX_Buffer[4]==0x0a || UP){//Tecla Arriba Oprimida 
0CDAC:  MOVF   34,W
0CDAE:  SUBLW  0A
0CDB0:  BZ    CDB8
0CDB2:  BSF    F93.0
0CDB4:  BTFSC  F81.0
0CDB6:  BRA    CDE0
....................             delay_ms(20); 
0CDB8:  MOVLW  14
0CDBA:  MOVLB  4
0CDBC:  MOVWF  x54
0CDBE:  MOVLB  0
0CDC0:  CALL   19B0
....................             if(RX_Buffer[4]==0x0a || UP){ 
0CDC4:  MOVF   34,W
0CDC6:  SUBLW  0A
0CDC8:  BZ    CDD0
0CDCA:  BSF    F93.0
0CDCC:  BTFSC  F81.0
0CDCE:  BRA    CDE0
....................                if(MediaMovil<80) 
0CDD0:  MOVLB  2
0CDD2:  MOVF   xDB,W
0CDD4:  SUBLW  4F
0CDD6:  BNC   CDDA
....................                   MediaMovil++; 
0CDD8:  INCF   xDB,F
....................                RX_Buffer[4]=0x00;   
0CDDA:  CLRF   34
....................                RX_Buffer2[4]=0x00;             
0CDDC:  CLRF   3F
0CDDE:  MOVLB  0
....................                //BorraBuffer(); 
....................             } 
....................          } 
....................              
....................          if(RX_Buffer[4]==0x0b || DOWN){//Tecla Abajo Oprimida 
0CDE0:  MOVF   34,W
0CDE2:  SUBLW  0B
0CDE4:  BZ    CDEC
0CDE6:  BSF    F93.1
0CDE8:  BTFSC  F81.1
0CDEA:  BRA    CE14
....................             delay_ms(20); 
0CDEC:  MOVLW  14
0CDEE:  MOVLB  4
0CDF0:  MOVWF  x54
0CDF2:  MOVLB  0
0CDF4:  CALL   19B0
....................             if(RX_Buffer[4]==0x0b || DOWN){ 
0CDF8:  MOVF   34,W
0CDFA:  SUBLW  0B
0CDFC:  BZ    CE04
0CDFE:  BSF    F93.1
0CE00:  BTFSC  F81.1
0CE02:  BRA    CE14
....................                if(MediaMovil>10) 
0CE04:  MOVLB  2
0CE06:  MOVF   xDB,W
0CE08:  SUBLW  0A
0CE0A:  BC    CE0E
....................                   MediaMovil--; 
0CE0C:  DECF   xDB,F
....................                RX_Buffer[4]=0x00; 
0CE0E:  CLRF   34
....................                RX_Buffer2[4]=0x00;             
0CE10:  CLRF   3F
0CE12:  MOVLB  0
....................                //BorraBuffer(); 
....................             } 
....................          } 
....................       }else if(Opcion2==4){ 
0CE14:  BRA    D2BE
0CE16:  MOVLB  3
0CE18:  MOVF   x6D,W
0CE1A:  SUBLW  04
0CE1C:  BNZ   CE6C
....................          printf("Config.t2c.txt=\"Ciclos\""); 
0CE1E:  MOVLW  92
0CE20:  MOVWF  FF6
0CE22:  MOVLW  18
0CE24:  MOVWF  FF7
0CE26:  MOVLW  00
0CE28:  MOVWF  FF8
0CE2A:  MOVLB  0
0CE2C:  CALL   3842
....................          SendDataDisplay();       
0CE30:  CALL   3874
....................          printf("t3c.txt=\"%05Lu\"",Ciclos); 
0CE34:  MOVLW  AA
0CE36:  MOVWF  FF6
0CE38:  MOVLW  18
0CE3A:  MOVWF  FF7
0CE3C:  MOVLW  00
0CE3E:  MOVWF  FF8
0CE40:  MOVLW  09
0CE42:  MOVLB  4
0CE44:  MOVWF  x44
0CE46:  MOVLB  0
0CE48:  CALL   47DC
0CE4C:  MOVLW  08
0CE4E:  MOVWF  FE9
0CE50:  MOVFF  382,444
0CE54:  MOVFF  381,443
0CE58:  CALL   4BA2
0CE5C:  MOVLW  22
0CE5E:  BTFSS  F9E.4
0CE60:  BRA    CE5E
0CE62:  MOVWF  FAD
....................          SendDataDisplay(); 
0CE64:  CALL   3874
....................       }else if(Opcion2==5){ 
0CE68:  BRA    D2BE
0CE6A:  MOVLB  3
0CE6C:  MOVF   x6D,W
0CE6E:  SUBLW  05
0CE70:  BNZ   CF28
....................          printf("Config.t2c.txt=\"Atmosferica\""); 
0CE72:  MOVLW  BA
0CE74:  MOVWF  FF6
0CE76:  MOVLW  18
0CE78:  MOVWF  FF7
0CE7A:  MOVLW  00
0CE7C:  MOVWF  FF8
0CE7E:  MOVLB  0
0CE80:  CALL   3842
....................          SendDataDisplay();    
0CE84:  CALL   3874
....................          printf("t3c.txt=\"%02u\"",Atmosferica); 
0CE88:  MOVLW  D8
0CE8A:  MOVWF  FF6
0CE8C:  MOVLW  18
0CE8E:  MOVWF  FF7
0CE90:  MOVLW  00
0CE92:  MOVWF  FF8
0CE94:  MOVLW  09
0CE96:  MOVLB  4
0CE98:  MOVWF  x44
0CE9A:  MOVLB  0
0CE9C:  CALL   47DC
0CEA0:  MOVFF  3AE,444
0CEA4:  MOVLW  01
0CEA6:  MOVLB  4
0CEA8:  MOVWF  x45
0CEAA:  MOVLB  0
0CEAC:  CALL   483A
0CEB0:  MOVLW  22
0CEB2:  BTFSS  F9E.4
0CEB4:  BRA    CEB2
0CEB6:  MOVWF  FAD
....................          SendDataDisplay(); 
0CEB8:  CALL   3874
....................           
....................          #ifdef PT100Fija 
....................             Atmosferica=0; 
....................          #else 
....................             if(RX_Buffer[4]==0x0a || UP){//Tecla Arriba Oprimida 
0CEBC:  MOVF   34,W
0CEBE:  SUBLW  0A
0CEC0:  BZ    CEC8
0CEC2:  BSF    F93.0
0CEC4:  BTFSC  F81.0
0CEC6:  BRA    CEF0
....................                delay_ms(20); 
0CEC8:  MOVLW  14
0CECA:  MOVLB  4
0CECC:  MOVWF  x54
0CECE:  MOVLB  0
0CED0:  CALL   19B0
....................                if(RX_Buffer[4]==0x0a || UP){ 
0CED4:  MOVF   34,W
0CED6:  SUBLW  0A
0CED8:  BZ    CEE0
0CEDA:  BSF    F93.0
0CEDC:  BTFSC  F81.0
0CEDE:  BRA    CEF0
....................                   if(Atmosferica<100) 
0CEE0:  MOVLB  3
0CEE2:  MOVF   xAE,W
0CEE4:  SUBLW  63
0CEE6:  BNC   CEEA
....................                      Atmosferica++; 
0CEE8:  INCF   xAE,F
....................                   RX_Buffer[4]=0x00;   
0CEEA:  CLRF   34
....................                   RX_Buffer2[4]=0x00;             
0CEEC:  CLRF   3F
0CEEE:  MOVLB  0
....................                   //BorraBuffer(); 
....................                } 
....................             } 
....................                 
....................             if(RX_Buffer[4]==0x0b || DOWN){//Tecla Abajo Oprimida 
0CEF0:  MOVF   34,W
0CEF2:  SUBLW  0B
0CEF4:  BZ    CEFC
0CEF6:  BSF    F93.1
0CEF8:  BTFSC  F81.1
0CEFA:  BRA    CF24
....................                delay_ms(20); 
0CEFC:  MOVLW  14
0CEFE:  MOVLB  4
0CF00:  MOVWF  x54
0CF02:  MOVLB  0
0CF04:  CALL   19B0
....................                if(RX_Buffer[4]==0x0b || DOWN){ 
0CF08:  MOVF   34,W
0CF0A:  SUBLW  0B
0CF0C:  BZ    CF14
0CF0E:  BSF    F93.1
0CF10:  BTFSC  F81.1
0CF12:  BRA    CF24
....................                   if(Atmosferica>50) 
0CF14:  MOVLB  3
0CF16:  MOVF   xAE,W
0CF18:  SUBLW  32
0CF1A:  BC    CF1E
....................                      Atmosferica--; 
0CF1C:  DECF   xAE,F
....................                   RX_Buffer[4]=0x00; 
0CF1E:  CLRF   34
....................                   RX_Buffer2[4]=0x00;             
0CF20:  CLRF   3F
0CF22:  MOVLB  0
....................                   //BorraBuffer(); 
....................                } 
....................             }  
....................          #endif 
....................       }else if(Opcion2==6){ 
0CF24:  BRA    D2BE
0CF26:  MOVLB  3
0CF28:  MOVF   x6D,W
0CF2A:  SUBLW  06
0CF2C:  BNZ   CFE4
....................          printf("Config.t2c.txt=\"TTrampa\""); 
0CF2E:  MOVLW  E8
0CF30:  MOVWF  FF6
0CF32:  MOVLW  18
0CF34:  MOVWF  FF7
0CF36:  MOVLW  00
0CF38:  MOVWF  FF8
0CF3A:  MOVLB  0
0CF3C:  CALL   3842
....................          SendDataDisplay();       
0CF40:  CALL   3874
....................          printf("t3c.txt=\"%02u\"",TTrampa); 
0CF44:  MOVLW  02
0CF46:  MOVWF  FF6
0CF48:  MOVLW  19
0CF4A:  MOVWF  FF7
0CF4C:  MOVLW  00
0CF4E:  MOVWF  FF8
0CF50:  MOVLW  09
0CF52:  MOVLB  4
0CF54:  MOVWF  x44
0CF56:  MOVLB  0
0CF58:  CALL   47DC
0CF5C:  MOVFF  2DC,444
0CF60:  MOVLW  01
0CF62:  MOVLB  4
0CF64:  MOVWF  x45
0CF66:  MOVLB  0
0CF68:  CALL   483A
0CF6C:  MOVLW  22
0CF6E:  BTFSS  F9E.4
0CF70:  BRA    CF6E
0CF72:  MOVWF  FAD
....................          SendDataDisplay(); 
0CF74:  CALL   3874
....................          if(RX_Buffer[4]==0x0a || UP){//Tecla Arriba Oprimida 
0CF78:  MOVF   34,W
0CF7A:  SUBLW  0A
0CF7C:  BZ    CF84
0CF7E:  BSF    F93.0
0CF80:  BTFSC  F81.0
0CF82:  BRA    CFAC
....................             delay_ms(20); 
0CF84:  MOVLW  14
0CF86:  MOVLB  4
0CF88:  MOVWF  x54
0CF8A:  MOVLB  0
0CF8C:  CALL   19B0
....................             if(RX_Buffer[4]==0x0a || UP){ 
0CF90:  MOVF   34,W
0CF92:  SUBLW  0A
0CF94:  BZ    CF9C
0CF96:  BSF    F93.0
0CF98:  BTFSC  F81.0
0CF9A:  BRA    CFAC
....................                if(TTrampa<100) 
0CF9C:  MOVLB  2
0CF9E:  MOVF   xDC,W
0CFA0:  SUBLW  63
0CFA2:  BNC   CFA6
....................                   TTrampa++; 
0CFA4:  INCF   xDC,F
....................                RX_Buffer[4]=0x00;   
0CFA6:  CLRF   34
....................                RX_Buffer2[4]=0x00;             
0CFA8:  CLRF   3F
0CFAA:  MOVLB  0
....................                //BorraBuffer(); 
....................             } 
....................          } 
....................              
....................          if(RX_Buffer[4]==0x0b || DOWN){//Tecla Abajo Oprimida 
0CFAC:  MOVF   34,W
0CFAE:  SUBLW  0B
0CFB0:  BZ    CFB8
0CFB2:  BSF    F93.1
0CFB4:  BTFSC  F81.1
0CFB6:  BRA    CFE0
....................             delay_ms(20); 
0CFB8:  MOVLW  14
0CFBA:  MOVLB  4
0CFBC:  MOVWF  x54
0CFBE:  MOVLB  0
0CFC0:  CALL   19B0
....................             if(RX_Buffer[4]==0x0b || DOWN){ 
0CFC4:  MOVF   34,W
0CFC6:  SUBLW  0B
0CFC8:  BZ    CFD0
0CFCA:  BSF    F93.1
0CFCC:  BTFSC  F81.1
0CFCE:  BRA    CFE0
....................                if(TTrampa>10) 
0CFD0:  MOVLB  2
0CFD2:  MOVF   xDC,W
0CFD4:  SUBLW  0A
0CFD6:  BC    CFDA
....................                   TTrampa--; 
0CFD8:  DECF   xDC,F
....................                RX_Buffer[4]=0x00; 
0CFDA:  CLRF   34
....................                RX_Buffer2[4]=0x00;             
0CFDC:  CLRF   3F
0CFDE:  MOVLB  0
....................                //BorraBuffer(); 
....................             } 
....................          } 
....................       }else if(Opcion2==7){ 
0CFE0:  BRA    D2BE
0CFE2:  MOVLB  3
0CFE4:  MOVF   x6D,W
0CFE6:  SUBLW  07
0CFE8:  BTFSS  FD8.2
0CFEA:  BRA    D154
....................          printf("Config.t2c.txt=\"Desvio\""); 
0CFEC:  MOVLW  12
0CFEE:  MOVWF  FF6
0CFF0:  MOVLW  19
0CFF2:  MOVWF  FF7
0CFF4:  MOVLW  00
0CFF6:  MOVWF  FF8
0CFF8:  MOVLB  0
0CFFA:  CALL   3842
....................          SendDataDisplay();       
0CFFE:  CALL   3874
....................          printf("t3c.txt=\"%2.1f\"",desvio); 
0D002:  MOVLW  2A
0D004:  MOVWF  FF6
0D006:  MOVLW  19
0D008:  MOVWF  FF7
0D00A:  MOVLW  00
0D00C:  MOVWF  FF8
0D00E:  MOVLW  09
0D010:  MOVLB  4
0D012:  MOVWF  x44
0D014:  MOVLB  0
0D016:  CALL   47DC
0D01A:  MOVLW  01
0D01C:  MOVWF  FE9
0D01E:  MOVFF  313,447
0D022:  MOVFF  312,446
0D026:  MOVFF  311,445
0D02A:  MOVFF  310,444
0D02E:  MOVLB  4
0D030:  MOVWF  x48
0D032:  MOVLB  0
0D034:  CALL   497C
0D038:  MOVLW  22
0D03A:  BTFSS  F9E.4
0D03C:  BRA    D03A
0D03E:  MOVWF  FAD
....................          SendDataDisplay(); 
0D040:  CALL   3874
....................          if(RX_Buffer[4]==0x0a || UP){//Tecla Arriba Oprimida 
0D044:  MOVF   34,W
0D046:  SUBLW  0A
0D048:  BZ    D050
0D04A:  BSF    F93.0
0D04C:  BTFSC  F81.0
0D04E:  BRA    D0CC
....................             delay_ms(20); 
0D050:  MOVLW  14
0D052:  MOVLB  4
0D054:  MOVWF  x54
0D056:  MOVLB  0
0D058:  CALL   19B0
....................             if(RX_Buffer[4]==0x0a || UP){ 
0D05C:  MOVF   34,W
0D05E:  SUBLW  0A
0D060:  BZ    D068
0D062:  BSF    F93.0
0D064:  BTFSC  F81.0
0D066:  BRA    D0CC
....................                if(desvio<3.0) 
0D068:  MOVFF  313,446
0D06C:  MOVFF  312,445
0D070:  MOVFF  311,444
0D074:  MOVFF  310,443
0D078:  MOVLB  4
0D07A:  CLRF   x4A
0D07C:  CLRF   x49
0D07E:  MOVLW  40
0D080:  MOVWF  x48
0D082:  MOVLW  80
0D084:  MOVWF  x47
0D086:  MOVLB  0
0D088:  CALL   2CD2
0D08C:  BNC   D0C8
....................                   desvio+=0.1; 
0D08E:  BCF    FD8.1
0D090:  MOVFF  313,457
0D094:  MOVFF  312,456
0D098:  MOVFF  311,455
0D09C:  MOVFF  310,454
0D0A0:  MOVLW  CD
0D0A2:  MOVLB  4
0D0A4:  MOVWF  x5B
0D0A6:  MOVLW  CC
0D0A8:  MOVWF  x5A
0D0AA:  MOVLW  4C
0D0AC:  MOVWF  x59
0D0AE:  MOVLW  7B
0D0B0:  MOVWF  x58
0D0B2:  MOVLB  0
0D0B4:  CALL   1B6C
0D0B8:  MOVFF  03,313
0D0BC:  MOVFF  02,312
0D0C0:  MOVFF  01,311
0D0C4:  MOVFF  00,310
....................                RX_Buffer[4]=0x00;   
0D0C8:  CLRF   34
....................                RX_Buffer2[4]=0x00;             
0D0CA:  CLRF   3F
....................                //BorraBuffer(); 
....................             } 
....................          } 
....................              
....................          if(RX_Buffer[4]==0x0b || DOWN){//Tecla Abajo Oprimida 
0D0CC:  MOVF   34,W
0D0CE:  SUBLW  0B
0D0D0:  BZ    D0D8
0D0D2:  BSF    F93.1
0D0D4:  BTFSC  F81.1
0D0D6:  BRA    D150
....................             delay_ms(20); 
0D0D8:  MOVLW  14
0D0DA:  MOVLB  4
0D0DC:  MOVWF  x54
0D0DE:  MOVLB  0
0D0E0:  CALL   19B0
....................             if(RX_Buffer[4]==0x0b || DOWN){ 
0D0E4:  MOVF   34,W
0D0E6:  SUBLW  0B
0D0E8:  BZ    D0F0
0D0EA:  BSF    F93.1
0D0EC:  BTFSC  F81.1
0D0EE:  BRA    D150
....................                if(desvio>0.0) 
0D0F0:  MOVLB  4
0D0F2:  CLRF   x46
0D0F4:  CLRF   x45
0D0F6:  CLRF   x44
0D0F8:  CLRF   x43
0D0FA:  MOVFF  313,44A
0D0FE:  MOVFF  312,449
0D102:  MOVFF  311,448
0D106:  MOVFF  310,447
0D10A:  MOVLB  0
0D10C:  CALL   2CD2
0D110:  BNC   D14C
....................                   desvio-=0.1; 
0D112:  BSF    FD8.1
0D114:  MOVFF  313,457
0D118:  MOVFF  312,456
0D11C:  MOVFF  311,455
0D120:  MOVFF  310,454
0D124:  MOVLW  CD
0D126:  MOVLB  4
0D128:  MOVWF  x5B
0D12A:  MOVLW  CC
0D12C:  MOVWF  x5A
0D12E:  MOVLW  4C
0D130:  MOVWF  x59
0D132:  MOVLW  7B
0D134:  MOVWF  x58
0D136:  MOVLB  0
0D138:  CALL   1B6C
0D13C:  MOVFF  03,313
0D140:  MOVFF  02,312
0D144:  MOVFF  01,311
0D148:  MOVFF  00,310
....................                RX_Buffer[4]=0x00; 
0D14C:  CLRF   34
....................                RX_Buffer2[4]=0x00;             
0D14E:  CLRF   3F
....................                //BorraBuffer(); 
....................             } 
....................          } 
....................       }else if(Opcion2==8){ 
0D150:  BRA    D2BE
0D152:  MOVLB  3
0D154:  MOVF   x6D,W
0D156:  SUBLW  08
0D158:  BTFSS  FD8.2
0D15A:  BRA    D2C0
....................          printf("Config.t2c.txt=\"Histeresis\""); 
0D15C:  MOVLW  3A
0D15E:  MOVWF  FF6
0D160:  MOVLW  19
0D162:  MOVWF  FF7
0D164:  MOVLW  00
0D166:  MOVWF  FF8
0D168:  MOVLB  0
0D16A:  CALL   3842
....................          SendDataDisplay();       
0D16E:  CALL   3874
....................          printf("t3c.txt=\"%2.1f\"",Histeresis); 
0D172:  MOVLW  56
0D174:  MOVWF  FF6
0D176:  MOVLW  19
0D178:  MOVWF  FF7
0D17A:  MOVLW  00
0D17C:  MOVWF  FF8
0D17E:  MOVLW  09
0D180:  MOVLB  4
0D182:  MOVWF  x44
0D184:  MOVLB  0
0D186:  CALL   47DC
0D18A:  MOVLW  01
0D18C:  MOVWF  FE9
0D18E:  MOVFF  333,447
0D192:  MOVFF  332,446
0D196:  MOVFF  331,445
0D19A:  MOVFF  330,444
0D19E:  MOVLB  4
0D1A0:  MOVWF  x48
0D1A2:  MOVLB  0
0D1A4:  CALL   497C
0D1A8:  MOVLW  22
0D1AA:  BTFSS  F9E.4
0D1AC:  BRA    D1AA
0D1AE:  MOVWF  FAD
....................          SendDataDisplay(); 
0D1B0:  CALL   3874
....................          if(RX_Buffer[4]==0x0a || UP){//Tecla Arriba Oprimida 
0D1B4:  MOVF   34,W
0D1B6:  SUBLW  0A
0D1B8:  BZ    D1C0
0D1BA:  BSF    F93.0
0D1BC:  BTFSC  F81.0
0D1BE:  BRA    D23A
....................             delay_ms(20); 
0D1C0:  MOVLW  14
0D1C2:  MOVLB  4
0D1C4:  MOVWF  x54
0D1C6:  MOVLB  0
0D1C8:  CALL   19B0
....................             if(RX_Buffer[4]==0x0a || UP){ 
0D1CC:  MOVF   34,W
0D1CE:  SUBLW  0A
0D1D0:  BZ    D1D8
0D1D2:  BSF    F93.0
0D1D4:  BTFSC  F81.0
0D1D6:  BRA    D23A
....................                if(Histeresis<2.0) 
0D1D8:  MOVFF  333,446
0D1DC:  MOVFF  332,445
0D1E0:  MOVFF  331,444
0D1E4:  MOVFF  330,443
0D1E8:  MOVLB  4
0D1EA:  CLRF   x4A
0D1EC:  CLRF   x49
0D1EE:  CLRF   x48
0D1F0:  MOVLW  80
0D1F2:  MOVWF  x47
0D1F4:  MOVLB  0
0D1F6:  CALL   2CD2
0D1FA:  BNC   D236
....................                   Histeresis+=0.1; 
0D1FC:  BCF    FD8.1
0D1FE:  MOVFF  333,457
0D202:  MOVFF  332,456
0D206:  MOVFF  331,455
0D20A:  MOVFF  330,454
0D20E:  MOVLW  CD
0D210:  MOVLB  4
0D212:  MOVWF  x5B
0D214:  MOVLW  CC
0D216:  MOVWF  x5A
0D218:  MOVLW  4C
0D21A:  MOVWF  x59
0D21C:  MOVLW  7B
0D21E:  MOVWF  x58
0D220:  MOVLB  0
0D222:  CALL   1B6C
0D226:  MOVFF  03,333
0D22A:  MOVFF  02,332
0D22E:  MOVFF  01,331
0D232:  MOVFF  00,330
....................                RX_Buffer[4]=0x00;   
0D236:  CLRF   34
....................                RX_Buffer2[4]=0x00;             
0D238:  CLRF   3F
....................                //BorraBuffer(); 
....................             } 
....................          } 
....................              
....................          if(RX_Buffer[4]==0x0b || DOWN){//Tecla Abajo Oprimida 
0D23A:  MOVF   34,W
0D23C:  SUBLW  0B
0D23E:  BZ    D246
0D240:  BSF    F93.1
0D242:  BTFSC  F81.1
0D244:  BRA    D2BE
....................             delay_ms(20); 
0D246:  MOVLW  14
0D248:  MOVLB  4
0D24A:  MOVWF  x54
0D24C:  MOVLB  0
0D24E:  CALL   19B0
....................             if(RX_Buffer[4]==0x0b || DOWN){ 
0D252:  MOVF   34,W
0D254:  SUBLW  0B
0D256:  BZ    D25E
0D258:  BSF    F93.1
0D25A:  BTFSC  F81.1
0D25C:  BRA    D2BE
....................                if(Histeresis>0.0) 
0D25E:  MOVLB  4
0D260:  CLRF   x46
0D262:  CLRF   x45
0D264:  CLRF   x44
0D266:  CLRF   x43
0D268:  MOVFF  333,44A
0D26C:  MOVFF  332,449
0D270:  MOVFF  331,448
0D274:  MOVFF  330,447
0D278:  MOVLB  0
0D27A:  CALL   2CD2
0D27E:  BNC   D2BA
....................                   Histeresis-=0.1; 
0D280:  BSF    FD8.1
0D282:  MOVFF  333,457
0D286:  MOVFF  332,456
0D28A:  MOVFF  331,455
0D28E:  MOVFF  330,454
0D292:  MOVLW  CD
0D294:  MOVLB  4
0D296:  MOVWF  x5B
0D298:  MOVLW  CC
0D29A:  MOVWF  x5A
0D29C:  MOVLW  4C
0D29E:  MOVWF  x59
0D2A0:  MOVLW  7B
0D2A2:  MOVWF  x58
0D2A4:  MOVLB  0
0D2A6:  CALL   1B6C
0D2AA:  MOVFF  03,333
0D2AE:  MOVFF  02,332
0D2B2:  MOVFF  01,331
0D2B6:  MOVFF  00,330
....................                RX_Buffer[4]=0x00; 
0D2BA:  CLRF   34
....................                RX_Buffer2[4]=0x00;             
0D2BC:  CLRF   3F
0D2BE:  MOVLB  3
....................                //BorraBuffer(); 
....................             } 
....................          } 
....................       } 
....................        
....................       if(RX_Buffer[4]==0x0c || LEFT){//Tecla Izquierda Oprimida 
0D2C0:  MOVF   34,W
0D2C2:  SUBLW  0C
0D2C4:  BZ    D2CC
0D2C6:  BSF    F93.3
0D2C8:  BTFSC  F81.3
0D2CA:  BRA    D2EC
....................          delay_ms(20); 
0D2CC:  MOVLW  14
0D2CE:  MOVLB  4
0D2D0:  MOVWF  x54
0D2D2:  MOVLB  0
0D2D4:  CALL   19B0
....................          if(RX_Buffer[4]==0x0c || LEFT){ 
0D2D8:  MOVF   34,W
0D2DA:  SUBLW  0C
0D2DC:  BZ    D2E4
0D2DE:  BSF    F93.3
0D2E0:  BTFSC  F81.3
0D2E2:  BRA    D2EE
....................             Opcion2++; 
0D2E4:  MOVLB  3
0D2E6:  INCF   x6D,F
....................             RX_Buffer[4]=0x00;   
0D2E8:  CLRF   34
....................             RX_Buffer2[4]=0x00;             
0D2EA:  CLRF   3F
0D2EC:  MOVLB  0
....................             //BorraBuffer(); 
....................          } 
....................       } 
....................           
....................       if(RX_Buffer[4]==0x0d || RIGHT){//Tecla Derecha Oprimida 
0D2EE:  MOVF   34,W
0D2F0:  SUBLW  0D
0D2F2:  BZ    D2FA
0D2F4:  BSF    F93.2
0D2F6:  BTFSC  F81.2
0D2F8:  BRA    D31C
....................          delay_ms(20); 
0D2FA:  MOVLW  14
0D2FC:  MOVLB  4
0D2FE:  MOVWF  x54
0D300:  MOVLB  0
0D302:  CALL   19B0
....................          if(RX_Buffer[4]==0x0d || RIGHT){ 
0D306:  MOVF   34,W
0D308:  SUBLW  0D
0D30A:  BZ    D312
0D30C:  BSF    F93.2
0D30E:  BTFSC  F81.2
0D310:  BRA    D31C
....................             Opcion2--; 
0D312:  MOVLB  3
0D314:  DECF   x6D,F
....................             RX_Buffer[4]=0x00; 
0D316:  CLRF   34
....................             RX_Buffer2[4]=0x00;             
0D318:  CLRF   3F
0D31A:  MOVLB  0
....................             //BorraBuffer(); 
....................          } 
....................       } 
....................        
....................       if(RX_Buffer[4]==0x11 || (RIGHT && LEFT)){//Tecla Regresar 
0D31C:  MOVF   34,W
0D31E:  SUBLW  11
0D320:  BZ    D32E
0D322:  BSF    F93.2
0D324:  BTFSC  F81.2
0D326:  BRA    D574
0D328:  BSF    F93.3
0D32A:  BTFSC  F81.3
0D32C:  BRA    D574
....................          delay_ms(20); 
0D32E:  MOVLW  14
0D330:  MOVLB  4
0D332:  MOVWF  x54
0D334:  MOVLB  0
0D336:  CALL   19B0
....................          if(RX_Buffer[4]==0x11 || (RIGHT && LEFT)){ 
0D33A:  MOVF   34,W
0D33C:  SUBLW  11
0D33E:  BZ    D34C
0D340:  BSF    F93.2
0D342:  BTFSC  F81.2
0D344:  BRA    D574
0D346:  BSF    F93.3
0D348:  BTFSC  F81.3
0D34A:  BRA    D574
....................             if(!GuardaEEPROM){ 
0D34C:  BTFSC  xA2.4
0D34E:  BRA    D560
....................                write_eeprom(21,Ajuste); 
0D350:  CLRF   FAA
0D352:  MOVLW  15
0D354:  MOVWF  FA9
0D356:  MOVFF  2D9,FA8
0D35A:  BCF    FA6.6
0D35C:  BCF    FA6.7
0D35E:  BSF    FA6.2
0D360:  MOVF   FF2,W
0D362:  MOVWF  00
0D364:  BCF    FF2.6
0D366:  BCF    FF2.7
0D368:  MOVLB  F
0D36A:  MOVLW  55
0D36C:  MOVWF  FA7
0D36E:  MOVLW  AA
0D370:  MOVWF  FA7
0D372:  BSF    FA6.1
0D374:  BTFSC  FA6.1
0D376:  BRA    D374
0D378:  BCF    FA6.2
0D37A:  MOVF   00,W
0D37C:  IORWF  FF2,F
....................                delay_ms(10); 
0D37E:  MOVLW  0A
0D380:  MOVLB  4
0D382:  MOVWF  x54
0D384:  MOVLB  0
0D386:  CALL   19B0
....................                write_eeprom(22,Ajusten); 
0D38A:  CLRF   FAA
0D38C:  MOVLW  16
0D38E:  MOVWF  FA9
0D390:  MOVFF  2DA,FA8
0D394:  BCF    FA6.6
0D396:  BCF    FA6.7
0D398:  BSF    FA6.2
0D39A:  MOVF   FF2,W
0D39C:  MOVWF  00
0D39E:  BCF    FF2.6
0D3A0:  BCF    FF2.7
0D3A2:  MOVLB  F
0D3A4:  MOVLW  55
0D3A6:  MOVWF  FA7
0D3A8:  MOVLW  AA
0D3AA:  MOVWF  FA7
0D3AC:  BSF    FA6.1
0D3AE:  BTFSC  FA6.1
0D3B0:  BRA    D3AE
0D3B2:  BCF    FA6.2
0D3B4:  MOVF   00,W
0D3B6:  IORWF  FF2,F
....................                delay_ms(10); 
0D3B8:  MOVLW  0A
0D3BA:  MOVLB  4
0D3BC:  MOVWF  x54
0D3BE:  MOVLB  0
0D3C0:  CALL   19B0
....................                write_eeprom(24,(int8)MediaMovil); 
0D3C4:  CLRF   FAA
0D3C6:  MOVLW  18
0D3C8:  MOVWF  FA9
0D3CA:  MOVFF  2DB,FA8
0D3CE:  BCF    FA6.6
0D3D0:  BCF    FA6.7
0D3D2:  BSF    FA6.2
0D3D4:  MOVF   FF2,W
0D3D6:  MOVWF  00
0D3D8:  BCF    FF2.6
0D3DA:  BCF    FF2.7
0D3DC:  MOVLB  F
0D3DE:  MOVLW  55
0D3E0:  MOVWF  FA7
0D3E2:  MOVLW  AA
0D3E4:  MOVWF  FA7
0D3E6:  BSF    FA6.1
0D3E8:  BTFSC  FA6.1
0D3EA:  BRA    D3E8
0D3EC:  BCF    FA6.2
0D3EE:  MOVF   00,W
0D3F0:  IORWF  FF2,F
....................                delay_ms(10); 
0D3F2:  MOVLW  0A
0D3F4:  MOVLB  4
0D3F6:  MOVWF  x54
0D3F8:  MOVLB  0
0D3FA:  CALL   19B0
....................                write_eeprom(46,Atmosferica); 
0D3FE:  CLRF   FAA
0D400:  MOVLW  2E
0D402:  MOVWF  FA9
0D404:  MOVFF  3AE,FA8
0D408:  BCF    FA6.6
0D40A:  BCF    FA6.7
0D40C:  BSF    FA6.2
0D40E:  MOVF   FF2,W
0D410:  MOVWF  00
0D412:  BCF    FF2.6
0D414:  BCF    FF2.7
0D416:  MOVLB  F
0D418:  MOVLW  55
0D41A:  MOVWF  FA7
0D41C:  MOVLW  AA
0D41E:  MOVWF  FA7
0D420:  BSF    FA6.1
0D422:  BTFSC  FA6.1
0D424:  BRA    D422
0D426:  BCF    FA6.2
0D428:  MOVF   00,W
0D42A:  IORWF  FF2,F
....................                delay_ms(10); 
0D42C:  MOVLW  0A
0D42E:  MOVLB  4
0D430:  MOVWF  x54
0D432:  MOVLB  0
0D434:  CALL   19B0
....................                write_eeprom(39,TTrampa); 
0D438:  CLRF   FAA
0D43A:  MOVLW  27
0D43C:  MOVWF  FA9
0D43E:  MOVFF  2DC,FA8
0D442:  BCF    FA6.6
0D444:  BCF    FA6.7
0D446:  BSF    FA6.2
0D448:  MOVF   FF2,W
0D44A:  MOVWF  00
0D44C:  BCF    FF2.6
0D44E:  BCF    FF2.7
0D450:  MOVLB  F
0D452:  MOVLW  55
0D454:  MOVWF  FA7
0D456:  MOVLW  AA
0D458:  MOVWF  FA7
0D45A:  BSF    FA6.1
0D45C:  BTFSC  FA6.1
0D45E:  BRA    D45C
0D460:  BCF    FA6.2
0D462:  MOVF   00,W
0D464:  IORWF  FF2,F
....................                delay_ms(10); 
0D466:  MOVLW  0A
0D468:  MOVLB  4
0D46A:  MOVWF  x54
0D46C:  MOVLB  0
0D46E:  CALL   19B0
....................                histe=(int8)(Histeresis*10); 
0D472:  MOVFF  333,45B
0D476:  MOVFF  332,45A
0D47A:  MOVFF  331,459
0D47E:  MOVFF  330,458
0D482:  MOVLB  4
0D484:  CLRF   x5F
0D486:  CLRF   x5E
0D488:  MOVLW  20
0D48A:  MOVWF  x5D
0D48C:  MOVLW  82
0D48E:  MOVWF  x5C
0D490:  MOVLB  0
0D492:  CALL   3942
0D496:  MOVFF  03,457
0D49A:  MOVFF  02,456
0D49E:  MOVFF  01,455
0D4A2:  MOVFF  00,454
0D4A6:  CALL   400E
0D4AA:  MOVFF  01,36A
....................                write_eeprom(32,histe); 
0D4AE:  CLRF   FAA
0D4B0:  MOVLW  20
0D4B2:  MOVWF  FA9
0D4B4:  MOVFF  36A,FA8
0D4B8:  BCF    FA6.6
0D4BA:  BCF    FA6.7
0D4BC:  BSF    FA6.2
0D4BE:  MOVF   FF2,W
0D4C0:  MOVWF  00
0D4C2:  BCF    FF2.6
0D4C4:  BCF    FF2.7
0D4C6:  MOVLB  F
0D4C8:  MOVLW  55
0D4CA:  MOVWF  FA7
0D4CC:  MOVLW  AA
0D4CE:  MOVWF  FA7
0D4D0:  BSF    FA6.1
0D4D2:  BTFSC  FA6.1
0D4D4:  BRA    D4D2
0D4D6:  BCF    FA6.2
0D4D8:  MOVF   00,W
0D4DA:  IORWF  FF2,F
....................                delay_ms(10); 
0D4DC:  MOVLW  0A
0D4DE:  MOVLB  4
0D4E0:  MOVWF  x54
0D4E2:  MOVLB  0
0D4E4:  CALL   19B0
....................                desviacion=(int8)(desvio*10); 
0D4E8:  MOVFF  313,45B
0D4EC:  MOVFF  312,45A
0D4F0:  MOVFF  311,459
0D4F4:  MOVFF  310,458
0D4F8:  MOVLB  4
0D4FA:  CLRF   x5F
0D4FC:  CLRF   x5E
0D4FE:  MOVLW  20
0D500:  MOVWF  x5D
0D502:  MOVLW  82
0D504:  MOVWF  x5C
0D506:  MOVLB  0
0D508:  CALL   3942
0D50C:  MOVFF  03,457
0D510:  MOVFF  02,456
0D514:  MOVFF  01,455
0D518:  MOVFF  00,454
0D51C:  CALL   400E
0D520:  MOVFF  01,369
....................                write_eeprom(33,desviacion); 
0D524:  CLRF   FAA
0D526:  MOVLW  21
0D528:  MOVWF  FA9
0D52A:  MOVFF  369,FA8
0D52E:  BCF    FA6.6
0D530:  BCF    FA6.7
0D532:  BSF    FA6.2
0D534:  MOVF   FF2,W
0D536:  MOVWF  00
0D538:  BCF    FF2.6
0D53A:  BCF    FF2.7
0D53C:  MOVLB  F
0D53E:  MOVLW  55
0D540:  MOVWF  FA7
0D542:  MOVLW  AA
0D544:  MOVWF  FA7
0D546:  BSF    FA6.1
0D548:  BTFSC  FA6.1
0D54A:  BRA    D548
0D54C:  BCF    FA6.2
0D54E:  MOVF   00,W
0D550:  IORWF  FF2,F
....................                delay_ms(10); 
0D552:  MOVLW  0A
0D554:  MOVLB  4
0D556:  MOVWF  x54
0D558:  MOVLB  0
0D55A:  CALL   19B0
....................                GuardaEEPROM=ON; 
0D55E:  BSF    xA2.4
....................             } 
....................             printf("page MenuPrincipal"); 
0D560:  MOVLW  66
0D562:  MOVWF  FF6
0D564:  MOVLW  19
0D566:  MOVWF  FF7
0D568:  MOVLW  00
0D56A:  MOVWF  FF8
0D56C:  CALL   3842
....................             SendDataDisplay(); 
0D570:  CALL   3874
....................             //BorraBuffer(); 
....................          } 
....................       } 
....................       printf("fecha.txt=\"Fecha:%02u/%02u/20%02u    Hora: %02u:%02u\"",Dia,Mes,Year,Hora,Minuto); 
0D574:  MOVLW  7A
0D576:  MOVWF  FF6
0D578:  MOVLW  19
0D57A:  MOVWF  FF7
0D57C:  MOVLW  00
0D57E:  MOVWF  FF8
0D580:  MOVLW  11
0D582:  MOVLB  4
0D584:  MOVWF  x44
0D586:  MOVLB  0
0D588:  CALL   47DC
0D58C:  MOVFF  3A0,444
0D590:  MOVLW  01
0D592:  MOVLB  4
0D594:  MOVWF  x45
0D596:  MOVLB  0
0D598:  CALL   483A
0D59C:  MOVLW  2F
0D59E:  BTFSS  F9E.4
0D5A0:  BRA    D59E
0D5A2:  MOVWF  FAD
0D5A4:  MOVFF  39F,444
0D5A8:  MOVLW  01
0D5AA:  MOVLB  4
0D5AC:  MOVWF  x45
0D5AE:  MOVLB  0
0D5B0:  CALL   483A
0D5B4:  MOVLW  2F
0D5B6:  BTFSS  F9E.4
0D5B8:  BRA    D5B6
0D5BA:  MOVWF  FAD
0D5BC:  MOVLW  32
0D5BE:  BTFSS  F9E.4
0D5C0:  BRA    D5BE
0D5C2:  MOVWF  FAD
0D5C4:  MOVLW  30
0D5C6:  BTFSS  F9E.4
0D5C8:  BRA    D5C6
0D5CA:  MOVWF  FAD
0D5CC:  MOVFF  39E,444
0D5D0:  MOVLW  01
0D5D2:  MOVLB  4
0D5D4:  MOVWF  x45
0D5D6:  MOVLB  0
0D5D8:  CALL   483A
0D5DC:  MOVLW  9B
0D5DE:  MOVWF  FF6
0D5E0:  MOVLW  19
0D5E2:  MOVWF  FF7
0D5E4:  MOVLW  00
0D5E6:  MOVWF  FF8
0D5E8:  MOVLW  0A
0D5EA:  MOVLB  4
0D5EC:  MOVWF  x44
0D5EE:  MOVLB  0
0D5F0:  CALL   47DC
0D5F4:  MOVFF  3A1,444
0D5F8:  MOVLW  01
0D5FA:  MOVLB  4
0D5FC:  MOVWF  x45
0D5FE:  MOVLB  0
0D600:  CALL   483A
0D604:  MOVLW  3A
0D606:  BTFSS  F9E.4
0D608:  BRA    D606
0D60A:  MOVWF  FAD
0D60C:  MOVFF  3A2,444
0D610:  MOVLW  01
0D612:  MOVLB  4
0D614:  MOVWF  x45
0D616:  MOVLB  0
0D618:  CALL   483A
0D61C:  MOVLW  22
0D61E:  BTFSS  F9E.4
0D620:  BRA    D61E
0D622:  MOVWF  FAD
....................       SendDataDisplay();  
0D624:  CALL   3874
0D628:  MOVLB  3
....................     } 
.................... //_--------------------------------------------------------------------------------------------------------------------------------------------------------        
....................  
....................    } 
0D62A:  GOTO   747C
.................... } 
0D62E:  SLEEP 

Configuration Fuses:
   Word  1: 0200   HS NOIESO NOFCMEN
   Word  2: 1B1F   BROWNOUT WDT BORV20 NOPUT WDT8192
   Word  3: 0000   NOPBADEN NOLPT1OSC NOMCLR
   Word  4: 00B0   NOSTVREN NODEBUG NOLVP NOXINST BBSIZ4K
   Word  5: C03F   NOPROTECT NOCPD NOCPB
   Word  6: E03F   NOWRT NOWRTD NOWRTC NOWRTB
   Word  7: 403F   NOEBTR NOEBTRB
