CCS PCH C Compiler, Version 4.104, 5967               11-feb.-20 13:14

               Filename: D:\Laboratorio\Autoclave\Autoclave Horizontal\Sin Precamara\2019\Autoclave 85L Tuttnauer Mantenimiento\Firmware V4.0\GLCD_Controller\GLCD_Controller.lst

               ROM used: 21036 bytes (21%)
                         Largest free fragment is 44496
               RAM used: 624 (19%) at main() level
                         646 (19%) worst case
               Stack:    7 worst case (5 in main + 2 for interrupts)

*
00000:  GOTO   258E
*
00008:  MOVWF  04
0000A:  MOVFF  FD8,05
0000E:  MOVFF  FE0,06
00012:  MOVLB  0
00014:  MOVFF  FE9,0C
00018:  MOVFF  FEA,07
0001C:  MOVFF  FE1,08
00020:  MOVFF  FE2,09
00024:  MOVFF  FD9,0A
00028:  MOVFF  FDA,0B
0002C:  MOVFF  FF3,12
00030:  MOVFF  FF4,13
00034:  MOVFF  FFA,14
00038:  MOVFF  FFB,15
0003C:  MOVFF  00,0E
00040:  MOVFF  01,0F
00044:  MOVFF  02,10
00048:  MOVFF  03,11
0004C:  BTFSS  FF2.5
0004E:  GOTO   0058
00052:  BTFSC  FF2.2
00054:  GOTO   017C
00058:  BTFSS  F9D.0
0005A:  GOTO   0064
0005E:  BTFSC  F9E.0
00060:  GOTO   0224
00064:  MOVFF  0E,00
00068:  MOVFF  0F,01
0006C:  MOVFF  10,02
00070:  MOVFF  11,03
00074:  MOVFF  0C,FE9
00078:  MOVFF  07,FEA
0007C:  BSF    07.7
0007E:  MOVFF  08,FE1
00082:  MOVFF  09,FE2
00086:  MOVFF  0A,FD9
0008A:  MOVFF  0B,FDA
0008E:  MOVFF  12,FF3
00092:  MOVFF  13,FF4
00096:  MOVFF  14,FFA
0009A:  MOVFF  15,FFB
0009E:  MOVF   04,W
000A0:  MOVFF  06,FE0
000A4:  MOVFF  05,FD8
000A8:  RETFIE 0
.................... //Falta crear menu de ajuste de variables y de norma CFR21 
....................  
.................... #include <18F4685.h> 
.................... //////// Standard Header file for the PIC18F4685 device //////////////// 
.................... #device PIC18F4685 
.................... #list 
....................  
.................... #device adc=10 
.................... #fuses HS,NOWDT,NOPROTECT,NOLVP,NODEBUG,NOSTVREN,NOPUT,NOCPD,NOWRT,NOIESO,NOFCMEN,NOPBADEN,NOWRTC,NOWRTB,NOEBTR,NOEBTRB,NOCPB,NOXINST,NOLPT1OSC,NOMCLR 
.................... #use delay(clock=20000000) 
*
0046E:  MOVLW  02
00470:  MOVWF  FEA
00472:  MOVLW  7F
00474:  MOVWF  FE9
00476:  MOVF   FEF,W
00478:  BZ    0494
0047A:  MOVLW  06
0047C:  MOVWF  01
0047E:  CLRF   00
00480:  DECFSZ 00,F
00482:  BRA    0480
00484:  DECFSZ 01,F
00486:  BRA    047E
00488:  MOVLW  7B
0048A:  MOVWF  00
0048C:  DECFSZ 00,F
0048E:  BRA    048C
00490:  DECFSZ FEF,F
00492:  BRA    047A
00494:  RETLW  00
.................... #include <LCD420.c> 
.................... //////////////////////////////////////////////////////////////////////////// 
.................... ////                             LCD420.C                               //// 
.................... ////            Driver for common 4x20 LCD modules                      //// 
.................... ////                                                                    //// 
.................... ////  lcd_init()   Must be called before any other function.            //// 
.................... ////                                                                    //// 
.................... ////  lcd_putc(c)  Will display c on the next position of the LCD.      //// 
.................... ////                     The following have special meaning:            //// 
.................... ////                      \f  Clear display                             //// 
.................... ////                      \n  Go to start of second line                //// 
.................... ////                      \b  Move back one position                    //// 
.................... ////                                                                    //// 
.................... ////  lcd_gotoxy(x,y) Set write position on LCD (upper left is 1,1)     //// 
.................... ////                                                                    //// 
.................... ////  lcd_getc(x,y)   Returns character at position x,y on LCD          //// 
.................... ////                                                                    //// 
.................... //////////////////////////////////////////////////////////////////////////// 
.................... ////        (C) Copyright 1996,1997 Custom Computer Services            //// 
.................... //// This source code may only be used by licensed users of the CCS C   //// 
.................... //// compiler.  This source code may only be distributed to other       //// 
.................... //// licensed users of the CCS C compiler.  No other use, reproduction  //// 
.................... //// or distribution is permitted without written permission.           //// 
.................... //// Derivative programs created using this software in object code     //// 
.................... //// form are not restricted in any way.                                //// 
.................... //////////////////////////////////////////////////////////////////////////// 
....................  
.................... // As defined in the following structure the pin connection is as follows: 
.................... //     B0  enable 
.................... //     B1  rs 
.................... //     B2  rw 
.................... //     B4  D4 
.................... //     B5  D5 
.................... //     B6  D6 
.................... //     B7  D7 
.................... // 
.................... //   LCD pins D0-D3 are not used and PIC B3 is not used. 
....................  
.................... struct lcd_pin_map {                 // This structure is overlayed 
....................            BOOLEAN rs;           // on to an I/O port to gain 
....................            BOOLEAN rw;               // access to the LCD pins. 
....................            BOOLEAN enable;               // The bits are allocated from 
....................            BOOLEAN unused;           // low order up.  ENABLE will 
....................            int     data : 4;         // be pin B0. 
....................         } lcd; 
....................  
.................... #locate lcd = getenv("SFR:PORTD")                        // This puts the entire structure 
....................                                      // on to port B  
....................  
.................... #define lcd_type 2           // 0=5x7, 1=5x10, 2=2 lines 
....................  
....................  
.................... BYTE const LCD_INIT_STRING[4] = {0x20 | (lcd_type << 2), 0xc, 1, 6}; 
....................                              // These bytes need to be sent to the LCD 
....................                              // to start it up. 
....................  
....................  
....................                              // The following are used for setting 
....................                              // the I/O port direction register. 
....................  
.................... struct lcd_pin_map const LCD_WRITE = {0,0,0,0,0}; // For write mode all pins are out 
.................... struct lcd_pin_map const LCD_READ = {0,0,0,0,15}; // For read mode data pins are in 
....................  
....................  
.................... BYTE lcdline; 
....................  
.................... BYTE lcd_read_byte() { 
....................       BYTE low,high; 
....................  
....................       set_tris_d(LCD_READ); 
....................       lcd.rw = 1; 
....................       delay_cycles(1); 
....................       lcd.enable = 1; 
....................       delay_cycles(1); 
....................       high = lcd.data; 
....................       lcd.enable = 0; 
....................       delay_cycles(1); 
....................       lcd.enable = 1; 
....................       delay_us(1); 
....................       low = lcd.data; 
....................       lcd.enable = 0; 
....................       set_tris_d(LCD_WRITE); 
....................       return( (high<<4) | low); 
.................... } 
....................  
....................  
.................... void lcd_send_nibble( BYTE n ) { 
....................       lcd.data = n; 
00496:  MOVLB  2
00498:  SWAPF  x80,W
0049A:  ANDLW  F0
0049C:  MOVWF  00
0049E:  MOVLW  0F
004A0:  ANDWF  F83,W
004A2:  IORWF  00,W
004A4:  MOVWF  F83
....................       delay_cycles(1); 
004A6:  NOP   
....................       lcd.enable = 1; 
004A8:  BSF    F83.2
....................       delay_us(2); 
004AA:  MOVLW  03
004AC:  MOVWF  00
004AE:  DECFSZ 00,F
004B0:  BRA    04AE
....................       lcd.enable = 0; 
004B2:  BCF    F83.2
.................... } 
004B4:  MOVLB  0
004B6:  RETLW  00
....................  
....................  
.................... void lcd_send_byte( BYTE address, BYTE n )  
....................  { 
....................  
....................       lcd.rs = 0; 
004B8:  BCF    F83.0
....................       //while ( bit_test(lcd_read_byte(),7) ) ; 
....................       delay_ms(1); 
004BA:  MOVLW  01
004BC:  MOVLB  2
004BE:  MOVWF  x7F
004C0:  MOVLB  0
004C2:  RCALL  046E
....................       lcd.rs = address; 
004C4:  MOVLB  2
004C6:  BTFSS  x7D.0
004C8:  BCF    F83.0
004CA:  BTFSC  x7D.0
004CC:  BSF    F83.0
....................       delay_cycles(1); 
004CE:  NOP   
....................       lcd.rw = 0; 
004D0:  BCF    F83.1
....................       delay_cycles(1); 
004D2:  NOP   
....................       lcd.enable = 0; 
004D4:  BCF    F83.2
....................       lcd_send_nibble(n >> 4); 
004D6:  SWAPF  x7E,W
004D8:  MOVWF  x7F
004DA:  MOVLW  0F
004DC:  ANDWF  x7F,F
004DE:  MOVFF  27F,280
004E2:  MOVLB  0
004E4:  RCALL  0496
....................       lcd_send_nibble(n & 0xf); 
004E6:  MOVLB  2
004E8:  MOVF   x7E,W
004EA:  ANDLW  0F
004EC:  MOVWF  x7F
004EE:  MOVWF  x80
004F0:  MOVLB  0
004F2:  RCALL  0496
....................  } 
004F4:  RETLW  00
....................  
.................... void lcd_init() { 
....................     BYTE i; 
....................  
....................     set_tris_d(LCD_WRITE); 
004F6:  MOVLW  00
004F8:  MOVWF  F95
....................     lcd.rs = 0; 
004FA:  BCF    F83.0
....................     lcd.rw = 0; 
004FC:  BCF    F83.1
....................     lcd.enable = 0; 
004FE:  BCF    F83.2
....................     delay_ms(15); 
00500:  MOVLW  0F
00502:  MOVLB  2
00504:  MOVWF  x7F
00506:  MOVLB  0
00508:  RCALL  046E
....................     for(i=1;i<=3;++i) { 
0050A:  MOVLW  01
0050C:  MOVLB  2
0050E:  MOVWF  x6C
00510:  MOVF   x6C,W
00512:  SUBLW  03
00514:  BNC   052E
....................        lcd_send_nibble(3); 
00516:  MOVLW  03
00518:  MOVWF  x80
0051A:  MOVLB  0
0051C:  RCALL  0496
....................        delay_ms(5); 
0051E:  MOVLW  05
00520:  MOVLB  2
00522:  MOVWF  x7F
00524:  MOVLB  0
00526:  RCALL  046E
....................     } 
00528:  MOVLB  2
0052A:  INCF   x6C,F
0052C:  BRA    0510
....................     lcd_send_nibble(2); 
0052E:  MOVLW  02
00530:  MOVWF  x80
00532:  MOVLB  0
00534:  RCALL  0496
....................     for(i=0;i<=3;++i) 
00536:  MOVLB  2
00538:  CLRF   x6C
0053A:  MOVF   x6C,W
0053C:  SUBLW  03
0053E:  BNC   0564
....................        lcd_send_byte(0, LCD_INIT_STRING[i]); 
00540:  CLRF   03
00542:  MOVF   x6C,W
00544:  MOVFF  FF2,26D
00548:  BCF    FF2.7
0054A:  MOVLB  0
0054C:  RCALL  00AA
0054E:  MOVLB  2
00550:  BTFSC  x6D.7
00552:  BSF    FF2.7
00554:  MOVWF  x6D
00556:  CLRF   x7D
00558:  MOVWF  x7E
0055A:  MOVLB  0
0055C:  RCALL  04B8
0055E:  MOVLB  2
00560:  INCF   x6C,F
00562:  BRA    053A
.................... } 
00564:  MOVLB  0
00566:  GOTO   2B04 (RETURN)
....................  
.................... void lcd_gotoxy( BYTE x, BYTE y) { 
....................    BYTE address; 
....................  
....................    switch(y) { 
*
00BFC:  MOVLW  01
00BFE:  MOVLB  2
00C00:  SUBWF  x7B,W
00C02:  ADDLW  FC
00C04:  BC    0C30
00C06:  ADDLW  04
00C08:  MOVLB  0
00C0A:  GOTO   0C42
....................      case 1 : address=0x80;break; 
00C0E:  MOVLW  80
00C10:  MOVLB  2
00C12:  MOVWF  x7C
00C14:  BRA    0C30
....................      case 2 : address=0xc0;break; 
00C16:  MOVLW  C0
00C18:  MOVLB  2
00C1A:  MOVWF  x7C
00C1C:  BRA    0C30
....................      case 3 : address=0x94;break; 
00C1E:  MOVLW  94
00C20:  MOVLB  2
00C22:  MOVWF  x7C
00C24:  BRA    0C30
....................      case 4 : address=0xd4;break; 
00C26:  MOVLW  D4
00C28:  MOVLB  2
00C2A:  MOVWF  x7C
00C2C:  BRA    0C30
00C2E:  MOVLB  2
....................    } 
....................    address+=x-1; 
00C30:  MOVLW  01
00C32:  SUBWF  x7A,W
00C34:  ADDWF  x7C,F
....................    lcd_send_byte(0,address); 
00C36:  CLRF   x7D
00C38:  MOVFF  27C,27E
00C3C:  MOVLB  0
00C3E:  RCALL  04B8
.................... } 
00C40:  RETLW  00
....................  
.................... void lcd_putc( char c) { 
.................... if(c=='ñ') 
*
00C74:  MOVLB  2
00C76:  MOVF   x79,W
00C78:  SUBLW  F1
00C7A:  BNZ   0C80
....................     c=238; 
00C7C:  MOVLW  EE
00C7E:  MOVWF  x79
....................      
.................... if(c=='°') 
00C80:  MOVF   x79,W
00C82:  SUBLW  B0
00C84:  BNZ   0C8A
....................     c=223;     
00C86:  MOVLW  DF
00C88:  MOVWF  x79
....................    switch (c) { 
00C8A:  MOVF   x79,W
00C8C:  XORLW  0C
00C8E:  MOVLB  0
00C90:  BZ    0C9C
00C92:  XORLW  06
00C94:  BZ    0CBA
00C96:  XORLW  02
00C98:  BZ    0CCC
00C9A:  BRA    0CDC
....................      case '\f'   : lcd_send_byte(0,1); 
00C9C:  MOVLB  2
00C9E:  CLRF   x7D
00CA0:  MOVLW  01
00CA2:  MOVWF  x7E
00CA4:  MOVLB  0
00CA6:  RCALL  04B8
....................                    lcdline=1; 
00CA8:  MOVLW  01
00CAA:  MOVWF  17
....................                    delay_ms(2); 
00CAC:  MOVLW  02
00CAE:  MOVLB  2
00CB0:  MOVWF  x7F
00CB2:  MOVLB  0
00CB4:  CALL   046E
....................                                            break; 
00CB8:  BRA    0CEE
....................      case '\n'   : lcd_gotoxy(1,++lcdline);        break; 
00CBA:  INCF   17,F
00CBC:  MOVLW  01
00CBE:  MOVLB  2
00CC0:  MOVWF  x7A
00CC2:  MOVFF  17,27B
00CC6:  MOVLB  0
00CC8:  RCALL  0BFC
00CCA:  BRA    0CEE
....................      case '\b'   : lcd_send_byte(0,0x10);  break; 
00CCC:  MOVLB  2
00CCE:  CLRF   x7D
00CD0:  MOVLW  10
00CD2:  MOVWF  x7E
00CD4:  MOVLB  0
00CD6:  CALL   04B8
00CDA:  BRA    0CEE
....................      default     : lcd_send_byte(1,c);     break; 
00CDC:  MOVLW  01
00CDE:  MOVLB  2
00CE0:  MOVWF  x7D
00CE2:  MOVFF  279,27E
00CE6:  MOVLB  0
00CE8:  CALL   04B8
00CEC:  BRA    0CEE
....................    } 
.................... lcd.rs=0; 
00CEE:  BCF    F83.0
.................... } 
00CF0:  RETLW  00
....................  
.................... char lcd_getc( BYTE x, BYTE y) { 
....................    char value; 
....................  
....................     lcd_gotoxy(x,y); 
....................     lcd.rs=1; 
....................     value = lcd_read_byte(); 
....................     lcd.rs=0; 
....................     return(value); 
.................... } 
....................          
....................  
....................  
....................  
....................  
.................... #define   START         !input(PIN_B2) 
.................... #define   DOWN          !input(PIN_B3) 
....................  
.................... #define   DOOR          input(PIN_A4) 
.................... #define   RESR          input(PIN_A5) 
.................... #define   TERM          !input(PIN_A3) 
....................  
.................... #define   LOW           !input(PIN_A2) 
....................  
.................... #define   SSR_on           output_bit(PIN_E2,1) 
.................... #define   SSR_off          output_bit(PIN_E2,0) 
....................  
.................... #define   Desfogue_on      output_bit(PIN_C0,1) 
.................... #define   Desfogue_off     output_bit(PIN_C0,0) 
....................  
.................... #define   AguaIn_on        output_bit(PIN_C1,1) 
.................... #define   AguaIn_off       output_bit(PIN_C1,0) 
....................  
.................... #define   Solenoide_on     output_bit(PIN_C2,1) 
.................... #define   Solenoide_off    output_bit(PIN_C2,0) 
....................  
.................... #define   Aux_on           output_bit(PIN_C3,1) 
.................... #define   Aux_off          output_bit(PIN_C3,0) 
....................  
.................... #define   LedDoor_on       output_bit(PIN_B7,1) 
.................... #define   LedDoor_off      output_bit(PIN_B7,0) 
....................  
.................... #define   LedWater_on      output_bit(PIN_B6,1) 
.................... #define   LedWater_off     output_bit(PIN_B6,0) 
....................  
.................... #define   LedFail_on       output_bit(PIN_E0,1) 
.................... #define   LedFail_off      output_bit(PIN_E0,0) 
....................  
.................... #define   LedStart_on      output_bit(PIN_E1,1) 
.................... #define   LedStart_off     output_bit(PIN_E1,0) 
....................  
.................... #define   Buzzer_on        output_bit(PIN_C4,1) 
.................... #define   Buzzer_off       output_bit(PIN_C4,0) 
....................  
.................... #define OFF 0 
.................... #define ON  1 
....................  
.................... //Alarmas//--------------------- 
.................... short AlarmaTiempoProlongado=OFF,AlarmaSobreTemperatura=OFF,AlarmaLlenado=OFF,AlarmaTermostato=OFF,AlarmaPuerta=OFF,AlarmaEmergencia=OFF,AlarmaPresion=OFF; 
.................... short AlarmaCiclo=OFF; 
....................  
.................... //Banderas//-------------------- 
.................... short IniciaLlenado=OFF,CalderinLleno=OFF,IniciaCiclo=OFF,Esterilizando=OFF,Secando=OFF,SensadoNivel=OFF,Desfogando=OFF,DesfogueSuave=OFF; 
.................... short Ciclo=OFF; 
.................... short PARAMETERS=OFF,PROGRAM=OFF,CYCLE=OFF,UP=OFF,eDesfogue=OFF,eLlenado=OFF,eSolenoide=OFF,eSSR=OFF,eBuzzer=OFF,Codigo=OFF; 
....................  
.................... //Tiempos//--------------------- 
.................... int16 TiempoCiclo=0,TiempoLlenado=0,TiempoSensadoNivel=0,Tp=0,Tc=0; 
....................  
.................... //Control//------------------------ 
.................... float promedio[80]={0.0,0.0,0.0,0.0,0.0,0.0,0.0,0.0,0.0,0.0,0.0,0.0,0.0,0.0,0.0,0.0,0.0,0.0,0.0,0.0,0.0,0.0,0.0,0.0,0.0,0.0,0.0,0.0,0.0,0.0,0.0,0.0,0.0,0.0,0.0,0.0,0.0,0.0,0.0,0.0,0.0,0.0,0.0,0.0,0.0,0.0,0.0,0.0,0.0,0.0,0.0,0.0,0.0,0.0,0.0,0.0,0.0,0.0,0.0,0.0,0.0,0.0,0.0,0.0}; 
.................... float PromPresion[20]={0.0,0.0,0.0,0.0,0.0,0.0,0.0,0.0,0.0,0.0,0.0,0.0,0.0,0.0,0.0,0.0,0.0,0.0,0.0,0.0}; 
.................... float X[2]={0.0,0.0}; 
.................... float promediopresion=0.0,Aumento=0.0; 
.................... int8 Programa=1,sEst=0,mEst=0,sEstP=0,mEstP=0,sSec=0,mSec=0,sSecP=0,mSecP=0,Test=1; 
.................... int8 h=0,l=0,Ajuste=0,Ajusten=0,MediaMovil=20,TTrampa=85; 
.................... float V0=0.0,Pt,Tciclo=10.0,Tpulso=0.0,error=0.0,Prom=0.0,Temperature=0.0,tmp=0.0,Ganancia=25.0,Ganancia2=20.0,desvio=2.0; 
.................... float V1=0.0,Presion=0.0; 
.................... float Temperatura=0.0,K=0.006429; 
.................... float a=0.0011,b=2.3302,c=-244.0723; 
.................... int8 Integral=0,Derivativo=0,Config=0,code=0,Parametro=1; 
....................  
.................... //Varios//-------------------------------- 
.................... short desfoguelento=0,Lectura=0; 
.................... short flagTC=0,flagStart=OFF; 
.................... int8 Control=0,tiemporecta=0,Controlando=0,tStart=0; 
.................... int8 Menu=0,i=0,CiclosL=0,CiclosH=0; 
.................... int8 Setpoint=0,tiempo_esterilizacion=0,tiempo_secado=0; 
.................... int16 tiempos=0,tiempos3=0,tiempoctrl=0,Nivel=1,tinicio=0,PresionCamara=0,Ciclos=0,NivelSeleccionado=0; 
.................... int8 r=0,t=0,TiempoControl=0; 
.................... int8 y=0; 
.................... int16 t_exhaust=0; 
.................... int8 DSet[5]={134,121,134,121,121}; 
.................... int8 DTime[5]={3,15,12,30,30}; 
.................... int8 DTimeS[5]={0,0,30,30,0}; 
.................... int8 DExh[5]={1,1,1,1,4}; 
.................... int8 Set[5]={134,121,134,121,121}; 
.................... int8 Time[5]={3,15,12,30,30}; 
.................... int8 TimeS[5]={0,0,30,30,0}; 
.................... int8 Exh[5]={1,1,1,1,4}; 
.................... char const Cycles[5][12]={"1-Fast 134","2-Fast 121","3-W.Dry 134","4-W.Dry 121","5-Slow  121"}; 
.................... char const Testeo[9][12]={"EV Exhaust ","EV Llenado ","Solenoide  ","Resistencia","Buzzer     ","SW Puerta  ","SW Reserva ","Termostato ","NivelTanque"}; 
.................... char const estado[2][4]={"OFF","ON "}; 
....................  
.................... #include "Funciones.h" 
.................... void ActualizaRecta(){ 
....................    X[y]=Temperature; 
*
01F8E:  MOVLB  2
01F90:  MOVF   x41,W
01F92:  MULLW  04
01F94:  MOVF   FF3,W
01F96:  CLRF   03
01F98:  ADDLW  B6
01F9A:  MOVWF  FE9
01F9C:  MOVLW  01
01F9E:  ADDWFC 03,W
01FA0:  MOVWF  FEA
01FA2:  MOVFF  1EE,FEF
01FA6:  MOVFF  1EF,FEC
01FAA:  MOVFF  1F0,FEC
01FAE:  MOVFF  1F1,FEC
....................    y++; 
01FB2:  INCF   x41,F
....................    if(y>=2) 
01FB4:  MOVF   x41,W
01FB6:  SUBLW  01
01FB8:  BC    1FF6
....................    { 
....................       y=0; 
01FBA:  CLRF   x41
....................       Aumento=X[1]-X[0]; 
01FBC:  BSF    FD8.1
01FBE:  MOVFF  1BD,274
01FC2:  MOVFF  1BC,273
01FC6:  MOVFF  1BB,272
01FCA:  MOVFF  1BA,271
01FCE:  MOVFF  1B9,278
01FD2:  MOVFF  1B8,277
01FD6:  MOVFF  1B7,276
01FDA:  MOVFF  1B6,275
01FDE:  MOVLB  0
01FE0:  CALL   0ECE
01FE4:  MOVFF  03,1C5
01FE8:  MOVFF  02,1C4
01FEC:  MOVFF  01,1C3
01FF0:  MOVFF  00,1C2
01FF4:  MOVLB  2
....................    } 
.................... } 
01FF6:  MOVLB  0
01FF8:  GOTO   2074 (RETURN)
....................  
.................... // Funcion para conversor analogo-digital 
.................... float sensores(int x){ 
.................... float y;set_adc_channel(x);delay_ms(1);y=read_adc();return (y); 
*
00D1A:  MOVLB  2
00D1C:  RLCF   x6D,W
00D1E:  MOVWF  00
00D20:  RLCF   00,F
00D22:  MOVLW  FC
00D24:  ANDWF  00,F
00D26:  MOVFF  00,01
00D2A:  MOVF   FC2,W
00D2C:  ANDLW  C3
00D2E:  IORWF  00,W
00D30:  MOVWF  FC2
00D32:  MOVLW  01
00D34:  MOVWF  x7F
00D36:  MOVLB  0
00D38:  CALL   046E
00D3C:  BSF    FC2.1
00D3E:  BTFSC  FC2.1
00D40:  BRA    0D3E
00D42:  MOVFF  FC4,273
00D46:  MOVFF  FC3,272
00D4A:  MOVLB  0
00D4C:  RCALL  056A
00D4E:  MOVFF  03,271
00D52:  MOVFF  02,270
00D56:  MOVFF  01,26F
00D5A:  MOVFF  00,26E
00D5E:  MOVFF  26E,00
00D62:  MOVFF  26F,01
00D66:  MOVFF  270,02
00D6A:  MOVFF  271,03
.................... } 
00D6E:  RETLW  00
.................... float LeerPT100(int media) 
.................... { 
....................    Prom=0.0; 
*
0125E:  MOVLB  1
01260:  CLRF   xED
01262:  CLRF   xEC
01264:  CLRF   xEB
01266:  CLRF   xEA
....................    V0 = sensores(0);   //Lectura de Divisor de Voltaje de PT100 con resistencia de 6.18k (+-2%) 
01268:  MOVLB  2
0126A:  CLRF   x6D
0126C:  MOVLB  0
0126E:  RCALL  0D1A
01270:  MOVFF  03,1D9
01274:  MOVFF  02,1D8
01278:  MOVFF  01,1D7
0127C:  MOVFF  00,1D6
....................    V0 = V0/108.91; // Se elimina la ganancia 
01280:  MOVFF  1D9,274
01284:  MOVFF  1D8,273
01288:  MOVFF  1D7,272
0128C:  MOVFF  1D6,271
01290:  MOVLW  EC
01292:  MOVLB  2
01294:  MOVWF  x78
01296:  MOVLW  D1
01298:  MOVWF  x77
0129A:  MOVLW  59
0129C:  MOVWF  x76
0129E:  MOVLW  85
012A0:  MOVWF  x75
012A2:  MOVLB  0
012A4:  RCALL  0D70
012A6:  MOVFF  03,1D9
012AA:  MOVFF  02,1D8
012AE:  MOVFF  01,1D7
012B2:  MOVFF  00,1D6
....................    //V0 += 14.82; 
....................    V0 += 14.91; 
012B6:  BCF    FD8.1
012B8:  MOVFF  1D9,274
012BC:  MOVFF  1D8,273
012C0:  MOVFF  1D7,272
012C4:  MOVFF  1D6,271
012C8:  MOVLW  5C
012CA:  MOVLB  2
012CC:  MOVWF  x78
012CE:  MOVLW  8F
012D0:  MOVWF  x77
012D2:  MOVLW  6E
012D4:  MOVWF  x76
012D6:  MOVLW  82
012D8:  MOVWF  x75
012DA:  MOVLB  0
012DC:  RCALL  0ECE
012DE:  MOVFF  03,1D9
012E2:  MOVFF  02,1D8
012E6:  MOVFF  01,1D7
012EA:  MOVFF  00,1D6
....................    Pt=6810/((1023/V0)-1);  
012EE:  MOVLB  2
012F0:  CLRF   x74
012F2:  MOVLW  C0
012F4:  MOVWF  x73
012F6:  MOVLW  7F
012F8:  MOVWF  x72
012FA:  MOVLW  88
012FC:  MOVWF  x71
012FE:  MOVFF  1D9,278
01302:  MOVFF  1D8,277
01306:  MOVFF  1D7,276
0130A:  MOVFF  1D6,275
0130E:  MOVLB  0
01310:  RCALL  0D70
01312:  MOVFF  00,26D
01316:  MOVFF  01,26E
0131A:  MOVFF  02,26F
0131E:  MOVFF  03,270
01322:  BSF    FD8.1
01324:  MOVFF  03,274
01328:  MOVFF  02,273
0132C:  MOVFF  01,272
01330:  MOVFF  00,271
01334:  MOVLB  2
01336:  CLRF   x78
01338:  CLRF   x77
0133A:  CLRF   x76
0133C:  MOVLW  7F
0133E:  MOVWF  x75
01340:  MOVLB  0
01342:  RCALL  0ECE
01344:  MOVLB  2
01346:  CLRF   x74
01348:  MOVLW  D0
0134A:  MOVWF  x73
0134C:  MOVLW  54
0134E:  MOVWF  x72
01350:  MOVLW  8B
01352:  MOVWF  x71
01354:  MOVFF  03,278
01358:  MOVFF  02,277
0135C:  MOVFF  01,276
01360:  MOVFF  00,275
01364:  MOVLB  0
01366:  RCALL  0D70
01368:  MOVFF  03,1DD
0136C:  MOVFF  02,1DC
01370:  MOVFF  01,1DB
01374:  MOVFF  00,1DA
....................              
....................    if(l>(media-1)) 
01378:  MOVLW  01
0137A:  MOVLB  2
0137C:  SUBWF  x6C,W
0137E:  MOVLB  1
01380:  SUBWF  xD1,W
01382:  BZ    1388
01384:  BNC   1388
....................    {l=0;} 
01386:  CLRF   xD1
....................    //promedio[l]=Temperature;l++; 
....................    promedio[l]=Pt;l++; 
01388:  MOVLB  2
0138A:  CLRF   x6E
0138C:  MOVFF  1D1,26D
01390:  CLRF   x70
01392:  MOVLW  04
01394:  MOVWF  x6F
01396:  MOVLB  0
01398:  RCALL  1146
0139A:  MOVF   01,W
0139C:  ADDLW  26
0139E:  MOVWF  FE9
013A0:  MOVLW  00
013A2:  ADDWFC 02,W
013A4:  MOVWF  FEA
013A6:  MOVFF  1DA,FEF
013AA:  MOVFF  1DB,FEC
013AE:  MOVFF  1DC,FEC
013B2:  MOVFF  1DD,FEC
013B6:  MOVLB  1
013B8:  INCF   xD1,F
....................           
....................    for(h=0;h<media;h++) 
013BA:  CLRF   xD0
013BC:  MOVLB  2
013BE:  MOVF   x6C,W
013C0:  MOVLB  1
013C2:  SUBWF  xD0,W
013C4:  BC    1442
....................    { 
....................       Prom+=promedio[h]; 
013C6:  MOVLB  2
013C8:  CLRF   x6E
013CA:  MOVFF  1D0,26D
013CE:  CLRF   x70
013D0:  MOVLW  04
013D2:  MOVWF  x6F
013D4:  MOVLB  0
013D6:  RCALL  1146
013D8:  MOVFF  02,03
013DC:  MOVF   01,W
013DE:  ADDLW  26
013E0:  MOVWF  FE9
013E2:  MOVLW  00
013E4:  ADDWFC 02,W
013E6:  MOVWF  FEA
013E8:  MOVFF  FEF,00
013EC:  MOVFF  FEC,01
013F0:  MOVFF  FEC,02
013F4:  MOVFF  FEC,03
013F8:  MOVFF  FEA,26E
013FC:  MOVFF  FE9,26D
01400:  BCF    FD8.1
01402:  MOVFF  1ED,274
01406:  MOVFF  1EC,273
0140A:  MOVFF  1EB,272
0140E:  MOVFF  1EA,271
01412:  MOVFF  03,278
01416:  MOVFF  02,277
0141A:  MOVFF  01,276
0141E:  MOVFF  00,275
01422:  RCALL  0ECE
01424:  MOVFF  26E,FEA
01428:  MOVFF  26D,FE9
0142C:  MOVFF  03,1ED
01430:  MOVFF  02,1EC
01434:  MOVFF  01,1EB
01438:  MOVFF  00,1EA
....................    }  
0143C:  MOVLB  1
0143E:  INCF   xD0,F
01440:  BRA    13BC
....................    Prom=Prom/media;    
01442:  MOVLB  2
01444:  CLRF   x73
01446:  MOVFF  26C,272
0144A:  MOVLB  0
0144C:  CALL   056A
01450:  MOVFF  1ED,274
01454:  MOVFF  1EC,273
01458:  MOVFF  1EB,272
0145C:  MOVFF  1EA,271
01460:  MOVFF  03,278
01464:  MOVFF  02,277
01468:  MOVFF  01,276
0146C:  MOVFF  00,275
01470:  RCALL  0D70
01472:  MOVFF  03,1ED
01476:  MOVFF  02,1EC
0147A:  MOVFF  01,1EB
0147E:  MOVFF  00,1EA
....................    //Temperature=(Prom-100.0)/(0.385);  // Ecuación determinada por linealización en Matlab. Revisar este polinomio.   
....................    Temperature=((Prom*Prom)*a)+(Prom*b)+c;  // Ecuación determinada por linealización en Matlab. Revisar este polinomio. 
01482:  MOVFF  1ED,27C
01486:  MOVFF  1EC,27B
0148A:  MOVFF  1EB,27A
0148E:  MOVFF  1EA,279
01492:  MOVFF  1ED,280
01496:  MOVFF  1EC,27F
0149A:  MOVFF  1EB,27E
0149E:  MOVFF  1EA,27D
014A2:  RCALL  1168
014A4:  MOVFF  00,26D
014A8:  MOVFF  01,26E
014AC:  MOVFF  02,26F
014B0:  MOVFF  03,270
014B4:  MOVFF  03,27C
014B8:  MOVFF  02,27B
014BC:  MOVFF  01,27A
014C0:  MOVFF  00,279
014C4:  MOVFF  215,280
014C8:  MOVFF  214,27F
014CC:  MOVFF  213,27E
014D0:  MOVFF  212,27D
014D4:  RCALL  1168
014D6:  MOVFF  00,26D
014DA:  MOVFF  01,26E
014DE:  MOVFF  02,26F
014E2:  MOVFF  03,270
014E6:  MOVFF  1ED,27C
014EA:  MOVFF  1EC,27B
014EE:  MOVFF  1EB,27A
014F2:  MOVFF  1EA,279
014F6:  MOVFF  219,280
014FA:  MOVFF  218,27F
014FE:  MOVFF  217,27E
01502:  MOVFF  216,27D
01506:  RCALL  1168
01508:  BCF    FD8.1
0150A:  MOVFF  270,274
0150E:  MOVFF  26F,273
01512:  MOVFF  26E,272
01516:  MOVFF  26D,271
0151A:  MOVFF  03,278
0151E:  MOVFF  02,277
01522:  MOVFF  01,276
01526:  MOVFF  00,275
0152A:  RCALL  0ECE
0152C:  MOVFF  00,26D
01530:  MOVFF  01,26E
01534:  MOVFF  02,26F
01538:  MOVFF  03,270
0153C:  BCF    FD8.1
0153E:  MOVFF  03,274
01542:  MOVFF  02,273
01546:  MOVFF  01,272
0154A:  MOVFF  00,271
0154E:  MOVFF  21D,278
01552:  MOVFF  21C,277
01556:  MOVFF  21B,276
0155A:  MOVFF  21A,275
0155E:  RCALL  0ECE
01560:  MOVFF  03,1F1
01564:  MOVFF  02,1F0
01568:  MOVFF  01,1EF
0156C:  MOVFF  00,1EE
....................    Temperature+=((float)Ajuste-(float)Ajusten); 
01570:  MOVLB  2
01572:  CLRF   x73
01574:  MOVFF  1D2,272
01578:  MOVLB  0
0157A:  CALL   056A
0157E:  MOVFF  00,26D
01582:  MOVFF  01,26E
01586:  MOVFF  02,26F
0158A:  MOVFF  03,270
0158E:  MOVLB  2
01590:  CLRF   x73
01592:  MOVFF  1D3,272
01596:  MOVLB  0
01598:  CALL   056A
0159C:  BSF    FD8.1
0159E:  MOVFF  270,274
015A2:  MOVFF  26F,273
015A6:  MOVFF  26E,272
015AA:  MOVFF  26D,271
015AE:  MOVFF  03,278
015B2:  MOVFF  02,277
015B6:  MOVFF  01,276
015BA:  MOVFF  00,275
015BE:  RCALL  0ECE
015C0:  BCF    FD8.1
015C2:  MOVFF  1F1,274
015C6:  MOVFF  1F0,273
015CA:  MOVFF  1EF,272
015CE:  MOVFF  1EE,271
015D2:  MOVFF  03,278
015D6:  MOVFF  02,277
015DA:  MOVFF  01,276
015DE:  MOVFF  00,275
015E2:  RCALL  0ECE
015E4:  MOVFF  03,1F1
015E8:  MOVFF  02,1F0
015EC:  MOVFF  01,1EF
015F0:  MOVFF  00,1EE
....................     
....................    //return Prom; 
....................    return Temperature; 
015F4:  MOVFF  1EE,00
015F8:  MOVFF  1EF,01
015FC:  MOVFF  1F0,02
01600:  MOVFF  1F1,03
.................... } 
01604:  RETLW  00
....................  
.................... float Leer_Sensor_Presion_Camara(int media){ 
....................    promediopresion=0.0; 
*
01946:  MOVLB  1
01948:  CLRF   xC1
0194A:  CLRF   xC0
0194C:  CLRF   xBF
0194E:  CLRF   xBE
....................    V1 = sensores(1);   //Lectura de Divisor de Voltaje de PT100 con resistencia de 1k (+-10%) 
01950:  MOVLW  01
01952:  MOVLB  2
01954:  MOVWF  x6D
01956:  MOVLB  0
01958:  CALL   0D1A
0195C:  MOVFF  03,205
01960:  MOVFF  02,204
01964:  MOVFF  01,203
01968:  MOVFF  00,202
....................    V1 = V1*(5.0/1024.0); 
0196C:  MOVFF  205,27C
01970:  MOVFF  204,27B
01974:  MOVFF  203,27A
01978:  MOVFF  202,279
0197C:  MOVLB  2
0197E:  CLRF   x80
01980:  CLRF   x7F
01982:  MOVLW  20
01984:  MOVWF  x7E
01986:  MOVLW  77
01988:  MOVWF  x7D
0198A:  MOVLB  0
0198C:  CALL   1168
01990:  MOVFF  03,205
01994:  MOVFF  02,204
01998:  MOVFF  01,203
0199C:  MOVFF  00,202
....................    Presion=(V1-0.2)/(K); 
019A0:  BSF    FD8.1
019A2:  MOVFF  205,274
019A6:  MOVFF  204,273
019AA:  MOVFF  203,272
019AE:  MOVFF  202,271
019B2:  MOVLW  CD
019B4:  MOVLB  2
019B6:  MOVWF  x78
019B8:  MOVLW  CC
019BA:  MOVWF  x77
019BC:  MOVLW  4C
019BE:  MOVWF  x76
019C0:  MOVLW  7C
019C2:  MOVWF  x75
019C4:  MOVLB  0
019C6:  CALL   0ECE
019CA:  MOVFF  00,26D
019CE:  MOVFF  01,26E
019D2:  MOVFF  02,26F
019D6:  MOVFF  03,270
019DA:  MOVFF  03,274
019DE:  MOVFF  02,273
019E2:  MOVFF  01,272
019E6:  MOVFF  00,271
019EA:  MOVFF  211,278
019EE:  MOVFF  210,277
019F2:  MOVFF  20F,276
019F6:  MOVFF  20E,275
019FA:  CALL   0D70
019FE:  MOVFF  03,209
01A02:  MOVFF  02,208
01A06:  MOVFF  01,207
01A0A:  MOVFF  00,206
....................     
....................    if(Presion<0.0) 
01A0E:  MOVFF  209,273
01A12:  MOVFF  208,272
01A16:  MOVFF  207,271
01A1A:  MOVFF  206,270
01A1E:  MOVLB  2
01A20:  CLRF   x77
01A22:  CLRF   x76
01A24:  CLRF   x75
01A26:  CLRF   x74
01A28:  MOVLB  0
01A2A:  CALL   08BC
01A2E:  BNC   1A3A
....................    { 
....................       Presion=0.0; 
01A30:  MOVLB  2
01A32:  CLRF   x09
01A34:  CLRF   x08
01A36:  CLRF   x07
01A38:  CLRF   x06
....................    } 
....................     
....................    if(r>media-1) 
01A3A:  MOVLW  01
01A3C:  MOVLB  2
01A3E:  SUBWF  x6C,W
01A40:  SUBWF  x3E,W
01A42:  BZ    1A48
01A44:  BNC   1A48
....................    {r=0;} 
01A46:  CLRF   x3E
....................    PromPresion[r]=Presion;r++; 
01A48:  MOVF   x3E,W
01A4A:  MULLW  04
01A4C:  MOVF   FF3,W
01A4E:  CLRF   03
01A50:  ADDLW  66
01A52:  MOVWF  FE9
01A54:  MOVLW  01
01A56:  ADDWFC 03,W
01A58:  MOVWF  FEA
01A5A:  MOVFF  206,FEF
01A5E:  MOVFF  207,FEC
01A62:  MOVFF  208,FEC
01A66:  MOVFF  209,FEC
01A6A:  INCF   x3E,F
....................           
....................    for(t=0;t<=(media-1);t++) 
01A6C:  CLRF   x3F
01A6E:  MOVLW  01
01A70:  SUBWF  x6C,W
01A72:  SUBWF  x3F,W
01A74:  BZ    1A78
01A76:  BC    1AE8
....................    { 
....................       promediopresion+=PromPresion[t]; 
01A78:  MOVF   x3F,W
01A7A:  MULLW  04
01A7C:  MOVF   FF3,W
01A7E:  CLRF   03
01A80:  ADDLW  66
01A82:  MOVWF  FE9
01A84:  MOVLW  01
01A86:  ADDWFC 03,W
01A88:  MOVWF  FEA
01A8A:  MOVFF  FEF,00
01A8E:  MOVFF  FEC,01
01A92:  MOVFF  FEC,02
01A96:  MOVFF  FEC,03
01A9A:  MOVFF  FEA,26E
01A9E:  MOVFF  FE9,26D
01AA2:  BCF    FD8.1
01AA4:  MOVFF  1C1,274
01AA8:  MOVFF  1C0,273
01AAC:  MOVFF  1BF,272
01AB0:  MOVFF  1BE,271
01AB4:  MOVFF  03,278
01AB8:  MOVFF  02,277
01ABC:  MOVFF  01,276
01AC0:  MOVFF  00,275
01AC4:  MOVLB  0
01AC6:  CALL   0ECE
01ACA:  MOVFF  26E,FEA
01ACE:  MOVFF  26D,FE9
01AD2:  MOVFF  03,1C1
01AD6:  MOVFF  02,1C0
01ADA:  MOVFF  01,1BF
01ADE:  MOVFF  00,1BE
....................    }  
01AE2:  MOVLB  2
01AE4:  INCF   x3F,F
01AE6:  BRA    1A6E
....................    promediopresion=promediopresion/media;    
01AE8:  CLRF   x73
01AEA:  MOVFF  26C,272
01AEE:  MOVLB  0
01AF0:  CALL   056A
01AF4:  MOVFF  1C1,274
01AF8:  MOVFF  1C0,273
01AFC:  MOVFF  1BF,272
01B00:  MOVFF  1BE,271
01B04:  MOVFF  03,278
01B08:  MOVFF  02,277
01B0C:  MOVFF  01,276
01B10:  MOVFF  00,275
01B14:  CALL   0D70
01B18:  MOVFF  03,1C1
01B1C:  MOVFF  02,1C0
01B20:  MOVFF  01,1BF
01B24:  MOVFF  00,1BE
....................     
....................    return promediopresion; 
01B28:  MOVFF  1BE,00
01B2C:  MOVFF  1BF,01
01B30:  MOVFF  1C0,02
01B34:  MOVFF  1C1,03
.................... } 
01B38:  GOTO   2C98 (RETURN)
....................  
.................... void Controla(){ 
....................    if(tiemporecta>=Derivativo/2.0) 
*
01FFC:  MOVLB  2
01FFE:  CLRF   x73
02000:  MOVFF  21F,272
02004:  MOVLB  0
02006:  CALL   056A
0200A:  MOVFF  03,274
0200E:  MOVFF  02,273
02012:  MOVFF  01,272
02016:  MOVFF  00,271
0201A:  MOVLB  2
0201C:  CLRF   x78
0201E:  CLRF   x77
02020:  CLRF   x76
02022:  MOVLW  80
02024:  MOVWF  x75
02026:  MOVLB  0
02028:  CALL   0D70
0202C:  MOVFF  00,26C
02030:  MOVFF  01,26D
02034:  MOVFF  02,26E
02038:  MOVFF  03,26F
0203C:  MOVLB  2
0203E:  CLRF   x73
02040:  MOVFF  224,272
02044:  MOVLB  0
02046:  CALL   056A
0204A:  MOVFF  26F,273
0204E:  MOVFF  26E,272
02052:  MOVFF  26D,271
02056:  MOVFF  26C,270
0205A:  MOVFF  03,277
0205E:  MOVFF  02,276
02062:  MOVFF  01,275
02066:  MOVFF  00,274
0206A:  CALL   08BC
0206E:  BC    2072
02070:  BNZ   2078
....................    { 
....................       ActualizaRecta(); 
02072:  BRA    1F8E
....................       tiemporecta=0; 
02074:  MOVLB  2
02076:  CLRF   x24
....................    }  
.................... //-------------------------------Control de Calentamiento------------------------------------------------------------//          
....................    error=desvio+Setpoint-Temperatura;      // Cálculo del error ****** 
02078:  MOVLB  2
0207A:  CLRF   x73
0207C:  MOVFF  22B,272
02080:  MOVLB  0
02082:  CALL   056A
02086:  BCF    FD8.1
02088:  MOVFF  201,274
0208C:  MOVFF  200,273
02090:  MOVFF  1FF,272
02094:  MOVFF  1FE,271
02098:  MOVFF  03,278
0209C:  MOVFF  02,277
020A0:  MOVFF  01,276
020A4:  MOVFF  00,275
020A8:  CALL   0ECE
020AC:  MOVFF  00,26C
020B0:  MOVFF  01,26D
020B4:  MOVFF  02,26E
020B8:  MOVFF  03,26F
020BC:  BSF    FD8.1
020BE:  MOVFF  03,274
020C2:  MOVFF  02,273
020C6:  MOVFF  01,272
020CA:  MOVFF  00,271
020CE:  MOVFF  20D,278
020D2:  MOVFF  20C,277
020D6:  MOVFF  20B,276
020DA:  MOVFF  20A,275
020DE:  CALL   0ECE
020E2:  MOVFF  03,1E9
020E6:  MOVFF  02,1E8
020EA:  MOVFF  01,1E7
020EE:  MOVFF  00,1E6
....................     
....................    if(error>1.8 && error<15 && Aumento<0.3) 
020F2:  MOVLW  66
020F4:  MOVLB  2
020F6:  MOVWF  x73
020F8:  MOVWF  x72
020FA:  MOVWF  x71
020FC:  MOVLW  7F
020FE:  MOVWF  x70
02100:  MOVFF  1E9,277
02104:  MOVFF  1E8,276
02108:  MOVFF  1E7,275
0210C:  MOVFF  1E6,274
02110:  MOVLB  0
02112:  CALL   08BC
02116:  BTFSS  FD8.0
02118:  BRA    233E
0211A:  MOVFF  1E9,273
0211E:  MOVFF  1E8,272
02122:  MOVFF  1E7,271
02126:  MOVFF  1E6,270
0212A:  MOVLB  2
0212C:  CLRF   x77
0212E:  CLRF   x76
02130:  MOVLW  70
02132:  MOVWF  x75
02134:  MOVLW  82
02136:  MOVWF  x74
02138:  MOVLB  0
0213A:  CALL   08BC
0213E:  BTFSS  FD8.0
02140:  BRA    233E
02142:  MOVFF  1C5,273
02146:  MOVFF  1C4,272
0214A:  MOVFF  1C3,271
0214E:  MOVFF  1C2,270
02152:  MOVLW  9A
02154:  MOVLB  2
02156:  MOVWF  x77
02158:  MOVLW  99
0215A:  MOVWF  x76
0215C:  MOVLW  19
0215E:  MOVWF  x75
02160:  MOVLW  7D
02162:  MOVWF  x74
02164:  MOVLB  0
02166:  CALL   08BC
0216A:  BTFSS  FD8.0
0216C:  BRA    233E
....................    { 
....................       if(Tpulso<4.0) 
0216E:  MOVFF  1E5,273
02172:  MOVFF  1E4,272
02176:  MOVFF  1E3,271
0217A:  MOVFF  1E2,270
0217E:  MOVLB  2
02180:  CLRF   x77
02182:  CLRF   x76
02184:  CLRF   x75
02186:  MOVLW  81
02188:  MOVWF  x74
0218A:  MOVLB  0
0218C:  CALL   08BC
02190:  BTFSS  FD8.0
02192:  BRA    233C
....................       { 
....................          flagTC=1; 
02194:  BSF    1B.5
....................          if(TiempoControl>=Derivativo) 
02196:  MOVLB  2
02198:  MOVF   x1F,W
0219A:  SUBWF  x40,W
0219C:  BTFSS  FD8.0
0219E:  BRA    2338
....................          { 
....................             TiempoControl=0; 
021A0:  CLRF   x40
....................             if(Aumento<-0.5){ 
021A2:  MOVFF  1C5,273
021A6:  MOVFF  1C4,272
021AA:  MOVFF  1C3,271
021AE:  MOVFF  1C2,270
021B2:  CLRF   x77
021B4:  CLRF   x76
021B6:  MOVLW  80
021B8:  MOVWF  x75
021BA:  MOVLW  7E
021BC:  MOVWF  x74
021BE:  MOVLB  0
021C0:  CALL   08BC
021C4:  BNC   2236
....................                Ganancia+=Integral+0.2; 
021C6:  MOVLB  2
021C8:  CLRF   x73
021CA:  MOVFF  21E,272
021CE:  MOVLB  0
021D0:  CALL   056A
021D4:  BCF    FD8.1
021D6:  MOVFF  03,274
021DA:  MOVFF  02,273
021DE:  MOVFF  01,272
021E2:  MOVFF  00,271
021E6:  MOVLW  CD
021E8:  MOVLB  2
021EA:  MOVWF  x78
021EC:  MOVLW  CC
021EE:  MOVWF  x77
021F0:  MOVLW  4C
021F2:  MOVWF  x76
021F4:  MOVLW  7C
021F6:  MOVWF  x75
021F8:  MOVLB  0
021FA:  CALL   0ECE
021FE:  BCF    FD8.1
02200:  MOVFF  1F9,274
02204:  MOVFF  1F8,273
02208:  MOVFF  1F7,272
0220C:  MOVFF  1F6,271
02210:  MOVFF  03,278
02214:  MOVFF  02,277
02218:  MOVFF  01,276
0221C:  MOVFF  00,275
02220:  CALL   0ECE
02224:  MOVFF  03,1F9
02228:  MOVFF  02,1F8
0222C:  MOVFF  01,1F7
02230:  MOVFF  00,1F6
....................             }else{ 
02234:  BRA    2336
....................                if(Aumento<-0.1){ 
02236:  MOVFF  1C5,273
0223A:  MOVFF  1C4,272
0223E:  MOVFF  1C3,271
02242:  MOVFF  1C2,270
02246:  MOVLW  CD
02248:  MOVLB  2
0224A:  MOVWF  x77
0224C:  MOVLW  CC
0224E:  MOVWF  x76
02250:  MOVWF  x75
02252:  MOVLW  7B
02254:  MOVWF  x74
02256:  MOVLB  0
02258:  CALL   08BC
0225C:  BNC   22CE
....................                   Ganancia+=Integral-0.2; 
0225E:  MOVLB  2
02260:  CLRF   x73
02262:  MOVFF  21E,272
02266:  MOVLB  0
02268:  CALL   056A
0226C:  BSF    FD8.1
0226E:  MOVFF  03,274
02272:  MOVFF  02,273
02276:  MOVFF  01,272
0227A:  MOVFF  00,271
0227E:  MOVLW  CD
02280:  MOVLB  2
02282:  MOVWF  x78
02284:  MOVLW  CC
02286:  MOVWF  x77
02288:  MOVLW  4C
0228A:  MOVWF  x76
0228C:  MOVLW  7C
0228E:  MOVWF  x75
02290:  MOVLB  0
02292:  CALL   0ECE
02296:  BCF    FD8.1
02298:  MOVFF  1F9,274
0229C:  MOVFF  1F8,273
022A0:  MOVFF  1F7,272
022A4:  MOVFF  1F6,271
022A8:  MOVFF  03,278
022AC:  MOVFF  02,277
022B0:  MOVFF  01,276
022B4:  MOVFF  00,275
022B8:  CALL   0ECE
022BC:  MOVFF  03,1F9
022C0:  MOVFF  02,1F8
022C4:  MOVFF  01,1F7
022C8:  MOVFF  00,1F6
....................                }else{ 
022CC:  BRA    2336
....................                   Ganancia+=Integral-0.5; 
022CE:  MOVLB  2
022D0:  CLRF   x73
022D2:  MOVFF  21E,272
022D6:  MOVLB  0
022D8:  CALL   056A
022DC:  BSF    FD8.1
022DE:  MOVFF  03,274
022E2:  MOVFF  02,273
022E6:  MOVFF  01,272
022EA:  MOVFF  00,271
022EE:  MOVLB  2
022F0:  CLRF   x78
022F2:  CLRF   x77
022F4:  CLRF   x76
022F6:  MOVLW  7E
022F8:  MOVWF  x75
022FA:  MOVLB  0
022FC:  CALL   0ECE
02300:  BCF    FD8.1
02302:  MOVFF  1F9,274
02306:  MOVFF  1F8,273
0230A:  MOVFF  1F7,272
0230E:  MOVFF  1F6,271
02312:  MOVFF  03,278
02316:  MOVFF  02,277
0231A:  MOVFF  01,276
0231E:  MOVFF  00,275
02322:  CALL   0ECE
02326:  MOVFF  03,1F9
0232A:  MOVFF  02,1F8
0232E:  MOVFF  01,1F7
02332:  MOVFF  00,1F6
02336:  MOVLB  2
....................                } 
....................             } 
....................          } 
....................       }else{ 
02338:  BRA    2340
0233A:  MOVLB  0
....................          flagTC=0; 
0233C:  BCF    1B.5
0233E:  MOVLB  2
....................       } 
....................    } 
....................     
....................    if(error<-0.3) 
02340:  MOVFF  1E9,273
02344:  MOVFF  1E8,272
02348:  MOVFF  1E7,271
0234C:  MOVFF  1E6,270
02350:  MOVLW  9A
02352:  MOVWF  x77
02354:  MOVLW  99
02356:  MOVWF  x76
02358:  MOVWF  x75
0235A:  MOVLW  7D
0235C:  MOVWF  x74
0235E:  MOVLB  0
02360:  CALL   08BC
02364:  BNC   2376
....................    { 
....................       Ganancia=Ganancia2; 
02366:  MOVFF  1FD,1F9
0236A:  MOVFF  1FC,1F8
0236E:  MOVFF  1FB,1F7
02372:  MOVFF  1FA,1F6
....................    } 
....................     
....................    if(Ganancia<1) 
02376:  MOVFF  1F9,273
0237A:  MOVFF  1F8,272
0237E:  MOVFF  1F7,271
02382:  MOVFF  1F6,270
02386:  MOVLB  2
02388:  CLRF   x77
0238A:  CLRF   x76
0238C:  CLRF   x75
0238E:  MOVLW  7F
02390:  MOVWF  x74
02392:  MOVLB  0
02394:  CALL   08BC
02398:  BNC   23A6
....................    { 
....................       Ganancia=1; 
0239A:  MOVLB  1
0239C:  CLRF   xF9
0239E:  CLRF   xF8
023A0:  CLRF   xF7
023A2:  MOVLW  7F
023A4:  MOVWF  xF6
....................    } 
....................     
....................    if(error<0.0)     // Anti Wind_DOWN     
023A6:  MOVFF  1E9,273
023AA:  MOVFF  1E8,272
023AE:  MOVFF  1E7,271
023B2:  MOVFF  1E6,270
023B6:  MOVLB  2
023B8:  CLRF   x77
023BA:  CLRF   x76
023BC:  CLRF   x75
023BE:  CLRF   x74
023C0:  MOVLB  0
023C2:  CALL   08BC
023C6:  BNC   23D4
....................    { 
....................       error=0.0; 
023C8:  MOVLB  1
023CA:  CLRF   xE9
023CC:  CLRF   xE8
023CE:  CLRF   xE7
023D0:  CLRF   xE6
023D2:  MOVLB  0
....................    } 
....................    //tmp=(Setpoint-Prom)*Ganancia;  // Control Proporcional. 
....................    tmp=error*Ganancia;  // Control Proporcional. 
023D4:  MOVFF  1E9,27C
023D8:  MOVFF  1E8,27B
023DC:  MOVFF  1E7,27A
023E0:  MOVFF  1E6,279
023E4:  MOVFF  1F9,280
023E8:  MOVFF  1F8,27F
023EC:  MOVFF  1F7,27E
023F0:  MOVFF  1F6,27D
023F4:  CALL   1168
023F8:  MOVFF  03,1F5
023FC:  MOVFF  02,1F4
02400:  MOVFF  01,1F3
02404:  MOVFF  00,1F2
....................           
....................    if(tmp>Setpoint)   // Anti Wind-UP       
02408:  MOVLB  2
0240A:  CLRF   x73
0240C:  MOVFF  22B,272
02410:  MOVLB  0
02412:  CALL   056A
02416:  MOVFF  03,273
0241A:  MOVFF  02,272
0241E:  MOVFF  01,271
02422:  MOVFF  00,270
02426:  MOVFF  1F5,277
0242A:  MOVFF  1F4,276
0242E:  MOVFF  1F3,275
02432:  MOVFF  1F2,274
02436:  CALL   08BC
0243A:  BNC   245A
....................    { 
....................       tmp=Setpoint; 
0243C:  MOVLB  2
0243E:  CLRF   x73
02440:  MOVFF  22B,272
02444:  MOVLB  0
02446:  CALL   056A
0244A:  MOVFF  03,1F5
0244E:  MOVFF  02,1F4
02452:  MOVFF  01,1F3
02456:  MOVFF  00,1F2
....................    } 
....................                 
....................    if(tmp<0.0)     // Anti Wind_DOWN     
0245A:  MOVFF  1F5,273
0245E:  MOVFF  1F4,272
02462:  MOVFF  1F3,271
02466:  MOVFF  1F2,270
0246A:  MOVLB  2
0246C:  CLRF   x77
0246E:  CLRF   x76
02470:  CLRF   x75
02472:  CLRF   x74
02474:  MOVLB  0
02476:  CALL   08BC
0247A:  BNC   2486
....................    { 
....................       tmp=0.0; 
0247C:  MOVLB  1
0247E:  CLRF   xF5
02480:  CLRF   xF4
02482:  CLRF   xF3
02484:  CLRF   xF2
....................    } 
....................     
....................    // Tpulso(t)= Tciclo*(y(t)-ymin)/(ymax - ymin); calculo de ciclo util para control de resistencia.ymax=140.ymin=0; 
....................    // Tpulso es float, hay que pasar ese ciclo a una salida de un puerto usando el TMR1. 
....................    Tpulso=(tmp/Setpoint)*Tciclo;   
02486:  MOVLB  2
02488:  CLRF   x73
0248A:  MOVFF  22B,272
0248E:  MOVLB  0
02490:  CALL   056A
02494:  MOVFF  1F5,274
02498:  MOVFF  1F4,273
0249C:  MOVFF  1F3,272
024A0:  MOVFF  1F2,271
024A4:  MOVFF  03,278
024A8:  MOVFF  02,277
024AC:  MOVFF  01,276
024B0:  MOVFF  00,275
024B4:  CALL   0D70
024B8:  MOVFF  00,26C
024BC:  MOVFF  01,26D
024C0:  MOVFF  02,26E
024C4:  MOVFF  03,26F
024C8:  MOVFF  03,27C
024CC:  MOVFF  02,27B
024D0:  MOVFF  01,27A
024D4:  MOVFF  00,279
024D8:  MOVFF  1E1,280
024DC:  MOVFF  1E0,27F
024E0:  MOVFF  1DF,27E
024E4:  MOVFF  1DE,27D
024E8:  CALL   1168
024EC:  MOVFF  03,1E5
024F0:  MOVFF  02,1E4
024F4:  MOVFF  01,1E3
024F8:  MOVFF  00,1E2
....................                                        
....................    Tp=(Tpulso/0.005); 
024FC:  MOVFF  1E5,274
02500:  MOVFF  1E4,273
02504:  MOVFF  1E3,272
02508:  MOVFF  1E2,271
0250C:  MOVLW  0A
0250E:  MOVLB  2
02510:  MOVWF  x78
02512:  MOVLW  D7
02514:  MOVWF  x77
02516:  MOVLW  23
02518:  MOVWF  x76
0251A:  MOVLW  77
0251C:  MOVWF  x75
0251E:  MOVLB  0
02520:  CALL   0D70
02524:  MOVFF  03,26F
02528:  MOVFF  02,26E
0252C:  MOVFF  01,26D
02530:  MOVFF  00,26C
02534:  CALL   1B3C
02538:  MOVFF  02,23
0253C:  MOVFF  01,22
....................    Tc=(Tciclo/0.005); 
02540:  MOVFF  1E1,274
02544:  MOVFF  1E0,273
02548:  MOVFF  1DF,272
0254C:  MOVFF  1DE,271
02550:  MOVLW  0A
02552:  MOVLB  2
02554:  MOVWF  x78
02556:  MOVLW  D7
02558:  MOVWF  x77
0255A:  MOVLW  23
0255C:  MOVWF  x76
0255E:  MOVLW  77
02560:  MOVWF  x75
02562:  MOVLB  0
02564:  CALL   0D70
02568:  MOVFF  03,26F
0256C:  MOVFF  02,26E
02570:  MOVFF  01,26D
02574:  MOVFF  00,26C
02578:  CALL   1B3C
0257C:  MOVFF  02,25
02580:  MOVFF  01,24
....................    Controlando=1;    
02584:  MOVLW  01
02586:  MOVLB  2
02588:  MOVWF  x25
.................... //--------------------------------------------------------------------------------------------------------------------//    
.................... } 
0258A:  MOVLB  0
0258C:  RETLW  00
....................  
.................... void LeeEEPROM(){ 
.................... //Lectura EEPROM//-------------------------- 
....................    Ganancia=read_eeprom(20); 
*
005A0:  MOVFF  FF2,26C
005A4:  BCF    FF2.7
005A6:  CLRF   FAA
005A8:  MOVLW  14
005AA:  MOVWF  FA9
005AC:  BCF    FA6.6
005AE:  BCF    FA6.7
005B0:  BSF    FA6.0
005B2:  MOVF   FA8,W
005B4:  MOVLB  2
005B6:  BTFSC  x6C.7
005B8:  BSF    FF2.7
005BA:  CLRF   x73
005BC:  MOVWF  x72
005BE:  MOVLB  0
005C0:  RCALL  056A
005C2:  MOVFF  03,1F9
005C6:  MOVFF  02,1F8
005CA:  MOVFF  01,1F7
005CE:  MOVFF  00,1F6
....................    delay_ms(10); 
005D2:  MOVLW  0A
005D4:  MOVLB  2
005D6:  MOVWF  x7F
005D8:  MOVLB  0
005DA:  RCALL  046E
....................    Ajuste=read_eeprom(21); 
005DC:  MOVFF  FF2,26C
005E0:  BCF    FF2.7
005E2:  CLRF   FAA
005E4:  MOVLW  15
005E6:  MOVWF  FA9
005E8:  BCF    FA6.6
005EA:  BCF    FA6.7
005EC:  BSF    FA6.0
005EE:  MOVF   FA8,W
005F0:  MOVLB  2
005F2:  BTFSC  x6C.7
005F4:  BSF    FF2.7
005F6:  MOVLB  1
005F8:  MOVWF  xD2
....................    delay_ms(10); 
005FA:  MOVLW  0A
005FC:  MOVLB  2
005FE:  MOVWF  x7F
00600:  MOVLB  0
00602:  RCALL  046E
....................    Ajusten=read_eeprom(22); 
00604:  MOVFF  FF2,26C
00608:  BCF    FF2.7
0060A:  CLRF   FAA
0060C:  MOVLW  16
0060E:  MOVWF  FA9
00610:  BCF    FA6.6
00612:  BCF    FA6.7
00614:  BSF    FA6.0
00616:  MOVF   FA8,W
00618:  MOVLB  2
0061A:  BTFSC  x6C.7
0061C:  BSF    FF2.7
0061E:  MOVLB  1
00620:  MOVWF  xD3
....................    delay_ms(10); 
00622:  MOVLW  0A
00624:  MOVLB  2
00626:  MOVWF  x7F
00628:  MOVLB  0
0062A:  RCALL  046E
....................    //Desvio=read_eeprom(23); 
....................    MediaMovil=read_eeprom(24); 
0062C:  MOVFF  FF2,26C
00630:  BCF    FF2.7
00632:  CLRF   FAA
00634:  MOVLW  18
00636:  MOVWF  FA9
00638:  BCF    FA6.6
0063A:  BCF    FA6.7
0063C:  BSF    FA6.0
0063E:  MOVF   FA8,W
00640:  MOVLB  2
00642:  BTFSC  x6C.7
00644:  BSF    FF2.7
00646:  MOVLB  1
00648:  MOVWF  xD4
....................    delay_ms(10); 
0064A:  MOVLW  0A
0064C:  MOVLB  2
0064E:  MOVWF  x7F
00650:  MOVLB  0
00652:  RCALL  046E
....................    Integral=read_eeprom(26); 
00654:  MOVFF  FF2,26C
00658:  BCF    FF2.7
0065A:  CLRF   FAA
0065C:  MOVLW  1A
0065E:  MOVWF  FA9
00660:  BCF    FA6.6
00662:  BCF    FA6.7
00664:  BSF    FA6.0
00666:  MOVF   FA8,W
00668:  MOVLB  2
0066A:  BTFSC  x6C.7
0066C:  BSF    FF2.7
0066E:  MOVWF  x1E
....................    delay_ms(10); 
00670:  MOVLW  0A
00672:  MOVWF  x7F
00674:  MOVLB  0
00676:  RCALL  046E
....................    Derivativo=read_eeprom(27); 
00678:  MOVFF  FF2,26C
0067C:  BCF    FF2.7
0067E:  CLRF   FAA
00680:  MOVLW  1B
00682:  MOVWF  FA9
00684:  BCF    FA6.6
00686:  BCF    FA6.7
00688:  BSF    FA6.0
0068A:  MOVF   FA8,W
0068C:  MOVLB  2
0068E:  BTFSC  x6C.7
00690:  BSF    FF2.7
00692:  MOVWF  x1F
....................    delay_ms(10); 
00694:  MOVLW  0A
00696:  MOVWF  x7F
00698:  MOVLB  0
0069A:  RCALL  046E
....................    CiclosL=read_eeprom(37); 
0069C:  MOVFF  FF2,26C
006A0:  BCF    FF2.7
006A2:  CLRF   FAA
006A4:  MOVLW  25
006A6:  MOVWF  FA9
006A8:  BCF    FA6.6
006AA:  BCF    FA6.7
006AC:  BSF    FA6.0
006AE:  MOVF   FA8,W
006B0:  MOVLB  2
006B2:  BTFSC  x6C.7
006B4:  BSF    FF2.7
006B6:  MOVWF  x29
....................    delay_ms(10); 
006B8:  MOVLW  0A
006BA:  MOVWF  x7F
006BC:  MOVLB  0
006BE:  RCALL  046E
....................    CiclosH=read_eeprom(38); 
006C0:  MOVFF  FF2,26C
006C4:  BCF    FF2.7
006C6:  CLRF   FAA
006C8:  MOVLW  26
006CA:  MOVWF  FA9
006CC:  BCF    FA6.6
006CE:  BCF    FA6.7
006D0:  BSF    FA6.0
006D2:  MOVF   FA8,W
006D4:  MOVLB  2
006D6:  BTFSC  x6C.7
006D8:  BSF    FF2.7
006DA:  MOVWF  x2A
....................    delay_ms(10); 
006DC:  MOVLW  0A
006DE:  MOVWF  x7F
006E0:  MOVLB  0
006E2:  RCALL  046E
....................    Ciclos=make16(CiclosH,CiclosL); 
006E4:  MOVFF  22A,23B
006E8:  MOVFF  229,23A
....................    delay_ms(10); 
006EC:  MOVLW  0A
006EE:  MOVLB  2
006F0:  MOVWF  x7F
006F2:  MOVLB  0
006F4:  RCALL  046E
....................    TTrampa=read_eeprom(39); 
006F6:  MOVFF  FF2,26C
006FA:  BCF    FF2.7
006FC:  CLRF   FAA
006FE:  MOVLW  27
00700:  MOVWF  FA9
00702:  BCF    FA6.6
00704:  BCF    FA6.7
00706:  BSF    FA6.0
00708:  MOVF   FA8,W
0070A:  MOVLB  2
0070C:  BTFSC  x6C.7
0070E:  BSF    FF2.7
00710:  MOVLB  1
00712:  MOVWF  xD5
....................    delay_ms(10); 
00714:  MOVLW  0A
00716:  MOVLB  2
00718:  MOVWF  x7F
0071A:  MOVLB  0
0071C:  RCALL  046E
....................    //100 SteTemp 
....................    //101 SteTime 
....................    //102 Dry Time 
....................    //103 Exh 
....................    for(i=0;i<5;i++){       
0071E:  MOVLB  2
00720:  CLRF   x28
00722:  MOVF   x28,W
00724:  SUBLW  04
00726:  BTFSS  FD8.0
00728:  BRA    08B6
....................       Set[i]=read_eeprom(100+(i*4)); 
0072A:  CLRF   03
0072C:  MOVF   x28,W
0072E:  ADDLW  58
00730:  MOVWF  FE9
00732:  MOVLW  02
00734:  ADDWFC 03,W
00736:  MOVWF  FEA
00738:  MOVF   x28,W
0073A:  MULLW  04
0073C:  MOVF   FF3,W
0073E:  ADDLW  64
00740:  MOVWF  x6E
00742:  MOVFF  FF2,26F
00746:  BCF    FF2.7
00748:  CLRF   FAA
0074A:  MOVFF  26E,FA9
0074E:  BCF    FA6.6
00750:  BCF    FA6.7
00752:  BSF    FA6.0
00754:  MOVF   FA8,W
00756:  BTFSC  x6F.7
00758:  BSF    FF2.7
0075A:  MOVWF  FEF
....................       delay_ms(10); 
0075C:  MOVLW  0A
0075E:  MOVWF  x7F
00760:  MOVLB  0
00762:  RCALL  046E
....................       if(Set[i]>137)Set[i]=121; 
00764:  CLRF   03
00766:  MOVLB  2
00768:  MOVF   x28,W
0076A:  ADDLW  58
0076C:  MOVWF  FE9
0076E:  MOVLW  02
00770:  ADDWFC 03,W
00772:  MOVWF  FEA
00774:  MOVF   FEF,W
00776:  SUBLW  89
00778:  BC    078C
0077A:  CLRF   03
0077C:  MOVF   x28,W
0077E:  ADDLW  58
00780:  MOVWF  FE9
00782:  MOVLW  02
00784:  ADDWFC 03,W
00786:  MOVWF  FEA
00788:  MOVLW  79
0078A:  MOVWF  FEF
....................       Time[i]=read_eeprom(101+(i*4)); 
0078C:  CLRF   03
0078E:  MOVF   x28,W
00790:  ADDLW  5D
00792:  MOVWF  FE9
00794:  MOVLW  02
00796:  ADDWFC 03,W
00798:  MOVWF  FEA
0079A:  MOVF   x28,W
0079C:  MULLW  04
0079E:  MOVF   FF3,W
007A0:  ADDLW  65
007A2:  MOVWF  x6E
007A4:  MOVFF  FF2,26F
007A8:  BCF    FF2.7
007AA:  CLRF   FAA
007AC:  MOVFF  26E,FA9
007B0:  BCF    FA6.6
007B2:  BCF    FA6.7
007B4:  BSF    FA6.0
007B6:  MOVF   FA8,W
007B8:  BTFSC  x6F.7
007BA:  BSF    FF2.7
007BC:  MOVWF  FEF
....................       delay_ms(10); 
007BE:  MOVLW  0A
007C0:  MOVWF  x7F
007C2:  MOVLB  0
007C4:  RCALL  046E
....................       if(Time[i]>99)Time[i]=10; 
007C6:  CLRF   03
007C8:  MOVLB  2
007CA:  MOVF   x28,W
007CC:  ADDLW  5D
007CE:  MOVWF  FE9
007D0:  MOVLW  02
007D2:  ADDWFC 03,W
007D4:  MOVWF  FEA
007D6:  MOVF   FEF,W
007D8:  SUBLW  63
007DA:  BC    07EE
007DC:  CLRF   03
007DE:  MOVF   x28,W
007E0:  ADDLW  5D
007E2:  MOVWF  FE9
007E4:  MOVLW  02
007E6:  ADDWFC 03,W
007E8:  MOVWF  FEA
007EA:  MOVLW  0A
007EC:  MOVWF  FEF
....................       TimeS[i]=read_eeprom(102+(i*4)); 
007EE:  CLRF   03
007F0:  MOVF   x28,W
007F2:  ADDLW  62
007F4:  MOVWF  FE9
007F6:  MOVLW  02
007F8:  ADDWFC 03,W
007FA:  MOVWF  FEA
007FC:  MOVF   x28,W
007FE:  MULLW  04
00800:  MOVF   FF3,W
00802:  ADDLW  66
00804:  MOVWF  x6E
00806:  MOVFF  FF2,26F
0080A:  BCF    FF2.7
0080C:  CLRF   FAA
0080E:  MOVFF  26E,FA9
00812:  BCF    FA6.6
00814:  BCF    FA6.7
00816:  BSF    FA6.0
00818:  MOVF   FA8,W
0081A:  BTFSC  x6F.7
0081C:  BSF    FF2.7
0081E:  MOVWF  FEF
....................       delay_ms(10); 
00820:  MOVLW  0A
00822:  MOVWF  x7F
00824:  MOVLB  0
00826:  RCALL  046E
....................       if(TimeS[i]>99)TimeS[i]=3; 
00828:  CLRF   03
0082A:  MOVLB  2
0082C:  MOVF   x28,W
0082E:  ADDLW  62
00830:  MOVWF  FE9
00832:  MOVLW  02
00834:  ADDWFC 03,W
00836:  MOVWF  FEA
00838:  MOVF   FEF,W
0083A:  SUBLW  63
0083C:  BC    0850
0083E:  CLRF   03
00840:  MOVF   x28,W
00842:  ADDLW  62
00844:  MOVWF  FE9
00846:  MOVLW  02
00848:  ADDWFC 03,W
0084A:  MOVWF  FEA
0084C:  MOVLW  03
0084E:  MOVWF  FEF
....................       Exh[i]=read_eeprom(103+(i*4)); 
00850:  CLRF   03
00852:  MOVF   x28,W
00854:  ADDLW  67
00856:  MOVWF  FE9
00858:  MOVLW  02
0085A:  ADDWFC 03,W
0085C:  MOVWF  FEA
0085E:  MOVF   x28,W
00860:  MULLW  04
00862:  MOVF   FF3,W
00864:  ADDLW  67
00866:  MOVWF  x6E
00868:  MOVFF  FF2,26F
0086C:  BCF    FF2.7
0086E:  CLRF   FAA
00870:  MOVFF  26E,FA9
00874:  BCF    FA6.6
00876:  BCF    FA6.7
00878:  BSF    FA6.0
0087A:  MOVF   FA8,W
0087C:  BTFSC  x6F.7
0087E:  BSF    FF2.7
00880:  MOVWF  FEF
....................       delay_ms(10); 
00882:  MOVLW  0A
00884:  MOVWF  x7F
00886:  MOVLB  0
00888:  RCALL  046E
....................       if(Exh[i]>4)Exh[i]=1; 
0088A:  CLRF   03
0088C:  MOVLB  2
0088E:  MOVF   x28,W
00890:  ADDLW  67
00892:  MOVWF  FE9
00894:  MOVLW  02
00896:  ADDWFC 03,W
00898:  MOVWF  FEA
0089A:  MOVF   FEF,W
0089C:  SUBLW  04
0089E:  BC    08B2
008A0:  CLRF   03
008A2:  MOVF   x28,W
008A4:  ADDLW  67
008A6:  MOVWF  FE9
008A8:  MOVLW  02
008AA:  ADDWFC 03,W
008AC:  MOVWF  FEA
008AE:  MOVLW  01
008B0:  MOVWF  FEF
....................    } 
008B2:  INCF   x28,F
008B4:  BRA    0722
.................... } 
008B6:  MOVLB  0
008B8:  GOTO   2B2E (RETURN)
....................  
.................... void LimitaValores(){ 
....................    if(Ganancia>20.0){ 
*
00936:  MOVLB  2
00938:  CLRF   x73
0093A:  CLRF   x72
0093C:  MOVLW  20
0093E:  MOVWF  x71
00940:  MOVLW  83
00942:  MOVWF  x70
00944:  MOVFF  1F9,277
00948:  MOVFF  1F8,276
0094C:  MOVFF  1F7,275
00950:  MOVFF  1F6,274
00954:  MOVLB  0
00956:  RCALL  08BC
00958:  BNC   099E
....................       Ganancia=10.0; 
0095A:  MOVLB  1
0095C:  CLRF   xF9
0095E:  CLRF   xF8
00960:  MOVLW  20
00962:  MOVWF  xF7
00964:  MOVLW  82
00966:  MOVWF  xF6
....................       write_eeprom(20,10); 
00968:  CLRF   FAA
0096A:  MOVLW  14
0096C:  MOVWF  FA9
0096E:  MOVLW  0A
00970:  MOVWF  FA8
00972:  BCF    FA6.6
00974:  BCF    FA6.7
00976:  BSF    FA6.2
00978:  MOVF   FF2,W
0097A:  MOVWF  00
0097C:  BCF    FF2.7
0097E:  MOVLB  F
00980:  MOVLW  55
00982:  MOVWF  FA7
00984:  MOVLW  AA
00986:  MOVWF  FA7
00988:  BSF    FA6.1
0098A:  BTFSC  FA6.1
0098C:  BRA    098A
0098E:  BCF    FA6.2
00990:  MOVF   00,W
00992:  IORWF  FF2,F
....................       delay_ms(10); 
00994:  MOVLW  0A
00996:  MOVLB  2
00998:  MOVWF  x7F
0099A:  MOVLB  0
0099C:  RCALL  046E
....................    } 
....................    if(Ajuste>10){ 
0099E:  MOVLB  1
009A0:  MOVF   xD2,W
009A2:  SUBLW  0A
009A4:  BC    09DE
....................       Ajuste=0; 
009A6:  CLRF   xD2
....................       write_eeprom(21,0); 
009A8:  CLRF   FAA
009AA:  MOVLW  15
009AC:  MOVWF  FA9
009AE:  CLRF   FA8
009B0:  BCF    FA6.6
009B2:  BCF    FA6.7
009B4:  BSF    FA6.2
009B6:  MOVF   FF2,W
009B8:  MOVWF  00
009BA:  BCF    FF2.7
009BC:  MOVLB  F
009BE:  MOVLW  55
009C0:  MOVWF  FA7
009C2:  MOVLW  AA
009C4:  MOVWF  FA7
009C6:  BSF    FA6.1
009C8:  BTFSC  FA6.1
009CA:  BRA    09C8
009CC:  BCF    FA6.2
009CE:  MOVF   00,W
009D0:  IORWF  FF2,F
....................       delay_ms(10); 
009D2:  MOVLW  0A
009D4:  MOVLB  2
009D6:  MOVWF  x7F
009D8:  MOVLB  0
009DA:  RCALL  046E
009DC:  MOVLB  1
....................    } 
....................    if(Ajusten>10){ 
009DE:  MOVF   xD3,W
009E0:  SUBLW  0A
009E2:  BC    0A1C
....................       Ajusten=0; 
009E4:  CLRF   xD3
....................       write_eeprom(22,0); 
009E6:  CLRF   FAA
009E8:  MOVLW  16
009EA:  MOVWF  FA9
009EC:  CLRF   FA8
009EE:  BCF    FA6.6
009F0:  BCF    FA6.7
009F2:  BSF    FA6.2
009F4:  MOVF   FF2,W
009F6:  MOVWF  00
009F8:  BCF    FF2.7
009FA:  MOVLB  F
009FC:  MOVLW  55
009FE:  MOVWF  FA7
00A00:  MOVLW  AA
00A02:  MOVWF  FA7
00A04:  BSF    FA6.1
00A06:  BTFSC  FA6.1
00A08:  BRA    0A06
00A0A:  BCF    FA6.2
00A0C:  MOVF   00,W
00A0E:  IORWF  FF2,F
....................       delay_ms(10); 
00A10:  MOVLW  0A
00A12:  MOVLB  2
00A14:  MOVWF  x7F
00A16:  MOVLB  0
00A18:  RCALL  046E
00A1A:  MOVLB  1
....................    } 
....................    if(MediaMovil>80){ 
00A1C:  MOVF   xD4,W
00A1E:  SUBLW  50
00A20:  BC    0A5C
....................       MediaMovil=80; 
00A22:  MOVLW  50
00A24:  MOVWF  xD4
....................       write_eeprom(24,80); 
00A26:  CLRF   FAA
00A28:  MOVLW  18
00A2A:  MOVWF  FA9
00A2C:  MOVLW  50
00A2E:  MOVWF  FA8
00A30:  BCF    FA6.6
00A32:  BCF    FA6.7
00A34:  BSF    FA6.2
00A36:  MOVF   FF2,W
00A38:  MOVWF  00
00A3A:  BCF    FF2.7
00A3C:  MOVLB  F
00A3E:  MOVLW  55
00A40:  MOVWF  FA7
00A42:  MOVLW  AA
00A44:  MOVWF  FA7
00A46:  BSF    FA6.1
00A48:  BTFSC  FA6.1
00A4A:  BRA    0A48
00A4C:  BCF    FA6.2
00A4E:  MOVF   00,W
00A50:  IORWF  FF2,F
....................       delay_ms(10); 
00A52:  MOVLW  0A
00A54:  MOVLB  2
00A56:  MOVWF  x7F
00A58:  MOVLB  0
00A5A:  RCALL  046E
....................    } 
....................    if(Integral>10.0){ 
00A5C:  MOVLB  2
00A5E:  CLRF   x73
00A60:  MOVFF  21E,272
00A64:  MOVLB  0
00A66:  RCALL  056A
00A68:  MOVLB  2
00A6A:  CLRF   x73
00A6C:  CLRF   x72
00A6E:  MOVLW  20
00A70:  MOVWF  x71
00A72:  MOVLW  82
00A74:  MOVWF  x70
00A76:  MOVFF  03,277
00A7A:  MOVFF  02,276
00A7E:  MOVFF  01,275
00A82:  MOVFF  00,274
00A86:  MOVLB  0
00A88:  RCALL  08BC
00A8A:  BNC   0AC8
....................       Integral=1.0; 
00A8C:  MOVLW  01
00A8E:  MOVLB  2
00A90:  MOVWF  x1E
....................       write_eeprom(26,1); 
00A92:  CLRF   FAA
00A94:  MOVLW  1A
00A96:  MOVWF  FA9
00A98:  MOVLW  01
00A9A:  MOVWF  FA8
00A9C:  BCF    FA6.6
00A9E:  BCF    FA6.7
00AA0:  BSF    FA6.2
00AA2:  MOVF   FF2,W
00AA4:  MOVWF  00
00AA6:  BCF    FF2.7
00AA8:  MOVLB  F
00AAA:  MOVLW  55
00AAC:  MOVWF  FA7
00AAE:  MOVLW  AA
00AB0:  MOVWF  FA7
00AB2:  BSF    FA6.1
00AB4:  BTFSC  FA6.1
00AB6:  BRA    0AB4
00AB8:  BCF    FA6.2
00ABA:  MOVF   00,W
00ABC:  IORWF  FF2,F
....................       delay_ms(10); 
00ABE:  MOVLW  0A
00AC0:  MOVLB  2
00AC2:  MOVWF  x7F
00AC4:  MOVLB  0
00AC6:  RCALL  046E
....................    } 
....................    if(Derivativo>90.0){ 
00AC8:  MOVLB  2
00ACA:  CLRF   x73
00ACC:  MOVFF  21F,272
00AD0:  MOVLB  0
00AD2:  RCALL  056A
00AD4:  MOVLB  2
00AD6:  CLRF   x73
00AD8:  CLRF   x72
00ADA:  MOVLW  34
00ADC:  MOVWF  x71
00ADE:  MOVLW  85
00AE0:  MOVWF  x70
00AE2:  MOVFF  03,277
00AE6:  MOVFF  02,276
00AEA:  MOVFF  01,275
00AEE:  MOVFF  00,274
00AF2:  MOVLB  0
00AF4:  RCALL  08BC
00AF6:  BNC   0B34
....................       Derivativo=20.0; 
00AF8:  MOVLW  14
00AFA:  MOVLB  2
00AFC:  MOVWF  x1F
....................       write_eeprom(27,20); 
00AFE:  CLRF   FAA
00B00:  MOVLW  1B
00B02:  MOVWF  FA9
00B04:  MOVLW  14
00B06:  MOVWF  FA8
00B08:  BCF    FA6.6
00B0A:  BCF    FA6.7
00B0C:  BSF    FA6.2
00B0E:  MOVF   FF2,W
00B10:  MOVWF  00
00B12:  BCF    FF2.7
00B14:  MOVLB  F
00B16:  MOVLW  55
00B18:  MOVWF  FA7
00B1A:  MOVLW  AA
00B1C:  MOVWF  FA7
00B1E:  BSF    FA6.1
00B20:  BTFSC  FA6.1
00B22:  BRA    0B20
00B24:  BCF    FA6.2
00B26:  MOVF   00,W
00B28:  IORWF  FF2,F
....................       delay_ms(10); 
00B2A:  MOVLW  0A
00B2C:  MOVLB  2
00B2E:  MOVWF  x7F
00B30:  MOVLB  0
00B32:  RCALL  046E
....................    } 
....................    if(Ciclos>60000){ 
00B34:  MOVLB  2
00B36:  MOVF   x3B,W
00B38:  SUBLW  E9
00B3A:  BC    0BB2
00B3C:  XORLW  FF
00B3E:  BNZ   0B46
00B40:  MOVF   x3A,W
00B42:  SUBLW  60
00B44:  BC    0BB2
....................       Ciclos=0; 
00B46:  CLRF   x3B
00B48:  CLRF   x3A
....................       write_eeprom(37,0); 
00B4A:  CLRF   FAA
00B4C:  MOVLW  25
00B4E:  MOVWF  FA9
00B50:  CLRF   FA8
00B52:  BCF    FA6.6
00B54:  BCF    FA6.7
00B56:  BSF    FA6.2
00B58:  MOVF   FF2,W
00B5A:  MOVWF  00
00B5C:  BCF    FF2.7
00B5E:  MOVLB  F
00B60:  MOVLW  55
00B62:  MOVWF  FA7
00B64:  MOVLW  AA
00B66:  MOVWF  FA7
00B68:  BSF    FA6.1
00B6A:  BTFSC  FA6.1
00B6C:  BRA    0B6A
00B6E:  BCF    FA6.2
00B70:  MOVF   00,W
00B72:  IORWF  FF2,F
....................       delay_ms(10); 
00B74:  MOVLW  0A
00B76:  MOVLB  2
00B78:  MOVWF  x7F
00B7A:  MOVLB  0
00B7C:  RCALL  046E
....................       write_eeprom(38,0); 
00B7E:  CLRF   FAA
00B80:  MOVLW  26
00B82:  MOVWF  FA9
00B84:  CLRF   FA8
00B86:  BCF    FA6.6
00B88:  BCF    FA6.7
00B8A:  BSF    FA6.2
00B8C:  MOVF   FF2,W
00B8E:  MOVWF  00
00B90:  BCF    FF2.7
00B92:  MOVLB  F
00B94:  MOVLW  55
00B96:  MOVWF  FA7
00B98:  MOVLW  AA
00B9A:  MOVWF  FA7
00B9C:  BSF    FA6.1
00B9E:  BTFSC  FA6.1
00BA0:  BRA    0B9E
00BA2:  BCF    FA6.2
00BA4:  MOVF   00,W
00BA6:  IORWF  FF2,F
....................       delay_ms(10); 
00BA8:  MOVLW  0A
00BAA:  MOVLB  2
00BAC:  MOVWF  x7F
00BAE:  MOVLB  0
00BB0:  RCALL  046E
....................    } 
....................    if(TTrampa>100){ 
00BB2:  MOVLB  1
00BB4:  MOVF   xD5,W
00BB6:  SUBLW  64
00BB8:  BC    0BF6
....................       TTrampa=80; 
00BBA:  MOVLW  50
00BBC:  MOVWF  xD5
....................       write_eeprom(39,80); 
00BBE:  CLRF   FAA
00BC0:  MOVLW  27
00BC2:  MOVWF  FA9
00BC4:  MOVLW  50
00BC6:  MOVWF  FA8
00BC8:  BCF    FA6.6
00BCA:  BCF    FA6.7
00BCC:  BSF    FA6.2
00BCE:  MOVF   FF2,W
00BD0:  MOVWF  00
00BD2:  BCF    FF2.7
00BD4:  MOVLB  F
00BD6:  MOVLW  55
00BD8:  MOVWF  FA7
00BDA:  MOVLW  AA
00BDC:  MOVWF  FA7
00BDE:  BSF    FA6.1
00BE0:  BTFSC  FA6.1
00BE2:  BRA    0BE0
00BE4:  BCF    FA6.2
00BE6:  MOVF   00,W
00BE8:  IORWF  FF2,F
....................       delay_ms(10); 
00BEA:  MOVLW  0A
00BEC:  MOVLB  2
00BEE:  MOVWF  x7F
00BF0:  MOVLB  0
00BF2:  RCALL  046E
00BF4:  MOVLB  1
....................    } 
.................... } 
00BF6:  MOVLB  0
00BF8:  GOTO   2B3E (RETURN)
....................  
.................... void leerTeclado(){ 
....................    output_bit(PIN_B4,0); 
*
001D0:  BCF    F8A.4
001D2:  BCF    F93.4
....................    output_bit(PIN_B5,1); 
001D4:  BSF    F8A.5
001D6:  BCF    F93.5
....................    delay_us(50); 
001D8:  MOVLW  53
001DA:  MOVWF  00
001DC:  DECFSZ 00,F
001DE:  BRA    01DC
....................    if(!input(PIN_B0)){ 
001E0:  BSF    F93.0
001E2:  BTFSC  F81.0
001E4:  BRA    01EA
....................       PARAMETERS=ON; 
001E6:  BSF    1A.1
....................    }else{ 
001E8:  BRA    01EC
....................       PARAMETERS=OFF; 
001EA:  BCF    1A.1
....................    } 
....................     
....................    if(!input(PIN_B1)){ 
001EC:  BSF    F93.1
001EE:  BTFSC  F81.1
001F0:  BRA    01F6
....................       UP=ON; 
001F2:  BSF    1A.4
....................    }else{ 
001F4:  BRA    01F8
....................       UP=OFF; 
001F6:  BCF    1A.4
....................    } 
....................     
....................    output_bit(PIN_B5,0); 
001F8:  BCF    F8A.5
001FA:  BCF    F93.5
....................    output_bit(PIN_B4,1); 
001FC:  BSF    F8A.4
001FE:  BCF    F93.4
....................    delay_us(50); 
00200:  MOVLW  53
00202:  MOVWF  00
00204:  DECFSZ 00,F
00206:  BRA    0204
....................    if(!input(PIN_B0)){ 
00208:  BSF    F93.0
0020A:  BTFSC  F81.0
0020C:  BRA    0212
....................       CYCLE=ON; 
0020E:  BSF    1A.3
....................    }else{ 
00210:  BRA    0214
....................       CYCLE=OFF; 
00212:  BCF    1A.3
....................    } 
....................     
....................    if(!input(PIN_B1)){ 
00214:  BSF    F93.1
00216:  BTFSC  F81.1
00218:  BRA    021E
....................       PROGRAM=ON; 
0021A:  BSF    1A.2
....................    }else{ 
0021C:  BRA    0220
....................       PROGRAM=OFF; 
0021E:  BCF    1A.2
....................    } 
.................... } 
00220:  GOTO   0244 (RETURN)
....................  
.................... void resetParams(){ 
....................    write_eeprom(20,10); 
*
01606:  CLRF   FAA
01608:  MOVLW  14
0160A:  MOVWF  FA9
0160C:  MOVLW  0A
0160E:  MOVWF  FA8
01610:  BCF    FA6.6
01612:  BCF    FA6.7
01614:  BSF    FA6.2
01616:  MOVF   FF2,W
01618:  MOVWF  00
0161A:  BCF    FF2.7
0161C:  MOVLB  F
0161E:  MOVLW  55
01620:  MOVWF  FA7
01622:  MOVLW  AA
01624:  MOVWF  FA7
01626:  BSF    FA6.1
01628:  BTFSC  FA6.1
0162A:  BRA    1628
0162C:  BCF    FA6.2
0162E:  MOVF   00,W
01630:  IORWF  FF2,F
....................    delay_ms(10); 
01632:  MOVLW  0A
01634:  MOVLB  2
01636:  MOVWF  x7F
01638:  MOVLB  0
0163A:  CALL   046E
....................    write_eeprom(21,0); 
0163E:  CLRF   FAA
01640:  MOVLW  15
01642:  MOVWF  FA9
01644:  CLRF   FA8
01646:  BCF    FA6.6
01648:  BCF    FA6.7
0164A:  BSF    FA6.2
0164C:  MOVF   FF2,W
0164E:  MOVWF  00
01650:  BCF    FF2.7
01652:  MOVLB  F
01654:  MOVLW  55
01656:  MOVWF  FA7
01658:  MOVLW  AA
0165A:  MOVWF  FA7
0165C:  BSF    FA6.1
0165E:  BTFSC  FA6.1
01660:  BRA    165E
01662:  BCF    FA6.2
01664:  MOVF   00,W
01666:  IORWF  FF2,F
....................    delay_ms(10); 
01668:  MOVLW  0A
0166A:  MOVLB  2
0166C:  MOVWF  x7F
0166E:  MOVLB  0
01670:  CALL   046E
....................    write_eeprom(22,0); 
01674:  CLRF   FAA
01676:  MOVLW  16
01678:  MOVWF  FA9
0167A:  CLRF   FA8
0167C:  BCF    FA6.6
0167E:  BCF    FA6.7
01680:  BSF    FA6.2
01682:  MOVF   FF2,W
01684:  MOVWF  00
01686:  BCF    FF2.7
01688:  MOVLB  F
0168A:  MOVLW  55
0168C:  MOVWF  FA7
0168E:  MOVLW  AA
01690:  MOVWF  FA7
01692:  BSF    FA6.1
01694:  BTFSC  FA6.1
01696:  BRA    1694
01698:  BCF    FA6.2
0169A:  MOVF   00,W
0169C:  IORWF  FF2,F
....................    delay_ms(10); 
0169E:  MOVLW  0A
016A0:  MOVLB  2
016A2:  MOVWF  x7F
016A4:  MOVLB  0
016A6:  CALL   046E
....................    write_eeprom(26,1);             
016AA:  CLRF   FAA
016AC:  MOVLW  1A
016AE:  MOVWF  FA9
016B0:  MOVLW  01
016B2:  MOVWF  FA8
016B4:  BCF    FA6.6
016B6:  BCF    FA6.7
016B8:  BSF    FA6.2
016BA:  MOVF   FF2,W
016BC:  MOVWF  00
016BE:  BCF    FF2.7
016C0:  MOVLB  F
016C2:  MOVLW  55
016C4:  MOVWF  FA7
016C6:  MOVLW  AA
016C8:  MOVWF  FA7
016CA:  BSF    FA6.1
016CC:  BTFSC  FA6.1
016CE:  BRA    16CC
016D0:  BCF    FA6.2
016D2:  MOVF   00,W
016D4:  IORWF  FF2,F
....................    delay_ms(10); 
016D6:  MOVLW  0A
016D8:  MOVLB  2
016DA:  MOVWF  x7F
016DC:  MOVLB  0
016DE:  CALL   046E
....................    write_eeprom(27,20); 
016E2:  CLRF   FAA
016E4:  MOVLW  1B
016E6:  MOVWF  FA9
016E8:  MOVLW  14
016EA:  MOVWF  FA8
016EC:  BCF    FA6.6
016EE:  BCF    FA6.7
016F0:  BSF    FA6.2
016F2:  MOVF   FF2,W
016F4:  MOVWF  00
016F6:  BCF    FF2.7
016F8:  MOVLB  F
016FA:  MOVLW  55
016FC:  MOVWF  FA7
016FE:  MOVLW  AA
01700:  MOVWF  FA7
01702:  BSF    FA6.1
01704:  BTFSC  FA6.1
01706:  BRA    1704
01708:  BCF    FA6.2
0170A:  MOVF   00,W
0170C:  IORWF  FF2,F
....................    delay_ms(10); 
0170E:  MOVLW  0A
01710:  MOVLB  2
01712:  MOVWF  x7F
01714:  MOVLB  0
01716:  CALL   046E
....................    write_eeprom(39,75); 
0171A:  CLRF   FAA
0171C:  MOVLW  27
0171E:  MOVWF  FA9
01720:  MOVLW  4B
01722:  MOVWF  FA8
01724:  BCF    FA6.6
01726:  BCF    FA6.7
01728:  BSF    FA6.2
0172A:  MOVF   FF2,W
0172C:  MOVWF  00
0172E:  BCF    FF2.7
01730:  MOVLB  F
01732:  MOVLW  55
01734:  MOVWF  FA7
01736:  MOVLW  AA
01738:  MOVWF  FA7
0173A:  BSF    FA6.1
0173C:  BTFSC  FA6.1
0173E:  BRA    173C
01740:  BCF    FA6.2
01742:  MOVF   00,W
01744:  IORWF  FF2,F
....................    delay_ms(10);  
01746:  MOVLW  0A
01748:  MOVLB  2
0174A:  MOVWF  x7F
0174C:  MOVLB  0
0174E:  CALL   046E
....................    write_eeprom(37,0); 
01752:  CLRF   FAA
01754:  MOVLW  25
01756:  MOVWF  FA9
01758:  CLRF   FA8
0175A:  BCF    FA6.6
0175C:  BCF    FA6.7
0175E:  BSF    FA6.2
01760:  MOVF   FF2,W
01762:  MOVWF  00
01764:  BCF    FF2.7
01766:  MOVLB  F
01768:  MOVLW  55
0176A:  MOVWF  FA7
0176C:  MOVLW  AA
0176E:  MOVWF  FA7
01770:  BSF    FA6.1
01772:  BTFSC  FA6.1
01774:  BRA    1772
01776:  BCF    FA6.2
01778:  MOVF   00,W
0177A:  IORWF  FF2,F
....................    delay_ms(10); 
0177C:  MOVLW  0A
0177E:  MOVLB  2
01780:  MOVWF  x7F
01782:  MOVLB  0
01784:  CALL   046E
....................    write_eeprom(38,0); 
01788:  CLRF   FAA
0178A:  MOVLW  26
0178C:  MOVWF  FA9
0178E:  CLRF   FA8
01790:  BCF    FA6.6
01792:  BCF    FA6.7
01794:  BSF    FA6.2
01796:  MOVF   FF2,W
01798:  MOVWF  00
0179A:  BCF    FF2.7
0179C:  MOVLB  F
0179E:  MOVLW  55
017A0:  MOVWF  FA7
017A2:  MOVLW  AA
017A4:  MOVWF  FA7
017A6:  BSF    FA6.1
017A8:  BTFSC  FA6.1
017AA:  BRA    17A8
017AC:  BCF    FA6.2
017AE:  MOVF   00,W
017B0:  IORWF  FF2,F
....................    delay_ms(10); 
017B2:  MOVLW  0A
017B4:  MOVLB  2
017B6:  MOVWF  x7F
017B8:  MOVLB  0
017BA:  CALL   046E
....................    for(i=0;i<5;i++){       
017BE:  MOVLB  2
017C0:  CLRF   x28
017C2:  MOVF   x28,W
017C4:  SUBLW  04
017C6:  BTFSS  FD8.0
017C8:  BRA    1926
....................       write_eeprom(100+(i*4),DSet[i]); 
017CA:  MOVF   x28,W
017CC:  MULLW  04
017CE:  MOVF   FF3,W
017D0:  ADDLW  64
017D2:  MOVWF  x6C
017D4:  CLRF   03
017D6:  MOVF   x28,W
017D8:  ADDLW  44
017DA:  MOVWF  FE9
017DC:  MOVLW  02
017DE:  ADDWFC 03,W
017E0:  MOVWF  FEA
017E2:  MOVFF  FEF,26D
017E6:  CLRF   FAA
017E8:  MOVFF  26C,FA9
017EC:  MOVFF  26D,FA8
017F0:  BCF    FA6.6
017F2:  BCF    FA6.7
017F4:  BSF    FA6.2
017F6:  MOVF   FF2,W
017F8:  MOVWF  00
017FA:  BCF    FF2.7
017FC:  MOVLB  F
017FE:  MOVLW  55
01800:  MOVWF  FA7
01802:  MOVLW  AA
01804:  MOVWF  FA7
01806:  BSF    FA6.1
01808:  BTFSC  FA6.1
0180A:  BRA    1808
0180C:  BCF    FA6.2
0180E:  MOVF   00,W
01810:  IORWF  FF2,F
....................       delay_ms(10); 
01812:  MOVLW  0A
01814:  MOVLB  2
01816:  MOVWF  x7F
01818:  MOVLB  0
0181A:  CALL   046E
....................       write_eeprom(101+(i*4),DTime[i]); 
0181E:  MOVLB  2
01820:  MOVF   x28,W
01822:  MULLW  04
01824:  MOVF   FF3,W
01826:  ADDLW  65
01828:  MOVWF  x6C
0182A:  CLRF   03
0182C:  MOVF   x28,W
0182E:  ADDLW  49
01830:  MOVWF  FE9
01832:  MOVLW  02
01834:  ADDWFC 03,W
01836:  MOVWF  FEA
01838:  MOVFF  FEF,26D
0183C:  CLRF   FAA
0183E:  MOVFF  26C,FA9
01842:  MOVFF  26D,FA8
01846:  BCF    FA6.6
01848:  BCF    FA6.7
0184A:  BSF    FA6.2
0184C:  MOVF   FF2,W
0184E:  MOVWF  00
01850:  BCF    FF2.7
01852:  MOVLB  F
01854:  MOVLW  55
01856:  MOVWF  FA7
01858:  MOVLW  AA
0185A:  MOVWF  FA7
0185C:  BSF    FA6.1
0185E:  BTFSC  FA6.1
01860:  BRA    185E
01862:  BCF    FA6.2
01864:  MOVF   00,W
01866:  IORWF  FF2,F
....................       delay_ms(10); 
01868:  MOVLW  0A
0186A:  MOVLB  2
0186C:  MOVWF  x7F
0186E:  MOVLB  0
01870:  CALL   046E
....................       write_eeprom(102+(i*4),DTimeS[i]); 
01874:  MOVLB  2
01876:  MOVF   x28,W
01878:  MULLW  04
0187A:  MOVF   FF3,W
0187C:  ADDLW  66
0187E:  MOVWF  x6C
01880:  CLRF   03
01882:  MOVF   x28,W
01884:  ADDLW  4E
01886:  MOVWF  FE9
01888:  MOVLW  02
0188A:  ADDWFC 03,W
0188C:  MOVWF  FEA
0188E:  MOVFF  FEF,26D
01892:  CLRF   FAA
01894:  MOVFF  26C,FA9
01898:  MOVFF  26D,FA8
0189C:  BCF    FA6.6
0189E:  BCF    FA6.7
018A0:  BSF    FA6.2
018A2:  MOVF   FF2,W
018A4:  MOVWF  00
018A6:  BCF    FF2.7
018A8:  MOVLB  F
018AA:  MOVLW  55
018AC:  MOVWF  FA7
018AE:  MOVLW  AA
018B0:  MOVWF  FA7
018B2:  BSF    FA6.1
018B4:  BTFSC  FA6.1
018B6:  BRA    18B4
018B8:  BCF    FA6.2
018BA:  MOVF   00,W
018BC:  IORWF  FF2,F
....................       delay_ms(10); 
018BE:  MOVLW  0A
018C0:  MOVLB  2
018C2:  MOVWF  x7F
018C4:  MOVLB  0
018C6:  CALL   046E
....................       write_eeprom(103+(i*4),DExh[i]); 
018CA:  MOVLB  2
018CC:  MOVF   x28,W
018CE:  MULLW  04
018D0:  MOVF   FF3,W
018D2:  ADDLW  67
018D4:  MOVWF  x6C
018D6:  CLRF   03
018D8:  MOVF   x28,W
018DA:  ADDLW  53
018DC:  MOVWF  FE9
018DE:  MOVLW  02
018E0:  ADDWFC 03,W
018E2:  MOVWF  FEA
018E4:  MOVFF  FEF,26D
018E8:  CLRF   FAA
018EA:  MOVFF  26C,FA9
018EE:  MOVFF  26D,FA8
018F2:  BCF    FA6.6
018F4:  BCF    FA6.7
018F6:  BSF    FA6.2
018F8:  MOVF   FF2,W
018FA:  MOVWF  00
018FC:  BCF    FF2.7
018FE:  MOVLB  F
01900:  MOVLW  55
01902:  MOVWF  FA7
01904:  MOVLW  AA
01906:  MOVWF  FA7
01908:  BSF    FA6.1
0190A:  BTFSC  FA6.1
0190C:  BRA    190A
0190E:  BCF    FA6.2
01910:  MOVF   00,W
01912:  IORWF  FF2,F
....................       delay_ms(10); 
01914:  MOVLW  0A
01916:  MOVLB  2
01918:  MOVWF  x7F
0191A:  MOVLB  0
0191C:  CALL   046E
....................    } 
01920:  MOVLB  2
01922:  INCF   x28,F
01924:  BRA    17C2
....................    Buzzer_on; 
01926:  BSF    F8B.4
01928:  BCF    F94.4
....................    delay_ms(1000); 
0192A:  MOVLW  04
0192C:  MOVWF  x6C
0192E:  MOVLW  FA
01930:  MOVWF  x7F
01932:  MOVLB  0
01934:  CALL   046E
01938:  MOVLB  2
0193A:  DECFSZ x6C,F
0193C:  BRA    192E
....................    reset_cpu(); 
0193E:  RESET
.................... } 
01940:  MOVLB  0
01942:  GOTO   2BF8 (RETURN)
....................  
....................  
.................... #int_TIMER0 
.................... void temp0s(void){ 
....................    set_timer0(0); 
*
0017C:  CLRF   FD7
0017E:  CLRF   FD6
....................    t_exhaust++; 
00180:  MOVLB  2
00182:  INCF   x42,F
00184:  BTFSC  FD8.2
00186:  INCF   x43,F
....................    if(DesfogueSuave){ 
00188:  BTFSS  19.7
0018A:  BRA    01C8
....................       if(Nivel<6){ 
0018C:  MOVF   x35,F
0018E:  BNZ   01C4
00190:  MOVF   x34,W
00192:  SUBLW  05
00194:  BNC   01C4
....................          if(t_exhaust<=NivelSeleccionado) // Si el tiempo es menor o igual al tiempo de control se enciende la resistencia de lo contrario se apaga. 
00196:  MOVF   x43,W
00198:  SUBWF  x3D,W
0019A:  BNC   01AA
0019C:  BNZ   01A4
0019E:  MOVF   x42,W
001A0:  SUBWF  x3C,W
001A2:  BNC   01AA
....................             Desfogue_on; 
001A4:  BSF    F8B.0
001A6:  BCF    F94.0
....................          else 
001A8:  BRA    01AE
....................             Desfogue_off; 
001AA:  BCF    F8B.0
001AC:  BCF    F94.0
....................        
....................          if(t_exhaust>=60000) // Si el tiempo de control es mayor al tiempo de ciclo se reinicia tiempo de control 
001AE:  MOVF   x43,W
001B0:  SUBLW  E9
001B2:  BC    01C2
001B4:  XORLW  FF
001B6:  BNZ   01BE
001B8:  MOVF   x42,W
001BA:  SUBLW  5F
001BC:  BC    01C2
....................             t_exhaust=0; 
001BE:  CLRF   x43
001C0:  CLRF   x42
....................           // tiempoctrl incrementa una unidad cada Xms, por eso se dividen los tiempos por 0.005. 
....................       }else{ 
001C2:  BRA    01C8
....................          Desfogue_on; 
001C4:  BSF    F8B.0
001C6:  BCF    F94.0
....................       } 
....................    }   
.................... } 
....................  
001C8:  BCF    FF2.2
001CA:  MOVLB  0
001CC:  GOTO   0064
.................... #int_TIMER1 
.................... void temp1s(void){ 
....................     
....................    set_timer1(40536); // Se repite cada 5ms 
*
00224:  MOVLW  9E
00226:  MOVWF  FCF
00228:  MOVLW  58
0022A:  MOVWF  FCE
....................    tiempos++; 
0022C:  MOVLB  2
0022E:  INCF   x2E,F
00230:  BTFSC  FD8.2
00232:  INCF   x2F,F
....................    tiempos3++; 
00234:  INCF   x30,F
00236:  BTFSC  FD8.2
00238:  INCF   x31,F
....................    tiempoctrl++; 
0023A:  INCF   x32,F
0023C:  BTFSC  FD8.2
0023E:  INCF   x33,F
....................     
....................    leerTeclado(); 
00240:  MOVLB  0
00242:  BRA    01D0
....................     
....................    if(Controlando==1){ 
00244:  MOVLB  2
00246:  DECFSZ x25,W
00248:  BRA    0274
....................       if(tiempoctrl<Tp) // Si el tiempo es menor o igual al tiempo de control se enciende la resistencia de lo contrario se apaga. 
0024A:  MOVF   x33,W
0024C:  SUBWF  23,W
0024E:  BNC   025E
00250:  BNZ   0258
00252:  MOVF   22,W
00254:  SUBWF  x32,W
00256:  BC    025E
....................          SSR_on; 
00258:  BSF    F8D.2
0025A:  BCF    F96.2
....................       else          
0025C:  BRA    0262
....................          SSR_off; 
0025E:  BCF    F8D.2
00260:  BCF    F96.2
....................              
....................       if(tiempoctrl>=Tc) // Si el tiempo de control es mayor al tiempo de ciclo se reinicia tiempo de control 
00262:  MOVF   25,W
00264:  SUBWF  x33,W
00266:  BNC   0274
00268:  BNZ   0270
0026A:  MOVF   24,W
0026C:  SUBWF  x32,W
0026E:  BNC   0274
....................          tiempoctrl=0;// tiempoctrl incrementa una unidad cada 5ms, por eso se dividen los tiempos por 0.005. 
00270:  CLRF   x33
00272:  CLRF   x32
....................    } 
....................     
....................    if(tiempos>=200){  // 12000 para que incremente cada minuto, 200para que incremente cada segundo. 
00274:  MOVF   x2F,F
00276:  BNZ   027E
00278:  MOVF   x2E,W
0027A:  SUBLW  C7
0027C:  BC    02F6
....................       if(flagTC) 
0027E:  BTFSS  1B.5
00280:  BRA    0284
....................          TiempoControl++; 
00282:  INCF   x40,F
....................        
....................       tiemporecta++; 
00284:  INCF   x24,F
....................       if(IniciaCiclo && !Esterilizando){ 
00286:  BTFSS  19.2
00288:  BRA    0294
0028A:  BTFSC  19.3
0028C:  BRA    0294
....................          TiempoCiclo++; 
0028E:  INCF   1C,F
00290:  BTFSC  FD8.2
00292:  INCF   1D,F
....................       } 
....................        
....................       if(flagStart) 
00294:  BTFSS  1B.6
00296:  BRA    029A
....................          tStart++; 
00298:  INCF   x26,F
....................        
....................       if(IniciaLlenado && !CalderinLleno){ 
0029A:  BTFSS  19.0
0029C:  BRA    02A8
0029E:  BTFSC  19.1
002A0:  BRA    02A8
....................          TiempoLlenado++; 
002A2:  INCF   1E,F
002A4:  BTFSC  FD8.2
002A6:  INCF   1F,F
....................       } 
....................        
....................       if(SensadoNivel){ 
002A8:  BTFSS  19.5
002AA:  BRA    02B2
....................          TiempoSensadoNivel++; 
002AC:  INCF   20,F
002AE:  BTFSC  FD8.2
002B0:  INCF   21,F
....................       } 
....................        
....................       tiempos=0;Lectura=1;tinicio++; 
002B2:  CLRF   x2F
002B4:  CLRF   x2E
002B6:  BSF    1B.4
002B8:  INCF   x36,F
002BA:  BTFSC  FD8.2
002BC:  INCF   x37,F
....................     
....................       if(Esterilizando && !Desfogando){                
002BE:  BTFSS  19.3
002C0:  BRA    02DC
002C2:  BTFSC  19.6
002C4:  BRA    02DC
....................          if(sEst>0){ 
002C6:  MOVLB  1
002C8:  MOVF   xC7,F
002CA:  BZ    02D0
....................             sEst--; 
002CC:  DECF   xC7,F
....................          }else{ 
002CE:  BRA    02DA
....................             if(mEst>0){ 
002D0:  MOVF   xC8,F
002D2:  BZ    02DA
....................                mEst--; 
002D4:  DECF   xC8,F
....................                sEst=59; 
002D6:  MOVLW  3B
002D8:  MOVWF  xC7
002DA:  MOVLB  2
....................             } 
....................          } 
....................       }        
....................        
....................       if(Secando){                
002DC:  BTFSS  19.4
002DE:  BRA    02F6
....................          if(sSec>0){ 
002E0:  MOVLB  1
002E2:  MOVF   xCB,F
002E4:  BZ    02EA
....................             sSec--; 
002E6:  DECF   xCB,F
....................          }else{ 
002E8:  BRA    02F4
....................             if(mSec>0){ 
002EA:  MOVF   xCC,F
002EC:  BZ    02F4
....................                mSec--; 
002EE:  DECF   xCC,F
....................                sSec=59; 
002F0:  MOVLW  3B
002F2:  MOVWF  xCB
002F4:  MOVLB  2
....................             } 
....................          }     
....................       } 
....................    } 
.................... } 
....................  
....................  
002F6:  BCF    F9E.0
002F8:  MOVLB  0
002FA:  GOTO   0064
.................... void main(){ 
*
0258E:  CLRF   FF8
02590:  BCF    FD0.7
02592:  BSF    07.7
02594:  CLRF   FEA
02596:  CLRF   FE9
02598:  BCF    18.0
0259A:  BCF    18.1
0259C:  BCF    18.2
0259E:  BCF    18.3
025A0:  BCF    18.4
025A2:  BCF    18.5
025A4:  BCF    18.6
025A6:  BCF    18.7
025A8:  BCF    19.0
025AA:  BCF    19.1
025AC:  BCF    19.2
025AE:  BCF    19.3
025B0:  BCF    19.4
025B2:  BCF    19.5
025B4:  BCF    19.6
025B6:  BCF    19.7
025B8:  BCF    1A.0
025BA:  BCF    1A.1
025BC:  BCF    1A.2
025BE:  BCF    1A.3
025C0:  BCF    1A.4
025C2:  BCF    1A.5
025C4:  BCF    1A.6
025C6:  BCF    1A.7
025C8:  BCF    1B.0
025CA:  BCF    1B.1
025CC:  BCF    1B.2
025CE:  CLRF   1D
025D0:  CLRF   1C
025D2:  CLRF   1F
025D4:  CLRF   1E
025D6:  CLRF   21
025D8:  CLRF   20
025DA:  CLRF   23
025DC:  CLRF   22
025DE:  CLRF   25
025E0:  CLRF   24
025E2:  MOVLB  1
025E4:  CLRF   xC1
025E6:  CLRF   xC0
025E8:  CLRF   xBF
025EA:  CLRF   xBE
025EC:  CLRF   xC5
025EE:  CLRF   xC4
025F0:  CLRF   xC3
025F2:  CLRF   xC2
025F4:  MOVLW  01
025F6:  MOVWF  xC6
025F8:  CLRF   xC7
025FA:  CLRF   xC8
025FC:  CLRF   xC9
025FE:  CLRF   xCA
02600:  CLRF   xCB
02602:  CLRF   xCC
02604:  CLRF   xCD
02606:  CLRF   xCE
02608:  MOVWF  xCF
0260A:  CLRF   xD0
0260C:  CLRF   xD1
0260E:  CLRF   xD2
02610:  CLRF   xD3
02612:  MOVLW  14
02614:  MOVWF  xD4
02616:  MOVLW  55
02618:  MOVWF  xD5
0261A:  CLRF   xD9
0261C:  CLRF   xD8
0261E:  CLRF   xD7
02620:  CLRF   xD6
02622:  CLRF   xE1
02624:  CLRF   xE0
02626:  MOVLW  20
02628:  MOVWF  xDF
0262A:  MOVLW  82
0262C:  MOVWF  xDE
0262E:  CLRF   xE5
02630:  CLRF   xE4
02632:  CLRF   xE3
02634:  CLRF   xE2
02636:  CLRF   xE9
02638:  CLRF   xE8
0263A:  CLRF   xE7
0263C:  CLRF   xE6
0263E:  CLRF   xED
02640:  CLRF   xEC
02642:  CLRF   xEB
02644:  CLRF   xEA
02646:  CLRF   xF1
02648:  CLRF   xF0
0264A:  CLRF   xEF
0264C:  CLRF   xEE
0264E:  CLRF   xF5
02650:  CLRF   xF4
02652:  CLRF   xF3
02654:  CLRF   xF2
02656:  CLRF   xF9
02658:  CLRF   xF8
0265A:  MOVLW  48
0265C:  MOVWF  xF7
0265E:  MOVLW  83
02660:  MOVWF  xF6
02662:  CLRF   xFD
02664:  CLRF   xFC
02666:  MOVLW  20
02668:  MOVWF  xFB
0266A:  MOVLW  83
0266C:  MOVWF  xFA
0266E:  MOVLB  2
02670:  CLRF   x01
02672:  CLRF   x00
02674:  MOVLB  1
02676:  CLRF   xFF
02678:  MOVLW  80
0267A:  MOVWF  xFE
0267C:  MOVLB  2
0267E:  CLRF   x05
02680:  CLRF   x04
02682:  CLRF   x03
02684:  CLRF   x02
02686:  CLRF   x09
02688:  CLRF   x08
0268A:  CLRF   x07
0268C:  CLRF   x06
0268E:  CLRF   x0D
02690:  CLRF   x0C
02692:  CLRF   x0B
02694:  CLRF   x0A
02696:  MOVLW  5C
02698:  MOVWF  x11
0269A:  MOVLW  AA
0269C:  MOVWF  x10
0269E:  MOVLW  52
026A0:  MOVWF  x0F
026A2:  MOVLW  77
026A4:  MOVWF  x0E
026A6:  MOVLW  E0
026A8:  MOVWF  x15
026AA:  MOVLW  2D
026AC:  MOVWF  x14
026AE:  MOVLW  10
026B0:  MOVWF  x13
026B2:  MOVLW  75
026B4:  MOVWF  x12
026B6:  MOVLW  FF
026B8:  MOVWF  x19
026BA:  MOVLW  21
026BC:  MOVWF  x18
026BE:  MOVLW  15
026C0:  MOVWF  x17
026C2:  MOVLW  80
026C4:  MOVWF  x16
026C6:  MOVLW  82
026C8:  MOVWF  x1D
026CA:  MOVLW  12
026CC:  MOVWF  x1C
026CE:  MOVLW  F4
026D0:  MOVWF  x1B
026D2:  MOVLW  86
026D4:  MOVWF  x1A
026D6:  CLRF   x1E
026D8:  CLRF   x1F
026DA:  CLRF   x20
026DC:  CLRF   x21
026DE:  MOVLW  01
026E0:  MOVWF  x22
026E2:  BCF    1B.3
026E4:  BCF    1B.4
026E6:  BCF    1B.5
026E8:  BCF    1B.6
026EA:  CLRF   x23
026EC:  CLRF   x24
026EE:  CLRF   x25
026F0:  CLRF   x26
026F2:  CLRF   x27
026F4:  CLRF   x28
026F6:  CLRF   x29
026F8:  CLRF   x2A
026FA:  CLRF   x2B
026FC:  CLRF   x2C
026FE:  CLRF   x2D
02700:  CLRF   x2F
02702:  CLRF   x2E
02704:  CLRF   x31
02706:  CLRF   x30
02708:  CLRF   x33
0270A:  CLRF   x32
0270C:  CLRF   x35
0270E:  MOVWF  x34
02710:  CLRF   x37
02712:  CLRF   x36
02714:  CLRF   x39
02716:  CLRF   x38
02718:  CLRF   x3B
0271A:  CLRF   x3A
0271C:  CLRF   x3D
0271E:  CLRF   x3C
02720:  CLRF   x3E
02722:  CLRF   x3F
02724:  CLRF   x40
02726:  CLRF   x41
02728:  CLRF   x43
0272A:  CLRF   x42
0272C:  MOVF   FC1,W
0272E:  ANDLW  C0
02730:  IORLW  0F
02732:  MOVWF  FC1
02734:  MOVLW  07
02736:  MOVWF  FB4
02738:  CLRF   26
0273A:  CLRF   27
0273C:  CLRF   28
0273E:  CLRF   29
02740:  CLRF   2A
02742:  CLRF   2B
02744:  CLRF   2C
02746:  CLRF   2D
02748:  CLRF   2E
0274A:  CLRF   2F
0274C:  CLRF   30
0274E:  CLRF   31
02750:  CLRF   32
02752:  CLRF   33
02754:  CLRF   34
02756:  CLRF   35
02758:  CLRF   36
0275A:  CLRF   37
0275C:  CLRF   38
0275E:  CLRF   39
02760:  CLRF   3A
02762:  CLRF   3B
02764:  CLRF   3C
02766:  CLRF   3D
02768:  CLRF   3E
0276A:  CLRF   3F
0276C:  CLRF   40
0276E:  CLRF   41
02770:  CLRF   42
02772:  CLRF   43
02774:  CLRF   44
02776:  CLRF   45
02778:  CLRF   46
0277A:  CLRF   47
0277C:  CLRF   48
0277E:  CLRF   49
02780:  CLRF   4A
02782:  CLRF   4B
02784:  CLRF   4C
02786:  CLRF   4D
02788:  CLRF   4E
0278A:  CLRF   4F
0278C:  CLRF   50
0278E:  CLRF   51
02790:  CLRF   52
02792:  CLRF   53
02794:  CLRF   54
02796:  CLRF   55
02798:  CLRF   56
0279A:  CLRF   57
0279C:  CLRF   58
0279E:  CLRF   59
027A0:  CLRF   5A
027A2:  CLRF   5B
027A4:  CLRF   5C
027A6:  CLRF   5D
027A8:  CLRF   5E
027AA:  CLRF   5F
027AC:  MOVLB  0
027AE:  CLRF   x60
027B0:  CLRF   x61
027B2:  CLRF   x62
027B4:  CLRF   x63
027B6:  CLRF   x64
027B8:  CLRF   x65
027BA:  CLRF   x66
027BC:  CLRF   x67
027BE:  CLRF   x68
027C0:  CLRF   x69
027C2:  CLRF   x6A
027C4:  CLRF   x6B
027C6:  CLRF   x6C
027C8:  CLRF   x6D
027CA:  CLRF   x6E
027CC:  CLRF   x6F
027CE:  CLRF   x70
027D0:  CLRF   x71
027D2:  CLRF   x72
027D4:  CLRF   x73
027D6:  CLRF   x74
027D8:  CLRF   x75
027DA:  CLRF   x76
027DC:  CLRF   x77
027DE:  CLRF   x78
027E0:  CLRF   x79
027E2:  CLRF   x7A
027E4:  CLRF   x7B
027E6:  CLRF   x7C
027E8:  CLRF   x7D
027EA:  CLRF   x7E
027EC:  CLRF   x7F
027EE:  CLRF   x80
027F0:  CLRF   x81
027F2:  CLRF   x82
027F4:  CLRF   x83
027F6:  CLRF   x84
027F8:  CLRF   x85
027FA:  CLRF   x86
027FC:  CLRF   x87
027FE:  CLRF   x88
02800:  CLRF   x89
02802:  CLRF   x8A
02804:  CLRF   x8B
02806:  CLRF   x8C
02808:  CLRF   x8D
0280A:  CLRF   x8E
0280C:  CLRF   x8F
0280E:  CLRF   x90
02810:  CLRF   x91
02812:  CLRF   x92
02814:  CLRF   x93
02816:  CLRF   x94
02818:  CLRF   x95
0281A:  CLRF   x96
0281C:  CLRF   x97
0281E:  CLRF   x98
02820:  CLRF   x99
02822:  CLRF   x9A
02824:  CLRF   x9B
02826:  CLRF   x9C
02828:  CLRF   x9D
0282A:  CLRF   x9E
0282C:  CLRF   x9F
0282E:  CLRF   xA0
02830:  CLRF   xA1
02832:  CLRF   xA2
02834:  CLRF   xA3
02836:  CLRF   xA4
02838:  CLRF   xA5
0283A:  CLRF   xA6
0283C:  CLRF   xA7
0283E:  CLRF   xA8
02840:  CLRF   xA9
02842:  CLRF   xAA
02844:  CLRF   xAB
02846:  CLRF   xAC
02848:  CLRF   xAD
0284A:  CLRF   xAE
0284C:  CLRF   xAF
0284E:  CLRF   xB0
02850:  CLRF   xB1
02852:  CLRF   xB2
02854:  CLRF   xB3
02856:  CLRF   xB4
02858:  CLRF   xB5
0285A:  CLRF   xB6
0285C:  CLRF   xB7
0285E:  CLRF   xB8
02860:  CLRF   xB9
02862:  CLRF   xBA
02864:  CLRF   xBB
02866:  CLRF   xBC
02868:  CLRF   xBD
0286A:  CLRF   xBE
0286C:  CLRF   xBF
0286E:  CLRF   xC0
02870:  CLRF   xC1
02872:  CLRF   xC2
02874:  CLRF   xC3
02876:  CLRF   xC4
02878:  CLRF   xC5
0287A:  CLRF   xC6
0287C:  CLRF   xC7
0287E:  CLRF   xC8
02880:  CLRF   xC9
02882:  CLRF   xCA
02884:  CLRF   xCB
02886:  CLRF   xCC
02888:  CLRF   xCD
0288A:  CLRF   xCE
0288C:  CLRF   xCF
0288E:  CLRF   xD0
02890:  CLRF   xD1
02892:  CLRF   xD2
02894:  CLRF   xD3
02896:  CLRF   xD4
02898:  CLRF   xD5
0289A:  CLRF   xD6
0289C:  CLRF   xD7
0289E:  CLRF   xD8
028A0:  CLRF   xD9
028A2:  CLRF   xDA
028A4:  CLRF   xDB
028A6:  CLRF   xDC
028A8:  CLRF   xDD
028AA:  CLRF   xDE
028AC:  CLRF   xDF
028AE:  CLRF   xE0
028B0:  CLRF   xE1
028B2:  CLRF   xE2
028B4:  CLRF   xE3
028B6:  CLRF   xE4
028B8:  CLRF   xE5
028BA:  CLRF   xE6
028BC:  CLRF   xE7
028BE:  CLRF   xE8
028C0:  CLRF   xE9
028C2:  CLRF   xEA
028C4:  CLRF   xEB
028C6:  CLRF   xEC
028C8:  CLRF   xED
028CA:  CLRF   xEE
028CC:  CLRF   xEF
028CE:  CLRF   xF0
028D0:  CLRF   xF1
028D2:  CLRF   xF2
028D4:  CLRF   xF3
028D6:  CLRF   xF4
028D8:  CLRF   xF5
028DA:  CLRF   xF6
028DC:  CLRF   xF7
028DE:  CLRF   xF8
028E0:  CLRF   xF9
028E2:  CLRF   xFA
028E4:  CLRF   xFB
028E6:  CLRF   xFC
028E8:  CLRF   xFD
028EA:  CLRF   xFE
028EC:  CLRF   xFF
028EE:  MOVLB  1
028F0:  CLRF   x00
028F2:  CLRF   x01
028F4:  CLRF   x02
028F6:  CLRF   x03
028F8:  CLRF   x04
028FA:  CLRF   x05
028FC:  CLRF   x06
028FE:  CLRF   x07
02900:  CLRF   x08
02902:  CLRF   x09
02904:  CLRF   x0A
02906:  CLRF   x0B
02908:  CLRF   x0C
0290A:  CLRF   x0D
0290C:  CLRF   x0E
0290E:  CLRF   x0F
02910:  CLRF   x10
02912:  CLRF   x11
02914:  CLRF   x12
02916:  CLRF   x13
02918:  CLRF   x14
0291A:  CLRF   x15
0291C:  CLRF   x16
0291E:  CLRF   x17
02920:  CLRF   x18
02922:  CLRF   x19
02924:  CLRF   x1A
02926:  CLRF   x1B
02928:  CLRF   x1C
0292A:  CLRF   x1D
0292C:  CLRF   x1E
0292E:  CLRF   x1F
02930:  CLRF   x20
02932:  CLRF   x21
02934:  CLRF   x22
02936:  CLRF   x23
02938:  CLRF   x24
0293A:  CLRF   x25
0293C:  CLRF   x26
0293E:  CLRF   x27
02940:  CLRF   x28
02942:  CLRF   x29
02944:  CLRF   x2A
02946:  CLRF   x2B
02948:  CLRF   x2C
0294A:  CLRF   x2D
0294C:  CLRF   x2E
0294E:  CLRF   x2F
02950:  CLRF   x30
02952:  CLRF   x31
02954:  CLRF   x32
02956:  CLRF   x33
02958:  CLRF   x34
0295A:  CLRF   x35
0295C:  CLRF   x36
0295E:  CLRF   x37
02960:  CLRF   x38
02962:  CLRF   x39
02964:  CLRF   x3A
02966:  CLRF   x3B
02968:  CLRF   x3C
0296A:  CLRF   x3D
0296C:  CLRF   x3E
0296E:  CLRF   x3F
02970:  CLRF   x40
02972:  CLRF   x41
02974:  CLRF   x42
02976:  CLRF   x43
02978:  CLRF   x44
0297A:  CLRF   x45
0297C:  CLRF   x46
0297E:  CLRF   x47
02980:  CLRF   x48
02982:  CLRF   x49
02984:  CLRF   x4A
02986:  CLRF   x4B
02988:  CLRF   x4C
0298A:  CLRF   x4D
0298C:  CLRF   x4E
0298E:  CLRF   x4F
02990:  CLRF   x50
02992:  CLRF   x51
02994:  CLRF   x52
02996:  CLRF   x53
02998:  CLRF   x54
0299A:  CLRF   x55
0299C:  CLRF   x56
0299E:  CLRF   x57
029A0:  CLRF   x58
029A2:  CLRF   x59
029A4:  CLRF   x5A
029A6:  CLRF   x5B
029A8:  CLRF   x5C
029AA:  CLRF   x5D
029AC:  CLRF   x5E
029AE:  CLRF   x5F
029B0:  CLRF   x60
029B2:  CLRF   x61
029B4:  CLRF   x62
029B6:  CLRF   x63
029B8:  CLRF   x64
029BA:  CLRF   x65
029BC:  CLRF   x66
029BE:  CLRF   x67
029C0:  CLRF   x68
029C2:  CLRF   x69
029C4:  CLRF   x6A
029C6:  CLRF   x6B
029C8:  CLRF   x6C
029CA:  CLRF   x6D
029CC:  CLRF   x6E
029CE:  CLRF   x6F
029D0:  CLRF   x70
029D2:  CLRF   x71
029D4:  CLRF   x72
029D6:  CLRF   x73
029D8:  CLRF   x74
029DA:  CLRF   x75
029DC:  CLRF   x76
029DE:  CLRF   x77
029E0:  CLRF   x78
029E2:  CLRF   x79
029E4:  CLRF   x7A
029E6:  CLRF   x7B
029E8:  CLRF   x7C
029EA:  CLRF   x7D
029EC:  CLRF   x7E
029EE:  CLRF   x7F
029F0:  CLRF   x80
029F2:  CLRF   x81
029F4:  CLRF   x82
029F6:  CLRF   x83
029F8:  CLRF   x84
029FA:  CLRF   x85
029FC:  CLRF   x86
029FE:  CLRF   x87
02A00:  CLRF   x88
02A02:  CLRF   x89
02A04:  CLRF   x8A
02A06:  CLRF   x8B
02A08:  CLRF   x8C
02A0A:  CLRF   x8D
02A0C:  CLRF   x8E
02A0E:  CLRF   x8F
02A10:  CLRF   x90
02A12:  CLRF   x91
02A14:  CLRF   x92
02A16:  CLRF   x93
02A18:  CLRF   x94
02A1A:  CLRF   x95
02A1C:  CLRF   x96
02A1E:  CLRF   x97
02A20:  CLRF   x98
02A22:  CLRF   x99
02A24:  CLRF   x9A
02A26:  CLRF   x9B
02A28:  CLRF   x9C
02A2A:  CLRF   x9D
02A2C:  CLRF   x9E
02A2E:  CLRF   x9F
02A30:  CLRF   xA0
02A32:  CLRF   xA1
02A34:  CLRF   xA2
02A36:  CLRF   xA3
02A38:  CLRF   xA4
02A3A:  CLRF   xA5
02A3C:  CLRF   xA6
02A3E:  CLRF   xA7
02A40:  CLRF   xA8
02A42:  CLRF   xA9
02A44:  CLRF   xAA
02A46:  CLRF   xAB
02A48:  CLRF   xAC
02A4A:  CLRF   xAD
02A4C:  CLRF   xAE
02A4E:  CLRF   xAF
02A50:  CLRF   xB0
02A52:  CLRF   xB1
02A54:  CLRF   xB2
02A56:  CLRF   xB3
02A58:  CLRF   xB4
02A5A:  CLRF   xB5
02A5C:  CLRF   xB6
02A5E:  CLRF   xB7
02A60:  CLRF   xB8
02A62:  CLRF   xB9
02A64:  CLRF   xBA
02A66:  CLRF   xBB
02A68:  CLRF   xBC
02A6A:  CLRF   xBD
02A6C:  MOVLW  86
02A6E:  MOVLB  2
02A70:  MOVWF  x44
02A72:  MOVLW  79
02A74:  MOVWF  x45
02A76:  MOVLW  86
02A78:  MOVWF  x46
02A7A:  MOVLW  79
02A7C:  MOVWF  x47
02A7E:  MOVWF  x48
02A80:  MOVLW  03
02A82:  MOVWF  x49
02A84:  MOVLW  0F
02A86:  MOVWF  x4A
02A88:  MOVLW  0C
02A8A:  MOVWF  x4B
02A8C:  MOVLW  1E
02A8E:  MOVWF  x4C
02A90:  MOVWF  x4D
02A92:  CLRF   x4E
02A94:  CLRF   x4F
02A96:  MOVWF  x50
02A98:  MOVWF  x51
02A9A:  CLRF   x52
02A9C:  MOVLW  01
02A9E:  MOVWF  x53
02AA0:  MOVWF  x54
02AA2:  MOVWF  x55
02AA4:  MOVWF  x56
02AA6:  MOVLW  04
02AA8:  MOVWF  x57
02AAA:  MOVLW  86
02AAC:  MOVWF  x58
02AAE:  MOVLW  79
02AB0:  MOVWF  x59
02AB2:  MOVLW  86
02AB4:  MOVWF  x5A
02AB6:  MOVLW  79
02AB8:  MOVWF  x5B
02ABA:  MOVWF  x5C
02ABC:  MOVLW  03
02ABE:  MOVWF  x5D
02AC0:  MOVLW  0F
02AC2:  MOVWF  x5E
02AC4:  MOVLW  0C
02AC6:  MOVWF  x5F
02AC8:  MOVLW  1E
02ACA:  MOVWF  x60
02ACC:  MOVWF  x61
02ACE:  CLRF   x62
02AD0:  CLRF   x63
02AD2:  MOVWF  x64
02AD4:  MOVWF  x65
02AD6:  CLRF   x66
02AD8:  MOVLW  01
02ADA:  MOVWF  x67
02ADC:  MOVWF  x68
02ADE:  MOVWF  x69
02AE0:  MOVWF  x6A
02AE2:  MOVLW  04
02AE4:  MOVWF  x6B
....................    LedDoor_off; 
02AE6:  BCF    F8A.7
02AE8:  BCF    F93.7
....................    LedWater_off; 
02AEA:  BCF    F8A.6
02AEC:  BCF    F93.6
....................    Buzzer_on; 
02AEE:  BSF    F8B.4
02AF0:  BCF    F94.4
....................    delay_ms(100); 
02AF2:  MOVLW  64
02AF4:  MOVWF  x7F
02AF6:  MOVLB  0
02AF8:  CALL   046E
....................    Buzzer_off; 
02AFC:  BCF    F8B.4
02AFE:  BCF    F94.4
....................    lcd_init(); 
02B00:  GOTO   04F6
....................    port_b_pullups(true); 
02B04:  BCF    FF1.7
....................    setup_timer_0(RTCC_8_BIT|RTCC_DIV_1); 
02B06:  MOVLW  C8
02B08:  MOVWF  FD5
....................    enable_interrupts(INT_TIMER0); 
02B0A:  BSF    FF2.5
....................    setup_timer_1(T1_INTERNAL|T1_DIV_BY_1); 
02B0C:  MOVLW  85
02B0E:  MOVWF  FCD
....................    enable_interrupts(INT_TIMER1); 
02B10:  BSF    F9D.0
....................    setup_adc_ports(AN0_TO_AN1); 
02B12:  MOVF   FC1,W
02B14:  ANDLW  C0
02B16:  IORLW  0D
02B18:  MOVWF  FC1
....................    setup_adc(ADC_CLOCK_DIV_32 ); 
02B1A:  MOVF   FC0,W
02B1C:  ANDLW  C0
02B1E:  IORLW  02
02B20:  MOVWF  FC0
02B22:  BSF    FC0.7
02B24:  BSF    FC2.0
....................    enable_interrupts(global); 
02B26:  MOVLW  C0
02B28:  IORWF  FF2,F
....................    LeeEEPROM(); 
02B2A:  GOTO   05A0
....................    delay_ms(1); 
02B2E:  MOVLW  01
02B30:  MOVLB  2
02B32:  MOVWF  x7F
02B34:  MOVLB  0
02B36:  CALL   046E
....................    LimitaValores(); 
02B3A:  GOTO   0936
....................     
.................... //Mensaje Bienvenida//-----------------------------    
....................    lcd_gotoxy(1,1); 
02B3E:  MOVLW  01
02B40:  MOVLB  2
02B42:  MOVWF  x7A
02B44:  MOVWF  x7B
02B46:  MOVLB  0
02B48:  CALL   0BFC
....................    printf(lcd_putc,"   Autoclave    "); 
02B4C:  MOVLW  FE
02B4E:  MOVWF  FF6
02B50:  MOVLW  02
02B52:  MOVWF  FF7
02B54:  MOVLW  00
02B56:  MOVWF  FF8
02B58:  CALL   0CF2
....................    lcd_gotoxy(1,2); 
02B5C:  MOVLW  01
02B5E:  MOVLB  2
02B60:  MOVWF  x7A
02B62:  MOVLW  02
02B64:  MOVWF  x7B
02B66:  MOVLB  0
02B68:  CALL   0BFC
....................    printf(lcd_putc,"  Tuttnauer JP  "); 
02B6C:  MOVLW  10
02B6E:  MOVWF  FF6
02B70:  MOVLW  03
02B72:  MOVWF  FF7
02B74:  MOVLW  00
02B76:  MOVWF  FF8
02B78:  CALL   0CF2
....................    delay_ms(2500); 
02B7C:  MOVLW  0A
02B7E:  MOVLB  2
02B80:  MOVWF  x6C
02B82:  MOVLW  FA
02B84:  MOVWF  x7F
02B86:  MOVLB  0
02B88:  CALL   046E
02B8C:  MOVLB  2
02B8E:  DECFSZ x6C,F
02B90:  BRA    2B82
....................    printf(lcd_putc,"\f"); 
02B92:  MOVLW  0C
02B94:  MOVWF  x79
02B96:  MOVLB  0
02B98:  CALL   0C74
....................     
....................    for(i=0;i<80;i++){ 
02B9C:  MOVLB  2
02B9E:  CLRF   x28
02BA0:  MOVF   x28,W
02BA2:  SUBLW  4F
02BA4:  BNC   2BC6
....................       Temperatura=LeerPT100(80); 
02BA6:  MOVLW  50
02BA8:  MOVWF  x6C
02BAA:  MOVLB  0
02BAC:  CALL   125E
02BB0:  MOVFF  03,20D
02BB4:  MOVFF  02,20C
02BB8:  MOVFF  01,20B
02BBC:  MOVFF  00,20A
....................    } 
02BC0:  MOVLB  2
02BC2:  INCF   x28,F
02BC4:  BRA    2BA0
....................     
....................    if(CYCLE){ 
02BC6:  BTFSS  1A.3
02BC8:  BRA    2BFA
....................       printf(lcd_putc,"\f"); 
02BCA:  MOVLW  0C
02BCC:  MOVWF  x79
02BCE:  MOVLB  0
02BD0:  CALL   0C74
....................       lcd_gotoxy(1,2); 
02BD4:  MOVLW  01
02BD6:  MOVLB  2
02BD8:  MOVWF  x7A
02BDA:  MOVLW  02
02BDC:  MOVWF  x7B
02BDE:  MOVLB  0
02BE0:  CALL   0BFC
....................       printf(lcd_putc,"Loading...."); 
02BE4:  MOVLW  22
02BE6:  MOVWF  FF6
02BE8:  MOVLW  03
02BEA:  MOVWF  FF7
02BEC:  MOVLW  00
02BEE:  MOVWF  FF8
02BF0:  CALL   0CF2
....................       resetParams(); 
02BF4:  GOTO   1606
02BF8:  MOVLB  2
....................    } 
....................     
....................    if(START && UP){ 
02BFA:  BSF    F93.2
02BFC:  BTFSC  F81.2
02BFE:  BRA    2C08
02C00:  BTFSS  1A.4
02C02:  BRA    2C08
....................       Menu=100; 
02C04:  MOVLW  64
02C06:  MOVWF  x27
....................    } 
....................     
....................    while(true) 
....................    { 
....................       if(RESR){ 
02C08:  BSF    F92.5
02C0A:  BTFSS  F80.5
02C0C:  BRA    2C14
....................          LedWater_on; 
02C0E:  BSF    F8A.6
02C10:  BCF    F93.6
....................       }else{ 
02C12:  BRA    2C18
....................          LedWater_off; 
02C14:  BCF    F8A.6
02C16:  BCF    F93.6
....................       } 
....................        
....................       if(DOOR){ 
02C18:  BSF    F92.4
02C1A:  BTFSS  F80.4
02C1C:  BRA    2C24
....................          LedDoor_on; 
02C1E:  BSF    F8A.7
02C20:  BCF    F93.7
....................       }else{ 
02C22:  BRA    2C28
....................          LedDoor_off; 
02C24:  BCF    F8A.7
02C26:  BCF    F93.7
....................       } 
....................       output_bit(PIN_E1,IniciaCiclo); 
02C28:  BTFSC  19.2
02C2A:  BRA    2C30
02C2C:  BCF    F8D.1
02C2E:  BRA    2C32
02C30:  BSF    F8D.1
02C32:  BCF    F96.1
....................       delay_ms(1); 
02C34:  MOVLW  01
02C36:  MOVWF  x7F
02C38:  MOVLB  0
02C3A:  CALL   046E
....................        
....................       // Monitoreo Nivel de Agua//-------------------------------------- 
....................             if(!LOW){//Si no sensa agua en el nivel alto y no se ha llenado el calderin          
02C3E:  BSF    F92.2
02C40:  BTFSS  F80.2
02C42:  BRA    2C52
....................                TiempoSensadoNivel=0; 
02C44:  CLRF   21
02C46:  CLRF   20
....................                Controlando=0;    
02C48:  MOVLB  2
02C4A:  CLRF   x25
....................                SensadoNivel=OFF; 
02C4C:  BCF    19.5
....................             } else{ 
02C4E:  BRA    2C68
02C50:  MOVLB  0
....................                if(TiempoSensadoNivel>3){ 
02C52:  MOVF   21,F
02C54:  BNZ   2C5C
02C56:  MOVF   20,W
02C58:  SUBLW  03
02C5A:  BC    2C64
....................                   SensadoNivel=OFF; 
02C5C:  BCF    19.5
....................                   CalderinLleno=ON; 
02C5E:  BSF    19.1
....................                   IniciaLlenado=OFF;                   
02C60:  BCF    19.0
....................                }else{ 
02C62:  BRA    2C66
....................                   SensadoNivel=ON; 
02C64:  BSF    19.5
02C66:  MOVLB  2
....................                } 
....................             } 
....................  
.................... // Tiempo de Muestreo//-------------------------------------- 
....................       if(tiempos3>=20){ 
02C68:  MOVF   x31,F
02C6A:  BNZ   2C72
02C6C:  MOVF   x30,W
02C6E:  SUBLW  13
02C70:  BC    2CBA
....................          Temperatura=LeerPt100(80); 
02C72:  MOVLW  50
02C74:  MOVWF  x6C
02C76:  MOVLB  0
02C78:  CALL   125E
02C7C:  MOVFF  03,20D
02C80:  MOVFF  02,20C
02C84:  MOVFF  01,20B
02C88:  MOVFF  00,20A
....................          PresionCamara=Leer_Sensor_Presion_Camara(5); 
02C8C:  MOVLW  05
02C8E:  MOVLB  2
02C90:  MOVWF  x6C
02C92:  MOVLB  0
02C94:  GOTO   1946
02C98:  MOVFF  03,26F
02C9C:  MOVFF  02,26E
02CA0:  MOVFF  01,26D
02CA4:  MOVFF  00,26C
02CA8:  CALL   1B3C
02CAC:  MOVFF  02,239
02CB0:  MOVFF  01,238
....................          tiempos3=0; 
02CB4:  MOVLB  2
02CB6:  CLRF   x31
02CB8:  CLRF   x30
....................       } 
....................        
.................... //_-------------------------------------------------------------------------------------------------------------------------------------------------------- 
....................    if(Menu==0){ //Menu Principal. 
02CBA:  MOVF   x27,F
02CBC:  BTFSS  FD8.2
02CBE:  BRA    2FA8
....................       if(CYCLE){ 
02CC0:  BTFSS  1A.3
02CC2:  BRA    2CD4
....................          Programa++;  
02CC4:  MOVLB  1
02CC6:  INCF   xC6,F
....................          delay_ms(100); 
02CC8:  MOVLW  64
02CCA:  MOVLB  2
02CCC:  MOVWF  x7F
02CCE:  MOVLB  0
02CD0:  CALL   046E
....................       } 
....................       
....................       if(Programa>5) 
02CD4:  MOVLB  1
02CD6:  MOVF   xC6,W
02CD8:  SUBLW  05
02CDA:  BC    2CE0
....................          Programa=1; 
02CDC:  MOVLW  01
02CDE:  MOVWF  xC6
....................           
....................       if(PARAMETERS){          
02CE0:  BTFSS  1A.1
02CE2:  BRA    2DB4
....................          lcd_gotoxy(1,2); 
02CE4:  MOVLW  01
02CE6:  MOVLB  2
02CE8:  MOVWF  x7A
02CEA:  MOVLW  02
02CEC:  MOVWF  x7B
02CEE:  MOVLB  0
02CF0:  CALL   0BFC
....................          printf(lcd_putc,"%03u°C E=%02um S=%02u",Set[Programa-1],Time[Programa-1],TimeS[Programa-1]); 
02CF4:  MOVLW  01
02CF6:  MOVLB  1
02CF8:  SUBWF  xC6,W
02CFA:  CLRF   03
02CFC:  ADDLW  58
02CFE:  MOVWF  FE9
02D00:  MOVLW  02
02D02:  ADDWFC 03,W
02D04:  MOVWF  FEA
02D06:  MOVFF  FEF,26C
02D0A:  MOVLW  01
02D0C:  SUBWF  xC6,W
02D0E:  CLRF   03
02D10:  ADDLW  5D
02D12:  MOVWF  FE9
02D14:  MOVLW  02
02D16:  ADDWFC 03,W
02D18:  MOVWF  FEA
02D1A:  MOVFF  FEF,26D
02D1E:  MOVLW  01
02D20:  SUBWF  xC6,W
02D22:  CLRF   03
02D24:  ADDLW  62
02D26:  MOVWF  FE9
02D28:  MOVLW  02
02D2A:  ADDWFC 03,W
02D2C:  MOVWF  FEA
02D2E:  MOVFF  FEF,26E
02D32:  MOVFF  26C,26F
02D36:  MOVLW  03
02D38:  MOVLB  2
02D3A:  MOVWF  x70
02D3C:  MOVLB  0
02D3E:  CALL   1BA4
02D42:  MOVLW  32
02D44:  MOVWF  FF6
02D46:  MOVLW  03
02D48:  MOVWF  FF7
02D4A:  MOVLW  00
02D4C:  MOVWF  FF8
02D4E:  MOVLW  05
02D50:  MOVLB  2
02D52:  MOVWF  x6F
02D54:  MOVLB  0
02D56:  CALL   1C26
02D5A:  MOVFF  26D,26F
02D5E:  MOVLW  01
02D60:  MOVLB  2
02D62:  MOVWF  x70
02D64:  MOVLB  0
02D66:  CALL   1BA4
02D6A:  MOVLW  3B
02D6C:  MOVWF  FF6
02D6E:  MOVLW  03
02D70:  MOVWF  FF7
02D72:  MOVLW  00
02D74:  MOVWF  FF8
02D76:  MOVLW  04
02D78:  MOVLB  2
02D7A:  MOVWF  x6F
02D7C:  MOVLB  0
02D7E:  CALL   1C26
02D82:  MOVFF  26E,26F
02D86:  MOVLW  01
02D88:  MOVLB  2
02D8A:  MOVWF  x70
02D8C:  MOVLB  0
02D8E:  CALL   1BA4
....................          delay_ms(3000); 
02D92:  MOVLW  0C
02D94:  MOVLB  2
02D96:  MOVWF  x6C
02D98:  MOVLW  FA
02D9A:  MOVWF  x7F
02D9C:  MOVLB  0
02D9E:  CALL   046E
02DA2:  MOVLB  2
02DA4:  DECFSZ x6C,F
02DA6:  BRA    2D98
....................          printf(lcd_putc,"\f"); 
02DA8:  MOVLW  0C
02DAA:  MOVWF  x79
02DAC:  MOVLB  0
02DAE:  CALL   0C74
02DB2:  MOVLB  1
....................       } 
....................       Solenoide_on; 
02DB4:  BSF    F8B.2
02DB6:  BCF    F94.2
....................       lcd_gotoxy(1,2); 
02DB8:  MOVLW  01
02DBA:  MOVLB  2
02DBC:  MOVWF  x7A
02DBE:  MOVLW  02
02DC0:  MOVWF  x7B
02DC2:  MOVLB  0
02DC4:  CALL   0BFC
....................       printf(lcd_putc,"%3.1f ",Temperatura); 
02DC8:  MOVLW  02
02DCA:  MOVWF  FE9
02DCC:  MOVFF  20D,26F
02DD0:  MOVFF  20C,26E
02DD4:  MOVFF  20B,26D
02DD8:  MOVFF  20A,26C
02DDC:  MOVLW  01
02DDE:  MOVLB  2
02DE0:  MOVWF  x70
02DE2:  MOVLB  0
02DE4:  CALL   1D1C
02DE8:  MOVLW  20
02DEA:  MOVLB  2
02DEC:  MOVWF  x79
02DEE:  MOVLB  0
02DF0:  CALL   0C74
....................       lcd_gotoxy(13,2); 
02DF4:  MOVLW  0D
02DF6:  MOVLB  2
02DF8:  MOVWF  x7A
02DFA:  MOVLW  02
02DFC:  MOVWF  x7B
02DFE:  MOVLB  0
02E00:  CALL   0BFC
....................       printf(lcd_putc,"%03LuK",PresionCamara); 
02E04:  MOVLW  0A
02E06:  MOVWF  FE9
02E08:  MOVFF  239,26D
02E0C:  MOVFF  238,26C
02E10:  CALL   1ED0
02E14:  MOVLW  4B
02E16:  MOVLB  2
02E18:  MOVWF  x79
02E1A:  MOVLB  0
02E1C:  CALL   0C74
....................       lcd_gotoxy(1,1); 
02E20:  MOVLW  01
02E22:  MOVLB  2
02E24:  MOVWF  x7A
02E26:  MOVWF  x7B
02E28:  MOVLB  0
02E2A:  CALL   0BFC
....................       printf(lcd_putc,"%s",Cycles[Programa-1]); 
02E2E:  MOVLW  01
02E30:  MOVLB  1
02E32:  SUBWF  xC6,W
02E34:  MULLW  0C
02E36:  MOVF   FF3,W
02E38:  CLRF   03
02E3A:  MOVLB  2
02E3C:  MOVWF  x6C
02E3E:  MOVLW  CC
02E40:  MOVWF  FF6
02E42:  MOVLW  00
02E44:  MOVWF  FF7
02E46:  MOVLW  00
02E48:  MOVWF  FF8
02E4A:  MOVF   x6C,W
02E4C:  ADDWF  FF6,F
02E4E:  MOVLW  00
02E50:  ADDWFC FF7,F
02E52:  MOVLB  0
02E54:  CALL   0CF2
....................       lcd_gotoxy(12,1); 
02E58:  MOVLW  0C
02E5A:  MOVLB  2
02E5C:  MOVWF  x7A
02E5E:  MOVLW  01
02E60:  MOVWF  x7B
02E62:  MOVLB  0
02E64:  CALL   0BFC
....................       printf(lcd_putc,"ST.BY"); 
02E68:  MOVLW  44
02E6A:  MOVWF  FF6
02E6C:  MOVLW  03
02E6E:  MOVWF  FF7
02E70:  MOVLW  00
02E72:  MOVWF  FF8
02E74:  CALL   0CF2
....................        
....................       if(START){ 
02E78:  BSF    F93.2
02E7A:  BTFSC  F81.2
02E7C:  BRA    2F60
....................          Setpoint=Set[Programa-1]; 
02E7E:  MOVLW  01
02E80:  MOVLB  1
02E82:  SUBWF  xC6,W
02E84:  CLRF   03
02E86:  ADDLW  58
02E88:  MOVWF  FE9
02E8A:  MOVLW  02
02E8C:  ADDWFC 03,W
02E8E:  MOVWF  FEA
02E90:  MOVFF  FEF,22B
02E94:  MOVLB  2
....................          mEstP=Time[Programa-1]; 
02E96:  MOVLW  01
02E98:  MOVLB  1
02E9A:  SUBWF  xC6,W
02E9C:  CLRF   03
02E9E:  ADDLW  5D
02EA0:  MOVWF  FE9
02EA2:  MOVLW  02
02EA4:  ADDWFC 03,W
02EA6:  MOVWF  FEA
02EA8:  MOVFF  FEF,1CA
....................          mSecP=TimeS[Programa-1]; 
02EAC:  MOVLW  01
02EAE:  SUBWF  xC6,W
02EB0:  CLRF   03
02EB2:  ADDLW  62
02EB4:  MOVWF  FE9
02EB6:  MOVLW  02
02EB8:  ADDWFC 03,W
02EBA:  MOVWF  FEA
02EBC:  MOVFF  FEF,1CE
....................          sEstP=0; 
02EC0:  CLRF   xC9
....................          sSecP=0; 
02EC2:  CLRF   xCD
....................          mEst=mEstP; 
02EC4:  MOVFF  1CA,1C8
....................          sEst=sEstP; 
02EC8:  MOVFF  1C9,1C7
....................          mSec=mSecP; 
02ECC:  MOVFF  1CE,1CC
....................          sSec=sSecP; 
02ED0:  MOVFF  1CD,1CB
....................          Menu=20; 
02ED4:  MOVLW  14
02ED6:  MOVLB  2
02ED8:  MOVWF  x27
....................          lcd_gotoxy(1,2); 
02EDA:  MOVLW  01
02EDC:  MOVWF  x7A
02EDE:  MOVLW  02
02EE0:  MOVWF  x7B
02EE2:  MOVLB  0
02EE4:  CALL   0BFC
....................          printf(lcd_putc,"%05Lu ",Ciclos); 
02EE8:  MOVLW  08
02EEA:  MOVWF  FE9
02EEC:  MOVFF  23B,26D
02EF0:  MOVFF  23A,26C
02EF4:  CALL   1ED0
02EF8:  MOVLW  20
02EFA:  MOVLB  2
02EFC:  MOVWF  x79
02EFE:  MOVLB  0
02F00:  CALL   0C74
....................          delay_ms(2000); 
02F04:  MOVLW  08
02F06:  MOVLB  2
02F08:  MOVWF  x6C
02F0A:  MOVLW  FA
02F0C:  MOVWF  x7F
02F0E:  MOVLB  0
02F10:  CALL   046E
02F14:  MOVLB  2
02F16:  DECFSZ x6C,F
02F18:  BRA    2F0A
....................          if(Exh[Programa-1]!=1)desfoguelento=1; 
02F1A:  MOVLW  01
02F1C:  MOVLB  1
02F1E:  SUBWF  xC6,W
02F20:  CLRF   03
02F22:  ADDLW  67
02F24:  MOVWF  FE9
02F26:  MOVLW  02
02F28:  ADDWFC 03,W
02F2A:  MOVWF  FEA
02F2C:  DECFSZ FEF,W
02F2E:  BRA    2F32
02F30:  BRA    2F34
02F32:  BSF    1B.3
....................          NivelSeleccionado=9990*Nivel; 
02F34:  MOVLW  27
02F36:  MOVLB  2
02F38:  MOVWF  x6E
02F3A:  MOVLW  06
02F3C:  MOVWF  x6D
02F3E:  MOVFF  235,270
02F42:  MOVFF  234,26F
02F46:  MOVLB  0
02F48:  CALL   1146
02F4C:  MOVFF  02,23D
02F50:  MOVFF  01,23C
....................          printf(lcd_putc,"\f"); 
02F54:  MOVLW  0C
02F56:  MOVLB  2
02F58:  MOVWF  x79
02F5A:  MOVLB  0
02F5C:  CALL   0C74
....................       } 
....................        
....................       if(UP && DOWN){ 
02F60:  BTFSS  1A.4
02F62:  BRA    2F86
02F64:  BSF    F93.3
02F66:  BTFSC  F81.3
02F68:  BRA    2F86
....................          Menu=1; 
02F6A:  MOVLW  01
02F6C:  MOVLB  2
02F6E:  MOVWF  x27
....................          delay_ms(100); 
02F70:  MOVLW  64
02F72:  MOVWF  x7F
02F74:  MOVLB  0
02F76:  CALL   046E
....................          printf(lcd_putc,"\f"); 
02F7A:  MOVLW  0C
02F7C:  MOVLB  2
02F7E:  MOVWF  x79
02F80:  MOVLB  0
02F82:  CALL   0C74
....................       } 
....................        
....................       if(PROGRAM){ 
02F86:  BTFSS  1A.2
02F88:  BRA    2FA6
....................          Menu=2; 
02F8A:  MOVLW  02
02F8C:  MOVLB  2
02F8E:  MOVWF  x27
....................          delay_ms(100); 
02F90:  MOVLW  64
02F92:  MOVWF  x7F
02F94:  MOVLB  0
02F96:  CALL   046E
....................          printf(lcd_putc,"\f"); 
02F9A:  MOVLW  0C
02F9C:  MOVLB  2
02F9E:  MOVWF  x79
02FA0:  MOVLB  0
02FA2:  CALL   0C74
02FA6:  MOVLB  2
....................       } 
....................    } 
.................... //_--------------------------------------------------------------------------------------------------------------------------------------------------------        
....................  
.................... //_-------------------------------------------------------------------------------------------------------------------------------------------------------- 
....................    if(Menu==1){ //Test de componentes. 
02FA8:  DECFSZ x27,W
02FAA:  BRA    33E4
....................       if(UP){ 
02FAC:  BTFSS  1A.4
02FAE:  BRA    2FCE
....................          Test++;  
02FB0:  MOVLB  1
02FB2:  INCF   xCF,F
....................          printf(lcd_putc,"\f"); 
02FB4:  MOVLW  0C
02FB6:  MOVLB  2
02FB8:  MOVWF  x79
02FBA:  MOVLB  0
02FBC:  CALL   0C74
....................          delay_ms(100); 
02FC0:  MOVLW  64
02FC2:  MOVLB  2
02FC4:  MOVWF  x7F
02FC6:  MOVLB  0
02FC8:  CALL   046E
02FCC:  MOVLB  2
....................       } 
....................        
....................       if(DOWN){ 
02FCE:  BSF    F93.3
02FD0:  BTFSC  F81.3
02FD2:  BRA    2FF0
....................          Test--;  
02FD4:  MOVLB  1
02FD6:  DECF   xCF,F
....................          printf(lcd_putc,"\f"); 
02FD8:  MOVLW  0C
02FDA:  MOVLB  2
02FDC:  MOVWF  x79
02FDE:  MOVLB  0
02FE0:  CALL   0C74
....................          delay_ms(100); 
02FE4:  MOVLW  64
02FE6:  MOVLB  2
02FE8:  MOVWF  x7F
02FEA:  MOVLB  0
02FEC:  CALL   046E
....................       } 
....................        
....................       if(Test>9) 
02FF0:  MOVLB  1
02FF2:  MOVF   xCF,W
02FF4:  SUBLW  09
02FF6:  BC    2FFC
....................          Test=1; 
02FF8:  MOVLW  01
02FFA:  MOVWF  xCF
....................           
....................       if(Test<1) 
02FFC:  MOVF   xCF,F
02FFE:  BNZ   3004
....................          Test=9;  
03000:  MOVLW  09
03002:  MOVWF  xCF
....................           
....................       lcd_gotoxy(1,1); 
03004:  MOVLW  01
03006:  MOVLB  2
03008:  MOVWF  x7A
0300A:  MOVWF  x7B
0300C:  MOVLB  0
0300E:  CALL   0BFC
....................       printf(lcd_putc,"Test Componentes"); 
03012:  MOVLW  4A
03014:  MOVWF  FF6
03016:  MOVLW  03
03018:  MOVWF  FF7
0301A:  MOVLW  00
0301C:  MOVWF  FF8
0301E:  CALL   0CF2
....................       lcd_gotoxy(1,2); 
03022:  MOVLW  01
03024:  MOVLB  2
03026:  MOVWF  x7A
03028:  MOVLW  02
0302A:  MOVWF  x7B
0302C:  MOVLB  0
0302E:  CALL   0BFC
....................       printf(lcd_putc,"%s",Testeo[Test-1]);   
03032:  MOVLW  01
03034:  MOVLB  1
03036:  SUBWF  xCF,W
03038:  MULLW  0C
0303A:  MOVF   FF3,W
0303C:  CLRF   03
0303E:  MOVLB  2
03040:  MOVWF  x6C
03042:  MOVLW  08
03044:  MOVWF  FF6
03046:  MOVLW  01
03048:  MOVWF  FF7
0304A:  MOVLW  00
0304C:  MOVWF  FF8
0304E:  MOVF   x6C,W
03050:  ADDWF  FF6,F
03052:  MOVLW  00
03054:  ADDWFC FF7,F
03056:  MOVLB  0
03058:  CALL   0CF2
....................        
....................       if(CYCLE){ 
0305C:  BTFSS  1A.3
0305E:  BRA    309A
....................          Menu=0; 
03060:  MOVLB  2
03062:  CLRF   x27
....................          delay_ms(500); 
03064:  MOVLW  02
03066:  MOVWF  x6C
03068:  MOVLW  FA
0306A:  MOVWF  x7F
0306C:  MOVLB  0
0306E:  CALL   046E
03072:  MOVLB  2
03074:  DECFSZ x6C,F
03076:  BRA    3068
....................          printf(lcd_putc,"\f"); 
03078:  MOVLW  0C
0307A:  MOVWF  x79
0307C:  MOVLB  0
0307E:  CALL   0C74
....................          Desfogue_off; 
03082:  BCF    F8B.0
03084:  BCF    F94.0
....................          AguaIn_off; 
03086:  BCF    F8B.1
03088:  BCF    F94.1
....................          Aux_off; 
0308A:  BCF    F8B.3
0308C:  BCF    F94.3
....................          Solenoide_off; 
0308E:  BCF    F8B.2
03090:  BCF    F94.2
....................          Buzzer_off; 
03092:  BCF    F8B.4
03094:  BCF    F94.4
....................          SSR_off; 
03096:  BCF    F8D.2
03098:  BCF    F96.2
....................       } 
....................        
....................       if(Test==1){ 
0309A:  MOVLB  1
0309C:  DECFSZ xCF,W
0309E:  BRA    3108
....................          if(START){ 
030A0:  BSF    F93.2
030A2:  BTFSC  F81.2
030A4:  BRA    30CA
....................             delay_ms(500); 
030A6:  MOVLW  02
030A8:  MOVLB  2
030AA:  MOVWF  x6C
030AC:  MOVLW  FA
030AE:  MOVWF  x7F
030B0:  MOVLB  0
030B2:  CALL   046E
030B6:  MOVLB  2
030B8:  DECFSZ x6C,F
030BA:  BRA    30AC
....................             eDesfogue=!eDesfogue;             
030BC:  BTG    1A.5
....................             output_bit(PIN_C0,eDesfogue); 
030BE:  BTFSC  1A.5
030C0:  BRA    30C6
030C2:  BCF    F8B.0
030C4:  BRA    30C8
030C6:  BSF    F8B.0
030C8:  BCF    F94.0
....................          } 
....................          lcd_gotoxy(13,2); 
030CA:  MOVLW  0D
030CC:  MOVLB  2
030CE:  MOVWF  x7A
030D0:  MOVLW  02
030D2:  MOVWF  x7B
030D4:  MOVLB  0
030D6:  CALL   0BFC
....................          printf(lcd_putc,"%s",estado[eDesfogue]); 
030DA:  MOVLW  00
030DC:  BTFSC  1A.5
030DE:  MOVLW  01
030E0:  MULLW  04
030E2:  MOVF   FF3,W
030E4:  CLRF   03
030E6:  MOVLB  2
030E8:  MOVWF  x6C
030EA:  MOVLW  74
030EC:  MOVWF  FF6
030EE:  MOVLW  01
030F0:  MOVWF  FF7
030F2:  MOVLW  00
030F4:  MOVWF  FF8
030F6:  MOVF   x6C,W
030F8:  ADDWF  FF6,F
030FA:  MOVLW  00
030FC:  ADDWFC FF7,F
030FE:  MOVLB  0
03100:  CALL   0CF2
....................       }else if(Test==2){ 
03104:  BRA    33E0
03106:  MOVLB  1
03108:  MOVF   xCF,W
0310A:  SUBLW  02
0310C:  BNZ   3182
....................          if(START){ 
0310E:  BSF    F93.2
03110:  BTFSC  F81.2
03112:  BRA    3144
....................             delay_ms(500); 
03114:  MOVLW  02
03116:  MOVLB  2
03118:  MOVWF  x6C
0311A:  MOVLW  FA
0311C:  MOVWF  x7F
0311E:  MOVLB  0
03120:  CALL   046E
03124:  MOVLB  2
03126:  DECFSZ x6C,F
03128:  BRA    311A
....................             eLlenado=!eLlenado; 
0312A:  BTG    1A.6
....................             output_bit(PIN_C1,eLlenado); 
0312C:  BTFSC  1A.6
0312E:  BRA    3134
03130:  BCF    F8B.1
03132:  BRA    3136
03134:  BSF    F8B.1
03136:  BCF    F94.1
....................             output_bit(PIN_C3,eLlenado); 
03138:  BTFSC  1A.6
0313A:  BRA    3140
0313C:  BCF    F8B.3
0313E:  BRA    3142
03140:  BSF    F8B.3
03142:  BCF    F94.3
....................          } 
....................          lcd_gotoxy(13,2); 
03144:  MOVLW  0D
03146:  MOVLB  2
03148:  MOVWF  x7A
0314A:  MOVLW  02
0314C:  MOVWF  x7B
0314E:  MOVLB  0
03150:  CALL   0BFC
....................          printf(lcd_putc,"%s",estado[eLlenado]); 
03154:  MOVLW  00
03156:  BTFSC  1A.6
03158:  MOVLW  01
0315A:  MULLW  04
0315C:  MOVF   FF3,W
0315E:  CLRF   03
03160:  MOVLB  2
03162:  MOVWF  x6C
03164:  MOVLW  74
03166:  MOVWF  FF6
03168:  MOVLW  01
0316A:  MOVWF  FF7
0316C:  MOVLW  00
0316E:  MOVWF  FF8
03170:  MOVF   x6C,W
03172:  ADDWF  FF6,F
03174:  MOVLW  00
03176:  ADDWFC FF7,F
03178:  MOVLB  0
0317A:  CALL   0CF2
....................       }else if(Test==3){ 
0317E:  BRA    33E0
03180:  MOVLB  1
03182:  MOVF   xCF,W
03184:  SUBLW  03
03186:  BNZ   31F0
....................          if(START){ 
03188:  BSF    F93.2
0318A:  BTFSC  F81.2
0318C:  BRA    31B2
....................             delay_ms(500); 
0318E:  MOVLW  02
03190:  MOVLB  2
03192:  MOVWF  x6C
03194:  MOVLW  FA
03196:  MOVWF  x7F
03198:  MOVLB  0
0319A:  CALL   046E
0319E:  MOVLB  2
031A0:  DECFSZ x6C,F
031A2:  BRA    3194
....................             eSolenoide=!eSolenoide; 
031A4:  BTG    1A.7
....................             output_bit(PIN_C2,eSolenoide); 
031A6:  BTFSC  1A.7
031A8:  BRA    31AE
031AA:  BCF    F8B.2
031AC:  BRA    31B0
031AE:  BSF    F8B.2
031B0:  BCF    F94.2
....................          } 
....................          lcd_gotoxy(13,2); 
031B2:  MOVLW  0D
031B4:  MOVLB  2
031B6:  MOVWF  x7A
031B8:  MOVLW  02
031BA:  MOVWF  x7B
031BC:  MOVLB  0
031BE:  CALL   0BFC
....................          printf(lcd_putc,"%s",estado[eSolenoide]); 
031C2:  MOVLW  00
031C4:  BTFSC  1A.7
031C6:  MOVLW  01
031C8:  MULLW  04
031CA:  MOVF   FF3,W
031CC:  CLRF   03
031CE:  MOVLB  2
031D0:  MOVWF  x6C
031D2:  MOVLW  74
031D4:  MOVWF  FF6
031D6:  MOVLW  01
031D8:  MOVWF  FF7
031DA:  MOVLW  00
031DC:  MOVWF  FF8
031DE:  MOVF   x6C,W
031E0:  ADDWF  FF6,F
031E2:  MOVLW  00
031E4:  ADDWFC FF7,F
031E6:  MOVLB  0
031E8:  CALL   0CF2
....................       }else if(Test==4){ 
031EC:  BRA    33E0
031EE:  MOVLB  1
031F0:  MOVF   xCF,W
031F2:  SUBLW  04
031F4:  BNZ   325E
....................          if(START){ 
031F6:  BSF    F93.2
031F8:  BTFSC  F81.2
031FA:  BRA    3220
....................             delay_ms(500); 
031FC:  MOVLW  02
031FE:  MOVLB  2
03200:  MOVWF  x6C
03202:  MOVLW  FA
03204:  MOVWF  x7F
03206:  MOVLB  0
03208:  CALL   046E
0320C:  MOVLB  2
0320E:  DECFSZ x6C,F
03210:  BRA    3202
....................             eSSR=!eSSR;             
03212:  BTG    1B.0
....................             output_bit(PIN_E2,eSSR); 
03214:  BTFSC  1B.0
03216:  BRA    321C
03218:  BCF    F8D.2
0321A:  BRA    321E
0321C:  BSF    F8D.2
0321E:  BCF    F96.2
....................          } 
....................          lcd_gotoxy(13,2); 
03220:  MOVLW  0D
03222:  MOVLB  2
03224:  MOVWF  x7A
03226:  MOVLW  02
03228:  MOVWF  x7B
0322A:  MOVLB  0
0322C:  CALL   0BFC
....................          printf(lcd_putc,"%s",estado[eSSR]); 
03230:  MOVLW  00
03232:  BTFSC  1B.0
03234:  MOVLW  01
03236:  MULLW  04
03238:  MOVF   FF3,W
0323A:  CLRF   03
0323C:  MOVLB  2
0323E:  MOVWF  x6C
03240:  MOVLW  74
03242:  MOVWF  FF6
03244:  MOVLW  01
03246:  MOVWF  FF7
03248:  MOVLW  00
0324A:  MOVWF  FF8
0324C:  MOVF   x6C,W
0324E:  ADDWF  FF6,F
03250:  MOVLW  00
03252:  ADDWFC FF7,F
03254:  MOVLB  0
03256:  CALL   0CF2
....................       }else if(Test==5){ 
0325A:  BRA    33E0
0325C:  MOVLB  1
0325E:  MOVF   xCF,W
03260:  SUBLW  05
03262:  BNZ   32CC
....................          if(START){ 
03264:  BSF    F93.2
03266:  BTFSC  F81.2
03268:  BRA    328E
....................             delay_ms(500); 
0326A:  MOVLW  02
0326C:  MOVLB  2
0326E:  MOVWF  x6C
03270:  MOVLW  FA
03272:  MOVWF  x7F
03274:  MOVLB  0
03276:  CALL   046E
0327A:  MOVLB  2
0327C:  DECFSZ x6C,F
0327E:  BRA    3270
....................             eBuzzer=!eBuzzer; 
03280:  BTG    1B.1
....................             output_bit(PIN_C4,eBuzzer); 
03282:  BTFSC  1B.1
03284:  BRA    328A
03286:  BCF    F8B.4
03288:  BRA    328C
0328A:  BSF    F8B.4
0328C:  BCF    F94.4
....................          } 
....................          lcd_gotoxy(13,2); 
0328E:  MOVLW  0D
03290:  MOVLB  2
03292:  MOVWF  x7A
03294:  MOVLW  02
03296:  MOVWF  x7B
03298:  MOVLB  0
0329A:  CALL   0BFC
....................          printf(lcd_putc,"%s",estado[eBuzzer]); 
0329E:  MOVLW  00
032A0:  BTFSC  1B.1
032A2:  MOVLW  01
032A4:  MULLW  04
032A6:  MOVF   FF3,W
032A8:  CLRF   03
032AA:  MOVLB  2
032AC:  MOVWF  x6C
032AE:  MOVLW  74
032B0:  MOVWF  FF6
032B2:  MOVLW  01
032B4:  MOVWF  FF7
032B6:  MOVLW  00
032B8:  MOVWF  FF8
032BA:  MOVF   x6C,W
032BC:  ADDWF  FF6,F
032BE:  MOVLW  00
032C0:  ADDWFC FF7,F
032C2:  MOVLB  0
032C4:  CALL   0CF2
....................       }else if(Test==6){ 
032C8:  BRA    33E0
032CA:  MOVLB  1
032CC:  MOVF   xCF,W
032CE:  SUBLW  06
032D0:  BNZ   3312
....................          lcd_gotoxy(13,2); 
032D2:  MOVLW  0D
032D4:  MOVLB  2
032D6:  MOVWF  x7A
032D8:  MOVLW  02
032DA:  MOVWF  x7B
032DC:  MOVLB  0
032DE:  CALL   0BFC
....................          printf(lcd_putc,"%s",estado[!DOOR]); 
032E2:  BSF    F92.4
032E4:  MOVLW  00
032E6:  BTFSS  F80.4
032E8:  MOVLW  01
032EA:  MULLW  04
032EC:  MOVF   FF3,W
032EE:  CLRF   03
032F0:  MOVLB  2
032F2:  MOVWF  x6C
032F4:  MOVLW  74
032F6:  MOVWF  FF6
032F8:  MOVLW  01
032FA:  MOVWF  FF7
032FC:  MOVLW  00
032FE:  MOVWF  FF8
03300:  MOVF   x6C,W
03302:  ADDWF  FF6,F
03304:  MOVLW  00
03306:  ADDWFC FF7,F
03308:  MOVLB  0
0330A:  CALL   0CF2
....................       }else if(Test==7){ 
0330E:  BRA    33E0
03310:  MOVLB  1
03312:  MOVF   xCF,W
03314:  SUBLW  07
03316:  BNZ   3358
....................          lcd_gotoxy(13,2); 
03318:  MOVLW  0D
0331A:  MOVLB  2
0331C:  MOVWF  x7A
0331E:  MOVLW  02
03320:  MOVWF  x7B
03322:  MOVLB  0
03324:  CALL   0BFC
....................          printf(lcd_putc,"%s",estado[!RESR]); 
03328:  BSF    F92.5
0332A:  MOVLW  00
0332C:  BTFSS  F80.5
0332E:  MOVLW  01
03330:  MULLW  04
03332:  MOVF   FF3,W
03334:  CLRF   03
03336:  MOVLB  2
03338:  MOVWF  x6C
0333A:  MOVLW  74
0333C:  MOVWF  FF6
0333E:  MOVLW  01
03340:  MOVWF  FF7
03342:  MOVLW  00
03344:  MOVWF  FF8
03346:  MOVF   x6C,W
03348:  ADDWF  FF6,F
0334A:  MOVLW  00
0334C:  ADDWFC FF7,F
0334E:  MOVLB  0
03350:  CALL   0CF2
....................       }else if(Test==8){ 
03354:  BRA    33E0
03356:  MOVLB  1
03358:  MOVF   xCF,W
0335A:  SUBLW  08
0335C:  BNZ   339E
....................          lcd_gotoxy(13,2); 
0335E:  MOVLW  0D
03360:  MOVLB  2
03362:  MOVWF  x7A
03364:  MOVLW  02
03366:  MOVWF  x7B
03368:  MOVLB  0
0336A:  CALL   0BFC
....................          printf(lcd_putc,"%s",estado[!TERM]); 
0336E:  BSF    F92.3
03370:  MOVLW  00
03372:  BTFSC  F80.3
03374:  MOVLW  01
03376:  MULLW  04
03378:  MOVF   FF3,W
0337A:  CLRF   03
0337C:  MOVLB  2
0337E:  MOVWF  x6C
03380:  MOVLW  74
03382:  MOVWF  FF6
03384:  MOVLW  01
03386:  MOVWF  FF7
03388:  MOVLW  00
0338A:  MOVWF  FF8
0338C:  MOVF   x6C,W
0338E:  ADDWF  FF6,F
03390:  MOVLW  00
03392:  ADDWFC FF7,F
03394:  MOVLB  0
03396:  CALL   0CF2
....................       }else if(Test==9){ 
0339A:  BRA    33E0
0339C:  MOVLB  1
0339E:  MOVF   xCF,W
033A0:  SUBLW  09
033A2:  BNZ   33E2
....................          lcd_gotoxy(13,2); 
033A4:  MOVLW  0D
033A6:  MOVLB  2
033A8:  MOVWF  x7A
033AA:  MOVLW  02
033AC:  MOVWF  x7B
033AE:  MOVLB  0
033B0:  CALL   0BFC
....................          printf(lcd_putc,"%s",estado[LOW]); 
033B4:  BSF    F92.2
033B6:  MOVLW  00
033B8:  BTFSS  F80.2
033BA:  MOVLW  01
033BC:  MULLW  04
033BE:  MOVF   FF3,W
033C0:  CLRF   03
033C2:  MOVLB  2
033C4:  MOVWF  x6C
033C6:  MOVLW  74
033C8:  MOVWF  FF6
033CA:  MOVLW  01
033CC:  MOVWF  FF7
033CE:  MOVLW  00
033D0:  MOVWF  FF8
033D2:  MOVF   x6C,W
033D4:  ADDWF  FF6,F
033D6:  MOVLW  00
033D8:  ADDWFC FF7,F
033DA:  MOVLB  0
033DC:  CALL   0CF2
033E0:  MOVLB  1
033E2:  MOVLB  2
....................       } 
....................    } 
.................... //_--------------------------------------------------------------------------------------------------------------------------------------------------------        
....................  
.................... //_-------------------------------------------------------------------------------------------------------------------------------------------------------- 
....................    if(Menu==2){ //Menu Parametros. 
033E4:  MOVF   x27,W
033E6:  SUBLW  02
033E8:  BTFSS  FD8.2
033EA:  GOTO   3F96
....................       lcd_gotoxy(1,1); 
033EE:  MOVLW  01
033F0:  MOVWF  x7A
033F2:  MOVWF  x7B
033F4:  MOVLB  0
033F6:  CALL   0BFC
....................       printf(lcd_putc,"%s",Cycles[Programa-1]); 
033FA:  MOVLW  01
033FC:  MOVLB  1
033FE:  SUBWF  xC6,W
03400:  MULLW  0C
03402:  MOVF   FF3,W
03404:  CLRF   03
03406:  MOVLB  2
03408:  MOVWF  x6C
0340A:  MOVLW  CC
0340C:  MOVWF  FF6
0340E:  MOVLW  00
03410:  MOVWF  FF7
03412:  MOVLW  00
03414:  MOVWF  FF8
03416:  MOVF   x6C,W
03418:  ADDWF  FF6,F
0341A:  MOVLW  00
0341C:  ADDWFC FF7,F
0341E:  MOVLB  0
03420:  CALL   0CF2
....................       if(!Codigo){ 
03424:  BTFSC  1B.2
03426:  BRA    34E0
....................          lcd_gotoxy(1,2); 
03428:  MOVLW  01
0342A:  MOVLB  2
0342C:  MOVWF  x7A
0342E:  MOVLW  02
03430:  MOVWF  x7B
03432:  MOVLB  0
03434:  CALL   0BFC
....................          printf(lcd_putc,"CODE:%03u",code); 
03438:  MOVLW  5C
0343A:  MOVWF  FF6
0343C:  MOVLW  03
0343E:  MOVWF  FF7
03440:  MOVLW  00
03442:  MOVWF  FF8
03444:  MOVLW  05
03446:  MOVLB  2
03448:  MOVWF  x6F
0344A:  MOVLB  0
0344C:  CALL   1C26
03450:  MOVFF  221,26F
03454:  MOVLW  03
03456:  MOVLB  2
03458:  MOVWF  x70
0345A:  MOVLB  0
0345C:  CALL   1BA4
....................           
....................          if(UP){ 
03460:  BTFSS  1A.4
03462:  BRA    3472
....................             code++; 
03464:  MOVLB  2
03466:  INCF   x21,F
....................             delay_ms(100); 
03468:  MOVLW  64
0346A:  MOVWF  x7F
0346C:  MOVLB  0
0346E:  CALL   046E
....................          } 
....................           
....................          if(DOWN){ 
03472:  BSF    F93.3
03474:  BTFSC  F81.3
03476:  BRA    348A
....................             if(code>0) 
03478:  MOVLB  2
0347A:  MOVF   x21,F
0347C:  BZ    3480
....................                code--; 
0347E:  DECF   x21,F
....................             delay_ms(100); 
03480:  MOVLW  64
03482:  MOVWF  x7F
03484:  MOVLB  0
03486:  CALL   046E
....................          } 
....................           
....................          if(PROGRAM){ 
0348A:  BTFSS  1A.2
0348C:  BRA    34DC
....................             if(code==1) { 
0348E:  MOVLB  2
03490:  DECFSZ x21,W
03492:  BRA    34A4
....................                Codigo=ON; 
03494:  BSF    1B.2
....................                printf(lcd_putc,"\f"); 
03496:  MOVLW  0C
03498:  MOVWF  x79
0349A:  MOVLB  0
0349C:  CALL   0C74
....................             }else if(code==11){ 
034A0:  BRA    34DC
034A2:  MOVLB  2
034A4:  MOVF   x21,W
034A6:  SUBLW  0B
034A8:  BNZ   34BA
....................                Codigo=ON; 
034AA:  BSF    1B.2
....................                printf(lcd_putc,"\f"); 
034AC:  MOVLW  0C
034AE:  MOVWF  x79
034B0:  MOVLB  0
034B2:  CALL   0C74
....................             }else if(code==33){ 
034B6:  BRA    34DC
034B8:  MOVLB  2
034BA:  MOVF   x21,W
034BC:  SUBLW  21
034BE:  BNZ   34D0
....................                Codigo=ON; 
034C0:  BSF    1B.2
....................                printf(lcd_putc,"\f"); 
034C2:  MOVLW  0C
034C4:  MOVWF  x79
034C6:  MOVLB  0
034C8:  CALL   0C74
....................             }else{ 
034CC:  BRA    34DC
034CE:  MOVLB  2
....................                code=0; 
034D0:  CLRF   x21
....................                printf(lcd_putc,"\f"); 
034D2:  MOVLW  0C
034D4:  MOVWF  x79
034D6:  MOVLB  0
034D8:  CALL   0C74
....................             } 
....................          } 
....................       }else{ 
034DC:  GOTO   3F94
....................          if(code==1){  
034E0:  MOVLB  2
034E2:  DECFSZ x21,W
034E4:  BRA    3974
....................             if(Parametro>3) 
034E6:  MOVF   x22,W
034E8:  SUBLW  03
034EA:  BC    34F0
....................                Parametro=1; 
034EC:  MOVLW  01
034EE:  MOVWF  x22
....................              
....................             if(Parametro==1){ 
034F0:  DECFSZ x22,W
034F2:  BRA    3676
....................                if(Set[Programa-1]<60)Set[Programa-1]=60; 
034F4:  MOVLW  01
034F6:  MOVLB  1
034F8:  SUBWF  xC6,W
034FA:  CLRF   03
034FC:  ADDLW  58
034FE:  MOVWF  FE9
03500:  MOVLW  02
03502:  ADDWFC 03,W
03504:  MOVWF  FEA
03506:  MOVF   FEF,W
03508:  SUBLW  3B
0350A:  BNC   3520
0350C:  MOVLW  01
0350E:  SUBWF  xC6,W
03510:  CLRF   03
03512:  ADDLW  58
03514:  MOVWF  FE9
03516:  MOVLW  02
03518:  ADDWFC 03,W
0351A:  MOVWF  FEA
0351C:  MOVLW  3C
0351E:  MOVWF  FEF
....................                if(Set[Programa-1]>137)Set[Programa-1]=137; 
03520:  MOVLW  01
03522:  SUBWF  xC6,W
03524:  CLRF   03
03526:  ADDLW  58
03528:  MOVWF  FE9
0352A:  MOVLW  02
0352C:  ADDWFC 03,W
0352E:  MOVWF  FEA
03530:  MOVF   FEF,W
03532:  SUBLW  89
03534:  BC    354A
03536:  MOVLW  01
03538:  SUBWF  xC6,W
0353A:  CLRF   03
0353C:  ADDLW  58
0353E:  MOVWF  FE9
03540:  MOVLW  02
03542:  ADDWFC 03,W
03544:  MOVWF  FEA
03546:  MOVLW  89
03548:  MOVWF  FEF
....................  
....................                lcd_gotoxy(1,2); 
0354A:  MOVLW  01
0354C:  MOVLB  2
0354E:  MOVWF  x7A
03550:  MOVLW  02
03552:  MOVWF  x7B
03554:  MOVLB  0
03556:  CALL   0BFC
....................                printf(lcd_putc,"SteTemp   %03u ",Set[Programa-1]); 
0355A:  MOVLW  01
0355C:  MOVLB  1
0355E:  SUBWF  xC6,W
03560:  CLRF   03
03562:  ADDLW  58
03564:  MOVWF  FE9
03566:  MOVLW  02
03568:  ADDWFC 03,W
0356A:  MOVWF  FEA
0356C:  MOVFF  FEF,26C
03570:  MOVLW  66
03572:  MOVWF  FF6
03574:  MOVLW  03
03576:  MOVWF  FF7
03578:  MOVLW  00
0357A:  MOVWF  FF8
0357C:  MOVLW  0A
0357E:  MOVLB  2
03580:  MOVWF  x6F
03582:  MOVLB  0
03584:  CALL   1C26
03588:  MOVFF  26C,26F
0358C:  MOVLW  03
0358E:  MOVLB  2
03590:  MOVWF  x70
03592:  MOVLB  0
03594:  CALL   1BA4
03598:  MOVLW  20
0359A:  MOVLB  2
0359C:  MOVWF  x79
0359E:  MOVLB  0
035A0:  CALL   0C74
....................                if(UP){ 
035A4:  BTFSS  1A.4
035A6:  BRA    35C8
....................                   Set[Programa-1]++; 
035A8:  MOVLW  01
035AA:  MOVLB  1
035AC:  SUBWF  xC6,W
035AE:  CLRF   03
035B0:  ADDLW  58
035B2:  MOVWF  FE9
035B4:  MOVLW  02
035B6:  ADDWFC 03,W
035B8:  MOVWF  FEA
035BA:  INCF   FEF,F
....................                   delay_ms(100); 
035BC:  MOVLW  64
035BE:  MOVLB  2
035C0:  MOVWF  x7F
035C2:  MOVLB  0
035C4:  CALL   046E
....................                } 
....................              
....................                if(DOWN){ 
035C8:  BSF    F93.3
035CA:  BTFSC  F81.3
035CC:  BRA    35EE
....................                   Set[Programa-1]--; 
035CE:  MOVLW  01
035D0:  MOVLB  1
035D2:  SUBWF  xC6,W
035D4:  CLRF   03
035D6:  ADDLW  58
035D8:  MOVWF  FE9
035DA:  MOVLW  02
035DC:  ADDWFC 03,W
035DE:  MOVWF  FEA
035E0:  DECF   FEF,F
....................                   delay_ms(100); 
035E2:  MOVLW  64
035E4:  MOVLB  2
035E6:  MOVWF  x7F
035E8:  MOVLB  0
035EA:  CALL   046E
....................                } 
....................                 
....................                if(PROGRAM){ 
035EE:  BTFSS  1A.2
035F0:  BRA    3672
....................                   write_eeprom(100+((Programa-1)*4),Set[Programa-1]); 
035F2:  MOVLW  01
035F4:  MOVLB  1
035F6:  SUBWF  xC6,W
035F8:  MULLW  04
035FA:  MOVF   FF3,W
035FC:  ADDLW  64
035FE:  MOVLB  2
03600:  MOVWF  x6C
03602:  MOVLW  01
03604:  MOVLB  1
03606:  SUBWF  xC6,W
03608:  CLRF   03
0360A:  ADDLW  58
0360C:  MOVWF  FE9
0360E:  MOVLW  02
03610:  ADDWFC 03,W
03612:  MOVWF  FEA
03614:  MOVFF  FEF,26D
03618:  CLRF   FAA
0361A:  MOVFF  26C,FA9
0361E:  MOVFF  26D,FA8
03622:  BCF    FA6.6
03624:  BCF    FA6.7
03626:  BSF    FA6.2
03628:  MOVF   FF2,W
0362A:  MOVWF  00
0362C:  BCF    FF2.7
0362E:  MOVLB  F
03630:  MOVLW  55
03632:  MOVWF  FA7
03634:  MOVLW  AA
03636:  MOVWF  FA7
03638:  BSF    FA6.1
0363A:  BTFSC  FA6.1
0363C:  BRA    363A
0363E:  BCF    FA6.2
03640:  MOVF   00,W
03642:  IORWF  FF2,F
....................                   delay_ms(20); 
03644:  MOVLW  14
03646:  MOVLB  2
03648:  MOVWF  x7F
0364A:  MOVLB  0
0364C:  CALL   046E
....................                   Buzzer_on; 
03650:  BSF    F8B.4
03652:  BCF    F94.4
....................                   delay_ms(100); 
03654:  MOVLW  64
03656:  MOVLB  2
03658:  MOVWF  x7F
0365A:  MOVLB  0
0365C:  CALL   046E
....................                   Buzzer_off; 
03660:  BCF    F8B.4
03662:  BCF    F94.4
....................                   Parametro++; 
03664:  MOVLB  2
03666:  INCF   x22,F
....................                   printf(lcd_putc,"\f"); 
03668:  MOVLW  0C
0366A:  MOVWF  x79
0366C:  MOVLB  0
0366E:  CALL   0C74
....................                } 
....................             }else if(Parametro==2){ 
03672:  BRA    3970
03674:  MOVLB  2
03676:  MOVF   x22,W
03678:  SUBLW  02
0367A:  BTFSS  FD8.2
0367C:  BRA    3800
....................                if(Time[Programa-1]<3)Time[Programa-1]=3; 
0367E:  MOVLW  01
03680:  MOVLB  1
03682:  SUBWF  xC6,W
03684:  CLRF   03
03686:  ADDLW  5D
03688:  MOVWF  FE9
0368A:  MOVLW  02
0368C:  ADDWFC 03,W
0368E:  MOVWF  FEA
03690:  MOVF   FEF,W
03692:  SUBLW  02
03694:  BNC   36AA
03696:  MOVLW  01
03698:  SUBWF  xC6,W
0369A:  CLRF   03
0369C:  ADDLW  5D
0369E:  MOVWF  FE9
036A0:  MOVLW  02
036A2:  ADDWFC 03,W
036A4:  MOVWF  FEA
036A6:  MOVLW  03
036A8:  MOVWF  FEF
....................                if(Time[Programa-1]>99)Time[Programa-1]=99; 
036AA:  MOVLW  01
036AC:  SUBWF  xC6,W
036AE:  CLRF   03
036B0:  ADDLW  5D
036B2:  MOVWF  FE9
036B4:  MOVLW  02
036B6:  ADDWFC 03,W
036B8:  MOVWF  FEA
036BA:  MOVF   FEF,W
036BC:  SUBLW  63
036BE:  BC    36D4
036C0:  MOVLW  01
036C2:  SUBWF  xC6,W
036C4:  CLRF   03
036C6:  ADDLW  5D
036C8:  MOVWF  FE9
036CA:  MOVLW  02
036CC:  ADDWFC 03,W
036CE:  MOVWF  FEA
036D0:  MOVLW  63
036D2:  MOVWF  FEF
....................  
....................                lcd_gotoxy(1,2); 
036D4:  MOVLW  01
036D6:  MOVLB  2
036D8:  MOVWF  x7A
036DA:  MOVLW  02
036DC:  MOVWF  x7B
036DE:  MOVLB  0
036E0:  CALL   0BFC
....................                printf(lcd_putc,"SteTime   %03u ",Time[Programa-1]); 
036E4:  MOVLW  01
036E6:  MOVLB  1
036E8:  SUBWF  xC6,W
036EA:  CLRF   03
036EC:  ADDLW  5D
036EE:  MOVWF  FE9
036F0:  MOVLW  02
036F2:  ADDWFC 03,W
036F4:  MOVWF  FEA
036F6:  MOVFF  FEF,26C
036FA:  MOVLW  76
036FC:  MOVWF  FF6
036FE:  MOVLW  03
03700:  MOVWF  FF7
03702:  MOVLW  00
03704:  MOVWF  FF8
03706:  MOVLW  0A
03708:  MOVLB  2
0370A:  MOVWF  x6F
0370C:  MOVLB  0
0370E:  CALL   1C26
03712:  MOVFF  26C,26F
03716:  MOVLW  03
03718:  MOVLB  2
0371A:  MOVWF  x70
0371C:  MOVLB  0
0371E:  CALL   1BA4
03722:  MOVLW  20
03724:  MOVLB  2
03726:  MOVWF  x79
03728:  MOVLB  0
0372A:  CALL   0C74
....................                if(UP){ 
0372E:  BTFSS  1A.4
03730:  BRA    3752
....................                   Time[Programa-1]++; 
03732:  MOVLW  01
03734:  MOVLB  1
03736:  SUBWF  xC6,W
03738:  CLRF   03
0373A:  ADDLW  5D
0373C:  MOVWF  FE9
0373E:  MOVLW  02
03740:  ADDWFC 03,W
03742:  MOVWF  FEA
03744:  INCF   FEF,F
....................                   delay_ms(100); 
03746:  MOVLW  64
03748:  MOVLB  2
0374A:  MOVWF  x7F
0374C:  MOVLB  0
0374E:  CALL   046E
....................                } 
....................              
....................                if(DOWN){ 
03752:  BSF    F93.3
03754:  BTFSC  F81.3
03756:  BRA    3778
....................                   Time[Programa-1]--;             
03758:  MOVLW  01
0375A:  MOVLB  1
0375C:  SUBWF  xC6,W
0375E:  CLRF   03
03760:  ADDLW  5D
03762:  MOVWF  FE9
03764:  MOVLW  02
03766:  ADDWFC 03,W
03768:  MOVWF  FEA
0376A:  DECF   FEF,F
....................                   delay_ms(100); 
0376C:  MOVLW  64
0376E:  MOVLB  2
03770:  MOVWF  x7F
03772:  MOVLB  0
03774:  CALL   046E
....................                } 
....................                 
....................                if(PROGRAM){ 
03778:  BTFSS  1A.2
0377A:  BRA    37FC
....................                   write_eeprom(101+((Programa-1)*4),Time[Programa-1]); 
0377C:  MOVLW  01
0377E:  MOVLB  1
03780:  SUBWF  xC6,W
03782:  MULLW  04
03784:  MOVF   FF3,W
03786:  ADDLW  65
03788:  MOVLB  2
0378A:  MOVWF  x6C
0378C:  MOVLW  01
0378E:  MOVLB  1
03790:  SUBWF  xC6,W
03792:  CLRF   03
03794:  ADDLW  5D
03796:  MOVWF  FE9
03798:  MOVLW  02
0379A:  ADDWFC 03,W
0379C:  MOVWF  FEA
0379E:  MOVFF  FEF,26D
037A2:  CLRF   FAA
037A4:  MOVFF  26C,FA9
037A8:  MOVFF  26D,FA8
037AC:  BCF    FA6.6
037AE:  BCF    FA6.7
037B0:  BSF    FA6.2
037B2:  MOVF   FF2,W
037B4:  MOVWF  00
037B6:  BCF    FF2.7
037B8:  MOVLB  F
037BA:  MOVLW  55
037BC:  MOVWF  FA7
037BE:  MOVLW  AA
037C0:  MOVWF  FA7
037C2:  BSF    FA6.1
037C4:  BTFSC  FA6.1
037C6:  BRA    37C4
037C8:  BCF    FA6.2
037CA:  MOVF   00,W
037CC:  IORWF  FF2,F
....................                   delay_ms(20); 
037CE:  MOVLW  14
037D0:  MOVLB  2
037D2:  MOVWF  x7F
037D4:  MOVLB  0
037D6:  CALL   046E
....................                   Buzzer_on; 
037DA:  BSF    F8B.4
037DC:  BCF    F94.4
....................                   delay_ms(100); 
037DE:  MOVLW  64
037E0:  MOVLB  2
037E2:  MOVWF  x7F
037E4:  MOVLB  0
037E6:  CALL   046E
....................                   Buzzer_off; 
037EA:  BCF    F8B.4
037EC:  BCF    F94.4
....................                   Parametro++; 
037EE:  MOVLB  2
037F0:  INCF   x22,F
....................                   printf(lcd_putc,"\f"); 
037F2:  MOVLW  0C
037F4:  MOVWF  x79
037F6:  MOVLB  0
037F8:  CALL   0C74
....................                } 
....................             }else if(Parametro==3){ 
037FC:  BRA    3970
037FE:  MOVLB  2
03800:  MOVF   x22,W
03802:  SUBLW  03
03804:  BTFSS  FD8.2
03806:  BRA    3972
....................                if(TimeS[Programa-1]>99)TimeS[Programa-1]=99; 
03808:  MOVLW  01
0380A:  MOVLB  1
0380C:  SUBWF  xC6,W
0380E:  CLRF   03
03810:  ADDLW  62
03812:  MOVWF  FE9
03814:  MOVLW  02
03816:  ADDWFC 03,W
03818:  MOVWF  FEA
0381A:  MOVF   FEF,W
0381C:  SUBLW  63
0381E:  BC    3834
03820:  MOVLW  01
03822:  SUBWF  xC6,W
03824:  CLRF   03
03826:  ADDLW  62
03828:  MOVWF  FE9
0382A:  MOVLW  02
0382C:  ADDWFC 03,W
0382E:  MOVWF  FEA
03830:  MOVLW  63
03832:  MOVWF  FEF
....................  
....................                lcd_gotoxy(1,2); 
03834:  MOVLW  01
03836:  MOVLB  2
03838:  MOVWF  x7A
0383A:  MOVLW  02
0383C:  MOVWF  x7B
0383E:  MOVLB  0
03840:  CALL   0BFC
....................                printf(lcd_putc,"Dry Time   %03u ",TimeS[Programa-1]); 
03844:  MOVLW  01
03846:  MOVLB  1
03848:  SUBWF  xC6,W
0384A:  CLRF   03
0384C:  ADDLW  62
0384E:  MOVWF  FE9
03850:  MOVLW  02
03852:  ADDWFC 03,W
03854:  MOVWF  FEA
03856:  MOVFF  FEF,26C
0385A:  MOVLW  86
0385C:  MOVWF  FF6
0385E:  MOVLW  03
03860:  MOVWF  FF7
03862:  MOVLW  00
03864:  MOVWF  FF8
03866:  MOVLW  0B
03868:  MOVLB  2
0386A:  MOVWF  x6F
0386C:  MOVLB  0
0386E:  CALL   1C26
03872:  MOVFF  26C,26F
03876:  MOVLW  03
03878:  MOVLB  2
0387A:  MOVWF  x70
0387C:  MOVLB  0
0387E:  CALL   1BA4
03882:  MOVLW  20
03884:  MOVLB  2
03886:  MOVWF  x79
03888:  MOVLB  0
0388A:  CALL   0C74
....................                if(UP){ 
0388E:  BTFSS  1A.4
03890:  BRA    38B2
....................                   TimeS[Programa-1]++; 
03892:  MOVLW  01
03894:  MOVLB  1
03896:  SUBWF  xC6,W
03898:  CLRF   03
0389A:  ADDLW  62
0389C:  MOVWF  FE9
0389E:  MOVLW  02
038A0:  ADDWFC 03,W
038A2:  MOVWF  FEA
038A4:  INCF   FEF,F
....................                   delay_ms(100); 
038A6:  MOVLW  64
038A8:  MOVLB  2
038AA:  MOVWF  x7F
038AC:  MOVLB  0
038AE:  CALL   046E
....................                } 
....................              
....................                if(DOWN){ 
038B2:  BSF    F93.3
038B4:  BTFSC  F81.3
038B6:  BRA    38EC
....................                   if(TimeS[Programa-1]>0) 
038B8:  MOVLW  01
038BA:  MOVLB  1
038BC:  SUBWF  xC6,W
038BE:  CLRF   03
038C0:  ADDLW  62
038C2:  MOVWF  FE9
038C4:  MOVLW  02
038C6:  ADDWFC 03,W
038C8:  MOVWF  FEA
038CA:  MOVF   FEF,F
038CC:  BZ    38E0
....................                      TimeS[Programa-1]--;  
038CE:  MOVLW  01
038D0:  SUBWF  xC6,W
038D2:  CLRF   03
038D4:  ADDLW  62
038D6:  MOVWF  FE9
038D8:  MOVLW  02
038DA:  ADDWFC 03,W
038DC:  MOVWF  FEA
038DE:  DECF   FEF,F
....................                   delay_ms(100);    
038E0:  MOVLW  64
038E2:  MOVLB  2
038E4:  MOVWF  x7F
038E6:  MOVLB  0
038E8:  CALL   046E
....................                } 
....................                if(PROGRAM){ 
038EC:  BTFSS  1A.2
038EE:  BRA    3970
....................                   write_eeprom(102+((Programa-1)*4),TimeS[Programa-1]); 
038F0:  MOVLW  01
038F2:  MOVLB  1
038F4:  SUBWF  xC6,W
038F6:  MULLW  04
038F8:  MOVF   FF3,W
038FA:  ADDLW  66
038FC:  MOVLB  2
038FE:  MOVWF  x6C
03900:  MOVLW  01
03902:  MOVLB  1
03904:  SUBWF  xC6,W
03906:  CLRF   03
03908:  ADDLW  62
0390A:  MOVWF  FE9
0390C:  MOVLW  02
0390E:  ADDWFC 03,W
03910:  MOVWF  FEA
03912:  MOVFF  FEF,26D
03916:  CLRF   FAA
03918:  MOVFF  26C,FA9
0391C:  MOVFF  26D,FA8
03920:  BCF    FA6.6
03922:  BCF    FA6.7
03924:  BSF    FA6.2
03926:  MOVF   FF2,W
03928:  MOVWF  00
0392A:  BCF    FF2.7
0392C:  MOVLB  F
0392E:  MOVLW  55
03930:  MOVWF  FA7
03932:  MOVLW  AA
03934:  MOVWF  FA7
03936:  BSF    FA6.1
03938:  BTFSC  FA6.1
0393A:  BRA    3938
0393C:  BCF    FA6.2
0393E:  MOVF   00,W
03940:  IORWF  FF2,F
....................                   delay_ms(20); 
03942:  MOVLW  14
03944:  MOVLB  2
03946:  MOVWF  x7F
03948:  MOVLB  0
0394A:  CALL   046E
....................                   Buzzer_on; 
0394E:  BSF    F8B.4
03950:  BCF    F94.4
....................                   delay_ms(100); 
03952:  MOVLW  64
03954:  MOVLB  2
03956:  MOVWF  x7F
03958:  MOVLB  0
0395A:  CALL   046E
....................                   Buzzer_off; 
0395E:  BCF    F8B.4
03960:  BCF    F94.4
....................                   Parametro++; 
03962:  MOVLB  2
03964:  INCF   x22,F
....................                   printf(lcd_putc,"\f"); 
03966:  MOVLW  0C
03968:  MOVWF  x79
0396A:  MOVLB  0
0396C:  CALL   0C74
03970:  MOVLB  2
....................                } 
....................             } 
....................          }else if(code==11 || code==33){  
03972:  BRA    3F96
03974:  MOVF   x21,W
03976:  SUBLW  0B
03978:  BZ    3982
0397A:  MOVF   x21,W
0397C:  SUBLW  21
0397E:  BTFSS  FD8.2
03980:  BRA    3F96
....................             if(Parametro>4) 
03982:  MOVF   x22,W
03984:  SUBLW  04
03986:  BC    398C
....................                Parametro=1; 
03988:  MOVLW  01
0398A:  MOVWF  x22
....................              
....................             if(Parametro==1){ 
0398C:  DECFSZ x22,W
0398E:  BRA    3B12
....................                if(Set[Programa-1]<60)Set[Programa-1]=60; 
03990:  MOVLW  01
03992:  MOVLB  1
03994:  SUBWF  xC6,W
03996:  CLRF   03
03998:  ADDLW  58
0399A:  MOVWF  FE9
0399C:  MOVLW  02
0399E:  ADDWFC 03,W
039A0:  MOVWF  FEA
039A2:  MOVF   FEF,W
039A4:  SUBLW  3B
039A6:  BNC   39BC
039A8:  MOVLW  01
039AA:  SUBWF  xC6,W
039AC:  CLRF   03
039AE:  ADDLW  58
039B0:  MOVWF  FE9
039B2:  MOVLW  02
039B4:  ADDWFC 03,W
039B6:  MOVWF  FEA
039B8:  MOVLW  3C
039BA:  MOVWF  FEF
....................                if(Set[Programa-1]>137)Set[Programa-1]=137; 
039BC:  MOVLW  01
039BE:  SUBWF  xC6,W
039C0:  CLRF   03
039C2:  ADDLW  58
039C4:  MOVWF  FE9
039C6:  MOVLW  02
039C8:  ADDWFC 03,W
039CA:  MOVWF  FEA
039CC:  MOVF   FEF,W
039CE:  SUBLW  89
039D0:  BC    39E6
039D2:  MOVLW  01
039D4:  SUBWF  xC6,W
039D6:  CLRF   03
039D8:  ADDLW  58
039DA:  MOVWF  FE9
039DC:  MOVLW  02
039DE:  ADDWFC 03,W
039E0:  MOVWF  FEA
039E2:  MOVLW  89
039E4:  MOVWF  FEF
....................  
....................                lcd_gotoxy(1,2); 
039E6:  MOVLW  01
039E8:  MOVLB  2
039EA:  MOVWF  x7A
039EC:  MOVLW  02
039EE:  MOVWF  x7B
039F0:  MOVLB  0
039F2:  CALL   0BFC
....................                printf(lcd_putc,"SteTemp   %03u ",Set[Programa-1]); 
039F6:  MOVLW  01
039F8:  MOVLB  1
039FA:  SUBWF  xC6,W
039FC:  CLRF   03
039FE:  ADDLW  58
03A00:  MOVWF  FE9
03A02:  MOVLW  02
03A04:  ADDWFC 03,W
03A06:  MOVWF  FEA
03A08:  MOVFF  FEF,26C
03A0C:  MOVLW  98
03A0E:  MOVWF  FF6
03A10:  MOVLW  03
03A12:  MOVWF  FF7
03A14:  MOVLW  00
03A16:  MOVWF  FF8
03A18:  MOVLW  0A
03A1A:  MOVLB  2
03A1C:  MOVWF  x6F
03A1E:  MOVLB  0
03A20:  CALL   1C26
03A24:  MOVFF  26C,26F
03A28:  MOVLW  03
03A2A:  MOVLB  2
03A2C:  MOVWF  x70
03A2E:  MOVLB  0
03A30:  CALL   1BA4
03A34:  MOVLW  20
03A36:  MOVLB  2
03A38:  MOVWF  x79
03A3A:  MOVLB  0
03A3C:  CALL   0C74
....................                if(UP){ 
03A40:  BTFSS  1A.4
03A42:  BRA    3A64
....................                   Set[Programa-1]++; 
03A44:  MOVLW  01
03A46:  MOVLB  1
03A48:  SUBWF  xC6,W
03A4A:  CLRF   03
03A4C:  ADDLW  58
03A4E:  MOVWF  FE9
03A50:  MOVLW  02
03A52:  ADDWFC 03,W
03A54:  MOVWF  FEA
03A56:  INCF   FEF,F
....................                   delay_ms(100); 
03A58:  MOVLW  64
03A5A:  MOVLB  2
03A5C:  MOVWF  x7F
03A5E:  MOVLB  0
03A60:  CALL   046E
....................                } 
....................              
....................                if(DOWN){ 
03A64:  BSF    F93.3
03A66:  BTFSC  F81.3
03A68:  BRA    3A8A
....................                   Set[Programa-1]--; 
03A6A:  MOVLW  01
03A6C:  MOVLB  1
03A6E:  SUBWF  xC6,W
03A70:  CLRF   03
03A72:  ADDLW  58
03A74:  MOVWF  FE9
03A76:  MOVLW  02
03A78:  ADDWFC 03,W
03A7A:  MOVWF  FEA
03A7C:  DECF   FEF,F
....................                   delay_ms(100); 
03A7E:  MOVLW  64
03A80:  MOVLB  2
03A82:  MOVWF  x7F
03A84:  MOVLB  0
03A86:  CALL   046E
....................                } 
....................                 
....................                if(PROGRAM){ 
03A8A:  BTFSS  1A.2
03A8C:  BRA    3B0E
....................                   write_eeprom(100+((Programa-1)*4),Set[Programa-1]); 
03A8E:  MOVLW  01
03A90:  MOVLB  1
03A92:  SUBWF  xC6,W
03A94:  MULLW  04
03A96:  MOVF   FF3,W
03A98:  ADDLW  64
03A9A:  MOVLB  2
03A9C:  MOVWF  x6C
03A9E:  MOVLW  01
03AA0:  MOVLB  1
03AA2:  SUBWF  xC6,W
03AA4:  CLRF   03
03AA6:  ADDLW  58
03AA8:  MOVWF  FE9
03AAA:  MOVLW  02
03AAC:  ADDWFC 03,W
03AAE:  MOVWF  FEA
03AB0:  MOVFF  FEF,26D
03AB4:  CLRF   FAA
03AB6:  MOVFF  26C,FA9
03ABA:  MOVFF  26D,FA8
03ABE:  BCF    FA6.6
03AC0:  BCF    FA6.7
03AC2:  BSF    FA6.2
03AC4:  MOVF   FF2,W
03AC6:  MOVWF  00
03AC8:  BCF    FF2.7
03ACA:  MOVLB  F
03ACC:  MOVLW  55
03ACE:  MOVWF  FA7
03AD0:  MOVLW  AA
03AD2:  MOVWF  FA7
03AD4:  BSF    FA6.1
03AD6:  BTFSC  FA6.1
03AD8:  BRA    3AD6
03ADA:  BCF    FA6.2
03ADC:  MOVF   00,W
03ADE:  IORWF  FF2,F
....................                   delay_ms(20); 
03AE0:  MOVLW  14
03AE2:  MOVLB  2
03AE4:  MOVWF  x7F
03AE6:  MOVLB  0
03AE8:  CALL   046E
....................                   Buzzer_on; 
03AEC:  BSF    F8B.4
03AEE:  BCF    F94.4
....................                   delay_ms(100); 
03AF0:  MOVLW  64
03AF2:  MOVLB  2
03AF4:  MOVWF  x7F
03AF6:  MOVLB  0
03AF8:  CALL   046E
....................                   Buzzer_off; 
03AFC:  BCF    F8B.4
03AFE:  BCF    F94.4
....................                   Parametro++; 
03B00:  MOVLB  2
03B02:  INCF   x22,F
....................                   printf(lcd_putc,"\f"); 
03B04:  MOVLW  0C
03B06:  MOVWF  x79
03B08:  MOVLB  0
03B0A:  CALL   0C74
....................                } 
....................             }else if(Parametro==2){ 
03B0E:  BRA    3F94
03B10:  MOVLB  2
03B12:  MOVF   x22,W
03B14:  SUBLW  02
03B16:  BTFSS  FD8.2
03B18:  BRA    3C9C
....................                if(Time[Programa-1]<3)Time[Programa-1]=3; 
03B1A:  MOVLW  01
03B1C:  MOVLB  1
03B1E:  SUBWF  xC6,W
03B20:  CLRF   03
03B22:  ADDLW  5D
03B24:  MOVWF  FE9
03B26:  MOVLW  02
03B28:  ADDWFC 03,W
03B2A:  MOVWF  FEA
03B2C:  MOVF   FEF,W
03B2E:  SUBLW  02
03B30:  BNC   3B46
03B32:  MOVLW  01
03B34:  SUBWF  xC6,W
03B36:  CLRF   03
03B38:  ADDLW  5D
03B3A:  MOVWF  FE9
03B3C:  MOVLW  02
03B3E:  ADDWFC 03,W
03B40:  MOVWF  FEA
03B42:  MOVLW  03
03B44:  MOVWF  FEF
....................                if(Time[Programa-1]>99)Time[Programa-1]=99; 
03B46:  MOVLW  01
03B48:  SUBWF  xC6,W
03B4A:  CLRF   03
03B4C:  ADDLW  5D
03B4E:  MOVWF  FE9
03B50:  MOVLW  02
03B52:  ADDWFC 03,W
03B54:  MOVWF  FEA
03B56:  MOVF   FEF,W
03B58:  SUBLW  63
03B5A:  BC    3B70
03B5C:  MOVLW  01
03B5E:  SUBWF  xC6,W
03B60:  CLRF   03
03B62:  ADDLW  5D
03B64:  MOVWF  FE9
03B66:  MOVLW  02
03B68:  ADDWFC 03,W
03B6A:  MOVWF  FEA
03B6C:  MOVLW  63
03B6E:  MOVWF  FEF
....................  
....................                lcd_gotoxy(1,2); 
03B70:  MOVLW  01
03B72:  MOVLB  2
03B74:  MOVWF  x7A
03B76:  MOVLW  02
03B78:  MOVWF  x7B
03B7A:  MOVLB  0
03B7C:  CALL   0BFC
....................                printf(lcd_putc,"SteTime   %03u ",Time[Programa-1]); 
03B80:  MOVLW  01
03B82:  MOVLB  1
03B84:  SUBWF  xC6,W
03B86:  CLRF   03
03B88:  ADDLW  5D
03B8A:  MOVWF  FE9
03B8C:  MOVLW  02
03B8E:  ADDWFC 03,W
03B90:  MOVWF  FEA
03B92:  MOVFF  FEF,26C
03B96:  MOVLW  A8
03B98:  MOVWF  FF6
03B9A:  MOVLW  03
03B9C:  MOVWF  FF7
03B9E:  MOVLW  00
03BA0:  MOVWF  FF8
03BA2:  MOVLW  0A
03BA4:  MOVLB  2
03BA6:  MOVWF  x6F
03BA8:  MOVLB  0
03BAA:  CALL   1C26
03BAE:  MOVFF  26C,26F
03BB2:  MOVLW  03
03BB4:  MOVLB  2
03BB6:  MOVWF  x70
03BB8:  MOVLB  0
03BBA:  CALL   1BA4
03BBE:  MOVLW  20
03BC0:  MOVLB  2
03BC2:  MOVWF  x79
03BC4:  MOVLB  0
03BC6:  CALL   0C74
....................                if(UP){ 
03BCA:  BTFSS  1A.4
03BCC:  BRA    3BEE
....................                   Time[Programa-1]++; 
03BCE:  MOVLW  01
03BD0:  MOVLB  1
03BD2:  SUBWF  xC6,W
03BD4:  CLRF   03
03BD6:  ADDLW  5D
03BD8:  MOVWF  FE9
03BDA:  MOVLW  02
03BDC:  ADDWFC 03,W
03BDE:  MOVWF  FEA
03BE0:  INCF   FEF,F
....................                   delay_ms(100); 
03BE2:  MOVLW  64
03BE4:  MOVLB  2
03BE6:  MOVWF  x7F
03BE8:  MOVLB  0
03BEA:  CALL   046E
....................                } 
....................              
....................                if(DOWN){ 
03BEE:  BSF    F93.3
03BF0:  BTFSC  F81.3
03BF2:  BRA    3C14
....................                   Time[Programa-1]--;             
03BF4:  MOVLW  01
03BF6:  MOVLB  1
03BF8:  SUBWF  xC6,W
03BFA:  CLRF   03
03BFC:  ADDLW  5D
03BFE:  MOVWF  FE9
03C00:  MOVLW  02
03C02:  ADDWFC 03,W
03C04:  MOVWF  FEA
03C06:  DECF   FEF,F
....................                   delay_ms(100); 
03C08:  MOVLW  64
03C0A:  MOVLB  2
03C0C:  MOVWF  x7F
03C0E:  MOVLB  0
03C10:  CALL   046E
....................                } 
....................                 
....................                if(PROGRAM){ 
03C14:  BTFSS  1A.2
03C16:  BRA    3C98
....................                   write_eeprom(101+((Programa-1)*4),Time[Programa-1]); 
03C18:  MOVLW  01
03C1A:  MOVLB  1
03C1C:  SUBWF  xC6,W
03C1E:  MULLW  04
03C20:  MOVF   FF3,W
03C22:  ADDLW  65
03C24:  MOVLB  2
03C26:  MOVWF  x6C
03C28:  MOVLW  01
03C2A:  MOVLB  1
03C2C:  SUBWF  xC6,W
03C2E:  CLRF   03
03C30:  ADDLW  5D
03C32:  MOVWF  FE9
03C34:  MOVLW  02
03C36:  ADDWFC 03,W
03C38:  MOVWF  FEA
03C3A:  MOVFF  FEF,26D
03C3E:  CLRF   FAA
03C40:  MOVFF  26C,FA9
03C44:  MOVFF  26D,FA8
03C48:  BCF    FA6.6
03C4A:  BCF    FA6.7
03C4C:  BSF    FA6.2
03C4E:  MOVF   FF2,W
03C50:  MOVWF  00
03C52:  BCF    FF2.7
03C54:  MOVLB  F
03C56:  MOVLW  55
03C58:  MOVWF  FA7
03C5A:  MOVLW  AA
03C5C:  MOVWF  FA7
03C5E:  BSF    FA6.1
03C60:  BTFSC  FA6.1
03C62:  BRA    3C60
03C64:  BCF    FA6.2
03C66:  MOVF   00,W
03C68:  IORWF  FF2,F
....................                   delay_ms(20); 
03C6A:  MOVLW  14
03C6C:  MOVLB  2
03C6E:  MOVWF  x7F
03C70:  MOVLB  0
03C72:  CALL   046E
....................                   Buzzer_on; 
03C76:  BSF    F8B.4
03C78:  BCF    F94.4
....................                   delay_ms(100); 
03C7A:  MOVLW  64
03C7C:  MOVLB  2
03C7E:  MOVWF  x7F
03C80:  MOVLB  0
03C82:  CALL   046E
....................                   Buzzer_off; 
03C86:  BCF    F8B.4
03C88:  BCF    F94.4
....................                   Parametro++; 
03C8A:  MOVLB  2
03C8C:  INCF   x22,F
....................                   printf(lcd_putc,"\f"); 
03C8E:  MOVLW  0C
03C90:  MOVWF  x79
03C92:  MOVLB  0
03C94:  CALL   0C74
....................                } 
....................             }else if(Parametro==3){ 
03C98:  BRA    3F94
03C9A:  MOVLB  2
03C9C:  MOVF   x22,W
03C9E:  SUBLW  03
03CA0:  BTFSS  FD8.2
03CA2:  BRA    3E10
....................                if(TimeS[Programa-1]>99)TimeS[Programa-1]=99; 
03CA4:  MOVLW  01
03CA6:  MOVLB  1
03CA8:  SUBWF  xC6,W
03CAA:  CLRF   03
03CAC:  ADDLW  62
03CAE:  MOVWF  FE9
03CB0:  MOVLW  02
03CB2:  ADDWFC 03,W
03CB4:  MOVWF  FEA
03CB6:  MOVF   FEF,W
03CB8:  SUBLW  63
03CBA:  BC    3CD0
03CBC:  MOVLW  01
03CBE:  SUBWF  xC6,W
03CC0:  CLRF   03
03CC2:  ADDLW  62
03CC4:  MOVWF  FE9
03CC6:  MOVLW  02
03CC8:  ADDWFC 03,W
03CCA:  MOVWF  FEA
03CCC:  MOVLW  63
03CCE:  MOVWF  FEF
....................  
....................                lcd_gotoxy(1,2); 
03CD0:  MOVLW  01
03CD2:  MOVLB  2
03CD4:  MOVWF  x7A
03CD6:  MOVLW  02
03CD8:  MOVWF  x7B
03CDA:  MOVLB  0
03CDC:  CALL   0BFC
....................                printf(lcd_putc,"Dry Time   %03u ",TimeS[Programa-1]); 
03CE0:  MOVLW  01
03CE2:  MOVLB  1
03CE4:  SUBWF  xC6,W
03CE6:  CLRF   03
03CE8:  ADDLW  62
03CEA:  MOVWF  FE9
03CEC:  MOVLW  02
03CEE:  ADDWFC 03,W
03CF0:  MOVWF  FEA
03CF2:  MOVFF  FEF,26C
03CF6:  MOVLW  B8
03CF8:  MOVWF  FF6
03CFA:  MOVLW  03
03CFC:  MOVWF  FF7
03CFE:  MOVLW  00
03D00:  MOVWF  FF8
03D02:  MOVLW  0B
03D04:  MOVLB  2
03D06:  MOVWF  x6F
03D08:  MOVLB  0
03D0A:  CALL   1C26
03D0E:  MOVFF  26C,26F
03D12:  MOVLW  03
03D14:  MOVLB  2
03D16:  MOVWF  x70
03D18:  MOVLB  0
03D1A:  CALL   1BA4
03D1E:  MOVLW  20
03D20:  MOVLB  2
03D22:  MOVWF  x79
03D24:  MOVLB  0
03D26:  CALL   0C74
....................                if(UP){ 
03D2A:  BTFSS  1A.4
03D2C:  BRA    3D4E
....................                   TimeS[Programa-1]++; 
03D2E:  MOVLW  01
03D30:  MOVLB  1
03D32:  SUBWF  xC6,W
03D34:  CLRF   03
03D36:  ADDLW  62
03D38:  MOVWF  FE9
03D3A:  MOVLW  02
03D3C:  ADDWFC 03,W
03D3E:  MOVWF  FEA
03D40:  INCF   FEF,F
....................                   delay_ms(100); 
03D42:  MOVLW  64
03D44:  MOVLB  2
03D46:  MOVWF  x7F
03D48:  MOVLB  0
03D4A:  CALL   046E
....................                } 
....................              
....................                if(DOWN){ 
03D4E:  BSF    F93.3
03D50:  BTFSC  F81.3
03D52:  BRA    3D88
....................                   if(TimeS[Programa-1]>0) 
03D54:  MOVLW  01
03D56:  MOVLB  1
03D58:  SUBWF  xC6,W
03D5A:  CLRF   03
03D5C:  ADDLW  62
03D5E:  MOVWF  FE9
03D60:  MOVLW  02
03D62:  ADDWFC 03,W
03D64:  MOVWF  FEA
03D66:  MOVF   FEF,F
03D68:  BZ    3D7C
....................                      TimeS[Programa-1]--;  
03D6A:  MOVLW  01
03D6C:  SUBWF  xC6,W
03D6E:  CLRF   03
03D70:  ADDLW  62
03D72:  MOVWF  FE9
03D74:  MOVLW  02
03D76:  ADDWFC 03,W
03D78:  MOVWF  FEA
03D7A:  DECF   FEF,F
....................                   delay_ms(100);    
03D7C:  MOVLW  64
03D7E:  MOVLB  2
03D80:  MOVWF  x7F
03D82:  MOVLB  0
03D84:  CALL   046E
....................                } 
....................                if(PROGRAM){ 
03D88:  BTFSS  1A.2
03D8A:  BRA    3E0C
....................                   write_eeprom(102+((Programa-1)*4),TimeS[Programa-1]); 
03D8C:  MOVLW  01
03D8E:  MOVLB  1
03D90:  SUBWF  xC6,W
03D92:  MULLW  04
03D94:  MOVF   FF3,W
03D96:  ADDLW  66
03D98:  MOVLB  2
03D9A:  MOVWF  x6C
03D9C:  MOVLW  01
03D9E:  MOVLB  1
03DA0:  SUBWF  xC6,W
03DA2:  CLRF   03
03DA4:  ADDLW  62
03DA6:  MOVWF  FE9
03DA8:  MOVLW  02
03DAA:  ADDWFC 03,W
03DAC:  MOVWF  FEA
03DAE:  MOVFF  FEF,26D
03DB2:  CLRF   FAA
03DB4:  MOVFF  26C,FA9
03DB8:  MOVFF  26D,FA8
03DBC:  BCF    FA6.6
03DBE:  BCF    FA6.7
03DC0:  BSF    FA6.2
03DC2:  MOVF   FF2,W
03DC4:  MOVWF  00
03DC6:  BCF    FF2.7
03DC8:  MOVLB  F
03DCA:  MOVLW  55
03DCC:  MOVWF  FA7
03DCE:  MOVLW  AA
03DD0:  MOVWF  FA7
03DD2:  BSF    FA6.1
03DD4:  BTFSC  FA6.1
03DD6:  BRA    3DD4
03DD8:  BCF    FA6.2
03DDA:  MOVF   00,W
03DDC:  IORWF  FF2,F
....................                   delay_ms(20); 
03DDE:  MOVLW  14
03DE0:  MOVLB  2
03DE2:  MOVWF  x7F
03DE4:  MOVLB  0
03DE6:  CALL   046E
....................                   Buzzer_on; 
03DEA:  BSF    F8B.4
03DEC:  BCF    F94.4
....................                   delay_ms(100); 
03DEE:  MOVLW  64
03DF0:  MOVLB  2
03DF2:  MOVWF  x7F
03DF4:  MOVLB  0
03DF6:  CALL   046E
....................                   Buzzer_off; 
03DFA:  BCF    F8B.4
03DFC:  BCF    F94.4
....................                   Parametro++; 
03DFE:  MOVLB  2
03E00:  INCF   x22,F
....................                   printf(lcd_putc,"\f"); 
03E02:  MOVLW  0C
03E04:  MOVWF  x79
03E06:  MOVLB  0
03E08:  CALL   0C74
....................                } 
....................             }else if(Parametro==4){ 
03E0C:  BRA    3F94
03E0E:  MOVLB  2
03E10:  MOVF   x22,W
03E12:  SUBLW  04
03E14:  BTFSS  FD8.2
03E16:  BRA    3F96
....................                if(Exh[Programa-1]>4)Exh[Programa-1]=1; 
03E18:  MOVLW  01
03E1A:  MOVLB  1
03E1C:  SUBWF  xC6,W
03E1E:  CLRF   03
03E20:  ADDLW  67
03E22:  MOVWF  FE9
03E24:  MOVLW  02
03E26:  ADDWFC 03,W
03E28:  MOVWF  FEA
03E2A:  MOVF   FEF,W
03E2C:  SUBLW  04
03E2E:  BC    3E44
03E30:  MOVLW  01
03E32:  SUBWF  xC6,W
03E34:  CLRF   03
03E36:  ADDLW  67
03E38:  MOVWF  FE9
03E3A:  MOVLW  02
03E3C:  ADDWFC 03,W
03E3E:  MOVWF  FEA
03E40:  MOVLW  01
03E42:  MOVWF  FEF
....................                if(Exh[Programa-1]<1)Exh[Programa-1]=4; 
03E44:  MOVLW  01
03E46:  SUBWF  xC6,W
03E48:  CLRF   03
03E4A:  ADDLW  67
03E4C:  MOVWF  FE9
03E4E:  MOVLW  02
03E50:  ADDWFC 03,W
03E52:  MOVWF  FEA
03E54:  MOVF   FEF,F
03E56:  BNZ   3E6C
03E58:  MOVLW  01
03E5A:  SUBWF  xC6,W
03E5C:  CLRF   03
03E5E:  ADDLW  67
03E60:  MOVWF  FE9
03E62:  MOVLW  02
03E64:  ADDWFC 03,W
03E66:  MOVWF  FEA
03E68:  MOVLW  04
03E6A:  MOVWF  FEF
....................                 
....................                lcd_gotoxy(1,2); 
03E6C:  MOVLW  01
03E6E:  MOVLB  2
03E70:  MOVWF  x7A
03E72:  MOVLW  02
03E74:  MOVWF  x7B
03E76:  MOVLB  0
03E78:  CALL   0BFC
....................                printf(lcd_putc,"Ex Mode    %03u ",Exh[Programa-1]); 
03E7C:  MOVLW  01
03E7E:  MOVLB  1
03E80:  SUBWF  xC6,W
03E82:  CLRF   03
03E84:  ADDLW  67
03E86:  MOVWF  FE9
03E88:  MOVLW  02
03E8A:  ADDWFC 03,W
03E8C:  MOVWF  FEA
03E8E:  MOVFF  FEF,26C
03E92:  MOVLW  CA
03E94:  MOVWF  FF6
03E96:  MOVLW  03
03E98:  MOVWF  FF7
03E9A:  MOVLW  00
03E9C:  MOVWF  FF8
03E9E:  MOVLW  0B
03EA0:  MOVLB  2
03EA2:  MOVWF  x6F
03EA4:  MOVLB  0
03EA6:  CALL   1C26
03EAA:  MOVFF  26C,26F
03EAE:  MOVLW  03
03EB0:  MOVLB  2
03EB2:  MOVWF  x70
03EB4:  MOVLB  0
03EB6:  CALL   1BA4
03EBA:  MOVLW  20
03EBC:  MOVLB  2
03EBE:  MOVWF  x79
03EC0:  MOVLB  0
03EC2:  CALL   0C74
....................                if(UP){ 
03EC6:  BTFSS  1A.4
03EC8:  BRA    3EEA
....................                   Exh[Programa-1]++; 
03ECA:  MOVLW  01
03ECC:  MOVLB  1
03ECE:  SUBWF  xC6,W
03ED0:  CLRF   03
03ED2:  ADDLW  67
03ED4:  MOVWF  FE9
03ED6:  MOVLW  02
03ED8:  ADDWFC 03,W
03EDA:  MOVWF  FEA
03EDC:  INCF   FEF,F
....................                   delay_ms(100); 
03EDE:  MOVLW  64
03EE0:  MOVLB  2
03EE2:  MOVWF  x7F
03EE4:  MOVLB  0
03EE6:  CALL   046E
....................                } 
....................              
....................                if(DOWN){ 
03EEA:  BSF    F93.3
03EEC:  BTFSC  F81.3
03EEE:  BRA    3F10
....................                   Exh[Programa-1]--;             
03EF0:  MOVLW  01
03EF2:  MOVLB  1
03EF4:  SUBWF  xC6,W
03EF6:  CLRF   03
03EF8:  ADDLW  67
03EFA:  MOVWF  FE9
03EFC:  MOVLW  02
03EFE:  ADDWFC 03,W
03F00:  MOVWF  FEA
03F02:  DECF   FEF,F
....................                   delay_ms(100); 
03F04:  MOVLW  64
03F06:  MOVLB  2
03F08:  MOVWF  x7F
03F0A:  MOVLB  0
03F0C:  CALL   046E
....................                } 
....................                if(PROGRAM){ 
03F10:  BTFSS  1A.2
03F12:  BRA    3F94
....................                   write_eeprom(103+((Programa-1)*4),Exh[Programa-1]); 
03F14:  MOVLW  01
03F16:  MOVLB  1
03F18:  SUBWF  xC6,W
03F1A:  MULLW  04
03F1C:  MOVF   FF3,W
03F1E:  ADDLW  67
03F20:  MOVLB  2
03F22:  MOVWF  x6C
03F24:  MOVLW  01
03F26:  MOVLB  1
03F28:  SUBWF  xC6,W
03F2A:  CLRF   03
03F2C:  ADDLW  67
03F2E:  MOVWF  FE9
03F30:  MOVLW  02
03F32:  ADDWFC 03,W
03F34:  MOVWF  FEA
03F36:  MOVFF  FEF,26D
03F3A:  CLRF   FAA
03F3C:  MOVFF  26C,FA9
03F40:  MOVFF  26D,FA8
03F44:  BCF    FA6.6
03F46:  BCF    FA6.7
03F48:  BSF    FA6.2
03F4A:  MOVF   FF2,W
03F4C:  MOVWF  00
03F4E:  BCF    FF2.7
03F50:  MOVLB  F
03F52:  MOVLW  55
03F54:  MOVWF  FA7
03F56:  MOVLW  AA
03F58:  MOVWF  FA7
03F5A:  BSF    FA6.1
03F5C:  BTFSC  FA6.1
03F5E:  BRA    3F5C
03F60:  BCF    FA6.2
03F62:  MOVF   00,W
03F64:  IORWF  FF2,F
....................                   delay_ms(20); 
03F66:  MOVLW  14
03F68:  MOVLB  2
03F6A:  MOVWF  x7F
03F6C:  MOVLB  0
03F6E:  CALL   046E
....................                   Buzzer_on; 
03F72:  BSF    F8B.4
03F74:  BCF    F94.4
....................                   delay_ms(100); 
03F76:  MOVLW  64
03F78:  MOVLB  2
03F7A:  MOVWF  x7F
03F7C:  MOVLB  0
03F7E:  CALL   046E
....................                   Buzzer_off; 
03F82:  BCF    F8B.4
03F84:  BCF    F94.4
....................                   Parametro++; 
03F86:  MOVLB  2
03F88:  INCF   x22,F
....................                   printf(lcd_putc,"\f"); 
03F8A:  MOVLW  0C
03F8C:  MOVWF  x79
03F8E:  MOVLB  0
03F90:  CALL   0C74
03F94:  MOVLB  2
....................                } 
....................             } 
....................          } 
....................       } 
....................    } 
.................... //_--------------------------------------------------------------------------------------------------------------------------------------------------------        
....................  
.................... //_--------------------------------------------------------------------------------------------------------------------------------------------------------     
....................    if(Menu==20){ // Este es el menu de cuando el proceso se inicio. 
03F96:  MOVF   x27,W
03F98:  SUBLW  14
03F9A:  BTFSS  FD8.2
03F9C:  GOTO   497E
....................    
....................    if(TiempoCiclo>5400){ 
03FA0:  MOVF   1D,W
03FA2:  SUBLW  14
03FA4:  BC    3FB4
03FA6:  XORLW  FF
03FA8:  BNZ   3FB0
03FAA:  MOVF   1C,W
03FAC:  SUBLW  18
03FAE:  BC    3FB4
....................       AlarmaTiempoProlongado=ON; 
03FB0:  BSF    18.0
....................    }else{ 
03FB2:  BRA    3FB6
....................       AlarmaTiempoProlongado=OFF; 
03FB4:  BCF    18.0
....................    } 
....................     
....................    if(PresionCamara>260){ 
03FB6:  MOVF   x39,W
03FB8:  SUBLW  00
03FBA:  BC    3FC8
03FBC:  XORLW  FF
03FBE:  BNZ   3FC6
03FC0:  MOVF   x38,W
03FC2:  SUBLW  04
03FC4:  BC    3FC8
....................       AlarmaPresion=ON; 
03FC6:  BSF    18.6
....................    } 
....................     
....................    if(Temperatura>Setpoint+3.0){ 
03FC8:  CLRF   x73
03FCA:  MOVFF  22B,272
03FCE:  MOVLB  0
03FD0:  CALL   056A
03FD4:  BCF    FD8.1
03FD6:  MOVFF  03,274
03FDA:  MOVFF  02,273
03FDE:  MOVFF  01,272
03FE2:  MOVFF  00,271
03FE6:  MOVLB  2
03FE8:  CLRF   x78
03FEA:  CLRF   x77
03FEC:  MOVLW  40
03FEE:  MOVWF  x76
03FF0:  MOVLW  80
03FF2:  MOVWF  x75
03FF4:  MOVLB  0
03FF6:  CALL   0ECE
03FFA:  MOVFF  03,273
03FFE:  MOVFF  02,272
04002:  MOVFF  01,271
04006:  MOVFF  00,270
0400A:  MOVFF  20D,277
0400E:  MOVFF  20C,276
04012:  MOVFF  20B,275
04016:  MOVFF  20A,274
0401A:  CALL   08BC
0401E:  BNC   4022
....................       AlarmaSobreTemperatura=ON; 
04020:  BSF    18.1
....................    } 
....................     
....................    if(TiempoLlenado>600){ 
04022:  MOVF   1F,W
04024:  SUBLW  01
04026:  BC    4036
04028:  XORLW  FF
0402A:  BNZ   4032
0402C:  MOVF   1E,W
0402E:  SUBLW  58
04030:  BC    4036
....................       AlarmaLlenado=ON; 
04032:  BSF    18.2
....................    }else{ 
04034:  BRA    4038
....................       AlarmaLlenado=OFF; 
04036:  BCF    18.2
....................    } 
....................     
....................    if(!TERM && PresionCamara<20){ 
04038:  BSF    F92.3
0403A:  BTFSS  F80.3
0403C:  BRA    40A2
0403E:  MOVLB  2
04040:  MOVF   x39,F
04042:  BTFSC  FD8.2
04044:  BRA    404A
04046:  MOVLB  0
04048:  BRA    40A2
0404A:  MOVF   x38,W
0404C:  SUBLW  13
0404E:  BTFSC  FD8.0
04050:  BRA    4056
04052:  MOVLB  0
04054:  BRA    40A2
....................       delay_ms(500); 
04056:  MOVLW  02
04058:  MOVWF  x6C
0405A:  MOVLW  FA
0405C:  MOVWF  x7F
0405E:  MOVLB  0
04060:  CALL   046E
04064:  MOVLB  2
04066:  DECFSZ x6C,F
04068:  BRA    405A
....................       if(!TERM && PresionCamara<20){ 
0406A:  BSF    F92.3
0406C:  BTFSS  F80.3
0406E:  BRA    40A0
04070:  MOVF   x39,F
04072:  BNZ   40A0
04074:  MOVF   x38,W
04076:  SUBLW  13
04078:  BNC   40A0
....................          delay_ms(500); 
0407A:  MOVLW  02
0407C:  MOVWF  x6C
0407E:  MOVLW  FA
04080:  MOVWF  x7F
04082:  MOVLB  0
04084:  CALL   046E
04088:  MOVLB  2
0408A:  DECFSZ x6C,F
0408C:  BRA    407E
....................          if(!TERM && PresionCamara<20){ 
0408E:  BSF    F92.3
04090:  BTFSS  F80.3
04092:  BRA    40A0
04094:  MOVF   x39,F
04096:  BNZ   40A0
04098:  MOVF   x38,W
0409A:  SUBLW  13
0409C:  BNC   40A0
....................             AlarmaTermostato=ON; 
0409E:  BSF    18.3
040A0:  MOVLB  0
....................          } 
....................       } 
....................    } 
....................     
....................    if(DOOR){ 
040A2:  BSF    F92.4
040A4:  BTFSS  F80.4
040A6:  BRA    40B0
....................       if(!Secando){ 
040A8:  BTFSC  19.4
040AA:  BRA    40AE
....................          AlarmaPuerta=ON; 
040AC:  BSF    18.4
....................       } 
....................    }else{ 
040AE:  BRA    40B2
....................       AlarmaPuerta=OFF; 
040B0:  BCF    18.4
....................    } 
....................     
....................    if(START){ 
040B2:  BSF    F93.2
040B4:  BTFSC  F81.2
040B6:  BRA    40BC
....................       flagStart=ON; 
040B8:  BSF    1B.6
....................    }else{ 
040BA:  BRA    40C2
....................       flagStart=OFF; 
040BC:  BCF    1B.6
....................       tStart=0; 
040BE:  MOVLB  2
040C0:  CLRF   x26
....................    } 
....................     
....................    if(tStart>3){ 
040C2:  MOVLB  2
040C4:  MOVF   x26,W
040C6:  SUBLW  03
040C8:  BC    40CC
....................       AlarmaEmergencia=ON; 
040CA:  BSF    18.5
....................    } 
....................     
....................    if(DOWN && !IniciaCiclo && PresionCamara<=2){ 
040CC:  BSF    F93.3
040CE:  BTFSC  F81.3
040D0:  BRA    4106
040D2:  BTFSC  19.2
040D4:  BRA    4106
040D6:  MOVF   x39,F
040D8:  BNZ   4106
040DA:  MOVF   x38,W
040DC:  SUBLW  02
040DE:  BNC   4106
....................       Solenoide_on; 
040E0:  BSF    F8B.2
040E2:  BCF    F94.2
....................       Buzzer_on; 
040E4:  BSF    F8B.4
040E6:  BCF    F94.4
....................       delay_ms(10000); 
040E8:  MOVLW  28
040EA:  MOVWF  x6C
040EC:  MOVLW  FA
040EE:  MOVWF  x7F
040F0:  MOVLB  0
040F2:  CALL   046E
040F6:  MOVLB  2
040F8:  DECFSZ x6C,F
040FA:  BRA    40EC
....................       Solenoide_off; 
040FC:  BCF    F8B.2
040FE:  BCF    F94.2
....................       Buzzer_off; 
04100:  BCF    F8B.4
04102:  BCF    F94.4
....................    }else{ 
04104:  BRA    410A
....................       Solenoide_off; 
04106:  BCF    F8B.2
04108:  BCF    F94.2
....................    } 
....................     
....................    if(Temperatura>100 && PresionCamara<10 && !Desfogando){ 
0410A:  CLRF   x73
0410C:  CLRF   x72
0410E:  MOVLW  48
04110:  MOVWF  x71
04112:  MOVLW  85
04114:  MOVWF  x70
04116:  MOVFF  20D,277
0411A:  MOVFF  20C,276
0411E:  MOVFF  20B,275
04122:  MOVFF  20A,274
04126:  MOVLB  0
04128:  CALL   08BC
0412C:  BNC   4152
0412E:  MOVLB  2
04130:  MOVF   x39,F
04132:  BTFSC  FD8.2
04134:  BRA    413A
04136:  MOVLB  0
04138:  BRA    4152
0413A:  MOVF   x38,W
0413C:  SUBLW  09
0413E:  BTFSC  FD8.0
04140:  BRA    4146
04142:  MOVLB  0
04144:  BRA    4152
04146:  BTFSS  19.6
04148:  BRA    414E
0414A:  MOVLB  0
0414C:  BRA    4152
....................       AlarmaCiclo=ON; 
0414E:  BSF    18.7
04150:  MOVLB  0
....................    } 
....................     
....................    if(AlarmaPuerta || AlarmaTermostato || AlarmaLlenado || AlarmaSobreTemperatura || AlarmaTiempoProlongado || AlarmaEmergencia || AlarmaPresion || 
....................    AlarmaCiclo){ 
04152:  BTFSC  18.4
04154:  BRA    4172
04156:  BTFSC  18.3
04158:  BRA    4172
0415A:  BTFSC  18.2
0415C:  BRA    4172
0415E:  BTFSC  18.1
04160:  BRA    4172
04162:  BTFSC  18.0
04164:  BRA    4172
04166:  BTFSC  18.5
04168:  BRA    4172
0416A:  BTFSC  18.6
0416C:  BRA    4172
0416E:  BTFSS  18.7
04170:  BRA    437A
....................       if(AlarmaEmergencia){ 
04172:  BTFSS  18.5
04174:  BRA    41B8
....................          IniciaLlenado=OFF; 
04176:  BCF    19.0
....................          IniciaCiclo=OFF; 
04178:  BCF    19.2
....................          Desfogue_on; 
0417A:  BSF    F8B.0
0417C:  BCF    F94.0
....................          AguaIn_off; 
0417E:  BCF    F8B.1
04180:  BCF    F94.1
....................          Aux_off; 
04182:  BCF    F8B.3
04184:  BCF    F94.3
....................          SSR_off; 
04186:  BCF    F8D.2
04188:  BCF    F96.2
....................          Esterilizando=OFF; 
0418A:  BCF    19.3
....................          Desfogando=OFF; 
0418C:  BCF    19.6
....................          DesfogueSuave=OFF; 
0418E:  BCF    19.7
....................          Controlando=0; 
04190:  MOVLB  2
04192:  CLRF   x25
....................          lcd_gotoxy(12,1); 
04194:  MOVLW  0C
04196:  MOVWF  x7A
04198:  MOVLW  01
0419A:  MOVWF  x7B
0419C:  MOVLB  0
0419E:  CALL   0BFC
....................          printf(lcd_putc,"STOP "); 
041A2:  MOVLW  DC
041A4:  MOVWF  FF6
041A6:  MOVLW  03
041A8:  MOVWF  FF7
041AA:  MOVLW  00
041AC:  MOVWF  FF8
041AE:  CALL   0CF2
....................          LedFail_on; 
041B2:  BSF    F8D.0
041B4:  BCF    F96.0
....................       }else if(AlarmaPuerta){ 
041B6:  BRA    4378
041B8:  BTFSS  18.4
041BA:  BRA    41F0
....................          SSR_off; 
041BC:  BCF    F8D.2
041BE:  BCF    F96.2
....................          IniciaLlenado=OFF; 
041C0:  BCF    19.0
....................          IniciaCiclo=OFF; 
041C2:  BCF    19.2
....................          Controlando=0; 
041C4:  MOVLB  2
041C6:  CLRF   x25
....................          AguaIn_off; 
041C8:  BCF    F8B.1
041CA:  BCF    F94.1
....................          Aux_off; 
041CC:  BCF    F8B.3
041CE:  BCF    F94.3
....................          lcd_gotoxy(12,1); 
041D0:  MOVLW  0C
041D2:  MOVWF  x7A
041D4:  MOVLW  01
041D6:  MOVWF  x7B
041D8:  MOVLB  0
041DA:  CALL   0BFC
....................          printf(lcd_putc,"DOOR "); 
041DE:  MOVLW  E2
041E0:  MOVWF  FF6
041E2:  MOVLW  03
041E4:  MOVWF  FF7
041E6:  MOVLW  00
041E8:  MOVWF  FF8
041EA:  CALL   0CF2
....................       }else if(AlarmaLlenado){ 
041EE:  BRA    4378
041F0:  BTFSS  18.2
041F2:  BRA    4230
....................          Desfogue_off; 
041F4:  BCF    F8B.0
041F6:  BCF    F94.0
....................          AguaIn_off; 
041F8:  BCF    F8B.1
041FA:  BCF    F94.1
....................          Aux_off; 
041FC:  BCF    F8B.3
041FE:  BCF    F94.3
....................          SSR_off;             
04200:  BCF    F8D.2
04202:  BCF    F96.2
....................          Controlando=0; 
04204:  MOVLB  2
04206:  CLRF   x25
....................          lcd_gotoxy(12,1); 
04208:  MOVLW  0C
0420A:  MOVWF  x7A
0420C:  MOVLW  01
0420E:  MOVWF  x7B
04210:  MOVLB  0
04212:  CALL   0BFC
....................          printf(lcd_putc,"FILL "); 
04216:  MOVLW  E8
04218:  MOVWF  FF6
0421A:  MOVLW  03
0421C:  MOVWF  FF7
0421E:  MOVLW  00
04220:  MOVWF  FF8
04222:  CALL   0CF2
....................          IniciaLlenado=OFF; 
04226:  BCF    19.0
....................          IniciaCiclo=OFF; 
04228:  BCF    19.2
....................          LedFail_on; 
0422A:  BSF    F8D.0
0422C:  BCF    F96.0
....................       }else if(AlarmaTermostato){ 
0422E:  BRA    4378
04230:  BTFSS  18.3
04232:  BRA    4276
....................          tiempo_esterilizacion=0;tiempo_secado=0;          
04234:  MOVLB  2
04236:  CLRF   x2C
04238:  CLRF   x2D
....................          Desfogue_on; 
0423A:  BSF    F8B.0
0423C:  BCF    F94.0
....................          AguaIn_off; 
0423E:  BCF    F8B.1
04240:  BCF    F94.1
....................          Aux_off; 
04242:  BCF    F8B.3
04244:  BCF    F94.3
....................          SSR_off; 
04246:  BCF    F8D.2
04248:  BCF    F96.2
....................          Esterilizando=OFF; 
0424A:  BCF    19.3
....................          Desfogando=OFF; 
0424C:  BCF    19.6
....................          IniciaCiclo=OFF; 
0424E:  BCF    19.2
....................          Controlando=0; 
04250:  CLRF   x25
....................          lcd_gotoxy(12,1); 
04252:  MOVLW  0C
04254:  MOVWF  x7A
04256:  MOVLW  01
04258:  MOVWF  x7B
0425A:  MOVLB  0
0425C:  CALL   0BFC
....................          printf(lcd_putc,"TERM "); 
04260:  MOVLW  EE
04262:  MOVWF  FF6
04264:  MOVLW  03
04266:  MOVWF  FF7
04268:  MOVLW  00
0426A:  MOVWF  FF8
0426C:  CALL   0CF2
....................          LedFail_on; 
04270:  BSF    F8D.0
04272:  BCF    F96.0
....................       }else if(AlarmaSobreTemperatura){ 
04274:  BRA    4378
04276:  BTFSS  18.1
04278:  BRA    42BA
....................          tiempo_esterilizacion=0;tiempo_secado=0;                               
0427A:  MOVLB  2
0427C:  CLRF   x2C
0427E:  CLRF   x2D
....................          Desfogue_on; 
04280:  BSF    F8B.0
04282:  BCF    F94.0
....................          SSR_off; 
04284:  BCF    F8D.2
04286:  BCF    F96.2
....................          Controlando=0; 
04288:  CLRF   x25
....................          AguaIn_off; 
0428A:  BCF    F8B.1
0428C:  BCF    F94.1
....................          Aux_off; 
0428E:  BCF    F8B.3
04290:  BCF    F94.3
....................          lcd_gotoxy(12,1); 
04292:  MOVLW  0C
04294:  MOVWF  x7A
04296:  MOVLW  01
04298:  MOVWF  x7B
0429A:  MOVLB  0
0429C:  CALL   0BFC
....................          printf(lcd_putc,"SOBRE"); 
042A0:  MOVLW  F4
042A2:  MOVWF  FF6
042A4:  MOVLW  03
042A6:  MOVWF  FF7
042A8:  MOVLW  00
042AA:  MOVWF  FF8
042AC:  CALL   0CF2
....................          IniciaLlenado=OFF; 
042B0:  BCF    19.0
....................          IniciaCiclo=OFF; 
042B2:  BCF    19.2
....................          LedFail_on; 
042B4:  BSF    F8D.0
042B6:  BCF    F96.0
....................       }else if(AlarmaTiempoProlongado){ 
042B8:  BRA    4378
042BA:  BTFSS  18.0
042BC:  BRA    42FA
....................          Desfogue_on; 
042BE:  BSF    F8B.0
042C0:  BCF    F94.0
....................          SSR_off; 
042C2:  BCF    F8D.2
042C4:  BCF    F96.2
....................          Controlando=0; 
042C6:  MOVLB  2
042C8:  CLRF   x25
....................          AguaIn_off; 
042CA:  BCF    F8B.1
042CC:  BCF    F94.1
....................          Aux_off; 
042CE:  BCF    F8B.3
042D0:  BCF    F94.3
....................          lcd_gotoxy(12,1); 
042D2:  MOVLW  0C
042D4:  MOVWF  x7A
042D6:  MOVLW  01
042D8:  MOVWF  x7B
042DA:  MOVLB  0
042DC:  CALL   0BFC
....................          printf(lcd_putc,"TIME "); 
042E0:  MOVLW  FA
042E2:  MOVWF  FF6
042E4:  MOVLW  03
042E6:  MOVWF  FF7
042E8:  MOVLW  00
042EA:  MOVWF  FF8
042EC:  CALL   0CF2
....................          IniciaLlenado=OFF; 
042F0:  BCF    19.0
....................          IniciaCiclo=OFF; 
042F2:  BCF    19.2
....................          LedFail_on; 
042F4:  BSF    F8D.0
042F6:  BCF    F96.0
....................       }else if(AlarmaPresion){ 
042F8:  BRA    4378
042FA:  BTFSS  18.6
042FC:  BRA    433A
....................          Desfogue_on; 
042FE:  BSF    F8B.0
04300:  BCF    F94.0
....................          SSR_off; 
04302:  BCF    F8D.2
04304:  BCF    F96.2
....................          Controlando=0; 
04306:  MOVLB  2
04308:  CLRF   x25
....................          AguaIn_off; 
0430A:  BCF    F8B.1
0430C:  BCF    F94.1
....................          Aux_off; 
0430E:  BCF    F8B.3
04310:  BCF    F94.3
....................          lcd_gotoxy(12,1); 
04312:  MOVLW  0C
04314:  MOVWF  x7A
04316:  MOVLW  01
04318:  MOVWF  x7B
0431A:  MOVLB  0
0431C:  CALL   0BFC
....................          printf(lcd_putc,"PRES "); 
04320:  MOVLW  00
04322:  MOVWF  FF6
04324:  MOVLW  04
04326:  MOVWF  FF7
04328:  MOVLW  00
0432A:  MOVWF  FF8
0432C:  CALL   0CF2
....................          IniciaLlenado=OFF; 
04330:  BCF    19.0
....................          IniciaCiclo=OFF; 
04332:  BCF    19.2
....................          LedFail_on; 
04334:  BSF    F8D.0
04336:  BCF    F96.0
....................       }else if(AlarmaCiclo){ 
04338:  BRA    4378
0433A:  BTFSS  18.7
0433C:  BRA    4378
....................          Desfogue_on; 
0433E:  BSF    F8B.0
04340:  BCF    F94.0
....................          SSR_off; 
04342:  BCF    F8D.2
04344:  BCF    F96.2
....................          Controlando=0; 
04346:  MOVLB  2
04348:  CLRF   x25
....................          AguaIn_off; 
0434A:  BCF    F8B.1
0434C:  BCF    F94.1
....................          Aux_off; 
0434E:  BCF    F8B.3
04350:  BCF    F94.3
....................          lcd_gotoxy(12,1); 
04352:  MOVLW  0C
04354:  MOVWF  x7A
04356:  MOVLW  01
04358:  MOVWF  x7B
0435A:  MOVLB  0
0435C:  CALL   0BFC
....................          printf(lcd_putc,"LPRES"); 
04360:  MOVLW  06
04362:  MOVWF  FF6
04364:  MOVLW  04
04366:  MOVWF  FF7
04368:  MOVLW  00
0436A:  MOVWF  FF8
0436C:  CALL   0CF2
....................          IniciaLlenado=OFF; 
04370:  BCF    19.0
....................          IniciaCiclo=OFF; 
04372:  BCF    19.2
....................          LedFail_on; 
04374:  BSF    F8D.0
04376:  BCF    F96.0
....................       } 
....................    }else{   
04378:  BRA    48D6
....................          if(!CalderinLleno){ 
0437A:  BTFSC  19.1
0437C:  BRA    43B8
....................             lcd_gotoxy(12,1); 
0437E:  MOVLW  0C
04380:  MOVLB  2
04382:  MOVWF  x7A
04384:  MOVLW  01
04386:  MOVWF  x7B
04388:  MOVLB  0
0438A:  CALL   0BFC
....................             printf(lcd_putc,"WATER"); 
0438E:  MOVLW  0C
04390:  MOVWF  FF6
04392:  MOVLW  04
04394:  MOVWF  FF7
04396:  MOVLW  00
04398:  MOVWF  FF8
0439A:  CALL   0CF2
....................             Control=0; 
0439E:  MOVLB  2
043A0:  CLRF   x23
....................             IniciaLlenado=ON; 
043A2:  BSF    19.0
....................             Controlando=0; 
043A4:  CLRF   x25
....................             AguaIn_on; 
043A6:  BSF    F8B.1
043A8:  BCF    F94.1
....................             Aux_on; 
043AA:  BSF    F8B.3
043AC:  BCF    F94.3
....................             Desfogue_on; 
043AE:  BSF    F8B.0
043B0:  BCF    F94.0
....................             IniciaCiclo=ON; 
043B2:  BSF    19.2
....................          }else{ 
043B4:  BRA    48D8
043B6:  MOVLB  0
....................             AguaIn_off; 
043B8:  BCF    F8B.1
043BA:  BCF    F94.1
....................             Aux_off; 
043BC:  BCF    F8B.3
043BE:  BCF    F94.3
....................             if(Temperatura>=((float)Setpoint-0.3)){ 
043C0:  MOVLB  2
043C2:  CLRF   x73
043C4:  MOVFF  22B,272
043C8:  MOVLB  0
043CA:  CALL   056A
043CE:  MOVFF  00,26C
043D2:  MOVFF  01,26D
043D6:  MOVFF  02,26E
043DA:  MOVFF  03,26F
043DE:  BSF    FD8.1
043E0:  MOVFF  03,274
043E4:  MOVFF  02,273
043E8:  MOVFF  01,272
043EC:  MOVFF  00,271
043F0:  MOVLW  9A
043F2:  MOVLB  2
043F4:  MOVWF  x78
043F6:  MOVLW  99
043F8:  MOVWF  x77
043FA:  MOVLW  19
043FC:  MOVWF  x76
043FE:  MOVLW  7D
04400:  MOVWF  x75
04402:  MOVLB  0
04404:  CALL   0ECE
04408:  MOVFF  03,273
0440C:  MOVFF  02,272
04410:  MOVFF  01,271
04414:  MOVFF  00,270
04418:  MOVFF  20D,277
0441C:  MOVFF  20C,276
04420:  MOVFF  20B,275
04424:  MOVFF  20A,274
04428:  CALL   08BC
0442C:  BC    4430
0442E:  BNZ   4432
....................                Esterilizando=ON; 
04430:  BSF    19.3
....................             } 
....................              
....................             if(Temperatura<((float)Setpoint-0.9) && !Desfogando){ 
04432:  MOVLB  2
04434:  CLRF   x73
04436:  MOVFF  22B,272
0443A:  MOVLB  0
0443C:  CALL   056A
04440:  MOVFF  00,26C
04444:  MOVFF  01,26D
04448:  MOVFF  02,26E
0444C:  MOVFF  03,26F
04450:  BSF    FD8.1
04452:  MOVFF  03,274
04456:  MOVFF  02,273
0445A:  MOVFF  01,272
0445E:  MOVFF  00,271
04462:  MOVLW  66
04464:  MOVLB  2
04466:  MOVWF  x78
04468:  MOVWF  x77
0446A:  MOVWF  x76
0446C:  MOVLW  7E
0446E:  MOVWF  x75
04470:  MOVLB  0
04472:  CALL   0ECE
04476:  MOVFF  20D,273
0447A:  MOVFF  20C,272
0447E:  MOVFF  20B,271
04482:  MOVFF  20A,270
04486:  MOVFF  03,277
0448A:  MOVFF  02,276
0448E:  MOVFF  01,275
04492:  MOVFF  00,274
04496:  CALL   08BC
0449A:  BNC   44A2
0449C:  BTFSC  19.6
0449E:  BRA    44A2
....................                Esterilizando=OFF; 
044A0:  BCF    19.3
....................             } 
....................              
....................             if(!Esterilizando){                
044A2:  BTFSC  19.3
044A4:  BRA    44DA
....................                Control=1; 
044A6:  MOVLW  01
044A8:  MOVLB  2
044AA:  MOVWF  x23
....................                Controla(); 
044AC:  MOVLB  0
044AE:  CALL   1FFC
....................                Desfogue_off; 
044B2:  BCF    F8B.0
044B4:  BCF    F94.0
....................                lcd_gotoxy(12,1); 
044B6:  MOVLW  0C
044B8:  MOVLB  2
044BA:  MOVWF  x7A
044BC:  MOVLW  01
044BE:  MOVWF  x7B
044C0:  MOVLB  0
044C2:  CALL   0BFC
....................                printf(lcd_putc,"HEAT "); 
044C6:  MOVLW  12
044C8:  MOVWF  FF6
044CA:  MOVLW  04
044CC:  MOVWF  FF7
044CE:  MOVLW  00
044D0:  MOVWF  FF8
044D2:  CALL   0CF2
....................                IniciaCiclo=ON; 
044D6:  BSF    19.2
....................             }else{ 
044D8:  BRA    48D6
....................                TiempoCiclo=0; 
044DA:  CLRF   1D
044DC:  CLRF   1C
....................                if(mEst==0 && sEst==0){  
044DE:  MOVLB  1
044E0:  MOVF   xC8,F
044E2:  BTFSS  FD8.2
044E4:  BRA    486E
044E6:  MOVF   xC7,F
044E8:  BTFSS  FD8.2
044EA:  BRA    486E
....................                   if(desfoguelento){ 
044EC:  BTFSS  1B.3
044EE:  BRA    4666
....................                      Controlando=0; 
044F0:  MOVLB  2
044F2:  CLRF   x25
....................                      if(PresionCamara<25){ 
044F4:  MOVF   x39,F
044F6:  BTFSS  FD8.2
044F8:  BRA    461A
044FA:  MOVF   x38,W
044FC:  SUBLW  18
044FE:  BTFSS  FD8.0
04500:  BRA    461A
....................                         Secando=OFF; 
04502:  BCF    19.4
....................                         DesfogueSuave=OFF; 
04504:  BCF    19.7
....................                         if(PresionCamara<2){ 
04506:  MOVF   x39,F
04508:  BNZ   45D6
0450A:  MOVF   x38,W
0450C:  SUBLW  01
0450E:  BNC   45D6
....................                            if(!Ciclo){ 
04510:  BTFSC  1A.0
04512:  BRA    45D2
....................                               Ciclo=ON; 
04514:  BSF    1A.0
....................                               Ciclos++; 
04516:  INCF   x3A,F
04518:  BTFSC  FD8.2
0451A:  INCF   x3B,F
....................                               CiclosL=make8(Ciclos,0); 
0451C:  MOVFF  23A,229
....................                               CiclosH=make8(Ciclos,1); 
04520:  MOVFF  23B,22A
....................                               write_eeprom(37,CiclosL); 
04524:  CLRF   FAA
04526:  MOVLW  25
04528:  MOVWF  FA9
0452A:  MOVFF  229,FA8
0452E:  BCF    FA6.6
04530:  BCF    FA6.7
04532:  BSF    FA6.2
04534:  MOVF   FF2,W
04536:  MOVWF  00
04538:  BCF    FF2.7
0453A:  MOVLB  F
0453C:  MOVLW  55
0453E:  MOVWF  FA7
04540:  MOVLW  AA
04542:  MOVWF  FA7
04544:  BSF    FA6.1
04546:  BTFSC  FA6.1
04548:  BRA    4546
0454A:  BCF    FA6.2
0454C:  MOVF   00,W
0454E:  IORWF  FF2,F
....................                               delay_ms(20); 
04550:  MOVLW  14
04552:  MOVLB  2
04554:  MOVWF  x7F
04556:  MOVLB  0
04558:  CALL   046E
....................                               write_eeprom(38,CiclosH); 
0455C:  CLRF   FAA
0455E:  MOVLW  26
04560:  MOVWF  FA9
04562:  MOVFF  22A,FA8
04566:  BCF    FA6.6
04568:  BCF    FA6.7
0456A:  BSF    FA6.2
0456C:  MOVF   FF2,W
0456E:  MOVWF  00
04570:  BCF    FF2.7
04572:  MOVLB  F
04574:  MOVLW  55
04576:  MOVWF  FA7
04578:  MOVLW  AA
0457A:  MOVWF  FA7
0457C:  BSF    FA6.1
0457E:  BTFSC  FA6.1
04580:  BRA    457E
04582:  BCF    FA6.2
04584:  MOVF   00,W
04586:  IORWF  FF2,F
....................                               delay_ms(20); 
04588:  MOVLW  14
0458A:  MOVLB  2
0458C:  MOVWF  x7F
0458E:  MOVLB  0
04590:  CALL   046E
....................                               for(i=0;i<4;i++){ 
04594:  MOVLB  2
04596:  CLRF   x28
04598:  MOVF   x28,W
0459A:  SUBLW  03
0459C:  BNC   45D2
....................                                  Buzzer_on; 
0459E:  BSF    F8B.4
045A0:  BCF    F94.4
....................                                  delay_ms(1000); 
045A2:  MOVLW  04
045A4:  MOVWF  x6C
045A6:  MOVLW  FA
045A8:  MOVWF  x7F
045AA:  MOVLB  0
045AC:  CALL   046E
045B0:  MOVLB  2
045B2:  DECFSZ x6C,F
045B4:  BRA    45A6
....................                                  Buzzer_off; 
045B6:  BCF    F8B.4
045B8:  BCF    F94.4
....................                                  delay_ms(1000); 
045BA:  MOVLW  04
045BC:  MOVWF  x6C
045BE:  MOVLW  FA
045C0:  MOVWF  x7F
045C2:  MOVLB  0
045C4:  CALL   046E
045C8:  MOVLB  2
045CA:  DECFSZ x6C,F
045CC:  BRA    45BE
....................                               }   
045CE:  INCF   x28,F
045D0:  BRA    4598
....................                            } 
....................                            Desfogue_on; 
045D2:  BSF    F8B.0
045D4:  BCF    F94.0
....................                         } 
....................                         lcd_gotoxy(12,1); 
045D6:  MOVLW  0C
045D8:  MOVWF  x7A
045DA:  MOVLW  01
045DC:  MOVWF  x7B
045DE:  MOVLB  0
045E0:  CALL   0BFC
....................                         printf(lcd_putc,"END  "); 
045E4:  MOVLW  18
045E6:  MOVWF  FF6
045E8:  MOVLW  04
045EA:  MOVWF  FF7
045EC:  MOVLW  00
045EE:  MOVWF  FF8
045F0:  CALL   0CF2
....................                         lcd_gotoxy(7,2); 
045F4:  MOVLW  07
045F6:  MOVLB  2
045F8:  MOVWF  x7A
045FA:  MOVLW  02
045FC:  MOVWF  x7B
045FE:  MOVLB  0
04600:  CALL   0BFC
....................                         printf(lcd_putc,"     "); 
04604:  MOVLW  1E
04606:  MOVWF  FF6
04608:  MOVLW  04
0460A:  MOVWF  FF7
0460C:  MOVLW  00
0460E:  MOVWF  FF8
04610:  CALL   0CF2
....................                         IniciaCiclo=OFF; 
04614:  BCF    19.2
....................                      }else{ 
04616:  BRA    4662
04618:  MOVLB  2
....................                         Desfogando=ON; 
0461A:  BSF    19.6
....................                         DesfogueSuave=ON; 
0461C:  BSF    19.7
....................                         Control=0; 
0461E:  CLRF   x23
....................                         SSR_off; 
04620:  BCF    F8D.2
04622:  BCF    F96.2
....................                         lcd_gotoxy(12,1); 
04624:  MOVLW  0C
04626:  MOVWF  x7A
04628:  MOVLW  01
0462A:  MOVWF  x7B
0462C:  MOVLB  0
0462E:  CALL   0BFC
....................                         printf(lcd_putc,"EXH  "); 
04632:  MOVLW  24
04634:  MOVWF  FF6
04636:  MOVLW  04
04638:  MOVWF  FF7
0463A:  MOVLW  00
0463C:  MOVWF  FF8
0463E:  CALL   0CF2
....................                         lcd_gotoxy(7,2); 
04642:  MOVLW  07
04644:  MOVLB  2
04646:  MOVWF  x7A
04648:  MOVLW  02
0464A:  MOVWF  x7B
0464C:  MOVLB  0
0464E:  CALL   0BFC
....................                         printf(lcd_putc,"     "); 
04652:  MOVLW  2A
04654:  MOVWF  FF6
04656:  MOVLW  04
04658:  MOVWF  FF7
0465A:  MOVLW  00
0465C:  MOVWF  FF8
0465E:  CALL   0CF2
....................                      } 
....................                   }else{ 
04662:  BRA    486A
04664:  MOVLB  1
....................                      Desfogue_on; 
04666:  BSF    F8B.0
04668:  BCF    F94.0
....................                      SSR_off; 
0466A:  BCF    F8D.2
0466C:  BCF    F96.2
....................                      Controlando=0; 
0466E:  MOVLB  2
04670:  CLRF   x25
....................                      Control=0; 
04672:  CLRF   x23
....................                      if(PresionCamara<2){ 
04674:  MOVF   x39,F
04676:  BTFSS  FD8.2
04678:  BRA    481E
0467A:  MOVF   x38,W
0467C:  SUBLW  01
0467E:  BTFSS  FD8.0
04680:  BRA    481E
....................                         if(mSec==0 && sSec==0){ 
04682:  MOVLB  1
04684:  MOVF   xCC,F
04686:  BTFSS  FD8.2
04688:  BRA    47B4
0468A:  MOVF   xCB,F
0468C:  BTFSS  FD8.2
0468E:  BRA    47B4
....................                            Solenoide_off; 
04690:  BCF    F8B.2
04692:  BCF    F94.2
....................                            Secando=ON; 
04694:  BSF    19.4
....................                            IniciaCiclo=OFF; 
04696:  BCF    19.2
....................                            if(!Ciclo){ 
04698:  BTFSC  1A.0
0469A:  BRA    475C
....................                               Ciclo=ON; 
0469C:  BSF    1A.0
....................                               Ciclos++; 
0469E:  MOVLB  2
046A0:  INCF   x3A,F
046A2:  BTFSC  FD8.2
046A4:  INCF   x3B,F
....................                               CiclosL=make8(Ciclos,0); 
046A6:  MOVFF  23A,229
....................                               CiclosH=make8(Ciclos,1); 
046AA:  MOVFF  23B,22A
....................                               write_eeprom(37,CiclosL); 
046AE:  CLRF   FAA
046B0:  MOVLW  25
046B2:  MOVWF  FA9
046B4:  MOVFF  229,FA8
046B8:  BCF    FA6.6
046BA:  BCF    FA6.7
046BC:  BSF    FA6.2
046BE:  MOVF   FF2,W
046C0:  MOVWF  00
046C2:  BCF    FF2.7
046C4:  MOVLB  F
046C6:  MOVLW  55
046C8:  MOVWF  FA7
046CA:  MOVLW  AA
046CC:  MOVWF  FA7
046CE:  BSF    FA6.1
046D0:  BTFSC  FA6.1
046D2:  BRA    46D0
046D4:  BCF    FA6.2
046D6:  MOVF   00,W
046D8:  IORWF  FF2,F
....................                               delay_ms(20); 
046DA:  MOVLW  14
046DC:  MOVLB  2
046DE:  MOVWF  x7F
046E0:  MOVLB  0
046E2:  CALL   046E
....................                               write_eeprom(38,CiclosH); 
046E6:  CLRF   FAA
046E8:  MOVLW  26
046EA:  MOVWF  FA9
046EC:  MOVFF  22A,FA8
046F0:  BCF    FA6.6
046F2:  BCF    FA6.7
046F4:  BSF    FA6.2
046F6:  MOVF   FF2,W
046F8:  MOVWF  00
046FA:  BCF    FF2.7
046FC:  MOVLB  F
046FE:  MOVLW  55
04700:  MOVWF  FA7
04702:  MOVLW  AA
04704:  MOVWF  FA7
04706:  BSF    FA6.1
04708:  BTFSC  FA6.1
0470A:  BRA    4708
0470C:  BCF    FA6.2
0470E:  MOVF   00,W
04710:  IORWF  FF2,F
....................                               delay_ms(20); 
04712:  MOVLW  14
04714:  MOVLB  2
04716:  MOVWF  x7F
04718:  MOVLB  0
0471A:  CALL   046E
....................                               for(i=0;i<4;i++){ 
0471E:  MOVLB  2
04720:  CLRF   x28
04722:  MOVF   x28,W
04724:  SUBLW  03
04726:  BNC   475C
....................                                  Buzzer_on; 
04728:  BSF    F8B.4
0472A:  BCF    F94.4
....................                                  delay_ms(1000); 
0472C:  MOVLW  04
0472E:  MOVWF  x6C
04730:  MOVLW  FA
04732:  MOVWF  x7F
04734:  MOVLB  0
04736:  CALL   046E
0473A:  MOVLB  2
0473C:  DECFSZ x6C,F
0473E:  BRA    4730
....................                                  Buzzer_off; 
04740:  BCF    F8B.4
04742:  BCF    F94.4
....................                                  delay_ms(1000); 
04744:  MOVLW  04
04746:  MOVWF  x6C
04748:  MOVLW  FA
0474A:  MOVWF  x7F
0474C:  MOVLB  0
0474E:  CALL   046E
04752:  MOVLB  2
04754:  DECFSZ x6C,F
04756:  BRA    4748
....................                               } 
04758:  INCF   x28,F
0475A:  BRA    4722
....................                            } 
....................                            delay_ms(2000); 
0475C:  MOVLW  08
0475E:  MOVLB  2
04760:  MOVWF  x6C
04762:  MOVLW  FA
04764:  MOVWF  x7F
04766:  MOVLB  0
04768:  CALL   046E
0476C:  MOVLB  2
0476E:  DECFSZ x6C,F
04770:  BRA    4762
....................                            lcd_gotoxy(12,1); 
04772:  MOVLW  0C
04774:  MOVWF  x7A
04776:  MOVLW  01
04778:  MOVWF  x7B
0477A:  MOVLB  0
0477C:  CALL   0BFC
....................                            printf(lcd_putc,"END  "); 
04780:  MOVLW  30
04782:  MOVWF  FF6
04784:  MOVLW  04
04786:  MOVWF  FF7
04788:  MOVLW  00
0478A:  MOVWF  FF8
0478C:  CALL   0CF2
....................                            lcd_gotoxy(7,2); 
04790:  MOVLW  07
04792:  MOVLB  2
04794:  MOVWF  x7A
04796:  MOVLW  02
04798:  MOVWF  x7B
0479A:  MOVLB  0
0479C:  CALL   0BFC
....................                            printf(lcd_putc,"     "); 
047A0:  MOVLW  36
047A2:  MOVWF  FF6
047A4:  MOVLW  04
047A6:  MOVWF  FF7
047A8:  MOVLW  00
047AA:  MOVWF  FF8
047AC:  CALL   0CF2
....................                         }else{ 
047B0:  BRA    481A
047B2:  MOVLB  1
....................                            Secando=ON;   
047B4:  BSF    19.4
....................                            lcd_gotoxy(12,1); 
047B6:  MOVLW  0C
047B8:  MOVLB  2
047BA:  MOVWF  x7A
047BC:  MOVLW  01
047BE:  MOVWF  x7B
047C0:  MOVLB  0
047C2:  CALL   0BFC
....................                            printf(lcd_putc,"DRY  "); 
047C6:  MOVLW  3C
047C8:  MOVWF  FF6
047CA:  MOVLW  04
047CC:  MOVWF  FF7
047CE:  MOVLW  00
047D0:  MOVWF  FF8
047D2:  CALL   0CF2
....................                            lcd_gotoxy(7,2); 
047D6:  MOVLW  07
047D8:  MOVLB  2
047DA:  MOVWF  x7A
047DC:  MOVLW  02
047DE:  MOVWF  x7B
047E0:  MOVLB  0
047E2:  CALL   0BFC
....................                            printf(lcd_putc,"%02u:%02u",mSec,sSec); 
047E6:  MOVFF  1CC,26F
047EA:  MOVLW  01
047EC:  MOVLB  2
047EE:  MOVWF  x70
047F0:  MOVLB  0
047F2:  CALL   1BA4
047F6:  MOVLW  3A
047F8:  MOVLB  2
047FA:  MOVWF  x79
047FC:  MOVLB  0
047FE:  CALL   0C74
04802:  MOVFF  1CB,26F
04806:  MOVLW  01
04808:  MOVLB  2
0480A:  MOVWF  x70
0480C:  MOVLB  0
0480E:  CALL   1BA4
....................                            Desfogue_on; 
04812:  BSF    F8B.0
04814:  BCF    F94.0
....................                            Solenoide_on; 
04816:  BSF    F8B.2
04818:  BCF    F94.2
....................                         } 
....................                      }else{ 
0481A:  BRA    486A
0481C:  MOVLB  2
....................                         Desfogando=ON; 
0481E:  BSF    19.6
....................                         lcd_gotoxy(12,1); 
04820:  MOVLW  0C
04822:  MOVWF  x7A
04824:  MOVLW  01
04826:  MOVWF  x7B
04828:  MOVLB  0
0482A:  CALL   0BFC
....................                         printf(lcd_putc,"EXH  "); 
0482E:  MOVLW  42
04830:  MOVWF  FF6
04832:  MOVLW  04
04834:  MOVWF  FF7
04836:  MOVLW  00
04838:  MOVWF  FF8
0483A:  CALL   0CF2
....................                         Control=0; 
0483E:  MOVLB  2
04840:  CLRF   x23
....................                         SSR_off; 
04842:  BCF    F8D.2
04844:  BCF    F96.2
....................                         Controlando=0; 
04846:  CLRF   x25
....................                         lcd_gotoxy(7,2); 
04848:  MOVLW  07
0484A:  MOVWF  x7A
0484C:  MOVLW  02
0484E:  MOVWF  x7B
04850:  MOVLB  0
04852:  CALL   0BFC
....................                         printf(lcd_putc,"     "); 
04856:  MOVLW  48
04858:  MOVWF  FF6
0485A:  MOVLW  04
0485C:  MOVWF  FF7
0485E:  MOVLW  00
04860:  MOVWF  FF8
04862:  CALL   0CF2
....................                         Desfogue_on; 
04866:  BSF    F8B.0
04868:  BCF    F94.0
....................                      } 
....................                   } 
....................                    
....................                }else{ 
0486A:  BRA    48D6
0486C:  MOVLB  1
....................                   lcd_gotoxy(12,1); 
0486E:  MOVLW  0C
04870:  MOVLB  2
04872:  MOVWF  x7A
04874:  MOVLW  01
04876:  MOVWF  x7B
04878:  MOVLB  0
0487A:  CALL   0BFC
....................                   printf(lcd_putc,"STER "); 
0487E:  MOVLW  4E
04880:  MOVWF  FF6
04882:  MOVLW  04
04884:  MOVWF  FF7
04886:  MOVLW  00
04888:  MOVWF  FF8
0488A:  CALL   0CF2
....................                   Control=1; 
0488E:  MOVLW  01
04890:  MOVLB  2
04892:  MOVWF  x23
....................                   Controla(); 
04894:  MOVLB  0
04896:  CALL   1FFC
....................                   lcd_gotoxy(7,2); 
0489A:  MOVLW  07
0489C:  MOVLB  2
0489E:  MOVWF  x7A
048A0:  MOVLW  02
048A2:  MOVWF  x7B
048A4:  MOVLB  0
048A6:  CALL   0BFC
....................                   printf(lcd_putc,"%02u:%02u",mEst,sEst); 
048AA:  MOVFF  1C8,26F
048AE:  MOVLW  01
048B0:  MOVLB  2
048B2:  MOVWF  x70
048B4:  MOVLB  0
048B6:  CALL   1BA4
048BA:  MOVLW  3A
048BC:  MOVLB  2
048BE:  MOVWF  x79
048C0:  MOVLB  0
048C2:  CALL   0C74
048C6:  MOVFF  1C7,26F
048CA:  MOVLW  01
048CC:  MOVLB  2
048CE:  MOVWF  x70
048D0:  MOVLB  0
048D2:  CALL   1BA4
048D6:  MOVLB  2
....................                } 
....................             } 
....................              
....................          } 
....................    } 
....................  
....................    if(Lectura==1){// Utilizado para visualizar la lectura de la temperatura         
048D8:  BTFSS  1B.4
048DA:  BRA    497E
....................       Lectura=0; 
048DC:  BCF    1B.4
....................       lcd_gotoxy(1,2); 
048DE:  MOVLW  01
048E0:  MOVWF  x7A
048E2:  MOVLW  02
048E4:  MOVWF  x7B
048E6:  MOVLB  0
048E8:  CALL   0BFC
....................       printf(lcd_putc,"%3.1f ",Temperatura); 
048EC:  MOVLW  02
048EE:  MOVWF  FE9
048F0:  MOVFF  20D,26F
048F4:  MOVFF  20C,26E
048F8:  MOVFF  20B,26D
048FC:  MOVFF  20A,26C
04900:  MOVLW  01
04902:  MOVLB  2
04904:  MOVWF  x70
04906:  MOVLB  0
04908:  CALL   1D1C
0490C:  MOVLW  20
0490E:  MOVLB  2
04910:  MOVWF  x79
04912:  MOVLB  0
04914:  CALL   0C74
....................       lcd_gotoxy(13,2); 
04918:  MOVLW  0D
0491A:  MOVLB  2
0491C:  MOVWF  x7A
0491E:  MOVLW  02
04920:  MOVWF  x7B
04922:  MOVLB  0
04924:  CALL   0BFC
....................       printf(lcd_putc,"%03LuK",PresionCamara); 
04928:  MOVLW  0A
0492A:  MOVWF  FE9
0492C:  MOVFF  239,26D
04930:  MOVFF  238,26C
04934:  CALL   1ED0
04938:  MOVLW  4B
0493A:  MOVLB  2
0493C:  MOVWF  x79
0493E:  MOVLB  0
04940:  CALL   0C74
....................       lcd_gotoxy(1,1); 
04944:  MOVLW  01
04946:  MOVLB  2
04948:  MOVWF  x7A
0494A:  MOVWF  x7B
0494C:  MOVLB  0
0494E:  CALL   0BFC
....................       printf(lcd_putc,"%s",Cycles[Programa-1]); 
04952:  MOVLW  01
04954:  MOVLB  1
04956:  SUBWF  xC6,W
04958:  MULLW  0C
0495A:  MOVF   FF3,W
0495C:  CLRF   03
0495E:  MOVLB  2
04960:  MOVWF  x6C
04962:  MOVLW  CC
04964:  MOVWF  FF6
04966:  MOVLW  00
04968:  MOVWF  FF7
0496A:  MOVLW  00
0496C:  MOVWF  FF8
0496E:  MOVF   x6C,W
04970:  ADDWF  FF6,F
04972:  MOVLW  00
04974:  ADDWFC FF7,F
04976:  MOVLB  0
04978:  CALL   0CF2
0497C:  MOVLB  2
....................    } 
.................... } 
.................... //_-------------------------------------------------------------------------------------------------------------------------------------------------------- 
....................  
.................... //_-------------------------------------------------------------------------------------------------------------------------------------------------------- 
....................    if(Menu==100){ // Configuraciones 
0497E:  MOVF   x27,W
04980:  SUBLW  64
04982:  BTFSS  FD8.2
04984:  GOTO   522A
....................       if(PARAMETERS){ 
04988:  BTFSS  1A.1
0498A:  BRA    49A6
....................          Config++;  
0498C:  INCF   x20,F
....................          delay_ms(100); 
0498E:  MOVLW  64
04990:  MOVWF  x7F
04992:  MOVLB  0
04994:  CALL   046E
....................          printf(lcd_putc,"\f"); 
04998:  MOVLW  0C
0499A:  MOVLB  2
0499C:  MOVWF  x79
0499E:  MOVLB  0
049A0:  CALL   0C74
049A4:  MOVLB  2
....................       } 
....................        
....................       if(PROGRAM){ 
049A6:  BTFSS  1A.2
049A8:  BRA    4B48
....................          delay_ms(500); 
049AA:  MOVLW  02
049AC:  MOVWF  x6C
049AE:  MOVLW  FA
049B0:  MOVWF  x7F
049B2:  MOVLB  0
049B4:  CALL   046E
049B8:  MOVLB  2
049BA:  DECFSZ x6C,F
049BC:  BRA    49AE
....................          if(PROGRAM){ 
049BE:  BTFSS  1A.2
049C0:  BRA    4B48
....................             write_eeprom(20,(int8)Ganancia); 
049C2:  MOVFF  1F9,26F
049C6:  MOVFF  1F8,26E
049CA:  MOVFF  1F7,26D
049CE:  MOVFF  1F6,26C
049D2:  MOVLB  0
049D4:  CALL   1B3C
049D8:  MOVFF  01,26C
049DC:  CLRF   FAA
049DE:  MOVLW  14
049E0:  MOVWF  FA9
049E2:  MOVFF  26C,FA8
049E6:  BCF    FA6.6
049E8:  BCF    FA6.7
049EA:  BSF    FA6.2
049EC:  MOVF   FF2,W
049EE:  MOVWF  00
049F0:  BCF    FF2.7
049F2:  MOVLB  F
049F4:  MOVLW  55
049F6:  MOVWF  FA7
049F8:  MOVLW  AA
049FA:  MOVWF  FA7
049FC:  BSF    FA6.1
049FE:  BTFSC  FA6.1
04A00:  BRA    49FE
04A02:  BCF    FA6.2
04A04:  MOVF   00,W
04A06:  IORWF  FF2,F
....................             delay_ms(10); 
04A08:  MOVLW  0A
04A0A:  MOVLB  2
04A0C:  MOVWF  x7F
04A0E:  MOVLB  0
04A10:  CALL   046E
....................             write_eeprom(21,Ajuste); 
04A14:  CLRF   FAA
04A16:  MOVLW  15
04A18:  MOVWF  FA9
04A1A:  MOVFF  1D2,FA8
04A1E:  BCF    FA6.6
04A20:  BCF    FA6.7
04A22:  BSF    FA6.2
04A24:  MOVF   FF2,W
04A26:  MOVWF  00
04A28:  BCF    FF2.7
04A2A:  MOVLB  F
04A2C:  MOVLW  55
04A2E:  MOVWF  FA7
04A30:  MOVLW  AA
04A32:  MOVWF  FA7
04A34:  BSF    FA6.1
04A36:  BTFSC  FA6.1
04A38:  BRA    4A36
04A3A:  BCF    FA6.2
04A3C:  MOVF   00,W
04A3E:  IORWF  FF2,F
....................             delay_ms(10); 
04A40:  MOVLW  0A
04A42:  MOVLB  2
04A44:  MOVWF  x7F
04A46:  MOVLB  0
04A48:  CALL   046E
....................             write_eeprom(22,Ajusten); 
04A4C:  CLRF   FAA
04A4E:  MOVLW  16
04A50:  MOVWF  FA9
04A52:  MOVFF  1D3,FA8
04A56:  BCF    FA6.6
04A58:  BCF    FA6.7
04A5A:  BSF    FA6.2
04A5C:  MOVF   FF2,W
04A5E:  MOVWF  00
04A60:  BCF    FF2.7
04A62:  MOVLB  F
04A64:  MOVLW  55
04A66:  MOVWF  FA7
04A68:  MOVLW  AA
04A6A:  MOVWF  FA7
04A6C:  BSF    FA6.1
04A6E:  BTFSC  FA6.1
04A70:  BRA    4A6E
04A72:  BCF    FA6.2
04A74:  MOVF   00,W
04A76:  IORWF  FF2,F
....................             delay_ms(10); 
04A78:  MOVLW  0A
04A7A:  MOVLB  2
04A7C:  MOVWF  x7F
04A7E:  MOVLB  0
04A80:  CALL   046E
....................             write_eeprom(26,Integral);             
04A84:  CLRF   FAA
04A86:  MOVLW  1A
04A88:  MOVWF  FA9
04A8A:  MOVFF  21E,FA8
04A8E:  BCF    FA6.6
04A90:  BCF    FA6.7
04A92:  BSF    FA6.2
04A94:  MOVF   FF2,W
04A96:  MOVWF  00
04A98:  BCF    FF2.7
04A9A:  MOVLB  F
04A9C:  MOVLW  55
04A9E:  MOVWF  FA7
04AA0:  MOVLW  AA
04AA2:  MOVWF  FA7
04AA4:  BSF    FA6.1
04AA6:  BTFSC  FA6.1
04AA8:  BRA    4AA6
04AAA:  BCF    FA6.2
04AAC:  MOVF   00,W
04AAE:  IORWF  FF2,F
....................             delay_ms(10); 
04AB0:  MOVLW  0A
04AB2:  MOVLB  2
04AB4:  MOVWF  x7F
04AB6:  MOVLB  0
04AB8:  CALL   046E
....................             write_eeprom(27,Derivativo); 
04ABC:  CLRF   FAA
04ABE:  MOVLW  1B
04AC0:  MOVWF  FA9
04AC2:  MOVFF  21F,FA8
04AC6:  BCF    FA6.6
04AC8:  BCF    FA6.7
04ACA:  BSF    FA6.2
04ACC:  MOVF   FF2,W
04ACE:  MOVWF  00
04AD0:  BCF    FF2.7
04AD2:  MOVLB  F
04AD4:  MOVLW  55
04AD6:  MOVWF  FA7
04AD8:  MOVLW  AA
04ADA:  MOVWF  FA7
04ADC:  BSF    FA6.1
04ADE:  BTFSC  FA6.1
04AE0:  BRA    4ADE
04AE2:  BCF    FA6.2
04AE4:  MOVF   00,W
04AE6:  IORWF  FF2,F
....................             delay_ms(10); 
04AE8:  MOVLW  0A
04AEA:  MOVLB  2
04AEC:  MOVWF  x7F
04AEE:  MOVLB  0
04AF0:  CALL   046E
....................             write_eeprom(39,Ttrampa); 
04AF4:  CLRF   FAA
04AF6:  MOVLW  27
04AF8:  MOVWF  FA9
04AFA:  MOVFF  1D5,FA8
04AFE:  BCF    FA6.6
04B00:  BCF    FA6.7
04B02:  BSF    FA6.2
04B04:  MOVF   FF2,W
04B06:  MOVWF  00
04B08:  BCF    FF2.7
04B0A:  MOVLB  F
04B0C:  MOVLW  55
04B0E:  MOVWF  FA7
04B10:  MOVLW  AA
04B12:  MOVWF  FA7
04B14:  BSF    FA6.1
04B16:  BTFSC  FA6.1
04B18:  BRA    4B16
04B1A:  BCF    FA6.2
04B1C:  MOVF   00,W
04B1E:  IORWF  FF2,F
....................             delay_ms(10);  
04B20:  MOVLW  0A
04B22:  MOVLB  2
04B24:  MOVWF  x7F
04B26:  MOVLB  0
04B28:  CALL   046E
....................             Buzzer_on; 
04B2C:  BSF    F8B.4
04B2E:  BCF    F94.4
....................             delay_ms(1000); 
04B30:  MOVLW  04
04B32:  MOVLB  2
04B34:  MOVWF  x6C
04B36:  MOVLW  FA
04B38:  MOVWF  x7F
04B3A:  MOVLB  0
04B3C:  CALL   046E
04B40:  MOVLB  2
04B42:  DECFSZ x6C,F
04B44:  BRA    4B36
....................             reset_cpu(); 
04B46:  RESET
....................          } 
....................       } 
....................        
....................       if(Config>6) 
04B48:  MOVF   x20,W
04B4A:  SUBLW  06
04B4C:  BC    4B52
....................          Config=1; 
04B4E:  MOVLW  01
04B50:  MOVWF  x20
....................           
....................       if(Config<1) 
04B52:  MOVF   x20,F
04B54:  BNZ   4B5A
....................          Config=6;  
04B56:  MOVLW  06
04B58:  MOVWF  x20
....................           
....................       lcd_gotoxy(1,1); 
04B5A:  MOVLW  01
04B5C:  MOVWF  x7A
04B5E:  MOVWF  x7B
04B60:  MOVLB  0
04B62:  CALL   0BFC
....................       printf(lcd_putc,"Configuraciones ");       
04B66:  MOVLW  54
04B68:  MOVWF  FF6
04B6A:  MOVLW  04
04B6C:  MOVWF  FF7
04B6E:  MOVLW  00
04B70:  MOVWF  FF8
04B72:  CALL   0CF2
....................        
....................       if(Config==1){ 
04B76:  MOVLB  2
04B78:  DECFSZ x20,W
04B7A:  BRA    4CB8
....................          lcd_gotoxy(1,2); 
04B7C:  MOVLW  01
04B7E:  MOVWF  x7A
04B80:  MOVLW  02
04B82:  MOVWF  x7B
04B84:  MOVLB  0
04B86:  CALL   0BFC
....................          printf(lcd_putc,"P"); 
04B8A:  MOVLW  50
04B8C:  MOVLB  2
04B8E:  MOVWF  x79
04B90:  MOVLB  0
04B92:  CALL   0C74
....................          lcd_gotoxy(10,2); 
04B96:  MOVLW  0A
04B98:  MOVLB  2
04B9A:  MOVWF  x7A
04B9C:  MOVLW  02
04B9E:  MOVWF  x7B
04BA0:  MOVLB  0
04BA2:  CALL   0BFC
....................          printf(lcd_putc,"%02.0f",Ganancia); 
04BA6:  MOVLW  41
04BA8:  MOVWF  FE9
04BAA:  MOVFF  1F9,26F
04BAE:  MOVFF  1F8,26E
04BB2:  MOVFF  1F7,26D
04BB6:  MOVFF  1F6,26C
04BBA:  MOVLB  2
04BBC:  CLRF   x70
04BBE:  MOVLB  0
04BC0:  CALL   1D1C
....................          if(UP){ 
04BC4:  BTFSS  1A.4
04BC6:  BRA    4C08
....................             delay_ms(100); 
04BC8:  MOVLW  64
04BCA:  MOVLB  2
04BCC:  MOVWF  x7F
04BCE:  MOVLB  0
04BD0:  CALL   046E
....................             Ganancia+=1.0; 
04BD4:  BCF    FD8.1
04BD6:  MOVFF  1F9,274
04BDA:  MOVFF  1F8,273
04BDE:  MOVFF  1F7,272
04BE2:  MOVFF  1F6,271
04BE6:  MOVLB  2
04BE8:  CLRF   x78
04BEA:  CLRF   x77
04BEC:  CLRF   x76
04BEE:  MOVLW  7F
04BF0:  MOVWF  x75
04BF2:  MOVLB  0
04BF4:  CALL   0ECE
04BF8:  MOVFF  03,1F9
04BFC:  MOVFF  02,1F8
04C00:  MOVFF  01,1F7
04C04:  MOVFF  00,1F6
....................          } 
....................          if(DOWN){ 
04C08:  BSF    F93.3
04C0A:  BTFSC  F81.3
04C0C:  BRA    4C4E
....................             delay_ms(100); 
04C0E:  MOVLW  64
04C10:  MOVLB  2
04C12:  MOVWF  x7F
04C14:  MOVLB  0
04C16:  CALL   046E
....................             Ganancia-=1.0; 
04C1A:  BSF    FD8.1
04C1C:  MOVFF  1F9,274
04C20:  MOVFF  1F8,273
04C24:  MOVFF  1F7,272
04C28:  MOVFF  1F6,271
04C2C:  MOVLB  2
04C2E:  CLRF   x78
04C30:  CLRF   x77
04C32:  CLRF   x76
04C34:  MOVLW  7F
04C36:  MOVWF  x75
04C38:  MOVLB  0
04C3A:  CALL   0ECE
04C3E:  MOVFF  03,1F9
04C42:  MOVFF  02,1F8
04C46:  MOVFF  01,1F7
04C4A:  MOVFF  00,1F6
....................          } 
....................          if(Ganancia>30)Ganancia=30; 
04C4E:  MOVLB  2
04C50:  CLRF   x73
04C52:  CLRF   x72
04C54:  MOVLW  70
04C56:  MOVWF  x71
04C58:  MOVLW  83
04C5A:  MOVWF  x70
04C5C:  MOVFF  1F9,277
04C60:  MOVFF  1F8,276
04C64:  MOVFF  1F7,275
04C68:  MOVFF  1F6,274
04C6C:  MOVLB  0
04C6E:  CALL   08BC
04C72:  BNC   4C82
04C74:  MOVLB  1
04C76:  CLRF   xF9
04C78:  CLRF   xF8
04C7A:  MOVLW  70
04C7C:  MOVWF  xF7
04C7E:  MOVLW  83
04C80:  MOVWF  xF6
....................          if(Ganancia<1)Ganancia=1; 
04C82:  MOVFF  1F9,273
04C86:  MOVFF  1F8,272
04C8A:  MOVFF  1F7,271
04C8E:  MOVFF  1F6,270
04C92:  MOVLB  2
04C94:  CLRF   x77
04C96:  CLRF   x76
04C98:  CLRF   x75
04C9A:  MOVLW  7F
04C9C:  MOVWF  x74
04C9E:  MOVLB  0
04CA0:  CALL   08BC
04CA4:  BNC   4CB4
04CA6:  MOVLB  1
04CA8:  CLRF   xF9
04CAA:  CLRF   xF8
04CAC:  CLRF   xF7
04CAE:  MOVLW  7F
04CB0:  MOVWF  xF6
04CB2:  MOVLB  0
....................       }else if(Config==2){ 
04CB4:  BRA    5228
04CB6:  MOVLB  2
04CB8:  MOVF   x20,W
04CBA:  SUBLW  02
04CBC:  BTFSS  FD8.2
04CBE:  BRA    4DC6
....................          lcd_gotoxy(1,2); 
04CC0:  MOVLW  01
04CC2:  MOVWF  x7A
04CC4:  MOVLW  02
04CC6:  MOVWF  x7B
04CC8:  MOVLB  0
04CCA:  CALL   0BFC
....................          printf(lcd_putc,"D"); 
04CCE:  MOVLW  44
04CD0:  MOVLB  2
04CD2:  MOVWF  x79
04CD4:  MOVLB  0
04CD6:  CALL   0C74
....................          lcd_gotoxy(10,2); 
04CDA:  MOVLW  0A
04CDC:  MOVLB  2
04CDE:  MOVWF  x7A
04CE0:  MOVLW  02
04CE2:  MOVWF  x7B
04CE4:  MOVLB  0
04CE6:  CALL   0BFC
....................          printf(lcd_putc,"%02u",Derivativo); 
04CEA:  MOVFF  21F,26F
04CEE:  MOVLW  01
04CF0:  MOVLB  2
04CF2:  MOVWF  x70
04CF4:  MOVLB  0
04CF6:  CALL   1BA4
....................          if(UP){ 
04CFA:  BTFSS  1A.4
04CFC:  BRA    4D54
....................             delay_ms(100); 
04CFE:  MOVLW  64
04D00:  MOVLB  2
04D02:  MOVWF  x7F
04D04:  MOVLB  0
04D06:  CALL   046E
....................             Derivativo+=1.0; 
04D0A:  MOVLB  2
04D0C:  CLRF   x73
04D0E:  MOVFF  21F,272
04D12:  MOVLB  0
04D14:  CALL   056A
04D18:  BCF    FD8.1
04D1A:  MOVFF  03,274
04D1E:  MOVFF  02,273
04D22:  MOVFF  01,272
04D26:  MOVFF  00,271
04D2A:  MOVLB  2
04D2C:  CLRF   x78
04D2E:  CLRF   x77
04D30:  CLRF   x76
04D32:  MOVLW  7F
04D34:  MOVWF  x75
04D36:  MOVLB  0
04D38:  CALL   0ECE
04D3C:  MOVFF  03,26F
04D40:  MOVFF  02,26E
04D44:  MOVFF  01,26D
04D48:  MOVFF  00,26C
04D4C:  CALL   1B3C
04D50:  MOVFF  01,21F
....................          } 
....................          if(DOWN){ 
04D54:  BSF    F93.3
04D56:  BTFSC  F81.3
04D58:  BRA    4DB0
....................             delay_ms(100); 
04D5A:  MOVLW  64
04D5C:  MOVLB  2
04D5E:  MOVWF  x7F
04D60:  MOVLB  0
04D62:  CALL   046E
....................             Derivativo-=1.0; 
04D66:  MOVLB  2
04D68:  CLRF   x73
04D6A:  MOVFF  21F,272
04D6E:  MOVLB  0
04D70:  CALL   056A
04D74:  BSF    FD8.1
04D76:  MOVFF  03,274
04D7A:  MOVFF  02,273
04D7E:  MOVFF  01,272
04D82:  MOVFF  00,271
04D86:  MOVLB  2
04D88:  CLRF   x78
04D8A:  CLRF   x77
04D8C:  CLRF   x76
04D8E:  MOVLW  7F
04D90:  MOVWF  x75
04D92:  MOVLB  0
04D94:  CALL   0ECE
04D98:  MOVFF  03,26F
04D9C:  MOVFF  02,26E
04DA0:  MOVFF  01,26D
04DA4:  MOVFF  00,26C
04DA8:  CALL   1B3C
04DAC:  MOVFF  01,21F
....................          } 
....................          if(Derivativo>80)Derivativo=80; 
04DB0:  MOVLB  2
04DB2:  MOVF   x1F,W
04DB4:  SUBLW  50
04DB6:  BC    4DBC
04DB8:  MOVLW  50
04DBA:  MOVWF  x1F
....................          if(Derivativo<1)Derivativo=1; 
04DBC:  MOVF   x1F,F
04DBE:  BNZ   4DC4
04DC0:  MOVLW  01
04DC2:  MOVWF  x1F
....................       }else if(Config==3){ 
04DC4:  BRA    5226
04DC6:  MOVF   x20,W
04DC8:  SUBLW  03
04DCA:  BTFSS  FD8.2
04DCC:  BRA    4ED4
....................          lcd_gotoxy(1,2); 
04DCE:  MOVLW  01
04DD0:  MOVWF  x7A
04DD2:  MOVLW  02
04DD4:  MOVWF  x7B
04DD6:  MOVLB  0
04DD8:  CALL   0BFC
....................          printf(lcd_putc,"I"); 
04DDC:  MOVLW  49
04DDE:  MOVLB  2
04DE0:  MOVWF  x79
04DE2:  MOVLB  0
04DE4:  CALL   0C74
....................          lcd_gotoxy(10,2); 
04DE8:  MOVLW  0A
04DEA:  MOVLB  2
04DEC:  MOVWF  x7A
04DEE:  MOVLW  02
04DF0:  MOVWF  x7B
04DF2:  MOVLB  0
04DF4:  CALL   0BFC
....................          printf(lcd_putc,"%02u",Integral); 
04DF8:  MOVFF  21E,26F
04DFC:  MOVLW  01
04DFE:  MOVLB  2
04E00:  MOVWF  x70
04E02:  MOVLB  0
04E04:  CALL   1BA4
....................          if(UP){ 
04E08:  BTFSS  1A.4
04E0A:  BRA    4E62
....................             delay_ms(100); 
04E0C:  MOVLW  64
04E0E:  MOVLB  2
04E10:  MOVWF  x7F
04E12:  MOVLB  0
04E14:  CALL   046E
....................             Integral+=1.0; 
04E18:  MOVLB  2
04E1A:  CLRF   x73
04E1C:  MOVFF  21E,272
04E20:  MOVLB  0
04E22:  CALL   056A
04E26:  BCF    FD8.1
04E28:  MOVFF  03,274
04E2C:  MOVFF  02,273
04E30:  MOVFF  01,272
04E34:  MOVFF  00,271
04E38:  MOVLB  2
04E3A:  CLRF   x78
04E3C:  CLRF   x77
04E3E:  CLRF   x76
04E40:  MOVLW  7F
04E42:  MOVWF  x75
04E44:  MOVLB  0
04E46:  CALL   0ECE
04E4A:  MOVFF  03,26F
04E4E:  MOVFF  02,26E
04E52:  MOVFF  01,26D
04E56:  MOVFF  00,26C
04E5A:  CALL   1B3C
04E5E:  MOVFF  01,21E
....................          } 
....................          if(DOWN){ 
04E62:  BSF    F93.3
04E64:  BTFSC  F81.3
04E66:  BRA    4EBE
....................             delay_ms(100); 
04E68:  MOVLW  64
04E6A:  MOVLB  2
04E6C:  MOVWF  x7F
04E6E:  MOVLB  0
04E70:  CALL   046E
....................             Integral-=1.0; 
04E74:  MOVLB  2
04E76:  CLRF   x73
04E78:  MOVFF  21E,272
04E7C:  MOVLB  0
04E7E:  CALL   056A
04E82:  BSF    FD8.1
04E84:  MOVFF  03,274
04E88:  MOVFF  02,273
04E8C:  MOVFF  01,272
04E90:  MOVFF  00,271
04E94:  MOVLB  2
04E96:  CLRF   x78
04E98:  CLRF   x77
04E9A:  CLRF   x76
04E9C:  MOVLW  7F
04E9E:  MOVWF  x75
04EA0:  MOVLB  0
04EA2:  CALL   0ECE
04EA6:  MOVFF  03,26F
04EAA:  MOVFF  02,26E
04EAE:  MOVFF  01,26D
04EB2:  MOVFF  00,26C
04EB6:  CALL   1B3C
04EBA:  MOVFF  01,21E
....................          } 
....................          if(Integral>3)Integral=3; 
04EBE:  MOVLB  2
04EC0:  MOVF   x1E,W
04EC2:  SUBLW  03
04EC4:  BC    4ECA
04EC6:  MOVLW  03
04EC8:  MOVWF  x1E
....................          if(Integral<1)Integral=1; 
04ECA:  MOVF   x1E,F
04ECC:  BNZ   4ED2
04ECE:  MOVLW  01
04ED0:  MOVWF  x1E
....................       }else if(Config==4){ 
04ED2:  BRA    5226
04ED4:  MOVF   x20,W
04ED6:  SUBLW  04
04ED8:  BTFSS  FD8.2
04EDA:  BRA    4FEA
....................          lcd_gotoxy(1,2); 
04EDC:  MOVLW  01
04EDE:  MOVWF  x7A
04EE0:  MOVLW  02
04EE2:  MOVWF  x7B
04EE4:  MOVLB  0
04EE6:  CALL   0BFC
....................          printf(lcd_putc,"TTrampa"); 
04EEA:  MOVLW  66
04EEC:  MOVWF  FF6
04EEE:  MOVLW  04
04EF0:  MOVWF  FF7
04EF2:  MOVLW  00
04EF4:  MOVWF  FF8
04EF6:  CALL   0CF2
....................          lcd_gotoxy(10,2); 
04EFA:  MOVLW  0A
04EFC:  MOVLB  2
04EFE:  MOVWF  x7A
04F00:  MOVLW  02
04F02:  MOVWF  x7B
04F04:  MOVLB  0
04F06:  CALL   0BFC
....................          printf(lcd_putc,"%02u",TTrampa); 
04F0A:  MOVFF  1D5,26F
04F0E:  MOVLW  01
04F10:  MOVLB  2
04F12:  MOVWF  x70
04F14:  MOVLB  0
04F16:  CALL   1BA4
....................          if(UP){ 
04F1A:  BTFSS  1A.4
04F1C:  BRA    4F74
....................             delay_ms(100); 
04F1E:  MOVLW  64
04F20:  MOVLB  2
04F22:  MOVWF  x7F
04F24:  MOVLB  0
04F26:  CALL   046E
....................             TTrampa+=1.0; 
04F2A:  MOVLB  2
04F2C:  CLRF   x73
04F2E:  MOVFF  1D5,272
04F32:  MOVLB  0
04F34:  CALL   056A
04F38:  BCF    FD8.1
04F3A:  MOVFF  03,274
04F3E:  MOVFF  02,273
04F42:  MOVFF  01,272
04F46:  MOVFF  00,271
04F4A:  MOVLB  2
04F4C:  CLRF   x78
04F4E:  CLRF   x77
04F50:  CLRF   x76
04F52:  MOVLW  7F
04F54:  MOVWF  x75
04F56:  MOVLB  0
04F58:  CALL   0ECE
04F5C:  MOVFF  03,26F
04F60:  MOVFF  02,26E
04F64:  MOVFF  01,26D
04F68:  MOVFF  00,26C
04F6C:  CALL   1B3C
04F70:  MOVFF  01,1D5
....................          } 
....................          if(DOWN){ 
04F74:  BSF    F93.3
04F76:  BTFSC  F81.3
04F78:  BRA    4FD0
....................             delay_ms(100); 
04F7A:  MOVLW  64
04F7C:  MOVLB  2
04F7E:  MOVWF  x7F
04F80:  MOVLB  0
04F82:  CALL   046E
....................             TTrampa-=1.0; 
04F86:  MOVLB  2
04F88:  CLRF   x73
04F8A:  MOVFF  1D5,272
04F8E:  MOVLB  0
04F90:  CALL   056A
04F94:  BSF    FD8.1
04F96:  MOVFF  03,274
04F9A:  MOVFF  02,273
04F9E:  MOVFF  01,272
04FA2:  MOVFF  00,271
04FA6:  MOVLB  2
04FA8:  CLRF   x78
04FAA:  CLRF   x77
04FAC:  CLRF   x76
04FAE:  MOVLW  7F
04FB0:  MOVWF  x75
04FB2:  MOVLB  0
04FB4:  CALL   0ECE
04FB8:  MOVFF  03,26F
04FBC:  MOVFF  02,26E
04FC0:  MOVFF  01,26D
04FC4:  MOVFF  00,26C
04FC8:  CALL   1B3C
04FCC:  MOVFF  01,1D5
....................          } 
....................          if(TTrampa>100)TTrampa=100; 
04FD0:  MOVLB  1
04FD2:  MOVF   xD5,W
04FD4:  SUBLW  64
04FD6:  BC    4FDC
04FD8:  MOVLW  64
04FDA:  MOVWF  xD5
....................          if(TTrampa<80)TTrampa=80; 
04FDC:  MOVF   xD5,W
04FDE:  SUBLW  4F
04FE0:  BNC   4FE6
04FE2:  MOVLW  50
04FE4:  MOVWF  xD5
....................       }else if(Config==5){ 
04FE6:  BRA    5226
04FE8:  MOVLB  2
04FEA:  MOVF   x20,W
04FEC:  SUBLW  05
04FEE:  BTFSS  FD8.2
04FF0:  BRA    510A
....................          lcd_gotoxy(1,2); 
04FF2:  MOVLW  01
04FF4:  MOVWF  x7A
04FF6:  MOVLW  02
04FF8:  MOVWF  x7B
04FFA:  MOVLB  0
04FFC:  CALL   0BFC
....................          printf(lcd_putc,"Aj+"); 
05000:  MOVLW  41
05002:  MOVLB  2
05004:  MOVWF  x79
05006:  MOVLB  0
05008:  CALL   0C74
0500C:  MOVLW  6A
0500E:  MOVLB  2
05010:  MOVWF  x79
05012:  MOVLB  0
05014:  CALL   0C74
05018:  MOVLW  2B
0501A:  MOVLB  2
0501C:  MOVWF  x79
0501E:  MOVLB  0
05020:  CALL   0C74
....................          lcd_gotoxy(10,2); 
05024:  MOVLW  0A
05026:  MOVLB  2
05028:  MOVWF  x7A
0502A:  MOVLW  02
0502C:  MOVWF  x7B
0502E:  MOVLB  0
05030:  CALL   0BFC
....................          printf(lcd_putc,"%02u",Ajuste); 
05034:  MOVFF  1D2,26F
05038:  MOVLW  01
0503A:  MOVLB  2
0503C:  MOVWF  x70
0503E:  MOVLB  0
05040:  CALL   1BA4
....................          if(UP){ 
05044:  BTFSS  1A.4
05046:  BRA    509E
....................             delay_ms(100); 
05048:  MOVLW  64
0504A:  MOVLB  2
0504C:  MOVWF  x7F
0504E:  MOVLB  0
05050:  CALL   046E
....................             Ajuste+=1.0; 
05054:  MOVLB  2
05056:  CLRF   x73
05058:  MOVFF  1D2,272
0505C:  MOVLB  0
0505E:  CALL   056A
05062:  BCF    FD8.1
05064:  MOVFF  03,274
05068:  MOVFF  02,273
0506C:  MOVFF  01,272
05070:  MOVFF  00,271
05074:  MOVLB  2
05076:  CLRF   x78
05078:  CLRF   x77
0507A:  CLRF   x76
0507C:  MOVLW  7F
0507E:  MOVWF  x75
05080:  MOVLB  0
05082:  CALL   0ECE
05086:  MOVFF  03,26F
0508A:  MOVFF  02,26E
0508E:  MOVFF  01,26D
05092:  MOVFF  00,26C
05096:  CALL   1B3C
0509A:  MOVFF  01,1D2
....................          } 
....................          if(DOWN){ 
0509E:  BSF    F93.3
050A0:  BTFSC  F81.3
050A2:  BRA    50FA
....................             delay_ms(100); 
050A4:  MOVLW  64
050A6:  MOVLB  2
050A8:  MOVWF  x7F
050AA:  MOVLB  0
050AC:  CALL   046E
....................             Ajuste-=1.0; 
050B0:  MOVLB  2
050B2:  CLRF   x73
050B4:  MOVFF  1D2,272
050B8:  MOVLB  0
050BA:  CALL   056A
050BE:  BSF    FD8.1
050C0:  MOVFF  03,274
050C4:  MOVFF  02,273
050C8:  MOVFF  01,272
050CC:  MOVFF  00,271
050D0:  MOVLB  2
050D2:  CLRF   x78
050D4:  CLRF   x77
050D6:  CLRF   x76
050D8:  MOVLW  7F
050DA:  MOVWF  x75
050DC:  MOVLB  0
050DE:  CALL   0ECE
050E2:  MOVFF  03,26F
050E6:  MOVFF  02,26E
050EA:  MOVFF  01,26D
050EE:  MOVFF  00,26C
050F2:  CALL   1B3C
050F6:  MOVFF  01,1D2
....................          } 
....................          if(Ajuste>10)Ajuste=10; 
050FA:  MOVLB  1
050FC:  MOVF   xD2,W
050FE:  SUBLW  0A
05100:  BC    5106
05102:  MOVLW  0A
05104:  MOVWF  xD2
....................       }else if(Config==6){ 
05106:  BRA    5226
05108:  MOVLB  2
0510A:  MOVF   x20,W
0510C:  SUBLW  06
0510E:  BTFSS  FD8.2
05110:  BRA    5226
....................          lcd_gotoxy(1,2); 
05112:  MOVLW  01
05114:  MOVWF  x7A
05116:  MOVLW  02
05118:  MOVWF  x7B
0511A:  MOVLB  0
0511C:  CALL   0BFC
....................          printf(lcd_putc,"Aj-"); 
05120:  MOVLW  41
05122:  MOVLB  2
05124:  MOVWF  x79
05126:  MOVLB  0
05128:  CALL   0C74
0512C:  MOVLW  6A
0512E:  MOVLB  2
05130:  MOVWF  x79
05132:  MOVLB  0
05134:  CALL   0C74
05138:  MOVLW  2D
0513A:  MOVLB  2
0513C:  MOVWF  x79
0513E:  MOVLB  0
05140:  CALL   0C74
....................          lcd_gotoxy(10,2); 
05144:  MOVLW  0A
05146:  MOVLB  2
05148:  MOVWF  x7A
0514A:  MOVLW  02
0514C:  MOVWF  x7B
0514E:  MOVLB  0
05150:  CALL   0BFC
....................          printf(lcd_putc,"%02u",Ajusten); 
05154:  MOVFF  1D3,26F
05158:  MOVLW  01
0515A:  MOVLB  2
0515C:  MOVWF  x70
0515E:  MOVLB  0
05160:  CALL   1BA4
....................          if(UP){ 
05164:  BTFSS  1A.4
05166:  BRA    51BE
....................             delay_ms(100); 
05168:  MOVLW  64
0516A:  MOVLB  2
0516C:  MOVWF  x7F
0516E:  MOVLB  0
05170:  CALL   046E
....................             Ajusten+=1.0; 
05174:  MOVLB  2
05176:  CLRF   x73
05178:  MOVFF  1D3,272
0517C:  MOVLB  0
0517E:  CALL   056A
05182:  BCF    FD8.1
05184:  MOVFF  03,274
05188:  MOVFF  02,273
0518C:  MOVFF  01,272
05190:  MOVFF  00,271
05194:  MOVLB  2
05196:  CLRF   x78
05198:  CLRF   x77
0519A:  CLRF   x76
0519C:  MOVLW  7F
0519E:  MOVWF  x75
051A0:  MOVLB  0
051A2:  CALL   0ECE
051A6:  MOVFF  03,26F
051AA:  MOVFF  02,26E
051AE:  MOVFF  01,26D
051B2:  MOVFF  00,26C
051B6:  CALL   1B3C
051BA:  MOVFF  01,1D3
....................          } 
....................          if(DOWN){ 
051BE:  BSF    F93.3
051C0:  BTFSC  F81.3
051C2:  BRA    521A
....................             delay_ms(100); 
051C4:  MOVLW  64
051C6:  MOVLB  2
051C8:  MOVWF  x7F
051CA:  MOVLB  0
051CC:  CALL   046E
....................             Ajusten-=1.0; 
051D0:  MOVLB  2
051D2:  CLRF   x73
051D4:  MOVFF  1D3,272
051D8:  MOVLB  0
051DA:  CALL   056A
051DE:  BSF    FD8.1
051E0:  MOVFF  03,274
051E4:  MOVFF  02,273
051E8:  MOVFF  01,272
051EC:  MOVFF  00,271
051F0:  MOVLB  2
051F2:  CLRF   x78
051F4:  CLRF   x77
051F6:  CLRF   x76
051F8:  MOVLW  7F
051FA:  MOVWF  x75
051FC:  MOVLB  0
051FE:  CALL   0ECE
05202:  MOVFF  03,26F
05206:  MOVFF  02,26E
0520A:  MOVFF  01,26D
0520E:  MOVFF  00,26C
05212:  CALL   1B3C
05216:  MOVFF  01,1D3
....................          } 
....................          if(Ajusten>10)Ajusten=10; 
0521A:  MOVLB  1
0521C:  MOVF   xD3,W
0521E:  SUBLW  0A
05220:  BC    5226
05222:  MOVLW  0A
05224:  MOVWF  xD3
05226:  MOVLB  0
05228:  MOVLB  2
....................       } 
....................    } 
.................... //_-------------------------------------------------------------------------------------------------------------------------------------------------------- 
....................        
....................    } 
0522A:  GOTO   2C08
.................... } 
....................  
0522E:  SLEEP 

Configuration Fuses:
   Word  1: 0200   HS NOIESO NOFCMEN
   Word  2: 1E1F   BROWNOUT NOWDT BORV20 NOPUT WDT32768
   Word  3: 0000   NOPBADEN NOLPT1OSC NOMCLR
   Word  4: 00B0   NOSTVREN NODEBUG NOLVP NOXINST BBSIZ4K
   Word  5: C03F   NOPROTECT NOCPD NOCPB
   Word  6: E03F   NOWRT NOWRTD NOWRTC NOWRTB
   Word  7: 403F   NOEBTR NOEBTRB
