CCS PCH C Compiler, Version 4.104, 5967               22-jun.-21 10:57

               Filename: D:\Laboratorio\Autoclave\Autoclave Horizontal\Sin Precamara\2020\Autoclave 40L Artilab #004588225 OP2020134\Firmware V4.0\GLCD_Controller-ModificacionEntradaAgua\GLCD_Controller.lst

               ROM used: 46390 bytes (47%)
                         Largest free fragment is 32768
               RAM used: 983 (30%) at main() level
                         1011 (30%) worst case
               Stack:    5 worst case (4 in main + 1 for interrupts)

*
00000:  GOTO   501A
*
00008:  GOTO   00BA
0000C:  NOP   
0000E:  NOP   
00010:  NOP   
00012:  NOP   
00014:  NOP   
00016:  NOP   
00018:  MOVWF  04
0001A:  MOVFF  FD8,05
0001E:  MOVFF  FE0,06
00022:  MOVLB  0
00024:  MOVFF  FE9,0C
00028:  MOVFF  FEA,07
0002C:  MOVFF  FE1,08
00030:  MOVFF  FE2,09
00034:  MOVFF  FD9,0A
00038:  MOVFF  FDA,0B
0003C:  MOVFF  FF3,12
00040:  MOVFF  FF4,13
00044:  MOVFF  FFA,14
00048:  MOVFF  FFB,15
0004C:  MOVFF  00,0E
00050:  MOVFF  01,0F
00054:  MOVFF  02,10
00058:  MOVFF  03,11
0005C:  BTFSS  FF2.5
0005E:  GOTO   0068
00062:  BTFSC  FF2.2
00064:  GOTO   0272
00068:  BTFSS  F9D.0
0006A:  GOTO   0074
0006E:  BTFSC  F9E.0
00070:  GOTO   02CA
00074:  MOVFF  0E,00
00078:  MOVFF  0F,01
0007C:  MOVFF  10,02
00080:  MOVFF  11,03
00084:  MOVFF  0C,FE9
00088:  MOVFF  07,FEA
0008C:  BSF    07.7
0008E:  MOVFF  08,FE1
00092:  MOVFF  09,FE2
00096:  MOVFF  0A,FD9
0009A:  MOVFF  0B,FDA
0009E:  MOVFF  12,FF3
000A2:  MOVFF  13,FF4
000A6:  MOVFF  14,FFA
000AA:  MOVFF  15,FFB
000AE:  MOVF   04,W
000B0:  MOVFF  06,FE0
000B4:  MOVFF  05,FD8
000B8:  RETFIE 0
000BA:  MOVWF  17
000BC:  MOVFF  FD8,18
000C0:  MOVFF  FE0,19
000C4:  MOVLB  0
000C6:  MOVFF  FE9,1F
000CA:  MOVFF  FEA,1A
000CE:  MOVFF  FE1,1B
000D2:  MOVFF  FE2,1C
000D6:  MOVFF  FD9,1D
000DA:  MOVFF  FDA,1E
000DE:  MOVFF  FF3,25
000E2:  MOVFF  FF4,26
000E6:  MOVFF  FFA,27
000EA:  MOVFF  FFB,28
000EE:  MOVFF  00,21
000F2:  MOVFF  01,22
000F6:  MOVFF  02,23
000FA:  MOVFF  03,24
000FE:  BTFSS  F9D.5
00100:  GOTO   010A
00104:  BTFSC  F9E.5
00106:  GOTO   0204
0010A:  MOVFF  21,00
0010E:  MOVFF  22,01
00112:  MOVFF  23,02
00116:  MOVFF  24,03
0011A:  MOVFF  1F,FE9
0011E:  MOVFF  1A,FEA
00122:  BSF    1A.7
00124:  MOVFF  1B,FE1
00128:  MOVFF  1C,FE2
0012C:  MOVFF  1D,FD9
00130:  MOVFF  1E,FDA
00134:  MOVFF  25,FF3
00138:  MOVFF  26,FF4
0013C:  MOVFF  27,FFA
00140:  MOVFF  28,FFB
00144:  MOVF   17,W
00146:  MOVFF  19,FE0
0014A:  MOVFF  18,FD8
0014E:  RETFIE 0
.................... //Falta crear menu de ajuste de variables y de norma CFR21 
....................  
.................... #include <18F4685.h> 
.................... //////// Standard Header file for the PIC18F4685 device //////////////// 
.................... #device PIC18F4685 
.................... #list 
....................  
.................... #device adc=10 
.................... #device HIGH_INTS=TRUE //Activamos niveles de prioridad 
.................... #fuses HS,WDT8192,NOPROTECT,NOLVP,NODEBUG,NOSTVREN,NOPUT,NOCPD,NOWRT,NOIESO,NOFCMEN,NOPBADEN,NOWRTC,NOWRTB,NOEBTR,NOEBTRB,NOCPB,NOXINST,NOLPT1OSC,NOMCLR,NOBROWNOUT 
.................... #use delay(clock=20000000) 
*
0179C:  MOVLW  03
0179E:  MOVWF  FEA
017A0:  MOVLW  E1
017A2:  MOVWF  FE9
017A4:  MOVF   FEF,W
017A6:  BZ    17C2
017A8:  MOVLW  06
017AA:  MOVWF  01
017AC:  CLRF   00
017AE:  DECFSZ 00,F
017B0:  BRA    17AE
017B2:  DECFSZ 01,F
017B4:  BRA    17AC
017B6:  MOVLW  7B
017B8:  MOVWF  00
017BA:  DECFSZ 00,F
017BC:  BRA    17BA
017BE:  DECFSZ FEF,F
017C0:  BRA    17A8
017C2:  RETLW  00
.................... #use i2c(Master,slow,sda=PIN_C4,scl=PIN_C3) 
*
03D30:  MOVLW  08
03D32:  MOVWF  01
03D34:  MOVLW  05
03D36:  MOVWF  00
03D38:  DECFSZ 00,F
03D3A:  BRA    3D38
03D3C:  BCF    F8B.3
03D3E:  BCF    F94.3
03D40:  MOVLW  06
03D42:  MOVWF  00
03D44:  DECFSZ 00,F
03D46:  BRA    3D44
03D48:  MOVLB  3
03D4A:  RLCF   xE5,F
03D4C:  BCF    F8B.4
03D4E:  BTFSC  FD8.0
03D50:  BSF    F94.4
03D52:  BTFSS  FD8.0
03D54:  BCF    F94.4
03D56:  BSF    F94.3
03D58:  BTFSS  F82.3
03D5A:  BRA    3D58
03D5C:  DECFSZ 01,F
03D5E:  BRA    3D62
03D60:  BRA    3D66
03D62:  MOVLB  0
03D64:  BRA    3D34
03D66:  MOVLW  05
03D68:  MOVWF  00
03D6A:  DECFSZ 00,F
03D6C:  BRA    3D6A
03D6E:  BCF    F8B.3
03D70:  BCF    F94.3
03D72:  NOP   
03D74:  BSF    F94.4
03D76:  MOVLW  06
03D78:  MOVWF  00
03D7A:  DECFSZ 00,F
03D7C:  BRA    3D7A
03D7E:  MOVLW  06
03D80:  MOVWF  00
03D82:  DECFSZ 00,F
03D84:  BRA    3D82
03D86:  BSF    F94.3
03D88:  BTFSS  F82.3
03D8A:  BRA    3D88
03D8C:  CLRF   01
03D8E:  MOVLW  06
03D90:  MOVWF  00
03D92:  DECFSZ 00,F
03D94:  BRA    3D92
03D96:  BTFSC  F82.4
03D98:  BSF    01.0
03D9A:  BCF    F8B.3
03D9C:  BCF    F94.3
03D9E:  BCF    F8B.4
03DA0:  BCF    F94.4
03DA2:  MOVLB  0
03DA4:  RETLW  00
.................... #use rs232(baud=9600, xmit=PIN_C6, rcv=PIN_C7, bits=8, parity=N) 
*
034B2:  BTFSS  F9E.4
034B4:  BRA    34B2
034B6:  MOVWF  FAD
034B8:  RETLW  00
.................... //#include "HDM64GS12.c" 
.................... //#include "GRAPHICS.c" 
.................... ///#include "imagen.h" 
.................... #include <stdio.h> 
.................... /////////////////////////////////////////////////////////////////////////// 
.................... ////        (C) Copyright 1996,2003 Custom Computer Services           //// 
.................... //// This source code may only be used by licensed users of the CCS C  //// 
.................... //// compiler.  This source code may only be distributed to other      //// 
.................... //// licensed users of the CCS C compiler.  No other use, reproduction //// 
.................... //// or distribution is permitted without written permission.          //// 
.................... //// Derivative programs created using this software in object code    //// 
.................... //// form are not restricted in any way.                               //// 
.................... /////////////////////////////////////////////////////////////////////////// 
....................  
.................... #ifndef _STDIO 
.................... #define _STDIO 
.................... #include <string.h> 
.................... //////////////////////////////////////////////////////////////////////////// 
.................... ////        (C) Copyright 1996,2008 Custom Computer Services            //// 
.................... //// This source code may only be used by licensed users of the CCS C   //// 
.................... //// compiler.  This source code may only be distributed to other       //// 
.................... //// licensed users of the CCS C compiler.  No other use, reproduction  //// 
.................... //// or distribution is permitted without written permission.           //// 
.................... //// Derivative programs created using this software in object code     //// 
.................... //// form are not restricted in any way.                                //// 
.................... //////////////////////////////////////////////////////////////////////////// 
....................  
.................... #ifndef _STRING 
.................... #define _STRING 
.................... #include <stddef.h> 
.................... /////////////////////////////////////////////////////////////////////////// 
.................... ////        (C) Copyright 1996,2003 Custom Computer Services           //// 
.................... //// This source code may only be used by licensed users of the CCS C  //// 
.................... //// compiler.  This source code may only be distributed to other      //// 
.................... //// licensed users of the CCS C compiler.  No other use, reproduction //// 
.................... //// or distribution is permitted without written permission.          //// 
.................... //// Derivative programs created using this software in object code    //// 
.................... //// form are not restricted in any way.                               //// 
.................... /////////////////////////////////////////////////////////////////////////// 
....................  
.................... #ifndef _STDDEF 
....................  
.................... #define _STDDEF 
....................  
.................... #if sizeof(unsigned int8 *)==1 
.................... #define ptrdiff_t unsigned int8 
.................... #else 
.................... #define ptrdiff_t unsigned int16 
.................... #endif 
....................  
.................... #define size_t unsigned int8 
.................... #define wchar_t char 
.................... #define NULL 0 
....................  
.................... #define offsetof(s,f) (offsetofbit(s,f)/8) 
....................  
.................... #endif 
....................  
.................... #include <ctype.h> 
.................... //////////////////////////////////////////////////////////////////////////// 
.................... ////        (C) Copyright 1996,2003 Custom Computer Services            //// 
.................... //// This source code may only be used by licensed users of the CCS C   //// 
.................... //// compiler.  This source code may only be distributed to other       //// 
.................... //// licensed users of the CCS C compiler.  No other use, reproduction  //// 
.................... //// or distribution is permitted without written permission.           //// 
.................... //// Derivative programs created using this software in object code     //// 
.................... //// form are not restricted in any way.                                //// 
.................... //////////////////////////////////////////////////////////////////////////// 
....................  
.................... #ifndef _CTYPE 
.................... #define _CTYPE 
....................  
.................... #define islower(x)  isamong(x,"abcdefghijklmnopqrstuvwxyz") 
.................... #define isupper(x)  isamong(x,"ABCDEFGHIJKLMNOPQRSTUVWXYZ") 
.................... #define isalnum(x)  isamong(x,"0123456789ABCDEFGHIJKLMNOPQRSTUVWXYZabcdefghijklmnopqrstuvwxyz") 
.................... #define isalpha(x)  isamong(x,"ABCDEFGHIJKLMNOPQRSTUVWXYZabcdefghijklmnopqrstuvwxyz") 
.................... #define isdigit(x)  isamong(x,"0123456789") 
.................... #define isspace(x)  ((x)==' ') 
.................... #define isxdigit(x) isamong(x,"0123456789ABCDEFabcdef") 
.................... #define iscntrl(x)  ((x)<' ') 
.................... #define isprint(x)  ((x)>=' ') 
.................... #define isgraph(x)  ((x)>' ') 
.................... #define ispunct(x)  (((x)>' ')&&!isalnum(x)) 
....................  
.................... #endif 
....................  
....................  
....................  
....................  
....................  
.................... ////////////////////////////////////////////// 
.................... //// Uncomment the following define to    //// 
.................... //// allow some functions to use a        //// 
.................... //// quicker algorithm, but use more ROM  //// 
.................... ////                                      //// 
.................... //// #define FASTER_BUT_MORE_ROM          //// 
.................... ////////////////////////////////////////////// 
....................  
....................  
....................  
.................... /*Copying functions*/ 
.................... /* standard template: 
....................    void *memmove(void *s1, void *s2, size_t n). 
....................    Copies max of n characters safely (not following ending '\0') 
....................    from s2 in s1; if s2 has less than n characters, appends 0 */ 
....................  
.................... char *memmove(void *s1,char *s2,size_t n) 
.................... { 
....................    char *sc1; 
....................    char *sc2; 
....................    sc1=s1; 
....................    sc2=s2; 
....................    if(sc2<sc1 && sc1 <sc2 +n) 
....................       for(sc1+=n,sc2+=n;0<n;--n) 
....................          *--sc1=*--sc2; 
....................    else 
....................       for(;0<n;--n) 
....................          *sc1++=*sc2++; 
....................   return s1; 
....................   } 
....................  
.................... /* Standard template: char *strcpy(char *s1, const char *s2) 
....................    copies the string s2 including the null character to s1. 
....................    This is a compiler built in to handle the different address 
....................    spaces */ 
....................  
.................... #define strcopy strcpy 
....................  
.................... /* standard template: 
....................    char *strncpy(char *s1, const char *s2, size_t n). 
....................    Copies max of n characters (not following ending '\0') 
....................    from s2 in s1; if s2 has less than n characters, appends 0 */ 
....................  
.................... char *strncpy(char *s1, char *s2, size_t n) 
.................... { 
....................   char *s; 
....................  
....................   for (s = s1; n > 0 && *s2 != '\0'; n--) 
....................      *s++ = *s2++; 
....................   for (; n > 0; n--) 
....................      *s++ = '\0'; 
....................  
....................   return(s1); 
.................... } 
.................... /***********************************************************/ 
....................  
.................... /*concatenation functions*/ 
.................... /* standard template: char *strcat(char *s1, const char *s2) 
.................... appends s2 to s1*/ 
....................  
.................... char *strcat(char *s1, char *s2) 
.................... { 
....................    char *s; 
....................  
....................    for (s = s1; *s != '\0'; ++s); 
....................    while(*s2 != '\0') 
....................    { 
....................       *s = *s2; 
....................       ++s; 
....................       ++s2; 
....................    } 
....................  
....................    *s = '\0'; 
....................    return(s1); 
.................... } 
.................... /* standard template: char *strncat(char *s1, char *s2,size_t n) 
.................... appends not more than n characters from s2 to s1*/ 
....................  
.................... char *strncat(char *s1, char *s2, size_t n) 
.................... { 
....................    char *s; 
....................  
....................    for (s = s1; *s != '\0'; ++s); 
....................    while(*s2 != '\0' && 0<n) 
....................    { 
....................       *s = *s2; 
....................       ++s; 
....................       ++s2; 
....................       --n; 
....................    } 
....................  
....................    *s = '\0'; 
....................    return(s1); 
.................... } 
....................  
.................... /***********************************************************/ 
....................  
....................  
.................... /*comparison functions*/ 
.................... /* standard template: signed int memcmp(void *s1, void *s2). 
....................    Compares s1 & s2; returns -1 if s1<s2, 0 if s1=s2, 1 if s1>s2 */ 
....................  
.................... signed int8 memcmp(void * s1,char *s2,size_t n) 
.................... { 
.................... char *su1, *su2; 
.................... for(su1=s1, su2=s2; 0<n; ++su1, ++su2, --n) 
.................... { 
....................    if(*su1!=*su2) 
....................       return ((*su1<*su2)?-1:+1); 
.................... } 
.................... return 0; 
.................... } 
....................  
.................... /* standard template: int strcmp(const char *s1, const char *s2). 
....................    Compares s1 & s2; returns -1 if s1<s2, 0 if s1=s2, 1 if s1>s2 */ 
....................  
.................... signed int8 strcmp(char *s1, char *s2) 
.................... { 
....................    for (; *s1 == *s2; s1++, s2++) 
....................       if (*s1 == '\0') 
....................          return(0); 
....................    return((*s1 < *s2) ? -1: 1); 
.................... } 
.................... /* standard template: int strcoll(const char *s1, const char *s2). 
....................    Compares s1 & s2; returns -1 if s1<s2, 0 if s1=s2, 1 if s1>s2 */ 
....................  
.................... signed int8 strcoll(char *s1, char *s2) 
.................... { 
....................    for (; *s1 == *s2; s1++, s2++) 
....................       if (*s1 == '\0') 
....................          return(0); 
....................    return((*s1 < *s2) ? -1: 1); 
.................... } 
....................  
.................... /* standard template: 
....................    int strncmp(const char *s1, const char *s2, size_t n). 
....................    Compares max of n characters (not following 0) from s1 to s2; 
....................    returns same as strcmp */ 
....................  
.................... signed int8 strncmp(char *s1, char *s2, size_t n) 
.................... { 
....................    for (; n > 0; s1++, s2++, n--) 
....................       if (*s1 != *s2) 
....................          return((*s1 <*s2) ? -1: 1); 
....................       else if (*s1 == '\0') 
....................          return(0); 
....................    return(0); 
.................... } 
.................... /* standard template: 
....................    int strxfrm(const char *s1, const char *s2, size_t n). 
....................    transforms maximum of n characters from s2 and places them into s1*/ 
.................... size_t strxfrm(char *s1, char *s2, size_t n) 
.................... { 
....................   char *s; 
....................   unsigned int8 n1; 
....................   n1=n; 
....................   for (s = s1; n > 0 && *s2 != '\0'; n--) 
....................      *s++ = *s2++; 
....................   for (; n > 0; n--) 
....................      *s++ = '\0'; 
....................  
....................   return(n1); 
.................... } 
....................  
....................  
....................  
....................  
....................  
.................... /***********************************************************/ 
.................... /*Search functions*/ 
.................... /* standard template: void *memchr(const char *s, int c). 
....................    Finds first occurrence of c in n characters of s */ 
....................  
.................... char *memchr(void *s,unsigned int8 c,size_t n) 
.................... { 
....................    char uc; 
....................    char *su; 
....................    uc=c; 
....................    for(su=s;0<n;++su,--n) 
....................       if(*su==uc) 
....................       return su; 
....................    return NULL; 
.................... } 
....................  
.................... /* standard template: char *strchr(const char *s, int c). 
....................    Finds first occurrence of c in s */ 
....................  
.................... char *strchr(char *s, unsigned int8 c) 
.................... { 
....................    for (; *s != c; s++) 
....................       if (*s == '\0') 
....................          return(0); 
....................    return(s); 
.................... } 
.................... /* standard template: 
....................    size_t strcspn(const char *s1, const char *s2). 
....................    Computes length of max initial segment of s1 that 
....................    consists entirely of characters NOT from s2*/ 
....................  
.................... unsigned int8  strcspn(char *s1, char *s2) 
.................... { 
....................    char *sc1, *sc2; 
....................  
....................    for (sc1 = s1; *sc1 != 0; sc1++) 
....................       for (sc2 = s2; *sc2 != 0; sc2++) 
....................          if (*sc1 == *sc2) 
....................             return(sc1 - s1); 
....................    return(sc1 - s1); 
.................... } 
.................... /* standard template: 
....................    char *strpbrk(const char *s1, const char *s2). 
....................    Locates first occurence of any character from s2 in s1; 
....................    returns s1 if s2 is empty string */ 
....................  
.................... char *strpbrk(char *s1, char *s2) 
.................... { 
....................    char *sc1, *sc2; 
....................  
....................    for (sc1 = s1; *sc1 != 0; sc1++) 
....................       for (sc2 = s2; *sc2 != 0; sc2++) 
....................          if (*sc1 == *sc2) 
....................             return(sc1); 
....................    return(0); 
.................... } 
....................  
....................  
.................... /* standard template: char *strrchr(const char *s, int c). 
....................    Finds last occurrence of c in s */ 
....................  
.................... char *strrchr(char *s, unsigned int8 c) 
.................... { 
....................    char *p; 
....................  
....................    for (p = 0; ; s++) 
....................    { 
....................       if (*s == c) 
....................          p = s; 
....................       if (*s == '\0') 
....................          return(p); 
....................    } 
.................... } 
.................... /* computes length of max initial segment of s1 consisting 
....................    entirely of characters from s2 */ 
....................  
.................... unsigned int8  strspn(char *s1, char *s2) 
.................... { 
....................    char *sc1, *sc2; 
....................  
....................    for (sc1 = s1; *sc1 != 0; sc1++) 
....................       for (sc2 = s2; ; sc2++) 
....................     if (*sc2 == '\0') 
....................        return(sc1 - s1); 
....................          else if (*sc1 == *sc2) 
....................             break; 
....................    return(sc1 - s1); 
.................... } 
.................... /* standard template: 
....................    char *strstr(const char *s1, const char *s2); 
....................    Locates first occurence of character sequence s2 in s1; 
....................    returns 0 if s2 is empty string 
....................  
....................    Uncomment #define FASTER_BUT_MORE_ROM at the top of the 
....................    file to use the faster algorithm */ 
.................... char *strstr(char *s1, char *s2) 
.................... { 
....................    char *s, *t; 
....................  
....................    #ifdef FASTER_BUT_MORE_ROM 
....................    if (*s2 == '\0') 
....................          return(s1); 
....................    #endif 
....................  
....................    while (*s1) 
....................    { 
....................       for(s = s1, t = s2; *t && (*s == *t); ++s, ++t); 
....................  
....................       if (*t == '\0') 
....................          return s1; 
....................       ++s1; 
....................       #ifdef FASTER_BUT_MORE_ROM 
....................          while(*s1 != '\0' && *s1 != *s2) 
....................             ++s1; 
....................       #endif 
....................    } 
....................    return 0; 
.................... } 
....................  
.................... /* standard template: char *strtok(char *s1, const char *s2). 
....................  
....................    Finds next token in s1 delimited by a character from separator 
....................    string s2 (which can be different from call to call).  First call 
....................    starts at beginning of s1 searching for first character NOT 
....................    contained in s2; returns 0 if none is found. 
....................    If one is found, it is the start of first token (return value). 
....................    Function then searches from there for a character contained in s2. 
....................    If none is found, current token extends to end of s1, and subsequent 
....................    searches for a token will return 0.  If one is found, it is 
....................    overwritten by '\0', which terminates current token.  Function saves 
....................    pointer to following character from which next search will start. 
....................    Each subsequent call, with 0 as first argument, starts searching 
....................    from saved pointer */ 
....................  
.................... char *strtok(char *s1, char *s2) 
.................... { 
....................    char *beg, *end; 
....................    static char *save; 
....................  
....................    beg = (s1)? s1: save; 
....................    beg += strspn(beg, s2); 
....................    if (*beg == '\0') 
....................    { 
....................       *save = ' '; 
....................       return(0); 
....................    } 
....................    end = strpbrk(beg, s2); 
....................    if (*end != '\0') 
....................    { 
....................       *end = '\0'; 
....................       end++; 
....................    } 
....................    save = end; 
....................    return(beg); 
.................... } 
....................  
.................... /*****************************************************************/ 
.................... /*Miscellaneous functions*/ 
.................... /* standard template 
.................... maps error number in errnum to an error message string 
.................... Returns: Pointer to string 
.................... */ 
.................... #ifdef _ERRNO 
.................... char * strerror(unsigned int8 errnum) 
.................... { 
.................... char s[15]; 
.................... switch( errnum) 
.................... { 
.................... case 0: 
....................    strcpy(s,"no errors"); 
....................    return s; 
.................... case EDOM : 
....................    strcpy(s,"domain error"); 
....................    return s; 
.................... case ERANGE: 
....................    strcpy(s,"range error"); 
....................    return s; 
.................... } 
.................... } 
.................... #ENDIF 
.................... /* standard template: size_t strlen(const char *s). 
....................    Computes length of s1 (preceding terminating 0) */ 
....................  
.................... unsigned int8 strlen(char *s) 
.................... { 
....................    char *sc; 
....................  
....................    for (sc = s; *sc != 0; sc++); 
....................    return(sc - s); 
.................... } 
....................  
.................... /* standard template: size_t stricmp(const char *s1, const char *s2). 
....................    Compares s1 to s2 ignoring case (upper vs. lower) */ 
....................  
.................... signed int8 stricmp(char *s1, char *s2) 
.................... { 
....................  for(; *s1==*s2||(isalpha(*s1)&&isalpha(*s2)&&(*s1==*s2+32||*s2==*s1+32)); 
....................     s1++, s2++) 
....................     if (*s1 == '\0') 
....................        return(0); 
....................  return((*s1 < *s2) ? -1: 1); 
.................... } 
....................  
....................  
.................... /* standard template: char *strlwr(char *s). 
....................    Replaces uppercase letters by lowercase; 
....................    returns pointer to new string s */ 
....................  
.................... char *strlwr(char *s) 
.................... { 
....................    char *p; 
....................  
....................    for (p = s; *p != '\0'; p++) 
....................       if (*p >= 'A' && *p <='Z') 
....................          *p += 'a' - 'A'; 
....................    return(s); 
.................... } 
....................  
....................  
.................... /************************************************************/ 
....................  
....................  
.................... #endif 
....................  
.................... #ifndef getc 
.................... #define getc getch 
.................... #define getchar getch 
.................... #define puts(s) {printf(s); putchar(13); putchar(10);} 
.................... #define putc putchar 
.................... #endif 
.................... /* maps error number to an error message. Writes a sequence of characters to 
.................... stderr stream thus: if s is not null then string pointed to by s follwed by 
.................... a colon (:) and a space and the appropriate error message returned by strerror 
.................... function with argument errno 
....................  
.................... Returns: no value 
.................... */ 
....................  
.................... #ifdef _ERRNO 
.................... void perror(char *s) 
.................... { 
....................   if(s) 
....................   fprintf(STDERR,"%s: ",s); 
....................   fprintf(STDERR,"%s\r\n",strerror(errno)); 
.................... } 
.................... #endif 
.................... #endif 
....................  
.................... #include <string.h> 
.................... //////////////////////////////////////////////////////////////////////////// 
.................... ////        (C) Copyright 1996,2008 Custom Computer Services            //// 
.................... //// This source code may only be used by licensed users of the CCS C   //// 
.................... //// compiler.  This source code may only be distributed to other       //// 
.................... //// licensed users of the CCS C compiler.  No other use, reproduction  //// 
.................... //// or distribution is permitted without written permission.           //// 
.................... //// Derivative programs created using this software in object code     //// 
.................... //// form are not restricted in any way.                                //// 
.................... //////////////////////////////////////////////////////////////////////////// 
....................  
.................... #ifndef _STRING 
.................... #define _STRING 
.................... #include <stddef.h> 
.................... #include <ctype.h> 
....................  
....................  
....................  
.................... ////////////////////////////////////////////// 
.................... //// Uncomment the following define to    //// 
.................... //// allow some functions to use a        //// 
.................... //// quicker algorithm, but use more ROM  //// 
.................... ////                                      //// 
.................... //// #define FASTER_BUT_MORE_ROM          //// 
.................... ////////////////////////////////////////////// 
....................  
....................  
....................  
.................... /*Copying functions*/ 
.................... /* standard template: 
....................    void *memmove(void *s1, void *s2, size_t n). 
....................    Copies max of n characters safely (not following ending '\0') 
....................    from s2 in s1; if s2 has less than n characters, appends 0 */ 
....................  
.................... char *memmove(void *s1,char *s2,size_t n) 
.................... { 
....................    char *sc1; 
....................    char *sc2; 
....................    sc1=s1; 
....................    sc2=s2; 
....................    if(sc2<sc1 && sc1 <sc2 +n) 
....................       for(sc1+=n,sc2+=n;0<n;--n) 
....................          *--sc1=*--sc2; 
....................    else 
....................       for(;0<n;--n) 
....................          *sc1++=*sc2++; 
....................   return s1; 
....................   } 
....................  
.................... /* Standard template: char *strcpy(char *s1, const char *s2) 
....................    copies the string s2 including the null character to s1. 
....................    This is a compiler built in to handle the different address 
....................    spaces */ 
....................  
.................... #define strcopy strcpy 
....................  
.................... /* standard template: 
....................    char *strncpy(char *s1, const char *s2, size_t n). 
....................    Copies max of n characters (not following ending '\0') 
....................    from s2 in s1; if s2 has less than n characters, appends 0 */ 
....................  
.................... char *strncpy(char *s1, char *s2, size_t n) 
.................... { 
....................   char *s; 
....................  
....................   for (s = s1; n > 0 && *s2 != '\0'; n--) 
....................      *s++ = *s2++; 
....................   for (; n > 0; n--) 
....................      *s++ = '\0'; 
....................  
....................   return(s1); 
.................... } 
.................... /***********************************************************/ 
....................  
.................... /*concatenation functions*/ 
.................... /* standard template: char *strcat(char *s1, const char *s2) 
.................... appends s2 to s1*/ 
....................  
.................... char *strcat(char *s1, char *s2) 
.................... { 
....................    char *s; 
....................  
....................    for (s = s1; *s != '\0'; ++s); 
....................    while(*s2 != '\0') 
....................    { 
....................       *s = *s2; 
....................       ++s; 
....................       ++s2; 
....................    } 
....................  
....................    *s = '\0'; 
....................    return(s1); 
.................... } 
.................... /* standard template: char *strncat(char *s1, char *s2,size_t n) 
.................... appends not more than n characters from s2 to s1*/ 
....................  
.................... char *strncat(char *s1, char *s2, size_t n) 
.................... { 
....................    char *s; 
....................  
....................    for (s = s1; *s != '\0'; ++s); 
....................    while(*s2 != '\0' && 0<n) 
....................    { 
....................       *s = *s2; 
....................       ++s; 
....................       ++s2; 
....................       --n; 
....................    } 
....................  
....................    *s = '\0'; 
....................    return(s1); 
.................... } 
....................  
.................... /***********************************************************/ 
....................  
....................  
.................... /*comparison functions*/ 
.................... /* standard template: signed int memcmp(void *s1, void *s2). 
....................    Compares s1 & s2; returns -1 if s1<s2, 0 if s1=s2, 1 if s1>s2 */ 
....................  
.................... signed int8 memcmp(void * s1,char *s2,size_t n) 
.................... { 
.................... char *su1, *su2; 
.................... for(su1=s1, su2=s2; 0<n; ++su1, ++su2, --n) 
.................... { 
....................    if(*su1!=*su2) 
....................       return ((*su1<*su2)?-1:+1); 
.................... } 
.................... return 0; 
.................... } 
....................  
.................... /* standard template: int strcmp(const char *s1, const char *s2). 
....................    Compares s1 & s2; returns -1 if s1<s2, 0 if s1=s2, 1 if s1>s2 */ 
....................  
.................... signed int8 strcmp(char *s1, char *s2) 
.................... { 
....................    for (; *s1 == *s2; s1++, s2++) 
....................       if (*s1 == '\0') 
....................          return(0); 
....................    return((*s1 < *s2) ? -1: 1); 
.................... } 
.................... /* standard template: int strcoll(const char *s1, const char *s2). 
....................    Compares s1 & s2; returns -1 if s1<s2, 0 if s1=s2, 1 if s1>s2 */ 
....................  
.................... signed int8 strcoll(char *s1, char *s2) 
.................... { 
....................    for (; *s1 == *s2; s1++, s2++) 
....................       if (*s1 == '\0') 
....................          return(0); 
....................    return((*s1 < *s2) ? -1: 1); 
.................... } 
....................  
.................... /* standard template: 
....................    int strncmp(const char *s1, const char *s2, size_t n). 
....................    Compares max of n characters (not following 0) from s1 to s2; 
....................    returns same as strcmp */ 
....................  
.................... signed int8 strncmp(char *s1, char *s2, size_t n) 
.................... { 
....................    for (; n > 0; s1++, s2++, n--) 
....................       if (*s1 != *s2) 
....................          return((*s1 <*s2) ? -1: 1); 
....................       else if (*s1 == '\0') 
....................          return(0); 
....................    return(0); 
.................... } 
.................... /* standard template: 
....................    int strxfrm(const char *s1, const char *s2, size_t n). 
....................    transforms maximum of n characters from s2 and places them into s1*/ 
.................... size_t strxfrm(char *s1, char *s2, size_t n) 
.................... { 
....................   char *s; 
....................   unsigned int8 n1; 
....................   n1=n; 
....................   for (s = s1; n > 0 && *s2 != '\0'; n--) 
....................      *s++ = *s2++; 
....................   for (; n > 0; n--) 
....................      *s++ = '\0'; 
....................  
....................   return(n1); 
.................... } 
....................  
....................  
....................  
....................  
....................  
.................... /***********************************************************/ 
.................... /*Search functions*/ 
.................... /* standard template: void *memchr(const char *s, int c). 
....................    Finds first occurrence of c in n characters of s */ 
....................  
.................... char *memchr(void *s,unsigned int8 c,size_t n) 
.................... { 
....................    char uc; 
....................    char *su; 
....................    uc=c; 
....................    for(su=s;0<n;++su,--n) 
....................       if(*su==uc) 
....................       return su; 
....................    return NULL; 
.................... } 
....................  
.................... /* standard template: char *strchr(const char *s, int c). 
....................    Finds first occurrence of c in s */ 
....................  
.................... char *strchr(char *s, unsigned int8 c) 
.................... { 
....................    for (; *s != c; s++) 
....................       if (*s == '\0') 
....................          return(0); 
....................    return(s); 
.................... } 
.................... /* standard template: 
....................    size_t strcspn(const char *s1, const char *s2). 
....................    Computes length of max initial segment of s1 that 
....................    consists entirely of characters NOT from s2*/ 
....................  
.................... unsigned int8  strcspn(char *s1, char *s2) 
.................... { 
....................    char *sc1, *sc2; 
....................  
....................    for (sc1 = s1; *sc1 != 0; sc1++) 
....................       for (sc2 = s2; *sc2 != 0; sc2++) 
....................          if (*sc1 == *sc2) 
....................             return(sc1 - s1); 
....................    return(sc1 - s1); 
.................... } 
.................... /* standard template: 
....................    char *strpbrk(const char *s1, const char *s2). 
....................    Locates first occurence of any character from s2 in s1; 
....................    returns s1 if s2 is empty string */ 
....................  
.................... char *strpbrk(char *s1, char *s2) 
.................... { 
....................    char *sc1, *sc2; 
....................  
....................    for (sc1 = s1; *sc1 != 0; sc1++) 
....................       for (sc2 = s2; *sc2 != 0; sc2++) 
....................          if (*sc1 == *sc2) 
....................             return(sc1); 
....................    return(0); 
.................... } 
....................  
....................  
.................... /* standard template: char *strrchr(const char *s, int c). 
....................    Finds last occurrence of c in s */ 
....................  
.................... char *strrchr(char *s, unsigned int8 c) 
.................... { 
....................    char *p; 
....................  
....................    for (p = 0; ; s++) 
....................    { 
....................       if (*s == c) 
....................          p = s; 
....................       if (*s == '\0') 
....................          return(p); 
....................    } 
.................... } 
.................... /* computes length of max initial segment of s1 consisting 
....................    entirely of characters from s2 */ 
....................  
.................... unsigned int8  strspn(char *s1, char *s2) 
.................... { 
....................    char *sc1, *sc2; 
....................  
....................    for (sc1 = s1; *sc1 != 0; sc1++) 
....................       for (sc2 = s2; ; sc2++) 
....................     if (*sc2 == '\0') 
....................        return(sc1 - s1); 
....................          else if (*sc1 == *sc2) 
....................             break; 
....................    return(sc1 - s1); 
.................... } 
.................... /* standard template: 
....................    char *strstr(const char *s1, const char *s2); 
....................    Locates first occurence of character sequence s2 in s1; 
....................    returns 0 if s2 is empty string 
....................  
....................    Uncomment #define FASTER_BUT_MORE_ROM at the top of the 
....................    file to use the faster algorithm */ 
.................... char *strstr(char *s1, char *s2) 
.................... { 
....................    char *s, *t; 
....................  
....................    #ifdef FASTER_BUT_MORE_ROM 
....................    if (*s2 == '\0') 
....................          return(s1); 
....................    #endif 
....................  
....................    while (*s1) 
....................    { 
....................       for(s = s1, t = s2; *t && (*s == *t); ++s, ++t); 
....................  
....................       if (*t == '\0') 
....................          return s1; 
....................       ++s1; 
....................       #ifdef FASTER_BUT_MORE_ROM 
....................          while(*s1 != '\0' && *s1 != *s2) 
....................             ++s1; 
....................       #endif 
....................    } 
....................    return 0; 
.................... } 
....................  
.................... /* standard template: char *strtok(char *s1, const char *s2). 
....................  
....................    Finds next token in s1 delimited by a character from separator 
....................    string s2 (which can be different from call to call).  First call 
....................    starts at beginning of s1 searching for first character NOT 
....................    contained in s2; returns 0 if none is found. 
....................    If one is found, it is the start of first token (return value). 
....................    Function then searches from there for a character contained in s2. 
....................    If none is found, current token extends to end of s1, and subsequent 
....................    searches for a token will return 0.  If one is found, it is 
....................    overwritten by '\0', which terminates current token.  Function saves 
....................    pointer to following character from which next search will start. 
....................    Each subsequent call, with 0 as first argument, starts searching 
....................    from saved pointer */ 
....................  
.................... char *strtok(char *s1, char *s2) 
.................... { 
....................    char *beg, *end; 
....................    static char *save; 
....................  
....................    beg = (s1)? s1: save; 
....................    beg += strspn(beg, s2); 
....................    if (*beg == '\0') 
....................    { 
....................       *save = ' '; 
....................       return(0); 
....................    } 
....................    end = strpbrk(beg, s2); 
....................    if (*end != '\0') 
....................    { 
....................       *end = '\0'; 
....................       end++; 
....................    } 
....................    save = end; 
....................    return(beg); 
.................... } 
....................  
.................... /*****************************************************************/ 
.................... /*Miscellaneous functions*/ 
.................... /* standard template 
.................... maps error number in errnum to an error message string 
.................... Returns: Pointer to string 
.................... */ 
.................... #ifdef _ERRNO 
.................... char * strerror(unsigned int8 errnum) 
.................... { 
.................... char s[15]; 
.................... switch( errnum) 
.................... { 
.................... case 0: 
....................    strcpy(s,"no errors"); 
....................    return s; 
.................... case EDOM : 
....................    strcpy(s,"domain error"); 
....................    return s; 
.................... case ERANGE: 
....................    strcpy(s,"range error"); 
....................    return s; 
.................... } 
.................... } 
.................... #ENDIF 
.................... /* standard template: size_t strlen(const char *s). 
....................    Computes length of s1 (preceding terminating 0) */ 
....................  
.................... unsigned int8 strlen(char *s) 
.................... { 
....................    char *sc; 
....................  
....................    for (sc = s; *sc != 0; sc++); 
....................    return(sc - s); 
.................... } 
....................  
.................... /* standard template: size_t stricmp(const char *s1, const char *s2). 
....................    Compares s1 to s2 ignoring case (upper vs. lower) */ 
....................  
.................... signed int8 stricmp(char *s1, char *s2) 
.................... { 
....................  for(; *s1==*s2||(isalpha(*s1)&&isalpha(*s2)&&(*s1==*s2+32||*s2==*s1+32)); 
....................     s1++, s2++) 
....................     if (*s1 == '\0') 
....................        return(0); 
....................  return((*s1 < *s2) ? -1: 1); 
.................... } 
....................  
....................  
.................... /* standard template: char *strlwr(char *s). 
....................    Replaces uppercase letters by lowercase; 
....................    returns pointer to new string s */ 
....................  
.................... char *strlwr(char *s) 
.................... { 
....................    char *p; 
....................  
....................    for (p = s; *p != '\0'; p++) 
....................       if (*p >= 'A' && *p <='Z') 
....................          *p += 'a' - 'A'; 
....................    return(s); 
.................... } 
....................  
....................  
.................... /************************************************************/ 
....................  
....................  
.................... #endif 
....................  
.................... #include <stdlib.h> 
.................... /////////////////////////////////////////////////////////////////////////// 
.................... ////        (C) Copyright 1996,2007 Custom Computer Services           //// 
.................... //// This source code may only be used by licensed users of the CCS C  //// 
.................... //// compiler.  This source code may only be distributed to other      //// 
.................... //// licensed users of the CCS C compiler.  No other use, reproduction //// 
.................... //// or distribution is permitted without written permission.          //// 
.................... //// Derivative programs created using this software in object code    //// 
.................... //// form are not restricted in any way.                               //// 
.................... /////////////////////////////////////////////////////////////////////////// 
....................  
.................... #ifndef _STDLIB 
.................... #define _STDLIB 
....................  
.................... //--------------------------------------------------------------------------- 
.................... // Definitions and types 
.................... //--------------------------------------------------------------------------- 
....................  
.................... #ifndef RAND_MAX 
.................... #define RAND_MAX  32767    // The value of which is the maximum value 
....................                            // ... returned by the rand function 
.................... #endif 
....................  
....................  
.................... #IF (sizeof(int16*)>1) 
.................... #DEFINE LONG_POINTERS 1 
.................... #ELSE  
.................... #DEFINE LONG_POINTERS 0 
.................... #ENDIF 
....................  
.................... typedef struct { 
....................    signed int quot; 
....................    signed int rem; 
.................... } div_t; 
....................  
.................... typedef struct { 
....................    signed long quot; 
....................    signed long rem; 
.................... } ldiv_t; 
....................  
.................... #include <stddef.h> 
.................... /////////////////////////////////////////////////////////////////////////// 
.................... ////        (C) Copyright 1996,2003 Custom Computer Services           //// 
.................... //// This source code may only be used by licensed users of the CCS C  //// 
.................... //// compiler.  This source code may only be distributed to other      //// 
.................... //// licensed users of the CCS C compiler.  No other use, reproduction //// 
.................... //// or distribution is permitted without written permission.          //// 
.................... //// Derivative programs created using this software in object code    //// 
.................... //// form are not restricted in any way.                               //// 
.................... /////////////////////////////////////////////////////////////////////////// 
....................  
.................... #ifndef _STDDEF 
....................  
.................... #define _STDDEF 
....................  
.................... #if sizeof(unsigned int8 *)==1 
.................... #define ptrdiff_t unsigned int8 
.................... #else 
.................... #define ptrdiff_t unsigned int16 
.................... #endif 
....................  
.................... #define size_t unsigned int8 
.................... #define wchar_t char 
.................... #define NULL 0 
....................  
.................... #define offsetof(s,f) (offsetofbit(s,f)/8) 
....................  
.................... #endif 
....................  
....................  
.................... //--------------------------------------------------------------------------- 
.................... // String conversion functions 
.................... //--------------------------------------------------------------------------- 
....................  
.................... /* Standard template: signed int  atoi(char * s) 
....................  * converts the initial portion of the string s to a signed int 
....................  * returns the converted value if any, 0 otherwise 
....................  */ 
.................... signed int atoi(char *s); 
....................  
.................... /* Syntax: signed int32  atoi32(char * s) 
....................    converts the initial portion of the string s to a signed int32 
....................    returns the converted value if any, 0 otherwise*/ 
.................... #if (sizeof(long)==4) 
....................  #define atoi32(s) atol(s) 
.................... #else  
....................  signed int32 atoi32(char *s); 
.................... #endif 
....................  
.................... #if defined(__PCD__) 
.................... // The following functions only work on the 24 bit compiler 
.................... // for the 30F, 33F, 24F and 24H parts 
.................... /* Syntax: signed int48  atoi48(char * s) 
....................    converts the initial portion of the string s to a signed int48 
....................    returns the converted value if any, 0 otherwise*/ 
....................     
.................... signed int48 atoi48(char *s); 
....................  
.................... /* Syntax: signed int64  atoi64(char * s) 
....................    converts the initial portion of the string s to a signed int64 
....................    returns the converted value if any, 0 otherwise*/ 
.................... signed int64 atoi64(char *s); 
.................... #endif 
....................  
.................... /* Syntax: char *  itoa(signed int32 num, int8 base, char * s) 
....................    converts the signed int32 to a string and 
....................    returns the converted value if any, 0 otherwise*/ 
.................... char * itoa(signed int32 num, unsigned int base, char * s); 
....................  
.................... /* Standard template: signed int16  atol(char * s) 
....................  * converts the initial portion of the string s to a signed int16 
....................  * returns the converted value if any, 0 otherwise 
....................  */ 
.................... signed long atol(char *s); 
....................  
.................... /* Standard template: int16 strtoul(char * s,char *endptr,signed int base) 
....................  * converts the initial portion of the string s, represented as an 
....................  * integral value of radix base  to a signed long. 
....................  * Returns the converted value if any, 0 otherwise 
....................  * the final string is returned in the endptr, if endptr is not null 
....................  */ 
.................... signed long strtol(char *s,char *endptr, signed int base); 
....................  
.................... /* Standard template: int16 strtoul(char * s,char *endptr,signed int base) 
....................  * converts the initial portion of the string s, represented as an 
....................  * integral value of radix base to a unsigned long. 
....................  * returns the converted value if any, 0 otherwise 
....................  * the final string is returned in the endptr, if endptr is not null 
....................  */ 
.................... unsigned long strtoul(char *s,char *endptr, signed int base); 
....................  
.................... /* Standart template: float strtof(char * s,char *endptr) 
....................                       float48 strtof48(char *s,char *endptr); 
....................                       float64 strtod(char *s,char *endptr); 
....................  * converts the initial portion of the string s to a float32, float48 or float64, 
....................  * returns the converted value if any, 0 otherwise 
....................  * the final string is returned in the endptr, if endptr is not null                    
.................... */ 
.................... float strtof(char *s,char *endptr); 
.................... #if defined(__PCD__) 
.................... float48 strtof48(char *s,char *endptr); 
.................... float64 strtod(char *s,char *endptr); 
.................... #else 
.................... //provided for compatibility 
.................... #define strtof48(s, e) strtof(s, e) 
.................... #define strtod(s, e) strtof(s, e) 
.................... #endif 
....................  
.................... /* Standard template: float32 atof(char * s) 
....................  * converts the initial portion of the string s to a float. 
....................  * returns the converted value if any, 0 otherwise 
....................  */ 
.................... #define atof(s)   strtof(s, 0) 
....................  
.................... #if defined(__PCD__) 
.................... // The following functions only work on the 24 bit compiler 
.................... // for the 30F, 33F, 24F and 24H parts 
....................  
.................... /* Standard template: float48 atof48(char * s) 
....................  * converts the initial portion of the string s to a float. 
....................  * returns the converted value if any, 0 otherwise 
....................  */ 
.................... #define atof48(s) strtof48(s, 0) 
....................  
.................... /* Standard template: float64 atof64(char * s) 
....................  * converts the initial portion of the string s to a float. 
....................  * returns the converted value if any, 0 otherwise 
....................  */ 
.................... #define atof64(s) strtod(s, 0) 
.................... #endif 
....................  
.................... /* Standard template: float32 atoe(char * s) 
....................  * converts the initial portion of the string s to a float. 
....................  * returns the converted value if any, 0 otherwise 
....................  * also handles E format numbers 
....................  */ 
.................... #if !defined(__PCD__) 
.................... float atoe(char * s); 
.................... #endif 
....................  
.................... #if defined(__PCD__) 
.................... float32 atoe(char * s); 
.................... #endif 
....................  
.................... //--------------------------------------------------------------------------- 
.................... // Pseudo-random sequence generation functions 
.................... //--------------------------------------------------------------------------- 
....................  
.................... /* The rand function computes a sequence of pseudo-random integers in 
....................  * the range 0 to RAND_MAX 
....................  * 
....................  * Parameters: 
....................  *       (none) 
....................  * 
....................  * Returns: 
....................  *       The pseudo-random integer 
....................  */ 
.................... unsigned int16 rand(void); 
....................  
.................... /* The srand function uses the argument as a seed for a new sequence of 
....................  * pseudo-random numbers to be returned by subsequent calls to rand. 
....................  * 
....................  * Parameters: 
....................  *       [in] seed: The seed value to start from. You might need to pass 
....................  * 
....................  * Returns: 
....................  *       (none) 
....................  * 
....................  * Remarks 
....................  *          The srand function sets the starting point for generating 
....................  *       a series of pseudorandom integers. To reinitialize the 
....................  *       generator, use 1 as the seed argument. Any other value for 
....................  *       seed sets the generator to a random starting point. rand 
....................  *       retrieves the pseudorandom numbers that are generated. 
....................  *       Calling rand before any call to srand generates the same 
....................  *       sequence as calling srand with seed passed as 1. 
....................  *          Usually, you need to pass a time here from outer source 
....................  *       so that the numbers will be different every time you run. 
....................  */ 
.................... void srand(unsigned int32 seed); 
....................  
.................... //--------------------------------------------------------------------------- 
.................... // Memory management functions 
.................... //--------------------------------------------------------------------------- 
....................  
.................... // Comming soon 
....................  
.................... //--------------------------------------------------------------------------- 
.................... // Communication with the environment 
.................... //--------------------------------------------------------------------------- 
....................  
.................... /* The function returns 0 always 
....................  */ 
.................... signed int8 system(char *string); 
....................  
.................... //--------------------------------------------------------------------------- 
.................... // Searching and sorting utilities 
.................... //--------------------------------------------------------------------------- 
....................  
.................... /* Performs a binary search of a sorted array.. 
....................  * 
....................  * Parameters: 
....................  *       [in] key: Object to search for 
....................  *       [in] base: Pointer to base of search data 
....................  *       [in] num: Number of elements 
....................  *       [in] width: Width of elements 
....................  *       [in] compare: Function that compares two elements 
....................  * 
....................  * Returns: 
....................  *       bsearch returns a pointer to an occurrence of key in the array pointed 
....................  *       to by base. If key is not found, the function returns NULL. If the 
....................  *       array is not in order or contains duplicate records with identical keys, 
....................  *       the result is unpredictable. 
....................  */ 
.................... //void *bsearch(const void *key, const void *base, size_t num, size_t width, 
.................... //              int (*compare)(const void *, const void *)); 
....................  
.................... /* Performs the shell-metzner sort (not the quick sort algorithm). The contents 
....................  * of the array are sorted into ascending order according to a comparison 
....................  * function pointed to by compar. 
....................  * 
....................  * Parameters: 
....................  *       [in] base: Pointer to base of search data 
....................  *       [in] num: Number of elements 
....................  *       [in] width: Width of elements 
....................  *       [in] compare: Function that compares two elements 
....................  * 
....................  * Returns: 
....................  *       (none) 
....................  */ 
.................... //void *qsort(const void *base, size_t num, size_t width, 
.................... //              int (*compare)(const void *, const void *)); 
....................  
.................... //--------------------------------------------------------------------------- 
.................... // Integer arithmetic functions 
.................... //--------------------------------------------------------------------------- 
....................  
.................... #define labs abs 
....................  
.................... div_t div(signed int numer, signed int denom); 
.................... ldiv_t ldiv(signed long numer, signed long denom); 
....................  
.................... //--------------------------------------------------------------------------- 
.................... // Multibyte character functions 
.................... //--------------------------------------------------------------------------- 
....................  
.................... // Not supported 
....................  
.................... //--------------------------------------------------------------------------- 
.................... // Multibyte string functions 
.................... //--------------------------------------------------------------------------- 
....................  
.................... // Not supported 
....................  
....................  
.................... //--------------------------------------------------------------------------- 
.................... // Internal implementation 
.................... //--------------------------------------------------------------------------- 
....................  
.................... #include <stddef.h> 
.................... /////////////////////////////////////////////////////////////////////////// 
.................... ////        (C) Copyright 1996,2003 Custom Computer Services           //// 
.................... //// This source code may only be used by licensed users of the CCS C  //// 
.................... //// compiler.  This source code may only be distributed to other      //// 
.................... //// licensed users of the CCS C compiler.  No other use, reproduction //// 
.................... //// or distribution is permitted without written permission.          //// 
.................... //// Derivative programs created using this software in object code    //// 
.................... //// form are not restricted in any way.                               //// 
.................... /////////////////////////////////////////////////////////////////////////// 
....................  
.................... #ifndef _STDDEF 
....................  
.................... #define _STDDEF 
....................  
.................... #if sizeof(unsigned int8 *)==1 
.................... #define ptrdiff_t unsigned int8 
.................... #else 
.................... #define ptrdiff_t unsigned int16 
.................... #endif 
....................  
.................... #define size_t unsigned int8 
.................... #define wchar_t char 
.................... #define NULL 0 
....................  
.................... #define offsetof(s,f) (offsetofbit(s,f)/8) 
....................  
.................... #endif 
....................  
.................... #include <string.h> 
.................... //////////////////////////////////////////////////////////////////////////// 
.................... ////        (C) Copyright 1996,2008 Custom Computer Services            //// 
.................... //// This source code may only be used by licensed users of the CCS C   //// 
.................... //// compiler.  This source code may only be distributed to other       //// 
.................... //// licensed users of the CCS C compiler.  No other use, reproduction  //// 
.................... //// or distribution is permitted without written permission.           //// 
.................... //// Derivative programs created using this software in object code     //// 
.................... //// form are not restricted in any way.                                //// 
.................... //////////////////////////////////////////////////////////////////////////// 
....................  
.................... #ifndef _STRING 
.................... #define _STRING 
.................... #include <stddef.h> 
.................... #include <ctype.h> 
....................  
....................  
....................  
.................... ////////////////////////////////////////////// 
.................... //// Uncomment the following define to    //// 
.................... //// allow some functions to use a        //// 
.................... //// quicker algorithm, but use more ROM  //// 
.................... ////                                      //// 
.................... //// #define FASTER_BUT_MORE_ROM          //// 
.................... ////////////////////////////////////////////// 
....................  
....................  
....................  
.................... /*Copying functions*/ 
.................... /* standard template: 
....................    void *memmove(void *s1, void *s2, size_t n). 
....................    Copies max of n characters safely (not following ending '\0') 
....................    from s2 in s1; if s2 has less than n characters, appends 0 */ 
....................  
.................... char *memmove(void *s1,char *s2,size_t n) 
.................... { 
....................    char *sc1; 
....................    char *sc2; 
....................    sc1=s1; 
....................    sc2=s2; 
....................    if(sc2<sc1 && sc1 <sc2 +n) 
....................       for(sc1+=n,sc2+=n;0<n;--n) 
....................          *--sc1=*--sc2; 
....................    else 
....................       for(;0<n;--n) 
....................          *sc1++=*sc2++; 
....................   return s1; 
....................   } 
....................  
.................... /* Standard template: char *strcpy(char *s1, const char *s2) 
....................    copies the string s2 including the null character to s1. 
....................    This is a compiler built in to handle the different address 
....................    spaces */ 
....................  
.................... #define strcopy strcpy 
....................  
.................... /* standard template: 
....................    char *strncpy(char *s1, const char *s2, size_t n). 
....................    Copies max of n characters (not following ending '\0') 
....................    from s2 in s1; if s2 has less than n characters, appends 0 */ 
....................  
.................... char *strncpy(char *s1, char *s2, size_t n) 
.................... { 
....................   char *s; 
....................  
....................   for (s = s1; n > 0 && *s2 != '\0'; n--) 
....................      *s++ = *s2++; 
....................   for (; n > 0; n--) 
....................      *s++ = '\0'; 
....................  
....................   return(s1); 
.................... } 
.................... /***********************************************************/ 
....................  
.................... /*concatenation functions*/ 
.................... /* standard template: char *strcat(char *s1, const char *s2) 
.................... appends s2 to s1*/ 
....................  
.................... char *strcat(char *s1, char *s2) 
.................... { 
....................    char *s; 
....................  
....................    for (s = s1; *s != '\0'; ++s); 
....................    while(*s2 != '\0') 
....................    { 
....................       *s = *s2; 
....................       ++s; 
....................       ++s2; 
....................    } 
....................  
....................    *s = '\0'; 
....................    return(s1); 
.................... } 
.................... /* standard template: char *strncat(char *s1, char *s2,size_t n) 
.................... appends not more than n characters from s2 to s1*/ 
....................  
.................... char *strncat(char *s1, char *s2, size_t n) 
.................... { 
....................    char *s; 
....................  
....................    for (s = s1; *s != '\0'; ++s); 
....................    while(*s2 != '\0' && 0<n) 
....................    { 
....................       *s = *s2; 
....................       ++s; 
....................       ++s2; 
....................       --n; 
....................    } 
....................  
....................    *s = '\0'; 
....................    return(s1); 
.................... } 
....................  
.................... /***********************************************************/ 
....................  
....................  
.................... /*comparison functions*/ 
.................... /* standard template: signed int memcmp(void *s1, void *s2). 
....................    Compares s1 & s2; returns -1 if s1<s2, 0 if s1=s2, 1 if s1>s2 */ 
....................  
.................... signed int8 memcmp(void * s1,char *s2,size_t n) 
.................... { 
.................... char *su1, *su2; 
.................... for(su1=s1, su2=s2; 0<n; ++su1, ++su2, --n) 
.................... { 
....................    if(*su1!=*su2) 
....................       return ((*su1<*su2)?-1:+1); 
.................... } 
.................... return 0; 
.................... } 
....................  
.................... /* standard template: int strcmp(const char *s1, const char *s2). 
....................    Compares s1 & s2; returns -1 if s1<s2, 0 if s1=s2, 1 if s1>s2 */ 
....................  
.................... signed int8 strcmp(char *s1, char *s2) 
.................... { 
....................    for (; *s1 == *s2; s1++, s2++) 
....................       if (*s1 == '\0') 
....................          return(0); 
....................    return((*s1 < *s2) ? -1: 1); 
.................... } 
.................... /* standard template: int strcoll(const char *s1, const char *s2). 
....................    Compares s1 & s2; returns -1 if s1<s2, 0 if s1=s2, 1 if s1>s2 */ 
....................  
.................... signed int8 strcoll(char *s1, char *s2) 
.................... { 
....................    for (; *s1 == *s2; s1++, s2++) 
....................       if (*s1 == '\0') 
....................          return(0); 
....................    return((*s1 < *s2) ? -1: 1); 
.................... } 
....................  
.................... /* standard template: 
....................    int strncmp(const char *s1, const char *s2, size_t n). 
....................    Compares max of n characters (not following 0) from s1 to s2; 
....................    returns same as strcmp */ 
....................  
.................... signed int8 strncmp(char *s1, char *s2, size_t n) 
.................... { 
....................    for (; n > 0; s1++, s2++, n--) 
....................       if (*s1 != *s2) 
....................          return((*s1 <*s2) ? -1: 1); 
....................       else if (*s1 == '\0') 
....................          return(0); 
....................    return(0); 
.................... } 
.................... /* standard template: 
....................    int strxfrm(const char *s1, const char *s2, size_t n). 
....................    transforms maximum of n characters from s2 and places them into s1*/ 
.................... size_t strxfrm(char *s1, char *s2, size_t n) 
.................... { 
....................   char *s; 
....................   unsigned int8 n1; 
....................   n1=n; 
....................   for (s = s1; n > 0 && *s2 != '\0'; n--) 
....................      *s++ = *s2++; 
....................   for (; n > 0; n--) 
....................      *s++ = '\0'; 
....................  
....................   return(n1); 
.................... } 
....................  
....................  
....................  
....................  
....................  
.................... /***********************************************************/ 
.................... /*Search functions*/ 
.................... /* standard template: void *memchr(const char *s, int c). 
....................    Finds first occurrence of c in n characters of s */ 
....................  
.................... char *memchr(void *s,unsigned int8 c,size_t n) 
.................... { 
....................    char uc; 
....................    char *su; 
....................    uc=c; 
....................    for(su=s;0<n;++su,--n) 
....................       if(*su==uc) 
....................       return su; 
....................    return NULL; 
.................... } 
....................  
.................... /* standard template: char *strchr(const char *s, int c). 
....................    Finds first occurrence of c in s */ 
....................  
.................... char *strchr(char *s, unsigned int8 c) 
.................... { 
....................    for (; *s != c; s++) 
....................       if (*s == '\0') 
....................          return(0); 
....................    return(s); 
.................... } 
.................... /* standard template: 
....................    size_t strcspn(const char *s1, const char *s2). 
....................    Computes length of max initial segment of s1 that 
....................    consists entirely of characters NOT from s2*/ 
....................  
.................... unsigned int8  strcspn(char *s1, char *s2) 
.................... { 
....................    char *sc1, *sc2; 
....................  
....................    for (sc1 = s1; *sc1 != 0; sc1++) 
....................       for (sc2 = s2; *sc2 != 0; sc2++) 
....................          if (*sc1 == *sc2) 
....................             return(sc1 - s1); 
....................    return(sc1 - s1); 
.................... } 
.................... /* standard template: 
....................    char *strpbrk(const char *s1, const char *s2). 
....................    Locates first occurence of any character from s2 in s1; 
....................    returns s1 if s2 is empty string */ 
....................  
.................... char *strpbrk(char *s1, char *s2) 
.................... { 
....................    char *sc1, *sc2; 
....................  
....................    for (sc1 = s1; *sc1 != 0; sc1++) 
....................       for (sc2 = s2; *sc2 != 0; sc2++) 
....................          if (*sc1 == *sc2) 
....................             return(sc1); 
....................    return(0); 
.................... } 
....................  
....................  
.................... /* standard template: char *strrchr(const char *s, int c). 
....................    Finds last occurrence of c in s */ 
....................  
.................... char *strrchr(char *s, unsigned int8 c) 
.................... { 
....................    char *p; 
....................  
....................    for (p = 0; ; s++) 
....................    { 
....................       if (*s == c) 
....................          p = s; 
....................       if (*s == '\0') 
....................          return(p); 
....................    } 
.................... } 
.................... /* computes length of max initial segment of s1 consisting 
....................    entirely of characters from s2 */ 
....................  
.................... unsigned int8  strspn(char *s1, char *s2) 
.................... { 
....................    char *sc1, *sc2; 
....................  
....................    for (sc1 = s1; *sc1 != 0; sc1++) 
....................       for (sc2 = s2; ; sc2++) 
....................     if (*sc2 == '\0') 
....................        return(sc1 - s1); 
....................          else if (*sc1 == *sc2) 
....................             break; 
....................    return(sc1 - s1); 
.................... } 
.................... /* standard template: 
....................    char *strstr(const char *s1, const char *s2); 
....................    Locates first occurence of character sequence s2 in s1; 
....................    returns 0 if s2 is empty string 
....................  
....................    Uncomment #define FASTER_BUT_MORE_ROM at the top of the 
....................    file to use the faster algorithm */ 
.................... char *strstr(char *s1, char *s2) 
.................... { 
....................    char *s, *t; 
....................  
....................    #ifdef FASTER_BUT_MORE_ROM 
....................    if (*s2 == '\0') 
....................          return(s1); 
....................    #endif 
....................  
....................    while (*s1) 
....................    { 
....................       for(s = s1, t = s2; *t && (*s == *t); ++s, ++t); 
....................  
....................       if (*t == '\0') 
....................          return s1; 
....................       ++s1; 
....................       #ifdef FASTER_BUT_MORE_ROM 
....................          while(*s1 != '\0' && *s1 != *s2) 
....................             ++s1; 
....................       #endif 
....................    } 
....................    return 0; 
.................... } 
....................  
.................... /* standard template: char *strtok(char *s1, const char *s2). 
....................  
....................    Finds next token in s1 delimited by a character from separator 
....................    string s2 (which can be different from call to call).  First call 
....................    starts at beginning of s1 searching for first character NOT 
....................    contained in s2; returns 0 if none is found. 
....................    If one is found, it is the start of first token (return value). 
....................    Function then searches from there for a character contained in s2. 
....................    If none is found, current token extends to end of s1, and subsequent 
....................    searches for a token will return 0.  If one is found, it is 
....................    overwritten by '\0', which terminates current token.  Function saves 
....................    pointer to following character from which next search will start. 
....................    Each subsequent call, with 0 as first argument, starts searching 
....................    from saved pointer */ 
....................  
.................... char *strtok(char *s1, char *s2) 
.................... { 
....................    char *beg, *end; 
....................    static char *save; 
....................  
....................    beg = (s1)? s1: save; 
....................    beg += strspn(beg, s2); 
....................    if (*beg == '\0') 
....................    { 
....................       *save = ' '; 
....................       return(0); 
....................    } 
....................    end = strpbrk(beg, s2); 
....................    if (*end != '\0') 
....................    { 
....................       *end = '\0'; 
....................       end++; 
....................    } 
....................    save = end; 
....................    return(beg); 
.................... } 
....................  
.................... /*****************************************************************/ 
.................... /*Miscellaneous functions*/ 
.................... /* standard template 
.................... maps error number in errnum to an error message string 
.................... Returns: Pointer to string 
.................... */ 
.................... #ifdef _ERRNO 
.................... char * strerror(unsigned int8 errnum) 
.................... { 
.................... char s[15]; 
.................... switch( errnum) 
.................... { 
.................... case 0: 
....................    strcpy(s,"no errors"); 
....................    return s; 
.................... case EDOM : 
....................    strcpy(s,"domain error"); 
....................    return s; 
.................... case ERANGE: 
....................    strcpy(s,"range error"); 
....................    return s; 
.................... } 
.................... } 
.................... #ENDIF 
.................... /* standard template: size_t strlen(const char *s). 
....................    Computes length of s1 (preceding terminating 0) */ 
....................  
.................... unsigned int8 strlen(char *s) 
.................... { 
....................    char *sc; 
....................  
....................    for (sc = s; *sc != 0; sc++); 
....................    return(sc - s); 
.................... } 
....................  
.................... /* standard template: size_t stricmp(const char *s1, const char *s2). 
....................    Compares s1 to s2 ignoring case (upper vs. lower) */ 
....................  
.................... signed int8 stricmp(char *s1, char *s2) 
.................... { 
....................  for(; *s1==*s2||(isalpha(*s1)&&isalpha(*s2)&&(*s1==*s2+32||*s2==*s1+32)); 
....................     s1++, s2++) 
....................     if (*s1 == '\0') 
....................        return(0); 
....................  return((*s1 < *s2) ? -1: 1); 
.................... } 
....................  
....................  
.................... /* standard template: char *strlwr(char *s). 
....................    Replaces uppercase letters by lowercase; 
....................    returns pointer to new string s */ 
....................  
.................... char *strlwr(char *s) 
.................... { 
....................    char *p; 
....................  
....................    for (p = s; *p != '\0'; p++) 
....................       if (*p >= 'A' && *p <='Z') 
....................          *p += 'a' - 'A'; 
....................    return(s); 
.................... } 
....................  
....................  
.................... /************************************************************/ 
....................  
....................  
.................... #endif 
....................  
....................  
.................... div_t div(signed int numer, signed int denom) 
.................... { 
....................    div_t val; 
....................    val.quot = numer / denom; 
....................    val.rem = numer - (denom * val.quot); 
....................    return (val); 
.................... } 
....................  
.................... ldiv_t ldiv(signed long numer, signed long denom) 
.................... { 
....................    ldiv_t val; 
....................  
....................    val.quot = numer / denom; 
....................    val.rem = numer - (denom * val.quot); 
....................    return (val); 
.................... } 
....................  
.................... #if defined(__PCD__) 
.................... float32 atoe(char * s) 
.................... { 
....................    float32 pow10 = 1.0; 
....................    float32 result = 0.0; 
....................    unsigned int8 sign = 0; 
....................    unsigned int8 expsign = 0; 
....................    char c; 
....................    unsigned int8 ptr = 0; 
....................    unsigned int8 i; 
....................    float32 exp = 1.0; 
....................    unsigned int8 expcnt = 0; 
....................  
....................    c = s[ptr++]; 
....................  
....................    if ((c>='0' && c<='9') || c=='+' || c=='-' || c=='.' || c=='E' || c=='e') { 
....................       if(c == '-') { 
....................          sign = 1; 
....................          c = s[ptr++]; 
....................       } 
....................       if(c == '+') 
....................          c = s[ptr++]; 
....................  
....................       while((c >= '0' && c <= '9')) { 
....................          result = 10*result + c - '0'; 
....................          c = s[ptr++]; 
....................       } 
....................  
....................       if (c == '.') { 
....................          c = s[ptr++]; 
....................          while((c >= '0' && c <= '9')) { 
....................              pow10 = pow10*10; 
....................              result += (c - '0')/pow10; 
....................              c = s[ptr++]; 
....................          } 
....................       } 
....................  
....................       // Handling the exponent 
....................       if (c=='e' || c=='E') { 
....................          c = s[ptr++]; 
....................  
....................          if(c == '-') { 
....................             expsign = 1; 
....................             c = s[ptr++]; 
....................          } 
....................          if(c == '+') 
....................             c = s[ptr++]; 
....................  
....................          while((c >= '0' && c <= '9')) { 
....................             expcnt = 10*expcnt + c - '0'; 
....................             c = s[ptr++]; 
....................          } 
....................  
....................          for(i=0;i<expcnt;i++) 
....................             exp*=10; 
....................  
....................          if(expsign==1) 
....................             result/=exp; 
....................          else 
....................             result*=exp; 
....................       } 
....................    } 
....................  
....................    if (sign == 1) 
....................       result = -1*result; 
....................    return(result); 
.................... } 
.................... #endif 
....................  
.................... #if !defined(__PCD__) 
.................... float atoe(char * s) 
.................... { 
....................    float pow10 = 1.0; 
....................    float result = 0.0; 
....................    unsigned int8 sign = 0; 
....................    unsigned int8 expsign = 0; 
....................    char c; 
....................    unsigned int8 ptr = 0; 
....................    unsigned int8 i; 
....................    float exp = 1.0; 
....................    unsigned int8 expcnt = 0; 
....................  
....................    c = s[ptr++]; 
....................  
....................    if ((c>='0' && c<='9') || c=='+' || c=='-' || c=='.' || c=='E' || c=='e') { 
....................       if(c == '-') { 
....................          sign = 1; 
....................          c = s[ptr++]; 
....................       } 
....................       if(c == '+') 
....................          c = s[ptr++]; 
....................  
....................       while((c >= '0' && c <= '9')) { 
....................          result = 10*result + c - '0'; 
....................          c = s[ptr++]; 
....................       } 
....................  
....................       if (c == '.') { 
....................          c = s[ptr++]; 
....................          while((c >= '0' && c <= '9')) { 
....................              pow10 = pow10*10; 
....................              result += (c - '0')/pow10; 
....................              c = s[ptr++]; 
....................          } 
....................       } 
....................  
....................       // Handling the exponent 
....................       if (c=='e' || c=='E') { 
....................          c = s[ptr++]; 
....................  
....................          if(c == '-') { 
....................             expsign = 1; 
....................             c = s[ptr++]; 
....................          } 
....................          if(c == '+') 
....................             c = s[ptr++]; 
....................  
....................          while((c >= '0' && c <= '9')) { 
....................             expcnt = 10*expcnt + c - '0'; 
....................             c = s[ptr++]; 
....................          } 
....................  
....................          for(i=0;i<expcnt;i++) 
....................             exp*=10; 
....................  
....................          if(expsign==1) 
....................             result/=exp; 
....................          else 
....................             result*=exp; 
....................       } 
....................    } 
....................  
....................    if (sign == 1) 
....................       result = -1*result; 
....................    return(result); 
.................... } 
.................... #endif 
....................  
.................... signed int atoi(char *s) 
.................... { 
....................    signed int result; 
....................    unsigned int sign, base, index; 
....................    char c; 
....................  
....................    index = 0; 
....................    sign = 0; 
....................    base = 10; 
....................    result = 0; 
....................  
....................    if (!s) 
....................       return 0; 
....................    // Omit all preceeding alpha characters 
....................    c = s[index++]; 
....................  
....................    // increase index if either positive or negative sign is detected 
....................    if (c == '-') 
....................    { 
....................       sign = 1;         // Set the sign to negative 
....................       c = s[index++]; 
....................    } 
....................    else if (c == '+') 
....................    { 
....................       c = s[index++]; 
....................    } 
....................  
....................    if (c >= '0' && c <= '9') 
....................    { 
....................  
....................       // Check for hexa number 
....................       if (c == '0' && (s[index] == 'x' || s[index] == 'X')) 
....................       { 
....................          base = 16; 
....................          index++; 
....................          c = s[index++]; 
....................       } 
....................  
....................       // The number is a decimal number 
....................       if (base == 10) 
....................       { 
....................          while (c >= '0' && c <= '9') 
....................          { 
....................             result = 10*result + (c - '0'); 
....................             c = s[index++]; 
....................          } 
....................       } 
....................       else if (base == 16)    // The number is a hexa number 
....................       { 
....................          c = toupper(c); 
....................          while ( (c >= '0' && c <= '9') || (c >= 'A' && c<='F')) 
....................          { 
....................             if (c >= '0' && c <= '9') 
....................                result = (result << 4) + (c - '0'); 
....................             else 
....................                result = (result << 4) + (c - 'A' + 10); 
....................  
....................             c = s[index++]; 
....................             c = toupper(c); 
....................          } 
....................       } 
....................    } 
....................  
....................    if (sign == 1 && base == 10) 
....................        result = -result; 
....................  
....................    return(result); 
.................... } 
....................  
.................... signed long atol(char *s) 
.................... { 
....................    signed long result; 
....................    unsigned int sign, base, index; 
....................    char c; 
....................  
....................    index = 0; 
....................    sign = 0; 
....................    base = 10; 
....................    result = 0; 
....................  
....................    if (!s) 
....................       return 0; 
....................    c = s[index++]; 
....................  
....................    // increase index if either positive or negative sign is detected 
....................    if (c == '-') 
....................    { 
....................       sign = 1;         // Set the sign to negative 
....................       c = s[index++]; 
....................    } 
....................    else if (c == '+') 
....................    { 
....................       c = s[index++]; 
....................    } 
....................  
....................    if (c >= '0' && c <= '9') 
....................    { 
....................       if (c == '0' && (s[index] == 'x' || s[index] == 'X')) 
....................       { 
....................          base = 16; 
....................          index++; 
....................          c = s[index++]; 
....................       } 
....................  
....................       // The number is a decimal number 
....................       if (base == 10) 
....................       { 
....................          while (c >= '0' && c <= '9') 
....................          { 
....................             result = 10*result + (c - '0'); 
....................             c = s[index++]; 
....................          } 
....................       } 
....................       else if (base == 16)    // The number is a hexa number 
....................       { 
....................          c = toupper(c); 
....................          while ( (c >= '0' && c <= '9') || (c >= 'A' && c <='F')) 
....................          { 
....................             if (c >= '0' && c <= '9') 
....................                result = (result << 4) + (c - '0'); 
....................             else 
....................                result = (result << 4) + (c - 'A' + 10); 
....................  
....................             c = s[index++];c = toupper(c); 
....................          } 
....................       } 
....................    } 
....................  
....................    if (base == 10 && sign == 1) 
....................       result = -result; 
....................  
....................    return(result); 
.................... } 
....................  
.................... /* A fast routine to multiply by 10 
....................  */ 
.................... signed int32 mult_with10(int32 num) 
.................... { 
....................    return ( (num << 1) + (num << 3) ); 
.................... } 
....................  
.................... #if sizeof(long)==2 
.................... signed int32 atoi32(char *s) 
.................... { 
....................    signed int32 result; 
....................    int8 sign, base, index; 
....................    char c; 
....................  
....................    index = 0; 
....................    sign = 0; 
....................    base = 10; 
....................    result = 0; 
....................  
....................    if (!s) 
....................       return 0; 
....................    c = s[index++]; 
....................  
....................    // increase index if either positive or negative sign is detected 
....................    if (c == '-') 
....................    { 
....................       sign = 1;         // Set the sign to negative 
....................       c = s[index++]; 
....................    } 
....................    else if (c == '+') 
....................    { 
....................       c = s[index++]; 
....................    } 
....................  
....................    if (c >= '0' && c <= '9') 
....................    { 
....................       if (c == '0' && (s[index] == 'x' || s[index] == 'X')) 
....................       { 
....................          base = 16; 
....................          index++; 
....................          c = s[index++]; 
....................       } 
....................  
....................       // The number is a decimal number 
....................       if (base == 10) 
....................       { 
....................          while (c >= '0' && c <= '9') { 
....................             result = (result << 1) + (result << 3);  // result *= 10; 
....................             result += (c - '0'); 
....................             c = s[index++]; 
....................          } 
....................       } 
....................       else if (base == 16)    // The number is a hexa number 
....................       { 
....................          c = toupper(c); 
....................          while ((c >= '0' && c <= '9') || (c >= 'A' && c <='F')) 
....................          { 
....................             if (c >= '0' && c <= '9') 
....................                result = (result << 4) + (c - '0'); 
....................             else 
....................                result = (result << 4) + (c - 'A' + 10); 
....................  
....................             c = s[index++];c = toupper(c); 
....................          } 
....................       } 
....................    } 
....................  
....................    if (base == 10 && sign == 1) 
....................       result = -result; 
....................  
....................    return(result); 
.................... } 
.................... #endif 
....................  
.................... #if defined(__PCD__) 
....................  
.................... signed int48 atoi48(char *s) 
.................... { 
....................    signed int48 result; 
....................    int8 sign, base, index; 
....................    char c; 
....................  
....................    index = 0; 
....................    sign = 0; 
....................    base = 10; 
....................    result = 0; 
....................  
....................    if (!s) 
....................       return 0; 
....................    c = s[index++]; 
....................  
....................    // increase index if either positive or negative sign is detected 
....................    if (c == '-') 
....................    { 
....................       sign = 1;         // Set the sign to negative 
....................       c = s[index++]; 
....................    } 
....................    else if (c == '+') 
....................    { 
....................       c = s[index++]; 
....................    } 
....................  
....................    if (c >= '0' && c <= '9') 
....................    { 
....................       if (c == '0' && (s[index] == 'x' || s[index] == 'X')) 
....................       { 
....................          base = 16; 
....................          index++; 
....................          c = s[index++]; 
....................       } 
....................  
....................       // The number is a decimal number 
....................       if (base == 10) 
....................       { 
....................          while (c >= '0' && c <= '9') { 
....................             result = (result << 1) + (result << 3);  // result *= 10; 
....................             result += (c - '0'); 
....................             c = s[index++]; 
....................          } 
....................       } 
....................       else if (base == 16)    // The number is a hexa number 
....................       { 
....................          c = toupper(c); 
....................          while ((c >= '0' && c <= '9') || (c >= 'A' && c <='F')) 
....................          { 
....................             if (c >= '0' && c <= '9') 
....................                result = (result << 4) + (c - '0'); 
....................             else 
....................                result = (result << 4) + (c - 'A' + 10); 
....................  
....................             c = s[index++];c = toupper(c); 
....................          } 
....................       } 
....................    } 
....................  
....................    if (base == 10 && sign == 1) 
....................       result = -result; 
....................  
....................    return(result); 
.................... } 
....................  
.................... signed int64 atoi64(char *s) 
.................... { 
....................    signed int64 result; 
....................    int8 sign, base, index; 
....................    char c; 
....................  
....................    index = 0; 
....................    sign = 0; 
....................    base = 10; 
....................    result = 0; 
....................  
....................    if (!s) 
....................       return 0; 
....................    c = s[index++]; 
....................  
....................    // increase index if either positive or negative sign is detected 
....................    if (c == '-') 
....................    { 
....................       sign = 1;         // Set the sign to negative 
....................       c = s[index++]; 
....................    } 
....................    else if (c == '+') 
....................    { 
....................       c = s[index++]; 
....................    } 
....................  
....................    if (c >= '0' && c <= '9') 
....................    { 
....................       if (c == '0' && (s[index] == 'x' || s[index] == 'X')) 
....................       { 
....................          base = 16; 
....................          index++; 
....................          c = s[index++]; 
....................       } 
....................  
....................       // The number is a decimal number 
....................       if (base == 10) 
....................       { 
....................          while (c >= '0' && c <= '9') { 
....................             result = (result << 1) + (result << 3);  // result *= 10; 
....................             result += (c - '0'); 
....................             c = s[index++]; 
....................          } 
....................       } 
....................       else if (base == 16)    // The number is a hexa number 
....................       { 
....................          c = toupper(c); 
....................          while ((c >= '0' && c <= '9') || (c >= 'A' && c <='F')) 
....................          { 
....................             if (c >= '0' && c <= '9') 
....................                result = (result << 4) + (c - '0'); 
....................             else 
....................                result = (result << 4) + (c - 'A' + 10); 
....................  
....................             c = s[index++];c = toupper(c); 
....................          } 
....................       } 
....................    } 
....................  
....................    if (base == 10 && sign == 1) 
....................       result = -result; 
....................  
....................    return(result); 
.................... } 
.................... #endif 
....................  
.................... char * itoa(signed int32 num, unsigned int base, char * s) 
.................... { 
....................      unsigned int32 temp=1; 
....................      unsigned int8 i,sign=0,cnt=0; 
....................      char c; 
....................  
....................      if(num<0) { 
....................          sign=1;        // Check for negative number 
....................          num*=-1; 
....................      } 
....................  
....................      while(temp>0) { 
....................          temp=(num/base); 
....................          s[cnt]=(num%base)+'0';    // Conversion 
....................  
....................          if(s[cnt]>0x39) 
....................             s[cnt]+=0x7; 
....................  
....................          cnt++; 
....................          num=temp; 
....................      } 
....................  
....................      if(sign==1) { 
....................          s[cnt]=0x2D;      // Negative sign 
....................          cnt++; 
....................      } 
....................  
....................      for(i = 0;i<(int8)(cnt/2);i++) { 
....................  
....................          c=s[i]; 
....................          s[i]=s[cnt-i-1];        // Reverse the number 
....................          s[cnt-i-1]=c; 
....................      } 
....................      s[cnt]='\0';     // End the string 
....................      return s; 
.................... } 
....................  
.................... float strtof(char *s, char *endptr) 
.................... { 
....................    float pow10 = 1.0; 
....................    float result = 0.0; 
....................    int1 skip = 1, sign = 0, point = 0; 
....................    char c; 
....................    unsigned int8 ptr = 0; 
....................  
....................    if (!s) 
....................       return 0; 
....................  
....................    for(c=s[ptr++]; c!=0; c=s[ptr++]) 
....................    { 
....................       if (skip && !isspace(c)) 
....................       { 
....................          skip = 0; 
....................          if (c == '+') 
....................          { 
....................             sign = 0; 
....................             continue; 
....................          }             
....................          else if (c == '-') 
....................          { 
....................             sign = 1; 
....................             continue; 
....................          } 
....................       } 
....................       if (!skip && (c == '.') && !point) 
....................          point = 1; 
....................       else if (!skip && isdigit(c)) 
....................       { 
....................          c -= '0'; 
....................          if (point) 
....................          { 
....................             pow10 = pow10 * 10.0; 
....................             result += (float)c / pow10;    
....................          } 
....................          else 
....................          { 
....................             result = 10.0 * result + (float)c; 
....................          } 
....................       } 
....................       else if (!skip) 
....................          break; 
....................    } 
....................  
....................    if (sign) 
....................       result = -1*result; 
....................        
....................    if(endptr) 
....................    { 
....................       if (ptr) { 
....................          ptr--; 
....................        #IF LONG_POINTERS  
....................          *((long *)endptr)= s+ptr;  
....................        #ELSE 
....................          *((char *)endptr)=s+ptr; 
....................        #ENDIF 
....................       } 
....................       else 
....................       { 
....................       #IF LONG_POINTERS 
....................       *((long *)endptr)= s;  
....................       #ELSE 
....................       *((char *)endptr)=s; 
....................       #ENDIF 
....................       } 
....................    } 
....................  
....................    return(result); 
.................... } 
....................  
.................... #if defined(__PCD__) 
.................... float48 strtof48(char *s, char *endptr) 
.................... { 
....................    float48 pow10 = 1.0; 
....................    float48 result = 0.0; 
....................    int1 skip = 1, sign = 0, point = 0; 
....................    char c; 
....................    unsigned int8 ptr = 0; 
....................  
....................    if (!s) 
....................       return 0; 
....................  
....................    for(c=s[ptr++]; c!=0; c=s[ptr++]) 
....................    { 
....................       if (skip && !isspace(c)) 
....................       { 
....................          skip = 0; 
....................          if (c == '+') 
....................          { 
....................             sign = 0; 
....................             continue; 
....................          }             
....................          else if (c == '-') 
....................          { 
....................             sign = 1; 
....................             continue; 
....................          } 
....................       } 
....................       if (!skip && (c == '.') && !point) 
....................          point = 1; 
....................       else if (!skip && isdigit(c)) 
....................       { 
....................          c -= '0'; 
....................          if (point) 
....................          { 
....................             pow10 = pow10 * 10.0; 
....................             result += (float48)c / pow10;    
....................          } 
....................          else 
....................          { 
....................             result = 10.0 * result + (float48)c; 
....................          } 
....................       } 
....................       else if (!skip) 
....................          break; 
....................    } 
....................  
....................    if (sign) 
....................       result = -1*result; 
....................        
....................    if(endptr) 
....................    { 
....................       if (ptr) { 
....................          ptr--; 
....................        #IF LONG_POINTERS  
....................          *((long *)endptr)= s+ptr;  
....................        #ELSE 
....................          *((char *)endptr)=s+ptr; 
....................        #ENDIF 
....................       } 
....................       else 
....................       { 
....................       #IF LONG_POINTERS 
....................       *((long *)endptr)= s;  
....................       #ELSE 
....................       *((char *)endptr)=s; 
....................       #ENDIF 
....................       } 
....................    } 
....................  
....................    return(result); 
.................... } 
....................  
.................... float64 strtod(char *s, char *endptr) 
.................... { 
....................    float64 pow10 = 1.0; 
....................    float64 result = 0.0; 
....................    int1 skip = 1, sign = 0, point = 0; 
....................    char c; 
....................    unsigned int8 ptr = 0; 
....................  
....................    if (!s) 
....................       return 0; 
....................  
....................    for(c=s[ptr++]; c!=0; c=s[ptr++]) 
....................    { 
....................       if (skip && !isspace(c)) 
....................       { 
....................          skip = 0; 
....................          if (c == '+') 
....................          { 
....................             sign = 0; 
....................             continue; 
....................          }             
....................          else if (c == '-') 
....................          { 
....................             sign = 1; 
....................             continue; 
....................          } 
....................       } 
....................       if (!skip && (c == '.') && !point) 
....................          point = 1; 
....................       else if (!skip && isdigit(c)) 
....................       { 
....................          c -= '0'; 
....................          if (point) 
....................          { 
....................             pow10 = pow10 * 10.0; 
....................             result += (float64)c / pow10;    
....................          } 
....................          else 
....................          { 
....................             result = 10.0 * result + (float64)c; 
....................          } 
....................       } 
....................       else if (!skip) 
....................          break; 
....................    } 
....................  
....................    if (sign) 
....................       result = -1*result; 
....................        
....................    if(endptr) 
....................    { 
....................       if (ptr) { 
....................          ptr--; 
....................        #IF LONG_POINTERS  
....................          *((long *)endptr)= s+ptr;  
....................        #ELSE 
....................          *((char *)endptr)=s+ptr; 
....................        #ENDIF 
....................       } 
....................       else 
....................       { 
....................       #IF LONG_POINTERS 
....................       *((long *)endptr)= s;  
....................       #ELSE 
....................       *((char *)endptr)=s; 
....................       #ENDIF 
....................       } 
....................    } 
....................  
....................    return(result); 
.................... } 
.................... #endif 
....................  
.................... unsigned long strtoul(char *s, char *endptr, signed int base) 
.................... { 
....................    char *sc,*s1,*sd; 
....................    unsigned long x=0; 
....................    char sign; 
....................    char digits[]="0123456789abcdefghijklmnopqstuvwxyz"; 
....................    for(sc=s;isspace(*sc);++sc); 
....................    sign=*sc=='-'||*sc=='+'?*sc++:'+'; 
....................    if(sign=='-' || base <0 || base ==1|| base >36) // invalid base 
....................    goto StrtoulGO; 
....................  
....................    else if (base) 
....................    { 
....................       if(base==16 && *sc =='0'&&(sc[1]=='x' || sc[1]=='X')) 
....................          sc+=2; 
....................       if(base==8 && *sc =='0') 
....................          sc+=1; 
....................       if(base==2 && *sc =='0'&&sc[1]=='b') 
....................          sc+=2; 
....................  
....................    } 
....................    else if(*sc!='0') // base is 0, find base 
....................       base=10; 
....................    else if (sc[1]=='x' || sc[1]=='X') 
....................       base =16,sc+=2; 
....................    else if(sc[1]=='b') 
....................       base=2,sc+=2; 
....................    else 
....................       base=8; 
....................    for (s1=sc;*sc=='0';++sc);// skip leading zeroes 
....................    sd=memchr(digits,tolower(*sc),base); 
....................    for(; sd!=0; ) 
....................    { 
....................       x=x*base+(int16)(sd-digits); 
....................       ++sc; 
....................       sd=memchr(digits,tolower(*sc),base); 
....................    } 
....................    if(s1==sc) 
....................    { 
....................    StrtoulGO: 
....................       if (endptr) 
....................       { 
....................          #IF LONG_POINTERS 
....................          *((long *)endptr)= s;  
....................          #ELSE 
....................          *((char *)endptr)=s; 
....................          #ENDIF 
....................          } 
....................    return 0; 
....................    } 
....................    if (endptr) 
....................    { 
....................          #IF LONG_POINTERS 
....................          *((long *)endptr)= sc;  
....................          #ELSE 
....................          *((char *)endptr)=sc;  
....................          #ENDIF 
....................    } 
....................    return x; 
.................... } 
....................  
....................  
.................... signed long strtol(char *s,char *endptr, signed int base) 
.................... { 
....................    char *sc,*s1,*sd; 
....................    signed long x=0; 
....................    char sign; 
....................    char digits[]="0123456789abcdefghijklmnopqstuvwxyz"; 
....................    for(sc=s;isspace(*sc);++sc); 
....................    sign=*sc=='-'||*sc=='+'?*sc++:'+'; 
....................    if (base <0 || base ==1|| base >36) // invalid base 
....................    goto StrtolGO; 
....................    else if (base) 
....................    { 
....................       if(base==16 && *sc =='0'&&(sc[1]=='x' || sc[1]=='X')) 
....................          sc+=2; 
....................       if(base==8 && *sc =='0') 
....................          sc+=1; 
....................       if(base==2 && *sc =='0'&&sc[1]=='b') 
....................          sc+=2; 
....................  
....................    } 
....................    else if(*sc!='0') // base is 0, find base 
....................       base=10; 
....................    else if (sc[1]=='x' || sc[1]=='X') 
....................       base =16,sc+=2; 
....................    else if(sc[1]=='b') 
....................       base=2,sc+=2; 
....................    else 
....................       base=8; 
....................    for (s1=sc;*sc=='0';++sc);// skip leading zeroes 
....................  
....................    sd=memchr(digits,tolower(*sc),base); 
....................    for(;sd!=0;) 
....................    { 
....................       x=x*base+(int16)(sd-digits); 
....................       ++sc; 
....................       sd=memchr(digits,tolower(*sc),base); 
....................    } 
....................    if(s1==sc) 
....................    { 
....................    StrtolGO: 
....................       if (endptr) 
....................       { 
....................          #IF LONG_POINTERS 
....................          *((long *)endptr)= s;  
....................          #ELSE 
....................          *((char *)endptr)=s; 
....................          #ENDIF 
....................       } 
....................    return 0; 
....................    } 
....................    if(sign=='-') 
....................       x  =-x; 
....................    if (endptr) 
....................    { 
....................         #IF LONG_POINTERS 
....................          *((long *)endptr)= sc;  
....................         #ELSE 
....................         *((char *)endptr)=sc; 
....................         #ENDIF 
....................    } 
....................    return x; 
.................... } 
....................  
.................... signed int8 system(char *string) 
.................... { 
....................    return 0; 
.................... } 
....................  
.................... int8 mblen(char *s,size_t n) 
.................... { 
....................    return strlen(s); 
.................... } 
....................  
.................... int8 mbtowc(wchar_t *pwc,char *s,size_t n) 
.................... { 
....................    *pwc=*s; 
....................    return 1; 
.................... } 
....................  
.................... int8 wctomb(char *s,wchar_t wchar) 
.................... { 
....................    *s=wchar; 
....................    return 1; 
.................... } 
....................  
.................... size_t mbstowcs(wchar_t *pwcs,char *s,size_t n) 
.................... { 
....................    strncpy(pwcs,s,n); 
....................    return strlen(pwcs); 
.................... } 
....................  
.................... size_t wcstombs(char *s,wchar_t *pwcs,size_t n) 
.................... { 
....................    strncpy(s,pwcs,n); 
....................    return strlen(s); 
.................... } 
....................  
.................... //--------------------------------------------------------------------------- 
.................... // The random number implementation 
.................... //--------------------------------------------------------------------------- 
....................  
.................... unsigned int32 _Randseed; 
....................  
.................... unsigned int16 rand(void) 
.................... { 
....................    _Randseed = _Randseed * 1103515245 + 12345; 
....................    return ((unsigned int16)(_Randseed >> 16) % RAND_MAX); 
.................... } 
....................  
.................... void srand(unsigned int32 seed) 
.................... { 
....................    _Randseed = seed; 
.................... } 
....................  
.................... //--------------------------------------------------------------------------- 
.................... // Searching and sorting utilities implementation 
.................... //--------------------------------------------------------------------------- 
....................  
.................... #if !defined(__PCD__) 
.................... typedef signed int8 (*_Cmpfun)(char * p1,char * p2);  
.................... #else  
.................... typedef signed int16 (*_Cmpfun)(char * p1,char * p2);  
.................... #endif 
....................  
....................  
....................  
.................... void qsort(char * qdata, unsigned int qitems, unsigned int qsize, _Cmpfun cmp) { 
....................    unsigned int m,j,i,l; 
....................    int1 done; 
....................    unsigned int8 t[16]; 
....................  
....................    m = qitems/2; 
....................    while( m > 0 ) { 
....................      for(j=0; j<(qitems-m); ++j) { 
....................         i = j; 
....................         do 
....................         { 
....................            done=1; 
....................            l = i+m; 
....................            if( (*cmp)(qdata+i*qsize, qdata+l*qsize) > 0 ) { 
....................               memcpy(t, qdata+i*qsize, qsize); 
....................               memcpy(qdata+i*qsize, qdata+l*qsize, qsize); 
....................               memcpy(qdata+l*qsize, t, qsize); 
....................               if(m <= i) 
....................                 i -= m; 
....................                 done = 0; 
....................            } 
....................         } while(!done); 
....................      } 
....................      m = m/2; 
....................    } 
.................... } 
....................  
....................  
.................... char *bsearch(char *key, char *base, size_t num, size_t width,_Cmpfun cmp) 
.................... { 
....................    char *p, *q; 
....................    size_t n; 
....................    size_t pivot; 
....................    signed int val; 
....................  
....................    p = base; 
....................    n = num; 
....................  
....................    while (n > 0) 
....................    { 
....................       pivot = n >> 1; 
....................       q = p + width * pivot; 
....................  
....................       val = (*cmp)(key, q); 
....................  
....................       if (val < 0) 
....................          n = pivot; 
....................       else if (val == 0) 
....................          return ((char *)q); 
....................       else { 
....................          p = q + width; 
....................          n -= pivot + 1; 
....................       } 
....................    } 
....................  
....................    return NULL;      // There's no match 
.................... } 
....................  
....................  
.................... #endif 
....................  
.................... #include <DS1302.c> 
.................... ////////////////////////////////////////////////////////////////////////// 
.................... ////                               DS1302.C                           //// 
.................... ////                     Driver for Real Time Clock                   //// 
.................... ////                                                                  //// 
.................... ////  rtc_init()                                   Call after power up//// 
.................... ////                                                                  //// 
.................... ////  rtc_set_datetime(day,mth,year,dow,hour,min)  Set the date/time  //// 
.................... ////                                                                  //// 
.................... ////  rtc_get_date(day,mth,year,dow)               Get the date       //// 
.................... ////                                                                  //// 
.................... ////  rtc_get_time(hr,min,sec)                     Get the time       //// 
.................... ////                                                                  //// 
.................... ////  rtc_write_nvr(address,data)                  Write to NVR       //// 
.................... ////                                                                  //// 
.................... ////  data = rtc_read_nvr(address)                 Read from NVR      //// 
.................... ////                                                                  //// 
.................... ////  get_bcd(data)                              Convert data to BCD  //// 
.................... ////                                                                  //// 
.................... ////  rm_bcd(data)                               Convert data to int  //// 
.................... ////                                                                  //// 
.................... ////////////////////////////////////////////////////////////////////////// 
.................... ////        (C) Copyright 1996,2003 Custom Computer Services          //// 
.................... //// This source code may only be used by licensed users of the CCS C //// 
.................... //// compiler.  This source code may only be distributed to other     //// 
.................... //// licensed users of the CCS C compiler.  No other use, reproduction//// 
.................... //// or distribution is permitted without written permission.         //// 
.................... //// Derivative programs created using this software in object code   //// 
.................... //// form are not restricted in any way.                              //// 
.................... ////////////////////////////////////////////////////////////////////////// 
....................  
.................... //#ifndef RTC_SCLK 
....................  
.................... #define RTC_SCLK PIN_D1 
.................... #define RTC_IO   PIN_D2 
.................... #define RTC_RST  PIN_D3 
....................  
.................... //#endif 
....................  
.................... void write_ds1302_byte(BYTE cmd) { 
....................    BYTE i; 
....................  
....................    for(i=0;i<=7;++i) { 
*
028BC:  MOVLB  3
028BE:  CLRF   xD6
028C0:  MOVF   xD6,W
028C2:  SUBLW  07
028C4:  BNC   28E0
....................       output_bit(RTC_IO, shift_right(&cmd,1,0) ); 
028C6:  BCF    FD8.0
028C8:  RRCF   xD5,F
028CA:  BC    28D0
028CC:  BCF    F8C.2
028CE:  BRA    28D2
028D0:  BSF    F8C.2
028D2:  BCF    F95.2
....................       output_high(RTC_SCLK); 
028D4:  BCF    F95.1
028D6:  BSF    F8C.1
....................       output_low(RTC_SCLK); 
028D8:  BCF    F95.1
028DA:  BCF    F8C.1
....................    } 
028DC:  INCF   xD6,F
028DE:  BRA    28C0
.................... } 
028E0:  MOVLB  0
028E2:  RETLW  00
....................  
.................... void write_ds1302(BYTE cmd, BYTE data) { 
....................  
....................    output_high(RTC_RST); 
028E4:  BCF    F95.3
028E6:  BSF    F8C.3
....................    write_ds1302_byte(cmd); 
028E8:  MOVFF  3D3,3D5
028EC:  RCALL  28BC
....................    write_ds1302_byte(data); 
028EE:  MOVFF  3D4,3D5
028F2:  RCALL  28BC
....................    output_low(RTC_RST); 
028F4:  BCF    F95.3
028F6:  BCF    F8C.3
.................... } 
028F8:  RETLW  00
....................  
.................... BYTE read_ds1302(BYTE cmd) { 
....................    BYTE i,data; 
....................  
....................    output_high(RTC_RST); 
028FA:  BCF    F95.3
028FC:  BSF    F8C.3
....................    write_ds1302_byte(cmd); 
028FE:  MOVFF  3D0,3D5
02902:  RCALL  28BC
....................     
....................    input(RTC_IO); 
02904:  BSF    F95.2
....................    delay_us(10); 
02906:  MOVLW  10
02908:  MOVWF  00
0290A:  DECFSZ 00,F
0290C:  BRA    290A
0290E:  NOP   
....................           
....................    for(i=0;i<=7;++i) { 
02910:  MOVLB  3
02912:  CLRF   xD1
02914:  MOVF   xD1,W
02916:  SUBLW  07
02918:  BNC   2944
....................       shift_right(&data,1,input(RTC_IO)); 
0291A:  BSF    F95.2
0291C:  BTFSC  F83.2
0291E:  BRA    2924
02920:  BCF    FD8.0
02922:  BRA    2926
02924:  BSF    FD8.0
02926:  RRCF   xD2,F
....................       output_high(RTC_SCLK); 
02928:  BCF    F95.1
0292A:  BSF    F8C.1
....................       delay_us(20); 
0292C:  MOVLW  21
0292E:  MOVWF  00
02930:  DECFSZ 00,F
02932:  BRA    2930
....................       output_low(RTC_SCLK); 
02934:  BCF    F95.1
02936:  BCF    F8C.1
....................       delay_us(20); 
02938:  MOVLW  21
0293A:  MOVWF  00
0293C:  DECFSZ 00,F
0293E:  BRA    293C
....................    } 
02940:  INCF   xD1,F
02942:  BRA    2914
....................    output_low(RTC_RST); 
02944:  BCF    F95.3
02946:  BCF    F8C.3
....................  
....................    return(data); 
02948:  MOVFF  3D2,01
.................... } 
0294C:  MOVLB  0
0294E:  RETLW  00
....................  
.................... void rtc_init() { 
....................    BYTE x; 
....................    output_low(RTC_RST); 
02950:  BCF    F95.3
02952:  BCF    F8C.3
....................    delay_us(20); 
02954:  MOVLW  21
02956:  MOVWF  00
02958:  DECFSZ 00,F
0295A:  BRA    2958
....................    output_low(RTC_SCLK); 
0295C:  BCF    F95.1
0295E:  BCF    F8C.1
....................    write_ds1302(0x8e,0); 
02960:  MOVLW  8E
02962:  MOVLB  3
02964:  MOVWF  xD3
02966:  CLRF   xD4
02968:  MOVLB  0
0296A:  RCALL  28E4
....................    write_ds1302(0x90,0xa4); 
0296C:  MOVLW  90
0296E:  MOVLB  3
02970:  MOVWF  xD3
02972:  MOVLW  A4
02974:  MOVWF  xD4
02976:  MOVLB  0
02978:  RCALL  28E4
....................    x=read_ds1302(0x81); 
0297A:  MOVLW  81
0297C:  MOVLB  3
0297E:  MOVWF  xD0
02980:  MOVLB  0
02982:  RCALL  28FA
02984:  MOVFF  01,3CC
....................    if((x & 0x80)!=0) 
02988:  MOVLB  3
0298A:  MOVF   xCC,W
0298C:  ANDLW  80
0298E:  BZ    299C
....................      write_ds1302(0x80,0); 
02990:  MOVLW  80
02992:  MOVWF  xD3
02994:  CLRF   xD4
02996:  MOVLB  0
02998:  RCALL  28E4
0299A:  MOVLB  3
.................... } 
0299C:  MOVLB  0
0299E:  GOTO   57D4 (RETURN)
....................  
.................... byte get_bcd(BYTE data) 
.................... { 
....................    byte nibh; 
....................    byte nibl; 
....................  
....................    nibh=data/10; 
*
0486A:  MOVFF  3D2,3D6
0486E:  MOVLW  0A
04870:  MOVLB  3
04872:  MOVWF  xD7
04874:  MOVLB  0
04876:  RCALL  4390
04878:  MOVFF  01,3D3
....................    nibl=data-(nibh*10); 
0487C:  MOVLB  3
0487E:  MOVF   xD3,W
04880:  MULLW  0A
04882:  MOVF   FF3,W
04884:  SUBWF  xD2,W
04886:  MOVWF  xD4
....................  
....................    return((nibh<<4)|nibl); 
04888:  SWAPF  xD3,W
0488A:  MOVWF  00
0488C:  MOVLW  F0
0488E:  ANDWF  00,F
04890:  MOVF   00,W
04892:  IORWF  xD4,W
04894:  MOVWF  01
.................... } 
04896:  MOVLB  0
04898:  RETLW  00
....................  
.................... byte rm_bcd(BYTE data) 
.................... { 
....................    byte i; 
....................  
....................    i=data; 
*
04230:  MOVFF  3D1,3D2
....................    data=(i>>4)*10; 
04234:  MOVLB  3
04236:  SWAPF  xD2,W
04238:  MOVWF  00
0423A:  MOVLW  0F
0423C:  ANDWF  00,F
0423E:  MOVF   00,W
04240:  MULLW  0A
04242:  MOVFF  FF3,3D1
....................    data=data+(i<<4>>4); 
04246:  SWAPF  xD2,W
04248:  MOVWF  00
0424A:  MOVLW  F0
0424C:  ANDWF  00,F
0424E:  MOVF   00,W
04250:  SWAPF  00,F
04252:  MOVLW  0F
04254:  ANDWF  00,F
04256:  MOVF   00,W
04258:  ADDWF  xD1,F
....................  
....................    return data; 
0425A:  MOVFF  3D1,01
.................... } 
0425E:  MOVLB  0
04260:  RETLW  00
....................  
.................... void rtc_set_datetime(BYTE day, BYTE mth, BYTE year, BYTE dow, BYTE hr, BYTE min) { 
....................  
....................    write_ds1302(0x86,get_bcd(day)); 
*
0489A:  MOVFF  3CC,3D2
0489E:  RCALL  486A
048A0:  MOVFF  01,3D2
048A4:  MOVLW  86
048A6:  MOVLB  3
048A8:  MOVWF  xD3
048AA:  MOVFF  01,3D4
048AE:  MOVLB  0
048B0:  CALL   28E4
....................    write_ds1302(0x88,get_bcd(mth)); 
048B4:  MOVFF  3CD,3D2
048B8:  RCALL  486A
048BA:  MOVFF  01,3D2
048BE:  MOVLW  88
048C0:  MOVLB  3
048C2:  MOVWF  xD3
048C4:  MOVFF  01,3D4
048C8:  MOVLB  0
048CA:  CALL   28E4
....................    write_ds1302(0x8c,get_bcd(year)); 
048CE:  MOVFF  3CE,3D2
048D2:  RCALL  486A
048D4:  MOVFF  01,3D2
048D8:  MOVLW  8C
048DA:  MOVLB  3
048DC:  MOVWF  xD3
048DE:  MOVFF  01,3D4
048E2:  MOVLB  0
048E4:  CALL   28E4
....................    write_ds1302(0x8a,get_bcd(dow)); 
048E8:  MOVFF  3CF,3D2
048EC:  RCALL  486A
048EE:  MOVFF  01,3D2
048F2:  MOVLW  8A
048F4:  MOVLB  3
048F6:  MOVWF  xD3
048F8:  MOVFF  01,3D4
048FC:  MOVLB  0
048FE:  CALL   28E4
....................    write_ds1302(0x84,get_bcd(hr)); 
04902:  MOVFF  3D0,3D2
04906:  RCALL  486A
04908:  MOVFF  01,3D2
0490C:  MOVLW  84
0490E:  MOVLB  3
04910:  MOVWF  xD3
04912:  MOVFF  01,3D4
04916:  MOVLB  0
04918:  CALL   28E4
....................    write_ds1302(0x82,get_bcd(min)); 
0491C:  MOVFF  3D1,3D2
04920:  RCALL  486A
04922:  MOVFF  01,3D2
04926:  MOVLW  82
04928:  MOVLB  3
0492A:  MOVWF  xD3
0492C:  MOVFF  01,3D4
04930:  MOVLB  0
04932:  CALL   28E4
....................    write_ds1302(0x80,get_bcd(0)); 
04936:  MOVLB  3
04938:  CLRF   xD2
0493A:  MOVLB  0
0493C:  RCALL  486A
0493E:  MOVFF  01,3D2
04942:  MOVLW  80
04944:  MOVLB  3
04946:  MOVWF  xD3
04948:  MOVFF  01,3D4
0494C:  MOVLB  0
0494E:  CALL   28E4
.................... } 
04952:  GOTO   87BC (RETURN)
....................  
.................... void rtc_get_date(BYTE& day, BYTE& mth, BYTE& year, BYTE& dow) { 
....................    day = rm_bcd(read_ds1302(0x87)); 
*
05A52:  MOVLW  87
05A54:  MOVLB  3
05A56:  MOVWF  xD0
05A58:  MOVLB  0
05A5A:  CALL   28FA
05A5E:  MOVFF  01,3CC
05A62:  MOVFF  01,3D1
05A66:  CALL   4230
05A6A:  MOVFF  01,374
....................    mth = rm_bcd(read_ds1302(0x89)); 
05A6E:  MOVLW  89
05A70:  MOVLB  3
05A72:  MOVWF  xD0
05A74:  MOVLB  0
05A76:  CALL   28FA
05A7A:  MOVFF  01,3CC
05A7E:  MOVFF  01,3D1
05A82:  CALL   4230
05A86:  MOVFF  01,373
....................    year = rm_bcd(read_ds1302(0x8d)); 
05A8A:  MOVLW  8D
05A8C:  MOVLB  3
05A8E:  MOVWF  xD0
05A90:  MOVLB  0
05A92:  CALL   28FA
05A96:  MOVFF  01,3CC
05A9A:  MOVFF  01,3D1
05A9E:  CALL   4230
05AA2:  MOVFF  01,372
....................    dow = rm_bcd(read_ds1302(0x8b)); 
05AA6:  MOVLW  8B
05AA8:  MOVLB  3
05AAA:  MOVWF  xD0
05AAC:  MOVLB  0
05AAE:  CALL   28FA
05AB2:  MOVFF  01,3CC
05AB6:  MOVFF  01,3D1
05ABA:  CALL   4230
05ABE:  MOVFF  01,378
.................... } 
....................  
.................... void rtc_get_time(BYTE& hr, BYTE& min, BYTE& sec) { 
....................    hr = rm_bcd(read_ds1302(0x85)); 
05AC2:  MOVLW  85
05AC4:  MOVLB  3
05AC6:  MOVWF  xD0
05AC8:  MOVLB  0
05ACA:  CALL   28FA
05ACE:  MOVFF  01,3CC
05AD2:  MOVFF  01,3D1
05AD6:  CALL   4230
05ADA:  MOVFF  01,375
....................    min = rm_bcd(read_ds1302(0x83)); 
05ADE:  MOVLW  83
05AE0:  MOVLB  3
05AE2:  MOVWF  xD0
05AE4:  MOVLB  0
05AE6:  CALL   28FA
05AEA:  MOVFF  01,3CC
05AEE:  MOVFF  01,3D1
05AF2:  CALL   4230
05AF6:  MOVFF  01,376
....................    sec = rm_bcd(read_ds1302(0x81)); 
05AFA:  MOVLW  81
05AFC:  MOVLB  3
05AFE:  MOVWF  xD0
05B00:  MOVLB  0
05B02:  CALL   28FA
05B06:  MOVFF  01,3CC
05B0A:  MOVFF  01,3D1
05B0E:  CALL   4230
05B12:  MOVFF  01,377
.................... } 
....................  
.................... void rtc_write_nvr(BYTE address, BYTE data) { 
....................    write_ds1302(address|0xc0,data); 
.................... } 
....................  
.................... BYTE rtc_read_nvr(BYTE address) { 
....................     return(read_ds1302(address|0xc1)); 
.................... } 
....................  
....................  
.................... #define   UP            !input(PIN_B0) 
.................... #define   DOWN          !input(PIN_B1) 
.................... #define   RIGHT         !input(PIN_B2) 
.................... #define   LEFT          !input(PIN_B3) 
....................  
.................... #define   DOOR          !input(PIN_B6) 
.................... #define   STOP          !input(PIN_B7) 
.................... #define   TERM          !input(PIN_B5) 
....................  
.................... #define   LOW           input(PIN_C1) 
.................... #define   HIG           input(PIN_C0) 
....................  
.................... #define   SSR_on           output_bit(PIN_C2,0) 
.................... #define   SSR_off          output_bit(PIN_C2,1) 
....................  
.................... #define   Buzzer_on        output_bit(PIN_D0,1) 
.................... #define   Buzzer_off       output_bit(PIN_D0,0) 
....................  
.................... #define   Desfogue_on      output_bit(PIN_D4,1) 
.................... #define   Desfogue_off     output_bit(PIN_D4,0) 
....................  
.................... #define   Vent_on          output_bit(PIN_D5,1) 
.................... #define   Vent_off         output_bit(PIN_D5,0) 
....................  
.................... #define   Paso_on          output_bit(PIN_D6,1) 
.................... #define   Paso_off         output_bit(PIN_D6,0) 
....................  
.................... #define OFF 0 
.................... #define ON  1 
.................... #define RX_BUFFER_SIZE  10 
.................... char Rx_Buffer[RX_BUFFER_SIZE+1]; 
.................... char Rx_Buffer2[RX_BUFFER_SIZE+1]; 
.................... char RX_Wr_Index=0; 
.................... char RX_Rd_Index=0; 
.................... char RX_Counter=0; 
....................  
.................... #define TX_BUFFER_SIZE  24 
.................... char Tx_Buffer[TX_BUFFER_SIZE+1]; 
.................... char TX_Wr_Index=0; 
.................... char TX_Counter=0; 
.................... //int1 RX_Buffer_Overflow=0; 
....................  
.................... //Comunicacion//------------------------ 
.................... byte SlaveA0Tx[0X20]; 
.................... byte dato=0;            //Contendr la informacin a enviar o recibir 
.................... byte direccion=0;       //Contendr la direccin del esclavo en el bus I2C 
.................... byte posicion=0;        //Contendr la posicin en el buffer de memoria del esclavo donde se almacenar o de donde se recuperar el dato 
....................  
.................... /* Tabla de Modulos, Primera Fila Ao Regular y el siguiente ao Bisiesto 
.................... E   F   M   A   M   J   J   A   S   O   N   D 
.................... 0   3   3   6   1   4   6   2   5   0   3   5 
.................... 0   3   4   0   2   5   0   3   6   1   4   6 
.................... */ 
.................... int8 Regular[12]={0,3,3,6,1,4,6,2,5,0,3,5}; 
.................... int8 Bisiesto[12]={0,3,4,0,2,5,0,3,6,1,4,6}; 
....................  
.................... //Alarmas//--------------------- 
.................... short AlarmaTiempoProlongado=OFF,AlarmaSobreTemperatura=OFF,AlarmaLlenado=OFF,AlarmaTermostato=OFF,AlarmaPuerta=OFF,AlarmaEmergencia=OFF,AlarmaCiclo=OFF; 
....................  
.................... //Banderas//-------------------- 
.................... short IniciaLlenado=OFF,CalderinLleno=OFF,IniciaCiclo=OFF,Esterilizando=OFF,Secando=OFF,SensadoNivel=OFF,Desfogando=OFF,DesfogueSuave=OFF; 
.................... short EstadoDesfogue=OFF,EstadoAgua=OFF,EstadoSSR=OFF,PruebaEstados=OFF,Ciclo=OFF,flagCalentando=OFF,flagEsterilizando=OFF; 
.................... short flagDesfogando=OFF,Op=OFF,Op2=OFF,Minutos=OFF,Segundos=OFF,GuardaEEPROM=OFF,EstadoPaso=OFF,EstadoBuzzer=OFF,flagAlarma=OFF; 
.................... short flagBuzzer=OFF,flagSilencio=OFF,Finalizo=OFF,AlarmaPresion=OFF,Libre=OFF,purga=OFF,entro=OFF; 
....................  
.................... //Tiempos//--------------------- 
.................... int16 TiempoCiclo=0,TiempoLlenado=0,TiempoSensadoNivel=0,Tp=0,Tc=0,tStop=0,tTermostato=0,tright=0; 
.................... signed int  Testerilizacion[5]={0,0,0,0,0};   // Tiempo transcurrido 
.................... signed int  Testerilizacionp[5]={0,0,0,0,0};   // Tiempo transcurrido 
.................... signed int  Tsecado[4]={0,0,0,0};   // Tiempo transcurrido 
.................... signed int  Tsecadop[4]={0,0,0,0};   // Tiempo transcurrido 
....................  
.................... //Control//------------------------ 
.................... float promedio[80]={0.0,0.0,0.0,0.0,0.0,0.0,0.0,0.0,0.0,0.0,0.0,0.0,0.0,0.0,0.0,0.0,0.0,0.0,0.0,0.0,0.0,0.0,0.0,0.0,0.0,0.0,0.0,0.0,0.0,0.0,0.0,0.0,0.0,0.0,0.0,0.0,0.0,0.0,0.0,0.0,0.0,0.0,0.0,0.0,0.0,0.0,0.0,0.0,0.0,0.0,0.0,0.0,0.0,0.0,0.0,0.0,0.0,0.0,0.0,0.0,0.0,0.0,0.0,0.0}; 
.................... float PromPresion[20]={0.0,0.0,0.0,0.0,0.0,0.0,0.0,0.0,0.0,0.0,0.0,0.0,0.0,0.0,0.0,0.0,0.0,0.0,0.0,0.0}; 
.................... float PromPresionp[20]={0.0,0.0,0.0,0.0,0.0,0.0,0.0,0.0,0.0,0.0,0.0,0.0,0.0,0.0,0.0,0.0,0.0,0.0,0.0,0.0}; 
.................... float Gain=141.6,RPT100=0.5,Temporal=0.0; 
.................... float R1=100,R10=6800; 
.................... float X[2]={0.0,0.0}; 
.................... float promediopresion=0.0,Aumento=0.0,promediopresionp=0.0; 
.................... int8 h=0,l=0,Ajuste=0,Ajusten=0,MediaMovil=20,TTrampa=0,PantallaPrincipal=0,TipoClave=0,Modulo=0,Digito=0; 
.................... float V0=0.0,Pt,Tciclo=10.0,Tpulso=0.0,error=0.0,Prom=0.0,Temperature=0.0,tmp=0.0,Ganancia=25.0,Ganancia2=20.0,desvio=1.0,tmp2=0.0; 
.................... float V1=0.0,Presion=0.0,V2=0.0,Presionp=0.0; 
.................... float Temperatura=0.0,K=0.0012858; 
.................... float a=0.0011,b=2.3302,c=-244.0723; 
.................... int8 Integral=0,Derivativo=0,CicloLibre=0; 
....................  
.................... //Varios//-------------------------------- 
.................... short desfoguelento=0,Lectura=0,Grafica=0; 
.................... short disp_Stop=0,flagTC=0,flagImprime=0,flagImprimir=0; 
.................... int8 Control=0,tiemporecta=0,Controlando=0,ActivaImpresion=1,timpresion=2,CalculoImpresion=0,Inicio=1,Dato_Exitoso=0,Dato2=0,z=0; 
.................... int8 Menu=0, MenuAnt=0,MenuAntt=240,i=0,CiclosL=0,CiclosH=0,CicloSeleccionado=0; 
.................... int8 Setpoint=0,Opcion=1,Opcion2=1,tiempo_esterilizacion=0,tiempo_secado=0,tiempoImpresion=0; 
.................... int16 tiempos=0,tiempos2=0,tiempos3=0,tiempoctrl=0,Nivel=0,tinicio=0,PresionCamara=0,PresionPreCamara=0,Ciclos=0,NivelSeleccionado=0; 
.................... signed int  Contrasena[4]={0,0,0,0};      // Contrasena de 4 digitos 
.................... signed int  Password[4]={0,0,0,0};        // Contrasena Almacenada de 4 digitos 
.................... int8 r=0,t=0,r22=0,t2=0,TiempoControl=0; 
.................... int8 y=0,ConteoBuzzer=0; 
.................... int16 t_exhaust=0,tbuzzer=0,tsilencio=0,tiempoAgua=0; 
.................... int8 Year=18,Mes=9,Dia=13,Hora=0,Minuto=0,Segundo=0,dow=0; 
.................... int8 YearTx=0,MesTx=0,DiaTx=0,HoraTx=0,MinutoTx=0,SegundoTx=0,dowTx=0,SetTime=0,Imprime=0; 
.................... signed int8 G1=0,G2=0,sg1=0,sg2=0; 
.................... int8 iconoGrande[15]={25,16,22,24,23,28,20,46}; 
.................... int8 iconoPeque[15]={34,36,18,33,32,38,19,17}; 
.................... char const texto[9][20]={"LIQUIDOS A","CAUCHO","INSTRUMENTAL","LIQUIDOS B","LIBRE","TEST","HORA Y FECHA","CLAVE"}; 
....................  
.................... typedef struct{ 
....................    int8 Temperatura; 
....................    int8 MinutoestH; 
....................    int8 MinutoestL; 
....................    int8 Segundoest; 
....................    int8 Minutosec; 
....................    int8 Segundosec; 
....................    int8 PulsosVacio; 
....................    int8 NivelVacio; 
....................    int8 NivelDesfogue; 
....................    int8 Minutoest; 
.................... }Personalizado; 
....................  
.................... Personalizado CiclosPersonalizados[4]; 
....................  
.................... #include "Funciones.h" 
.................... void BorraBuffer(void){ 
.................... RX_Buffer[0]=0; 
*
04332:  CLRF   30
.................... RX_Buffer[1]=0; 
04334:  CLRF   31
.................... RX_Buffer[2]=0; 
04336:  CLRF   32
.................... RX_Buffer[3]=0; 
04338:  CLRF   33
.................... RX_Buffer[4]=0; 
0433A:  CLRF   34
.................... RX_Buffer[5]=0; 
0433C:  CLRF   35
.................... RX_Buffer[6]=0; 
0433E:  CLRF   36
.................... RX_Buffer[7]=0; 
04340:  CLRF   37
.................... RX_Buffer[8]=0; 
04342:  CLRF   38
.................... RX_Buffer[9]=0; 
04344:  CLRF   39
....................  
.................... RX_Buffer2[0]=0; 
04346:  CLRF   3B
.................... RX_Buffer2[1]=0; 
04348:  CLRF   3C
.................... RX_Buffer2[2]=0; 
0434A:  CLRF   3D
.................... RX_Buffer2[3]=0; 
0434C:  CLRF   3E
.................... RX_Buffer2[4]=0; 
0434E:  CLRF   3F
.................... RX_Buffer2[5]=0; 
04350:  CLRF   40
.................... RX_Buffer2[6]=0; 
04352:  CLRF   41
.................... RX_Buffer2[7]=0; 
04354:  CLRF   42
.................... RX_Buffer2[8]=0; 
04356:  CLRF   43
.................... RX_Buffer2[9]=0; 
04358:  CLRF   44
....................  
.................... } 
0435A:  GOTO   5B7A (RETURN)
....................  
.................... char bgetc(void){ 
....................    char c; 
....................    while(RX_Counter==0) 
....................       ; 
....................    c=Rx_Buffer2[RX_Rd_Index]; 
....................    if(++RX_Rd_Index>RX_BUFFER_SIZE) 
....................       RX_Rd_Index=0; 
....................    if(RX_Counter) 
....................       RX_Counter--; 
....................    return c; 
.................... } 
....................  
.................... void bputc(char c){ 
....................    char restart=0; 
....................    while(TX_Counter> (TX_BUFFER_SIZE-1)) 
....................       ; 
....................    if(TX_Counter==0) 
....................       restart=1; 
....................    TX_Buffer[TX_Wr_Index++]=c; 
....................    if(TX_Wr_Index>TX_BUFFER_SIZE) 
....................       TX_Wr_Index=0; 
....................     
....................    TX_Counter++; 
....................     
....................    if(restart==1) 
....................       enable_interrupts(int_tbe); 
.................... } 
....................  
.................... void SendDataDisplay(void){ 
.................... delay_us(10); 
*
034BA:  MOVLW  10
034BC:  MOVWF  00
034BE:  DECFSZ 00,F
034C0:  BRA    34BE
034C2:  NOP   
.................... putc(0xFF); 
034C4:  MOVLW  FF
034C6:  RCALL  34B2
.................... delay_us(10); 
034C8:  MOVLW  10
034CA:  MOVWF  00
034CC:  DECFSZ 00,F
034CE:  BRA    34CC
034D0:  NOP   
.................... putc(0xFF); 
034D2:  MOVLW  FF
034D4:  RCALL  34B2
.................... delay_us(10); 
034D6:  MOVLW  10
034D8:  MOVWF  00
034DA:  DECFSZ 00,F
034DC:  BRA    34DA
034DE:  NOP   
.................... putc(0xFF); 
034E0:  MOVLW  FF
034E2:  RCALL  34B2
.................... delay_us(10); 
034E4:  MOVLW  10
034E6:  MOVWF  00
034E8:  DECFSZ 00,F
034EA:  BRA    34E8
034EC:  NOP   
.................... } 
034EE:  RETLW  00
....................  
.................... short esBisiesto(int8 year) { 
....................      return ((year % 4 == 0 && year % 100 != 0) || year % 400 == 0); 
*
04818:  MOVLB  3
0481A:  MOVF   xCC,W
0481C:  ANDLW  03
0481E:  BNZ   4832
04820:  MOVFF  3CC,3D6
04824:  MOVLW  64
04826:  MOVWF  xD7
04828:  MOVLB  0
0482A:  RCALL  4390
0482C:  MOVF   00,F
0482E:  BNZ   4860
04830:  MOVLB  3
04832:  CLRF   xCE
04834:  MOVFF  3CC,3CD
04838:  MOVLW  01
0483A:  MOVWF  xD0
0483C:  MOVLW  90
0483E:  MOVWF  xCF
04840:  MOVLB  0
04842:  BRA    47D0
04844:  MOVFF  00,3CD
04848:  MOVLB  3
0484A:  MOVFF  03,3CE
0484E:  MOVF   xCD,F
04850:  BNZ   485C
04852:  MOVF   xCE,F
04854:  BTFSS  FD8.2
04856:  BRA    485C
04858:  MOVLB  0
0485A:  BRA    4860
0485C:  MOVLW  00
0485E:  BRA    4864
04860:  MOVLW  01
04862:  MOVLB  3
04864:  MOVWF  01
.................... } 
04866:  MOVLB  0
04868:  RETLW  00
....................  
.................... void LimitaDia(){ 
....................    if(MesTx>12) 
*
04956:  MOVLB  3
04958:  MOVF   x7A,W
0495A:  SUBLW  0C
0495C:  BC    4962
....................       MesTx=10; 
0495E:  MOVLW  0A
04960:  MOVWF  x7A
....................    if(DiaTx>31) 
04962:  MOVF   x7B,W
04964:  SUBLW  1F
04966:  BC    496C
....................       DiaTx=16; 
04968:  MOVLW  10
0496A:  MOVWF  x7B
....................    if(YearTx>99) 
0496C:  MOVF   x79,W
0496E:  SUBLW  63
04970:  BC    4976
....................       YearTx=18;    
04972:  MOVLW  12
04974:  MOVWF  x79
....................    if(HoraTx>24) 
04976:  MOVF   x7C,W
04978:  SUBLW  18
0497A:  BC    4980
....................       HoraTx=11;       
0497C:  MOVLW  0B
0497E:  MOVWF  x7C
....................    if(MinutoTx>59) 
04980:  MOVF   x7D,W
04982:  SUBLW  3B
04984:  BC    498A
....................       MinutoTx=30;       
04986:  MOVLW  1E
04988:  MOVWF  x7D
....................     
....................       if(MesTx==2){ 
0498A:  MOVF   x7A,W
0498C:  SUBLW  02
0498E:  BNZ   49BA
....................          if(esBisiesto(YearTx)){ 
04990:  MOVFF  379,3CC
04994:  MOVLB  0
04996:  RCALL  4818
04998:  MOVF   01,F
0499A:  BZ    49AC
....................             if(DiaTx>29){ 
0499C:  MOVLB  3
0499E:  MOVF   x7B,W
049A0:  SUBLW  1D
049A2:  BC    49A8
....................                DiaTx=29; 
049A4:  MOVLW  1D
049A6:  MOVWF  x7B
....................                //glcd_fillScreen(OFF); 
....................             } 
....................          }else{ 
049A8:  BRA    49B8
049AA:  MOVLB  0
....................             if(DiaTx>28){ 
049AC:  MOVLB  3
049AE:  MOVF   x7B,W
049B0:  SUBLW  1C
049B2:  BC    49B8
....................                DiaTx=28; 
049B4:  MOVLW  1C
049B6:  MOVWF  x7B
....................                //glcd_fillScreen(OFF); 
....................             } 
....................          } 
....................       }else{ 
049B8:  BRA    49E4
....................          if(MesTx<=7){ 
049BA:  MOVF   x7A,W
049BC:  SUBLW  07
049BE:  BNC   49D2
....................             if(MesTx % 2 ==0){ 
049C0:  MOVF   x7A,W
049C2:  ANDLW  01
049C4:  BNZ   49D0
....................                if(DiaTx>30){ 
049C6:  MOVF   x7B,W
049C8:  SUBLW  1E
049CA:  BC    49D0
....................                   DiaTx=30;  
049CC:  MOVLW  1E
049CE:  MOVWF  x7B
....................                   //glcd_fillScreen(OFF); 
....................                } 
....................             } 
....................          }else{ 
049D0:  BRA    49E4
....................             if(MesTx % 2 ==1){ 
049D2:  MOVF   x7A,W
049D4:  ANDLW  01
049D6:  SUBLW  01
049D8:  BNZ   49E4
....................                if(DiaTx>30){ 
049DA:  MOVF   x7B,W
049DC:  SUBLW  1E
049DE:  BC    49E4
....................                   DiaTx=30;  
049E0:  MOVLW  1E
049E2:  MOVWF  x7B
....................                   //glcd_fillScreen(OFF); 
....................                } 
....................             } 
....................          } 
....................       } 
.................... } 
049E4:  MOVLB  0
049E6:  GOTO   8A58 (RETURN)
....................  
.................... void ActualizaRecta(){ 
....................    X[y]=Temperature; 
*
04A18:  MOVLB  3
04A1A:  MOVF   x68,W
04A1C:  MULLW  04
04A1E:  MOVF   FF3,W
04A20:  CLRF   03
04A22:  ADDLW  BA
04A24:  MOVWF  FE9
04A26:  MOVLW  02
04A28:  ADDWFC 03,W
04A2A:  MOVWF  FEA
04A2C:  MOVFF  2F0,FEF
04A30:  MOVFF  2F1,FEC
04A34:  MOVFF  2F2,FEC
04A38:  MOVFF  2F3,FEC
....................    y++; 
04A3C:  INCF   x68,F
....................    if(y>=2) 
04A3E:  MOVF   x68,W
04A40:  SUBLW  01
04A42:  BC    4A80
....................    { 
....................       y=0; 
04A44:  CLRF   x68
....................       Aumento=X[1]-X[0]; 
04A46:  BSF    FD8.1
04A48:  MOVFF  2C1,3E4
04A4C:  MOVFF  2C0,3E3
04A50:  MOVFF  2BF,3E2
04A54:  MOVFF  2BE,3E1
04A58:  MOVFF  2BD,3E8
04A5C:  MOVFF  2BC,3E7
04A60:  MOVFF  2BB,3E6
04A64:  MOVFF  2BA,3E5
04A68:  MOVLB  0
04A6A:  CALL   1958
04A6E:  MOVFF  03,2C9
04A72:  MOVFF  02,2C8
04A76:  MOVFF  01,2C7
04A7A:  MOVFF  00,2C6
04A7E:  MOVLB  3
....................    } 
.................... } 
04A80:  MOVLB  0
04A82:  GOTO   4AFE (RETURN)
....................  
.................... // Funcion para conversor analogo-digital 
.................... float sensores(int x){ 
.................... float y;set_adc_channel(x);delay_ms(1);y=read_adc();return (y); 
*
03508:  MOVLB  3
0350A:  RLCF   xCD,W
0350C:  MOVWF  00
0350E:  RLCF   00,F
03510:  MOVLW  FC
03512:  ANDWF  00,F
03514:  MOVFF  00,01
03518:  MOVF   FC2,W
0351A:  ANDLW  C3
0351C:  IORWF  00,W
0351E:  MOVWF  FC2
03520:  MOVLW  01
03522:  MOVWF  xE1
03524:  MOVLB  0
03526:  CALL   179C
0352A:  BSF    FC2.1
0352C:  BTFSC  FC2.1
0352E:  BRA    352C
03530:  MOVFF  FC4,3E2
03534:  MOVFF  FC3,3E1
03538:  MOVLB  0
0353A:  CALL   17C4
0353E:  MOVFF  03,3D1
03542:  MOVFF  02,3D0
03546:  MOVFF  01,3CF
0354A:  MOVFF  00,3CE
0354E:  MOVFF  3CE,00
03552:  MOVFF  3CF,01
03556:  MOVFF  3D0,02
0355A:  MOVFF  3D1,03
.................... } 
0355E:  RETLW  00
.................... float LeerPT100(int media) 
.................... { 
....................    Prom=0.0; 
*
03678:  MOVLB  2
0367A:  CLRF   xEF
0367C:  CLRF   xEE
0367E:  CLRF   xED
03680:  CLRF   xEC
....................    V0 = sensores(0);   //Lectura de Divisor de Voltaje de PT100 con resistencia de 6.18k (+-2%) 
03682:  MOVLB  3
03684:  CLRF   xCD
03686:  MOVLB  0
03688:  RCALL  3508
0368A:  MOVFF  03,2DB
0368E:  MOVFF  02,2DA
03692:  MOVFF  01,2D9
03696:  MOVFF  00,2D8
....................    V0 = V0/108.0; // Se elimina la ganancia 
0369A:  MOVFF  2DB,3D4
0369E:  MOVFF  2DA,3D3
036A2:  MOVFF  2D9,3D2
036A6:  MOVFF  2D8,3D1
036AA:  MOVLB  3
036AC:  CLRF   xD8
036AE:  CLRF   xD7
036B0:  MOVLW  58
036B2:  MOVWF  xD6
036B4:  MOVLW  85
036B6:  MOVWF  xD5
036B8:  MOVLB  0
036BA:  CALL   17FA
036BE:  MOVFF  03,2DB
036C2:  MOVFF  02,2DA
036C6:  MOVFF  01,2D9
036CA:  MOVFF  00,2D8
....................    //V0 += 14.82; 
....................    V0 += 14.97; 
036CE:  BCF    FD8.1
036D0:  MOVFF  2DB,3E4
036D4:  MOVFF  2DA,3E3
036D8:  MOVFF  2D9,3E2
036DC:  MOVFF  2D8,3E1
036E0:  MOVLW  1F
036E2:  MOVLB  3
036E4:  MOVWF  xE8
036E6:  MOVLW  85
036E8:  MOVWF  xE7
036EA:  MOVLW  6F
036EC:  MOVWF  xE6
036EE:  MOVLW  82
036F0:  MOVWF  xE5
036F2:  MOVLB  0
036F4:  CALL   1958
036F8:  MOVFF  03,2DB
036FC:  MOVFF  02,2DA
03700:  MOVFF  01,2D9
03704:  MOVFF  00,2D8
....................    Pt=R10/((1023/V0)-1); 
03708:  MOVLB  3
0370A:  CLRF   xD4
0370C:  MOVLW  C0
0370E:  MOVWF  xD3
03710:  MOVLW  7F
03712:  MOVWF  xD2
03714:  MOVLW  88
03716:  MOVWF  xD1
03718:  MOVFF  2DB,3D8
0371C:  MOVFF  2DA,3D7
03720:  MOVFF  2D9,3D6
03724:  MOVFF  2D8,3D5
03728:  MOVLB  0
0372A:  CALL   17FA
0372E:  MOVFF  00,3CD
03732:  MOVFF  01,3CE
03736:  MOVFF  02,3CF
0373A:  MOVFF  03,3D0
0373E:  BSF    FD8.1
03740:  MOVFF  03,3E4
03744:  MOVFF  02,3E3
03748:  MOVFF  01,3E2
0374C:  MOVFF  00,3E1
03750:  MOVLB  3
03752:  CLRF   xE8
03754:  CLRF   xE7
03756:  CLRF   xE6
03758:  MOVLW  7F
0375A:  MOVWF  xE5
0375C:  MOVLB  0
0375E:  CALL   1958
03762:  MOVFF  2B9,3D4
03766:  MOVFF  2B8,3D3
0376A:  MOVFF  2B7,3D2
0376E:  MOVFF  2B6,3D1
03772:  MOVFF  03,3D8
03776:  MOVFF  02,3D7
0377A:  MOVFF  01,3D6
0377E:  MOVFF  00,3D5
03782:  CALL   17FA
03786:  MOVFF  03,2DF
0378A:  MOVFF  02,2DE
0378E:  MOVFF  01,2DD
03792:  MOVFF  00,2DC
....................              
....................    if(l>(media-1)) 
03796:  MOVLW  01
03798:  MOVLB  3
0379A:  SUBWF  xCC,W
0379C:  MOVLB  2
0379E:  SUBWF  xCF,W
037A0:  BZ    37A6
037A2:  BNC   37A6
....................    {l=0;} 
037A4:  CLRF   xCF
....................    //promedio[l]=Temperature;l++; 
....................    promedio[l]=Pt;l++; 
037A6:  MOVLB  3
037A8:  CLRF   xCE
037AA:  MOVFF  2CF,3CD
037AE:  CLRF   xD0
037B0:  MOVLW  04
037B2:  MOVWF  xCF
037B4:  MOVLB  0
037B6:  RCALL  3560
037B8:  MOVF   01,W
037BA:  ADDLW  C6
037BC:  MOVWF  FE9
037BE:  MOVLW  00
037C0:  ADDWFC 02,W
037C2:  MOVWF  FEA
037C4:  MOVFF  2DC,FEF
037C8:  MOVFF  2DD,FEC
037CC:  MOVFF  2DE,FEC
037D0:  MOVFF  2DF,FEC
037D4:  MOVLB  2
037D6:  INCF   xCF,F
....................           
....................    for(h=0;h<media;h++) 
037D8:  CLRF   xCE
037DA:  MOVLB  3
037DC:  MOVF   xCC,W
037DE:  MOVLB  2
037E0:  SUBWF  xCE,W
037E2:  BC    3862
....................    { 
....................       Prom+=promedio[h]; 
037E4:  MOVLB  3
037E6:  CLRF   xCE
037E8:  MOVFF  2CE,3CD
037EC:  CLRF   xD0
037EE:  MOVLW  04
037F0:  MOVWF  xCF
037F2:  MOVLB  0
037F4:  RCALL  3560
037F6:  MOVFF  02,03
037FA:  MOVF   01,W
037FC:  ADDLW  C6
037FE:  MOVWF  FE9
03800:  MOVLW  00
03802:  ADDWFC 02,W
03804:  MOVWF  FEA
03806:  MOVFF  FEF,00
0380A:  MOVFF  FEC,01
0380E:  MOVFF  FEC,02
03812:  MOVFF  FEC,03
03816:  MOVFF  FEA,3CE
0381A:  MOVFF  FE9,3CD
0381E:  BCF    FD8.1
03820:  MOVFF  2EF,3E4
03824:  MOVFF  2EE,3E3
03828:  MOVFF  2ED,3E2
0382C:  MOVFF  2EC,3E1
03830:  MOVFF  03,3E8
03834:  MOVFF  02,3E7
03838:  MOVFF  01,3E6
0383C:  MOVFF  00,3E5
03840:  CALL   1958
03844:  MOVFF  3CE,FEA
03848:  MOVFF  3CD,FE9
0384C:  MOVFF  03,2EF
03850:  MOVFF  02,2EE
03854:  MOVFF  01,2ED
03858:  MOVFF  00,2EC
....................    }  
0385C:  MOVLB  2
0385E:  INCF   xCE,F
03860:  BRA    37DA
....................    Prom=Prom/media;    
03862:  MOVLB  3
03864:  CLRF   xE2
03866:  MOVFF  3CC,3E1
0386A:  MOVLB  0
0386C:  CALL   17C4
03870:  MOVFF  2EF,3D4
03874:  MOVFF  2EE,3D3
03878:  MOVFF  2ED,3D2
0387C:  MOVFF  2EC,3D1
03880:  MOVFF  03,3D8
03884:  MOVFF  02,3D7
03888:  MOVFF  01,3D6
0388C:  MOVFF  00,3D5
03890:  CALL   17FA
03894:  MOVFF  03,2EF
03898:  MOVFF  02,2EE
0389C:  MOVFF  01,2ED
038A0:  MOVFF  00,2EC
....................    //Temperature=(Prom-100.0)/(0.385);  // Ecuacin determinada por linealizacin en Matlab. Revisar este polinomio.   
....................    Temperature=((Prom*Prom)*a)+(Prom*b)+c;  // Ecuacin determinada por linealizacin en Matlab. Revisar este polinomio. 
038A4:  MOVFF  2EF,3E8
038A8:  MOVFF  2EE,3E7
038AC:  MOVFF  2ED,3E6
038B0:  MOVFF  2EC,3E5
038B4:  MOVFF  2EF,3EC
038B8:  MOVFF  2EE,3EB
038BC:  MOVFF  2ED,3EA
038C0:  MOVFF  2EC,3E9
038C4:  RCALL  3582
038C6:  MOVFF  00,3CD
038CA:  MOVFF  01,3CE
038CE:  MOVFF  02,3CF
038D2:  MOVFF  03,3D0
038D6:  MOVFF  03,3E8
038DA:  MOVFF  02,3E7
038DE:  MOVFF  01,3E6
038E2:  MOVFF  00,3E5
038E6:  MOVFF  323,3EC
038EA:  MOVFF  322,3EB
038EE:  MOVFF  321,3EA
038F2:  MOVFF  320,3E9
038F6:  RCALL  3582
038F8:  MOVFF  00,3CD
038FC:  MOVFF  01,3CE
03900:  MOVFF  02,3CF
03904:  MOVFF  03,3D0
03908:  MOVFF  2EF,3E8
0390C:  MOVFF  2EE,3E7
03910:  MOVFF  2ED,3E6
03914:  MOVFF  2EC,3E5
03918:  MOVFF  327,3EC
0391C:  MOVFF  326,3EB
03920:  MOVFF  325,3EA
03924:  MOVFF  324,3E9
03928:  RCALL  3582
0392A:  BCF    FD8.1
0392C:  MOVFF  3D0,3E4
03930:  MOVFF  3CF,3E3
03934:  MOVFF  3CE,3E2
03938:  MOVFF  3CD,3E1
0393C:  MOVFF  03,3E8
03940:  MOVFF  02,3E7
03944:  MOVFF  01,3E6
03948:  MOVFF  00,3E5
0394C:  CALL   1958
03950:  MOVFF  00,3CD
03954:  MOVFF  01,3CE
03958:  MOVFF  02,3CF
0395C:  MOVFF  03,3D0
03960:  BCF    FD8.1
03962:  MOVFF  03,3E4
03966:  MOVFF  02,3E3
0396A:  MOVFF  01,3E2
0396E:  MOVFF  00,3E1
03972:  MOVFF  32B,3E8
03976:  MOVFF  32A,3E7
0397A:  MOVFF  329,3E6
0397E:  MOVFF  328,3E5
03982:  CALL   1958
03986:  MOVFF  03,2F3
0398A:  MOVFF  02,2F2
0398E:  MOVFF  01,2F1
03992:  MOVFF  00,2F0
....................    Temperature+=((float)Ajuste-(float)Ajusten); 
03996:  MOVLB  3
03998:  CLRF   xE2
0399A:  MOVFF  2D0,3E1
0399E:  MOVLB  0
039A0:  CALL   17C4
039A4:  MOVFF  00,3CD
039A8:  MOVFF  01,3CE
039AC:  MOVFF  02,3CF
039B0:  MOVFF  03,3D0
039B4:  MOVLB  3
039B6:  CLRF   xE2
039B8:  MOVFF  2D1,3E1
039BC:  MOVLB  0
039BE:  CALL   17C4
039C2:  BSF    FD8.1
039C4:  MOVFF  3D0,3E4
039C8:  MOVFF  3CF,3E3
039CC:  MOVFF  3CE,3E2
039D0:  MOVFF  3CD,3E1
039D4:  MOVFF  03,3E8
039D8:  MOVFF  02,3E7
039DC:  MOVFF  01,3E6
039E0:  MOVFF  00,3E5
039E4:  CALL   1958
039E8:  BCF    FD8.1
039EA:  MOVFF  2F3,3E4
039EE:  MOVFF  2F2,3E3
039F2:  MOVFF  2F1,3E2
039F6:  MOVFF  2F0,3E1
039FA:  MOVFF  03,3E8
039FE:  MOVFF  02,3E7
03A02:  MOVFF  01,3E6
03A06:  MOVFF  00,3E5
03A0A:  CALL   1958
03A0E:  MOVFF  03,2F3
03A12:  MOVFF  02,2F2
03A16:  MOVFF  01,2F1
03A1A:  MOVFF  00,2F0
....................    //Temperature-=39.0; 
....................     
....................    //return Prom; 
....................    return Temperature; 
03A1E:  MOVFF  2F0,00
03A22:  MOVFF  2F1,01
03A26:  MOVFF  2F2,02
03A2A:  MOVFF  2F3,03
.................... } 
03A2E:  RETLW  00
....................  
.................... float Leer_Sensor_Presion_Camara(int media){ 
....................    promediopresion=0.0; 
*
03E40:  MOVLB  2
03E42:  CLRF   xC5
03E44:  CLRF   xC4
03E46:  CLRF   xC3
03E48:  CLRF   xC2
....................    V1 = sensores(2);   //Lectura de Divisor de Voltaje de PT100 con resistencia de 1k (+-10%) 
03E4A:  MOVLW  02
03E4C:  MOVLB  3
03E4E:  MOVWF  xCD
03E50:  MOVLB  0
03E52:  CALL   3508
03E56:  MOVFF  03,30B
03E5A:  MOVFF  02,30A
03E5E:  MOVFF  01,309
03E62:  MOVFF  00,308
....................    //V1 = V1*(5.0/1024.0); 
....................    //Presion=(V1-0.2)/(K); 
....................    Presion=(((V1)/1023)-0.04)/K; 
03E66:  MOVFF  30B,3D4
03E6A:  MOVFF  30A,3D3
03E6E:  MOVFF  309,3D2
03E72:  MOVFF  308,3D1
03E76:  MOVLB  3
03E78:  CLRF   xD8
03E7A:  MOVLW  C0
03E7C:  MOVWF  xD7
03E7E:  MOVLW  7F
03E80:  MOVWF  xD6
03E82:  MOVLW  88
03E84:  MOVWF  xD5
03E86:  MOVLB  0
03E88:  CALL   17FA
03E8C:  MOVFF  00,3CD
03E90:  MOVFF  01,3CE
03E94:  MOVFF  02,3CF
03E98:  MOVFF  03,3D0
03E9C:  BSF    FD8.1
03E9E:  MOVFF  03,3E4
03EA2:  MOVFF  02,3E3
03EA6:  MOVFF  01,3E2
03EAA:  MOVFF  00,3E1
03EAE:  MOVLW  0A
03EB0:  MOVLB  3
03EB2:  MOVWF  xE8
03EB4:  MOVLW  D7
03EB6:  MOVWF  xE7
03EB8:  MOVLW  23
03EBA:  MOVWF  xE6
03EBC:  MOVLW  7A
03EBE:  MOVWF  xE5
03EC0:  MOVLB  0
03EC2:  CALL   1958
03EC6:  MOVFF  00,3CD
03ECA:  MOVFF  01,3CE
03ECE:  MOVFF  02,3CF
03ED2:  MOVFF  03,3D0
03ED6:  MOVFF  03,3D4
03EDA:  MOVFF  02,3D3
03EDE:  MOVFF  01,3D2
03EE2:  MOVFF  00,3D1
03EE6:  MOVFF  31F,3D8
03EEA:  MOVFF  31E,3D7
03EEE:  MOVFF  31D,3D6
03EF2:  MOVFF  31C,3D5
03EF6:  CALL   17FA
03EFA:  MOVFF  03,30F
03EFE:  MOVFF  02,30E
03F02:  MOVFF  01,30D
03F06:  MOVFF  00,30C
....................     
....................    if(Presion<0.0) 
03F0A:  MOVFF  30F,3D3
03F0E:  MOVFF  30E,3D2
03F12:  MOVFF  30D,3D1
03F16:  MOVFF  30C,3D0
03F1A:  MOVLB  3
03F1C:  CLRF   xD7
03F1E:  CLRF   xD6
03F20:  CLRF   xD5
03F22:  CLRF   xD4
03F24:  MOVLB  0
03F26:  CALL   29A2
03F2A:  BNC   3F36
....................    { 
....................       Presion=0.0; 
03F2C:  MOVLB  3
03F2E:  CLRF   x0F
03F30:  CLRF   x0E
03F32:  CLRF   x0D
03F34:  CLRF   x0C
....................    } 
....................     
....................    if(r>media-1) 
03F36:  MOVLW  01
03F38:  MOVLB  3
03F3A:  SUBWF  xCC,W
03F3C:  SUBWF  x63,W
03F3E:  BZ    3F44
03F40:  BNC   3F44
....................    {r=0;} 
03F42:  CLRF   x63
....................    PromPresion[r]=Presion;r++; 
03F44:  MOVF   x63,W
03F46:  MULLW  04
03F48:  MOVF   FF3,W
03F4A:  CLRF   03
03F4C:  ADDLW  06
03F4E:  MOVWF  FE9
03F50:  MOVLW  02
03F52:  ADDWFC 03,W
03F54:  MOVWF  FEA
03F56:  MOVFF  30C,FEF
03F5A:  MOVFF  30D,FEC
03F5E:  MOVFF  30E,FEC
03F62:  MOVFF  30F,FEC
03F66:  INCF   x63,F
....................           
....................    for(t=0;t<=(media-1);t++) 
03F68:  CLRF   x64
03F6A:  MOVLW  01
03F6C:  SUBWF  xCC,W
03F6E:  SUBWF  x64,W
03F70:  BZ    3F74
03F72:  BC    3FE4
....................    { 
....................       promediopresion+=PromPresion[t]; 
03F74:  MOVF   x64,W
03F76:  MULLW  04
03F78:  MOVF   FF3,W
03F7A:  CLRF   03
03F7C:  ADDLW  06
03F7E:  MOVWF  FE9
03F80:  MOVLW  02
03F82:  ADDWFC 03,W
03F84:  MOVWF  FEA
03F86:  MOVFF  FEF,00
03F8A:  MOVFF  FEC,01
03F8E:  MOVFF  FEC,02
03F92:  MOVFF  FEC,03
03F96:  MOVFF  FEA,3CE
03F9A:  MOVFF  FE9,3CD
03F9E:  BCF    FD8.1
03FA0:  MOVFF  2C5,3E4
03FA4:  MOVFF  2C4,3E3
03FA8:  MOVFF  2C3,3E2
03FAC:  MOVFF  2C2,3E1
03FB0:  MOVFF  03,3E8
03FB4:  MOVFF  02,3E7
03FB8:  MOVFF  01,3E6
03FBC:  MOVFF  00,3E5
03FC0:  MOVLB  0
03FC2:  CALL   1958
03FC6:  MOVFF  3CE,FEA
03FCA:  MOVFF  3CD,FE9
03FCE:  MOVFF  03,2C5
03FD2:  MOVFF  02,2C4
03FD6:  MOVFF  01,2C3
03FDA:  MOVFF  00,2C2
....................    }  
03FDE:  MOVLB  3
03FE0:  INCF   x64,F
03FE2:  BRA    3F6A
....................    promediopresion=promediopresion/media;    
03FE4:  CLRF   xE2
03FE6:  MOVFF  3CC,3E1
03FEA:  MOVLB  0
03FEC:  CALL   17C4
03FF0:  MOVFF  2C5,3D4
03FF4:  MOVFF  2C4,3D3
03FF8:  MOVFF  2C3,3D2
03FFC:  MOVFF  2C2,3D1
04000:  MOVFF  03,3D8
04004:  MOVFF  02,3D7
04008:  MOVFF  01,3D6
0400C:  MOVFF  00,3D5
04010:  CALL   17FA
04014:  MOVFF  03,2C5
04018:  MOVFF  02,2C4
0401C:  MOVFF  01,2C3
04020:  MOVFF  00,2C2
....................     
....................    return promediopresion; 
04024:  MOVFF  2C2,00
04028:  MOVFF  2C3,01
0402C:  MOVFF  2C4,02
04030:  MOVFF  2C5,03
.................... } 
04034:  GOTO   5A0E (RETURN)
....................  
.................... float Leer_Sensor_Presion_PreCamara(int media){ 
....................    promediopresionp=0.0; 
04038:  MOVLB  2
0403A:  CLRF   xCD
0403C:  CLRF   xCC
0403E:  CLRF   xCB
04040:  CLRF   xCA
....................    V2 = sensores(3);   //Lectura de Divisor de Voltaje de PT100 con resistencia de 1k (+-10%) 
04042:  MOVLW  03
04044:  MOVLB  3
04046:  MOVWF  xCD
04048:  MOVLB  0
0404A:  CALL   3508
0404E:  MOVFF  03,313
04052:  MOVFF  02,312
04056:  MOVFF  01,311
0405A:  MOVFF  00,310
....................    //V2 = V2*(5.0/1024.0); 
....................    //Presionp=(V2-0.2)/(K); 
....................    Presionp=(((V2)/1023)-0.04)/K; 
0405E:  MOVFF  313,3D4
04062:  MOVFF  312,3D3
04066:  MOVFF  311,3D2
0406A:  MOVFF  310,3D1
0406E:  MOVLB  3
04070:  CLRF   xD8
04072:  MOVLW  C0
04074:  MOVWF  xD7
04076:  MOVLW  7F
04078:  MOVWF  xD6
0407A:  MOVLW  88
0407C:  MOVWF  xD5
0407E:  MOVLB  0
04080:  CALL   17FA
04084:  MOVFF  00,3CD
04088:  MOVFF  01,3CE
0408C:  MOVFF  02,3CF
04090:  MOVFF  03,3D0
04094:  BSF    FD8.1
04096:  MOVFF  03,3E4
0409A:  MOVFF  02,3E3
0409E:  MOVFF  01,3E2
040A2:  MOVFF  00,3E1
040A6:  MOVLW  0A
040A8:  MOVLB  3
040AA:  MOVWF  xE8
040AC:  MOVLW  D7
040AE:  MOVWF  xE7
040B0:  MOVLW  23
040B2:  MOVWF  xE6
040B4:  MOVLW  7A
040B6:  MOVWF  xE5
040B8:  MOVLB  0
040BA:  CALL   1958
040BE:  MOVFF  00,3CD
040C2:  MOVFF  01,3CE
040C6:  MOVFF  02,3CF
040CA:  MOVFF  03,3D0
040CE:  MOVFF  03,3D4
040D2:  MOVFF  02,3D3
040D6:  MOVFF  01,3D2
040DA:  MOVFF  00,3D1
040DE:  MOVFF  31F,3D8
040E2:  MOVFF  31E,3D7
040E6:  MOVFF  31D,3D6
040EA:  MOVFF  31C,3D5
040EE:  CALL   17FA
040F2:  MOVFF  03,317
040F6:  MOVFF  02,316
040FA:  MOVFF  01,315
040FE:  MOVFF  00,314
....................     
....................    if(Presionp<0.0) 
04102:  MOVFF  317,3D3
04106:  MOVFF  316,3D2
0410A:  MOVFF  315,3D1
0410E:  MOVFF  314,3D0
04112:  MOVLB  3
04114:  CLRF   xD7
04116:  CLRF   xD6
04118:  CLRF   xD5
0411A:  CLRF   xD4
0411C:  MOVLB  0
0411E:  CALL   29A2
04122:  BNC   412E
....................    { 
....................       Presionp=0.0; 
04124:  MOVLB  3
04126:  CLRF   x17
04128:  CLRF   x16
0412A:  CLRF   x15
0412C:  CLRF   x14
....................    } 
....................     
....................    if(r22>media-1) 
0412E:  MOVLW  01
04130:  MOVLB  3
04132:  SUBWF  xCC,W
04134:  SUBWF  x65,W
04136:  BZ    413C
04138:  BNC   413C
....................    {r22=0;} 
0413A:  CLRF   x65
....................    PromPresionp[r22]=Presionp;r22++; 
0413C:  MOVF   x65,W
0413E:  MULLW  04
04140:  MOVF   FF3,W
04142:  CLRF   03
04144:  ADDLW  56
04146:  MOVWF  FE9
04148:  MOVLW  02
0414A:  ADDWFC 03,W
0414C:  MOVWF  FEA
0414E:  MOVFF  314,FEF
04152:  MOVFF  315,FEC
04156:  MOVFF  316,FEC
0415A:  MOVFF  317,FEC
0415E:  INCF   x65,F
....................           
....................    for(t2=0;t2<=(media-1);t2++) 
04160:  CLRF   x66
04162:  MOVLW  01
04164:  SUBWF  xCC,W
04166:  SUBWF  x66,W
04168:  BZ    416C
0416A:  BC    41DC
....................    { 
....................       promediopresionp+=PromPresionp[t2]; 
0416C:  MOVF   x66,W
0416E:  MULLW  04
04170:  MOVF   FF3,W
04172:  CLRF   03
04174:  ADDLW  56
04176:  MOVWF  FE9
04178:  MOVLW  02
0417A:  ADDWFC 03,W
0417C:  MOVWF  FEA
0417E:  MOVFF  FEF,00
04182:  MOVFF  FEC,01
04186:  MOVFF  FEC,02
0418A:  MOVFF  FEC,03
0418E:  MOVFF  FEA,3CE
04192:  MOVFF  FE9,3CD
04196:  BCF    FD8.1
04198:  MOVFF  2CD,3E4
0419C:  MOVFF  2CC,3E3
041A0:  MOVFF  2CB,3E2
041A4:  MOVFF  2CA,3E1
041A8:  MOVFF  03,3E8
041AC:  MOVFF  02,3E7
041B0:  MOVFF  01,3E6
041B4:  MOVFF  00,3E5
041B8:  MOVLB  0
041BA:  CALL   1958
041BE:  MOVFF  3CE,FEA
041C2:  MOVFF  3CD,FE9
041C6:  MOVFF  03,2CD
041CA:  MOVFF  02,2CC
041CE:  MOVFF  01,2CB
041D2:  MOVFF  00,2CA
....................    }  
041D6:  MOVLB  3
041D8:  INCF   x66,F
041DA:  BRA    4162
....................    promediopresionp=promediopresionp/media;    
041DC:  CLRF   xE2
041DE:  MOVFF  3CC,3E1
041E2:  MOVLB  0
041E4:  CALL   17C4
041E8:  MOVFF  2CD,3D4
041EC:  MOVFF  2CC,3D3
041F0:  MOVFF  2CB,3D2
041F4:  MOVFF  2CA,3D1
041F8:  MOVFF  03,3D8
041FC:  MOVFF  02,3D7
04200:  MOVFF  01,3D6
04204:  MOVFF  00,3D5
04208:  CALL   17FA
0420C:  MOVFF  03,2CD
04210:  MOVFF  02,2CC
04214:  MOVFF  01,2CB
04218:  MOVFF  00,2CA
....................     
....................    return promediopresionp; 
0421C:  MOVFF  2CA,00
04220:  MOVFF  2CB,01
04224:  MOVFF  2CC,02
04228:  MOVFF  2CD,03
.................... } 
0422C:  GOTO   5A36 (RETURN)
....................  
.................... void Controla(){ 
....................    if(tiemporecta>=Derivativo/2.0) 
*
04A86:  MOVLB  3
04A88:  CLRF   xE2
04A8A:  MOVFF  32D,3E1
04A8E:  MOVLB  0
04A90:  CALL   17C4
04A94:  MOVFF  03,3D4
04A98:  MOVFF  02,3D3
04A9C:  MOVFF  01,3D2
04AA0:  MOVFF  00,3D1
04AA4:  MOVLB  3
04AA6:  CLRF   xD8
04AA8:  CLRF   xD7
04AAA:  CLRF   xD6
04AAC:  MOVLW  80
04AAE:  MOVWF  xD5
04AB0:  MOVLB  0
04AB2:  CALL   17FA
04AB6:  MOVFF  00,3CC
04ABA:  MOVFF  01,3CD
04ABE:  MOVFF  02,3CE
04AC2:  MOVFF  03,3CF
04AC6:  MOVLB  3
04AC8:  CLRF   xE2
04ACA:  MOVFF  331,3E1
04ACE:  MOVLB  0
04AD0:  CALL   17C4
04AD4:  MOVFF  3CF,3D3
04AD8:  MOVFF  3CE,3D2
04ADC:  MOVFF  3CD,3D1
04AE0:  MOVFF  3CC,3D0
04AE4:  MOVFF  03,3D7
04AE8:  MOVFF  02,3D6
04AEC:  MOVFF  01,3D5
04AF0:  MOVFF  00,3D4
04AF4:  CALL   29A2
04AF8:  BC    4AFC
04AFA:  BNZ   4B02
....................    { 
....................       ActualizaRecta(); 
04AFC:  BRA    4A18
....................       tiemporecta=0; 
04AFE:  MOVLB  3
04B00:  CLRF   x31
....................    }  
.................... //-------------------------------Control de Calentamiento------------------------------------------------------------//          
....................    error=desvio+Setpoint-Temperatura;      // Clculo del error ****** 
04B02:  MOVLB  3
04B04:  CLRF   xE2
04B06:  MOVFF  341,3E1
04B0A:  MOVLB  0
04B0C:  CALL   17C4
04B10:  BCF    FD8.1
04B12:  MOVFF  303,3E4
04B16:  MOVFF  302,3E3
04B1A:  MOVFF  301,3E2
04B1E:  MOVFF  300,3E1
04B22:  MOVFF  03,3E8
04B26:  MOVFF  02,3E7
04B2A:  MOVFF  01,3E6
04B2E:  MOVFF  00,3E5
04B32:  CALL   1958
04B36:  MOVFF  00,3CC
04B3A:  MOVFF  01,3CD
04B3E:  MOVFF  02,3CE
04B42:  MOVFF  03,3CF
04B46:  BSF    FD8.1
04B48:  MOVFF  03,3E4
04B4C:  MOVFF  02,3E3
04B50:  MOVFF  01,3E2
04B54:  MOVFF  00,3E1
04B58:  MOVFF  31B,3E8
04B5C:  MOVFF  31A,3E7
04B60:  MOVFF  319,3E6
04B64:  MOVFF  318,3E5
04B68:  CALL   1958
04B6C:  MOVFF  03,2EB
04B70:  MOVFF  02,2EA
04B74:  MOVFF  01,2E9
04B78:  MOVFF  00,2E8
....................     
....................    if(error>1.0 && error<20 && Aumento<0.3) 
04B7C:  MOVLB  3
04B7E:  CLRF   xD3
04B80:  CLRF   xD2
04B82:  CLRF   xD1
04B84:  MOVLW  7F
04B86:  MOVWF  xD0
04B88:  MOVFF  2EB,3D7
04B8C:  MOVFF  2EA,3D6
04B90:  MOVFF  2E9,3D5
04B94:  MOVFF  2E8,3D4
04B98:  MOVLB  0
04B9A:  CALL   29A2
04B9E:  BTFSS  FD8.0
04BA0:  BRA    4DCA
04BA2:  MOVFF  2EB,3D3
04BA6:  MOVFF  2EA,3D2
04BAA:  MOVFF  2E9,3D1
04BAE:  MOVFF  2E8,3D0
04BB2:  MOVLB  3
04BB4:  CLRF   xD7
04BB6:  CLRF   xD6
04BB8:  MOVLW  20
04BBA:  MOVWF  xD5
04BBC:  MOVLW  83
04BBE:  MOVWF  xD4
04BC0:  MOVLB  0
04BC2:  CALL   29A2
04BC6:  BTFSS  FD8.0
04BC8:  BRA    4DCA
04BCA:  MOVFF  2C9,3D3
04BCE:  MOVFF  2C8,3D2
04BD2:  MOVFF  2C7,3D1
04BD6:  MOVFF  2C6,3D0
04BDA:  MOVLW  9A
04BDC:  MOVLB  3
04BDE:  MOVWF  xD7
04BE0:  MOVLW  99
04BE2:  MOVWF  xD6
04BE4:  MOVLW  19
04BE6:  MOVWF  xD5
04BE8:  MOVLW  7D
04BEA:  MOVWF  xD4
04BEC:  MOVLB  0
04BEE:  CALL   29A2
04BF2:  BTFSS  FD8.0
04BF4:  BRA    4DCA
....................    { 
....................       if(Tpulso<7.0) 
04BF6:  MOVFF  2E7,3D3
04BFA:  MOVFF  2E6,3D2
04BFE:  MOVFF  2E5,3D1
04C02:  MOVFF  2E4,3D0
04C06:  MOVLB  3
04C08:  CLRF   xD7
04C0A:  CLRF   xD6
04C0C:  MOVLW  60
04C0E:  MOVWF  xD5
04C10:  MOVLW  81
04C12:  MOVWF  xD4
04C14:  MOVLB  0
04C16:  CALL   29A2
04C1A:  BTFSS  FD8.0
04C1C:  BRA    4DC6
....................       { 
....................          flagTC=1; 
04C1E:  MOVLB  3
04C20:  BSF    x2F.2
....................          if(TiempoControl>=Derivativo) 
04C22:  MOVF   x2D,W
04C24:  SUBWF  x67,W
04C26:  BTFSS  FD8.0
04C28:  BRA    4DC2
....................          { 
....................             TiempoControl=0; 
04C2A:  CLRF   x67
....................             if(Aumento<-0.5){ 
04C2C:  MOVFF  2C9,3D3
04C30:  MOVFF  2C8,3D2
04C34:  MOVFF  2C7,3D1
04C38:  MOVFF  2C6,3D0
04C3C:  CLRF   xD7
04C3E:  CLRF   xD6
04C40:  MOVLW  80
04C42:  MOVWF  xD5
04C44:  MOVLW  7E
04C46:  MOVWF  xD4
04C48:  MOVLB  0
04C4A:  CALL   29A2
04C4E:  BNC   4CC0
....................                Ganancia+=Integral+0.2; 
04C50:  MOVLB  3
04C52:  CLRF   xE2
04C54:  MOVFF  32C,3E1
04C58:  MOVLB  0
04C5A:  CALL   17C4
04C5E:  BCF    FD8.1
04C60:  MOVFF  03,3E4
04C64:  MOVFF  02,3E3
04C68:  MOVFF  01,3E2
04C6C:  MOVFF  00,3E1
04C70:  MOVLW  CD
04C72:  MOVLB  3
04C74:  MOVWF  xE8
04C76:  MOVLW  CC
04C78:  MOVWF  xE7
04C7A:  MOVLW  4C
04C7C:  MOVWF  xE6
04C7E:  MOVLW  7C
04C80:  MOVWF  xE5
04C82:  MOVLB  0
04C84:  CALL   1958
04C88:  BCF    FD8.1
04C8A:  MOVFF  2FB,3E4
04C8E:  MOVFF  2FA,3E3
04C92:  MOVFF  2F9,3E2
04C96:  MOVFF  2F8,3E1
04C9A:  MOVFF  03,3E8
04C9E:  MOVFF  02,3E7
04CA2:  MOVFF  01,3E6
04CA6:  MOVFF  00,3E5
04CAA:  CALL   1958
04CAE:  MOVFF  03,2FB
04CB2:  MOVFF  02,2FA
04CB6:  MOVFF  01,2F9
04CBA:  MOVFF  00,2F8
....................             }else{ 
04CBE:  BRA    4DC0
....................                if(Aumento<-0.1){ 
04CC0:  MOVFF  2C9,3D3
04CC4:  MOVFF  2C8,3D2
04CC8:  MOVFF  2C7,3D1
04CCC:  MOVFF  2C6,3D0
04CD0:  MOVLW  CD
04CD2:  MOVLB  3
04CD4:  MOVWF  xD7
04CD6:  MOVLW  CC
04CD8:  MOVWF  xD6
04CDA:  MOVWF  xD5
04CDC:  MOVLW  7B
04CDE:  MOVWF  xD4
04CE0:  MOVLB  0
04CE2:  CALL   29A2
04CE6:  BNC   4D58
....................                   Ganancia+=Integral-0.2; 
04CE8:  MOVLB  3
04CEA:  CLRF   xE2
04CEC:  MOVFF  32C,3E1
04CF0:  MOVLB  0
04CF2:  CALL   17C4
04CF6:  BSF    FD8.1
04CF8:  MOVFF  03,3E4
04CFC:  MOVFF  02,3E3
04D00:  MOVFF  01,3E2
04D04:  MOVFF  00,3E1
04D08:  MOVLW  CD
04D0A:  MOVLB  3
04D0C:  MOVWF  xE8
04D0E:  MOVLW  CC
04D10:  MOVWF  xE7
04D12:  MOVLW  4C
04D14:  MOVWF  xE6
04D16:  MOVLW  7C
04D18:  MOVWF  xE5
04D1A:  MOVLB  0
04D1C:  CALL   1958
04D20:  BCF    FD8.1
04D22:  MOVFF  2FB,3E4
04D26:  MOVFF  2FA,3E3
04D2A:  MOVFF  2F9,3E2
04D2E:  MOVFF  2F8,3E1
04D32:  MOVFF  03,3E8
04D36:  MOVFF  02,3E7
04D3A:  MOVFF  01,3E6
04D3E:  MOVFF  00,3E5
04D42:  CALL   1958
04D46:  MOVFF  03,2FB
04D4A:  MOVFF  02,2FA
04D4E:  MOVFF  01,2F9
04D52:  MOVFF  00,2F8
....................                }else{ 
04D56:  BRA    4DC0
....................                   Ganancia+=Integral-0.5; 
04D58:  MOVLB  3
04D5A:  CLRF   xE2
04D5C:  MOVFF  32C,3E1
04D60:  MOVLB  0
04D62:  CALL   17C4
04D66:  BSF    FD8.1
04D68:  MOVFF  03,3E4
04D6C:  MOVFF  02,3E3
04D70:  MOVFF  01,3E2
04D74:  MOVFF  00,3E1
04D78:  MOVLB  3
04D7A:  CLRF   xE8
04D7C:  CLRF   xE7
04D7E:  CLRF   xE6
04D80:  MOVLW  7E
04D82:  MOVWF  xE5
04D84:  MOVLB  0
04D86:  CALL   1958
04D8A:  BCF    FD8.1
04D8C:  MOVFF  2FB,3E4
04D90:  MOVFF  2FA,3E3
04D94:  MOVFF  2F9,3E2
04D98:  MOVFF  2F8,3E1
04D9C:  MOVFF  03,3E8
04DA0:  MOVFF  02,3E7
04DA4:  MOVFF  01,3E6
04DA8:  MOVFF  00,3E5
04DAC:  CALL   1958
04DB0:  MOVFF  03,2FB
04DB4:  MOVFF  02,2FA
04DB8:  MOVFF  01,2F9
04DBC:  MOVFF  00,2F8
04DC0:  MOVLB  3
....................                } 
....................             } 
....................          } 
....................       }else{ 
04DC2:  BRA    4DCA
04DC4:  MOVLB  0
....................          flagTC=0; 
04DC6:  MOVLB  3
04DC8:  BCF    x2F.2
....................       } 
....................    } 
....................     
....................    if(error<-0.3) 
04DCA:  MOVFF  2EB,3D3
04DCE:  MOVFF  2EA,3D2
04DD2:  MOVFF  2E9,3D1
04DD6:  MOVFF  2E8,3D0
04DDA:  MOVLW  9A
04DDC:  MOVLB  3
04DDE:  MOVWF  xD7
04DE0:  MOVLW  99
04DE2:  MOVWF  xD6
04DE4:  MOVWF  xD5
04DE6:  MOVLW  7D
04DE8:  MOVWF  xD4
04DEA:  MOVLB  0
04DEC:  CALL   29A2
04DF0:  BNC   4E02
....................    { 
....................       Ganancia=Ganancia2; 
04DF2:  MOVFF  2FF,2FB
04DF6:  MOVFF  2FE,2FA
04DFA:  MOVFF  2FD,2F9
04DFE:  MOVFF  2FC,2F8
....................    } 
....................     
....................    if(Ganancia<1) 
04E02:  MOVFF  2FB,3D3
04E06:  MOVFF  2FA,3D2
04E0A:  MOVFF  2F9,3D1
04E0E:  MOVFF  2F8,3D0
04E12:  MOVLB  3
04E14:  CLRF   xD7
04E16:  CLRF   xD6
04E18:  CLRF   xD5
04E1A:  MOVLW  7F
04E1C:  MOVWF  xD4
04E1E:  MOVLB  0
04E20:  CALL   29A2
04E24:  BNC   4E32
....................    { 
....................       Ganancia=1; 
04E26:  MOVLB  2
04E28:  CLRF   xFB
04E2A:  CLRF   xFA
04E2C:  CLRF   xF9
04E2E:  MOVLW  7F
04E30:  MOVWF  xF8
....................    } 
....................     
....................    if(error<0.0)     // Anti Wind_DOWN     
04E32:  MOVFF  2EB,3D3
04E36:  MOVFF  2EA,3D2
04E3A:  MOVFF  2E9,3D1
04E3E:  MOVFF  2E8,3D0
04E42:  MOVLB  3
04E44:  CLRF   xD7
04E46:  CLRF   xD6
04E48:  CLRF   xD5
04E4A:  CLRF   xD4
04E4C:  MOVLB  0
04E4E:  CALL   29A2
04E52:  BNC   4E60
....................    { 
....................       error=0.0; 
04E54:  MOVLB  2
04E56:  CLRF   xEB
04E58:  CLRF   xEA
04E5A:  CLRF   xE9
04E5C:  CLRF   xE8
04E5E:  MOVLB  0
....................    } 
....................    //tmp=(Setpoint-Prom)*Ganancia;  // Control Proporcional. 
....................    tmp=error*Ganancia;  // Control Proporcional. 
04E60:  MOVFF  2EB,3E8
04E64:  MOVFF  2EA,3E7
04E68:  MOVFF  2E9,3E6
04E6C:  MOVFF  2E8,3E5
04E70:  MOVFF  2FB,3EC
04E74:  MOVFF  2FA,3EB
04E78:  MOVFF  2F9,3EA
04E7C:  MOVFF  2F8,3E9
04E80:  CALL   3582
04E84:  MOVFF  03,2F7
04E88:  MOVFF  02,2F6
04E8C:  MOVFF  01,2F5
04E90:  MOVFF  00,2F4
....................           
....................    if(tmp>Setpoint)   // Anti Wind-UP       
04E94:  MOVLB  3
04E96:  CLRF   xE2
04E98:  MOVFF  341,3E1
04E9C:  MOVLB  0
04E9E:  CALL   17C4
04EA2:  MOVFF  03,3D3
04EA6:  MOVFF  02,3D2
04EAA:  MOVFF  01,3D1
04EAE:  MOVFF  00,3D0
04EB2:  MOVFF  2F7,3D7
04EB6:  MOVFF  2F6,3D6
04EBA:  MOVFF  2F5,3D5
04EBE:  MOVFF  2F4,3D4
04EC2:  CALL   29A2
04EC6:  BNC   4EE6
....................    { 
....................       tmp=Setpoint; 
04EC8:  MOVLB  3
04ECA:  CLRF   xE2
04ECC:  MOVFF  341,3E1
04ED0:  MOVLB  0
04ED2:  CALL   17C4
04ED6:  MOVFF  03,2F7
04EDA:  MOVFF  02,2F6
04EDE:  MOVFF  01,2F5
04EE2:  MOVFF  00,2F4
....................    } 
....................                 
....................    if(tmp<0.0)     // Anti Wind_DOWN     
04EE6:  MOVFF  2F7,3D3
04EEA:  MOVFF  2F6,3D2
04EEE:  MOVFF  2F5,3D1
04EF2:  MOVFF  2F4,3D0
04EF6:  MOVLB  3
04EF8:  CLRF   xD7
04EFA:  CLRF   xD6
04EFC:  CLRF   xD5
04EFE:  CLRF   xD4
04F00:  MOVLB  0
04F02:  CALL   29A2
04F06:  BNC   4F12
....................    { 
....................       tmp=0.0; 
04F08:  MOVLB  2
04F0A:  CLRF   xF7
04F0C:  CLRF   xF6
04F0E:  CLRF   xF5
04F10:  CLRF   xF4
....................    } 
....................     
....................    // Tpulso(t)= Tciclo*(y(t)-ymin)/(ymax - ymin); calculo de ciclo util para control de resistencia.ymax=140.ymin=0; 
....................    // Tpulso es float, hay que pasar ese ciclo a una salida de un puerto usando el TMR1. 
....................    tmp2=(tmp/Setpoint); 
04F12:  MOVLB  3
04F14:  CLRF   xE2
04F16:  MOVFF  341,3E1
04F1A:  MOVLB  0
04F1C:  CALL   17C4
04F20:  MOVFF  2F7,3D4
04F24:  MOVFF  2F6,3D3
04F28:  MOVFF  2F5,3D2
04F2C:  MOVFF  2F4,3D1
04F30:  MOVFF  03,3D8
04F34:  MOVFF  02,3D7
04F38:  MOVFF  01,3D6
04F3C:  MOVFF  00,3D5
04F40:  CALL   17FA
04F44:  MOVFF  03,307
04F48:  MOVFF  02,306
04F4C:  MOVFF  01,305
04F50:  MOVFF  00,304
....................    //if(tmp2>0.8) 
....................    //tmp2=0.8; 
....................    Tpulso=tmp2*Tciclo;   
04F54:  MOVFF  307,3E8
04F58:  MOVFF  306,3E7
04F5C:  MOVFF  305,3E6
04F60:  MOVFF  304,3E5
04F64:  MOVFF  2E3,3EC
04F68:  MOVFF  2E2,3EB
04F6C:  MOVFF  2E1,3EA
04F70:  MOVFF  2E0,3E9
04F74:  CALL   3582
04F78:  MOVFF  03,2E7
04F7C:  MOVFF  02,2E6
04F80:  MOVFF  01,2E5
04F84:  MOVFF  00,2E4
....................                                        
....................    Tp=(Tpulso/0.005); 
04F88:  MOVFF  2E7,3D4
04F8C:  MOVFF  2E6,3D3
04F90:  MOVFF  2E5,3D2
04F94:  MOVFF  2E4,3D1
04F98:  MOVLW  0A
04F9A:  MOVLB  3
04F9C:  MOVWF  xD8
04F9E:  MOVLW  D7
04FA0:  MOVWF  xD7
04FA2:  MOVLW  23
04FA4:  MOVWF  xD6
04FA6:  MOVLW  77
04FA8:  MOVWF  xD5
04FAA:  MOVLB  0
04FAC:  CALL   17FA
04FB0:  MOVFF  03,3E4
04FB4:  MOVFF  02,3E3
04FB8:  MOVFF  01,3E2
04FBC:  MOVFF  00,3E1
04FC0:  CALL   3BAA
04FC4:  MOVFF  02,AB
04FC8:  MOVFF  01,AA
....................    Tc=(Tciclo/0.005); 
04FCC:  MOVFF  2E3,3D4
04FD0:  MOVFF  2E2,3D3
04FD4:  MOVFF  2E1,3D2
04FD8:  MOVFF  2E0,3D1
04FDC:  MOVLW  0A
04FDE:  MOVLB  3
04FE0:  MOVWF  xD8
04FE2:  MOVLW  D7
04FE4:  MOVWF  xD7
04FE6:  MOVLW  23
04FE8:  MOVWF  xD6
04FEA:  MOVLW  77
04FEC:  MOVWF  xD5
04FEE:  MOVLB  0
04FF0:  CALL   17FA
04FF4:  MOVFF  03,3E4
04FF8:  MOVFF  02,3E3
04FFC:  MOVFF  01,3E2
05000:  MOVFF  00,3E1
05004:  CALL   3BAA
05008:  MOVFF  02,AD
0500C:  MOVFF  01,AC
....................    Controlando=1;    
05010:  MOVLW  01
05012:  MOVLB  3
05014:  MOVWF  x32
.................... //--------------------------------------------------------------------------------------------------------------------//    
.................... } 
05016:  MOVLB  0
05018:  RETLW  00
....................  
.................... void Envio_I2C(direccion, posicion, dato){ 
....................  
....................    i2c_start();            // Comienzo comunicacin 
*
03DA6:  BSF    F94.4
03DA8:  MOVLW  05
03DAA:  MOVWF  00
03DAC:  DECFSZ 00,F
03DAE:  BRA    3DAC
03DB0:  BSF    F94.3
03DB2:  MOVLW  06
03DB4:  MOVWF  00
03DB6:  DECFSZ 00,F
03DB8:  BRA    3DB6
03DBA:  BCF    F8B.4
03DBC:  BCF    F94.4
03DBE:  MOVLW  05
03DC0:  MOVWF  00
03DC2:  DECFSZ 00,F
03DC4:  BRA    3DC2
03DC6:  BCF    F8B.3
03DC8:  BCF    F94.3
....................    i2c_write(direccion);   // Direccin del esclavo en el bus I2C 
03DCA:  MOVFF  3E2,3E5
03DCE:  RCALL  3D30
....................    i2c_write(posicion);    // Posicin donde se guardara el dato transmitido 
03DD0:  MOVFF  3E3,3E5
03DD4:  RCALL  3D30
....................    i2c_write(dato);        // Dato a transmitir 
03DD6:  MOVFF  3E4,3E5
03DDA:  RCALL  3D30
....................    i2c_stop();             // Fin comunicacin 
03DDC:  BCF    F94.4
03DDE:  NOP   
03DE0:  BSF    F94.3
03DE2:  BTFSS  F82.3
03DE4:  BRA    3DE2
03DE6:  MOVLW  05
03DE8:  MOVWF  00
03DEA:  DECFSZ 00,F
03DEC:  BRA    3DEA
03DEE:  BRA    3DF0
03DF0:  NOP   
03DF2:  BSF    F94.4
03DF4:  MOVLW  05
03DF6:  MOVWF  00
03DF8:  DECFSZ 00,F
03DFA:  BRA    3DF8
....................  } 
03DFC:  GOTO   3E36 (RETURN)
....................  
.................... void Lectura_I2C (byte direccion, byte posicion, byte &dato) { 
....................  
....................    i2c_start();            // Comienzo de la comunicacin 
....................    i2c_write(direccion);   // Direccin del esclavo en el bus I2C 
....................    i2c_write(posicion);    // Posicin de donde se leer el dato en el esclavo 
....................    i2c_start();            // Reinicio 
....................    i2c_write(direccion+1); // Direccin del esclavo en modo lectura 
....................    dato=i2c_read(0);       // Lectura del dato 
....................    i2c_stop();             // Fin comunicacin 
.................... } 
....................  
.................... void Carga_Vector(void){ 
....................    SlaveA0Tx[0]=(int8)Temperatura; 
*
03BE6:  MOVFF  31B,3E4
03BEA:  MOVFF  31A,3E3
03BEE:  MOVFF  319,3E2
03BF2:  MOVFF  318,3E1
03BF6:  RCALL  3BAA
03BF8:  MOVFF  01,64
....................    SlaveA0Tx[1]=(Temperatura-((int8)Temperatura))*10; 
03BFC:  MOVFF  31B,3E4
03C00:  MOVFF  31A,3E3
03C04:  MOVFF  319,3E2
03C08:  MOVFF  318,3E1
03C0C:  RCALL  3BAA
03C0E:  MOVLB  3
03C10:  CLRF   xE2
03C12:  MOVFF  01,3E1
03C16:  MOVLB  0
03C18:  CALL   17C4
03C1C:  BSF    FD8.1
03C1E:  MOVFF  31B,3E4
03C22:  MOVFF  31A,3E3
03C26:  MOVFF  319,3E2
03C2A:  MOVFF  318,3E1
03C2E:  MOVFF  03,3E8
03C32:  MOVFF  02,3E7
03C36:  MOVFF  01,3E6
03C3A:  MOVFF  00,3E5
03C3E:  CALL   1958
03C42:  MOVFF  00,3E1
03C46:  MOVFF  01,3E2
03C4A:  MOVFF  02,3E3
03C4E:  MOVFF  03,3E4
03C52:  MOVFF  03,3E8
03C56:  MOVFF  02,3E7
03C5A:  MOVFF  01,3E6
03C5E:  MOVFF  00,3E5
03C62:  MOVLB  3
03C64:  CLRF   xEC
03C66:  CLRF   xEB
03C68:  MOVLW  20
03C6A:  MOVWF  xEA
03C6C:  MOVLW  82
03C6E:  MOVWF  xE9
03C70:  MOVLB  0
03C72:  RCALL  3582
03C74:  MOVFF  03,3E4
03C78:  MOVFF  02,3E3
03C7C:  MOVFF  01,3E2
03C80:  MOVFF  00,3E1
03C84:  RCALL  3BAA
03C86:  MOVFF  01,65
....................    SlaveA0Tx[2]=make8((int16)PresionCamara,0); 
03C8A:  MOVFF  353,66
03C8E:  MOVLB  0
....................    SlaveA0Tx[3]=make8((int16)PresionCamara,1); 
03C90:  MOVFF  354,67
03C94:  MOVLB  0
....................    SlaveA0Tx[4]=make8((int16)PresionPreCamara,0); 
03C96:  MOVFF  355,68
03C9A:  MOVLB  0
....................    SlaveA0Tx[5]=make8((int16)PresionPreCamara,1); 
03C9C:  MOVFF  356,69
03CA0:  MOVLB  0
....................    SlaveA0Tx[6]=(int8)Tpulso*10; 
03CA2:  MOVFF  2E7,3E4
03CA6:  MOVFF  2E6,3E3
03CAA:  MOVFF  2E5,3E2
03CAE:  MOVFF  2E4,3E1
03CB2:  RCALL  3BAA
03CB4:  MOVF   01,W
03CB6:  MULLW  0A
03CB8:  MOVFF  FF3,6A
....................    SlaveA0Tx[7]=HIG; 
03CBC:  BSF    F94.0
03CBE:  CLRF   x6B
03CC0:  BTFSC  F82.0
03CC2:  INCF   x6B,F
....................    SlaveA0Tx[8]=LOW; 
03CC4:  BSF    F94.1
03CC6:  CLRF   x6C
03CC8:  BTFSC  F82.1
03CCA:  INCF   x6C,F
....................    SlaveA0Tx[9]=TERM; 
03CCC:  BSF    F93.5
03CCE:  CLRF   x6D
03CD0:  BTFSS  F81.5
03CD2:  INCF   x6D,F
....................    SlaveA0Tx[10]=DOOR; 
03CD4:  BSF    F93.6
03CD6:  CLRF   x6E
03CD8:  BTFSS  F81.6
03CDA:  INCF   x6E,F
....................    SlaveA0Tx[11]=STOP; 
03CDC:  BSF    F93.7
03CDE:  CLRF   x6F
03CE0:  BTFSS  F81.7
03CE2:  INCF   x6F,F
....................    SlaveA0Tx[12]=(int8)error; 
03CE4:  MOVFF  2EB,3E4
03CE8:  MOVFF  2EA,3E3
03CEC:  MOVFF  2E9,3E2
03CF0:  MOVFF  2E8,3E1
03CF4:  RCALL  3BAA
03CF6:  MOVFF  01,70
....................    SlaveA0Tx[13]=CicloSeleccionado; 
03CFA:  MOVFF  340,71
....................    SlaveA0Tx[14]=SetTime; 
03CFE:  MOVFF  380,72
....................    SlaveA0Tx[15]=DiaTx; 
03D02:  MOVFF  37B,73
....................    SlaveA0Tx[16]=MesTx; 
03D06:  MOVFF  37A,74
....................    SlaveA0Tx[17]=YearTx; 
03D0A:  MOVFF  379,75
....................    SlaveA0Tx[18]=HoraTx; 
03D0E:  MOVFF  37C,76
....................    SlaveA0Tx[19]=MinutoTx; 
03D12:  MOVFF  37D,77
....................    SlaveA0Tx[20]=SegundoTx; 
03D16:  MOVFF  37E,78
....................    SlaveA0Tx[21]=Imprime; 
03D1A:  MOVFF  381,79
....................    SlaveA0Tx[22]=0; 
03D1E:  CLRF   x7A
....................    SlaveA0Tx[23]=make8(Ciclos,0); 
03D20:  MOVFF  357,7B
03D24:  MOVLB  0
....................    SlaveA0Tx[24]=make8(Ciclos,1); 
03D26:  MOVFF  358,7C
03D2A:  MOVLB  0
.................... } 
03D2C:  GOTO   3E02 (RETURN)
....................  
.................... void Lee_Vector(void){ 
....................    /*Dia=txbuf[0]; 
....................    Mess=txbuf[1]; 
....................    Year=txbuf[2]; 
....................    Hora=txbuf[3]; 
....................    Minuto=txbuf[4]; 
....................    Segundo=txbuf[5]; 
....................    dow=txbuf[6];*/ 
.................... } 
....................  
.................... void Envio_Esclavos(void){ 
....................    Carga_Vector(); 
*
03E00:  BRA    3BE6
....................    for(i=0;i<25;i++) 
03E02:  MOVLB  3
03E04:  CLRF   x3D
03E06:  MOVF   x3D,W
03E08:  SUBLW  18
03E0A:  BNC   3E3C
....................    { 
....................       direccion=0xB0; 
03E0C:  MOVLW  B0
03E0E:  MOVLB  0
03E10:  MOVWF  x85
....................       Envio_I2C(direccion,i,SlaveA0Tx[i]); 
03E12:  CLRF   03
03E14:  MOVLB  3
03E16:  MOVF   x3D,W
03E18:  ADDLW  64
03E1A:  MOVWF  FE9
03E1C:  MOVLW  00
03E1E:  ADDWFC 03,W
03E20:  MOVWF  FEA
03E22:  MOVFF  FEF,3E1
03E26:  MOVFF  85,3E2
03E2A:  MOVFF  33D,3E3
03E2E:  MOVFF  3E1,3E4
03E32:  MOVLB  0
03E34:  BRA    3DA6
....................    }  
03E36:  MOVLB  3
03E38:  INCF   x3D,F
03E3A:  BRA    3E06
.................... } 
03E3C:  MOVLB  0
03E3E:  RETLW  00
.................... void Lectura_Esclavos(void){ 
....................    //for(i=0;i<7;i++) 
....................    //{ 
....................    //   direccion=0xA0;                        //Direccin en el bus I2c 
....................    //   posicion=i;                         //Posicin de memoria a leer 
....................    //   Lectura_I2C(direccion, posicion, dato);    //Lectura por I2C 
....................    //   txbuf[i]=(int8)dato; 
....................    //} 
....................    //Lee_Vector(); 
.................... } 
....................  
.................... void LeeEEPROM(){ 
.................... //Lectura EEPROM//-------------------------- 
....................    Testerilizacionp[0]=read_eeprom(0); 
*
01BD0:  MOVFF  FF2,3CC
01BD4:  BCF    FF2.6
01BD6:  BCF    FF2.7
01BD8:  CLRF   FAA
01BDA:  CLRF   FA9
01BDC:  BCF    FA6.6
01BDE:  BCF    FA6.7
01BE0:  BSF    FA6.0
01BE2:  MOVF   FA8,W
01BE4:  MOVLB  3
01BE6:  BTFSC  xCC.6
01BE8:  BSF    FF2.6
01BEA:  BTFSC  xCC.7
01BEC:  BSF    FF2.7
01BEE:  MOVLB  0
01BF0:  MOVWF  xB9
....................    delay_ms(10); 
01BF2:  MOVLW  0A
01BF4:  MOVLB  3
01BF6:  MOVWF  xE1
01BF8:  MOVLB  0
01BFA:  RCALL  179C
....................    Testerilizacionp[1]=read_eeprom(1); 
01BFC:  MOVFF  FF2,3CC
01C00:  BCF    FF2.6
01C02:  BCF    FF2.7
01C04:  CLRF   FAA
01C06:  MOVLW  01
01C08:  MOVWF  FA9
01C0A:  BCF    FA6.6
01C0C:  BCF    FA6.7
01C0E:  BSF    FA6.0
01C10:  MOVF   FA8,W
01C12:  MOVLB  3
01C14:  BTFSC  xCC.6
01C16:  BSF    FF2.6
01C18:  BTFSC  xCC.7
01C1A:  BSF    FF2.7
01C1C:  MOVLB  0
01C1E:  MOVWF  xBA
....................    delay_ms(10); 
01C20:  MOVLW  0A
01C22:  MOVLB  3
01C24:  MOVWF  xE1
01C26:  MOVLB  0
01C28:  RCALL  179C
....................    Testerilizacionp[2]=read_eeprom(2); 
01C2A:  MOVFF  FF2,3CC
01C2E:  BCF    FF2.6
01C30:  BCF    FF2.7
01C32:  CLRF   FAA
01C34:  MOVLW  02
01C36:  MOVWF  FA9
01C38:  BCF    FA6.6
01C3A:  BCF    FA6.7
01C3C:  BSF    FA6.0
01C3E:  MOVF   FA8,W
01C40:  MOVLB  3
01C42:  BTFSC  xCC.6
01C44:  BSF    FF2.6
01C46:  BTFSC  xCC.7
01C48:  BSF    FF2.7
01C4A:  MOVLB  0
01C4C:  MOVWF  xBB
....................    delay_ms(10); 
01C4E:  MOVLW  0A
01C50:  MOVLB  3
01C52:  MOVWF  xE1
01C54:  MOVLB  0
01C56:  RCALL  179C
....................    Testerilizacionp[3]=read_eeprom(3); 
01C58:  MOVFF  FF2,3CC
01C5C:  BCF    FF2.6
01C5E:  BCF    FF2.7
01C60:  CLRF   FAA
01C62:  MOVLW  03
01C64:  MOVWF  FA9
01C66:  BCF    FA6.6
01C68:  BCF    FA6.7
01C6A:  BSF    FA6.0
01C6C:  MOVF   FA8,W
01C6E:  MOVLB  3
01C70:  BTFSC  xCC.6
01C72:  BSF    FF2.6
01C74:  BTFSC  xCC.7
01C76:  BSF    FF2.7
01C78:  MOVLB  0
01C7A:  MOVWF  xBC
....................    delay_ms(10); 
01C7C:  MOVLW  0A
01C7E:  MOVLB  3
01C80:  MOVWF  xE1
01C82:  MOVLB  0
01C84:  RCALL  179C
....................    Tsecadop[0]=read_eeprom(4); 
01C86:  MOVFF  FF2,3CC
01C8A:  BCF    FF2.6
01C8C:  BCF    FF2.7
01C8E:  CLRF   FAA
01C90:  MOVLW  04
01C92:  MOVWF  FA9
01C94:  BCF    FA6.6
01C96:  BCF    FA6.7
01C98:  BSF    FA6.0
01C9A:  MOVF   FA8,W
01C9C:  MOVLB  3
01C9E:  BTFSC  xCC.6
01CA0:  BSF    FF2.6
01CA2:  BTFSC  xCC.7
01CA4:  BSF    FF2.7
01CA6:  MOVLB  0
01CA8:  MOVWF  xC2
....................    delay_ms(10); 
01CAA:  MOVLW  0A
01CAC:  MOVLB  3
01CAE:  MOVWF  xE1
01CB0:  MOVLB  0
01CB2:  RCALL  179C
....................    Tsecadop[1]=read_eeprom(5); 
01CB4:  MOVFF  FF2,3CC
01CB8:  BCF    FF2.6
01CBA:  BCF    FF2.7
01CBC:  CLRF   FAA
01CBE:  MOVLW  05
01CC0:  MOVWF  FA9
01CC2:  BCF    FA6.6
01CC4:  BCF    FA6.7
01CC6:  BSF    FA6.0
01CC8:  MOVF   FA8,W
01CCA:  MOVLB  3
01CCC:  BTFSC  xCC.6
01CCE:  BSF    FF2.6
01CD0:  BTFSC  xCC.7
01CD2:  BSF    FF2.7
01CD4:  MOVLB  0
01CD6:  MOVWF  xC3
....................    delay_ms(10); 
01CD8:  MOVLW  0A
01CDA:  MOVLB  3
01CDC:  MOVWF  xE1
01CDE:  MOVLB  0
01CE0:  RCALL  179C
....................    Tsecadop[2]=read_eeprom(6); 
01CE2:  MOVFF  FF2,3CC
01CE6:  BCF    FF2.6
01CE8:  BCF    FF2.7
01CEA:  CLRF   FAA
01CEC:  MOVLW  06
01CEE:  MOVWF  FA9
01CF0:  BCF    FA6.6
01CF2:  BCF    FA6.7
01CF4:  BSF    FA6.0
01CF6:  MOVF   FA8,W
01CF8:  MOVLB  3
01CFA:  BTFSC  xCC.6
01CFC:  BSF    FF2.6
01CFE:  BTFSC  xCC.7
01D00:  BSF    FF2.7
01D02:  MOVLB  0
01D04:  MOVWF  xC4
....................    delay_ms(10); 
01D06:  MOVLW  0A
01D08:  MOVLB  3
01D0A:  MOVWF  xE1
01D0C:  MOVLB  0
01D0E:  RCALL  179C
....................    Tsecadop[3]=read_eeprom(7); 
01D10:  MOVFF  FF2,3CC
01D14:  BCF    FF2.6
01D16:  BCF    FF2.7
01D18:  CLRF   FAA
01D1A:  MOVLW  07
01D1C:  MOVWF  FA9
01D1E:  BCF    FA6.6
01D20:  BCF    FA6.7
01D22:  BSF    FA6.0
01D24:  MOVF   FA8,W
01D26:  MOVLB  3
01D28:  BTFSC  xCC.6
01D2A:  BSF    FF2.6
01D2C:  BTFSC  xCC.7
01D2E:  BSF    FF2.7
01D30:  MOVLB  0
01D32:  MOVWF  xC5
....................    delay_ms(10); 
01D34:  MOVLW  0A
01D36:  MOVLB  3
01D38:  MOVWF  xE1
01D3A:  MOVLB  0
01D3C:  RCALL  179C
....................    Setpoint=read_eeprom(8); 
01D3E:  MOVFF  FF2,3CC
01D42:  BCF    FF2.6
01D44:  BCF    FF2.7
01D46:  CLRF   FAA
01D48:  MOVLW  08
01D4A:  MOVWF  FA9
01D4C:  BCF    FA6.6
01D4E:  BCF    FA6.7
01D50:  BSF    FA6.0
01D52:  MOVF   FA8,W
01D54:  MOVLB  3
01D56:  BTFSC  xCC.6
01D58:  BSF    FF2.6
01D5A:  BTFSC  xCC.7
01D5C:  BSF    FF2.7
01D5E:  MOVWF  x41
....................    delay_ms(10); 
01D60:  MOVLW  0A
01D62:  MOVWF  xE1
01D64:  MOVLB  0
01D66:  RCALL  179C
....................    Nivel=read_eeprom(9); 
01D68:  MOVFF  FF2,3CC
01D6C:  BCF    FF2.6
01D6E:  BCF    FF2.7
01D70:  CLRF   FAA
01D72:  MOVLW  09
01D74:  MOVWF  FA9
01D76:  BCF    FA6.6
01D78:  BCF    FA6.7
01D7A:  BSF    FA6.0
01D7C:  MOVF   FA8,W
01D7E:  MOVLB  3
01D80:  BTFSC  xCC.6
01D82:  BSF    FF2.6
01D84:  BTFSC  xCC.7
01D86:  BSF    FF2.7
01D88:  CLRF   x50
01D8A:  MOVWF  x4F
....................    delay_ms(10); 
01D8C:  MOVLW  0A
01D8E:  MOVWF  xE1
01D90:  MOVLB  0
01D92:  RCALL  179C
....................    Password[0]=read_eeprom(10); 
01D94:  MOVFF  FF2,3CC
01D98:  BCF    FF2.6
01D9A:  BCF    FF2.7
01D9C:  CLRF   FAA
01D9E:  MOVLW  0A
01DA0:  MOVWF  FA9
01DA2:  BCF    FA6.6
01DA4:  BCF    FA6.7
01DA6:  BSF    FA6.0
01DA8:  MOVF   FA8,W
01DAA:  MOVLB  3
01DAC:  BTFSC  xCC.6
01DAE:  BSF    FF2.6
01DB0:  BTFSC  xCC.7
01DB2:  BSF    FF2.7
01DB4:  MOVWF  x5F
....................    delay_ms(10); 
01DB6:  MOVLW  0A
01DB8:  MOVWF  xE1
01DBA:  MOVLB  0
01DBC:  RCALL  179C
....................    Password[1]=read_eeprom(11); 
01DBE:  MOVFF  FF2,3CC
01DC2:  BCF    FF2.6
01DC4:  BCF    FF2.7
01DC6:  CLRF   FAA
01DC8:  MOVLW  0B
01DCA:  MOVWF  FA9
01DCC:  BCF    FA6.6
01DCE:  BCF    FA6.7
01DD0:  BSF    FA6.0
01DD2:  MOVF   FA8,W
01DD4:  MOVLB  3
01DD6:  BTFSC  xCC.6
01DD8:  BSF    FF2.6
01DDA:  BTFSC  xCC.7
01DDC:  BSF    FF2.7
01DDE:  MOVWF  x60
....................    delay_ms(10); 
01DE0:  MOVLW  0A
01DE2:  MOVWF  xE1
01DE4:  MOVLB  0
01DE6:  RCALL  179C
....................    Password[2]=read_eeprom(12); 
01DE8:  MOVFF  FF2,3CC
01DEC:  BCF    FF2.6
01DEE:  BCF    FF2.7
01DF0:  CLRF   FAA
01DF2:  MOVLW  0C
01DF4:  MOVWF  FA9
01DF6:  BCF    FA6.6
01DF8:  BCF    FA6.7
01DFA:  BSF    FA6.0
01DFC:  MOVF   FA8,W
01DFE:  MOVLB  3
01E00:  BTFSC  xCC.6
01E02:  BSF    FF2.6
01E04:  BTFSC  xCC.7
01E06:  BSF    FF2.7
01E08:  MOVWF  x61
....................    delay_ms(10); 
01E0A:  MOVLW  0A
01E0C:  MOVWF  xE1
01E0E:  MOVLB  0
01E10:  RCALL  179C
....................    Password[3]=read_eeprom(13); 
01E12:  MOVFF  FF2,3CC
01E16:  BCF    FF2.6
01E18:  BCF    FF2.7
01E1A:  CLRF   FAA
01E1C:  MOVLW  0D
01E1E:  MOVWF  FA9
01E20:  BCF    FA6.6
01E22:  BCF    FA6.7
01E24:  BSF    FA6.0
01E26:  MOVF   FA8,W
01E28:  MOVLB  3
01E2A:  BTFSC  xCC.6
01E2C:  BSF    FF2.6
01E2E:  BTFSC  xCC.7
01E30:  BSF    FF2.7
01E32:  MOVWF  x62
....................    delay_ms(10); 
01E34:  MOVLW  0A
01E36:  MOVWF  xE1
01E38:  MOVLB  0
01E3A:  RCALL  179C
....................    Ganancia=read_eeprom(20); 
01E3C:  MOVFF  FF2,3CC
01E40:  BCF    FF2.6
01E42:  BCF    FF2.7
01E44:  CLRF   FAA
01E46:  MOVLW  14
01E48:  MOVWF  FA9
01E4A:  BCF    FA6.6
01E4C:  BCF    FA6.7
01E4E:  BSF    FA6.0
01E50:  MOVF   FA8,W
01E52:  MOVLB  3
01E54:  BTFSC  xCC.6
01E56:  BSF    FF2.6
01E58:  BTFSC  xCC.7
01E5A:  BSF    FF2.7
01E5C:  CLRF   xE2
01E5E:  MOVWF  xE1
01E60:  MOVLB  0
01E62:  RCALL  17C4
01E64:  MOVFF  03,2FB
01E68:  MOVFF  02,2FA
01E6C:  MOVFF  01,2F9
01E70:  MOVFF  00,2F8
....................    delay_ms(10); 
01E74:  MOVLW  0A
01E76:  MOVLB  3
01E78:  MOVWF  xE1
01E7A:  MOVLB  0
01E7C:  RCALL  179C
....................    Ajuste=read_eeprom(21); 
01E7E:  MOVFF  FF2,3CC
01E82:  BCF    FF2.6
01E84:  BCF    FF2.7
01E86:  CLRF   FAA
01E88:  MOVLW  15
01E8A:  MOVWF  FA9
01E8C:  BCF    FA6.6
01E8E:  BCF    FA6.7
01E90:  BSF    FA6.0
01E92:  MOVF   FA8,W
01E94:  MOVLB  3
01E96:  BTFSC  xCC.6
01E98:  BSF    FF2.6
01E9A:  BTFSC  xCC.7
01E9C:  BSF    FF2.7
01E9E:  MOVLB  2
01EA0:  MOVWF  xD0
....................    delay_ms(10); 
01EA2:  MOVLW  0A
01EA4:  MOVLB  3
01EA6:  MOVWF  xE1
01EA8:  MOVLB  0
01EAA:  RCALL  179C
....................    Ajusten=read_eeprom(22); 
01EAC:  MOVFF  FF2,3CC
01EB0:  BCF    FF2.6
01EB2:  BCF    FF2.7
01EB4:  CLRF   FAA
01EB6:  MOVLW  16
01EB8:  MOVWF  FA9
01EBA:  BCF    FA6.6
01EBC:  BCF    FA6.7
01EBE:  BSF    FA6.0
01EC0:  MOVF   FA8,W
01EC2:  MOVLB  3
01EC4:  BTFSC  xCC.6
01EC6:  BSF    FF2.6
01EC8:  BTFSC  xCC.7
01ECA:  BSF    FF2.7
01ECC:  MOVLB  2
01ECE:  MOVWF  xD1
....................    delay_ms(10); 
01ED0:  MOVLW  0A
01ED2:  MOVLB  3
01ED4:  MOVWF  xE1
01ED6:  MOVLB  0
01ED8:  RCALL  179C
....................    //Desvio=read_eeprom(23); 
....................    MediaMovil=read_eeprom(24); 
01EDA:  MOVFF  FF2,3CC
01EDE:  BCF    FF2.6
01EE0:  BCF    FF2.7
01EE2:  CLRF   FAA
01EE4:  MOVLW  18
01EE6:  MOVWF  FA9
01EE8:  BCF    FA6.6
01EEA:  BCF    FA6.7
01EEC:  BSF    FA6.0
01EEE:  MOVF   FA8,W
01EF0:  MOVLB  3
01EF2:  BTFSC  xCC.6
01EF4:  BSF    FF2.6
01EF6:  BTFSC  xCC.7
01EF8:  BSF    FF2.7
01EFA:  MOVLB  2
01EFC:  MOVWF  xD2
....................    delay_ms(10); 
01EFE:  MOVLW  0A
01F00:  MOVLB  3
01F02:  MOVWF  xE1
01F04:  MOVLB  0
01F06:  RCALL  179C
....................    Tciclo=read_eeprom(25); 
01F08:  MOVFF  FF2,3CC
01F0C:  BCF    FF2.6
01F0E:  BCF    FF2.7
01F10:  CLRF   FAA
01F12:  MOVLW  19
01F14:  MOVWF  FA9
01F16:  BCF    FA6.6
01F18:  BCF    FA6.7
01F1A:  BSF    FA6.0
01F1C:  MOVF   FA8,W
01F1E:  MOVLB  3
01F20:  BTFSC  xCC.6
01F22:  BSF    FF2.6
01F24:  BTFSC  xCC.7
01F26:  BSF    FF2.7
01F28:  CLRF   xE2
01F2A:  MOVWF  xE1
01F2C:  MOVLB  0
01F2E:  RCALL  17C4
01F30:  MOVFF  03,2E3
01F34:  MOVFF  02,2E2
01F38:  MOVFF  01,2E1
01F3C:  MOVFF  00,2E0
....................    delay_ms(10); 
01F40:  MOVLW  0A
01F42:  MOVLB  3
01F44:  MOVWF  xE1
01F46:  MOVLB  0
01F48:  RCALL  179C
....................    Integral=read_eeprom(26); 
01F4A:  MOVFF  FF2,3CC
01F4E:  BCF    FF2.6
01F50:  BCF    FF2.7
01F52:  CLRF   FAA
01F54:  MOVLW  1A
01F56:  MOVWF  FA9
01F58:  BCF    FA6.6
01F5A:  BCF    FA6.7
01F5C:  BSF    FA6.0
01F5E:  MOVF   FA8,W
01F60:  MOVLB  3
01F62:  BTFSC  xCC.6
01F64:  BSF    FF2.6
01F66:  BTFSC  xCC.7
01F68:  BSF    FF2.7
01F6A:  MOVWF  x2C
....................    delay_ms(10); 
01F6C:  MOVLW  0A
01F6E:  MOVWF  xE1
01F70:  MOVLB  0
01F72:  RCALL  179C
....................    Derivativo=read_eeprom(27); 
01F74:  MOVFF  FF2,3CC
01F78:  BCF    FF2.6
01F7A:  BCF    FF2.7
01F7C:  CLRF   FAA
01F7E:  MOVLW  1B
01F80:  MOVWF  FA9
01F82:  BCF    FA6.6
01F84:  BCF    FA6.7
01F86:  BSF    FA6.0
01F88:  MOVF   FA8,W
01F8A:  MOVLB  3
01F8C:  BTFSC  xCC.6
01F8E:  BSF    FF2.6
01F90:  BTFSC  xCC.7
01F92:  BSF    FF2.7
01F94:  MOVWF  x2D
....................    delay_ms(10); 
01F96:  MOVLW  0A
01F98:  MOVWF  xE1
01F9A:  MOVLB  0
01F9C:  CALL   179C
....................    Temporal=read_eeprom(29); 
01FA0:  MOVFF  FF2,3CC
01FA4:  BCF    FF2.6
01FA6:  BCF    FF2.7
01FA8:  CLRF   FAA
01FAA:  MOVLW  1D
01FAC:  MOVWF  FA9
01FAE:  BCF    FA6.6
01FB0:  BCF    FA6.7
01FB2:  BSF    FA6.0
01FB4:  MOVF   FA8,W
01FB6:  MOVLB  3
01FB8:  BTFSC  xCC.6
01FBA:  BSF    FF2.6
01FBC:  BTFSC  xCC.7
01FBE:  BSF    FF2.7
01FC0:  CLRF   xE2
01FC2:  MOVWF  xE1
01FC4:  MOVLB  0
01FC6:  CALL   17C4
01FCA:  MOVFF  03,2B1
01FCE:  MOVFF  02,2B0
01FD2:  MOVFF  01,2AF
01FD6:  MOVFF  00,2AE
....................    Temporal=Temporal/10.0; 
01FDA:  MOVFF  2B1,3D4
01FDE:  MOVFF  2B0,3D3
01FE2:  MOVFF  2AF,3D2
01FE6:  MOVFF  2AE,3D1
01FEA:  MOVLB  3
01FEC:  CLRF   xD8
01FEE:  CLRF   xD7
01FF0:  MOVLW  20
01FF2:  MOVWF  xD6
01FF4:  MOVLW  82
01FF6:  MOVWF  xD5
01FF8:  MOVLB  0
01FFA:  CALL   17FA
01FFE:  MOVFF  03,2B1
02002:  MOVFF  02,2B0
02006:  MOVFF  01,2AF
0200A:  MOVFF  00,2AE
....................    delay_ms(10); 
0200E:  MOVLW  0A
02010:  MOVLB  3
02012:  MOVWF  xE1
02014:  MOVLB  0
02016:  CALL   179C
....................    Gain=read_eeprom(28)+Temporal; 
0201A:  MOVFF  FF2,3CC
0201E:  BCF    FF2.6
02020:  BCF    FF2.7
02022:  CLRF   FAA
02024:  MOVLW  1C
02026:  MOVWF  FA9
02028:  BCF    FA6.6
0202A:  BCF    FA6.7
0202C:  BSF    FA6.0
0202E:  MOVF   FA8,W
02030:  MOVLB  3
02032:  BTFSC  xCC.6
02034:  BSF    FF2.6
02036:  BTFSC  xCC.7
02038:  BSF    FF2.7
0203A:  CLRF   xE2
0203C:  MOVWF  xE1
0203E:  MOVLB  0
02040:  CALL   17C4
02044:  BCF    FD8.1
02046:  MOVFF  03,3E4
0204A:  MOVFF  02,3E3
0204E:  MOVFF  01,3E2
02052:  MOVFF  00,3E1
02056:  MOVFF  2B1,3E8
0205A:  MOVFF  2B0,3E7
0205E:  MOVFF  2AF,3E6
02062:  MOVFF  2AE,3E5
02066:  RCALL  1958
02068:  MOVFF  03,2A9
0206C:  MOVFF  02,2A8
02070:  MOVFF  01,2A7
02074:  MOVFF  00,2A6
....................    delay_ms(10); 
02078:  MOVLW  0A
0207A:  MOVLB  3
0207C:  MOVWF  xE1
0207E:  MOVLB  0
02080:  CALL   179C
....................    R1=make16(read_eeprom(31),read_eeprom(30)); 
02084:  MOVFF  FF2,3CC
02088:  BCF    FF2.6
0208A:  BCF    FF2.7
0208C:  CLRF   FAA
0208E:  MOVLW  1F
02090:  MOVWF  FA9
02092:  BCF    FA6.6
02094:  BCF    FA6.7
02096:  BSF    FA6.0
02098:  MOVF   FA8,W
0209A:  MOVLB  3
0209C:  BTFSC  xCC.6
0209E:  BSF    FF2.6
020A0:  BTFSC  xCC.7
020A2:  BSF    FF2.7
020A4:  MOVWF  xCD
020A6:  MOVFF  FF2,3CE
020AA:  BCF    FF2.6
020AC:  BCF    FF2.7
020AE:  CLRF   FAA
020B0:  MOVLW  1E
020B2:  MOVWF  FA9
020B4:  BCF    FA6.6
020B6:  BCF    FA6.7
020B8:  BSF    FA6.0
020BA:  MOVF   FA8,W
020BC:  BTFSC  xCE.6
020BE:  BSF    FF2.6
020C0:  BTFSC  xCE.7
020C2:  BSF    FF2.7
020C4:  MOVWF  xCF
020C6:  MOVFF  3CD,03
020CA:  MOVF   xCF,W
020CC:  MOVWF  xE1
020CE:  MOVFF  03,3E2
020D2:  MOVLB  0
020D4:  CALL   17C4
020D8:  MOVFF  03,2B5
020DC:  MOVFF  02,2B4
020E0:  MOVFF  01,2B3
020E4:  MOVFF  00,2B2
....................    delay_ms(10); 
020E8:  MOVLW  0A
020EA:  MOVLB  3
020EC:  MOVWF  xE1
020EE:  MOVLB  0
020F0:  CALL   179C
....................    Temporal=read_eeprom(33); 
020F4:  MOVFF  FF2,3CC
020F8:  BCF    FF2.6
020FA:  BCF    FF2.7
020FC:  CLRF   FAA
020FE:  MOVLW  21
02100:  MOVWF  FA9
02102:  BCF    FA6.6
02104:  BCF    FA6.7
02106:  BSF    FA6.0
02108:  MOVF   FA8,W
0210A:  MOVLB  3
0210C:  BTFSC  xCC.6
0210E:  BSF    FF2.6
02110:  BTFSC  xCC.7
02112:  BSF    FF2.7
02114:  CLRF   xE2
02116:  MOVWF  xE1
02118:  MOVLB  0
0211A:  CALL   17C4
0211E:  MOVFF  03,2B1
02122:  MOVFF  02,2B0
02126:  MOVFF  01,2AF
0212A:  MOVFF  00,2AE
....................    Temporal=Temporal/10.0; 
0212E:  MOVFF  2B1,3D4
02132:  MOVFF  2B0,3D3
02136:  MOVFF  2AF,3D2
0213A:  MOVFF  2AE,3D1
0213E:  MOVLB  3
02140:  CLRF   xD8
02142:  CLRF   xD7
02144:  MOVLW  20
02146:  MOVWF  xD6
02148:  MOVLW  82
0214A:  MOVWF  xD5
0214C:  MOVLB  0
0214E:  CALL   17FA
02152:  MOVFF  03,2B1
02156:  MOVFF  02,2B0
0215A:  MOVFF  01,2AF
0215E:  MOVFF  00,2AE
....................    delay_ms(10); 
02162:  MOVLW  0A
02164:  MOVLB  3
02166:  MOVWF  xE1
02168:  MOVLB  0
0216A:  CALL   179C
....................    RPT100=read_eeprom(32)+Temporal; 
0216E:  MOVFF  FF2,3CC
02172:  BCF    FF2.6
02174:  BCF    FF2.7
02176:  CLRF   FAA
02178:  MOVLW  20
0217A:  MOVWF  FA9
0217C:  BCF    FA6.6
0217E:  BCF    FA6.7
02180:  BSF    FA6.0
02182:  MOVF   FA8,W
02184:  MOVLB  3
02186:  BTFSC  xCC.6
02188:  BSF    FF2.6
0218A:  BTFSC  xCC.7
0218C:  BSF    FF2.7
0218E:  CLRF   xE2
02190:  MOVWF  xE1
02192:  MOVLB  0
02194:  CALL   17C4
02198:  BCF    FD8.1
0219A:  MOVFF  03,3E4
0219E:  MOVFF  02,3E3
021A2:  MOVFF  01,3E2
021A6:  MOVFF  00,3E1
021AA:  MOVFF  2B1,3E8
021AE:  MOVFF  2B0,3E7
021B2:  MOVFF  2AF,3E6
021B6:  MOVFF  2AE,3E5
021BA:  CALL   1958
021BE:  MOVFF  03,2AD
021C2:  MOVFF  02,2AC
021C6:  MOVFF  01,2AB
021CA:  MOVFF  00,2AA
....................    delay_ms(10); 
021CE:  MOVLW  0A
021D0:  MOVLB  3
021D2:  MOVWF  xE1
021D4:  MOVLB  0
021D6:  CALL   179C
....................    CiclosL=read_eeprom(37); 
021DA:  MOVFF  FF2,3CC
021DE:  BCF    FF2.6
021E0:  BCF    FF2.7
021E2:  CLRF   FAA
021E4:  MOVLW  25
021E6:  MOVWF  FA9
021E8:  BCF    FA6.6
021EA:  BCF    FA6.7
021EC:  BSF    FA6.0
021EE:  MOVF   FA8,W
021F0:  MOVLB  3
021F2:  BTFSC  xCC.6
021F4:  BSF    FF2.6
021F6:  BTFSC  xCC.7
021F8:  BSF    FF2.7
021FA:  MOVWF  x3E
....................    delay_ms(10); 
021FC:  MOVLW  0A
021FE:  MOVWF  xE1
02200:  MOVLB  0
02202:  CALL   179C
....................    CiclosH=read_eeprom(38); 
02206:  MOVFF  FF2,3CC
0220A:  BCF    FF2.6
0220C:  BCF    FF2.7
0220E:  CLRF   FAA
02210:  MOVLW  26
02212:  MOVWF  FA9
02214:  BCF    FA6.6
02216:  BCF    FA6.7
02218:  BSF    FA6.0
0221A:  MOVF   FA8,W
0221C:  MOVLB  3
0221E:  BTFSC  xCC.6
02220:  BSF    FF2.6
02222:  BTFSC  xCC.7
02224:  BSF    FF2.7
02226:  MOVWF  x3F
....................    delay_ms(10); 
02228:  MOVLW  0A
0222A:  MOVWF  xE1
0222C:  MOVLB  0
0222E:  CALL   179C
....................    Ciclos=make16(CiclosH,CiclosL); 
02232:  MOVFF  33F,358
02236:  MOVFF  33E,357
....................    delay_ms(10); 
0223A:  MOVLW  0A
0223C:  MOVLB  3
0223E:  MOVWF  xE1
02240:  MOVLB  0
02242:  CALL   179C
....................    TTrampa=read_eeprom(39); 
02246:  MOVFF  FF2,3CC
0224A:  BCF    FF2.6
0224C:  BCF    FF2.7
0224E:  CLRF   FAA
02250:  MOVLW  27
02252:  MOVWF  FA9
02254:  BCF    FA6.6
02256:  BCF    FA6.7
02258:  BSF    FA6.0
0225A:  MOVF   FA8,W
0225C:  MOVLB  3
0225E:  BTFSC  xCC.6
02260:  BSF    FF2.6
02262:  BTFSC  xCC.7
02264:  BSF    FF2.7
02266:  MOVLB  2
02268:  MOVWF  xD3
....................    delay_ms(10); 
0226A:  MOVLW  0A
0226C:  MOVLB  3
0226E:  MOVWF  xE1
02270:  MOVLB  0
02272:  CALL   179C
....................    ActivaImpresion=read_eeprom(40); 
02276:  MOVFF  FF2,3CC
0227A:  BCF    FF2.6
0227C:  BCF    FF2.7
0227E:  CLRF   FAA
02280:  MOVLW  28
02282:  MOVWF  FA9
02284:  BCF    FA6.6
02286:  BCF    FA6.7
02288:  BSF    FA6.0
0228A:  MOVF   FA8,W
0228C:  MOVLB  3
0228E:  BTFSC  xCC.6
02290:  BSF    FF2.6
02292:  BTFSC  xCC.7
02294:  BSF    FF2.7
02296:  MOVWF  x33
....................    delay_ms(10); 
02298:  MOVLW  0A
0229A:  MOVWF  xE1
0229C:  MOVLB  0
0229E:  CALL   179C
....................    timpresion=read_eeprom(41); 
022A2:  MOVFF  FF2,3CC
022A6:  BCF    FF2.6
022A8:  BCF    FF2.7
022AA:  CLRF   FAA
022AC:  MOVLW  29
022AE:  MOVWF  FA9
022B0:  BCF    FA6.6
022B2:  BCF    FA6.7
022B4:  BSF    FA6.0
022B6:  MOVF   FA8,W
022B8:  MOVLB  3
022BA:  BTFSC  xCC.6
022BC:  BSF    FF2.6
022BE:  BTFSC  xCC.7
022C0:  BSF    FF2.7
022C2:  MOVWF  x34
....................    delay_ms(10); 
022C4:  MOVLW  0A
022C6:  MOVWF  xE1
022C8:  MOVLB  0
022CA:  CALL   179C
....................    G1=read_eeprom(42); 
022CE:  MOVFF  FF2,3CC
022D2:  BCF    FF2.6
022D4:  BCF    FF2.7
022D6:  CLRF   FAA
022D8:  MOVLW  2A
022DA:  MOVWF  FA9
022DC:  BCF    FA6.6
022DE:  BCF    FA6.7
022E0:  BSF    FA6.0
022E2:  MOVF   FA8,W
022E4:  MOVLB  3
022E6:  BTFSC  xCC.6
022E8:  BSF    FF2.6
022EA:  BTFSC  xCC.7
022EC:  BSF    FF2.7
022EE:  MOVWF  x82
....................    delay_ms(10); 
022F0:  MOVLW  0A
022F2:  MOVWF  xE1
022F4:  MOVLB  0
022F6:  CALL   179C
....................    G2=read_eeprom(43); 
022FA:  MOVFF  FF2,3CC
022FE:  BCF    FF2.6
02300:  BCF    FF2.7
02302:  CLRF   FAA
02304:  MOVLW  2B
02306:  MOVWF  FA9
02308:  BCF    FA6.6
0230A:  BCF    FA6.7
0230C:  BSF    FA6.0
0230E:  MOVF   FA8,W
02310:  MOVLB  3
02312:  BTFSC  xCC.6
02314:  BSF    FF2.6
02316:  BTFSC  xCC.7
02318:  BSF    FF2.7
0231A:  MOVWF  x83
....................    delay_ms(10); 
0231C:  MOVLW  0A
0231E:  MOVWF  xE1
02320:  MOVLB  0
02322:  CALL   179C
....................    sg1=read_eeprom(44); 
02326:  MOVFF  FF2,3CC
0232A:  BCF    FF2.6
0232C:  BCF    FF2.7
0232E:  CLRF   FAA
02330:  MOVLW  2C
02332:  MOVWF  FA9
02334:  BCF    FA6.6
02336:  BCF    FA6.7
02338:  BSF    FA6.0
0233A:  MOVF   FA8,W
0233C:  MOVLB  3
0233E:  BTFSC  xCC.6
02340:  BSF    FF2.6
02342:  BTFSC  xCC.7
02344:  BSF    FF2.7
02346:  MOVWF  x84
....................    delay_ms(10); 
02348:  MOVLW  0A
0234A:  MOVWF  xE1
0234C:  MOVLB  0
0234E:  CALL   179C
....................    sg2=read_eeprom(45); 
02352:  MOVFF  FF2,3CC
02356:  BCF    FF2.6
02358:  BCF    FF2.7
0235A:  CLRF   FAA
0235C:  MOVLW  2D
0235E:  MOVWF  FA9
02360:  BCF    FA6.6
02362:  BCF    FA6.7
02364:  BSF    FA6.0
02366:  MOVF   FA8,W
02368:  MOVLB  3
0236A:  BTFSC  xCC.6
0236C:  BSF    FF2.6
0236E:  BTFSC  xCC.7
02370:  BSF    FF2.7
02372:  MOVWF  x85
....................     
....................    for(i=0;i<4;i++){//Lee valores almacenados de ciclos personalizados 
02374:  CLRF   x3D
02376:  MOVF   x3D,W
02378:  SUBLW  03
0237A:  BTFSS  FD8.0
0237C:  BRA    28B6
....................       CiclosPersonalizados[i].Temperatura=read_eeprom(100+(i*8));  
0237E:  MOVF   x3D,W
02380:  MULLW  0A
02382:  MOVF   FF3,W
02384:  CLRF   xCD
02386:  MOVWF  xCC
02388:  MOVLW  A4
0238A:  ADDWF  xCC,W
0238C:  MOVWF  FE9
0238E:  MOVLW  03
02390:  ADDWFC xCD,W
02392:  MOVWF  FEA
02394:  MOVF   x3D,W
02396:  MULLW  08
02398:  MOVF   FF3,W
0239A:  ADDLW  64
0239C:  MOVWF  xCE
0239E:  MOVFF  FF2,3CF
023A2:  BCF    FF2.6
023A4:  BCF    FF2.7
023A6:  CLRF   FAA
023A8:  MOVFF  3CE,FA9
023AC:  BCF    FA6.6
023AE:  BCF    FA6.7
023B0:  BSF    FA6.0
023B2:  MOVF   FA8,W
023B4:  BTFSC  xCF.6
023B6:  BSF    FF2.6
023B8:  BTFSC  xCF.7
023BA:  BSF    FF2.7
023BC:  MOVWF  FEF
....................       CiclosPersonalizados[i].MinutoestH=read_eeprom(101+(i*8));  
023BE:  MOVF   x3D,W
023C0:  MULLW  0A
023C2:  MOVF   FF3,W
023C4:  CLRF   xCD
023C6:  MOVWF  xCC
023C8:  MOVLW  01
023CA:  ADDWF  xCC,W
023CC:  MOVWF  01
023CE:  MOVLW  00
023D0:  ADDWFC xCD,W
023D2:  MOVWF  03
023D4:  MOVF   01,W
023D6:  ADDLW  A4
023D8:  MOVWF  FE9
023DA:  MOVLW  03
023DC:  ADDWFC 03,W
023DE:  MOVWF  FEA
023E0:  MOVF   x3D,W
023E2:  MULLW  08
023E4:  MOVF   FF3,W
023E6:  ADDLW  65
023E8:  MOVWF  xCE
023EA:  MOVFF  FF2,3CF
023EE:  BCF    FF2.6
023F0:  BCF    FF2.7
023F2:  CLRF   FAA
023F4:  MOVFF  3CE,FA9
023F8:  BCF    FA6.6
023FA:  BCF    FA6.7
023FC:  BSF    FA6.0
023FE:  MOVF   FA8,W
02400:  BTFSC  xCF.6
02402:  BSF    FF2.6
02404:  BTFSC  xCF.7
02406:  BSF    FF2.7
02408:  MOVWF  FEF
....................       CiclosPersonalizados[i].Minutoest=read_eeprom(102+(i*8));  
0240A:  MOVF   x3D,W
0240C:  MULLW  0A
0240E:  MOVF   FF3,W
02410:  CLRF   xCD
02412:  MOVWF  xCC
02414:  MOVLW  09
02416:  ADDWF  xCC,W
02418:  MOVWF  01
0241A:  MOVLW  00
0241C:  ADDWFC xCD,W
0241E:  MOVWF  03
02420:  MOVF   01,W
02422:  ADDLW  A4
02424:  MOVWF  FE9
02426:  MOVLW  03
02428:  ADDWFC 03,W
0242A:  MOVWF  FEA
0242C:  MOVF   x3D,W
0242E:  MULLW  08
02430:  MOVF   FF3,W
02432:  ADDLW  66
02434:  MOVWF  xCE
02436:  MOVFF  FF2,3CF
0243A:  BCF    FF2.6
0243C:  BCF    FF2.7
0243E:  CLRF   FAA
02440:  MOVFF  3CE,FA9
02444:  BCF    FA6.6
02446:  BCF    FA6.7
02448:  BSF    FA6.0
0244A:  MOVF   FA8,W
0244C:  BTFSC  xCF.6
0244E:  BSF    FF2.6
02450:  BTFSC  xCF.7
02452:  BSF    FF2.7
02454:  MOVWF  FEF
....................       CiclosPersonalizados[i].Segundoest=read_eeprom(103+(i*8));  
02456:  MOVF   x3D,W
02458:  MULLW  0A
0245A:  MOVF   FF3,W
0245C:  CLRF   xCD
0245E:  MOVWF  xCC
02460:  MOVLW  03
02462:  ADDWF  xCC,W
02464:  MOVWF  01
02466:  MOVLW  00
02468:  ADDWFC xCD,W
0246A:  MOVWF  03
0246C:  MOVF   01,W
0246E:  ADDLW  A4
02470:  MOVWF  FE9
02472:  MOVLW  03
02474:  ADDWFC 03,W
02476:  MOVWF  FEA
02478:  MOVF   x3D,W
0247A:  MULLW  08
0247C:  MOVF   FF3,W
0247E:  ADDLW  67
02480:  MOVWF  xCE
02482:  MOVFF  FF2,3CF
02486:  BCF    FF2.6
02488:  BCF    FF2.7
0248A:  CLRF   FAA
0248C:  MOVFF  3CE,FA9
02490:  BCF    FA6.6
02492:  BCF    FA6.7
02494:  BSF    FA6.0
02496:  MOVF   FA8,W
02498:  BTFSC  xCF.6
0249A:  BSF    FF2.6
0249C:  BTFSC  xCF.7
0249E:  BSF    FF2.7
024A0:  MOVWF  FEF
....................       CiclosPersonalizados[i].Minutosec=read_eeprom(104+(i*8));  
024A2:  MOVF   x3D,W
024A4:  MULLW  0A
024A6:  MOVF   FF3,W
024A8:  CLRF   xCD
024AA:  MOVWF  xCC
024AC:  MOVLW  04
024AE:  ADDWF  xCC,W
024B0:  MOVWF  01
024B2:  MOVLW  00
024B4:  ADDWFC xCD,W
024B6:  MOVWF  03
024B8:  MOVF   01,W
024BA:  ADDLW  A4
024BC:  MOVWF  FE9
024BE:  MOVLW  03
024C0:  ADDWFC 03,W
024C2:  MOVWF  FEA
024C4:  MOVF   x3D,W
024C6:  MULLW  08
024C8:  MOVF   FF3,W
024CA:  ADDLW  68
024CC:  MOVWF  xCE
024CE:  MOVFF  FF2,3CF
024D2:  BCF    FF2.6
024D4:  BCF    FF2.7
024D6:  CLRF   FAA
024D8:  MOVFF  3CE,FA9
024DC:  BCF    FA6.6
024DE:  BCF    FA6.7
024E0:  BSF    FA6.0
024E2:  MOVF   FA8,W
024E4:  BTFSC  xCF.6
024E6:  BSF    FF2.6
024E8:  BTFSC  xCF.7
024EA:  BSF    FF2.7
024EC:  MOVWF  FEF
....................       CiclosPersonalizados[i].Segundosec=read_eeprom(105+(i*8));  
024EE:  MOVF   x3D,W
024F0:  MULLW  0A
024F2:  MOVF   FF3,W
024F4:  CLRF   xCD
024F6:  MOVWF  xCC
024F8:  MOVLW  05
024FA:  ADDWF  xCC,W
024FC:  MOVWF  01
024FE:  MOVLW  00
02500:  ADDWFC xCD,W
02502:  MOVWF  03
02504:  MOVF   01,W
02506:  ADDLW  A4
02508:  MOVWF  FE9
0250A:  MOVLW  03
0250C:  ADDWFC 03,W
0250E:  MOVWF  FEA
02510:  MOVF   x3D,W
02512:  MULLW  08
02514:  MOVF   FF3,W
02516:  ADDLW  69
02518:  MOVWF  xCE
0251A:  MOVFF  FF2,3CF
0251E:  BCF    FF2.6
02520:  BCF    FF2.7
02522:  CLRF   FAA
02524:  MOVFF  3CE,FA9
02528:  BCF    FA6.6
0252A:  BCF    FA6.7
0252C:  BSF    FA6.0
0252E:  MOVF   FA8,W
02530:  BTFSC  xCF.6
02532:  BSF    FF2.6
02534:  BTFSC  xCF.7
02536:  BSF    FF2.7
02538:  MOVWF  FEF
....................       CiclosPersonalizados[i].PulsosVacio=read_eeprom(106+(i*8));  
0253A:  MOVF   x3D,W
0253C:  MULLW  0A
0253E:  MOVF   FF3,W
02540:  CLRF   xCD
02542:  MOVWF  xCC
02544:  MOVLW  06
02546:  ADDWF  xCC,W
02548:  MOVWF  01
0254A:  MOVLW  00
0254C:  ADDWFC xCD,W
0254E:  MOVWF  03
02550:  MOVF   01,W
02552:  ADDLW  A4
02554:  MOVWF  FE9
02556:  MOVLW  03
02558:  ADDWFC 03,W
0255A:  MOVWF  FEA
0255C:  MOVF   x3D,W
0255E:  MULLW  08
02560:  MOVF   FF3,W
02562:  ADDLW  6A
02564:  MOVWF  xCE
02566:  MOVFF  FF2,3CF
0256A:  BCF    FF2.6
0256C:  BCF    FF2.7
0256E:  CLRF   FAA
02570:  MOVFF  3CE,FA9
02574:  BCF    FA6.6
02576:  BCF    FA6.7
02578:  BSF    FA6.0
0257A:  MOVF   FA8,W
0257C:  BTFSC  xCF.6
0257E:  BSF    FF2.6
02580:  BTFSC  xCF.7
02582:  BSF    FF2.7
02584:  MOVWF  FEF
....................       CiclosPersonalizados[i].NivelDesfogue=read_eeprom(107+(i*8));  
02586:  MOVF   x3D,W
02588:  MULLW  0A
0258A:  MOVF   FF3,W
0258C:  CLRF   xCD
0258E:  MOVWF  xCC
02590:  MOVLW  08
02592:  ADDWF  xCC,W
02594:  MOVWF  01
02596:  MOVLW  00
02598:  ADDWFC xCD,W
0259A:  MOVWF  03
0259C:  MOVF   01,W
0259E:  ADDLW  A4
025A0:  MOVWF  FE9
025A2:  MOVLW  03
025A4:  ADDWFC 03,W
025A6:  MOVWF  FEA
025A8:  MOVF   x3D,W
025AA:  MULLW  08
025AC:  MOVF   FF3,W
025AE:  ADDLW  6B
025B0:  MOVWF  xCE
025B2:  MOVFF  FF2,3CF
025B6:  BCF    FF2.6
025B8:  BCF    FF2.7
025BA:  CLRF   FAA
025BC:  MOVFF  3CE,FA9
025C0:  BCF    FA6.6
025C2:  BCF    FA6.7
025C4:  BSF    FA6.0
025C6:  MOVF   FA8,W
025C8:  BTFSC  xCF.6
025CA:  BSF    FF2.6
025CC:  BTFSC  xCF.7
025CE:  BSF    FF2.7
025D0:  MOVWF  FEF
....................        
....................       if(CiclosPersonalizados[i].Temperatura>134 || CiclosPersonalizados[i].Temperatura<105) 
025D2:  MOVF   x3D,W
025D4:  MULLW  0A
025D6:  MOVF   FF3,W
025D8:  CLRF   xCD
025DA:  MOVWF  xCC
025DC:  MOVLW  A4
025DE:  ADDWF  xCC,W
025E0:  MOVWF  FE9
025E2:  MOVLW  03
025E4:  ADDWFC xCD,W
025E6:  MOVWF  FEA
025E8:  MOVF   FEF,W
025EA:  SUBLW  86
025EC:  BNC   260A
025EE:  MOVF   x3D,W
025F0:  MULLW  0A
025F2:  MOVF   FF3,W
025F4:  CLRF   xCD
025F6:  MOVWF  xCC
025F8:  MOVLW  A4
025FA:  ADDWF  xCC,W
025FC:  MOVWF  FE9
025FE:  MOVLW  03
02600:  ADDWFC xCD,W
02602:  MOVWF  FEA
02604:  MOVF   FEF,W
02606:  SUBLW  68
02608:  BNC   2624
....................          CiclosPersonalizados[i].Temperatura=121; 
0260A:  MOVF   x3D,W
0260C:  MULLW  0A
0260E:  MOVF   FF3,W
02610:  CLRF   xCD
02612:  MOVWF  xCC
02614:  MOVLW  A4
02616:  ADDWF  xCC,W
02618:  MOVWF  FE9
0261A:  MOVLW  03
0261C:  ADDWFC xCD,W
0261E:  MOVWF  FEA
02620:  MOVLW  79
02622:  MOVWF  FEF
....................       if(CiclosPersonalizados[i].Minutoest>59) 
02624:  MOVF   x3D,W
02626:  MULLW  0A
02628:  MOVF   FF3,W
0262A:  CLRF   xCD
0262C:  MOVWF  xCC
0262E:  MOVLW  09
02630:  ADDWF  xCC,W
02632:  MOVWF  01
02634:  MOVLW  00
02636:  ADDWFC xCD,W
02638:  MOVWF  03
0263A:  MOVF   01,W
0263C:  ADDLW  A4
0263E:  MOVWF  FE9
02640:  MOVLW  03
02642:  ADDWFC 03,W
02644:  MOVWF  FEA
02646:  MOVF   FEF,W
02648:  SUBLW  3B
0264A:  BC    2670
....................          CiclosPersonalizados[i].Minutoest=0; 
0264C:  MOVF   x3D,W
0264E:  MULLW  0A
02650:  MOVF   FF3,W
02652:  CLRF   xCD
02654:  MOVWF  xCC
02656:  MOVLW  09
02658:  ADDWF  xCC,W
0265A:  MOVWF  01
0265C:  MOVLW  00
0265E:  ADDWFC xCD,W
02660:  MOVWF  03
02662:  MOVF   01,W
02664:  ADDLW  A4
02666:  MOVWF  FE9
02668:  MOVLW  03
0266A:  ADDWFC 03,W
0266C:  MOVWF  FEA
0266E:  CLRF   FEF
....................       if(CiclosPersonalizados[i].Segundoest>59) 
02670:  MOVF   x3D,W
02672:  MULLW  0A
02674:  MOVF   FF3,W
02676:  CLRF   xCD
02678:  MOVWF  xCC
0267A:  MOVLW  03
0267C:  ADDWF  xCC,W
0267E:  MOVWF  01
02680:  MOVLW  00
02682:  ADDWFC xCD,W
02684:  MOVWF  03
02686:  MOVF   01,W
02688:  ADDLW  A4
0268A:  MOVWF  FE9
0268C:  MOVLW  03
0268E:  ADDWFC 03,W
02690:  MOVWF  FEA
02692:  MOVF   FEF,W
02694:  SUBLW  3B
02696:  BC    26BC
....................          CiclosPersonalizados[i].Segundoest=0; 
02698:  MOVF   x3D,W
0269A:  MULLW  0A
0269C:  MOVF   FF3,W
0269E:  CLRF   xCD
026A0:  MOVWF  xCC
026A2:  MOVLW  03
026A4:  ADDWF  xCC,W
026A6:  MOVWF  01
026A8:  MOVLW  00
026AA:  ADDWFC xCD,W
026AC:  MOVWF  03
026AE:  MOVF   01,W
026B0:  ADDLW  A4
026B2:  MOVWF  FE9
026B4:  MOVLW  03
026B6:  ADDWFC 03,W
026B8:  MOVWF  FEA
026BA:  CLRF   FEF
....................       if(CiclosPersonalizados[i].Minutosec>59) 
026BC:  MOVF   x3D,W
026BE:  MULLW  0A
026C0:  MOVF   FF3,W
026C2:  CLRF   xCD
026C4:  MOVWF  xCC
026C6:  MOVLW  04
026C8:  ADDWF  xCC,W
026CA:  MOVWF  01
026CC:  MOVLW  00
026CE:  ADDWFC xCD,W
026D0:  MOVWF  03
026D2:  MOVF   01,W
026D4:  ADDLW  A4
026D6:  MOVWF  FE9
026D8:  MOVLW  03
026DA:  ADDWFC 03,W
026DC:  MOVWF  FEA
026DE:  MOVF   FEF,W
026E0:  SUBLW  3B
026E2:  BC    2708
....................          CiclosPersonalizados[i].Minutosec=0;    
026E4:  MOVF   x3D,W
026E6:  MULLW  0A
026E8:  MOVF   FF3,W
026EA:  CLRF   xCD
026EC:  MOVWF  xCC
026EE:  MOVLW  04
026F0:  ADDWF  xCC,W
026F2:  MOVWF  01
026F4:  MOVLW  00
026F6:  ADDWFC xCD,W
026F8:  MOVWF  03
026FA:  MOVF   01,W
026FC:  ADDLW  A4
026FE:  MOVWF  FE9
02700:  MOVLW  03
02702:  ADDWFC 03,W
02704:  MOVWF  FEA
02706:  CLRF   FEF
....................       if(CiclosPersonalizados[i].Segundoest>59) 
02708:  MOVF   x3D,W
0270A:  MULLW  0A
0270C:  MOVF   FF3,W
0270E:  CLRF   xCD
02710:  MOVWF  xCC
02712:  MOVLW  03
02714:  ADDWF  xCC,W
02716:  MOVWF  01
02718:  MOVLW  00
0271A:  ADDWFC xCD,W
0271C:  MOVWF  03
0271E:  MOVF   01,W
02720:  ADDLW  A4
02722:  MOVWF  FE9
02724:  MOVLW  03
02726:  ADDWFC 03,W
02728:  MOVWF  FEA
0272A:  MOVF   FEF,W
0272C:  SUBLW  3B
0272E:  BC    2754
....................          CiclosPersonalizados[i].Segundoest=0; 
02730:  MOVF   x3D,W
02732:  MULLW  0A
02734:  MOVF   FF3,W
02736:  CLRF   xCD
02738:  MOVWF  xCC
0273A:  MOVLW  03
0273C:  ADDWF  xCC,W
0273E:  MOVWF  01
02740:  MOVLW  00
02742:  ADDWFC xCD,W
02744:  MOVWF  03
02746:  MOVF   01,W
02748:  ADDLW  A4
0274A:  MOVWF  FE9
0274C:  MOVLW  03
0274E:  ADDWFC 03,W
02750:  MOVWF  FEA
02752:  CLRF   FEF
....................       if(CiclosPersonalizados[i].Segundosec>59) 
02754:  MOVF   x3D,W
02756:  MULLW  0A
02758:  MOVF   FF3,W
0275A:  CLRF   xCD
0275C:  MOVWF  xCC
0275E:  MOVLW  05
02760:  ADDWF  xCC,W
02762:  MOVWF  01
02764:  MOVLW  00
02766:  ADDWFC xCD,W
02768:  MOVWF  03
0276A:  MOVF   01,W
0276C:  ADDLW  A4
0276E:  MOVWF  FE9
02770:  MOVLW  03
02772:  ADDWFC 03,W
02774:  MOVWF  FEA
02776:  MOVF   FEF,W
02778:  SUBLW  3B
0277A:  BC    27A0
....................          CiclosPersonalizados[i].Segundosec=0;       
0277C:  MOVF   x3D,W
0277E:  MULLW  0A
02780:  MOVF   FF3,W
02782:  CLRF   xCD
02784:  MOVWF  xCC
02786:  MOVLW  05
02788:  ADDWF  xCC,W
0278A:  MOVWF  01
0278C:  MOVLW  00
0278E:  ADDWFC xCD,W
02790:  MOVWF  03
02792:  MOVF   01,W
02794:  ADDLW  A4
02796:  MOVWF  FE9
02798:  MOVLW  03
0279A:  ADDWFC 03,W
0279C:  MOVWF  FEA
0279E:  CLRF   FEF
....................       if(CiclosPersonalizados[i].PulsosVacio>15) 
027A0:  MOVF   x3D,W
027A2:  MULLW  0A
027A4:  MOVF   FF3,W
027A6:  CLRF   xCD
027A8:  MOVWF  xCC
027AA:  MOVLW  06
027AC:  ADDWF  xCC,W
027AE:  MOVWF  01
027B0:  MOVLW  00
027B2:  ADDWFC xCD,W
027B4:  MOVWF  03
027B6:  MOVF   01,W
027B8:  ADDLW  A4
027BA:  MOVWF  FE9
027BC:  MOVLW  03
027BE:  ADDWFC 03,W
027C0:  MOVWF  FEA
027C2:  MOVF   FEF,W
027C4:  SUBLW  0F
027C6:  BC    27EE
....................          CiclosPersonalizados[i].PulsosVacio=4; 
027C8:  MOVF   x3D,W
027CA:  MULLW  0A
027CC:  MOVF   FF3,W
027CE:  CLRF   xCD
027D0:  MOVWF  xCC
027D2:  MOVLW  06
027D4:  ADDWF  xCC,W
027D6:  MOVWF  01
027D8:  MOVLW  00
027DA:  ADDWFC xCD,W
027DC:  MOVWF  03
027DE:  MOVF   01,W
027E0:  ADDLW  A4
027E2:  MOVWF  FE9
027E4:  MOVLW  03
027E6:  ADDWFC 03,W
027E8:  MOVWF  FEA
027EA:  MOVLW  04
027EC:  MOVWF  FEF
....................       if(CiclosPersonalizados[i].NivelVacio>100 || CiclosPersonalizados[i].NivelVacio<10) 
027EE:  MOVF   x3D,W
027F0:  MULLW  0A
027F2:  MOVF   FF3,W
027F4:  CLRF   xCD
027F6:  MOVWF  xCC
027F8:  MOVLW  07
027FA:  ADDWF  xCC,W
027FC:  MOVWF  01
027FE:  MOVLW  00
02800:  ADDWFC xCD,W
02802:  MOVWF  03
02804:  MOVF   01,W
02806:  ADDLW  A4
02808:  MOVWF  FE9
0280A:  MOVLW  03
0280C:  ADDWFC 03,W
0280E:  MOVWF  FEA
02810:  MOVF   FEF,W
02812:  SUBLW  64
02814:  BNC   283E
02816:  MOVF   x3D,W
02818:  MULLW  0A
0281A:  MOVF   FF3,W
0281C:  CLRF   xCD
0281E:  MOVWF  xCC
02820:  MOVLW  07
02822:  ADDWF  xCC,W
02824:  MOVWF  01
02826:  MOVLW  00
02828:  ADDWFC xCD,W
0282A:  MOVWF  03
0282C:  MOVF   01,W
0282E:  ADDLW  A4
02830:  MOVWF  FE9
02832:  MOVLW  03
02834:  ADDWFC 03,W
02836:  MOVWF  FEA
02838:  MOVF   FEF,W
0283A:  SUBLW  09
0283C:  BNC   2864
....................          CiclosPersonalizados[i].NivelVacio=25;    
0283E:  MOVF   x3D,W
02840:  MULLW  0A
02842:  MOVF   FF3,W
02844:  CLRF   xCD
02846:  MOVWF  xCC
02848:  MOVLW  07
0284A:  ADDWF  xCC,W
0284C:  MOVWF  01
0284E:  MOVLW  00
02850:  ADDWFC xCD,W
02852:  MOVWF  03
02854:  MOVF   01,W
02856:  ADDLW  A4
02858:  MOVWF  FE9
0285A:  MOVLW  03
0285C:  ADDWFC 03,W
0285E:  MOVWF  FEA
02860:  MOVLW  19
02862:  MOVWF  FEF
....................       if(CiclosPersonalizados[i].NivelDesfogue>6) 
02864:  MOVF   x3D,W
02866:  MULLW  0A
02868:  MOVF   FF3,W
0286A:  CLRF   xCD
0286C:  MOVWF  xCC
0286E:  MOVLW  08
02870:  ADDWF  xCC,W
02872:  MOVWF  01
02874:  MOVLW  00
02876:  ADDWFC xCD,W
02878:  MOVWF  03
0287A:  MOVF   01,W
0287C:  ADDLW  A4
0287E:  MOVWF  FE9
02880:  MOVLW  03
02882:  ADDWFC 03,W
02884:  MOVWF  FEA
02886:  MOVF   FEF,W
02888:  SUBLW  06
0288A:  BC    28B2
....................          CiclosPersonalizados[i].NivelDesfogue=6; 
0288C:  MOVF   x3D,W
0288E:  MULLW  0A
02890:  MOVF   FF3,W
02892:  CLRF   xCD
02894:  MOVWF  xCC
02896:  MOVLW  08
02898:  ADDWF  xCC,W
0289A:  MOVWF  01
0289C:  MOVLW  00
0289E:  ADDWFC xCD,W
028A0:  MOVWF  03
028A2:  MOVF   01,W
028A4:  ADDLW  A4
028A6:  MOVWF  FE9
028A8:  MOVLW  03
028AA:  ADDWFC 03,W
028AC:  MOVWF  FEA
028AE:  MOVLW  06
028B0:  MOVWF  FEF
....................    } 
028B2:  INCF   x3D,F
028B4:  BRA    2376
.................... } 
028B6:  MOVLB  0
028B8:  GOTO   57D0 (RETURN)
....................  
.................... void LimitaValores(){ 
....................    if(Testerilizacionp[0]>9 || Testerilizacionp[0]<0){ 
*
02A6A:  BTFSC  xB9.7
02A6C:  BRA    2A74
02A6E:  MOVF   xB9,W
02A70:  SUBLW  09
02A72:  BNC   2A7A
02A74:  BTFSC  xB9.7
02A76:  BRA    2A7A
02A78:  BRA    2AB2
....................       Testerilizacionp[0]=0; 
02A7A:  CLRF   xB9
....................       write_eeprom(0,0); 
02A7C:  CLRF   FAA
02A7E:  CLRF   FA9
02A80:  CLRF   FA8
02A82:  BCF    FA6.6
02A84:  BCF    FA6.7
02A86:  BSF    FA6.2
02A88:  MOVF   FF2,W
02A8A:  MOVWF  00
02A8C:  BCF    FF2.6
02A8E:  BCF    FF2.7
02A90:  MOVLB  F
02A92:  MOVLW  55
02A94:  MOVWF  FA7
02A96:  MOVLW  AA
02A98:  MOVWF  FA7
02A9A:  BSF    FA6.1
02A9C:  BTFSC  FA6.1
02A9E:  BRA    2A9C
02AA0:  BCF    FA6.2
02AA2:  MOVF   00,W
02AA4:  IORWF  FF2,F
....................       delay_ms(10); 
02AA6:  MOVLW  0A
02AA8:  MOVLB  3
02AAA:  MOVWF  xE1
02AAC:  MOVLB  0
02AAE:  CALL   179C
....................    } 
....................    if(Testerilizacionp[1]>9 || Testerilizacionp[1]<0){ 
02AB2:  BTFSC  xBA.7
02AB4:  BRA    2ABC
02AB6:  MOVF   xBA,W
02AB8:  SUBLW  09
02ABA:  BNC   2AC2
02ABC:  BTFSC  xBA.7
02ABE:  BRA    2AC2
02AC0:  BRA    2AFC
....................       Testerilizacionp[1]=0; 
02AC2:  CLRF   xBA
....................       write_eeprom(1,0); 
02AC4:  CLRF   FAA
02AC6:  MOVLW  01
02AC8:  MOVWF  FA9
02ACA:  CLRF   FA8
02ACC:  BCF    FA6.6
02ACE:  BCF    FA6.7
02AD0:  BSF    FA6.2
02AD2:  MOVF   FF2,W
02AD4:  MOVWF  00
02AD6:  BCF    FF2.6
02AD8:  BCF    FF2.7
02ADA:  MOVLB  F
02ADC:  MOVLW  55
02ADE:  MOVWF  FA7
02AE0:  MOVLW  AA
02AE2:  MOVWF  FA7
02AE4:  BSF    FA6.1
02AE6:  BTFSC  FA6.1
02AE8:  BRA    2AE6
02AEA:  BCF    FA6.2
02AEC:  MOVF   00,W
02AEE:  IORWF  FF2,F
....................       delay_ms(10); 
02AF0:  MOVLW  0A
02AF2:  MOVLB  3
02AF4:  MOVWF  xE1
02AF6:  MOVLB  0
02AF8:  CALL   179C
....................    } 
....................    if(Testerilizacionp[2]>9 || Testerilizacionp[2]<0){ 
02AFC:  BTFSC  xBB.7
02AFE:  BRA    2B06
02B00:  MOVF   xBB,W
02B02:  SUBLW  09
02B04:  BNC   2B0C
02B06:  BTFSC  xBB.7
02B08:  BRA    2B0C
02B0A:  BRA    2B46
....................       Testerilizacionp[2]=0; 
02B0C:  CLRF   xBB
....................       write_eeprom(2,0); 
02B0E:  CLRF   FAA
02B10:  MOVLW  02
02B12:  MOVWF  FA9
02B14:  CLRF   FA8
02B16:  BCF    FA6.6
02B18:  BCF    FA6.7
02B1A:  BSF    FA6.2
02B1C:  MOVF   FF2,W
02B1E:  MOVWF  00
02B20:  BCF    FF2.6
02B22:  BCF    FF2.7
02B24:  MOVLB  F
02B26:  MOVLW  55
02B28:  MOVWF  FA7
02B2A:  MOVLW  AA
02B2C:  MOVWF  FA7
02B2E:  BSF    FA6.1
02B30:  BTFSC  FA6.1
02B32:  BRA    2B30
02B34:  BCF    FA6.2
02B36:  MOVF   00,W
02B38:  IORWF  FF2,F
....................       delay_ms(10); 
02B3A:  MOVLW  0A
02B3C:  MOVLB  3
02B3E:  MOVWF  xE1
02B40:  MOVLB  0
02B42:  CALL   179C
....................    } 
....................    if(Testerilizacionp[3]>9 || Testerilizacionp[3]<0){ 
02B46:  BTFSC  xBC.7
02B48:  BRA    2B50
02B4A:  MOVF   xBC,W
02B4C:  SUBLW  09
02B4E:  BNC   2B56
02B50:  BTFSC  xBC.7
02B52:  BRA    2B56
02B54:  BRA    2B90
....................       Testerilizacionp[3]=0; 
02B56:  CLRF   xBC
....................       write_eeprom(3,0); 
02B58:  CLRF   FAA
02B5A:  MOVLW  03
02B5C:  MOVWF  FA9
02B5E:  CLRF   FA8
02B60:  BCF    FA6.6
02B62:  BCF    FA6.7
02B64:  BSF    FA6.2
02B66:  MOVF   FF2,W
02B68:  MOVWF  00
02B6A:  BCF    FF2.6
02B6C:  BCF    FF2.7
02B6E:  MOVLB  F
02B70:  MOVLW  55
02B72:  MOVWF  FA7
02B74:  MOVLW  AA
02B76:  MOVWF  FA7
02B78:  BSF    FA6.1
02B7A:  BTFSC  FA6.1
02B7C:  BRA    2B7A
02B7E:  BCF    FA6.2
02B80:  MOVF   00,W
02B82:  IORWF  FF2,F
....................       delay_ms(10); 
02B84:  MOVLW  0A
02B86:  MOVLB  3
02B88:  MOVWF  xE1
02B8A:  MOVLB  0
02B8C:  CALL   179C
....................    } 
....................    if(Tsecadop[0]>9 || Tsecadop[0]<0){ 
02B90:  BTFSC  xC2.7
02B92:  BRA    2B9A
02B94:  MOVF   xC2,W
02B96:  SUBLW  09
02B98:  BNC   2BA0
02B9A:  BTFSC  xC2.7
02B9C:  BRA    2BA0
02B9E:  BRA    2BDA
....................       Tsecadop[0]=0; 
02BA0:  CLRF   xC2
....................       write_eeprom(4,0); 
02BA2:  CLRF   FAA
02BA4:  MOVLW  04
02BA6:  MOVWF  FA9
02BA8:  CLRF   FA8
02BAA:  BCF    FA6.6
02BAC:  BCF    FA6.7
02BAE:  BSF    FA6.2
02BB0:  MOVF   FF2,W
02BB2:  MOVWF  00
02BB4:  BCF    FF2.6
02BB6:  BCF    FF2.7
02BB8:  MOVLB  F
02BBA:  MOVLW  55
02BBC:  MOVWF  FA7
02BBE:  MOVLW  AA
02BC0:  MOVWF  FA7
02BC2:  BSF    FA6.1
02BC4:  BTFSC  FA6.1
02BC6:  BRA    2BC4
02BC8:  BCF    FA6.2
02BCA:  MOVF   00,W
02BCC:  IORWF  FF2,F
....................       delay_ms(10); 
02BCE:  MOVLW  0A
02BD0:  MOVLB  3
02BD2:  MOVWF  xE1
02BD4:  MOVLB  0
02BD6:  CALL   179C
....................    } 
....................    if(Tsecadop[1]>9 || Tsecadop[1]<0){ 
02BDA:  BTFSC  xC3.7
02BDC:  BRA    2BE4
02BDE:  MOVF   xC3,W
02BE0:  SUBLW  09
02BE2:  BNC   2BEA
02BE4:  BTFSC  xC3.7
02BE6:  BRA    2BEA
02BE8:  BRA    2C24
....................       Tsecadop[1]=0; 
02BEA:  CLRF   xC3
....................       write_eeprom(5,0); 
02BEC:  CLRF   FAA
02BEE:  MOVLW  05
02BF0:  MOVWF  FA9
02BF2:  CLRF   FA8
02BF4:  BCF    FA6.6
02BF6:  BCF    FA6.7
02BF8:  BSF    FA6.2
02BFA:  MOVF   FF2,W
02BFC:  MOVWF  00
02BFE:  BCF    FF2.6
02C00:  BCF    FF2.7
02C02:  MOVLB  F
02C04:  MOVLW  55
02C06:  MOVWF  FA7
02C08:  MOVLW  AA
02C0A:  MOVWF  FA7
02C0C:  BSF    FA6.1
02C0E:  BTFSC  FA6.1
02C10:  BRA    2C0E
02C12:  BCF    FA6.2
02C14:  MOVF   00,W
02C16:  IORWF  FF2,F
....................       delay_ms(10); 
02C18:  MOVLW  0A
02C1A:  MOVLB  3
02C1C:  MOVWF  xE1
02C1E:  MOVLB  0
02C20:  CALL   179C
....................    } 
....................    if(Tsecadop[2]>9 || Tsecadop[2]<0){ 
02C24:  BTFSC  xC4.7
02C26:  BRA    2C2E
02C28:  MOVF   xC4,W
02C2A:  SUBLW  09
02C2C:  BNC   2C34
02C2E:  BTFSC  xC4.7
02C30:  BRA    2C34
02C32:  BRA    2C6E
....................       Tsecadop[2]=0; 
02C34:  CLRF   xC4
....................       write_eeprom(6,0); 
02C36:  CLRF   FAA
02C38:  MOVLW  06
02C3A:  MOVWF  FA9
02C3C:  CLRF   FA8
02C3E:  BCF    FA6.6
02C40:  BCF    FA6.7
02C42:  BSF    FA6.2
02C44:  MOVF   FF2,W
02C46:  MOVWF  00
02C48:  BCF    FF2.6
02C4A:  BCF    FF2.7
02C4C:  MOVLB  F
02C4E:  MOVLW  55
02C50:  MOVWF  FA7
02C52:  MOVLW  AA
02C54:  MOVWF  FA7
02C56:  BSF    FA6.1
02C58:  BTFSC  FA6.1
02C5A:  BRA    2C58
02C5C:  BCF    FA6.2
02C5E:  MOVF   00,W
02C60:  IORWF  FF2,F
....................       delay_ms(10); 
02C62:  MOVLW  0A
02C64:  MOVLB  3
02C66:  MOVWF  xE1
02C68:  MOVLB  0
02C6A:  CALL   179C
....................    } 
....................    if(Tsecadop[3]>9 || Tsecadop[3]<0){ 
02C6E:  BTFSC  xC5.7
02C70:  BRA    2C78
02C72:  MOVF   xC5,W
02C74:  SUBLW  09
02C76:  BNC   2C7E
02C78:  BTFSC  xC5.7
02C7A:  BRA    2C7E
02C7C:  BRA    2CB8
....................       Tsecadop[3]=0; 
02C7E:  CLRF   xC5
....................       write_eeprom(7,0); 
02C80:  CLRF   FAA
02C82:  MOVLW  07
02C84:  MOVWF  FA9
02C86:  CLRF   FA8
02C88:  BCF    FA6.6
02C8A:  BCF    FA6.7
02C8C:  BSF    FA6.2
02C8E:  MOVF   FF2,W
02C90:  MOVWF  00
02C92:  BCF    FF2.6
02C94:  BCF    FF2.7
02C96:  MOVLB  F
02C98:  MOVLW  55
02C9A:  MOVWF  FA7
02C9C:  MOVLW  AA
02C9E:  MOVWF  FA7
02CA0:  BSF    FA6.1
02CA2:  BTFSC  FA6.1
02CA4:  BRA    2CA2
02CA6:  BCF    FA6.2
02CA8:  MOVF   00,W
02CAA:  IORWF  FF2,F
....................       delay_ms(10); 
02CAC:  MOVLW  0A
02CAE:  MOVLB  3
02CB0:  MOVWF  xE1
02CB2:  MOVLB  0
02CB4:  CALL   179C
....................    } 
....................    if(Setpoint>134){ 
02CB8:  MOVLB  3
02CBA:  MOVF   x41,W
02CBC:  SUBLW  86
02CBE:  BC    2D00
....................       Setpoint=134; 
02CC0:  MOVLW  86
02CC2:  MOVWF  x41
....................       write_eeprom(8,134); 
02CC4:  CLRF   FAA
02CC6:  MOVLW  08
02CC8:  MOVWF  FA9
02CCA:  MOVLW  86
02CCC:  MOVWF  FA8
02CCE:  BCF    FA6.6
02CD0:  BCF    FA6.7
02CD2:  BSF    FA6.2
02CD4:  MOVF   FF2,W
02CD6:  MOVWF  00
02CD8:  BCF    FF2.6
02CDA:  BCF    FF2.7
02CDC:  MOVLB  F
02CDE:  MOVLW  55
02CE0:  MOVWF  FA7
02CE2:  MOVLW  AA
02CE4:  MOVWF  FA7
02CE6:  BSF    FA6.1
02CE8:  BTFSC  FA6.1
02CEA:  BRA    2CE8
02CEC:  BCF    FA6.2
02CEE:  MOVF   00,W
02CF0:  IORWF  FF2,F
....................       delay_ms(10); 
02CF2:  MOVLW  0A
02CF4:  MOVLB  3
02CF6:  MOVWF  xE1
02CF8:  MOVLB  0
02CFA:  CALL   179C
02CFE:  MOVLB  3
....................    } 
....................    if(Nivel>6){ 
02D00:  MOVF   x50,F
02D02:  BNZ   2D0A
02D04:  MOVF   x4F,W
02D06:  SUBLW  06
02D08:  BC    2D4C
....................       Nivel=3; 
02D0A:  CLRF   x50
02D0C:  MOVLW  03
02D0E:  MOVWF  x4F
....................       write_eeprom(9,3); 
02D10:  CLRF   FAA
02D12:  MOVLW  09
02D14:  MOVWF  FA9
02D16:  MOVLW  03
02D18:  MOVWF  FA8
02D1A:  BCF    FA6.6
02D1C:  BCF    FA6.7
02D1E:  BSF    FA6.2
02D20:  MOVF   FF2,W
02D22:  MOVWF  00
02D24:  BCF    FF2.6
02D26:  BCF    FF2.7
02D28:  MOVLB  F
02D2A:  MOVLW  55
02D2C:  MOVWF  FA7
02D2E:  MOVLW  AA
02D30:  MOVWF  FA7
02D32:  BSF    FA6.1
02D34:  BTFSC  FA6.1
02D36:  BRA    2D34
02D38:  BCF    FA6.2
02D3A:  MOVF   00,W
02D3C:  IORWF  FF2,F
....................       delay_ms(10); 
02D3E:  MOVLW  0A
02D40:  MOVLB  3
02D42:  MOVWF  xE1
02D44:  MOVLB  0
02D46:  CALL   179C
02D4A:  MOVLB  3
....................    } 
....................    if(Password[0]>9 || Password[0]<0){ 
02D4C:  BTFSC  x5F.7
02D4E:  BRA    2D56
02D50:  MOVF   x5F,W
02D52:  SUBLW  09
02D54:  BNC   2D5C
02D56:  BTFSC  x5F.7
02D58:  BRA    2D5C
02D5A:  BRA    2D98
....................       Password[0]=0; 
02D5C:  CLRF   x5F
....................       write_eeprom(10,0); 
02D5E:  CLRF   FAA
02D60:  MOVLW  0A
02D62:  MOVWF  FA9
02D64:  CLRF   FA8
02D66:  BCF    FA6.6
02D68:  BCF    FA6.7
02D6A:  BSF    FA6.2
02D6C:  MOVF   FF2,W
02D6E:  MOVWF  00
02D70:  BCF    FF2.6
02D72:  BCF    FF2.7
02D74:  MOVLB  F
02D76:  MOVLW  55
02D78:  MOVWF  FA7
02D7A:  MOVLW  AA
02D7C:  MOVWF  FA7
02D7E:  BSF    FA6.1
02D80:  BTFSC  FA6.1
02D82:  BRA    2D80
02D84:  BCF    FA6.2
02D86:  MOVF   00,W
02D88:  IORWF  FF2,F
....................       delay_ms(10); 
02D8A:  MOVLW  0A
02D8C:  MOVLB  3
02D8E:  MOVWF  xE1
02D90:  MOVLB  0
02D92:  CALL   179C
02D96:  MOVLB  3
....................    } 
....................    if(Password[1]>9 || Password[1]<0){ 
02D98:  BTFSC  x60.7
02D9A:  BRA    2DA2
02D9C:  MOVF   x60,W
02D9E:  SUBLW  09
02DA0:  BNC   2DA8
02DA2:  BTFSC  x60.7
02DA4:  BRA    2DA8
02DA6:  BRA    2DE4
....................       Password[1]=0; 
02DA8:  CLRF   x60
....................       write_eeprom(11,0); 
02DAA:  CLRF   FAA
02DAC:  MOVLW  0B
02DAE:  MOVWF  FA9
02DB0:  CLRF   FA8
02DB2:  BCF    FA6.6
02DB4:  BCF    FA6.7
02DB6:  BSF    FA6.2
02DB8:  MOVF   FF2,W
02DBA:  MOVWF  00
02DBC:  BCF    FF2.6
02DBE:  BCF    FF2.7
02DC0:  MOVLB  F
02DC2:  MOVLW  55
02DC4:  MOVWF  FA7
02DC6:  MOVLW  AA
02DC8:  MOVWF  FA7
02DCA:  BSF    FA6.1
02DCC:  BTFSC  FA6.1
02DCE:  BRA    2DCC
02DD0:  BCF    FA6.2
02DD2:  MOVF   00,W
02DD4:  IORWF  FF2,F
....................       delay_ms(10); 
02DD6:  MOVLW  0A
02DD8:  MOVLB  3
02DDA:  MOVWF  xE1
02DDC:  MOVLB  0
02DDE:  CALL   179C
02DE2:  MOVLB  3
....................    } 
....................    if(Password[2]>9 || Password[2]<0){ 
02DE4:  BTFSC  x61.7
02DE6:  BRA    2DEE
02DE8:  MOVF   x61,W
02DEA:  SUBLW  09
02DEC:  BNC   2DF4
02DEE:  BTFSC  x61.7
02DF0:  BRA    2DF4
02DF2:  BRA    2E30
....................       Password[2]=0; 
02DF4:  CLRF   x61
....................       write_eeprom(12,0); 
02DF6:  CLRF   FAA
02DF8:  MOVLW  0C
02DFA:  MOVWF  FA9
02DFC:  CLRF   FA8
02DFE:  BCF    FA6.6
02E00:  BCF    FA6.7
02E02:  BSF    FA6.2
02E04:  MOVF   FF2,W
02E06:  MOVWF  00
02E08:  BCF    FF2.6
02E0A:  BCF    FF2.7
02E0C:  MOVLB  F
02E0E:  MOVLW  55
02E10:  MOVWF  FA7
02E12:  MOVLW  AA
02E14:  MOVWF  FA7
02E16:  BSF    FA6.1
02E18:  BTFSC  FA6.1
02E1A:  BRA    2E18
02E1C:  BCF    FA6.2
02E1E:  MOVF   00,W
02E20:  IORWF  FF2,F
....................       delay_ms(10); 
02E22:  MOVLW  0A
02E24:  MOVLB  3
02E26:  MOVWF  xE1
02E28:  MOVLB  0
02E2A:  CALL   179C
02E2E:  MOVLB  3
....................    } 
....................    if(Password[3]>9 || Password[3]<0){ 
02E30:  BTFSC  x62.7
02E32:  BRA    2E3A
02E34:  MOVF   x62,W
02E36:  SUBLW  09
02E38:  BNC   2E40
02E3A:  BTFSC  x62.7
02E3C:  BRA    2E40
02E3E:  BRA    2E7C
....................       Password[3]=0; 
02E40:  CLRF   x62
....................       write_eeprom(13,0); 
02E42:  CLRF   FAA
02E44:  MOVLW  0D
02E46:  MOVWF  FA9
02E48:  CLRF   FA8
02E4A:  BCF    FA6.6
02E4C:  BCF    FA6.7
02E4E:  BSF    FA6.2
02E50:  MOVF   FF2,W
02E52:  MOVWF  00
02E54:  BCF    FF2.6
02E56:  BCF    FF2.7
02E58:  MOVLB  F
02E5A:  MOVLW  55
02E5C:  MOVWF  FA7
02E5E:  MOVLW  AA
02E60:  MOVWF  FA7
02E62:  BSF    FA6.1
02E64:  BTFSC  FA6.1
02E66:  BRA    2E64
02E68:  BCF    FA6.2
02E6A:  MOVF   00,W
02E6C:  IORWF  FF2,F
....................       delay_ms(10); 
02E6E:  MOVLW  0A
02E70:  MOVLB  3
02E72:  MOVWF  xE1
02E74:  MOVLB  0
02E76:  CALL   179C
02E7A:  MOVLB  3
....................    } 
....................    if(Ganancia>20.0){ 
02E7C:  CLRF   xD3
02E7E:  CLRF   xD2
02E80:  MOVLW  20
02E82:  MOVWF  xD1
02E84:  MOVLW  83
02E86:  MOVWF  xD0
02E88:  MOVFF  2FB,3D7
02E8C:  MOVFF  2FA,3D6
02E90:  MOVFF  2F9,3D5
02E94:  MOVFF  2F8,3D4
02E98:  MOVLB  0
02E9A:  RCALL  29A2
02E9C:  BNC   2EE6
....................       Ganancia=12.0; 
02E9E:  MOVLB  2
02EA0:  CLRF   xFB
02EA2:  CLRF   xFA
02EA4:  MOVLW  40
02EA6:  MOVWF  xF9
02EA8:  MOVLW  82
02EAA:  MOVWF  xF8
....................       write_eeprom(20,12); 
02EAC:  CLRF   FAA
02EAE:  MOVLW  14
02EB0:  MOVWF  FA9
02EB2:  MOVLW  0C
02EB4:  MOVWF  FA8
02EB6:  BCF    FA6.6
02EB8:  BCF    FA6.7
02EBA:  BSF    FA6.2
02EBC:  MOVF   FF2,W
02EBE:  MOVWF  00
02EC0:  BCF    FF2.6
02EC2:  BCF    FF2.7
02EC4:  MOVLB  F
02EC6:  MOVLW  55
02EC8:  MOVWF  FA7
02ECA:  MOVLW  AA
02ECC:  MOVWF  FA7
02ECE:  BSF    FA6.1
02ED0:  BTFSC  FA6.1
02ED2:  BRA    2ED0
02ED4:  BCF    FA6.2
02ED6:  MOVF   00,W
02ED8:  IORWF  FF2,F
....................       delay_ms(10); 
02EDA:  MOVLW  0A
02EDC:  MOVLB  3
02EDE:  MOVWF  xE1
02EE0:  MOVLB  0
02EE2:  CALL   179C
....................    } 
....................    if(Ajuste>10){ 
02EE6:  MOVLB  2
02EE8:  MOVF   xD0,W
02EEA:  SUBLW  0A
02EEC:  BC    2F2A
....................       Ajuste=0; 
02EEE:  CLRF   xD0
....................       write_eeprom(21,0); 
02EF0:  CLRF   FAA
02EF2:  MOVLW  15
02EF4:  MOVWF  FA9
02EF6:  CLRF   FA8
02EF8:  BCF    FA6.6
02EFA:  BCF    FA6.7
02EFC:  BSF    FA6.2
02EFE:  MOVF   FF2,W
02F00:  MOVWF  00
02F02:  BCF    FF2.6
02F04:  BCF    FF2.7
02F06:  MOVLB  F
02F08:  MOVLW  55
02F0A:  MOVWF  FA7
02F0C:  MOVLW  AA
02F0E:  MOVWF  FA7
02F10:  BSF    FA6.1
02F12:  BTFSC  FA6.1
02F14:  BRA    2F12
02F16:  BCF    FA6.2
02F18:  MOVF   00,W
02F1A:  IORWF  FF2,F
....................       delay_ms(10); 
02F1C:  MOVLW  0A
02F1E:  MOVLB  3
02F20:  MOVWF  xE1
02F22:  MOVLB  0
02F24:  CALL   179C
02F28:  MOVLB  2
....................    } 
....................    if(Ajusten>10){ 
02F2A:  MOVF   xD1,W
02F2C:  SUBLW  0A
02F2E:  BC    2F6C
....................       Ajusten=0; 
02F30:  CLRF   xD1
....................       write_eeprom(22,0); 
02F32:  CLRF   FAA
02F34:  MOVLW  16
02F36:  MOVWF  FA9
02F38:  CLRF   FA8
02F3A:  BCF    FA6.6
02F3C:  BCF    FA6.7
02F3E:  BSF    FA6.2
02F40:  MOVF   FF2,W
02F42:  MOVWF  00
02F44:  BCF    FF2.6
02F46:  BCF    FF2.7
02F48:  MOVLB  F
02F4A:  MOVLW  55
02F4C:  MOVWF  FA7
02F4E:  MOVLW  AA
02F50:  MOVWF  FA7
02F52:  BSF    FA6.1
02F54:  BTFSC  FA6.1
02F56:  BRA    2F54
02F58:  BCF    FA6.2
02F5A:  MOVF   00,W
02F5C:  IORWF  FF2,F
....................       delay_ms(10); 
02F5E:  MOVLW  0A
02F60:  MOVLB  3
02F62:  MOVWF  xE1
02F64:  MOVLB  0
02F66:  CALL   179C
02F6A:  MOVLB  2
....................    } 
....................    if(MediaMovil>80){ 
02F6C:  MOVF   xD2,W
02F6E:  SUBLW  50
02F70:  BC    2FB0
....................       MediaMovil=80; 
02F72:  MOVLW  50
02F74:  MOVWF  xD2
....................       write_eeprom(24,80); 
02F76:  CLRF   FAA
02F78:  MOVLW  18
02F7A:  MOVWF  FA9
02F7C:  MOVLW  50
02F7E:  MOVWF  FA8
02F80:  BCF    FA6.6
02F82:  BCF    FA6.7
02F84:  BSF    FA6.2
02F86:  MOVF   FF2,W
02F88:  MOVWF  00
02F8A:  BCF    FF2.6
02F8C:  BCF    FF2.7
02F8E:  MOVLB  F
02F90:  MOVLW  55
02F92:  MOVWF  FA7
02F94:  MOVLW  AA
02F96:  MOVWF  FA7
02F98:  BSF    FA6.1
02F9A:  BTFSC  FA6.1
02F9C:  BRA    2F9A
02F9E:  BCF    FA6.2
02FA0:  MOVF   00,W
02FA2:  IORWF  FF2,F
....................       delay_ms(10); 
02FA4:  MOVLW  0A
02FA6:  MOVLB  3
02FA8:  MOVWF  xE1
02FAA:  MOVLB  0
02FAC:  CALL   179C
....................    } 
....................    if(Tciclo>10){ 
02FB0:  MOVLB  3
02FB2:  CLRF   xD3
02FB4:  CLRF   xD2
02FB6:  MOVLW  20
02FB8:  MOVWF  xD1
02FBA:  MOVLW  82
02FBC:  MOVWF  xD0
02FBE:  MOVFF  2E3,3D7
02FC2:  MOVFF  2E2,3D6
02FC6:  MOVFF  2E1,3D5
02FCA:  MOVFF  2E0,3D4
02FCE:  MOVLB  0
02FD0:  RCALL  29A2
02FD2:  BNC   301C
....................       Tciclo=10; 
02FD4:  MOVLB  2
02FD6:  CLRF   xE3
02FD8:  CLRF   xE2
02FDA:  MOVLW  20
02FDC:  MOVWF  xE1
02FDE:  MOVLW  82
02FE0:  MOVWF  xE0
....................       write_eeprom(25,10); 
02FE2:  CLRF   FAA
02FE4:  MOVLW  19
02FE6:  MOVWF  FA9
02FE8:  MOVLW  0A
02FEA:  MOVWF  FA8
02FEC:  BCF    FA6.6
02FEE:  BCF    FA6.7
02FF0:  BSF    FA6.2
02FF2:  MOVF   FF2,W
02FF4:  MOVWF  00
02FF6:  BCF    FF2.6
02FF8:  BCF    FF2.7
02FFA:  MOVLB  F
02FFC:  MOVLW  55
02FFE:  MOVWF  FA7
03000:  MOVLW  AA
03002:  MOVWF  FA7
03004:  BSF    FA6.1
03006:  BTFSC  FA6.1
03008:  BRA    3006
0300A:  BCF    FA6.2
0300C:  MOVF   00,W
0300E:  IORWF  FF2,F
....................       delay_ms(10); 
03010:  MOVLW  0A
03012:  MOVLB  3
03014:  MOVWF  xE1
03016:  MOVLB  0
03018:  CALL   179C
....................    } 
....................    if(Integral>4.0){ 
0301C:  MOVLB  3
0301E:  CLRF   xE2
03020:  MOVFF  32C,3E1
03024:  MOVLB  0
03026:  CALL   17C4
0302A:  MOVLB  3
0302C:  CLRF   xD3
0302E:  CLRF   xD2
03030:  CLRF   xD1
03032:  MOVLW  81
03034:  MOVWF  xD0
03036:  MOVFF  03,3D7
0303A:  MOVFF  02,3D6
0303E:  MOVFF  01,3D5
03042:  MOVFF  00,3D4
03046:  MOVLB  0
03048:  RCALL  29A2
0304A:  BNC   308C
....................       Integral=1.0; 
0304C:  MOVLW  01
0304E:  MOVLB  3
03050:  MOVWF  x2C
....................       write_eeprom(26,1); 
03052:  CLRF   FAA
03054:  MOVLW  1A
03056:  MOVWF  FA9
03058:  MOVLW  01
0305A:  MOVWF  FA8
0305C:  BCF    FA6.6
0305E:  BCF    FA6.7
03060:  BSF    FA6.2
03062:  MOVF   FF2,W
03064:  MOVWF  00
03066:  BCF    FF2.6
03068:  BCF    FF2.7
0306A:  MOVLB  F
0306C:  MOVLW  55
0306E:  MOVWF  FA7
03070:  MOVLW  AA
03072:  MOVWF  FA7
03074:  BSF    FA6.1
03076:  BTFSC  FA6.1
03078:  BRA    3076
0307A:  BCF    FA6.2
0307C:  MOVF   00,W
0307E:  IORWF  FF2,F
....................       delay_ms(10); 
03080:  MOVLW  0A
03082:  MOVLB  3
03084:  MOVWF  xE1
03086:  MOVLB  0
03088:  CALL   179C
....................    } 
....................    if(Derivativo>20.0){ 
0308C:  MOVLB  3
0308E:  CLRF   xE2
03090:  MOVFF  32D,3E1
03094:  MOVLB  0
03096:  CALL   17C4
0309A:  MOVLB  3
0309C:  CLRF   xD3
0309E:  CLRF   xD2
030A0:  MOVLW  20
030A2:  MOVWF  xD1
030A4:  MOVLW  83
030A6:  MOVWF  xD0
030A8:  MOVFF  03,3D7
030AC:  MOVFF  02,3D6
030B0:  MOVFF  01,3D5
030B4:  MOVFF  00,3D4
030B8:  MOVLB  0
030BA:  RCALL  29A2
030BC:  BNC   30FE
....................       Derivativo=15.0; 
030BE:  MOVLW  0F
030C0:  MOVLB  3
030C2:  MOVWF  x2D
....................       write_eeprom(27,15); 
030C4:  CLRF   FAA
030C6:  MOVLW  1B
030C8:  MOVWF  FA9
030CA:  MOVLW  0F
030CC:  MOVWF  FA8
030CE:  BCF    FA6.6
030D0:  BCF    FA6.7
030D2:  BSF    FA6.2
030D4:  MOVF   FF2,W
030D6:  MOVWF  00
030D8:  BCF    FF2.6
030DA:  BCF    FF2.7
030DC:  MOVLB  F
030DE:  MOVLW  55
030E0:  MOVWF  FA7
030E2:  MOVLW  AA
030E4:  MOVWF  FA7
030E6:  BSF    FA6.1
030E8:  BTFSC  FA6.1
030EA:  BRA    30E8
030EC:  BCF    FA6.2
030EE:  MOVF   00,W
030F0:  IORWF  FF2,F
....................       delay_ms(10); 
030F2:  MOVLW  0A
030F4:  MOVLB  3
030F6:  MOVWF  xE1
030F8:  MOVLB  0
030FA:  CALL   179C
....................    } 
....................    if(Gain>50){ 
030FE:  MOVLB  3
03100:  CLRF   xD3
03102:  CLRF   xD2
03104:  MOVLW  48
03106:  MOVWF  xD1
03108:  MOVLW  84
0310A:  MOVWF  xD0
0310C:  MOVFF  2A9,3D7
03110:  MOVFF  2A8,3D6
03114:  MOVFF  2A7,3D5
03118:  MOVFF  2A6,3D4
0311C:  MOVLB  0
0311E:  RCALL  29A2
03120:  BNC   31A8
....................       Gain=40.2; 
03122:  MOVLW  CD
03124:  MOVLB  2
03126:  MOVWF  xA9
03128:  MOVLW  CC
0312A:  MOVWF  xA8
0312C:  MOVLW  20
0312E:  MOVWF  xA7
03130:  MOVLW  84
03132:  MOVWF  xA6
....................       write_eeprom(28,40); 
03134:  CLRF   FAA
03136:  MOVLW  1C
03138:  MOVWF  FA9
0313A:  MOVLW  28
0313C:  MOVWF  FA8
0313E:  BCF    FA6.6
03140:  BCF    FA6.7
03142:  BSF    FA6.2
03144:  MOVF   FF2,W
03146:  MOVWF  00
03148:  BCF    FF2.6
0314A:  BCF    FF2.7
0314C:  MOVLB  F
0314E:  MOVLW  55
03150:  MOVWF  FA7
03152:  MOVLW  AA
03154:  MOVWF  FA7
03156:  BSF    FA6.1
03158:  BTFSC  FA6.1
0315A:  BRA    3158
0315C:  BCF    FA6.2
0315E:  MOVF   00,W
03160:  IORWF  FF2,F
....................       delay_ms(10); 
03162:  MOVLW  0A
03164:  MOVLB  3
03166:  MOVWF  xE1
03168:  MOVLB  0
0316A:  CALL   179C
....................       write_eeprom(29,2); 
0316E:  CLRF   FAA
03170:  MOVLW  1D
03172:  MOVWF  FA9
03174:  MOVLW  02
03176:  MOVWF  FA8
03178:  BCF    FA6.6
0317A:  BCF    FA6.7
0317C:  BSF    FA6.2
0317E:  MOVF   FF2,W
03180:  MOVWF  00
03182:  BCF    FF2.6
03184:  BCF    FF2.7
03186:  MOVLB  F
03188:  MOVLW  55
0318A:  MOVWF  FA7
0318C:  MOVLW  AA
0318E:  MOVWF  FA7
03190:  BSF    FA6.1
03192:  BTFSC  FA6.1
03194:  BRA    3192
03196:  BCF    FA6.2
03198:  MOVF   00,W
0319A:  IORWF  FF2,F
....................       delay_ms(10); 
0319C:  MOVLW  0A
0319E:  MOVLB  3
031A0:  MOVWF  xE1
031A2:  MOVLB  0
031A4:  CALL   179C
....................    } 
....................    if(R1>6400){ 
031A8:  MOVLB  3
031AA:  CLRF   xD3
031AC:  CLRF   xD2
031AE:  MOVLW  48
031B0:  MOVWF  xD1
031B2:  MOVLW  8B
031B4:  MOVWF  xD0
031B6:  MOVFF  2B5,3D7
031BA:  MOVFF  2B4,3D6
031BE:  MOVFF  2B3,3D5
031C2:  MOVFF  2B2,3D4
031C6:  MOVLB  0
031C8:  CALL   29A2
031CC:  BNC   3252
....................       R1=6200; 
031CE:  MOVLB  2
031D0:  CLRF   xB5
031D2:  MOVLW  C0
031D4:  MOVWF  xB4
031D6:  MOVLW  41
031D8:  MOVWF  xB3
031DA:  MOVLW  8B
031DC:  MOVWF  xB2
....................       write_eeprom(30,0x38); 
031DE:  CLRF   FAA
031E0:  MOVLW  1E
031E2:  MOVWF  FA9
031E4:  MOVLW  38
031E6:  MOVWF  FA8
031E8:  BCF    FA6.6
031EA:  BCF    FA6.7
031EC:  BSF    FA6.2
031EE:  MOVF   FF2,W
031F0:  MOVWF  00
031F2:  BCF    FF2.6
031F4:  BCF    FF2.7
031F6:  MOVLB  F
031F8:  MOVLW  55
031FA:  MOVWF  FA7
031FC:  MOVLW  AA
031FE:  MOVWF  FA7
03200:  BSF    FA6.1
03202:  BTFSC  FA6.1
03204:  BRA    3202
03206:  BCF    FA6.2
03208:  MOVF   00,W
0320A:  IORWF  FF2,F
....................       delay_ms(10); 
0320C:  MOVLW  0A
0320E:  MOVLB  3
03210:  MOVWF  xE1
03212:  MOVLB  0
03214:  CALL   179C
....................       write_eeprom(31,0x18); 
03218:  CLRF   FAA
0321A:  MOVLW  1F
0321C:  MOVWF  FA9
0321E:  MOVLW  18
03220:  MOVWF  FA8
03222:  BCF    FA6.6
03224:  BCF    FA6.7
03226:  BSF    FA6.2
03228:  MOVF   FF2,W
0322A:  MOVWF  00
0322C:  BCF    FF2.6
0322E:  BCF    FF2.7
03230:  MOVLB  F
03232:  MOVLW  55
03234:  MOVWF  FA7
03236:  MOVLW  AA
03238:  MOVWF  FA7
0323A:  BSF    FA6.1
0323C:  BTFSC  FA6.1
0323E:  BRA    323C
03240:  BCF    FA6.2
03242:  MOVF   00,W
03244:  IORWF  FF2,F
....................       delay_ms(10); 
03246:  MOVLW  0A
03248:  MOVLB  3
0324A:  MOVWF  xE1
0324C:  MOVLB  0
0324E:  CALL   179C
....................    } 
....................    if(RPT100>2.0){ 
03252:  MOVLB  3
03254:  CLRF   xD3
03256:  CLRF   xD2
03258:  CLRF   xD1
0325A:  MOVLW  80
0325C:  MOVWF  xD0
0325E:  MOVFF  2AD,3D7
03262:  MOVFF  2AC,3D6
03266:  MOVFF  2AB,3D5
0326A:  MOVFF  2AA,3D4
0326E:  MOVLB  0
03270:  CALL   29A2
03274:  BNC   32F4
....................       RPT100=0.5; 
03276:  MOVLB  2
03278:  CLRF   xAD
0327A:  CLRF   xAC
0327C:  CLRF   xAB
0327E:  MOVLW  7E
03280:  MOVWF  xAA
....................       write_eeprom(32,0); 
03282:  CLRF   FAA
03284:  MOVLW  20
03286:  MOVWF  FA9
03288:  CLRF   FA8
0328A:  BCF    FA6.6
0328C:  BCF    FA6.7
0328E:  BSF    FA6.2
03290:  MOVF   FF2,W
03292:  MOVWF  00
03294:  BCF    FF2.6
03296:  BCF    FF2.7
03298:  MOVLB  F
0329A:  MOVLW  55
0329C:  MOVWF  FA7
0329E:  MOVLW  AA
032A0:  MOVWF  FA7
032A2:  BSF    FA6.1
032A4:  BTFSC  FA6.1
032A6:  BRA    32A4
032A8:  BCF    FA6.2
032AA:  MOVF   00,W
032AC:  IORWF  FF2,F
....................       delay_ms(10); 
032AE:  MOVLW  0A
032B0:  MOVLB  3
032B2:  MOVWF  xE1
032B4:  MOVLB  0
032B6:  CALL   179C
....................       write_eeprom(33,5); 
032BA:  CLRF   FAA
032BC:  MOVLW  21
032BE:  MOVWF  FA9
032C0:  MOVLW  05
032C2:  MOVWF  FA8
032C4:  BCF    FA6.6
032C6:  BCF    FA6.7
032C8:  BSF    FA6.2
032CA:  MOVF   FF2,W
032CC:  MOVWF  00
032CE:  BCF    FF2.6
032D0:  BCF    FF2.7
032D2:  MOVLB  F
032D4:  MOVLW  55
032D6:  MOVWF  FA7
032D8:  MOVLW  AA
032DA:  MOVWF  FA7
032DC:  BSF    FA6.1
032DE:  BTFSC  FA6.1
032E0:  BRA    32DE
032E2:  BCF    FA6.2
032E4:  MOVF   00,W
032E6:  IORWF  FF2,F
....................       delay_ms(10); 
032E8:  MOVLW  0A
032EA:  MOVLB  3
032EC:  MOVWF  xE1
032EE:  MOVLB  0
032F0:  CALL   179C
....................    } 
....................    if(Ciclos>60000){ 
032F4:  MOVLB  3
032F6:  MOVF   x58,W
032F8:  SUBLW  E9
032FA:  BC    337A
032FC:  XORLW  FF
032FE:  BNZ   3306
03300:  MOVF   x57,W
03302:  SUBLW  60
03304:  BC    337A
....................       Ciclos=0; 
03306:  CLRF   x58
03308:  CLRF   x57
....................       write_eeprom(37,0); 
0330A:  CLRF   FAA
0330C:  MOVLW  25
0330E:  MOVWF  FA9
03310:  CLRF   FA8
03312:  BCF    FA6.6
03314:  BCF    FA6.7
03316:  BSF    FA6.2
03318:  MOVF   FF2,W
0331A:  MOVWF  00
0331C:  BCF    FF2.6
0331E:  BCF    FF2.7
03320:  MOVLB  F
03322:  MOVLW  55
03324:  MOVWF  FA7
03326:  MOVLW  AA
03328:  MOVWF  FA7
0332A:  BSF    FA6.1
0332C:  BTFSC  FA6.1
0332E:  BRA    332C
03330:  BCF    FA6.2
03332:  MOVF   00,W
03334:  IORWF  FF2,F
....................       delay_ms(10); 
03336:  MOVLW  0A
03338:  MOVLB  3
0333A:  MOVWF  xE1
0333C:  MOVLB  0
0333E:  CALL   179C
....................       write_eeprom(38,0); 
03342:  CLRF   FAA
03344:  MOVLW  26
03346:  MOVWF  FA9
03348:  CLRF   FA8
0334A:  BCF    FA6.6
0334C:  BCF    FA6.7
0334E:  BSF    FA6.2
03350:  MOVF   FF2,W
03352:  MOVWF  00
03354:  BCF    FF2.6
03356:  BCF    FF2.7
03358:  MOVLB  F
0335A:  MOVLW  55
0335C:  MOVWF  FA7
0335E:  MOVLW  AA
03360:  MOVWF  FA7
03362:  BSF    FA6.1
03364:  BTFSC  FA6.1
03366:  BRA    3364
03368:  BCF    FA6.2
0336A:  MOVF   00,W
0336C:  IORWF  FF2,F
....................       delay_ms(10); 
0336E:  MOVLW  0A
03370:  MOVLB  3
03372:  MOVWF  xE1
03374:  MOVLB  0
03376:  CALL   179C
....................    } 
....................    if(TTrampa>100){ 
0337A:  MOVLB  2
0337C:  MOVF   xD3,W
0337E:  SUBLW  64
03380:  BC    33C0
....................       TTrampa=80; 
03382:  MOVLW  50
03384:  MOVWF  xD3
....................       write_eeprom(39,80); 
03386:  CLRF   FAA
03388:  MOVLW  27
0338A:  MOVWF  FA9
0338C:  MOVLW  50
0338E:  MOVWF  FA8
03390:  BCF    FA6.6
03392:  BCF    FA6.7
03394:  BSF    FA6.2
03396:  MOVF   FF2,W
03398:  MOVWF  00
0339A:  BCF    FF2.6
0339C:  BCF    FF2.7
0339E:  MOVLB  F
033A0:  MOVLW  55
033A2:  MOVWF  FA7
033A4:  MOVLW  AA
033A6:  MOVWF  FA7
033A8:  BSF    FA6.1
033AA:  BTFSC  FA6.1
033AC:  BRA    33AA
033AE:  BCF    FA6.2
033B0:  MOVF   00,W
033B2:  IORWF  FF2,F
....................       delay_ms(10); 
033B4:  MOVLW  0A
033B6:  MOVLB  3
033B8:  MOVWF  xE1
033BA:  MOVLB  0
033BC:  CALL   179C
....................    } 
....................    if(ActivaImpresion>1){ 
033C0:  MOVLB  3
033C2:  MOVF   x33,W
033C4:  SUBLW  01
033C6:  BC    3408
....................       ActivaImpresion=1; 
033C8:  MOVLW  01
033CA:  MOVWF  x33
....................       write_eeprom(40,1); 
033CC:  CLRF   FAA
033CE:  MOVLW  28
033D0:  MOVWF  FA9
033D2:  MOVLW  01
033D4:  MOVWF  FA8
033D6:  BCF    FA6.6
033D8:  BCF    FA6.7
033DA:  BSF    FA6.2
033DC:  MOVF   FF2,W
033DE:  MOVWF  00
033E0:  BCF    FF2.6
033E2:  BCF    FF2.7
033E4:  MOVLB  F
033E6:  MOVLW  55
033E8:  MOVWF  FA7
033EA:  MOVLW  AA
033EC:  MOVWF  FA7
033EE:  BSF    FA6.1
033F0:  BTFSC  FA6.1
033F2:  BRA    33F0
033F4:  BCF    FA6.2
033F6:  MOVF   00,W
033F8:  IORWF  FF2,F
....................       delay_ms(10); 
033FA:  MOVLW  0A
033FC:  MOVLB  3
033FE:  MOVWF  xE1
03400:  MOVLB  0
03402:  CALL   179C
03406:  MOVLB  3
....................    } 
....................    if(timpresion>30){ 
03408:  MOVF   x34,W
0340A:  SUBLW  1E
0340C:  BC    344E
....................       timpresion=2; 
0340E:  MOVLW  02
03410:  MOVWF  x34
....................       write_eeprom(41,2); 
03412:  CLRF   FAA
03414:  MOVLW  29
03416:  MOVWF  FA9
03418:  MOVLW  02
0341A:  MOVWF  FA8
0341C:  BCF    FA6.6
0341E:  BCF    FA6.7
03420:  BSF    FA6.2
03422:  MOVF   FF2,W
03424:  MOVWF  00
03426:  BCF    FF2.6
03428:  BCF    FF2.7
0342A:  MOVLB  F
0342C:  MOVLW  55
0342E:  MOVWF  FA7
03430:  MOVLW  AA
03432:  MOVWF  FA7
03434:  BSF    FA6.1
03436:  BTFSC  FA6.1
03438:  BRA    3436
0343A:  BCF    FA6.2
0343C:  MOVF   00,W
0343E:  IORWF  FF2,F
....................       delay_ms(10); 
03440:  MOVLW  0A
03442:  MOVLB  3
03444:  MOVWF  xE1
03446:  MOVLB  0
03448:  CALL   179C
0344C:  MOVLB  3
....................    } 
....................    if(sg1==10){ 
0344E:  MOVF   x84,W
03450:  SUBLW  0A
03452:  BNZ   3468
....................       G1=G1*(-1); 
03454:  MOVFF  382,3CE
03458:  MOVLW  FF
0345A:  MOVWF  xCF
0345C:  MOVLB  0
0345E:  CALL   2A1C
03462:  MOVFF  01,382
03466:  MOVLB  3
....................    } 
....................    if(sg2==10){ 
03468:  MOVF   x85,W
0346A:  SUBLW  0A
0346C:  BNZ   3482
....................       G2=G2*(-1); 
0346E:  MOVFF  383,3CE
03472:  MOVLW  FF
03474:  MOVWF  xCF
03476:  MOVLB  0
03478:  CALL   2A1C
0347C:  MOVFF  01,383
03480:  MOVLB  3
....................    } 
.................... } 
03482:  MOVLB  0
03484:  GOTO   57E4 (RETURN)
....................  
.................... void LeeDisplay(void){ 
....................    if(Dato_Exitoso==5){ 
*
03A30:  MOVLB  3
03A32:  MOVF   x37,W
03A34:  SUBLW  05
03A36:  BTFSS  FD8.2
03A38:  BRA    3B98
....................          RX_Buffer[0]=RX_Buffer2[0]; 
03A3A:  MOVFF  3B,30
....................          RX_Buffer[1]=RX_Buffer2[1]; 
03A3E:  MOVFF  3C,31
....................          RX_Buffer[2]=RX_Buffer2[2]; 
03A42:  MOVFF  3D,32
....................          RX_Buffer[3]=RX_Buffer2[3]; 
03A46:  MOVFF  3E,33
....................          RX_Buffer[4]=RX_Buffer2[4]; 
03A4A:  MOVFF  3F,34
....................          RX_Buffer[5]=RX_Buffer2[5]; 
03A4E:  MOVFF  40,35
....................          RX_Buffer[6]=RX_Buffer2[6]; 
03A52:  MOVFF  41,36
....................          RX_Buffer[7]=RX_Buffer2[7]; 
03A56:  MOVFF  42,37
....................          RX_Buffer[8]=RX_Buffer2[8]; 
03A5A:  MOVFF  43,38
....................          RX_Buffer[9]=RX_Buffer2[9]; 
03A5E:  MOVFF  44,39
....................           
....................       if(RX_Buffer[3]==0x01){// Pregunta por la pagina en la que esta el display,01 es Contrasea de Acceso 
03A62:  DECFSZ 33,W
03A64:  BRA    3A74
....................          Menu=0; 
03A66:  CLRF   x3A
....................          if(MenuAntt!=Menu) 
03A68:  MOVF   x3A,W
03A6A:  SUBWF  x3C,W
03A6C:  BZ    3A72
....................             MenuAntt=Menu; 
03A6E:  MOVFF  33A,33C
....................       }else if(RX_Buffer[3]==0x02){//02 es Menu Principal con PantallaPriincipal=0, y con PantallaPrincipal=1 es Ciclo Libre 
03A72:  BRA    3B96
03A74:  MOVF   33,W
03A76:  SUBLW  02
03A78:  BNZ   3A8A
....................          Menu=1; 
03A7A:  MOVLW  01
03A7C:  MOVWF  x3A
....................          if(MenuAntt!=Menu) 
03A7E:  MOVF   x3A,W
03A80:  SUBWF  x3C,W
03A82:  BZ    3A88
....................             MenuAntt=Menu; 
03A84:  MOVFF  33A,33C
....................       }else if(RX_Buffer[3]==0x03){//03 es Tiempo Esterilizacion 
03A88:  BRA    3B96
03A8A:  MOVF   33,W
03A8C:  SUBLW  03
03A8E:  BNZ   3AA0
....................          Menu=2; 
03A90:  MOVLW  02
03A92:  MOVWF  x3A
....................          if(MenuAntt!=Menu) 
03A94:  MOVF   x3A,W
03A96:  SUBWF  x3C,W
03A98:  BZ    3A9E
....................             MenuAntt=Menu; 
03A9A:  MOVFF  33A,33C
....................       }else if(RX_Buffer[3]==0x04){//04 es Tiempo de Secado 
03A9E:  BRA    3B96
03AA0:  MOVF   33,W
03AA2:  SUBLW  04
03AA4:  BNZ   3AB6
....................          Menu=3; 
03AA6:  MOVLW  03
03AA8:  MOVWF  x3A
....................          if(MenuAntt!=Menu) 
03AAA:  MOVF   x3A,W
03AAC:  SUBWF  x3C,W
03AAE:  BZ    3AB4
....................             MenuAntt=Menu; 
03AB0:  MOVFF  33A,33C
....................       }else if(RX_Buffer[3]==0x05){//05 es Temperatura 
03AB4:  BRA    3B96
03AB6:  MOVF   33,W
03AB8:  SUBLW  05
03ABA:  BNZ   3ACC
....................          Menu=4; 
03ABC:  MOVLW  04
03ABE:  MOVWF  x3A
....................          if(MenuAntt!=Menu) 
03AC0:  MOVF   x3A,W
03AC2:  SUBWF  x3C,W
03AC4:  BZ    3ACA
....................             MenuAntt=Menu; 
03AC6:  MOVFF  33A,33C
....................       }else if(RX_Buffer[3]==0x06){//06 es Nivel 
03ACA:  BRA    3B96
03ACC:  MOVF   33,W
03ACE:  SUBLW  06
03AD0:  BNZ   3AE2
....................          Menu=5; 
03AD2:  MOVLW  05
03AD4:  MOVWF  x3A
....................          if(MenuAntt!=Menu) 
03AD6:  MOVF   x3A,W
03AD8:  SUBWF  x3C,W
03ADA:  BZ    3AE0
....................             MenuAntt=Menu; 
03ADC:  MOVFF  33A,33C
....................       }else if(RX_Buffer[3]==0x07){//07 es Test de Componentes 
03AE0:  BRA    3B96
03AE2:  MOVF   33,W
03AE4:  SUBLW  07
03AE6:  BNZ   3AF8
....................          Menu=6; 
03AE8:  MOVLW  06
03AEA:  MOVWF  x3A
....................          if(MenuAntt!=Menu) 
03AEC:  MOVF   x3A,W
03AEE:  SUBWF  x3C,W
03AF0:  BZ    3AF6
....................             MenuAntt=Menu; 
03AF2:  MOVFF  33A,33C
....................       }else if(RX_Buffer[3]==0x08){//08 es Fecha y hora 
03AF6:  BRA    3B96
03AF8:  MOVF   33,W
03AFA:  SUBLW  08
03AFC:  BNZ   3B0E
....................          Menu=7; 
03AFE:  MOVLW  07
03B00:  MOVWF  x3A
....................          if(MenuAntt!=Menu) 
03B02:  MOVF   x3A,W
03B04:  SUBWF  x3C,W
03B06:  BZ    3B0C
....................             MenuAntt=Menu; 
03B08:  MOVFF  33A,33C
....................       }else if(RX_Buffer[3]==0x09){//09 es Ciclos Personalizados 
03B0C:  BRA    3B96
03B0E:  MOVF   33,W
03B10:  SUBLW  09
03B12:  BNZ   3B24
....................          Menu=8; 
03B14:  MOVLW  08
03B16:  MOVWF  x3A
....................          if(MenuAntt!=Menu) 
03B18:  MOVF   x3A,W
03B1A:  SUBWF  x3C,W
03B1C:  BZ    3B22
....................             MenuAntt=Menu; 
03B1E:  MOVFF  33A,33C
....................       }else if(RX_Buffer[3]==0x0f){//0f es Recibe caracteres de contrasea desde display 
03B22:  BRA    3B96
03B24:  MOVF   33,W
03B26:  SUBLW  0F
03B28:  BNZ   3B2C
....................           
....................       }else if(RX_Buffer[3]==0x1a){//1a es Menu de Funcionamiento 
03B2A:  BRA    3B96
03B2C:  MOVF   33,W
03B2E:  SUBLW  1A
03B30:  BNZ   3B42
....................          Menu=20; 
03B32:  MOVLW  14
03B34:  MOVWF  x3A
....................          if(MenuAntt!=Menu) 
03B36:  MOVF   x3A,W
03B38:  SUBWF  x3C,W
03B3A:  BZ    3B40
....................             MenuAntt=Menu; 
03B3C:  MOVFF  33A,33C
....................       }else if(RX_Buffer[3]==0x1b){//1b es Menu de clave correcta 
03B40:  BRA    3B96
03B42:  MOVF   33,W
03B44:  SUBLW  1B
03B46:  BNZ   3B58
....................          Menu=15; 
03B48:  MOVLW  0F
03B4A:  MOVWF  x3A
....................          if(MenuAntt!=Menu) 
03B4C:  MOVF   x3A,W
03B4E:  SUBWF  x3C,W
03B50:  BZ    3B56
....................             MenuAntt=Menu; 
03B52:  MOVFF  33A,33C
....................       }else if(RX_Buffer[3]==0x1c){//1c es Menu de clave incorrecta 
03B56:  BRA    3B96
03B58:  MOVF   33,W
03B5A:  SUBLW  1C
03B5C:  BNZ   3B6E
....................          Menu=16; 
03B5E:  MOVLW  10
03B60:  MOVWF  x3A
....................          if(MenuAntt!=Menu) 
03B62:  MOVF   x3A,W
03B64:  SUBWF  x3C,W
03B66:  BZ    3B6C
....................             MenuAntt=Menu; 
03B68:  MOVFF  33A,33C
....................       }else if(RX_Buffer[3]==0x2c){//2c es Menu de Configuracion de Parametros 
03B6C:  BRA    3B96
03B6E:  MOVF   33,W
03B70:  SUBLW  2C
03B72:  BNZ   3B84
....................          Menu=100; 
03B74:  MOVLW  64
03B76:  MOVWF  x3A
....................          if(MenuAntt!=Menu) 
03B78:  MOVF   x3A,W
03B7A:  SUBWF  x3C,W
03B7C:  BZ    3B82
....................             MenuAntt=Menu; 
03B7E:  MOVFF  33A,33C
....................       }else if(RX_Buffer[3]==0xcc){//cc es Menu de Bienvenida 
03B82:  BRA    3B96
03B84:  MOVF   33,W
03B86:  SUBLW  CC
03B88:  BNZ   3B96
....................          Menu=240; 
03B8A:  MOVLW  F0
03B8C:  MOVWF  x3A
....................          if(MenuAntt!=240) 
03B8E:  MOVF   x3C,W
03B90:  SUBLW  F0
03B92:  BZ    3B96
....................             reset_cpu(); 
03B94:  RESET
....................       } 
....................    }else{ 
03B96:  BRA    3BA4
....................       for(z=0;z<RX_BUFFER_SIZE;z++){ 
03B98:  CLRF   x39
03B9A:  MOVF   x39,W
03B9C:  SUBLW  09
03B9E:  BNC   3BA4
....................             //Rx_Buffer[z]=0; 
....................             //Rx_Buffer2[z]=0; 
....................          } 
03BA0:  INCF   x39,F
03BA2:  BRA    3B9A
....................    } 
.................... } 
03BA4:  MOVLB  0
03BA6:  GOTO   590C (RETURN)
....................  
.................... void ConfiguraCiclo(int8 este0,este1,este2,este3,secado0,secado1,secado2,secado3,liquidos,ciclo,temperatura){ 
....................    Testerilizacionp[0]=este0;Testerilizacionp[1]=este1;Testerilizacionp[2]=este2;Testerilizacionp[3]=este3; 
*
046A2:  MOVFF  3D6,B9
046A6:  MOVFF  3D7,BA
046AA:  MOVFF  3D8,BB
046AE:  MOVFF  3D9,BC
....................    Tsecadop[0]=secado0;Tsecadop[1]=secado1;Tsecadop[2]=secado2;Tsecadop[3]=secado3; 
046B2:  MOVFF  3DA,C2
046B6:  MOVFF  3DB,C3
046BA:  MOVFF  3DC,C4
046BE:  MOVFF  3DD,C5
....................    Setpoint=temperatura;                
046C2:  MOVFF  3E0,341
....................    tiempo_secado=0; 
046C6:  MOVLB  3
046C8:  CLRF   x45
....................    desfoguelento=liquidos; 
046CA:  MOVLB  0
046CC:  BCF    xA3.6
046CE:  MOVLB  3
046D0:  BTFSS  xDE.0
046D2:  BRA    46DA
046D4:  MOVLB  0
046D6:  BSF    xA3.6
046D8:  MOVLB  3
....................    CicloSeleccionado=ciclo; 
046DA:  MOVFF  3DF,340
....................    if(ActivaImpresion==1){ 
046DE:  DECFSZ x33,W
046E0:  BRA    46FE
....................       Imprime=15; 
046E2:  MOVLW  0F
046E4:  MOVWF  x81
....................       Envio_Esclavos(); 
046E6:  MOVLB  0
046E8:  CALL   3E00
....................       delay_ms(100); 
046EC:  MOVLW  64
046EE:  MOVLB  3
046F0:  MOVWF  xE1
046F2:  MOVLB  0
046F4:  CALL   179C
....................       Imprime=10; 
046F8:  MOVLW  0A
046FA:  MOVLB  3
046FC:  MOVWF  x81
....................    } 
....................    Testerilizacion[0]=Testerilizacionp[0];Testerilizacion[1]=Testerilizacionp[1];Testerilizacion[2]=Testerilizacionp[2]; 
046FE:  MOVFF  B9,B4
04702:  MOVFF  BA,B5
04706:  MOVFF  BB,B6
....................    Testerilizacion[3]=Testerilizacionp[3];Testerilizacion[4]=Testerilizacionp[4]; 
0470A:  MOVFF  BC,B7
0470E:  MOVFF  BD,B8
....................    Tsecado[0]=Tsecadop[0];Tsecado[1]=Tsecadop[1];Tsecado[2]=Tsecadop[2];Tsecado[3]=Tsecadop[3]; 
04712:  MOVFF  C2,BE
04716:  MOVFF  C3,BF
0471A:  MOVFF  C4,C0
0471E:  MOVFF  C5,C1
.................... } 
04722:  MOVLB  0
04724:  RETLW  00
....................  
.................... void ActivaAlarma(int8 Tipo){ 
....................     
....................    if(tsilencio>12000){ 
*
04262:  MOVLB  3
04264:  MOVF   x6F,W
04266:  SUBLW  2D
04268:  BC    427E
0426A:  XORLW  FF
0426C:  BNZ   4274
0426E:  MOVF   x6E,W
04270:  SUBLW  E0
04272:  BC    427E
....................       tsilencio=0; 
04274:  CLRF   x6F
04276:  CLRF   x6E
....................       flagSilencio=OFF; 
04278:  MOVLB  0
0427A:  BCF    xA3.0
0427C:  MOVLB  3
....................    } 
....................     
....................    if(Tipo==1){ // Alarma por Error 
0427E:  DECFSZ xCC,W
04280:  BRA    42D6
....................    if(UP || DOWN || RIGHT || LEFT) 
04282:  BSF    F93.0
04284:  BTFSS  F81.0
04286:  BRA    429A
04288:  BSF    F93.1
0428A:  BTFSS  F81.1
0428C:  BRA    429A
0428E:  BSF    F93.2
04290:  BTFSS  F81.2
04292:  BRA    429A
04294:  BSF    F93.3
04296:  BTFSC  F81.3
04298:  BRA    429E
....................       flagSilencio=ON; 
0429A:  MOVLB  0
0429C:  BSF    xA3.0
....................        
....................       if(!flagSilencio){ 
0429E:  MOVLB  0
042A0:  BTFSC  xA3.0
042A2:  BRA    42CE
....................          flagAlarma=1; 
042A4:  BSF    xA2.6
....................          if(tbuzzer>200){ 
042A6:  MOVLB  3
042A8:  MOVF   x6D,F
042AA:  BNZ   42B2
042AC:  MOVF   x6C,W
042AE:  SUBLW  C8
042B0:  BC    42CA
....................             tbuzzer=0; 
042B2:  CLRF   x6D
042B4:  CLRF   x6C
....................             flagBuzzer=!flagBuzzer; 
042B6:  MOVLB  0
042B8:  BTG    xA2.7
....................             if(flagBuzzer) 
042BA:  BTFSS  xA2.7
042BC:  BRA    42C4
....................                Buzzer_on; 
042BE:  BSF    F8C.0
042C0:  BCF    F95.0
....................             else 
042C2:  BRA    42C8
....................                Buzzer_off; 
042C4:  BCF    F8C.0
042C6:  BCF    F95.0
042C8:  MOVLB  3
....................          } 
....................       }else{ 
042CA:  BRA    42D4
042CC:  MOVLB  0
....................          Buzzer_off; 
042CE:  BCF    F8C.0
042D0:  BCF    F95.0
042D2:  MOVLB  3
....................       } 
....................    }else if(Tipo==2){ 
042D4:  BRA    432E
042D6:  MOVF   xCC,W
042D8:  SUBLW  02
042DA:  BNZ   432E
....................    if(UP || DOWN || RIGHT || LEFT) 
042DC:  BSF    F93.0
042DE:  BTFSS  F81.0
042E0:  BRA    42F4
042E2:  BSF    F93.1
042E4:  BTFSS  F81.1
042E6:  BRA    42F4
042E8:  BSF    F93.2
042EA:  BTFSS  F81.2
042EC:  BRA    42F4
042EE:  BSF    F93.3
042F0:  BTFSC  F81.3
042F2:  BRA    42F8
....................       ConteoBuzzer=21; 
042F4:  MOVLW  15
042F6:  MOVWF  x69
....................        
....................       flagAlarma=1; 
042F8:  MOVLB  0
042FA:  BSF    xA2.6
....................       if(ConteoBuzzer<20){    
042FC:  MOVLB  3
042FE:  MOVF   x69,W
04300:  SUBLW  13
04302:  BNC   432A
....................          if(tbuzzer>100){ 
04304:  MOVF   x6D,F
04306:  BNZ   430E
04308:  MOVF   x6C,W
0430A:  SUBLW  64
0430C:  BC    4328
....................             tbuzzer=0; 
0430E:  CLRF   x6D
04310:  CLRF   x6C
....................             flagBuzzer=!flagBuzzer; 
04312:  MOVLB  0
04314:  BTG    xA2.7
....................             if(flagBuzzer) 
04316:  BTFSS  xA2.7
04318:  BRA    4320
....................                Buzzer_on; 
0431A:  BSF    F8C.0
0431C:  BCF    F95.0
....................             else 
0431E:  BRA    4324
....................                Buzzer_off; 
04320:  BCF    F8C.0
04322:  BCF    F95.0
....................                 
....................             ConteoBuzzer++;    
04324:  MOVLB  3
04326:  INCF   x69,F
....................          } 
....................       }else{ 
04328:  BRA    432E
....................          Buzzer_off; 
0432A:  BCF    F8C.0
0432C:  BCF    F95.0
....................       } 
....................    } 
.................... } 
0432E:  MOVLB  0
04330:  RETLW  00
....................  
.................... void CalientaChaqueta(){ 
....................    if(PresionPrecamara<130){ 
....................       SSR_on; 
....................    }else if(PresionPreCamara>150){ 
....................       SSR_off; 
....................    } 
.................... } 
....................  
.................... void ApagaSalidas(){ 
....................    Desfogue_off; 
*
034F0:  BCF    F8C.4
034F2:  BCF    F95.4
....................    Paso_off; 
034F4:  BCF    F8C.6
034F6:  BCF    F95.6
....................    //Vent_off; 
....................    Buzzer_off; 
034F8:  BCF    F8C.0
034FA:  BCF    F95.0
....................    SSR_off; 
034FC:  BSF    F8B.2
034FE:  BCF    F94.2
....................    Controlando=0; 
03500:  MOVLB  3
03502:  CLRF   x32
.................... } 
03504:  MOVLB  0
03506:  RETLW  00
....................  
.................... void purgaAire(){ 
....................    if(!purga){ 
....................       for(i=0;i<4;i++){ 
....................          Desfogue_on; 
....................          delay_ms(2000); 
....................          Desfogue_off; 
....................          delay_ms(1000); 
....................       } 
....................       purga=ON; 
....................    } 
.................... } 
....................  
.................... int8 extraeDecima(int8 tiempo){ 
*
049EA:  MOVLB  3
049EC:  CLRF   xD4
049EE:  CLRF   xD5
....................    int8 tmp=0,decima=0; 
....................    tmp=tiempo/10; 
049F0:  MOVFF  3D3,3D6
049F4:  MOVLW  0A
049F6:  MOVWF  xD7
049F8:  MOVLB  0
049FA:  RCALL  4390
049FC:  MOVFF  01,3D4
....................    tmp=tmp*10; 
04A00:  MOVLB  3
04A02:  MOVF   xD4,W
04A04:  MULLW  0A
04A06:  MOVFF  FF3,3D4
....................    decima=tiempo-tmp; 
04A0A:  MOVF   xD4,W
04A0C:  SUBWF  xD3,W
04A0E:  MOVWF  xD5
....................    return decima; 
04A10:  MOVFF  3D5,01
.................... } 
04A14:  MOVLB  0
04A16:  RETLW  00
....................  
....................  
.................... #int_rda HIGH 
.................... void serial_rx_isr(){ 
....................  
....................    Dato2=fgetc(); 
*
00204:  BTFSS  F9E.5
00206:  BRA    0204
00208:  MOVFF  FAE,338
0020C:  MOVLB  3
....................    if(Dato2==0x65){//Inicio Comunicacion 
0020E:  MOVF   x38,W
00210:  SUBLW  65
00212:  BNZ   021A
....................       Inicio=1; 
00214:  MOVLW  01
00216:  MOVWF  x36
....................       RX_Wr_Index =0; 
00218:  CLRF   46
....................    } 
....................    //Inicio=1; 
....................    if(Inicio==1){ 
0021A:  DECFSZ x36,W
0021C:  BRA    0232
....................       Rx_Buffer2[RX_Wr_Index] = Dato2; 
0021E:  CLRF   03
00220:  MOVF   46,W
00222:  ADDLW  3B
00224:  MOVWF  FE9
00226:  MOVLW  00
00228:  ADDWFC 03,W
0022A:  MOVWF  FEA
0022C:  MOVFF  338,FEF
....................       RX_Wr_Index++; 
00230:  INCF   46,F
....................    } 
....................    if(RX_Wr_Index >= RX_BUFFER_SIZE){ 
00232:  MOVF   46,W
00234:  SUBLW  09
00236:  BC    023C
....................       RX_Wr_Index =0; 
00238:  CLRF   46
....................       Inicio=0; 
0023A:  CLRF   x36
....................    } 
....................  
....................    if(RX_Wr_Index==0){ 
0023C:  MOVF   46,F
0023E:  BNZ   0260
....................       if(Rx_Buffer2[0]==0x65 && Rx_Buffer2[1]==0xff && Rx_Buffer2[2]==0xff && Rx_Buffer2[8]==0x00 && Rx_Buffer2[9]==0xff ){ 
00240:  MOVF   3B,W
00242:  SUBLW  65
00244:  BNZ   025C
00246:  INCFSZ 3C,W
00248:  BRA    025C
0024A:  INCFSZ 3D,W
0024C:  BRA    025C
0024E:  MOVF   43,F
00250:  BNZ   025C
00252:  INCFSZ 44,W
00254:  BRA    025C
....................          Dato_Exitoso=5; 
00256:  MOVLW  05
00258:  MOVWF  x37
....................       }else{ 
0025A:  BRA    0260
....................          Dato_Exitoso=10; 
0025C:  MOVLW  0A
0025E:  MOVWF  x37
....................       } 
....................    } 
....................    //Dato_Exitoso=5; 
....................    if(Menu==20) 
00260:  MOVF   x3A,W
00262:  SUBLW  14
00264:  BNZ   026A
....................      Buzzer_on; 
00266:  BSF    F8C.0
00268:  BCF    F95.0
.................... } 
....................  
0026A:  BCF    F9E.5
0026C:  MOVLB  0
0026E:  GOTO   010A
.................... #int_TIMER0 
.................... void temp0s(void){ 
....................    set_timer0(0); 
00272:  CLRF   FD7
00274:  CLRF   FD6
....................    t_exhaust++; 
00276:  MOVLB  3
00278:  INCF   x6A,F
0027A:  BTFSC  FD8.2
0027C:  INCF   x6B,F
....................    if(DesfogueSuave) 
0027E:  MOVLB  0
00280:  BTFSS  xA0.6
00282:  BRA    02C4
....................    { 
....................       if(Nivel<6) 
00284:  MOVLB  3
00286:  MOVF   x50,F
00288:  BNZ   02BE
0028A:  MOVF   x4F,W
0028C:  SUBLW  05
0028E:  BNC   02BE
....................       { 
....................          if(t_exhaust<=NivelSeleccionado) // Si el tiempo es menor o igual al tiempo de control se enciende la resistencia de lo contrario se apaga. 
00290:  MOVF   x6B,W
00292:  SUBWF  x5A,W
00294:  BNC   02A4
00296:  BNZ   029E
00298:  MOVF   x6A,W
0029A:  SUBWF  x59,W
0029C:  BNC   02A4
....................          { 
....................             Desfogue_on; 
0029E:  BSF    F8C.4
002A0:  BCF    F95.4
....................          }else{             
002A2:  BRA    02A8
....................             Desfogue_off; 
002A4:  BCF    F8C.4
002A6:  BCF    F95.4
....................          }    
....................        
....................          if(t_exhaust>=60000) // Si el tiempo de control es mayor al tiempo de ciclo se reinicia tiempo de control 
002A8:  MOVF   x6B,W
002AA:  SUBLW  E9
002AC:  BC    02BC
002AE:  XORLW  FF
002B0:  BNZ   02B8
002B2:  MOVF   x6A,W
002B4:  SUBLW  5F
002B6:  BC    02BC
....................          { 
....................             t_exhaust=0; 
002B8:  CLRF   x6B
002BA:  CLRF   x6A
....................          } // tiempoctrl incrementa una unidad cada Xms, por eso se dividen los tiempos por 0.005. 
....................       } 
....................       else 
002BC:  BRA    02C2
....................       { 
....................          Desfogue_on; 
002BE:  BSF    F8C.4
002C0:  BCF    F95.4
002C2:  MOVLB  0
....................       } 
....................    }   
.................... } 
....................  
002C4:  BCF    FF2.2
002C6:  GOTO   0074
.................... #int_TIMER1 
.................... void temp1s(void){ 
....................    set_timer1(40536); // Se repite cada 5ms 
002CA:  MOVLW  9E
002CC:  MOVWF  FCF
002CE:  MOVLW  58
002D0:  MOVWF  FCE
....................    tiempos++; 
002D2:  MOVLB  3
002D4:  INCF   x47,F
002D6:  BTFSC  FD8.2
002D8:  INCF   x48,F
....................    tiempos2++; 
002DA:  INCF   x49,F
002DC:  BTFSC  FD8.2
002DE:  INCF   x4A,F
....................    tiempos3++; 
002E0:  INCF   x4B,F
002E2:  BTFSC  FD8.2
002E4:  INCF   x4C,F
....................    tiempoctrl++; 
002E6:  INCF   x4D,F
002E8:  BTFSC  FD8.2
002EA:  INCF   x4E,F
....................     
....................    if(flagAlarma) 
002EC:  MOVLB  0
002EE:  BTFSS  xA2.6
002F0:  BRA    02FC
....................       tbuzzer++; 
002F2:  MOVLB  3
002F4:  INCF   x6C,F
002F6:  BTFSC  FD8.2
002F8:  INCF   x6D,F
002FA:  MOVLB  0
....................        
....................    if(flagSilencio)    
002FC:  BTFSS  xA3.0
002FE:  BRA    030A
....................       tsilencio++; 
00300:  MOVLB  3
00302:  INCF   x6E,F
00304:  BTFSC  FD8.2
00306:  INCF   x6F,F
00308:  MOVLB  0
....................     
....................    if(!STOP){ 
0030A:  BSF    F93.7
0030C:  BTFSS  F81.7
0030E:  BRA    0318
....................       tStop++; 
00310:  INCF   xAE,F
00312:  BTFSC  FD8.2
00314:  INCF   xAF,F
....................    }else{ 
00316:  BRA    031C
....................       tStop=0; 
00318:  CLRF   xAF
0031A:  CLRF   xAE
....................    } 
....................     
....................    if(!TERM){ 
0031C:  BSF    F93.5
0031E:  BTFSS  F81.5
00320:  BRA    032A
....................       tTermostato++; 
00322:  INCF   xB0,F
00324:  BTFSC  FD8.2
00326:  INCF   xB1,F
....................    }else{ 
00328:  BRA    032E
....................       tTermostato=0; 
0032A:  CLRF   xB1
0032C:  CLRF   xB0
....................    } 
....................     
....................    if(RIGHT){ 
0032E:  BSF    F93.2
00330:  BTFSC  F81.2
00332:  BRA    033C
....................       tright++; 
00334:  INCF   xB2,F
00336:  BTFSC  FD8.2
00338:  INCF   xB3,F
....................    }else{ 
0033A:  BRA    0340
....................       tright=0; 
0033C:  CLRF   xB3
0033E:  CLRF   xB2
....................    } 
....................     
....................    if(Controlando==1){ 
00340:  MOVLB  3
00342:  DECFSZ x32,W
00344:  BRA    0382
....................       if(tiempoctrl<Tp) // Si el tiempo es menor o igual al tiempo de control se enciende la resistencia de lo contrario se apaga. 
00346:  MOVF   x4E,W
00348:  MOVLB  0
0034A:  SUBWF  xAB,W
0034C:  BNC   0366
0034E:  BNZ   0360
00350:  MOVF   xAA,W
00352:  MOVLB  3
00354:  SUBWF  x4D,W
00356:  BTFSS  FD8.0
00358:  BRA    035E
0035A:  MOVLB  0
0035C:  BRA    0366
0035E:  MOVLB  0
....................       { 
....................          SSR_on; 
00360:  BCF    F8B.2
00362:  BCF    F94.2
....................       } 
....................       else          
00364:  BRA    036A
....................       { 
....................          SSR_off; 
00366:  BSF    F8B.2
00368:  BCF    F94.2
....................       } 
....................              
....................       if(tiempoctrl>=Tc) // Si el tiempo de control es mayor al tiempo de ciclo se reinicia tiempo de control 
0036A:  MOVF   xAD,W
0036C:  MOVLB  3
0036E:  SUBWF  x4E,W
00370:  BNC   0382
00372:  BNZ   037E
00374:  MOVLB  0
00376:  MOVF   xAC,W
00378:  MOVLB  3
0037A:  SUBWF  x4D,W
0037C:  BNC   0382
....................       { 
....................          tiempoctrl=0; 
0037E:  CLRF   x4E
00380:  CLRF   x4D
....................       } // tiempoctrl incrementa una unidad cada 5ms, por eso se dividen los tiempos por 0.005. 
....................    } 
....................     
....................    if(tiempos>=200)  // 12000 para que incremente cada minuto, 200para que incremente cada segundo. 
00382:  MOVF   x48,F
00384:  BNZ   038E
00386:  MOVF   x47,W
00388:  SUBLW  C7
0038A:  BTFSC  FD8.0
0038C:  BRA    04AA
....................    { 
....................       if(flagTC) 
0038E:  BTFSS  x2F.2
00390:  BRA    0394
....................          TiempoControl++; 
00392:  INCF   x67,F
....................        
....................       tiemporecta++; 
00394:  INCF   x31,F
....................        
....................       if(IniciaCiclo && tiempoImpresion<CalculoImpresion){ 
00396:  MOVLB  0
00398:  BTFSS  xA0.1
0039A:  BRA    03AE
0039C:  MOVLB  3
0039E:  MOVF   x35,W
003A0:  SUBWF  x46,W
003A2:  BTFSS  FD8.0
003A4:  BRA    03AA
003A6:  MOVLB  0
003A8:  BRA    03AE
....................          tiempoImpresion++; 
003AA:  INCF   x46,F
....................       }else if(tiempoImpresion>=CalculoImpresion){ 
003AC:  BRA    03BA
003AE:  MOVLB  3
003B0:  MOVF   x35,W
003B2:  SUBWF  x46,W
003B4:  BNC   03BA
....................          flagImprime=1; 
003B6:  BSF    x2F.3
....................          tiempoImpresion=0; 
003B8:  CLRF   x46
....................       } 
....................        
....................       if(IniciaCiclo && !Esterilizando){ 
003BA:  MOVLB  0
003BC:  BTFSS  xA0.1
003BE:  BRA    03D4
003C0:  BTFSC  xA0.2
003C2:  BRA    03D4
....................          TiempoCiclo++; 
003C4:  INCF   xA4,F
003C6:  BTFSC  FD8.2
003C8:  INCF   xA5,F
....................          tiempoAgua++; 
003CA:  MOVLB  3
003CC:  INCF   x70,F
003CE:  BTFSC  FD8.2
003D0:  INCF   x71,F
003D2:  MOVLB  0
....................       } 
....................        
....................       if(IniciaLlenado && !CalderinLleno){ 
003D4:  BTFSS  x9F.7
003D6:  BRA    03E2
003D8:  BTFSC  xA0.0
003DA:  BRA    03E2
....................          TiempoLlenado++; 
003DC:  INCF   xA6,F
003DE:  BTFSC  FD8.2
003E0:  INCF   xA7,F
....................       } 
....................        
....................       if(SensadoNivel){ 
003E2:  BTFSS  xA0.4
003E4:  BRA    03EC
....................          TiempoSensadoNivel++; 
003E6:  INCF   xA8,F
003E8:  BTFSC  FD8.2
003EA:  INCF   xA9,F
....................       } 
....................        
....................       tiempos=0;Lectura=1;tinicio++; 
003EC:  MOVLB  3
003EE:  CLRF   x48
003F0:  CLRF   x47
003F2:  MOVLB  0
003F4:  BSF    xA3.7
003F6:  MOVLB  3
003F8:  INCF   x51,F
003FA:  BTFSC  FD8.2
003FC:  INCF   x52,F
....................     
....................       if(Esterilizando && !Desfogando){                
003FE:  MOVLB  0
00400:  BTFSS  xA0.2
00402:  BRA    0456
00404:  BTFSC  xA0.5
00406:  BRA    0456
....................          if(Testerilizacion[0]>0){ 
00408:  BTFSC  xB4.7
0040A:  BRA    0416
0040C:  MOVF   xB4,W
0040E:  SUBLW  00
00410:  BC    0416
....................             Testerilizacion[0]--; 
00412:  DECF   xB4,F
....................          }else if(Testerilizacion[1]>0){ 
00414:  BRA    0456
00416:  BTFSC  xB5.7
00418:  BRA    0428
0041A:  MOVF   xB5,W
0041C:  SUBLW  00
0041E:  BC    0428
....................             Testerilizacion[1]--; 
00420:  DECF   xB5,F
....................             Testerilizacion[0]=9; 
00422:  MOVLW  09
00424:  MOVWF  xB4
....................          }else if(Testerilizacion[2]>0){ 
00426:  BRA    0456
00428:  BTFSC  xB6.7
0042A:  BRA    043E
0042C:  MOVF   xB6,W
0042E:  SUBLW  00
00430:  BC    043E
....................             Testerilizacion[2]--; 
00432:  DECF   xB6,F
....................             Testerilizacion[1]=5; 
00434:  MOVLW  05
00436:  MOVWF  xB5
....................             Testerilizacion[0]=9; 
00438:  MOVLW  09
0043A:  MOVWF  xB4
....................          }else if(Testerilizacion[3]>0){ 
0043C:  BRA    0456
0043E:  BTFSC  xB7.7
00440:  BRA    0456
00442:  MOVF   xB7,W
00444:  SUBLW  00
00446:  BC    0456
....................             Testerilizacion[3]--; 
00448:  DECF   xB7,F
....................             Testerilizacion[2]=9; 
0044A:  MOVLW  09
0044C:  MOVWF  xB6
....................             Testerilizacion[1]=5; 
0044E:  MOVLW  05
00450:  MOVWF  xB5
....................             Testerilizacion[0]=9; 
00452:  MOVLW  09
00454:  MOVWF  xB4
....................          } 
....................       } 
....................        
....................       if(Secando){ 
00456:  BTFSS  xA0.3
00458:  BRA    04A8
....................          if(Tsecado[0]>0){ 
0045A:  BTFSC  xBE.7
0045C:  BRA    0468
0045E:  MOVF   xBE,W
00460:  SUBLW  00
00462:  BC    0468
....................             Tsecado[0]--; 
00464:  DECF   xBE,F
....................          }else if(Tsecado[1]>0){ 
00466:  BRA    04A8
00468:  BTFSC  xBF.7
0046A:  BRA    047A
0046C:  MOVF   xBF,W
0046E:  SUBLW  00
00470:  BC    047A
....................             Tsecado[1]--; 
00472:  DECF   xBF,F
....................             Tsecado[0]=9; 
00474:  MOVLW  09
00476:  MOVWF  xBE
....................          }else if(Tsecado[2]>0){ 
00478:  BRA    04A8
0047A:  BTFSC  xC0.7
0047C:  BRA    0490
0047E:  MOVF   xC0,W
00480:  SUBLW  00
00482:  BC    0490
....................             Tsecado[2]--; 
00484:  DECF   xC0,F
....................             Tsecado[1]=5; 
00486:  MOVLW  05
00488:  MOVWF  xBF
....................             Tsecado[0]=9; 
0048A:  MOVLW  09
0048C:  MOVWF  xBE
....................          }else if(Tsecado[3]>0){ 
0048E:  BRA    04A8
00490:  BTFSC  xC1.7
00492:  BRA    04A8
00494:  MOVF   xC1,W
00496:  SUBLW  00
00498:  BC    04A8
....................             Tsecado[3]--; 
0049A:  DECF   xC1,F
....................             Tsecado[2]=9; 
0049C:  MOVLW  09
0049E:  MOVWF  xC0
....................             Tsecado[1]=5; 
004A0:  MOVLW  05
004A2:  MOVWF  xBF
....................             Tsecado[0]=9; 
004A4:  MOVLW  09
004A6:  MOVWF  xBE
004A8:  MOVLB  3
....................          } 
....................       } 
....................    } 
.................... } 
....................  
004AA:  BCF    F9E.0
004AC:  MOVLB  0
004AE:  GOTO   0074
.................... void main() 
.................... { 
*
0501A:  CLRF   FF8
0501C:  BCF    FF1.2
0501E:  BCF    F9F.0
05020:  BSF    F9F.5
05022:  BSF    FD0.7
05024:  BSF    07.7
05026:  CLRF   FEA
05028:  CLRF   FE9
0502A:  BSF    FB8.3
0502C:  MOVLW  08
0502E:  MOVWF  FAF
05030:  MOVLW  02
05032:  MOVWF  FB0
05034:  MOVLW  A6
05036:  MOVWF  FAC
05038:  MOVLW  90
0503A:  MOVWF  FAB
0503C:  CLRF   46
0503E:  CLRF   47
05040:  CLRF   48
05042:  CLRF   x62
05044:  CLRF   x63
05046:  CLRF   x84
05048:  CLRF   x85
0504A:  CLRF   x86
0504C:  BCF    x9F.0
0504E:  BCF    x9F.1
05050:  BCF    x9F.2
05052:  BCF    x9F.3
05054:  BCF    x9F.4
05056:  BCF    x9F.5
05058:  BCF    x9F.6
0505A:  BCF    x9F.7
0505C:  BCF    xA0.0
0505E:  BCF    xA0.1
05060:  BCF    xA0.2
05062:  BCF    xA0.3
05064:  BCF    xA0.4
05066:  BCF    xA0.5
05068:  BCF    xA0.6
0506A:  BCF    xA0.7
0506C:  BCF    xA1.0
0506E:  BCF    xA1.1
05070:  BCF    xA1.2
05072:  BCF    xA1.3
05074:  BCF    xA1.4
05076:  BCF    xA1.5
05078:  BCF    xA1.6
0507A:  BCF    xA1.7
0507C:  BCF    xA2.0
0507E:  BCF    xA2.1
05080:  BCF    xA2.2
05082:  BCF    xA2.3
05084:  BCF    xA2.4
05086:  BCF    xA2.5
05088:  BCF    xA2.6
0508A:  BCF    xA2.7
0508C:  BCF    xA3.0
0508E:  BCF    xA3.1
05090:  BCF    xA3.2
05092:  BCF    xA3.3
05094:  BCF    xA3.4
05096:  BCF    xA3.5
05098:  CLRF   xA5
0509A:  CLRF   xA4
0509C:  CLRF   xA7
0509E:  CLRF   xA6
050A0:  CLRF   xA9
050A2:  CLRF   xA8
050A4:  CLRF   xAB
050A6:  CLRF   xAA
050A8:  CLRF   xAD
050AA:  CLRF   xAC
050AC:  CLRF   xAF
050AE:  CLRF   xAE
050B0:  CLRF   xB1
050B2:  CLRF   xB0
050B4:  CLRF   xB3
050B6:  CLRF   xB2
050B8:  MOVLW  9A
050BA:  MOVLB  2
050BC:  MOVWF  xA9
050BE:  MOVLW  99
050C0:  MOVWF  xA8
050C2:  MOVLW  0D
050C4:  MOVWF  xA7
050C6:  MOVLW  86
050C8:  MOVWF  xA6
050CA:  CLRF   xAD
050CC:  CLRF   xAC
050CE:  CLRF   xAB
050D0:  MOVLW  7E
050D2:  MOVWF  xAA
050D4:  CLRF   xB1
050D6:  CLRF   xB0
050D8:  CLRF   xAF
050DA:  CLRF   xAE
050DC:  CLRF   xB5
050DE:  CLRF   xB4
050E0:  MOVLW  48
050E2:  MOVWF  xB3
050E4:  MOVLW  85
050E6:  MOVWF  xB2
050E8:  CLRF   xB9
050EA:  MOVLW  80
050EC:  MOVWF  xB8
050EE:  MOVLW  54
050F0:  MOVWF  xB7
050F2:  MOVLW  8B
050F4:  MOVWF  xB6
050F6:  CLRF   xC5
050F8:  CLRF   xC4
050FA:  CLRF   xC3
050FC:  CLRF   xC2
050FE:  CLRF   xC9
05100:  CLRF   xC8
05102:  CLRF   xC7
05104:  CLRF   xC6
05106:  CLRF   xCD
05108:  CLRF   xCC
0510A:  CLRF   xCB
0510C:  CLRF   xCA
0510E:  CLRF   xCE
05110:  CLRF   xCF
05112:  CLRF   xD0
05114:  CLRF   xD1
05116:  MOVLW  14
05118:  MOVWF  xD2
0511A:  CLRF   xD3
0511C:  CLRF   xD4
0511E:  CLRF   xD5
05120:  CLRF   xD6
05122:  CLRF   xD7
05124:  CLRF   xDB
05126:  CLRF   xDA
05128:  CLRF   xD9
0512A:  CLRF   xD8
0512C:  CLRF   xE3
0512E:  CLRF   xE2
05130:  MOVLW  20
05132:  MOVWF  xE1
05134:  MOVLW  82
05136:  MOVWF  xE0
05138:  CLRF   xE7
0513A:  CLRF   xE6
0513C:  CLRF   xE5
0513E:  CLRF   xE4
05140:  CLRF   xEB
05142:  CLRF   xEA
05144:  CLRF   xE9
05146:  CLRF   xE8
05148:  CLRF   xEF
0514A:  CLRF   xEE
0514C:  CLRF   xED
0514E:  CLRF   xEC
05150:  CLRF   xF3
05152:  CLRF   xF2
05154:  CLRF   xF1
05156:  CLRF   xF0
05158:  CLRF   xF7
0515A:  CLRF   xF6
0515C:  CLRF   xF5
0515E:  CLRF   xF4
05160:  CLRF   xFB
05162:  CLRF   xFA
05164:  MOVLW  48
05166:  MOVWF  xF9
05168:  MOVLW  83
0516A:  MOVWF  xF8
0516C:  CLRF   xFF
0516E:  CLRF   xFE
05170:  MOVLW  20
05172:  MOVWF  xFD
05174:  MOVLW  83
05176:  MOVWF  xFC
05178:  MOVLB  3
0517A:  CLRF   x03
0517C:  CLRF   x02
0517E:  CLRF   x01
05180:  MOVLW  7F
05182:  MOVWF  x00
05184:  CLRF   x07
05186:  CLRF   x06
05188:  CLRF   x05
0518A:  CLRF   x04
0518C:  CLRF   x0B
0518E:  CLRF   x0A
05190:  CLRF   x09
05192:  CLRF   x08
05194:  CLRF   x0F
05196:  CLRF   x0E
05198:  CLRF   x0D
0519A:  CLRF   x0C
0519C:  CLRF   x13
0519E:  CLRF   x12
051A0:  CLRF   x11
051A2:  CLRF   x10
051A4:  CLRF   x17
051A6:  CLRF   x16
051A8:  CLRF   x15
051AA:  CLRF   x14
051AC:  CLRF   x1B
051AE:  CLRF   x1A
051B0:  CLRF   x19
051B2:  CLRF   x18
051B4:  MOVLW  4A
051B6:  MOVWF  x1F
051B8:  MOVLW  88
051BA:  MOVWF  x1E
051BC:  MOVLW  28
051BE:  MOVWF  x1D
051C0:  MOVLW  75
051C2:  MOVWF  x1C
051C4:  MOVLW  E0
051C6:  MOVWF  x23
051C8:  MOVLW  2D
051CA:  MOVWF  x22
051CC:  MOVLW  10
051CE:  MOVWF  x21
051D0:  MOVLW  75
051D2:  MOVWF  x20
051D4:  MOVLW  FF
051D6:  MOVWF  x27
051D8:  MOVLW  21
051DA:  MOVWF  x26
051DC:  MOVLW  15
051DE:  MOVWF  x25
051E0:  MOVLW  80
051E2:  MOVWF  x24
051E4:  MOVLW  82
051E6:  MOVWF  x2B
051E8:  MOVLW  12
051EA:  MOVWF  x2A
051EC:  MOVLW  F4
051EE:  MOVWF  x29
051F0:  MOVLW  86
051F2:  MOVWF  x28
051F4:  CLRF   x2C
051F6:  CLRF   x2D
051F8:  CLRF   x2E
051FA:  MOVLB  0
051FC:  BCF    xA3.6
051FE:  BCF    xA3.7
05200:  MOVLB  3
05202:  BCF    x2F.0
05204:  BCF    x2F.1
05206:  BCF    x2F.2
05208:  BCF    x2F.3
0520A:  BCF    x2F.4
0520C:  CLRF   x30
0520E:  CLRF   x31
05210:  CLRF   x32
05212:  MOVLW  01
05214:  MOVWF  x33
05216:  MOVLW  02
05218:  MOVWF  x34
0521A:  CLRF   x35
0521C:  MOVLW  01
0521E:  MOVWF  x36
05220:  CLRF   x37
05222:  CLRF   x38
05224:  CLRF   x39
05226:  CLRF   x3A
05228:  CLRF   x3B
0522A:  MOVLW  F0
0522C:  MOVWF  x3C
0522E:  CLRF   x3D
05230:  CLRF   x3E
05232:  CLRF   x3F
05234:  CLRF   x40
05236:  CLRF   x41
05238:  MOVLW  01
0523A:  MOVWF  x42
0523C:  MOVWF  x43
0523E:  CLRF   x44
05240:  CLRF   x45
05242:  CLRF   x46
05244:  CLRF   x48
05246:  CLRF   x47
05248:  CLRF   x4A
0524A:  CLRF   x49
0524C:  CLRF   x4C
0524E:  CLRF   x4B
05250:  CLRF   x4E
05252:  CLRF   x4D
05254:  CLRF   x50
05256:  CLRF   x4F
05258:  CLRF   x52
0525A:  CLRF   x51
0525C:  CLRF   x54
0525E:  CLRF   x53
05260:  CLRF   x56
05262:  CLRF   x55
05264:  CLRF   x58
05266:  CLRF   x57
05268:  CLRF   x5A
0526A:  CLRF   x59
0526C:  CLRF   x63
0526E:  CLRF   x64
05270:  CLRF   x65
05272:  CLRF   x66
05274:  CLRF   x67
05276:  CLRF   x68
05278:  CLRF   x69
0527A:  CLRF   x6B
0527C:  CLRF   x6A
0527E:  CLRF   x6D
05280:  CLRF   x6C
05282:  CLRF   x6F
05284:  CLRF   x6E
05286:  CLRF   x71
05288:  CLRF   x70
0528A:  MOVLW  12
0528C:  MOVWF  x72
0528E:  MOVLW  09
05290:  MOVWF  x73
05292:  MOVLW  0D
05294:  MOVWF  x74
05296:  CLRF   x75
05298:  CLRF   x76
0529A:  CLRF   x77
0529C:  CLRF   x78
0529E:  CLRF   x79
052A0:  CLRF   x7A
052A2:  CLRF   x7B
052A4:  CLRF   x7C
052A6:  CLRF   x7D
052A8:  CLRF   x7E
052AA:  CLRF   x7F
052AC:  CLRF   x80
052AE:  CLRF   x81
052B0:  CLRF   x82
052B2:  CLRF   x83
052B4:  CLRF   x84
052B6:  CLRF   x85
052B8:  MOVF   FC1,W
052BA:  ANDLW  C0
052BC:  IORLW  0F
052BE:  MOVWF  FC1
052C0:  MOVLW  07
052C2:  MOVWF  FB4
052C4:  CLRF   2A
052C6:  CLRF   2B
052C8:  MOVLB  0
052CA:  CLRF   x87
052CC:  MOVLW  03
052CE:  MOVWF  x88
052D0:  MOVWF  x89
052D2:  MOVLW  06
052D4:  MOVWF  x8A
052D6:  MOVLW  01
052D8:  MOVWF  x8B
052DA:  MOVLW  04
052DC:  MOVWF  x8C
052DE:  MOVLW  06
052E0:  MOVWF  x8D
052E2:  MOVLW  02
052E4:  MOVWF  x8E
052E6:  MOVLW  05
052E8:  MOVWF  x8F
052EA:  CLRF   x90
052EC:  MOVLW  03
052EE:  MOVWF  x91
052F0:  MOVLW  05
052F2:  MOVWF  x92
052F4:  CLRF   x93
052F6:  MOVLW  03
052F8:  MOVWF  x94
052FA:  MOVLW  04
052FC:  MOVWF  x95
052FE:  CLRF   x96
05300:  MOVLW  02
05302:  MOVWF  x97
05304:  MOVLW  05
05306:  MOVWF  x98
05308:  CLRF   x99
0530A:  MOVLW  03
0530C:  MOVWF  x9A
0530E:  MOVLW  06
05310:  MOVWF  x9B
05312:  MOVLW  01
05314:  MOVWF  x9C
05316:  MOVLW  04
05318:  MOVWF  x9D
0531A:  MOVLW  06
0531C:  MOVWF  x9E
0531E:  CLRF   xB4
05320:  CLRF   xB5
05322:  CLRF   xB6
05324:  CLRF   xB7
05326:  CLRF   xB8
05328:  CLRF   xB9
0532A:  CLRF   xBA
0532C:  CLRF   xBB
0532E:  CLRF   xBC
05330:  CLRF   xBD
05332:  CLRF   xBE
05334:  CLRF   xBF
05336:  CLRF   xC0
05338:  CLRF   xC1
0533A:  CLRF   xC2
0533C:  CLRF   xC3
0533E:  CLRF   xC4
05340:  CLRF   xC5
05342:  CLRF   xC6
05344:  CLRF   xC7
05346:  CLRF   xC8
05348:  CLRF   xC9
0534A:  CLRF   xCA
0534C:  CLRF   xCB
0534E:  CLRF   xCC
05350:  CLRF   xCD
05352:  CLRF   xCE
05354:  CLRF   xCF
05356:  CLRF   xD0
05358:  CLRF   xD1
0535A:  CLRF   xD2
0535C:  CLRF   xD3
0535E:  CLRF   xD4
05360:  CLRF   xD5
05362:  CLRF   xD6
05364:  CLRF   xD7
05366:  CLRF   xD8
05368:  CLRF   xD9
0536A:  CLRF   xDA
0536C:  CLRF   xDB
0536E:  CLRF   xDC
05370:  CLRF   xDD
05372:  CLRF   xDE
05374:  CLRF   xDF
05376:  CLRF   xE0
05378:  CLRF   xE1
0537A:  CLRF   xE2
0537C:  CLRF   xE3
0537E:  CLRF   xE4
05380:  CLRF   xE5
05382:  CLRF   xE6
05384:  CLRF   xE7
05386:  CLRF   xE8
05388:  CLRF   xE9
0538A:  CLRF   xEA
0538C:  CLRF   xEB
0538E:  CLRF   xEC
05390:  CLRF   xED
05392:  CLRF   xEE
05394:  CLRF   xEF
05396:  CLRF   xF0
05398:  CLRF   xF1
0539A:  CLRF   xF2
0539C:  CLRF   xF3
0539E:  CLRF   xF4
053A0:  CLRF   xF5
053A2:  CLRF   xF6
053A4:  CLRF   xF7
053A6:  CLRF   xF8
053A8:  CLRF   xF9
053AA:  CLRF   xFA
053AC:  CLRF   xFB
053AE:  CLRF   xFC
053B0:  CLRF   xFD
053B2:  CLRF   xFE
053B4:  CLRF   xFF
053B6:  MOVLB  1
053B8:  CLRF   x00
053BA:  CLRF   x01
053BC:  CLRF   x02
053BE:  CLRF   x03
053C0:  CLRF   x04
053C2:  CLRF   x05
053C4:  CLRF   x06
053C6:  CLRF   x07
053C8:  CLRF   x08
053CA:  CLRF   x09
053CC:  CLRF   x0A
053CE:  CLRF   x0B
053D0:  CLRF   x0C
053D2:  CLRF   x0D
053D4:  CLRF   x0E
053D6:  CLRF   x0F
053D8:  CLRF   x10
053DA:  CLRF   x11
053DC:  CLRF   x12
053DE:  CLRF   x13
053E0:  CLRF   x14
053E2:  CLRF   x15
053E4:  CLRF   x16
053E6:  CLRF   x17
053E8:  CLRF   x18
053EA:  CLRF   x19
053EC:  CLRF   x1A
053EE:  CLRF   x1B
053F0:  CLRF   x1C
053F2:  CLRF   x1D
053F4:  CLRF   x1E
053F6:  CLRF   x1F
053F8:  CLRF   x20
053FA:  CLRF   x21
053FC:  CLRF   x22
053FE:  CLRF   x23
05400:  CLRF   x24
05402:  CLRF   x25
05404:  CLRF   x26
05406:  CLRF   x27
05408:  CLRF   x28
0540A:  CLRF   x29
0540C:  CLRF   x2A
0540E:  CLRF   x2B
05410:  CLRF   x2C
05412:  CLRF   x2D
05414:  CLRF   x2E
05416:  CLRF   x2F
05418:  CLRF   x30
0541A:  CLRF   x31
0541C:  CLRF   x32
0541E:  CLRF   x33
05420:  CLRF   x34
05422:  CLRF   x35
05424:  CLRF   x36
05426:  CLRF   x37
05428:  CLRF   x38
0542A:  CLRF   x39
0542C:  CLRF   x3A
0542E:  CLRF   x3B
05430:  CLRF   x3C
05432:  CLRF   x3D
05434:  CLRF   x3E
05436:  CLRF   x3F
05438:  CLRF   x40
0543A:  CLRF   x41
0543C:  CLRF   x42
0543E:  CLRF   x43
05440:  CLRF   x44
05442:  CLRF   x45
05444:  CLRF   x46
05446:  CLRF   x47
05448:  CLRF   x48
0544A:  CLRF   x49
0544C:  CLRF   x4A
0544E:  CLRF   x4B
05450:  CLRF   x4C
05452:  CLRF   x4D
05454:  CLRF   x4E
05456:  CLRF   x4F
05458:  CLRF   x50
0545A:  CLRF   x51
0545C:  CLRF   x52
0545E:  CLRF   x53
05460:  CLRF   x54
05462:  CLRF   x55
05464:  CLRF   x56
05466:  CLRF   x57
05468:  CLRF   x58
0546A:  CLRF   x59
0546C:  CLRF   x5A
0546E:  CLRF   x5B
05470:  CLRF   x5C
05472:  CLRF   x5D
05474:  CLRF   x5E
05476:  CLRF   x5F
05478:  CLRF   x60
0547A:  CLRF   x61
0547C:  CLRF   x62
0547E:  CLRF   x63
05480:  CLRF   x64
05482:  CLRF   x65
05484:  CLRF   x66
05486:  CLRF   x67
05488:  CLRF   x68
0548A:  CLRF   x69
0548C:  CLRF   x6A
0548E:  CLRF   x6B
05490:  CLRF   x6C
05492:  CLRF   x6D
05494:  CLRF   x6E
05496:  CLRF   x6F
05498:  CLRF   x70
0549A:  CLRF   x71
0549C:  CLRF   x72
0549E:  CLRF   x73
054A0:  CLRF   x74
054A2:  CLRF   x75
054A4:  CLRF   x76
054A6:  CLRF   x77
054A8:  CLRF   x78
054AA:  CLRF   x79
054AC:  CLRF   x7A
054AE:  CLRF   x7B
054B0:  CLRF   x7C
054B2:  CLRF   x7D
054B4:  CLRF   x7E
054B6:  CLRF   x7F
054B8:  CLRF   x80
054BA:  CLRF   x81
054BC:  CLRF   x82
054BE:  CLRF   x83
054C0:  CLRF   x84
054C2:  CLRF   x85
054C4:  CLRF   x86
054C6:  CLRF   x87
054C8:  CLRF   x88
054CA:  CLRF   x89
054CC:  CLRF   x8A
054CE:  CLRF   x8B
054D0:  CLRF   x8C
054D2:  CLRF   x8D
054D4:  CLRF   x8E
054D6:  CLRF   x8F
054D8:  CLRF   x90
054DA:  CLRF   x91
054DC:  CLRF   x92
054DE:  CLRF   x93
054E0:  CLRF   x94
054E2:  CLRF   x95
054E4:  CLRF   x96
054E6:  CLRF   x97
054E8:  CLRF   x98
054EA:  CLRF   x99
054EC:  CLRF   x9A
054EE:  CLRF   x9B
054F0:  CLRF   x9C
054F2:  CLRF   x9D
054F4:  CLRF   x9E
054F6:  CLRF   x9F
054F8:  CLRF   xA0
054FA:  CLRF   xA1
054FC:  CLRF   xA2
054FE:  CLRF   xA3
05500:  CLRF   xA4
05502:  CLRF   xA5
05504:  CLRF   xA6
05506:  CLRF   xA7
05508:  CLRF   xA8
0550A:  CLRF   xA9
0550C:  CLRF   xAA
0550E:  CLRF   xAB
05510:  CLRF   xAC
05512:  CLRF   xAD
05514:  CLRF   xAE
05516:  CLRF   xAF
05518:  CLRF   xB0
0551A:  CLRF   xB1
0551C:  CLRF   xB2
0551E:  CLRF   xB3
05520:  CLRF   xB4
05522:  CLRF   xB5
05524:  CLRF   xB6
05526:  CLRF   xB7
05528:  CLRF   xB8
0552A:  CLRF   xB9
0552C:  CLRF   xBA
0552E:  CLRF   xBB
05530:  CLRF   xBC
05532:  CLRF   xBD
05534:  CLRF   xBE
05536:  CLRF   xBF
05538:  CLRF   xC0
0553A:  CLRF   xC1
0553C:  CLRF   xC2
0553E:  CLRF   xC3
05540:  CLRF   xC4
05542:  CLRF   xC5
05544:  CLRF   xC6
05546:  CLRF   xC7
05548:  CLRF   xC8
0554A:  CLRF   xC9
0554C:  CLRF   xCA
0554E:  CLRF   xCB
05550:  CLRF   xCC
05552:  CLRF   xCD
05554:  CLRF   xCE
05556:  CLRF   xCF
05558:  CLRF   xD0
0555A:  CLRF   xD1
0555C:  CLRF   xD2
0555E:  CLRF   xD3
05560:  CLRF   xD4
05562:  CLRF   xD5
05564:  CLRF   xD6
05566:  CLRF   xD7
05568:  CLRF   xD8
0556A:  CLRF   xD9
0556C:  CLRF   xDA
0556E:  CLRF   xDB
05570:  CLRF   xDC
05572:  CLRF   xDD
05574:  CLRF   xDE
05576:  CLRF   xDF
05578:  CLRF   xE0
0557A:  CLRF   xE1
0557C:  CLRF   xE2
0557E:  CLRF   xE3
05580:  CLRF   xE4
05582:  CLRF   xE5
05584:  CLRF   xE6
05586:  CLRF   xE7
05588:  CLRF   xE8
0558A:  CLRF   xE9
0558C:  CLRF   xEA
0558E:  CLRF   xEB
05590:  CLRF   xEC
05592:  CLRF   xED
05594:  CLRF   xEE
05596:  CLRF   xEF
05598:  CLRF   xF0
0559A:  CLRF   xF1
0559C:  CLRF   xF2
0559E:  CLRF   xF3
055A0:  CLRF   xF4
055A2:  CLRF   xF5
055A4:  CLRF   xF6
055A6:  CLRF   xF7
055A8:  CLRF   xF8
055AA:  CLRF   xF9
055AC:  CLRF   xFA
055AE:  CLRF   xFB
055B0:  CLRF   xFC
055B2:  CLRF   xFD
055B4:  CLRF   xFE
055B6:  CLRF   xFF
055B8:  MOVLB  2
055BA:  CLRF   x00
055BC:  CLRF   x01
055BE:  CLRF   x02
055C0:  CLRF   x03
055C2:  CLRF   x04
055C4:  CLRF   x05
055C6:  CLRF   x06
055C8:  CLRF   x07
055CA:  CLRF   x08
055CC:  CLRF   x09
055CE:  CLRF   x0A
055D0:  CLRF   x0B
055D2:  CLRF   x0C
055D4:  CLRF   x0D
055D6:  CLRF   x0E
055D8:  CLRF   x0F
055DA:  CLRF   x10
055DC:  CLRF   x11
055DE:  CLRF   x12
055E0:  CLRF   x13
055E2:  CLRF   x14
055E4:  CLRF   x15
055E6:  CLRF   x16
055E8:  CLRF   x17
055EA:  CLRF   x18
055EC:  CLRF   x19
055EE:  CLRF   x1A
055F0:  CLRF   x1B
055F2:  CLRF   x1C
055F4:  CLRF   x1D
055F6:  CLRF   x1E
055F8:  CLRF   x1F
055FA:  CLRF   x20
055FC:  CLRF   x21
055FE:  CLRF   x22
05600:  CLRF   x23
05602:  CLRF   x24
05604:  CLRF   x25
05606:  CLRF   x26
05608:  CLRF   x27
0560A:  CLRF   x28
0560C:  CLRF   x29
0560E:  CLRF   x2A
05610:  CLRF   x2B
05612:  CLRF   x2C
05614:  CLRF   x2D
05616:  CLRF   x2E
05618:  CLRF   x2F
0561A:  CLRF   x30
0561C:  CLRF   x31
0561E:  CLRF   x32
05620:  CLRF   x33
05622:  CLRF   x34
05624:  CLRF   x35
05626:  CLRF   x36
05628:  CLRF   x37
0562A:  CLRF   x38
0562C:  CLRF   x39
0562E:  CLRF   x3A
05630:  CLRF   x3B
05632:  CLRF   x3C
05634:  CLRF   x3D
05636:  CLRF   x3E
05638:  CLRF   x3F
0563A:  CLRF   x40
0563C:  CLRF   x41
0563E:  CLRF   x42
05640:  CLRF   x43
05642:  CLRF   x44
05644:  CLRF   x45
05646:  CLRF   x46
05648:  CLRF   x47
0564A:  CLRF   x48
0564C:  CLRF   x49
0564E:  CLRF   x4A
05650:  CLRF   x4B
05652:  CLRF   x4C
05654:  CLRF   x4D
05656:  CLRF   x4E
05658:  CLRF   x4F
0565A:  CLRF   x50
0565C:  CLRF   x51
0565E:  CLRF   x52
05660:  CLRF   x53
05662:  CLRF   x54
05664:  CLRF   x55
05666:  CLRF   x56
05668:  CLRF   x57
0566A:  CLRF   x58
0566C:  CLRF   x59
0566E:  CLRF   x5A
05670:  CLRF   x5B
05672:  CLRF   x5C
05674:  CLRF   x5D
05676:  CLRF   x5E
05678:  CLRF   x5F
0567A:  CLRF   x60
0567C:  CLRF   x61
0567E:  CLRF   x62
05680:  CLRF   x63
05682:  CLRF   x64
05684:  CLRF   x65
05686:  CLRF   x66
05688:  CLRF   x67
0568A:  CLRF   x68
0568C:  CLRF   x69
0568E:  CLRF   x6A
05690:  CLRF   x6B
05692:  CLRF   x6C
05694:  CLRF   x6D
05696:  CLRF   x6E
05698:  CLRF   x6F
0569A:  CLRF   x70
0569C:  CLRF   x71
0569E:  CLRF   x72
056A0:  CLRF   x73
056A2:  CLRF   x74
056A4:  CLRF   x75
056A6:  CLRF   x76
056A8:  CLRF   x77
056AA:  CLRF   x78
056AC:  CLRF   x79
056AE:  CLRF   x7A
056B0:  CLRF   x7B
056B2:  CLRF   x7C
056B4:  CLRF   x7D
056B6:  CLRF   x7E
056B8:  CLRF   x7F
056BA:  CLRF   x80
056BC:  CLRF   x81
056BE:  CLRF   x82
056C0:  CLRF   x83
056C2:  CLRF   x84
056C4:  CLRF   x85
056C6:  CLRF   x86
056C8:  CLRF   x87
056CA:  CLRF   x88
056CC:  CLRF   x89
056CE:  CLRF   x8A
056D0:  CLRF   x8B
056D2:  CLRF   x8C
056D4:  CLRF   x8D
056D6:  CLRF   x8E
056D8:  CLRF   x8F
056DA:  CLRF   x90
056DC:  CLRF   x91
056DE:  CLRF   x92
056E0:  CLRF   x93
056E2:  CLRF   x94
056E4:  CLRF   x95
056E6:  CLRF   x96
056E8:  CLRF   x97
056EA:  CLRF   x98
056EC:  CLRF   x99
056EE:  CLRF   x9A
056F0:  CLRF   x9B
056F2:  CLRF   x9C
056F4:  CLRF   x9D
056F6:  CLRF   x9E
056F8:  CLRF   x9F
056FA:  CLRF   xA0
056FC:  CLRF   xA1
056FE:  CLRF   xA2
05700:  CLRF   xA3
05702:  CLRF   xA4
05704:  CLRF   xA5
05706:  CLRF   xBA
05708:  CLRF   xBB
0570A:  CLRF   xBC
0570C:  CLRF   xBD
0570E:  CLRF   xBE
05710:  CLRF   xBF
05712:  CLRF   xC0
05714:  CLRF   xC1
05716:  MOVLB  3
05718:  CLRF   x5B
0571A:  CLRF   x5C
0571C:  CLRF   x5D
0571E:  CLRF   x5E
05720:  CLRF   x5F
05722:  CLRF   x60
05724:  CLRF   x61
05726:  CLRF   x62
05728:  MOVLW  19
0572A:  MOVWF  x86
0572C:  MOVLW  10
0572E:  MOVWF  x87
05730:  MOVLW  16
05732:  MOVWF  x88
05734:  MOVLW  18
05736:  MOVWF  x89
05738:  MOVLW  17
0573A:  MOVWF  x8A
0573C:  MOVLW  1C
0573E:  MOVWF  x8B
05740:  MOVLW  14
05742:  MOVWF  x8C
05744:  MOVLW  2E
05746:  MOVWF  x8D
05748:  CLRF   x8E
0574A:  CLRF   x8F
0574C:  CLRF   x90
0574E:  CLRF   x91
05750:  CLRF   x92
05752:  CLRF   x93
05754:  CLRF   x94
05756:  MOVLW  22
05758:  MOVWF  x95
0575A:  MOVLW  24
0575C:  MOVWF  x96
0575E:  MOVLW  12
05760:  MOVWF  x97
05762:  MOVLW  21
05764:  MOVWF  x98
05766:  MOVLW  20
05768:  MOVWF  x99
0576A:  MOVLW  26
0576C:  MOVWF  x9A
0576E:  MOVLW  13
05770:  MOVWF  x9B
05772:  MOVLW  11
05774:  MOVWF  x9C
05776:  CLRF   x9D
05778:  CLRF   x9E
0577A:  CLRF   x9F
0577C:  CLRF   xA0
0577E:  CLRF   xA1
05780:  CLRF   xA2
05782:  CLRF   xA3
....................     
....................    for (posicion=0;posicion<0x10;posicion++){ 
05784:  MOVLB  0
05786:  CLRF   x86
05788:  MOVF   x86,W
0578A:  SUBLW  0F
0578C:  BNC   57A2
....................       SlaveA0Tx[posicion] = 0x00; 
0578E:  CLRF   03
05790:  MOVF   x86,W
05792:  ADDLW  64
05794:  MOVWF  FE9
05796:  MOVLW  00
05798:  ADDWFC 03,W
0579A:  MOVWF  FEA
0579C:  CLRF   FEF
....................    } 
0579E:  INCF   x86,F
057A0:  BRA    5788
....................    setup_timer_0(RTCC_8_BIT|RTCC_DIV_1); 
057A2:  MOVLW  C8
057A4:  MOVWF  FD5
....................    enable_interrupts(INT_TIMER0); 
057A6:  BSF    FF2.5
....................    setup_timer_1(T1_INTERNAL|T1_DIV_BY_1); 
057A8:  MOVLW  85
057AA:  MOVWF  FCD
....................    enable_interrupts(INT_TIMER1); 
057AC:  BSF    F9D.0
....................    setup_adc_ports(AN0_TO_AN3); 
057AE:  MOVF   FC1,W
057B0:  ANDLW  C0
057B2:  IORLW  0B
057B4:  MOVWF  FC1
....................    setup_adc(ADC_CLOCK_DIV_32 ); 
057B6:  MOVF   FC0,W
057B8:  ANDLW  C0
057BA:  IORLW  02
057BC:  MOVWF  FC0
057BE:  BSF    FC0.7
057C0:  BSF    FC2.0
....................    port_b_pullups(true); 
057C2:  BCF    FF1.7
....................    enable_interrupts(int_rda); 
057C4:  BSF    F9D.5
....................    setup_wdt(WDT_ON); 
057C6:  BSF    FD1.0
....................    enable_interrupts(global); 
057C8:  MOVLW  C0
057CA:  IORWF  FF2,F
....................    LeeEEPROM(); 
057CC:  GOTO   1BD0
....................    rtc_init(); 
057D0:  GOTO   2950
....................    delay_ms(1); 
057D4:  MOVLW  01
057D6:  MOVLB  3
057D8:  MOVWF  xE1
057DA:  MOVLB  0
057DC:  CALL   179C
....................    LimitaValores(); 
057E0:  GOTO   2A6A
....................    CalculoImpresion=timpresion*60; 
057E4:  MOVLB  3
057E6:  MOVF   x34,W
057E8:  MULLW  3C
057EA:  MOVFF  FF3,335
....................    printf("page Bienvenida"); 
057EE:  MOVLW  B2
057F0:  MOVWF  FF6
057F2:  MOVLW  04
057F4:  MOVWF  FF7
057F6:  MOVLW  00
057F8:  MOVWF  FF8
057FA:  MOVLB  0
057FC:  CALL   3488
....................    SendDataDisplay(); 
05800:  CALL   34BA
....................    printf("bkcmd=0"); 
05804:  MOVLW  C2
05806:  MOVWF  FF6
05808:  MOVLW  04
0580A:  MOVWF  FF7
0580C:  MOVLW  00
0580E:  MOVWF  FF8
05810:  CALL   3488
....................    SendDataDisplay(); 
05814:  CALL   34BA
....................    delay_ms(1500); 
05818:  MOVLW  06
0581A:  MOVLB  3
0581C:  MOVWF  xCC
0581E:  MOVLW  FA
05820:  MOVWF  xE1
05822:  MOVLB  0
05824:  CALL   179C
05828:  MOVLB  3
0582A:  DECFSZ xCC,F
0582C:  BRA    581E
....................    printf("page Clave"); 
0582E:  MOVLW  CA
05830:  MOVWF  FF6
05832:  MOVLW  04
05834:  MOVWF  FF7
05836:  MOVLW  00
05838:  MOVWF  FF8
0583A:  MOVLB  0
0583C:  CALL   3488
....................    SendDataDisplay(); 
05840:  CALL   34BA
....................    ApagaSalidas(); 
05844:  CALL   34F0
....................    ActivaImpresion=1; 
05848:  MOVLW  01
0584A:  MOVLB  3
0584C:  MOVWF  x33
....................     
....................    for(i=0;i<MediaMovil;i++){ 
0584E:  CLRF   x3D
05850:  MOVLB  2
05852:  MOVF   xD2,W
05854:  MOVLB  3
05856:  SUBWF  x3D,W
05858:  BC    587A
....................       Temperatura=LeerPT100(MediaMovil); 
0585A:  MOVFF  2D2,3CC
0585E:  MOVLB  0
05860:  CALL   3678
05864:  MOVFF  03,31B
05868:  MOVFF  02,31A
0586C:  MOVFF  01,319
05870:  MOVFF  00,318
....................    } 
05874:  MOVLB  3
05876:  INCF   x3D,F
05878:  BRA    5850
....................     
....................    if(UP && DOWN && RIGHT && LEFT)//Si oprime boton de Toma. 
0587A:  BSF    F93.0
0587C:  BTFSC  F81.0
0587E:  BRA    5906
05880:  BSF    F93.1
05882:  BTFSC  F81.1
05884:  BRA    5906
05886:  BSF    F93.2
05888:  BTFSC  F81.2
0588A:  BRA    5906
0588C:  BSF    F93.3
0588E:  BTFSC  F81.3
05890:  BRA    5906
....................    { 
....................       write_eeprom(37,0); 
05892:  CLRF   FAA
05894:  MOVLW  25
05896:  MOVWF  FA9
05898:  CLRF   FA8
0589A:  BCF    FA6.6
0589C:  BCF    FA6.7
0589E:  BSF    FA6.2
058A0:  MOVF   FF2,W
058A2:  MOVWF  00
058A4:  BCF    FF2.6
058A6:  BCF    FF2.7
058A8:  MOVLB  F
058AA:  MOVLW  55
058AC:  MOVWF  FA7
058AE:  MOVLW  AA
058B0:  MOVWF  FA7
058B2:  BSF    FA6.1
058B4:  BTFSC  FA6.1
058B6:  BRA    58B4
058B8:  BCF    FA6.2
058BA:  MOVF   00,W
058BC:  IORWF  FF2,F
....................       delay_ms(20); 
058BE:  MOVLW  14
058C0:  MOVLB  3
058C2:  MOVWF  xE1
058C4:  MOVLB  0
058C6:  CALL   179C
....................       write_eeprom(38,0); 
058CA:  CLRF   FAA
058CC:  MOVLW  26
058CE:  MOVWF  FA9
058D0:  CLRF   FA8
058D2:  BCF    FA6.6
058D4:  BCF    FA6.7
058D6:  BSF    FA6.2
058D8:  MOVF   FF2,W
058DA:  MOVWF  00
058DC:  BCF    FF2.6
058DE:  BCF    FF2.7
058E0:  MOVLB  F
058E2:  MOVLW  55
058E4:  MOVWF  FA7
058E6:  MOVLW  AA
058E8:  MOVWF  FA7
058EA:  BSF    FA6.1
058EC:  BTFSC  FA6.1
058EE:  BRA    58EC
058F0:  BCF    FA6.2
058F2:  MOVF   00,W
058F4:  IORWF  FF2,F
....................       delay_ms(20); 
058F6:  MOVLW  14
058F8:  MOVLB  3
058FA:  MOVWF  xE1
058FC:  MOVLB  0
058FE:  CALL   179C
....................       reset_cpu(); 
05902:  RESET
05904:  MOVLB  3
....................    } 
....................     
....................    while(true) 
....................    { 
....................       LeeDisplay(); 
05906:  MOVLB  0
05908:  GOTO   3A30
....................       Envio_Esclavos(); 
0590C:  CALL   3E00
....................       delay_ms(1); 
05910:  MOVLW  01
05912:  MOVLB  3
05914:  MOVWF  xE1
05916:  MOVLB  0
05918:  CALL   179C
....................       //Lectura_Esclavos(); 
....................       restart_wdt(); 
0591C:  CLRWDT
....................        
....................       if(!Esterilizando || Desfogando){ 
0591E:  BTFSS  xA0.2
05920:  BRA    5926
05922:  BTFSS  xA0.5
05924:  BRA    5930
....................          CalculoImpresion=180; 
05926:  MOVLW  B4
05928:  MOVLB  3
0592A:  MOVWF  x35
....................       }else{ 
0592C:  BRA    5936
0592E:  MOVLB  0
....................          CalculoImpresion=60; 
05930:  MOVLW  3C
05932:  MOVLB  3
05934:  MOVWF  x35
....................       } 
....................        
....................       if(!PruebaEstados){ 
05936:  MOVLB  0
05938:  BTFSC  xA1.2
0593A:  BRA    5992
....................          if(Temperatura>60) 
0593C:  MOVLB  3
0593E:  CLRF   xD3
05940:  CLRF   xD2
05942:  MOVLW  70
05944:  MOVWF  xD1
05946:  MOVLW  84
05948:  MOVWF  xD0
0594A:  MOVFF  31B,3D7
0594E:  MOVFF  31A,3D6
05952:  MOVFF  319,3D5
05956:  MOVFF  318,3D4
0595A:  MOVLB  0
0595C:  CALL   29A2
05960:  BNC   5968
....................             Vent_on; 
05962:  BSF    F8C.5
05964:  BCF    F95.5
....................          else if(Temperatura<55) 
05966:  BRA    5992
05968:  MOVFF  31B,3D3
0596C:  MOVFF  31A,3D2
05970:  MOVFF  319,3D1
05974:  MOVFF  318,3D0
05978:  MOVLB  3
0597A:  CLRF   xD7
0597C:  CLRF   xD6
0597E:  MOVLW  5C
05980:  MOVWF  xD5
05982:  MOVLW  84
05984:  MOVWF  xD4
05986:  MOVLB  0
05988:  CALL   29A2
0598C:  BNC   5992
....................             Vent_off; 
0598E:  BCF    F8C.5
05990:  BCF    F95.5
....................       } 
....................       // Monitoreo Nivel de Agua//-------------------------------------- 
....................             if(!LOW){//Si no sensa agua en el nivel alto y no se ha llenado el calderin          
05992:  BSF    F94.1
05994:  BTFSC  F82.1
05996:  BRA    59BC
....................                TiempoSensadoNivel=0; 
05998:  CLRF   xA9
0599A:  CLRF   xA8
....................                Controlando=0;    
0599C:  MOVLB  3
0599E:  CLRF   x32
....................                if(tiempoAgua<600){ 
059A0:  MOVF   x71,W
059A2:  SUBLW  02
059A4:  BNC   59B2
059A6:  BNZ   59AE
059A8:  MOVF   x70,W
059AA:  SUBLW  57
059AC:  BNC   59B2
....................                   CalderinLleno=OFF; 
059AE:  MOVLB  0
059B0:  BCF    xA0.0
....................                } 
....................                SensadoNivel=OFF; 
059B2:  MOVLB  0
059B4:  BCF    xA0.4
....................                TiempoSensadoNivel=0; 
059B6:  CLRF   xA9
059B8:  CLRF   xA8
....................             } else{ 
059BA:  BRA    59CE
....................                SensadoNivel=ON; 
059BC:  BSF    xA0.4
....................                if(TiempoSensadoNivel>2){ 
059BE:  MOVF   xA9,F
059C0:  BNZ   59C8
059C2:  MOVF   xA8,W
059C4:  SUBLW  02
059C6:  BC    59CE
....................                   SensadoNivel=OFF; 
059C8:  BCF    xA0.4
....................                   CalderinLleno=ON; 
059CA:  BSF    xA0.0
....................                   IniciaLlenado=OFF;                   
059CC:  BCF    x9F.7
....................                } 
....................             } 
.................... // Tiempo de Grafica//-------------------------------------- 
....................       if(tiempos2>=6400){ 
059CE:  MOVLB  3
059D0:  MOVF   x4A,W
059D2:  SUBLW  18
059D4:  BC    59DC
....................          Grafica=1; 
059D6:  BSF    x2F.0
....................          tiempos2=0; 
059D8:  CLRF   x4A
059DA:  CLRF   x49
....................       } 
....................  
.................... // Tiempo de Muestreo//-------------------------------------- 
....................       if(tiempos3>=20){ 
059DC:  MOVF   x4C,F
059DE:  BNZ   59E8
059E0:  MOVF   x4B,W
059E2:  SUBLW  13
059E4:  BTFSC  FD8.0
059E6:  BRA    5B1C
....................          Temperatura=LeerPt100(MediaMovil); 
059E8:  MOVFF  2D2,3CC
059EC:  MOVLB  0
059EE:  CALL   3678
059F2:  MOVFF  03,31B
059F6:  MOVFF  02,31A
059FA:  MOVFF  01,319
059FE:  MOVFF  00,318
....................          PresionCamara=Leer_Sensor_Presion_Camara(10); 
05A02:  MOVLW  0A
05A04:  MOVLB  3
05A06:  MOVWF  xCC
05A08:  MOVLB  0
05A0A:  GOTO   3E40
05A0E:  MOVFF  03,3E4
05A12:  MOVFF  02,3E3
05A16:  MOVFF  01,3E2
05A1A:  MOVFF  00,3E1
05A1E:  CALL   3BAA
05A22:  MOVFF  02,354
05A26:  MOVFF  01,353
....................          PresionPreCamara=Leer_Sensor_Presion_PreCamara(10); 
05A2A:  MOVLW  0A
05A2C:  MOVLB  3
05A2E:  MOVWF  xCC
05A30:  MOVLB  0
05A32:  GOTO   4038
05A36:  MOVFF  03,3E4
05A3A:  MOVFF  02,3E3
05A3E:  MOVFF  01,3E2
05A42:  MOVFF  00,3E1
05A46:  CALL   3BAA
05A4A:  MOVFF  02,356
05A4E:  MOVFF  01,355
....................          rtc_get_date(Dia,Mes,Year,dow); 
....................          rtc_get_time(Hora,Minuto,Segundo); 
....................          tiempos3=0; 
*
05B16:  MOVLB  3
05B18:  CLRF   x4C
05B1A:  CLRF   x4B
....................       } 
....................        
.................... // Monitoreo Parada Emergencia//--------------------------------------       
....................       if(!STOP && !IniciaCiclo && !PruebaEstados){ 
05B1C:  BSF    F93.7
05B1E:  BTFSS  F81.7
05B20:  BRA    5B7E
05B22:  MOVLB  0
05B24:  BTFSS  xA0.1
05B26:  BRA    5B2C
05B28:  MOVLB  3
05B2A:  BRA    5B7E
05B2C:  BTFSS  xA1.2
05B2E:  BRA    5B34
05B30:  MOVLB  3
05B32:  BRA    5B7E
....................          if(!disp_Stop){ 
05B34:  MOVLB  3
05B36:  BTFSC  x2F.1
05B38:  BRA    5B58
....................             disp_Stop=1;Menu=255; 
05B3A:  BSF    x2F.1
05B3C:  MOVLW  FF
05B3E:  MOVWF  x3A
....................             printf("page Emergencia"); 
05B40:  MOVLW  D6
05B42:  MOVWF  FF6
05B44:  MOVLW  04
05B46:  MOVWF  FF7
05B48:  MOVLW  00
05B4A:  MOVWF  FF8
05B4C:  MOVLB  0
05B4E:  CALL   3488
....................             SendDataDisplay(); 
05B52:  CALL   34BA
05B56:  MOVLB  3
....................          } 
....................          Controlando=0; 
05B58:  CLRF   x32
....................          Desfogue_on; 
05B5A:  BSF    F8C.4
05B5C:  BCF    F95.4
....................          SSR_off; 
05B5E:  BSF    F8B.2
05B60:  BCF    F94.2
....................          Paso_off; 
05B62:  BCF    F8C.6
05B64:  BCF    F95.6
....................          DesfogueSuave=OFF; 
05B66:  MOVLB  0
05B68:  BCF    xA0.6
....................          ActivaAlarma(1); 
05B6A:  MOVLW  01
05B6C:  MOVLB  3
05B6E:  MOVWF  xCC
05B70:  MOVLB  0
05B72:  CALL   4262
....................          BorraBuffer(); 
05B76:  GOTO   4332
....................       }else{ 
05B7A:  BRA    5B84
05B7C:  MOVLB  3
....................          if(disp_Stop){ 
05B7E:  BTFSS  x2F.1
05B80:  BRA    5B84
....................             reset_cpu(); 
05B82:  RESET
....................          } 
....................       }            
....................    //Buzzer_off;    
.................... //_-------------------------------------------------------------------------------------------------------------------------------------------------------- 
....................    if(Menu==240){ //Menu de Bienvenida. 
05B84:  MOVLB  3
05B86:  MOVF   x3A,W
05B88:  SUBLW  F0
05B8A:  BNZ   5BD4
....................       printf("bkcmd=0"); 
05B8C:  MOVLW  E6
05B8E:  MOVWF  FF6
05B90:  MOVLW  04
05B92:  MOVWF  FF7
05B94:  MOVLW  00
05B96:  MOVWF  FF8
05B98:  MOVLB  0
05B9A:  CALL   3488
....................       SendDataDisplay(); 
05B9E:  CALL   34BA
....................       delay_ms(1500); 
05BA2:  MOVLW  06
05BA4:  MOVLB  3
05BA6:  MOVWF  xCC
05BA8:  MOVLW  FA
05BAA:  MOVWF  xE1
05BAC:  MOVLB  0
05BAE:  CALL   179C
05BB2:  MOVLB  3
05BB4:  DECFSZ xCC,F
05BB6:  BRA    5BA8
....................       printf("page Clave"); 
05BB8:  MOVLW  EE
05BBA:  MOVWF  FF6
05BBC:  MOVLW  04
05BBE:  MOVWF  FF7
05BC0:  MOVLW  00
05BC2:  MOVWF  FF8
05BC4:  MOVLB  0
05BC6:  CALL   3488
....................       SendDataDisplay(); 
05BCA:  CALL   34BA
....................       ApagaSalidas(); 
05BCE:  CALL   34F0
05BD2:  MOVLB  3
....................    } 
.................... //_-------------------------------------------------------------------------------------------------------------------------------------------------------- 
....................  
.................... //_-------------------------------------------------------------------------------------------------------------------------------------------------------- 
....................     if(Menu==0){ //Menu de Contrasea de acceso. 
05BD4:  MOVF   x3A,F
05BD6:  BTFSS  FD8.2
05BD8:  GOTO   6652
....................       ApagaSalidas(); 
05BDC:  MOVLB  0
05BDE:  CALL   34F0
....................       entro=OFF; 
05BE2:  BCF    xA3.5
....................       if(Digito==1){ 
05BE4:  MOVLB  2
05BE6:  DECFSZ xD7,W
05BE8:  BRA    5C34
....................          printf("t0.txt=\"%u\"",Contrasena[0]); 
05BEA:  MOVLW  FA
05BEC:  MOVWF  FF6
05BEE:  MOVLW  04
05BF0:  MOVWF  FF7
05BF2:  MOVLW  00
05BF4:  MOVWF  FF8
05BF6:  MOVLW  08
05BF8:  MOVLB  3
05BFA:  MOVWF  xD0
05BFC:  MOVLB  0
05BFE:  CALL   435E
05C02:  MOVFF  35B,3CE
05C06:  MOVLW  1B
05C08:  MOVLB  3
05C0A:  MOVWF  xCF
05C0C:  MOVLB  0
05C0E:  CALL   43BC
05C12:  MOVLW  22
05C14:  BTFSS  F9E.4
05C16:  BRA    5C14
05C18:  MOVWF  FAD
....................          SendDataDisplay(); 
05C1A:  CALL   34BA
....................          printf("va0.val=1"); 
05C1E:  MOVLW  06
05C20:  MOVWF  FF6
05C22:  MOVLW  05
05C24:  MOVWF  FF7
05C26:  MOVLW  00
05C28:  MOVWF  FF8
05C2A:  CALL   3488
....................          SendDataDisplay(); 
05C2E:  CALL   34BA
05C32:  MOVLB  2
....................       } 
....................        
....................       if(Digito==2){ 
05C34:  MOVF   xD7,W
05C36:  SUBLW  02
05C38:  BNZ   5C94
....................          printf("t0.txt=\"%u%u\"",Contrasena[0],Contrasena[1]); 
05C3A:  MOVLW  10
05C3C:  MOVWF  FF6
05C3E:  MOVLW  05
05C40:  MOVWF  FF7
05C42:  MOVLW  00
05C44:  MOVWF  FF8
05C46:  MOVLW  08
05C48:  MOVLB  3
05C4A:  MOVWF  xD0
05C4C:  MOVLB  0
05C4E:  CALL   435E
05C52:  MOVFF  35B,3CE
05C56:  MOVLW  1B
05C58:  MOVLB  3
05C5A:  MOVWF  xCF
05C5C:  MOVLB  0
05C5E:  CALL   43BC
05C62:  MOVFF  35C,3CE
05C66:  MOVLW  1B
05C68:  MOVLB  3
05C6A:  MOVWF  xCF
05C6C:  MOVLB  0
05C6E:  CALL   43BC
05C72:  MOVLW  22
05C74:  BTFSS  F9E.4
05C76:  BRA    5C74
05C78:  MOVWF  FAD
....................          SendDataDisplay(); 
05C7A:  CALL   34BA
....................          printf("va0.val=2"); 
05C7E:  MOVLW  1E
05C80:  MOVWF  FF6
05C82:  MOVLW  05
05C84:  MOVWF  FF7
05C86:  MOVLW  00
05C88:  MOVWF  FF8
05C8A:  CALL   3488
....................          SendDataDisplay(); 
05C8E:  CALL   34BA
05C92:  MOVLB  2
....................       } 
....................        
....................       if(Digito==3){ 
05C94:  MOVF   xD7,W
05C96:  SUBLW  03
05C98:  BNZ   5D04
....................          printf("t0.txt=\"%u%u%u\"",Contrasena[0],Contrasena[1],Contrasena[2]); 
05C9A:  MOVLW  28
05C9C:  MOVWF  FF6
05C9E:  MOVLW  05
05CA0:  MOVWF  FF7
05CA2:  MOVLW  00
05CA4:  MOVWF  FF8
05CA6:  MOVLW  08
05CA8:  MOVLB  3
05CAA:  MOVWF  xD0
05CAC:  MOVLB  0
05CAE:  CALL   435E
05CB2:  MOVFF  35B,3CE
05CB6:  MOVLW  1B
05CB8:  MOVLB  3
05CBA:  MOVWF  xCF
05CBC:  MOVLB  0
05CBE:  CALL   43BC
05CC2:  MOVFF  35C,3CE
05CC6:  MOVLW  1B
05CC8:  MOVLB  3
05CCA:  MOVWF  xCF
05CCC:  MOVLB  0
05CCE:  CALL   43BC
05CD2:  MOVFF  35D,3CE
05CD6:  MOVLW  1B
05CD8:  MOVLB  3
05CDA:  MOVWF  xCF
05CDC:  MOVLB  0
05CDE:  CALL   43BC
05CE2:  MOVLW  22
05CE4:  BTFSS  F9E.4
05CE6:  BRA    5CE4
05CE8:  MOVWF  FAD
....................          SendDataDisplay(); 
05CEA:  CALL   34BA
....................          printf("va0.val=3"); 
05CEE:  MOVLW  38
05CF0:  MOVWF  FF6
05CF2:  MOVLW  05
05CF4:  MOVWF  FF7
05CF6:  MOVLW  00
05CF8:  MOVWF  FF8
05CFA:  CALL   3488
....................          SendDataDisplay(); 
05CFE:  CALL   34BA
05D02:  MOVLB  2
....................       } 
....................        
....................       if(Digito==4){ 
05D04:  MOVF   xD7,W
05D06:  SUBLW  04
05D08:  BNZ   5D84
....................          printf("t0.txt=\"%u%u%u%u\"",Contrasena[0],Contrasena[1],Contrasena[2],Contrasena[3]); 
05D0A:  MOVLW  42
05D0C:  MOVWF  FF6
05D0E:  MOVLW  05
05D10:  MOVWF  FF7
05D12:  MOVLW  00
05D14:  MOVWF  FF8
05D16:  MOVLW  08
05D18:  MOVLB  3
05D1A:  MOVWF  xD0
05D1C:  MOVLB  0
05D1E:  CALL   435E
05D22:  MOVFF  35B,3CE
05D26:  MOVLW  1B
05D28:  MOVLB  3
05D2A:  MOVWF  xCF
05D2C:  MOVLB  0
05D2E:  CALL   43BC
05D32:  MOVFF  35C,3CE
05D36:  MOVLW  1B
05D38:  MOVLB  3
05D3A:  MOVWF  xCF
05D3C:  MOVLB  0
05D3E:  CALL   43BC
05D42:  MOVFF  35D,3CE
05D46:  MOVLW  1B
05D48:  MOVLB  3
05D4A:  MOVWF  xCF
05D4C:  MOVLB  0
05D4E:  CALL   43BC
05D52:  MOVFF  35E,3CE
05D56:  MOVLW  1B
05D58:  MOVLB  3
05D5A:  MOVWF  xCF
05D5C:  MOVLB  0
05D5E:  CALL   43BC
05D62:  MOVLW  22
05D64:  BTFSS  F9E.4
05D66:  BRA    5D64
05D68:  MOVWF  FAD
....................          SendDataDisplay(); 
05D6A:  CALL   34BA
....................          printf("va0.val=4"); 
05D6E:  MOVLW  54
05D70:  MOVWF  FF6
05D72:  MOVLW  05
05D74:  MOVWF  FF7
05D76:  MOVLW  00
05D78:  MOVWF  FF8
05D7A:  CALL   3488
....................          SendDataDisplay(); 
05D7E:  CALL   34BA
05D82:  MOVLB  2
....................       } 
....................        
....................       if(UP){ 
05D84:  BSF    F93.0
05D86:  BTFSC  F81.0
05D88:  BRA    5DD2
....................          delay_ms(100); 
05D8A:  MOVLW  64
05D8C:  MOVLB  3
05D8E:  MOVWF  xE1
05D90:  MOVLB  0
05D92:  CALL   179C
....................          if(UP){ 
05D96:  BSF    F93.0
05D98:  BTFSC  F81.0
05D9A:  BRA    5DD4
....................          if(Digito==0) 
05D9C:  MOVLB  2
05D9E:  MOVF   xD7,F
05DA0:  BNZ   5DA6
....................             Digito=1; 
05DA2:  MOVLW  01
05DA4:  MOVWF  xD7
....................             if(Contrasena[Digito-1]<9) 
05DA6:  MOVLW  01
05DA8:  SUBWF  xD7,W
05DAA:  CLRF   03
05DAC:  ADDLW  5B
05DAE:  MOVWF  FE9
05DB0:  MOVLW  03
05DB2:  ADDWFC 03,W
05DB4:  MOVWF  FEA
05DB6:  BTFSC  FEF.7
05DB8:  BRA    5DC0
05DBA:  MOVF   FEF,W
05DBC:  SUBLW  08
05DBE:  BNC   5DD2
....................                Contrasena[Digito-1]++; 
05DC0:  MOVLW  01
05DC2:  SUBWF  xD7,W
05DC4:  CLRF   03
05DC6:  ADDLW  5B
05DC8:  MOVWF  FE9
05DCA:  MOVLW  03
05DCC:  ADDWFC 03,W
05DCE:  MOVWF  FEA
05DD0:  INCF   FEF,F
05DD2:  MOVLB  0
....................          } 
....................       } 
....................        
....................       if(DOWN){ 
05DD4:  BSF    F93.1
05DD6:  BTFSC  F81.1
05DD8:  BRA    5E24
....................          delay_ms(100); 
05DDA:  MOVLW  64
05DDC:  MOVLB  3
05DDE:  MOVWF  xE1
05DE0:  MOVLB  0
05DE2:  CALL   179C
....................          if(Digito==0) 
05DE6:  MOVLB  2
05DE8:  MOVF   xD7,F
05DEA:  BNZ   5DF0
....................             Digito=1; 
05DEC:  MOVLW  01
05DEE:  MOVWF  xD7
....................          if(DOWN){ 
05DF0:  BSF    F93.1
05DF2:  BTFSC  F81.1
05DF4:  BRA    5E22
....................             if(Contrasena[Digito-1]>0) 
05DF6:  MOVLW  01
05DF8:  SUBWF  xD7,W
05DFA:  CLRF   03
05DFC:  ADDLW  5B
05DFE:  MOVWF  FE9
05E00:  MOVLW  03
05E02:  ADDWFC 03,W
05E04:  MOVWF  FEA
05E06:  BTFSC  FEF.7
05E08:  BRA    5E22
05E0A:  MOVF   FEF,W
05E0C:  SUBLW  00
05E0E:  BC    5E22
....................                Contrasena[Digito-1]--; 
05E10:  MOVLW  01
05E12:  SUBWF  xD7,W
05E14:  CLRF   03
05E16:  ADDLW  5B
05E18:  MOVWF  FE9
05E1A:  MOVLW  03
05E1C:  ADDWFC 03,W
05E1E:  MOVWF  FEA
05E20:  DECF   FEF,F
05E22:  MOVLB  0
....................          } 
....................       } 
....................        
....................       if(RIGHT){ 
05E24:  BSF    F93.2
05E26:  BTFSC  F81.2
05E28:  BRA    5E42
....................          delay_ms(100); 
05E2A:  MOVLW  64
05E2C:  MOVLB  3
05E2E:  MOVWF  xE1
05E30:  MOVLB  0
05E32:  CALL   179C
....................          if(RIGHT){ 
05E36:  BSF    F93.2
05E38:  BTFSC  F81.2
05E3A:  BRA    5E42
....................             Digito++; 
05E3C:  MOVLB  2
05E3E:  INCF   xD7,F
05E40:  MOVLB  0
....................          } 
....................       } 
....................        
....................       if(Digito>4){ 
05E42:  MOVLB  2
05E44:  MOVF   xD7,W
05E46:  SUBLW  04
05E48:  BTFSC  FD8.0
05E4A:  BRA    619C
....................       Digito=0; 
05E4C:  CLRF   xD7
....................       printf("t0.txt=\"\""); 
05E4E:  MOVLW  5E
05E50:  MOVWF  FF6
05E52:  MOVLW  05
05E54:  MOVWF  FF7
05E56:  MOVLW  00
05E58:  MOVWF  FF8
05E5A:  MOVLB  0
05E5C:  CALL   3488
....................       SendDataDisplay(); 
05E60:  CALL   34BA
....................          if(TipoClave==0){ 
05E64:  MOVLB  2
05E66:  MOVF   xD5,F
05E68:  BTFSS  FD8.2
05E6A:  BRA    5FBA
....................             if(Contrasena[0]==3&&Contrasena[1]==8&&Contrasena[2]==9&&Contrasena[3]==2){ // Si Ingresa clave para reset general del sistema. 
05E6C:  MOVLB  3
05E6E:  MOVF   x5B,W
05E70:  SUBLW  03
05E72:  BTFSS  FD8.2
05E74:  BRA    5F6E
05E76:  MOVF   x5C,W
05E78:  SUBLW  08
05E7A:  BTFSS  FD8.2
05E7C:  BRA    5F6E
05E7E:  MOVF   x5D,W
05E80:  SUBLW  09
05E82:  BNZ   5F6E
05E84:  MOVF   x5E,W
05E86:  SUBLW  02
05E88:  BNZ   5F6E
....................                write_eeprom(10,0);delay_ms(20);write_eeprom(11,0);delay_ms(20);// Reestablece a contrasea de Fabrica y reinicia Programa. 
05E8A:  CLRF   FAA
05E8C:  MOVLW  0A
05E8E:  MOVWF  FA9
05E90:  CLRF   FA8
05E92:  BCF    FA6.6
05E94:  BCF    FA6.7
05E96:  BSF    FA6.2
05E98:  MOVF   FF2,W
05E9A:  MOVWF  00
05E9C:  BCF    FF2.6
05E9E:  BCF    FF2.7
05EA0:  MOVLB  F
05EA2:  MOVLW  55
05EA4:  MOVWF  FA7
05EA6:  MOVLW  AA
05EA8:  MOVWF  FA7
05EAA:  BSF    FA6.1
05EAC:  BTFSC  FA6.1
05EAE:  BRA    5EAC
05EB0:  BCF    FA6.2
05EB2:  MOVF   00,W
05EB4:  IORWF  FF2,F
05EB6:  MOVLW  14
05EB8:  MOVLB  3
05EBA:  MOVWF  xE1
05EBC:  MOVLB  0
05EBE:  CALL   179C
05EC2:  CLRF   FAA
05EC4:  MOVLW  0B
05EC6:  MOVWF  FA9
05EC8:  CLRF   FA8
05ECA:  BCF    FA6.6
05ECC:  BCF    FA6.7
05ECE:  BSF    FA6.2
05ED0:  MOVF   FF2,W
05ED2:  MOVWF  00
05ED4:  BCF    FF2.6
05ED6:  BCF    FF2.7
05ED8:  MOVLB  F
05EDA:  MOVLW  55
05EDC:  MOVWF  FA7
05EDE:  MOVLW  AA
05EE0:  MOVWF  FA7
05EE2:  BSF    FA6.1
05EE4:  BTFSC  FA6.1
05EE6:  BRA    5EE4
05EE8:  BCF    FA6.2
05EEA:  MOVF   00,W
05EEC:  IORWF  FF2,F
05EEE:  MOVLW  14
05EF0:  MOVLB  3
05EF2:  MOVWF  xE1
05EF4:  MOVLB  0
05EF6:  CALL   179C
....................                write_eeprom(12,0);delay_ms(20);write_eeprom(13,0);delay_ms(20); 
05EFA:  CLRF   FAA
05EFC:  MOVLW  0C
05EFE:  MOVWF  FA9
05F00:  CLRF   FA8
05F02:  BCF    FA6.6
05F04:  BCF    FA6.7
05F06:  BSF    FA6.2
05F08:  MOVF   FF2,W
05F0A:  MOVWF  00
05F0C:  BCF    FF2.6
05F0E:  BCF    FF2.7
05F10:  MOVLB  F
05F12:  MOVLW  55
05F14:  MOVWF  FA7
05F16:  MOVLW  AA
05F18:  MOVWF  FA7
05F1A:  BSF    FA6.1
05F1C:  BTFSC  FA6.1
05F1E:  BRA    5F1C
05F20:  BCF    FA6.2
05F22:  MOVF   00,W
05F24:  IORWF  FF2,F
05F26:  MOVLW  14
05F28:  MOVLB  3
05F2A:  MOVWF  xE1
05F2C:  MOVLB  0
05F2E:  CALL   179C
05F32:  CLRF   FAA
05F34:  MOVLW  0D
05F36:  MOVWF  FA9
05F38:  CLRF   FA8
05F3A:  BCF    FA6.6
05F3C:  BCF    FA6.7
05F3E:  BSF    FA6.2
05F40:  MOVF   FF2,W
05F42:  MOVWF  00
05F44:  BCF    FF2.6
05F46:  BCF    FF2.7
05F48:  MOVLB  F
05F4A:  MOVLW  55
05F4C:  MOVWF  FA7
05F4E:  MOVLW  AA
05F50:  MOVWF  FA7
05F52:  BSF    FA6.1
05F54:  BTFSC  FA6.1
05F56:  BRA    5F54
05F58:  BCF    FA6.2
05F5A:  MOVF   00,W
05F5C:  IORWF  FF2,F
05F5E:  MOVLW  14
05F60:  MOVLB  3
05F62:  MOVWF  xE1
05F64:  MOVLB  0
05F66:  CALL   179C
....................                reset_cpu(); 
05F6A:  RESET
05F6C:  MOVLB  3
....................             } 
....................              
....................             if((Contrasena[0]==Password[0])&&(Contrasena[1]==Password[1])&&(Contrasena[2]==Password[2])&&(Contrasena[3]==Password[3])){ 
05F6E:  MOVF   x5F,W
05F70:  SUBWF  x5B,W
05F72:  BNZ   5FA0
05F74:  MOVF   x60,W
05F76:  SUBWF  x5C,W
05F78:  BNZ   5FA0
05F7A:  MOVF   x61,W
05F7C:  SUBWF  x5D,W
05F7E:  BNZ   5FA0
05F80:  MOVF   x62,W
05F82:  SUBWF  x5E,W
05F84:  BNZ   5FA0
....................                //BorraBuffer(); 
....................                printf("page ClaveCorrecta"); 
05F86:  MOVLW  68
05F88:  MOVWF  FF6
05F8A:  MOVLW  05
05F8C:  MOVWF  FF7
05F8E:  MOVLW  00
05F90:  MOVWF  FF8
05F92:  MOVLB  0
05F94:  CALL   3488
....................                SendDataDisplay(); 
05F98:  CALL   34BA
....................             }else{ 
05F9C:  BRA    5FB6
05F9E:  MOVLB  3
....................                //BorraBuffer(); 
....................                printf("page ClaveBad"); 
05FA0:  MOVLW  7C
05FA2:  MOVWF  FF6
05FA4:  MOVLW  05
05FA6:  MOVWF  FF7
05FA8:  MOVLW  00
05FAA:  MOVWF  FF8
05FAC:  MOVLB  0
05FAE:  CALL   3488
....................                SendDataDisplay(); 
05FB2:  CALL   34BA
....................             }  
....................          }else if(TipoClave==1){ 
05FB6:  BRA    619A
05FB8:  MOVLB  2
05FBA:  DECFSZ xD5,W
05FBC:  BRA    600C
....................             if(Contrasena[0]==4&&Contrasena[1]==4&&Contrasena[2]==4&&Contrasena[3]==4){ // Si Ingresa clave de Servicio Tecnico 
05FBE:  MOVLB  3
05FC0:  MOVF   x5B,W
05FC2:  SUBLW  04
05FC4:  BNZ   5FF2
05FC6:  MOVF   x5C,W
05FC8:  SUBLW  04
05FCA:  BNZ   5FF2
05FCC:  MOVF   x5D,W
05FCE:  SUBLW  04
05FD0:  BNZ   5FF2
05FD2:  MOVF   x5E,W
05FD4:  SUBLW  04
05FD6:  BNZ   5FF2
....................                printf("page Config"); 
05FD8:  MOVLW  8A
05FDA:  MOVWF  FF6
05FDC:  MOVLW  05
05FDE:  MOVWF  FF7
05FE0:  MOVLW  00
05FE2:  MOVWF  FF8
05FE4:  MOVLB  0
05FE6:  CALL   3488
....................                SendDataDisplay(); 
05FEA:  CALL   34BA
....................             }else{ 
05FEE:  BRA    6008
05FF0:  MOVLB  3
....................                printf("page MenuPrincipal"); 
05FF2:  MOVLW  96
05FF4:  MOVWF  FF6
05FF6:  MOVLW  05
05FF8:  MOVWF  FF7
05FFA:  MOVLW  00
05FFC:  MOVWF  FF8
05FFE:  MOVLB  0
06000:  CALL   3488
....................                SendDataDisplay(); 
06004:  CALL   34BA
....................             } 
....................          }else if(TipoClave==2){ 
06008:  BRA    619A
0600A:  MOVLB  2
0600C:  MOVF   xD5,W
0600E:  SUBLW  02
06010:  BNZ   607A
....................             if((Contrasena[0]==Password[0])&&(Contrasena[1]==Password[1])&&(Contrasena[2]==Password[2])&&(Contrasena[3]==Password[3])){ 
06012:  MOVLB  3
06014:  MOVF   x5F,W
06016:  SUBWF  x5B,W
06018:  BNZ   6060
0601A:  MOVF   x60,W
0601C:  SUBWF  x5C,W
0601E:  BNZ   6060
06020:  MOVF   x61,W
06022:  SUBWF  x5D,W
06024:  BNZ   6060
06026:  MOVF   x62,W
06028:  SUBWF  x5E,W
0602A:  BNZ   6060
....................                printf("page Clave"); 
0602C:  MOVLW  AA
0602E:  MOVWF  FF6
06030:  MOVLW  05
06032:  MOVWF  FF7
06034:  MOVLW  00
06036:  MOVWF  FF8
06038:  MOVLB  0
0603A:  CALL   3488
....................                SendDataDisplay(); 
0603E:  CALL   34BA
....................                printf("titulo.txt=\"Clave Nueva\""); 
06042:  MOVLW  B6
06044:  MOVWF  FF6
06046:  MOVLW  05
06048:  MOVWF  FF7
0604A:  MOVLW  00
0604C:  MOVWF  FF8
0604E:  CALL   3488
....................                SendDataDisplay(); 
06052:  CALL   34BA
....................                TipoClave=3; 
06056:  MOVLW  03
06058:  MOVLB  2
0605A:  MOVWF  xD5
....................             }else{ 
0605C:  BRA    6078
0605E:  MOVLB  3
....................                printf("page MenuPrincipal"); 
06060:  MOVLW  D0
06062:  MOVWF  FF6
06064:  MOVLW  05
06066:  MOVWF  FF7
06068:  MOVLW  00
0606A:  MOVWF  FF8
0606C:  MOVLB  0
0606E:  CALL   3488
....................                SendDataDisplay(); 
06072:  CALL   34BA
06076:  MOVLB  2
....................             }  
....................          }else if(TipoClave==3){ 
06078:  BRA    619C
0607A:  MOVF   xD5,W
0607C:  SUBLW  03
0607E:  BTFSS  FD8.2
06080:  BRA    619C
....................             printf("titulo.txt=\"Clave Nueva\""); 
06082:  MOVLW  E4
06084:  MOVWF  FF6
06086:  MOVLW  05
06088:  MOVWF  FF7
0608A:  MOVLW  00
0608C:  MOVWF  FF8
0608E:  MOVLB  0
06090:  CALL   3488
....................             SendDataDisplay(); 
06094:  CALL   34BA
....................             printf("page MenuPrincipal"); 
06098:  MOVLW  FE
0609A:  MOVWF  FF6
0609C:  MOVLW  05
0609E:  MOVWF  FF7
060A0:  MOVLW  00
060A2:  MOVWF  FF8
060A4:  CALL   3488
....................             SendDataDisplay(); 
060A8:  CALL   34BA
....................             if(!GuardaEEPROM){ 
060AC:  BTFSC  xA2.3
060AE:  BRA    619A
....................                write_eeprom(10,Contrasena[0]);delay_ms(20);write_eeprom(11,Contrasena[1]);delay_ms(20); 
060B0:  CLRF   FAA
060B2:  MOVLW  0A
060B4:  MOVWF  FA9
060B6:  MOVFF  35B,FA8
060BA:  BCF    FA6.6
060BC:  BCF    FA6.7
060BE:  BSF    FA6.2
060C0:  MOVF   FF2,W
060C2:  MOVWF  00
060C4:  BCF    FF2.6
060C6:  BCF    FF2.7
060C8:  MOVLB  F
060CA:  MOVLW  55
060CC:  MOVWF  FA7
060CE:  MOVLW  AA
060D0:  MOVWF  FA7
060D2:  BSF    FA6.1
060D4:  BTFSC  FA6.1
060D6:  BRA    60D4
060D8:  BCF    FA6.2
060DA:  MOVF   00,W
060DC:  IORWF  FF2,F
060DE:  MOVLW  14
060E0:  MOVLB  3
060E2:  MOVWF  xE1
060E4:  MOVLB  0
060E6:  CALL   179C
060EA:  CLRF   FAA
060EC:  MOVLW  0B
060EE:  MOVWF  FA9
060F0:  MOVFF  35C,FA8
060F4:  BCF    FA6.6
060F6:  BCF    FA6.7
060F8:  BSF    FA6.2
060FA:  MOVF   FF2,W
060FC:  MOVWF  00
060FE:  BCF    FF2.6
06100:  BCF    FF2.7
06102:  MOVLB  F
06104:  MOVLW  55
06106:  MOVWF  FA7
06108:  MOVLW  AA
0610A:  MOVWF  FA7
0610C:  BSF    FA6.1
0610E:  BTFSC  FA6.1
06110:  BRA    610E
06112:  BCF    FA6.2
06114:  MOVF   00,W
06116:  IORWF  FF2,F
06118:  MOVLW  14
0611A:  MOVLB  3
0611C:  MOVWF  xE1
0611E:  MOVLB  0
06120:  CALL   179C
....................                write_eeprom(12,Contrasena[2]);delay_ms(20);write_eeprom(13,Contrasena[3]);delay_ms(20); 
06124:  CLRF   FAA
06126:  MOVLW  0C
06128:  MOVWF  FA9
0612A:  MOVFF  35D,FA8
0612E:  BCF    FA6.6
06130:  BCF    FA6.7
06132:  BSF    FA6.2
06134:  MOVF   FF2,W
06136:  MOVWF  00
06138:  BCF    FF2.6
0613A:  BCF    FF2.7
0613C:  MOVLB  F
0613E:  MOVLW  55
06140:  MOVWF  FA7
06142:  MOVLW  AA
06144:  MOVWF  FA7
06146:  BSF    FA6.1
06148:  BTFSC  FA6.1
0614A:  BRA    6148
0614C:  BCF    FA6.2
0614E:  MOVF   00,W
06150:  IORWF  FF2,F
06152:  MOVLW  14
06154:  MOVLB  3
06156:  MOVWF  xE1
06158:  MOVLB  0
0615A:  CALL   179C
0615E:  CLRF   FAA
06160:  MOVLW  0D
06162:  MOVWF  FA9
06164:  MOVFF  35E,FA8
06168:  BCF    FA6.6
0616A:  BCF    FA6.7
0616C:  BSF    FA6.2
0616E:  MOVF   FF2,W
06170:  MOVWF  00
06172:  BCF    FF2.6
06174:  BCF    FF2.7
06176:  MOVLB  F
06178:  MOVLW  55
0617A:  MOVWF  FA7
0617C:  MOVLW  AA
0617E:  MOVWF  FA7
06180:  BSF    FA6.1
06182:  BTFSC  FA6.1
06184:  BRA    6182
06186:  BCF    FA6.2
06188:  MOVF   00,W
0618A:  IORWF  FF2,F
0618C:  MOVLW  14
0618E:  MOVLB  3
06190:  MOVWF  xE1
06192:  MOVLB  0
06194:  CALL   179C
....................                GuardaEEPROM=ON; 
06198:  BSF    xA2.3
0619A:  MOVLB  2
....................             } 
....................          } 
....................       } 
....................        
....................       if(RX_Buffer[4]==0x11){//11 
0619C:  MOVF   34,W
0619E:  SUBLW  11
061A0:  BNZ   61C0
....................          if(TipoClave!=0){ 
061A2:  MOVF   xD5,F
061A4:  BZ    61C0
....................             printf("page MenuPrincipal"); 
061A6:  MOVLW  12
061A8:  MOVWF  FF6
061AA:  MOVLW  06
061AC:  MOVWF  FF7
061AE:  MOVLW  00
061B0:  MOVWF  FF8
061B2:  MOVLB  0
061B4:  CALL   3488
....................             SendDataDisplay(); 
061B8:  CALL   34BA
....................             PantallaPrincipal=0; 
061BC:  MOVLB  2
061BE:  CLRF   xD4
....................          } 
....................       } 
....................        
....................       if(TipoClave==3){ 
061C0:  MOVF   xD5,W
061C2:  SUBLW  03
061C4:  BNZ   61F2
....................          printf("titulo.txt=\"Clave Nueva\""); 
061C6:  MOVLW  26
061C8:  MOVWF  FF6
061CA:  MOVLW  06
061CC:  MOVWF  FF7
061CE:  MOVLW  00
061D0:  MOVWF  FF8
061D2:  MOVLB  0
061D4:  CALL   3488
....................          SendDataDisplay(); 
061D8:  CALL   34BA
....................          printf("doevents"); 
061DC:  MOVLW  40
061DE:  MOVWF  FF6
061E0:  MOVLW  06
061E2:  MOVWF  FF7
061E4:  MOVLW  00
061E6:  MOVWF  FF8
061E8:  CALL   3488
....................          SendDataDisplay(); 
061EC:  CALL   34BA
061F0:  MOVLB  2
....................       } 
....................        
....................       if(TipoClave==2){ 
061F2:  MOVF   xD5,W
061F4:  SUBLW  02
061F6:  BNZ   6224
....................          printf("titulo.txt=\"Clave Actual\""); 
061F8:  MOVLW  4A
061FA:  MOVWF  FF6
061FC:  MOVLW  06
061FE:  MOVWF  FF7
06200:  MOVLW  00
06202:  MOVWF  FF8
06204:  MOVLB  0
06206:  CALL   3488
....................          SendDataDisplay(); 
0620A:  CALL   34BA
....................          printf("doevents"); 
0620E:  MOVLW  64
06210:  MOVWF  FF6
06212:  MOVLW  06
06214:  MOVWF  FF7
06216:  MOVLW  00
06218:  MOVWF  FF8
0621A:  CALL   3488
....................          SendDataDisplay(); 
0621E:  CALL   34BA
06222:  MOVLB  2
....................       } 
....................        
....................       if(TipoClave==1){ 
06224:  DECFSZ xD5,W
06226:  BRA    6254
....................          printf("titulo.txt=\"Clave Tecnico\""); 
06228:  MOVLW  6E
0622A:  MOVWF  FF6
0622C:  MOVLW  06
0622E:  MOVWF  FF7
06230:  MOVLW  00
06232:  MOVWF  FF8
06234:  MOVLB  0
06236:  CALL   3488
....................          SendDataDisplay(); 
0623A:  CALL   34BA
....................          printf("doevents"); 
0623E:  MOVLW  8A
06240:  MOVWF  FF6
06242:  MOVLW  06
06244:  MOVWF  FF7
06246:  MOVLW  00
06248:  MOVWF  FF8
0624A:  CALL   3488
....................          SendDataDisplay(); 
0624E:  CALL   34BA
06252:  MOVLB  2
....................       } 
....................        
....................       if(TipoClave==0){ 
06254:  MOVF   xD5,F
06256:  BNZ   6270
....................          printf("titulo.txt=\"Ingrese Contrasea\""); 
06258:  MOVLW  94
0625A:  MOVWF  FF6
0625C:  MOVLW  06
0625E:  MOVWF  FF7
06260:  MOVLW  00
06262:  MOVWF  FF8
06264:  MOVLB  0
06266:  CALL   3488
....................          SendDataDisplay(); 
0626A:  CALL   34BA
0626E:  MOVLB  2
....................       } 
....................       if(RX_Buffer[3]==0x0f){//0f, recibe caracteres ingresados desde el Display 
06270:  MOVF   33,W
06272:  SUBLW  0F
06274:  BTFSS  FD8.2
06276:  BRA    6650
....................          if(TipoClave==0){ 
06278:  MOVF   xD5,F
0627A:  BTFSS  FD8.2
0627C:  BRA    640C
....................             if(RX_Buffer[4]==0x33&&RX_Buffer[5]==0x38&&RX_Buffer[6]==0x39&&RX_Buffer[7]==0x32){ // Si Ingresa clave para reset general del sistema. 
0627E:  MOVF   34,W
06280:  SUBLW  33
06282:  BTFSS  FD8.2
06284:  BRA    637E
06286:  MOVF   35,W
06288:  SUBLW  38
0628A:  BTFSS  FD8.2
0628C:  BRA    637E
0628E:  MOVF   36,W
06290:  SUBLW  39
06292:  BNZ   637E
06294:  MOVF   37,W
06296:  SUBLW  32
06298:  BNZ   637E
....................                write_eeprom(10,0);delay_ms(20);write_eeprom(11,0);delay_ms(20);// Reestablece a contrasea de Fabrica y reinicia Programa. 
0629A:  CLRF   FAA
0629C:  MOVLW  0A
0629E:  MOVWF  FA9
062A0:  CLRF   FA8
062A2:  BCF    FA6.6
062A4:  BCF    FA6.7
062A6:  BSF    FA6.2
062A8:  MOVF   FF2,W
062AA:  MOVWF  00
062AC:  BCF    FF2.6
062AE:  BCF    FF2.7
062B0:  MOVLB  F
062B2:  MOVLW  55
062B4:  MOVWF  FA7
062B6:  MOVLW  AA
062B8:  MOVWF  FA7
062BA:  BSF    FA6.1
062BC:  BTFSC  FA6.1
062BE:  BRA    62BC
062C0:  BCF    FA6.2
062C2:  MOVF   00,W
062C4:  IORWF  FF2,F
062C6:  MOVLW  14
062C8:  MOVLB  3
062CA:  MOVWF  xE1
062CC:  MOVLB  0
062CE:  CALL   179C
062D2:  CLRF   FAA
062D4:  MOVLW  0B
062D6:  MOVWF  FA9
062D8:  CLRF   FA8
062DA:  BCF    FA6.6
062DC:  BCF    FA6.7
062DE:  BSF    FA6.2
062E0:  MOVF   FF2,W
062E2:  MOVWF  00
062E4:  BCF    FF2.6
062E6:  BCF    FF2.7
062E8:  MOVLB  F
062EA:  MOVLW  55
062EC:  MOVWF  FA7
062EE:  MOVLW  AA
062F0:  MOVWF  FA7
062F2:  BSF    FA6.1
062F4:  BTFSC  FA6.1
062F6:  BRA    62F4
062F8:  BCF    FA6.2
062FA:  MOVF   00,W
062FC:  IORWF  FF2,F
062FE:  MOVLW  14
06300:  MOVLB  3
06302:  MOVWF  xE1
06304:  MOVLB  0
06306:  CALL   179C
....................                write_eeprom(12,0);delay_ms(20);write_eeprom(13,0);delay_ms(20); 
0630A:  CLRF   FAA
0630C:  MOVLW  0C
0630E:  MOVWF  FA9
06310:  CLRF   FA8
06312:  BCF    FA6.6
06314:  BCF    FA6.7
06316:  BSF    FA6.2
06318:  MOVF   FF2,W
0631A:  MOVWF  00
0631C:  BCF    FF2.6
0631E:  BCF    FF2.7
06320:  MOVLB  F
06322:  MOVLW  55
06324:  MOVWF  FA7
06326:  MOVLW  AA
06328:  MOVWF  FA7
0632A:  BSF    FA6.1
0632C:  BTFSC  FA6.1
0632E:  BRA    632C
06330:  BCF    FA6.2
06332:  MOVF   00,W
06334:  IORWF  FF2,F
06336:  MOVLW  14
06338:  MOVLB  3
0633A:  MOVWF  xE1
0633C:  MOVLB  0
0633E:  CALL   179C
06342:  CLRF   FAA
06344:  MOVLW  0D
06346:  MOVWF  FA9
06348:  CLRF   FA8
0634A:  BCF    FA6.6
0634C:  BCF    FA6.7
0634E:  BSF    FA6.2
06350:  MOVF   FF2,W
06352:  MOVWF  00
06354:  BCF    FF2.6
06356:  BCF    FF2.7
06358:  MOVLB  F
0635A:  MOVLW  55
0635C:  MOVWF  FA7
0635E:  MOVLW  AA
06360:  MOVWF  FA7
06362:  BSF    FA6.1
06364:  BTFSC  FA6.1
06366:  BRA    6364
06368:  BCF    FA6.2
0636A:  MOVF   00,W
0636C:  IORWF  FF2,F
0636E:  MOVLW  14
06370:  MOVLB  3
06372:  MOVWF  xE1
06374:  MOVLB  0
06376:  CALL   179C
....................                reset_cpu(); 
0637A:  RESET
0637C:  MOVLB  2
....................             } 
....................             if(RX_Buffer[4]>=0x30 && RX_Buffer[5]>=0x30 && RX_Buffer[6]>=0x30 && RX_Buffer[7]>=0x30 
....................             && RX_Buffer[4]<=0x39 && RX_Buffer[5]<=0x39 && RX_Buffer[6]<=0x39 && RX_Buffer[7]<=0x39){ 
0637E:  MOVF   34,W
06380:  SUBLW  2F
06382:  BC    640A
06384:  MOVF   35,W
06386:  SUBLW  2F
06388:  BC    640A
0638A:  MOVF   36,W
0638C:  SUBLW  2F
0638E:  BC    640A
06390:  MOVF   37,W
06392:  SUBLW  2F
06394:  BC    640A
06396:  MOVF   34,W
06398:  SUBLW  39
0639A:  BNC   640A
0639C:  MOVF   35,W
0639E:  SUBLW  39
063A0:  BNC   640A
063A2:  MOVF   36,W
063A4:  SUBLW  39
063A6:  BNC   640A
063A8:  MOVF   37,W
063AA:  SUBLW  39
063AC:  BNC   640A
....................             if((RX_Buffer[4]==Password[0]+0x30)&&(RX_Buffer[5]==Password[1]+0x30)&&(RX_Buffer[6]==Password[2]+0x30)&&(RX_Buffer[7]==Password[3]+0x30)){ 
063AE:  MOVLW  30
063B0:  MOVLB  3
063B2:  ADDWF  x5F,W
063B4:  SUBWF  34,W
063B6:  BNZ   63EE
063B8:  MOVLW  30
063BA:  ADDWF  x60,W
063BC:  SUBWF  35,W
063BE:  BNZ   63EE
063C0:  MOVLW  30
063C2:  ADDWF  x61,W
063C4:  SUBWF  36,W
063C6:  BNZ   63EE
063C8:  MOVLW  30
063CA:  ADDWF  x62,W
063CC:  SUBWF  37,W
063CE:  BNZ   63EE
....................                   printf("page ClaveCorrecta"); 
063D0:  MOVLW  B4
063D2:  MOVWF  FF6
063D4:  MOVLW  06
063D6:  MOVWF  FF7
063D8:  MOVLW  00
063DA:  MOVWF  FF8
063DC:  MOVLB  0
063DE:  CALL   3488
....................                   //printf("page MenuPrincipal"); 
....................                   SendDataDisplay(); 
063E2:  CALL   34BA
....................                   RX_Buffer[3]=0x00;RX_Buffer2[3]=0x00;   
063E6:  CLRF   33
063E8:  CLRF   3E
....................                }else{ 
063EA:  BRA    6408
063EC:  MOVLB  3
....................                   printf("page ClaveBad"); 
063EE:  MOVLW  C8
063F0:  MOVWF  FF6
063F2:  MOVLW  06
063F4:  MOVWF  FF7
063F6:  MOVLW  00
063F8:  MOVWF  FF8
063FA:  MOVLB  0
063FC:  CALL   3488
....................                   SendDataDisplay(); 
06400:  CALL   34BA
....................                   RX_Buffer[3]=0x00;RX_Buffer2[3]=0x00;   
06404:  CLRF   33
06406:  CLRF   3E
06408:  MOVLB  2
....................                }  
....................             } 
....................          }else if(TipoClave==1){ 
0640A:  BRA    6650
0640C:  DECFSZ xD5,W
0640E:  BRA    645C
....................             if(RX_Buffer[4]==0x34&&RX_Buffer[5]==0x34&&RX_Buffer[6]==0x34&&RX_Buffer[7]==0x34){ // Si Ingresa clave de Servicio Tecnico 
06410:  MOVF   34,W
06412:  SUBLW  34
06414:  BNZ   6442
06416:  MOVF   35,W
06418:  SUBLW  34
0641A:  BNZ   6442
0641C:  MOVF   36,W
0641E:  SUBLW  34
06420:  BNZ   6442
06422:  MOVF   37,W
06424:  SUBLW  34
06426:  BNZ   6442
....................                printf("page Config"); 
06428:  MOVLW  D6
0642A:  MOVWF  FF6
0642C:  MOVLW  06
0642E:  MOVWF  FF7
06430:  MOVLW  00
06432:  MOVWF  FF8
06434:  MOVLB  0
06436:  CALL   3488
....................                SendDataDisplay(); 
0643A:  CALL   34BA
....................             }else{ 
0643E:  BRA    6458
06440:  MOVLB  2
....................                printf("page MenuPrincipal"); 
06442:  MOVLW  E2
06444:  MOVWF  FF6
06446:  MOVLW  06
06448:  MOVWF  FF7
0644A:  MOVLW  00
0644C:  MOVWF  FF8
0644E:  MOVLB  0
06450:  CALL   3488
....................                SendDataDisplay(); 
06454:  CALL   34BA
....................             } 
....................          }else if(TipoClave==2){ 
06458:  BRA    664E
0645A:  MOVLB  2
0645C:  MOVF   xD5,W
0645E:  SUBLW  02
06460:  BNZ   650A
....................             if(RX_Buffer[4]>=0x30 && RX_Buffer[5]>=0x30 && RX_Buffer[6]>=0x30 && RX_Buffer[7]>=0x30 
....................             && RX_Buffer[4]<=0x39 && RX_Buffer[5]<=0x39 && RX_Buffer[6]<=0x39 && RX_Buffer[7]<=0x39){ 
06462:  MOVF   34,W
06464:  SUBLW  2F
06466:  BC    6508
06468:  MOVF   35,W
0646A:  SUBLW  2F
0646C:  BC    6508
0646E:  MOVF   36,W
06470:  SUBLW  2F
06472:  BC    6508
06474:  MOVF   37,W
06476:  SUBLW  2F
06478:  BC    6508
0647A:  MOVF   34,W
0647C:  SUBLW  39
0647E:  BNC   6508
06480:  MOVF   35,W
06482:  SUBLW  39
06484:  BNC   6508
06486:  MOVF   36,W
06488:  SUBLW  39
0648A:  BNC   6508
0648C:  MOVF   37,W
0648E:  SUBLW  39
06490:  BNC   6508
....................             if((RX_Buffer[4]==Password[0]+0x30)&&(RX_Buffer[5]==Password[1]+0x30)&&(RX_Buffer[6]==Password[2]+0x30)&&(RX_Buffer[7]==Password[3]+0x30)){ 
06492:  MOVLW  30
06494:  MOVLB  3
06496:  ADDWF  x5F,W
06498:  SUBWF  34,W
0649A:  BNZ   64EC
0649C:  MOVLW  30
0649E:  ADDWF  x60,W
064A0:  SUBWF  35,W
064A2:  BNZ   64EC
064A4:  MOVLW  30
064A6:  ADDWF  x61,W
064A8:  SUBWF  36,W
064AA:  BNZ   64EC
064AC:  MOVLW  30
064AE:  ADDWF  x62,W
064B0:  SUBWF  37,W
064B2:  BNZ   64EC
....................                printf("page Clave"); 
064B4:  MOVLW  F6
064B6:  MOVWF  FF6
064B8:  MOVLW  06
064BA:  MOVWF  FF7
064BC:  MOVLW  00
064BE:  MOVWF  FF8
064C0:  MOVLB  0
064C2:  CALL   3488
....................                SendDataDisplay(); 
064C6:  CALL   34BA
....................                printf("titulo.txt=\"Clave Nueva\""); 
064CA:  MOVLW  02
064CC:  MOVWF  FF6
064CE:  MOVLW  07
064D0:  MOVWF  FF7
064D2:  MOVLW  00
064D4:  MOVWF  FF8
064D6:  CALL   3488
....................                SendDataDisplay(); 
064DA:  CALL   34BA
....................                TipoClave=3; 
064DE:  MOVLW  03
064E0:  MOVLB  2
064E2:  MOVWF  xD5
....................                RX_Buffer[3]=0x00; 
064E4:  CLRF   33
....................                RX_Buffer2[3]=0x00; 
064E6:  CLRF   3E
....................             }else{ 
064E8:  BRA    6508
064EA:  MOVLB  3
....................                printf("page MenuPrincipal"); 
064EC:  MOVLW  1C
064EE:  MOVWF  FF6
064F0:  MOVLW  07
064F2:  MOVWF  FF7
064F4:  MOVLW  00
064F6:  MOVWF  FF8
064F8:  MOVLB  0
064FA:  CALL   3488
....................                SendDataDisplay(); 
064FE:  CALL   34BA
....................                RX_Buffer[3]=0x00; 
06502:  CLRF   33
....................                RX_Buffer2[3]=0x00; 
06504:  CLRF   3E
06506:  MOVLB  2
....................             }  
....................             } 
....................          }else if(TipoClave==3){ 
06508:  BRA    6650
0650A:  MOVF   xD5,W
0650C:  SUBLW  03
0650E:  BTFSS  FD8.2
06510:  BRA    6650
....................             printf("titulo.txt=\"Clave Nueva\""); 
06512:  MOVLW  30
06514:  MOVWF  FF6
06516:  MOVLW  07
06518:  MOVWF  FF7
0651A:  MOVLW  00
0651C:  MOVWF  FF8
0651E:  MOVLB  0
06520:  CALL   3488
....................             SendDataDisplay(); 
06524:  CALL   34BA
....................             printf("page MenuPrincipal"); 
06528:  MOVLW  4A
0652A:  MOVWF  FF6
0652C:  MOVLW  07
0652E:  MOVWF  FF7
06530:  MOVLW  00
06532:  MOVWF  FF8
06534:  CALL   3488
....................             SendDataDisplay(); 
06538:  CALL   34BA
....................             if(!GuardaEEPROM){ 
0653C:  BTFSC  xA2.3
0653E:  BRA    664A
....................                write_eeprom(10,RX_Buffer[4]-0x30);delay_ms(20);write_eeprom(11,RX_Buffer[5]-0x30);delay_ms(20); 
06540:  MOVLW  30
06542:  SUBWF  34,W
06544:  MOVLB  3
06546:  MOVWF  xCC
06548:  CLRF   FAA
0654A:  MOVLW  0A
0654C:  MOVWF  FA9
0654E:  MOVFF  3CC,FA8
06552:  BCF    FA6.6
06554:  BCF    FA6.7
06556:  BSF    FA6.2
06558:  MOVF   FF2,W
0655A:  MOVWF  00
0655C:  BCF    FF2.6
0655E:  BCF    FF2.7
06560:  MOVLB  F
06562:  MOVLW  55
06564:  MOVWF  FA7
06566:  MOVLW  AA
06568:  MOVWF  FA7
0656A:  BSF    FA6.1
0656C:  BTFSC  FA6.1
0656E:  BRA    656C
06570:  BCF    FA6.2
06572:  MOVF   00,W
06574:  IORWF  FF2,F
06576:  MOVLW  14
06578:  MOVLB  3
0657A:  MOVWF  xE1
0657C:  MOVLB  0
0657E:  CALL   179C
06582:  MOVLW  30
06584:  SUBWF  35,W
06586:  MOVLB  3
06588:  MOVWF  xCC
0658A:  CLRF   FAA
0658C:  MOVLW  0B
0658E:  MOVWF  FA9
06590:  MOVFF  3CC,FA8
06594:  BCF    FA6.6
06596:  BCF    FA6.7
06598:  BSF    FA6.2
0659A:  MOVF   FF2,W
0659C:  MOVWF  00
0659E:  BCF    FF2.6
065A0:  BCF    FF2.7
065A2:  MOVLB  F
065A4:  MOVLW  55
065A6:  MOVWF  FA7
065A8:  MOVLW  AA
065AA:  MOVWF  FA7
065AC:  BSF    FA6.1
065AE:  BTFSC  FA6.1
065B0:  BRA    65AE
065B2:  BCF    FA6.2
065B4:  MOVF   00,W
065B6:  IORWF  FF2,F
065B8:  MOVLW  14
065BA:  MOVLB  3
065BC:  MOVWF  xE1
065BE:  MOVLB  0
065C0:  CALL   179C
....................                write_eeprom(12,RX_Buffer[6]-0x30);delay_ms(20);write_eeprom(13,RX_Buffer[7]-0x30);delay_ms(20); 
065C4:  MOVLW  30
065C6:  SUBWF  36,W
065C8:  MOVLB  3
065CA:  MOVWF  xCC
065CC:  CLRF   FAA
065CE:  MOVLW  0C
065D0:  MOVWF  FA9
065D2:  MOVFF  3CC,FA8
065D6:  BCF    FA6.6
065D8:  BCF    FA6.7
065DA:  BSF    FA6.2
065DC:  MOVF   FF2,W
065DE:  MOVWF  00
065E0:  BCF    FF2.6
065E2:  BCF    FF2.7
065E4:  MOVLB  F
065E6:  MOVLW  55
065E8:  MOVWF  FA7
065EA:  MOVLW  AA
065EC:  MOVWF  FA7
065EE:  BSF    FA6.1
065F0:  BTFSC  FA6.1
065F2:  BRA    65F0
065F4:  BCF    FA6.2
065F6:  MOVF   00,W
065F8:  IORWF  FF2,F
065FA:  MOVLW  14
065FC:  MOVLB  3
065FE:  MOVWF  xE1
06600:  MOVLB  0
06602:  CALL   179C
06606:  MOVLW  30
06608:  SUBWF  37,W
0660A:  MOVLB  3
0660C:  MOVWF  xCC
0660E:  CLRF   FAA
06610:  MOVLW  0D
06612:  MOVWF  FA9
06614:  MOVFF  3CC,FA8
06618:  BCF    FA6.6
0661A:  BCF    FA6.7
0661C:  BSF    FA6.2
0661E:  MOVF   FF2,W
06620:  MOVWF  00
06622:  BCF    FF2.6
06624:  BCF    FF2.7
06626:  MOVLB  F
06628:  MOVLW  55
0662A:  MOVWF  FA7
0662C:  MOVLW  AA
0662E:  MOVWF  FA7
06630:  BSF    FA6.1
06632:  BTFSC  FA6.1
06634:  BRA    6632
06636:  BCF    FA6.2
06638:  MOVF   00,W
0663A:  IORWF  FF2,F
0663C:  MOVLW  14
0663E:  MOVLB  3
06640:  MOVWF  xE1
06642:  MOVLB  0
06644:  CALL   179C
....................                GuardaEEPROM=ON; 
06648:  BSF    xA2.3
....................             } 
....................             RX_Buffer[3]=0x00; 
0664A:  CLRF   33
....................             RX_Buffer2[3]=0x00; 
0664C:  CLRF   3E
0664E:  MOVLB  2
06650:  MOVLB  3
....................          } 
....................       } 
....................     } 
.................... //_--------------------------------------------------------------------------------------------------------------------------------------------------------        
....................  
.................... //_-------------------------------------------------------------------------------------------------------------------------------------------------------- 
....................    if(Menu==1){ //Menu Principal. 
06652:  DECFSZ x3A,W
06654:  GOTO   6FE4
....................       printf("fecha.txt=\"T:%3.1fC Fecha:%02u/%02u/20%02u Hora: %02u:%02u:%02u\"",Temperatura,Dia,Mes,Year,Hora,Minuto,Segundo); 
06658:  MOVLW  5E
0665A:  MOVWF  FF6
0665C:  MOVLW  07
0665E:  MOVWF  FF7
06660:  MOVLW  00
06662:  MOVWF  FF8
06664:  MOVLW  0D
06666:  MOVWF  xD0
06668:  MOVLB  0
0666A:  CALL   435E
0666E:  MOVLW  02
06670:  MOVWF  FE9
06672:  MOVFF  31B,3D3
06676:  MOVFF  31A,3D2
0667A:  MOVFF  319,3D1
0667E:  MOVFF  318,3D0
06682:  MOVLW  01
06684:  MOVLB  3
06686:  MOVWF  xD4
06688:  MOVLB  0
0668A:  CALL   44FE
0668E:  MOVLW  70
06690:  MOVWF  FF6
06692:  MOVLW  07
06694:  MOVWF  FF7
06696:  MOVLW  00
06698:  MOVWF  FF8
0669A:  MOVLW  09
0669C:  MOVLB  3
0669E:  MOVWF  xD0
066A0:  MOVLB  0
066A2:  CALL   435E
066A6:  MOVFF  374,3CE
066AA:  MOVLW  01
066AC:  MOVLB  3
066AE:  MOVWF  xCF
066B0:  MOVLB  0
066B2:  CALL   43BC
066B6:  MOVLW  2F
066B8:  BTFSS  F9E.4
066BA:  BRA    66B8
066BC:  MOVWF  FAD
066BE:  MOVFF  373,3CE
066C2:  MOVLW  01
066C4:  MOVLB  3
066C6:  MOVWF  xCF
066C8:  MOVLB  0
066CA:  CALL   43BC
066CE:  MOVLW  2F
066D0:  BTFSS  F9E.4
066D2:  BRA    66D0
066D4:  MOVWF  FAD
066D6:  MOVLW  32
066D8:  BTFSS  F9E.4
066DA:  BRA    66D8
066DC:  MOVWF  FAD
066DE:  MOVLW  30
066E0:  BTFSS  F9E.4
066E2:  BRA    66E0
066E4:  MOVWF  FAD
066E6:  MOVFF  372,3CE
066EA:  MOVLW  01
066EC:  MOVLB  3
066EE:  MOVWF  xCF
066F0:  MOVLB  0
066F2:  CALL   43BC
066F6:  MOVLW  89
066F8:  MOVWF  FF6
066FA:  MOVLW  07
066FC:  MOVWF  FF7
066FE:  MOVLW  00
06700:  MOVWF  FF8
06702:  MOVLW  07
06704:  MOVLB  3
06706:  MOVWF  xD0
06708:  MOVLB  0
0670A:  CALL   435E
0670E:  MOVFF  375,3CE
06712:  MOVLW  01
06714:  MOVLB  3
06716:  MOVWF  xCF
06718:  MOVLB  0
0671A:  CALL   43BC
0671E:  MOVLW  3A
06720:  BTFSS  F9E.4
06722:  BRA    6720
06724:  MOVWF  FAD
06726:  MOVFF  376,3CE
0672A:  MOVLW  01
0672C:  MOVLB  3
0672E:  MOVWF  xCF
06730:  MOVLB  0
06732:  CALL   43BC
06736:  MOVLW  3A
06738:  BTFSS  F9E.4
0673A:  BRA    6738
0673C:  MOVWF  FAD
0673E:  MOVFF  377,3CE
06742:  MOVLW  01
06744:  MOVLB  3
06746:  MOVWF  xCF
06748:  MOVLB  0
0674A:  CALL   43BC
0674E:  MOVLW  22
06750:  BTFSS  F9E.4
06752:  BRA    6750
06754:  MOVWF  FAD
....................       SendDataDisplay(); 
06756:  CALL   34BA
....................       GuardaEEPROM=OFF; 
0675A:  BCF    xA2.3
....................       PruebaEstados=OFF; 
0675C:  BCF    xA1.2
....................       if(RX_Buffer[3]==0x0f || UP){//0f, recibe caracteres ingresados desde el Display 
0675E:  MOVF   33,W
06760:  SUBLW  0F
06762:  BZ    676A
06764:  BSF    F93.0
06766:  BTFSC  F81.0
06768:  BRA    69BE
....................          delay_ms(5); 
0676A:  MOVLW  05
0676C:  MOVLB  3
0676E:  MOVWF  xE1
06770:  MOVLB  0
06772:  CALL   179C
....................          if(RX_Buffer[3]==0x0f || UP){ 
06776:  MOVF   33,W
06778:  SUBLW  0F
0677A:  BZ    6782
0677C:  BSF    F93.0
0677E:  BTFSC  F81.0
06780:  BRA    69B8
....................          if(PantallaPrincipal==0){//Si esta en menu principal 
06782:  MOVLB  2
06784:  MOVF   xD4,F
06786:  BTFSS  FD8.2
06788:  BRA    69BC
....................             if(RX_Buffer[4]==0x37){//Ajustes y pasa a solicitud de password de tecnico 
0678A:  MOVF   34,W
0678C:  SUBLW  37
0678E:  BNZ   67BC
....................                printf("page Clave"); 
06790:  MOVLW  A0
06792:  MOVWF  FF6
06794:  MOVLW  07
06796:  MOVWF  FF7
06798:  MOVLW  00
0679A:  MOVWF  FF8
0679C:  MOVLB  0
0679E:  CALL   3488
....................                SendDataDisplay();  
067A2:  CALL   34BA
....................                Op=OFF; 
067A6:  BCF    xA1.7
....................                Op2=OFF; 
067A8:  BCF    xA2.0
....................                MenuAnt=Menu; 
067AA:  MOVFF  33A,33B
....................                TipoClave=1; 
067AE:  MOVLW  01
067B0:  MOVLB  2
067B2:  MOVWF  xD5
....................                RX_Buffer[3]=0x00; 
067B4:  CLRF   33
....................                RX_Buffer2[3]=0x00; 
067B6:  CLRF   3E
....................                Opcion=0; 
067B8:  MOVLB  3
067BA:  CLRF   x42
....................             }  
....................             if(Opcion==8){// Cambio de Clave 
067BC:  MOVLB  3
067BE:  MOVF   x42,W
067C0:  SUBLW  08
067C2:  BNZ   67F2
....................                printf("page Clave"); 
067C4:  MOVLW  AC
067C6:  MOVWF  FF6
067C8:  MOVLW  07
067CA:  MOVWF  FF7
067CC:  MOVLW  00
067CE:  MOVWF  FF8
067D0:  MOVLB  0
067D2:  CALL   3488
....................                SendDataDisplay();  
067D6:  CALL   34BA
....................                Op=OFF; 
067DA:  BCF    xA1.7
....................                Op2=OFF; 
067DC:  BCF    xA2.0
....................                MenuAnt=Menu; 
067DE:  MOVFF  33A,33B
....................                TipoClave=2; 
067E2:  MOVLW  02
067E4:  MOVLB  2
067E6:  MOVWF  xD5
....................                RX_Buffer[3]=0x00; 
067E8:  CLRF   33
....................                RX_Buffer2[3]=0x00; 
067EA:  CLRF   3E
....................                Opcion=0; 
067EC:  MOVLB  3
067EE:  CLRF   x42
....................             }else if(Opcion==7){//Hora y Fecha 
067F0:  BRA    69BA
067F2:  MOVF   x42,W
067F4:  SUBLW  07
067F6:  BNZ   6834
....................                printf("page Fecha"); 
067F8:  MOVLW  B8
067FA:  MOVWF  FF6
067FC:  MOVLW  07
067FE:  MOVWF  FF7
06800:  MOVLW  00
06802:  MOVWF  FF8
06804:  MOVLB  0
06806:  CALL   3488
....................                SendDataDisplay();      
0680A:  CALL   34BA
....................                PantallaPrincipal=0; 
0680E:  MOVLB  2
06810:  CLRF   xD4
....................                MenuAnt=Menu; 
06812:  MOVFF  33A,33B
....................                Op=OFF; 
06816:  MOVLB  0
06818:  BCF    xA1.7
....................                Op2=OFF; 
0681A:  BCF    xA2.0
....................                DiaTx=Dia; 
0681C:  MOVFF  374,37B
....................                MesTx=Mes; 
06820:  MOVFF  373,37A
....................                YearTx=Year; 
06824:  MOVFF  372,379
....................                HoraTx=Hora; 
06828:  MOVFF  375,37C
....................                MinutoTx=Minuto; 
0682C:  MOVFF  376,37D
....................             }else if(Opcion==6){//Test 
06830:  BRA    69B8
06832:  MOVLB  3
06834:  MOVF   x42,W
06836:  SUBLW  06
06838:  BNZ   6862
....................                printf("page Test"); 
0683A:  MOVLW  C4
0683C:  MOVWF  FF6
0683E:  MOVLW  07
06840:  MOVWF  FF7
06842:  MOVLW  00
06844:  MOVWF  FF8
06846:  MOVLB  0
06848:  CALL   3488
....................                SendDataDisplay();      
0684C:  CALL   34BA
....................                PantallaPrincipal=0; 
06850:  MOVLB  2
06852:  CLRF   xD4
....................                MenuAnt=Menu; 
06854:  MOVFF  33A,33B
....................                Op=OFF; 
06858:  MOVLB  0
0685A:  BCF    xA1.7
....................                Op2=OFF; 
0685C:  BCF    xA2.0
....................             }else if(Opcion==5){//Ciclo Personalizado 
0685E:  BRA    69B8
06860:  MOVLB  3
06862:  MOVF   x42,W
06864:  SUBLW  05
06866:  BNZ   688A
....................                printf("page CicloPersona"); 
06868:  MOVLW  CE
0686A:  MOVWF  FF6
0686C:  MOVLW  07
0686E:  MOVWF  FF7
06870:  MOVLW  00
06872:  MOVWF  FF8
06874:  MOVLB  0
06876:  CALL   3488
....................                SendDataDisplay();  
0687A:  CALL   34BA
....................                MenuAnt=Menu; 
0687E:  MOVFF  33A,33B
....................                Op=OFF; 
06882:  BCF    xA1.7
....................                Op2=OFF; 
06884:  BCF    xA2.0
....................             }else if(Opcion==4){//LiquidosB 
06886:  BRA    69B8
06888:  MOVLB  3
0688A:  MOVF   x42,W
0688C:  SUBLW  04
0688E:  BNZ   68D8
....................                printf("page Nivel"); 
06890:  MOVLW  E0
06892:  MOVWF  FF6
06894:  MOVLW  07
06896:  MOVWF  FF7
06898:  MOVLW  00
0689A:  MOVWF  FF8
0689C:  MOVLB  0
0689E:  CALL   3488
....................                SendDataDisplay();        
068A2:  CALL   34BA
....................                ConfiguraCiclo(0,0,0,3,0,0,0,0,1,4,121); 
068A6:  MOVLB  3
068A8:  CLRF   xD6
068AA:  CLRF   xD7
068AC:  CLRF   xD8
068AE:  MOVLW  03
068B0:  MOVWF  xD9
068B2:  CLRF   xDA
068B4:  CLRF   xDB
068B6:  CLRF   xDC
068B8:  CLRF   xDD
068BA:  MOVLW  01
068BC:  MOVWF  xDE
068BE:  MOVLW  04
068C0:  MOVWF  xDF
068C2:  MOVLW  79
068C4:  MOVWF  xE0
068C6:  MOVLB  0
068C8:  CALL   46A2
....................                Op=OFF; 
068CC:  BCF    xA1.7
....................                Op2=OFF; 
068CE:  BCF    xA2.0
....................                MenuAnt=2; 
068D0:  MOVLW  02
068D2:  MOVLB  3
068D4:  MOVWF  x3B
....................             }else if(Opcion==1){//LiquidosA 
068D6:  BRA    69BA
068D8:  DECFSZ x42,W
068DA:  BRA    6922
....................                printf("page Nivel"); 
068DC:  MOVLW  EC
068DE:  MOVWF  FF6
068E0:  MOVLW  07
068E2:  MOVWF  FF7
068E4:  MOVLW  00
068E6:  MOVWF  FF8
068E8:  MOVLB  0
068EA:  CALL   3488
....................                SendDataDisplay();        
068EE:  CALL   34BA
....................                ConfiguraCiclo(0,0,5,1,0,0,0,0,1,1,121); 
068F2:  MOVLB  3
068F4:  CLRF   xD6
068F6:  CLRF   xD7
068F8:  MOVLW  05
068FA:  MOVWF  xD8
068FC:  MOVLW  01
068FE:  MOVWF  xD9
06900:  CLRF   xDA
06902:  CLRF   xDB
06904:  CLRF   xDC
06906:  CLRF   xDD
06908:  MOVWF  xDE
0690A:  MOVWF  xDF
0690C:  MOVLW  79
0690E:  MOVWF  xE0
06910:  MOVLB  0
06912:  CALL   46A2
....................                Op=OFF; 
06916:  BCF    xA1.7
....................                Op2=OFF; 
06918:  BCF    xA2.0
....................                MenuAnt=2; 
0691A:  MOVLW  02
0691C:  MOVLB  3
0691E:  MOVWF  x3B
....................             }else if(Opcion==3){//Instrumental 
06920:  BRA    69BA
06922:  MOVF   x42,W
06924:  SUBLW  03
06926:  BNZ   696C
....................                printf("page Funcionamiento"); 
06928:  MOVLW  F8
0692A:  MOVWF  FF6
0692C:  MOVLW  07
0692E:  MOVWF  FF7
06930:  MOVLW  00
06932:  MOVWF  FF8
06934:  MOVLB  0
06936:  CALL   3488
....................                SendDataDisplay();        
0693A:  CALL   34BA
....................                ConfiguraCiclo(0,0,0,3,0,0,0,3,0,3,121); 
0693E:  MOVLB  3
06940:  CLRF   xD6
06942:  CLRF   xD7
06944:  CLRF   xD8
06946:  MOVLW  03
06948:  MOVWF  xD9
0694A:  CLRF   xDA
0694C:  CLRF   xDB
0694E:  CLRF   xDC
06950:  MOVWF  xDD
06952:  CLRF   xDE
06954:  MOVWF  xDF
06956:  MOVLW  79
06958:  MOVWF  xE0
0695A:  MOVLB  0
0695C:  CALL   46A2
....................                Op=OFF; 
06960:  BCF    xA1.7
....................                Op2=OFF; 
06962:  BCF    xA2.0
....................                MenuAnt=Menu; 
06964:  MOVFF  33A,33B
....................                //if(Temperatura>60)TTrampa=TTrampa+5; 
....................             }else if(Opcion==2){//Caucho 
06968:  BRA    69B8
0696A:  MOVLB  3
0696C:  MOVF   x42,W
0696E:  SUBLW  02
06970:  BNZ   69BA
....................                printf("page Funcionamiento"); 
06972:  MOVLW  0C
06974:  MOVWF  FF6
06976:  MOVLW  08
06978:  MOVWF  FF7
0697A:  MOVLW  00
0697C:  MOVWF  FF8
0697E:  MOVLB  0
06980:  CALL   3488
....................                SendDataDisplay();        
06984:  CALL   34BA
....................                ConfiguraCiclo(0,0,5,1,0,0,3,0,0,2,121); 
06988:  MOVLB  3
0698A:  CLRF   xD6
0698C:  CLRF   xD7
0698E:  MOVLW  05
06990:  MOVWF  xD8
06992:  MOVLW  01
06994:  MOVWF  xD9
06996:  CLRF   xDA
06998:  CLRF   xDB
0699A:  MOVLW  03
0699C:  MOVWF  xDC
0699E:  CLRF   xDD
069A0:  CLRF   xDE
069A2:  MOVLW  02
069A4:  MOVWF  xDF
069A6:  MOVLW  79
069A8:  MOVWF  xE0
069AA:  MOVLB  0
069AC:  CALL   46A2
....................                Op=OFF; 
069B0:  BCF    xA1.7
....................                Op2=OFF; 
069B2:  BCF    xA2.0
....................                MenuAnt=Menu; 
069B4:  MOVFF  33A,33B
069B8:  MOVLB  3
069BA:  MOVLB  2
....................                //if(Temperatura>60)TTrampa=TTrampa+5; 
....................             } 
....................          } 
....................          } 
....................       }else if(PantallaPrincipal==0){ 
069BC:  BRA    6F96
069BE:  MOVLB  2
069C0:  MOVF   xD4,F
069C2:  BTFSS  FD8.2
069C4:  BRA    6F96
....................          if(Opcion>8) 
069C6:  MOVLB  3
069C8:  MOVF   x42,W
069CA:  SUBLW  08
069CC:  BC    69D2
....................             Opcion=1; 
069CE:  MOVLW  01
069D0:  MOVWF  x42
....................              
....................          if(Opcion<1) 
069D2:  MOVF   x42,F
069D4:  BNZ   69DA
....................             Opcion=8; 
069D6:  MOVLW  08
069D8:  MOVWF  x42
....................           
....................          if(Opcion==1){ 
069DA:  DECFSZ x42,W
069DC:  BRA    6B80
....................             printf("bc.pic=%u",iconoGrande[Opcion-1]); 
069DE:  MOVLW  01
069E0:  SUBWF  x42,W
069E2:  CLRF   03
069E4:  ADDLW  86
069E6:  MOVWF  FE9
069E8:  MOVLW  03
069EA:  ADDWFC 03,W
069EC:  MOVWF  FEA
069EE:  MOVFF  FEF,3CC
069F2:  MOVLW  20
069F4:  MOVWF  FF6
069F6:  MOVLW  08
069F8:  MOVWF  FF7
069FA:  MOVLW  00
069FC:  MOVWF  FF8
069FE:  MOVLW  07
06A00:  MOVWF  xD0
06A02:  MOVLB  0
06A04:  CALL   435E
06A08:  MOVFF  3CC,3CE
06A0C:  MOVLW  1B
06A0E:  MOVLB  3
06A10:  MOVWF  xCF
06A12:  MOVLB  0
06A14:  CALL   43BC
....................             SendDataDisplay(); 
06A18:  CALL   34BA
....................             printf("bd.pic=%u",iconoPeque[Opcion]); 
06A1C:  CLRF   03
06A1E:  MOVLB  3
06A20:  MOVF   x42,W
06A22:  ADDLW  95
06A24:  MOVWF  FE9
06A26:  MOVLW  03
06A28:  ADDWFC 03,W
06A2A:  MOVWF  FEA
06A2C:  MOVFF  FEF,3CC
06A30:  MOVLW  2A
06A32:  MOVWF  FF6
06A34:  MOVLW  08
06A36:  MOVWF  FF7
06A38:  MOVLW  00
06A3A:  MOVWF  FF8
06A3C:  MOVLW  07
06A3E:  MOVWF  xD0
06A40:  MOVLB  0
06A42:  CALL   435E
06A46:  MOVFF  3CC,3CE
06A4A:  MOVLW  1B
06A4C:  MOVLB  3
06A4E:  MOVWF  xCF
06A50:  MOVLB  0
06A52:  CALL   43BC
....................             SendDataDisplay(); 
06A56:  CALL   34BA
....................             printf("bi.pic=%u",iconoPeque[7]); 
06A5A:  MOVLW  34
06A5C:  MOVWF  FF6
06A5E:  MOVLW  08
06A60:  MOVWF  FF7
06A62:  MOVLW  00
06A64:  MOVWF  FF8
06A66:  MOVLW  07
06A68:  MOVLB  3
06A6A:  MOVWF  xD0
06A6C:  MOVLB  0
06A6E:  CALL   435E
06A72:  MOVFF  39C,3CE
06A76:  MOVLW  1B
06A78:  MOVLB  3
06A7A:  MOVWF  xCF
06A7C:  MOVLB  0
06A7E:  CALL   43BC
....................             SendDataDisplay(); 
06A82:  CALL   34BA
....................             printf("bc.pic2=%u",iconoGrande[Opcion-1]); 
06A86:  MOVLW  01
06A88:  MOVLB  3
06A8A:  SUBWF  x42,W
06A8C:  CLRF   03
06A8E:  ADDLW  86
06A90:  MOVWF  FE9
06A92:  MOVLW  03
06A94:  ADDWFC 03,W
06A96:  MOVWF  FEA
06A98:  MOVFF  FEF,3CC
06A9C:  MOVLW  3E
06A9E:  MOVWF  FF6
06AA0:  MOVLW  08
06AA2:  MOVWF  FF7
06AA4:  MOVLW  00
06AA6:  MOVWF  FF8
06AA8:  MOVLW  08
06AAA:  MOVWF  xD0
06AAC:  MOVLB  0
06AAE:  CALL   435E
06AB2:  MOVFF  3CC,3CE
06AB6:  MOVLW  1B
06AB8:  MOVLB  3
06ABA:  MOVWF  xCF
06ABC:  MOVLB  0
06ABE:  CALL   43BC
....................             SendDataDisplay(); 
06AC2:  CALL   34BA
....................             printf("bd.pic2=%u",iconoPeque[Opcion]); 
06AC6:  CLRF   03
06AC8:  MOVLB  3
06ACA:  MOVF   x42,W
06ACC:  ADDLW  95
06ACE:  MOVWF  FE9
06AD0:  MOVLW  03
06AD2:  ADDWFC 03,W
06AD4:  MOVWF  FEA
06AD6:  MOVFF  FEF,3CC
06ADA:  MOVLW  4A
06ADC:  MOVWF  FF6
06ADE:  MOVLW  08
06AE0:  MOVWF  FF7
06AE2:  MOVLW  00
06AE4:  MOVWF  FF8
06AE6:  MOVLW  08
06AE8:  MOVWF  xD0
06AEA:  MOVLB  0
06AEC:  CALL   435E
06AF0:  MOVFF  3CC,3CE
06AF4:  MOVLW  1B
06AF6:  MOVLB  3
06AF8:  MOVWF  xCF
06AFA:  MOVLB  0
06AFC:  CALL   43BC
....................             SendDataDisplay(); 
06B00:  CALL   34BA
....................             printf("bi.pic2=%u",iconoPeque[7]); 
06B04:  MOVLW  56
06B06:  MOVWF  FF6
06B08:  MOVLW  08
06B0A:  MOVWF  FF7
06B0C:  MOVLW  00
06B0E:  MOVWF  FF8
06B10:  MOVLW  08
06B12:  MOVLB  3
06B14:  MOVWF  xD0
06B16:  MOVLB  0
06B18:  CALL   435E
06B1C:  MOVFF  39C,3CE
06B20:  MOVLW  1B
06B22:  MOVLB  3
06B24:  MOVWF  xCF
06B26:  MOVLB  0
06B28:  CALL   43BC
....................             SendDataDisplay(); 
06B2C:  CALL   34BA
....................             printf("textop.txt=\"%s\"",texto[Opcion-1]); 
06B30:  MOVLW  01
06B32:  MOVLB  3
06B34:  SUBWF  x42,W
06B36:  MULLW  14
06B38:  MOVF   FF3,W
06B3A:  CLRF   03
06B3C:  MOVWF  xCC
06B3E:  MOVLW  62
06B40:  MOVWF  FF6
06B42:  MOVLW  08
06B44:  MOVWF  FF7
06B46:  MOVLW  00
06B48:  MOVWF  FF8
06B4A:  MOVLW  0C
06B4C:  MOVWF  xD0
06B4E:  MOVLB  0
06B50:  CALL   435E
06B54:  MOVLW  50
06B56:  MOVWF  FF6
06B58:  MOVLW  01
06B5A:  MOVWF  FF7
06B5C:  MOVLW  00
06B5E:  MOVWF  FF8
06B60:  MOVLB  3
06B62:  MOVF   xCC,W
06B64:  ADDWF  FF6,F
06B66:  MOVLW  00
06B68:  ADDWFC FF7,F
06B6A:  MOVLB  0
06B6C:  CALL   3488
06B70:  MOVLW  22
06B72:  BTFSS  F9E.4
06B74:  BRA    6B72
06B76:  MOVWF  FAD
....................             SendDataDisplay(); 
06B78:  CALL   34BA
....................          }else if(Opcion==8){ 
06B7C:  BRA    6EF4
06B7E:  MOVLB  3
06B80:  MOVF   x42,W
06B82:  SUBLW  08
06B84:  BTFSS  FD8.2
06B86:  BRA    6D2E
....................             printf("bc.pic=%u",iconoGrande[Opcion-1]); 
06B88:  MOVLW  01
06B8A:  SUBWF  x42,W
06B8C:  CLRF   03
06B8E:  ADDLW  86
06B90:  MOVWF  FE9
06B92:  MOVLW  03
06B94:  ADDWFC 03,W
06B96:  MOVWF  FEA
06B98:  MOVFF  FEF,3CC
06B9C:  MOVLW  72
06B9E:  MOVWF  FF6
06BA0:  MOVLW  08
06BA2:  MOVWF  FF7
06BA4:  MOVLW  00
06BA6:  MOVWF  FF8
06BA8:  MOVLW  07
06BAA:  MOVWF  xD0
06BAC:  MOVLB  0
06BAE:  CALL   435E
06BB2:  MOVFF  3CC,3CE
06BB6:  MOVLW  1B
06BB8:  MOVLB  3
06BBA:  MOVWF  xCF
06BBC:  MOVLB  0
06BBE:  CALL   43BC
....................             SendDataDisplay(); 
06BC2:  CALL   34BA
....................             printf("bd.pic=%u",iconoPeque[0]); 
06BC6:  MOVLW  7C
06BC8:  MOVWF  FF6
06BCA:  MOVLW  08
06BCC:  MOVWF  FF7
06BCE:  MOVLW  00
06BD0:  MOVWF  FF8
06BD2:  MOVLW  07
06BD4:  MOVLB  3
06BD6:  MOVWF  xD0
06BD8:  MOVLB  0
06BDA:  CALL   435E
06BDE:  MOVFF  395,3CE
06BE2:  MOVLW  1B
06BE4:  MOVLB  3
06BE6:  MOVWF  xCF
06BE8:  MOVLB  0
06BEA:  CALL   43BC
....................             SendDataDisplay(); 
06BEE:  CALL   34BA
....................             printf("bi.pic=%u",iconoPeque[Opcion-2]); 
06BF2:  MOVLW  02
06BF4:  MOVLB  3
06BF6:  SUBWF  x42,W
06BF8:  CLRF   03
06BFA:  ADDLW  95
06BFC:  MOVWF  FE9
06BFE:  MOVLW  03
06C00:  ADDWFC 03,W
06C02:  MOVWF  FEA
06C04:  MOVFF  FEF,3CC
06C08:  MOVLW  86
06C0A:  MOVWF  FF6
06C0C:  MOVLW  08
06C0E:  MOVWF  FF7
06C10:  MOVLW  00
06C12:  MOVWF  FF8
06C14:  MOVLW  07
06C16:  MOVWF  xD0
06C18:  MOVLB  0
06C1A:  CALL   435E
06C1E:  MOVFF  3CC,3CE
06C22:  MOVLW  1B
06C24:  MOVLB  3
06C26:  MOVWF  xCF
06C28:  MOVLB  0
06C2A:  CALL   43BC
....................             SendDataDisplay(); 
06C2E:  CALL   34BA
....................             printf("bc.pic2=%u",iconoGrande[Opcion-1]); 
06C32:  MOVLW  01
06C34:  MOVLB  3
06C36:  SUBWF  x42,W
06C38:  CLRF   03
06C3A:  ADDLW  86
06C3C:  MOVWF  FE9
06C3E:  MOVLW  03
06C40:  ADDWFC 03,W
06C42:  MOVWF  FEA
06C44:  MOVFF  FEF,3CC
06C48:  MOVLW  90
06C4A:  MOVWF  FF6
06C4C:  MOVLW  08
06C4E:  MOVWF  FF7
06C50:  MOVLW  00
06C52:  MOVWF  FF8
06C54:  MOVLW  08
06C56:  MOVWF  xD0
06C58:  MOVLB  0
06C5A:  CALL   435E
06C5E:  MOVFF  3CC,3CE
06C62:  MOVLW  1B
06C64:  MOVLB  3
06C66:  MOVWF  xCF
06C68:  MOVLB  0
06C6A:  CALL   43BC
....................             SendDataDisplay(); 
06C6E:  CALL   34BA
....................             printf("bd.pic2=%u",iconoPeque[0]); 
06C72:  MOVLW  9C
06C74:  MOVWF  FF6
06C76:  MOVLW  08
06C78:  MOVWF  FF7
06C7A:  MOVLW  00
06C7C:  MOVWF  FF8
06C7E:  MOVLW  08
06C80:  MOVLB  3
06C82:  MOVWF  xD0
06C84:  MOVLB  0
06C86:  CALL   435E
06C8A:  MOVFF  395,3CE
06C8E:  MOVLW  1B
06C90:  MOVLB  3
06C92:  MOVWF  xCF
06C94:  MOVLB  0
06C96:  CALL   43BC
....................             SendDataDisplay(); 
06C9A:  CALL   34BA
....................             printf("bi.pic2=%u",iconoPeque[Opcion-2]); 
06C9E:  MOVLW  02
06CA0:  MOVLB  3
06CA2:  SUBWF  x42,W
06CA4:  CLRF   03
06CA6:  ADDLW  95
06CA8:  MOVWF  FE9
06CAA:  MOVLW  03
06CAC:  ADDWFC 03,W
06CAE:  MOVWF  FEA
06CB0:  MOVFF  FEF,3CC
06CB4:  MOVLW  A8
06CB6:  MOVWF  FF6
06CB8:  MOVLW  08
06CBA:  MOVWF  FF7
06CBC:  MOVLW  00
06CBE:  MOVWF  FF8
06CC0:  MOVLW  08
06CC2:  MOVWF  xD0
06CC4:  MOVLB  0
06CC6:  CALL   435E
06CCA:  MOVFF  3CC,3CE
06CCE:  MOVLW  1B
06CD0:  MOVLB  3
06CD2:  MOVWF  xCF
06CD4:  MOVLB  0
06CD6:  CALL   43BC
....................             SendDataDisplay(); 
06CDA:  CALL   34BA
....................             printf("textop.txt=\"%s\"",texto[Opcion-1]); 
06CDE:  MOVLW  01
06CE0:  MOVLB  3
06CE2:  SUBWF  x42,W
06CE4:  MULLW  14
06CE6:  MOVF   FF3,W
06CE8:  CLRF   03
06CEA:  MOVWF  xCC
06CEC:  MOVLW  B4
06CEE:  MOVWF  FF6
06CF0:  MOVLW  08
06CF2:  MOVWF  FF7
06CF4:  MOVLW  00
06CF6:  MOVWF  FF8
06CF8:  MOVLW  0C
06CFA:  MOVWF  xD0
06CFC:  MOVLB  0
06CFE:  CALL   435E
06D02:  MOVLW  50
06D04:  MOVWF  FF6
06D06:  MOVLW  01
06D08:  MOVWF  FF7
06D0A:  MOVLW  00
06D0C:  MOVWF  FF8
06D0E:  MOVLB  3
06D10:  MOVF   xCC,W
06D12:  ADDWF  FF6,F
06D14:  MOVLW  00
06D16:  ADDWFC FF7,F
06D18:  MOVLB  0
06D1A:  CALL   3488
06D1E:  MOVLW  22
06D20:  BTFSS  F9E.4
06D22:  BRA    6D20
06D24:  MOVWF  FAD
....................             SendDataDisplay(); 
06D26:  CALL   34BA
....................          }else{ 
06D2A:  BRA    6EF4
06D2C:  MOVLB  3
....................             printf("bc.pic=%u",iconoGrande[Opcion-1]); 
06D2E:  MOVLW  01
06D30:  SUBWF  x42,W
06D32:  CLRF   03
06D34:  ADDLW  86
06D36:  MOVWF  FE9
06D38:  MOVLW  03
06D3A:  ADDWFC 03,W
06D3C:  MOVWF  FEA
06D3E:  MOVFF  FEF,3CC
06D42:  MOVLW  C4
06D44:  MOVWF  FF6
06D46:  MOVLW  08
06D48:  MOVWF  FF7
06D4A:  MOVLW  00
06D4C:  MOVWF  FF8
06D4E:  MOVLW  07
06D50:  MOVWF  xD0
06D52:  MOVLB  0
06D54:  CALL   435E
06D58:  MOVFF  3CC,3CE
06D5C:  MOVLW  1B
06D5E:  MOVLB  3
06D60:  MOVWF  xCF
06D62:  MOVLB  0
06D64:  CALL   43BC
....................             SendDataDisplay(); 
06D68:  CALL   34BA
....................             printf("bd.pic=%u",iconoPeque[Opcion]); 
06D6C:  CLRF   03
06D6E:  MOVLB  3
06D70:  MOVF   x42,W
06D72:  ADDLW  95
06D74:  MOVWF  FE9
06D76:  MOVLW  03
06D78:  ADDWFC 03,W
06D7A:  MOVWF  FEA
06D7C:  MOVFF  FEF,3CC
06D80:  MOVLW  CE
06D82:  MOVWF  FF6
06D84:  MOVLW  08
06D86:  MOVWF  FF7
06D88:  MOVLW  00
06D8A:  MOVWF  FF8
06D8C:  MOVLW  07
06D8E:  MOVWF  xD0
06D90:  MOVLB  0
06D92:  CALL   435E
06D96:  MOVFF  3CC,3CE
06D9A:  MOVLW  1B
06D9C:  MOVLB  3
06D9E:  MOVWF  xCF
06DA0:  MOVLB  0
06DA2:  CALL   43BC
....................             SendDataDisplay(); 
06DA6:  CALL   34BA
....................             printf("bi.pic=%u",iconoPeque[Opcion-2]); 
06DAA:  MOVLW  02
06DAC:  MOVLB  3
06DAE:  SUBWF  x42,W
06DB0:  CLRF   03
06DB2:  ADDLW  95
06DB4:  MOVWF  FE9
06DB6:  MOVLW  03
06DB8:  ADDWFC 03,W
06DBA:  MOVWF  FEA
06DBC:  MOVFF  FEF,3CC
06DC0:  MOVLW  D8
06DC2:  MOVWF  FF6
06DC4:  MOVLW  08
06DC6:  MOVWF  FF7
06DC8:  MOVLW  00
06DCA:  MOVWF  FF8
06DCC:  MOVLW  07
06DCE:  MOVWF  xD0
06DD0:  MOVLB  0
06DD2:  CALL   435E
06DD6:  MOVFF  3CC,3CE
06DDA:  MOVLW  1B
06DDC:  MOVLB  3
06DDE:  MOVWF  xCF
06DE0:  MOVLB  0
06DE2:  CALL   43BC
....................             SendDataDisplay(); 
06DE6:  CALL   34BA
....................             printf("bc.pic2=%u",iconoGrande[Opcion-1]); 
06DEA:  MOVLW  01
06DEC:  MOVLB  3
06DEE:  SUBWF  x42,W
06DF0:  CLRF   03
06DF2:  ADDLW  86
06DF4:  MOVWF  FE9
06DF6:  MOVLW  03
06DF8:  ADDWFC 03,W
06DFA:  MOVWF  FEA
06DFC:  MOVFF  FEF,3CC
06E00:  MOVLW  E2
06E02:  MOVWF  FF6
06E04:  MOVLW  08
06E06:  MOVWF  FF7
06E08:  MOVLW  00
06E0A:  MOVWF  FF8
06E0C:  MOVLW  08
06E0E:  MOVWF  xD0
06E10:  MOVLB  0
06E12:  CALL   435E
06E16:  MOVFF  3CC,3CE
06E1A:  MOVLW  1B
06E1C:  MOVLB  3
06E1E:  MOVWF  xCF
06E20:  MOVLB  0
06E22:  CALL   43BC
....................             SendDataDisplay(); 
06E26:  CALL   34BA
....................             printf("bd.pic2=%u",iconoPeque[Opcion]); 
06E2A:  CLRF   03
06E2C:  MOVLB  3
06E2E:  MOVF   x42,W
06E30:  ADDLW  95
06E32:  MOVWF  FE9
06E34:  MOVLW  03
06E36:  ADDWFC 03,W
06E38:  MOVWF  FEA
06E3A:  MOVFF  FEF,3CC
06E3E:  MOVLW  EE
06E40:  MOVWF  FF6
06E42:  MOVLW  08
06E44:  MOVWF  FF7
06E46:  MOVLW  00
06E48:  MOVWF  FF8
06E4A:  MOVLW  08
06E4C:  MOVWF  xD0
06E4E:  MOVLB  0
06E50:  CALL   435E
06E54:  MOVFF  3CC,3CE
06E58:  MOVLW  1B
06E5A:  MOVLB  3
06E5C:  MOVWF  xCF
06E5E:  MOVLB  0
06E60:  CALL   43BC
....................             SendDataDisplay(); 
06E64:  CALL   34BA
....................             printf("bi.pic2=%u",iconoPeque[Opcion-2]); 
06E68:  MOVLW  02
06E6A:  MOVLB  3
06E6C:  SUBWF  x42,W
06E6E:  CLRF   03
06E70:  ADDLW  95
06E72:  MOVWF  FE9
06E74:  MOVLW  03
06E76:  ADDWFC 03,W
06E78:  MOVWF  FEA
06E7A:  MOVFF  FEF,3CC
06E7E:  MOVLW  FA
06E80:  MOVWF  FF6
06E82:  MOVLW  08
06E84:  MOVWF  FF7
06E86:  MOVLW  00
06E88:  MOVWF  FF8
06E8A:  MOVLW  08
06E8C:  MOVWF  xD0
06E8E:  MOVLB  0
06E90:  CALL   435E
06E94:  MOVFF  3CC,3CE
06E98:  MOVLW  1B
06E9A:  MOVLB  3
06E9C:  MOVWF  xCF
06E9E:  MOVLB  0
06EA0:  CALL   43BC
....................             SendDataDisplay(); 
06EA4:  CALL   34BA
....................             printf("textop.txt=\"%s\"",texto[Opcion-1]); 
06EA8:  MOVLW  01
06EAA:  MOVLB  3
06EAC:  SUBWF  x42,W
06EAE:  MULLW  14
06EB0:  MOVF   FF3,W
06EB2:  CLRF   03
06EB4:  MOVWF  xCC
06EB6:  MOVLW  06
06EB8:  MOVWF  FF6
06EBA:  MOVLW  09
06EBC:  MOVWF  FF7
06EBE:  MOVLW  00
06EC0:  MOVWF  FF8
06EC2:  MOVLW  0C
06EC4:  MOVWF  xD0
06EC6:  MOVLB  0
06EC8:  CALL   435E
06ECC:  MOVLW  50
06ECE:  MOVWF  FF6
06ED0:  MOVLW  01
06ED2:  MOVWF  FF7
06ED4:  MOVLW  00
06ED6:  MOVWF  FF8
06ED8:  MOVLB  3
06EDA:  MOVF   xCC,W
06EDC:  ADDWF  FF6,F
06EDE:  MOVLW  00
06EE0:  ADDWFC FF7,F
06EE2:  MOVLB  0
06EE4:  CALL   3488
06EE8:  MOVLW  22
06EEA:  BTFSS  F9E.4
06EEC:  BRA    6EEA
06EEE:  MOVWF  FAD
....................             SendDataDisplay(); 
06EF0:  CALL   34BA
....................          } 
....................           
....................          printf("ttitulo.txt=\"SELECCIONE SU CICLO\""); 
06EF4:  MOVLW  16
06EF6:  MOVWF  FF6
06EF8:  MOVLW  09
06EFA:  MOVWF  FF7
06EFC:  MOVLW  00
06EFE:  MOVWF  FF8
06F00:  CALL   3488
....................          SendDataDisplay(); 
06F04:  CALL   34BA
....................           
....................          if(RIGHT){ 
06F08:  BSF    F93.2
06F0A:  BTFSC  F81.2
06F0C:  BRA    6F26
....................             delay_ms(20); 
06F0E:  MOVLW  14
06F10:  MOVLB  3
06F12:  MOVWF  xE1
06F14:  MOVLB  0
06F16:  CALL   179C
....................             if(RIGHT){ 
06F1A:  BSF    F93.2
06F1C:  BTFSC  F81.2
06F1E:  BRA    6F26
....................                Opcion++; 
06F20:  MOVLB  3
06F22:  INCF   x42,F
06F24:  MOVLB  0
....................             } 
....................          } 
....................           
....................          if(LEFT){ 
06F26:  BSF    F93.3
06F28:  BTFSC  F81.3
06F2A:  BRA    6F44
....................             delay_ms(20); 
06F2C:  MOVLW  14
06F2E:  MOVLB  3
06F30:  MOVWF  xE1
06F32:  MOVLB  0
06F34:  CALL   179C
....................             if(LEFT){ 
06F38:  BSF    F93.3
06F3A:  BTFSC  F81.3
06F3C:  BRA    6F44
....................                Opcion--; 
06F3E:  MOVLB  3
06F40:  DECF   x42,F
06F42:  MOVLB  0
....................             } 
....................          } 
....................           
....................          if(RX_Buffer[4]==0x0d && !Op){//Tecla Derecha Oprimida 
06F44:  MOVF   34,W
06F46:  SUBLW  0D
06F48:  BNZ   6F58
06F4A:  BTFSC  xA1.7
06F4C:  BRA    6F58
....................             Opcion++; 
06F4E:  MOVLB  3
06F50:  INCF   x42,F
....................             RX_Buffer[4]=0x00; 
06F52:  CLRF   34
....................             Op=ON; 
06F54:  MOVLB  0
06F56:  BSF    xA1.7
....................             //BorraBuffer(); 
....................          } 
....................           
....................          if(RX_Buffer[4]==0x0c && Op){//Tecla Derecha Oprimida 
06F58:  MOVF   34,W
06F5A:  SUBLW  0C
06F5C:  BNZ   6F6C
06F5E:  BTFSS  xA1.7
06F60:  BRA    6F6C
....................             Opcion++; 
06F62:  MOVLB  3
06F64:  INCF   x42,F
....................             RX_Buffer[4]=0x00; 
06F66:  CLRF   34
....................             Op=OFF; 
06F68:  MOVLB  0
06F6A:  BCF    xA1.7
....................             //BorraBuffer(); 
....................          } 
....................           
....................          if(RX_Buffer[4]==0x0e && !Op2){//Tecla Izquierda Oprimida 
06F6C:  MOVF   34,W
06F6E:  SUBLW  0E
06F70:  BNZ   6F80
06F72:  BTFSC  xA2.0
06F74:  BRA    6F80
....................             Opcion--; 
06F76:  MOVLB  3
06F78:  DECF   x42,F
....................             RX_Buffer[4]=0x00; 
06F7A:  CLRF   34
....................             Op2=ON; 
06F7C:  MOVLB  0
06F7E:  BSF    xA2.0
....................             //BorraBuffer(); 
....................          } 
....................           
....................          if(RX_Buffer[4]==0x0f && Op2){//Tecla Izquierda Oprimida 
06F80:  MOVF   34,W
06F82:  SUBLW  0F
06F84:  BNZ   6F94
06F86:  BTFSS  xA2.0
06F88:  BRA    6F94
....................             Opcion--; 
06F8A:  MOVLB  3
06F8C:  DECF   x42,F
....................             RX_Buffer[4]=0x00; 
06F8E:  CLRF   34
....................             Op2=OFF; 
06F90:  MOVLB  0
06F92:  BCF    xA2.0
06F94:  MOVLB  2
....................             //BorraBuffer(); 
....................          } 
....................           
....................       } 
....................          if(RIGHT && LEFT){ 
06F96:  BSF    F93.2
06F98:  BTFSC  F81.2
06F9A:  BRA    6FE8
06F9C:  BSF    F93.3
06F9E:  BTFSC  F81.3
06FA0:  BRA    6FE8
....................             delay_ms(20); 
06FA2:  MOVLW  14
06FA4:  MOVLB  3
06FA6:  MOVWF  xE1
06FA8:  MOVLB  0
06FAA:  CALL   179C
....................             if(RIGHT && LEFT){ 
06FAE:  BSF    F93.2
06FB0:  BTFSC  F81.2
06FB2:  BRA    6FE6
06FB4:  BSF    F93.3
06FB6:  BTFSC  F81.3
06FB8:  BRA    6FE6
....................                printf("page Clave"); 
06FBA:  MOVLW  38
06FBC:  MOVWF  FF6
06FBE:  MOVLW  09
06FC0:  MOVWF  FF7
06FC2:  MOVLW  00
06FC4:  MOVWF  FF8
06FC6:  CALL   3488
....................                SendDataDisplay();  
06FCA:  CALL   34BA
....................                Op=OFF; 
06FCE:  BCF    xA1.7
....................                Op2=OFF; 
06FD0:  BCF    xA2.0
....................                MenuAnt=Menu; 
06FD2:  MOVFF  33A,33B
....................                TipoClave=1; 
06FD6:  MOVLW  01
06FD8:  MOVLB  2
06FDA:  MOVWF  xD5
....................                RX_Buffer[3]=0x00; 
06FDC:  CLRF   33
....................                RX_Buffer2[3]=0x00; 
06FDE:  CLRF   3E
....................                Opcion=0; 
06FE0:  MOVLB  3
06FE2:  CLRF   x42
06FE4:  MOVLB  0
06FE6:  MOVLB  2
....................             } 
....................          } 
....................    } 
.................... //_--------------------------------------------------------------------------------------------------------------------------------------------------------        
....................  
.................... //_-------------------------------------------------------------------------------------------------------------------------------------------------------- 
....................     if(Menu==2){ //Menu de Tiempo Esterilizacion      
06FE8:  MOVLB  3
06FEA:  MOVF   x3A,W
06FEC:  SUBLW  02
06FEE:  BTFSS  FD8.2
06FF0:  BRA    7512
....................       printf("fecha.txt=\"T:%3.1fC Fecha:%02u/%02u/20%02u Hora: %02u:%02u:%02u\"",Temperatura,Dia,Mes,Year,Hora,Minuto,Segundo); 
06FF2:  MOVLW  44
06FF4:  MOVWF  FF6
06FF6:  MOVLW  09
06FF8:  MOVWF  FF7
06FFA:  MOVLW  00
06FFC:  MOVWF  FF8
06FFE:  MOVLW  0D
07000:  MOVWF  xD0
07002:  MOVLB  0
07004:  CALL   435E
07008:  MOVLW  02
0700A:  MOVWF  FE9
0700C:  MOVFF  31B,3D3
07010:  MOVFF  31A,3D2
07014:  MOVFF  319,3D1
07018:  MOVFF  318,3D0
0701C:  MOVLW  01
0701E:  MOVLB  3
07020:  MOVWF  xD4
07022:  MOVLB  0
07024:  CALL   44FE
07028:  MOVLW  56
0702A:  MOVWF  FF6
0702C:  MOVLW  09
0702E:  MOVWF  FF7
07030:  MOVLW  00
07032:  MOVWF  FF8
07034:  MOVLW  09
07036:  MOVLB  3
07038:  MOVWF  xD0
0703A:  MOVLB  0
0703C:  CALL   435E
07040:  MOVFF  374,3CE
07044:  MOVLW  01
07046:  MOVLB  3
07048:  MOVWF  xCF
0704A:  MOVLB  0
0704C:  CALL   43BC
07050:  MOVLW  2F
07052:  BTFSS  F9E.4
07054:  BRA    7052
07056:  MOVWF  FAD
07058:  MOVFF  373,3CE
0705C:  MOVLW  01
0705E:  MOVLB  3
07060:  MOVWF  xCF
07062:  MOVLB  0
07064:  CALL   43BC
07068:  MOVLW  2F
0706A:  BTFSS  F9E.4
0706C:  BRA    706A
0706E:  MOVWF  FAD
07070:  MOVLW  32
07072:  BTFSS  F9E.4
07074:  BRA    7072
07076:  MOVWF  FAD
07078:  MOVLW  30
0707A:  BTFSS  F9E.4
0707C:  BRA    707A
0707E:  MOVWF  FAD
07080:  MOVFF  372,3CE
07084:  MOVLW  01
07086:  MOVLB  3
07088:  MOVWF  xCF
0708A:  MOVLB  0
0708C:  CALL   43BC
07090:  MOVLW  6F
07092:  MOVWF  FF6
07094:  MOVLW  09
07096:  MOVWF  FF7
07098:  MOVLW  00
0709A:  MOVWF  FF8
0709C:  MOVLW  07
0709E:  MOVLB  3
070A0:  MOVWF  xD0
070A2:  MOVLB  0
070A4:  CALL   435E
070A8:  MOVFF  375,3CE
070AC:  MOVLW  01
070AE:  MOVLB  3
070B0:  MOVWF  xCF
070B2:  MOVLB  0
070B4:  CALL   43BC
070B8:  MOVLW  3A
070BA:  BTFSS  F9E.4
070BC:  BRA    70BA
070BE:  MOVWF  FAD
070C0:  MOVFF  376,3CE
070C4:  MOVLW  01
070C6:  MOVLB  3
070C8:  MOVWF  xCF
070CA:  MOVLB  0
070CC:  CALL   43BC
070D0:  MOVLW  3A
070D2:  BTFSS  F9E.4
070D4:  BRA    70D2
070D6:  MOVWF  FAD
070D8:  MOVFF  377,3CE
070DC:  MOVLW  01
070DE:  MOVLB  3
070E0:  MOVWF  xCF
070E2:  MOVLB  0
070E4:  CALL   43BC
070E8:  MOVLW  22
070EA:  BTFSS  F9E.4
070EC:  BRA    70EA
070EE:  MOVWF  FAD
....................       SendDataDisplay(); 
070F0:  CALL   34BA
....................          if(RX_Buffer[4]==0x0a){//Selecciono Minutos 
070F4:  MOVF   34,W
070F6:  SUBLW  0A
070F8:  BNZ   70FE
....................             Minutos=ON; 
070FA:  BSF    xA2.1
....................             Segundos=OFF; 
070FC:  BCF    xA2.2
....................          } 
....................           
....................          if(RX_Buffer[4]==0x0b){//Selecciono Segundos 
070FE:  MOVF   34,W
07100:  SUBLW  0B
07102:  BNZ   7108
....................             Segundos=ON; 
07104:  BSF    xA2.2
....................             Minutos=OFF; 
07106:  BCF    xA2.1
....................          }            
....................           
....................          if(RX_Buffer[4]==0x11 || LEFT){//Selecciono Regresar 
07108:  MOVF   34,W
0710A:  SUBLW  11
0710C:  BZ    7114
0710E:  BSF    F93.3
07110:  BTFSC  F81.3
07112:  BRA    7296
....................             delay_ms(100); 
07114:  MOVLW  64
07116:  MOVLB  3
07118:  MOVWF  xE1
0711A:  MOVLB  0
0711C:  CALL   179C
....................             if(RX_Buffer[4]==0x11 || LEFT){ 
07120:  MOVF   34,W
07122:  SUBLW  11
07124:  BZ    712C
07126:  BSF    F93.3
07128:  BTFSC  F81.3
0712A:  BRA    7296
....................                Segundos=OFF; 
0712C:  BCF    xA2.2
....................                Minutos=OFF; 
0712E:  BCF    xA2.1
....................                printf("page CicloPersona"); 
07130:  MOVLW  86
07132:  MOVWF  FF6
07134:  MOVLW  09
07136:  MOVWF  FF7
07138:  MOVLW  00
0713A:  MOVWF  FF8
0713C:  CALL   3488
....................                SendDataDisplay();   
07140:  CALL   34BA
....................                PantallaPrincipal=1; 
07144:  MOVLW  01
07146:  MOVLB  2
07148:  MOVWF  xD4
....................                Op=OFF; 
0714A:  MOVLB  0
0714C:  BCF    xA1.7
....................                Op2=OFF; 
0714E:  BCF    xA2.0
....................                if(!GuardaEEPROM){ 
07150:  BTFSC  xA2.3
07152:  BRA    7296
....................                   CiclosPersonalizados[CicloLibre-1].Minutoest=Testerilizacionp[2]+(Testerilizacionp[3]*10); 
07154:  MOVLW  01
07156:  MOVLB  3
07158:  SUBWF  x2E,W
0715A:  MULLW  0A
0715C:  MOVF   FF3,W
0715E:  CLRF   xCD
07160:  MOVWF  xCC
07162:  MOVLW  09
07164:  ADDWF  xCC,W
07166:  MOVWF  01
07168:  MOVLW  00
0716A:  ADDWFC xCD,W
0716C:  MOVWF  03
0716E:  MOVF   01,W
07170:  ADDLW  A4
07172:  MOVWF  FE9
07174:  MOVLW  03
07176:  ADDWFC 03,W
07178:  MOVWF  FEA
0717A:  MOVFF  BC,3CE
0717E:  MOVLW  0A
07180:  MOVWF  xCF
07182:  MOVLB  0
07184:  CALL   2A1C
07188:  MOVF   01,W
0718A:  ADDWF  xBB,W
0718C:  MOVWF  FEF
....................                   CiclosPersonalizados[CicloLibre-1].Segundoest=Testerilizacionp[0]+(Testerilizacionp[1]*10); 
0718E:  MOVLW  01
07190:  MOVLB  3
07192:  SUBWF  x2E,W
07194:  MULLW  0A
07196:  MOVF   FF3,W
07198:  CLRF   xCD
0719A:  MOVWF  xCC
0719C:  MOVLW  03
0719E:  ADDWF  xCC,W
071A0:  MOVWF  01
071A2:  MOVLW  00
071A4:  ADDWFC xCD,W
071A6:  MOVWF  03
071A8:  MOVF   01,W
071AA:  ADDLW  A4
071AC:  MOVWF  FE9
071AE:  MOVLW  03
071B0:  ADDWFC 03,W
071B2:  MOVWF  FEA
071B4:  MOVFF  BA,3CE
071B8:  MOVLW  0A
071BA:  MOVWF  xCF
071BC:  MOVLB  0
071BE:  CALL   2A1C
071C2:  MOVF   01,W
071C4:  ADDWF  xB9,W
071C6:  MOVWF  FEF
....................                   write_eeprom(102+((CicloLibre-1)*8),Testerilizacionp[2]+(Testerilizacionp[3]*10)); 
071C8:  MOVLW  01
071CA:  MOVLB  3
071CC:  SUBWF  x2E,W
071CE:  MULLW  08
071D0:  MOVF   FF3,W
071D2:  ADDLW  66
071D4:  MOVWF  xCC
071D6:  MOVFF  BC,3CE
071DA:  MOVLW  0A
071DC:  MOVWF  xCF
071DE:  MOVLB  0
071E0:  CALL   2A1C
071E4:  MOVF   01,W
071E6:  ADDWF  xBB,W
071E8:  MOVLB  3
071EA:  MOVWF  xCD
071EC:  CLRF   FAA
071EE:  MOVFF  3CC,FA9
071F2:  MOVFF  3CD,FA8
071F6:  BCF    FA6.6
071F8:  BCF    FA6.7
071FA:  BSF    FA6.2
071FC:  MOVF   FF2,W
071FE:  MOVWF  00
07200:  BCF    FF2.6
07202:  BCF    FF2.7
07204:  MOVLB  F
07206:  MOVLW  55
07208:  MOVWF  FA7
0720A:  MOVLW  AA
0720C:  MOVWF  FA7
0720E:  BSF    FA6.1
07210:  BTFSC  FA6.1
07212:  BRA    7210
07214:  BCF    FA6.2
07216:  MOVF   00,W
07218:  IORWF  FF2,F
....................                   delay_ms(10); 
0721A:  MOVLW  0A
0721C:  MOVLB  3
0721E:  MOVWF  xE1
07220:  MOVLB  0
07222:  CALL   179C
....................                   write_eeprom(103+((CicloLibre-1)*8),Testerilizacionp[0]+(Testerilizacionp[1]*10)); 
07226:  MOVLW  01
07228:  MOVLB  3
0722A:  SUBWF  x2E,W
0722C:  MULLW  08
0722E:  MOVF   FF3,W
07230:  ADDLW  67
07232:  MOVWF  xCC
07234:  MOVFF  BA,3CE
07238:  MOVLW  0A
0723A:  MOVWF  xCF
0723C:  MOVLB  0
0723E:  CALL   2A1C
07242:  MOVF   01,W
07244:  ADDWF  xB9,W
07246:  MOVLB  3
07248:  MOVWF  xCD
0724A:  CLRF   FAA
0724C:  MOVFF  3CC,FA9
07250:  MOVFF  3CD,FA8
07254:  BCF    FA6.6
07256:  BCF    FA6.7
07258:  BSF    FA6.2
0725A:  MOVF   FF2,W
0725C:  MOVWF  00
0725E:  BCF    FF2.6
07260:  BCF    FF2.7
07262:  MOVLB  F
07264:  MOVLW  55
07266:  MOVWF  FA7
07268:  MOVLW  AA
0726A:  MOVWF  FA7
0726C:  BSF    FA6.1
0726E:  BTFSC  FA6.1
07270:  BRA    726E
07272:  BCF    FA6.2
07274:  MOVF   00,W
07276:  IORWF  FF2,F
....................                   delay_ms(10); 
07278:  MOVLW  0A
0727A:  MOVLB  3
0727C:  MOVWF  xE1
0727E:  MOVLB  0
07280:  CALL   179C
....................                   Testerilizacion[0]=Testerilizacionp[0]; 
07284:  MOVFF  B9,B4
....................                   Testerilizacion[1]=Testerilizacionp[1]; 
07288:  MOVFF  BA,B5
....................                   Testerilizacion[2]=Testerilizacionp[2]; 
0728C:  MOVFF  BB,B6
....................                   Testerilizacion[3]=Testerilizacionp[3];                   
07290:  MOVFF  BC,B7
....................                   GuardaEEPROM=ON; 
07294:  BSF    xA2.3
....................                } 
....................             } 
....................          } 
....................           
....................          if(RIGHT){ 
07296:  BSF    F93.2
07298:  BTFSC  F81.2
0729A:  BRA    7310
....................             delay_ms(100); 
0729C:  MOVLW  64
0729E:  MOVLB  3
072A0:  MOVWF  xE1
072A2:  MOVLB  0
072A4:  CALL   179C
....................             if(RIGHT){ 
072A8:  BSF    F93.2
072AA:  BTFSC  F81.2
072AC:  BRA    7310
....................                if(!Segundos){ 
072AE:  BTFSC  xA2.2
072B0:  BRA    72E0
....................                   Segundos=ON; 
072B2:  BSF    xA2.2
....................                   Minutos=OFF; 
072B4:  BCF    xA2.1
....................                   printf("tsecest.pco=65535"); 
072B6:  MOVLW  98
072B8:  MOVWF  FF6
072BA:  MOVLW  09
072BC:  MOVWF  FF7
072BE:  MOVLW  00
072C0:  MOVWF  FF8
072C2:  CALL   3488
....................                   SendDataDisplay();   
072C6:  CALL   34BA
....................                   printf("tminest.pco=0"); 
072CA:  MOVLW  AA
072CC:  MOVWF  FF6
072CE:  MOVLW  09
072D0:  MOVWF  FF7
072D2:  MOVLW  00
072D4:  MOVWF  FF8
072D6:  CALL   3488
....................                   SendDataDisplay();   
072DA:  CALL   34BA
....................                }else if(!Minutos){ 
072DE:  BRA    7310
072E0:  BTFSC  xA2.1
072E2:  BRA    7310
....................                   Segundos=OFF; 
072E4:  BCF    xA2.2
....................                   Minutos=ON; 
072E6:  BSF    xA2.1
....................                   printf("tsecest.pco=0"); 
072E8:  MOVLW  B8
072EA:  MOVWF  FF6
072EC:  MOVLW  09
072EE:  MOVWF  FF7
072F0:  MOVLW  00
072F2:  MOVWF  FF8
072F4:  CALL   3488
....................                   SendDataDisplay();   
072F8:  CALL   34BA
....................                   printf("tminest.pco=65535"); 
072FC:  MOVLW  C6
072FE:  MOVWF  FF6
07300:  MOVLW  09
07302:  MOVWF  FF7
07304:  MOVLW  00
07306:  MOVWF  FF8
07308:  CALL   3488
....................                   SendDataDisplay();   
0730C:  CALL   34BA
....................                } 
....................             } 
....................          } 
....................           
....................          if(UP){ 
07310:  BSF    F93.0
07312:  BTFSC  F81.0
07314:  BRA    735C
....................             delay_ms(100); 
07316:  MOVLW  64
07318:  MOVLB  3
0731A:  MOVWF  xE1
0731C:  MOVLB  0
0731E:  CALL   179C
....................             if(UP){ 
07322:  BSF    F93.0
07324:  BTFSC  F81.0
07326:  BRA    735C
....................                if(Segundos){ 
07328:  BTFSS  xA2.2
0732A:  BRA    733C
....................                   Testerilizacionp[0]++; 
0732C:  INCF   xB9,F
....................                   if(Testerilizacionp[0]>9){ 
0732E:  BTFSC  xB9.7
07330:  BRA    733C
07332:  MOVF   xB9,W
07334:  SUBLW  09
07336:  BC    733C
....................                      Testerilizacionp[1]++; 
07338:  INCF   xBA,F
....................                      Testerilizacionp[0]=0; 
0733A:  CLRF   xB9
....................                   } 
....................                } 
....................                if(Minutos){ 
0733C:  BTFSS  xA2.1
0733E:  BRA    735C
....................                   Testerilizacionp[2]++; 
07340:  INCF   xBB,F
....................                   if(Testerilizacionp[2]>9){ 
07342:  BTFSC  xBB.7
07344:  BRA    7350
07346:  MOVF   xBB,W
07348:  SUBLW  09
0734A:  BC    7350
....................                      Testerilizacionp[3]++; 
0734C:  INCF   xBC,F
....................                      Testerilizacionp[2]=0; 
0734E:  CLRF   xBB
....................                   } 
....................                   if(Testerilizacionp[3]>9){                      
07350:  BTFSC  xBC.7
07352:  BRA    735C
07354:  MOVF   xBC,W
07356:  SUBLW  09
07358:  BC    735C
....................                      Testerilizacionp[3]=0; 
0735A:  CLRF   xBC
....................                   } 
....................                }     
....................             } 
....................          } 
....................           
....................          if(DOWN){ 
0735C:  BSF    F93.1
0735E:  BTFSC  F81.1
07360:  BRA    73A2
....................             delay_ms(100); 
07362:  MOVLW  64
07364:  MOVLB  3
07366:  MOVWF  xE1
07368:  MOVLB  0
0736A:  CALL   179C
....................             if(DOWN){ 
0736E:  BSF    F93.1
07370:  BTFSC  F81.1
07372:  BRA    73A2
....................                if(Segundos){ 
07374:  BTFSS  xA2.2
07376:  BRA    7386
....................                   Testerilizacionp[0]--; 
07378:  DECF   xB9,F
....................                   if(Testerilizacionp[0]<0){ 
0737A:  BTFSC  xB9.7
0737C:  BRA    7380
0737E:  BRA    7386
....................                      Testerilizacionp[1]--; 
07380:  DECF   xBA,F
....................                      Testerilizacionp[0]=9; 
07382:  MOVLW  09
07384:  MOVWF  xB9
....................                   } 
....................                } 
....................                if(Minutos){ 
07386:  BTFSS  xA2.1
07388:  BRA    73A2
....................                   Testerilizacionp[2]--; 
0738A:  DECF   xBB,F
....................                   if(Testerilizacionp[2]<0){ 
0738C:  BTFSC  xBB.7
0738E:  BRA    7392
07390:  BRA    7398
....................                      Testerilizacionp[3]--; 
07392:  DECF   xBC,F
....................                      Testerilizacionp[2]=9; 
07394:  MOVLW  09
07396:  MOVWF  xBB
....................                   } 
....................                   if(Testerilizacionp[3]<0){ 
07398:  BTFSC  xBC.7
0739A:  BRA    739E
0739C:  BRA    73A2
....................                      Testerilizacionp[3]=9; 
0739E:  MOVLW  09
073A0:  MOVWF  xBC
....................                   } 
....................                }     
....................             } 
....................          } 
....................           
....................          if(RX_Buffer[4]==0x0c || RX_Buffer[4]==0x0d){//Tecla Derecha Oprimida 
073A2:  MOVF   34,W
073A4:  SUBLW  0C
073A6:  BZ    73AE
073A8:  MOVF   34,W
073AA:  SUBLW  0D
073AC:  BNZ   73E6
....................             if(Segundos){ 
073AE:  BTFSS  xA2.2
073B0:  BRA    73C2
....................                Testerilizacionp[0]++; 
073B2:  INCF   xB9,F
....................                if(Testerilizacionp[0]>9){ 
073B4:  BTFSC  xB9.7
073B6:  BRA    73C2
073B8:  MOVF   xB9,W
073BA:  SUBLW  09
073BC:  BC    73C2
....................                   Testerilizacionp[1]++; 
073BE:  INCF   xBA,F
....................                   Testerilizacionp[0]=0; 
073C0:  CLRF   xB9
....................                } 
....................             } 
....................             if(Minutos){ 
073C2:  BTFSS  xA2.1
073C4:  BRA    73E2
....................                Testerilizacionp[2]++; 
073C6:  INCF   xBB,F
....................                if(Testerilizacionp[2]>9){ 
073C8:  BTFSC  xBB.7
073CA:  BRA    73D6
073CC:  MOVF   xBB,W
073CE:  SUBLW  09
073D0:  BC    73D6
....................                   Testerilizacionp[3]++; 
073D2:  INCF   xBC,F
....................                   Testerilizacionp[2]=0; 
073D4:  CLRF   xBB
....................                } 
....................                if(Testerilizacionp[3]>9){                   
073D6:  BTFSC  xBC.7
073D8:  BRA    73E2
073DA:  MOVF   xBC,W
073DC:  SUBLW  09
073DE:  BC    73E2
....................                   Testerilizacionp[3]=0; 
073E0:  CLRF   xBC
....................                } 
....................             } 
....................             RX_Buffer[4]=0x00;   
073E2:  CLRF   34
....................             RX_Buffer2[4]=0x00; 
073E4:  CLRF   3F
....................          } 
....................           
....................          if(RX_Buffer[4]==0x0f || RX_Buffer[4]==0x0e){//Tecla Izquierda Oprimida 
073E6:  MOVF   34,W
073E8:  SUBLW  0F
073EA:  BZ    73F2
073EC:  MOVF   34,W
073EE:  SUBLW  0E
073F0:  BNZ   7424
....................              
....................             if(Segundos){ 
073F2:  BTFSS  xA2.2
073F4:  BRA    7404
....................                Testerilizacionp[0]--; 
073F6:  DECF   xB9,F
....................                if(Testerilizacionp[0]<0){ 
073F8:  BTFSC  xB9.7
073FA:  BRA    73FE
073FC:  BRA    7404
....................                   Testerilizacionp[1]--; 
073FE:  DECF   xBA,F
....................                   Testerilizacionp[0]=9; 
07400:  MOVLW  09
07402:  MOVWF  xB9
....................                } 
....................             } 
....................             if(Minutos){ 
07404:  BTFSS  xA2.1
07406:  BRA    7420
....................                Testerilizacionp[2]--; 
07408:  DECF   xBB,F
....................                if(Testerilizacionp[2]<0){ 
0740A:  BTFSC  xBB.7
0740C:  BRA    7410
0740E:  BRA    7416
....................                   Testerilizacionp[3]--; 
07410:  DECF   xBC,F
....................                   Testerilizacionp[2]=9; 
07412:  MOVLW  09
07414:  MOVWF  xBB
....................                } 
....................                if(Testerilizacionp[3]<0){ 
07416:  BTFSC  xBC.7
07418:  BRA    741C
0741A:  BRA    7420
....................                   Testerilizacionp[3]=9; 
0741C:  MOVLW  09
0741E:  MOVWF  xBC
....................                } 
....................             } 
....................             RX_Buffer[4]=0x00;   
07420:  CLRF   34
....................             RX_Buffer2[4]=0x00; 
07422:  CLRF   3F
....................          } 
....................           
....................          if(Testerilizacionp[0]<0) 
07424:  BTFSC  xB9.7
07426:  BRA    742A
07428:  BRA    742E
....................             Testerilizacionp[0]=9;             
0742A:  MOVLW  09
0742C:  MOVWF  xB9
....................          if(Testerilizacionp[1]<0) 
0742E:  BTFSC  xBA.7
07430:  BRA    7434
07432:  BRA    7438
....................             Testerilizacionp[1]=5;             
07434:  MOVLW  05
07436:  MOVWF  xBA
....................          if(Testerilizacionp[2]<0) 
07438:  BTFSC  xBB.7
0743A:  BRA    743E
0743C:  BRA    7442
....................             Testerilizacionp[2]=9;             
0743E:  MOVLW  09
07440:  MOVWF  xBB
....................          if(Testerilizacionp[3]<0) 
07442:  BTFSC  xBC.7
07444:  BRA    7448
07446:  BRA    744C
....................             Testerilizacionp[3]=9;             
07448:  MOVLW  09
0744A:  MOVWF  xBC
....................           
....................          if(Testerilizacionp[0]>9) 
0744C:  BTFSC  xB9.7
0744E:  BRA    7458
07450:  MOVF   xB9,W
07452:  SUBLW  09
07454:  BC    7458
....................             Testerilizacionp[0]=0;             
07456:  CLRF   xB9
....................          if(Testerilizacionp[1]>5) 
07458:  BTFSC  xBA.7
0745A:  BRA    7464
0745C:  MOVF   xBA,W
0745E:  SUBLW  05
07460:  BC    7464
....................             Testerilizacionp[1]=0;             
07462:  CLRF   xBA
....................          if(Testerilizacionp[2]>9) 
07464:  BTFSC  xBB.7
07466:  BRA    7470
07468:  MOVF   xBB,W
0746A:  SUBLW  09
0746C:  BC    7470
....................             Testerilizacionp[2]=0;             
0746E:  CLRF   xBB
....................          if(Testerilizacionp[3]>9) 
07470:  BTFSC  xBC.7
07472:  BRA    747C
07474:  MOVF   xBC,W
07476:  SUBLW  09
07478:  BC    747C
....................             Testerilizacionp[3]=0;  
0747A:  CLRF   xBC
....................              
....................          printf("tminest.txt=\"%02u\"",((Testerilizacionp[3]*10)+Testerilizacionp[2])); 
0747C:  MOVFF  BC,3CE
07480:  MOVLW  0A
07482:  MOVLB  3
07484:  MOVWF  xCF
07486:  MOVLB  0
07488:  CALL   2A1C
0748C:  MOVF   xBB,W
0748E:  ADDWF  01,W
07490:  MOVLB  3
07492:  MOVWF  xCC
07494:  MOVLW  D8
07496:  MOVWF  FF6
07498:  MOVLW  09
0749A:  MOVWF  FF7
0749C:  MOVLW  00
0749E:  MOVWF  FF8
074A0:  MOVLW  0D
074A2:  MOVWF  xD0
074A4:  MOVLB  0
074A6:  CALL   435E
074AA:  MOVFF  3CC,3CE
074AE:  MOVLW  01
074B0:  MOVLB  3
074B2:  MOVWF  xCF
074B4:  MOVLB  0
074B6:  CALL   43BC
074BA:  MOVLW  22
074BC:  BTFSS  F9E.4
074BE:  BRA    74BC
074C0:  MOVWF  FAD
....................          SendDataDisplay(); 
074C2:  CALL   34BA
....................          printf("tsecest.txt=\"%02u\"",((Testerilizacionp[1]*10)+Testerilizacionp[0])); 
074C6:  MOVFF  BA,3CE
074CA:  MOVLW  0A
074CC:  MOVLB  3
074CE:  MOVWF  xCF
074D0:  MOVLB  0
074D2:  CALL   2A1C
074D6:  MOVF   xB9,W
074D8:  ADDWF  01,W
074DA:  MOVLB  3
074DC:  MOVWF  xCC
074DE:  MOVLW  EC
074E0:  MOVWF  FF6
074E2:  MOVLW  09
074E4:  MOVWF  FF7
074E6:  MOVLW  00
074E8:  MOVWF  FF8
074EA:  MOVLW  0D
074EC:  MOVWF  xD0
074EE:  MOVLB  0
074F0:  CALL   435E
074F4:  MOVFF  3CC,3CE
074F8:  MOVLW  01
074FA:  MOVLB  3
074FC:  MOVWF  xCF
074FE:  MOVLB  0
07500:  CALL   43BC
07504:  MOVLW  22
07506:  BTFSS  F9E.4
07508:  BRA    7506
0750A:  MOVWF  FAD
....................          SendDataDisplay(); 
0750C:  CALL   34BA
07510:  MOVLB  3
....................     } 
.................... //_--------------------------------------------------------------------------------------------------------------------------------------------------------        
....................  
.................... //_-------------------------------------------------------------------------------------------------------------------------------------------------------- 
....................     if(Menu==3){ //Menu de Tiempo de Secado 
07512:  MOVF   x3A,W
07514:  SUBLW  03
07516:  BTFSS  FD8.2
07518:  BRA    7A0A
....................       printf("fecha.txt=\"T:%3.1fC Fecha:%02u/%02u/20%02u Hora: %02u:%02u:%02u\"",Temperatura,Dia,Mes,Year,Hora,Minuto,Segundo); 
0751A:  MOVLW  00
0751C:  MOVWF  FF6
0751E:  MOVLW  0A
07520:  MOVWF  FF7
07522:  MOVLW  00
07524:  MOVWF  FF8
07526:  MOVLW  0D
07528:  MOVWF  xD0
0752A:  MOVLB  0
0752C:  CALL   435E
07530:  MOVLW  02
07532:  MOVWF  FE9
07534:  MOVFF  31B,3D3
07538:  MOVFF  31A,3D2
0753C:  MOVFF  319,3D1
07540:  MOVFF  318,3D0
07544:  MOVLW  01
07546:  MOVLB  3
07548:  MOVWF  xD4
0754A:  MOVLB  0
0754C:  CALL   44FE
07550:  MOVLW  12
07552:  MOVWF  FF6
07554:  MOVLW  0A
07556:  MOVWF  FF7
07558:  MOVLW  00
0755A:  MOVWF  FF8
0755C:  MOVLW  09
0755E:  MOVLB  3
07560:  MOVWF  xD0
07562:  MOVLB  0
07564:  CALL   435E
07568:  MOVFF  374,3CE
0756C:  MOVLW  01
0756E:  MOVLB  3
07570:  MOVWF  xCF
07572:  MOVLB  0
07574:  CALL   43BC
07578:  MOVLW  2F
0757A:  BTFSS  F9E.4
0757C:  BRA    757A
0757E:  MOVWF  FAD
07580:  MOVFF  373,3CE
07584:  MOVLW  01
07586:  MOVLB  3
07588:  MOVWF  xCF
0758A:  MOVLB  0
0758C:  CALL   43BC
07590:  MOVLW  2F
07592:  BTFSS  F9E.4
07594:  BRA    7592
07596:  MOVWF  FAD
07598:  MOVLW  32
0759A:  BTFSS  F9E.4
0759C:  BRA    759A
0759E:  MOVWF  FAD
075A0:  MOVLW  30
075A2:  BTFSS  F9E.4
075A4:  BRA    75A2
075A6:  MOVWF  FAD
075A8:  MOVFF  372,3CE
075AC:  MOVLW  01
075AE:  MOVLB  3
075B0:  MOVWF  xCF
075B2:  MOVLB  0
075B4:  CALL   43BC
075B8:  MOVLW  2B
075BA:  MOVWF  FF6
075BC:  MOVLW  0A
075BE:  MOVWF  FF7
075C0:  MOVLW  00
075C2:  MOVWF  FF8
075C4:  MOVLW  07
075C6:  MOVLB  3
075C8:  MOVWF  xD0
075CA:  MOVLB  0
075CC:  CALL   435E
075D0:  MOVFF  375,3CE
075D4:  MOVLW  01
075D6:  MOVLB  3
075D8:  MOVWF  xCF
075DA:  MOVLB  0
075DC:  CALL   43BC
075E0:  MOVLW  3A
075E2:  BTFSS  F9E.4
075E4:  BRA    75E2
075E6:  MOVWF  FAD
075E8:  MOVFF  376,3CE
075EC:  MOVLW  01
075EE:  MOVLB  3
075F0:  MOVWF  xCF
075F2:  MOVLB  0
075F4:  CALL   43BC
075F8:  MOVLW  3A
075FA:  BTFSS  F9E.4
075FC:  BRA    75FA
075FE:  MOVWF  FAD
07600:  MOVFF  377,3CE
07604:  MOVLW  01
07606:  MOVLB  3
07608:  MOVWF  xCF
0760A:  MOVLB  0
0760C:  CALL   43BC
07610:  MOVLW  22
07612:  BTFSS  F9E.4
07614:  BRA    7612
07616:  MOVWF  FAD
....................       SendDataDisplay();             
07618:  CALL   34BA
....................              
....................          if(RX_Buffer[4]==0x0a){//Selecciono Minutos 
0761C:  MOVF   34,W
0761E:  SUBLW  0A
07620:  BNZ   7626
....................             Minutos=ON; 
07622:  BSF    xA2.1
....................             Segundos=OFF; 
07624:  BCF    xA2.2
....................          } 
....................           
....................          if(RX_Buffer[4]==0x0b){//Selecciono Segundos 
07626:  MOVF   34,W
07628:  SUBLW  0B
0762A:  BNZ   7630
....................             Segundos=ON; 
0762C:  BSF    xA2.2
....................             Minutos=OFF; 
0762E:  BCF    xA2.1
....................          } 
....................           
....................          if(RX_Buffer[4]==0x11 || LEFT){//Selecciono Regresar 
07630:  MOVF   34,W
07632:  SUBLW  11
07634:  BZ    763C
07636:  BSF    F93.3
07638:  BTFSC  F81.3
0763A:  BRA    779E
....................             Segundos=OFF; 
0763C:  BCF    xA2.2
....................             Minutos=OFF; 
0763E:  BCF    xA2.1
....................             printf("page CicloPersona"); 
07640:  MOVLW  42
07642:  MOVWF  FF6
07644:  MOVLW  0A
07646:  MOVWF  FF7
07648:  MOVLW  00
0764A:  MOVWF  FF8
0764C:  CALL   3488
....................             SendDataDisplay();   
07650:  CALL   34BA
....................             //PantallaPrincipal=1; 
....................             Op=OFF; 
07654:  BCF    xA1.7
....................             Op2=OFF; 
07656:  BCF    xA2.0
....................             if(!GuardaEEPROM){ 
07658:  BTFSC  xA2.3
0765A:  BRA    779E
....................                CiclosPersonalizados[CicloLibre-1].Minutosec=Tsecadop[2]+(Tsecadop[3]*10); 
0765C:  MOVLW  01
0765E:  MOVLB  3
07660:  SUBWF  x2E,W
07662:  MULLW  0A
07664:  MOVF   FF3,W
07666:  CLRF   xCD
07668:  MOVWF  xCC
0766A:  MOVLW  04
0766C:  ADDWF  xCC,W
0766E:  MOVWF  01
07670:  MOVLW  00
07672:  ADDWFC xCD,W
07674:  MOVWF  03
07676:  MOVF   01,W
07678:  ADDLW  A4
0767A:  MOVWF  FE9
0767C:  MOVLW  03
0767E:  ADDWFC 03,W
07680:  MOVWF  FEA
07682:  MOVFF  C5,3CE
07686:  MOVLW  0A
07688:  MOVWF  xCF
0768A:  MOVLB  0
0768C:  CALL   2A1C
07690:  MOVF   01,W
07692:  ADDWF  xC4,W
07694:  MOVWF  FEF
....................                CiclosPersonalizados[CicloLibre-1].Segundosec=Tsecadop[0]+(Tsecadop[1]*10); 
07696:  MOVLW  01
07698:  MOVLB  3
0769A:  SUBWF  x2E,W
0769C:  MULLW  0A
0769E:  MOVF   FF3,W
076A0:  CLRF   xCD
076A2:  MOVWF  xCC
076A4:  MOVLW  05
076A6:  ADDWF  xCC,W
076A8:  MOVWF  01
076AA:  MOVLW  00
076AC:  ADDWFC xCD,W
076AE:  MOVWF  03
076B0:  MOVF   01,W
076B2:  ADDLW  A4
076B4:  MOVWF  FE9
076B6:  MOVLW  03
076B8:  ADDWFC 03,W
076BA:  MOVWF  FEA
076BC:  MOVFF  C3,3CE
076C0:  MOVLW  0A
076C2:  MOVWF  xCF
076C4:  MOVLB  0
076C6:  CALL   2A1C
076CA:  MOVF   01,W
076CC:  ADDWF  xC2,W
076CE:  MOVWF  FEF
....................                write_eeprom(104+((CicloLibre-1)*8),Tsecadop[2]+(Tsecadop[3]*10)); 
076D0:  MOVLW  01
076D2:  MOVLB  3
076D4:  SUBWF  x2E,W
076D6:  MULLW  08
076D8:  MOVF   FF3,W
076DA:  ADDLW  68
076DC:  MOVWF  xCC
076DE:  MOVFF  C5,3CE
076E2:  MOVLW  0A
076E4:  MOVWF  xCF
076E6:  MOVLB  0
076E8:  CALL   2A1C
076EC:  MOVF   01,W
076EE:  ADDWF  xC4,W
076F0:  MOVLB  3
076F2:  MOVWF  xCD
076F4:  CLRF   FAA
076F6:  MOVFF  3CC,FA9
076FA:  MOVFF  3CD,FA8
076FE:  BCF    FA6.6
07700:  BCF    FA6.7
07702:  BSF    FA6.2
07704:  MOVF   FF2,W
07706:  MOVWF  00
07708:  BCF    FF2.6
0770A:  BCF    FF2.7
0770C:  MOVLB  F
0770E:  MOVLW  55
07710:  MOVWF  FA7
07712:  MOVLW  AA
07714:  MOVWF  FA7
07716:  BSF    FA6.1
07718:  BTFSC  FA6.1
0771A:  BRA    7718
0771C:  BCF    FA6.2
0771E:  MOVF   00,W
07720:  IORWF  FF2,F
....................                delay_ms(10); 
07722:  MOVLW  0A
07724:  MOVLB  3
07726:  MOVWF  xE1
07728:  MOVLB  0
0772A:  CALL   179C
....................                write_eeprom(105+((CicloLibre-1)*8),Tsecadop[0]+(Tsecadop[1]*10)); 
0772E:  MOVLW  01
07730:  MOVLB  3
07732:  SUBWF  x2E,W
07734:  MULLW  08
07736:  MOVF   FF3,W
07738:  ADDLW  69
0773A:  MOVWF  xCC
0773C:  MOVFF  C3,3CE
07740:  MOVLW  0A
07742:  MOVWF  xCF
07744:  MOVLB  0
07746:  CALL   2A1C
0774A:  MOVF   01,W
0774C:  ADDWF  xC2,W
0774E:  MOVLB  3
07750:  MOVWF  xCD
07752:  CLRF   FAA
07754:  MOVFF  3CC,FA9
07758:  MOVFF  3CD,FA8
0775C:  BCF    FA6.6
0775E:  BCF    FA6.7
07760:  BSF    FA6.2
07762:  MOVF   FF2,W
07764:  MOVWF  00
07766:  BCF    FF2.6
07768:  BCF    FF2.7
0776A:  MOVLB  F
0776C:  MOVLW  55
0776E:  MOVWF  FA7
07770:  MOVLW  AA
07772:  MOVWF  FA7
07774:  BSF    FA6.1
07776:  BTFSC  FA6.1
07778:  BRA    7776
0777A:  BCF    FA6.2
0777C:  MOVF   00,W
0777E:  IORWF  FF2,F
....................                delay_ms(10); 
07780:  MOVLW  0A
07782:  MOVLB  3
07784:  MOVWF  xE1
07786:  MOVLB  0
07788:  CALL   179C
....................                Tsecado[0]=Tsecadop[0]; 
0778C:  MOVFF  C2,BE
....................                Tsecado[1]=Tsecadop[1]; 
07790:  MOVFF  C3,BF
....................                Tsecado[2]=Tsecadop[2]; 
07794:  MOVFF  C4,C0
....................                Tsecado[3]=Tsecadop[3]; 
07798:  MOVFF  C5,C1
....................                GuardaEEPROM=ON; 
0779C:  BSF    xA2.3
....................             } 
....................          } 
....................           
....................          if(RIGHT){ 
0779E:  BSF    F93.2
077A0:  BTFSC  F81.2
077A2:  BRA    7818
....................             delay_ms(100); 
077A4:  MOVLW  64
077A6:  MOVLB  3
077A8:  MOVWF  xE1
077AA:  MOVLB  0
077AC:  CALL   179C
....................             if(RIGHT){ 
077B0:  BSF    F93.2
077B2:  BTFSC  F81.2
077B4:  BRA    7818
....................                if(!Segundos){ 
077B6:  BTFSC  xA2.2
077B8:  BRA    77E8
....................                   Segundos=ON; 
077BA:  BSF    xA2.2
....................                   Minutos=OFF; 
077BC:  BCF    xA2.1
....................                   printf("tminsec.pco=0"); 
077BE:  MOVLW  54
077C0:  MOVWF  FF6
077C2:  MOVLW  0A
077C4:  MOVWF  FF7
077C6:  MOVLW  00
077C8:  MOVWF  FF8
077CA:  CALL   3488
....................                   SendDataDisplay();                    
077CE:  CALL   34BA
....................                   printf("tsecsec.pco=65535"); 
077D2:  MOVLW  62
077D4:  MOVWF  FF6
077D6:  MOVLW  0A
077D8:  MOVWF  FF7
077DA:  MOVLW  00
077DC:  MOVWF  FF8
077DE:  CALL   3488
....................                   SendDataDisplay();   
077E2:  CALL   34BA
....................                }else if(!Minutos){ 
077E6:  BRA    7818
077E8:  BTFSC  xA2.1
077EA:  BRA    7818
....................                   Segundos=OFF; 
077EC:  BCF    xA2.2
....................                   Minutos=ON; 
077EE:  BSF    xA2.1
....................                   printf("tminsec.pco=65535"); 
077F0:  MOVLW  74
077F2:  MOVWF  FF6
077F4:  MOVLW  0A
077F6:  MOVWF  FF7
077F8:  MOVLW  00
077FA:  MOVWF  FF8
077FC:  CALL   3488
....................                   SendDataDisplay();   
07800:  CALL   34BA
....................                   printf("tsecsec.pco=0"); 
07804:  MOVLW  86
07806:  MOVWF  FF6
07808:  MOVLW  0A
0780A:  MOVWF  FF7
0780C:  MOVLW  00
0780E:  MOVWF  FF8
07810:  CALL   3488
....................                   SendDataDisplay();   
07814:  CALL   34BA
....................                } 
....................             } 
....................          } 
....................           
....................          if(UP){ 
07818:  BSF    F93.0
0781A:  BTFSC  F81.0
0781C:  BRA    7858
....................             delay_ms(100); 
0781E:  MOVLW  64
07820:  MOVLB  3
07822:  MOVWF  xE1
07824:  MOVLB  0
07826:  CALL   179C
....................             if(UP){ 
0782A:  BSF    F93.0
0782C:  BTFSC  F81.0
0782E:  BRA    7858
....................                if(Segundos){ 
07830:  BTFSS  xA2.2
07832:  BRA    7844
....................                   Tsecadop[0]++; 
07834:  INCF   xC2,F
....................                   if(Tsecadop[0]>9){ 
07836:  BTFSC  xC2.7
07838:  BRA    7844
0783A:  MOVF   xC2,W
0783C:  SUBLW  09
0783E:  BC    7844
....................                      Tsecadop[1]++; 
07840:  INCF   xC3,F
....................                      Tsecadop[0]=0; 
07842:  CLRF   xC2
....................                   } 
....................                } 
....................                if(Minutos){ 
07844:  BTFSS  xA2.1
07846:  BRA    7858
....................                   Tsecado[2]++; 
07848:  INCF   xC0,F
....................                   if(Tsecadop[2]>9){ 
0784A:  BTFSC  xC4.7
0784C:  BRA    7858
0784E:  MOVF   xC4,W
07850:  SUBLW  09
07852:  BC    7858
....................                      Tsecadop[3]++; 
07854:  INCF   xC5,F
....................                      Tsecadop[2]=0; 
07856:  CLRF   xC4
....................                   } 
....................                }   
....................             } 
....................          } 
....................           
....................          if(DOWN){ 
07858:  BSF    F93.1
0785A:  BTFSC  F81.1
0785C:  BRA    78A2
....................             delay_ms(100); 
0785E:  MOVLW  64
07860:  MOVLB  3
07862:  MOVWF  xE1
07864:  MOVLB  0
07866:  CALL   179C
....................             if(DOWN){ 
0786A:  BSF    F93.1
0786C:  BTFSC  F81.1
0786E:  BRA    78A2
....................                if(Segundos){ 
07870:  BTFSS  xA2.2
07872:  BRA    7890
....................                   Tsecadop[0]--; 
07874:  DECF   xC2,F
....................                   if(Tsecadop[0]<0){ 
07876:  BTFSC  xC2.7
07878:  BRA    787C
0787A:  BRA    7882
....................                      Tsecadop[1]--; 
0787C:  DECF   xC3,F
....................                      Tsecadop[0]=9; 
0787E:  MOVLW  09
07880:  MOVWF  xC2
....................                   } 
....................                   if(Tsecadop[1]<0){ 
07882:  BTFSC  xC3.7
07884:  BRA    7888
07886:  BRA    7890
....................                      Tsecadop[1]=5; 
07888:  MOVLW  05
0788A:  MOVWF  xC3
....................                      Tsecadop[0]=9; 
0788C:  MOVLW  09
0788E:  MOVWF  xC2
....................                   } 
....................                } 
....................                if(Minutos){ 
07890:  BTFSS  xA2.1
07892:  BRA    78A2
....................                   Tsecadop[2]--; 
07894:  DECF   xC4,F
....................                   if(Tsecadop[2]<0){ 
07896:  BTFSC  xC4.7
07898:  BRA    789C
0789A:  BRA    78A2
....................                      Tsecadop[3]--; 
0789C:  DECF   xC5,F
....................                      Tsecadop[2]=9; 
0789E:  MOVLW  09
078A0:  MOVWF  xC4
....................                   } 
....................                }   
....................             } 
....................          } 
....................           
....................          if(RX_Buffer[4]==0x0c || RX_Buffer[4]==0x0d){//Tecla Derecha Oprimida 
078A2:  MOVF   34,W
078A4:  SUBLW  0C
078A6:  BZ    78AE
078A8:  MOVF   34,W
078AA:  SUBLW  0D
078AC:  BNZ   78DA
....................             if(Segundos){ 
078AE:  BTFSS  xA2.2
078B0:  BRA    78C2
....................                Tsecadop[0]++; 
078B2:  INCF   xC2,F
....................                if(Tsecadop[0]>9){ 
078B4:  BTFSC  xC2.7
078B6:  BRA    78C2
078B8:  MOVF   xC2,W
078BA:  SUBLW  09
078BC:  BC    78C2
....................                   Tsecadop[1]++; 
078BE:  INCF   xC3,F
....................                   Tsecadop[0]=0; 
078C0:  CLRF   xC2
....................                } 
....................             } 
....................             if(Minutos){ 
078C2:  BTFSS  xA2.1
078C4:  BRA    78D6
....................                Tsecadop[2]++; 
078C6:  INCF   xC4,F
....................                if(Tsecadop[2]>9){ 
078C8:  BTFSC  xC4.7
078CA:  BRA    78D6
078CC:  MOVF   xC4,W
078CE:  SUBLW  09
078D0:  BC    78D6
....................                   Tsecadop[3]++; 
078D2:  INCF   xC5,F
....................                   Tsecadop[2]=0; 
078D4:  CLRF   xC4
....................                } 
....................             } 
....................             RX_Buffer[4]=0x00;   
078D6:  CLRF   34
....................             RX_Buffer2[4]=0x00;  
078D8:  CLRF   3F
....................          } 
....................           
....................          if(RX_Buffer[4]==0x0f || RX_Buffer[4]==0x0e){//Tecla Izquierda Oprimida 
078DA:  MOVF   34,W
078DC:  SUBLW  0F
078DE:  BZ    78E6
078E0:  MOVF   34,W
078E2:  SUBLW  0E
078E4:  BNZ   791C
....................             if(Segundos){ 
078E6:  BTFSS  xA2.2
078E8:  BRA    7906
....................                Tsecadop[0]--; 
078EA:  DECF   xC2,F
....................                if(Tsecadop[0]<0){ 
078EC:  BTFSC  xC2.7
078EE:  BRA    78F2
078F0:  BRA    78F8
....................                   Tsecadop[1]--; 
078F2:  DECF   xC3,F
....................                   Tsecadop[0]=9; 
078F4:  MOVLW  09
078F6:  MOVWF  xC2
....................                } 
....................                if(Tsecadop[1]<0){ 
078F8:  BTFSC  xC3.7
078FA:  BRA    78FE
078FC:  BRA    7906
....................                   Tsecadop[1]=5; 
078FE:  MOVLW  05
07900:  MOVWF  xC3
....................                   Tsecadop[0]=9; 
07902:  MOVLW  09
07904:  MOVWF  xC2
....................                } 
....................             } 
....................             if(Minutos){ 
07906:  BTFSS  xA2.1
07908:  BRA    7918
....................                Tsecadop[2]--; 
0790A:  DECF   xC4,F
....................                if(Tsecadop[2]<0){ 
0790C:  BTFSC  xC4.7
0790E:  BRA    7912
07910:  BRA    7918
....................                   Tsecadop[3]--; 
07912:  DECF   xC5,F
....................                   Tsecadop[2]=9; 
07914:  MOVLW  09
07916:  MOVWF  xC4
....................                } 
....................             } 
....................             RX_Buffer[4]=0x00;   
07918:  CLRF   34
....................             RX_Buffer2[4]=0x00;             
0791A:  CLRF   3F
....................          } 
....................        
....................          if(Tsecadop[0]<0) 
0791C:  BTFSC  xC2.7
0791E:  BRA    7922
07920:  BRA    7926
....................             Tsecadop[0]=9;             
07922:  MOVLW  09
07924:  MOVWF  xC2
....................          if(Tsecadop[1]<0) 
07926:  BTFSC  xC3.7
07928:  BRA    792C
0792A:  BRA    7930
....................             Tsecadop[1]=5;             
0792C:  MOVLW  05
0792E:  MOVWF  xC3
....................          if(Tsecadop[2]<0) 
07930:  BTFSC  xC4.7
07932:  BRA    7936
07934:  BRA    793A
....................             Tsecadop[2]=9;             
07936:  MOVLW  09
07938:  MOVWF  xC4
....................          if(Tsecadop[3]<0) 
0793A:  BTFSC  xC5.7
0793C:  BRA    7940
0793E:  BRA    7944
....................             Tsecadop[3]=9;             
07940:  MOVLW  09
07942:  MOVWF  xC5
....................           
....................          if(Tsecadop[0]>9) 
07944:  BTFSC  xC2.7
07946:  BRA    7950
07948:  MOVF   xC2,W
0794A:  SUBLW  09
0794C:  BC    7950
....................             Tsecadop[0]=0;             
0794E:  CLRF   xC2
....................          if(Tsecadop[1]>5) 
07950:  BTFSC  xC3.7
07952:  BRA    795C
07954:  MOVF   xC3,W
07956:  SUBLW  05
07958:  BC    795C
....................             Tsecadop[1]=0;             
0795A:  CLRF   xC3
....................          if(Tsecadop[2]>9) 
0795C:  BTFSC  xC4.7
0795E:  BRA    7968
07960:  MOVF   xC4,W
07962:  SUBLW  09
07964:  BC    7968
....................             Tsecadop[2]=0;             
07966:  CLRF   xC4
....................          if(Tsecadop[3]>9) 
07968:  BTFSC  xC5.7
0796A:  BRA    7974
0796C:  MOVF   xC5,W
0796E:  SUBLW  09
07970:  BC    7974
....................             Tsecadop[3]=0; 
07972:  CLRF   xC5
....................              
....................       printf("tminsec.txt=\"%02u\"",((Tsecadop[3]*10)+Tsecadop[2])); 
07974:  MOVFF  C5,3CE
07978:  MOVLW  0A
0797A:  MOVLB  3
0797C:  MOVWF  xCF
0797E:  MOVLB  0
07980:  CALL   2A1C
07984:  MOVF   xC4,W
07986:  ADDWF  01,W
07988:  MOVLB  3
0798A:  MOVWF  xCC
0798C:  MOVLW  94
0798E:  MOVWF  FF6
07990:  MOVLW  0A
07992:  MOVWF  FF7
07994:  MOVLW  00
07996:  MOVWF  FF8
07998:  MOVLW  0D
0799A:  MOVWF  xD0
0799C:  MOVLB  0
0799E:  CALL   435E
079A2:  MOVFF  3CC,3CE
079A6:  MOVLW  01
079A8:  MOVLB  3
079AA:  MOVWF  xCF
079AC:  MOVLB  0
079AE:  CALL   43BC
079B2:  MOVLW  22
079B4:  BTFSS  F9E.4
079B6:  BRA    79B4
079B8:  MOVWF  FAD
....................       SendDataDisplay(); 
079BA:  CALL   34BA
....................       printf("tsecsec.txt=\"%02u\"",((Tsecadop[1]*10)+Tsecadop[0])); 
079BE:  MOVFF  C3,3CE
079C2:  MOVLW  0A
079C4:  MOVLB  3
079C6:  MOVWF  xCF
079C8:  MOVLB  0
079CA:  CALL   2A1C
079CE:  MOVF   xC2,W
079D0:  ADDWF  01,W
079D2:  MOVLB  3
079D4:  MOVWF  xCC
079D6:  MOVLW  A8
079D8:  MOVWF  FF6
079DA:  MOVLW  0A
079DC:  MOVWF  FF7
079DE:  MOVLW  00
079E0:  MOVWF  FF8
079E2:  MOVLW  0D
079E4:  MOVWF  xD0
079E6:  MOVLB  0
079E8:  CALL   435E
079EC:  MOVFF  3CC,3CE
079F0:  MOVLW  01
079F2:  MOVLB  3
079F4:  MOVWF  xCF
079F6:  MOVLB  0
079F8:  CALL   43BC
079FC:  MOVLW  22
079FE:  BTFSS  F9E.4
07A00:  BRA    79FE
07A02:  MOVWF  FAD
....................       SendDataDisplay(); 
07A04:  CALL   34BA
07A08:  MOVLB  3
....................     } 
.................... //_--------------------------------------------------------------------------------------------------------------------------------------------------------        
....................  
.................... //_-------------------------------------------------------------------------------------------------------------------------------------------------------- 
....................     if(Menu==4){ //Menu de Temperatura 
07A0A:  MOVF   x3A,W
07A0C:  SUBLW  04
07A0E:  BTFSS  FD8.2
07A10:  BRA    7C58
....................       printf("fecha.txt=\"T:%3.1fC Fecha:%02u/%02u/20%02u Hora: %02u:%02u:%02u\"",Temperatura,Dia,Mes,Year,Hora,Minuto,Segundo); 
07A12:  MOVLW  BC
07A14:  MOVWF  FF6
07A16:  MOVLW  0A
07A18:  MOVWF  FF7
07A1A:  MOVLW  00
07A1C:  MOVWF  FF8
07A1E:  MOVLW  0D
07A20:  MOVWF  xD0
07A22:  MOVLB  0
07A24:  CALL   435E
07A28:  MOVLW  02
07A2A:  MOVWF  FE9
07A2C:  MOVFF  31B,3D3
07A30:  MOVFF  31A,3D2
07A34:  MOVFF  319,3D1
07A38:  MOVFF  318,3D0
07A3C:  MOVLW  01
07A3E:  MOVLB  3
07A40:  MOVWF  xD4
07A42:  MOVLB  0
07A44:  CALL   44FE
07A48:  MOVLW  CE
07A4A:  MOVWF  FF6
07A4C:  MOVLW  0A
07A4E:  MOVWF  FF7
07A50:  MOVLW  00
07A52:  MOVWF  FF8
07A54:  MOVLW  09
07A56:  MOVLB  3
07A58:  MOVWF  xD0
07A5A:  MOVLB  0
07A5C:  CALL   435E
07A60:  MOVFF  374,3CE
07A64:  MOVLW  01
07A66:  MOVLB  3
07A68:  MOVWF  xCF
07A6A:  MOVLB  0
07A6C:  CALL   43BC
07A70:  MOVLW  2F
07A72:  BTFSS  F9E.4
07A74:  BRA    7A72
07A76:  MOVWF  FAD
07A78:  MOVFF  373,3CE
07A7C:  MOVLW  01
07A7E:  MOVLB  3
07A80:  MOVWF  xCF
07A82:  MOVLB  0
07A84:  CALL   43BC
07A88:  MOVLW  2F
07A8A:  BTFSS  F9E.4
07A8C:  BRA    7A8A
07A8E:  MOVWF  FAD
07A90:  MOVLW  32
07A92:  BTFSS  F9E.4
07A94:  BRA    7A92
07A96:  MOVWF  FAD
07A98:  MOVLW  30
07A9A:  BTFSS  F9E.4
07A9C:  BRA    7A9A
07A9E:  MOVWF  FAD
07AA0:  MOVFF  372,3CE
07AA4:  MOVLW  01
07AA6:  MOVLB  3
07AA8:  MOVWF  xCF
07AAA:  MOVLB  0
07AAC:  CALL   43BC
07AB0:  MOVLW  E7
07AB2:  MOVWF  FF6
07AB4:  MOVLW  0A
07AB6:  MOVWF  FF7
07AB8:  MOVLW  00
07ABA:  MOVWF  FF8
07ABC:  MOVLW  07
07ABE:  MOVLB  3
07AC0:  MOVWF  xD0
07AC2:  MOVLB  0
07AC4:  CALL   435E
07AC8:  MOVFF  375,3CE
07ACC:  MOVLW  01
07ACE:  MOVLB  3
07AD0:  MOVWF  xCF
07AD2:  MOVLB  0
07AD4:  CALL   43BC
07AD8:  MOVLW  3A
07ADA:  BTFSS  F9E.4
07ADC:  BRA    7ADA
07ADE:  MOVWF  FAD
07AE0:  MOVFF  376,3CE
07AE4:  MOVLW  01
07AE6:  MOVLB  3
07AE8:  MOVWF  xCF
07AEA:  MOVLB  0
07AEC:  CALL   43BC
07AF0:  MOVLW  3A
07AF2:  BTFSS  F9E.4
07AF4:  BRA    7AF2
07AF6:  MOVWF  FAD
07AF8:  MOVFF  377,3CE
07AFC:  MOVLW  01
07AFE:  MOVLB  3
07B00:  MOVWF  xCF
07B02:  MOVLB  0
07B04:  CALL   43BC
07B08:  MOVLW  22
07B0A:  BTFSS  F9E.4
07B0C:  BRA    7B0A
07B0E:  MOVWF  FAD
....................       SendDataDisplay(); 
07B10:  CALL   34BA
....................          if(Setpoint<105) 
07B14:  MOVLB  3
07B16:  MOVF   x41,W
07B18:  SUBLW  68
07B1A:  BNC   7B20
....................             Setpoint=134; 
07B1C:  MOVLW  86
07B1E:  MOVWF  x41
....................          if(Setpoint>134) 
07B20:  MOVF   x41,W
07B22:  SUBLW  86
07B24:  BC    7B2A
....................             Setpoint=105; 
07B26:  MOVLW  69
07B28:  MOVWF  x41
....................           
....................          if(RX_Buffer[4]==0x11 || LEFT){//Selecciono Regresar 
07B2A:  MOVF   34,W
07B2C:  SUBLW  11
07B2E:  BZ    7B36
07B30:  BSF    F93.3
07B32:  BTFSC  F81.3
07B34:  BRA    7BC8
....................             Segundos=OFF; 
07B36:  MOVLB  0
07B38:  BCF    xA2.2
....................             Minutos=OFF; 
07B3A:  BCF    xA2.1
....................             printf("page CicloPersona"); 
07B3C:  MOVLW  FE
07B3E:  MOVWF  FF6
07B40:  MOVLW  0A
07B42:  MOVWF  FF7
07B44:  MOVLW  00
07B46:  MOVWF  FF8
07B48:  CALL   3488
....................             SendDataDisplay();   
07B4C:  CALL   34BA
....................             PantallaPrincipal=1; 
07B50:  MOVLW  01
07B52:  MOVLB  2
07B54:  MOVWF  xD4
....................             Op=OFF; 
07B56:  MOVLB  0
07B58:  BCF    xA1.7
....................             Op2=OFF; 
07B5A:  BCF    xA2.0
....................             if(!GuardaEEPROM){ 
07B5C:  BTFSC  xA2.3
07B5E:  BRA    7BC6
....................                CiclosPersonalizados[CicloLibre-1].Temperatura=Setpoint; 
07B60:  MOVLW  01
07B62:  MOVLB  3
07B64:  SUBWF  x2E,W
07B66:  MULLW  0A
07B68:  MOVF   FF3,W
07B6A:  CLRF   xCD
07B6C:  MOVWF  xCC
07B6E:  MOVLW  A4
07B70:  ADDWF  xCC,W
07B72:  MOVWF  FE9
07B74:  MOVLW  03
07B76:  ADDWFC xCD,W
07B78:  MOVWF  FEA
07B7A:  MOVFF  341,FEF
....................                write_eeprom(100+((CicloLibre-1)*8),Setpoint); 
07B7E:  MOVLW  01
07B80:  SUBWF  x2E,W
07B82:  MULLW  08
07B84:  MOVF   FF3,W
07B86:  ADDLW  64
07B88:  MOVWF  xCC
07B8A:  CLRF   FAA
07B8C:  MOVFF  3CC,FA9
07B90:  MOVFF  341,FA8
07B94:  BCF    FA6.6
07B96:  BCF    FA6.7
07B98:  BSF    FA6.2
07B9A:  MOVF   FF2,W
07B9C:  MOVWF  00
07B9E:  BCF    FF2.6
07BA0:  BCF    FF2.7
07BA2:  MOVLB  F
07BA4:  MOVLW  55
07BA6:  MOVWF  FA7
07BA8:  MOVLW  AA
07BAA:  MOVWF  FA7
07BAC:  BSF    FA6.1
07BAE:  BTFSC  FA6.1
07BB0:  BRA    7BAE
07BB2:  BCF    FA6.2
07BB4:  MOVF   00,W
07BB6:  IORWF  FF2,F
....................                delay_ms(10); 
07BB8:  MOVLW  0A
07BBA:  MOVLB  3
07BBC:  MOVWF  xE1
07BBE:  MOVLB  0
07BC0:  CALL   179C
....................                GuardaEEPROM=ON; 
07BC4:  BSF    xA2.3
07BC6:  MOVLB  3
....................             } 
....................          } 
....................           
....................          if(UP){ 
07BC8:  BSF    F93.0
07BCA:  BTFSC  F81.0
07BCC:  BRA    7BE2
....................             delay_ms(100); 
07BCE:  MOVLW  64
07BD0:  MOVWF  xE1
07BD2:  MOVLB  0
07BD4:  CALL   179C
....................             if(UP){ 
07BD8:  BSF    F93.0
07BDA:  BTFSC  F81.0
07BDC:  BRA    7BE4
....................                Setpoint++; 
07BDE:  MOVLB  3
07BE0:  INCF   x41,F
07BE2:  MOVLB  0
....................             } 
....................          } 
....................           
....................          if(DOWN){ 
07BE4:  BSF    F93.1
07BE6:  BTFSC  F81.1
07BE8:  BRA    7C02
....................             delay_ms(100); 
07BEA:  MOVLW  64
07BEC:  MOVLB  3
07BEE:  MOVWF  xE1
07BF0:  MOVLB  0
07BF2:  CALL   179C
....................             if(DOWN){ 
07BF6:  BSF    F93.1
07BF8:  BTFSC  F81.1
07BFA:  BRA    7C02
....................                Setpoint--; 
07BFC:  MOVLB  3
07BFE:  DECF   x41,F
07C00:  MOVLB  0
....................             } 
....................          } 
....................           
....................          if(RX_Buffer[4]==0x0d){//Tecla Arriba Oprimida 
07C02:  MOVF   34,W
07C04:  SUBLW  0D
07C06:  BNZ   7C12
....................             Setpoint++; 
07C08:  MOVLB  3
07C0A:  INCF   x41,F
....................             RX_Buffer[4]=0x00;   
07C0C:  CLRF   34
....................             RX_Buffer2[4]=0x00;             
07C0E:  CLRF   3F
07C10:  MOVLB  0
....................             //BorraBuffer(); 
....................          } 
....................           
....................          if(RX_Buffer[4]==0x0c){//Tecla Abajo Oprimida 
07C12:  MOVF   34,W
07C14:  SUBLW  0C
07C16:  BNZ   7C22
....................             Setpoint--; 
07C18:  MOVLB  3
07C1A:  DECF   x41,F
....................             RX_Buffer[4]=0x00; 
07C1C:  CLRF   34
....................             RX_Buffer2[4]=0x00;             
07C1E:  CLRF   3F
07C20:  MOVLB  0
....................             //BorraBuffer(); 
....................          } 
....................           
....................       printf("tsettem.txt=\"%03u\"",Setpoint); 
07C22:  MOVLW  10
07C24:  MOVWF  FF6
07C26:  MOVLW  0B
07C28:  MOVWF  FF7
07C2A:  MOVLW  00
07C2C:  MOVWF  FF8
07C2E:  MOVLW  0D
07C30:  MOVLB  3
07C32:  MOVWF  xD0
07C34:  MOVLB  0
07C36:  CALL   435E
07C3A:  MOVFF  341,3CE
07C3E:  MOVLW  03
07C40:  MOVLB  3
07C42:  MOVWF  xCF
07C44:  MOVLB  0
07C46:  CALL   43BC
07C4A:  MOVLW  22
07C4C:  BTFSS  F9E.4
07C4E:  BRA    7C4C
07C50:  MOVWF  FAD
....................       SendDataDisplay(); 
07C52:  CALL   34BA
07C56:  MOVLB  3
....................     } 
.................... //_--------------------------------------------------------------------------------------------------------------------------------------------------------        
....................  
.................... //_--------------------------------------------------------------------------------------------------------------------------------------------------------       
....................    if(Menu==5){//Menu de Nivel 
07C58:  MOVF   x3A,W
07C5A:  SUBLW  05
07C5C:  BTFSS  FD8.2
07C5E:  BRA    7F28
....................       printf("fecha.txt=\"T:%3.1fC Fecha:%02u/%02u/20%02u Hora: %02u:%02u:%02u\"",Temperatura,Dia,Mes,Year,Hora,Minuto,Segundo); 
07C60:  MOVLW  24
07C62:  MOVWF  FF6
07C64:  MOVLW  0B
07C66:  MOVWF  FF7
07C68:  MOVLW  00
07C6A:  MOVWF  FF8
07C6C:  MOVLW  0D
07C6E:  MOVWF  xD0
07C70:  MOVLB  0
07C72:  CALL   435E
07C76:  MOVLW  02
07C78:  MOVWF  FE9
07C7A:  MOVFF  31B,3D3
07C7E:  MOVFF  31A,3D2
07C82:  MOVFF  319,3D1
07C86:  MOVFF  318,3D0
07C8A:  MOVLW  01
07C8C:  MOVLB  3
07C8E:  MOVWF  xD4
07C90:  MOVLB  0
07C92:  CALL   44FE
07C96:  MOVLW  36
07C98:  MOVWF  FF6
07C9A:  MOVLW  0B
07C9C:  MOVWF  FF7
07C9E:  MOVLW  00
07CA0:  MOVWF  FF8
07CA2:  MOVLW  09
07CA4:  MOVLB  3
07CA6:  MOVWF  xD0
07CA8:  MOVLB  0
07CAA:  CALL   435E
07CAE:  MOVFF  374,3CE
07CB2:  MOVLW  01
07CB4:  MOVLB  3
07CB6:  MOVWF  xCF
07CB8:  MOVLB  0
07CBA:  CALL   43BC
07CBE:  MOVLW  2F
07CC0:  BTFSS  F9E.4
07CC2:  BRA    7CC0
07CC4:  MOVWF  FAD
07CC6:  MOVFF  373,3CE
07CCA:  MOVLW  01
07CCC:  MOVLB  3
07CCE:  MOVWF  xCF
07CD0:  MOVLB  0
07CD2:  CALL   43BC
07CD6:  MOVLW  2F
07CD8:  BTFSS  F9E.4
07CDA:  BRA    7CD8
07CDC:  MOVWF  FAD
07CDE:  MOVLW  32
07CE0:  BTFSS  F9E.4
07CE2:  BRA    7CE0
07CE4:  MOVWF  FAD
07CE6:  MOVLW  30
07CE8:  BTFSS  F9E.4
07CEA:  BRA    7CE8
07CEC:  MOVWF  FAD
07CEE:  MOVFF  372,3CE
07CF2:  MOVLW  01
07CF4:  MOVLB  3
07CF6:  MOVWF  xCF
07CF8:  MOVLB  0
07CFA:  CALL   43BC
07CFE:  MOVLW  4F
07D00:  MOVWF  FF6
07D02:  MOVLW  0B
07D04:  MOVWF  FF7
07D06:  MOVLW  00
07D08:  MOVWF  FF8
07D0A:  MOVLW  07
07D0C:  MOVLB  3
07D0E:  MOVWF  xD0
07D10:  MOVLB  0
07D12:  CALL   435E
07D16:  MOVFF  375,3CE
07D1A:  MOVLW  01
07D1C:  MOVLB  3
07D1E:  MOVWF  xCF
07D20:  MOVLB  0
07D22:  CALL   43BC
07D26:  MOVLW  3A
07D28:  BTFSS  F9E.4
07D2A:  BRA    7D28
07D2C:  MOVWF  FAD
07D2E:  MOVFF  376,3CE
07D32:  MOVLW  01
07D34:  MOVLB  3
07D36:  MOVWF  xCF
07D38:  MOVLB  0
07D3A:  CALL   43BC
07D3E:  MOVLW  3A
07D40:  BTFSS  F9E.4
07D42:  BRA    7D40
07D44:  MOVWF  FAD
07D46:  MOVFF  377,3CE
07D4A:  MOVLW  01
07D4C:  MOVLB  3
07D4E:  MOVWF  xCF
07D50:  MOVLB  0
07D52:  CALL   43BC
07D56:  MOVLW  22
07D58:  BTFSS  F9E.4
07D5A:  BRA    7D58
07D5C:  MOVWF  FAD
....................       SendDataDisplay(); 
07D5E:  CALL   34BA
....................          if(Nivel<1) 
07D62:  MOVLB  3
07D64:  MOVF   x4F,F
07D66:  BNZ   7D72
07D68:  MOVF   x50,F
07D6A:  BNZ   7D72
....................             Nivel=6; 
07D6C:  CLRF   x50
07D6E:  MOVLW  06
07D70:  MOVWF  x4F
....................          if(Nivel>6) 
07D72:  MOVF   x50,F
07D74:  BNZ   7D7C
07D76:  MOVF   x4F,W
07D78:  SUBLW  06
07D7A:  BC    7D82
....................             Nivel=1; 
07D7C:  CLRF   x50
07D7E:  MOVLW  01
07D80:  MOVWF  x4F
....................           
....................          if(RX_Buffer[4]==0x11 || LEFT){//Selecciono Regresar 
07D82:  MOVF   34,W
07D84:  SUBLW  11
07D86:  BZ    7D8E
07D88:  BSF    F93.3
07D8A:  BTFSC  F81.3
07D8C:  BRA    7E84
....................             Segundos=OFF; 
07D8E:  MOVLB  0
07D90:  BCF    xA2.2
....................             Minutos=OFF;             
07D92:  BCF    xA2.1
....................             tiempo_secado=0; 
07D94:  MOVLB  3
07D96:  CLRF   x45
....................              
....................             if(!GuardaEEPROM){     
07D98:  MOVLB  0
07D9A:  BTFSC  xA2.3
07D9C:  BRA    7E30
....................                CiclosPersonalizados[CicloLibre-1].NivelDesfogue=Nivel; 
07D9E:  MOVLW  01
07DA0:  MOVLB  3
07DA2:  SUBWF  x2E,W
07DA4:  MULLW  0A
07DA6:  MOVF   FF3,W
07DA8:  CLRF   xCD
07DAA:  MOVWF  xCC
07DAC:  MOVLW  08
07DAE:  ADDWF  xCC,W
07DB0:  MOVWF  01
07DB2:  MOVLW  00
07DB4:  ADDWFC xCD,W
07DB6:  MOVWF  03
07DB8:  MOVF   01,W
07DBA:  ADDLW  A4
07DBC:  MOVWF  FE9
07DBE:  MOVLW  03
07DC0:  ADDWFC 03,W
07DC2:  MOVWF  FEA
07DC4:  MOVFF  34F,FEF
....................                write_eeprom(107+((CicloLibre-1)*8),Nivel); 
07DC8:  MOVLW  01
07DCA:  SUBWF  x2E,W
07DCC:  MULLW  08
07DCE:  MOVF   FF3,W
07DD0:  ADDLW  6B
07DD2:  MOVWF  xCC
07DD4:  CLRF   FAA
07DD6:  MOVFF  3CC,FA9
07DDA:  MOVFF  34F,FA8
07DDE:  BCF    FA6.6
07DE0:  BCF    FA6.7
07DE2:  BSF    FA6.2
07DE4:  MOVF   FF2,W
07DE6:  MOVWF  00
07DE8:  BCF    FF2.6
07DEA:  BCF    FF2.7
07DEC:  MOVLB  F
07DEE:  MOVLW  55
07DF0:  MOVWF  FA7
07DF2:  MOVLW  AA
07DF4:  MOVWF  FA7
07DF6:  BSF    FA6.1
07DF8:  BTFSC  FA6.1
07DFA:  BRA    7DF8
07DFC:  BCF    FA6.2
07DFE:  MOVF   00,W
07E00:  IORWF  FF2,F
....................                delay_ms(20);             
07E02:  MOVLW  14
07E04:  MOVLB  3
07E06:  MOVWF  xE1
07E08:  MOVLB  0
07E0A:  CALL   179C
....................                NivelSeleccionado=9990*Nivel; 
07E0E:  MOVLW  27
07E10:  MOVLB  3
07E12:  MOVWF  xCE
07E14:  MOVLW  06
07E16:  MOVWF  xCD
07E18:  MOVFF  350,3D0
07E1C:  MOVFF  34F,3CF
07E20:  MOVLB  0
07E22:  CALL   3560
07E26:  MOVFF  02,35A
07E2A:  MOVFF  01,359
....................                GuardaEEPROM=ON; 
07E2E:  BSF    xA2.3
....................             } 
....................              
....................             if(Nivel<6) 
07E30:  MOVLB  3
07E32:  MOVF   x50,F
07E34:  BNZ   7E42
07E36:  MOVF   x4F,W
07E38:  SUBLW  05
07E3A:  BNC   7E42
....................                desfoguelento=1; 
07E3C:  MOVLB  0
07E3E:  BSF    xA3.6
....................             else             
07E40:  BRA    7E46
....................                desfoguelento=0; 
07E42:  MOVLB  0
07E44:  BCF    xA3.6
....................  
....................             if(MenuAnt==1){ 
07E46:  MOVLB  3
07E48:  DECFSZ x3B,W
07E4A:  BRA    7E66
....................                //Buzzer_on; 
....................                printf("page CicloPersona"); 
07E4C:  MOVLW  66
07E4E:  MOVWF  FF6
07E50:  MOVLW  0B
07E52:  MOVWF  FF7
07E54:  MOVLW  00
07E56:  MOVWF  FF8
07E58:  MOVLB  0
07E5A:  CALL   3488
....................                SendDataDisplay();  
07E5E:  CALL   34BA
....................                //PantallaPrincipal=1; 
....................             }else if(MenuAnt==2){ 
07E62:  BRA    7E82
07E64:  MOVLB  3
07E66:  MOVF   x3B,W
07E68:  SUBLW  02
07E6A:  BNZ   7E84
....................                printf("page Funcionamiento"); 
07E6C:  MOVLW  78
07E6E:  MOVWF  FF6
07E70:  MOVLW  0B
07E72:  MOVWF  FF7
07E74:  MOVLW  00
07E76:  MOVWF  FF8
07E78:  MOVLB  0
07E7A:  CALL   3488
....................                SendDataDisplay();  
07E7E:  CALL   34BA
07E82:  MOVLB  3
....................                //if(Temperatura>60)TTrampa=TTrampa+5; 
....................             } 
....................          } 
....................           
....................          if(UP){ 
07E84:  BSF    F93.0
07E86:  BTFSC  F81.0
07E88:  BRA    7EA2
....................             delay_ms(100); 
07E8A:  MOVLW  64
07E8C:  MOVWF  xE1
07E8E:  MOVLB  0
07E90:  CALL   179C
....................             if(UP){ 
07E94:  BSF    F93.0
07E96:  BTFSC  F81.0
07E98:  BRA    7EA4
....................                Nivel++; 
07E9A:  MOVLB  3
07E9C:  INCF   x4F,F
07E9E:  BTFSC  FD8.2
07EA0:  INCF   x50,F
07EA2:  MOVLB  0
....................             } 
....................          } 
....................           
....................          if(DOWN){ 
07EA4:  BSF    F93.1
07EA6:  BTFSC  F81.1
07EA8:  BRA    7EC8
....................             delay_ms(100); 
07EAA:  MOVLW  64
07EAC:  MOVLB  3
07EAE:  MOVWF  xE1
07EB0:  MOVLB  0
07EB2:  CALL   179C
....................             if(DOWN){ 
07EB6:  BSF    F93.1
07EB8:  BTFSC  F81.1
07EBA:  BRA    7EC8
....................                Nivel--; 
07EBC:  MOVLB  3
07EBE:  MOVF   x4F,W
07EC0:  BTFSC  FD8.2
07EC2:  DECF   x50,F
07EC4:  DECF   x4F,F
07EC6:  MOVLB  0
....................             } 
....................          } 
....................           
....................          if(RX_Buffer[4]==0x0d){//Tecla Arriba Oprimida 
07EC8:  MOVF   34,W
07ECA:  SUBLW  0D
07ECC:  BNZ   7EDC
....................             Nivel++; 
07ECE:  MOVLB  3
07ED0:  INCF   x4F,F
07ED2:  BTFSC  FD8.2
07ED4:  INCF   x50,F
....................             RX_Buffer[4]=0x00;             
07ED6:  CLRF   34
....................             RX_Buffer2[4]=0x00;             
07ED8:  CLRF   3F
07EDA:  MOVLB  0
....................             //BorraBuffer(); 
....................          } 
....................           
....................          if(RX_Buffer[4]==0x0c){//Tecla Abajo Oprimida 
07EDC:  MOVF   34,W
07EDE:  SUBLW  0C
07EE0:  BNZ   7EF2
....................             Nivel--; 
07EE2:  MOVLB  3
07EE4:  MOVF   x4F,W
07EE6:  BTFSC  FD8.2
07EE8:  DECF   x50,F
07EEA:  DECF   x4F,F
....................             RX_Buffer[4]=0x00; 
07EEC:  CLRF   34
....................             RX_Buffer2[4]=0x00;             
07EEE:  CLRF   3F
07EF0:  MOVLB  0
....................             //BorraBuffer(); 
....................          } 
....................           
....................       printf("tnivel.txt=\"%Lu\"",Nivel); 
07EF2:  MOVLW  8C
07EF4:  MOVWF  FF6
07EF6:  MOVLW  0B
07EF8:  MOVWF  FF7
07EFA:  MOVLW  00
07EFC:  MOVWF  FF8
07EFE:  MOVLW  0C
07F00:  MOVLB  3
07F02:  MOVWF  xD0
07F04:  MOVLB  0
07F06:  CALL   435E
07F0A:  MOVLW  10
07F0C:  MOVWF  FE9
07F0E:  MOVFF  350,3D1
07F12:  MOVFF  34F,3D0
07F16:  CALL   4726
07F1A:  MOVLW  22
07F1C:  BTFSS  F9E.4
07F1E:  BRA    7F1C
07F20:  MOVWF  FAD
....................       SendDataDisplay(); 
07F22:  CALL   34BA
07F26:  MOVLB  3
....................    } 
.................... //_--------------------------------------------------------------------------------------------------------------------------------------------------------       
....................  
.................... //_--------------------------------------------------------------------------------------------------------------------------------------------------------       
....................       if(Menu==6){ // Menu de Prueba de Componentes 
07F28:  MOVF   x3A,W
07F2A:  SUBLW  06
07F2C:  BTFSS  FD8.2
07F2E:  BRA    8634
....................          PruebaEstados=ON; 
07F30:  MOVLB  0
07F32:  BSF    xA1.2
....................           
....................          if(RX_Buffer[4]==0x02)//Oprimio EV Desfogue 
07F34:  MOVF   34,W
07F36:  SUBLW  02
07F38:  BNZ   7F40
....................          { 
....................             EstadoDesfogue=!EstadoDesfogue; 
07F3A:  BTG    xA0.7
....................             RX_Buffer[4]=0x00; 
07F3C:  CLRF   34
....................             RX_Buffer2[4]=0x00; 
07F3E:  CLRF   3F
....................          } 
....................           
....................          if(EstadoDesfogue){ 
07F40:  BTFSS  xA0.7
07F42:  BRA    7F5E
....................             printf("b1.bco=2016"); 
07F44:  MOVLW  9E
07F46:  MOVWF  FF6
07F48:  MOVLW  0B
07F4A:  MOVWF  FF7
07F4C:  MOVLW  00
07F4E:  MOVWF  FF8
07F50:  CALL   3488
....................             SendDataDisplay();  
07F54:  CALL   34BA
....................             Desfogue_on; 
07F58:  BSF    F8C.4
07F5A:  BCF    F95.4
....................          } 
....................          else{ 
07F5C:  BRA    7F76
....................             printf("b1.bco=63488"); 
07F5E:  MOVLW  AA
07F60:  MOVWF  FF6
07F62:  MOVLW  0B
07F64:  MOVWF  FF7
07F66:  MOVLW  00
07F68:  MOVWF  FF8
07F6A:  CALL   3488
....................             SendDataDisplay();  
07F6E:  CALL   34BA
....................             Desfogue_off; 
07F72:  BCF    F8C.4
07F74:  BCF    F95.4
....................          } 
....................           
....................          if(RX_Buffer[4]==0x01)//Oprimio EV Agua 
07F76:  DECFSZ 34,W
07F78:  BRA    7F80
....................          { 
....................             EstadoAgua=!EstadoAgua; 
07F7A:  BTG    xA1.0
....................             RX_Buffer[4]=0x00; 
07F7C:  CLRF   34
....................             RX_Buffer2[4]=0x00; 
07F7E:  CLRF   3F
....................          } 
....................           
....................          if(EstadoAgua){ 
07F80:  BTFSS  xA1.0
07F82:  BRA    7F9E
....................             printf("b0.bco=2016"); 
07F84:  MOVLW  B8
07F86:  MOVWF  FF6
07F88:  MOVLW  0B
07F8A:  MOVWF  FF7
07F8C:  MOVLW  00
07F8E:  MOVWF  FF8
07F90:  CALL   3488
....................             SendDataDisplay();  
07F94:  CALL   34BA
....................             Vent_on; 
07F98:  BSF    F8C.5
07F9A:  BCF    F95.5
....................          } 
....................          else{ 
07F9C:  BRA    7FB6
....................             printf("b0.bco=63488"); 
07F9E:  MOVLW  C4
07FA0:  MOVWF  FF6
07FA2:  MOVLW  0B
07FA4:  MOVWF  FF7
07FA6:  MOVLW  00
07FA8:  MOVWF  FF8
07FAA:  CALL   3488
....................             SendDataDisplay();  
07FAE:  CALL   34BA
....................             Vent_off; 
07FB2:  BCF    F8C.5
07FB4:  BCF    F95.5
....................          } 
....................           
....................          if(RX_Buffer[4]==0x03)//Oprimio EV Paso 
07FB6:  MOVF   34,W
07FB8:  SUBLW  03
07FBA:  BNZ   7FC2
....................          { 
....................             EstadoPaso=!EstadoPaso; 
07FBC:  BTG    xA2.4
....................             RX_Buffer[4]=0x00; 
07FBE:  CLRF   34
....................             RX_Buffer2[4]=0x00; 
07FC0:  CLRF   3F
....................          } 
....................           
....................          if(EstadoPaso){ 
07FC2:  BTFSS  xA2.4
07FC4:  BRA    7FE0
....................             printf("b2.bco=2016"); 
07FC6:  MOVLW  D2
07FC8:  MOVWF  FF6
07FCA:  MOVLW  0B
07FCC:  MOVWF  FF7
07FCE:  MOVLW  00
07FD0:  MOVWF  FF8
07FD2:  CALL   3488
....................             SendDataDisplay();  
07FD6:  CALL   34BA
....................             Paso_on; 
07FDA:  BSF    F8C.6
07FDC:  BCF    F95.6
....................          } 
....................          else{ 
07FDE:  BRA    7FF8
....................             printf("b2.bco=63488"); 
07FE0:  MOVLW  DE
07FE2:  MOVWF  FF6
07FE4:  MOVLW  0B
07FE6:  MOVWF  FF7
07FE8:  MOVLW  00
07FEA:  MOVWF  FF8
07FEC:  CALL   3488
....................             SendDataDisplay();  
07FF0:  CALL   34BA
....................             Paso_off; 
07FF4:  BCF    F8C.6
07FF6:  BCF    F95.6
....................          } 
....................          
....................          /* 
....................          if(RX_Buffer[4]==0x05)//Oprimio Bloqueo 
....................          { 
....................             EstadoBloqueo=!EstadoBloqueo; 
....................             RX_Buffer[4]=0x00; 
....................             RX_Buffer2[4]=0x00; 
....................          } 
....................           
....................          if(EstadoBloqueo){ 
....................             printf("b4.bco=2016"); 
....................             SendDataDisplay();  
....................              
....................          } 
....................          else{ 
....................             printf("b4.bco=63488"); 
....................             SendDataDisplay();  
....................              
....................          } 
....................          */ 
....................           
....................          if(RX_Buffer[4]==0x04)//Oprimio SSR1 
07FF8:  MOVF   34,W
07FFA:  SUBLW  04
07FFC:  BNZ   8004
....................          { 
....................             EstadoSSR=!EstadoSSR; 
07FFE:  BTG    xA1.1
....................             RX_Buffer[4]=0x00; 
08000:  CLRF   34
....................             RX_Buffer2[4]=0x00; 
08002:  CLRF   3F
....................          } 
....................           
....................          if(EstadoSSR){ 
08004:  BTFSS  xA1.1
08006:  BRA    8022
....................             printf("b3.bco=2016"); 
08008:  MOVLW  EC
0800A:  MOVWF  FF6
0800C:  MOVLW  0B
0800E:  MOVWF  FF7
08010:  MOVLW  00
08012:  MOVWF  FF8
08014:  CALL   3488
....................             SendDataDisplay();  
08018:  CALL   34BA
....................             SSR_on; 
0801C:  BCF    F8B.2
0801E:  BCF    F94.2
....................          } 
....................          else{ 
08020:  BRA    803A
....................             printf("b3.bco=63488"); 
08022:  MOVLW  F8
08024:  MOVWF  FF6
08026:  MOVLW  0B
08028:  MOVWF  FF7
0802A:  MOVLW  00
0802C:  MOVWF  FF8
0802E:  CALL   3488
....................             SendDataDisplay();  
08032:  CALL   34BA
....................             SSR_off; 
08036:  BSF    F8B.2
08038:  BCF    F94.2
....................          } 
....................           
....................          if(DOOR){ 
0803A:  BSF    F93.6
0803C:  BTFSC  F81.6
0803E:  BRA    8056
....................             printf("b8.bco=2016"); 
08040:  MOVLW  06
08042:  MOVWF  FF6
08044:  MOVLW  0C
08046:  MOVWF  FF7
08048:  MOVLW  00
0804A:  MOVWF  FF8
0804C:  CALL   3488
....................             SendDataDisplay();  
08050:  CALL   34BA
....................          }else{ 
08054:  BRA    806A
....................             printf("b8.bco=63488"); 
08056:  MOVLW  12
08058:  MOVWF  FF6
0805A:  MOVLW  0C
0805C:  MOVWF  FF7
0805E:  MOVLW  00
08060:  MOVWF  FF8
08062:  CALL   3488
....................             SendDataDisplay();  
08066:  CALL   34BA
....................          } 
....................           
....................          if(TERM){ 
0806A:  BSF    F93.5
0806C:  BTFSC  F81.5
0806E:  BRA    8086
....................             printf("b9.bco=2016"); 
08070:  MOVLW  20
08072:  MOVWF  FF6
08074:  MOVLW  0C
08076:  MOVWF  FF7
08078:  MOVLW  00
0807A:  MOVWF  FF8
0807C:  CALL   3488
....................             SendDataDisplay();  
08080:  CALL   34BA
....................          }else{ 
08084:  BRA    809A
....................             printf("b9.bco=63488"); 
08086:  MOVLW  2C
08088:  MOVWF  FF6
0808A:  MOVLW  0C
0808C:  MOVWF  FF7
0808E:  MOVLW  00
08090:  MOVWF  FF8
08092:  CALL   3488
....................             SendDataDisplay();  
08096:  CALL   34BA
....................          } 
....................           
....................          if(STOP){ 
0809A:  BSF    F93.7
0809C:  BTFSC  F81.7
0809E:  BRA    80B6
....................             printf("b10.bco=2016"); 
080A0:  MOVLW  3A
080A2:  MOVWF  FF6
080A4:  MOVLW  0C
080A6:  MOVWF  FF7
080A8:  MOVLW  00
080AA:  MOVWF  FF8
080AC:  CALL   3488
....................             SendDataDisplay();  
080B0:  CALL   34BA
....................          }else{ 
080B4:  BRA    80CA
....................             printf("b10.bco=63488"); 
080B6:  MOVLW  48
080B8:  MOVWF  FF6
080BA:  MOVLW  0C
080BC:  MOVWF  FF7
080BE:  MOVLW  00
080C0:  MOVWF  FF8
080C2:  CALL   3488
....................             SendDataDisplay();  
080C6:  CALL   34BA
....................          } 
....................           
....................          /*if(PRES){ 
....................             printf("b11.bco=2016"); 
....................             SendDataDisplay();  
....................          }else{ 
....................             printf("b11.bco=63488"); 
....................             SendDataDisplay();  
....................          }*/ 
....................           
....................          if(RX_Buffer[4]==0x13)//Oprimio Buzzer 
080CA:  MOVF   34,W
080CC:  SUBLW  13
080CE:  BNZ   80D6
....................          { 
....................             EstadoBuzzer=!EstadoBuzzer; 
080D0:  BTG    xA2.5
....................             RX_Buffer[4]=0x00; 
080D2:  CLRF   34
....................             RX_Buffer2[4]=0x00; 
080D4:  CLRF   3F
....................          } 
....................           
....................          if(EstadoBuzzer){ 
080D6:  BTFSS  xA2.5
080D8:  BRA    80F4
....................             printf("b12.bco=2016"); 
080DA:  MOVLW  56
080DC:  MOVWF  FF6
080DE:  MOVLW  0C
080E0:  MOVWF  FF7
080E2:  MOVLW  00
080E4:  MOVWF  FF8
080E6:  CALL   3488
....................             SendDataDisplay();  
080EA:  CALL   34BA
....................             Buzzer_on; 
080EE:  BSF    F8C.0
080F0:  BCF    F95.0
....................          } 
....................          else{ 
080F2:  BRA    810C
....................             printf("b12.bco=63488"); 
080F4:  MOVLW  64
080F6:  MOVWF  FF6
080F8:  MOVLW  0C
080FA:  MOVWF  FF7
080FC:  MOVLW  00
080FE:  MOVWF  FF8
08100:  CALL   3488
....................             SendDataDisplay();  
08104:  CALL   34BA
....................             Buzzer_off; 
08108:  BCF    F8C.0
0810A:  BCF    F95.0
....................          } 
....................           
....................          if(HIG){ 
0810C:  BSF    F94.0
0810E:  BTFSS  F82.0
08110:  BRA    8128
....................             printf("b16.bco=2016"); 
08112:  MOVLW  72
08114:  MOVWF  FF6
08116:  MOVLW  0C
08118:  MOVWF  FF7
0811A:  MOVLW  00
0811C:  MOVWF  FF8
0811E:  CALL   3488
....................             SendDataDisplay();  
08122:  CALL   34BA
....................          }else{ 
08126:  BRA    813C
....................             printf("b16.bco=63488"); 
08128:  MOVLW  80
0812A:  MOVWF  FF6
0812C:  MOVLW  0C
0812E:  MOVWF  FF7
08130:  MOVLW  00
08132:  MOVWF  FF8
08134:  CALL   3488
....................             SendDataDisplay();  
08138:  CALL   34BA
....................          } 
....................           
....................          if(LOW){ 
0813C:  BSF    F94.1
0813E:  BTFSS  F82.1
08140:  BRA    8158
....................             printf("b17.bco=2016"); 
08142:  MOVLW  8E
08144:  MOVWF  FF6
08146:  MOVLW  0C
08148:  MOVWF  FF7
0814A:  MOVLW  00
0814C:  MOVWF  FF8
0814E:  CALL   3488
....................             SendDataDisplay();  
08152:  CALL   34BA
....................          }else{ 
08156:  BRA    816C
....................             printf("b17.bco=63488"); 
08158:  MOVLW  9C
0815A:  MOVWF  FF6
0815C:  MOVLW  0C
0815E:  MOVWF  FF7
08160:  MOVLW  00
08162:  MOVWF  FF8
08164:  CALL   3488
....................             SendDataDisplay();  
08168:  CALL   34BA
....................          } 
....................           
....................          printf("b13.txt=\"ADC0:%3.0f\"",sensores(0));          
0816C:  MOVLB  3
0816E:  CLRF   xCD
08170:  MOVLB  0
08172:  CALL   3508
08176:  MOVFF  00,3CC
0817A:  MOVFF  01,3CD
0817E:  MOVFF  02,3CE
08182:  MOVFF  03,3CF
08186:  MOVLW  AA
08188:  MOVWF  FF6
0818A:  MOVLW  0C
0818C:  MOVWF  FF7
0818E:  MOVLW  00
08190:  MOVWF  FF8
08192:  MOVLW  0E
08194:  MOVLB  3
08196:  MOVWF  xD0
08198:  MOVLB  0
0819A:  CALL   435E
0819E:  MOVLW  02
081A0:  MOVWF  FE9
081A2:  MOVFF  3CF,3D3
081A6:  MOVFF  3CE,3D2
081AA:  MOVFF  3CD,3D1
081AE:  MOVFF  3CC,3D0
081B2:  MOVLB  3
081B4:  CLRF   xD4
081B6:  MOVLB  0
081B8:  CALL   44FE
081BC:  MOVLW  22
081BE:  BTFSS  F9E.4
081C0:  BRA    81BE
081C2:  MOVWF  FAD
....................          SendDataDisplay(); 
081C4:  CALL   34BA
....................          printf("b14.txt=\"ADC1:%3.0f\"",sensores(1));          
081C8:  MOVLW  01
081CA:  MOVLB  3
081CC:  MOVWF  xCD
081CE:  MOVLB  0
081D0:  CALL   3508
081D4:  MOVFF  00,3CC
081D8:  MOVFF  01,3CD
081DC:  MOVFF  02,3CE
081E0:  MOVFF  03,3CF
081E4:  MOVLW  C0
081E6:  MOVWF  FF6
081E8:  MOVLW  0C
081EA:  MOVWF  FF7
081EC:  MOVLW  00
081EE:  MOVWF  FF8
081F0:  MOVLW  0E
081F2:  MOVLB  3
081F4:  MOVWF  xD0
081F6:  MOVLB  0
081F8:  CALL   435E
081FC:  MOVLW  02
081FE:  MOVWF  FE9
08200:  MOVFF  3CF,3D3
08204:  MOVFF  3CE,3D2
08208:  MOVFF  3CD,3D1
0820C:  MOVFF  3CC,3D0
08210:  MOVLB  3
08212:  CLRF   xD4
08214:  MOVLB  0
08216:  CALL   44FE
0821A:  MOVLW  22
0821C:  BTFSS  F9E.4
0821E:  BRA    821C
08220:  MOVWF  FAD
....................          SendDataDisplay(); 
08222:  CALL   34BA
....................          printf("b15.txt=\"A2:%3.0f %03Lu\"",sensores(2),PresionCamara); 
08226:  MOVLW  02
08228:  MOVLB  3
0822A:  MOVWF  xCD
0822C:  MOVLB  0
0822E:  CALL   3508
08232:  MOVFF  00,3CC
08236:  MOVFF  01,3CD
0823A:  MOVFF  02,3CE
0823E:  MOVFF  03,3CF
08242:  MOVLW  D6
08244:  MOVWF  FF6
08246:  MOVLW  0C
08248:  MOVWF  FF7
0824A:  MOVLW  00
0824C:  MOVWF  FF8
0824E:  MOVLW  0C
08250:  MOVLB  3
08252:  MOVWF  xD0
08254:  MOVLB  0
08256:  CALL   435E
0825A:  MOVLW  02
0825C:  MOVWF  FE9
0825E:  MOVFF  3CF,3D3
08262:  MOVFF  3CE,3D2
08266:  MOVFF  3CD,3D1
0826A:  MOVFF  3CC,3D0
0826E:  MOVLB  3
08270:  CLRF   xD4
08272:  MOVLB  0
08274:  CALL   44FE
08278:  MOVLW  20
0827A:  BTFSS  F9E.4
0827C:  BRA    827A
0827E:  MOVWF  FAD
08280:  MOVLW  0A
08282:  MOVWF  FE9
08284:  MOVFF  354,3D1
08288:  MOVFF  353,3D0
0828C:  CALL   4726
08290:  MOVLW  22
08292:  BTFSS  F9E.4
08294:  BRA    8292
08296:  MOVWF  FAD
....................          SendDataDisplay(); 
08298:  CALL   34BA
....................          printf("b18.txt=\"A3:%3.0f %03Lu\"",sensores(3),PresionPreCamara); 
0829C:  MOVLW  03
0829E:  MOVLB  3
082A0:  MOVWF  xCD
082A2:  MOVLB  0
082A4:  CALL   3508
082A8:  MOVFF  00,3CC
082AC:  MOVFF  01,3CD
082B0:  MOVFF  02,3CE
082B4:  MOVFF  03,3CF
082B8:  MOVLW  F0
082BA:  MOVWF  FF6
082BC:  MOVLW  0C
082BE:  MOVWF  FF7
082C0:  MOVLW  00
082C2:  MOVWF  FF8
082C4:  MOVLW  0C
082C6:  MOVLB  3
082C8:  MOVWF  xD0
082CA:  MOVLB  0
082CC:  CALL   435E
082D0:  MOVLW  02
082D2:  MOVWF  FE9
082D4:  MOVFF  3CF,3D3
082D8:  MOVFF  3CE,3D2
082DC:  MOVFF  3CD,3D1
082E0:  MOVFF  3CC,3D0
082E4:  MOVLB  3
082E6:  CLRF   xD4
082E8:  MOVLB  0
082EA:  CALL   44FE
082EE:  MOVLW  20
082F0:  BTFSS  F9E.4
082F2:  BRA    82F0
082F4:  MOVWF  FAD
082F6:  MOVLW  0A
082F8:  MOVWF  FE9
082FA:  MOVFF  356,3D1
082FE:  MOVFF  355,3D0
08302:  CALL   4726
08306:  MOVLW  22
08308:  BTFSS  F9E.4
0830A:  BRA    8308
0830C:  MOVWF  FAD
....................          SendDataDisplay(); 
0830E:  CALL   34BA
....................          printf("b20.txt=\"T1:%3.1f\"",Temperatura); 
08312:  MOVLW  0A
08314:  MOVWF  FF6
08316:  MOVLW  0D
08318:  MOVWF  FF7
0831A:  MOVLW  00
0831C:  MOVWF  FF8
0831E:  MOVLW  0C
08320:  MOVLB  3
08322:  MOVWF  xD0
08324:  MOVLB  0
08326:  CALL   435E
0832A:  MOVLW  02
0832C:  MOVWF  FE9
0832E:  MOVFF  31B,3D3
08332:  MOVFF  31A,3D2
08336:  MOVFF  319,3D1
0833A:  MOVFF  318,3D0
0833E:  MOVLW  01
08340:  MOVLB  3
08342:  MOVWF  xD4
08344:  MOVLB  0
08346:  CALL   44FE
0834A:  MOVLW  22
0834C:  BTFSS  F9E.4
0834E:  BRA    834C
08350:  MOVWF  FAD
....................          SendDataDisplay(); 
08352:  CALL   34BA
....................           
....................          if(RX_Buffer[4]==0x21 || LEFT){//Oprimio salir 
08356:  MOVF   34,W
08358:  SUBLW  21
0835A:  BZ    8362
0835C:  BSF    F93.3
0835E:  BTFSC  F81.3
08360:  BRA    83A6
....................             delay_ms(100); 
08362:  MOVLW  64
08364:  MOVLB  3
08366:  MOVWF  xE1
08368:  MOVLB  0
0836A:  CALL   179C
....................             if(RX_Buffer[4]==0x21 || LEFT){ 
0836E:  MOVF   34,W
08370:  SUBLW  21
08372:  BZ    837A
08374:  BSF    F93.3
08376:  BTFSC  F81.3
08378:  BRA    83A6
....................                printf("page MenuPrincipal"); 
0837A:  MOVLW  1E
0837C:  MOVWF  FF6
0837E:  MOVLW  0D
08380:  MOVWF  FF7
08382:  MOVLW  00
08384:  MOVWF  FF8
08386:  CALL   3488
....................                SendDataDisplay(); 
0838A:  CALL   34BA
....................                PantallaPrincipal=0; 
0838E:  MOVLB  2
08390:  CLRF   xD4
....................                PruebaEstados=OFF;Desfogue_off;Vent_off;SSR_off; 
08392:  MOVLB  0
08394:  BCF    xA1.2
08396:  BCF    F8C.4
08398:  BCF    F95.4
0839A:  BCF    F8C.5
0839C:  BCF    F95.5
0839E:  BSF    F8B.2
083A0:  BCF    F94.2
....................                ApagaSalidas(); 
083A2:  CALL   34F0
....................                // Falta apagar Todo 
....................             } 
....................          } 
....................           
....................          if(UP){ 
083A6:  BSF    F93.0
083A8:  BTFSC  F81.0
083AA:  BRA    84EE
....................             delay_ms(100); 
083AC:  MOVLW  64
083AE:  MOVLB  3
083B0:  MOVWF  xE1
083B2:  MOVLB  0
083B4:  CALL   179C
....................             if(UP){ 
083B8:  BSF    F93.0
083BA:  BTFSC  F81.0
083BC:  BRA    84EE
....................                G1=41-sensores(2); 
083BE:  MOVLW  02
083C0:  MOVLB  3
083C2:  MOVWF  xCD
083C4:  MOVLB  0
083C6:  CALL   3508
083CA:  MOVFF  FEA,3CD
083CE:  MOVFF  FE9,3CC
083D2:  BSF    FD8.1
083D4:  MOVLB  3
083D6:  CLRF   xE4
083D8:  CLRF   xE3
083DA:  MOVLW  24
083DC:  MOVWF  xE2
083DE:  MOVLW  84
083E0:  MOVWF  xE1
083E2:  MOVFF  03,3E8
083E6:  MOVFF  02,3E7
083EA:  MOVFF  01,3E6
083EE:  MOVFF  00,3E5
083F2:  MOVLB  0
083F4:  CALL   1958
083F8:  MOVFF  3CD,FEA
083FC:  MOVFF  3CC,FE9
08400:  MOVFF  03,3E4
08404:  MOVFF  02,3E3
08408:  MOVFF  01,3E2
0840C:  MOVFF  00,3E1
08410:  CALL   3BAA
08414:  MOVFF  01,382
....................                if(G1<0) 
08418:  MOVLB  3
0841A:  BTFSC  x82.7
0841C:  BRA    8420
0841E:  BRA    8426
....................                   sg1=10; 
08420:  MOVLW  0A
08422:  MOVWF  x84
....................                else 
08424:  BRA    842A
....................                   sg1=5; 
08426:  MOVLW  05
08428:  MOVWF  x84
....................                    
....................                write_eeprom(42,(int8)G1); 
0842A:  CLRF   FAA
0842C:  MOVLW  2A
0842E:  MOVWF  FA9
08430:  MOVFF  382,FA8
08434:  BCF    FA6.6
08436:  BCF    FA6.7
08438:  BSF    FA6.2
0843A:  MOVF   FF2,W
0843C:  MOVWF  00
0843E:  BCF    FF2.6
08440:  BCF    FF2.7
08442:  MOVLB  F
08444:  MOVLW  55
08446:  MOVWF  FA7
08448:  MOVLW  AA
0844A:  MOVWF  FA7
0844C:  BSF    FA6.1
0844E:  BTFSC  FA6.1
08450:  BRA    844E
08452:  BCF    FA6.2
08454:  MOVF   00,W
08456:  IORWF  FF2,F
....................                delay_ms(10); 
08458:  MOVLW  0A
0845A:  MOVLB  3
0845C:  MOVWF  xE1
0845E:  MOVLB  0
08460:  CALL   179C
....................                write_eeprom(44,(int8)sg1); 
08464:  CLRF   FAA
08466:  MOVLW  2C
08468:  MOVWF  FA9
0846A:  MOVFF  384,FA8
0846E:  BCF    FA6.6
08470:  BCF    FA6.7
08472:  BSF    FA6.2
08474:  MOVF   FF2,W
08476:  MOVWF  00
08478:  BCF    FF2.6
0847A:  BCF    FF2.7
0847C:  MOVLB  F
0847E:  MOVLW  55
08480:  MOVWF  FA7
08482:  MOVLW  AA
08484:  MOVWF  FA7
08486:  BSF    FA6.1
08488:  BTFSC  FA6.1
0848A:  BRA    8488
0848C:  BCF    FA6.2
0848E:  MOVF   00,W
08490:  IORWF  FF2,F
....................                delay_ms(10); 
08492:  MOVLW  0A
08494:  MOVLB  3
08496:  MOVWF  xE1
08498:  MOVLB  0
0849A:  CALL   179C
....................                Buzzer_on; 
0849E:  BSF    F8C.0
084A0:  BCF    F95.0
....................                delay_ms(1000); 
084A2:  MOVLW  04
084A4:  MOVLB  3
084A6:  MOVWF  xCC
084A8:  MOVLW  FA
084AA:  MOVWF  xE1
084AC:  MOVLB  0
084AE:  CALL   179C
084B2:  MOVLB  3
084B4:  DECFSZ xCC,F
084B6:  BRA    84A8
....................                Buzzer_off; 
084B8:  BCF    F8C.0
084BA:  BCF    F95.0
....................                delay_ms(1000); 
084BC:  MOVLW  04
084BE:  MOVWF  xCC
084C0:  MOVLW  FA
084C2:  MOVWF  xE1
084C4:  MOVLB  0
084C6:  CALL   179C
084CA:  MOVLB  3
084CC:  DECFSZ xCC,F
084CE:  BRA    84C0
....................                Buzzer_on; 
084D0:  BSF    F8C.0
084D2:  BCF    F95.0
....................                delay_ms(1000); 
084D4:  MOVLW  04
084D6:  MOVWF  xCC
084D8:  MOVLW  FA
084DA:  MOVWF  xE1
084DC:  MOVLB  0
084DE:  CALL   179C
084E2:  MOVLB  3
084E4:  DECFSZ xCC,F
084E6:  BRA    84D8
....................                Buzzer_off; 
084E8:  BCF    F8C.0
084EA:  BCF    F95.0
084EC:  MOVLB  0
....................             } 
....................          } 
....................           
....................          if(DOWN){ 
084EE:  BSF    F93.1
084F0:  BTFSC  F81.1
084F2:  BRA    8636
....................             delay_ms(100); 
084F4:  MOVLW  64
084F6:  MOVLB  3
084F8:  MOVWF  xE1
084FA:  MOVLB  0
084FC:  CALL   179C
....................             if(DOWN){ 
08500:  BSF    F93.1
08502:  BTFSC  F81.1
08504:  BRA    8636
....................                G2=41-sensores(3); 
08506:  MOVLW  03
08508:  MOVLB  3
0850A:  MOVWF  xCD
0850C:  MOVLB  0
0850E:  CALL   3508
08512:  MOVFF  FEA,3CD
08516:  MOVFF  FE9,3CC
0851A:  BSF    FD8.1
0851C:  MOVLB  3
0851E:  CLRF   xE4
08520:  CLRF   xE3
08522:  MOVLW  24
08524:  MOVWF  xE2
08526:  MOVLW  84
08528:  MOVWF  xE1
0852A:  MOVFF  03,3E8
0852E:  MOVFF  02,3E7
08532:  MOVFF  01,3E6
08536:  MOVFF  00,3E5
0853A:  MOVLB  0
0853C:  CALL   1958
08540:  MOVFF  3CD,FEA
08544:  MOVFF  3CC,FE9
08548:  MOVFF  03,3E4
0854C:  MOVFF  02,3E3
08550:  MOVFF  01,3E2
08554:  MOVFF  00,3E1
08558:  CALL   3BAA
0855C:  MOVFF  01,383
....................                if(G2<0) 
08560:  MOVLB  3
08562:  BTFSC  x83.7
08564:  BRA    8568
08566:  BRA    856E
....................                   sg2=10; 
08568:  MOVLW  0A
0856A:  MOVWF  x85
....................                else 
0856C:  BRA    8572
....................                   sg2=5; 
0856E:  MOVLW  05
08570:  MOVWF  x85
....................                    
....................                write_eeprom(43,(int8)G2); 
08572:  CLRF   FAA
08574:  MOVLW  2B
08576:  MOVWF  FA9
08578:  MOVFF  383,FA8
0857C:  BCF    FA6.6
0857E:  BCF    FA6.7
08580:  BSF    FA6.2
08582:  MOVF   FF2,W
08584:  MOVWF  00
08586:  BCF    FF2.6
08588:  BCF    FF2.7
0858A:  MOVLB  F
0858C:  MOVLW  55
0858E:  MOVWF  FA7
08590:  MOVLW  AA
08592:  MOVWF  FA7
08594:  BSF    FA6.1
08596:  BTFSC  FA6.1
08598:  BRA    8596
0859A:  BCF    FA6.2
0859C:  MOVF   00,W
0859E:  IORWF  FF2,F
....................                delay_ms(10); 
085A0:  MOVLW  0A
085A2:  MOVLB  3
085A4:  MOVWF  xE1
085A6:  MOVLB  0
085A8:  CALL   179C
....................                write_eeprom(45,(int8)sg2); 
085AC:  CLRF   FAA
085AE:  MOVLW  2D
085B0:  MOVWF  FA9
085B2:  MOVFF  385,FA8
085B6:  BCF    FA6.6
085B8:  BCF    FA6.7
085BA:  BSF    FA6.2
085BC:  MOVF   FF2,W
085BE:  MOVWF  00
085C0:  BCF    FF2.6
085C2:  BCF    FF2.7
085C4:  MOVLB  F
085C6:  MOVLW  55
085C8:  MOVWF  FA7
085CA:  MOVLW  AA
085CC:  MOVWF  FA7
085CE:  BSF    FA6.1
085D0:  BTFSC  FA6.1
085D2:  BRA    85D0
085D4:  BCF    FA6.2
085D6:  MOVF   00,W
085D8:  IORWF  FF2,F
....................                delay_ms(10); 
085DA:  MOVLW  0A
085DC:  MOVLB  3
085DE:  MOVWF  xE1
085E0:  MOVLB  0
085E2:  CALL   179C
....................                Buzzer_on; 
085E6:  BSF    F8C.0
085E8:  BCF    F95.0
....................                delay_ms(1000); 
085EA:  MOVLW  04
085EC:  MOVLB  3
085EE:  MOVWF  xCC
085F0:  MOVLW  FA
085F2:  MOVWF  xE1
085F4:  MOVLB  0
085F6:  CALL   179C
085FA:  MOVLB  3
085FC:  DECFSZ xCC,F
085FE:  BRA    85F0
....................                Buzzer_off; 
08600:  BCF    F8C.0
08602:  BCF    F95.0
....................                delay_ms(1000); 
08604:  MOVLW  04
08606:  MOVWF  xCC
08608:  MOVLW  FA
0860A:  MOVWF  xE1
0860C:  MOVLB  0
0860E:  CALL   179C
08612:  MOVLB  3
08614:  DECFSZ xCC,F
08616:  BRA    8608
....................                Buzzer_on; 
08618:  BSF    F8C.0
0861A:  BCF    F95.0
....................                delay_ms(1000); 
0861C:  MOVLW  04
0861E:  MOVWF  xCC
08620:  MOVLW  FA
08622:  MOVWF  xE1
08624:  MOVLB  0
08626:  CALL   179C
0862A:  MOVLB  3
0862C:  DECFSZ xCC,F
0862E:  BRA    8620
....................                Buzzer_off; 
08630:  BCF    F8C.0
08632:  BCF    F95.0
08634:  MOVLB  0
....................             } 
....................          } 
....................      } 
.................... //_--------------------------------------------------------------------------------------------------------------------------------------------------------     
....................  
.................... //_--------------------------------------------------------------------------------------------------------------------------------------------------------       
....................       if(Menu==7){ //Menu de Configuracin de Fecha y Hora 
08636:  MOVLB  3
08638:  MOVF   x3A,W
0863A:  SUBLW  07
0863C:  BTFSS  FD8.2
0863E:  BRA    8A5A
....................        
....................          if(RX_Buffer[4]==0x0a){//Selecciono Hora 
08640:  MOVF   34,W
08642:  SUBLW  0A
08644:  BNZ   864A
....................             Opcion=4; 
08646:  MOVLW  04
08648:  MOVWF  x42
....................          } 
....................           
....................          if(RX_Buffer[4]==0x0b){//Selecciono Minuto 
0864A:  MOVF   34,W
0864C:  SUBLW  0B
0864E:  BNZ   8654
....................             Opcion=5; 
08650:  MOVLW  05
08652:  MOVWF  x42
....................          } 
....................           
....................          if(RX_Buffer[4]==0x0c){//Selecciono Dia 
08654:  MOVF   34,W
08656:  SUBLW  0C
08658:  BNZ   865E
....................             Opcion=1; 
0865A:  MOVLW  01
0865C:  MOVWF  x42
....................          } 
....................           
....................          if(RX_Buffer[4]==0x0d){//Selecciono Hora 
0865E:  MOVF   34,W
08660:  SUBLW  0D
08662:  BNZ   8668
....................             Opcion=2; 
08664:  MOVLW  02
08666:  MOVWF  x42
....................          } 
....................           
....................          if(RX_Buffer[4]==0x0e){//Selecciono Year 
08668:  MOVF   34,W
0866A:  SUBLW  0E
0866C:  BNZ   8672
....................             Opcion=3; 
0866E:  MOVLW  03
08670:  MOVWF  x42
....................          } 
....................           
....................          if(RIGHT){ 
08672:  BSF    F93.2
08674:  BTFSC  F81.2
08676:  BRA    868C
....................             delay_ms(200); 
08678:  MOVLW  C8
0867A:  MOVWF  xE1
0867C:  MOVLB  0
0867E:  CALL   179C
....................             if(RIGHT){ 
08682:  BSF    F93.2
08684:  BTFSC  F81.2
08686:  BRA    868E
....................                Opcion++; 
08688:  MOVLB  3
0868A:  INCF   x42,F
0868C:  MOVLB  0
....................             } 
....................          } 
....................          if(Opcion>5) 
0868E:  MOVLB  3
08690:  MOVF   x42,W
08692:  SUBLW  05
08694:  BC    869A
....................             Opcion=1; 
08696:  MOVLW  01
08698:  MOVWF  x42
....................          if(Opcion<1) 
0869A:  MOVF   x42,F
0869C:  BNZ   86A2
....................             Opcion=5; 
0869E:  MOVLW  05
086A0:  MOVWF  x42
....................              
....................          if(RX_Buffer[4]==0x11 || LEFT){//Selecciono Regresar 
086A2:  MOVF   34,W
086A4:  SUBLW  11
086A6:  BZ    86AE
086A8:  BSF    F93.3
086AA:  BTFSC  F81.3
086AC:  BRA    87BE
....................             printf("page MenuPrincipal"); 
086AE:  MOVLW  32
086B0:  MOVWF  FF6
086B2:  MOVLW  0D
086B4:  MOVWF  FF7
086B6:  MOVLW  00
086B8:  MOVWF  FF8
086BA:  MOVLB  0
086BC:  CALL   3488
....................             SendDataDisplay();   
086C0:  CALL   34BA
....................             PantallaPrincipal=0; 
086C4:  MOVLB  2
086C6:  CLRF   xD4
....................             Op=OFF; 
086C8:  MOVLB  0
086CA:  BCF    xA1.7
....................             Op2=OFF; 
086CC:  BCF    xA2.0
....................              
....................             if(esBisiesto(YearTx)) 
086CE:  MOVFF  379,3CC
086D2:  CALL   4818
086D6:  MOVF   01,F
086D8:  BZ    86F4
....................                Modulo=Bisiesto[MesTx]; 
086DA:  CLRF   03
086DC:  MOVLB  3
086DE:  MOVF   x7A,W
086E0:  ADDLW  93
086E2:  MOVWF  FE9
086E4:  MOVLW  00
086E6:  ADDWFC 03,W
086E8:  MOVWF  FEA
086EA:  MOVFF  FEF,2D6
086EE:  MOVLB  2
....................             else 
086F0:  BRA    870A
086F2:  MOVLB  0
....................                Modulo=Regular[MesTx]; 
086F4:  CLRF   03
086F6:  MOVLB  3
086F8:  MOVF   x7A,W
086FA:  ADDLW  87
086FC:  MOVWF  FE9
086FE:  MOVLW  00
08700:  ADDWFC 03,W
08702:  MOVWF  FEA
08704:  MOVFF  FEF,2D6
08708:  MOVLB  2
....................           
....................             dowTx=((YearTx-1)%7+((YearTx-1)/4-3*((YearTx-1)/100+1)/4)%7+Modulo+DiaTx%7)%7; 
0870A:  MOVLW  01
0870C:  MOVLB  3
0870E:  SUBWF  x79,W
08710:  MOVWF  xCD
08712:  MOVWF  xD6
08714:  MOVLW  07
08716:  MOVWF  xD7
08718:  MOVLB  0
0871A:  CALL   4390
0871E:  MOVFF  00,3CC
08722:  MOVLW  01
08724:  MOVLB  3
08726:  SUBWF  x79,W
08728:  MOVWF  00
0872A:  RRCF   00,W
0872C:  MOVWF  xCD
0872E:  RRCF   xCD,F
08730:  MOVLW  3F
08732:  ANDWF  xCD,F
08734:  MOVLW  01
08736:  SUBWF  x79,W
08738:  MOVWF  xCF
0873A:  MOVWF  xD6
0873C:  MOVLW  64
0873E:  MOVWF  xD7
08740:  MOVLB  0
08742:  CALL   4390
08746:  MOVLW  01
08748:  ADDWF  01,W
0874A:  MULLW  03
0874C:  MOVFF  FF3,00
08750:  RRCF   00,F
08752:  RRCF   00,F
08754:  MOVLW  3F
08756:  ANDWF  00,F
08758:  MOVF   00,W
0875A:  MOVLB  3
0875C:  SUBWF  xCD,W
0875E:  MOVWF  xCE
08760:  MOVWF  xD6
08762:  MOVLW  07
08764:  MOVWF  xD7
08766:  MOVLB  0
08768:  CALL   4390
0876C:  MOVF   00,W
0876E:  MOVLB  3
08770:  ADDWF  xCC,W
08772:  MOVLB  2
08774:  ADDWF  xD6,W
08776:  MOVLB  3
08778:  MOVWF  xCC
0877A:  MOVFF  37B,3D6
0877E:  MOVLW  07
08780:  MOVWF  xD7
08782:  MOVLB  0
08784:  CALL   4390
08788:  MOVF   00,W
0878A:  MOVLB  3
0878C:  ADDWF  xCC,W
0878E:  MOVWF  xCD
08790:  MOVWF  xD6
08792:  MOVLW  07
08794:  MOVWF  xD7
08796:  MOVLB  0
08798:  CALL   4390
0879C:  MOVFF  00,37F
....................             rtc_set_datetime(DiaTx,MesTx,YearTx,dowTx,HoraTx,MinutoTx); 
087A0:  MOVFF  37B,3CC
087A4:  MOVFF  37A,3CD
087A8:  MOVFF  379,3CE
087AC:  MOVFF  37F,3CF
087B0:  MOVFF  37C,3D0
087B4:  MOVFF  37D,3D1
087B8:  GOTO   489A
087BC:  MOVLB  3
....................          } 
....................           
....................          if((RX_Buffer[4]==0x2a)|| UP){//Tecla Arriba Oprimida 
087BE:  MOVF   34,W
087C0:  SUBLW  2A
087C2:  BZ    87CA
087C4:  BSF    F93.0
087C6:  BTFSC  F81.0
087C8:  BRA    88C6
....................             delay_ms(200); 
087CA:  MOVLW  C8
087CC:  MOVWF  xE1
087CE:  MOVLB  0
087D0:  CALL   179C
....................             if((RX_Buffer[4]==0x2a)|| UP){    
087D4:  MOVF   34,W
087D6:  SUBLW  2A
087D8:  BZ    87E0
087DA:  BSF    F93.0
087DC:  BTFSC  F81.0
087DE:  BRA    88C8
....................                if(Opcion==1){ 
087E0:  MOVLB  3
087E2:  DECFSZ x42,W
087E4:  BRA    8872
....................                   if(MesTx==2){ 
087E6:  MOVF   x7A,W
087E8:  SUBLW  02
087EA:  BNZ   8820
....................                      if(esBisiesto(YearTx)){ 
087EC:  MOVFF  379,3CC
087F0:  MOVLB  0
087F2:  CALL   4818
087F6:  MOVF   01,F
087F8:  BZ    880E
....................                         if(DiaTx<29) 
087FA:  MOVLB  3
087FC:  MOVF   x7B,W
087FE:  SUBLW  1C
08800:  BNC   8806
....................                            DiaTx++; 
08802:  INCF   x7B,F
....................                         else 
08804:  BRA    880A
....................                            DiaTx=1;    
08806:  MOVLW  01
08808:  MOVWF  x7B
....................                      }else{ 
0880A:  BRA    881E
0880C:  MOVLB  0
....................                         if(DiaTx<28) 
0880E:  MOVLB  3
08810:  MOVF   x7B,W
08812:  SUBLW  1B
08814:  BNC   881A
....................                            DiaTx++; 
08816:  INCF   x7B,F
....................                         else 
08818:  BRA    881E
....................                            DiaTx=1;    
0881A:  MOVLW  01
0881C:  MOVWF  x7B
....................                      } 
....................                   }else{ 
0881E:  BRA    8870
....................                      if(MesTx<=7){ 
08820:  MOVF   x7A,W
08822:  SUBLW  07
08824:  BNC   884C
....................                         if(MesTx % 2 ==0){ 
08826:  MOVF   x7A,W
08828:  ANDLW  01
0882A:  BNZ   883C
....................                            if(DiaTx<30) 
0882C:  MOVF   x7B,W
0882E:  SUBLW  1D
08830:  BNC   8836
....................                               DiaTx++;     
08832:  INCF   x7B,F
....................                            else 
08834:  BRA    883A
....................                               DiaTx=1;    
08836:  MOVLW  01
08838:  MOVWF  x7B
....................                         }else{ 
0883A:  BRA    884A
....................                            if(DiaTx<31) 
0883C:  MOVF   x7B,W
0883E:  SUBLW  1E
08840:  BNC   8846
....................                               DiaTx++;     
08842:  INCF   x7B,F
....................                            else 
08844:  BRA    884A
....................                               DiaTx=1;    
08846:  MOVLW  01
08848:  MOVWF  x7B
....................                         }     
....................                      }else{ 
0884A:  BRA    8870
....................                         if(MesTx % 2 ==0){ 
0884C:  MOVF   x7A,W
0884E:  ANDLW  01
08850:  BNZ   8862
....................                            if(DiaTx<31) 
08852:  MOVF   x7B,W
08854:  SUBLW  1E
08856:  BNC   885C
....................                               DiaTx++;   
08858:  INCF   x7B,F
....................                            else 
0885A:  BRA    8860
....................                               DiaTx=1; 
0885C:  MOVLW  01
0885E:  MOVWF  x7B
....................                         }else{ 
08860:  BRA    8870
....................                            if(DiaTx<30) 
08862:  MOVF   x7B,W
08864:  SUBLW  1D
08866:  BNC   886C
....................                               DiaTx++;     
08868:  INCF   x7B,F
....................                            else 
0886A:  BRA    8870
....................                               DiaTx=1; 
0886C:  MOVLW  01
0886E:  MOVWF  x7B
....................                         }     
....................                      } 
....................                   } 
....................                }else if(Opcion==2){ 
08870:  BRA    88C2
08872:  MOVF   x42,W
08874:  SUBLW  02
08876:  BNZ   8888
....................                   if(MesTx<12) 
08878:  MOVF   x7A,W
0887A:  SUBLW  0B
0887C:  BNC   8882
....................                      MesTx++; 
0887E:  INCF   x7A,F
....................                   else 
08880:  BRA    8886
....................                      MesTx=1; 
08882:  MOVLW  01
08884:  MOVWF  x7A
....................                }else if(Opcion==3){ 
08886:  BRA    88C2
08888:  MOVF   x42,W
0888A:  SUBLW  03
0888C:  BNZ   889C
....................                   if(YearTx<99) 
0888E:  MOVF   x79,W
08890:  SUBLW  62
08892:  BNC   8898
....................                      YearTx++; 
08894:  INCF   x79,F
....................                   else  
08896:  BRA    889A
....................                      YearTx=0; 
08898:  CLRF   x79
....................                }else if(Opcion==4){ 
0889A:  BRA    88C2
0889C:  MOVF   x42,W
0889E:  SUBLW  04
088A0:  BNZ   88B0
....................                   if(HoraTx<24) 
088A2:  MOVF   x7C,W
088A4:  SUBLW  17
088A6:  BNC   88AC
....................                      HoraTx++; 
088A8:  INCF   x7C,F
....................                   else 
088AA:  BRA    88AE
....................                      HoraTx=0; 
088AC:  CLRF   x7C
....................                }else if(Opcion==5){ 
088AE:  BRA    88C2
088B0:  MOVF   x42,W
088B2:  SUBLW  05
088B4:  BNZ   88C2
....................                   if(MinutoTx<59) 
088B6:  MOVF   x7D,W
088B8:  SUBLW  3A
088BA:  BNC   88C0
....................                      MinutoTx++; 
088BC:  INCF   x7D,F
....................                   else 
088BE:  BRA    88C2
....................                      MinutoTx=0; 
088C0:  CLRF   x7D
....................                } 
....................                RX_Buffer[4]=0x00; 
088C2:  CLRF   34
....................                RX_Buffer2[4]=0x00; 
088C4:  CLRF   3F
088C6:  MOVLB  0
....................             } 
....................          } 
....................           
....................          if(RX_Buffer[4]==0x2b || DOWN){//Tecla Abajo Oprimida 
088C8:  MOVF   34,W
088CA:  SUBLW  2B
088CC:  BZ    88D4
088CE:  BSF    F93.1
088D0:  BTFSC  F81.1
088D2:  BRA    8950
....................             delay_ms(200); 
088D4:  MOVLW  C8
088D6:  MOVLB  3
088D8:  MOVWF  xE1
088DA:  MOVLB  0
088DC:  CALL   179C
....................             if(RX_Buffer[4]==0x2b || DOWN){    
088E0:  MOVF   34,W
088E2:  SUBLW  2B
088E4:  BZ    88EC
088E6:  BSF    F93.1
088E8:  BTFSC  F81.1
088EA:  BRA    8950
....................                if(Opcion==1){ 
088EC:  MOVLB  3
088EE:  DECFSZ x42,W
088F0:  BRA    88FA
....................                   if(DiaTx>0) 
088F2:  MOVF   x7B,F
088F4:  BZ    88F8
....................                      DiaTx--; 
088F6:  DECF   x7B,F
....................                }else if(Opcion==2){ 
088F8:  BRA    894A
088FA:  MOVF   x42,W
088FC:  SUBLW  02
088FE:  BNZ   8910
....................                   if(MesTx>1) 
08900:  MOVF   x7A,W
08902:  SUBLW  01
08904:  BC    890A
....................                      MesTx--; 
08906:  DECF   x7A,F
....................                   else 
08908:  BRA    890E
....................                      MesTx=12; 
0890A:  MOVLW  0C
0890C:  MOVWF  x7A
....................                }else if(Opcion==3){ 
0890E:  BRA    894A
08910:  MOVF   x42,W
08912:  SUBLW  03
08914:  BNZ   8924
....................                   if(YearTx>0) 
08916:  MOVF   x79,F
08918:  BZ    891E
....................                      YearTx--; 
0891A:  DECF   x79,F
....................                   else 
0891C:  BRA    8922
....................                      YearTx=99; 
0891E:  MOVLW  63
08920:  MOVWF  x79
....................                }else if(Opcion==4){ 
08922:  BRA    894A
08924:  MOVF   x42,W
08926:  SUBLW  04
08928:  BNZ   8938
....................                   if(HoraTx>0) 
0892A:  MOVF   x7C,F
0892C:  BZ    8932
....................                      HoraTx--; 
0892E:  DECF   x7C,F
....................                   else 
08930:  BRA    8936
....................                      HoraTx=23; 
08932:  MOVLW  17
08934:  MOVWF  x7C
....................                }else if(Opcion==5){ 
08936:  BRA    894A
08938:  MOVF   x42,W
0893A:  SUBLW  05
0893C:  BNZ   894A
....................                   if(MinutoTx>0) 
0893E:  MOVF   x7D,F
08940:  BZ    8946
....................                      MinutoTx--; 
08942:  DECF   x7D,F
....................                   else 
08944:  BRA    894A
....................                      MinutoTx=59; 
08946:  MOVLW  3B
08948:  MOVWF  x7D
....................                } 
....................                RX_Buffer[4]=0x00; 
0894A:  CLRF   34
....................                RX_Buffer2[4]=0x00; 
0894C:  CLRF   3F
0894E:  MOVLB  0
....................             } 
....................          } 
....................        
....................       printf("thora.txt=\"%02u\"",HoraTx); 
08950:  MOVLW  46
08952:  MOVWF  FF6
08954:  MOVLW  0D
08956:  MOVWF  FF7
08958:  MOVLW  00
0895A:  MOVWF  FF8
0895C:  MOVLW  0B
0895E:  MOVLB  3
08960:  MOVWF  xD0
08962:  MOVLB  0
08964:  CALL   435E
08968:  MOVFF  37C,3CE
0896C:  MOVLW  01
0896E:  MOVLB  3
08970:  MOVWF  xCF
08972:  MOVLB  0
08974:  CALL   43BC
08978:  MOVLW  22
0897A:  BTFSS  F9E.4
0897C:  BRA    897A
0897E:  MOVWF  FAD
....................       SendDataDisplay(); 
08980:  CALL   34BA
....................       printf("tminutos.txt=\"%02u\"",MinutoTx); 
08984:  MOVLW  58
08986:  MOVWF  FF6
08988:  MOVLW  0D
0898A:  MOVWF  FF7
0898C:  MOVLW  00
0898E:  MOVWF  FF8
08990:  MOVLW  0E
08992:  MOVLB  3
08994:  MOVWF  xD0
08996:  MOVLB  0
08998:  CALL   435E
0899C:  MOVFF  37D,3CE
089A0:  MOVLW  01
089A2:  MOVLB  3
089A4:  MOVWF  xCF
089A6:  MOVLB  0
089A8:  CALL   43BC
089AC:  MOVLW  22
089AE:  BTFSS  F9E.4
089B0:  BRA    89AE
089B2:  MOVWF  FAD
....................       SendDataDisplay(); 
089B4:  CALL   34BA
....................       printf("tdia.txt=\"%02u\"",DiaTx); 
089B8:  MOVLW  6C
089BA:  MOVWF  FF6
089BC:  MOVLW  0D
089BE:  MOVWF  FF7
089C0:  MOVLW  00
089C2:  MOVWF  FF8
089C4:  MOVLW  0A
089C6:  MOVLB  3
089C8:  MOVWF  xD0
089CA:  MOVLB  0
089CC:  CALL   435E
089D0:  MOVFF  37B,3CE
089D4:  MOVLW  01
089D6:  MOVLB  3
089D8:  MOVWF  xCF
089DA:  MOVLB  0
089DC:  CALL   43BC
089E0:  MOVLW  22
089E2:  BTFSS  F9E.4
089E4:  BRA    89E2
089E6:  MOVWF  FAD
....................       SendDataDisplay(); 
089E8:  CALL   34BA
....................       printf("tmes.txt=\"%02u\"",MesTx); 
089EC:  MOVLW  7C
089EE:  MOVWF  FF6
089F0:  MOVLW  0D
089F2:  MOVWF  FF7
089F4:  MOVLW  00
089F6:  MOVWF  FF8
089F8:  MOVLW  0A
089FA:  MOVLB  3
089FC:  MOVWF  xD0
089FE:  MOVLB  0
08A00:  CALL   435E
08A04:  MOVFF  37A,3CE
08A08:  MOVLW  01
08A0A:  MOVLB  3
08A0C:  MOVWF  xCF
08A0E:  MOVLB  0
08A10:  CALL   43BC
08A14:  MOVLW  22
08A16:  BTFSS  F9E.4
08A18:  BRA    8A16
08A1A:  MOVWF  FAD
....................       SendDataDisplay(); 
08A1C:  CALL   34BA
....................       printf("tyear.txt=\"%02u\"",YearTx); 
08A20:  MOVLW  8C
08A22:  MOVWF  FF6
08A24:  MOVLW  0D
08A26:  MOVWF  FF7
08A28:  MOVLW  00
08A2A:  MOVWF  FF8
08A2C:  MOVLW  0B
08A2E:  MOVLB  3
08A30:  MOVWF  xD0
08A32:  MOVLB  0
08A34:  CALL   435E
08A38:  MOVFF  379,3CE
08A3C:  MOVLW  01
08A3E:  MOVLB  3
08A40:  MOVWF  xCF
08A42:  MOVLB  0
08A44:  CALL   43BC
08A48:  MOVLW  22
08A4A:  BTFSS  F9E.4
08A4C:  BRA    8A4A
08A4E:  MOVWF  FAD
....................       SendDataDisplay(); 
08A50:  CALL   34BA
....................       LimitaDia();   
08A54:  GOTO   4956
08A58:  MOVLB  3
....................     } 
.................... //_--------------------------------------------------------------------------------------------------------------------------------------------------------        
....................  
.................... //_-------------------------------------------------------------------------------------------------------------------------------------------------------- 
....................    if(Menu==8){ //Menu Ciclos Personalizados 
08A5A:  MOVF   x3A,W
08A5C:  SUBLW  08
08A5E:  BTFSS  FD8.2
08A60:  GOTO   9856
....................       printf("fecha.txt=\"T:%3.1fC Fecha:%02u/%02u/20%02u Hora: %02u:%02u:%02u\"",Temperatura,Dia,Mes,Year,Hora,Minuto,Segundo); 
08A64:  MOVLW  9E
08A66:  MOVWF  FF6
08A68:  MOVLW  0D
08A6A:  MOVWF  FF7
08A6C:  MOVLW  00
08A6E:  MOVWF  FF8
08A70:  MOVLW  0D
08A72:  MOVWF  xD0
08A74:  MOVLB  0
08A76:  CALL   435E
08A7A:  MOVLW  02
08A7C:  MOVWF  FE9
08A7E:  MOVFF  31B,3D3
08A82:  MOVFF  31A,3D2
08A86:  MOVFF  319,3D1
08A8A:  MOVFF  318,3D0
08A8E:  MOVLW  01
08A90:  MOVLB  3
08A92:  MOVWF  xD4
08A94:  MOVLB  0
08A96:  CALL   44FE
08A9A:  MOVLW  B0
08A9C:  MOVWF  FF6
08A9E:  MOVLW  0D
08AA0:  MOVWF  FF7
08AA2:  MOVLW  00
08AA4:  MOVWF  FF8
08AA6:  MOVLW  09
08AA8:  MOVLB  3
08AAA:  MOVWF  xD0
08AAC:  MOVLB  0
08AAE:  CALL   435E
08AB2:  MOVFF  374,3CE
08AB6:  MOVLW  01
08AB8:  MOVLB  3
08ABA:  MOVWF  xCF
08ABC:  MOVLB  0
08ABE:  CALL   43BC
08AC2:  MOVLW  2F
08AC4:  BTFSS  F9E.4
08AC6:  BRA    8AC4
08AC8:  MOVWF  FAD
08ACA:  MOVFF  373,3CE
08ACE:  MOVLW  01
08AD0:  MOVLB  3
08AD2:  MOVWF  xCF
08AD4:  MOVLB  0
08AD6:  CALL   43BC
08ADA:  MOVLW  2F
08ADC:  BTFSS  F9E.4
08ADE:  BRA    8ADC
08AE0:  MOVWF  FAD
08AE2:  MOVLW  32
08AE4:  BTFSS  F9E.4
08AE6:  BRA    8AE4
08AE8:  MOVWF  FAD
08AEA:  MOVLW  30
08AEC:  BTFSS  F9E.4
08AEE:  BRA    8AEC
08AF0:  MOVWF  FAD
08AF2:  MOVFF  372,3CE
08AF6:  MOVLW  01
08AF8:  MOVLB  3
08AFA:  MOVWF  xCF
08AFC:  MOVLB  0
08AFE:  CALL   43BC
08B02:  MOVLW  C9
08B04:  MOVWF  FF6
08B06:  MOVLW  0D
08B08:  MOVWF  FF7
08B0A:  MOVLW  00
08B0C:  MOVWF  FF8
08B0E:  MOVLW  07
08B10:  MOVLB  3
08B12:  MOVWF  xD0
08B14:  MOVLB  0
08B16:  CALL   435E
08B1A:  MOVFF  375,3CE
08B1E:  MOVLW  01
08B20:  MOVLB  3
08B22:  MOVWF  xCF
08B24:  MOVLB  0
08B26:  CALL   43BC
08B2A:  MOVLW  3A
08B2C:  BTFSS  F9E.4
08B2E:  BRA    8B2C
08B30:  MOVWF  FAD
08B32:  MOVFF  376,3CE
08B36:  MOVLW  01
08B38:  MOVLB  3
08B3A:  MOVWF  xCF
08B3C:  MOVLB  0
08B3E:  CALL   43BC
08B42:  MOVLW  3A
08B44:  BTFSS  F9E.4
08B46:  BRA    8B44
08B48:  MOVWF  FAD
08B4A:  MOVFF  377,3CE
08B4E:  MOVLW  01
08B50:  MOVLB  3
08B52:  MOVWF  xCF
08B54:  MOVLB  0
08B56:  CALL   43BC
08B5A:  MOVLW  22
08B5C:  BTFSS  F9E.4
08B5E:  BRA    8B5C
08B60:  MOVWF  FAD
....................       SendDataDisplay(); 
08B62:  CALL   34BA
....................       GuardaEEPROM=OFF; 
08B66:  BCF    xA2.3
....................        
....................       if(RX_Buffer[4]>0x00 && RX_Buffer[4]<0x04){//Personalizados 
08B68:  MOVF   34,F
08B6A:  BTFSC  FD8.2
08B6C:  BRA    8D9A
08B6E:  MOVF   34,W
08B70:  SUBLW  03
08B72:  BTFSS  FD8.0
08B74:  BRA    8D9A
....................          printf("ciclo.txt=\"CICLO P%02u\"",RX_Buffer[4]+0x04); 
08B76:  MOVLW  04
08B78:  ADDWF  34,W
08B7A:  MOVLB  3
08B7C:  MOVWF  xCC
08B7E:  MOVLW  E0
08B80:  MOVWF  FF6
08B82:  MOVLW  0D
08B84:  MOVWF  FF7
08B86:  MOVLW  00
08B88:  MOVWF  FF8
08B8A:  MOVLW  12
08B8C:  MOVWF  xD0
08B8E:  MOVLB  0
08B90:  CALL   435E
08B94:  MOVFF  3CC,3CE
08B98:  MOVLW  01
08B9A:  MOVLB  3
08B9C:  MOVWF  xCF
08B9E:  MOVLB  0
08BA0:  CALL   43BC
08BA4:  MOVLW  22
08BA6:  BTFSS  F9E.4
08BA8:  BRA    8BA6
08BAA:  MOVWF  FAD
....................          SendDataDisplay();           
08BAC:  CALL   34BA
....................          printf("temp.txt=\"%u\"",CiclosPersonalizados[RX_Buffer[4]-1].Temperatura); 
08BB0:  MOVLW  01
08BB2:  SUBWF  34,W
08BB4:  MULLW  0A
08BB6:  MOVF   FF3,W
08BB8:  MOVLB  3
08BBA:  CLRF   xCD
08BBC:  MOVWF  xCC
08BBE:  MOVLW  A4
08BC0:  ADDWF  xCC,W
08BC2:  MOVWF  FE9
08BC4:  MOVLW  03
08BC6:  ADDWFC xCD,W
08BC8:  MOVWF  FEA
08BCA:  MOVFF  FEF,3CC
08BCE:  MOVLW  F8
08BD0:  MOVWF  FF6
08BD2:  MOVLW  0D
08BD4:  MOVWF  FF7
08BD6:  MOVLW  00
08BD8:  MOVWF  FF8
08BDA:  MOVLW  0A
08BDC:  MOVWF  xD0
08BDE:  MOVLB  0
08BE0:  CALL   435E
08BE4:  MOVFF  3CC,3CE
08BE8:  MOVLW  1B
08BEA:  MOVLB  3
08BEC:  MOVWF  xCF
08BEE:  MOVLB  0
08BF0:  CALL   43BC
08BF4:  MOVLW  22
08BF6:  BTFSS  F9E.4
08BF8:  BRA    8BF6
08BFA:  MOVWF  FAD
....................          SendDataDisplay(); 
08BFC:  CALL   34BA
....................          printf("test.txt=\"%02u:%02u\"",CiclosPersonalizados[RX_Buffer[4]-1].Minutoest,CiclosPersonalizados[RX_Buffer[4]-1].Segundoest); 
08C00:  MOVLW  01
08C02:  SUBWF  34,W
08C04:  MULLW  0A
08C06:  MOVF   FF3,W
08C08:  MOVLB  3
08C0A:  CLRF   xCD
08C0C:  MOVWF  xCC
08C0E:  MOVLW  09
08C10:  ADDWF  xCC,W
08C12:  MOVWF  01
08C14:  MOVLW  00
08C16:  ADDWFC xCD,W
08C18:  MOVWF  03
08C1A:  MOVF   01,W
08C1C:  ADDLW  A4
08C1E:  MOVWF  FE9
08C20:  MOVLW  03
08C22:  ADDWFC 03,W
08C24:  MOVWF  FEA
08C26:  MOVFF  FEF,3CC
08C2A:  MOVLW  01
08C2C:  SUBWF  34,W
08C2E:  MULLW  0A
08C30:  MOVF   FF3,W
08C32:  CLRF   xCE
08C34:  MOVWF  xCD
08C36:  MOVLW  03
08C38:  ADDWF  xCD,W
08C3A:  MOVWF  01
08C3C:  MOVLW  00
08C3E:  ADDWFC xCE,W
08C40:  MOVWF  03
08C42:  MOVF   01,W
08C44:  ADDLW  A4
08C46:  MOVWF  FE9
08C48:  MOVLW  03
08C4A:  ADDWFC 03,W
08C4C:  MOVWF  FEA
08C4E:  MOVFF  FEF,3CD
08C52:  MOVLW  06
08C54:  MOVWF  FF6
08C56:  MOVLW  0E
08C58:  MOVWF  FF7
08C5A:  MOVLW  00
08C5C:  MOVWF  FF8
08C5E:  MOVLW  0A
08C60:  MOVWF  xD0
08C62:  MOVLB  0
08C64:  CALL   435E
08C68:  MOVFF  3CC,3CE
08C6C:  MOVLW  01
08C6E:  MOVLB  3
08C70:  MOVWF  xCF
08C72:  MOVLB  0
08C74:  CALL   43BC
08C78:  MOVLW  3A
08C7A:  BTFSS  F9E.4
08C7C:  BRA    8C7A
08C7E:  MOVWF  FAD
08C80:  MOVFF  3CD,3CE
08C84:  MOVLW  01
08C86:  MOVLB  3
08C88:  MOVWF  xCF
08C8A:  MOVLB  0
08C8C:  CALL   43BC
08C90:  MOVLW  22
08C92:  BTFSS  F9E.4
08C94:  BRA    8C92
08C96:  MOVWF  FAD
....................          SendDataDisplay(); 
08C98:  CALL   34BA
....................          printf("tsec.txt=\"%02u:%02u\"",CiclosPersonalizados[RX_Buffer[4]-1].Minutosec,CiclosPersonalizados[RX_Buffer[4]-1].Segundosec); 
08C9C:  MOVLW  01
08C9E:  SUBWF  34,W
08CA0:  MULLW  0A
08CA2:  MOVF   FF3,W
08CA4:  MOVLB  3
08CA6:  CLRF   xCD
08CA8:  MOVWF  xCC
08CAA:  MOVLW  04
08CAC:  ADDWF  xCC,W
08CAE:  MOVWF  01
08CB0:  MOVLW  00
08CB2:  ADDWFC xCD,W
08CB4:  MOVWF  03
08CB6:  MOVF   01,W
08CB8:  ADDLW  A4
08CBA:  MOVWF  FE9
08CBC:  MOVLW  03
08CBE:  ADDWFC 03,W
08CC0:  MOVWF  FEA
08CC2:  MOVFF  FEF,3CC
08CC6:  MOVLW  01
08CC8:  SUBWF  34,W
08CCA:  MULLW  0A
08CCC:  MOVF   FF3,W
08CCE:  CLRF   xCE
08CD0:  MOVWF  xCD
08CD2:  MOVLW  05
08CD4:  ADDWF  xCD,W
08CD6:  MOVWF  01
08CD8:  MOVLW  00
08CDA:  ADDWFC xCE,W
08CDC:  MOVWF  03
08CDE:  MOVF   01,W
08CE0:  ADDLW  A4
08CE2:  MOVWF  FE9
08CE4:  MOVLW  03
08CE6:  ADDWFC 03,W
08CE8:  MOVWF  FEA
08CEA:  MOVFF  FEF,3CD
08CEE:  MOVLW  1C
08CF0:  MOVWF  FF6
08CF2:  MOVLW  0E
08CF4:  MOVWF  FF7
08CF6:  MOVLW  00
08CF8:  MOVWF  FF8
08CFA:  MOVLW  0A
08CFC:  MOVWF  xD0
08CFE:  MOVLB  0
08D00:  CALL   435E
08D04:  MOVFF  3CC,3CE
08D08:  MOVLW  01
08D0A:  MOVLB  3
08D0C:  MOVWF  xCF
08D0E:  MOVLB  0
08D10:  CALL   43BC
08D14:  MOVLW  3A
08D16:  BTFSS  F9E.4
08D18:  BRA    8D16
08D1A:  MOVWF  FAD
08D1C:  MOVFF  3CD,3CE
08D20:  MOVLW  01
08D22:  MOVLB  3
08D24:  MOVWF  xCF
08D26:  MOVLB  0
08D28:  CALL   43BC
08D2C:  MOVLW  22
08D2E:  BTFSS  F9E.4
08D30:  BRA    8D2E
08D32:  MOVWF  FAD
....................          SendDataDisplay(); 
08D34:  CALL   34BA
....................          printf("desfogue.txt=\"%u\"",CiclosPersonalizados[RX_Buffer[4]-1].NivelDesfogue); 
08D38:  MOVLW  01
08D3A:  SUBWF  34,W
08D3C:  MULLW  0A
08D3E:  MOVF   FF3,W
08D40:  MOVLB  3
08D42:  CLRF   xCD
08D44:  MOVWF  xCC
08D46:  MOVLW  08
08D48:  ADDWF  xCC,W
08D4A:  MOVWF  01
08D4C:  MOVLW  00
08D4E:  ADDWFC xCD,W
08D50:  MOVWF  03
08D52:  MOVF   01,W
08D54:  ADDLW  A4
08D56:  MOVWF  FE9
08D58:  MOVLW  03
08D5A:  ADDWFC 03,W
08D5C:  MOVWF  FEA
08D5E:  MOVFF  FEF,3CC
08D62:  MOVLW  32
08D64:  MOVWF  FF6
08D66:  MOVLW  0E
08D68:  MOVWF  FF7
08D6A:  MOVLW  00
08D6C:  MOVWF  FF8
08D6E:  MOVLW  0E
08D70:  MOVWF  xD0
08D72:  MOVLB  0
08D74:  CALL   435E
08D78:  MOVFF  3CC,3CE
08D7C:  MOVLW  1B
08D7E:  MOVLB  3
08D80:  MOVWF  xCF
08D82:  MOVLB  0
08D84:  CALL   43BC
08D88:  MOVLW  22
08D8A:  BTFSS  F9E.4
08D8C:  BRA    8D8A
08D8E:  MOVWF  FAD
....................          SendDataDisplay(); 
08D90:  CALL   34BA
....................          CicloLibre=RX_Buffer[4]; 
08D94:  MOVFF  34,32E
....................       }else if(CicloLibre==0x00){ 
08D98:  BRA    9034
08D9A:  MOVLB  3
08D9C:  MOVF   x2E,F
08D9E:  BNZ   8E0A
....................          printf("ciclo.txt=\"CICLO P--\""); 
08DA0:  MOVLW  44
08DA2:  MOVWF  FF6
08DA4:  MOVLW  0E
08DA6:  MOVWF  FF7
08DA8:  MOVLW  00
08DAA:  MOVWF  FF8
08DAC:  MOVLB  0
08DAE:  CALL   3488
....................          SendDataDisplay();           
08DB2:  CALL   34BA
....................          printf("temp.txt=\"--\""); 
08DB6:  MOVLW  5A
08DB8:  MOVWF  FF6
08DBA:  MOVLW  0E
08DBC:  MOVWF  FF7
08DBE:  MOVLW  00
08DC0:  MOVWF  FF8
08DC2:  CALL   3488
....................          SendDataDisplay(); 
08DC6:  CALL   34BA
....................          printf("test.txt=\"--:--\""); 
08DCA:  MOVLW  68
08DCC:  MOVWF  FF6
08DCE:  MOVLW  0E
08DD0:  MOVWF  FF7
08DD2:  MOVLW  00
08DD4:  MOVWF  FF8
08DD6:  CALL   3488
....................          SendDataDisplay(); 
08DDA:  CALL   34BA
....................          printf("tsec.txt=\"--:--\""); 
08DDE:  MOVLW  7A
08DE0:  MOVWF  FF6
08DE2:  MOVLW  0E
08DE4:  MOVWF  FF7
08DE6:  MOVLW  00
08DE8:  MOVWF  FF8
08DEA:  CALL   3488
....................          SendDataDisplay(); 
08DEE:  CALL   34BA
....................          printf("desfogue.txt=\"--\""); 
08DF2:  MOVLW  8C
08DF4:  MOVWF  FF6
08DF6:  MOVLW  0E
08DF8:  MOVWF  FF7
08DFA:  MOVLW  00
08DFC:  MOVWF  FF8
08DFE:  CALL   3488
....................          SendDataDisplay(); 
08E02:  CALL   34BA
....................       }else if(CicloLibre>0 && CicloLibre<4){ 
08E06:  BRA    9034
08E08:  MOVLB  3
08E0A:  MOVF   x2E,F
08E0C:  BTFSC  FD8.2
08E0E:  BRA    9036
08E10:  MOVF   x2E,W
08E12:  SUBLW  03
08E14:  BTFSS  FD8.0
08E16:  BRA    9036
....................          printf("ciclo.txt=\"CICLO P%02u\"",CicloLibre+0x04); 
08E18:  MOVLW  04
08E1A:  ADDWF  x2E,W
08E1C:  MOVWF  xCC
08E1E:  MOVLW  9E
08E20:  MOVWF  FF6
08E22:  MOVLW  0E
08E24:  MOVWF  FF7
08E26:  MOVLW  00
08E28:  MOVWF  FF8
08E2A:  MOVLW  12
08E2C:  MOVWF  xD0
08E2E:  MOVLB  0
08E30:  CALL   435E
08E34:  MOVFF  3CC,3CE
08E38:  MOVLW  01
08E3A:  MOVLB  3
08E3C:  MOVWF  xCF
08E3E:  MOVLB  0
08E40:  CALL   43BC
08E44:  MOVLW  22
08E46:  BTFSS  F9E.4
08E48:  BRA    8E46
08E4A:  MOVWF  FAD
....................          SendDataDisplay();           
08E4C:  CALL   34BA
....................          printf("temp.txt=\"%u\"",CiclosPersonalizados[CicloLibre-1].Temperatura); 
08E50:  MOVLW  01
08E52:  MOVLB  3
08E54:  SUBWF  x2E,W
08E56:  MULLW  0A
08E58:  MOVF   FF3,W
08E5A:  CLRF   xCD
08E5C:  MOVWF  xCC
08E5E:  MOVLW  A4
08E60:  ADDWF  xCC,W
08E62:  MOVWF  FE9
08E64:  MOVLW  03
08E66:  ADDWFC xCD,W
08E68:  MOVWF  FEA
08E6A:  MOVFF  FEF,3CC
08E6E:  MOVLW  B6
08E70:  MOVWF  FF6
08E72:  MOVLW  0E
08E74:  MOVWF  FF7
08E76:  MOVLW  00
08E78:  MOVWF  FF8
08E7A:  MOVLW  0A
08E7C:  MOVWF  xD0
08E7E:  MOVLB  0
08E80:  CALL   435E
08E84:  MOVFF  3CC,3CE
08E88:  MOVLW  1B
08E8A:  MOVLB  3
08E8C:  MOVWF  xCF
08E8E:  MOVLB  0
08E90:  CALL   43BC
08E94:  MOVLW  22
08E96:  BTFSS  F9E.4
08E98:  BRA    8E96
08E9A:  MOVWF  FAD
....................          SendDataDisplay(); 
08E9C:  CALL   34BA
....................          printf("test.txt=\"%02u:%02u\"",CiclosPersonalizados[CicloLibre-1].Minutoest,CiclosPersonalizados[CicloLibre-1].Segundoest); 
08EA0:  MOVLW  01
08EA2:  MOVLB  3
08EA4:  SUBWF  x2E,W
08EA6:  MULLW  0A
08EA8:  MOVF   FF3,W
08EAA:  CLRF   xCD
08EAC:  MOVWF  xCC
08EAE:  MOVLW  09
08EB0:  ADDWF  xCC,W
08EB2:  MOVWF  01
08EB4:  MOVLW  00
08EB6:  ADDWFC xCD,W
08EB8:  MOVWF  03
08EBA:  MOVF   01,W
08EBC:  ADDLW  A4
08EBE:  MOVWF  FE9
08EC0:  MOVLW  03
08EC2:  ADDWFC 03,W
08EC4:  MOVWF  FEA
08EC6:  MOVFF  FEF,3CC
08ECA:  MOVLW  01
08ECC:  SUBWF  x2E,W
08ECE:  MULLW  0A
08ED0:  MOVF   FF3,W
08ED2:  CLRF   xCE
08ED4:  MOVWF  xCD
08ED6:  MOVLW  03
08ED8:  ADDWF  xCD,W
08EDA:  MOVWF  01
08EDC:  MOVLW  00
08EDE:  ADDWFC xCE,W
08EE0:  MOVWF  03
08EE2:  MOVF   01,W
08EE4:  ADDLW  A4
08EE6:  MOVWF  FE9
08EE8:  MOVLW  03
08EEA:  ADDWFC 03,W
08EEC:  MOVWF  FEA
08EEE:  MOVFF  FEF,3CD
08EF2:  MOVLW  C4
08EF4:  MOVWF  FF6
08EF6:  MOVLW  0E
08EF8:  MOVWF  FF7
08EFA:  MOVLW  00
08EFC:  MOVWF  FF8
08EFE:  MOVLW  0A
08F00:  MOVWF  xD0
08F02:  MOVLB  0
08F04:  CALL   435E
08F08:  MOVFF  3CC,3CE
08F0C:  MOVLW  01
08F0E:  MOVLB  3
08F10:  MOVWF  xCF
08F12:  MOVLB  0
08F14:  CALL   43BC
08F18:  MOVLW  3A
08F1A:  BTFSS  F9E.4
08F1C:  BRA    8F1A
08F1E:  MOVWF  FAD
08F20:  MOVFF  3CD,3CE
08F24:  MOVLW  01
08F26:  MOVLB  3
08F28:  MOVWF  xCF
08F2A:  MOVLB  0
08F2C:  CALL   43BC
08F30:  MOVLW  22
08F32:  BTFSS  F9E.4
08F34:  BRA    8F32
08F36:  MOVWF  FAD
....................          SendDataDisplay(); 
08F38:  CALL   34BA
....................          printf("tsec.txt=\"%02u:%02u\"",CiclosPersonalizados[CicloLibre-1].Minutosec,CiclosPersonalizados[CicloLibre-1].Segundosec); 
08F3C:  MOVLW  01
08F3E:  MOVLB  3
08F40:  SUBWF  x2E,W
08F42:  MULLW  0A
08F44:  MOVF   FF3,W
08F46:  CLRF   xCD
08F48:  MOVWF  xCC
08F4A:  MOVLW  04
08F4C:  ADDWF  xCC,W
08F4E:  MOVWF  01
08F50:  MOVLW  00
08F52:  ADDWFC xCD,W
08F54:  MOVWF  03
08F56:  MOVF   01,W
08F58:  ADDLW  A4
08F5A:  MOVWF  FE9
08F5C:  MOVLW  03
08F5E:  ADDWFC 03,W
08F60:  MOVWF  FEA
08F62:  MOVFF  FEF,3CC
08F66:  MOVLW  01
08F68:  SUBWF  x2E,W
08F6A:  MULLW  0A
08F6C:  MOVF   FF3,W
08F6E:  CLRF   xCE
08F70:  MOVWF  xCD
08F72:  MOVLW  05
08F74:  ADDWF  xCD,W
08F76:  MOVWF  01
08F78:  MOVLW  00
08F7A:  ADDWFC xCE,W
08F7C:  MOVWF  03
08F7E:  MOVF   01,W
08F80:  ADDLW  A4
08F82:  MOVWF  FE9
08F84:  MOVLW  03
08F86:  ADDWFC 03,W
08F88:  MOVWF  FEA
08F8A:  MOVFF  FEF,3CD
08F8E:  MOVLW  DA
08F90:  MOVWF  FF6
08F92:  MOVLW  0E
08F94:  MOVWF  FF7
08F96:  MOVLW  00
08F98:  MOVWF  FF8
08F9A:  MOVLW  0A
08F9C:  MOVWF  xD0
08F9E:  MOVLB  0
08FA0:  CALL   435E
08FA4:  MOVFF  3CC,3CE
08FA8:  MOVLW  01
08FAA:  MOVLB  3
08FAC:  MOVWF  xCF
08FAE:  MOVLB  0
08FB0:  CALL   43BC
08FB4:  MOVLW  3A
08FB6:  BTFSS  F9E.4
08FB8:  BRA    8FB6
08FBA:  MOVWF  FAD
08FBC:  MOVFF  3CD,3CE
08FC0:  MOVLW  01
08FC2:  MOVLB  3
08FC4:  MOVWF  xCF
08FC6:  MOVLB  0
08FC8:  CALL   43BC
08FCC:  MOVLW  22
08FCE:  BTFSS  F9E.4
08FD0:  BRA    8FCE
08FD2:  MOVWF  FAD
....................          SendDataDisplay(); 
08FD4:  CALL   34BA
....................          printf("desfogue.txt=\"%u\"",CiclosPersonalizados[CicloLibre-1].NivelDesfogue); 
08FD8:  MOVLW  01
08FDA:  MOVLB  3
08FDC:  SUBWF  x2E,W
08FDE:  MULLW  0A
08FE0:  MOVF   FF3,W
08FE2:  CLRF   xCD
08FE4:  MOVWF  xCC
08FE6:  MOVLW  08
08FE8:  ADDWF  xCC,W
08FEA:  MOVWF  01
08FEC:  MOVLW  00
08FEE:  ADDWFC xCD,W
08FF0:  MOVWF  03
08FF2:  MOVF   01,W
08FF4:  ADDLW  A4
08FF6:  MOVWF  FE9
08FF8:  MOVLW  03
08FFA:  ADDWFC 03,W
08FFC:  MOVWF  FEA
08FFE:  MOVFF  FEF,3CC
09002:  MOVLW  F0
09004:  MOVWF  FF6
09006:  MOVLW  0E
09008:  MOVWF  FF7
0900A:  MOVLW  00
0900C:  MOVWF  FF8
0900E:  MOVLW  0E
09010:  MOVWF  xD0
09012:  MOVLB  0
09014:  CALL   435E
09018:  MOVFF  3CC,3CE
0901C:  MOVLW  1B
0901E:  MOVLB  3
09020:  MOVWF  xCF
09022:  MOVLB  0
09024:  CALL   43BC
09028:  MOVLW  22
0902A:  BTFSS  F9E.4
0902C:  BRA    902A
0902E:  MOVWF  FAD
....................          SendDataDisplay(); 
09030:  CALL   34BA
09034:  MOVLB  3
....................       } 
....................        
....................       if(RIGHT){ 
09036:  BSF    F93.2
09038:  BTFSC  F81.2
0903A:  BRA    9050
....................          delay_ms(100); 
0903C:  MOVLW  64
0903E:  MOVWF  xE1
09040:  MOVLB  0
09042:  CALL   179C
....................          if(RIGHT){ 
09046:  BSF    F93.2
09048:  BTFSC  F81.2
0904A:  BRA    9052
....................             CicloLibre++; 
0904C:  MOVLB  3
0904E:  INCF   x2E,F
09050:  MOVLB  0
....................          } 
....................       }       
....................        
....................       if(CicloLibre<1) 
09052:  MOVLB  3
09054:  MOVF   x2E,F
09056:  BNZ   905C
....................          CicloLibre=1; 
09058:  MOVLW  01
0905A:  MOVWF  x2E
....................       if(CicloLibre>4) 
0905C:  MOVF   x2E,W
0905E:  SUBLW  04
09060:  BC    9066
....................          CicloLibre=4; 
09062:  MOVLW  04
09064:  MOVWF  x2E
....................        
....................       if(RX_Buffer[4]==0xa0 || LEFT){//a0, Menu Principal 
09066:  MOVF   34,W
09068:  SUBLW  A0
0906A:  BZ    9072
0906C:  BSF    F93.3
0906E:  BTFSC  F81.3
09070:  BRA    90A8
....................          delay_ms(100); 
09072:  MOVLW  64
09074:  MOVWF  xE1
09076:  MOVLB  0
09078:  CALL   179C
....................          if(RX_Buffer[4]==0xa0 || LEFT){ 
0907C:  MOVF   34,W
0907E:  SUBLW  A0
09080:  BZ    9088
09082:  BSF    F93.3
09084:  BTFSC  F81.3
09086:  BRA    90A6
....................             printf("page MenuPrincipal"); 
09088:  MOVLW  02
0908A:  MOVWF  FF6
0908C:  MOVLW  0F
0908E:  MOVWF  FF7
09090:  MOVLW  00
09092:  MOVWF  FF8
09094:  CALL   3488
....................             SendDataDisplay();      
09098:  CALL   34BA
....................             PantallaPrincipal=0; 
0909C:  MOVLB  2
0909E:  CLRF   xD4
....................             Op=OFF; 
090A0:  MOVLB  0
090A2:  BCF    xA1.7
....................             Op2=OFF; 
090A4:  BCF    xA2.0
090A6:  MOVLB  3
....................          } 
....................       } 
....................        
....................       if(RX_Buffer[4]==0x20 && CicloLibre>0){//20, Temperatura 
090A8:  MOVF   34,W
090AA:  SUBLW  20
090AC:  BNZ   90E6
090AE:  MOVF   x2E,F
090B0:  BZ    90E6
....................             printf("page Temperatura"); 
090B2:  MOVLW  16
090B4:  MOVWF  FF6
090B6:  MOVLW  0F
090B8:  MOVWF  FF7
090BA:  MOVLW  00
090BC:  MOVWF  FF8
090BE:  MOVLB  0
090C0:  CALL   3488
....................             SendDataDisplay();      
090C4:  CALL   34BA
....................             Setpoint=CiclosPersonalizados[CicloLibre-1].Temperatura; 
090C8:  MOVLW  01
090CA:  MOVLB  3
090CC:  SUBWF  x2E,W
090CE:  MULLW  0A
090D0:  MOVF   FF3,W
090D2:  CLRF   xCD
090D4:  MOVWF  xCC
090D6:  MOVLW  A4
090D8:  ADDWF  xCC,W
090DA:  MOVWF  FE9
090DC:  MOVLW  03
090DE:  ADDWFC xCD,W
090E0:  MOVWF  FEA
090E2:  MOVFF  FEF,341
....................       } 
....................        
....................       if(RX_Buffer[4]==0x30 && CicloLibre>0){//30, Test 
090E6:  MOVF   34,W
090E8:  SUBLW  30
090EA:  BTFSS  FD8.2
090EC:  BRA    9200
090EE:  MOVF   x2E,F
090F0:  BTFSC  FD8.2
090F2:  BRA    9200
....................             printf("page TiempoEst"); 
090F4:  MOVLW  28
090F6:  MOVWF  FF6
090F8:  MOVLW  0F
090FA:  MOVWF  FF7
090FC:  MOVLW  00
090FE:  MOVWF  FF8
09100:  MOVLB  0
09102:  CALL   3488
....................             SendDataDisplay();      
09106:  CALL   34BA
....................             Testerilizacionp[3]=CiclosPersonalizados[CicloLibre-1].Minutoest/10; 
0910A:  MOVLW  01
0910C:  MOVLB  3
0910E:  SUBWF  x2E,W
09110:  MULLW  0A
09112:  MOVF   FF3,W
09114:  CLRF   xCD
09116:  MOVWF  xCC
09118:  MOVLW  09
0911A:  ADDWF  xCC,W
0911C:  MOVWF  01
0911E:  MOVLW  00
09120:  ADDWFC xCD,W
09122:  MOVWF  03
09124:  MOVF   01,W
09126:  ADDLW  A4
09128:  MOVWF  FE9
0912A:  MOVLW  03
0912C:  ADDWFC 03,W
0912E:  MOVWF  FEA
09130:  MOVFF  FEF,3D6
09134:  MOVLW  0A
09136:  MOVWF  xD7
09138:  MOVLB  0
0913A:  CALL   4390
0913E:  MOVFF  01,BC
....................             Testerilizacionp[2]=CiclosPersonalizados[CicloLibre-1].Minutoest-(Testerilizacionp[3]*10); 
09142:  MOVLW  01
09144:  MOVLB  3
09146:  SUBWF  x2E,W
09148:  MULLW  0A
0914A:  MOVF   FF3,W
0914C:  CLRF   xCD
0914E:  MOVWF  xCC
09150:  MOVLW  09
09152:  ADDWF  xCC,W
09154:  MOVWF  01
09156:  MOVLW  00
09158:  ADDWFC xCD,W
0915A:  MOVWF  03
0915C:  MOVF   01,W
0915E:  ADDLW  A4
09160:  MOVWF  FE9
09162:  MOVLW  03
09164:  ADDWFC 03,W
09166:  MOVWF  FEA
09168:  MOVFF  FEF,3CC
0916C:  MOVFF  BC,3CE
09170:  MOVLW  0A
09172:  MOVWF  xCF
09174:  MOVLB  0
09176:  CALL   2A1C
0917A:  MOVF   01,W
0917C:  MOVLB  3
0917E:  SUBWF  xCC,W
09180:  MOVLB  0
09182:  MOVWF  xBB
....................             Testerilizacionp[1]=CiclosPersonalizados[CicloLibre-1].Segundoest/10; 
09184:  MOVLW  01
09186:  MOVLB  3
09188:  SUBWF  x2E,W
0918A:  MULLW  0A
0918C:  MOVF   FF3,W
0918E:  CLRF   xCD
09190:  MOVWF  xCC
09192:  MOVLW  03
09194:  ADDWF  xCC,W
09196:  MOVWF  01
09198:  MOVLW  00
0919A:  ADDWFC xCD,W
0919C:  MOVWF  03
0919E:  MOVF   01,W
091A0:  ADDLW  A4
091A2:  MOVWF  FE9
091A4:  MOVLW  03
091A6:  ADDWFC 03,W
091A8:  MOVWF  FEA
091AA:  MOVFF  FEF,3D6
091AE:  MOVLW  0A
091B0:  MOVWF  xD7
091B2:  MOVLB  0
091B4:  CALL   4390
091B8:  MOVFF  01,BA
....................             Testerilizacionp[0]=CiclosPersonalizados[CicloLibre-1].Segundoest-(Testerilizacionp[1]*10); 
091BC:  MOVLW  01
091BE:  MOVLB  3
091C0:  SUBWF  x2E,W
091C2:  MULLW  0A
091C4:  MOVF   FF3,W
091C6:  CLRF   xCD
091C8:  MOVWF  xCC
091CA:  MOVLW  03
091CC:  ADDWF  xCC,W
091CE:  MOVWF  01
091D0:  MOVLW  00
091D2:  ADDWFC xCD,W
091D4:  MOVWF  03
091D6:  MOVF   01,W
091D8:  ADDLW  A4
091DA:  MOVWF  FE9
091DC:  MOVLW  03
091DE:  ADDWFC 03,W
091E0:  MOVWF  FEA
091E2:  MOVFF  FEF,3CC
091E6:  MOVFF  BA,3CE
091EA:  MOVLW  0A
091EC:  MOVWF  xCF
091EE:  MOVLB  0
091F0:  CALL   2A1C
091F4:  MOVF   01,W
091F6:  MOVLB  3
091F8:  SUBWF  xCC,W
091FA:  MOVLB  0
091FC:  MOVWF  xB9
091FE:  MOVLB  3
....................       } 
....................        
....................       if(RX_Buffer[4]==0x40 && CicloLibre>0){//30, Test 
09200:  MOVF   34,W
09202:  SUBLW  40
09204:  BTFSS  FD8.2
09206:  BRA    931A
09208:  MOVF   x2E,F
0920A:  BTFSC  FD8.2
0920C:  BRA    931A
....................             printf("page TiempoSec"); 
0920E:  MOVLW  38
09210:  MOVWF  FF6
09212:  MOVLW  0F
09214:  MOVWF  FF7
09216:  MOVLW  00
09218:  MOVWF  FF8
0921A:  MOVLB  0
0921C:  CALL   3488
....................             SendDataDisplay();      
09220:  CALL   34BA
....................             Tsecadop[3]=CiclosPersonalizados[CicloLibre-1].Minutosec/10; 
09224:  MOVLW  01
09226:  MOVLB  3
09228:  SUBWF  x2E,W
0922A:  MULLW  0A
0922C:  MOVF   FF3,W
0922E:  CLRF   xCD
09230:  MOVWF  xCC
09232:  MOVLW  04
09234:  ADDWF  xCC,W
09236:  MOVWF  01
09238:  MOVLW  00
0923A:  ADDWFC xCD,W
0923C:  MOVWF  03
0923E:  MOVF   01,W
09240:  ADDLW  A4
09242:  MOVWF  FE9
09244:  MOVLW  03
09246:  ADDWFC 03,W
09248:  MOVWF  FEA
0924A:  MOVFF  FEF,3D6
0924E:  MOVLW  0A
09250:  MOVWF  xD7
09252:  MOVLB  0
09254:  CALL   4390
09258:  MOVFF  01,C5
....................             Tsecadop[2]=CiclosPersonalizados[CicloLibre-1].Minutosec-(Tsecadop[3]*10); 
0925C:  MOVLW  01
0925E:  MOVLB  3
09260:  SUBWF  x2E,W
09262:  MULLW  0A
09264:  MOVF   FF3,W
09266:  CLRF   xCD
09268:  MOVWF  xCC
0926A:  MOVLW  04
0926C:  ADDWF  xCC,W
0926E:  MOVWF  01
09270:  MOVLW  00
09272:  ADDWFC xCD,W
09274:  MOVWF  03
09276:  MOVF   01,W
09278:  ADDLW  A4
0927A:  MOVWF  FE9
0927C:  MOVLW  03
0927E:  ADDWFC 03,W
09280:  MOVWF  FEA
09282:  MOVFF  FEF,3CC
09286:  MOVFF  C5,3CE
0928A:  MOVLW  0A
0928C:  MOVWF  xCF
0928E:  MOVLB  0
09290:  CALL   2A1C
09294:  MOVF   01,W
09296:  MOVLB  3
09298:  SUBWF  xCC,W
0929A:  MOVLB  0
0929C:  MOVWF  xC4
....................             Tsecadop[1]=CiclosPersonalizados[CicloLibre-1].Segundosec/10; 
0929E:  MOVLW  01
092A0:  MOVLB  3
092A2:  SUBWF  x2E,W
092A4:  MULLW  0A
092A6:  MOVF   FF3,W
092A8:  CLRF   xCD
092AA:  MOVWF  xCC
092AC:  MOVLW  05
092AE:  ADDWF  xCC,W
092B0:  MOVWF  01
092B2:  MOVLW  00
092B4:  ADDWFC xCD,W
092B6:  MOVWF  03
092B8:  MOVF   01,W
092BA:  ADDLW  A4
092BC:  MOVWF  FE9
092BE:  MOVLW  03
092C0:  ADDWFC 03,W
092C2:  MOVWF  FEA
092C4:  MOVFF  FEF,3D6
092C8:  MOVLW  0A
092CA:  MOVWF  xD7
092CC:  MOVLB  0
092CE:  CALL   4390
092D2:  MOVFF  01,C3
....................             Tsecadop[0]=CiclosPersonalizados[CicloLibre-1].Segundosec-(Tsecadop[1]*10); 
092D6:  MOVLW  01
092D8:  MOVLB  3
092DA:  SUBWF  x2E,W
092DC:  MULLW  0A
092DE:  MOVF   FF3,W
092E0:  CLRF   xCD
092E2:  MOVWF  xCC
092E4:  MOVLW  05
092E6:  ADDWF  xCC,W
092E8:  MOVWF  01
092EA:  MOVLW  00
092EC:  ADDWFC xCD,W
092EE:  MOVWF  03
092F0:  MOVF   01,W
092F2:  ADDLW  A4
092F4:  MOVWF  FE9
092F6:  MOVLW  03
092F8:  ADDWFC 03,W
092FA:  MOVWF  FEA
092FC:  MOVFF  FEF,3CC
09300:  MOVFF  C3,3CE
09304:  MOVLW  0A
09306:  MOVWF  xCF
09308:  MOVLB  0
0930A:  CALL   2A1C
0930E:  MOVF   01,W
09310:  MOVLB  3
09312:  SUBWF  xCC,W
09314:  MOVLB  0
09316:  MOVWF  xC2
09318:  MOVLB  3
....................       } 
....................        
....................       if(RX_Buffer[4]==0x80 && CicloLibre>0){//80, NivelDesfogue          
0931A:  MOVF   34,W
0931C:  SUBLW  80
0931E:  BNZ   936A
09320:  MOVF   x2E,F
09322:  BZ    936A
....................             printf("page Nivel"); 
09324:  MOVLW  48
09326:  MOVWF  FF6
09328:  MOVLW  0F
0932A:  MOVWF  FF7
0932C:  MOVLW  00
0932E:  MOVWF  FF8
09330:  MOVLB  0
09332:  CALL   3488
....................             SendDataDisplay();      
09336:  CALL   34BA
....................             Nivel=CiclosPersonalizados[CicloLibre-1].NivelDesfogue;          
0933A:  MOVLW  01
0933C:  MOVLB  3
0933E:  SUBWF  x2E,W
09340:  MULLW  0A
09342:  MOVF   FF3,W
09344:  CLRF   xCD
09346:  MOVWF  xCC
09348:  MOVLW  08
0934A:  ADDWF  xCC,W
0934C:  MOVWF  01
0934E:  MOVLW  00
09350:  ADDWFC xCD,W
09352:  MOVWF  03
09354:  MOVF   01,W
09356:  ADDLW  A4
09358:  MOVWF  FE9
0935A:  MOVLW  03
0935C:  ADDWFC 03,W
0935E:  MOVWF  FEA
09360:  MOVF   FEF,W
09362:  CLRF   03
09364:  MOVWF  x4F
09366:  MOVFF  03,350
....................       } 
....................        
....................       if((RX_Buffer[4]==0x70 || UP)&& CicloLibre>0){//70, Iniciar Ciclo 
0936A:  MOVF   34,W
0936C:  SUBLW  70
0936E:  BZ    9376
09370:  BSF    F93.0
09372:  BTFSC  F81.0
09374:  BRA    9856
09376:  MOVF   x2E,F
09378:  BTFSC  FD8.2
0937A:  BRA    9856
....................          delay_ms(100); 
0937C:  MOVLW  64
0937E:  MOVWF  xE1
09380:  MOVLB  0
09382:  CALL   179C
....................          if((RX_Buffer[4]==0x70 || UP)&& CicloLibre>0){ 
09386:  MOVF   34,W
09388:  SUBLW  70
0938A:  BZ    9392
0938C:  BSF    F93.0
0938E:  BTFSC  F81.0
09390:  BRA    9854
09392:  MOVLB  3
09394:  MOVF   x2E,F
09396:  BTFSS  FD8.2
09398:  BRA    939E
0939A:  MOVLB  0
0939C:  BRA    9854
....................             printf("page Funcionamiento"); 
0939E:  MOVLW  54
093A0:  MOVWF  FF6
093A2:  MOVLW  0F
093A4:  MOVWF  FF7
093A6:  MOVLW  00
093A8:  MOVWF  FF8
093AA:  MOVLB  0
093AC:  CALL   3488
....................             SendDataDisplay();        
093B0:  CALL   34BA
....................             Libre=ON; 
093B4:  BSF    xA3.3
....................             if(CiclosPersonalizados[CicloLibre-1].NivelDesfogue>5){ 
093B6:  MOVLW  01
093B8:  MOVLB  3
093BA:  SUBWF  x2E,W
093BC:  MULLW  0A
093BE:  MOVF   FF3,W
093C0:  CLRF   xCD
093C2:  MOVWF  xCC
093C4:  MOVLW  08
093C6:  ADDWF  xCC,W
093C8:  MOVWF  01
093CA:  MOVLW  00
093CC:  ADDWFC xCD,W
093CE:  MOVWF  03
093D0:  MOVF   01,W
093D2:  ADDLW  A4
093D4:  MOVWF  FE9
093D6:  MOVLW  03
093D8:  ADDWFC 03,W
093DA:  MOVWF  FEA
093DC:  MOVF   FEF,W
093DE:  SUBLW  05
093E0:  BTFSC  FD8.0
093E2:  BRA    95FA
....................                ConfiguraCiclo(extraeDecima(CiclosPersonalizados[CicloLibre-1].Segundoest), 
....................                            CiclosPersonalizados[CicloLibre-1].Segundoest/10, 
....................                            extraeDecima(CiclosPersonalizados[CicloLibre-1].Minutoest), 
....................                            CiclosPersonalizados[CicloLibre-1].Minutoest/10, 
....................                            extraeDecima(CiclosPersonalizados[CicloLibre-1].Segundosec), 
....................                            CiclosPersonalizados[CicloLibre-1].Segundosec/10, 
....................                            extraeDecima(CiclosPersonalizados[CicloLibre-1].Minutosec), 
....................                            CiclosPersonalizados[CicloLibre-1].Minutosec/10,0,CicloLibre+4,CiclosPersonalizados[CicloLibre-1].Temperatura);             
093E4:  MOVLW  01
093E6:  SUBWF  x2E,W
093E8:  MULLW  0A
093EA:  MOVF   FF3,W
093EC:  CLRF   xCD
093EE:  MOVWF  xCC
093F0:  MOVLW  03
093F2:  ADDWF  xCC,W
093F4:  MOVWF  01
093F6:  MOVLW  00
093F8:  ADDWFC xCD,W
093FA:  MOVWF  03
093FC:  MOVF   01,W
093FE:  ADDLW  A4
09400:  MOVWF  FE9
09402:  MOVLW  03
09404:  ADDWFC 03,W
09406:  MOVWF  FEA
09408:  MOVFF  FEF,3CC
0940C:  MOVFF  3CC,3D3
09410:  MOVLB  0
09412:  CALL   49EA
09416:  MOVFF  01,3CC
0941A:  MOVLW  01
0941C:  MOVLB  3
0941E:  SUBWF  x2E,W
09420:  MULLW  0A
09422:  MOVF   FF3,W
09424:  CLRF   xCE
09426:  MOVWF  xCD
09428:  MOVLW  03
0942A:  ADDWF  xCD,W
0942C:  MOVWF  01
0942E:  MOVLW  00
09430:  ADDWFC xCE,W
09432:  MOVWF  03
09434:  MOVF   01,W
09436:  ADDLW  A4
09438:  MOVWF  FE9
0943A:  MOVLW  03
0943C:  ADDWFC 03,W
0943E:  MOVWF  FEA
09440:  MOVFF  FEF,3D6
09444:  MOVLW  0A
09446:  MOVWF  xD7
09448:  MOVLB  0
0944A:  CALL   4390
0944E:  MOVFF  01,3CD
09452:  MOVLW  01
09454:  MOVLB  3
09456:  SUBWF  x2E,W
09458:  MULLW  0A
0945A:  MOVF   FF3,W
0945C:  CLRF   xCF
0945E:  MOVWF  xCE
09460:  MOVLW  09
09462:  ADDWF  xCE,W
09464:  MOVWF  01
09466:  MOVLW  00
09468:  ADDWFC xCF,W
0946A:  MOVWF  03
0946C:  MOVF   01,W
0946E:  ADDLW  A4
09470:  MOVWF  FE9
09472:  MOVLW  03
09474:  ADDWFC 03,W
09476:  MOVWF  FEA
09478:  MOVFF  FEF,3CE
0947C:  MOVFF  3CE,3D3
09480:  MOVLB  0
09482:  CALL   49EA
09486:  MOVFF  01,3CE
0948A:  MOVLW  01
0948C:  MOVLB  3
0948E:  SUBWF  x2E,W
09490:  MULLW  0A
09492:  MOVF   FF3,W
09494:  CLRF   xD0
09496:  MOVWF  xCF
09498:  MOVLW  09
0949A:  ADDWF  xCF,W
0949C:  MOVWF  01
0949E:  MOVLW  00
094A0:  ADDWFC xD0,W
094A2:  MOVWF  03
094A4:  MOVF   01,W
094A6:  ADDLW  A4
094A8:  MOVWF  FE9
094AA:  MOVLW  03
094AC:  ADDWFC 03,W
094AE:  MOVWF  FEA
094B0:  MOVFF  FEF,3D6
094B4:  MOVLW  0A
094B6:  MOVWF  xD7
094B8:  MOVLB  0
094BA:  CALL   4390
094BE:  MOVFF  01,3CF
094C2:  MOVLW  01
094C4:  MOVLB  3
094C6:  SUBWF  x2E,W
094C8:  MULLW  0A
094CA:  MOVF   FF3,W
094CC:  CLRF   xD1
094CE:  MOVWF  xD0
094D0:  MOVLW  05
094D2:  ADDWF  xD0,W
094D4:  MOVWF  01
094D6:  MOVLW  00
094D8:  ADDWFC xD1,W
094DA:  MOVWF  03
094DC:  MOVF   01,W
094DE:  ADDLW  A4
094E0:  MOVWF  FE9
094E2:  MOVLW  03
094E4:  ADDWFC 03,W
094E6:  MOVWF  FEA
094E8:  MOVFF  FEF,3D0
094EC:  MOVFF  3D0,3D3
094F0:  MOVLB  0
094F2:  CALL   49EA
094F6:  MOVFF  01,3D0
094FA:  MOVLW  01
094FC:  MOVLB  3
094FE:  SUBWF  x2E,W
09500:  MULLW  0A
09502:  MOVF   FF3,W
09504:  CLRF   xD2
09506:  MOVWF  xD1
09508:  MOVLW  05
0950A:  ADDWF  xD1,W
0950C:  MOVWF  01
0950E:  MOVLW  00
09510:  ADDWFC xD2,W
09512:  MOVWF  03
09514:  MOVF   01,W
09516:  ADDLW  A4
09518:  MOVWF  FE9
0951A:  MOVLW  03
0951C:  ADDWFC 03,W
0951E:  MOVWF  FEA
09520:  MOVFF  FEF,3D6
09524:  MOVLW  0A
09526:  MOVWF  xD7
09528:  MOVLB  0
0952A:  CALL   4390
0952E:  MOVFF  01,3D1
09532:  MOVLW  01
09534:  MOVLB  3
09536:  SUBWF  x2E,W
09538:  MULLW  0A
0953A:  MOVF   FF3,W
0953C:  CLRF   xD3
0953E:  MOVWF  xD2
09540:  MOVLW  04
09542:  ADDWF  xD2,W
09544:  MOVWF  01
09546:  MOVLW  00
09548:  ADDWFC xD3,W
0954A:  MOVWF  03
0954C:  MOVF   01,W
0954E:  ADDLW  A4
09550:  MOVWF  FE9
09552:  MOVLW  03
09554:  ADDWFC 03,W
09556:  MOVWF  FEA
09558:  MOVFF  FEF,3D2
0955C:  MOVFF  3D2,3D3
09560:  MOVLB  0
09562:  CALL   49EA
09566:  MOVFF  01,3D2
0956A:  MOVLW  01
0956C:  MOVLB  3
0956E:  SUBWF  x2E,W
09570:  MULLW  0A
09572:  MOVF   FF3,W
09574:  CLRF   xD4
09576:  MOVWF  xD3
09578:  MOVLW  04
0957A:  ADDWF  xD3,W
0957C:  MOVWF  01
0957E:  MOVLW  00
09580:  ADDWFC xD4,W
09582:  MOVWF  03
09584:  MOVF   01,W
09586:  ADDLW  A4
09588:  MOVWF  FE9
0958A:  MOVLW  03
0958C:  ADDWFC 03,W
0958E:  MOVWF  FEA
09590:  MOVFF  FEF,3D6
09594:  MOVLW  0A
09596:  MOVWF  xD7
09598:  MOVLB  0
0959A:  CALL   4390
0959E:  MOVFF  01,3D3
095A2:  MOVLW  04
095A4:  MOVLB  3
095A6:  ADDWF  x2E,W
095A8:  MOVWF  xD4
095AA:  MOVLW  01
095AC:  SUBWF  x2E,W
095AE:  MULLW  0A
095B0:  MOVF   FF3,W
095B2:  CLRF   xD6
095B4:  MOVWF  xD5
095B6:  MOVLW  A4
095B8:  ADDWF  xD5,W
095BA:  MOVWF  FE9
095BC:  MOVLW  03
095BE:  ADDWFC xD6,W
095C0:  MOVWF  FEA
095C2:  MOVFF  FEF,3D5
095C6:  MOVFF  3CC,3D6
095CA:  MOVFF  3CD,3D7
095CE:  MOVFF  3CE,3D8
095D2:  MOVFF  3CF,3D9
095D6:  MOVFF  3D0,3DA
095DA:  MOVFF  3D1,3DB
095DE:  MOVFF  3D2,3DC
095E2:  MOVFF  01,3DD
095E6:  CLRF   xDE
095E8:  MOVFF  3D4,3DF
095EC:  MOVFF  3D5,3E0
095F0:  MOVLB  0
095F2:  CALL   46A2
....................             }else{ 
095F6:  BRA    9854
095F8:  MOVLB  3
....................                ConfiguraCiclo(extraeDecima(CiclosPersonalizados[CicloLibre-1].Segundoest), 
....................                            CiclosPersonalizados[CicloLibre-1].Segundoest/10, 
....................                            extraeDecima(CiclosPersonalizados[CicloLibre-1].Minutoest), 
....................                            CiclosPersonalizados[CicloLibre-1].Minutoest/10, 
....................                            extraeDecima(CiclosPersonalizados[CicloLibre-1].Segundosec), 
....................                            CiclosPersonalizados[CicloLibre-1].Segundosec/10, 
....................                            extraeDecima(CiclosPersonalizados[CicloLibre-1].Minutosec), 
....................                            CiclosPersonalizados[CicloLibre-1].Minutosec/10,1,CicloLibre+4,CiclosPersonalizados[CicloLibre-1].Temperatura);             
095FA:  MOVLW  01
095FC:  SUBWF  x2E,W
095FE:  MULLW  0A
09600:  MOVF   FF3,W
09602:  CLRF   xCD
09604:  MOVWF  xCC
09606:  MOVLW  03
09608:  ADDWF  xCC,W
0960A:  MOVWF  01
0960C:  MOVLW  00
0960E:  ADDWFC xCD,W
09610:  MOVWF  03
09612:  MOVF   01,W
09614:  ADDLW  A4
09616:  MOVWF  FE9
09618:  MOVLW  03
0961A:  ADDWFC 03,W
0961C:  MOVWF  FEA
0961E:  MOVFF  FEF,3CC
09622:  MOVFF  3CC,3D3
09626:  MOVLB  0
09628:  CALL   49EA
0962C:  MOVFF  01,3CC
09630:  MOVLW  01
09632:  MOVLB  3
09634:  SUBWF  x2E,W
09636:  MULLW  0A
09638:  MOVF   FF3,W
0963A:  CLRF   xCE
0963C:  MOVWF  xCD
0963E:  MOVLW  03
09640:  ADDWF  xCD,W
09642:  MOVWF  01
09644:  MOVLW  00
09646:  ADDWFC xCE,W
09648:  MOVWF  03
0964A:  MOVF   01,W
0964C:  ADDLW  A4
0964E:  MOVWF  FE9
09650:  MOVLW  03
09652:  ADDWFC 03,W
09654:  MOVWF  FEA
09656:  MOVFF  FEF,3D6
0965A:  MOVLW  0A
0965C:  MOVWF  xD7
0965E:  MOVLB  0
09660:  CALL   4390
09664:  MOVFF  01,3CD
09668:  MOVLW  01
0966A:  MOVLB  3
0966C:  SUBWF  x2E,W
0966E:  MULLW  0A
09670:  MOVF   FF3,W
09672:  CLRF   xCF
09674:  MOVWF  xCE
09676:  MOVLW  09
09678:  ADDWF  xCE,W
0967A:  MOVWF  01
0967C:  MOVLW  00
0967E:  ADDWFC xCF,W
09680:  MOVWF  03
09682:  MOVF   01,W
09684:  ADDLW  A4
09686:  MOVWF  FE9
09688:  MOVLW  03
0968A:  ADDWFC 03,W
0968C:  MOVWF  FEA
0968E:  MOVFF  FEF,3CE
09692:  MOVFF  3CE,3D3
09696:  MOVLB  0
09698:  CALL   49EA
0969C:  MOVFF  01,3CE
096A0:  MOVLW  01
096A2:  MOVLB  3
096A4:  SUBWF  x2E,W
096A6:  MULLW  0A
096A8:  MOVF   FF3,W
096AA:  CLRF   xD0
096AC:  MOVWF  xCF
096AE:  MOVLW  09
096B0:  ADDWF  xCF,W
096B2:  MOVWF  01
096B4:  MOVLW  00
096B6:  ADDWFC xD0,W
096B8:  MOVWF  03
096BA:  MOVF   01,W
096BC:  ADDLW  A4
096BE:  MOVWF  FE9
096C0:  MOVLW  03
096C2:  ADDWFC 03,W
096C4:  MOVWF  FEA
096C6:  MOVFF  FEF,3D6
096CA:  MOVLW  0A
096CC:  MOVWF  xD7
096CE:  MOVLB  0
096D0:  CALL   4390
096D4:  MOVFF  01,3CF
096D8:  MOVLW  01
096DA:  MOVLB  3
096DC:  SUBWF  x2E,W
096DE:  MULLW  0A
096E0:  MOVF   FF3,W
096E2:  CLRF   xD1
096E4:  MOVWF  xD0
096E6:  MOVLW  05
096E8:  ADDWF  xD0,W
096EA:  MOVWF  01
096EC:  MOVLW  00
096EE:  ADDWFC xD1,W
096F0:  MOVWF  03
096F2:  MOVF   01,W
096F4:  ADDLW  A4
096F6:  MOVWF  FE9
096F8:  MOVLW  03
096FA:  ADDWFC 03,W
096FC:  MOVWF  FEA
096FE:  MOVFF  FEF,3D0
09702:  MOVFF  3D0,3D3
09706:  MOVLB  0
09708:  CALL   49EA
0970C:  MOVFF  01,3D0
09710:  MOVLW  01
09712:  MOVLB  3
09714:  SUBWF  x2E,W
09716:  MULLW  0A
09718:  MOVF   FF3,W
0971A:  CLRF   xD2
0971C:  MOVWF  xD1
0971E:  MOVLW  05
09720:  ADDWF  xD1,W
09722:  MOVWF  01
09724:  MOVLW  00
09726:  ADDWFC xD2,W
09728:  MOVWF  03
0972A:  MOVF   01,W
0972C:  ADDLW  A4
0972E:  MOVWF  FE9
09730:  MOVLW  03
09732:  ADDWFC 03,W
09734:  MOVWF  FEA
09736:  MOVFF  FEF,3D6
0973A:  MOVLW  0A
0973C:  MOVWF  xD7
0973E:  MOVLB  0
09740:  CALL   4390
09744:  MOVFF  01,3D1
09748:  MOVLW  01
0974A:  MOVLB  3
0974C:  SUBWF  x2E,W
0974E:  MULLW  0A
09750:  MOVF   FF3,W
09752:  CLRF   xD3
09754:  MOVWF  xD2
09756:  MOVLW  04
09758:  ADDWF  xD2,W
0975A:  MOVWF  01
0975C:  MOVLW  00
0975E:  ADDWFC xD3,W
09760:  MOVWF  03
09762:  MOVF   01,W
09764:  ADDLW  A4
09766:  MOVWF  FE9
09768:  MOVLW  03
0976A:  ADDWFC 03,W
0976C:  MOVWF  FEA
0976E:  MOVFF  FEF,3D2
09772:  MOVFF  3D2,3D3
09776:  MOVLB  0
09778:  CALL   49EA
0977C:  MOVFF  01,3D2
09780:  MOVLW  01
09782:  MOVLB  3
09784:  SUBWF  x2E,W
09786:  MULLW  0A
09788:  MOVF   FF3,W
0978A:  CLRF   xD4
0978C:  MOVWF  xD3
0978E:  MOVLW  04
09790:  ADDWF  xD3,W
09792:  MOVWF  01
09794:  MOVLW  00
09796:  ADDWFC xD4,W
09798:  MOVWF  03
0979A:  MOVF   01,W
0979C:  ADDLW  A4
0979E:  MOVWF  FE9
097A0:  MOVLW  03
097A2:  ADDWFC 03,W
097A4:  MOVWF  FEA
097A6:  MOVFF  FEF,3D6
097AA:  MOVLW  0A
097AC:  MOVWF  xD7
097AE:  MOVLB  0
097B0:  CALL   4390
097B4:  MOVFF  01,3D3
097B8:  MOVLW  04
097BA:  MOVLB  3
097BC:  ADDWF  x2E,W
097BE:  MOVWF  xD4
097C0:  MOVLW  01
097C2:  SUBWF  x2E,W
097C4:  MULLW  0A
097C6:  MOVF   FF3,W
097C8:  CLRF   xD6
097CA:  MOVWF  xD5
097CC:  MOVLW  A4
097CE:  ADDWF  xD5,W
097D0:  MOVWF  FE9
097D2:  MOVLW  03
097D4:  ADDWFC xD6,W
097D6:  MOVWF  FEA
097D8:  MOVFF  FEF,3D5
097DC:  MOVFF  3CC,3D6
097E0:  MOVFF  3CD,3D7
097E4:  MOVFF  3CE,3D8
097E8:  MOVFF  3CF,3D9
097EC:  MOVFF  3D0,3DA
097F0:  MOVFF  3D1,3DB
097F4:  MOVFF  3D2,3DC
097F8:  MOVFF  01,3DD
097FC:  MOVLW  01
097FE:  MOVWF  xDE
09800:  MOVFF  3D4,3DF
09804:  MOVFF  3D5,3E0
09808:  MOVLB  0
0980A:  CALL   46A2
....................                NivelSeleccionado=9990*CiclosPersonalizados[CicloLibre-1].NivelDesfogue; 
0980E:  MOVLW  01
09810:  MOVLB  3
09812:  SUBWF  x2E,W
09814:  MULLW  0A
09816:  MOVF   FF3,W
09818:  CLRF   xCD
0981A:  MOVWF  xCC
0981C:  MOVLW  08
0981E:  ADDWF  xCC,W
09820:  MOVWF  01
09822:  MOVLW  00
09824:  ADDWFC xCD,W
09826:  MOVWF  03
09828:  MOVF   01,W
0982A:  ADDLW  A4
0982C:  MOVWF  FE9
0982E:  MOVLW  03
09830:  ADDWFC 03,W
09832:  MOVWF  FEA
09834:  MOVFF  FEF,3CC
09838:  MOVLW  27
0983A:  MOVWF  xCE
0983C:  MOVLW  06
0983E:  MOVWF  xCD
09840:  CLRF   xD0
09842:  MOVFF  3CC,3CF
09846:  MOVLB  0
09848:  CALL   3560
0984C:  MOVFF  02,35A
09850:  MOVFF  01,359
09854:  MOVLB  3
....................             } 
....................          } 
....................       } 
....................    } 
.................... //_--------------------------------------------------------------------------------------------------------------------------------------------------------        
....................  
.................... //_--------------------------------------------------------------------------------------------------------------------------------------------------------       
....................     if(Menu==15){//Menu de Clave Correcta 
09856:  MOVF   x3A,W
09858:  SUBLW  0F
0985A:  BNZ   9892
....................       if(!entro){ 
0985C:  MOVLB  0
0985E:  BTFSC  xA3.5
09860:  BRA    987C
....................          delay_ms(2000); 
09862:  MOVLW  08
09864:  MOVLB  3
09866:  MOVWF  xCC
09868:  MOVLW  FA
0986A:  MOVWF  xE1
0986C:  MOVLB  0
0986E:  CALL   179C
09872:  MOVLB  3
09874:  DECFSZ xCC,F
09876:  BRA    9868
....................          entro=ON; 
09878:  MOVLB  0
0987A:  BSF    xA3.5
....................       } 
....................       printf("page MenuPrincipal"); 
0987C:  MOVLW  68
0987E:  MOVWF  FF6
09880:  MOVLW  0F
09882:  MOVWF  FF7
09884:  MOVLW  00
09886:  MOVWF  FF8
09888:  CALL   3488
....................       SendDataDisplay(); 
0988C:  CALL   34BA
09890:  MOVLB  3
....................    } 
.................... //_--------------------------------------------------------------------------------------------------------------------------------------------------------       
....................  
.................... //_--------------------------------------------------------------------------------------------------------------------------------------------------------       
....................     if(Menu==16){//Menu de Clave InCorrecta 
09892:  MOVF   x3A,W
09894:  SUBLW  10
09896:  BNZ   98CE
....................       if(!entro){ 
09898:  MOVLB  0
0989A:  BTFSC  xA3.5
0989C:  BRA    98B8
....................          delay_ms(2000); 
0989E:  MOVLW  08
098A0:  MOVLB  3
098A2:  MOVWF  xCC
098A4:  MOVLW  FA
098A6:  MOVWF  xE1
098A8:  MOVLB  0
098AA:  CALL   179C
098AE:  MOVLB  3
098B0:  DECFSZ xCC,F
098B2:  BRA    98A4
....................          entro=ON; 
098B4:  MOVLB  0
098B6:  BSF    xA3.5
....................       } 
....................       printf("page Clave"); 
098B8:  MOVLW  7C
098BA:  MOVWF  FF6
098BC:  MOVLW  0F
098BE:  MOVWF  FF7
098C0:  MOVLW  00
098C2:  MOVWF  FF8
098C4:  CALL   3488
....................       SendDataDisplay(); 
098C8:  CALL   34BA
098CC:  MOVLB  3
....................    } 
.................... //_--------------------------------------------------------------------------------------------------------------------------------------------------------       
....................  
.................... //_--------------------------------------------------------------------------------------------------------------------------------------------------------     
....................    if(Menu==20){ // Este es el menu de cuando el proceso se inicio. 
098CE:  MOVF   x3A,W
098D0:  SUBLW  14
098D2:  BTFSS  FD8.2
098D4:  GOTO   A756
....................    //Lectura_Esclavos(); 
....................     
....................    if(!Libre){ 
098D8:  MOVLB  0
098DA:  BTFSC  xA3.3
098DC:  BRA    9960
....................       printf("t2f.txt=\"%u\"",CicloSeleccionado); 
098DE:  MOVLW  88
098E0:  MOVWF  FF6
098E2:  MOVLW  0F
098E4:  MOVWF  FF7
098E6:  MOVLW  00
098E8:  MOVWF  FF8
098EA:  MOVLW  09
098EC:  MOVLB  3
098EE:  MOVWF  xD0
098F0:  MOVLB  0
098F2:  CALL   435E
098F6:  MOVFF  340,3CE
098FA:  MOVLW  1B
098FC:  MOVLB  3
098FE:  MOVWF  xCF
09900:  MOVLB  0
09902:  CALL   43BC
09906:  MOVLW  22
09908:  BTFSS  F9E.4
0990A:  BRA    9908
0990C:  MOVWF  FAD
....................       SendDataDisplay(); 
0990E:  CALL   34BA
....................       printf("t3f.txt=\"%s\"",texto[CicloSeleccionado-1]); 
09912:  MOVLW  01
09914:  MOVLB  3
09916:  SUBWF  x40,W
09918:  MULLW  14
0991A:  MOVF   FF3,W
0991C:  CLRF   03
0991E:  MOVWF  xCC
09920:  MOVLW  96
09922:  MOVWF  FF6
09924:  MOVLW  0F
09926:  MOVWF  FF7
09928:  MOVLW  00
0992A:  MOVWF  FF8
0992C:  MOVLW  09
0992E:  MOVWF  xD0
09930:  MOVLB  0
09932:  CALL   435E
09936:  MOVLW  50
09938:  MOVWF  FF6
0993A:  MOVLW  01
0993C:  MOVWF  FF7
0993E:  MOVLW  00
09940:  MOVWF  FF8
09942:  MOVLB  3
09944:  MOVF   xCC,W
09946:  ADDWF  FF6,F
09948:  MOVLW  00
0994A:  ADDWFC FF7,F
0994C:  MOVLB  0
0994E:  CALL   3488
09952:  MOVLW  22
09954:  BTFSS  F9E.4
09956:  BRA    9954
09958:  MOVWF  FAD
....................       SendDataDisplay(); 
0995A:  CALL   34BA
....................    }else{ 
0995E:  BRA    99AE
....................       printf("t2f.txt=\"%u\"",CicloLibre+4); 
09960:  MOVLW  04
09962:  MOVLB  3
09964:  ADDWF  x2E,W
09966:  MOVWF  xCC
09968:  MOVLW  A4
0996A:  MOVWF  FF6
0996C:  MOVLW  0F
0996E:  MOVWF  FF7
09970:  MOVLW  00
09972:  MOVWF  FF8
09974:  MOVLW  09
09976:  MOVWF  xD0
09978:  MOVLB  0
0997A:  CALL   435E
0997E:  MOVFF  3CC,3CE
09982:  MOVLW  1B
09984:  MOVLB  3
09986:  MOVWF  xCF
09988:  MOVLB  0
0998A:  CALL   43BC
0998E:  MOVLW  22
09990:  BTFSS  F9E.4
09992:  BRA    9990
09994:  MOVWF  FAD
....................       SendDataDisplay(); 
09996:  CALL   34BA
....................       printf("t3f.txt=\"Personalizado\""); 
0999A:  MOVLW  B2
0999C:  MOVWF  FF6
0999E:  MOVLW  0F
099A0:  MOVWF  FF7
099A2:  MOVLW  00
099A4:  MOVWF  FF8
099A6:  CALL   3488
....................       SendDataDisplay(); 
099AA:  CALL   34BA
....................    } 
....................     
....................    if(RIGHT){ 
099AE:  BSF    F93.2
099B0:  BTFSC  F81.2
099B2:  BRA    99CA
....................       //glcd_init(ON); 
....................       delay_ms(1000); 
099B4:  MOVLW  04
099B6:  MOVLB  3
099B8:  MOVWF  xCC
099BA:  MOVLW  FA
099BC:  MOVWF  xE1
099BE:  MOVLB  0
099C0:  CALL   179C
099C4:  MOVLB  3
099C6:  DECFSZ xCC,F
099C8:  BRA    99BA
....................       /*flagCalentando=OFF; 
....................       flagDesfogando=OFF; 
....................       flagEsterilizando=OFF;*/ 
....................    } 
....................     
....................    if(PresionCamara>275){ 
099CA:  MOVLB  3
099CC:  MOVF   x54,W
099CE:  SUBLW  00
099D0:  BC    99E2
099D2:  XORLW  FF
099D4:  BNZ   99DC
099D6:  MOVF   x53,W
099D8:  SUBLW  13
099DA:  BC    99E2
....................       AlarmaPresion=ON; 
099DC:  MOVLB  0
099DE:  BSF    xA3.2
099E0:  MOVLB  3
....................    } 
....................     
....................    if(Temperatura>105 && PresionCamara<10 && !Desfogando){ 
099E2:  CLRF   xD3
099E4:  CLRF   xD2
099E6:  MOVLW  52
099E8:  MOVWF  xD1
099EA:  MOVLW  85
099EC:  MOVWF  xD0
099EE:  MOVFF  31B,3D7
099F2:  MOVFF  31A,3D6
099F6:  MOVFF  319,3D5
099FA:  MOVFF  318,3D4
099FE:  MOVLB  0
09A00:  CALL   29A2
09A04:  BNC   9A26
09A06:  MOVLB  3
09A08:  MOVF   x54,F
09A0A:  BTFSC  FD8.2
09A0C:  BRA    9A12
09A0E:  MOVLB  0
09A10:  BRA    9A26
09A12:  MOVF   x53,W
09A14:  SUBLW  09
09A16:  BTFSC  FD8.0
09A18:  BRA    9A1E
09A1A:  MOVLB  0
09A1C:  BRA    9A26
09A1E:  MOVLB  0
09A20:  BTFSC  xA0.5
09A22:  BRA    9A26
....................       AlarmaCiclo=ON; 
09A24:  BSF    x9F.6
....................    } 
....................     
....................    if(TiempoCiclo>4000){ 
09A26:  MOVF   xA5,W
09A28:  SUBLW  0E
09A2A:  BC    9A5E
09A2C:  XORLW  FF
09A2E:  BNZ   9A36
09A30:  MOVF   xA4,W
09A32:  SUBLW  A0
09A34:  BC    9A5E
....................       if(TiempoCiclo>5800) 
09A36:  MOVF   xA5,W
09A38:  SUBLW  15
09A3A:  BC    9A48
09A3C:  XORLW  FF
09A3E:  BNZ   9A46
09A40:  MOVF   xA4,W
09A42:  SUBLW  A8
09A44:  BC    9A48
....................          AlarmaTiempoProlongado=ON; 
09A46:  BSF    x9F.0
....................       if(PresionCamara<10){ 
09A48:  MOVLB  3
09A4A:  MOVF   x54,F
09A4C:  BNZ   9A5A
09A4E:  MOVF   x53,W
09A50:  SUBLW  09
09A52:  BNC   9A5A
....................          AlarmaTiempoProlongado=ON; 
09A54:  MOVLB  0
09A56:  BSF    x9F.0
09A58:  MOVLB  3
....................       } 
....................    }else{ 
09A5A:  BRA    9A62
09A5C:  MOVLB  0
....................       AlarmaTiempoProlongado=OFF; 
09A5E:  BCF    x9F.0
09A60:  MOVLB  3
....................    } 
....................     
....................    if(Temperatura>Setpoint+3.0){ 
09A62:  CLRF   xE2
09A64:  MOVFF  341,3E1
09A68:  MOVLB  0
09A6A:  CALL   17C4
09A6E:  BCF    FD8.1
09A70:  MOVFF  03,3E4
09A74:  MOVFF  02,3E3
09A78:  MOVFF  01,3E2
09A7C:  MOVFF  00,3E1
09A80:  MOVLB  3
09A82:  CLRF   xE8
09A84:  CLRF   xE7
09A86:  MOVLW  40
09A88:  MOVWF  xE6
09A8A:  MOVLW  80
09A8C:  MOVWF  xE5
09A8E:  MOVLB  0
09A90:  CALL   1958
09A94:  MOVFF  03,3D3
09A98:  MOVFF  02,3D2
09A9C:  MOVFF  01,3D1
09AA0:  MOVFF  00,3D0
09AA4:  MOVFF  31B,3D7
09AA8:  MOVFF  31A,3D6
09AAC:  MOVFF  319,3D5
09AB0:  MOVFF  318,3D4
09AB4:  CALL   29A2
09AB8:  BNC   9ABC
....................       AlarmaSobreTemperatura=ON; 
09ABA:  BSF    x9F.1
....................    } 
....................     
....................    if(TiempoLlenado>600){ 
09ABC:  MOVF   xA7,W
09ABE:  SUBLW  01
09AC0:  BC    9AD0
09AC2:  XORLW  FF
09AC4:  BNZ   9ACC
09AC6:  MOVF   xA6,W
09AC8:  SUBLW  58
09ACA:  BC    9AD0
....................       AlarmaLlenado=ON; 
09ACC:  BSF    x9F.2
....................    }else{ 
09ACE:  BRA    9AD2
....................       AlarmaLlenado=OFF; 
09AD0:  BCF    x9F.2
....................    } 
....................     
....................    if(tTermostato>=2000){ 
09AD2:  MOVF   xB1,W
09AD4:  SUBLW  06
09AD6:  BC    9AE4
09AD8:  XORLW  FF
09ADA:  BNZ   9AE2
09ADC:  MOVF   xB0,W
09ADE:  SUBLW  CF
09AE0:  BC    9AE4
....................       AlarmaTermostato=ON; 
09AE2:  BSF    x9F.3
....................    } 
....................     
....................    if(!DOOR){ 
09AE4:  BSF    F93.6
09AE6:  BTFSS  F81.6
09AE8:  BRA    9AFE
....................       //Desfogue_off; 
....................       //Solenoide_off; 
....................       Paso_off; 
09AEA:  BCF    F8C.6
09AEC:  BCF    F95.6
....................       if(!Secando && !Finalizo && !Desfogando){ 
09AEE:  BTFSC  xA0.3
09AF0:  BRA    9AFC
09AF2:  BTFSC  xA3.1
09AF4:  BRA    9AFC
09AF6:  BTFSC  xA0.5
09AF8:  BRA    9AFC
....................          AlarmaPuerta=ON; 
09AFA:  BSF    x9F.4
....................       } 
....................    }else{ 
09AFC:  BRA    9B00
....................       AlarmaPuerta=OFF; 
09AFE:  BCF    x9F.4
....................    } 
....................  
....................    if(tStop>=300){ 
09B00:  MOVF   xAF,W
09B02:  SUBLW  00
09B04:  BC    9B12
09B06:  XORLW  FF
09B08:  BNZ   9B10
09B0A:  MOVF   xAE,W
09B0C:  SUBLW  2B
09B0E:  BC    9B12
....................       AlarmaEmergencia=ON; 
09B10:  BSF    x9F.5
....................    } 
....................     
....................    if(AlarmaPuerta || AlarmaTermostato || AlarmaLlenado || AlarmaSobreTemperatura || AlarmaTiempoProlongado || AlarmaEmergencia || AlarmaPresion 
....................    || AlarmaCiclo){ 
09B12:  BTFSC  x9F.4
09B14:  BRA    9B32
09B16:  BTFSC  x9F.3
09B18:  BRA    9B32
09B1A:  BTFSC  x9F.2
09B1C:  BRA    9B32
09B1E:  BTFSC  x9F.1
09B20:  BRA    9B32
09B22:  BTFSC  x9F.0
09B24:  BRA    9B32
09B26:  BTFSC  x9F.5
09B28:  BRA    9B32
09B2A:  BTFSC  xA3.2
09B2C:  BRA    9B32
09B2E:  BTFSS  x9F.6
09B30:  BRA    9EA0
....................       ActivaAlarma(1); 
09B32:  MOVLW  01
09B34:  MOVLB  3
09B36:  MOVWF  xCC
09B38:  MOVLB  0
09B3A:  CALL   4262
....................       if(AlarmaEmergencia){ 
09B3E:  BTFSS  x9F.5
09B40:  BRA    9BAC
....................          printf("Funcionamiento.t4f.txt=\" Parada de Emergencia\""); 
09B42:  MOVLW  CA
09B44:  MOVWF  FF6
09B46:  MOVLW  0F
09B48:  MOVWF  FF7
09B4A:  MOVLW  00
09B4C:  MOVWF  FF8
09B4E:  CALL   3488
....................          SendDataDisplay(); 
09B52:  CALL   34BA
....................          printf("Funcionamiento.t5f.txt=\" Cancelado\""); 
09B56:  MOVLW  FA
09B58:  MOVWF  FF6
09B5A:  MOVLW  0F
09B5C:  MOVWF  FF7
09B5E:  MOVLW  00
09B60:  MOVWF  FF8
09B62:  CALL   3488
....................          SendDataDisplay(); 
09B66:  CALL   34BA
....................          Desfogue_on; 
09B6A:  BSF    F8C.4
09B6C:  BCF    F95.4
....................          SSR_off; 
09B6E:  BSF    F8B.2
09B70:  BCF    F94.2
....................          Paso_off; 
09B72:  BCF    F8C.6
09B74:  BCF    F95.6
....................          Esterilizando=OFF; 
09B76:  BCF    xA0.2
....................          Desfogando=OFF; 
09B78:  BCF    xA0.5
....................          DesfogueSuave=OFF; 
09B7A:  BCF    xA0.6
....................          Esterilizando=OFF; 
09B7C:  BCF    xA0.2
....................          //IniciaCiclo=OFF; 
....................          Controlando=0; 
09B7E:  MOVLB  3
09B80:  CLRF   x32
....................          if(!flagImprimir && ActivaImpresion==1){ 
09B82:  BTFSC  x2F.4
09B84:  BRA    9BA8
09B86:  DECFSZ x33,W
09B88:  BRA    9BA8
....................             Imprime=20; 
09B8A:  MOVLW  14
09B8C:  MOVWF  x81
....................             Envio_Esclavos(); 
09B8E:  MOVLB  0
09B90:  CALL   3E00
....................             delay_ms(100); 
09B94:  MOVLW  64
09B96:  MOVLB  3
09B98:  MOVWF  xE1
09B9A:  MOVLB  0
09B9C:  CALL   179C
....................             Imprime=10; 
09BA0:  MOVLW  0A
09BA2:  MOVLB  3
09BA4:  MOVWF  x81
....................             flagImprimir=1; 
09BA6:  BSF    x2F.4
....................          } 
....................       }else if(AlarmaPuerta){ 
09BA8:  BRA    9E9C
09BAA:  MOVLB  0
09BAC:  BTFSS  x9F.4
09BAE:  BRA    9BEE
....................             printf("Funcionamiento.t4f.txt=\" Puerta Abierta\""); 
09BB0:  MOVLW  1E
09BB2:  MOVWF  FF6
09BB4:  MOVLW  10
09BB6:  MOVWF  FF7
09BB8:  MOVLW  00
09BBA:  MOVWF  FF8
09BBC:  CALL   3488
....................             SendDataDisplay(); 
09BC0:  CALL   34BA
....................             printf("Funcionamiento.t5f.txt=\" Pausado\""); 
09BC4:  MOVLW  48
09BC6:  MOVWF  FF6
09BC8:  MOVLW  10
09BCA:  MOVWF  FF7
09BCC:  MOVLW  00
09BCE:  MOVWF  FF8
09BD0:  CALL   3488
....................             SendDataDisplay(); 
09BD4:  CALL   34BA
....................             SSR_off; 
09BD8:  BSF    F8B.2
09BDA:  BCF    F94.2
....................             Paso_off; 
09BDC:  BCF    F8C.6
09BDE:  BCF    F95.6
....................             IniciaLlenado=OFF; 
09BE0:  BCF    x9F.7
....................             IniciaCiclo=OFF; 
09BE2:  BCF    xA0.1
....................             Esterilizando=OFF; 
09BE4:  BCF    xA0.2
....................             Controlando=0; 
09BE6:  MOVLB  3
09BE8:  CLRF   x32
....................       }else if(AlarmaLlenado){ 
09BEA:  BRA    9E9C
09BEC:  MOVLB  0
09BEE:  BTFSS  x9F.2
09BF0:  BRA    9C5A
....................             printf("Funcionamiento.t4f.txt=\" Tiempo Llenado\""); 
09BF2:  MOVLW  6A
09BF4:  MOVWF  FF6
09BF6:  MOVLW  10
09BF8:  MOVWF  FF7
09BFA:  MOVLW  00
09BFC:  MOVWF  FF8
09BFE:  CALL   3488
....................             SendDataDisplay(); 
09C02:  CALL   34BA
....................             printf("Funcionamiento.t5f.txt=\" Cancelado\""); 
09C06:  MOVLW  94
09C08:  MOVWF  FF6
09C0A:  MOVLW  10
09C0C:  MOVWF  FF7
09C0E:  MOVLW  00
09C10:  MOVWF  FF8
09C12:  CALL   3488
....................             SendDataDisplay(); 
09C16:  CALL   34BA
....................             Desfogue_off; 
09C1A:  BCF    F8C.4
09C1C:  BCF    F95.4
....................             SSR_off; 
09C1E:  BSF    F8B.2
09C20:  BCF    F94.2
....................             Paso_off; 
09C22:  BCF    F8C.6
09C24:  BCF    F95.6
....................             IniciaLlenado=OFF; 
09C26:  BCF    x9F.7
....................             IniciaCiclo=OFF; 
09C28:  BCF    xA0.1
....................             Esterilizando=OFF; 
09C2A:  BCF    xA0.2
....................             Controlando=0; 
09C2C:  MOVLB  3
09C2E:  CLRF   x32
....................             if(!flagImprimir && ActivaImpresion==1){ 
09C30:  BTFSC  x2F.4
09C32:  BRA    9C56
09C34:  DECFSZ x33,W
09C36:  BRA    9C56
....................                Imprime=21; 
09C38:  MOVLW  15
09C3A:  MOVWF  x81
....................                Envio_Esclavos(); 
09C3C:  MOVLB  0
09C3E:  CALL   3E00
....................                delay_ms(100); 
09C42:  MOVLW  64
09C44:  MOVLB  3
09C46:  MOVWF  xE1
09C48:  MOVLB  0
09C4A:  CALL   179C
....................                Imprime=10; 
09C4E:  MOVLW  0A
09C50:  MOVLB  3
09C52:  MOVWF  x81
....................                flagImprimir=1; 
09C54:  BSF    x2F.4
....................             } 
....................       }else if(AlarmaTermostato){ // Alarma de Termostato 
09C56:  BRA    9E9C
09C58:  MOVLB  0
09C5A:  BTFSS  x9F.3
09C5C:  BRA    9CCE
....................             tiempo_esterilizacion=0;tiempo_secado=0;          
09C5E:  MOVLB  3
09C60:  CLRF   x44
09C62:  CLRF   x45
....................             printf("Funcionamiento.t4f.txt=\" Termostato\""); 
09C64:  MOVLW  B8
09C66:  MOVWF  FF6
09C68:  MOVLW  10
09C6A:  MOVWF  FF7
09C6C:  MOVLW  00
09C6E:  MOVWF  FF8
09C70:  MOVLB  0
09C72:  CALL   3488
....................             SendDataDisplay(); 
09C76:  CALL   34BA
....................             printf("Funcionamiento.t5f.txt=\" Cancelado\""); 
09C7A:  MOVLW  DE
09C7C:  MOVWF  FF6
09C7E:  MOVLW  10
09C80:  MOVWF  FF7
09C82:  MOVLW  00
09C84:  MOVWF  FF8
09C86:  CALL   3488
....................             SendDataDisplay(); 
09C8A:  CALL   34BA
....................             Desfogue_on;             
09C8E:  BSF    F8C.4
09C90:  BCF    F95.4
....................             SSR_off; 
09C92:  BSF    F8B.2
09C94:  BCF    F94.2
....................             Paso_off; 
09C96:  BCF    F8C.6
09C98:  BCF    F95.6
....................             Esterilizando=OFF; 
09C9A:  BCF    xA0.2
....................             Desfogando=OFF; 
09C9C:  BCF    xA0.5
....................             IniciaCiclo=OFF; 
09C9E:  BCF    xA0.1
....................             Controlando=0; 
09CA0:  MOVLB  3
09CA2:  CLRF   x32
....................             if(!flagImprimir && ActivaImpresion==1){ 
09CA4:  BTFSC  x2F.4
09CA6:  BRA    9CCA
09CA8:  DECFSZ x33,W
09CAA:  BRA    9CCA
....................                Imprime=22; 
09CAC:  MOVLW  16
09CAE:  MOVWF  x81
....................                Envio_Esclavos(); 
09CB0:  MOVLB  0
09CB2:  CALL   3E00
....................                delay_ms(100); 
09CB6:  MOVLW  64
09CB8:  MOVLB  3
09CBA:  MOVWF  xE1
09CBC:  MOVLB  0
09CBE:  CALL   179C
....................                Imprime=10; 
09CC2:  MOVLW  0A
09CC4:  MOVLB  3
09CC6:  MOVWF  x81
....................                flagImprimir=1; 
09CC8:  BSF    x2F.4
....................             } 
....................       }else if(AlarmaSobreTemperatura){ // Alarma de Sobre Temperatura 
09CCA:  BRA    9E9C
09CCC:  MOVLB  0
09CCE:  BTFSS  x9F.1
09CD0:  BRA    9D46
....................          tiempo_esterilizacion=0;tiempo_secado=0;          
09CD2:  MOVLB  3
09CD4:  CLRF   x44
09CD6:  CLRF   x45
....................          printf("Funcionamiento.t4f.txt=\" Sobretemperatura\""); 
09CD8:  MOVLW  02
09CDA:  MOVWF  FF6
09CDC:  MOVLW  11
09CDE:  MOVWF  FF7
09CE0:  MOVLW  00
09CE2:  MOVWF  FF8
09CE4:  MOVLB  0
09CE6:  CALL   3488
....................          SendDataDisplay(); 
09CEA:  CALL   34BA
....................          printf("Funcionamiento.t5f.txt=\" Cancelado\""); 
09CEE:  MOVLW  2E
09CF0:  MOVWF  FF6
09CF2:  MOVLW  11
09CF4:  MOVWF  FF7
09CF6:  MOVLW  00
09CF8:  MOVWF  FF8
09CFA:  CALL   3488
....................          SendDataDisplay();   
09CFE:  CALL   34BA
....................          Desfogue_on; 
09D02:  BSF    F8C.4
09D04:  BCF    F95.4
....................          SSR_off; 
09D06:  BSF    F8B.2
09D08:  BCF    F94.2
....................          Paso_off; 
09D0A:  BCF    F8C.6
09D0C:  BCF    F95.6
....................          Controlando=0; 
09D0E:  MOVLB  3
09D10:  CLRF   x32
....................          IniciaLlenado=OFF; 
09D12:  MOVLB  0
09D14:  BCF    x9F.7
....................          IniciaCiclo=OFF; 
09D16:  BCF    xA0.1
....................          Esterilizando=OFF; 
09D18:  BCF    xA0.2
....................          if(!flagImprimir && ActivaImpresion==1){ 
09D1A:  MOVLB  3
09D1C:  BTFSC  x2F.4
09D1E:  BRA    9D42
09D20:  DECFSZ x33,W
09D22:  BRA    9D42
....................             Imprime=23; 
09D24:  MOVLW  17
09D26:  MOVWF  x81
....................             Envio_Esclavos(); 
09D28:  MOVLB  0
09D2A:  CALL   3E00
....................             delay_ms(100); 
09D2E:  MOVLW  64
09D30:  MOVLB  3
09D32:  MOVWF  xE1
09D34:  MOVLB  0
09D36:  CALL   179C
....................             Imprime=10; 
09D3A:  MOVLW  0A
09D3C:  MOVLB  3
09D3E:  MOVWF  x81
....................             flagImprimir=1; 
09D40:  BSF    x2F.4
....................          } 
....................       }else if(AlarmaTiempoProlongado){ // Alarma de Error de Tiempo: Error por exceso de tiempo de calentamiento. 
09D42:  BRA    9E9C
09D44:  MOVLB  0
09D46:  BTFSS  x9F.0
09D48:  BRA    9DB6
....................          printf("Funcionamiento.t4f.txt=\" Tiempo Prolongado\""); 
09D4A:  MOVLW  52
09D4C:  MOVWF  FF6
09D4E:  MOVLW  11
09D50:  MOVWF  FF7
09D52:  MOVLW  00
09D54:  MOVWF  FF8
09D56:  CALL   3488
....................          SendDataDisplay(); 
09D5A:  CALL   34BA
....................          printf("Funcionamiento.t5f.txt=\" Cancelado\""); 
09D5E:  MOVLW  7E
09D60:  MOVWF  FF6
09D62:  MOVLW  11
09D64:  MOVWF  FF7
09D66:  MOVLW  00
09D68:  MOVWF  FF8
09D6A:  CALL   3488
....................          SendDataDisplay(); 
09D6E:  CALL   34BA
....................          Desfogue_on; 
09D72:  BSF    F8C.4
09D74:  BCF    F95.4
....................          SSR_off; 
09D76:  BSF    F8B.2
09D78:  BCF    F94.2
....................          Paso_off; 
09D7A:  BCF    F8C.6
09D7C:  BCF    F95.6
....................          Controlando=0; 
09D7E:  MOVLB  3
09D80:  CLRF   x32
....................          IniciaLlenado=OFF; 
09D82:  MOVLB  0
09D84:  BCF    x9F.7
....................          IniciaCiclo=OFF; 
09D86:  BCF    xA0.1
....................          Esterilizando=OFF; 
09D88:  BCF    xA0.2
....................          if(!flagImprimir && ActivaImpresion==1){ 
09D8A:  MOVLB  3
09D8C:  BTFSC  x2F.4
09D8E:  BRA    9DB2
09D90:  DECFSZ x33,W
09D92:  BRA    9DB2
....................             Imprime=24; 
09D94:  MOVLW  18
09D96:  MOVWF  x81
....................             Envio_Esclavos(); 
09D98:  MOVLB  0
09D9A:  CALL   3E00
....................             delay_ms(100); 
09D9E:  MOVLW  64
09DA0:  MOVLB  3
09DA2:  MOVWF  xE1
09DA4:  MOVLB  0
09DA6:  CALL   179C
....................             Imprime=10; 
09DAA:  MOVLW  0A
09DAC:  MOVLB  3
09DAE:  MOVWF  x81
....................             flagImprimir=1; 
09DB0:  BSF    x2F.4
....................          } 
....................       }else if(AlarmaPresion){ // Alarma de Error de SobrePresion: Error por exceso de Presion. 
09DB2:  BRA    9E9C
09DB4:  MOVLB  0
09DB6:  BTFSS  xA3.2
09DB8:  BRA    9E38
....................          printf("Funcionamiento.t4f.txt=\" SobrePresin\""); 
09DBA:  MOVLW  A2
09DBC:  MOVWF  FF6
09DBE:  MOVLW  11
09DC0:  MOVWF  FF7
09DC2:  MOVLW  00
09DC4:  MOVWF  FF8
09DC6:  CALL   3488
....................          SendDataDisplay(); 
09DCA:  CALL   34BA
....................          printf("Funcionamiento.t5f.txt=\" Cancelado\""); 
09DCE:  MOVLW  CA
09DD0:  MOVWF  FF6
09DD2:  MOVLW  11
09DD4:  MOVWF  FF7
09DD6:  MOVLW  00
09DD8:  MOVWF  FF8
09DDA:  CALL   3488
....................          SendDataDisplay(); 
09DDE:  CALL   34BA
....................          Desfogue_on; 
09DE2:  BSF    F8C.4
09DE4:  BCF    F95.4
....................          SSR_off; 
09DE6:  BSF    F8B.2
09DE8:  BCF    F94.2
....................          IniciaLlenado=OFF; 
09DEA:  BCF    x9F.7
....................          IniciaCiclo=OFF; 
09DEC:  BCF    xA0.1
....................          Esterilizando=OFF; 
09DEE:  BCF    xA0.2
....................          if(PresionPreCamara>20 && DOOR) 
09DF0:  MOVLB  3
09DF2:  MOVF   x56,F
09DF4:  BNZ   9DFC
09DF6:  MOVF   x55,W
09DF8:  SUBLW  14
09DFA:  BC    9E08
09DFC:  BSF    F93.6
09DFE:  BTFSC  F81.6
09E00:  BRA    9E08
....................             Paso_on; 
09E02:  BSF    F8C.6
09E04:  BCF    F95.6
....................          else 
09E06:  BRA    9E0C
....................             Paso_off; 
09E08:  BCF    F8C.6
09E0A:  BCF    F95.6
....................          Controlando=0; 
09E0C:  CLRF   x32
....................          if(!flagImprimir && ActivaImpresion==1){ 
09E0E:  BTFSC  x2F.4
09E10:  BRA    9E34
09E12:  DECFSZ x33,W
09E14:  BRA    9E34
....................             Imprime=25; 
09E16:  MOVLW  19
09E18:  MOVWF  x81
....................             Envio_Esclavos(); 
09E1A:  MOVLB  0
09E1C:  CALL   3E00
....................             delay_ms(100); 
09E20:  MOVLW  64
09E22:  MOVLB  3
09E24:  MOVWF  xE1
09E26:  MOVLB  0
09E28:  CALL   179C
....................             Imprime=10; 
09E2C:  MOVLW  0A
09E2E:  MOVLB  3
09E30:  MOVWF  x81
....................             flagImprimir=1; 
09E32:  BSF    x2F.4
....................          } 
....................       }else if(AlarmaCiclo){ // Alarma de Error de SobrePresion: Error por exceso de Presion. 
09E34:  BRA    9E9C
09E36:  MOVLB  0
09E38:  BTFSS  x9F.6
09E3A:  BRA    9E9E
....................          printf("Funcionamiento.t4f.txt=\" Error Ciclo\""); 
09E3C:  MOVLW  EE
09E3E:  MOVWF  FF6
09E40:  MOVLW  11
09E42:  MOVWF  FF7
09E44:  MOVLW  00
09E46:  MOVWF  FF8
09E48:  CALL   3488
....................          SendDataDisplay(); 
09E4C:  CALL   34BA
....................          printf("Funcionamiento.t5f.txt=\" Cancelado\""); 
09E50:  MOVLW  14
09E52:  MOVWF  FF6
09E54:  MOVLW  12
09E56:  MOVWF  FF7
09E58:  MOVLW  00
09E5A:  MOVWF  FF8
09E5C:  CALL   3488
....................          SendDataDisplay(); 
09E60:  CALL   34BA
....................          Desfogue_on; 
09E64:  BSF    F8C.4
09E66:  BCF    F95.4
....................          SSR_off; 
09E68:  BSF    F8B.2
09E6A:  BCF    F94.2
....................          IniciaLlenado=OFF; 
09E6C:  BCF    x9F.7
....................          IniciaCiclo=OFF; 
09E6E:  BCF    xA0.1
....................          Esterilizando=OFF; 
09E70:  BCF    xA0.2
....................          Controlando=0; 
09E72:  MOVLB  3
09E74:  CLRF   x32
....................          if(!flagImprimir && ActivaImpresion==1){ 
09E76:  BTFSC  x2F.4
09E78:  BRA    9E9C
09E7A:  DECFSZ x33,W
09E7C:  BRA    9E9C
....................             Imprime=26; 
09E7E:  MOVLW  1A
09E80:  MOVWF  x81
....................             Envio_Esclavos(); 
09E82:  MOVLB  0
09E84:  CALL   3E00
....................             delay_ms(100); 
09E88:  MOVLW  64
09E8A:  MOVLB  3
09E8C:  MOVWF  xE1
09E8E:  MOVLB  0
09E90:  CALL   179C
....................             Imprime=10; 
09E94:  MOVLW  0A
09E96:  MOVLB  3
09E98:  MOVWF  x81
....................             flagImprimir=1; 
09E9A:  BSF    x2F.4
09E9C:  MOVLB  0
....................          } 
....................       } 
....................    } 
....................    else{   
09E9E:  BRA    A44E
....................       Buzzer_off; 
09EA0:  BCF    F8C.0
09EA2:  BCF    F95.0
....................       IniciaCiclo=ON; 
09EA4:  BSF    xA0.1
....................       if(flagImprime && ActivaImpresion==1){ 
09EA6:  MOVLB  3
09EA8:  BTFSS  x2F.3
09EAA:  BRA    9ECE
09EAC:  DECFSZ x33,W
09EAE:  BRA    9ECE
....................          Imprime=5; 
09EB0:  MOVLW  05
09EB2:  MOVWF  x81
....................          Envio_Esclavos(); 
09EB4:  MOVLB  0
09EB6:  CALL   3E00
....................          delay_ms(100); 
09EBA:  MOVLW  64
09EBC:  MOVLB  3
09EBE:  MOVWF  xE1
09EC0:  MOVLB  0
09EC2:  CALL   179C
....................          Imprime=10; 
09EC6:  MOVLW  0A
09EC8:  MOVLB  3
09ECA:  MOVWF  x81
....................          flagImprime=0; 
09ECC:  BCF    x2F.3
....................       } 
....................          if(!CalderinLleno){ 
09ECE:  MOVLB  0
09ED0:  BTFSC  xA0.0
09ED2:  BRA    9F32
....................             printf("Funcionamiento.t4f.txt=\" Ninguna\""); 
09ED4:  MOVLW  38
09ED6:  MOVWF  FF6
09ED8:  MOVLW  12
09EDA:  MOVWF  FF7
09EDC:  MOVLW  00
09EDE:  MOVWF  FF8
09EE0:  CALL   3488
....................             SendDataDisplay(); 
09EE4:  CALL   34BA
....................             printf("Funcionamiento.t5f.txt=\" Nivel Bajo\""); 
09EE8:  MOVLW  5A
09EEA:  MOVWF  FF6
09EEC:  MOVLW  12
09EEE:  MOVWF  FF7
09EF0:  MOVLW  00
09EF2:  MOVWF  FF8
09EF4:  CALL   3488
....................             SendDataDisplay(); 
09EF8:  CALL   34BA
....................             Control=0; 
09EFC:  MOVLB  3
09EFE:  CLRF   x30
....................             IniciaLlenado=ON; 
09F00:  MOVLB  0
09F02:  BSF    x9F.7
....................             Controlando=0; 
09F04:  MOVLB  3
09F06:  CLRF   x32
....................             Desfogue_on; 
09F08:  BSF    F8C.4
09F0A:  BCF    F95.4
....................             //AguaIn_on; 
....................             Paso_off; 
09F0C:  BCF    F8C.6
09F0E:  BCF    F95.6
....................             if(tright>800){ 
09F10:  MOVLB  0
09F12:  MOVF   xB3,W
09F14:  SUBLW  02
09F16:  BC    9F30
09F18:  XORLW  FF
09F1A:  BNZ   9F22
09F1C:  MOVF   xB2,W
09F1E:  SUBLW  20
09F20:  BC    9F30
....................                CalderinLleno=ON; 
09F22:  BSF    xA0.0
....................                tiempoAgua=700; 
09F24:  MOVLW  02
09F26:  MOVLB  3
09F28:  MOVWF  x71
09F2A:  MOVLW  BC
09F2C:  MOVWF  x70
09F2E:  MOVLB  0
....................             } 
....................          } 
....................          else{ 
09F30:  BRA    A44E
....................             //AguaIn_off; 
....................             if(Temperatura>=((float)Setpoint-0.3)){ 
09F32:  MOVLB  3
09F34:  CLRF   xE2
09F36:  MOVFF  341,3E1
09F3A:  MOVLB  0
09F3C:  CALL   17C4
09F40:  MOVFF  00,3CC
09F44:  MOVFF  01,3CD
09F48:  MOVFF  02,3CE
09F4C:  MOVFF  03,3CF
09F50:  BSF    FD8.1
09F52:  MOVFF  03,3E4
09F56:  MOVFF  02,3E3
09F5A:  MOVFF  01,3E2
09F5E:  MOVFF  00,3E1
09F62:  MOVLW  9A
09F64:  MOVLB  3
09F66:  MOVWF  xE8
09F68:  MOVLW  99
09F6A:  MOVWF  xE7
09F6C:  MOVLW  19
09F6E:  MOVWF  xE6
09F70:  MOVLW  7D
09F72:  MOVWF  xE5
09F74:  MOVLB  0
09F76:  CALL   1958
09F7A:  MOVFF  03,3D3
09F7E:  MOVFF  02,3D2
09F82:  MOVFF  01,3D1
09F86:  MOVFF  00,3D0
09F8A:  MOVFF  31B,3D7
09F8E:  MOVFF  31A,3D6
09F92:  MOVFF  319,3D5
09F96:  MOVFF  318,3D4
09F9A:  CALL   29A2
09F9E:  BC    9FA2
09FA0:  BNZ   9FA4
....................                Esterilizando=ON; 
09FA2:  BSF    xA0.2
....................             } 
....................              
....................             if(Temperatura<((float)Setpoint-0.9) && !Desfogando){ 
09FA4:  MOVLB  3
09FA6:  CLRF   xE2
09FA8:  MOVFF  341,3E1
09FAC:  MOVLB  0
09FAE:  CALL   17C4
09FB2:  MOVFF  00,3CC
09FB6:  MOVFF  01,3CD
09FBA:  MOVFF  02,3CE
09FBE:  MOVFF  03,3CF
09FC2:  BSF    FD8.1
09FC4:  MOVFF  03,3E4
09FC8:  MOVFF  02,3E3
09FCC:  MOVFF  01,3E2
09FD0:  MOVFF  00,3E1
09FD4:  MOVLW  66
09FD6:  MOVLB  3
09FD8:  MOVWF  xE8
09FDA:  MOVWF  xE7
09FDC:  MOVWF  xE6
09FDE:  MOVLW  7E
09FE0:  MOVWF  xE5
09FE2:  MOVLB  0
09FE4:  CALL   1958
09FE8:  MOVFF  31B,3D3
09FEC:  MOVFF  31A,3D2
09FF0:  MOVFF  319,3D1
09FF4:  MOVFF  318,3D0
09FF8:  MOVFF  03,3D7
09FFC:  MOVFF  02,3D6
0A000:  MOVFF  01,3D5
0A004:  MOVFF  00,3D4
0A008:  CALL   29A2
0A00C:  BNC   A014
0A00E:  BTFSC  xA0.5
0A010:  BRA    A014
....................                Esterilizando=OFF; 
0A012:  BCF    xA0.2
....................             } 
....................              
....................             if(!Esterilizando){ 
0A014:  BTFSC  xA0.2
0A016:  BRA    A092
....................                printf("Funcionamiento.t4f.txt=\" Ninguna\""); 
0A018:  MOVLW  80
0A01A:  MOVWF  FF6
0A01C:  MOVLW  12
0A01E:  MOVWF  FF7
0A020:  MOVLW  00
0A022:  MOVWF  FF8
0A024:  CALL   3488
....................                SendDataDisplay(); 
0A028:  CALL   34BA
....................                printf("Funcionamiento.t5f.txt=\" Calentando\""); 
0A02C:  MOVLW  A2
0A02E:  MOVWF  FF6
0A030:  MOVLW  12
0A032:  MOVWF  FF7
0A034:  MOVLW  00
0A036:  MOVWF  FF8
0A038:  CALL   3488
....................                SendDataDisplay(); 
0A03C:  CALL   34BA
....................                Control=1; 
0A040:  MOVLW  01
0A042:  MOVLB  3
0A044:  MOVWF  x30
....................                Controla(); 
0A046:  MOVLB  0
0A048:  CALL   4A86
....................                Paso_on; 
0A04C:  BSF    F8C.6
0A04E:  BCF    F95.6
....................                if(Temperatura<=TTrampa){ 
0A050:  MOVLB  3
0A052:  CLRF   xE2
0A054:  MOVFF  2D3,3E1
0A058:  MOVLB  0
0A05A:  CALL   17C4
0A05E:  MOVFF  31B,3D3
0A062:  MOVFF  31A,3D2
0A066:  MOVFF  319,3D1
0A06A:  MOVFF  318,3D0
0A06E:  MOVFF  03,3D7
0A072:  MOVFF  02,3D6
0A076:  MOVFF  01,3D5
0A07A:  MOVFF  00,3D4
0A07E:  CALL   29A2
0A082:  BC    A086
0A084:  BNZ   A08C
....................                   Desfogue_on; 
0A086:  BSF    F8C.4
0A088:  BCF    F95.4
....................                }else{ 
0A08A:  BRA    A090
....................                   Desfogue_off; 
0A08C:  BCF    F8C.4
0A08E:  BCF    F95.4
....................                } 
....................             }else{ 
0A090:  BRA    A44E
....................                TiempoCiclo=0; 
0A092:  CLRF   xA5
0A094:  CLRF   xA4
....................                if((Testerilizacion[0]==0)&&(Testerilizacion[1]==0)&& 
....................                (Testerilizacion[2]==0)&&(Testerilizacion[3]==0)){  
0A096:  MOVF   xB4,F
0A098:  BTFSS  FD8.2
0A09A:  BRA    A416
0A09C:  MOVF   xB5,F
0A09E:  BTFSS  FD8.2
0A0A0:  BRA    A416
0A0A2:  MOVF   xB6,F
0A0A4:  BTFSS  FD8.2
0A0A6:  BRA    A416
0A0A8:  MOVF   xB7,F
0A0AA:  BTFSS  FD8.2
0A0AC:  BRA    A416
....................                   if(desfoguelento){ 
0A0AE:  BTFSS  xA3.6
0A0B0:  BRA    A23E
....................                      Controlando=0; 
0A0B2:  MOVLB  3
0A0B4:  CLRF   x32
....................                      if(PresionCamara<=25){ 
0A0B6:  MOVF   x54,F
0A0B8:  BTFSS  FD8.2
0A0BA:  BRA    A200
0A0BC:  MOVF   x53,W
0A0BE:  SUBLW  19
0A0C0:  BTFSS  FD8.0
0A0C2:  BRA    A200
....................                         Secando=OFF; 
0A0C4:  MOVLB  0
0A0C6:  BCF    xA0.3
....................                         DesfogueSuave=OFF; 
0A0C8:  BCF    xA0.6
....................                         //Paso_off; 
....................                         if(!DOOR){ 
0A0CA:  BSF    F93.6
0A0CC:  BTFSS  F81.6
0A0CE:  BRA    A0DA
....................                            Desfogue_off;  
0A0D0:  BCF    F8C.4
0A0D2:  BCF    F95.4
....................                            Paso_off; 
0A0D4:  BCF    F8C.6
0A0D6:  BCF    F95.6
....................                         }else{ 
0A0D8:  BRA    A0E2
....................                            Desfogue_on; 
0A0DA:  BSF    F8C.4
0A0DC:  BCF    F95.4
....................                            Paso_off; 
0A0DE:  BCF    F8C.6
0A0E0:  BCF    F95.6
....................                         } 
....................                         if(PresionCamara<2){ 
0A0E2:  MOVLB  3
0A0E4:  MOVF   x54,F
0A0E6:  BTFSS  FD8.2
0A0E8:  BRA    A1FA
0A0EA:  MOVF   x53,W
0A0EC:  SUBLW  01
0A0EE:  BTFSS  FD8.0
0A0F0:  BRA    A1FA
....................                            if(Temperatura<=90){ 
0A0F2:  MOVFF  31B,3D3
0A0F6:  MOVFF  31A,3D2
0A0FA:  MOVFF  319,3D1
0A0FE:  MOVFF  318,3D0
0A102:  CLRF   xD7
0A104:  CLRF   xD6
0A106:  MOVLW  34
0A108:  MOVWF  xD5
0A10A:  MOVLW  85
0A10C:  MOVWF  xD4
0A10E:  MOVLB  0
0A110:  CALL   29A2
0A114:  BC    A118
0A116:  BNZ   A14E
....................                               ActivaAlarma(2); 
0A118:  MOVLW  02
0A11A:  MOVLB  3
0A11C:  MOVWF  xCC
0A11E:  MOVLB  0
0A120:  CALL   4262
....................                               printf("Funcionamiento.t4f.txt=\" Ninguna\""); 
0A124:  MOVLW  C8
0A126:  MOVWF  FF6
0A128:  MOVLW  12
0A12A:  MOVWF  FF7
0A12C:  MOVLW  00
0A12E:  MOVWF  FF8
0A130:  CALL   3488
....................                               SendDataDisplay(); 
0A134:  CALL   34BA
....................                               printf("Funcionamiento.t5f.txt=\" Finalizado\""); 
0A138:  MOVLW  EA
0A13A:  MOVWF  FF6
0A13C:  MOVLW  12
0A13E:  MOVWF  FF7
0A140:  MOVLW  00
0A142:  MOVWF  FF8
0A144:  CALL   3488
....................                               SendDataDisplay(); 
0A148:  CALL   34BA
....................                               Finalizo=ON; 
0A14C:  BSF    xA3.1
....................                            } 
....................                            if(!Ciclo){ 
0A14E:  BTFSC  xA1.3
0A150:  BRA    A1FC
....................                               Ciclo=ON; 
0A152:  BSF    xA1.3
....................                               Ciclos++; 
0A154:  MOVLB  3
0A156:  INCF   x57,F
0A158:  BTFSC  FD8.2
0A15A:  INCF   x58,F
....................                               CiclosL=make8(Ciclos,0); 
0A15C:  MOVFF  357,33E
....................                               CiclosH=make8(Ciclos,1); 
0A160:  MOVFF  358,33F
....................                               write_eeprom(37,CiclosL); 
0A164:  CLRF   FAA
0A166:  MOVLW  25
0A168:  MOVWF  FA9
0A16A:  MOVFF  33E,FA8
0A16E:  BCF    FA6.6
0A170:  BCF    FA6.7
0A172:  BSF    FA6.2
0A174:  MOVF   FF2,W
0A176:  MOVWF  00
0A178:  BCF    FF2.6
0A17A:  BCF    FF2.7
0A17C:  MOVLB  F
0A17E:  MOVLW  55
0A180:  MOVWF  FA7
0A182:  MOVLW  AA
0A184:  MOVWF  FA7
0A186:  BSF    FA6.1
0A188:  BTFSC  FA6.1
0A18A:  BRA    A188
0A18C:  BCF    FA6.2
0A18E:  MOVF   00,W
0A190:  IORWF  FF2,F
....................                               delay_ms(20); 
0A192:  MOVLW  14
0A194:  MOVLB  3
0A196:  MOVWF  xE1
0A198:  MOVLB  0
0A19A:  CALL   179C
....................                               write_eeprom(38,CiclosH); 
0A19E:  CLRF   FAA
0A1A0:  MOVLW  26
0A1A2:  MOVWF  FA9
0A1A4:  MOVFF  33F,FA8
0A1A8:  BCF    FA6.6
0A1AA:  BCF    FA6.7
0A1AC:  BSF    FA6.2
0A1AE:  MOVF   FF2,W
0A1B0:  MOVWF  00
0A1B2:  BCF    FF2.6
0A1B4:  BCF    FF2.7
0A1B6:  MOVLB  F
0A1B8:  MOVLW  55
0A1BA:  MOVWF  FA7
0A1BC:  MOVLW  AA
0A1BE:  MOVWF  FA7
0A1C0:  BSF    FA6.1
0A1C2:  BTFSC  FA6.1
0A1C4:  BRA    A1C2
0A1C6:  BCF    FA6.2
0A1C8:  MOVF   00,W
0A1CA:  IORWF  FF2,F
....................                               delay_ms(20); 
0A1CC:  MOVLW  14
0A1CE:  MOVLB  3
0A1D0:  MOVWF  xE1
0A1D2:  MOVLB  0
0A1D4:  CALL   179C
....................                               if(ActivaImpresion==1){ 
0A1D8:  MOVLB  3
0A1DA:  DECFSZ x33,W
0A1DC:  BRA    A1FA
....................                                  Imprime=28; 
0A1DE:  MOVLW  1C
0A1E0:  MOVWF  x81
....................                                  Envio_Esclavos(); 
0A1E2:  MOVLB  0
0A1E4:  CALL   3E00
....................                                  delay_ms(100); 
0A1E8:  MOVLW  64
0A1EA:  MOVLB  3
0A1EC:  MOVWF  xE1
0A1EE:  MOVLB  0
0A1F0:  CALL   179C
....................                                  Imprime=10; 
0A1F4:  MOVLW  0A
0A1F6:  MOVLB  3
0A1F8:  MOVWF  x81
0A1FA:  MOVLB  0
....................                               } 
....................                            } 
....................                         } 
....................                      }else{ 
0A1FC:  BRA    A23C
0A1FE:  MOVLB  3
....................                         Desfogando=ON; 
0A200:  MOVLB  0
0A202:  BSF    xA0.5
....................                         DesfogueSuave=ON; 
0A204:  BSF    xA0.6
....................                         printf("Funcionamiento.t4f.txt=\" Ninguna\""); 
0A206:  MOVLW  10
0A208:  MOVWF  FF6
0A20A:  MOVLW  13
0A20C:  MOVWF  FF7
0A20E:  MOVLW  00
0A210:  MOVWF  FF8
0A212:  CALL   3488
....................                         SendDataDisplay(); 
0A216:  CALL   34BA
....................                         printf("Funcionamiento.t5f.txt=\" Despresurizando\""); 
0A21A:  MOVLW  32
0A21C:  MOVWF  FF6
0A21E:  MOVLW  13
0A220:  MOVWF  FF7
0A222:  MOVLW  00
0A224:  MOVWF  FF8
0A226:  CALL   3488
....................                         SendDataDisplay(); 
0A22A:  CALL   34BA
....................                         Control=0; 
0A22E:  MOVLB  3
0A230:  CLRF   x30
....................                         SSR_off; 
0A232:  BSF    F8B.2
0A234:  BCF    F94.2
....................                         //Paso_off; 
....................                         Paso_on; 
0A236:  BSF    F8C.6
0A238:  BCF    F95.6
0A23A:  MOVLB  0
....................                      } 
....................                   }else{ 
0A23C:  BRA    A414
....................                      //SSR_off; 
....................                      Paso_off; 
0A23E:  BCF    F8C.6
0A240:  BCF    F95.6
....................                      Controlando=0; 
0A242:  MOVLB  3
0A244:  CLRF   x32
....................                      Control=0; 
0A246:  CLRF   x30
....................                      if(PresionCamara<2){ 
0A248:  MOVF   x54,F
0A24A:  BTFSS  FD8.2
0A24C:  BRA    A3D4
0A24E:  MOVF   x53,W
0A250:  SUBLW  01
0A252:  BTFSS  FD8.0
0A254:  BRA    A3D4
....................                         if((Tsecado[0]==0)&&(Tsecado[1]==0)&&(Tsecado[2]==0)&&(Tsecado[3]==0)){ 
0A256:  MOVLB  0
0A258:  MOVF   xBE,F
0A25A:  BTFSS  FD8.2
0A25C:  BRA    A39E
0A25E:  MOVF   xBF,F
0A260:  BTFSS  FD8.2
0A262:  BRA    A39E
0A264:  MOVF   xC0,F
0A266:  BTFSS  FD8.2
0A268:  BRA    A39E
0A26A:  MOVF   xC1,F
0A26C:  BTFSS  FD8.2
0A26E:  BRA    A39E
....................                            if(!DOOR){ 
0A270:  BSF    F93.6
0A272:  BTFSS  F81.6
0A274:  BRA    A280
....................                               Desfogue_off; 
0A276:  BCF    F8C.4
0A278:  BCF    F95.4
....................                               Paso_off; 
0A27A:  BCF    F8C.6
0A27C:  BCF    F95.6
....................                            }else{ 
0A27E:  BRA    A288
....................                               Desfogue_on;  
0A280:  BSF    F8C.4
0A282:  BCF    F95.4
....................                               Paso_off; 
0A284:  BCF    F8C.6
0A286:  BCF    F95.6
....................                            } 
....................                            SSR_off; 
0A288:  BSF    F8B.2
0A28A:  BCF    F94.2
....................                            Secando=OFF; 
0A28C:  BCF    xA0.3
....................                            if(Temperatura<=90){ 
0A28E:  MOVFF  31B,3D3
0A292:  MOVFF  31A,3D2
0A296:  MOVFF  319,3D1
0A29A:  MOVFF  318,3D0
0A29E:  MOVLB  3
0A2A0:  CLRF   xD7
0A2A2:  CLRF   xD6
0A2A4:  MOVLW  34
0A2A6:  MOVWF  xD5
0A2A8:  MOVLW  85
0A2AA:  MOVWF  xD4
0A2AC:  MOVLB  0
0A2AE:  CALL   29A2
0A2B2:  BC    A2B6
0A2B4:  BNZ   A2EC
....................                               ActivaAlarma(2); 
0A2B6:  MOVLW  02
0A2B8:  MOVLB  3
0A2BA:  MOVWF  xCC
0A2BC:  MOVLB  0
0A2BE:  CALL   4262
....................                               printf("Funcionamiento.t4f.txt=\" Ninguna\""); 
0A2C2:  MOVLW  5C
0A2C4:  MOVWF  FF6
0A2C6:  MOVLW  13
0A2C8:  MOVWF  FF7
0A2CA:  MOVLW  00
0A2CC:  MOVWF  FF8
0A2CE:  CALL   3488
....................                               SendDataDisplay(); 
0A2D2:  CALL   34BA
....................                               printf("Funcionamiento.t5f.txt=\" Finalizado\""); 
0A2D6:  MOVLW  7E
0A2D8:  MOVWF  FF6
0A2DA:  MOVLW  13
0A2DC:  MOVWF  FF7
0A2DE:  MOVLW  00
0A2E0:  MOVWF  FF8
0A2E2:  CALL   3488
....................                               SendDataDisplay(); 
0A2E6:  CALL   34BA
....................                               Finalizo=ON; 
0A2EA:  BSF    xA3.1
....................                            } 
....................                            if(!Ciclo){ 
0A2EC:  BTFSC  xA1.3
0A2EE:  BRA    A39A
....................                               Ciclo=ON; 
0A2F0:  BSF    xA1.3
....................                               Ciclos++; 
0A2F2:  MOVLB  3
0A2F4:  INCF   x57,F
0A2F6:  BTFSC  FD8.2
0A2F8:  INCF   x58,F
....................                               CiclosL=make8(Ciclos,0); 
0A2FA:  MOVFF  357,33E
....................                               CiclosH=make8(Ciclos,1); 
0A2FE:  MOVFF  358,33F
....................                               write_eeprom(37,CiclosL); 
0A302:  CLRF   FAA
0A304:  MOVLW  25
0A306:  MOVWF  FA9
0A308:  MOVFF  33E,FA8
0A30C:  BCF    FA6.6
0A30E:  BCF    FA6.7
0A310:  BSF    FA6.2
0A312:  MOVF   FF2,W
0A314:  MOVWF  00
0A316:  BCF    FF2.6
0A318:  BCF    FF2.7
0A31A:  MOVLB  F
0A31C:  MOVLW  55
0A31E:  MOVWF  FA7
0A320:  MOVLW  AA
0A322:  MOVWF  FA7
0A324:  BSF    FA6.1
0A326:  BTFSC  FA6.1
0A328:  BRA    A326
0A32A:  BCF    FA6.2
0A32C:  MOVF   00,W
0A32E:  IORWF  FF2,F
....................                               delay_ms(20); 
0A330:  MOVLW  14
0A332:  MOVLB  3
0A334:  MOVWF  xE1
0A336:  MOVLB  0
0A338:  CALL   179C
....................                               write_eeprom(38,CiclosH); 
0A33C:  CLRF   FAA
0A33E:  MOVLW  26
0A340:  MOVWF  FA9
0A342:  MOVFF  33F,FA8
0A346:  BCF    FA6.6
0A348:  BCF    FA6.7
0A34A:  BSF    FA6.2
0A34C:  MOVF   FF2,W
0A34E:  MOVWF  00
0A350:  BCF    FF2.6
0A352:  BCF    FF2.7
0A354:  MOVLB  F
0A356:  MOVLW  55
0A358:  MOVWF  FA7
0A35A:  MOVLW  AA
0A35C:  MOVWF  FA7
0A35E:  BSF    FA6.1
0A360:  BTFSC  FA6.1
0A362:  BRA    A360
0A364:  BCF    FA6.2
0A366:  MOVF   00,W
0A368:  IORWF  FF2,F
....................                               delay_ms(20); 
0A36A:  MOVLW  14
0A36C:  MOVLB  3
0A36E:  MOVWF  xE1
0A370:  MOVLB  0
0A372:  CALL   179C
....................                               if(ActivaImpresion==1){ 
0A376:  MOVLB  3
0A378:  DECFSZ x33,W
0A37A:  BRA    A398
....................                                  Imprime=28; 
0A37C:  MOVLW  1C
0A37E:  MOVWF  x81
....................                                  Envio_Esclavos(); 
0A380:  MOVLB  0
0A382:  CALL   3E00
....................                                  delay_ms(100); 
0A386:  MOVLW  64
0A388:  MOVLB  3
0A38A:  MOVWF  xE1
0A38C:  MOVLB  0
0A38E:  CALL   179C
....................                                  Imprime=10; 
0A392:  MOVLW  0A
0A394:  MOVLB  3
0A396:  MOVWF  x81
0A398:  MOVLB  0
....................                               } 
....................                            } 
....................                            Secando=OFF; 
0A39A:  BCF    xA0.3
....................                         }else{ 
0A39C:  BRA    A3D0
....................                            Secando=ON; 
0A39E:  BSF    xA0.3
....................                            printf("Funcionamiento.t4f.txt=\" Ninguna\""); 
0A3A0:  MOVLW  A4
0A3A2:  MOVWF  FF6
0A3A4:  MOVLW  13
0A3A6:  MOVWF  FF7
0A3A8:  MOVLW  00
0A3AA:  MOVWF  FF8
0A3AC:  CALL   3488
....................                            SendDataDisplay(); 
0A3B0:  CALL   34BA
....................                            printf("Funcionamiento.t5f.txt=\" Secando\""); 
0A3B4:  MOVLW  C6
0A3B6:  MOVWF  FF6
0A3B8:  MOVLW  13
0A3BA:  MOVWF  FF7
0A3BC:  MOVLW  00
0A3BE:  MOVWF  FF8
0A3C0:  CALL   3488
....................                            SendDataDisplay(); 
0A3C4:  CALL   34BA
....................                            Paso_off; 
0A3C8:  BCF    F8C.6
0A3CA:  BCF    F95.6
....................                            SSR_off; 
0A3CC:  BSF    F8B.2
0A3CE:  BCF    F94.2
....................                            //CalientaChaqueta(); 
....................                         } 
....................                      }else{ 
0A3D0:  BRA    A414
0A3D2:  MOVLB  3
....................                         Desfogando=ON; 
0A3D4:  MOVLB  0
0A3D6:  BSF    xA0.5
....................                         printf("Funcionamiento.t4f.txt=\" Ninguna\""); 
0A3D8:  MOVLW  E8
0A3DA:  MOVWF  FF6
0A3DC:  MOVLW  13
0A3DE:  MOVWF  FF7
0A3E0:  MOVLW  00
0A3E2:  MOVWF  FF8
0A3E4:  CALL   3488
....................                         SendDataDisplay(); 
0A3E8:  CALL   34BA
....................                         printf("Funcionamiento.t5f.txt=\" Despresurizando\""); 
0A3EC:  MOVLW  0A
0A3EE:  MOVWF  FF6
0A3F0:  MOVLW  14
0A3F2:  MOVWF  FF7
0A3F4:  MOVLW  00
0A3F6:  MOVWF  FF8
0A3F8:  CALL   3488
....................                         SendDataDisplay(); 
0A3FC:  CALL   34BA
....................                         Control=0; 
0A400:  MOVLB  3
0A402:  CLRF   x30
....................                         SSR_off; 
0A404:  BSF    F8B.2
0A406:  BCF    F94.2
....................                         Controlando=0; 
0A408:  CLRF   x32
....................                         Paso_off; 
0A40A:  BCF    F8C.6
0A40C:  BCF    F95.6
....................                         Desfogue_on; 
0A40E:  BSF    F8C.4
0A410:  BCF    F95.4
0A412:  MOVLB  0
....................                      } 
....................                   } 
....................                    
....................                }else{ 
0A414:  BRA    A44E
....................                   printf("Funcionamiento.t4f.txt=\" Ninguna\""); 
0A416:  MOVLW  34
0A418:  MOVWF  FF6
0A41A:  MOVLW  14
0A41C:  MOVWF  FF7
0A41E:  MOVLW  00
0A420:  MOVWF  FF8
0A422:  CALL   3488
....................                   SendDataDisplay(); 
0A426:  CALL   34BA
....................                   printf("Funcionamiento.t5f.txt=\" Esterilizando\""); 
0A42A:  MOVLW  56
0A42C:  MOVWF  FF6
0A42E:  MOVLW  14
0A430:  MOVWF  FF7
0A432:  MOVLW  00
0A434:  MOVWF  FF8
0A436:  CALL   3488
....................                   SendDataDisplay(); 
0A43A:  CALL   34BA
....................                   Paso_on; 
0A43E:  BSF    F8C.6
0A440:  BCF    F95.6
....................                   Control=1; 
0A442:  MOVLW  01
0A444:  MOVLB  3
0A446:  MOVWF  x30
....................                   Controla(); 
0A448:  MOVLB  0
0A44A:  CALL   4A86
....................                } 
....................             } 
....................          } 
....................    } 
....................  
....................    if(Grafica==1){ 
0A44E:  MOVLB  3
0A450:  BTFSS  x2F.0
0A452:  BRA    A490
....................       printf("add 14,0,%1.0f",Temperatura); 
0A454:  MOVLW  7E
0A456:  MOVWF  FF6
0A458:  MOVLW  14
0A45A:  MOVWF  FF7
0A45C:  MOVLW  00
0A45E:  MOVWF  FF8
0A460:  MOVLW  09
0A462:  MOVWF  xD0
0A464:  MOVLB  0
0A466:  CALL   435E
0A46A:  MOVLW  00
0A46C:  MOVWF  FE9
0A46E:  MOVFF  31B,3D3
0A472:  MOVFF  31A,3D2
0A476:  MOVFF  319,3D1
0A47A:  MOVFF  318,3D0
0A47E:  MOVLB  3
0A480:  CLRF   xD4
0A482:  MOVLB  0
0A484:  CALL   44FE
....................       SendDataDisplay(); 
0A488:  CALL   34BA
....................       Grafica=0; 
0A48C:  MOVLB  3
0A48E:  BCF    x2F.0
....................    } 
....................    if(Lectura==1)// Utilizado para visualizar la lectura de la temperatura 
0A490:  MOVLB  0
0A492:  BTFSS  xA3.7
0A494:  BRA    A754
....................    {                             
....................       Lectura=0; 
0A496:  BCF    xA3.7
....................       printf("t6f.txt=\"%3.1fC\"",Temperatura); 
0A498:  MOVLW  8E
0A49A:  MOVWF  FF6
0A49C:  MOVLW  14
0A49E:  MOVWF  FF7
0A4A0:  MOVLW  00
0A4A2:  MOVWF  FF8
0A4A4:  MOVLW  09
0A4A6:  MOVLB  3
0A4A8:  MOVWF  xD0
0A4AA:  MOVLB  0
0A4AC:  CALL   435E
0A4B0:  MOVLW  02
0A4B2:  MOVWF  FE9
0A4B4:  MOVFF  31B,3D3
0A4B8:  MOVFF  31A,3D2
0A4BC:  MOVFF  319,3D1
0A4C0:  MOVFF  318,3D0
0A4C4:  MOVLW  01
0A4C6:  MOVLB  3
0A4C8:  MOVWF  xD4
0A4CA:  MOVLB  0
0A4CC:  CALL   44FE
0A4D0:  MOVLW  B0
0A4D2:  BTFSS  F9E.4
0A4D4:  BRA    A4D2
0A4D6:  MOVWF  FAD
0A4D8:  MOVLW  43
0A4DA:  BTFSS  F9E.4
0A4DC:  BRA    A4DA
0A4DE:  MOVWF  FAD
0A4E0:  MOVLW  22
0A4E2:  BTFSS  F9E.4
0A4E4:  BRA    A4E2
0A4E6:  MOVWF  FAD
....................       SendDataDisplay(); 
0A4E8:  CALL   34BA
....................       printf("Funcionamiento.t7f.txt=\"%03LukPa\"",PresionCamara); 
0A4EC:  MOVLW  A0
0A4EE:  MOVWF  FF6
0A4F0:  MOVLW  14
0A4F2:  MOVWF  FF7
0A4F4:  MOVLW  00
0A4F6:  MOVWF  FF8
0A4F8:  MOVLW  18
0A4FA:  MOVLB  3
0A4FC:  MOVWF  xD0
0A4FE:  MOVLB  0
0A500:  CALL   435E
0A504:  MOVLW  0A
0A506:  MOVWF  FE9
0A508:  MOVFF  354,3D1
0A50C:  MOVFF  353,3D0
0A510:  CALL   4726
0A514:  MOVLW  BD
0A516:  MOVWF  FF6
0A518:  MOVLW  14
0A51A:  MOVWF  FF7
0A51C:  MOVLW  00
0A51E:  MOVWF  FF8
0A520:  MOVLW  04
0A522:  MOVLB  3
0A524:  MOVWF  xD0
0A526:  MOVLB  0
0A528:  CALL   435E
....................       SendDataDisplay(); 
0A52C:  CALL   34BA
....................       //printf("Funcionamiento.t12f.txt=\"%03LukPa\"",PresionPreCamara); 
....................       printf("Funcionamiento.t12f.txt=\"000kPa\""); 
0A530:  MOVLW  C2
0A532:  MOVWF  FF6
0A534:  MOVLW  14
0A536:  MOVWF  FF7
0A538:  MOVLW  00
0A53A:  MOVWF  FF8
0A53C:  CALL   3488
....................       SendDataDisplay(); 
0A540:  CALL   34BA
....................       printf("Funcionamiento.t9f.txt=\"%03u\"",Setpoint); 
0A544:  MOVLW  E4
0A546:  MOVWF  FF6
0A548:  MOVLW  14
0A54A:  MOVWF  FF7
0A54C:  MOVLW  00
0A54E:  MOVWF  FF8
0A550:  MOVLW  18
0A552:  MOVLB  3
0A554:  MOVWF  xD0
0A556:  MOVLB  0
0A558:  CALL   435E
0A55C:  MOVFF  341,3CE
0A560:  MOVLW  03
0A562:  MOVLB  3
0A564:  MOVWF  xCF
0A566:  MOVLB  0
0A568:  CALL   43BC
0A56C:  MOVLW  22
0A56E:  BTFSS  F9E.4
0A570:  BRA    A56E
0A572:  MOVWF  FAD
....................       SendDataDisplay();       
0A574:  CALL   34BA
....................       printf("Funcionamiento.t10f.txt=\"%02u\"",((Testerilizacion[3]*10)+Testerilizacion[2])); 
0A578:  MOVFF  B7,3CE
0A57C:  MOVLW  0A
0A57E:  MOVLB  3
0A580:  MOVWF  xCF
0A582:  MOVLB  0
0A584:  CALL   2A1C
0A588:  MOVF   xB6,W
0A58A:  ADDWF  01,W
0A58C:  MOVLB  3
0A58E:  MOVWF  xCC
0A590:  MOVLW  02
0A592:  MOVWF  FF6
0A594:  MOVLW  15
0A596:  MOVWF  FF7
0A598:  MOVLW  00
0A59A:  MOVWF  FF8
0A59C:  MOVLW  19
0A59E:  MOVWF  xD0
0A5A0:  MOVLB  0
0A5A2:  CALL   435E
0A5A6:  MOVFF  3CC,3CE
0A5AA:  MOVLW  01
0A5AC:  MOVLB  3
0A5AE:  MOVWF  xCF
0A5B0:  MOVLB  0
0A5B2:  CALL   43BC
0A5B6:  MOVLW  22
0A5B8:  BTFSS  F9E.4
0A5BA:  BRA    A5B8
0A5BC:  MOVWF  FAD
....................       SendDataDisplay();       
0A5BE:  CALL   34BA
....................       printf("Funcionamiento.t13f.txt=\"%02u\"",((Testerilizacion[1]*10)+Testerilizacion[0])); 
0A5C2:  MOVFF  B5,3CE
0A5C6:  MOVLW  0A
0A5C8:  MOVLB  3
0A5CA:  MOVWF  xCF
0A5CC:  MOVLB  0
0A5CE:  CALL   2A1C
0A5D2:  MOVF   xB4,W
0A5D4:  ADDWF  01,W
0A5D6:  MOVLB  3
0A5D8:  MOVWF  xCC
0A5DA:  MOVLW  22
0A5DC:  MOVWF  FF6
0A5DE:  MOVLW  15
0A5E0:  MOVWF  FF7
0A5E2:  MOVLW  00
0A5E4:  MOVWF  FF8
0A5E6:  MOVLW  19
0A5E8:  MOVWF  xD0
0A5EA:  MOVLB  0
0A5EC:  CALL   435E
0A5F0:  MOVFF  3CC,3CE
0A5F4:  MOVLW  01
0A5F6:  MOVLB  3
0A5F8:  MOVWF  xCF
0A5FA:  MOVLB  0
0A5FC:  CALL   43BC
0A600:  MOVLW  22
0A602:  BTFSS  F9E.4
0A604:  BRA    A602
0A606:  MOVWF  FAD
....................       SendDataDisplay();       
0A608:  CALL   34BA
....................       printf("Funcionamiento.t11f.txt=\"%02u\"",((Tsecado[3]*10)+Tsecado[2])); 
0A60C:  MOVFF  C1,3CE
0A610:  MOVLW  0A
0A612:  MOVLB  3
0A614:  MOVWF  xCF
0A616:  MOVLB  0
0A618:  CALL   2A1C
0A61C:  MOVF   xC0,W
0A61E:  ADDWF  01,W
0A620:  MOVLB  3
0A622:  MOVWF  xCC
0A624:  MOVLW  42
0A626:  MOVWF  FF6
0A628:  MOVLW  15
0A62A:  MOVWF  FF7
0A62C:  MOVLW  00
0A62E:  MOVWF  FF8
0A630:  MOVLW  19
0A632:  MOVWF  xD0
0A634:  MOVLB  0
0A636:  CALL   435E
0A63A:  MOVFF  3CC,3CE
0A63E:  MOVLW  01
0A640:  MOVLB  3
0A642:  MOVWF  xCF
0A644:  MOVLB  0
0A646:  CALL   43BC
0A64A:  MOVLW  22
0A64C:  BTFSS  F9E.4
0A64E:  BRA    A64C
0A650:  MOVWF  FAD
....................       SendDataDisplay();       
0A652:  CALL   34BA
....................       printf("Funcionamiento.t16f.txt=\"%02u\"",((Tsecado[1]*10)+Tsecado[0])); 
0A656:  MOVFF  BF,3CE
0A65A:  MOVLW  0A
0A65C:  MOVLB  3
0A65E:  MOVWF  xCF
0A660:  MOVLB  0
0A662:  CALL   2A1C
0A666:  MOVF   xBE,W
0A668:  ADDWF  01,W
0A66A:  MOVLB  3
0A66C:  MOVWF  xCC
0A66E:  MOVLW  62
0A670:  MOVWF  FF6
0A672:  MOVLW  15
0A674:  MOVWF  FF7
0A676:  MOVLW  00
0A678:  MOVWF  FF8
0A67A:  MOVLW  19
0A67C:  MOVWF  xD0
0A67E:  MOVLB  0
0A680:  CALL   435E
0A684:  MOVFF  3CC,3CE
0A688:  MOVLW  01
0A68A:  MOVLB  3
0A68C:  MOVWF  xCF
0A68E:  MOVLB  0
0A690:  CALL   43BC
0A694:  MOVLW  22
0A696:  BTFSS  F9E.4
0A698:  BRA    A696
0A69A:  MOVWF  FAD
....................       SendDataDisplay();       
0A69C:  CALL   34BA
....................        
....................       printf("fecha.txt=\"Fecha:%02u/%02u/20%02u    Hora: %02u:%02u\"",Dia,Mes,Year,Hora,Minuto); 
0A6A0:  MOVLW  82
0A6A2:  MOVWF  FF6
0A6A4:  MOVLW  15
0A6A6:  MOVWF  FF7
0A6A8:  MOVLW  00
0A6AA:  MOVWF  FF8
0A6AC:  MOVLW  11
0A6AE:  MOVLB  3
0A6B0:  MOVWF  xD0
0A6B2:  MOVLB  0
0A6B4:  CALL   435E
0A6B8:  MOVFF  374,3CE
0A6BC:  MOVLW  01
0A6BE:  MOVLB  3
0A6C0:  MOVWF  xCF
0A6C2:  MOVLB  0
0A6C4:  CALL   43BC
0A6C8:  MOVLW  2F
0A6CA:  BTFSS  F9E.4
0A6CC:  BRA    A6CA
0A6CE:  MOVWF  FAD
0A6D0:  MOVFF  373,3CE
0A6D4:  MOVLW  01
0A6D6:  MOVLB  3
0A6D8:  MOVWF  xCF
0A6DA:  MOVLB  0
0A6DC:  CALL   43BC
0A6E0:  MOVLW  2F
0A6E2:  BTFSS  F9E.4
0A6E4:  BRA    A6E2
0A6E6:  MOVWF  FAD
0A6E8:  MOVLW  32
0A6EA:  BTFSS  F9E.4
0A6EC:  BRA    A6EA
0A6EE:  MOVWF  FAD
0A6F0:  MOVLW  30
0A6F2:  BTFSS  F9E.4
0A6F4:  BRA    A6F2
0A6F6:  MOVWF  FAD
0A6F8:  MOVFF  372,3CE
0A6FC:  MOVLW  01
0A6FE:  MOVLB  3
0A700:  MOVWF  xCF
0A702:  MOVLB  0
0A704:  CALL   43BC
0A708:  MOVLW  A3
0A70A:  MOVWF  FF6
0A70C:  MOVLW  15
0A70E:  MOVWF  FF7
0A710:  MOVLW  00
0A712:  MOVWF  FF8
0A714:  MOVLW  0A
0A716:  MOVLB  3
0A718:  MOVWF  xD0
0A71A:  MOVLB  0
0A71C:  CALL   435E
0A720:  MOVFF  375,3CE
0A724:  MOVLW  01
0A726:  MOVLB  3
0A728:  MOVWF  xCF
0A72A:  MOVLB  0
0A72C:  CALL   43BC
0A730:  MOVLW  3A
0A732:  BTFSS  F9E.4
0A734:  BRA    A732
0A736:  MOVWF  FAD
0A738:  MOVFF  376,3CE
0A73C:  MOVLW  01
0A73E:  MOVLB  3
0A740:  MOVWF  xCF
0A742:  MOVLB  0
0A744:  CALL   43BC
0A748:  MOVLW  22
0A74A:  BTFSS  F9E.4
0A74C:  BRA    A74A
0A74E:  MOVWF  FAD
....................       SendDataDisplay(); 
0A750:  CALL   34BA
0A754:  MOVLB  3
....................    } 
....................  
....................  
.................... } 
.................... //_-------------------------------------------------------------------------------------------------------------------------------------------------------- 
....................  
.................... //_-------------------------------------------------------------------------------------------------------------------------------------------------------- 
....................       if(Menu==100){ //Menu de Configuracin de Parametros de Control 
0A756:  MOVF   x3A,W
0A758:  SUBLW  64
0A75A:  BTFSS  FD8.2
0A75C:  GOTO   B534
....................       
....................       if(Opcion2>10) 
0A760:  MOVF   x43,W
0A762:  SUBLW  0A
0A764:  BC    A76A
....................          Opcion2=1; 
0A766:  MOVLW  01
0A768:  MOVWF  x43
....................       if(Opcion2<1) 
0A76A:  MOVF   x43,F
0A76C:  BNZ   A772
....................          Opcion2=10; 
0A76E:  MOVLW  0A
0A770:  MOVWF  x43
....................        
....................       if(Opcion2==1){ 
0A772:  DECFSZ x43,W
0A774:  BRA    A8F2
....................          printf("Config.t2c.txt=\"Proporcional\""); 
0A776:  MOVLW  B8
0A778:  MOVWF  FF6
0A77A:  MOVLW  15
0A77C:  MOVWF  FF7
0A77E:  MOVLW  00
0A780:  MOVWF  FF8
0A782:  MOVLB  0
0A784:  CALL   3488
....................          SendDataDisplay();       
0A788:  CALL   34BA
....................          printf("t3c.txt=\"%2.0f\"",Ganancia); 
0A78C:  MOVLW  D6
0A78E:  MOVWF  FF6
0A790:  MOVLW  15
0A792:  MOVWF  FF7
0A794:  MOVLW  00
0A796:  MOVWF  FF8
0A798:  MOVLW  09
0A79A:  MOVLB  3
0A79C:  MOVWF  xD0
0A79E:  MOVLB  0
0A7A0:  CALL   435E
0A7A4:  MOVLW  01
0A7A6:  MOVWF  FE9
0A7A8:  MOVFF  2FB,3D3
0A7AC:  MOVFF  2FA,3D2
0A7B0:  MOVFF  2F9,3D1
0A7B4:  MOVFF  2F8,3D0
0A7B8:  MOVLB  3
0A7BA:  CLRF   xD4
0A7BC:  MOVLB  0
0A7BE:  CALL   44FE
0A7C2:  MOVLW  22
0A7C4:  BTFSS  F9E.4
0A7C6:  BRA    A7C4
0A7C8:  MOVWF  FAD
....................          SendDataDisplay(); 
0A7CA:  CALL   34BA
....................          if(RX_Buffer[4]==0x0a || UP){//Tecla Arriba Oprimida 
0A7CE:  MOVF   34,W
0A7D0:  SUBLW  0A
0A7D2:  BZ    A7DA
0A7D4:  BSF    F93.0
0A7D6:  BTFSC  F81.0
0A7D8:  BRA    A82A
....................             delay_ms(20); 
0A7DA:  MOVLW  14
0A7DC:  MOVLB  3
0A7DE:  MOVWF  xE1
0A7E0:  MOVLB  0
0A7E2:  CALL   179C
....................             if(RX_Buffer[4]==0x0a || UP){ 
0A7E6:  MOVF   34,W
0A7E8:  SUBLW  0A
0A7EA:  BZ    A7F2
0A7EC:  BSF    F93.0
0A7EE:  BTFSC  F81.0
0A7F0:  BRA    A82A
....................                Ganancia+=1.0; 
0A7F2:  BCF    FD8.1
0A7F4:  MOVFF  2FB,3E4
0A7F8:  MOVFF  2FA,3E3
0A7FC:  MOVFF  2F9,3E2
0A800:  MOVFF  2F8,3E1
0A804:  MOVLB  3
0A806:  CLRF   xE8
0A808:  CLRF   xE7
0A80A:  CLRF   xE6
0A80C:  MOVLW  7F
0A80E:  MOVWF  xE5
0A810:  MOVLB  0
0A812:  CALL   1958
0A816:  MOVFF  03,2FB
0A81A:  MOVFF  02,2FA
0A81E:  MOVFF  01,2F9
0A822:  MOVFF  00,2F8
....................                RX_Buffer[4]=0x00;   
0A826:  CLRF   34
....................                RX_Buffer2[4]=0x00;             
0A828:  CLRF   3F
....................                //BorraBuffer(); 
....................             } 
....................          } 
....................              
....................          if(RX_Buffer[4]==0x0b || DOWN){//Tecla Abajo Oprimida 
0A82A:  MOVF   34,W
0A82C:  SUBLW  0B
0A82E:  BZ    A836
0A830:  BSF    F93.1
0A832:  BTFSC  F81.1
0A834:  BRA    A886
....................             delay_ms(20); 
0A836:  MOVLW  14
0A838:  MOVLB  3
0A83A:  MOVWF  xE1
0A83C:  MOVLB  0
0A83E:  CALL   179C
....................             if(RX_Buffer[4]==0x0b || DOWN){ 
0A842:  MOVF   34,W
0A844:  SUBLW  0B
0A846:  BZ    A84E
0A848:  BSF    F93.1
0A84A:  BTFSC  F81.1
0A84C:  BRA    A886
....................                Ganancia-=1.0; 
0A84E:  BSF    FD8.1
0A850:  MOVFF  2FB,3E4
0A854:  MOVFF  2FA,3E3
0A858:  MOVFF  2F9,3E2
0A85C:  MOVFF  2F8,3E1
0A860:  MOVLB  3
0A862:  CLRF   xE8
0A864:  CLRF   xE7
0A866:  CLRF   xE6
0A868:  MOVLW  7F
0A86A:  MOVWF  xE5
0A86C:  MOVLB  0
0A86E:  CALL   1958
0A872:  MOVFF  03,2FB
0A876:  MOVFF  02,2FA
0A87A:  MOVFF  01,2F9
0A87E:  MOVFF  00,2F8
....................                RX_Buffer[4]=0x00; 
0A882:  CLRF   34
....................                RX_Buffer2[4]=0x00;             
0A884:  CLRF   3F
....................                //BorraBuffer(); 
....................             } 
....................          } 
....................           
....................          if(Ganancia>40) 
0A886:  MOVLB  3
0A888:  CLRF   xD3
0A88A:  CLRF   xD2
0A88C:  MOVLW  20
0A88E:  MOVWF  xD1
0A890:  MOVLW  84
0A892:  MOVWF  xD0
0A894:  MOVFF  2FB,3D7
0A898:  MOVFF  2FA,3D6
0A89C:  MOVFF  2F9,3D5
0A8A0:  MOVFF  2F8,3D4
0A8A4:  MOVLB  0
0A8A6:  CALL   29A2
0A8AA:  BNC   A8B8
....................             Ganancia=1; 
0A8AC:  MOVLB  2
0A8AE:  CLRF   xFB
0A8B0:  CLRF   xFA
0A8B2:  CLRF   xF9
0A8B4:  MOVLW  7F
0A8B6:  MOVWF  xF8
....................          if(Ganancia<1) 
0A8B8:  MOVFF  2FB,3D3
0A8BC:  MOVFF  2FA,3D2
0A8C0:  MOVFF  2F9,3D1
0A8C4:  MOVFF  2F8,3D0
0A8C8:  MOVLB  3
0A8CA:  CLRF   xD7
0A8CC:  CLRF   xD6
0A8CE:  CLRF   xD5
0A8D0:  MOVLW  7F
0A8D2:  MOVWF  xD4
0A8D4:  MOVLB  0
0A8D6:  CALL   29A2
0A8DA:  BNC   A8EC
....................             Ganancia=40; 
0A8DC:  MOVLB  2
0A8DE:  CLRF   xFB
0A8E0:  CLRF   xFA
0A8E2:  MOVLW  20
0A8E4:  MOVWF  xF9
0A8E6:  MOVLW  84
0A8E8:  MOVWF  xF8
0A8EA:  MOVLB  0
....................       }else if(Opcion2==2){ 
0A8EC:  GOTO   B0A8
0A8F0:  MOVLB  3
0A8F2:  MOVF   x43,W
0A8F4:  SUBLW  02
0A8F6:  BNZ   A9B6
....................          printf("Config.t2c.txt=\"Derivativo\""); 
0A8F8:  MOVLW  E6
0A8FA:  MOVWF  FF6
0A8FC:  MOVLW  15
0A8FE:  MOVWF  FF7
0A900:  MOVLW  00
0A902:  MOVWF  FF8
0A904:  MOVLB  0
0A906:  CALL   3488
....................          SendDataDisplay();       
0A90A:  CALL   34BA
....................          printf("t3c.txt=\"%u\"",Derivativo); 
0A90E:  MOVLW  02
0A910:  MOVWF  FF6
0A912:  MOVLW  16
0A914:  MOVWF  FF7
0A916:  MOVLW  00
0A918:  MOVWF  FF8
0A91A:  MOVLW  09
0A91C:  MOVLB  3
0A91E:  MOVWF  xD0
0A920:  MOVLB  0
0A922:  CALL   435E
0A926:  MOVFF  32D,3CE
0A92A:  MOVLW  1B
0A92C:  MOVLB  3
0A92E:  MOVWF  xCF
0A930:  MOVLB  0
0A932:  CALL   43BC
0A936:  MOVLW  22
0A938:  BTFSS  F9E.4
0A93A:  BRA    A938
0A93C:  MOVWF  FAD
....................          SendDataDisplay(); 
0A93E:  CALL   34BA
....................          if(RX_Buffer[4]==0x0a || UP){//Tecla Arriba Oprimida 
0A942:  MOVF   34,W
0A944:  SUBLW  0A
0A946:  BZ    A94E
0A948:  BSF    F93.0
0A94A:  BTFSC  F81.0
0A94C:  BRA    A970
....................             delay_ms(20); 
0A94E:  MOVLW  14
0A950:  MOVLB  3
0A952:  MOVWF  xE1
0A954:  MOVLB  0
0A956:  CALL   179C
....................             if(RX_Buffer[4]==0x0a || UP){ 
0A95A:  MOVF   34,W
0A95C:  SUBLW  0A
0A95E:  BZ    A966
0A960:  BSF    F93.0
0A962:  BTFSC  F81.0
0A964:  BRA    A970
....................                Derivativo++; 
0A966:  MOVLB  3
0A968:  INCF   x2D,F
....................                RX_Buffer[4]=0x00;   
0A96A:  CLRF   34
....................                RX_Buffer2[4]=0x00;             
0A96C:  CLRF   3F
0A96E:  MOVLB  0
....................                //BorraBuffer(); 
....................             } 
....................          } 
....................              
....................          if(RX_Buffer[4]==0x0b || DOWN){//Tecla Abajo Oprimida 
0A970:  MOVF   34,W
0A972:  SUBLW  0B
0A974:  BZ    A97C
0A976:  BSF    F93.1
0A978:  BTFSC  F81.1
0A97A:  BRA    A99E
....................             delay_ms(20); 
0A97C:  MOVLW  14
0A97E:  MOVLB  3
0A980:  MOVWF  xE1
0A982:  MOVLB  0
0A984:  CALL   179C
....................             if(RX_Buffer[4]==0x0b || DOWN){ 
0A988:  MOVF   34,W
0A98A:  SUBLW  0B
0A98C:  BZ    A994
0A98E:  BSF    F93.1
0A990:  BTFSC  F81.1
0A992:  BRA    A99E
....................                Derivativo--; 
0A994:  MOVLB  3
0A996:  DECF   x2D,F
....................                RX_Buffer[4]=0x00; 
0A998:  CLRF   34
....................                RX_Buffer2[4]=0x00;             
0A99A:  CLRF   3F
0A99C:  MOVLB  0
....................                //BorraBuffer(); 
....................             } 
....................          } 
....................           
....................           
....................          if(Derivativo>40) 
0A99E:  MOVLB  3
0A9A0:  MOVF   x2D,W
0A9A2:  SUBLW  28
0A9A4:  BC    A9AA
....................             Derivativo=1; 
0A9A6:  MOVLW  01
0A9A8:  MOVWF  x2D
....................          if(Derivativo<1) 
0A9AA:  MOVF   x2D,F
0A9AC:  BNZ   A9B2
....................             Derivativo=40; 
0A9AE:  MOVLW  28
0A9B0:  MOVWF  x2D
....................       }else if(Opcion2==3){ 
0A9B2:  GOTO   B0AA
0A9B6:  MOVF   x43,W
0A9B8:  SUBLW  03
0A9BA:  BNZ   AA78
....................          printf("Config.t2c.txt=\"Integral\""); 
0A9BC:  MOVLW  10
0A9BE:  MOVWF  FF6
0A9C0:  MOVLW  16
0A9C2:  MOVWF  FF7
0A9C4:  MOVLW  00
0A9C6:  MOVWF  FF8
0A9C8:  MOVLB  0
0A9CA:  CALL   3488
....................          SendDataDisplay();       
0A9CE:  CALL   34BA
....................          printf("t3c.txt=\"%u\"",Integral); 
0A9D2:  MOVLW  2A
0A9D4:  MOVWF  FF6
0A9D6:  MOVLW  16
0A9D8:  MOVWF  FF7
0A9DA:  MOVLW  00
0A9DC:  MOVWF  FF8
0A9DE:  MOVLW  09
0A9E0:  MOVLB  3
0A9E2:  MOVWF  xD0
0A9E4:  MOVLB  0
0A9E6:  CALL   435E
0A9EA:  MOVFF  32C,3CE
0A9EE:  MOVLW  1B
0A9F0:  MOVLB  3
0A9F2:  MOVWF  xCF
0A9F4:  MOVLB  0
0A9F6:  CALL   43BC
0A9FA:  MOVLW  22
0A9FC:  BTFSS  F9E.4
0A9FE:  BRA    A9FC
0AA00:  MOVWF  FAD
....................          SendDataDisplay(); 
0AA02:  CALL   34BA
....................          if(RX_Buffer[4]==0x0a || UP){//Tecla Arriba Oprimida 
0AA06:  MOVF   34,W
0AA08:  SUBLW  0A
0AA0A:  BZ    AA12
0AA0C:  BSF    F93.0
0AA0E:  BTFSC  F81.0
0AA10:  BRA    AA34
....................             delay_ms(20); 
0AA12:  MOVLW  14
0AA14:  MOVLB  3
0AA16:  MOVWF  xE1
0AA18:  MOVLB  0
0AA1A:  CALL   179C
....................             if(RX_Buffer[4]==0x0a || UP){ 
0AA1E:  MOVF   34,W
0AA20:  SUBLW  0A
0AA22:  BZ    AA2A
0AA24:  BSF    F93.0
0AA26:  BTFSC  F81.0
0AA28:  BRA    AA34
....................                Integral++; 
0AA2A:  MOVLB  3
0AA2C:  INCF   x2C,F
....................                RX_Buffer[4]=0x00;   
0AA2E:  CLRF   34
....................                RX_Buffer2[4]=0x00;             
0AA30:  CLRF   3F
0AA32:  MOVLB  0
....................                //BorraBuffer(); 
....................             } 
....................          } 
....................              
....................          if(RX_Buffer[4]==0x0b || DOWN){//Tecla Abajo Oprimida 
0AA34:  MOVF   34,W
0AA36:  SUBLW  0B
0AA38:  BZ    AA40
0AA3A:  BSF    F93.1
0AA3C:  BTFSC  F81.1
0AA3E:  BRA    AA62
....................             delay_ms(20); 
0AA40:  MOVLW  14
0AA42:  MOVLB  3
0AA44:  MOVWF  xE1
0AA46:  MOVLB  0
0AA48:  CALL   179C
....................             if(RX_Buffer[4]==0x0b || DOWN){ 
0AA4C:  MOVF   34,W
0AA4E:  SUBLW  0B
0AA50:  BZ    AA58
0AA52:  BSF    F93.1
0AA54:  BTFSC  F81.1
0AA56:  BRA    AA62
....................                Integral--; 
0AA58:  MOVLB  3
0AA5A:  DECF   x2C,F
....................                RX_Buffer[4]=0x00; 
0AA5C:  CLRF   34
....................                RX_Buffer2[4]=0x00;             
0AA5E:  CLRF   3F
0AA60:  MOVLB  0
....................                //BorraBuffer(); 
....................             } 
....................          } 
....................           
....................          if(Integral>40) 
0AA62:  MOVLB  3
0AA64:  MOVF   x2C,W
0AA66:  SUBLW  28
0AA68:  BC    AA6E
....................             Integral=1; 
0AA6A:  MOVLW  01
0AA6C:  MOVWF  x2C
....................          if(Integral<1) 
0AA6E:  MOVF   x2C,F
0AA70:  BNZ   AA76
....................             Integral=40; 
0AA72:  MOVLW  28
0AA74:  MOVWF  x2C
....................       }else if(Opcion2==4){ 
0AA76:  BRA    B0AA
0AA78:  MOVF   x43,W
0AA7A:  SUBLW  04
0AA7C:  BTFSS  FD8.2
0AA7E:  BRA    ABFE
....................          printf("Config.t2c.txt=\"Tciclo\""); 
0AA80:  MOVLW  38
0AA82:  MOVWF  FF6
0AA84:  MOVLW  16
0AA86:  MOVWF  FF7
0AA88:  MOVLW  00
0AA8A:  MOVWF  FF8
0AA8C:  MOVLB  0
0AA8E:  CALL   3488
....................          SendDataDisplay();       
0AA92:  CALL   34BA
....................          printf("t3c.txt=\"%2.0f\"",Tciclo); 
0AA96:  MOVLW  50
0AA98:  MOVWF  FF6
0AA9A:  MOVLW  16
0AA9C:  MOVWF  FF7
0AA9E:  MOVLW  00
0AAA0:  MOVWF  FF8
0AAA2:  MOVLW  09
0AAA4:  MOVLB  3
0AAA6:  MOVWF  xD0
0AAA8:  MOVLB  0
0AAAA:  CALL   435E
0AAAE:  MOVLW  01
0AAB0:  MOVWF  FE9
0AAB2:  MOVFF  2E3,3D3
0AAB6:  MOVFF  2E2,3D2
0AABA:  MOVFF  2E1,3D1
0AABE:  MOVFF  2E0,3D0
0AAC2:  MOVLB  3
0AAC4:  CLRF   xD4
0AAC6:  MOVLB  0
0AAC8:  CALL   44FE
0AACC:  MOVLW  22
0AACE:  BTFSS  F9E.4
0AAD0:  BRA    AACE
0AAD2:  MOVWF  FAD
....................          SendDataDisplay(); 
0AAD4:  CALL   34BA
....................          if(RX_Buffer[4]==0x0a || UP){//Tecla Arriba Oprimida 
0AAD8:  MOVF   34,W
0AADA:  SUBLW  0A
0AADC:  BZ    AAE4
0AADE:  BSF    F93.0
0AAE0:  BTFSC  F81.0
0AAE2:  BRA    AB34
....................             delay_ms(20); 
0AAE4:  MOVLW  14
0AAE6:  MOVLB  3
0AAE8:  MOVWF  xE1
0AAEA:  MOVLB  0
0AAEC:  CALL   179C
....................             if(RX_Buffer[4]==0x0a || UP){ 
0AAF0:  MOVF   34,W
0AAF2:  SUBLW  0A
0AAF4:  BZ    AAFC
0AAF6:  BSF    F93.0
0AAF8:  BTFSC  F81.0
0AAFA:  BRA    AB34
....................                Tciclo+=1.0; 
0AAFC:  BCF    FD8.1
0AAFE:  MOVFF  2E3,3E4
0AB02:  MOVFF  2E2,3E3
0AB06:  MOVFF  2E1,3E2
0AB0A:  MOVFF  2E0,3E1
0AB0E:  MOVLB  3
0AB10:  CLRF   xE8
0AB12:  CLRF   xE7
0AB14:  CLRF   xE6
0AB16:  MOVLW  7F
0AB18:  MOVWF  xE5
0AB1A:  MOVLB  0
0AB1C:  CALL   1958
0AB20:  MOVFF  03,2E3
0AB24:  MOVFF  02,2E2
0AB28:  MOVFF  01,2E1
0AB2C:  MOVFF  00,2E0
....................                RX_Buffer[4]=0x00;   
0AB30:  CLRF   34
....................                RX_Buffer2[4]=0x00;             
0AB32:  CLRF   3F
....................                //BorraBuffer(); 
....................             } 
....................          } 
....................              
....................          if(RX_Buffer[4]==0x0b || DOWN){//Tecla Abajo Oprimida 
0AB34:  MOVF   34,W
0AB36:  SUBLW  0B
0AB38:  BZ    AB40
0AB3A:  BSF    F93.1
0AB3C:  BTFSC  F81.1
0AB3E:  BRA    AB90
....................             delay_ms(20); 
0AB40:  MOVLW  14
0AB42:  MOVLB  3
0AB44:  MOVWF  xE1
0AB46:  MOVLB  0
0AB48:  CALL   179C
....................             if(RX_Buffer[4]==0x0b || DOWN){ 
0AB4C:  MOVF   34,W
0AB4E:  SUBLW  0B
0AB50:  BZ    AB58
0AB52:  BSF    F93.1
0AB54:  BTFSC  F81.1
0AB56:  BRA    AB90
....................                Tciclo-=1.0; 
0AB58:  BSF    FD8.1
0AB5A:  MOVFF  2E3,3E4
0AB5E:  MOVFF  2E2,3E3
0AB62:  MOVFF  2E1,3E2
0AB66:  MOVFF  2E0,3E1
0AB6A:  MOVLB  3
0AB6C:  CLRF   xE8
0AB6E:  CLRF   xE7
0AB70:  CLRF   xE6
0AB72:  MOVLW  7F
0AB74:  MOVWF  xE5
0AB76:  MOVLB  0
0AB78:  CALL   1958
0AB7C:  MOVFF  03,2E3
0AB80:  MOVFF  02,2E2
0AB84:  MOVFF  01,2E1
0AB88:  MOVFF  00,2E0
....................                RX_Buffer[4]=0x00; 
0AB8C:  CLRF   34
....................                RX_Buffer2[4]=0x00;             
0AB8E:  CLRF   3F
....................                //BorraBuffer(); 
....................             } 
....................          } 
....................           
....................          if(Tciclo>20) 
0AB90:  MOVLB  3
0AB92:  CLRF   xD3
0AB94:  CLRF   xD2
0AB96:  MOVLW  20
0AB98:  MOVWF  xD1
0AB9A:  MOVLW  83
0AB9C:  MOVWF  xD0
0AB9E:  MOVFF  2E3,3D7
0ABA2:  MOVFF  2E2,3D6
0ABA6:  MOVFF  2E1,3D5
0ABAA:  MOVFF  2E0,3D4
0ABAE:  MOVLB  0
0ABB0:  CALL   29A2
0ABB4:  BNC   ABC4
....................             Tciclo=5; 
0ABB6:  MOVLB  2
0ABB8:  CLRF   xE3
0ABBA:  CLRF   xE2
0ABBC:  MOVLW  20
0ABBE:  MOVWF  xE1
0ABC0:  MOVLW  81
0ABC2:  MOVWF  xE0
....................          if(Tciclo<5) 
0ABC4:  MOVFF  2E3,3D3
0ABC8:  MOVFF  2E2,3D2
0ABCC:  MOVFF  2E1,3D1
0ABD0:  MOVFF  2E0,3D0
0ABD4:  MOVLB  3
0ABD6:  CLRF   xD7
0ABD8:  CLRF   xD6
0ABDA:  MOVLW  20
0ABDC:  MOVWF  xD5
0ABDE:  MOVLW  81
0ABE0:  MOVWF  xD4
0ABE2:  MOVLB  0
0ABE4:  CALL   29A2
0ABE8:  BNC   ABFA
....................             Tciclo=20; 
0ABEA:  MOVLB  2
0ABEC:  CLRF   xE3
0ABEE:  CLRF   xE2
0ABF0:  MOVLW  20
0ABF2:  MOVWF  xE1
0ABF4:  MOVLW  83
0ABF6:  MOVWF  xE0
0ABF8:  MOVLB  0
....................       }else if(Opcion2==5){ 
0ABFA:  BRA    B0A8
0ABFC:  MOVLB  3
0ABFE:  MOVF   x43,W
0AC00:  SUBLW  05
0AC02:  BNZ   ACB8
....................          printf("Config.t2c.txt=\"Ajuste +\""); 
0AC04:  MOVLW  60
0AC06:  MOVWF  FF6
0AC08:  MOVLW  16
0AC0A:  MOVWF  FF7
0AC0C:  MOVLW  00
0AC0E:  MOVWF  FF8
0AC10:  MOVLB  0
0AC12:  CALL   3488
....................          SendDataDisplay();       
0AC16:  CALL   34BA
....................          printf("t3c.txt=\"%u\"",Ajuste); 
0AC1A:  MOVLW  7A
0AC1C:  MOVWF  FF6
0AC1E:  MOVLW  16
0AC20:  MOVWF  FF7
0AC22:  MOVLW  00
0AC24:  MOVWF  FF8
0AC26:  MOVLW  09
0AC28:  MOVLB  3
0AC2A:  MOVWF  xD0
0AC2C:  MOVLB  0
0AC2E:  CALL   435E
0AC32:  MOVFF  2D0,3CE
0AC36:  MOVLW  1B
0AC38:  MOVLB  3
0AC3A:  MOVWF  xCF
0AC3C:  MOVLB  0
0AC3E:  CALL   43BC
0AC42:  MOVLW  22
0AC44:  BTFSS  F9E.4
0AC46:  BRA    AC44
0AC48:  MOVWF  FAD
....................          SendDataDisplay(); 
0AC4A:  CALL   34BA
....................          if(RX_Buffer[4]==0x0a || UP){//Tecla Arriba Oprimida 
0AC4E:  MOVF   34,W
0AC50:  SUBLW  0A
0AC52:  BZ    AC5A
0AC54:  BSF    F93.0
0AC56:  BTFSC  F81.0
0AC58:  BRA    AC82
....................             delay_ms(20); 
0AC5A:  MOVLW  14
0AC5C:  MOVLB  3
0AC5E:  MOVWF  xE1
0AC60:  MOVLB  0
0AC62:  CALL   179C
....................             if(RX_Buffer[4]==0x0a || UP){ 
0AC66:  MOVF   34,W
0AC68:  SUBLW  0A
0AC6A:  BZ    AC72
0AC6C:  BSF    F93.0
0AC6E:  BTFSC  F81.0
0AC70:  BRA    AC82
....................                if(Ajuste<40) 
0AC72:  MOVLB  2
0AC74:  MOVF   xD0,W
0AC76:  SUBLW  27
0AC78:  BNC   AC7C
....................                   Ajuste++; 
0AC7A:  INCF   xD0,F
....................                RX_Buffer[4]=0x00;   
0AC7C:  CLRF   34
....................                RX_Buffer2[4]=0x00;             
0AC7E:  CLRF   3F
0AC80:  MOVLB  0
....................                //BorraBuffer(); 
....................             } 
....................          } 
....................              
....................          if(RX_Buffer[4]==0x0b || DOWN){//Tecla Abajo Oprimida 
0AC82:  MOVF   34,W
0AC84:  SUBLW  0B
0AC86:  BZ    AC8E
0AC88:  BSF    F93.1
0AC8A:  BTFSC  F81.1
0AC8C:  BRA    ACB4
....................             delay_ms(20); 
0AC8E:  MOVLW  14
0AC90:  MOVLB  3
0AC92:  MOVWF  xE1
0AC94:  MOVLB  0
0AC96:  CALL   179C
....................             if(RX_Buffer[4]==0x0b || DOWN){ 
0AC9A:  MOVF   34,W
0AC9C:  SUBLW  0B
0AC9E:  BZ    ACA6
0ACA0:  BSF    F93.1
0ACA2:  BTFSC  F81.1
0ACA4:  BRA    ACB4
....................                if(Ajuste>0) 
0ACA6:  MOVLB  2
0ACA8:  MOVF   xD0,F
0ACAA:  BZ    ACAE
....................                   Ajuste--; 
0ACAC:  DECF   xD0,F
....................                RX_Buffer[4]=0x00; 
0ACAE:  CLRF   34
....................                RX_Buffer2[4]=0x00;             
0ACB0:  CLRF   3F
0ACB2:  MOVLB  0
....................                //BorraBuffer(); 
....................             } 
....................          } 
....................       }else if(Opcion2==6){ 
0ACB4:  BRA    B0A8
0ACB6:  MOVLB  3
0ACB8:  MOVF   x43,W
0ACBA:  SUBLW  06
0ACBC:  BNZ   AD72
....................          printf("Config.t2c.txt=\"Ajuste -\""); 
0ACBE:  MOVLW  88
0ACC0:  MOVWF  FF6
0ACC2:  MOVLW  16
0ACC4:  MOVWF  FF7
0ACC6:  MOVLW  00
0ACC8:  MOVWF  FF8
0ACCA:  MOVLB  0
0ACCC:  CALL   3488
....................          SendDataDisplay();       
0ACD0:  CALL   34BA
....................          printf("t3c.txt=\"%u\"",Ajusten); 
0ACD4:  MOVLW  A2
0ACD6:  MOVWF  FF6
0ACD8:  MOVLW  16
0ACDA:  MOVWF  FF7
0ACDC:  MOVLW  00
0ACDE:  MOVWF  FF8
0ACE0:  MOVLW  09
0ACE2:  MOVLB  3
0ACE4:  MOVWF  xD0
0ACE6:  MOVLB  0
0ACE8:  CALL   435E
0ACEC:  MOVFF  2D1,3CE
0ACF0:  MOVLW  1B
0ACF2:  MOVLB  3
0ACF4:  MOVWF  xCF
0ACF6:  MOVLB  0
0ACF8:  CALL   43BC
0ACFC:  MOVLW  22
0ACFE:  BTFSS  F9E.4
0AD00:  BRA    ACFE
0AD02:  MOVWF  FAD
....................          SendDataDisplay(); 
0AD04:  CALL   34BA
....................          if(RX_Buffer[4]==0x0a || UP){//Tecla Arriba Oprimida 
0AD08:  MOVF   34,W
0AD0A:  SUBLW  0A
0AD0C:  BZ    AD14
0AD0E:  BSF    F93.0
0AD10:  BTFSC  F81.0
0AD12:  BRA    AD3C
....................             delay_ms(20); 
0AD14:  MOVLW  14
0AD16:  MOVLB  3
0AD18:  MOVWF  xE1
0AD1A:  MOVLB  0
0AD1C:  CALL   179C
....................             if(RX_Buffer[4]==0x0a || UP){ 
0AD20:  MOVF   34,W
0AD22:  SUBLW  0A
0AD24:  BZ    AD2C
0AD26:  BSF    F93.0
0AD28:  BTFSC  F81.0
0AD2A:  BRA    AD3C
....................                if(Ajusten<40) 
0AD2C:  MOVLB  2
0AD2E:  MOVF   xD1,W
0AD30:  SUBLW  27
0AD32:  BNC   AD36
....................                   Ajusten++; 
0AD34:  INCF   xD1,F
....................                RX_Buffer[4]=0x00;   
0AD36:  CLRF   34
....................                RX_Buffer2[4]=0x00;             
0AD38:  CLRF   3F
0AD3A:  MOVLB  0
....................                //BorraBuffer(); 
....................             } 
....................          } 
....................              
....................          if(RX_Buffer[4]==0x0b || DOWN){//Tecla Abajo Oprimida 
0AD3C:  MOVF   34,W
0AD3E:  SUBLW  0B
0AD40:  BZ    AD48
0AD42:  BSF    F93.1
0AD44:  BTFSC  F81.1
0AD46:  BRA    AD6E
....................             delay_ms(20); 
0AD48:  MOVLW  14
0AD4A:  MOVLB  3
0AD4C:  MOVWF  xE1
0AD4E:  MOVLB  0
0AD50:  CALL   179C
....................             if(RX_Buffer[4]==0x0b || DOWN){ 
0AD54:  MOVF   34,W
0AD56:  SUBLW  0B
0AD58:  BZ    AD60
0AD5A:  BSF    F93.1
0AD5C:  BTFSC  F81.1
0AD5E:  BRA    AD6E
....................                if(Ajusten>0) 
0AD60:  MOVLB  2
0AD62:  MOVF   xD1,F
0AD64:  BZ    AD68
....................                   Ajusten--; 
0AD66:  DECF   xD1,F
....................                RX_Buffer[4]=0x00; 
0AD68:  CLRF   34
....................                RX_Buffer2[4]=0x00;             
0AD6A:  CLRF   3F
0AD6C:  MOVLB  0
....................                //BorraBuffer(); 
....................             } 
....................          } 
....................       }else if(Opcion2==7){ 
0AD6E:  BRA    B0A8
0AD70:  MOVLB  3
0AD72:  MOVF   x43,W
0AD74:  SUBLW  07
0AD76:  BNZ   AE2E
....................          printf("Config.t2c.txt=\"Media\""); 
0AD78:  MOVLW  B0
0AD7A:  MOVWF  FF6
0AD7C:  MOVLW  16
0AD7E:  MOVWF  FF7
0AD80:  MOVLW  00
0AD82:  MOVWF  FF8
0AD84:  MOVLB  0
0AD86:  CALL   3488
....................          SendDataDisplay();       
0AD8A:  CALL   34BA
....................          printf("t3c.txt=\"%u\"",MediaMovil); 
0AD8E:  MOVLW  C8
0AD90:  MOVWF  FF6
0AD92:  MOVLW  16
0AD94:  MOVWF  FF7
0AD96:  MOVLW  00
0AD98:  MOVWF  FF8
0AD9A:  MOVLW  09
0AD9C:  MOVLB  3
0AD9E:  MOVWF  xD0
0ADA0:  MOVLB  0
0ADA2:  CALL   435E
0ADA6:  MOVFF  2D2,3CE
0ADAA:  MOVLW  1B
0ADAC:  MOVLB  3
0ADAE:  MOVWF  xCF
0ADB0:  MOVLB  0
0ADB2:  CALL   43BC
0ADB6:  MOVLW  22
0ADB8:  BTFSS  F9E.4
0ADBA:  BRA    ADB8
0ADBC:  MOVWF  FAD
....................          SendDataDisplay(); 
0ADBE:  CALL   34BA
....................          if(RX_Buffer[4]==0x0a || UP){//Tecla Arriba Oprimida 
0ADC2:  MOVF   34,W
0ADC4:  SUBLW  0A
0ADC6:  BZ    ADCE
0ADC8:  BSF    F93.0
0ADCA:  BTFSC  F81.0
0ADCC:  BRA    ADF6
....................             delay_ms(20); 
0ADCE:  MOVLW  14
0ADD0:  MOVLB  3
0ADD2:  MOVWF  xE1
0ADD4:  MOVLB  0
0ADD6:  CALL   179C
....................             if(RX_Buffer[4]==0x0a || UP){ 
0ADDA:  MOVF   34,W
0ADDC:  SUBLW  0A
0ADDE:  BZ    ADE6
0ADE0:  BSF    F93.0
0ADE2:  BTFSC  F81.0
0ADE4:  BRA    ADF6
....................                if(MediaMovil<80) 
0ADE6:  MOVLB  2
0ADE8:  MOVF   xD2,W
0ADEA:  SUBLW  4F
0ADEC:  BNC   ADF0
....................                   MediaMovil++; 
0ADEE:  INCF   xD2,F
....................                RX_Buffer[4]=0x00;   
0ADF0:  CLRF   34
....................                RX_Buffer2[4]=0x00;             
0ADF2:  CLRF   3F
0ADF4:  MOVLB  0
....................                //BorraBuffer(); 
....................             } 
....................          } 
....................              
....................          if(RX_Buffer[4]==0x0b || DOWN){//Tecla Abajo Oprimida 
0ADF6:  MOVF   34,W
0ADF8:  SUBLW  0B
0ADFA:  BZ    AE02
0ADFC:  BSF    F93.1
0ADFE:  BTFSC  F81.1
0AE00:  BRA    AE2A
....................             delay_ms(20); 
0AE02:  MOVLW  14
0AE04:  MOVLB  3
0AE06:  MOVWF  xE1
0AE08:  MOVLB  0
0AE0A:  CALL   179C
....................             if(RX_Buffer[4]==0x0b || DOWN){ 
0AE0E:  MOVF   34,W
0AE10:  SUBLW  0B
0AE12:  BZ    AE1A
0AE14:  BSF    F93.1
0AE16:  BTFSC  F81.1
0AE18:  BRA    AE2A
....................                if(MediaMovil>10) 
0AE1A:  MOVLB  2
0AE1C:  MOVF   xD2,W
0AE1E:  SUBLW  0A
0AE20:  BC    AE24
....................                   MediaMovil--; 
0AE22:  DECF   xD2,F
....................                RX_Buffer[4]=0x00; 
0AE24:  CLRF   34
....................                RX_Buffer2[4]=0x00;             
0AE26:  CLRF   3F
0AE28:  MOVLB  0
....................                //BorraBuffer(); 
....................             } 
....................          } 
....................       }else if(Opcion2==8){ 
0AE2A:  BRA    B0A8
0AE2C:  MOVLB  3
0AE2E:  MOVF   x43,W
0AE30:  SUBLW  08
0AE32:  BTFSS  FD8.2
0AE34:  BRA    AF9C
....................          printf("Config.t2c.txt=\"RPT100B\""); 
0AE36:  MOVLW  D6
0AE38:  MOVWF  FF6
0AE3A:  MOVLW  16
0AE3C:  MOVWF  FF7
0AE3E:  MOVLW  00
0AE40:  MOVWF  FF8
0AE42:  MOVLB  0
0AE44:  CALL   3488
....................          SendDataDisplay();       
0AE48:  CALL   34BA
....................          printf("t3c.txt=\"%2.1f\"",RPT100); 
0AE4C:  MOVLW  F0
0AE4E:  MOVWF  FF6
0AE50:  MOVLW  16
0AE52:  MOVWF  FF7
0AE54:  MOVLW  00
0AE56:  MOVWF  FF8
0AE58:  MOVLW  09
0AE5A:  MOVLB  3
0AE5C:  MOVWF  xD0
0AE5E:  MOVLB  0
0AE60:  CALL   435E
0AE64:  MOVLW  01
0AE66:  MOVWF  FE9
0AE68:  MOVFF  2AD,3D3
0AE6C:  MOVFF  2AC,3D2
0AE70:  MOVFF  2AB,3D1
0AE74:  MOVFF  2AA,3D0
0AE78:  MOVLB  3
0AE7A:  MOVWF  xD4
0AE7C:  MOVLB  0
0AE7E:  CALL   44FE
0AE82:  MOVLW  22
0AE84:  BTFSS  F9E.4
0AE86:  BRA    AE84
0AE88:  MOVWF  FAD
....................          SendDataDisplay(); 
0AE8A:  CALL   34BA
....................          if(RX_Buffer[4]==0x0a || UP){//Tecla Arriba Oprimida 
0AE8E:  MOVF   34,W
0AE90:  SUBLW  0A
0AE92:  BZ    AE9A
0AE94:  BSF    F93.0
0AE96:  BTFSC  F81.0
0AE98:  BRA    AF14
....................             delay_ms(20); 
0AE9A:  MOVLW  14
0AE9C:  MOVLB  3
0AE9E:  MOVWF  xE1
0AEA0:  MOVLB  0
0AEA2:  CALL   179C
....................             if(RX_Buffer[4]==0x0a || UP){ 
0AEA6:  MOVF   34,W
0AEA8:  SUBLW  0A
0AEAA:  BZ    AEB2
0AEAC:  BSF    F93.0
0AEAE:  BTFSC  F81.0
0AEB0:  BRA    AF14
....................                if(RPT100<2.0) 
0AEB2:  MOVFF  2AD,3D3
0AEB6:  MOVFF  2AC,3D2
0AEBA:  MOVFF  2AB,3D1
0AEBE:  MOVFF  2AA,3D0
0AEC2:  MOVLB  3
0AEC4:  CLRF   xD7
0AEC6:  CLRF   xD6
0AEC8:  CLRF   xD5
0AECA:  MOVLW  80
0AECC:  MOVWF  xD4
0AECE:  MOVLB  0
0AED0:  CALL   29A2
0AED4:  BNC   AF10
....................                   RPT100+=0.1; 
0AED6:  BCF    FD8.1
0AED8:  MOVFF  2AD,3E4
0AEDC:  MOVFF  2AC,3E3
0AEE0:  MOVFF  2AB,3E2
0AEE4:  MOVFF  2AA,3E1
0AEE8:  MOVLW  CD
0AEEA:  MOVLB  3
0AEEC:  MOVWF  xE8
0AEEE:  MOVLW  CC
0AEF0:  MOVWF  xE7
0AEF2:  MOVLW  4C
0AEF4:  MOVWF  xE6
0AEF6:  MOVLW  7B
0AEF8:  MOVWF  xE5
0AEFA:  MOVLB  0
0AEFC:  CALL   1958
0AF00:  MOVFF  03,2AD
0AF04:  MOVFF  02,2AC
0AF08:  MOVFF  01,2AB
0AF0C:  MOVFF  00,2AA
....................                RX_Buffer[4]=0x00;   
0AF10:  CLRF   34
....................                RX_Buffer2[4]=0x00;             
0AF12:  CLRF   3F
....................                //BorraBuffer(); 
....................             } 
....................          } 
....................              
....................          if(RX_Buffer[4]==0x0b || DOWN){//Tecla Abajo Oprimida 
0AF14:  MOVF   34,W
0AF16:  SUBLW  0B
0AF18:  BZ    AF20
0AF1A:  BSF    F93.1
0AF1C:  BTFSC  F81.1
0AF1E:  BRA    AF98
....................             delay_ms(20); 
0AF20:  MOVLW  14
0AF22:  MOVLB  3
0AF24:  MOVWF  xE1
0AF26:  MOVLB  0
0AF28:  CALL   179C
....................             if(RX_Buffer[4]==0x0b || DOWN){ 
0AF2C:  MOVF   34,W
0AF2E:  SUBLW  0B
0AF30:  BZ    AF38
0AF32:  BSF    F93.1
0AF34:  BTFSC  F81.1
0AF36:  BRA    AF98
....................                if(RPT100>0.0) 
0AF38:  MOVLB  3
0AF3A:  CLRF   xD3
0AF3C:  CLRF   xD2
0AF3E:  CLRF   xD1
0AF40:  CLRF   xD0
0AF42:  MOVFF  2AD,3D7
0AF46:  MOVFF  2AC,3D6
0AF4A:  MOVFF  2AB,3D5
0AF4E:  MOVFF  2AA,3D4
0AF52:  MOVLB  0
0AF54:  CALL   29A2
0AF58:  BNC   AF94
....................                   RPT100-=0.1; 
0AF5A:  BSF    FD8.1
0AF5C:  MOVFF  2AD,3E4
0AF60:  MOVFF  2AC,3E3
0AF64:  MOVFF  2AB,3E2
0AF68:  MOVFF  2AA,3E1
0AF6C:  MOVLW  CD
0AF6E:  MOVLB  3
0AF70:  MOVWF  xE8
0AF72:  MOVLW  CC
0AF74:  MOVWF  xE7
0AF76:  MOVLW  4C
0AF78:  MOVWF  xE6
0AF7A:  MOVLW  7B
0AF7C:  MOVWF  xE5
0AF7E:  MOVLB  0
0AF80:  CALL   1958
0AF84:  MOVFF  03,2AD
0AF88:  MOVFF  02,2AC
0AF8C:  MOVFF  01,2AB
0AF90:  MOVFF  00,2AA
....................                RX_Buffer[4]=0x00; 
0AF94:  CLRF   34
....................                RX_Buffer2[4]=0x00;             
0AF96:  CLRF   3F
....................                //BorraBuffer(); 
....................             } 
....................          } 
....................       }else if(Opcion2==9){ 
0AF98:  BRA    B0A8
0AF9A:  MOVLB  3
0AF9C:  MOVF   x43,W
0AF9E:  SUBLW  09
0AFA0:  BNZ   B058
....................          printf("Config.t2c.txt=\"TTrampa\""); 
0AFA2:  MOVLW  00
0AFA4:  MOVWF  FF6
0AFA6:  MOVLW  17
0AFA8:  MOVWF  FF7
0AFAA:  MOVLW  00
0AFAC:  MOVWF  FF8
0AFAE:  MOVLB  0
0AFB0:  CALL   3488
....................          SendDataDisplay();       
0AFB4:  CALL   34BA
....................          printf("t3c.txt=\"%02u\"",TTrampa); 
0AFB8:  MOVLW  1A
0AFBA:  MOVWF  FF6
0AFBC:  MOVLW  17
0AFBE:  MOVWF  FF7
0AFC0:  MOVLW  00
0AFC2:  MOVWF  FF8
0AFC4:  MOVLW  09
0AFC6:  MOVLB  3
0AFC8:  MOVWF  xD0
0AFCA:  MOVLB  0
0AFCC:  CALL   435E
0AFD0:  MOVFF  2D3,3CE
0AFD4:  MOVLW  01
0AFD6:  MOVLB  3
0AFD8:  MOVWF  xCF
0AFDA:  MOVLB  0
0AFDC:  CALL   43BC
0AFE0:  MOVLW  22
0AFE2:  BTFSS  F9E.4
0AFE4:  BRA    AFE2
0AFE6:  MOVWF  FAD
....................          SendDataDisplay(); 
0AFE8:  CALL   34BA
....................          if(RX_Buffer[4]==0x0a || UP){//Tecla Arriba Oprimida 
0AFEC:  MOVF   34,W
0AFEE:  SUBLW  0A
0AFF0:  BZ    AFF8
0AFF2:  BSF    F93.0
0AFF4:  BTFSC  F81.0
0AFF6:  BRA    B020
....................             delay_ms(20); 
0AFF8:  MOVLW  14
0AFFA:  MOVLB  3
0AFFC:  MOVWF  xE1
0AFFE:  MOVLB  0
0B000:  CALL   179C
....................             if(RX_Buffer[4]==0x0a || UP){ 
0B004:  MOVF   34,W
0B006:  SUBLW  0A
0B008:  BZ    B010
0B00A:  BSF    F93.0
0B00C:  BTFSC  F81.0
0B00E:  BRA    B020
....................                if(TTrampa<100) 
0B010:  MOVLB  2
0B012:  MOVF   xD3,W
0B014:  SUBLW  63
0B016:  BNC   B01A
....................                   TTrampa++; 
0B018:  INCF   xD3,F
....................                RX_Buffer[4]=0x00;   
0B01A:  CLRF   34
....................                RX_Buffer2[4]=0x00;             
0B01C:  CLRF   3F
0B01E:  MOVLB  0
....................                //BorraBuffer(); 
....................             } 
....................          } 
....................              
....................          if(RX_Buffer[4]==0x0b || DOWN){//Tecla Abajo Oprimida 
0B020:  MOVF   34,W
0B022:  SUBLW  0B
0B024:  BZ    B02C
0B026:  BSF    F93.1
0B028:  BTFSC  F81.1
0B02A:  BRA    B054
....................             delay_ms(20); 
0B02C:  MOVLW  14
0B02E:  MOVLB  3
0B030:  MOVWF  xE1
0B032:  MOVLB  0
0B034:  CALL   179C
....................             if(RX_Buffer[4]==0x0b || DOWN){ 
0B038:  MOVF   34,W
0B03A:  SUBLW  0B
0B03C:  BZ    B044
0B03E:  BSF    F93.1
0B040:  BTFSC  F81.1
0B042:  BRA    B054
....................                if(TTrampa>50) 
0B044:  MOVLB  2
0B046:  MOVF   xD3,W
0B048:  SUBLW  32
0B04A:  BC    B04E
....................                   TTrampa--; 
0B04C:  DECF   xD3,F
....................                RX_Buffer[4]=0x00; 
0B04E:  CLRF   34
....................                RX_Buffer2[4]=0x00;             
0B050:  CLRF   3F
0B052:  MOVLB  0
....................                //BorraBuffer(); 
....................             } 
....................          } 
....................       }else if(Opcion2==10){ 
0B054:  BRA    B0A8
0B056:  MOVLB  3
0B058:  MOVF   x43,W
0B05A:  SUBLW  0A
0B05C:  BNZ   B0AA
....................          printf("Config.t2c.txt=\"Ciclos\""); 
0B05E:  MOVLW  2A
0B060:  MOVWF  FF6
0B062:  MOVLW  17
0B064:  MOVWF  FF7
0B066:  MOVLW  00
0B068:  MOVWF  FF8
0B06A:  MOVLB  0
0B06C:  CALL   3488
....................          SendDataDisplay();       
0B070:  CALL   34BA
....................          printf("t3c.txt=\"%05Lu\"",Ciclos); 
0B074:  MOVLW  42
0B076:  MOVWF  FF6
0B078:  MOVLW  17
0B07A:  MOVWF  FF7
0B07C:  MOVLW  00
0B07E:  MOVWF  FF8
0B080:  MOVLW  09
0B082:  MOVLB  3
0B084:  MOVWF  xD0
0B086:  MOVLB  0
0B088:  CALL   435E
0B08C:  MOVLW  08
0B08E:  MOVWF  FE9
0B090:  MOVFF  358,3D1
0B094:  MOVFF  357,3D0
0B098:  CALL   4726
0B09C:  MOVLW  22
0B09E:  BTFSS  F9E.4
0B0A0:  BRA    B09E
0B0A2:  MOVWF  FAD
....................          SendDataDisplay(); 
0B0A4:  CALL   34BA
0B0A8:  MOVLB  3
....................       } 
....................        
....................       if(RX_Buffer[4]==0x0c || LEFT){//Tecla Izquierda Oprimida 
0B0AA:  MOVF   34,W
0B0AC:  SUBLW  0C
0B0AE:  BZ    B0B6
0B0B0:  BSF    F93.3
0B0B2:  BTFSC  F81.3
0B0B4:  BRA    B0D4
....................          delay_ms(20); 
0B0B6:  MOVLW  14
0B0B8:  MOVWF  xE1
0B0BA:  MOVLB  0
0B0BC:  CALL   179C
....................          if(RX_Buffer[4]==0x0c || LEFT){ 
0B0C0:  MOVF   34,W
0B0C2:  SUBLW  0C
0B0C4:  BZ    B0CC
0B0C6:  BSF    F93.3
0B0C8:  BTFSC  F81.3
0B0CA:  BRA    B0D6
....................             Opcion2++; 
0B0CC:  MOVLB  3
0B0CE:  INCF   x43,F
....................             RX_Buffer[4]=0x00;   
0B0D0:  CLRF   34
....................             RX_Buffer2[4]=0x00;             
0B0D2:  CLRF   3F
0B0D4:  MOVLB  0
....................             //BorraBuffer(); 
....................          } 
....................       } 
....................           
....................       if(RX_Buffer[4]==0x0d || RIGHT){//Tecla Derecha Oprimida 
0B0D6:  MOVF   34,W
0B0D8:  SUBLW  0D
0B0DA:  BZ    B0E2
0B0DC:  BSF    F93.2
0B0DE:  BTFSC  F81.2
0B0E0:  BRA    B104
....................          delay_ms(20); 
0B0E2:  MOVLW  14
0B0E4:  MOVLB  3
0B0E6:  MOVWF  xE1
0B0E8:  MOVLB  0
0B0EA:  CALL   179C
....................          if(RX_Buffer[4]==0x0d || RIGHT){ 
0B0EE:  MOVF   34,W
0B0F0:  SUBLW  0D
0B0F2:  BZ    B0FA
0B0F4:  BSF    F93.2
0B0F6:  BTFSC  F81.2
0B0F8:  BRA    B104
....................             Opcion2--; 
0B0FA:  MOVLB  3
0B0FC:  DECF   x43,F
....................             RX_Buffer[4]=0x00; 
0B0FE:  CLRF   34
....................             RX_Buffer2[4]=0x00;             
0B100:  CLRF   3F
0B102:  MOVLB  0
....................             //BorraBuffer(); 
....................          } 
....................       } 
....................        
....................       if(RX_Buffer[4]==0x11 || (RIGHT && LEFT)){//Tecla Regresar 
0B104:  MOVF   34,W
0B106:  SUBLW  11
0B108:  BZ    B116
0B10A:  BSF    F93.2
0B10C:  BTFSC  F81.2
0B10E:  BRA    B47E
0B110:  BSF    F93.3
0B112:  BTFSC  F81.3
0B114:  BRA    B47E
....................          delay_ms(20); 
0B116:  MOVLW  14
0B118:  MOVLB  3
0B11A:  MOVWF  xE1
0B11C:  MOVLB  0
0B11E:  CALL   179C
....................          if(RX_Buffer[4]==0x11 || (RIGHT && LEFT)){ 
0B122:  MOVF   34,W
0B124:  SUBLW  11
0B126:  BZ    B134
0B128:  BSF    F93.2
0B12A:  BTFSC  F81.2
0B12C:  BRA    B47E
0B12E:  BSF    F93.3
0B130:  BTFSC  F81.3
0B132:  BRA    B47E
....................             if(!GuardaEEPROM){ 
0B134:  BTFSC  xA2.3
0B136:  BRA    B46A
....................                write_eeprom(20,(int8)Ganancia); 
0B138:  MOVFF  2FB,3E4
0B13C:  MOVFF  2FA,3E3
0B140:  MOVFF  2F9,3E2
0B144:  MOVFF  2F8,3E1
0B148:  CALL   3BAA
0B14C:  MOVFF  01,3CC
0B150:  CLRF   FAA
0B152:  MOVLW  14
0B154:  MOVWF  FA9
0B156:  MOVFF  3CC,FA8
0B15A:  BCF    FA6.6
0B15C:  BCF    FA6.7
0B15E:  BSF    FA6.2
0B160:  MOVF   FF2,W
0B162:  MOVWF  00
0B164:  BCF    FF2.6
0B166:  BCF    FF2.7
0B168:  MOVLB  F
0B16A:  MOVLW  55
0B16C:  MOVWF  FA7
0B16E:  MOVLW  AA
0B170:  MOVWF  FA7
0B172:  BSF    FA6.1
0B174:  BTFSC  FA6.1
0B176:  BRA    B174
0B178:  BCF    FA6.2
0B17A:  MOVF   00,W
0B17C:  IORWF  FF2,F
....................                delay_ms(10); 
0B17E:  MOVLW  0A
0B180:  MOVLB  3
0B182:  MOVWF  xE1
0B184:  MOVLB  0
0B186:  CALL   179C
....................                write_eeprom(26,(int8)Integral); 
0B18A:  CLRF   FAA
0B18C:  MOVLW  1A
0B18E:  MOVWF  FA9
0B190:  MOVFF  32C,FA8
0B194:  BCF    FA6.6
0B196:  BCF    FA6.7
0B198:  BSF    FA6.2
0B19A:  MOVF   FF2,W
0B19C:  MOVWF  00
0B19E:  BCF    FF2.6
0B1A0:  BCF    FF2.7
0B1A2:  MOVLB  F
0B1A4:  MOVLW  55
0B1A6:  MOVWF  FA7
0B1A8:  MOVLW  AA
0B1AA:  MOVWF  FA7
0B1AC:  BSF    FA6.1
0B1AE:  BTFSC  FA6.1
0B1B0:  BRA    B1AE
0B1B2:  BCF    FA6.2
0B1B4:  MOVF   00,W
0B1B6:  IORWF  FF2,F
....................                delay_ms(10); 
0B1B8:  MOVLW  0A
0B1BA:  MOVLB  3
0B1BC:  MOVWF  xE1
0B1BE:  MOVLB  0
0B1C0:  CALL   179C
....................                write_eeprom(27,(int8)Derivativo); 
0B1C4:  CLRF   FAA
0B1C6:  MOVLW  1B
0B1C8:  MOVWF  FA9
0B1CA:  MOVFF  32D,FA8
0B1CE:  BCF    FA6.6
0B1D0:  BCF    FA6.7
0B1D2:  BSF    FA6.2
0B1D4:  MOVF   FF2,W
0B1D6:  MOVWF  00
0B1D8:  BCF    FF2.6
0B1DA:  BCF    FF2.7
0B1DC:  MOVLB  F
0B1DE:  MOVLW  55
0B1E0:  MOVWF  FA7
0B1E2:  MOVLW  AA
0B1E4:  MOVWF  FA7
0B1E6:  BSF    FA6.1
0B1E8:  BTFSC  FA6.1
0B1EA:  BRA    B1E8
0B1EC:  BCF    FA6.2
0B1EE:  MOVF   00,W
0B1F0:  IORWF  FF2,F
....................                delay_ms(10); 
0B1F2:  MOVLW  0A
0B1F4:  MOVLB  3
0B1F6:  MOVWF  xE1
0B1F8:  MOVLB  0
0B1FA:  CALL   179C
....................                write_eeprom(25,(int8)Tciclo); 
0B1FE:  MOVFF  2E3,3E4
0B202:  MOVFF  2E2,3E3
0B206:  MOVFF  2E1,3E2
0B20A:  MOVFF  2E0,3E1
0B20E:  CALL   3BAA
0B212:  MOVFF  01,3CC
0B216:  CLRF   FAA
0B218:  MOVLW  19
0B21A:  MOVWF  FA9
0B21C:  MOVFF  3CC,FA8
0B220:  BCF    FA6.6
0B222:  BCF    FA6.7
0B224:  BSF    FA6.2
0B226:  MOVF   FF2,W
0B228:  MOVWF  00
0B22A:  BCF    FF2.6
0B22C:  BCF    FF2.7
0B22E:  MOVLB  F
0B230:  MOVLW  55
0B232:  MOVWF  FA7
0B234:  MOVLW  AA
0B236:  MOVWF  FA7
0B238:  BSF    FA6.1
0B23A:  BTFSC  FA6.1
0B23C:  BRA    B23A
0B23E:  BCF    FA6.2
0B240:  MOVF   00,W
0B242:  IORWF  FF2,F
....................                delay_ms(10); 
0B244:  MOVLW  0A
0B246:  MOVLB  3
0B248:  MOVWF  xE1
0B24A:  MOVLB  0
0B24C:  CALL   179C
....................                write_eeprom(21,Ajuste); 
0B250:  CLRF   FAA
0B252:  MOVLW  15
0B254:  MOVWF  FA9
0B256:  MOVFF  2D0,FA8
0B25A:  BCF    FA6.6
0B25C:  BCF    FA6.7
0B25E:  BSF    FA6.2
0B260:  MOVF   FF2,W
0B262:  MOVWF  00
0B264:  BCF    FF2.6
0B266:  BCF    FF2.7
0B268:  MOVLB  F
0B26A:  MOVLW  55
0B26C:  MOVWF  FA7
0B26E:  MOVLW  AA
0B270:  MOVWF  FA7
0B272:  BSF    FA6.1
0B274:  BTFSC  FA6.1
0B276:  BRA    B274
0B278:  BCF    FA6.2
0B27A:  MOVF   00,W
0B27C:  IORWF  FF2,F
....................                delay_ms(10); 
0B27E:  MOVLW  0A
0B280:  MOVLB  3
0B282:  MOVWF  xE1
0B284:  MOVLB  0
0B286:  CALL   179C
....................                write_eeprom(22,Ajusten); 
0B28A:  CLRF   FAA
0B28C:  MOVLW  16
0B28E:  MOVWF  FA9
0B290:  MOVFF  2D1,FA8
0B294:  BCF    FA6.6
0B296:  BCF    FA6.7
0B298:  BSF    FA6.2
0B29A:  MOVF   FF2,W
0B29C:  MOVWF  00
0B29E:  BCF    FF2.6
0B2A0:  BCF    FF2.7
0B2A2:  MOVLB  F
0B2A4:  MOVLW  55
0B2A6:  MOVWF  FA7
0B2A8:  MOVLW  AA
0B2AA:  MOVWF  FA7
0B2AC:  BSF    FA6.1
0B2AE:  BTFSC  FA6.1
0B2B0:  BRA    B2AE
0B2B2:  BCF    FA6.2
0B2B4:  MOVF   00,W
0B2B6:  IORWF  FF2,F
....................                delay_ms(10); 
0B2B8:  MOVLW  0A
0B2BA:  MOVLB  3
0B2BC:  MOVWF  xE1
0B2BE:  MOVLB  0
0B2C0:  CALL   179C
....................                write_eeprom(24,(int8)MediaMovil); 
0B2C4:  CLRF   FAA
0B2C6:  MOVLW  18
0B2C8:  MOVWF  FA9
0B2CA:  MOVFF  2D2,FA8
0B2CE:  BCF    FA6.6
0B2D0:  BCF    FA6.7
0B2D2:  BSF    FA6.2
0B2D4:  MOVF   FF2,W
0B2D6:  MOVWF  00
0B2D8:  BCF    FF2.6
0B2DA:  BCF    FF2.7
0B2DC:  MOVLB  F
0B2DE:  MOVLW  55
0B2E0:  MOVWF  FA7
0B2E2:  MOVLW  AA
0B2E4:  MOVWF  FA7
0B2E6:  BSF    FA6.1
0B2E8:  BTFSC  FA6.1
0B2EA:  BRA    B2E8
0B2EC:  BCF    FA6.2
0B2EE:  MOVF   00,W
0B2F0:  IORWF  FF2,F
....................                delay_ms(10); 
0B2F2:  MOVLW  0A
0B2F4:  MOVLB  3
0B2F6:  MOVWF  xE1
0B2F8:  MOVLB  0
0B2FA:  CALL   179C
....................                write_eeprom(32,(int8)RPT100); 
0B2FE:  MOVFF  2AD,3E4
0B302:  MOVFF  2AC,3E3
0B306:  MOVFF  2AB,3E2
0B30A:  MOVFF  2AA,3E1
0B30E:  CALL   3BAA
0B312:  MOVFF  01,3CC
0B316:  CLRF   FAA
0B318:  MOVLW  20
0B31A:  MOVWF  FA9
0B31C:  MOVFF  3CC,FA8
0B320:  BCF    FA6.6
0B322:  BCF    FA6.7
0B324:  BSF    FA6.2
0B326:  MOVF   FF2,W
0B328:  MOVWF  00
0B32A:  BCF    FF2.6
0B32C:  BCF    FF2.7
0B32E:  MOVLB  F
0B330:  MOVLW  55
0B332:  MOVWF  FA7
0B334:  MOVLW  AA
0B336:  MOVWF  FA7
0B338:  BSF    FA6.1
0B33A:  BTFSC  FA6.1
0B33C:  BRA    B33A
0B33E:  BCF    FA6.2
0B340:  MOVF   00,W
0B342:  IORWF  FF2,F
....................                delay_ms(10); 
0B344:  MOVLW  0A
0B346:  MOVLB  3
0B348:  MOVWF  xE1
0B34A:  MOVLB  0
0B34C:  CALL   179C
....................                Temporal=RPT100-((int8)RPT100); 
0B350:  MOVFF  2AD,3E4
0B354:  MOVFF  2AC,3E3
0B358:  MOVFF  2AB,3E2
0B35C:  MOVFF  2AA,3E1
0B360:  CALL   3BAA
0B364:  MOVLB  3
0B366:  CLRF   xE2
0B368:  MOVFF  01,3E1
0B36C:  MOVLB  0
0B36E:  CALL   17C4
0B372:  BSF    FD8.1
0B374:  MOVFF  2AD,3E4
0B378:  MOVFF  2AC,3E3
0B37C:  MOVFF  2AB,3E2
0B380:  MOVFF  2AA,3E1
0B384:  MOVFF  03,3E8
0B388:  MOVFF  02,3E7
0B38C:  MOVFF  01,3E6
0B390:  MOVFF  00,3E5
0B394:  CALL   1958
0B398:  MOVFF  03,2B1
0B39C:  MOVFF  02,2B0
0B3A0:  MOVFF  01,2AF
0B3A4:  MOVFF  00,2AE
....................                Temporal=Temporal*10; 
0B3A8:  MOVFF  2B1,3E8
0B3AC:  MOVFF  2B0,3E7
0B3B0:  MOVFF  2AF,3E6
0B3B4:  MOVFF  2AE,3E5
0B3B8:  MOVLB  3
0B3BA:  CLRF   xEC
0B3BC:  CLRF   xEB
0B3BE:  MOVLW  20
0B3C0:  MOVWF  xEA
0B3C2:  MOVLW  82
0B3C4:  MOVWF  xE9
0B3C6:  MOVLB  0
0B3C8:  CALL   3582
0B3CC:  MOVFF  03,2B1
0B3D0:  MOVFF  02,2B0
0B3D4:  MOVFF  01,2AF
0B3D8:  MOVFF  00,2AE
....................                write_eeprom(33,(int8)Temporal); 
0B3DC:  MOVFF  2B1,3E4
0B3E0:  MOVFF  2B0,3E3
0B3E4:  MOVFF  2AF,3E2
0B3E8:  MOVFF  2AE,3E1
0B3EC:  CALL   3BAA
0B3F0:  MOVFF  01,3CC
0B3F4:  CLRF   FAA
0B3F6:  MOVLW  21
0B3F8:  MOVWF  FA9
0B3FA:  MOVFF  3CC,FA8
0B3FE:  BCF    FA6.6
0B400:  BCF    FA6.7
0B402:  BSF    FA6.2
0B404:  MOVF   FF2,W
0B406:  MOVWF  00
0B408:  BCF    FF2.6
0B40A:  BCF    FF2.7
0B40C:  MOVLB  F
0B40E:  MOVLW  55
0B410:  MOVWF  FA7
0B412:  MOVLW  AA
0B414:  MOVWF  FA7
0B416:  BSF    FA6.1
0B418:  BTFSC  FA6.1
0B41A:  BRA    B418
0B41C:  BCF    FA6.2
0B41E:  MOVF   00,W
0B420:  IORWF  FF2,F
....................                delay_ms(10); 
0B422:  MOVLW  0A
0B424:  MOVLB  3
0B426:  MOVWF  xE1
0B428:  MOVLB  0
0B42A:  CALL   179C
....................                write_eeprom(39,TTrampa); 
0B42E:  CLRF   FAA
0B430:  MOVLW  27
0B432:  MOVWF  FA9
0B434:  MOVFF  2D3,FA8
0B438:  BCF    FA6.6
0B43A:  BCF    FA6.7
0B43C:  BSF    FA6.2
0B43E:  MOVF   FF2,W
0B440:  MOVWF  00
0B442:  BCF    FF2.6
0B444:  BCF    FF2.7
0B446:  MOVLB  F
0B448:  MOVLW  55
0B44A:  MOVWF  FA7
0B44C:  MOVLW  AA
0B44E:  MOVWF  FA7
0B450:  BSF    FA6.1
0B452:  BTFSC  FA6.1
0B454:  BRA    B452
0B456:  BCF    FA6.2
0B458:  MOVF   00,W
0B45A:  IORWF  FF2,F
....................                delay_ms(10); 
0B45C:  MOVLW  0A
0B45E:  MOVLB  3
0B460:  MOVWF  xE1
0B462:  MOVLB  0
0B464:  CALL   179C
....................                GuardaEEPROM=ON; 
0B468:  BSF    xA2.3
....................             } 
....................             printf("page MenuPrincipal"); 
0B46A:  MOVLW  52
0B46C:  MOVWF  FF6
0B46E:  MOVLW  17
0B470:  MOVWF  FF7
0B472:  MOVLW  00
0B474:  MOVWF  FF8
0B476:  CALL   3488
....................             SendDataDisplay(); 
0B47A:  CALL   34BA
....................             //BorraBuffer(); 
....................          } 
....................       } 
....................       printf("fecha.txt=\"Fecha:%02u/%02u/20%02u    Hora: %02u:%02u\"",Dia,Mes,Year,Hora,Minuto); 
0B47E:  MOVLW  66
0B480:  MOVWF  FF6
0B482:  MOVLW  17
0B484:  MOVWF  FF7
0B486:  MOVLW  00
0B488:  MOVWF  FF8
0B48A:  MOVLW  11
0B48C:  MOVLB  3
0B48E:  MOVWF  xD0
0B490:  MOVLB  0
0B492:  CALL   435E
0B496:  MOVFF  374,3CE
0B49A:  MOVLW  01
0B49C:  MOVLB  3
0B49E:  MOVWF  xCF
0B4A0:  MOVLB  0
0B4A2:  CALL   43BC
0B4A6:  MOVLW  2F
0B4A8:  BTFSS  F9E.4
0B4AA:  BRA    B4A8
0B4AC:  MOVWF  FAD
0B4AE:  MOVFF  373,3CE
0B4B2:  MOVLW  01
0B4B4:  MOVLB  3
0B4B6:  MOVWF  xCF
0B4B8:  MOVLB  0
0B4BA:  CALL   43BC
0B4BE:  MOVLW  2F
0B4C0:  BTFSS  F9E.4
0B4C2:  BRA    B4C0
0B4C4:  MOVWF  FAD
0B4C6:  MOVLW  32
0B4C8:  BTFSS  F9E.4
0B4CA:  BRA    B4C8
0B4CC:  MOVWF  FAD
0B4CE:  MOVLW  30
0B4D0:  BTFSS  F9E.4
0B4D2:  BRA    B4D0
0B4D4:  MOVWF  FAD
0B4D6:  MOVFF  372,3CE
0B4DA:  MOVLW  01
0B4DC:  MOVLB  3
0B4DE:  MOVWF  xCF
0B4E0:  MOVLB  0
0B4E2:  CALL   43BC
0B4E6:  MOVLW  87
0B4E8:  MOVWF  FF6
0B4EA:  MOVLW  17
0B4EC:  MOVWF  FF7
0B4EE:  MOVLW  00
0B4F0:  MOVWF  FF8
0B4F2:  MOVLW  0A
0B4F4:  MOVLB  3
0B4F6:  MOVWF  xD0
0B4F8:  MOVLB  0
0B4FA:  CALL   435E
0B4FE:  MOVFF  375,3CE
0B502:  MOVLW  01
0B504:  MOVLB  3
0B506:  MOVWF  xCF
0B508:  MOVLB  0
0B50A:  CALL   43BC
0B50E:  MOVLW  3A
0B510:  BTFSS  F9E.4
0B512:  BRA    B510
0B514:  MOVWF  FAD
0B516:  MOVFF  376,3CE
0B51A:  MOVLW  01
0B51C:  MOVLB  3
0B51E:  MOVWF  xCF
0B520:  MOVLB  0
0B522:  CALL   43BC
0B526:  MOVLW  22
0B528:  BTFSS  F9E.4
0B52A:  BRA    B528
0B52C:  MOVWF  FAD
....................       SendDataDisplay();  
0B52E:  CALL   34BA
0B532:  MOVLB  3
....................     } 
.................... //_--------------------------------------------------------------------------------------------------------------------------------------------------------        
....................  
....................    } 
0B534:  GOTO   5906
.................... } 
0B538:  SLEEP 

Configuration Fuses:
   Word  1: 0200   HS NOIESO NOFCMEN
   Word  2: 1B19   NOBROWNOUT WDT BORV20 NOPUT WDT8192
   Word  3: 0000   NOPBADEN NOLPT1OSC NOMCLR
   Word  4: 00B0   NOSTVREN NODEBUG NOLVP NOXINST BBSIZ4K
   Word  5: C03F   NOPROTECT NOCPD NOCPB
   Word  6: E03F   NOWRT NOWRTD NOWRTC NOWRTB
   Word  7: 403F   NOEBTR NOEBTRB
