CCS PCH C Compiler, Version 4.104, 5967               17-jun.-21 16:10

               Filename: D:\Laboratorio\Autoclave\Autoclave Horizontal\Sin Precamara\2021\Autoclave 55L Rodam #004588613 OP202183\Firmware V4.1.0 - Reservorio-Presion-200Ciclos-Impresora-DobleDisplay\GLCD_Controller_V3.0.1\GLCD_Controller.lst

               ROM used: 61392 bytes (62%)
                         Largest free fragment is 32768
               RAM used: 1115 (34%) at main() level
                         1143 (34%) worst case
               Stack:    5 worst case (4 in main + 1 for interrupts)

*
00000:  GOTO   7C10
*
00008:  GOTO   00BA
0000C:  NOP   
0000E:  NOP   
00010:  NOP   
00012:  NOP   
00014:  NOP   
00016:  NOP   
00018:  MOVWF  04
0001A:  MOVFF  FD8,05
0001E:  MOVFF  FE0,06
00022:  MOVLB  0
00024:  MOVFF  FE9,0C
00028:  MOVFF  FEA,07
0002C:  MOVFF  FE1,08
00030:  MOVFF  FE2,09
00034:  MOVFF  FD9,0A
00038:  MOVFF  FDA,0B
0003C:  MOVFF  FF3,12
00040:  MOVFF  FF4,13
00044:  MOVFF  FFA,14
00048:  MOVFF  FFB,15
0004C:  MOVFF  00,0E
00050:  MOVFF  01,0F
00054:  MOVFF  02,10
00058:  MOVFF  03,11
0005C:  BTFSS  FF2.5
0005E:  GOTO   0068
00062:  BTFSC  FF2.2
00064:  GOTO   03CC
00068:  BTFSS  F9D.0
0006A:  GOTO   0074
0006E:  BTFSC  F9E.0
00070:  GOTO   0424
00074:  MOVFF  0E,00
00078:  MOVFF  0F,01
0007C:  MOVFF  10,02
00080:  MOVFF  11,03
00084:  MOVFF  0C,FE9
00088:  MOVFF  07,FEA
0008C:  BSF    07.7
0008E:  MOVFF  08,FE1
00092:  MOVFF  09,FE2
00096:  MOVFF  0A,FD9
0009A:  MOVFF  0B,FDA
0009E:  MOVFF  12,FF3
000A2:  MOVFF  13,FF4
000A6:  MOVFF  14,FFA
000AA:  MOVFF  15,FFB
000AE:  MOVF   04,W
000B0:  MOVFF  06,FE0
000B4:  MOVFF  05,FD8
000B8:  RETFIE 0
000BA:  MOVWF  17
000BC:  MOVFF  FD8,18
000C0:  MOVFF  FE0,19
000C4:  MOVLB  0
000C6:  MOVFF  FE9,1F
000CA:  MOVFF  FEA,1A
000CE:  MOVFF  FE1,1B
000D2:  MOVFF  FE2,1C
000D6:  MOVFF  FD9,1D
000DA:  MOVFF  FDA,1E
000DE:  MOVFF  FF3,25
000E2:  MOVFF  FF4,26
000E6:  MOVFF  FFA,27
000EA:  MOVFF  FFB,28
000EE:  MOVFF  00,21
000F2:  MOVFF  01,22
000F6:  MOVFF  02,23
000FA:  MOVFF  03,24
000FE:  BTFSS  F9D.5
00100:  GOTO   010A
00104:  BTFSC  F9E.5
00106:  GOTO   035E
0010A:  MOVFF  21,00
0010E:  MOVFF  22,01
00112:  MOVFF  23,02
00116:  MOVFF  24,03
0011A:  MOVFF  1F,FE9
0011E:  MOVFF  1A,FEA
00122:  BSF    1A.7
00124:  MOVFF  1B,FE1
00128:  MOVFF  1C,FE2
0012C:  MOVFF  1D,FD9
00130:  MOVFF  1E,FDA
00134:  MOVFF  25,FF3
00138:  MOVFF  26,FF4
0013C:  MOVFF  27,FFA
00140:  MOVFF  28,FFB
00144:  MOVF   17,W
00146:  MOVFF  19,FE0
0014A:  MOVFF  18,FD8
0014E:  RETFIE 0
.................... //Falta crear menu de ajuste de variables y de norma CFR21 
....................  
.................... #include <18F4685.h> 
.................... //////// Standard Header file for the PIC18F4685 device //////////////// 
.................... #device PIC18F4685 
.................... #list 
....................  
.................... #device adc=10 
.................... #device HIGH_INTS=TRUE //Activamos niveles de prioridad 
.................... #fuses HS,WDT8192,NOPROTECT,NOLVP,NODEBUG,NOSTVREN,PUT,NOCPD,NOWRT,NOIESO,NOFCMEN,NOPBADEN,NOWRTC,NOWRTB,NOEBTR,NOEBTRB,NOCPB,NOXINST,NOLPT1OSC,NOMCLR,NOBROWNOUT,BORV42 
.................... #use delay(clock=20000000) 
*
01B4A:  MOVLW  04
01B4C:  MOVWF  FEA
01B4E:  MOVLW  69
01B50:  MOVWF  FE9
01B52:  MOVF   FEF,W
01B54:  BZ    1B70
01B56:  MOVLW  06
01B58:  MOVWF  01
01B5A:  CLRF   00
01B5C:  DECFSZ 00,F
01B5E:  BRA    1B5C
01B60:  DECFSZ 01,F
01B62:  BRA    1B5A
01B64:  MOVLW  7B
01B66:  MOVWF  00
01B68:  DECFSZ 00,F
01B6A:  BRA    1B68
01B6C:  DECFSZ FEF,F
01B6E:  BRA    1B56
01B70:  RETLW  00
.................... #use i2c(Master,slow,sda=PIN_C4,scl=PIN_C3) 
*
04A00:  MOVLW  08
04A02:  MOVWF  01
04A04:  MOVLW  05
04A06:  MOVWF  00
04A08:  DECFSZ 00,F
04A0A:  BRA    4A08
04A0C:  BCF    F8B.3
04A0E:  BCF    F94.3
04A10:  MOVLW  06
04A12:  MOVWF  00
04A14:  DECFSZ 00,F
04A16:  BRA    4A14
04A18:  MOVLB  4
04A1A:  RLCF   x71,F
04A1C:  BCF    F8B.4
04A1E:  BTFSC  FD8.0
04A20:  BSF    F94.4
04A22:  BTFSS  FD8.0
04A24:  BCF    F94.4
04A26:  BSF    F94.3
04A28:  BTFSS  F82.3
04A2A:  BRA    4A28
04A2C:  DECFSZ 01,F
04A2E:  BRA    4A32
04A30:  BRA    4A36
04A32:  MOVLB  0
04A34:  BRA    4A04
04A36:  MOVLW  05
04A38:  MOVWF  00
04A3A:  DECFSZ 00,F
04A3C:  BRA    4A3A
04A3E:  BCF    F8B.3
04A40:  BCF    F94.3
04A42:  NOP   
04A44:  BSF    F94.4
04A46:  MOVLW  06
04A48:  MOVWF  00
04A4A:  DECFSZ 00,F
04A4C:  BRA    4A4A
04A4E:  MOVLW  06
04A50:  MOVWF  00
04A52:  DECFSZ 00,F
04A54:  BRA    4A52
04A56:  BSF    F94.3
04A58:  BTFSS  F82.3
04A5A:  BRA    4A58
04A5C:  CLRF   01
04A5E:  MOVLW  06
04A60:  MOVWF  00
04A62:  DECFSZ 00,F
04A64:  BRA    4A62
04A66:  BTFSC  F82.4
04A68:  BSF    01.0
04A6A:  BCF    F8B.3
04A6C:  BCF    F94.3
04A6E:  BCF    F8B.4
04A70:  BCF    F94.4
04A72:  MOVLB  0
04A74:  RETLW  00
*
059EC:  MOVLW  08
059EE:  MOVLB  4
059F0:  MOVWF  x59
059F2:  MOVFF  00,45A
059F6:  BSF    F94.4
059F8:  MOVLW  06
059FA:  MOVWF  00
059FC:  DECFSZ 00,F
059FE:  BRA    59FC
05A00:  BSF    F94.3
05A02:  BTFSS  F82.3
05A04:  BRA    5A02
05A06:  BTFSC  F82.4
05A08:  BSF    FD8.0
05A0A:  BTFSS  F82.4
05A0C:  BCF    FD8.0
05A0E:  RLCF   01,F
05A10:  MOVLW  05
05A12:  MOVWF  00
05A14:  DECFSZ 00,F
05A16:  BRA    5A14
05A18:  BCF    F94.3
05A1A:  BCF    F8B.3
05A1C:  DECFSZ x59,F
05A1E:  BRA    59F6
05A20:  BSF    F94.4
05A22:  MOVLW  06
05A24:  MOVWF  00
05A26:  DECFSZ 00,F
05A28:  BRA    5A26
05A2A:  BCF    F8B.4
05A2C:  MOVF   x5A,W
05A2E:  BTFSS  FD8.2
05A30:  BCF    F94.4
05A32:  NOP   
05A34:  BSF    F94.3
05A36:  BTFSS  F82.3
05A38:  BRA    5A36
05A3A:  MOVLW  05
05A3C:  MOVWF  00
05A3E:  DECFSZ 00,F
05A40:  BRA    5A3E
05A42:  BCF    F8B.3
05A44:  BCF    F94.3
05A46:  MOVLW  06
05A48:  MOVWF  00
05A4A:  DECFSZ 00,F
05A4C:  BRA    5A4A
05A4E:  BCF    F8B.4
05A50:  BCF    F94.4
05A52:  MOVLB  0
05A54:  GOTO   5ADA (RETURN)
.................... #use rs232(baud=9600, xmit=PIN_C6, rcv=PIN_C7, bits=8, parity=N) 
*
03CD0:  BTFSS  F9E.4
03CD2:  BRA    3CD0
03CD4:  MOVWF  FAD
03CD6:  RETLW  00
.................... //#include "HDM64GS12.c" 
.................... //#include "GRAPHICS.c" 
.................... ///#include "imagen.h" 
.................... #include <stdio.h> 
.................... /////////////////////////////////////////////////////////////////////////// 
.................... ////        (C) Copyright 1996,2003 Custom Computer Services           //// 
.................... //// This source code may only be used by licensed users of the CCS C  //// 
.................... //// compiler.  This source code may only be distributed to other      //// 
.................... //// licensed users of the CCS C compiler.  No other use, reproduction //// 
.................... //// or distribution is permitted without written permission.          //// 
.................... //// Derivative programs created using this software in object code    //// 
.................... //// form are not restricted in any way.                               //// 
.................... /////////////////////////////////////////////////////////////////////////// 
....................  
.................... #ifndef _STDIO 
.................... #define _STDIO 
.................... #include <string.h> 
.................... //////////////////////////////////////////////////////////////////////////// 
.................... ////        (C) Copyright 1996,2008 Custom Computer Services            //// 
.................... //// This source code may only be used by licensed users of the CCS C   //// 
.................... //// compiler.  This source code may only be distributed to other       //// 
.................... //// licensed users of the CCS C compiler.  No other use, reproduction  //// 
.................... //// or distribution is permitted without written permission.           //// 
.................... //// Derivative programs created using this software in object code     //// 
.................... //// form are not restricted in any way.                                //// 
.................... //////////////////////////////////////////////////////////////////////////// 
....................  
.................... #ifndef _STRING 
.................... #define _STRING 
.................... #include <stddef.h> 
.................... /////////////////////////////////////////////////////////////////////////// 
.................... ////        (C) Copyright 1996,2003 Custom Computer Services           //// 
.................... //// This source code may only be used by licensed users of the CCS C  //// 
.................... //// compiler.  This source code may only be distributed to other      //// 
.................... //// licensed users of the CCS C compiler.  No other use, reproduction //// 
.................... //// or distribution is permitted without written permission.          //// 
.................... //// Derivative programs created using this software in object code    //// 
.................... //// form are not restricted in any way.                               //// 
.................... /////////////////////////////////////////////////////////////////////////// 
....................  
.................... #ifndef _STDDEF 
....................  
.................... #define _STDDEF 
....................  
.................... #if sizeof(unsigned int8 *)==1 
.................... #define ptrdiff_t unsigned int8 
.................... #else 
.................... #define ptrdiff_t unsigned int16 
.................... #endif 
....................  
.................... #define size_t unsigned int8 
.................... #define wchar_t char 
.................... #define NULL 0 
....................  
.................... #define offsetof(s,f) (offsetofbit(s,f)/8) 
....................  
.................... #endif 
....................  
.................... #include <ctype.h> 
.................... //////////////////////////////////////////////////////////////////////////// 
.................... ////        (C) Copyright 1996,2003 Custom Computer Services            //// 
.................... //// This source code may only be used by licensed users of the CCS C   //// 
.................... //// compiler.  This source code may only be distributed to other       //// 
.................... //// licensed users of the CCS C compiler.  No other use, reproduction  //// 
.................... //// or distribution is permitted without written permission.           //// 
.................... //// Derivative programs created using this software in object code     //// 
.................... //// form are not restricted in any way.                                //// 
.................... //////////////////////////////////////////////////////////////////////////// 
....................  
.................... #ifndef _CTYPE 
.................... #define _CTYPE 
....................  
.................... #define islower(x)  isamong(x,"abcdefghijklmnopqrstuvwxyz") 
.................... #define isupper(x)  isamong(x,"ABCDEFGHIJKLMNOPQRSTUVWXYZ") 
.................... #define isalnum(x)  isamong(x,"0123456789ABCDEFGHIJKLMNOPQRSTUVWXYZabcdefghijklmnopqrstuvwxyz") 
.................... #define isalpha(x)  isamong(x,"ABCDEFGHIJKLMNOPQRSTUVWXYZabcdefghijklmnopqrstuvwxyz") 
.................... #define isdigit(x)  isamong(x,"0123456789") 
.................... #define isspace(x)  ((x)==' ') 
.................... #define isxdigit(x) isamong(x,"0123456789ABCDEFabcdef") 
.................... #define iscntrl(x)  ((x)<' ') 
.................... #define isprint(x)  ((x)>=' ') 
.................... #define isgraph(x)  ((x)>' ') 
.................... #define ispunct(x)  (((x)>' ')&&!isalnum(x)) 
....................  
.................... #endif 
....................  
....................  
....................  
....................  
....................  
.................... ////////////////////////////////////////////// 
.................... //// Uncomment the following define to    //// 
.................... //// allow some functions to use a        //// 
.................... //// quicker algorithm, but use more ROM  //// 
.................... ////                                      //// 
.................... //// #define FASTER_BUT_MORE_ROM          //// 
.................... ////////////////////////////////////////////// 
....................  
....................  
....................  
.................... /*Copying functions*/ 
.................... /* standard template: 
....................    void *memmove(void *s1, void *s2, size_t n). 
....................    Copies max of n characters safely (not following ending '\0') 
....................    from s2 in s1; if s2 has less than n characters, appends 0 */ 
....................  
.................... char *memmove(void *s1,char *s2,size_t n) 
.................... { 
....................    char *sc1; 
....................    char *sc2; 
....................    sc1=s1; 
....................    sc2=s2; 
....................    if(sc2<sc1 && sc1 <sc2 +n) 
....................       for(sc1+=n,sc2+=n;0<n;--n) 
....................          *--sc1=*--sc2; 
....................    else 
....................       for(;0<n;--n) 
....................          *sc1++=*sc2++; 
....................   return s1; 
....................   } 
....................  
.................... /* Standard template: char *strcpy(char *s1, const char *s2) 
....................    copies the string s2 including the null character to s1. 
....................    This is a compiler built in to handle the different address 
....................    spaces */ 
....................  
.................... #define strcopy strcpy 
....................  
.................... /* standard template: 
....................    char *strncpy(char *s1, const char *s2, size_t n). 
....................    Copies max of n characters (not following ending '\0') 
....................    from s2 in s1; if s2 has less than n characters, appends 0 */ 
....................  
.................... char *strncpy(char *s1, char *s2, size_t n) 
.................... { 
....................   char *s; 
....................  
....................   for (s = s1; n > 0 && *s2 != '\0'; n--) 
....................      *s++ = *s2++; 
....................   for (; n > 0; n--) 
....................      *s++ = '\0'; 
....................  
....................   return(s1); 
.................... } 
.................... /***********************************************************/ 
....................  
.................... /*concatenation functions*/ 
.................... /* standard template: char *strcat(char *s1, const char *s2) 
.................... appends s2 to s1*/ 
....................  
.................... char *strcat(char *s1, char *s2) 
.................... { 
....................    char *s; 
....................  
....................    for (s = s1; *s != '\0'; ++s); 
....................    while(*s2 != '\0') 
....................    { 
....................       *s = *s2; 
....................       ++s; 
....................       ++s2; 
....................    } 
....................  
....................    *s = '\0'; 
....................    return(s1); 
.................... } 
.................... /* standard template: char *strncat(char *s1, char *s2,size_t n) 
.................... appends not more than n characters from s2 to s1*/ 
....................  
.................... char *strncat(char *s1, char *s2, size_t n) 
.................... { 
....................    char *s; 
....................  
....................    for (s = s1; *s != '\0'; ++s); 
....................    while(*s2 != '\0' && 0<n) 
....................    { 
....................       *s = *s2; 
....................       ++s; 
....................       ++s2; 
....................       --n; 
....................    } 
....................  
....................    *s = '\0'; 
....................    return(s1); 
.................... } 
....................  
.................... /***********************************************************/ 
....................  
....................  
.................... /*comparison functions*/ 
.................... /* standard template: signed int memcmp(void *s1, void *s2). 
....................    Compares s1 & s2; returns -1 if s1<s2, 0 if s1=s2, 1 if s1>s2 */ 
....................  
.................... signed int8 memcmp(void * s1,char *s2,size_t n) 
.................... { 
.................... char *su1, *su2; 
.................... for(su1=s1, su2=s2; 0<n; ++su1, ++su2, --n) 
.................... { 
....................    if(*su1!=*su2) 
....................       return ((*su1<*su2)?-1:+1); 
.................... } 
.................... return 0; 
.................... } 
....................  
.................... /* standard template: int strcmp(const char *s1, const char *s2). 
....................    Compares s1 & s2; returns -1 if s1<s2, 0 if s1=s2, 1 if s1>s2 */ 
....................  
.................... signed int8 strcmp(char *s1, char *s2) 
.................... { 
....................    for (; *s1 == *s2; s1++, s2++) 
....................       if (*s1 == '\0') 
....................          return(0); 
....................    return((*s1 < *s2) ? -1: 1); 
.................... } 
.................... /* standard template: int strcoll(const char *s1, const char *s2). 
....................    Compares s1 & s2; returns -1 if s1<s2, 0 if s1=s2, 1 if s1>s2 */ 
....................  
.................... signed int8 strcoll(char *s1, char *s2) 
.................... { 
....................    for (; *s1 == *s2; s1++, s2++) 
....................       if (*s1 == '\0') 
....................          return(0); 
....................    return((*s1 < *s2) ? -1: 1); 
.................... } 
....................  
.................... /* standard template: 
....................    int strncmp(const char *s1, const char *s2, size_t n). 
....................    Compares max of n characters (not following 0) from s1 to s2; 
....................    returns same as strcmp */ 
....................  
.................... signed int8 strncmp(char *s1, char *s2, size_t n) 
.................... { 
....................    for (; n > 0; s1++, s2++, n--) 
....................       if (*s1 != *s2) 
....................          return((*s1 <*s2) ? -1: 1); 
....................       else if (*s1 == '\0') 
....................          return(0); 
....................    return(0); 
.................... } 
.................... /* standard template: 
....................    int strxfrm(const char *s1, const char *s2, size_t n). 
....................    transforms maximum of n characters from s2 and places them into s1*/ 
.................... size_t strxfrm(char *s1, char *s2, size_t n) 
.................... { 
....................   char *s; 
....................   unsigned int8 n1; 
....................   n1=n; 
....................   for (s = s1; n > 0 && *s2 != '\0'; n--) 
....................      *s++ = *s2++; 
....................   for (; n > 0; n--) 
....................      *s++ = '\0'; 
....................  
....................   return(n1); 
.................... } 
....................  
....................  
....................  
....................  
....................  
.................... /***********************************************************/ 
.................... /*Search functions*/ 
.................... /* standard template: void *memchr(const char *s, int c). 
....................    Finds first occurrence of c in n characters of s */ 
....................  
.................... char *memchr(void *s,unsigned int8 c,size_t n) 
.................... { 
....................    char uc; 
....................    char *su; 
....................    uc=c; 
....................    for(su=s;0<n;++su,--n) 
....................       if(*su==uc) 
....................       return su; 
....................    return NULL; 
.................... } 
....................  
.................... /* standard template: char *strchr(const char *s, int c). 
....................    Finds first occurrence of c in s */ 
....................  
.................... char *strchr(char *s, unsigned int8 c) 
.................... { 
....................    for (; *s != c; s++) 
....................       if (*s == '\0') 
....................          return(0); 
....................    return(s); 
.................... } 
.................... /* standard template: 
....................    size_t strcspn(const char *s1, const char *s2). 
....................    Computes length of max initial segment of s1 that 
....................    consists entirely of characters NOT from s2*/ 
....................  
.................... unsigned int8  strcspn(char *s1, char *s2) 
.................... { 
....................    char *sc1, *sc2; 
....................  
....................    for (sc1 = s1; *sc1 != 0; sc1++) 
....................       for (sc2 = s2; *sc2 != 0; sc2++) 
....................          if (*sc1 == *sc2) 
....................             return(sc1 - s1); 
....................    return(sc1 - s1); 
.................... } 
.................... /* standard template: 
....................    char *strpbrk(const char *s1, const char *s2). 
....................    Locates first occurence of any character from s2 in s1; 
....................    returns s1 if s2 is empty string */ 
....................  
.................... char *strpbrk(char *s1, char *s2) 
.................... { 
....................    char *sc1, *sc2; 
....................  
....................    for (sc1 = s1; *sc1 != 0; sc1++) 
....................       for (sc2 = s2; *sc2 != 0; sc2++) 
....................          if (*sc1 == *sc2) 
....................             return(sc1); 
....................    return(0); 
.................... } 
....................  
....................  
.................... /* standard template: char *strrchr(const char *s, int c). 
....................    Finds last occurrence of c in s */ 
....................  
.................... char *strrchr(char *s, unsigned int8 c) 
.................... { 
....................    char *p; 
....................  
....................    for (p = 0; ; s++) 
....................    { 
....................       if (*s == c) 
....................          p = s; 
....................       if (*s == '\0') 
....................          return(p); 
....................    } 
.................... } 
.................... /* computes length of max initial segment of s1 consisting 
....................    entirely of characters from s2 */ 
....................  
.................... unsigned int8  strspn(char *s1, char *s2) 
.................... { 
....................    char *sc1, *sc2; 
....................  
....................    for (sc1 = s1; *sc1 != 0; sc1++) 
....................       for (sc2 = s2; ; sc2++) 
....................     if (*sc2 == '\0') 
....................        return(sc1 - s1); 
....................          else if (*sc1 == *sc2) 
....................             break; 
....................    return(sc1 - s1); 
.................... } 
.................... /* standard template: 
....................    char *strstr(const char *s1, const char *s2); 
....................    Locates first occurence of character sequence s2 in s1; 
....................    returns 0 if s2 is empty string 
....................  
....................    Uncomment #define FASTER_BUT_MORE_ROM at the top of the 
....................    file to use the faster algorithm */ 
.................... char *strstr(char *s1, char *s2) 
.................... { 
....................    char *s, *t; 
....................  
....................    #ifdef FASTER_BUT_MORE_ROM 
....................    if (*s2 == '\0') 
....................          return(s1); 
....................    #endif 
....................  
....................    while (*s1) 
....................    { 
....................       for(s = s1, t = s2; *t && (*s == *t); ++s, ++t); 
....................  
....................       if (*t == '\0') 
....................          return s1; 
....................       ++s1; 
....................       #ifdef FASTER_BUT_MORE_ROM 
....................          while(*s1 != '\0' && *s1 != *s2) 
....................             ++s1; 
....................       #endif 
....................    } 
....................    return 0; 
.................... } 
....................  
.................... /* standard template: char *strtok(char *s1, const char *s2). 
....................  
....................    Finds next token in s1 delimited by a character from separator 
....................    string s2 (which can be different from call to call).  First call 
....................    starts at beginning of s1 searching for first character NOT 
....................    contained in s2; returns 0 if none is found. 
....................    If one is found, it is the start of first token (return value). 
....................    Function then searches from there for a character contained in s2. 
....................    If none is found, current token extends to end of s1, and subsequent 
....................    searches for a token will return 0.  If one is found, it is 
....................    overwritten by '\0', which terminates current token.  Function saves 
....................    pointer to following character from which next search will start. 
....................    Each subsequent call, with 0 as first argument, starts searching 
....................    from saved pointer */ 
....................  
.................... char *strtok(char *s1, char *s2) 
.................... { 
....................    char *beg, *end; 
....................    static char *save; 
....................  
....................    beg = (s1)? s1: save; 
....................    beg += strspn(beg, s2); 
....................    if (*beg == '\0') 
....................    { 
....................       *save = ' '; 
....................       return(0); 
....................    } 
....................    end = strpbrk(beg, s2); 
....................    if (*end != '\0') 
....................    { 
....................       *end = '\0'; 
....................       end++; 
....................    } 
....................    save = end; 
....................    return(beg); 
.................... } 
....................  
.................... /*****************************************************************/ 
.................... /*Miscellaneous functions*/ 
.................... /* standard template 
.................... maps error number in errnum to an error message string 
.................... Returns: Pointer to string 
.................... */ 
.................... #ifdef _ERRNO 
.................... char * strerror(unsigned int8 errnum) 
.................... { 
.................... char s[15]; 
.................... switch( errnum) 
.................... { 
.................... case 0: 
....................    strcpy(s,"no errors"); 
....................    return s; 
.................... case EDOM : 
....................    strcpy(s,"domain error"); 
....................    return s; 
.................... case ERANGE: 
....................    strcpy(s,"range error"); 
....................    return s; 
.................... } 
.................... } 
.................... #ENDIF 
.................... /* standard template: size_t strlen(const char *s). 
....................    Computes length of s1 (preceding terminating 0) */ 
....................  
.................... unsigned int8 strlen(char *s) 
.................... { 
....................    char *sc; 
....................  
....................    for (sc = s; *sc != 0; sc++); 
....................    return(sc - s); 
.................... } 
....................  
.................... /* standard template: size_t stricmp(const char *s1, const char *s2). 
....................    Compares s1 to s2 ignoring case (upper vs. lower) */ 
....................  
.................... signed int8 stricmp(char *s1, char *s2) 
.................... { 
....................  for(; *s1==*s2||(isalpha(*s1)&&isalpha(*s2)&&(*s1==*s2+32||*s2==*s1+32)); 
....................     s1++, s2++) 
....................     if (*s1 == '\0') 
....................        return(0); 
....................  return((*s1 < *s2) ? -1: 1); 
.................... } 
....................  
....................  
.................... /* standard template: char *strlwr(char *s). 
....................    Replaces uppercase letters by lowercase; 
....................    returns pointer to new string s */ 
....................  
.................... char *strlwr(char *s) 
.................... { 
....................    char *p; 
....................  
....................    for (p = s; *p != '\0'; p++) 
....................       if (*p >= 'A' && *p <='Z') 
....................          *p += 'a' - 'A'; 
....................    return(s); 
.................... } 
....................  
....................  
.................... /************************************************************/ 
....................  
....................  
.................... #endif 
....................  
.................... #ifndef getc 
.................... #define getc getch 
.................... #define getchar getch 
.................... #define puts(s) {printf(s); putchar(13); putchar(10);} 
.................... #define putc putchar 
.................... #endif 
.................... /* maps error number to an error message. Writes a sequence of characters to 
.................... stderr stream thus: if s is not null then string pointed to by s follwed by 
.................... a colon (:) and a space and the appropriate error message returned by strerror 
.................... function with argument errno 
....................  
.................... Returns: no value 
.................... */ 
....................  
.................... #ifdef _ERRNO 
.................... void perror(char *s) 
.................... { 
....................   if(s) 
....................   fprintf(STDERR,"%s: ",s); 
....................   fprintf(STDERR,"%s\r\n",strerror(errno)); 
.................... } 
.................... #endif 
.................... #endif 
....................  
.................... #include <string.h> 
.................... //////////////////////////////////////////////////////////////////////////// 
.................... ////        (C) Copyright 1996,2008 Custom Computer Services            //// 
.................... //// This source code may only be used by licensed users of the CCS C   //// 
.................... //// compiler.  This source code may only be distributed to other       //// 
.................... //// licensed users of the CCS C compiler.  No other use, reproduction  //// 
.................... //// or distribution is permitted without written permission.           //// 
.................... //// Derivative programs created using this software in object code     //// 
.................... //// form are not restricted in any way.                                //// 
.................... //////////////////////////////////////////////////////////////////////////// 
....................  
.................... #ifndef _STRING 
.................... #define _STRING 
.................... #include <stddef.h> 
.................... #include <ctype.h> 
....................  
....................  
....................  
.................... ////////////////////////////////////////////// 
.................... //// Uncomment the following define to    //// 
.................... //// allow some functions to use a        //// 
.................... //// quicker algorithm, but use more ROM  //// 
.................... ////                                      //// 
.................... //// #define FASTER_BUT_MORE_ROM          //// 
.................... ////////////////////////////////////////////// 
....................  
....................  
....................  
.................... /*Copying functions*/ 
.................... /* standard template: 
....................    void *memmove(void *s1, void *s2, size_t n). 
....................    Copies max of n characters safely (not following ending '\0') 
....................    from s2 in s1; if s2 has less than n characters, appends 0 */ 
....................  
.................... char *memmove(void *s1,char *s2,size_t n) 
.................... { 
....................    char *sc1; 
....................    char *sc2; 
....................    sc1=s1; 
....................    sc2=s2; 
....................    if(sc2<sc1 && sc1 <sc2 +n) 
....................       for(sc1+=n,sc2+=n;0<n;--n) 
....................          *--sc1=*--sc2; 
....................    else 
....................       for(;0<n;--n) 
....................          *sc1++=*sc2++; 
....................   return s1; 
....................   } 
....................  
.................... /* Standard template: char *strcpy(char *s1, const char *s2) 
....................    copies the string s2 including the null character to s1. 
....................    This is a compiler built in to handle the different address 
....................    spaces */ 
....................  
.................... #define strcopy strcpy 
....................  
.................... /* standard template: 
....................    char *strncpy(char *s1, const char *s2, size_t n). 
....................    Copies max of n characters (not following ending '\0') 
....................    from s2 in s1; if s2 has less than n characters, appends 0 */ 
....................  
.................... char *strncpy(char *s1, char *s2, size_t n) 
.................... { 
....................   char *s; 
....................  
....................   for (s = s1; n > 0 && *s2 != '\0'; n--) 
....................      *s++ = *s2++; 
....................   for (; n > 0; n--) 
....................      *s++ = '\0'; 
....................  
....................   return(s1); 
.................... } 
.................... /***********************************************************/ 
....................  
.................... /*concatenation functions*/ 
.................... /* standard template: char *strcat(char *s1, const char *s2) 
.................... appends s2 to s1*/ 
....................  
.................... char *strcat(char *s1, char *s2) 
.................... { 
....................    char *s; 
....................  
....................    for (s = s1; *s != '\0'; ++s); 
....................    while(*s2 != '\0') 
....................    { 
....................       *s = *s2; 
....................       ++s; 
....................       ++s2; 
....................    } 
....................  
....................    *s = '\0'; 
....................    return(s1); 
.................... } 
.................... /* standard template: char *strncat(char *s1, char *s2,size_t n) 
.................... appends not more than n characters from s2 to s1*/ 
....................  
.................... char *strncat(char *s1, char *s2, size_t n) 
.................... { 
....................    char *s; 
....................  
....................    for (s = s1; *s != '\0'; ++s); 
....................    while(*s2 != '\0' && 0<n) 
....................    { 
....................       *s = *s2; 
....................       ++s; 
....................       ++s2; 
....................       --n; 
....................    } 
....................  
....................    *s = '\0'; 
....................    return(s1); 
.................... } 
....................  
.................... /***********************************************************/ 
....................  
....................  
.................... /*comparison functions*/ 
.................... /* standard template: signed int memcmp(void *s1, void *s2). 
....................    Compares s1 & s2; returns -1 if s1<s2, 0 if s1=s2, 1 if s1>s2 */ 
....................  
.................... signed int8 memcmp(void * s1,char *s2,size_t n) 
.................... { 
.................... char *su1, *su2; 
.................... for(su1=s1, su2=s2; 0<n; ++su1, ++su2, --n) 
.................... { 
....................    if(*su1!=*su2) 
....................       return ((*su1<*su2)?-1:+1); 
.................... } 
.................... return 0; 
.................... } 
....................  
.................... /* standard template: int strcmp(const char *s1, const char *s2). 
....................    Compares s1 & s2; returns -1 if s1<s2, 0 if s1=s2, 1 if s1>s2 */ 
....................  
.................... signed int8 strcmp(char *s1, char *s2) 
.................... { 
....................    for (; *s1 == *s2; s1++, s2++) 
....................       if (*s1 == '\0') 
....................          return(0); 
....................    return((*s1 < *s2) ? -1: 1); 
.................... } 
.................... /* standard template: int strcoll(const char *s1, const char *s2). 
....................    Compares s1 & s2; returns -1 if s1<s2, 0 if s1=s2, 1 if s1>s2 */ 
....................  
.................... signed int8 strcoll(char *s1, char *s2) 
.................... { 
....................    for (; *s1 == *s2; s1++, s2++) 
....................       if (*s1 == '\0') 
....................          return(0); 
....................    return((*s1 < *s2) ? -1: 1); 
.................... } 
....................  
.................... /* standard template: 
....................    int strncmp(const char *s1, const char *s2, size_t n). 
....................    Compares max of n characters (not following 0) from s1 to s2; 
....................    returns same as strcmp */ 
....................  
.................... signed int8 strncmp(char *s1, char *s2, size_t n) 
.................... { 
....................    for (; n > 0; s1++, s2++, n--) 
....................       if (*s1 != *s2) 
....................          return((*s1 <*s2) ? -1: 1); 
....................       else if (*s1 == '\0') 
....................          return(0); 
....................    return(0); 
.................... } 
.................... /* standard template: 
....................    int strxfrm(const char *s1, const char *s2, size_t n). 
....................    transforms maximum of n characters from s2 and places them into s1*/ 
.................... size_t strxfrm(char *s1, char *s2, size_t n) 
.................... { 
....................   char *s; 
....................   unsigned int8 n1; 
....................   n1=n; 
....................   for (s = s1; n > 0 && *s2 != '\0'; n--) 
....................      *s++ = *s2++; 
....................   for (; n > 0; n--) 
....................      *s++ = '\0'; 
....................  
....................   return(n1); 
.................... } 
....................  
....................  
....................  
....................  
....................  
.................... /***********************************************************/ 
.................... /*Search functions*/ 
.................... /* standard template: void *memchr(const char *s, int c). 
....................    Finds first occurrence of c in n characters of s */ 
....................  
.................... char *memchr(void *s,unsigned int8 c,size_t n) 
.................... { 
....................    char uc; 
....................    char *su; 
....................    uc=c; 
....................    for(su=s;0<n;++su,--n) 
....................       if(*su==uc) 
....................       return su; 
....................    return NULL; 
.................... } 
....................  
.................... /* standard template: char *strchr(const char *s, int c). 
....................    Finds first occurrence of c in s */ 
....................  
.................... char *strchr(char *s, unsigned int8 c) 
.................... { 
....................    for (; *s != c; s++) 
....................       if (*s == '\0') 
....................          return(0); 
....................    return(s); 
.................... } 
.................... /* standard template: 
....................    size_t strcspn(const char *s1, const char *s2). 
....................    Computes length of max initial segment of s1 that 
....................    consists entirely of characters NOT from s2*/ 
....................  
.................... unsigned int8  strcspn(char *s1, char *s2) 
.................... { 
....................    char *sc1, *sc2; 
....................  
....................    for (sc1 = s1; *sc1 != 0; sc1++) 
....................       for (sc2 = s2; *sc2 != 0; sc2++) 
....................          if (*sc1 == *sc2) 
....................             return(sc1 - s1); 
....................    return(sc1 - s1); 
.................... } 
.................... /* standard template: 
....................    char *strpbrk(const char *s1, const char *s2). 
....................    Locates first occurence of any character from s2 in s1; 
....................    returns s1 if s2 is empty string */ 
....................  
.................... char *strpbrk(char *s1, char *s2) 
.................... { 
....................    char *sc1, *sc2; 
....................  
....................    for (sc1 = s1; *sc1 != 0; sc1++) 
....................       for (sc2 = s2; *sc2 != 0; sc2++) 
....................          if (*sc1 == *sc2) 
....................             return(sc1); 
....................    return(0); 
.................... } 
....................  
....................  
.................... /* standard template: char *strrchr(const char *s, int c). 
....................    Finds last occurrence of c in s */ 
....................  
.................... char *strrchr(char *s, unsigned int8 c) 
.................... { 
....................    char *p; 
....................  
....................    for (p = 0; ; s++) 
....................    { 
....................       if (*s == c) 
....................          p = s; 
....................       if (*s == '\0') 
....................          return(p); 
....................    } 
.................... } 
.................... /* computes length of max initial segment of s1 consisting 
....................    entirely of characters from s2 */ 
....................  
.................... unsigned int8  strspn(char *s1, char *s2) 
.................... { 
....................    char *sc1, *sc2; 
....................  
....................    for (sc1 = s1; *sc1 != 0; sc1++) 
....................       for (sc2 = s2; ; sc2++) 
....................     if (*sc2 == '\0') 
....................        return(sc1 - s1); 
....................          else if (*sc1 == *sc2) 
....................             break; 
....................    return(sc1 - s1); 
.................... } 
.................... /* standard template: 
....................    char *strstr(const char *s1, const char *s2); 
....................    Locates first occurence of character sequence s2 in s1; 
....................    returns 0 if s2 is empty string 
....................  
....................    Uncomment #define FASTER_BUT_MORE_ROM at the top of the 
....................    file to use the faster algorithm */ 
.................... char *strstr(char *s1, char *s2) 
.................... { 
....................    char *s, *t; 
....................  
....................    #ifdef FASTER_BUT_MORE_ROM 
....................    if (*s2 == '\0') 
....................          return(s1); 
....................    #endif 
....................  
....................    while (*s1) 
....................    { 
....................       for(s = s1, t = s2; *t && (*s == *t); ++s, ++t); 
....................  
....................       if (*t == '\0') 
....................          return s1; 
....................       ++s1; 
....................       #ifdef FASTER_BUT_MORE_ROM 
....................          while(*s1 != '\0' && *s1 != *s2) 
....................             ++s1; 
....................       #endif 
....................    } 
....................    return 0; 
.................... } 
....................  
.................... /* standard template: char *strtok(char *s1, const char *s2). 
....................  
....................    Finds next token in s1 delimited by a character from separator 
....................    string s2 (which can be different from call to call).  First call 
....................    starts at beginning of s1 searching for first character NOT 
....................    contained in s2; returns 0 if none is found. 
....................    If one is found, it is the start of first token (return value). 
....................    Function then searches from there for a character contained in s2. 
....................    If none is found, current token extends to end of s1, and subsequent 
....................    searches for a token will return 0.  If one is found, it is 
....................    overwritten by '\0', which terminates current token.  Function saves 
....................    pointer to following character from which next search will start. 
....................    Each subsequent call, with 0 as first argument, starts searching 
....................    from saved pointer */ 
....................  
.................... char *strtok(char *s1, char *s2) 
.................... { 
....................    char *beg, *end; 
....................    static char *save; 
....................  
....................    beg = (s1)? s1: save; 
....................    beg += strspn(beg, s2); 
....................    if (*beg == '\0') 
....................    { 
....................       *save = ' '; 
....................       return(0); 
....................    } 
....................    end = strpbrk(beg, s2); 
....................    if (*end != '\0') 
....................    { 
....................       *end = '\0'; 
....................       end++; 
....................    } 
....................    save = end; 
....................    return(beg); 
.................... } 
....................  
.................... /*****************************************************************/ 
.................... /*Miscellaneous functions*/ 
.................... /* standard template 
.................... maps error number in errnum to an error message string 
.................... Returns: Pointer to string 
.................... */ 
.................... #ifdef _ERRNO 
.................... char * strerror(unsigned int8 errnum) 
.................... { 
.................... char s[15]; 
.................... switch( errnum) 
.................... { 
.................... case 0: 
....................    strcpy(s,"no errors"); 
....................    return s; 
.................... case EDOM : 
....................    strcpy(s,"domain error"); 
....................    return s; 
.................... case ERANGE: 
....................    strcpy(s,"range error"); 
....................    return s; 
.................... } 
.................... } 
.................... #ENDIF 
.................... /* standard template: size_t strlen(const char *s). 
....................    Computes length of s1 (preceding terminating 0) */ 
....................  
.................... unsigned int8 strlen(char *s) 
.................... { 
....................    char *sc; 
....................  
....................    for (sc = s; *sc != 0; sc++); 
....................    return(sc - s); 
.................... } 
....................  
.................... /* standard template: size_t stricmp(const char *s1, const char *s2). 
....................    Compares s1 to s2 ignoring case (upper vs. lower) */ 
....................  
.................... signed int8 stricmp(char *s1, char *s2) 
.................... { 
....................  for(; *s1==*s2||(isalpha(*s1)&&isalpha(*s2)&&(*s1==*s2+32||*s2==*s1+32)); 
....................     s1++, s2++) 
....................     if (*s1 == '\0') 
....................        return(0); 
....................  return((*s1 < *s2) ? -1: 1); 
.................... } 
....................  
....................  
.................... /* standard template: char *strlwr(char *s). 
....................    Replaces uppercase letters by lowercase; 
....................    returns pointer to new string s */ 
....................  
.................... char *strlwr(char *s) 
.................... { 
....................    char *p; 
....................  
....................    for (p = s; *p != '\0'; p++) 
....................       if (*p >= 'A' && *p <='Z') 
....................          *p += 'a' - 'A'; 
....................    return(s); 
.................... } 
....................  
....................  
.................... /************************************************************/ 
....................  
....................  
.................... #endif 
....................  
.................... #include <stdlib.h> 
.................... /////////////////////////////////////////////////////////////////////////// 
.................... ////        (C) Copyright 1996,2007 Custom Computer Services           //// 
.................... //// This source code may only be used by licensed users of the CCS C  //// 
.................... //// compiler.  This source code may only be distributed to other      //// 
.................... //// licensed users of the CCS C compiler.  No other use, reproduction //// 
.................... //// or distribution is permitted without written permission.          //// 
.................... //// Derivative programs created using this software in object code    //// 
.................... //// form are not restricted in any way.                               //// 
.................... /////////////////////////////////////////////////////////////////////////// 
....................  
.................... #ifndef _STDLIB 
.................... #define _STDLIB 
....................  
.................... //--------------------------------------------------------------------------- 
.................... // Definitions and types 
.................... //--------------------------------------------------------------------------- 
....................  
.................... #ifndef RAND_MAX 
.................... #define RAND_MAX  32767    // The value of which is the maximum value 
....................                            // ... returned by the rand function 
.................... #endif 
....................  
....................  
.................... #IF (sizeof(int16*)>1) 
.................... #DEFINE LONG_POINTERS 1 
.................... #ELSE  
.................... #DEFINE LONG_POINTERS 0 
.................... #ENDIF 
....................  
.................... typedef struct { 
....................    signed int quot; 
....................    signed int rem; 
.................... } div_t; 
....................  
.................... typedef struct { 
....................    signed long quot; 
....................    signed long rem; 
.................... } ldiv_t; 
....................  
.................... #include <stddef.h> 
.................... /////////////////////////////////////////////////////////////////////////// 
.................... ////        (C) Copyright 1996,2003 Custom Computer Services           //// 
.................... //// This source code may only be used by licensed users of the CCS C  //// 
.................... //// compiler.  This source code may only be distributed to other      //// 
.................... //// licensed users of the CCS C compiler.  No other use, reproduction //// 
.................... //// or distribution is permitted without written permission.          //// 
.................... //// Derivative programs created using this software in object code    //// 
.................... //// form are not restricted in any way.                               //// 
.................... /////////////////////////////////////////////////////////////////////////// 
....................  
.................... #ifndef _STDDEF 
....................  
.................... #define _STDDEF 
....................  
.................... #if sizeof(unsigned int8 *)==1 
.................... #define ptrdiff_t unsigned int8 
.................... #else 
.................... #define ptrdiff_t unsigned int16 
.................... #endif 
....................  
.................... #define size_t unsigned int8 
.................... #define wchar_t char 
.................... #define NULL 0 
....................  
.................... #define offsetof(s,f) (offsetofbit(s,f)/8) 
....................  
.................... #endif 
....................  
....................  
.................... //--------------------------------------------------------------------------- 
.................... // String conversion functions 
.................... //--------------------------------------------------------------------------- 
....................  
.................... /* Standard template: signed int  atoi(char * s) 
....................  * converts the initial portion of the string s to a signed int 
....................  * returns the converted value if any, 0 otherwise 
....................  */ 
.................... signed int atoi(char *s); 
....................  
.................... /* Syntax: signed int32  atoi32(char * s) 
....................    converts the initial portion of the string s to a signed int32 
....................    returns the converted value if any, 0 otherwise*/ 
.................... #if (sizeof(long)==4) 
....................  #define atoi32(s) atol(s) 
.................... #else  
....................  signed int32 atoi32(char *s); 
.................... #endif 
....................  
.................... #if defined(__PCD__) 
.................... // The following functions only work on the 24 bit compiler 
.................... // for the 30F, 33F, 24F and 24H parts 
.................... /* Syntax: signed int48  atoi48(char * s) 
....................    converts the initial portion of the string s to a signed int48 
....................    returns the converted value if any, 0 otherwise*/ 
....................     
.................... signed int48 atoi48(char *s); 
....................  
.................... /* Syntax: signed int64  atoi64(char * s) 
....................    converts the initial portion of the string s to a signed int64 
....................    returns the converted value if any, 0 otherwise*/ 
.................... signed int64 atoi64(char *s); 
.................... #endif 
....................  
.................... /* Syntax: char *  itoa(signed int32 num, int8 base, char * s) 
....................    converts the signed int32 to a string and 
....................    returns the converted value if any, 0 otherwise*/ 
.................... char * itoa(signed int32 num, unsigned int base, char * s); 
....................  
.................... /* Standard template: signed int16  atol(char * s) 
....................  * converts the initial portion of the string s to a signed int16 
....................  * returns the converted value if any, 0 otherwise 
....................  */ 
.................... signed long atol(char *s); 
....................  
.................... /* Standard template: int16 strtoul(char * s,char *endptr,signed int base) 
....................  * converts the initial portion of the string s, represented as an 
....................  * integral value of radix base  to a signed long. 
....................  * Returns the converted value if any, 0 otherwise 
....................  * the final string is returned in the endptr, if endptr is not null 
....................  */ 
.................... signed long strtol(char *s,char *endptr, signed int base); 
....................  
.................... /* Standard template: int16 strtoul(char * s,char *endptr,signed int base) 
....................  * converts the initial portion of the string s, represented as an 
....................  * integral value of radix base to a unsigned long. 
....................  * returns the converted value if any, 0 otherwise 
....................  * the final string is returned in the endptr, if endptr is not null 
....................  */ 
.................... unsigned long strtoul(char *s,char *endptr, signed int base); 
....................  
.................... /* Standart template: float strtof(char * s,char *endptr) 
....................                       float48 strtof48(char *s,char *endptr); 
....................                       float64 strtod(char *s,char *endptr); 
....................  * converts the initial portion of the string s to a float32, float48 or float64, 
....................  * returns the converted value if any, 0 otherwise 
....................  * the final string is returned in the endptr, if endptr is not null                    
.................... */ 
.................... float strtof(char *s,char *endptr); 
.................... #if defined(__PCD__) 
.................... float48 strtof48(char *s,char *endptr); 
.................... float64 strtod(char *s,char *endptr); 
.................... #else 
.................... //provided for compatibility 
.................... #define strtof48(s, e) strtof(s, e) 
.................... #define strtod(s, e) strtof(s, e) 
.................... #endif 
....................  
.................... /* Standard template: float32 atof(char * s) 
....................  * converts the initial portion of the string s to a float. 
....................  * returns the converted value if any, 0 otherwise 
....................  */ 
.................... #define atof(s)   strtof(s, 0) 
....................  
.................... #if defined(__PCD__) 
.................... // The following functions only work on the 24 bit compiler 
.................... // for the 30F, 33F, 24F and 24H parts 
....................  
.................... /* Standard template: float48 atof48(char * s) 
....................  * converts the initial portion of the string s to a float. 
....................  * returns the converted value if any, 0 otherwise 
....................  */ 
.................... #define atof48(s) strtof48(s, 0) 
....................  
.................... /* Standard template: float64 atof64(char * s) 
....................  * converts the initial portion of the string s to a float. 
....................  * returns the converted value if any, 0 otherwise 
....................  */ 
.................... #define atof64(s) strtod(s, 0) 
.................... #endif 
....................  
.................... /* Standard template: float32 atoe(char * s) 
....................  * converts the initial portion of the string s to a float. 
....................  * returns the converted value if any, 0 otherwise 
....................  * also handles E format numbers 
....................  */ 
.................... #if !defined(__PCD__) 
.................... float atoe(char * s); 
.................... #endif 
....................  
.................... #if defined(__PCD__) 
.................... float32 atoe(char * s); 
.................... #endif 
....................  
.................... //--------------------------------------------------------------------------- 
.................... // Pseudo-random sequence generation functions 
.................... //--------------------------------------------------------------------------- 
....................  
.................... /* The rand function computes a sequence of pseudo-random integers in 
....................  * the range 0 to RAND_MAX 
....................  * 
....................  * Parameters: 
....................  *       (none) 
....................  * 
....................  * Returns: 
....................  *       The pseudo-random integer 
....................  */ 
.................... unsigned int16 rand(void); 
....................  
.................... /* The srand function uses the argument as a seed for a new sequence of 
....................  * pseudo-random numbers to be returned by subsequent calls to rand. 
....................  * 
....................  * Parameters: 
....................  *       [in] seed: The seed value to start from. You might need to pass 
....................  * 
....................  * Returns: 
....................  *       (none) 
....................  * 
....................  * Remarks 
....................  *          The srand function sets the starting point for generating 
....................  *       a series of pseudorandom integers. To reinitialize the 
....................  *       generator, use 1 as the seed argument. Any other value for 
....................  *       seed sets the generator to a random starting point. rand 
....................  *       retrieves the pseudorandom numbers that are generated. 
....................  *       Calling rand before any call to srand generates the same 
....................  *       sequence as calling srand with seed passed as 1. 
....................  *          Usually, you need to pass a time here from outer source 
....................  *       so that the numbers will be different every time you run. 
....................  */ 
.................... void srand(unsigned int32 seed); 
....................  
.................... //--------------------------------------------------------------------------- 
.................... // Memory management functions 
.................... //--------------------------------------------------------------------------- 
....................  
.................... // Comming soon 
....................  
.................... //--------------------------------------------------------------------------- 
.................... // Communication with the environment 
.................... //--------------------------------------------------------------------------- 
....................  
.................... /* The function returns 0 always 
....................  */ 
.................... signed int8 system(char *string); 
....................  
.................... //--------------------------------------------------------------------------- 
.................... // Searching and sorting utilities 
.................... //--------------------------------------------------------------------------- 
....................  
.................... /* Performs a binary search of a sorted array.. 
....................  * 
....................  * Parameters: 
....................  *       [in] key: Object to search for 
....................  *       [in] base: Pointer to base of search data 
....................  *       [in] num: Number of elements 
....................  *       [in] width: Width of elements 
....................  *       [in] compare: Function that compares two elements 
....................  * 
....................  * Returns: 
....................  *       bsearch returns a pointer to an occurrence of key in the array pointed 
....................  *       to by base. If key is not found, the function returns NULL. If the 
....................  *       array is not in order or contains duplicate records with identical keys, 
....................  *       the result is unpredictable. 
....................  */ 
.................... //void *bsearch(const void *key, const void *base, size_t num, size_t width, 
.................... //              int (*compare)(const void *, const void *)); 
....................  
.................... /* Performs the shell-metzner sort (not the quick sort algorithm). The contents 
....................  * of the array are sorted into ascending order according to a comparison 
....................  * function pointed to by compar. 
....................  * 
....................  * Parameters: 
....................  *       [in] base: Pointer to base of search data 
....................  *       [in] num: Number of elements 
....................  *       [in] width: Width of elements 
....................  *       [in] compare: Function that compares two elements 
....................  * 
....................  * Returns: 
....................  *       (none) 
....................  */ 
.................... //void *qsort(const void *base, size_t num, size_t width, 
.................... //              int (*compare)(const void *, const void *)); 
....................  
.................... //--------------------------------------------------------------------------- 
.................... // Integer arithmetic functions 
.................... //--------------------------------------------------------------------------- 
....................  
.................... #define labs abs 
....................  
.................... div_t div(signed int numer, signed int denom); 
.................... ldiv_t ldiv(signed long numer, signed long denom); 
....................  
.................... //--------------------------------------------------------------------------- 
.................... // Multibyte character functions 
.................... //--------------------------------------------------------------------------- 
....................  
.................... // Not supported 
....................  
.................... //--------------------------------------------------------------------------- 
.................... // Multibyte string functions 
.................... //--------------------------------------------------------------------------- 
....................  
.................... // Not supported 
....................  
....................  
.................... //--------------------------------------------------------------------------- 
.................... // Internal implementation 
.................... //--------------------------------------------------------------------------- 
....................  
.................... #include <stddef.h> 
.................... /////////////////////////////////////////////////////////////////////////// 
.................... ////        (C) Copyright 1996,2003 Custom Computer Services           //// 
.................... //// This source code may only be used by licensed users of the CCS C  //// 
.................... //// compiler.  This source code may only be distributed to other      //// 
.................... //// licensed users of the CCS C compiler.  No other use, reproduction //// 
.................... //// or distribution is permitted without written permission.          //// 
.................... //// Derivative programs created using this software in object code    //// 
.................... //// form are not restricted in any way.                               //// 
.................... /////////////////////////////////////////////////////////////////////////// 
....................  
.................... #ifndef _STDDEF 
....................  
.................... #define _STDDEF 
....................  
.................... #if sizeof(unsigned int8 *)==1 
.................... #define ptrdiff_t unsigned int8 
.................... #else 
.................... #define ptrdiff_t unsigned int16 
.................... #endif 
....................  
.................... #define size_t unsigned int8 
.................... #define wchar_t char 
.................... #define NULL 0 
....................  
.................... #define offsetof(s,f) (offsetofbit(s,f)/8) 
....................  
.................... #endif 
....................  
.................... #include <string.h> 
.................... //////////////////////////////////////////////////////////////////////////// 
.................... ////        (C) Copyright 1996,2008 Custom Computer Services            //// 
.................... //// This source code may only be used by licensed users of the CCS C   //// 
.................... //// compiler.  This source code may only be distributed to other       //// 
.................... //// licensed users of the CCS C compiler.  No other use, reproduction  //// 
.................... //// or distribution is permitted without written permission.           //// 
.................... //// Derivative programs created using this software in object code     //// 
.................... //// form are not restricted in any way.                                //// 
.................... //////////////////////////////////////////////////////////////////////////// 
....................  
.................... #ifndef _STRING 
.................... #define _STRING 
.................... #include <stddef.h> 
.................... #include <ctype.h> 
....................  
....................  
....................  
.................... ////////////////////////////////////////////// 
.................... //// Uncomment the following define to    //// 
.................... //// allow some functions to use a        //// 
.................... //// quicker algorithm, but use more ROM  //// 
.................... ////                                      //// 
.................... //// #define FASTER_BUT_MORE_ROM          //// 
.................... ////////////////////////////////////////////// 
....................  
....................  
....................  
.................... /*Copying functions*/ 
.................... /* standard template: 
....................    void *memmove(void *s1, void *s2, size_t n). 
....................    Copies max of n characters safely (not following ending '\0') 
....................    from s2 in s1; if s2 has less than n characters, appends 0 */ 
....................  
.................... char *memmove(void *s1,char *s2,size_t n) 
.................... { 
....................    char *sc1; 
....................    char *sc2; 
....................    sc1=s1; 
....................    sc2=s2; 
....................    if(sc2<sc1 && sc1 <sc2 +n) 
....................       for(sc1+=n,sc2+=n;0<n;--n) 
....................          *--sc1=*--sc2; 
....................    else 
....................       for(;0<n;--n) 
....................          *sc1++=*sc2++; 
....................   return s1; 
....................   } 
....................  
.................... /* Standard template: char *strcpy(char *s1, const char *s2) 
....................    copies the string s2 including the null character to s1. 
....................    This is a compiler built in to handle the different address 
....................    spaces */ 
....................  
.................... #define strcopy strcpy 
....................  
.................... /* standard template: 
....................    char *strncpy(char *s1, const char *s2, size_t n). 
....................    Copies max of n characters (not following ending '\0') 
....................    from s2 in s1; if s2 has less than n characters, appends 0 */ 
....................  
.................... char *strncpy(char *s1, char *s2, size_t n) 
.................... { 
....................   char *s; 
....................  
....................   for (s = s1; n > 0 && *s2 != '\0'; n--) 
....................      *s++ = *s2++; 
....................   for (; n > 0; n--) 
....................      *s++ = '\0'; 
....................  
....................   return(s1); 
.................... } 
.................... /***********************************************************/ 
....................  
.................... /*concatenation functions*/ 
.................... /* standard template: char *strcat(char *s1, const char *s2) 
.................... appends s2 to s1*/ 
....................  
.................... char *strcat(char *s1, char *s2) 
.................... { 
....................    char *s; 
....................  
....................    for (s = s1; *s != '\0'; ++s); 
....................    while(*s2 != '\0') 
....................    { 
....................       *s = *s2; 
....................       ++s; 
....................       ++s2; 
....................    } 
....................  
....................    *s = '\0'; 
....................    return(s1); 
.................... } 
.................... /* standard template: char *strncat(char *s1, char *s2,size_t n) 
.................... appends not more than n characters from s2 to s1*/ 
....................  
.................... char *strncat(char *s1, char *s2, size_t n) 
.................... { 
....................    char *s; 
....................  
....................    for (s = s1; *s != '\0'; ++s); 
....................    while(*s2 != '\0' && 0<n) 
....................    { 
....................       *s = *s2; 
....................       ++s; 
....................       ++s2; 
....................       --n; 
....................    } 
....................  
....................    *s = '\0'; 
....................    return(s1); 
.................... } 
....................  
.................... /***********************************************************/ 
....................  
....................  
.................... /*comparison functions*/ 
.................... /* standard template: signed int memcmp(void *s1, void *s2). 
....................    Compares s1 & s2; returns -1 if s1<s2, 0 if s1=s2, 1 if s1>s2 */ 
....................  
.................... signed int8 memcmp(void * s1,char *s2,size_t n) 
.................... { 
.................... char *su1, *su2; 
.................... for(su1=s1, su2=s2; 0<n; ++su1, ++su2, --n) 
.................... { 
....................    if(*su1!=*su2) 
....................       return ((*su1<*su2)?-1:+1); 
.................... } 
.................... return 0; 
.................... } 
....................  
.................... /* standard template: int strcmp(const char *s1, const char *s2). 
....................    Compares s1 & s2; returns -1 if s1<s2, 0 if s1=s2, 1 if s1>s2 */ 
....................  
.................... signed int8 strcmp(char *s1, char *s2) 
.................... { 
....................    for (; *s1 == *s2; s1++, s2++) 
....................       if (*s1 == '\0') 
....................          return(0); 
....................    return((*s1 < *s2) ? -1: 1); 
.................... } 
.................... /* standard template: int strcoll(const char *s1, const char *s2). 
....................    Compares s1 & s2; returns -1 if s1<s2, 0 if s1=s2, 1 if s1>s2 */ 
....................  
.................... signed int8 strcoll(char *s1, char *s2) 
.................... { 
....................    for (; *s1 == *s2; s1++, s2++) 
....................       if (*s1 == '\0') 
....................          return(0); 
....................    return((*s1 < *s2) ? -1: 1); 
.................... } 
....................  
.................... /* standard template: 
....................    int strncmp(const char *s1, const char *s2, size_t n). 
....................    Compares max of n characters (not following 0) from s1 to s2; 
....................    returns same as strcmp */ 
....................  
.................... signed int8 strncmp(char *s1, char *s2, size_t n) 
.................... { 
....................    for (; n > 0; s1++, s2++, n--) 
....................       if (*s1 != *s2) 
....................          return((*s1 <*s2) ? -1: 1); 
....................       else if (*s1 == '\0') 
....................          return(0); 
....................    return(0); 
.................... } 
.................... /* standard template: 
....................    int strxfrm(const char *s1, const char *s2, size_t n). 
....................    transforms maximum of n characters from s2 and places them into s1*/ 
.................... size_t strxfrm(char *s1, char *s2, size_t n) 
.................... { 
....................   char *s; 
....................   unsigned int8 n1; 
....................   n1=n; 
....................   for (s = s1; n > 0 && *s2 != '\0'; n--) 
....................      *s++ = *s2++; 
....................   for (; n > 0; n--) 
....................      *s++ = '\0'; 
....................  
....................   return(n1); 
.................... } 
....................  
....................  
....................  
....................  
....................  
.................... /***********************************************************/ 
.................... /*Search functions*/ 
.................... /* standard template: void *memchr(const char *s, int c). 
....................    Finds first occurrence of c in n characters of s */ 
....................  
.................... char *memchr(void *s,unsigned int8 c,size_t n) 
.................... { 
....................    char uc; 
....................    char *su; 
....................    uc=c; 
....................    for(su=s;0<n;++su,--n) 
....................       if(*su==uc) 
....................       return su; 
....................    return NULL; 
.................... } 
....................  
.................... /* standard template: char *strchr(const char *s, int c). 
....................    Finds first occurrence of c in s */ 
....................  
.................... char *strchr(char *s, unsigned int8 c) 
.................... { 
....................    for (; *s != c; s++) 
....................       if (*s == '\0') 
....................          return(0); 
....................    return(s); 
.................... } 
.................... /* standard template: 
....................    size_t strcspn(const char *s1, const char *s2). 
....................    Computes length of max initial segment of s1 that 
....................    consists entirely of characters NOT from s2*/ 
....................  
.................... unsigned int8  strcspn(char *s1, char *s2) 
.................... { 
....................    char *sc1, *sc2; 
....................  
....................    for (sc1 = s1; *sc1 != 0; sc1++) 
....................       for (sc2 = s2; *sc2 != 0; sc2++) 
....................          if (*sc1 == *sc2) 
....................             return(sc1 - s1); 
....................    return(sc1 - s1); 
.................... } 
.................... /* standard template: 
....................    char *strpbrk(const char *s1, const char *s2). 
....................    Locates first occurence of any character from s2 in s1; 
....................    returns s1 if s2 is empty string */ 
....................  
.................... char *strpbrk(char *s1, char *s2) 
.................... { 
....................    char *sc1, *sc2; 
....................  
....................    for (sc1 = s1; *sc1 != 0; sc1++) 
....................       for (sc2 = s2; *sc2 != 0; sc2++) 
....................          if (*sc1 == *sc2) 
....................             return(sc1); 
....................    return(0); 
.................... } 
....................  
....................  
.................... /* standard template: char *strrchr(const char *s, int c). 
....................    Finds last occurrence of c in s */ 
....................  
.................... char *strrchr(char *s, unsigned int8 c) 
.................... { 
....................    char *p; 
....................  
....................    for (p = 0; ; s++) 
....................    { 
....................       if (*s == c) 
....................          p = s; 
....................       if (*s == '\0') 
....................          return(p); 
....................    } 
.................... } 
.................... /* computes length of max initial segment of s1 consisting 
....................    entirely of characters from s2 */ 
....................  
.................... unsigned int8  strspn(char *s1, char *s2) 
.................... { 
....................    char *sc1, *sc2; 
....................  
....................    for (sc1 = s1; *sc1 != 0; sc1++) 
....................       for (sc2 = s2; ; sc2++) 
....................     if (*sc2 == '\0') 
....................        return(sc1 - s1); 
....................          else if (*sc1 == *sc2) 
....................             break; 
....................    return(sc1 - s1); 
.................... } 
.................... /* standard template: 
....................    char *strstr(const char *s1, const char *s2); 
....................    Locates first occurence of character sequence s2 in s1; 
....................    returns 0 if s2 is empty string 
....................  
....................    Uncomment #define FASTER_BUT_MORE_ROM at the top of the 
....................    file to use the faster algorithm */ 
.................... char *strstr(char *s1, char *s2) 
.................... { 
....................    char *s, *t; 
....................  
....................    #ifdef FASTER_BUT_MORE_ROM 
....................    if (*s2 == '\0') 
....................          return(s1); 
....................    #endif 
....................  
....................    while (*s1) 
....................    { 
....................       for(s = s1, t = s2; *t && (*s == *t); ++s, ++t); 
....................  
....................       if (*t == '\0') 
....................          return s1; 
....................       ++s1; 
....................       #ifdef FASTER_BUT_MORE_ROM 
....................          while(*s1 != '\0' && *s1 != *s2) 
....................             ++s1; 
....................       #endif 
....................    } 
....................    return 0; 
.................... } 
....................  
.................... /* standard template: char *strtok(char *s1, const char *s2). 
....................  
....................    Finds next token in s1 delimited by a character from separator 
....................    string s2 (which can be different from call to call).  First call 
....................    starts at beginning of s1 searching for first character NOT 
....................    contained in s2; returns 0 if none is found. 
....................    If one is found, it is the start of first token (return value). 
....................    Function then searches from there for a character contained in s2. 
....................    If none is found, current token extends to end of s1, and subsequent 
....................    searches for a token will return 0.  If one is found, it is 
....................    overwritten by '\0', which terminates current token.  Function saves 
....................    pointer to following character from which next search will start. 
....................    Each subsequent call, with 0 as first argument, starts searching 
....................    from saved pointer */ 
....................  
.................... char *strtok(char *s1, char *s2) 
.................... { 
....................    char *beg, *end; 
....................    static char *save; 
....................  
....................    beg = (s1)? s1: save; 
....................    beg += strspn(beg, s2); 
....................    if (*beg == '\0') 
....................    { 
....................       *save = ' '; 
....................       return(0); 
....................    } 
....................    end = strpbrk(beg, s2); 
....................    if (*end != '\0') 
....................    { 
....................       *end = '\0'; 
....................       end++; 
....................    } 
....................    save = end; 
....................    return(beg); 
.................... } 
....................  
.................... /*****************************************************************/ 
.................... /*Miscellaneous functions*/ 
.................... /* standard template 
.................... maps error number in errnum to an error message string 
.................... Returns: Pointer to string 
.................... */ 
.................... #ifdef _ERRNO 
.................... char * strerror(unsigned int8 errnum) 
.................... { 
.................... char s[15]; 
.................... switch( errnum) 
.................... { 
.................... case 0: 
....................    strcpy(s,"no errors"); 
....................    return s; 
.................... case EDOM : 
....................    strcpy(s,"domain error"); 
....................    return s; 
.................... case ERANGE: 
....................    strcpy(s,"range error"); 
....................    return s; 
.................... } 
.................... } 
.................... #ENDIF 
.................... /* standard template: size_t strlen(const char *s). 
....................    Computes length of s1 (preceding terminating 0) */ 
....................  
.................... unsigned int8 strlen(char *s) 
.................... { 
....................    char *sc; 
....................  
....................    for (sc = s; *sc != 0; sc++); 
....................    return(sc - s); 
.................... } 
....................  
.................... /* standard template: size_t stricmp(const char *s1, const char *s2). 
....................    Compares s1 to s2 ignoring case (upper vs. lower) */ 
....................  
.................... signed int8 stricmp(char *s1, char *s2) 
.................... { 
....................  for(; *s1==*s2||(isalpha(*s1)&&isalpha(*s2)&&(*s1==*s2+32||*s2==*s1+32)); 
....................     s1++, s2++) 
....................     if (*s1 == '\0') 
....................        return(0); 
....................  return((*s1 < *s2) ? -1: 1); 
.................... } 
....................  
....................  
.................... /* standard template: char *strlwr(char *s). 
....................    Replaces uppercase letters by lowercase; 
....................    returns pointer to new string s */ 
....................  
.................... char *strlwr(char *s) 
.................... { 
....................    char *p; 
....................  
....................    for (p = s; *p != '\0'; p++) 
....................       if (*p >= 'A' && *p <='Z') 
....................          *p += 'a' - 'A'; 
....................    return(s); 
.................... } 
....................  
....................  
.................... /************************************************************/ 
....................  
....................  
.................... #endif 
....................  
....................  
.................... div_t div(signed int numer, signed int denom) 
.................... { 
....................    div_t val; 
....................    val.quot = numer / denom; 
....................    val.rem = numer - (denom * val.quot); 
....................    return (val); 
.................... } 
....................  
.................... ldiv_t ldiv(signed long numer, signed long denom) 
.................... { 
....................    ldiv_t val; 
....................  
....................    val.quot = numer / denom; 
....................    val.rem = numer - (denom * val.quot); 
....................    return (val); 
.................... } 
....................  
.................... #if defined(__PCD__) 
.................... float32 atoe(char * s) 
.................... { 
....................    float32 pow10 = 1.0; 
....................    float32 result = 0.0; 
....................    unsigned int8 sign = 0; 
....................    unsigned int8 expsign = 0; 
....................    char c; 
....................    unsigned int8 ptr = 0; 
....................    unsigned int8 i; 
....................    float32 exp = 1.0; 
....................    unsigned int8 expcnt = 0; 
....................  
....................    c = s[ptr++]; 
....................  
....................    if ((c>='0' && c<='9') || c=='+' || c=='-' || c=='.' || c=='E' || c=='e') { 
....................       if(c == '-') { 
....................          sign = 1; 
....................          c = s[ptr++]; 
....................       } 
....................       if(c == '+') 
....................          c = s[ptr++]; 
....................  
....................       while((c >= '0' && c <= '9')) { 
....................          result = 10*result + c - '0'; 
....................          c = s[ptr++]; 
....................       } 
....................  
....................       if (c == '.') { 
....................          c = s[ptr++]; 
....................          while((c >= '0' && c <= '9')) { 
....................              pow10 = pow10*10; 
....................              result += (c - '0')/pow10; 
....................              c = s[ptr++]; 
....................          } 
....................       } 
....................  
....................       // Handling the exponent 
....................       if (c=='e' || c=='E') { 
....................          c = s[ptr++]; 
....................  
....................          if(c == '-') { 
....................             expsign = 1; 
....................             c = s[ptr++]; 
....................          } 
....................          if(c == '+') 
....................             c = s[ptr++]; 
....................  
....................          while((c >= '0' && c <= '9')) { 
....................             expcnt = 10*expcnt + c - '0'; 
....................             c = s[ptr++]; 
....................          } 
....................  
....................          for(i=0;i<expcnt;i++) 
....................             exp*=10; 
....................  
....................          if(expsign==1) 
....................             result/=exp; 
....................          else 
....................             result*=exp; 
....................       } 
....................    } 
....................  
....................    if (sign == 1) 
....................       result = -1*result; 
....................    return(result); 
.................... } 
.................... #endif 
....................  
.................... #if !defined(__PCD__) 
.................... float atoe(char * s) 
.................... { 
....................    float pow10 = 1.0; 
....................    float result = 0.0; 
....................    unsigned int8 sign = 0; 
....................    unsigned int8 expsign = 0; 
....................    char c; 
....................    unsigned int8 ptr = 0; 
....................    unsigned int8 i; 
....................    float exp = 1.0; 
....................    unsigned int8 expcnt = 0; 
....................  
....................    c = s[ptr++]; 
....................  
....................    if ((c>='0' && c<='9') || c=='+' || c=='-' || c=='.' || c=='E' || c=='e') { 
....................       if(c == '-') { 
....................          sign = 1; 
....................          c = s[ptr++]; 
....................       } 
....................       if(c == '+') 
....................          c = s[ptr++]; 
....................  
....................       while((c >= '0' && c <= '9')) { 
....................          result = 10*result + c - '0'; 
....................          c = s[ptr++]; 
....................       } 
....................  
....................       if (c == '.') { 
....................          c = s[ptr++]; 
....................          while((c >= '0' && c <= '9')) { 
....................              pow10 = pow10*10; 
....................              result += (c - '0')/pow10; 
....................              c = s[ptr++]; 
....................          } 
....................       } 
....................  
....................       // Handling the exponent 
....................       if (c=='e' || c=='E') { 
....................          c = s[ptr++]; 
....................  
....................          if(c == '-') { 
....................             expsign = 1; 
....................             c = s[ptr++]; 
....................          } 
....................          if(c == '+') 
....................             c = s[ptr++]; 
....................  
....................          while((c >= '0' && c <= '9')) { 
....................             expcnt = 10*expcnt + c - '0'; 
....................             c = s[ptr++]; 
....................          } 
....................  
....................          for(i=0;i<expcnt;i++) 
....................             exp*=10; 
....................  
....................          if(expsign==1) 
....................             result/=exp; 
....................          else 
....................             result*=exp; 
....................       } 
....................    } 
....................  
....................    if (sign == 1) 
....................       result = -1*result; 
....................    return(result); 
.................... } 
.................... #endif 
....................  
.................... signed int atoi(char *s) 
.................... { 
....................    signed int result; 
....................    unsigned int sign, base, index; 
....................    char c; 
....................  
....................    index = 0; 
....................    sign = 0; 
....................    base = 10; 
....................    result = 0; 
....................  
....................    if (!s) 
....................       return 0; 
....................    // Omit all preceeding alpha characters 
....................    c = s[index++]; 
....................  
....................    // increase index if either positive or negative sign is detected 
....................    if (c == '-') 
....................    { 
....................       sign = 1;         // Set the sign to negative 
....................       c = s[index++]; 
....................    } 
....................    else if (c == '+') 
....................    { 
....................       c = s[index++]; 
....................    } 
....................  
....................    if (c >= '0' && c <= '9') 
....................    { 
....................  
....................       // Check for hexa number 
....................       if (c == '0' && (s[index] == 'x' || s[index] == 'X')) 
....................       { 
....................          base = 16; 
....................          index++; 
....................          c = s[index++]; 
....................       } 
....................  
....................       // The number is a decimal number 
....................       if (base == 10) 
....................       { 
....................          while (c >= '0' && c <= '9') 
....................          { 
....................             result = 10*result + (c - '0'); 
....................             c = s[index++]; 
....................          } 
....................       } 
....................       else if (base == 16)    // The number is a hexa number 
....................       { 
....................          c = toupper(c); 
....................          while ( (c >= '0' && c <= '9') || (c >= 'A' && c<='F')) 
....................          { 
....................             if (c >= '0' && c <= '9') 
....................                result = (result << 4) + (c - '0'); 
....................             else 
....................                result = (result << 4) + (c - 'A' + 10); 
....................  
....................             c = s[index++]; 
....................             c = toupper(c); 
....................          } 
....................       } 
....................    } 
....................  
....................    if (sign == 1 && base == 10) 
....................        result = -result; 
....................  
....................    return(result); 
.................... } 
....................  
.................... signed long atol(char *s) 
.................... { 
....................    signed long result; 
....................    unsigned int sign, base, index; 
....................    char c; 
....................  
....................    index = 0; 
....................    sign = 0; 
....................    base = 10; 
....................    result = 0; 
....................  
....................    if (!s) 
....................       return 0; 
....................    c = s[index++]; 
....................  
....................    // increase index if either positive or negative sign is detected 
....................    if (c == '-') 
....................    { 
....................       sign = 1;         // Set the sign to negative 
....................       c = s[index++]; 
....................    } 
....................    else if (c == '+') 
....................    { 
....................       c = s[index++]; 
....................    } 
....................  
....................    if (c >= '0' && c <= '9') 
....................    { 
....................       if (c == '0' && (s[index] == 'x' || s[index] == 'X')) 
....................       { 
....................          base = 16; 
....................          index++; 
....................          c = s[index++]; 
....................       } 
....................  
....................       // The number is a decimal number 
....................       if (base == 10) 
....................       { 
....................          while (c >= '0' && c <= '9') 
....................          { 
....................             result = 10*result + (c - '0'); 
....................             c = s[index++]; 
....................          } 
....................       } 
....................       else if (base == 16)    // The number is a hexa number 
....................       { 
....................          c = toupper(c); 
....................          while ( (c >= '0' && c <= '9') || (c >= 'A' && c <='F')) 
....................          { 
....................             if (c >= '0' && c <= '9') 
....................                result = (result << 4) + (c - '0'); 
....................             else 
....................                result = (result << 4) + (c - 'A' + 10); 
....................  
....................             c = s[index++];c = toupper(c); 
....................          } 
....................       } 
....................    } 
....................  
....................    if (base == 10 && sign == 1) 
....................       result = -result; 
....................  
....................    return(result); 
.................... } 
....................  
.................... /* A fast routine to multiply by 10 
....................  */ 
.................... signed int32 mult_with10(int32 num) 
.................... { 
....................    return ( (num << 1) + (num << 3) ); 
.................... } 
....................  
.................... #if sizeof(long)==2 
.................... signed int32 atoi32(char *s) 
.................... { 
....................    signed int32 result; 
....................    int8 sign, base, index; 
....................    char c; 
....................  
....................    index = 0; 
....................    sign = 0; 
....................    base = 10; 
....................    result = 0; 
....................  
....................    if (!s) 
....................       return 0; 
....................    c = s[index++]; 
....................  
....................    // increase index if either positive or negative sign is detected 
....................    if (c == '-') 
....................    { 
....................       sign = 1;         // Set the sign to negative 
....................       c = s[index++]; 
....................    } 
....................    else if (c == '+') 
....................    { 
....................       c = s[index++]; 
....................    } 
....................  
....................    if (c >= '0' && c <= '9') 
....................    { 
....................       if (c == '0' && (s[index] == 'x' || s[index] == 'X')) 
....................       { 
....................          base = 16; 
....................          index++; 
....................          c = s[index++]; 
....................       } 
....................  
....................       // The number is a decimal number 
....................       if (base == 10) 
....................       { 
....................          while (c >= '0' && c <= '9') { 
....................             result = (result << 1) + (result << 3);  // result *= 10; 
....................             result += (c - '0'); 
....................             c = s[index++]; 
....................          } 
....................       } 
....................       else if (base == 16)    // The number is a hexa number 
....................       { 
....................          c = toupper(c); 
....................          while ((c >= '0' && c <= '9') || (c >= 'A' && c <='F')) 
....................          { 
....................             if (c >= '0' && c <= '9') 
....................                result = (result << 4) + (c - '0'); 
....................             else 
....................                result = (result << 4) + (c - 'A' + 10); 
....................  
....................             c = s[index++];c = toupper(c); 
....................          } 
....................       } 
....................    } 
....................  
....................    if (base == 10 && sign == 1) 
....................       result = -result; 
....................  
....................    return(result); 
.................... } 
.................... #endif 
....................  
.................... #if defined(__PCD__) 
....................  
.................... signed int48 atoi48(char *s) 
.................... { 
....................    signed int48 result; 
....................    int8 sign, base, index; 
....................    char c; 
....................  
....................    index = 0; 
....................    sign = 0; 
....................    base = 10; 
....................    result = 0; 
....................  
....................    if (!s) 
....................       return 0; 
....................    c = s[index++]; 
....................  
....................    // increase index if either positive or negative sign is detected 
....................    if (c == '-') 
....................    { 
....................       sign = 1;         // Set the sign to negative 
....................       c = s[index++]; 
....................    } 
....................    else if (c == '+') 
....................    { 
....................       c = s[index++]; 
....................    } 
....................  
....................    if (c >= '0' && c <= '9') 
....................    { 
....................       if (c == '0' && (s[index] == 'x' || s[index] == 'X')) 
....................       { 
....................          base = 16; 
....................          index++; 
....................          c = s[index++]; 
....................       } 
....................  
....................       // The number is a decimal number 
....................       if (base == 10) 
....................       { 
....................          while (c >= '0' && c <= '9') { 
....................             result = (result << 1) + (result << 3);  // result *= 10; 
....................             result += (c - '0'); 
....................             c = s[index++]; 
....................          } 
....................       } 
....................       else if (base == 16)    // The number is a hexa number 
....................       { 
....................          c = toupper(c); 
....................          while ((c >= '0' && c <= '9') || (c >= 'A' && c <='F')) 
....................          { 
....................             if (c >= '0' && c <= '9') 
....................                result = (result << 4) + (c - '0'); 
....................             else 
....................                result = (result << 4) + (c - 'A' + 10); 
....................  
....................             c = s[index++];c = toupper(c); 
....................          } 
....................       } 
....................    } 
....................  
....................    if (base == 10 && sign == 1) 
....................       result = -result; 
....................  
....................    return(result); 
.................... } 
....................  
.................... signed int64 atoi64(char *s) 
.................... { 
....................    signed int64 result; 
....................    int8 sign, base, index; 
....................    char c; 
....................  
....................    index = 0; 
....................    sign = 0; 
....................    base = 10; 
....................    result = 0; 
....................  
....................    if (!s) 
....................       return 0; 
....................    c = s[index++]; 
....................  
....................    // increase index if either positive or negative sign is detected 
....................    if (c == '-') 
....................    { 
....................       sign = 1;         // Set the sign to negative 
....................       c = s[index++]; 
....................    } 
....................    else if (c == '+') 
....................    { 
....................       c = s[index++]; 
....................    } 
....................  
....................    if (c >= '0' && c <= '9') 
....................    { 
....................       if (c == '0' && (s[index] == 'x' || s[index] == 'X')) 
....................       { 
....................          base = 16; 
....................          index++; 
....................          c = s[index++]; 
....................       } 
....................  
....................       // The number is a decimal number 
....................       if (base == 10) 
....................       { 
....................          while (c >= '0' && c <= '9') { 
....................             result = (result << 1) + (result << 3);  // result *= 10; 
....................             result += (c - '0'); 
....................             c = s[index++]; 
....................          } 
....................       } 
....................       else if (base == 16)    // The number is a hexa number 
....................       { 
....................          c = toupper(c); 
....................          while ((c >= '0' && c <= '9') || (c >= 'A' && c <='F')) 
....................          { 
....................             if (c >= '0' && c <= '9') 
....................                result = (result << 4) + (c - '0'); 
....................             else 
....................                result = (result << 4) + (c - 'A' + 10); 
....................  
....................             c = s[index++];c = toupper(c); 
....................          } 
....................       } 
....................    } 
....................  
....................    if (base == 10 && sign == 1) 
....................       result = -result; 
....................  
....................    return(result); 
.................... } 
.................... #endif 
....................  
.................... char * itoa(signed int32 num, unsigned int base, char * s) 
.................... { 
....................      unsigned int32 temp=1; 
....................      unsigned int8 i,sign=0,cnt=0; 
....................      char c; 
....................  
....................      if(num<0) { 
....................          sign=1;        // Check for negative number 
....................          num*=-1; 
....................      } 
....................  
....................      while(temp>0) { 
....................          temp=(num/base); 
....................          s[cnt]=(num%base)+'0';    // Conversion 
....................  
....................          if(s[cnt]>0x39) 
....................             s[cnt]+=0x7; 
....................  
....................          cnt++; 
....................          num=temp; 
....................      } 
....................  
....................      if(sign==1) { 
....................          s[cnt]=0x2D;      // Negative sign 
....................          cnt++; 
....................      } 
....................  
....................      for(i = 0;i<(int8)(cnt/2);i++) { 
....................  
....................          c=s[i]; 
....................          s[i]=s[cnt-i-1];        // Reverse the number 
....................          s[cnt-i-1]=c; 
....................      } 
....................      s[cnt]='\0';     // End the string 
....................      return s; 
.................... } 
....................  
.................... float strtof(char *s, char *endptr) 
.................... { 
....................    float pow10 = 1.0; 
....................    float result = 0.0; 
....................    int1 skip = 1, sign = 0, point = 0; 
....................    char c; 
....................    unsigned int8 ptr = 0; 
....................  
....................    if (!s) 
....................       return 0; 
....................  
....................    for(c=s[ptr++]; c!=0; c=s[ptr++]) 
....................    { 
....................       if (skip && !isspace(c)) 
....................       { 
....................          skip = 0; 
....................          if (c == '+') 
....................          { 
....................             sign = 0; 
....................             continue; 
....................          }             
....................          else if (c == '-') 
....................          { 
....................             sign = 1; 
....................             continue; 
....................          } 
....................       } 
....................       if (!skip && (c == '.') && !point) 
....................          point = 1; 
....................       else if (!skip && isdigit(c)) 
....................       { 
....................          c -= '0'; 
....................          if (point) 
....................          { 
....................             pow10 = pow10 * 10.0; 
....................             result += (float)c / pow10;    
....................          } 
....................          else 
....................          { 
....................             result = 10.0 * result + (float)c; 
....................          } 
....................       } 
....................       else if (!skip) 
....................          break; 
....................    } 
....................  
....................    if (sign) 
....................       result = -1*result; 
....................        
....................    if(endptr) 
....................    { 
....................       if (ptr) { 
....................          ptr--; 
....................        #IF LONG_POINTERS  
....................          *((long *)endptr)= s+ptr;  
....................        #ELSE 
....................          *((char *)endptr)=s+ptr; 
....................        #ENDIF 
....................       } 
....................       else 
....................       { 
....................       #IF LONG_POINTERS 
....................       *((long *)endptr)= s;  
....................       #ELSE 
....................       *((char *)endptr)=s; 
....................       #ENDIF 
....................       } 
....................    } 
....................  
....................    return(result); 
.................... } 
....................  
.................... #if defined(__PCD__) 
.................... float48 strtof48(char *s, char *endptr) 
.................... { 
....................    float48 pow10 = 1.0; 
....................    float48 result = 0.0; 
....................    int1 skip = 1, sign = 0, point = 0; 
....................    char c; 
....................    unsigned int8 ptr = 0; 
....................  
....................    if (!s) 
....................       return 0; 
....................  
....................    for(c=s[ptr++]; c!=0; c=s[ptr++]) 
....................    { 
....................       if (skip && !isspace(c)) 
....................       { 
....................          skip = 0; 
....................          if (c == '+') 
....................          { 
....................             sign = 0; 
....................             continue; 
....................          }             
....................          else if (c == '-') 
....................          { 
....................             sign = 1; 
....................             continue; 
....................          } 
....................       } 
....................       if (!skip && (c == '.') && !point) 
....................          point = 1; 
....................       else if (!skip && isdigit(c)) 
....................       { 
....................          c -= '0'; 
....................          if (point) 
....................          { 
....................             pow10 = pow10 * 10.0; 
....................             result += (float48)c / pow10;    
....................          } 
....................          else 
....................          { 
....................             result = 10.0 * result + (float48)c; 
....................          } 
....................       } 
....................       else if (!skip) 
....................          break; 
....................    } 
....................  
....................    if (sign) 
....................       result = -1*result; 
....................        
....................    if(endptr) 
....................    { 
....................       if (ptr) { 
....................          ptr--; 
....................        #IF LONG_POINTERS  
....................          *((long *)endptr)= s+ptr;  
....................        #ELSE 
....................          *((char *)endptr)=s+ptr; 
....................        #ENDIF 
....................       } 
....................       else 
....................       { 
....................       #IF LONG_POINTERS 
....................       *((long *)endptr)= s;  
....................       #ELSE 
....................       *((char *)endptr)=s; 
....................       #ENDIF 
....................       } 
....................    } 
....................  
....................    return(result); 
.................... } 
....................  
.................... float64 strtod(char *s, char *endptr) 
.................... { 
....................    float64 pow10 = 1.0; 
....................    float64 result = 0.0; 
....................    int1 skip = 1, sign = 0, point = 0; 
....................    char c; 
....................    unsigned int8 ptr = 0; 
....................  
....................    if (!s) 
....................       return 0; 
....................  
....................    for(c=s[ptr++]; c!=0; c=s[ptr++]) 
....................    { 
....................       if (skip && !isspace(c)) 
....................       { 
....................          skip = 0; 
....................          if (c == '+') 
....................          { 
....................             sign = 0; 
....................             continue; 
....................          }             
....................          else if (c == '-') 
....................          { 
....................             sign = 1; 
....................             continue; 
....................          } 
....................       } 
....................       if (!skip && (c == '.') && !point) 
....................          point = 1; 
....................       else if (!skip && isdigit(c)) 
....................       { 
....................          c -= '0'; 
....................          if (point) 
....................          { 
....................             pow10 = pow10 * 10.0; 
....................             result += (float64)c / pow10;    
....................          } 
....................          else 
....................          { 
....................             result = 10.0 * result + (float64)c; 
....................          } 
....................       } 
....................       else if (!skip) 
....................          break; 
....................    } 
....................  
....................    if (sign) 
....................       result = -1*result; 
....................        
....................    if(endptr) 
....................    { 
....................       if (ptr) { 
....................          ptr--; 
....................        #IF LONG_POINTERS  
....................          *((long *)endptr)= s+ptr;  
....................        #ELSE 
....................          *((char *)endptr)=s+ptr; 
....................        #ENDIF 
....................       } 
....................       else 
....................       { 
....................       #IF LONG_POINTERS 
....................       *((long *)endptr)= s;  
....................       #ELSE 
....................       *((char *)endptr)=s; 
....................       #ENDIF 
....................       } 
....................    } 
....................  
....................    return(result); 
.................... } 
.................... #endif 
....................  
.................... unsigned long strtoul(char *s, char *endptr, signed int base) 
.................... { 
....................    char *sc,*s1,*sd; 
....................    unsigned long x=0; 
....................    char sign; 
....................    char digits[]="0123456789abcdefghijklmnopqstuvwxyz"; 
....................    for(sc=s;isspace(*sc);++sc); 
....................    sign=*sc=='-'||*sc=='+'?*sc++:'+'; 
....................    if(sign=='-' || base <0 || base ==1|| base >36) // invalid base 
....................    goto StrtoulGO; 
....................  
....................    else if (base) 
....................    { 
....................       if(base==16 && *sc =='0'&&(sc[1]=='x' || sc[1]=='X')) 
....................          sc+=2; 
....................       if(base==8 && *sc =='0') 
....................          sc+=1; 
....................       if(base==2 && *sc =='0'&&sc[1]=='b') 
....................          sc+=2; 
....................  
....................    } 
....................    else if(*sc!='0') // base is 0, find base 
....................       base=10; 
....................    else if (sc[1]=='x' || sc[1]=='X') 
....................       base =16,sc+=2; 
....................    else if(sc[1]=='b') 
....................       base=2,sc+=2; 
....................    else 
....................       base=8; 
....................    for (s1=sc;*sc=='0';++sc);// skip leading zeroes 
....................    sd=memchr(digits,tolower(*sc),base); 
....................    for(; sd!=0; ) 
....................    { 
....................       x=x*base+(int16)(sd-digits); 
....................       ++sc; 
....................       sd=memchr(digits,tolower(*sc),base); 
....................    } 
....................    if(s1==sc) 
....................    { 
....................    StrtoulGO: 
....................       if (endptr) 
....................       { 
....................          #IF LONG_POINTERS 
....................          *((long *)endptr)= s;  
....................          #ELSE 
....................          *((char *)endptr)=s; 
....................          #ENDIF 
....................          } 
....................    return 0; 
....................    } 
....................    if (endptr) 
....................    { 
....................          #IF LONG_POINTERS 
....................          *((long *)endptr)= sc;  
....................          #ELSE 
....................          *((char *)endptr)=sc;  
....................          #ENDIF 
....................    } 
....................    return x; 
.................... } 
....................  
....................  
.................... signed long strtol(char *s,char *endptr, signed int base) 
.................... { 
....................    char *sc,*s1,*sd; 
....................    signed long x=0; 
....................    char sign; 
....................    char digits[]="0123456789abcdefghijklmnopqstuvwxyz"; 
....................    for(sc=s;isspace(*sc);++sc); 
....................    sign=*sc=='-'||*sc=='+'?*sc++:'+'; 
....................    if (base <0 || base ==1|| base >36) // invalid base 
....................    goto StrtolGO; 
....................    else if (base) 
....................    { 
....................       if(base==16 && *sc =='0'&&(sc[1]=='x' || sc[1]=='X')) 
....................          sc+=2; 
....................       if(base==8 && *sc =='0') 
....................          sc+=1; 
....................       if(base==2 && *sc =='0'&&sc[1]=='b') 
....................          sc+=2; 
....................  
....................    } 
....................    else if(*sc!='0') // base is 0, find base 
....................       base=10; 
....................    else if (sc[1]=='x' || sc[1]=='X') 
....................       base =16,sc+=2; 
....................    else if(sc[1]=='b') 
....................       base=2,sc+=2; 
....................    else 
....................       base=8; 
....................    for (s1=sc;*sc=='0';++sc);// skip leading zeroes 
....................  
....................    sd=memchr(digits,tolower(*sc),base); 
....................    for(;sd!=0;) 
....................    { 
....................       x=x*base+(int16)(sd-digits); 
....................       ++sc; 
....................       sd=memchr(digits,tolower(*sc),base); 
....................    } 
....................    if(s1==sc) 
....................    { 
....................    StrtolGO: 
....................       if (endptr) 
....................       { 
....................          #IF LONG_POINTERS 
....................          *((long *)endptr)= s;  
....................          #ELSE 
....................          *((char *)endptr)=s; 
....................          #ENDIF 
....................       } 
....................    return 0; 
....................    } 
....................    if(sign=='-') 
....................       x  =-x; 
....................    if (endptr) 
....................    { 
....................         #IF LONG_POINTERS 
....................          *((long *)endptr)= sc;  
....................         #ELSE 
....................         *((char *)endptr)=sc; 
....................         #ENDIF 
....................    } 
....................    return x; 
.................... } 
....................  
.................... signed int8 system(char *string) 
.................... { 
....................    return 0; 
.................... } 
....................  
.................... int8 mblen(char *s,size_t n) 
.................... { 
....................    return strlen(s); 
.................... } 
....................  
.................... int8 mbtowc(wchar_t *pwc,char *s,size_t n) 
.................... { 
....................    *pwc=*s; 
....................    return 1; 
.................... } 
....................  
.................... int8 wctomb(char *s,wchar_t wchar) 
.................... { 
....................    *s=wchar; 
....................    return 1; 
.................... } 
....................  
.................... size_t mbstowcs(wchar_t *pwcs,char *s,size_t n) 
.................... { 
....................    strncpy(pwcs,s,n); 
....................    return strlen(pwcs); 
.................... } 
....................  
.................... size_t wcstombs(char *s,wchar_t *pwcs,size_t n) 
.................... { 
....................    strncpy(s,pwcs,n); 
....................    return strlen(s); 
.................... } 
....................  
.................... //--------------------------------------------------------------------------- 
.................... // The random number implementation 
.................... //--------------------------------------------------------------------------- 
....................  
.................... unsigned int32 _Randseed; 
....................  
.................... unsigned int16 rand(void) 
.................... { 
....................    _Randseed = _Randseed * 1103515245 + 12345; 
....................    return ((unsigned int16)(_Randseed >> 16) % RAND_MAX); 
.................... } 
....................  
.................... void srand(unsigned int32 seed) 
.................... { 
....................    _Randseed = seed; 
.................... } 
....................  
.................... //--------------------------------------------------------------------------- 
.................... // Searching and sorting utilities implementation 
.................... //--------------------------------------------------------------------------- 
....................  
.................... #if !defined(__PCD__) 
.................... typedef signed int8 (*_Cmpfun)(char * p1,char * p2);  
.................... #else  
.................... typedef signed int16 (*_Cmpfun)(char * p1,char * p2);  
.................... #endif 
....................  
....................  
....................  
.................... void qsort(char * qdata, unsigned int qitems, unsigned int qsize, _Cmpfun cmp) { 
....................    unsigned int m,j,i,l; 
....................    int1 done; 
....................    unsigned int8 t[16]; 
....................  
....................    m = qitems/2; 
....................    while( m > 0 ) { 
....................      for(j=0; j<(qitems-m); ++j) { 
....................         i = j; 
....................         do 
....................         { 
....................            done=1; 
....................            l = i+m; 
....................            if( (*cmp)(qdata+i*qsize, qdata+l*qsize) > 0 ) { 
....................               memcpy(t, qdata+i*qsize, qsize); 
....................               memcpy(qdata+i*qsize, qdata+l*qsize, qsize); 
....................               memcpy(qdata+l*qsize, t, qsize); 
....................               if(m <= i) 
....................                 i -= m; 
....................                 done = 0; 
....................            } 
....................         } while(!done); 
....................      } 
....................      m = m/2; 
....................    } 
.................... } 
....................  
....................  
.................... char *bsearch(char *key, char *base, size_t num, size_t width,_Cmpfun cmp) 
.................... { 
....................    char *p, *q; 
....................    size_t n; 
....................    size_t pivot; 
....................    signed int val; 
....................  
....................    p = base; 
....................    n = num; 
....................  
....................    while (n > 0) 
....................    { 
....................       pivot = n >> 1; 
....................       q = p + width * pivot; 
....................  
....................       val = (*cmp)(key, q); 
....................  
....................       if (val < 0) 
....................          n = pivot; 
....................       else if (val == 0) 
....................          return ((char *)q); 
....................       else { 
....................          p = q + width; 
....................          n -= pivot + 1; 
....................       } 
....................    } 
....................  
....................    return NULL;      // There's no match 
.................... } 
....................  
....................  
.................... #endif 
....................  
.................... #include <DS1302.c> 
.................... ////////////////////////////////////////////////////////////////////////// 
.................... ////                               DS1302.C                           //// 
.................... ////                     Driver for Real Time Clock                   //// 
.................... ////                                                                  //// 
.................... ////  rtc_init()                                   Call after power up//// 
.................... ////                                                                  //// 
.................... ////  rtc_set_datetime(day,mth,year,dow,hour,min)  Set the date/time  //// 
.................... ////                                                                  //// 
.................... ////  rtc_get_date(day,mth,year,dow)               Get the date       //// 
.................... ////                                                                  //// 
.................... ////  rtc_get_time(hr,min,sec)                     Get the time       //// 
.................... ////                                                                  //// 
.................... ////  rtc_write_nvr(address,data)                  Write to NVR       //// 
.................... ////                                                                  //// 
.................... ////  data = rtc_read_nvr(address)                 Read from NVR      //// 
.................... ////                                                                  //// 
.................... ////  get_bcd(data)                              Convert data to BCD  //// 
.................... ////                                                                  //// 
.................... ////  rm_bcd(data)                               Convert data to int  //// 
.................... ////                                                                  //// 
.................... ////////////////////////////////////////////////////////////////////////// 
.................... ////        (C) Copyright 1996,2003 Custom Computer Services          //// 
.................... //// This source code may only be used by licensed users of the CCS C //// 
.................... //// compiler.  This source code may only be distributed to other     //// 
.................... //// licensed users of the CCS C compiler.  No other use, reproduction//// 
.................... //// or distribution is permitted without written permission.         //// 
.................... //// Derivative programs created using this software in object code   //// 
.................... //// form are not restricted in any way.                              //// 
.................... ////////////////////////////////////////////////////////////////////////// 
....................  
.................... //#ifndef RTC_SCLK 
....................  
.................... #define RTC_SCLK PIN_D4 
.................... #define RTC_IO   PIN_D5 
.................... #define RTC_RST  PIN_D6 
....................  
.................... //#endif 
....................  
.................... void write_ds1302_byte(BYTE cmd) { 
....................    BYTE i; 
....................  
....................    for(i=0;i<=7;++i) { 
*
02FFA:  MOVLB  4
02FFC:  CLRF   x5A
02FFE:  MOVF   x5A,W
03000:  SUBLW  07
03002:  BNC   301E
....................       output_bit(RTC_IO, shift_right(&cmd,1,0) ); 
03004:  BCF    FD8.0
03006:  RRCF   x59,F
03008:  BC    300E
0300A:  BCF    F8C.5
0300C:  BRA    3010
0300E:  BSF    F8C.5
03010:  BCF    F95.5
....................       output_high(RTC_SCLK); 
03012:  BCF    F95.4
03014:  BSF    F8C.4
....................       output_low(RTC_SCLK); 
03016:  BCF    F95.4
03018:  BCF    F8C.4
....................    } 
0301A:  INCF   x5A,F
0301C:  BRA    2FFE
.................... } 
0301E:  MOVLB  0
03020:  RETLW  00
....................  
.................... void write_ds1302(BYTE cmd, BYTE data) { 
....................  
....................    output_high(RTC_RST); 
03022:  BCF    F95.6
03024:  BSF    F8C.6
....................    write_ds1302_byte(cmd); 
03026:  MOVFF  457,459
0302A:  RCALL  2FFA
....................    write_ds1302_byte(data); 
0302C:  MOVFF  458,459
03030:  RCALL  2FFA
....................    output_low(RTC_RST); 
03032:  BCF    F95.6
03034:  BCF    F8C.6
.................... } 
03036:  RETLW  00
....................  
.................... BYTE read_ds1302(BYTE cmd) { 
....................    BYTE i,data; 
....................  
....................    output_high(RTC_RST); 
03038:  BCF    F95.6
0303A:  BSF    F8C.6
....................    write_ds1302_byte(cmd); 
0303C:  MOVFF  454,459
03040:  RCALL  2FFA
....................     
....................    input(RTC_IO); 
03042:  BSF    F95.5
....................    delay_us(10); 
03044:  MOVLW  10
03046:  MOVWF  00
03048:  DECFSZ 00,F
0304A:  BRA    3048
0304C:  NOP   
....................           
....................    for(i=0;i<=7;++i) { 
0304E:  MOVLB  4
03050:  CLRF   x55
03052:  MOVF   x55,W
03054:  SUBLW  07
03056:  BNC   3082
....................       shift_right(&data,1,input(RTC_IO)); 
03058:  BSF    F95.5
0305A:  BTFSC  F83.5
0305C:  BRA    3062
0305E:  BCF    FD8.0
03060:  BRA    3064
03062:  BSF    FD8.0
03064:  RRCF   x56,F
....................       output_high(RTC_SCLK); 
03066:  BCF    F95.4
03068:  BSF    F8C.4
....................       delay_us(20); 
0306A:  MOVLW  21
0306C:  MOVWF  00
0306E:  DECFSZ 00,F
03070:  BRA    306E
....................       output_low(RTC_SCLK); 
03072:  BCF    F95.4
03074:  BCF    F8C.4
....................       delay_us(20); 
03076:  MOVLW  21
03078:  MOVWF  00
0307A:  DECFSZ 00,F
0307C:  BRA    307A
....................    } 
0307E:  INCF   x55,F
03080:  BRA    3052
....................    output_low(RTC_RST); 
03082:  BCF    F95.6
03084:  BCF    F8C.6
....................  
....................    return(data); 
03086:  MOVFF  456,01
.................... } 
0308A:  MOVLB  0
0308C:  RETLW  00
....................  
.................... void rtc_init() { 
....................    BYTE x; 
....................    output_low(RTC_RST); 
0308E:  BCF    F95.6
03090:  BCF    F8C.6
....................    delay_us(20); 
03092:  MOVLW  21
03094:  MOVWF  00
03096:  DECFSZ 00,F
03098:  BRA    3096
....................    output_low(RTC_SCLK); 
0309A:  BCF    F95.4
0309C:  BCF    F8C.4
....................    write_ds1302(0x8e,0); 
0309E:  MOVLW  8E
030A0:  MOVLB  4
030A2:  MOVWF  x57
030A4:  CLRF   x58
030A6:  MOVLB  0
030A8:  RCALL  3022
....................    write_ds1302(0x90,0xa4); 
030AA:  MOVLW  90
030AC:  MOVLB  4
030AE:  MOVWF  x57
030B0:  MOVLW  A4
030B2:  MOVWF  x58
030B4:  MOVLB  0
030B6:  RCALL  3022
....................    x=read_ds1302(0x81); 
030B8:  MOVLW  81
030BA:  MOVLB  4
030BC:  MOVWF  x54
030BE:  MOVLB  0
030C0:  RCALL  3038
030C2:  MOVFF  01,450
....................    if((x & 0x80)!=0) 
030C6:  MOVLB  4
030C8:  MOVF   x50,W
030CA:  ANDLW  80
030CC:  BZ    30DA
....................      write_ds1302(0x80,0); 
030CE:  MOVLW  80
030D0:  MOVWF  x57
030D2:  CLRF   x58
030D4:  MOVLB  0
030D6:  RCALL  3022
030D8:  MOVLB  4
.................... } 
030DA:  MOVLB  0
030DC:  GOTO   8466 (RETURN)
....................  
.................... byte get_bcd(BYTE data) 
.................... { 
....................    byte nibh; 
....................    byte nibl; 
....................  
....................    nibh=data/10; 
*
0583A:  MOVFF  456,45A
0583E:  MOVLW  0A
05840:  MOVLB  4
05842:  MOVWF  x5B
05844:  MOVLB  0
05846:  CALL   4CD2
0584A:  MOVFF  01,457
....................    nibl=data-(nibh*10); 
0584E:  MOVLB  4
05850:  MOVF   x57,W
05852:  MULLW  0A
05854:  MOVF   FF3,W
05856:  SUBWF  x56,W
05858:  MOVWF  x58
....................  
....................    return((nibh<<4)|nibl); 
0585A:  SWAPF  x57,W
0585C:  MOVWF  00
0585E:  MOVLW  F0
05860:  ANDWF  00,F
05862:  MOVF   00,W
05864:  IORWF  x58,W
05866:  MOVWF  01
.................... } 
05868:  MOVLB  0
0586A:  RETLW  00
....................  
.................... byte rm_bcd(BYTE data) 
.................... { 
....................    byte i; 
....................  
....................    i=data; 
*
04B6C:  MOVFF  455,456
....................    data=(i>>4)*10; 
04B70:  MOVLB  4
04B72:  SWAPF  x56,W
04B74:  MOVWF  00
04B76:  MOVLW  0F
04B78:  ANDWF  00,F
04B7A:  MOVF   00,W
04B7C:  MULLW  0A
04B7E:  MOVFF  FF3,455
....................    data=data+(i<<4>>4); 
04B82:  SWAPF  x56,W
04B84:  MOVWF  00
04B86:  MOVLW  F0
04B88:  ANDWF  00,F
04B8A:  MOVF   00,W
04B8C:  SWAPF  00,F
04B8E:  MOVLW  0F
04B90:  ANDWF  00,F
04B92:  MOVF   00,W
04B94:  ADDWF  x55,F
....................  
....................    return data; 
04B96:  MOVFF  455,01
.................... } 
04B9A:  MOVLB  0
04B9C:  RETLW  00
....................  
.................... void rtc_set_datetime(BYTE day, BYTE mth, BYTE year, BYTE dow, BYTE hr, BYTE min) { 
....................  
....................    write_ds1302(0x86,get_bcd(day)); 
*
0586C:  MOVFF  450,456
05870:  RCALL  583A
05872:  MOVFF  01,456
05876:  MOVLW  86
05878:  MOVLB  4
0587A:  MOVWF  x57
0587C:  MOVFF  01,458
05880:  MOVLB  0
05882:  CALL   3022
....................    write_ds1302(0x88,get_bcd(mth)); 
05886:  MOVFF  451,456
0588A:  RCALL  583A
0588C:  MOVFF  01,456
05890:  MOVLW  88
05892:  MOVLB  4
05894:  MOVWF  x57
05896:  MOVFF  01,458
0589A:  MOVLB  0
0589C:  CALL   3022
....................    write_ds1302(0x8c,get_bcd(year)); 
058A0:  MOVFF  452,456
058A4:  RCALL  583A
058A6:  MOVFF  01,456
058AA:  MOVLW  8C
058AC:  MOVLB  4
058AE:  MOVWF  x57
058B0:  MOVFF  01,458
058B4:  MOVLB  0
058B6:  CALL   3022
....................    write_ds1302(0x8a,get_bcd(dow)); 
058BA:  MOVFF  453,456
058BE:  RCALL  583A
058C0:  MOVFF  01,456
058C4:  MOVLW  8A
058C6:  MOVLB  4
058C8:  MOVWF  x57
058CA:  MOVFF  01,458
058CE:  MOVLB  0
058D0:  CALL   3022
....................    write_ds1302(0x84,get_bcd(hr)); 
058D4:  MOVFF  454,456
058D8:  RCALL  583A
058DA:  MOVFF  01,456
058DE:  MOVLW  84
058E0:  MOVLB  4
058E2:  MOVWF  x57
058E4:  MOVFF  01,458
058E8:  MOVLB  0
058EA:  CALL   3022
....................    write_ds1302(0x82,get_bcd(min)); 
058EE:  MOVFF  455,456
058F2:  RCALL  583A
058F4:  MOVFF  01,456
058F8:  MOVLW  82
058FA:  MOVLB  4
058FC:  MOVWF  x57
058FE:  MOVFF  01,458
05902:  MOVLB  0
05904:  CALL   3022
....................    write_ds1302(0x80,get_bcd(0)); 
05908:  MOVLB  4
0590A:  CLRF   x56
0590C:  MOVLB  0
0590E:  RCALL  583A
05910:  MOVFF  01,456
05914:  MOVLW  80
05916:  MOVLB  4
05918:  MOVWF  x57
0591A:  MOVFF  01,458
0591E:  MOVLB  0
05920:  CALL   3022
.................... } 
05924:  GOTO   B74E (RETURN)
....................  
.................... void rtc_get_date(BYTE& day, BYTE& mth, BYTE& year, BYTE& dow) { 
....................    day = rm_bcd(read_ds1302(0x87)); 
*
088BA:  MOVLW  87
088BC:  MOVLB  4
088BE:  MOVWF  x54
088C0:  MOVLB  0
088C2:  CALL   3038
088C6:  MOVFF  01,450
088CA:  MOVFF  01,455
088CE:  CALL   4B6C
088D2:  MOVFF  01,3AD
....................    mth = rm_bcd(read_ds1302(0x89)); 
088D6:  MOVLW  89
088D8:  MOVLB  4
088DA:  MOVWF  x54
088DC:  MOVLB  0
088DE:  CALL   3038
088E2:  MOVFF  01,450
088E6:  MOVFF  01,455
088EA:  CALL   4B6C
088EE:  MOVFF  01,3AC
....................    year = rm_bcd(read_ds1302(0x8d)); 
088F2:  MOVLW  8D
088F4:  MOVLB  4
088F6:  MOVWF  x54
088F8:  MOVLB  0
088FA:  CALL   3038
088FE:  MOVFF  01,450
08902:  MOVFF  01,455
08906:  CALL   4B6C
0890A:  MOVFF  01,3AB
....................    dow = rm_bcd(read_ds1302(0x8b)); 
0890E:  MOVLW  8B
08910:  MOVLB  4
08912:  MOVWF  x54
08914:  MOVLB  0
08916:  CALL   3038
0891A:  MOVFF  01,450
0891E:  MOVFF  01,455
08922:  CALL   4B6C
08926:  MOVFF  01,3B1
.................... } 
....................  
.................... void rtc_get_time(BYTE& hr, BYTE& min, BYTE& sec) { 
....................    hr = rm_bcd(read_ds1302(0x85)); 
0892A:  MOVLW  85
0892C:  MOVLB  4
0892E:  MOVWF  x54
08930:  MOVLB  0
08932:  CALL   3038
08936:  MOVFF  01,450
0893A:  MOVFF  01,455
0893E:  CALL   4B6C
08942:  MOVFF  01,3AE
....................    min = rm_bcd(read_ds1302(0x83)); 
08946:  MOVLW  83
08948:  MOVLB  4
0894A:  MOVWF  x54
0894C:  MOVLB  0
0894E:  CALL   3038
08952:  MOVFF  01,450
08956:  MOVFF  01,455
0895A:  CALL   4B6C
0895E:  MOVFF  01,3AF
....................    sec = rm_bcd(read_ds1302(0x81)); 
08962:  MOVLW  81
08964:  MOVLB  4
08966:  MOVWF  x54
08968:  MOVLB  0
0896A:  CALL   3038
0896E:  MOVFF  01,450
08972:  MOVFF  01,455
08976:  CALL   4B6C
0897A:  MOVFF  01,3B0
.................... } 
....................  
.................... void rtc_write_nvr(BYTE address, BYTE data) { 
....................    write_ds1302(address|0xc0,data); 
.................... } 
....................  
.................... BYTE rtc_read_nvr(BYTE address) { 
....................     return(read_ds1302(address|0xc1)); 
.................... } 
....................  
.................... #include <24512.c> 
.................... /////////////////////////////////////////////////////////////////////////// 
.................... ////   Library for a 24LC512 serial EEPROM                             //// 
.................... ////                                                                   //// 
.................... ////   init_ext_eeprom();    Call before the other functions are used  //// 
.................... ////                                                                   //// 
.................... ////   write_ext_eeprom(a, d);  Write the byte d to the address a      //// 
.................... ////                                                                   //// 
.................... ////   d = read_ext_eeprom(a);   Read the byte d from the address a    //// 
.................... ////                                                                   //// 
.................... ////   The main program may define eeprom_sda                          //// 
.................... ////   and eeprom_scl to override the defaults below.                  //// 
.................... ////                                                                   //// 
.................... /////////////////////////////////////////////////////////////////////////// 
.................... ////        (C) Copyright 1996,2003 Custom Computer Services           //// 
.................... //// This source code may only be used by licensed users of the CCS C  //// 
.................... //// compiler.  This source code may only be distributed to other      //// 
.................... //// licensed users of the CCS C compiler.  No other use, reproduction //// 
.................... //// or distribution is permitted without written permission.          //// 
.................... //// Derivative programs created using this software in object code    //// 
.................... //// form are not restricted in any way.                               //// 
.................... /////////////////////////////////////////////////////////////////////////// 
....................  
.................... #ifndef EEPROM_SDA 
....................  
.................... #define EEPROM_SDA  PIN_C4 
.................... #define EEPROM_SCL  PIN_C3 
....................  
.................... #endif 
....................  
.................... //#use i2c(master, sda=EEPROM_SDA, scl=EEPROM_SCL) 
....................  
.................... #define EEPROM_ADDRESS long int 
.................... #define EEPROM_SIZE   65535 
....................  
.................... void init_ext_eeprom() 
.................... { 
....................    output_float(EEPROM_SCL); 
....................    output_float(EEPROM_SDA); 
....................  
.................... } 
....................  
.................... void write_ext_eeprom(long int address, BYTE data) 
.................... { 
....................    short int status; 
....................    i2c_start(); 
*
0502A:  BSF    F94.4
0502C:  MOVLW  05
0502E:  MOVWF  00
05030:  DECFSZ 00,F
05032:  BRA    5030
05034:  BSF    F94.3
05036:  MOVLW  06
05038:  MOVWF  00
0503A:  DECFSZ 00,F
0503C:  BRA    503A
0503E:  BCF    F8B.4
05040:  BCF    F94.4
05042:  MOVLW  05
05044:  MOVWF  00
05046:  DECFSZ 00,F
05048:  BRA    5046
0504A:  BCF    F8B.3
0504C:  BCF    F94.3
....................    i2c_write(0xa0); 
0504E:  MOVLW  A0
05050:  MOVLB  4
05052:  MOVWF  x71
05054:  MOVLB  0
05056:  RCALL  4A00
....................    i2c_write(address>>8); 
05058:  MOVFF  46C,46F
0505C:  MOVLB  4
0505E:  CLRF   x70
05060:  MOVFF  46C,471
05064:  MOVLB  0
05066:  RCALL  4A00
....................    i2c_write(address); 
05068:  MOVFF  46B,471
0506C:  RCALL  4A00
....................    i2c_write(data); 
0506E:  MOVFF  46D,471
05072:  RCALL  4A00
....................    i2c_stop(); 
05074:  BCF    F94.4
05076:  NOP   
05078:  BSF    F94.3
0507A:  BTFSS  F82.3
0507C:  BRA    507A
0507E:  MOVLW  05
05080:  MOVWF  00
05082:  DECFSZ 00,F
05084:  BRA    5082
05086:  BRA    5088
05088:  NOP   
0508A:  BSF    F94.4
0508C:  MOVLW  05
0508E:  MOVWF  00
05090:  DECFSZ 00,F
05092:  BRA    5090
....................    i2c_start(); 
05094:  BSF    F94.4
05096:  MOVLW  05
05098:  MOVWF  00
0509A:  DECFSZ 00,F
0509C:  BRA    509A
0509E:  BSF    F94.3
050A0:  MOVLW  06
050A2:  MOVWF  00
050A4:  DECFSZ 00,F
050A6:  BRA    50A4
050A8:  BCF    F8B.4
050AA:  BCF    F94.4
050AC:  MOVLW  05
050AE:  MOVWF  00
050B0:  DECFSZ 00,F
050B2:  BRA    50B0
050B4:  BCF    F8B.3
050B6:  BCF    F94.3
....................    status=i2c_write(0xa0); 
050B8:  MOVLW  A0
050BA:  MOVLB  4
050BC:  MOVWF  x71
050BE:  MOVLB  0
050C0:  RCALL  4A00
050C2:  MOVF   01,W
050C4:  MOVLB  4
050C6:  BCF    x6E.0
050C8:  BTFSC  01.0
050CA:  BSF    x6E.0
....................    //while(status==1) 
....................    //{ 
....................       i2c_start(); 
050CC:  BSF    F94.4
050CE:  MOVLW  05
050D0:  MOVWF  00
050D2:  DECFSZ 00,F
050D4:  BRA    50D2
050D6:  BSF    F94.3
050D8:  MOVLW  06
050DA:  MOVWF  00
050DC:  DECFSZ 00,F
050DE:  BRA    50DC
050E0:  BTFSS  F82.3
050E2:  BRA    50E0
050E4:  BCF    F8B.4
050E6:  BCF    F94.4
050E8:  MOVLW  05
050EA:  MOVWF  00
050EC:  DECFSZ 00,F
050EE:  BRA    50EC
050F0:  BCF    F8B.3
050F2:  BCF    F94.3
....................       status=i2c_write(0xa0); 
050F4:  MOVLW  A0
050F6:  MOVWF  x71
050F8:  MOVLB  0
050FA:  RCALL  4A00
050FC:  MOVF   01,W
050FE:  MOVLB  4
05100:  BCF    x6E.0
05102:  BTFSC  01.0
05104:  BSF    x6E.0
....................    //} 
....................    i2c_stop(); 
05106:  BCF    F94.4
05108:  NOP   
0510A:  BSF    F94.3
0510C:  BTFSS  F82.3
0510E:  BRA    510C
05110:  MOVLW  05
05112:  MOVWF  00
05114:  DECFSZ 00,F
05116:  BRA    5114
05118:  BRA    511A
0511A:  NOP   
0511C:  BSF    F94.4
0511E:  MOVLW  05
05120:  MOVWF  00
05122:  DECFSZ 00,F
05124:  BRA    5122
.................... } 
05126:  MOVLB  0
05128:  RETLW  00
....................  
.................... BYTE read_ext_eeprom(long int address) { 
....................    BYTE data; 
....................    i2c_start(); 
*
05A58:  BSF    F94.4
05A5A:  MOVLW  05
05A5C:  MOVWF  00
05A5E:  DECFSZ 00,F
05A60:  BRA    5A5E
05A62:  BSF    F94.3
05A64:  MOVLW  06
05A66:  MOVWF  00
05A68:  DECFSZ 00,F
05A6A:  BRA    5A68
05A6C:  BCF    F8B.4
05A6E:  BCF    F94.4
05A70:  MOVLW  05
05A72:  MOVWF  00
05A74:  DECFSZ 00,F
05A76:  BRA    5A74
05A78:  BCF    F8B.3
05A7A:  BCF    F94.3
....................    i2c_write(0xa0); 
05A7C:  MOVLW  A0
05A7E:  MOVLB  4
05A80:  MOVWF  x71
05A82:  MOVLB  0
05A84:  CALL   4A00
....................    i2c_write(address>>8); 
05A88:  MOVFF  456,458
05A8C:  MOVLB  4
05A8E:  CLRF   x59
05A90:  MOVFF  456,471
05A94:  MOVLB  0
05A96:  CALL   4A00
....................    i2c_write(address); 
05A9A:  MOVFF  455,471
05A9E:  CALL   4A00
....................    i2c_start(); 
05AA2:  BSF    F94.4
05AA4:  MOVLW  05
05AA6:  MOVWF  00
05AA8:  DECFSZ 00,F
05AAA:  BRA    5AA8
05AAC:  BSF    F94.3
05AAE:  MOVLW  06
05AB0:  MOVWF  00
05AB2:  DECFSZ 00,F
05AB4:  BRA    5AB2
05AB6:  BTFSS  F82.3
05AB8:  BRA    5AB6
05ABA:  BCF    F8B.4
05ABC:  BCF    F94.4
05ABE:  MOVLW  05
05AC0:  MOVWF  00
05AC2:  DECFSZ 00,F
05AC4:  BRA    5AC2
05AC6:  BCF    F8B.3
05AC8:  BCF    F94.3
....................    i2c_write(0xa1); 
05ACA:  MOVLW  A1
05ACC:  MOVLB  4
05ACE:  MOVWF  x71
05AD0:  MOVLB  0
05AD2:  CALL   4A00
....................    data=i2c_read(0); 
05AD6:  CLRF   00
05AD8:  BRA    59EC
05ADA:  MOVFF  01,457
....................    i2c_stop(); 
05ADE:  BCF    F94.4
05AE0:  NOP   
05AE2:  BSF    F94.3
05AE4:  BTFSS  F82.3
05AE6:  BRA    5AE4
05AE8:  MOVLW  05
05AEA:  MOVWF  00
05AEC:  DECFSZ 00,F
05AEE:  BRA    5AEC
05AF0:  BRA    5AF2
05AF2:  NOP   
05AF4:  BSF    F94.4
05AF6:  MOVLW  05
05AF8:  MOVWF  00
05AFA:  DECFSZ 00,F
05AFC:  BRA    5AFA
....................    return(data); 
05AFE:  MOVLB  4
05B00:  MOVFF  457,01
.................... } 
05B04:  MOVLB  0
05B06:  RETLW  00
....................  
....................  
.................... //-----Defines para configuracion de logica de funcionamiento de autoclave---// 
.................... #define PT100Fija //Define para autcolaves con reservorio y Pt100 fija (NO FLEXIBLE) 
.................... #define Reservorio //Define para autoclaves con reservorio 
.................... #define Absoluta //Define para el sensor de presion Absoluta 
.................... #define Tmax 128 
.................... #define Tmin 105 
.................... #define ULKA 
.................... //--------------------------------------------------------------------------// 
....................  
.................... #define   UP            !input(PIN_B3) 
.................... #define   DOWN          !input(PIN_B2) 
.................... #define   RIGHT         !input(PIN_B1) 
.................... #define   LEFT          !input(PIN_B0) 
....................  
.................... #define   DOORL         !input(PIN_B7) 
.................... #define   DOOR          !input(PIN_B6) 
.................... #define   STOP          !input(PIN_B5) 
.................... #define   TERM          !input(PIN_B4) 
....................  
.................... //#define   LOW           input(PIN_C1) 
.................... //#define   HIG           input(PIN_C0) 
....................  
.................... #define   SSR_on           output_bit(PIN_E1,1) 
.................... #define   SSR_off          output_bit(PIN_E1,0) 
....................  
.................... #define   SSR2_on          output_bit(PIN_E2,1) 
.................... #define   SSR2_off         output_bit(PIN_E2,0) 
....................  
.................... #define   Buzzer_on        output_bit(PIN_D7,1) 
.................... #define   Buzzer_off       output_bit(PIN_D7,0) 
....................  
.................... #define   Desfogue_on      output_bit(PIN_C1,0) 
.................... #define   Desfogue_off     output_bit(PIN_C1,1) 
....................  
.................... #define   Agua_on          output_bit(PIN_C2,0) 
.................... #define   Agua_off         output_bit(PIN_C2,1) 
....................  
.................... #define   Bomba_on         output_bit(PIN_C0,0) 
.................... #define   Bomba_off        output_bit(PIN_C0,1) 
....................  
.................... #define OFF 0 
.................... #define ON  1 
.................... #define RX_BUFFER_SIZE  10 
.................... char Rx_Buffer[RX_BUFFER_SIZE+1]; 
.................... char Rx_Buffer2[RX_BUFFER_SIZE+1]; 
.................... char RX_Wr_Index=0; 
.................... char RX_Rd_Index=0; 
.................... char RX_Counter=0; 
....................  
.................... #define TX_BUFFER_SIZE  24 
.................... char Tx_Buffer[TX_BUFFER_SIZE+1]; 
.................... char TX_Wr_Index=0; 
.................... char TX_Counter=0; 
.................... //int1 RX_Buffer_Overflow=0; 
....................  
.................... //Comunicacion//------------------------ 
.................... byte SlaveA0Tx[40]; 
.................... byte dato=0;            //Contendr la informacin a enviar o recibir 
.................... byte direccion=0;       //Contendr la direccin del esclavo en el bus I2C 
.................... byte posicion=0;        //Contendr la posicin en el buffer de memoria del esclavo donde se almacenar o de donde se recuperar el dato 
....................  
.................... /* Tabla de Modulos, Primera Fila Ao Regular y el siguiente ao Bisiesto 
.................... E   F   M   A   M   J   J   A   S   O   N   D 
.................... 0   3   3   6   1   4   6   2   5   0   3   5 
.................... 0   3   4   0   2   5   0   3   6   1   4   6 
.................... */ 
.................... int8 Regular[12]={0,3,3,6,1,4,6,2,5,0,3,5}; 
.................... int8 Bisiesto[12]={0,3,4,0,2,5,0,3,6,1,4,6}; 
....................  
.................... //Alarmas//--------------------- 
.................... short AlarmaTiempoProlongado=OFF,AlarmaSobreTemperatura=OFF,AlarmaLlenado=OFF,AlarmaTermostato=OFF,AlarmaPuerta=OFF,AlarmaEmergencia=OFF,AlarmaCiclo=OFF,AlarmaPuertaL=OFF,borra=OFF; 
....................  
.................... //Banderas//-------------------- 
.................... short IniciaLlenado=OFF,CalderinLleno=OFF,IniciaCiclo=OFF,Esterilizando=OFF,Secando=OFF,SensadoNivel=OFF,Desfogando=OFF,DesfogueSuave=OFF,LOW=OFF,HIG=OFF; 
.................... short EstadoDesfogue=OFF,EstadoAgua=OFF,EstadoSSR=OFF,PruebaEstados=OFF,Ciclo=OFF,flagCalentando=OFF,flagEsterilizando=OFF,EstadoAire=OFF; 
.................... short flagDesfogando=OFF,Op=OFF,Op2=OFF,Minutos=OFF,Segundos=OFF,GuardaEEPROM=OFF,EstadoPaso=OFF,EstadoBuzzer=OFF,flagAlarma=OFF; 
.................... short flagBuzzer=OFF,flagSilencio=OFF,Finalizo=OFF,AlarmaPresion=OFF,Libre=OFF,purga=OFF,entro=OFF,Aire=OFF,disp_Guarda=OFF,guardaCiclo=OFF,flagBombaAgua=OFF,flagBombaAguaOff=OFF; 
....................  
.................... //Tiempos//--------------------- 
.................... int16 TiempoCiclo=0,TiempoLlenado=0,TiempoSensadoNivel=0,Tp=0,Tc=0,tguarda=0; 
.................... signed int  Testerilizacion[5]={0,0,0,0,0};   // Tiempo transcurrido 
.................... signed int  Testerilizacionp[5]={0,0,0,0,0};   // Tiempo transcurrido 
.................... signed int  Tsecado[4]={0,0,0,0};   // Tiempo transcurrido 
.................... signed int  Tsecadop[4]={0,0,0,0};   // Tiempo transcurrido 
....................  
.................... //Control//------------------------ 
.................... float promedio[80]={0.0,0.0,0.0,0.0,0.0,0.0,0.0,0.0,0.0,0.0,0.0,0.0,0.0,0.0,0.0,0.0,0.0,0.0,0.0,0.0,0.0,0.0,0.0,0.0,0.0,0.0,0.0,0.0,0.0,0.0,0.0,0.0,0.0,0.0,0.0,0.0,0.0,0.0,0.0,0.0,0.0,0.0,0.0,0.0,0.0,0.0,0.0,0.0,0.0,0.0,0.0,0.0,0.0,0.0,0.0,0.0,0.0,0.0,0.0,0.0,0.0,0.0,0.0,0.0}; 
.................... float PromPresion[20]={0.0,0.0,0.0,0.0,0.0,0.0,0.0,0.0,0.0,0.0,0.0,0.0,0.0,0.0,0.0,0.0,0.0,0.0,0.0,0.0}; 
.................... float PromPresionp[20]={0.0,0.0,0.0,0.0,0.0,0.0,0.0,0.0,0.0,0.0,0.0,0.0,0.0,0.0,0.0,0.0,0.0,0.0,0.0,0.0}; 
.................... float Gain=141.6,RPT100=0.5,Temporal=0.0; 
.................... float R1=100,R10=6800; 
.................... float X[2]={0.0,0.0}; 
.................... float Xx[2]={0.0,0.0}; 
.................... float promediopresion=0.0,Aumento=0.0,Aumento2=0.0,promediopresionp=0.0; 
.................... int8 h=0,l=0,Ajuste=0,Ajusten=0,MediaMovil=20,TTrampa=0,PantallaPrincipal=0,TipoClave=0,Modulo=0,Digito=0,yy=0,codigoAlarma=0,codigoAnt=0; 
.................... int16 posicionDato=0,cicloVisto=0,cicloVisualizado=0; 
.................... float V0=0.0,Pt,Tciclo=10.0,Tpulso=0.0,error=0.0,Prom=0.0,Temperature=0.0,tmp=0.0,Ganancia=25.0,Ganancia2=20.0,desvio=1.2,tmp2=0.0; 
.................... float V1=0.0,Presion=0.0,V2=0.0,Presionp=0.0; 
.................... float Temperatura=0.0,K=0.0012858; 
.................... float a=0.0011,b=2.3302,c=-244.0723; 
.................... int8 Integral=0,Derivativo=0,CicloLibre=0; 
.................... float p1=0.0000011617,p2=-0.0010575,p3=0.44114,p4=65.043,Tactual=0.0; 
....................  
.................... //Varios//-------------------------------- 
.................... short desfoguelento=0,Lectura=0,Grafica=0; 
.................... short disp_Stop=0,flagTC=0,flagImprime=0,flagImprimir=0; 
.................... int8 Control=0,tiemporecta=0,Controlando=0,ActivaImpresion=1,timpresion=2,CalculoImpresion=0,Inicio=1,Dato_Exitoso=0,Dato2=0,z=0; 
.................... int8 Menu=0, MenuAnt=0,MenuAntt=240,CiclosL=0,CiclosH=0,CicloSeleccionado=0; 
.................... int8 Setpoint=0,Opcion=1,Opcion2=1,tiempo_esterilizacion=0,tiempo_secado=0,tiempoImpresion=0; 
.................... int16 tiempos=0,tiempos2=0,tiempos3=0,tiempoctrl=0,Nivel=0,tinicio=0,PresionCamara=0,PresionPreCamara=0,Ciclos=0,NivelSeleccionado=0,tBombaAgua=0,tBombaAguaOff=0,i=0,j=0; 
.................... signed int  Contrasena[4]={0,0,0,0};      // Contrasena de 4 digitos 
.................... signed int  Password[4]={0,0,0,0};        // Contrasena Almacenada de 4 digitos 
.................... int8 r=0,t=0,r22=0,t2=0,TiempoControl=0; 
.................... int8 y=0,ConteoBuzzer=0; 
.................... int16 t_exhaust=0,tbuzzer=0,tsilencio=0,tiempoAgua=0,tStop=0,tTermostato=0; 
.................... int8 Year=18,Mes=9,Dia=13,Hora=0,Minuto=0,Segundo=0,dow=0,mEst=0,sEst=0,mSec=0,sSec=0; 
.................... int8 YearTx=0,MesTx=0,DiaTx=0,HoraTx=0,MinutoTx=0,SegundoTx=0,dowTx=0,SetTime=0,Imprime=0; 
.................... int8 Atmosferica=72; 
.................... signed int8 G1=0,G2=0,sg1=0,sg2=0; 
.................... int8 iconoGrande[9]={25,16,22,24,23,28,20,46,69}; 
.................... int8 iconoPeque[9]={34,36,18,33,32,38,19,17,68}; 
.................... char const texto[9][20]={"LIQUIDOS A","CAUCHO","INSTRUMENTAL","LIQUIDOS B","LIBRE","TEST","HORA Y FECHA","CLAVE","DATOS"}; 
.................... int8 diaCiclos=0,mesCiclos=0,yearCiclos=0,usuarioCiclos=0,cicloCiclos=0; 
....................  
.................... float TCiclos[7]; 
.................... int16 PcCiclos[7]; 
.................... int16 PpcCiclos[7]; 
.................... int8 horaCiclos[7]; 
.................... int8 minutoCiclos[7]; 
.................... int8 ACiclos[7]; 
....................  
.................... typedef struct{ 
....................    int8 Temperatura; 
....................    int8 MinutoestH; 
....................    int8 MinutoestL; 
....................    int8 Segundoest; 
....................    int8 Minutosec; 
....................    int8 Segundosec; 
....................    int8 PulsosVacio; 
....................    int8 NivelVacio; 
....................    int8 NivelDesfogue; 
....................    int8 Minutoest; 
.................... }Personalizado; 
....................  
.................... Personalizado CiclosPersonalizados[4]; 
....................  
.................... #include "Funciones.h" 
.................... float inttofloat(int8 decimal){ 
....................    float tmp; 
....................    tmp=decimal; 
05B08:  MOVLB  4
05B0A:  CLRF   x66
05B0C:  MOVFF  454,465
05B10:  MOVLB  0
05B12:  CALL   1B72
05B16:  MOVFF  03,458
05B1A:  MOVFF  02,457
05B1E:  MOVFF  01,456
05B22:  MOVFF  00,455
....................    return tmp/10; 
05B26:  MOVFF  458,45C
05B2A:  MOVFF  457,45B
05B2E:  MOVFF  456,45A
05B32:  MOVFF  455,459
05B36:  MOVLB  4
05B38:  CLRF   x60
05B3A:  CLRF   x5F
05B3C:  MOVLW  20
05B3E:  MOVWF  x5E
05B40:  MOVLW  82
05B42:  MOVWF  x5D
05B44:  MOVLB  0
05B46:  CALL   1BA8
.................... } 
05B4A:  GOTO   5F12 (RETURN)
....................  
.................... void BorraBuffer(void){ 
.................... RX_Buffer[0]=0; 
*
04C74:  CLRF   30
.................... RX_Buffer[1]=0; 
04C76:  CLRF   31
.................... RX_Buffer[2]=0; 
04C78:  CLRF   32
.................... RX_Buffer[3]=0; 
04C7A:  CLRF   33
.................... RX_Buffer[4]=0; 
04C7C:  CLRF   34
.................... RX_Buffer[5]=0; 
04C7E:  CLRF   35
.................... RX_Buffer[6]=0; 
04C80:  CLRF   36
.................... RX_Buffer[7]=0; 
04C82:  CLRF   37
.................... RX_Buffer[8]=0; 
04C84:  CLRF   38
.................... RX_Buffer[9]=0; 
04C86:  CLRF   39
....................  
.................... RX_Buffer2[0]=0; 
04C88:  CLRF   3B
.................... RX_Buffer2[1]=0; 
04C8A:  CLRF   3C
.................... RX_Buffer2[2]=0; 
04C8C:  CLRF   3D
.................... RX_Buffer2[3]=0; 
04C8E:  CLRF   3E
.................... RX_Buffer2[4]=0; 
04C90:  CLRF   3F
.................... RX_Buffer2[5]=0; 
04C92:  CLRF   40
.................... RX_Buffer2[6]=0; 
04C94:  CLRF   41
.................... RX_Buffer2[7]=0; 
04C96:  CLRF   42
.................... RX_Buffer2[8]=0; 
04C98:  CLRF   43
.................... RX_Buffer2[9]=0; 
04C9A:  CLRF   44
....................  
.................... } 
04C9C:  GOTO   8A72 (RETURN)
....................  
.................... char bgetc(void){ 
....................    char c; 
....................    while(RX_Counter==0) 
....................       ; 
....................    c=Rx_Buffer2[RX_Rd_Index]; 
....................    if(++RX_Rd_Index>RX_BUFFER_SIZE) 
....................       RX_Rd_Index=0; 
....................    if(RX_Counter) 
....................       RX_Counter--; 
....................    return c; 
.................... } 
....................  
.................... void bputc(char c){ 
....................    char restart=0; 
....................    while(TX_Counter> (TX_BUFFER_SIZE-1)) 
....................       ; 
....................    if(TX_Counter==0) 
....................       restart=1; 
....................    TX_Buffer[TX_Wr_Index++]=c; 
....................    if(TX_Wr_Index>TX_BUFFER_SIZE) 
....................       TX_Wr_Index=0; 
....................     
....................    TX_Counter++; 
....................     
....................    if(restart==1) 
....................       enable_interrupts(int_tbe); 
.................... } 
....................  
.................... void SendDataDisplay(void){ 
.................... delay_us(10); 
*
03CD8:  MOVLW  10
03CDA:  MOVWF  00
03CDC:  DECFSZ 00,F
03CDE:  BRA    3CDC
03CE0:  NOP   
.................... putc(0xFF); 
03CE2:  MOVLW  FF
03CE4:  RCALL  3CD0
.................... delay_us(10); 
03CE6:  MOVLW  10
03CE8:  MOVWF  00
03CEA:  DECFSZ 00,F
03CEC:  BRA    3CEA
03CEE:  NOP   
.................... putc(0xFF); 
03CF0:  MOVLW  FF
03CF2:  RCALL  3CD0
.................... delay_us(10); 
03CF4:  MOVLW  10
03CF6:  MOVWF  00
03CF8:  DECFSZ 00,F
03CFA:  BRA    3CF8
03CFC:  NOP   
.................... putc(0xFF); 
03CFE:  MOVLW  FF
03D00:  RCALL  3CD0
.................... delay_us(10); 
03D02:  MOVLW  10
03D04:  MOVWF  00
03D06:  DECFSZ 00,F
03D08:  BRA    3D06
03D0A:  NOP   
.................... } 
03D0C:  RETLW  00
....................  
.................... short esBisiesto(int8 year) { 
....................      return ((year % 4 == 0 && year % 100 != 0) || year % 400 == 0); 
*
057E4:  MOVLB  4
057E6:  MOVF   x50,W
057E8:  ANDLW  03
057EA:  BNZ   5800
057EC:  MOVFF  450,45A
057F0:  MOVLW  64
057F2:  MOVWF  x5B
057F4:  MOVLB  0
057F6:  CALL   4CD2
057FA:  MOVF   00,F
057FC:  BNZ   5830
057FE:  MOVLB  4
05800:  CLRF   x6A
05802:  MOVFF  450,469
05806:  MOVLW  01
05808:  MOVWF  x6C
0580A:  MOVLW  90
0580C:  MOVWF  x6B
0580E:  MOVLB  0
05810:  CALL   4FE4
05814:  MOVFF  00,451
05818:  MOVLB  4
0581A:  MOVFF  03,452
0581E:  MOVF   x51,F
05820:  BNZ   582C
05822:  MOVF   x52,F
05824:  BTFSS  FD8.2
05826:  BRA    582C
05828:  MOVLB  0
0582A:  BRA    5830
0582C:  MOVLW  00
0582E:  BRA    5834
05830:  MOVLW  01
05832:  MOVLB  4
05834:  MOVWF  01
.................... } 
05836:  MOVLB  0
05838:  RETLW  00
....................  
.................... void LimitaDia(){ 
....................    if(MesTx>12) 
*
05928:  MOVLB  3
0592A:  MOVF   xB7,W
0592C:  SUBLW  0C
0592E:  BC    5934
....................       MesTx=10; 
05930:  MOVLW  0A
05932:  MOVWF  xB7
....................    if(DiaTx>31) 
05934:  MOVF   xB8,W
05936:  SUBLW  1F
05938:  BC    593E
....................       DiaTx=16; 
0593A:  MOVLW  10
0593C:  MOVWF  xB8
....................    if(YearTx>99) 
0593E:  MOVF   xB6,W
05940:  SUBLW  63
05942:  BC    5948
....................       YearTx=18;    
05944:  MOVLW  12
05946:  MOVWF  xB6
....................    if(HoraTx>24) 
05948:  MOVF   xB9,W
0594A:  SUBLW  18
0594C:  BC    5952
....................       HoraTx=11;       
0594E:  MOVLW  0B
05950:  MOVWF  xB9
....................    if(MinutoTx>59) 
05952:  MOVF   xBA,W
05954:  SUBLW  3B
05956:  BC    595C
....................       MinutoTx=30;       
05958:  MOVLW  1E
0595A:  MOVWF  xBA
....................     
....................       if(MesTx==2){ 
0595C:  MOVF   xB7,W
0595E:  SUBLW  02
05960:  BNZ   598C
....................          if(esBisiesto(YearTx)){ 
05962:  MOVFF  3B6,450
05966:  MOVLB  0
05968:  RCALL  57E4
0596A:  MOVF   01,F
0596C:  BZ    597E
....................             if(DiaTx>29){ 
0596E:  MOVLB  3
05970:  MOVF   xB8,W
05972:  SUBLW  1D
05974:  BC    597A
....................                DiaTx=29; 
05976:  MOVLW  1D
05978:  MOVWF  xB8
....................                //glcd_fillScreen(OFF); 
....................             } 
....................          }else{ 
0597A:  BRA    598A
0597C:  MOVLB  0
....................             if(DiaTx>28){ 
0597E:  MOVLB  3
05980:  MOVF   xB8,W
05982:  SUBLW  1C
05984:  BC    598A
....................                DiaTx=28; 
05986:  MOVLW  1C
05988:  MOVWF  xB8
....................                //glcd_fillScreen(OFF); 
....................             } 
....................          } 
....................       }else{ 
0598A:  BRA    59B6
....................          if(MesTx<=7){ 
0598C:  MOVF   xB7,W
0598E:  SUBLW  07
05990:  BNC   59A4
....................             if(MesTx % 2 ==0){ 
05992:  MOVF   xB7,W
05994:  ANDLW  01
05996:  BNZ   59A2
....................                if(DiaTx>30){ 
05998:  MOVF   xB8,W
0599A:  SUBLW  1E
0599C:  BC    59A2
....................                   DiaTx=30;  
0599E:  MOVLW  1E
059A0:  MOVWF  xB8
....................                   //glcd_fillScreen(OFF); 
....................                } 
....................             } 
....................          }else{ 
059A2:  BRA    59B6
....................             if(MesTx % 2 ==1){ 
059A4:  MOVF   xB7,W
059A6:  ANDLW  01
059A8:  SUBLW  01
059AA:  BNZ   59B6
....................                if(DiaTx>30){ 
059AC:  MOVF   xB8,W
059AE:  SUBLW  1E
059B0:  BC    59B6
....................                   DiaTx=30;  
059B2:  MOVLW  1E
059B4:  MOVWF  xB8
....................                   //glcd_fillScreen(OFF); 
....................                } 
....................             } 
....................          } 
....................       } 
.................... } 
059B6:  MOVLB  0
059B8:  GOTO   B9EC (RETURN)
....................  
.................... void ActualizaRecta(){ 
....................    X[y]=Temperature; 
*
075B6:  MOVLB  3
075B8:  MOVF   x9D,W
075BA:  MULLW  04
075BC:  MOVF   FF3,W
075BE:  CLRF   03
075C0:  ADDLW  BF
075C2:  MOVWF  FE9
075C4:  MOVLW  02
075C6:  ADDWFC 03,W
075C8:  MOVWF  FEA
075CA:  MOVFF  30A,FEF
075CE:  MOVFF  30B,FEC
075D2:  MOVFF  30C,FEC
075D6:  MOVFF  30D,FEC
....................    y++; 
075DA:  INCF   x9D,F
....................    if(y>=2) 
075DC:  MOVF   x9D,W
075DE:  SUBLW  01
075E0:  BC    761E
....................    { 
....................       y=0; 
075E2:  CLRF   x9D
....................       Aumento=X[1]-X[0]; 
075E4:  BSF    FD8.1
075E6:  MOVFF  2C6,468
075EA:  MOVFF  2C5,467
075EE:  MOVFF  2C4,466
075F2:  MOVFF  2C3,465
075F6:  MOVFF  2C2,46C
075FA:  MOVFF  2C1,46B
075FE:  MOVFF  2C0,46A
07602:  MOVFF  2BF,469
07606:  MOVLB  0
07608:  CALL   1D06
0760C:  MOVFF  03,2D6
07610:  MOVFF  02,2D5
07614:  MOVFF  01,2D4
07618:  MOVFF  00,2D3
0761C:  MOVLB  3
....................    } 
.................... } 
0761E:  MOVLB  0
07620:  GOTO   769C (RETURN)
....................  
.................... void ActualizaRectaPresion(){ 
....................    Xx[yy]=Tactual; 
....................    yy++; 
....................    if(yy>=2){ 
....................       yy=0; 
....................       Aumento2=Xx[1]-Xx[0]; 
....................    } 
.................... } 
....................  
.................... // Funcion para conversor analogo-digital 
.................... float sensores(int x){ 
.................... float y;set_adc_channel(x);delay_ms(1);y=read_adc();return (y); 
*
03D2C:  MOVLB  4
03D2E:  RLCF   x59,W
03D30:  MOVWF  00
03D32:  RLCF   00,F
03D34:  MOVLW  FC
03D36:  ANDWF  00,F
03D38:  MOVFF  00,01
03D3C:  MOVF   FC2,W
03D3E:  ANDLW  C3
03D40:  IORWF  00,W
03D42:  MOVWF  FC2
03D44:  MOVLW  01
03D46:  MOVWF  x69
03D48:  MOVLB  0
03D4A:  CALL   1B4A
03D4E:  BSF    FC2.1
03D50:  BTFSC  FC2.1
03D52:  BRA    3D50
03D54:  MOVFF  FC4,466
03D58:  MOVFF  FC3,465
03D5C:  MOVLB  0
03D5E:  CALL   1B72
03D62:  MOVFF  03,45D
03D66:  MOVFF  02,45C
03D6A:  MOVFF  01,45B
03D6E:  MOVFF  00,45A
03D72:  MOVFF  45A,00
03D76:  MOVFF  45B,01
03D7A:  MOVFF  45C,02
03D7E:  MOVFF  45D,03
.................... } 
03D82:  RETLW  00
.................... float LeerPT100(int media) 
.................... { 
*
03E7A:  MOVLB  4
03E7C:  CLRF   x54
03E7E:  CLRF   x53
03E80:  CLRF   x52
03E82:  CLRF   x51
03E84:  CLRF   x58
03E86:  CLRF   x57
03E88:  CLRF   x56
03E8A:  CLRF   x55
....................    float ajp=0.0,ajn=0.0; 
....................    Prom=0.0; 
03E8C:  MOVLB  3
03E8E:  CLRF   x09
03E90:  CLRF   x08
03E92:  CLRF   x07
03E94:  CLRF   x06
....................    V0 = sensores(0);   //Lectura de Divisor de Voltaje de PT100 con resistencia de 6.18k (+-2%) 
03E96:  MOVLB  4
03E98:  CLRF   x59
03E9A:  MOVLB  0
03E9C:  RCALL  3D2C
03E9E:  MOVFF  03,2F5
03EA2:  MOVFF  02,2F4
03EA6:  MOVFF  01,2F3
03EAA:  MOVFF  00,2F2
....................    V0 = V0/105.56; // Se elimina la ganancia 
03EAE:  MOVFF  2F5,45C
03EB2:  MOVFF  2F4,45B
03EB6:  MOVFF  2F3,45A
03EBA:  MOVFF  2F2,459
03EBE:  MOVLW  B8
03EC0:  MOVLB  4
03EC2:  MOVWF  x60
03EC4:  MOVLW  1E
03EC6:  MOVWF  x5F
03EC8:  MOVLW  53
03ECA:  MOVWF  x5E
03ECC:  MOVLW  85
03ECE:  MOVWF  x5D
03ED0:  MOVLB  0
03ED2:  CALL   1BA8
03ED6:  MOVFF  03,2F5
03EDA:  MOVFF  02,2F4
03EDE:  MOVFF  01,2F3
03EE2:  MOVFF  00,2F2
....................    //V0 += 14.82; 
....................    V0 += 14.79;//5.039V 72.5mV 
03EE6:  BCF    FD8.1
03EE8:  MOVFF  2F5,468
03EEC:  MOVFF  2F4,467
03EF0:  MOVFF  2F3,466
03EF4:  MOVFF  2F2,465
03EF8:  MOVLW  D7
03EFA:  MOVLB  4
03EFC:  MOVWF  x6C
03EFE:  MOVLW  A3
03F00:  MOVWF  x6B
03F02:  MOVLW  6C
03F04:  MOVWF  x6A
03F06:  MOVLW  82
03F08:  MOVWF  x69
03F0A:  MOVLB  0
03F0C:  CALL   1D06
03F10:  MOVFF  03,2F5
03F14:  MOVFF  02,2F4
03F18:  MOVFF  01,2F3
03F1C:  MOVFF  00,2F2
....................    Pt=R10/((1023/V0)-1); 
03F20:  MOVLB  4
03F22:  CLRF   x5C
03F24:  MOVLW  C0
03F26:  MOVWF  x5B
03F28:  MOVLW  7F
03F2A:  MOVWF  x5A
03F2C:  MOVLW  88
03F2E:  MOVWF  x59
03F30:  MOVFF  2F5,460
03F34:  MOVFF  2F4,45F
03F38:  MOVFF  2F3,45E
03F3C:  MOVFF  2F2,45D
03F40:  MOVLB  0
03F42:  CALL   1BA8
03F46:  MOVFF  00,459
03F4A:  MOVFF  01,45A
03F4E:  MOVFF  02,45B
03F52:  MOVFF  03,45C
03F56:  BSF    FD8.1
03F58:  MOVFF  03,468
03F5C:  MOVFF  02,467
03F60:  MOVFF  01,466
03F64:  MOVFF  00,465
03F68:  MOVLB  4
03F6A:  CLRF   x6C
03F6C:  CLRF   x6B
03F6E:  CLRF   x6A
03F70:  MOVLW  7F
03F72:  MOVWF  x69
03F74:  MOVLB  0
03F76:  CALL   1D06
03F7A:  MOVFF  2BE,45C
03F7E:  MOVFF  2BD,45B
03F82:  MOVFF  2BC,45A
03F86:  MOVFF  2BB,459
03F8A:  MOVFF  03,460
03F8E:  MOVFF  02,45F
03F92:  MOVFF  01,45E
03F96:  MOVFF  00,45D
03F9A:  CALL   1BA8
03F9E:  MOVFF  03,2F9
03FA2:  MOVFF  02,2F8
03FA6:  MOVFF  01,2F7
03FAA:  MOVFF  00,2F6
....................              
....................    if(l>(media-1)) 
03FAE:  MOVLW  01
03FB0:  MOVLB  4
03FB2:  SUBWF  x50,W
03FB4:  MOVLB  2
03FB6:  SUBWF  xE0,W
03FB8:  BZ    3FBE
03FBA:  BNC   3FBE
....................    {l=0;} 
03FBC:  CLRF   xE0
....................    //promedio[l]=Temperature;l++; 
....................    promedio[l]=Pt;l++; 
03FBE:  MOVLB  4
03FC0:  CLRF   x6C
03FC2:  MOVFF  2E0,46B
03FC6:  CLRF   x6E
03FC8:  MOVLW  04
03FCA:  MOVWF  x6D
03FCC:  MOVLB  0
03FCE:  CALL   1F7E
03FD2:  MOVF   01,W
03FD4:  ADDLW  CB
03FD6:  MOVWF  FE9
03FD8:  MOVLW  00
03FDA:  ADDWFC 02,W
03FDC:  MOVWF  FEA
03FDE:  MOVFF  2F6,FEF
03FE2:  MOVFF  2F7,FEC
03FE6:  MOVFF  2F8,FEC
03FEA:  MOVFF  2F9,FEC
03FEE:  MOVLB  2
03FF0:  INCF   xE0,F
....................           
....................    for(h=0;h<media;h++) 
03FF2:  CLRF   xDF
03FF4:  MOVLB  4
03FF6:  MOVF   x50,W
03FF8:  MOVLB  2
03FFA:  SUBWF  xDF,W
03FFC:  BC    407E
....................    { 
....................       Prom+=promedio[h]; 
03FFE:  MOVLB  4
04000:  CLRF   x6C
04002:  MOVFF  2DF,46B
04006:  CLRF   x6E
04008:  MOVLW  04
0400A:  MOVWF  x6D
0400C:  MOVLB  0
0400E:  CALL   1F7E
04012:  MOVFF  02,03
04016:  MOVF   01,W
04018:  ADDLW  CB
0401A:  MOVWF  FE9
0401C:  MOVLW  00
0401E:  ADDWFC 02,W
04020:  MOVWF  FEA
04022:  MOVFF  FEF,00
04026:  MOVFF  FEC,01
0402A:  MOVFF  FEC,02
0402E:  MOVFF  FEC,03
04032:  MOVFF  FEA,45A
04036:  MOVFF  FE9,459
0403A:  BCF    FD8.1
0403C:  MOVFF  309,468
04040:  MOVFF  308,467
04044:  MOVFF  307,466
04048:  MOVFF  306,465
0404C:  MOVFF  03,46C
04050:  MOVFF  02,46B
04054:  MOVFF  01,46A
04058:  MOVFF  00,469
0405C:  CALL   1D06
04060:  MOVFF  45A,FEA
04064:  MOVFF  459,FE9
04068:  MOVFF  03,309
0406C:  MOVFF  02,308
04070:  MOVFF  01,307
04074:  MOVFF  00,306
....................    }  
04078:  MOVLB  2
0407A:  INCF   xDF,F
0407C:  BRA    3FF4
....................    Prom=Prom/media;    
0407E:  MOVLB  4
04080:  CLRF   x66
04082:  MOVFF  450,465
04086:  MOVLB  0
04088:  CALL   1B72
0408C:  MOVFF  309,45C
04090:  MOVFF  308,45B
04094:  MOVFF  307,45A
04098:  MOVFF  306,459
0409C:  MOVFF  03,460
040A0:  MOVFF  02,45F
040A4:  MOVFF  01,45E
040A8:  MOVFF  00,45D
040AC:  CALL   1BA8
040B0:  MOVFF  03,309
040B4:  MOVFF  02,308
040B8:  MOVFF  01,307
040BC:  MOVFF  00,306
....................    //Temperature=(Prom-100.0)/(0.385);  // Ecuacin determinada por linealizacin en Matlab. Revisar este polinomio.   
....................    Temperature=((Prom*Prom)*a)+(Prom*b)+c;  // Ecuacin determinada por linealizacin en Matlab. Revisar este polinomio. 
040C0:  MOVFF  309,46C
040C4:  MOVFF  308,46B
040C8:  MOVFF  307,46A
040CC:  MOVFF  306,469
040D0:  MOVFF  309,470
040D4:  MOVFF  308,46F
040D8:  MOVFF  307,46E
040DC:  MOVFF  306,46D
040E0:  RCALL  3D84
040E2:  MOVFF  00,459
040E6:  MOVFF  01,45A
040EA:  MOVFF  02,45B
040EE:  MOVFF  03,45C
040F2:  MOVFF  03,46C
040F6:  MOVFF  02,46B
040FA:  MOVFF  01,46A
040FE:  MOVFF  00,469
04102:  MOVFF  33D,470
04106:  MOVFF  33C,46F
0410A:  MOVFF  33B,46E
0410E:  MOVFF  33A,46D
04112:  RCALL  3D84
04114:  MOVFF  00,459
04118:  MOVFF  01,45A
0411C:  MOVFF  02,45B
04120:  MOVFF  03,45C
04124:  MOVFF  309,46C
04128:  MOVFF  308,46B
0412C:  MOVFF  307,46A
04130:  MOVFF  306,469
04134:  MOVFF  341,470
04138:  MOVFF  340,46F
0413C:  MOVFF  33F,46E
04140:  MOVFF  33E,46D
04144:  RCALL  3D84
04146:  BCF    FD8.1
04148:  MOVFF  45C,468
0414C:  MOVFF  45B,467
04150:  MOVFF  45A,466
04154:  MOVFF  459,465
04158:  MOVFF  03,46C
0415C:  MOVFF  02,46B
04160:  MOVFF  01,46A
04164:  MOVFF  00,469
04168:  CALL   1D06
0416C:  MOVFF  00,459
04170:  MOVFF  01,45A
04174:  MOVFF  02,45B
04178:  MOVFF  03,45C
0417C:  BCF    FD8.1
0417E:  MOVFF  03,468
04182:  MOVFF  02,467
04186:  MOVFF  01,466
0418A:  MOVFF  00,465
0418E:  MOVFF  345,46C
04192:  MOVFF  344,46B
04196:  MOVFF  343,46A
0419A:  MOVFF  342,469
0419E:  CALL   1D06
041A2:  MOVFF  03,30D
041A6:  MOVFF  02,30C
041AA:  MOVFF  01,30B
041AE:  MOVFF  00,30A
....................    ajp=(float)Ajuste; 
041B2:  MOVLB  4
041B4:  CLRF   x66
041B6:  MOVFF  2E1,465
041BA:  MOVLB  0
041BC:  CALL   1B72
041C0:  MOVFF  03,454
041C4:  MOVFF  02,453
041C8:  MOVFF  01,452
041CC:  MOVFF  00,451
....................    ajp=ajp/10; 
041D0:  MOVFF  454,45C
041D4:  MOVFF  453,45B
041D8:  MOVFF  452,45A
041DC:  MOVFF  451,459
041E0:  MOVLB  4
041E2:  CLRF   x60
041E4:  CLRF   x5F
041E6:  MOVLW  20
041E8:  MOVWF  x5E
041EA:  MOVLW  82
041EC:  MOVWF  x5D
041EE:  MOVLB  0
041F0:  CALL   1BA8
041F4:  MOVFF  03,454
041F8:  MOVFF  02,453
041FC:  MOVFF  01,452
04200:  MOVFF  00,451
....................    ajn=(float)Ajusten; 
04204:  MOVLB  4
04206:  CLRF   x66
04208:  MOVFF  2E2,465
0420C:  MOVLB  0
0420E:  CALL   1B72
04212:  MOVFF  03,458
04216:  MOVFF  02,457
0421A:  MOVFF  01,456
0421E:  MOVFF  00,455
....................    ajn=ajn/10; 
04222:  MOVFF  458,45C
04226:  MOVFF  457,45B
0422A:  MOVFF  456,45A
0422E:  MOVFF  455,459
04232:  MOVLB  4
04234:  CLRF   x60
04236:  CLRF   x5F
04238:  MOVLW  20
0423A:  MOVWF  x5E
0423C:  MOVLW  82
0423E:  MOVWF  x5D
04240:  MOVLB  0
04242:  CALL   1BA8
04246:  MOVFF  03,458
0424A:  MOVFF  02,457
0424E:  MOVFF  01,456
04252:  MOVFF  00,455
....................    Temperature+=(ajp-ajn); 
04256:  BSF    FD8.1
04258:  MOVFF  454,468
0425C:  MOVFF  453,467
04260:  MOVFF  452,466
04264:  MOVFF  451,465
04268:  MOVFF  458,46C
0426C:  MOVFF  457,46B
04270:  MOVFF  456,46A
04274:  MOVFF  455,469
04278:  CALL   1D06
0427C:  BCF    FD8.1
0427E:  MOVFF  30D,468
04282:  MOVFF  30C,467
04286:  MOVFF  30B,466
0428A:  MOVFF  30A,465
0428E:  MOVFF  03,46C
04292:  MOVFF  02,46B
04296:  MOVFF  01,46A
0429A:  MOVFF  00,469
0429E:  CALL   1D06
042A2:  MOVFF  03,30D
042A6:  MOVFF  02,30C
042AA:  MOVFF  01,30B
042AE:  MOVFF  00,30A
....................    //Temperature-=39.0; 
....................     
....................    //return Prom; 
....................    return Temperature; 
042B2:  MOVFF  30A,00
042B6:  MOVFF  30B,01
042BA:  MOVFF  30C,02
042BE:  MOVFF  30D,03
.................... } 
042C2:  RETLW  00
....................  
.................... float Leer_Sensor_Presion_Camara(int media){ 
....................    promediopresion=0.0; 
042C4:  MOVLB  2
042C6:  CLRF   xD2
042C8:  CLRF   xD1
042CA:  CLRF   xD0
042CC:  CLRF   xCF
....................    V1 = sensores(5);   //Lectura de Divisor de Voltaje de PT100 con resistencia de 1k (+-10%) 
042CE:  MOVLW  05
042D0:  MOVLB  4
042D2:  MOVWF  x59
042D4:  MOVLB  0
042D6:  RCALL  3D2C
042D8:  MOVFF  03,325
042DC:  MOVFF  02,324
042E0:  MOVFF  01,323
042E4:  MOVFF  00,322
....................    //V1 = V1*(5.0/1024.0); 
....................    //Presion=(V1-0.2)/(K); 
....................    Presion=(((V1)/1023)-0.04)/K; 
042E8:  MOVFF  325,45C
042EC:  MOVFF  324,45B
042F0:  MOVFF  323,45A
042F4:  MOVFF  322,459
042F8:  MOVLB  4
042FA:  CLRF   x60
042FC:  MOVLW  C0
042FE:  MOVWF  x5F
04300:  MOVLW  7F
04302:  MOVWF  x5E
04304:  MOVLW  88
04306:  MOVWF  x5D
04308:  MOVLB  0
0430A:  CALL   1BA8
0430E:  MOVFF  00,451
04312:  MOVFF  01,452
04316:  MOVFF  02,453
0431A:  MOVFF  03,454
0431E:  BSF    FD8.1
04320:  MOVFF  03,468
04324:  MOVFF  02,467
04328:  MOVFF  01,466
0432C:  MOVFF  00,465
04330:  MOVLW  0A
04332:  MOVLB  4
04334:  MOVWF  x6C
04336:  MOVLW  D7
04338:  MOVWF  x6B
0433A:  MOVLW  23
0433C:  MOVWF  x6A
0433E:  MOVLW  7A
04340:  MOVWF  x69
04342:  MOVLB  0
04344:  CALL   1D06
04348:  MOVFF  00,451
0434C:  MOVFF  01,452
04350:  MOVFF  02,453
04354:  MOVFF  03,454
04358:  MOVFF  03,45C
0435C:  MOVFF  02,45B
04360:  MOVFF  01,45A
04364:  MOVFF  00,459
04368:  MOVFF  339,460
0436C:  MOVFF  338,45F
04370:  MOVFF  337,45E
04374:  MOVFF  336,45D
04378:  CALL   1BA8
0437C:  MOVFF  03,329
04380:  MOVFF  02,328
04384:  MOVFF  01,327
04388:  MOVFF  00,326
....................     
....................    if(Presion<0.0) 
0438C:  MOVFF  329,457
04390:  MOVFF  328,456
04394:  MOVFF  327,455
04398:  MOVFF  326,454
0439C:  MOVLB  4
0439E:  CLRF   x5B
043A0:  CLRF   x5A
043A2:  CLRF   x59
043A4:  CLRF   x58
043A6:  MOVLB  0
043A8:  CALL   30E0
043AC:  BNC   43B8
....................    { 
....................       Presion=0.0; 
043AE:  MOVLB  3
043B0:  CLRF   x29
043B2:  CLRF   x28
043B4:  CLRF   x27
043B6:  CLRF   x26
....................    } 
....................     
....................    if(r>media-1) 
043B8:  MOVLW  01
043BA:  MOVLB  4
043BC:  SUBWF  x50,W
043BE:  MOVLB  3
043C0:  SUBWF  x98,W
043C2:  BZ    43C8
043C4:  BNC   43C8
....................    {r=0;} 
043C6:  CLRF   x98
....................    PromPresion[r]=Presion;r++; 
043C8:  MOVF   x98,W
043CA:  MULLW  04
043CC:  MOVF   FF3,W
043CE:  CLRF   03
043D0:  ADDLW  0B
043D2:  MOVWF  FE9
043D4:  MOVLW  02
043D6:  ADDWFC 03,W
043D8:  MOVWF  FEA
043DA:  MOVFF  326,FEF
043DE:  MOVFF  327,FEC
043E2:  MOVFF  328,FEC
043E6:  MOVFF  329,FEC
043EA:  INCF   x98,F
....................           
....................    for(t=0;t<=(media-1);t++) 
043EC:  CLRF   x99
043EE:  MOVLW  01
043F0:  MOVLB  4
043F2:  SUBWF  x50,W
043F4:  MOVLB  3
043F6:  SUBWF  x99,W
043F8:  BZ    43FC
043FA:  BC    446C
....................    { 
....................       promediopresion+=PromPresion[t]; 
043FC:  MOVF   x99,W
043FE:  MULLW  04
04400:  MOVF   FF3,W
04402:  CLRF   03
04404:  ADDLW  0B
04406:  MOVWF  FE9
04408:  MOVLW  02
0440A:  ADDWFC 03,W
0440C:  MOVWF  FEA
0440E:  MOVFF  FEF,00
04412:  MOVFF  FEC,01
04416:  MOVFF  FEC,02
0441A:  MOVFF  FEC,03
0441E:  MOVFF  FEA,452
04422:  MOVFF  FE9,451
04426:  BCF    FD8.1
04428:  MOVFF  2D2,468
0442C:  MOVFF  2D1,467
04430:  MOVFF  2D0,466
04434:  MOVFF  2CF,465
04438:  MOVFF  03,46C
0443C:  MOVFF  02,46B
04440:  MOVFF  01,46A
04444:  MOVFF  00,469
04448:  MOVLB  0
0444A:  CALL   1D06
0444E:  MOVFF  452,FEA
04452:  MOVFF  451,FE9
04456:  MOVFF  03,2D2
0445A:  MOVFF  02,2D1
0445E:  MOVFF  01,2D0
04462:  MOVFF  00,2CF
....................    }  
04466:  MOVLB  3
04468:  INCF   x99,F
0446A:  BRA    43EE
....................    promediopresion=promediopresion/media;    
0446C:  MOVLB  4
0446E:  CLRF   x66
04470:  MOVFF  450,465
04474:  MOVLB  0
04476:  CALL   1B72
0447A:  MOVFF  2D2,45C
0447E:  MOVFF  2D1,45B
04482:  MOVFF  2D0,45A
04486:  MOVFF  2CF,459
0448A:  MOVFF  03,460
0448E:  MOVFF  02,45F
04492:  MOVFF  01,45E
04496:  MOVFF  00,45D
0449A:  CALL   1BA8
0449E:  MOVFF  03,2D2
044A2:  MOVFF  02,2D1
044A6:  MOVFF  01,2D0
044AA:  MOVFF  00,2CF
....................     
....................    return promediopresion; 
044AE:  MOVFF  2CF,00
044B2:  MOVFF  2D0,01
044B6:  MOVFF  2D1,02
044BA:  MOVFF  2D2,03
.................... } 
044BE:  RETLW  00
....................  
.................... float Leer_Sensor_Presion_PreCamara(int media){ 
....................    promediopresionp=0.0; 
*
044FC:  MOVLB  2
044FE:  CLRF   xDE
04500:  CLRF   xDD
04502:  CLRF   xDC
04504:  CLRF   xDB
....................    V2 = sensores(4);   //Lectura de Divisor de Voltaje de PT100 con resistencia de 1k (+-10%) 
04506:  MOVLW  04
04508:  MOVLB  4
0450A:  MOVWF  x59
0450C:  MOVLB  0
0450E:  RCALL  3D2C
04510:  MOVFF  03,32D
04514:  MOVFF  02,32C
04518:  MOVFF  01,32B
0451C:  MOVFF  00,32A
....................    //V2 = V2*(5.0/1024.0); 
....................    //Presionp=(V2-0.2)/(K); 
....................    Presionp=(((V2)/1023)-0.04)/K; 
04520:  MOVFF  32D,45C
04524:  MOVFF  32C,45B
04528:  MOVFF  32B,45A
0452C:  MOVFF  32A,459
04530:  MOVLB  4
04532:  CLRF   x60
04534:  MOVLW  C0
04536:  MOVWF  x5F
04538:  MOVLW  7F
0453A:  MOVWF  x5E
0453C:  MOVLW  88
0453E:  MOVWF  x5D
04540:  MOVLB  0
04542:  CALL   1BA8
04546:  MOVFF  00,451
0454A:  MOVFF  01,452
0454E:  MOVFF  02,453
04552:  MOVFF  03,454
04556:  BSF    FD8.1
04558:  MOVFF  03,468
0455C:  MOVFF  02,467
04560:  MOVFF  01,466
04564:  MOVFF  00,465
04568:  MOVLW  0A
0456A:  MOVLB  4
0456C:  MOVWF  x6C
0456E:  MOVLW  D7
04570:  MOVWF  x6B
04572:  MOVLW  23
04574:  MOVWF  x6A
04576:  MOVLW  7A
04578:  MOVWF  x69
0457A:  MOVLB  0
0457C:  CALL   1D06
04580:  MOVFF  00,451
04584:  MOVFF  01,452
04588:  MOVFF  02,453
0458C:  MOVFF  03,454
04590:  MOVFF  03,45C
04594:  MOVFF  02,45B
04598:  MOVFF  01,45A
0459C:  MOVFF  00,459
045A0:  MOVFF  339,460
045A4:  MOVFF  338,45F
045A8:  MOVFF  337,45E
045AC:  MOVFF  336,45D
045B0:  CALL   1BA8
045B4:  MOVFF  03,331
045B8:  MOVFF  02,330
045BC:  MOVFF  01,32F
045C0:  MOVFF  00,32E
....................     
....................    if(Presionp<0.0) 
045C4:  MOVFF  331,457
045C8:  MOVFF  330,456
045CC:  MOVFF  32F,455
045D0:  MOVFF  32E,454
045D4:  MOVLB  4
045D6:  CLRF   x5B
045D8:  CLRF   x5A
045DA:  CLRF   x59
045DC:  CLRF   x58
045DE:  MOVLB  0
045E0:  CALL   30E0
045E4:  BNC   45F0
....................    { 
....................       Presionp=0.0; 
045E6:  MOVLB  3
045E8:  CLRF   x31
045EA:  CLRF   x30
045EC:  CLRF   x2F
045EE:  CLRF   x2E
....................    } 
....................     
....................    if(r22>media-1) 
045F0:  MOVLW  01
045F2:  MOVLB  4
045F4:  SUBWF  x50,W
045F6:  MOVLB  3
045F8:  SUBWF  x9A,W
045FA:  BZ    4600
045FC:  BNC   4600
....................    {r22=0;} 
045FE:  CLRF   x9A
....................    PromPresionp[r22]=Presionp;r22++; 
04600:  MOVF   x9A,W
04602:  MULLW  04
04604:  MOVF   FF3,W
04606:  CLRF   03
04608:  ADDLW  5B
0460A:  MOVWF  FE9
0460C:  MOVLW  02
0460E:  ADDWFC 03,W
04610:  MOVWF  FEA
04612:  MOVFF  32E,FEF
04616:  MOVFF  32F,FEC
0461A:  MOVFF  330,FEC
0461E:  MOVFF  331,FEC
04622:  INCF   x9A,F
....................           
....................    for(t2=0;t2<=(media-1);t2++) 
04624:  CLRF   x9B
04626:  MOVLW  01
04628:  MOVLB  4
0462A:  SUBWF  x50,W
0462C:  MOVLB  3
0462E:  SUBWF  x9B,W
04630:  BZ    4634
04632:  BC    46A4
....................    { 
....................       promediopresionp+=PromPresionp[t2]; 
04634:  MOVF   x9B,W
04636:  MULLW  04
04638:  MOVF   FF3,W
0463A:  CLRF   03
0463C:  ADDLW  5B
0463E:  MOVWF  FE9
04640:  MOVLW  02
04642:  ADDWFC 03,W
04644:  MOVWF  FEA
04646:  MOVFF  FEF,00
0464A:  MOVFF  FEC,01
0464E:  MOVFF  FEC,02
04652:  MOVFF  FEC,03
04656:  MOVFF  FEA,452
0465A:  MOVFF  FE9,451
0465E:  BCF    FD8.1
04660:  MOVFF  2DE,468
04664:  MOVFF  2DD,467
04668:  MOVFF  2DC,466
0466C:  MOVFF  2DB,465
04670:  MOVFF  03,46C
04674:  MOVFF  02,46B
04678:  MOVFF  01,46A
0467C:  MOVFF  00,469
04680:  MOVLB  0
04682:  CALL   1D06
04686:  MOVFF  452,FEA
0468A:  MOVFF  451,FE9
0468E:  MOVFF  03,2DE
04692:  MOVFF  02,2DD
04696:  MOVFF  01,2DC
0469A:  MOVFF  00,2DB
....................    }  
0469E:  MOVLB  3
046A0:  INCF   x9B,F
046A2:  BRA    4626
....................    promediopresionp=promediopresionp/media;    
046A4:  MOVLB  4
046A6:  CLRF   x66
046A8:  MOVFF  450,465
046AC:  MOVLB  0
046AE:  CALL   1B72
046B2:  MOVFF  2DE,45C
046B6:  MOVFF  2DD,45B
046BA:  MOVFF  2DC,45A
046BE:  MOVFF  2DB,459
046C2:  MOVFF  03,460
046C6:  MOVFF  02,45F
046CA:  MOVFF  01,45E
046CE:  MOVFF  00,45D
046D2:  CALL   1BA8
046D6:  MOVFF  03,2DE
046DA:  MOVFF  02,2DD
046DE:  MOVFF  01,2DC
046E2:  MOVFF  00,2DB
....................     
....................    return promediopresionp; 
046E6:  MOVFF  2DB,00
046EA:  MOVFF  2DC,01
046EE:  MOVFF  2DD,02
046F2:  MOVFF  2DE,03
.................... } 
046F6:  GOTO   8540 (RETURN)
....................  
.................... void Controla(){ 
....................    if(tiemporecta>=Derivativo/2.0) 
*
07624:  MOVLB  4
07626:  CLRF   x66
07628:  MOVFF  347,465
0762C:  MOVLB  0
0762E:  CALL   1B72
07632:  MOVFF  03,45C
07636:  MOVFF  02,45B
0763A:  MOVFF  01,45A
0763E:  MOVFF  00,459
07642:  MOVLB  4
07644:  CLRF   x60
07646:  CLRF   x5F
07648:  CLRF   x5E
0764A:  MOVLW  80
0764C:  MOVWF  x5D
0764E:  MOVLB  0
07650:  CALL   1BA8
07654:  MOVFF  00,450
07658:  MOVFF  01,451
0765C:  MOVFF  02,452
07660:  MOVFF  03,453
07664:  MOVLB  4
07666:  CLRF   x66
07668:  MOVFF  35F,465
0766C:  MOVLB  0
0766E:  CALL   1B72
07672:  MOVFF  453,457
07676:  MOVFF  452,456
0767A:  MOVFF  451,455
0767E:  MOVFF  450,454
07682:  MOVFF  03,45B
07686:  MOVFF  02,45A
0768A:  MOVFF  01,459
0768E:  MOVFF  00,458
07692:  CALL   30E0
07696:  BC    769A
07698:  BNZ   76A0
....................    { 
....................       ActualizaRecta(); 
0769A:  BRA    75B6
....................       tiemporecta=0; 
0769C:  MOVLB  3
0769E:  CLRF   x5F
....................    }  
.................... //-------------------------------Control de Calentamiento------------------------------------------------------------//          
....................    error=desvio+Setpoint-Temperatura;      // Clculo del error ****** 
076A0:  MOVLB  4
076A2:  CLRF   x66
076A4:  MOVFF  36E,465
076A8:  MOVLB  0
076AA:  CALL   1B72
076AE:  BCF    FD8.1
076B0:  MOVFF  31D,468
076B4:  MOVFF  31C,467
076B8:  MOVFF  31B,466
076BC:  MOVFF  31A,465
076C0:  MOVFF  03,46C
076C4:  MOVFF  02,46B
076C8:  MOVFF  01,46A
076CC:  MOVFF  00,469
076D0:  CALL   1D06
076D4:  MOVFF  00,450
076D8:  MOVFF  01,451
076DC:  MOVFF  02,452
076E0:  MOVFF  03,453
076E4:  BSF    FD8.1
076E6:  MOVFF  03,468
076EA:  MOVFF  02,467
076EE:  MOVFF  01,466
076F2:  MOVFF  00,465
076F6:  MOVFF  335,46C
076FA:  MOVFF  334,46B
076FE:  MOVFF  333,46A
07702:  MOVFF  332,469
07706:  CALL   1D06
0770A:  MOVFF  03,305
0770E:  MOVFF  02,304
07712:  MOVFF  01,303
07716:  MOVFF  00,302
....................     
....................    if(error>1.0 && error<30 && Aumento<0.3){ 
0771A:  MOVLB  4
0771C:  CLRF   x57
0771E:  CLRF   x56
07720:  CLRF   x55
07722:  MOVLW  7F
07724:  MOVWF  x54
07726:  MOVFF  305,45B
0772A:  MOVFF  304,45A
0772E:  MOVFF  303,459
07732:  MOVFF  302,458
07736:  MOVLB  0
07738:  CALL   30E0
0773C:  BTFSS  FD8.0
0773E:  BRA    796A
07740:  MOVFF  305,457
07744:  MOVFF  304,456
07748:  MOVFF  303,455
0774C:  MOVFF  302,454
07750:  MOVLB  4
07752:  CLRF   x5B
07754:  CLRF   x5A
07756:  MOVLW  70
07758:  MOVWF  x59
0775A:  MOVLW  83
0775C:  MOVWF  x58
0775E:  MOVLB  0
07760:  CALL   30E0
07764:  BTFSS  FD8.0
07766:  BRA    796A
07768:  MOVFF  2D6,457
0776C:  MOVFF  2D5,456
07770:  MOVFF  2D4,455
07774:  MOVFF  2D3,454
07778:  MOVLW  9A
0777A:  MOVLB  4
0777C:  MOVWF  x5B
0777E:  MOVLW  99
07780:  MOVWF  x5A
07782:  MOVLW  19
07784:  MOVWF  x59
07786:  MOVLW  7D
07788:  MOVWF  x58
0778A:  MOVLB  0
0778C:  CALL   30E0
07790:  BTFSS  FD8.0
07792:  BRA    796A
....................       if(Tpulso<6.0){ 
07794:  MOVFF  301,457
07798:  MOVFF  300,456
0779C:  MOVFF  2FF,455
077A0:  MOVFF  2FE,454
077A4:  MOVLB  4
077A6:  CLRF   x5B
077A8:  CLRF   x5A
077AA:  MOVLW  40
077AC:  MOVWF  x59
077AE:  MOVLW  81
077B0:  MOVWF  x58
077B2:  MOVLB  0
077B4:  CALL   30E0
077B8:  BTFSS  FD8.0
077BA:  BRA    7966
....................          flagTC=1; 
077BC:  MOVLB  3
077BE:  BSF    x5D.4
....................          if(TiempoControl>=Derivativo){ 
077C0:  MOVF   x47,W
077C2:  SUBWF  x9C,W
077C4:  BTFSS  FD8.0
077C6:  BRA    7962
....................             TiempoControl=0; 
077C8:  CLRF   x9C
....................             if(Aumento<-0.5){ 
077CA:  MOVFF  2D6,457
077CE:  MOVFF  2D5,456
077D2:  MOVFF  2D4,455
077D6:  MOVFF  2D3,454
077DA:  MOVLB  4
077DC:  CLRF   x5B
077DE:  CLRF   x5A
077E0:  MOVLW  80
077E2:  MOVWF  x59
077E4:  MOVLW  7E
077E6:  MOVWF  x58
077E8:  MOVLB  0
077EA:  CALL   30E0
077EE:  BNC   7860
....................                Ganancia+=Integral+0.2; 
077F0:  MOVLB  4
077F2:  CLRF   x66
077F4:  MOVFF  346,465
077F8:  MOVLB  0
077FA:  CALL   1B72
077FE:  BCF    FD8.1
07800:  MOVFF  03,468
07804:  MOVFF  02,467
07808:  MOVFF  01,466
0780C:  MOVFF  00,465
07810:  MOVLW  CD
07812:  MOVLB  4
07814:  MOVWF  x6C
07816:  MOVLW  CC
07818:  MOVWF  x6B
0781A:  MOVLW  4C
0781C:  MOVWF  x6A
0781E:  MOVLW  7C
07820:  MOVWF  x69
07822:  MOVLB  0
07824:  CALL   1D06
07828:  BCF    FD8.1
0782A:  MOVFF  315,468
0782E:  MOVFF  314,467
07832:  MOVFF  313,466
07836:  MOVFF  312,465
0783A:  MOVFF  03,46C
0783E:  MOVFF  02,46B
07842:  MOVFF  01,46A
07846:  MOVFF  00,469
0784A:  CALL   1D06
0784E:  MOVFF  03,315
07852:  MOVFF  02,314
07856:  MOVFF  01,313
0785A:  MOVFF  00,312
....................             }else{ 
0785E:  BRA    7960
....................                if(Aumento<-0.1){ 
07860:  MOVFF  2D6,457
07864:  MOVFF  2D5,456
07868:  MOVFF  2D4,455
0786C:  MOVFF  2D3,454
07870:  MOVLW  CD
07872:  MOVLB  4
07874:  MOVWF  x5B
07876:  MOVLW  CC
07878:  MOVWF  x5A
0787A:  MOVWF  x59
0787C:  MOVLW  7B
0787E:  MOVWF  x58
07880:  MOVLB  0
07882:  CALL   30E0
07886:  BNC   78F8
....................                   Ganancia+=Integral-0.2; 
07888:  MOVLB  4
0788A:  CLRF   x66
0788C:  MOVFF  346,465
07890:  MOVLB  0
07892:  CALL   1B72
07896:  BSF    FD8.1
07898:  MOVFF  03,468
0789C:  MOVFF  02,467
078A0:  MOVFF  01,466
078A4:  MOVFF  00,465
078A8:  MOVLW  CD
078AA:  MOVLB  4
078AC:  MOVWF  x6C
078AE:  MOVLW  CC
078B0:  MOVWF  x6B
078B2:  MOVLW  4C
078B4:  MOVWF  x6A
078B6:  MOVLW  7C
078B8:  MOVWF  x69
078BA:  MOVLB  0
078BC:  CALL   1D06
078C0:  BCF    FD8.1
078C2:  MOVFF  315,468
078C6:  MOVFF  314,467
078CA:  MOVFF  313,466
078CE:  MOVFF  312,465
078D2:  MOVFF  03,46C
078D6:  MOVFF  02,46B
078DA:  MOVFF  01,46A
078DE:  MOVFF  00,469
078E2:  CALL   1D06
078E6:  MOVFF  03,315
078EA:  MOVFF  02,314
078EE:  MOVFF  01,313
078F2:  MOVFF  00,312
....................                }else{ 
078F6:  BRA    7960
....................                   Ganancia+=Integral-0.5; 
078F8:  MOVLB  4
078FA:  CLRF   x66
078FC:  MOVFF  346,465
07900:  MOVLB  0
07902:  CALL   1B72
07906:  BSF    FD8.1
07908:  MOVFF  03,468
0790C:  MOVFF  02,467
07910:  MOVFF  01,466
07914:  MOVFF  00,465
07918:  MOVLB  4
0791A:  CLRF   x6C
0791C:  CLRF   x6B
0791E:  CLRF   x6A
07920:  MOVLW  7E
07922:  MOVWF  x69
07924:  MOVLB  0
07926:  CALL   1D06
0792A:  BCF    FD8.1
0792C:  MOVFF  315,468
07930:  MOVFF  314,467
07934:  MOVFF  313,466
07938:  MOVFF  312,465
0793C:  MOVFF  03,46C
07940:  MOVFF  02,46B
07944:  MOVFF  01,46A
07948:  MOVFF  00,469
0794C:  CALL   1D06
07950:  MOVFF  03,315
07954:  MOVFF  02,314
07958:  MOVFF  01,313
0795C:  MOVFF  00,312
07960:  MOVLB  3
....................                } 
....................             } 
....................          } 
....................       }else{ 
07962:  BRA    796A
07964:  MOVLB  0
....................          flagTC=0; 
07966:  MOVLB  3
07968:  BCF    x5D.4
....................       } 
....................    } 
....................     
....................    if(error<-0.3) 
0796A:  MOVFF  305,457
0796E:  MOVFF  304,456
07972:  MOVFF  303,455
07976:  MOVFF  302,454
0797A:  MOVLW  9A
0797C:  MOVLB  4
0797E:  MOVWF  x5B
07980:  MOVLW  99
07982:  MOVWF  x5A
07984:  MOVWF  x59
07986:  MOVLW  7D
07988:  MOVWF  x58
0798A:  MOVLB  0
0798C:  CALL   30E0
07990:  BNC   79A2
....................       Ganancia=Ganancia2; 
07992:  MOVFF  319,315
07996:  MOVFF  318,314
0799A:  MOVFF  317,313
0799E:  MOVFF  316,312
....................     
....................    if(Ganancia<1) 
079A2:  MOVFF  315,457
079A6:  MOVFF  314,456
079AA:  MOVFF  313,455
079AE:  MOVFF  312,454
079B2:  MOVLB  4
079B4:  CLRF   x5B
079B6:  CLRF   x5A
079B8:  CLRF   x59
079BA:  MOVLW  7F
079BC:  MOVWF  x58
079BE:  MOVLB  0
079C0:  CALL   30E0
079C4:  BNC   79D2
....................       Ganancia=1; 
079C6:  MOVLB  3
079C8:  CLRF   x15
079CA:  CLRF   x14
079CC:  CLRF   x13
079CE:  MOVLW  7F
079D0:  MOVWF  x12
....................        
....................    if(error<0.0)     // Anti Wind_DOWN     
079D2:  MOVFF  305,457
079D6:  MOVFF  304,456
079DA:  MOVFF  303,455
079DE:  MOVFF  302,454
079E2:  MOVLB  4
079E4:  CLRF   x5B
079E6:  CLRF   x5A
079E8:  CLRF   x59
079EA:  CLRF   x58
079EC:  MOVLB  0
079EE:  CALL   30E0
079F2:  BNC   7A00
....................       error=0.0; 
079F4:  MOVLB  3
079F6:  CLRF   x05
079F8:  CLRF   x04
079FA:  CLRF   x03
079FC:  CLRF   x02
079FE:  MOVLB  0
....................     
....................    //tmp=(Setpoint-Prom)*Ganancia;  // Control Proporcional. 
....................    tmp=error*Ganancia;  // Control Proporcional. 
07A00:  MOVFF  305,46C
07A04:  MOVFF  304,46B
07A08:  MOVFF  303,46A
07A0C:  MOVFF  302,469
07A10:  MOVFF  315,470
07A14:  MOVFF  314,46F
07A18:  MOVFF  313,46E
07A1C:  MOVFF  312,46D
07A20:  CALL   3D84
07A24:  MOVFF  03,311
07A28:  MOVFF  02,310
07A2C:  MOVFF  01,30F
07A30:  MOVFF  00,30E
....................           
....................    if(tmp>Setpoint)   // Anti Wind-UP       
07A34:  MOVLB  4
07A36:  CLRF   x66
07A38:  MOVFF  36E,465
07A3C:  MOVLB  0
07A3E:  CALL   1B72
07A42:  MOVFF  03,457
07A46:  MOVFF  02,456
07A4A:  MOVFF  01,455
07A4E:  MOVFF  00,454
07A52:  MOVFF  311,45B
07A56:  MOVFF  310,45A
07A5A:  MOVFF  30F,459
07A5E:  MOVFF  30E,458
07A62:  CALL   30E0
07A66:  BNC   7A86
....................       tmp=Setpoint; 
07A68:  MOVLB  4
07A6A:  CLRF   x66
07A6C:  MOVFF  36E,465
07A70:  MOVLB  0
07A72:  CALL   1B72
07A76:  MOVFF  03,311
07A7A:  MOVFF  02,310
07A7E:  MOVFF  01,30F
07A82:  MOVFF  00,30E
....................                   
....................    if(tmp<0.0)     // Anti Wind_DOWN     
07A86:  MOVFF  311,457
07A8A:  MOVFF  310,456
07A8E:  MOVFF  30F,455
07A92:  MOVFF  30E,454
07A96:  MOVLB  4
07A98:  CLRF   x5B
07A9A:  CLRF   x5A
07A9C:  CLRF   x59
07A9E:  CLRF   x58
07AA0:  MOVLB  0
07AA2:  CALL   30E0
07AA6:  BNC   7AB2
....................       tmp=0.0; 
07AA8:  MOVLB  3
07AAA:  CLRF   x11
07AAC:  CLRF   x10
07AAE:  CLRF   x0F
07AB0:  CLRF   x0E
....................     
....................    // Tpulso(t)= Tciclo*(y(t)-ymin)/(ymax - ymin); calculo de ciclo util para control de resistencia.ymax=140.ymin=0; 
....................    // Tpulso es float, hay que pasar ese ciclo a una salida de un puerto usando el TMR1. 
....................    tmp2=(tmp/Setpoint); 
07AB2:  MOVLB  4
07AB4:  CLRF   x66
07AB6:  MOVFF  36E,465
07ABA:  MOVLB  0
07ABC:  CALL   1B72
07AC0:  MOVFF  311,45C
07AC4:  MOVFF  310,45B
07AC8:  MOVFF  30F,45A
07ACC:  MOVFF  30E,459
07AD0:  MOVFF  03,460
07AD4:  MOVFF  02,45F
07AD8:  MOVFF  01,45E
07ADC:  MOVFF  00,45D
07AE0:  CALL   1BA8
07AE4:  MOVFF  03,321
07AE8:  MOVFF  02,320
07AEC:  MOVFF  01,31F
07AF0:  MOVFF  00,31E
....................    //if(tmp2>0.8) 
....................    //tmp2=0.8; 
....................    Tpulso=tmp2*Tciclo;   
07AF4:  MOVFF  321,46C
07AF8:  MOVFF  320,46B
07AFC:  MOVFF  31F,46A
07B00:  MOVFF  31E,469
07B04:  MOVFF  2FD,470
07B08:  MOVFF  2FC,46F
07B0C:  MOVFF  2FB,46E
07B10:  MOVFF  2FA,46D
07B14:  CALL   3D84
07B18:  MOVFF  03,301
07B1C:  MOVFF  02,300
07B20:  MOVFF  01,2FF
07B24:  MOVFF  00,2FE
....................                                        
....................    Tp=(Tpulso/0.005); 
07B28:  MOVFF  301,45C
07B2C:  MOVFF  300,45B
07B30:  MOVFF  2FF,45A
07B34:  MOVFF  2FE,459
07B38:  MOVLW  0A
07B3A:  MOVLB  4
07B3C:  MOVWF  x60
07B3E:  MOVLW  D7
07B40:  MOVWF  x5F
07B42:  MOVLW  23
07B44:  MOVWF  x5E
07B46:  MOVLW  77
07B48:  MOVWF  x5D
07B4A:  MOVLB  0
07B4C:  CALL   1BA8
07B50:  MOVFF  03,468
07B54:  MOVFF  02,467
07B58:  MOVFF  01,466
07B5C:  MOVFF  00,465
07B60:  CALL   44C0
07B64:  MOVFF  02,B4
07B68:  MOVFF  01,B3
....................    Tc=(Tciclo/0.005); 
07B6C:  MOVFF  2FD,45C
07B70:  MOVFF  2FC,45B
07B74:  MOVFF  2FB,45A
07B78:  MOVFF  2FA,459
07B7C:  MOVLW  0A
07B7E:  MOVLB  4
07B80:  MOVWF  x60
07B82:  MOVLW  D7
07B84:  MOVWF  x5F
07B86:  MOVLW  23
07B88:  MOVWF  x5E
07B8A:  MOVLW  77
07B8C:  MOVWF  x5D
07B8E:  MOVLB  0
07B90:  CALL   1BA8
07B94:  MOVFF  03,468
07B98:  MOVFF  02,467
07B9C:  MOVFF  01,466
07BA0:  MOVFF  00,465
07BA4:  CALL   44C0
07BA8:  MOVFF  02,B6
07BAC:  MOVFF  01,B5
....................    Controlando=1;    
07BB0:  MOVLW  01
07BB2:  MOVLB  3
07BB4:  MOVWF  x60
.................... //--------------------------------------------------------------------------------------------------------------------//    
.................... } 
07BB6:  MOVLB  0
07BB8:  RETLW  00
....................  
.................... void ControlaPresion(){ 
....................    float prc=0.0;    
....................    if(tiemporecta>=Derivativo/2.0){ 
....................       ActualizaRectaPresion(); 
....................       tiemporecta=0; 
....................    }  
....................    prc=(float)PresionCamara; 
....................    Tactual=((prc)*(prc)*(prc)*p1)+((prc)*(prc)*p2)+(p3*prc)+p4; 
.................... //-------------------------------Control de Calentamiento------------------------------------------------------------//          
....................    if(Esterilizando){ 
....................       error=desvio+Setpoint-Tactual;      // Clculo del error ****** 
....................    }else{ 
....................       error=desvio+1.0+Setpoint-Tactual;      // Clculo del error ****** 
....................    } 
....................     
....................    if(error>1.0 && error<20 && Aumento2<0.3){ 
....................       if(Tpulso<=6.0){ 
....................          flagTC=1; 
....................          if(TiempoControl>=Derivativo){ 
....................             TiempoControl=0; 
....................             if(Aumento2<-0.5){ 
....................                Ganancia+=Integral+0.2; 
....................             }else{ 
....................                if(Aumento2<-0.1){ 
....................                   Ganancia+=Integral-0.2; 
....................                }else{ 
....................                   Ganancia+=Integral-0.5; 
....................                } 
....................             } 
....................          } 
....................       }else{ 
....................          flagTC=0; 
....................       } 
....................    } 
....................     
....................    if(error<-0.3) 
....................       Ganancia=Ganancia2; 
....................     
....................    if(Ganancia<1) 
....................       Ganancia=1; 
....................     
....................    if(error<0.0)     // Anti Wind_DOWN     
....................       error=0.0; 
....................    //tmp=(Setpoint-Prom)*Ganancia;  // Control Proporcional. 
....................    tmp=error*Ganancia;  // Control Proporcional. 
....................           
....................    if(tmp>Setpoint)   // Anti Wind-UP       
....................       tmp=Setpoint; 
....................                 
....................    if(tmp<0.0)     // Anti Wind_DOWN     
....................       tmp=0.0; 
....................     
....................    // Tpulso(t)= Tciclo*(y(t)-ymin)/(ymax - ymin); calculo de ciclo util para control de resistencia.ymax=140.ymin=0; 
....................    // Tpulso es float, hay que pasar ese ciclo a una salida de un puerto usando el TMR1. 
....................    tmp2=(tmp/Setpoint); 
....................    //if(tmp2>0.8) 
....................    //tmp2=0.8; 
....................    Tpulso=tmp2*Tciclo;   
....................                                        
....................    Tp=(Tpulso/0.005); 
....................    Tc=(Tciclo/0.005); 
....................    Controlando=1;    
.................... //--------------------------------------------------------------------------------------------------------------------//    
.................... } 
....................  
....................  
.................... void Envio_I2C(direccion, posicion, dato){ 
....................  
....................    i2c_start();            // Comienzo comunicacin 
....................    i2c_write(direccion);   // Direccin del esclavo en el bus I2C 
....................    i2c_write(posicion);    // Posicin donde se guardara el dato transmitido 
....................    i2c_write(dato);        // Dato a transmitir 
....................    i2c_stop();             // Fin comunicacin 
....................  } 
....................  
.................... void Lectura_I2C (byte direccion, byte posicion, byte &dato) { 
....................  
....................    i2c_start();            // Comienzo de la comunicacin 
....................    i2c_write(direccion);   // Direccin del esclavo en el bus I2C 
....................    i2c_write(posicion);    // Posicin de donde se leer el dato en el esclavo 
....................    i2c_start();            // Reinicio 
....................    i2c_write(direccion+1); // Direccin del esclavo en modo lectura 
....................    dato=i2c_read(0);       // Lectura del dato 
....................    i2c_stop();             // Fin comunicacin 
.................... } 
....................  
.................... void Carga_Vector(void){ 
....................    SlaveA0Tx[0]=(int8)Temperatura; 
*
0488A:  MOVFF  335,468
0488E:  MOVFF  334,467
04892:  MOVFF  333,466
04896:  MOVFF  332,465
0489A:  RCALL  44C0
0489C:  MOVFF  01,64
....................    SlaveA0Tx[1]=(Temperatura-((int8)Temperatura))*10; 
048A0:  MOVFF  335,468
048A4:  MOVFF  334,467
048A8:  MOVFF  333,466
048AC:  MOVFF  332,465
048B0:  RCALL  44C0
048B2:  MOVLB  4
048B4:  CLRF   x66
048B6:  MOVFF  01,465
048BA:  MOVLB  0
048BC:  CALL   1B72
048C0:  BSF    FD8.1
048C2:  MOVFF  335,468
048C6:  MOVFF  334,467
048CA:  MOVFF  333,466
048CE:  MOVFF  332,465
048D2:  MOVFF  03,46C
048D6:  MOVFF  02,46B
048DA:  MOVFF  01,46A
048DE:  MOVFF  00,469
048E2:  CALL   1D06
048E6:  MOVFF  00,465
048EA:  MOVFF  01,466
048EE:  MOVFF  02,467
048F2:  MOVFF  03,468
048F6:  MOVFF  03,46C
048FA:  MOVFF  02,46B
048FE:  MOVFF  01,46A
04902:  MOVFF  00,469
04906:  MOVLB  4
04908:  CLRF   x70
0490A:  CLRF   x6F
0490C:  MOVLW  20
0490E:  MOVWF  x6E
04910:  MOVLW  82
04912:  MOVWF  x6D
04914:  MOVLB  0
04916:  CALL   3D84
0491A:  MOVFF  03,468
0491E:  MOVFF  02,467
04922:  MOVFF  01,466
04926:  MOVFF  00,465
0492A:  RCALL  44C0
0492C:  MOVFF  01,65
....................    SlaveA0Tx[2]=make8((int16)PresionCamara,0); 
04930:  MOVFF  380,66
04934:  MOVLB  0
....................    SlaveA0Tx[3]=make8((int16)PresionCamara,1); 
04936:  MOVFF  381,67
0493A:  MOVLB  0
....................    SlaveA0Tx[4]=make8((int16)PresionPreCamara,0); 
0493C:  MOVFF  382,68
04940:  MOVLB  0
....................    SlaveA0Tx[5]=make8((int16)PresionPreCamara,1); 
04942:  MOVFF  383,69
04946:  MOVLB  0
....................    SlaveA0Tx[6]=(int8)Tpulso*10; 
04948:  MOVFF  301,468
0494C:  MOVFF  300,467
04950:  MOVFF  2FF,466
04954:  MOVFF  2FE,465
04958:  RCALL  44C0
0495A:  MOVF   01,W
0495C:  MULLW  0A
0495E:  MOVFF  FF3,6A
....................    SlaveA0Tx[7]=HIG; 
04962:  CLRF   x6B
04964:  BTFSC  xA9.2
04966:  INCF   x6B,F
....................    SlaveA0Tx[8]=LOW; 
04968:  CLRF   x6C
0496A:  BTFSC  xA9.1
0496C:  INCF   x6C,F
....................    SlaveA0Tx[9]=TERM; 
0496E:  BSF    F93.4
04970:  CLRF   x6D
04972:  BTFSS  F81.4
04974:  INCF   x6D,F
....................    SlaveA0Tx[10]=DOOR; 
04976:  BSF    F93.6
04978:  CLRF   x6E
0497A:  BTFSS  F81.6
0497C:  INCF   x6E,F
....................    SlaveA0Tx[11]=STOP; 
0497E:  BSF    F93.5
04980:  CLRF   x6F
04982:  BTFSS  F81.5
04984:  INCF   x6F,F
....................    SlaveA0Tx[12]=(int8)error; 
04986:  MOVFF  305,468
0498A:  MOVFF  304,467
0498E:  MOVFF  303,466
04992:  MOVFF  302,465
04996:  RCALL  44C0
04998:  MOVFF  01,70
....................    SlaveA0Tx[13]=CicloSeleccionado; 
0499C:  MOVFF  36D,71
....................    SlaveA0Tx[14]=SetTime; 
049A0:  MOVFF  3BD,72
....................    SlaveA0Tx[15]=Dia; 
049A4:  MOVFF  3AD,73
....................    SlaveA0Tx[16]=Mes; 
049A8:  MOVFF  3AC,74
....................    SlaveA0Tx[17]=Year; 
049AC:  MOVFF  3AB,75
....................    SlaveA0Tx[18]=Hora; 
049B0:  MOVFF  3AE,76
....................    SlaveA0Tx[19]=Minuto; 
049B4:  MOVFF  3AF,77
....................    SlaveA0Tx[20]=Segundo; 
049B8:  MOVFF  3B0,78
....................    SlaveA0Tx[21]=Imprime; 
049BC:  MOVFF  3BE,79
....................    SlaveA0Tx[22]=DOORL; 
049C0:  BSF    F93.7
049C2:  CLRF   x7A
049C4:  BTFSS  F81.7
049C6:  INCF   x7A,F
....................    SlaveA0Tx[23]=make8(Ciclos,0); 
049C8:  MOVFF  384,7B
049CC:  MOVLB  0
....................    SlaveA0Tx[24]=make8(Ciclos,1); 
049CE:  MOVFF  385,7C
049D2:  MOVLB  0
....................    SlaveA0Tx[25]=mEst; 
049D4:  MOVFF  3B2,7D
....................    SlaveA0Tx[26]=sEst; 
049D8:  MOVFF  3B3,7E
....................    SlaveA0Tx[27]=mSec; 
049DC:  MOVFF  3B4,7F
....................    SlaveA0Tx[28]=sSec; 
049E0:  MOVFF  3B5,80
....................    SlaveA0Tx[29]=Menu; 
049E4:  MOVFF  368,81
....................    SlaveA0Tx[30]=Setpoint; 
049E8:  MOVFF  36E,82
....................    SlaveA0Tx[31]=codigoAlarma; 
049EC:  MOVFF  2EA,83
....................    SlaveA0Tx[32]=255; 
049F0:  MOVLW  FF
049F2:  MOVWF  x84
....................    SlaveA0Tx[33]=128; 
049F4:  MOVLW  80
049F6:  MOVWF  x85
....................    SlaveA0Tx[34]=50; 
049F8:  MOVLW  32
049FA:  MOVWF  x86
.................... } 
049FC:  GOTO   4A78 (RETURN)
....................  
.................... void Lee_Vector(void){ 
....................    /*Dia=txbuf[0]; 
....................    Mess=txbuf[1]; 
....................    Year=txbuf[2]; 
....................    Hora=txbuf[3]; 
....................    Minuto=txbuf[4]; 
....................    Segundo=txbuf[5]; 
....................    dow=txbuf[6];*/ 
.................... } 
....................  
.................... void Envio_Esclavos(void){ 
....................    Carga_Vector(); 
*
04A76:  BRA    488A
....................    for(i=0;i<35;i++){ 
04A78:  MOVLB  3
04A7A:  CLRF   x8D
04A7C:  CLRF   x8C
04A7E:  MOVF   x8D,F
04A80:  BNZ   4B0A
04A82:  MOVF   x8C,W
04A84:  SUBLW  22
04A86:  BNC   4B0A
....................       direccion=0xB0; 
04A88:  MOVLW  B0
04A8A:  MOVLB  0
04A8C:  MOVWF  x8D
....................       i2c_start();            // Comienzo comunicacin 
04A8E:  BSF    F94.4
04A90:  MOVLW  05
04A92:  MOVWF  00
04A94:  DECFSZ 00,F
04A96:  BRA    4A94
04A98:  BSF    F94.3
04A9A:  MOVLW  06
04A9C:  MOVWF  00
04A9E:  DECFSZ 00,F
04AA0:  BRA    4A9E
04AA2:  BCF    F8B.4
04AA4:  BCF    F94.4
04AA6:  MOVLW  05
04AA8:  MOVWF  00
04AAA:  DECFSZ 00,F
04AAC:  BRA    4AAA
04AAE:  BCF    F8B.3
04AB0:  BCF    F94.3
....................       i2c_write(direccion);   // Direccin del esclavo en el bus I2C 
04AB2:  MOVFF  8D,471
04AB6:  RCALL  4A00
....................       i2c_write(i);   // Direccin del esclavo en el bus I2C 
04AB8:  MOVFF  38C,471
04ABC:  RCALL  4A00
....................       i2c_write(0);    // Posicin donde se guardara el dato transmitido 
04ABE:  MOVLB  4
04AC0:  CLRF   x71
04AC2:  MOVLB  0
04AC4:  RCALL  4A00
....................       i2c_write(SlaveA0Tx[i]); // Dato a transmitir 
04AC6:  MOVLW  64
04AC8:  MOVLB  3
04ACA:  ADDWF  x8C,W
04ACC:  MOVWF  FE9
04ACE:  MOVLW  00
04AD0:  ADDWFC x8D,W
04AD2:  MOVWF  FEA
04AD4:  MOVFF  FEF,465
04AD8:  MOVFF  465,471
04ADC:  MOVLB  0
04ADE:  RCALL  4A00
....................       i2c_stop();  
04AE0:  BCF    F94.4
04AE2:  NOP   
04AE4:  BSF    F94.3
04AE6:  BTFSS  F82.3
04AE8:  BRA    4AE6
04AEA:  MOVLW  05
04AEC:  MOVWF  00
04AEE:  DECFSZ 00,F
04AF0:  BRA    4AEE
04AF2:  BRA    4AF4
04AF4:  NOP   
04AF6:  BSF    F94.4
04AF8:  MOVLW  05
04AFA:  MOVWF  00
04AFC:  DECFSZ 00,F
04AFE:  BRA    4AFC
....................       //Envio_I2C(direccion,i,SlaveB0Tx[i]); 
....................    }  
04B00:  MOVLB  3
04B02:  INCF   x8C,F
04B04:  BTFSC  FD8.2
04B06:  INCF   x8D,F
04B08:  BRA    4A7E
.................... } 
04B0A:  MOVLB  0
04B0C:  RETLW  00
.................... void Lectura_Esclavos(void){ 
....................    //for(i=0;i<7;i++) 
....................    //{ 
....................    //   direccion=0xA0;                        //Direccin en el bus I2c 
....................    //   posicion=i;                         //Posicin de memoria a leer 
....................    //   Lectura_I2C(direccion, posicion, dato);    //Lectura por I2C 
....................    //   txbuf[i]=(int8)dato; 
....................    //} 
....................    //Lee_Vector(); 
.................... } 
....................  
.................... void LeeEEPROM(){ 
.................... //Lectura EEPROM//-------------------------- 
....................    Testerilizacionp[0]=read_eeprom(0); 
*
01FA0:  MOVFF  FF2,450
01FA4:  BCF    FF2.6
01FA6:  BCF    FF2.7
01FA8:  CLRF   FAA
01FAA:  CLRF   FA9
01FAC:  BCF    FA6.6
01FAE:  BCF    FA6.7
01FB0:  BSF    FA6.0
01FB2:  MOVF   FA8,W
01FB4:  MOVLB  4
01FB6:  BTFSC  x50.6
01FB8:  BSF    FF2.6
01FBA:  BTFSC  x50.7
01FBC:  BSF    FF2.7
01FBE:  MOVLB  0
01FC0:  MOVWF  xBE
....................    delay_ms(10); 
01FC2:  MOVLW  0A
01FC4:  MOVLB  4
01FC6:  MOVWF  x69
01FC8:  MOVLB  0
01FCA:  RCALL  1B4A
....................    Testerilizacionp[1]=read_eeprom(1); 
01FCC:  MOVFF  FF2,450
01FD0:  BCF    FF2.6
01FD2:  BCF    FF2.7
01FD4:  CLRF   FAA
01FD6:  MOVLW  01
01FD8:  MOVWF  FA9
01FDA:  BCF    FA6.6
01FDC:  BCF    FA6.7
01FDE:  BSF    FA6.0
01FE0:  MOVF   FA8,W
01FE2:  MOVLB  4
01FE4:  BTFSC  x50.6
01FE6:  BSF    FF2.6
01FE8:  BTFSC  x50.7
01FEA:  BSF    FF2.7
01FEC:  MOVLB  0
01FEE:  MOVWF  xBF
....................    delay_ms(10); 
01FF0:  MOVLW  0A
01FF2:  MOVLB  4
01FF4:  MOVWF  x69
01FF6:  MOVLB  0
01FF8:  RCALL  1B4A
....................    Testerilizacionp[2]=read_eeprom(2); 
01FFA:  MOVFF  FF2,450
01FFE:  BCF    FF2.6
02000:  BCF    FF2.7
02002:  CLRF   FAA
02004:  MOVLW  02
02006:  MOVWF  FA9
02008:  BCF    FA6.6
0200A:  BCF    FA6.7
0200C:  BSF    FA6.0
0200E:  MOVF   FA8,W
02010:  MOVLB  4
02012:  BTFSC  x50.6
02014:  BSF    FF2.6
02016:  BTFSC  x50.7
02018:  BSF    FF2.7
0201A:  MOVLB  0
0201C:  MOVWF  xC0
....................    delay_ms(10); 
0201E:  MOVLW  0A
02020:  MOVLB  4
02022:  MOVWF  x69
02024:  MOVLB  0
02026:  RCALL  1B4A
....................    Testerilizacionp[3]=read_eeprom(3); 
02028:  MOVFF  FF2,450
0202C:  BCF    FF2.6
0202E:  BCF    FF2.7
02030:  CLRF   FAA
02032:  MOVLW  03
02034:  MOVWF  FA9
02036:  BCF    FA6.6
02038:  BCF    FA6.7
0203A:  BSF    FA6.0
0203C:  MOVF   FA8,W
0203E:  MOVLB  4
02040:  BTFSC  x50.6
02042:  BSF    FF2.6
02044:  BTFSC  x50.7
02046:  BSF    FF2.7
02048:  MOVLB  0
0204A:  MOVWF  xC1
....................    delay_ms(10); 
0204C:  MOVLW  0A
0204E:  MOVLB  4
02050:  MOVWF  x69
02052:  MOVLB  0
02054:  RCALL  1B4A
....................    Tsecadop[0]=read_eeprom(4); 
02056:  MOVFF  FF2,450
0205A:  BCF    FF2.6
0205C:  BCF    FF2.7
0205E:  CLRF   FAA
02060:  MOVLW  04
02062:  MOVWF  FA9
02064:  BCF    FA6.6
02066:  BCF    FA6.7
02068:  BSF    FA6.0
0206A:  MOVF   FA8,W
0206C:  MOVLB  4
0206E:  BTFSC  x50.6
02070:  BSF    FF2.6
02072:  BTFSC  x50.7
02074:  BSF    FF2.7
02076:  MOVLB  0
02078:  MOVWF  xC7
....................    delay_ms(10); 
0207A:  MOVLW  0A
0207C:  MOVLB  4
0207E:  MOVWF  x69
02080:  MOVLB  0
02082:  RCALL  1B4A
....................    Tsecadop[1]=read_eeprom(5); 
02084:  MOVFF  FF2,450
02088:  BCF    FF2.6
0208A:  BCF    FF2.7
0208C:  CLRF   FAA
0208E:  MOVLW  05
02090:  MOVWF  FA9
02092:  BCF    FA6.6
02094:  BCF    FA6.7
02096:  BSF    FA6.0
02098:  MOVF   FA8,W
0209A:  MOVLB  4
0209C:  BTFSC  x50.6
0209E:  BSF    FF2.6
020A0:  BTFSC  x50.7
020A2:  BSF    FF2.7
020A4:  MOVLB  0
020A6:  MOVWF  xC8
....................    delay_ms(10); 
020A8:  MOVLW  0A
020AA:  MOVLB  4
020AC:  MOVWF  x69
020AE:  MOVLB  0
020B0:  RCALL  1B4A
....................    Tsecadop[2]=read_eeprom(6); 
020B2:  MOVFF  FF2,450
020B6:  BCF    FF2.6
020B8:  BCF    FF2.7
020BA:  CLRF   FAA
020BC:  MOVLW  06
020BE:  MOVWF  FA9
020C0:  BCF    FA6.6
020C2:  BCF    FA6.7
020C4:  BSF    FA6.0
020C6:  MOVF   FA8,W
020C8:  MOVLB  4
020CA:  BTFSC  x50.6
020CC:  BSF    FF2.6
020CE:  BTFSC  x50.7
020D0:  BSF    FF2.7
020D2:  MOVLB  0
020D4:  MOVWF  xC9
....................    delay_ms(10); 
020D6:  MOVLW  0A
020D8:  MOVLB  4
020DA:  MOVWF  x69
020DC:  MOVLB  0
020DE:  RCALL  1B4A
....................    Tsecadop[3]=read_eeprom(7); 
020E0:  MOVFF  FF2,450
020E4:  BCF    FF2.6
020E6:  BCF    FF2.7
020E8:  CLRF   FAA
020EA:  MOVLW  07
020EC:  MOVWF  FA9
020EE:  BCF    FA6.6
020F0:  BCF    FA6.7
020F2:  BSF    FA6.0
020F4:  MOVF   FA8,W
020F6:  MOVLB  4
020F8:  BTFSC  x50.6
020FA:  BSF    FF2.6
020FC:  BTFSC  x50.7
020FE:  BSF    FF2.7
02100:  MOVLB  0
02102:  MOVWF  xCA
....................    delay_ms(10); 
02104:  MOVLW  0A
02106:  MOVLB  4
02108:  MOVWF  x69
0210A:  MOVLB  0
0210C:  RCALL  1B4A
....................    Setpoint=read_eeprom(8); 
0210E:  MOVFF  FF2,450
02112:  BCF    FF2.6
02114:  BCF    FF2.7
02116:  CLRF   FAA
02118:  MOVLW  08
0211A:  MOVWF  FA9
0211C:  BCF    FA6.6
0211E:  BCF    FA6.7
02120:  BSF    FA6.0
02122:  MOVF   FA8,W
02124:  MOVLB  4
02126:  BTFSC  x50.6
02128:  BSF    FF2.6
0212A:  BTFSC  x50.7
0212C:  BSF    FF2.7
0212E:  MOVLB  3
02130:  MOVWF  x6E
....................    delay_ms(10); 
02132:  MOVLW  0A
02134:  MOVLB  4
02136:  MOVWF  x69
02138:  MOVLB  0
0213A:  RCALL  1B4A
....................    Nivel=read_eeprom(9); 
0213C:  MOVFF  FF2,450
02140:  BCF    FF2.6
02142:  BCF    FF2.7
02144:  CLRF   FAA
02146:  MOVLW  09
02148:  MOVWF  FA9
0214A:  BCF    FA6.6
0214C:  BCF    FA6.7
0214E:  BSF    FA6.0
02150:  MOVF   FA8,W
02152:  MOVLB  4
02154:  BTFSC  x50.6
02156:  BSF    FF2.6
02158:  BTFSC  x50.7
0215A:  BSF    FF2.7
0215C:  MOVLB  3
0215E:  CLRF   x7D
02160:  MOVWF  x7C
....................    delay_ms(10); 
02162:  MOVLW  0A
02164:  MOVLB  4
02166:  MOVWF  x69
02168:  MOVLB  0
0216A:  RCALL  1B4A
....................    Password[0]=read_eeprom(10); 
0216C:  MOVFF  FF2,450
02170:  BCF    FF2.6
02172:  BCF    FF2.7
02174:  CLRF   FAA
02176:  MOVLW  0A
02178:  MOVWF  FA9
0217A:  BCF    FA6.6
0217C:  BCF    FA6.7
0217E:  BSF    FA6.0
02180:  MOVF   FA8,W
02182:  MOVLB  4
02184:  BTFSC  x50.6
02186:  BSF    FF2.6
02188:  BTFSC  x50.7
0218A:  BSF    FF2.7
0218C:  MOVLB  3
0218E:  MOVWF  x94
....................    delay_ms(10); 
02190:  MOVLW  0A
02192:  MOVLB  4
02194:  MOVWF  x69
02196:  MOVLB  0
02198:  RCALL  1B4A
....................    Password[1]=read_eeprom(11); 
0219A:  MOVFF  FF2,450
0219E:  BCF    FF2.6
021A0:  BCF    FF2.7
021A2:  CLRF   FAA
021A4:  MOVLW  0B
021A6:  MOVWF  FA9
021A8:  BCF    FA6.6
021AA:  BCF    FA6.7
021AC:  BSF    FA6.0
021AE:  MOVF   FA8,W
021B0:  MOVLB  4
021B2:  BTFSC  x50.6
021B4:  BSF    FF2.6
021B6:  BTFSC  x50.7
021B8:  BSF    FF2.7
021BA:  MOVLB  3
021BC:  MOVWF  x95
....................    delay_ms(10); 
021BE:  MOVLW  0A
021C0:  MOVLB  4
021C2:  MOVWF  x69
021C4:  MOVLB  0
021C6:  RCALL  1B4A
....................    Password[2]=read_eeprom(12); 
021C8:  MOVFF  FF2,450
021CC:  BCF    FF2.6
021CE:  BCF    FF2.7
021D0:  CLRF   FAA
021D2:  MOVLW  0C
021D4:  MOVWF  FA9
021D6:  BCF    FA6.6
021D8:  BCF    FA6.7
021DA:  BSF    FA6.0
021DC:  MOVF   FA8,W
021DE:  MOVLB  4
021E0:  BTFSC  x50.6
021E2:  BSF    FF2.6
021E4:  BTFSC  x50.7
021E6:  BSF    FF2.7
021E8:  MOVLB  3
021EA:  MOVWF  x96
....................    delay_ms(10); 
021EC:  MOVLW  0A
021EE:  MOVLB  4
021F0:  MOVWF  x69
021F2:  MOVLB  0
021F4:  RCALL  1B4A
....................    Password[3]=read_eeprom(13); 
021F6:  MOVFF  FF2,450
021FA:  BCF    FF2.6
021FC:  BCF    FF2.7
021FE:  CLRF   FAA
02200:  MOVLW  0D
02202:  MOVWF  FA9
02204:  BCF    FA6.6
02206:  BCF    FA6.7
02208:  BSF    FA6.0
0220A:  MOVF   FA8,W
0220C:  MOVLB  4
0220E:  BTFSC  x50.6
02210:  BSF    FF2.6
02212:  BTFSC  x50.7
02214:  BSF    FF2.7
02216:  MOVLB  3
02218:  MOVWF  x97
....................    delay_ms(10); 
0221A:  MOVLW  0A
0221C:  MOVLB  4
0221E:  MOVWF  x69
02220:  MOVLB  0
02222:  RCALL  1B4A
....................    Ganancia=read_eeprom(20); 
02224:  MOVFF  FF2,450
02228:  BCF    FF2.6
0222A:  BCF    FF2.7
0222C:  CLRF   FAA
0222E:  MOVLW  14
02230:  MOVWF  FA9
02232:  BCF    FA6.6
02234:  BCF    FA6.7
02236:  BSF    FA6.0
02238:  MOVF   FA8,W
0223A:  MOVLB  4
0223C:  BTFSC  x50.6
0223E:  BSF    FF2.6
02240:  BTFSC  x50.7
02242:  BSF    FF2.7
02244:  CLRF   x66
02246:  MOVWF  x65
02248:  MOVLB  0
0224A:  RCALL  1B72
0224C:  MOVFF  03,315
02250:  MOVFF  02,314
02254:  MOVFF  01,313
02258:  MOVFF  00,312
....................    delay_ms(10); 
0225C:  MOVLW  0A
0225E:  MOVLB  4
02260:  MOVWF  x69
02262:  MOVLB  0
02264:  RCALL  1B4A
....................    Ajuste=read_eeprom(21); 
02266:  MOVFF  FF2,450
0226A:  BCF    FF2.6
0226C:  BCF    FF2.7
0226E:  CLRF   FAA
02270:  MOVLW  15
02272:  MOVWF  FA9
02274:  BCF    FA6.6
02276:  BCF    FA6.7
02278:  BSF    FA6.0
0227A:  MOVF   FA8,W
0227C:  MOVLB  4
0227E:  BTFSC  x50.6
02280:  BSF    FF2.6
02282:  BTFSC  x50.7
02284:  BSF    FF2.7
02286:  MOVLB  2
02288:  MOVWF  xE1
....................    delay_ms(10); 
0228A:  MOVLW  0A
0228C:  MOVLB  4
0228E:  MOVWF  x69
02290:  MOVLB  0
02292:  RCALL  1B4A
....................    Ajusten=read_eeprom(22); 
02294:  MOVFF  FF2,450
02298:  BCF    FF2.6
0229A:  BCF    FF2.7
0229C:  CLRF   FAA
0229E:  MOVLW  16
022A0:  MOVWF  FA9
022A2:  BCF    FA6.6
022A4:  BCF    FA6.7
022A6:  BSF    FA6.0
022A8:  MOVF   FA8,W
022AA:  MOVLB  4
022AC:  BTFSC  x50.6
022AE:  BSF    FF2.6
022B0:  BTFSC  x50.7
022B2:  BSF    FF2.7
022B4:  MOVLB  2
022B6:  MOVWF  xE2
....................    delay_ms(10); 
022B8:  MOVLW  0A
022BA:  MOVLB  4
022BC:  MOVWF  x69
022BE:  MOVLB  0
022C0:  RCALL  1B4A
....................    //Desvio=read_eeprom(23); 
....................    MediaMovil=read_eeprom(24); 
022C2:  MOVFF  FF2,450
022C6:  BCF    FF2.6
022C8:  BCF    FF2.7
022CA:  CLRF   FAA
022CC:  MOVLW  18
022CE:  MOVWF  FA9
022D0:  BCF    FA6.6
022D2:  BCF    FA6.7
022D4:  BSF    FA6.0
022D6:  MOVF   FA8,W
022D8:  MOVLB  4
022DA:  BTFSC  x50.6
022DC:  BSF    FF2.6
022DE:  BTFSC  x50.7
022E0:  BSF    FF2.7
022E2:  MOVLB  2
022E4:  MOVWF  xE3
....................    delay_ms(10); 
022E6:  MOVLW  0A
022E8:  MOVLB  4
022EA:  MOVWF  x69
022EC:  MOVLB  0
022EE:  RCALL  1B4A
....................    Tciclo=read_eeprom(25); 
022F0:  MOVFF  FF2,450
022F4:  BCF    FF2.6
022F6:  BCF    FF2.7
022F8:  CLRF   FAA
022FA:  MOVLW  19
022FC:  MOVWF  FA9
022FE:  BCF    FA6.6
02300:  BCF    FA6.7
02302:  BSF    FA6.0
02304:  MOVF   FA8,W
02306:  MOVLB  4
02308:  BTFSC  x50.6
0230A:  BSF    FF2.6
0230C:  BTFSC  x50.7
0230E:  BSF    FF2.7
02310:  CLRF   x66
02312:  MOVWF  x65
02314:  MOVLB  0
02316:  RCALL  1B72
02318:  MOVFF  03,2FD
0231C:  MOVFF  02,2FC
02320:  MOVFF  01,2FB
02324:  MOVFF  00,2FA
....................    delay_ms(10); 
02328:  MOVLW  0A
0232A:  MOVLB  4
0232C:  MOVWF  x69
0232E:  MOVLB  0
02330:  RCALL  1B4A
....................    Integral=read_eeprom(26); 
02332:  MOVFF  FF2,450
02336:  BCF    FF2.6
02338:  BCF    FF2.7
0233A:  CLRF   FAA
0233C:  MOVLW  1A
0233E:  MOVWF  FA9
02340:  BCF    FA6.6
02342:  BCF    FA6.7
02344:  BSF    FA6.0
02346:  MOVF   FA8,W
02348:  MOVLB  4
0234A:  BTFSC  x50.6
0234C:  BSF    FF2.6
0234E:  BTFSC  x50.7
02350:  BSF    FF2.7
02352:  MOVLB  3
02354:  MOVWF  x46
....................    delay_ms(10); 
02356:  MOVLW  0A
02358:  MOVLB  4
0235A:  MOVWF  x69
0235C:  MOVLB  0
0235E:  CALL   1B4A
....................    Derivativo=read_eeprom(27); 
02362:  MOVFF  FF2,450
02366:  BCF    FF2.6
02368:  BCF    FF2.7
0236A:  CLRF   FAA
0236C:  MOVLW  1B
0236E:  MOVWF  FA9
02370:  BCF    FA6.6
02372:  BCF    FA6.7
02374:  BSF    FA6.0
02376:  MOVF   FA8,W
02378:  MOVLB  4
0237A:  BTFSC  x50.6
0237C:  BSF    FF2.6
0237E:  BTFSC  x50.7
02380:  BSF    FF2.7
02382:  MOVLB  3
02384:  MOVWF  x47
....................    delay_ms(10); 
02386:  MOVLW  0A
02388:  MOVLB  4
0238A:  MOVWF  x69
0238C:  MOVLB  0
0238E:  CALL   1B4A
....................    Temporal=read_eeprom(29); 
02392:  MOVFF  FF2,450
02396:  BCF    FF2.6
02398:  BCF    FF2.7
0239A:  CLRF   FAA
0239C:  MOVLW  1D
0239E:  MOVWF  FA9
023A0:  BCF    FA6.6
023A2:  BCF    FA6.7
023A4:  BSF    FA6.0
023A6:  MOVF   FA8,W
023A8:  MOVLB  4
023AA:  BTFSC  x50.6
023AC:  BSF    FF2.6
023AE:  BTFSC  x50.7
023B0:  BSF    FF2.7
023B2:  CLRF   x66
023B4:  MOVWF  x65
023B6:  MOVLB  0
023B8:  CALL   1B72
023BC:  MOVFF  03,2B6
023C0:  MOVFF  02,2B5
023C4:  MOVFF  01,2B4
023C8:  MOVFF  00,2B3
....................    Temporal=Temporal/10.0; 
023CC:  MOVFF  2B6,45C
023D0:  MOVFF  2B5,45B
023D4:  MOVFF  2B4,45A
023D8:  MOVFF  2B3,459
023DC:  MOVLB  4
023DE:  CLRF   x60
023E0:  CLRF   x5F
023E2:  MOVLW  20
023E4:  MOVWF  x5E
023E6:  MOVLW  82
023E8:  MOVWF  x5D
023EA:  MOVLB  0
023EC:  CALL   1BA8
023F0:  MOVFF  03,2B6
023F4:  MOVFF  02,2B5
023F8:  MOVFF  01,2B4
023FC:  MOVFF  00,2B3
....................    delay_ms(10); 
02400:  MOVLW  0A
02402:  MOVLB  4
02404:  MOVWF  x69
02406:  MOVLB  0
02408:  CALL   1B4A
....................    Gain=read_eeprom(28)+Temporal; 
0240C:  MOVFF  FF2,450
02410:  BCF    FF2.6
02412:  BCF    FF2.7
02414:  CLRF   FAA
02416:  MOVLW  1C
02418:  MOVWF  FA9
0241A:  BCF    FA6.6
0241C:  BCF    FA6.7
0241E:  BSF    FA6.0
02420:  MOVF   FA8,W
02422:  MOVLB  4
02424:  BTFSC  x50.6
02426:  BSF    FF2.6
02428:  BTFSC  x50.7
0242A:  BSF    FF2.7
0242C:  CLRF   x66
0242E:  MOVWF  x65
02430:  MOVLB  0
02432:  CALL   1B72
02436:  BCF    FD8.1
02438:  MOVFF  03,468
0243C:  MOVFF  02,467
02440:  MOVFF  01,466
02444:  MOVFF  00,465
02448:  MOVFF  2B6,46C
0244C:  MOVFF  2B5,46B
02450:  MOVFF  2B4,46A
02454:  MOVFF  2B3,469
02458:  RCALL  1D06
0245A:  MOVFF  03,2AE
0245E:  MOVFF  02,2AD
02462:  MOVFF  01,2AC
02466:  MOVFF  00,2AB
....................    delay_ms(10); 
0246A:  MOVLW  0A
0246C:  MOVLB  4
0246E:  MOVWF  x69
02470:  MOVLB  0
02472:  CALL   1B4A
....................    R1=make16(read_eeprom(31),read_eeprom(30)); 
02476:  MOVFF  FF2,450
0247A:  BCF    FF2.6
0247C:  BCF    FF2.7
0247E:  CLRF   FAA
02480:  MOVLW  1F
02482:  MOVWF  FA9
02484:  BCF    FA6.6
02486:  BCF    FA6.7
02488:  BSF    FA6.0
0248A:  MOVF   FA8,W
0248C:  MOVLB  4
0248E:  BTFSC  x50.6
02490:  BSF    FF2.6
02492:  BTFSC  x50.7
02494:  BSF    FF2.7
02496:  MOVWF  x51
02498:  MOVFF  FF2,452
0249C:  BCF    FF2.6
0249E:  BCF    FF2.7
024A0:  CLRF   FAA
024A2:  MOVLW  1E
024A4:  MOVWF  FA9
024A6:  BCF    FA6.6
024A8:  BCF    FA6.7
024AA:  BSF    FA6.0
024AC:  MOVF   FA8,W
024AE:  BTFSC  x52.6
024B0:  BSF    FF2.6
024B2:  BTFSC  x52.7
024B4:  BSF    FF2.7
024B6:  MOVWF  x53
024B8:  MOVFF  451,03
024BC:  MOVF   x53,W
024BE:  MOVWF  x65
024C0:  MOVFF  03,466
024C4:  MOVLB  0
024C6:  CALL   1B72
024CA:  MOVFF  03,2BA
024CE:  MOVFF  02,2B9
024D2:  MOVFF  01,2B8
024D6:  MOVFF  00,2B7
....................    delay_ms(10); 
024DA:  MOVLW  0A
024DC:  MOVLB  4
024DE:  MOVWF  x69
024E0:  MOVLB  0
024E2:  CALL   1B4A
....................    Temporal=read_eeprom(33); 
024E6:  MOVFF  FF2,450
024EA:  BCF    FF2.6
024EC:  BCF    FF2.7
024EE:  CLRF   FAA
024F0:  MOVLW  21
024F2:  MOVWF  FA9
024F4:  BCF    FA6.6
024F6:  BCF    FA6.7
024F8:  BSF    FA6.0
024FA:  MOVF   FA8,W
024FC:  MOVLB  4
024FE:  BTFSC  x50.6
02500:  BSF    FF2.6
02502:  BTFSC  x50.7
02504:  BSF    FF2.7
02506:  CLRF   x66
02508:  MOVWF  x65
0250A:  MOVLB  0
0250C:  CALL   1B72
02510:  MOVFF  03,2B6
02514:  MOVFF  02,2B5
02518:  MOVFF  01,2B4
0251C:  MOVFF  00,2B3
....................    Temporal=Temporal/10.0; 
02520:  MOVFF  2B6,45C
02524:  MOVFF  2B5,45B
02528:  MOVFF  2B4,45A
0252C:  MOVFF  2B3,459
02530:  MOVLB  4
02532:  CLRF   x60
02534:  CLRF   x5F
02536:  MOVLW  20
02538:  MOVWF  x5E
0253A:  MOVLW  82
0253C:  MOVWF  x5D
0253E:  MOVLB  0
02540:  CALL   1BA8
02544:  MOVFF  03,2B6
02548:  MOVFF  02,2B5
0254C:  MOVFF  01,2B4
02550:  MOVFF  00,2B3
....................    delay_ms(10); 
02554:  MOVLW  0A
02556:  MOVLB  4
02558:  MOVWF  x69
0255A:  MOVLB  0
0255C:  CALL   1B4A
....................    RPT100=read_eeprom(32)+Temporal; 
02560:  MOVFF  FF2,450
02564:  BCF    FF2.6
02566:  BCF    FF2.7
02568:  CLRF   FAA
0256A:  MOVLW  20
0256C:  MOVWF  FA9
0256E:  BCF    FA6.6
02570:  BCF    FA6.7
02572:  BSF    FA6.0
02574:  MOVF   FA8,W
02576:  MOVLB  4
02578:  BTFSC  x50.6
0257A:  BSF    FF2.6
0257C:  BTFSC  x50.7
0257E:  BSF    FF2.7
02580:  CLRF   x66
02582:  MOVWF  x65
02584:  MOVLB  0
02586:  CALL   1B72
0258A:  BCF    FD8.1
0258C:  MOVFF  03,468
02590:  MOVFF  02,467
02594:  MOVFF  01,466
02598:  MOVFF  00,465
0259C:  MOVFF  2B6,46C
025A0:  MOVFF  2B5,46B
025A4:  MOVFF  2B4,46A
025A8:  MOVFF  2B3,469
025AC:  CALL   1D06
025B0:  MOVFF  03,2B2
025B4:  MOVFF  02,2B1
025B8:  MOVFF  01,2B0
025BC:  MOVFF  00,2AF
....................    delay_ms(10); 
025C0:  MOVLW  0A
025C2:  MOVLB  4
025C4:  MOVWF  x69
025C6:  MOVLB  0
025C8:  CALL   1B4A
....................    CiclosL=read_eeprom(37); 
025CC:  MOVFF  FF2,450
025D0:  BCF    FF2.6
025D2:  BCF    FF2.7
025D4:  CLRF   FAA
025D6:  MOVLW  25
025D8:  MOVWF  FA9
025DA:  BCF    FA6.6
025DC:  BCF    FA6.7
025DE:  BSF    FA6.0
025E0:  MOVF   FA8,W
025E2:  MOVLB  4
025E4:  BTFSC  x50.6
025E6:  BSF    FF2.6
025E8:  BTFSC  x50.7
025EA:  BSF    FF2.7
025EC:  MOVLB  3
025EE:  MOVWF  x6B
....................    delay_ms(10); 
025F0:  MOVLW  0A
025F2:  MOVLB  4
025F4:  MOVWF  x69
025F6:  MOVLB  0
025F8:  CALL   1B4A
....................    CiclosH=read_eeprom(38); 
025FC:  MOVFF  FF2,450
02600:  BCF    FF2.6
02602:  BCF    FF2.7
02604:  CLRF   FAA
02606:  MOVLW  26
02608:  MOVWF  FA9
0260A:  BCF    FA6.6
0260C:  BCF    FA6.7
0260E:  BSF    FA6.0
02610:  MOVF   FA8,W
02612:  MOVLB  4
02614:  BTFSC  x50.6
02616:  BSF    FF2.6
02618:  BTFSC  x50.7
0261A:  BSF    FF2.7
0261C:  MOVLB  3
0261E:  MOVWF  x6C
....................    delay_ms(10); 
02620:  MOVLW  0A
02622:  MOVLB  4
02624:  MOVWF  x69
02626:  MOVLB  0
02628:  CALL   1B4A
....................    Ciclos=make16(CiclosH,CiclosL); 
0262C:  MOVFF  36C,385
02630:  MOVFF  36B,384
....................    delay_ms(10); 
02634:  MOVLW  0A
02636:  MOVLB  4
02638:  MOVWF  x69
0263A:  MOVLB  0
0263C:  CALL   1B4A
....................    TTrampa=read_eeprom(39); 
02640:  MOVFF  FF2,450
02644:  BCF    FF2.6
02646:  BCF    FF2.7
02648:  CLRF   FAA
0264A:  MOVLW  27
0264C:  MOVWF  FA9
0264E:  BCF    FA6.6
02650:  BCF    FA6.7
02652:  BSF    FA6.0
02654:  MOVF   FA8,W
02656:  MOVLB  4
02658:  BTFSC  x50.6
0265A:  BSF    FF2.6
0265C:  BTFSC  x50.7
0265E:  BSF    FF2.7
02660:  MOVLB  2
02662:  MOVWF  xE4
....................    delay_ms(10); 
02664:  MOVLW  0A
02666:  MOVLB  4
02668:  MOVWF  x69
0266A:  MOVLB  0
0266C:  CALL   1B4A
....................    ActivaImpresion=read_eeprom(40); 
02670:  MOVFF  FF2,450
02674:  BCF    FF2.6
02676:  BCF    FF2.7
02678:  CLRF   FAA
0267A:  MOVLW  28
0267C:  MOVWF  FA9
0267E:  BCF    FA6.6
02680:  BCF    FA6.7
02682:  BSF    FA6.0
02684:  MOVF   FA8,W
02686:  MOVLB  4
02688:  BTFSC  x50.6
0268A:  BSF    FF2.6
0268C:  BTFSC  x50.7
0268E:  BSF    FF2.7
02690:  MOVLB  3
02692:  MOVWF  x61
....................    delay_ms(10); 
02694:  MOVLW  0A
02696:  MOVLB  4
02698:  MOVWF  x69
0269A:  MOVLB  0
0269C:  CALL   1B4A
....................    timpresion=read_eeprom(41); 
026A0:  MOVFF  FF2,450
026A4:  BCF    FF2.6
026A6:  BCF    FF2.7
026A8:  CLRF   FAA
026AA:  MOVLW  29
026AC:  MOVWF  FA9
026AE:  BCF    FA6.6
026B0:  BCF    FA6.7
026B2:  BSF    FA6.0
026B4:  MOVF   FA8,W
026B6:  MOVLB  4
026B8:  BTFSC  x50.6
026BA:  BSF    FF2.6
026BC:  BTFSC  x50.7
026BE:  BSF    FF2.7
026C0:  MOVLB  3
026C2:  MOVWF  x62
....................    delay_ms(10); 
026C4:  MOVLW  0A
026C6:  MOVLB  4
026C8:  MOVWF  x69
026CA:  MOVLB  0
026CC:  CALL   1B4A
....................    G1=read_eeprom(42); 
026D0:  MOVFF  FF2,450
026D4:  BCF    FF2.6
026D6:  BCF    FF2.7
026D8:  CLRF   FAA
026DA:  MOVLW  2A
026DC:  MOVWF  FA9
026DE:  BCF    FA6.6
026E0:  BCF    FA6.7
026E2:  BSF    FA6.0
026E4:  MOVF   FA8,W
026E6:  MOVLB  4
026E8:  BTFSC  x50.6
026EA:  BSF    FF2.6
026EC:  BTFSC  x50.7
026EE:  BSF    FF2.7
026F0:  MOVLB  3
026F2:  MOVWF  xC0
....................    delay_ms(10); 
026F4:  MOVLW  0A
026F6:  MOVLB  4
026F8:  MOVWF  x69
026FA:  MOVLB  0
026FC:  CALL   1B4A
....................    G2=read_eeprom(43); 
02700:  MOVFF  FF2,450
02704:  BCF    FF2.6
02706:  BCF    FF2.7
02708:  CLRF   FAA
0270A:  MOVLW  2B
0270C:  MOVWF  FA9
0270E:  BCF    FA6.6
02710:  BCF    FA6.7
02712:  BSF    FA6.0
02714:  MOVF   FA8,W
02716:  MOVLB  4
02718:  BTFSC  x50.6
0271A:  BSF    FF2.6
0271C:  BTFSC  x50.7
0271E:  BSF    FF2.7
02720:  MOVLB  3
02722:  MOVWF  xC1
....................    delay_ms(10); 
02724:  MOVLW  0A
02726:  MOVLB  4
02728:  MOVWF  x69
0272A:  MOVLB  0
0272C:  CALL   1B4A
....................    sg1=read_eeprom(44); 
02730:  MOVFF  FF2,450
02734:  BCF    FF2.6
02736:  BCF    FF2.7
02738:  CLRF   FAA
0273A:  MOVLW  2C
0273C:  MOVWF  FA9
0273E:  BCF    FA6.6
02740:  BCF    FA6.7
02742:  BSF    FA6.0
02744:  MOVF   FA8,W
02746:  MOVLB  4
02748:  BTFSC  x50.6
0274A:  BSF    FF2.6
0274C:  BTFSC  x50.7
0274E:  BSF    FF2.7
02750:  MOVLB  3
02752:  MOVWF  xC2
....................    delay_ms(10); 
02754:  MOVLW  0A
02756:  MOVLB  4
02758:  MOVWF  x69
0275A:  MOVLB  0
0275C:  CALL   1B4A
....................    sg2=read_eeprom(45); 
02760:  MOVFF  FF2,450
02764:  BCF    FF2.6
02766:  BCF    FF2.7
02768:  CLRF   FAA
0276A:  MOVLW  2D
0276C:  MOVWF  FA9
0276E:  BCF    FA6.6
02770:  BCF    FA6.7
02772:  BSF    FA6.0
02774:  MOVF   FA8,W
02776:  MOVLB  4
02778:  BTFSC  x50.6
0277A:  BSF    FF2.6
0277C:  BTFSC  x50.7
0277E:  BSF    FF2.7
02780:  MOVLB  3
02782:  MOVWF  xC3
....................    delay_ms(10); 
02784:  MOVLW  0A
02786:  MOVLB  4
02788:  MOVWF  x69
0278A:  MOVLB  0
0278C:  CALL   1B4A
....................    Atmosferica=read_eeprom(46); 
02790:  MOVFF  FF2,450
02794:  BCF    FF2.6
02796:  BCF    FF2.7
02798:  CLRF   FAA
0279A:  MOVLW  2E
0279C:  MOVWF  FA9
0279E:  BCF    FA6.6
027A0:  BCF    FA6.7
027A2:  BSF    FA6.0
027A4:  MOVF   FA8,W
027A6:  MOVLB  4
027A8:  BTFSC  x50.6
027AA:  BSF    FF2.6
027AC:  BTFSC  x50.7
027AE:  BSF    FF2.7
027B0:  MOVLB  3
027B2:  MOVWF  xBF
....................     
....................    for(i=0;i<4;i++){//Lee valores almacenados de ciclos personalizados 
027B4:  CLRF   x8D
027B6:  CLRF   x8C
027B8:  MOVF   x8D,F
027BA:  BTFSS  FD8.2
027BC:  GOTO   2FF4
027C0:  MOVF   x8C,W
027C2:  SUBLW  03
027C4:  BTFSS  FD8.0
027C6:  GOTO   2FF4
....................       CiclosPersonalizados[i].Temperatura=read_eeprom(100+(i*8));  
027CA:  MOVFF  38D,46C
027CE:  MOVFF  38C,46B
027D2:  MOVLB  4
027D4:  CLRF   x6E
027D6:  MOVLW  0A
027D8:  MOVWF  x6D
027DA:  MOVLB  0
027DC:  CALL   1F7E
027E0:  MOVFF  02,451
027E4:  MOVFF  01,450
027E8:  MOVLW  28
027EA:  MOVLB  4
027EC:  ADDWF  x50,W
027EE:  MOVWF  FE9
027F0:  MOVLW  04
027F2:  ADDWFC x51,W
027F4:  MOVWF  FEA
027F6:  MOVLB  3
027F8:  RLCF   x8C,W
027FA:  MOVWF  02
027FC:  RLCF   x8D,W
027FE:  MOVWF  03
02800:  RLCF   02,F
02802:  RLCF   03,F
02804:  RLCF   02,F
02806:  RLCF   03,F
02808:  MOVLW  F8
0280A:  ANDWF  02,F
0280C:  MOVF   02,W
0280E:  ADDLW  64
02810:  MOVLB  4
02812:  MOVWF  x52
02814:  MOVLW  00
02816:  ADDWFC 03,W
02818:  MOVWF  x53
0281A:  MOVFF  FF2,454
0281E:  BCF    FF2.6
02820:  BCF    FF2.7
02822:  MOVFF  453,FAA
02826:  MOVFF  452,FA9
0282A:  BCF    FA6.6
0282C:  BCF    FA6.7
0282E:  BSF    FA6.0
02830:  MOVF   FA8,W
02832:  BTFSC  x54.6
02834:  BSF    FF2.6
02836:  BTFSC  x54.7
02838:  BSF    FF2.7
0283A:  MOVWF  FEF
....................       CiclosPersonalizados[i].MinutoestH=read_eeprom(101+(i*8));  
0283C:  MOVFF  38D,46C
02840:  MOVFF  38C,46B
02844:  CLRF   x6E
02846:  MOVLW  0A
02848:  MOVWF  x6D
0284A:  MOVLB  0
0284C:  CALL   1F7E
02850:  MOVFF  02,451
02854:  MOVFF  01,450
02858:  MOVLW  01
0285A:  MOVLB  4
0285C:  ADDWF  x50,W
0285E:  MOVWF  01
02860:  MOVLW  00
02862:  ADDWFC x51,W
02864:  MOVWF  03
02866:  MOVF   01,W
02868:  ADDLW  28
0286A:  MOVWF  FE9
0286C:  MOVLW  04
0286E:  ADDWFC 03,W
02870:  MOVWF  FEA
02872:  MOVLB  3
02874:  RLCF   x8C,W
02876:  MOVWF  02
02878:  RLCF   x8D,W
0287A:  MOVWF  03
0287C:  RLCF   02,F
0287E:  RLCF   03,F
02880:  RLCF   02,F
02882:  RLCF   03,F
02884:  MOVLW  F8
02886:  ANDWF  02,F
02888:  MOVF   02,W
0288A:  ADDLW  65
0288C:  MOVLB  4
0288E:  MOVWF  x52
02890:  MOVLW  00
02892:  ADDWFC 03,W
02894:  MOVWF  x53
02896:  MOVFF  FF2,454
0289A:  BCF    FF2.6
0289C:  BCF    FF2.7
0289E:  MOVFF  453,FAA
028A2:  MOVFF  452,FA9
028A6:  BCF    FA6.6
028A8:  BCF    FA6.7
028AA:  BSF    FA6.0
028AC:  MOVF   FA8,W
028AE:  BTFSC  x54.6
028B0:  BSF    FF2.6
028B2:  BTFSC  x54.7
028B4:  BSF    FF2.7
028B6:  MOVWF  FEF
....................       CiclosPersonalizados[i].Minutoest=read_eeprom(102+(i*8));  
028B8:  MOVFF  38D,46C
028BC:  MOVFF  38C,46B
028C0:  CLRF   x6E
028C2:  MOVLW  0A
028C4:  MOVWF  x6D
028C6:  MOVLB  0
028C8:  CALL   1F7E
028CC:  MOVFF  02,451
028D0:  MOVFF  01,450
028D4:  MOVLW  09
028D6:  MOVLB  4
028D8:  ADDWF  x50,W
028DA:  MOVWF  01
028DC:  MOVLW  00
028DE:  ADDWFC x51,W
028E0:  MOVWF  03
028E2:  MOVF   01,W
028E4:  ADDLW  28
028E6:  MOVWF  FE9
028E8:  MOVLW  04
028EA:  ADDWFC 03,W
028EC:  MOVWF  FEA
028EE:  MOVLB  3
028F0:  RLCF   x8C,W
028F2:  MOVWF  02
028F4:  RLCF   x8D,W
028F6:  MOVWF  03
028F8:  RLCF   02,F
028FA:  RLCF   03,F
028FC:  RLCF   02,F
028FE:  RLCF   03,F
02900:  MOVLW  F8
02902:  ANDWF  02,F
02904:  MOVF   02,W
02906:  ADDLW  66
02908:  MOVLB  4
0290A:  MOVWF  x52
0290C:  MOVLW  00
0290E:  ADDWFC 03,W
02910:  MOVWF  x53
02912:  MOVFF  FF2,454
02916:  BCF    FF2.6
02918:  BCF    FF2.7
0291A:  MOVFF  453,FAA
0291E:  MOVFF  452,FA9
02922:  BCF    FA6.6
02924:  BCF    FA6.7
02926:  BSF    FA6.0
02928:  MOVF   FA8,W
0292A:  BTFSC  x54.6
0292C:  BSF    FF2.6
0292E:  BTFSC  x54.7
02930:  BSF    FF2.7
02932:  MOVWF  FEF
....................       CiclosPersonalizados[i].Segundoest=read_eeprom(103+(i*8));  
02934:  MOVFF  38D,46C
02938:  MOVFF  38C,46B
0293C:  CLRF   x6E
0293E:  MOVLW  0A
02940:  MOVWF  x6D
02942:  MOVLB  0
02944:  CALL   1F7E
02948:  MOVFF  02,451
0294C:  MOVFF  01,450
02950:  MOVLW  03
02952:  MOVLB  4
02954:  ADDWF  x50,W
02956:  MOVWF  01
02958:  MOVLW  00
0295A:  ADDWFC x51,W
0295C:  MOVWF  03
0295E:  MOVF   01,W
02960:  ADDLW  28
02962:  MOVWF  FE9
02964:  MOVLW  04
02966:  ADDWFC 03,W
02968:  MOVWF  FEA
0296A:  MOVLB  3
0296C:  RLCF   x8C,W
0296E:  MOVWF  02
02970:  RLCF   x8D,W
02972:  MOVWF  03
02974:  RLCF   02,F
02976:  RLCF   03,F
02978:  RLCF   02,F
0297A:  RLCF   03,F
0297C:  MOVLW  F8
0297E:  ANDWF  02,F
02980:  MOVF   02,W
02982:  ADDLW  67
02984:  MOVLB  4
02986:  MOVWF  x52
02988:  MOVLW  00
0298A:  ADDWFC 03,W
0298C:  MOVWF  x53
0298E:  MOVFF  FF2,454
02992:  BCF    FF2.6
02994:  BCF    FF2.7
02996:  MOVFF  453,FAA
0299A:  MOVFF  452,FA9
0299E:  BCF    FA6.6
029A0:  BCF    FA6.7
029A2:  BSF    FA6.0
029A4:  MOVF   FA8,W
029A6:  BTFSC  x54.6
029A8:  BSF    FF2.6
029AA:  BTFSC  x54.7
029AC:  BSF    FF2.7
029AE:  MOVWF  FEF
....................       CiclosPersonalizados[i].Minutosec=read_eeprom(104+(i*8));  
029B0:  MOVFF  38D,46C
029B4:  MOVFF  38C,46B
029B8:  CLRF   x6E
029BA:  MOVLW  0A
029BC:  MOVWF  x6D
029BE:  MOVLB  0
029C0:  CALL   1F7E
029C4:  MOVFF  02,451
029C8:  MOVFF  01,450
029CC:  MOVLW  04
029CE:  MOVLB  4
029D0:  ADDWF  x50,W
029D2:  MOVWF  01
029D4:  MOVLW  00
029D6:  ADDWFC x51,W
029D8:  MOVWF  03
029DA:  MOVF   01,W
029DC:  ADDLW  28
029DE:  MOVWF  FE9
029E0:  MOVLW  04
029E2:  ADDWFC 03,W
029E4:  MOVWF  FEA
029E6:  MOVLB  3
029E8:  RLCF   x8C,W
029EA:  MOVWF  02
029EC:  RLCF   x8D,W
029EE:  MOVWF  03
029F0:  RLCF   02,F
029F2:  RLCF   03,F
029F4:  RLCF   02,F
029F6:  RLCF   03,F
029F8:  MOVLW  F8
029FA:  ANDWF  02,F
029FC:  MOVF   02,W
029FE:  ADDLW  68
02A00:  MOVLB  4
02A02:  MOVWF  x52
02A04:  MOVLW  00
02A06:  ADDWFC 03,W
02A08:  MOVWF  x53
02A0A:  MOVFF  FF2,454
02A0E:  BCF    FF2.6
02A10:  BCF    FF2.7
02A12:  MOVFF  453,FAA
02A16:  MOVFF  452,FA9
02A1A:  BCF    FA6.6
02A1C:  BCF    FA6.7
02A1E:  BSF    FA6.0
02A20:  MOVF   FA8,W
02A22:  BTFSC  x54.6
02A24:  BSF    FF2.6
02A26:  BTFSC  x54.7
02A28:  BSF    FF2.7
02A2A:  MOVWF  FEF
....................       CiclosPersonalizados[i].Segundosec=read_eeprom(105+(i*8));  
02A2C:  MOVFF  38D,46C
02A30:  MOVFF  38C,46B
02A34:  CLRF   x6E
02A36:  MOVLW  0A
02A38:  MOVWF  x6D
02A3A:  MOVLB  0
02A3C:  CALL   1F7E
02A40:  MOVFF  02,451
02A44:  MOVFF  01,450
02A48:  MOVLW  05
02A4A:  MOVLB  4
02A4C:  ADDWF  x50,W
02A4E:  MOVWF  01
02A50:  MOVLW  00
02A52:  ADDWFC x51,W
02A54:  MOVWF  03
02A56:  MOVF   01,W
02A58:  ADDLW  28
02A5A:  MOVWF  FE9
02A5C:  MOVLW  04
02A5E:  ADDWFC 03,W
02A60:  MOVWF  FEA
02A62:  MOVLB  3
02A64:  RLCF   x8C,W
02A66:  MOVWF  02
02A68:  RLCF   x8D,W
02A6A:  MOVWF  03
02A6C:  RLCF   02,F
02A6E:  RLCF   03,F
02A70:  RLCF   02,F
02A72:  RLCF   03,F
02A74:  MOVLW  F8
02A76:  ANDWF  02,F
02A78:  MOVF   02,W
02A7A:  ADDLW  69
02A7C:  MOVLB  4
02A7E:  MOVWF  x52
02A80:  MOVLW  00
02A82:  ADDWFC 03,W
02A84:  MOVWF  x53
02A86:  MOVFF  FF2,454
02A8A:  BCF    FF2.6
02A8C:  BCF    FF2.7
02A8E:  MOVFF  453,FAA
02A92:  MOVFF  452,FA9
02A96:  BCF    FA6.6
02A98:  BCF    FA6.7
02A9A:  BSF    FA6.0
02A9C:  MOVF   FA8,W
02A9E:  BTFSC  x54.6
02AA0:  BSF    FF2.6
02AA2:  BTFSC  x54.7
02AA4:  BSF    FF2.7
02AA6:  MOVWF  FEF
....................       CiclosPersonalizados[i].PulsosVacio=read_eeprom(106+(i*8));  
02AA8:  MOVFF  38D,46C
02AAC:  MOVFF  38C,46B
02AB0:  CLRF   x6E
02AB2:  MOVLW  0A
02AB4:  MOVWF  x6D
02AB6:  MOVLB  0
02AB8:  CALL   1F7E
02ABC:  MOVFF  02,451
02AC0:  MOVFF  01,450
02AC4:  MOVLW  06
02AC6:  MOVLB  4
02AC8:  ADDWF  x50,W
02ACA:  MOVWF  01
02ACC:  MOVLW  00
02ACE:  ADDWFC x51,W
02AD0:  MOVWF  03
02AD2:  MOVF   01,W
02AD4:  ADDLW  28
02AD6:  MOVWF  FE9
02AD8:  MOVLW  04
02ADA:  ADDWFC 03,W
02ADC:  MOVWF  FEA
02ADE:  MOVLB  3
02AE0:  RLCF   x8C,W
02AE2:  MOVWF  02
02AE4:  RLCF   x8D,W
02AE6:  MOVWF  03
02AE8:  RLCF   02,F
02AEA:  RLCF   03,F
02AEC:  RLCF   02,F
02AEE:  RLCF   03,F
02AF0:  MOVLW  F8
02AF2:  ANDWF  02,F
02AF4:  MOVF   02,W
02AF6:  ADDLW  6A
02AF8:  MOVLB  4
02AFA:  MOVWF  x52
02AFC:  MOVLW  00
02AFE:  ADDWFC 03,W
02B00:  MOVWF  x53
02B02:  MOVFF  FF2,454
02B06:  BCF    FF2.6
02B08:  BCF    FF2.7
02B0A:  MOVFF  453,FAA
02B0E:  MOVFF  452,FA9
02B12:  BCF    FA6.6
02B14:  BCF    FA6.7
02B16:  BSF    FA6.0
02B18:  MOVF   FA8,W
02B1A:  BTFSC  x54.6
02B1C:  BSF    FF2.6
02B1E:  BTFSC  x54.7
02B20:  BSF    FF2.7
02B22:  MOVWF  FEF
....................       CiclosPersonalizados[i].NivelDesfogue=read_eeprom(107+(i*8));  
02B24:  MOVFF  38D,46C
02B28:  MOVFF  38C,46B
02B2C:  CLRF   x6E
02B2E:  MOVLW  0A
02B30:  MOVWF  x6D
02B32:  MOVLB  0
02B34:  CALL   1F7E
02B38:  MOVFF  02,451
02B3C:  MOVFF  01,450
02B40:  MOVLW  08
02B42:  MOVLB  4
02B44:  ADDWF  x50,W
02B46:  MOVWF  01
02B48:  MOVLW  00
02B4A:  ADDWFC x51,W
02B4C:  MOVWF  03
02B4E:  MOVF   01,W
02B50:  ADDLW  28
02B52:  MOVWF  FE9
02B54:  MOVLW  04
02B56:  ADDWFC 03,W
02B58:  MOVWF  FEA
02B5A:  MOVLB  3
02B5C:  RLCF   x8C,W
02B5E:  MOVWF  02
02B60:  RLCF   x8D,W
02B62:  MOVWF  03
02B64:  RLCF   02,F
02B66:  RLCF   03,F
02B68:  RLCF   02,F
02B6A:  RLCF   03,F
02B6C:  MOVLW  F8
02B6E:  ANDWF  02,F
02B70:  MOVF   02,W
02B72:  ADDLW  6B
02B74:  MOVLB  4
02B76:  MOVWF  x52
02B78:  MOVLW  00
02B7A:  ADDWFC 03,W
02B7C:  MOVWF  x53
02B7E:  MOVFF  FF2,454
02B82:  BCF    FF2.6
02B84:  BCF    FF2.7
02B86:  MOVFF  453,FAA
02B8A:  MOVFF  452,FA9
02B8E:  BCF    FA6.6
02B90:  BCF    FA6.7
02B92:  BSF    FA6.0
02B94:  MOVF   FA8,W
02B96:  BTFSC  x54.6
02B98:  BSF    FF2.6
02B9A:  BTFSC  x54.7
02B9C:  BSF    FF2.7
02B9E:  MOVWF  FEF
....................        
....................       if(CiclosPersonalizados[i].Temperatura>134 || CiclosPersonalizados[i].Temperatura<105) 
02BA0:  MOVFF  38D,46C
02BA4:  MOVFF  38C,46B
02BA8:  CLRF   x6E
02BAA:  MOVLW  0A
02BAC:  MOVWF  x6D
02BAE:  MOVLB  0
02BB0:  CALL   1F7E
02BB4:  MOVFF  02,451
02BB8:  MOVFF  01,450
02BBC:  MOVLW  28
02BBE:  MOVLB  4
02BC0:  ADDWF  01,W
02BC2:  MOVWF  FE9
02BC4:  MOVLW  04
02BC6:  ADDWFC 02,W
02BC8:  MOVWF  FEA
02BCA:  MOVF   FEF,W
02BCC:  SUBLW  86
02BCE:  BNC   2C00
02BD0:  MOVFF  38D,46C
02BD4:  MOVFF  38C,46B
02BD8:  CLRF   x6E
02BDA:  MOVLW  0A
02BDC:  MOVWF  x6D
02BDE:  MOVLB  0
02BE0:  CALL   1F7E
02BE4:  MOVFF  02,451
02BE8:  MOVFF  01,450
02BEC:  MOVLW  28
02BEE:  MOVLB  4
02BF0:  ADDWF  01,W
02BF2:  MOVWF  FE9
02BF4:  MOVLW  04
02BF6:  ADDWFC 02,W
02BF8:  MOVWF  FEA
02BFA:  MOVF   FEF,W
02BFC:  SUBLW  68
02BFE:  BNC   2C26
....................          CiclosPersonalizados[i].Temperatura=121; 
02C00:  MOVFF  38D,46C
02C04:  MOVFF  38C,46B
02C08:  CLRF   x6E
02C0A:  MOVLW  0A
02C0C:  MOVWF  x6D
02C0E:  MOVLB  0
02C10:  CALL   1F7E
02C14:  MOVLW  28
02C16:  MOVLB  4
02C18:  ADDWF  01,W
02C1A:  MOVWF  FE9
02C1C:  MOVLW  04
02C1E:  ADDWFC 02,W
02C20:  MOVWF  FEA
02C22:  MOVLW  79
02C24:  MOVWF  FEF
....................       if(CiclosPersonalizados[i].Minutoest>59) 
02C26:  MOVFF  38D,46C
02C2A:  MOVFF  38C,46B
02C2E:  CLRF   x6E
02C30:  MOVLW  0A
02C32:  MOVWF  x6D
02C34:  MOVLB  0
02C36:  CALL   1F7E
02C3A:  MOVFF  02,451
02C3E:  MOVFF  01,450
02C42:  MOVLW  09
02C44:  MOVLB  4
02C46:  ADDWF  01,W
02C48:  MOVWF  01
02C4A:  MOVLW  00
02C4C:  ADDWFC 02,W
02C4E:  MOVWF  03
02C50:  MOVF   01,W
02C52:  ADDLW  28
02C54:  MOVWF  FE9
02C56:  MOVLW  04
02C58:  ADDWFC 03,W
02C5A:  MOVWF  FEA
02C5C:  MOVF   FEF,W
02C5E:  SUBLW  3B
02C60:  BC    2C96
....................          CiclosPersonalizados[i].Minutoest=0; 
02C62:  MOVFF  38D,46C
02C66:  MOVFF  38C,46B
02C6A:  CLRF   x6E
02C6C:  MOVLW  0A
02C6E:  MOVWF  x6D
02C70:  MOVLB  0
02C72:  CALL   1F7E
02C76:  MOVFF  01,450
02C7A:  MOVLW  09
02C7C:  MOVLB  4
02C7E:  ADDWF  01,W
02C80:  MOVWF  01
02C82:  MOVLW  00
02C84:  ADDWFC 02,W
02C86:  MOVWF  03
02C88:  MOVF   01,W
02C8A:  ADDLW  28
02C8C:  MOVWF  FE9
02C8E:  MOVLW  04
02C90:  ADDWFC 03,W
02C92:  MOVWF  FEA
02C94:  CLRF   FEF
....................       if(CiclosPersonalizados[i].Segundoest>59) 
02C96:  MOVFF  38D,46C
02C9A:  MOVFF  38C,46B
02C9E:  CLRF   x6E
02CA0:  MOVLW  0A
02CA2:  MOVWF  x6D
02CA4:  MOVLB  0
02CA6:  CALL   1F7E
02CAA:  MOVFF  02,451
02CAE:  MOVFF  01,450
02CB2:  MOVLW  03
02CB4:  MOVLB  4
02CB6:  ADDWF  01,W
02CB8:  MOVWF  01
02CBA:  MOVLW  00
02CBC:  ADDWFC 02,W
02CBE:  MOVWF  03
02CC0:  MOVF   01,W
02CC2:  ADDLW  28
02CC4:  MOVWF  FE9
02CC6:  MOVLW  04
02CC8:  ADDWFC 03,W
02CCA:  MOVWF  FEA
02CCC:  MOVF   FEF,W
02CCE:  SUBLW  3B
02CD0:  BC    2D06
....................          CiclosPersonalizados[i].Segundoest=0; 
02CD2:  MOVFF  38D,46C
02CD6:  MOVFF  38C,46B
02CDA:  CLRF   x6E
02CDC:  MOVLW  0A
02CDE:  MOVWF  x6D
02CE0:  MOVLB  0
02CE2:  CALL   1F7E
02CE6:  MOVFF  01,450
02CEA:  MOVLW  03
02CEC:  MOVLB  4
02CEE:  ADDWF  01,W
02CF0:  MOVWF  01
02CF2:  MOVLW  00
02CF4:  ADDWFC 02,W
02CF6:  MOVWF  03
02CF8:  MOVF   01,W
02CFA:  ADDLW  28
02CFC:  MOVWF  FE9
02CFE:  MOVLW  04
02D00:  ADDWFC 03,W
02D02:  MOVWF  FEA
02D04:  CLRF   FEF
....................       if(CiclosPersonalizados[i].Minutosec>59) 
02D06:  MOVFF  38D,46C
02D0A:  MOVFF  38C,46B
02D0E:  CLRF   x6E
02D10:  MOVLW  0A
02D12:  MOVWF  x6D
02D14:  MOVLB  0
02D16:  CALL   1F7E
02D1A:  MOVFF  02,451
02D1E:  MOVFF  01,450
02D22:  MOVLW  04
02D24:  MOVLB  4
02D26:  ADDWF  01,W
02D28:  MOVWF  01
02D2A:  MOVLW  00
02D2C:  ADDWFC 02,W
02D2E:  MOVWF  03
02D30:  MOVF   01,W
02D32:  ADDLW  28
02D34:  MOVWF  FE9
02D36:  MOVLW  04
02D38:  ADDWFC 03,W
02D3A:  MOVWF  FEA
02D3C:  MOVF   FEF,W
02D3E:  SUBLW  3B
02D40:  BC    2D76
....................          CiclosPersonalizados[i].Minutosec=0;    
02D42:  MOVFF  38D,46C
02D46:  MOVFF  38C,46B
02D4A:  CLRF   x6E
02D4C:  MOVLW  0A
02D4E:  MOVWF  x6D
02D50:  MOVLB  0
02D52:  CALL   1F7E
02D56:  MOVFF  01,450
02D5A:  MOVLW  04
02D5C:  MOVLB  4
02D5E:  ADDWF  01,W
02D60:  MOVWF  01
02D62:  MOVLW  00
02D64:  ADDWFC 02,W
02D66:  MOVWF  03
02D68:  MOVF   01,W
02D6A:  ADDLW  28
02D6C:  MOVWF  FE9
02D6E:  MOVLW  04
02D70:  ADDWFC 03,W
02D72:  MOVWF  FEA
02D74:  CLRF   FEF
....................       if(CiclosPersonalizados[i].Segundoest>59) 
02D76:  MOVFF  38D,46C
02D7A:  MOVFF  38C,46B
02D7E:  CLRF   x6E
02D80:  MOVLW  0A
02D82:  MOVWF  x6D
02D84:  MOVLB  0
02D86:  CALL   1F7E
02D8A:  MOVFF  02,451
02D8E:  MOVFF  01,450
02D92:  MOVLW  03
02D94:  MOVLB  4
02D96:  ADDWF  01,W
02D98:  MOVWF  01
02D9A:  MOVLW  00
02D9C:  ADDWFC 02,W
02D9E:  MOVWF  03
02DA0:  MOVF   01,W
02DA2:  ADDLW  28
02DA4:  MOVWF  FE9
02DA6:  MOVLW  04
02DA8:  ADDWFC 03,W
02DAA:  MOVWF  FEA
02DAC:  MOVF   FEF,W
02DAE:  SUBLW  3B
02DB0:  BC    2DE6
....................          CiclosPersonalizados[i].Segundoest=0; 
02DB2:  MOVFF  38D,46C
02DB6:  MOVFF  38C,46B
02DBA:  CLRF   x6E
02DBC:  MOVLW  0A
02DBE:  MOVWF  x6D
02DC0:  MOVLB  0
02DC2:  CALL   1F7E
02DC6:  MOVFF  01,450
02DCA:  MOVLW  03
02DCC:  MOVLB  4
02DCE:  ADDWF  01,W
02DD0:  MOVWF  01
02DD2:  MOVLW  00
02DD4:  ADDWFC 02,W
02DD6:  MOVWF  03
02DD8:  MOVF   01,W
02DDA:  ADDLW  28
02DDC:  MOVWF  FE9
02DDE:  MOVLW  04
02DE0:  ADDWFC 03,W
02DE2:  MOVWF  FEA
02DE4:  CLRF   FEF
....................       if(CiclosPersonalizados[i].Segundosec>59) 
02DE6:  MOVFF  38D,46C
02DEA:  MOVFF  38C,46B
02DEE:  CLRF   x6E
02DF0:  MOVLW  0A
02DF2:  MOVWF  x6D
02DF4:  MOVLB  0
02DF6:  CALL   1F7E
02DFA:  MOVFF  02,451
02DFE:  MOVFF  01,450
02E02:  MOVLW  05
02E04:  MOVLB  4
02E06:  ADDWF  01,W
02E08:  MOVWF  01
02E0A:  MOVLW  00
02E0C:  ADDWFC 02,W
02E0E:  MOVWF  03
02E10:  MOVF   01,W
02E12:  ADDLW  28
02E14:  MOVWF  FE9
02E16:  MOVLW  04
02E18:  ADDWFC 03,W
02E1A:  MOVWF  FEA
02E1C:  MOVF   FEF,W
02E1E:  SUBLW  3B
02E20:  BC    2E56
....................          CiclosPersonalizados[i].Segundosec=0;       
02E22:  MOVFF  38D,46C
02E26:  MOVFF  38C,46B
02E2A:  CLRF   x6E
02E2C:  MOVLW  0A
02E2E:  MOVWF  x6D
02E30:  MOVLB  0
02E32:  CALL   1F7E
02E36:  MOVFF  01,450
02E3A:  MOVLW  05
02E3C:  MOVLB  4
02E3E:  ADDWF  01,W
02E40:  MOVWF  01
02E42:  MOVLW  00
02E44:  ADDWFC 02,W
02E46:  MOVWF  03
02E48:  MOVF   01,W
02E4A:  ADDLW  28
02E4C:  MOVWF  FE9
02E4E:  MOVLW  04
02E50:  ADDWFC 03,W
02E52:  MOVWF  FEA
02E54:  CLRF   FEF
....................       if(CiclosPersonalizados[i].PulsosVacio>15) 
02E56:  MOVFF  38D,46C
02E5A:  MOVFF  38C,46B
02E5E:  CLRF   x6E
02E60:  MOVLW  0A
02E62:  MOVWF  x6D
02E64:  MOVLB  0
02E66:  CALL   1F7E
02E6A:  MOVFF  02,451
02E6E:  MOVFF  01,450
02E72:  MOVLW  06
02E74:  MOVLB  4
02E76:  ADDWF  01,W
02E78:  MOVWF  01
02E7A:  MOVLW  00
02E7C:  ADDWFC 02,W
02E7E:  MOVWF  03
02E80:  MOVF   01,W
02E82:  ADDLW  28
02E84:  MOVWF  FE9
02E86:  MOVLW  04
02E88:  ADDWFC 03,W
02E8A:  MOVWF  FEA
02E8C:  MOVF   FEF,W
02E8E:  SUBLW  0F
02E90:  BC    2EC8
....................          CiclosPersonalizados[i].PulsosVacio=4; 
02E92:  MOVFF  38D,46C
02E96:  MOVFF  38C,46B
02E9A:  CLRF   x6E
02E9C:  MOVLW  0A
02E9E:  MOVWF  x6D
02EA0:  MOVLB  0
02EA2:  CALL   1F7E
02EA6:  MOVFF  01,450
02EAA:  MOVLW  06
02EAC:  MOVLB  4
02EAE:  ADDWF  01,W
02EB0:  MOVWF  01
02EB2:  MOVLW  00
02EB4:  ADDWFC 02,W
02EB6:  MOVWF  03
02EB8:  MOVF   01,W
02EBA:  ADDLW  28
02EBC:  MOVWF  FE9
02EBE:  MOVLW  04
02EC0:  ADDWFC 03,W
02EC2:  MOVWF  FEA
02EC4:  MOVLW  04
02EC6:  MOVWF  FEF
....................       if(CiclosPersonalizados[i].NivelVacio>100 || CiclosPersonalizados[i].NivelVacio<10) 
02EC8:  MOVFF  38D,46C
02ECC:  MOVFF  38C,46B
02ED0:  CLRF   x6E
02ED2:  MOVLW  0A
02ED4:  MOVWF  x6D
02ED6:  MOVLB  0
02ED8:  CALL   1F7E
02EDC:  MOVFF  02,451
02EE0:  MOVFF  01,450
02EE4:  MOVLW  07
02EE6:  MOVLB  4
02EE8:  ADDWF  01,W
02EEA:  MOVWF  01
02EEC:  MOVLW  00
02EEE:  ADDWFC 02,W
02EF0:  MOVWF  03
02EF2:  MOVF   01,W
02EF4:  ADDLW  28
02EF6:  MOVWF  FE9
02EF8:  MOVLW  04
02EFA:  ADDWFC 03,W
02EFC:  MOVWF  FEA
02EFE:  MOVF   FEF,W
02F00:  SUBLW  64
02F02:  BNC   2F40
02F04:  MOVFF  38D,46C
02F08:  MOVFF  38C,46B
02F0C:  CLRF   x6E
02F0E:  MOVLW  0A
02F10:  MOVWF  x6D
02F12:  MOVLB  0
02F14:  CALL   1F7E
02F18:  MOVFF  02,451
02F1C:  MOVFF  01,450
02F20:  MOVLW  07
02F22:  MOVLB  4
02F24:  ADDWF  01,W
02F26:  MOVWF  01
02F28:  MOVLW  00
02F2A:  ADDWFC 02,W
02F2C:  MOVWF  03
02F2E:  MOVF   01,W
02F30:  ADDLW  28
02F32:  MOVWF  FE9
02F34:  MOVLW  04
02F36:  ADDWFC 03,W
02F38:  MOVWF  FEA
02F3A:  MOVF   FEF,W
02F3C:  SUBLW  09
02F3E:  BNC   2F76
....................          CiclosPersonalizados[i].NivelVacio=25;    
02F40:  MOVFF  38D,46C
02F44:  MOVFF  38C,46B
02F48:  CLRF   x6E
02F4A:  MOVLW  0A
02F4C:  MOVWF  x6D
02F4E:  MOVLB  0
02F50:  CALL   1F7E
02F54:  MOVFF  01,450
02F58:  MOVLW  07
02F5A:  MOVLB  4
02F5C:  ADDWF  01,W
02F5E:  MOVWF  01
02F60:  MOVLW  00
02F62:  ADDWFC 02,W
02F64:  MOVWF  03
02F66:  MOVF   01,W
02F68:  ADDLW  28
02F6A:  MOVWF  FE9
02F6C:  MOVLW  04
02F6E:  ADDWFC 03,W
02F70:  MOVWF  FEA
02F72:  MOVLW  19
02F74:  MOVWF  FEF
....................       if(CiclosPersonalizados[i].NivelDesfogue>6) 
02F76:  MOVFF  38D,46C
02F7A:  MOVFF  38C,46B
02F7E:  CLRF   x6E
02F80:  MOVLW  0A
02F82:  MOVWF  x6D
02F84:  MOVLB  0
02F86:  CALL   1F7E
02F8A:  MOVFF  02,451
02F8E:  MOVFF  01,450
02F92:  MOVLW  08
02F94:  MOVLB  4
02F96:  ADDWF  01,W
02F98:  MOVWF  01
02F9A:  MOVLW  00
02F9C:  ADDWFC 02,W
02F9E:  MOVWF  03
02FA0:  MOVF   01,W
02FA2:  ADDLW  28
02FA4:  MOVWF  FE9
02FA6:  MOVLW  04
02FA8:  ADDWFC 03,W
02FAA:  MOVWF  FEA
02FAC:  MOVF   FEF,W
02FAE:  SUBLW  06
02FB0:  BC    2FE8
....................          CiclosPersonalizados[i].NivelDesfogue=6; 
02FB2:  MOVFF  38D,46C
02FB6:  MOVFF  38C,46B
02FBA:  CLRF   x6E
02FBC:  MOVLW  0A
02FBE:  MOVWF  x6D
02FC0:  MOVLB  0
02FC2:  CALL   1F7E
02FC6:  MOVFF  01,450
02FCA:  MOVLW  08
02FCC:  MOVLB  4
02FCE:  ADDWF  01,W
02FD0:  MOVWF  01
02FD2:  MOVLW  00
02FD4:  ADDWFC 02,W
02FD6:  MOVWF  03
02FD8:  MOVF   01,W
02FDA:  ADDLW  28
02FDC:  MOVWF  FE9
02FDE:  MOVLW  04
02FE0:  ADDWFC 03,W
02FE2:  MOVWF  FEA
02FE4:  MOVLW  06
02FE6:  MOVWF  FEF
....................    } 
02FE8:  MOVLB  3
02FEA:  INCF   x8C,F
02FEC:  BTFSC  FD8.2
02FEE:  INCF   x8D,F
02FF0:  GOTO   27B8
.................... } 
02FF4:  MOVLB  0
02FF6:  GOTO   8462 (RETURN)
....................  
.................... void LimitaValores(){ 
....................    if(Testerilizacionp[0]>9 || Testerilizacionp[0]<0){ 
*
031A8:  BTFSC  xBE.7
031AA:  BRA    31B2
031AC:  MOVF   xBE,W
031AE:  SUBLW  09
031B0:  BNC   31B8
031B2:  BTFSC  xBE.7
031B4:  BRA    31B8
031B6:  BRA    31F0
....................       Testerilizacionp[0]=0; 
031B8:  CLRF   xBE
....................       write_eeprom(0,0); 
031BA:  CLRF   FAA
031BC:  CLRF   FA9
031BE:  CLRF   FA8
031C0:  BCF    FA6.6
031C2:  BCF    FA6.7
031C4:  BSF    FA6.2
031C6:  MOVF   FF2,W
031C8:  MOVWF  00
031CA:  BCF    FF2.6
031CC:  BCF    FF2.7
031CE:  MOVLB  F
031D0:  MOVLW  55
031D2:  MOVWF  FA7
031D4:  MOVLW  AA
031D6:  MOVWF  FA7
031D8:  BSF    FA6.1
031DA:  BTFSC  FA6.1
031DC:  BRA    31DA
031DE:  BCF    FA6.2
031E0:  MOVF   00,W
031E2:  IORWF  FF2,F
....................       delay_ms(10); 
031E4:  MOVLW  0A
031E6:  MOVLB  4
031E8:  MOVWF  x69
031EA:  MOVLB  0
031EC:  CALL   1B4A
....................    } 
....................    if(Testerilizacionp[1]>9 || Testerilizacionp[1]<0){ 
031F0:  BTFSC  xBF.7
031F2:  BRA    31FA
031F4:  MOVF   xBF,W
031F6:  SUBLW  09
031F8:  BNC   3200
031FA:  BTFSC  xBF.7
031FC:  BRA    3200
031FE:  BRA    323A
....................       Testerilizacionp[1]=0; 
03200:  CLRF   xBF
....................       write_eeprom(1,0); 
03202:  CLRF   FAA
03204:  MOVLW  01
03206:  MOVWF  FA9
03208:  CLRF   FA8
0320A:  BCF    FA6.6
0320C:  BCF    FA6.7
0320E:  BSF    FA6.2
03210:  MOVF   FF2,W
03212:  MOVWF  00
03214:  BCF    FF2.6
03216:  BCF    FF2.7
03218:  MOVLB  F
0321A:  MOVLW  55
0321C:  MOVWF  FA7
0321E:  MOVLW  AA
03220:  MOVWF  FA7
03222:  BSF    FA6.1
03224:  BTFSC  FA6.1
03226:  BRA    3224
03228:  BCF    FA6.2
0322A:  MOVF   00,W
0322C:  IORWF  FF2,F
....................       delay_ms(10); 
0322E:  MOVLW  0A
03230:  MOVLB  4
03232:  MOVWF  x69
03234:  MOVLB  0
03236:  CALL   1B4A
....................    } 
....................    if(Testerilizacionp[2]>9 || Testerilizacionp[2]<0){ 
0323A:  BTFSC  xC0.7
0323C:  BRA    3244
0323E:  MOVF   xC0,W
03240:  SUBLW  09
03242:  BNC   324A
03244:  BTFSC  xC0.7
03246:  BRA    324A
03248:  BRA    3284
....................       Testerilizacionp[2]=0; 
0324A:  CLRF   xC0
....................       write_eeprom(2,0); 
0324C:  CLRF   FAA
0324E:  MOVLW  02
03250:  MOVWF  FA9
03252:  CLRF   FA8
03254:  BCF    FA6.6
03256:  BCF    FA6.7
03258:  BSF    FA6.2
0325A:  MOVF   FF2,W
0325C:  MOVWF  00
0325E:  BCF    FF2.6
03260:  BCF    FF2.7
03262:  MOVLB  F
03264:  MOVLW  55
03266:  MOVWF  FA7
03268:  MOVLW  AA
0326A:  MOVWF  FA7
0326C:  BSF    FA6.1
0326E:  BTFSC  FA6.1
03270:  BRA    326E
03272:  BCF    FA6.2
03274:  MOVF   00,W
03276:  IORWF  FF2,F
....................       delay_ms(10); 
03278:  MOVLW  0A
0327A:  MOVLB  4
0327C:  MOVWF  x69
0327E:  MOVLB  0
03280:  CALL   1B4A
....................    } 
....................    if(Testerilizacionp[3]>9 || Testerilizacionp[3]<0){ 
03284:  BTFSC  xC1.7
03286:  BRA    328E
03288:  MOVF   xC1,W
0328A:  SUBLW  09
0328C:  BNC   3294
0328E:  BTFSC  xC1.7
03290:  BRA    3294
03292:  BRA    32CE
....................       Testerilizacionp[3]=0; 
03294:  CLRF   xC1
....................       write_eeprom(3,0); 
03296:  CLRF   FAA
03298:  MOVLW  03
0329A:  MOVWF  FA9
0329C:  CLRF   FA8
0329E:  BCF    FA6.6
032A0:  BCF    FA6.7
032A2:  BSF    FA6.2
032A4:  MOVF   FF2,W
032A6:  MOVWF  00
032A8:  BCF    FF2.6
032AA:  BCF    FF2.7
032AC:  MOVLB  F
032AE:  MOVLW  55
032B0:  MOVWF  FA7
032B2:  MOVLW  AA
032B4:  MOVWF  FA7
032B6:  BSF    FA6.1
032B8:  BTFSC  FA6.1
032BA:  BRA    32B8
032BC:  BCF    FA6.2
032BE:  MOVF   00,W
032C0:  IORWF  FF2,F
....................       delay_ms(10); 
032C2:  MOVLW  0A
032C4:  MOVLB  4
032C6:  MOVWF  x69
032C8:  MOVLB  0
032CA:  CALL   1B4A
....................    } 
....................    if(Tsecadop[0]>9 || Tsecadop[0]<0){ 
032CE:  BTFSC  xC7.7
032D0:  BRA    32D8
032D2:  MOVF   xC7,W
032D4:  SUBLW  09
032D6:  BNC   32DE
032D8:  BTFSC  xC7.7
032DA:  BRA    32DE
032DC:  BRA    3318
....................       Tsecadop[0]=0; 
032DE:  CLRF   xC7
....................       write_eeprom(4,0); 
032E0:  CLRF   FAA
032E2:  MOVLW  04
032E4:  MOVWF  FA9
032E6:  CLRF   FA8
032E8:  BCF    FA6.6
032EA:  BCF    FA6.7
032EC:  BSF    FA6.2
032EE:  MOVF   FF2,W
032F0:  MOVWF  00
032F2:  BCF    FF2.6
032F4:  BCF    FF2.7
032F6:  MOVLB  F
032F8:  MOVLW  55
032FA:  MOVWF  FA7
032FC:  MOVLW  AA
032FE:  MOVWF  FA7
03300:  BSF    FA6.1
03302:  BTFSC  FA6.1
03304:  BRA    3302
03306:  BCF    FA6.2
03308:  MOVF   00,W
0330A:  IORWF  FF2,F
....................       delay_ms(10); 
0330C:  MOVLW  0A
0330E:  MOVLB  4
03310:  MOVWF  x69
03312:  MOVLB  0
03314:  CALL   1B4A
....................    } 
....................    if(Tsecadop[1]>9 || Tsecadop[1]<0){ 
03318:  BTFSC  xC8.7
0331A:  BRA    3322
0331C:  MOVF   xC8,W
0331E:  SUBLW  09
03320:  BNC   3328
03322:  BTFSC  xC8.7
03324:  BRA    3328
03326:  BRA    3362
....................       Tsecadop[1]=0; 
03328:  CLRF   xC8
....................       write_eeprom(5,0); 
0332A:  CLRF   FAA
0332C:  MOVLW  05
0332E:  MOVWF  FA9
03330:  CLRF   FA8
03332:  BCF    FA6.6
03334:  BCF    FA6.7
03336:  BSF    FA6.2
03338:  MOVF   FF2,W
0333A:  MOVWF  00
0333C:  BCF    FF2.6
0333E:  BCF    FF2.7
03340:  MOVLB  F
03342:  MOVLW  55
03344:  MOVWF  FA7
03346:  MOVLW  AA
03348:  MOVWF  FA7
0334A:  BSF    FA6.1
0334C:  BTFSC  FA6.1
0334E:  BRA    334C
03350:  BCF    FA6.2
03352:  MOVF   00,W
03354:  IORWF  FF2,F
....................       delay_ms(10); 
03356:  MOVLW  0A
03358:  MOVLB  4
0335A:  MOVWF  x69
0335C:  MOVLB  0
0335E:  CALL   1B4A
....................    } 
....................    if(Tsecadop[2]>9 || Tsecadop[2]<0){ 
03362:  BTFSC  xC9.7
03364:  BRA    336C
03366:  MOVF   xC9,W
03368:  SUBLW  09
0336A:  BNC   3372
0336C:  BTFSC  xC9.7
0336E:  BRA    3372
03370:  BRA    33AC
....................       Tsecadop[2]=0; 
03372:  CLRF   xC9
....................       write_eeprom(6,0); 
03374:  CLRF   FAA
03376:  MOVLW  06
03378:  MOVWF  FA9
0337A:  CLRF   FA8
0337C:  BCF    FA6.6
0337E:  BCF    FA6.7
03380:  BSF    FA6.2
03382:  MOVF   FF2,W
03384:  MOVWF  00
03386:  BCF    FF2.6
03388:  BCF    FF2.7
0338A:  MOVLB  F
0338C:  MOVLW  55
0338E:  MOVWF  FA7
03390:  MOVLW  AA
03392:  MOVWF  FA7
03394:  BSF    FA6.1
03396:  BTFSC  FA6.1
03398:  BRA    3396
0339A:  BCF    FA6.2
0339C:  MOVF   00,W
0339E:  IORWF  FF2,F
....................       delay_ms(10); 
033A0:  MOVLW  0A
033A2:  MOVLB  4
033A4:  MOVWF  x69
033A6:  MOVLB  0
033A8:  CALL   1B4A
....................    } 
....................    if(Tsecadop[3]>9 || Tsecadop[3]<0){ 
033AC:  BTFSC  xCA.7
033AE:  BRA    33B6
033B0:  MOVF   xCA,W
033B2:  SUBLW  09
033B4:  BNC   33BC
033B6:  BTFSC  xCA.7
033B8:  BRA    33BC
033BA:  BRA    33F6
....................       Tsecadop[3]=0; 
033BC:  CLRF   xCA
....................       write_eeprom(7,0); 
033BE:  CLRF   FAA
033C0:  MOVLW  07
033C2:  MOVWF  FA9
033C4:  CLRF   FA8
033C6:  BCF    FA6.6
033C8:  BCF    FA6.7
033CA:  BSF    FA6.2
033CC:  MOVF   FF2,W
033CE:  MOVWF  00
033D0:  BCF    FF2.6
033D2:  BCF    FF2.7
033D4:  MOVLB  F
033D6:  MOVLW  55
033D8:  MOVWF  FA7
033DA:  MOVLW  AA
033DC:  MOVWF  FA7
033DE:  BSF    FA6.1
033E0:  BTFSC  FA6.1
033E2:  BRA    33E0
033E4:  BCF    FA6.2
033E6:  MOVF   00,W
033E8:  IORWF  FF2,F
....................       delay_ms(10); 
033EA:  MOVLW  0A
033EC:  MOVLB  4
033EE:  MOVWF  x69
033F0:  MOVLB  0
033F2:  CALL   1B4A
....................    } 
....................    if(Setpoint>134){ 
033F6:  MOVLB  3
033F8:  MOVF   x6E,W
033FA:  SUBLW  86
033FC:  BC    343E
....................       Setpoint=134; 
033FE:  MOVLW  86
03400:  MOVWF  x6E
....................       write_eeprom(8,134); 
03402:  CLRF   FAA
03404:  MOVLW  08
03406:  MOVWF  FA9
03408:  MOVLW  86
0340A:  MOVWF  FA8
0340C:  BCF    FA6.6
0340E:  BCF    FA6.7
03410:  BSF    FA6.2
03412:  MOVF   FF2,W
03414:  MOVWF  00
03416:  BCF    FF2.6
03418:  BCF    FF2.7
0341A:  MOVLB  F
0341C:  MOVLW  55
0341E:  MOVWF  FA7
03420:  MOVLW  AA
03422:  MOVWF  FA7
03424:  BSF    FA6.1
03426:  BTFSC  FA6.1
03428:  BRA    3426
0342A:  BCF    FA6.2
0342C:  MOVF   00,W
0342E:  IORWF  FF2,F
....................       delay_ms(10); 
03430:  MOVLW  0A
03432:  MOVLB  4
03434:  MOVWF  x69
03436:  MOVLB  0
03438:  CALL   1B4A
0343C:  MOVLB  3
....................    } 
....................    if(Nivel>6){ 
0343E:  MOVF   x7D,F
03440:  BNZ   3448
03442:  MOVF   x7C,W
03444:  SUBLW  06
03446:  BC    348A
....................       Nivel=3; 
03448:  CLRF   x7D
0344A:  MOVLW  03
0344C:  MOVWF  x7C
....................       write_eeprom(9,3); 
0344E:  CLRF   FAA
03450:  MOVLW  09
03452:  MOVWF  FA9
03454:  MOVLW  03
03456:  MOVWF  FA8
03458:  BCF    FA6.6
0345A:  BCF    FA6.7
0345C:  BSF    FA6.2
0345E:  MOVF   FF2,W
03460:  MOVWF  00
03462:  BCF    FF2.6
03464:  BCF    FF2.7
03466:  MOVLB  F
03468:  MOVLW  55
0346A:  MOVWF  FA7
0346C:  MOVLW  AA
0346E:  MOVWF  FA7
03470:  BSF    FA6.1
03472:  BTFSC  FA6.1
03474:  BRA    3472
03476:  BCF    FA6.2
03478:  MOVF   00,W
0347A:  IORWF  FF2,F
....................       delay_ms(10); 
0347C:  MOVLW  0A
0347E:  MOVLB  4
03480:  MOVWF  x69
03482:  MOVLB  0
03484:  CALL   1B4A
03488:  MOVLB  3
....................    } 
....................    if(Password[0]>9 || Password[0]<0){ 
0348A:  BTFSC  x94.7
0348C:  BRA    3494
0348E:  MOVF   x94,W
03490:  SUBLW  09
03492:  BNC   349A
03494:  BTFSC  x94.7
03496:  BRA    349A
03498:  BRA    34D6
....................       Password[0]=0; 
0349A:  CLRF   x94
....................       write_eeprom(10,0); 
0349C:  CLRF   FAA
0349E:  MOVLW  0A
034A0:  MOVWF  FA9
034A2:  CLRF   FA8
034A4:  BCF    FA6.6
034A6:  BCF    FA6.7
034A8:  BSF    FA6.2
034AA:  MOVF   FF2,W
034AC:  MOVWF  00
034AE:  BCF    FF2.6
034B0:  BCF    FF2.7
034B2:  MOVLB  F
034B4:  MOVLW  55
034B6:  MOVWF  FA7
034B8:  MOVLW  AA
034BA:  MOVWF  FA7
034BC:  BSF    FA6.1
034BE:  BTFSC  FA6.1
034C0:  BRA    34BE
034C2:  BCF    FA6.2
034C4:  MOVF   00,W
034C6:  IORWF  FF2,F
....................       delay_ms(10); 
034C8:  MOVLW  0A
034CA:  MOVLB  4
034CC:  MOVWF  x69
034CE:  MOVLB  0
034D0:  CALL   1B4A
034D4:  MOVLB  3
....................    } 
....................    if(Password[1]>9 || Password[1]<0){ 
034D6:  BTFSC  x95.7
034D8:  BRA    34E0
034DA:  MOVF   x95,W
034DC:  SUBLW  09
034DE:  BNC   34E6
034E0:  BTFSC  x95.7
034E2:  BRA    34E6
034E4:  BRA    3522
....................       Password[1]=0; 
034E6:  CLRF   x95
....................       write_eeprom(11,0); 
034E8:  CLRF   FAA
034EA:  MOVLW  0B
034EC:  MOVWF  FA9
034EE:  CLRF   FA8
034F0:  BCF    FA6.6
034F2:  BCF    FA6.7
034F4:  BSF    FA6.2
034F6:  MOVF   FF2,W
034F8:  MOVWF  00
034FA:  BCF    FF2.6
034FC:  BCF    FF2.7
034FE:  MOVLB  F
03500:  MOVLW  55
03502:  MOVWF  FA7
03504:  MOVLW  AA
03506:  MOVWF  FA7
03508:  BSF    FA6.1
0350A:  BTFSC  FA6.1
0350C:  BRA    350A
0350E:  BCF    FA6.2
03510:  MOVF   00,W
03512:  IORWF  FF2,F
....................       delay_ms(10); 
03514:  MOVLW  0A
03516:  MOVLB  4
03518:  MOVWF  x69
0351A:  MOVLB  0
0351C:  CALL   1B4A
03520:  MOVLB  3
....................    } 
....................    if(Password[2]>9 || Password[2]<0){ 
03522:  BTFSC  x96.7
03524:  BRA    352C
03526:  MOVF   x96,W
03528:  SUBLW  09
0352A:  BNC   3532
0352C:  BTFSC  x96.7
0352E:  BRA    3532
03530:  BRA    356E
....................       Password[2]=0; 
03532:  CLRF   x96
....................       write_eeprom(12,0); 
03534:  CLRF   FAA
03536:  MOVLW  0C
03538:  MOVWF  FA9
0353A:  CLRF   FA8
0353C:  BCF    FA6.6
0353E:  BCF    FA6.7
03540:  BSF    FA6.2
03542:  MOVF   FF2,W
03544:  MOVWF  00
03546:  BCF    FF2.6
03548:  BCF    FF2.7
0354A:  MOVLB  F
0354C:  MOVLW  55
0354E:  MOVWF  FA7
03550:  MOVLW  AA
03552:  MOVWF  FA7
03554:  BSF    FA6.1
03556:  BTFSC  FA6.1
03558:  BRA    3556
0355A:  BCF    FA6.2
0355C:  MOVF   00,W
0355E:  IORWF  FF2,F
....................       delay_ms(10); 
03560:  MOVLW  0A
03562:  MOVLB  4
03564:  MOVWF  x69
03566:  MOVLB  0
03568:  CALL   1B4A
0356C:  MOVLB  3
....................    } 
....................    if(Password[3]>9 || Password[3]<0){ 
0356E:  BTFSC  x97.7
03570:  BRA    3578
03572:  MOVF   x97,W
03574:  SUBLW  09
03576:  BNC   357E
03578:  BTFSC  x97.7
0357A:  BRA    357E
0357C:  BRA    35B8
....................       Password[3]=0; 
0357E:  CLRF   x97
....................       write_eeprom(13,0); 
03580:  CLRF   FAA
03582:  MOVLW  0D
03584:  MOVWF  FA9
03586:  CLRF   FA8
03588:  BCF    FA6.6
0358A:  BCF    FA6.7
0358C:  BSF    FA6.2
0358E:  MOVF   FF2,W
03590:  MOVWF  00
03592:  BCF    FF2.6
03594:  BCF    FF2.7
03596:  MOVLB  F
03598:  MOVLW  55
0359A:  MOVWF  FA7
0359C:  MOVLW  AA
0359E:  MOVWF  FA7
035A0:  BSF    FA6.1
035A2:  BTFSC  FA6.1
035A4:  BRA    35A2
035A6:  BCF    FA6.2
035A8:  MOVF   00,W
035AA:  IORWF  FF2,F
....................       delay_ms(10); 
035AC:  MOVLW  0A
035AE:  MOVLB  4
035B0:  MOVWF  x69
035B2:  MOVLB  0
035B4:  CALL   1B4A
....................    } 
....................    if(Ganancia>12.0 || Ganancia<1){ 
035B8:  MOVLB  4
035BA:  CLRF   x57
035BC:  CLRF   x56
035BE:  MOVLW  40
035C0:  MOVWF  x55
035C2:  MOVLW  82
035C4:  MOVWF  x54
035C6:  MOVFF  315,45B
035CA:  MOVFF  314,45A
035CE:  MOVFF  313,459
035D2:  MOVFF  312,458
035D6:  MOVLB  0
035D8:  RCALL  30E0
035DA:  BC    35FE
035DC:  MOVFF  315,457
035E0:  MOVFF  314,456
035E4:  MOVFF  313,455
035E8:  MOVFF  312,454
035EC:  MOVLB  4
035EE:  CLRF   x5B
035F0:  CLRF   x5A
035F2:  CLRF   x59
035F4:  MOVLW  7F
035F6:  MOVWF  x58
035F8:  MOVLB  0
035FA:  RCALL  30E0
035FC:  BNC   3646
....................       Ganancia=12.0; 
035FE:  MOVLB  3
03600:  CLRF   x15
03602:  CLRF   x14
03604:  MOVLW  40
03606:  MOVWF  x13
03608:  MOVLW  82
0360A:  MOVWF  x12
....................       write_eeprom(20,12); 
0360C:  CLRF   FAA
0360E:  MOVLW  14
03610:  MOVWF  FA9
03612:  MOVLW  0C
03614:  MOVWF  FA8
03616:  BCF    FA6.6
03618:  BCF    FA6.7
0361A:  BSF    FA6.2
0361C:  MOVF   FF2,W
0361E:  MOVWF  00
03620:  BCF    FF2.6
03622:  BCF    FF2.7
03624:  MOVLB  F
03626:  MOVLW  55
03628:  MOVWF  FA7
0362A:  MOVLW  AA
0362C:  MOVWF  FA7
0362E:  BSF    FA6.1
03630:  BTFSC  FA6.1
03632:  BRA    3630
03634:  BCF    FA6.2
03636:  MOVF   00,W
03638:  IORWF  FF2,F
....................       delay_ms(10); 
0363A:  MOVLW  0A
0363C:  MOVLB  4
0363E:  MOVWF  x69
03640:  MOVLB  0
03642:  CALL   1B4A
....................    } 
....................    if(Ajuste>100){ 
03646:  MOVLB  2
03648:  MOVF   xE1,W
0364A:  SUBLW  64
0364C:  BC    368A
....................       Ajuste=0; 
0364E:  CLRF   xE1
....................       write_eeprom(21,0); 
03650:  CLRF   FAA
03652:  MOVLW  15
03654:  MOVWF  FA9
03656:  CLRF   FA8
03658:  BCF    FA6.6
0365A:  BCF    FA6.7
0365C:  BSF    FA6.2
0365E:  MOVF   FF2,W
03660:  MOVWF  00
03662:  BCF    FF2.6
03664:  BCF    FF2.7
03666:  MOVLB  F
03668:  MOVLW  55
0366A:  MOVWF  FA7
0366C:  MOVLW  AA
0366E:  MOVWF  FA7
03670:  BSF    FA6.1
03672:  BTFSC  FA6.1
03674:  BRA    3672
03676:  BCF    FA6.2
03678:  MOVF   00,W
0367A:  IORWF  FF2,F
....................       delay_ms(10); 
0367C:  MOVLW  0A
0367E:  MOVLB  4
03680:  MOVWF  x69
03682:  MOVLB  0
03684:  CALL   1B4A
03688:  MOVLB  2
....................    } 
....................    if(Ajusten>100){ 
0368A:  MOVF   xE2,W
0368C:  SUBLW  64
0368E:  BC    36CC
....................       Ajusten=0; 
03690:  CLRF   xE2
....................       write_eeprom(22,0); 
03692:  CLRF   FAA
03694:  MOVLW  16
03696:  MOVWF  FA9
03698:  CLRF   FA8
0369A:  BCF    FA6.6
0369C:  BCF    FA6.7
0369E:  BSF    FA6.2
036A0:  MOVF   FF2,W
036A2:  MOVWF  00
036A4:  BCF    FF2.6
036A6:  BCF    FF2.7
036A8:  MOVLB  F
036AA:  MOVLW  55
036AC:  MOVWF  FA7
036AE:  MOVLW  AA
036B0:  MOVWF  FA7
036B2:  BSF    FA6.1
036B4:  BTFSC  FA6.1
036B6:  BRA    36B4
036B8:  BCF    FA6.2
036BA:  MOVF   00,W
036BC:  IORWF  FF2,F
....................       delay_ms(10); 
036BE:  MOVLW  0A
036C0:  MOVLB  4
036C2:  MOVWF  x69
036C4:  MOVLB  0
036C6:  CALL   1B4A
036CA:  MOVLB  2
....................    } 
....................    if(MediaMovil>80 || MediaMovil<20){ 
036CC:  MOVF   xE3,W
036CE:  SUBLW  50
036D0:  BNC   36D8
036D2:  MOVF   xE3,W
036D4:  SUBLW  13
036D6:  BNC   3716
....................       MediaMovil=80; 
036D8:  MOVLW  50
036DA:  MOVWF  xE3
....................       write_eeprom(24,80); 
036DC:  CLRF   FAA
036DE:  MOVLW  18
036E0:  MOVWF  FA9
036E2:  MOVLW  50
036E4:  MOVWF  FA8
036E6:  BCF    FA6.6
036E8:  BCF    FA6.7
036EA:  BSF    FA6.2
036EC:  MOVF   FF2,W
036EE:  MOVWF  00
036F0:  BCF    FF2.6
036F2:  BCF    FF2.7
036F4:  MOVLB  F
036F6:  MOVLW  55
036F8:  MOVWF  FA7
036FA:  MOVLW  AA
036FC:  MOVWF  FA7
036FE:  BSF    FA6.1
03700:  BTFSC  FA6.1
03702:  BRA    3700
03704:  BCF    FA6.2
03706:  MOVF   00,W
03708:  IORWF  FF2,F
....................       delay_ms(10); 
0370A:  MOVLW  0A
0370C:  MOVLB  4
0370E:  MOVWF  x69
03710:  MOVLB  0
03712:  CALL   1B4A
....................    } 
....................    if(Tciclo>10 || Tciclo<5){ 
03716:  MOVLB  4
03718:  CLRF   x57
0371A:  CLRF   x56
0371C:  MOVLW  20
0371E:  MOVWF  x55
03720:  MOVLW  82
03722:  MOVWF  x54
03724:  MOVFF  2FD,45B
03728:  MOVFF  2FC,45A
0372C:  MOVFF  2FB,459
03730:  MOVFF  2FA,458
03734:  MOVLB  0
03736:  RCALL  30E0
03738:  BC    375E
0373A:  MOVFF  2FD,457
0373E:  MOVFF  2FC,456
03742:  MOVFF  2FB,455
03746:  MOVFF  2FA,454
0374A:  MOVLB  4
0374C:  CLRF   x5B
0374E:  CLRF   x5A
03750:  MOVLW  20
03752:  MOVWF  x59
03754:  MOVLW  81
03756:  MOVWF  x58
03758:  MOVLB  0
0375A:  RCALL  30E0
0375C:  BNC   37A6
....................       Tciclo=10; 
0375E:  MOVLB  2
03760:  CLRF   xFD
03762:  CLRF   xFC
03764:  MOVLW  20
03766:  MOVWF  xFB
03768:  MOVLW  82
0376A:  MOVWF  xFA
....................       write_eeprom(25,10); 
0376C:  CLRF   FAA
0376E:  MOVLW  19
03770:  MOVWF  FA9
03772:  MOVLW  0A
03774:  MOVWF  FA8
03776:  BCF    FA6.6
03778:  BCF    FA6.7
0377A:  BSF    FA6.2
0377C:  MOVF   FF2,W
0377E:  MOVWF  00
03780:  BCF    FF2.6
03782:  BCF    FF2.7
03784:  MOVLB  F
03786:  MOVLW  55
03788:  MOVWF  FA7
0378A:  MOVLW  AA
0378C:  MOVWF  FA7
0378E:  BSF    FA6.1
03790:  BTFSC  FA6.1
03792:  BRA    3790
03794:  BCF    FA6.2
03796:  MOVF   00,W
03798:  IORWF  FF2,F
....................       delay_ms(10); 
0379A:  MOVLW  0A
0379C:  MOVLB  4
0379E:  MOVWF  x69
037A0:  MOVLB  0
037A2:  CALL   1B4A
....................    } 
....................    if(Integral>10.0 || Integral<1.0){ 
037A6:  MOVLB  4
037A8:  CLRF   x66
037AA:  MOVFF  346,465
037AE:  MOVLB  0
037B0:  CALL   1B72
037B4:  MOVLB  4
037B6:  CLRF   x57
037B8:  CLRF   x56
037BA:  MOVLW  20
037BC:  MOVWF  x55
037BE:  MOVLW  82
037C0:  MOVWF  x54
037C2:  MOVFF  03,45B
037C6:  MOVFF  02,45A
037CA:  MOVFF  01,459
037CE:  MOVFF  00,458
037D2:  MOVLB  0
037D4:  RCALL  30E0
037D6:  BC    3808
037D8:  MOVLB  4
037DA:  CLRF   x66
037DC:  MOVFF  346,465
037E0:  MOVLB  0
037E2:  CALL   1B72
037E6:  MOVFF  03,457
037EA:  MOVFF  02,456
037EE:  MOVFF  01,455
037F2:  MOVFF  00,454
037F6:  MOVLB  4
037F8:  CLRF   x5B
037FA:  CLRF   x5A
037FC:  CLRF   x59
037FE:  MOVLW  7F
03800:  MOVWF  x58
03802:  MOVLB  0
03804:  RCALL  30E0
03806:  BNC   3848
....................       Integral=1.0; 
03808:  MOVLW  01
0380A:  MOVLB  3
0380C:  MOVWF  x46
....................       write_eeprom(26,1); 
0380E:  CLRF   FAA
03810:  MOVLW  1A
03812:  MOVWF  FA9
03814:  MOVLW  01
03816:  MOVWF  FA8
03818:  BCF    FA6.6
0381A:  BCF    FA6.7
0381C:  BSF    FA6.2
0381E:  MOVF   FF2,W
03820:  MOVWF  00
03822:  BCF    FF2.6
03824:  BCF    FF2.7
03826:  MOVLB  F
03828:  MOVLW  55
0382A:  MOVWF  FA7
0382C:  MOVLW  AA
0382E:  MOVWF  FA7
03830:  BSF    FA6.1
03832:  BTFSC  FA6.1
03834:  BRA    3832
03836:  BCF    FA6.2
03838:  MOVF   00,W
0383A:  IORWF  FF2,F
....................       delay_ms(10); 
0383C:  MOVLW  0A
0383E:  MOVLB  4
03840:  MOVWF  x69
03842:  MOVLB  0
03844:  CALL   1B4A
....................    } 
....................    if(Derivativo>20.0 || Derivativo<5){ 
03848:  MOVLB  4
0384A:  CLRF   x66
0384C:  MOVFF  347,465
03850:  MOVLB  0
03852:  CALL   1B72
03856:  MOVLB  4
03858:  CLRF   x57
0385A:  CLRF   x56
0385C:  MOVLW  20
0385E:  MOVWF  x55
03860:  MOVLW  83
03862:  MOVWF  x54
03864:  MOVFF  03,45B
03868:  MOVFF  02,45A
0386C:  MOVFF  01,459
03870:  MOVFF  00,458
03874:  MOVLB  0
03876:  RCALL  30E0
03878:  BC    3884
0387A:  MOVLB  3
0387C:  MOVF   x47,W
0387E:  SUBLW  04
03880:  BNC   38C4
03882:  MOVLB  0
....................       Derivativo=15.0; 
03884:  MOVLW  0F
03886:  MOVLB  3
03888:  MOVWF  x47
....................       write_eeprom(27,15); 
0388A:  CLRF   FAA
0388C:  MOVLW  1B
0388E:  MOVWF  FA9
03890:  MOVLW  0F
03892:  MOVWF  FA8
03894:  BCF    FA6.6
03896:  BCF    FA6.7
03898:  BSF    FA6.2
0389A:  MOVF   FF2,W
0389C:  MOVWF  00
0389E:  BCF    FF2.6
038A0:  BCF    FF2.7
038A2:  MOVLB  F
038A4:  MOVLW  55
038A6:  MOVWF  FA7
038A8:  MOVLW  AA
038AA:  MOVWF  FA7
038AC:  BSF    FA6.1
038AE:  BTFSC  FA6.1
038B0:  BRA    38AE
038B2:  BCF    FA6.2
038B4:  MOVF   00,W
038B6:  IORWF  FF2,F
....................       delay_ms(10); 
038B8:  MOVLW  0A
038BA:  MOVLB  4
038BC:  MOVWF  x69
038BE:  MOVLB  0
038C0:  CALL   1B4A
....................    } 
....................    if(Gain>50){ 
038C4:  MOVLB  4
038C6:  CLRF   x57
038C8:  CLRF   x56
038CA:  MOVLW  48
038CC:  MOVWF  x55
038CE:  MOVLW  84
038D0:  MOVWF  x54
038D2:  MOVFF  2AE,45B
038D6:  MOVFF  2AD,45A
038DA:  MOVFF  2AC,459
038DE:  MOVFF  2AB,458
038E2:  MOVLB  0
038E4:  CALL   30E0
038E8:  BNC   3970
....................       Gain=40.2; 
038EA:  MOVLW  CD
038EC:  MOVLB  2
038EE:  MOVWF  xAE
038F0:  MOVLW  CC
038F2:  MOVWF  xAD
038F4:  MOVLW  20
038F6:  MOVWF  xAC
038F8:  MOVLW  84
038FA:  MOVWF  xAB
....................       write_eeprom(28,40); 
038FC:  CLRF   FAA
038FE:  MOVLW  1C
03900:  MOVWF  FA9
03902:  MOVLW  28
03904:  MOVWF  FA8
03906:  BCF    FA6.6
03908:  BCF    FA6.7
0390A:  BSF    FA6.2
0390C:  MOVF   FF2,W
0390E:  MOVWF  00
03910:  BCF    FF2.6
03912:  BCF    FF2.7
03914:  MOVLB  F
03916:  MOVLW  55
03918:  MOVWF  FA7
0391A:  MOVLW  AA
0391C:  MOVWF  FA7
0391E:  BSF    FA6.1
03920:  BTFSC  FA6.1
03922:  BRA    3920
03924:  BCF    FA6.2
03926:  MOVF   00,W
03928:  IORWF  FF2,F
....................       delay_ms(10); 
0392A:  MOVLW  0A
0392C:  MOVLB  4
0392E:  MOVWF  x69
03930:  MOVLB  0
03932:  CALL   1B4A
....................       write_eeprom(29,2); 
03936:  CLRF   FAA
03938:  MOVLW  1D
0393A:  MOVWF  FA9
0393C:  MOVLW  02
0393E:  MOVWF  FA8
03940:  BCF    FA6.6
03942:  BCF    FA6.7
03944:  BSF    FA6.2
03946:  MOVF   FF2,W
03948:  MOVWF  00
0394A:  BCF    FF2.6
0394C:  BCF    FF2.7
0394E:  MOVLB  F
03950:  MOVLW  55
03952:  MOVWF  FA7
03954:  MOVLW  AA
03956:  MOVWF  FA7
03958:  BSF    FA6.1
0395A:  BTFSC  FA6.1
0395C:  BRA    395A
0395E:  BCF    FA6.2
03960:  MOVF   00,W
03962:  IORWF  FF2,F
....................       delay_ms(10); 
03964:  MOVLW  0A
03966:  MOVLB  4
03968:  MOVWF  x69
0396A:  MOVLB  0
0396C:  CALL   1B4A
....................    } 
....................    if(R1>6400){ 
03970:  MOVLB  4
03972:  CLRF   x57
03974:  CLRF   x56
03976:  MOVLW  48
03978:  MOVWF  x55
0397A:  MOVLW  8B
0397C:  MOVWF  x54
0397E:  MOVFF  2BA,45B
03982:  MOVFF  2B9,45A
03986:  MOVFF  2B8,459
0398A:  MOVFF  2B7,458
0398E:  MOVLB  0
03990:  CALL   30E0
03994:  BNC   3A1A
....................       R1=6200; 
03996:  MOVLB  2
03998:  CLRF   xBA
0399A:  MOVLW  C0
0399C:  MOVWF  xB9
0399E:  MOVLW  41
039A0:  MOVWF  xB8
039A2:  MOVLW  8B
039A4:  MOVWF  xB7
....................       write_eeprom(30,0x38); 
039A6:  CLRF   FAA
039A8:  MOVLW  1E
039AA:  MOVWF  FA9
039AC:  MOVLW  38
039AE:  MOVWF  FA8
039B0:  BCF    FA6.6
039B2:  BCF    FA6.7
039B4:  BSF    FA6.2
039B6:  MOVF   FF2,W
039B8:  MOVWF  00
039BA:  BCF    FF2.6
039BC:  BCF    FF2.7
039BE:  MOVLB  F
039C0:  MOVLW  55
039C2:  MOVWF  FA7
039C4:  MOVLW  AA
039C6:  MOVWF  FA7
039C8:  BSF    FA6.1
039CA:  BTFSC  FA6.1
039CC:  BRA    39CA
039CE:  BCF    FA6.2
039D0:  MOVF   00,W
039D2:  IORWF  FF2,F
....................       delay_ms(10); 
039D4:  MOVLW  0A
039D6:  MOVLB  4
039D8:  MOVWF  x69
039DA:  MOVLB  0
039DC:  CALL   1B4A
....................       write_eeprom(31,0x18); 
039E0:  CLRF   FAA
039E2:  MOVLW  1F
039E4:  MOVWF  FA9
039E6:  MOVLW  18
039E8:  MOVWF  FA8
039EA:  BCF    FA6.6
039EC:  BCF    FA6.7
039EE:  BSF    FA6.2
039F0:  MOVF   FF2,W
039F2:  MOVWF  00
039F4:  BCF    FF2.6
039F6:  BCF    FF2.7
039F8:  MOVLB  F
039FA:  MOVLW  55
039FC:  MOVWF  FA7
039FE:  MOVLW  AA
03A00:  MOVWF  FA7
03A02:  BSF    FA6.1
03A04:  BTFSC  FA6.1
03A06:  BRA    3A04
03A08:  BCF    FA6.2
03A0A:  MOVF   00,W
03A0C:  IORWF  FF2,F
....................       delay_ms(10); 
03A0E:  MOVLW  0A
03A10:  MOVLB  4
03A12:  MOVWF  x69
03A14:  MOVLB  0
03A16:  CALL   1B4A
....................    } 
....................    if(RPT100>2.0){ 
03A1A:  MOVLB  4
03A1C:  CLRF   x57
03A1E:  CLRF   x56
03A20:  CLRF   x55
03A22:  MOVLW  80
03A24:  MOVWF  x54
03A26:  MOVFF  2B2,45B
03A2A:  MOVFF  2B1,45A
03A2E:  MOVFF  2B0,459
03A32:  MOVFF  2AF,458
03A36:  MOVLB  0
03A38:  CALL   30E0
03A3C:  BNC   3ABC
....................       RPT100=0.5; 
03A3E:  MOVLB  2
03A40:  CLRF   xB2
03A42:  CLRF   xB1
03A44:  CLRF   xB0
03A46:  MOVLW  7E
03A48:  MOVWF  xAF
....................       write_eeprom(32,0); 
03A4A:  CLRF   FAA
03A4C:  MOVLW  20
03A4E:  MOVWF  FA9
03A50:  CLRF   FA8
03A52:  BCF    FA6.6
03A54:  BCF    FA6.7
03A56:  BSF    FA6.2
03A58:  MOVF   FF2,W
03A5A:  MOVWF  00
03A5C:  BCF    FF2.6
03A5E:  BCF    FF2.7
03A60:  MOVLB  F
03A62:  MOVLW  55
03A64:  MOVWF  FA7
03A66:  MOVLW  AA
03A68:  MOVWF  FA7
03A6A:  BSF    FA6.1
03A6C:  BTFSC  FA6.1
03A6E:  BRA    3A6C
03A70:  BCF    FA6.2
03A72:  MOVF   00,W
03A74:  IORWF  FF2,F
....................       delay_ms(10); 
03A76:  MOVLW  0A
03A78:  MOVLB  4
03A7A:  MOVWF  x69
03A7C:  MOVLB  0
03A7E:  CALL   1B4A
....................       write_eeprom(33,5); 
03A82:  CLRF   FAA
03A84:  MOVLW  21
03A86:  MOVWF  FA9
03A88:  MOVLW  05
03A8A:  MOVWF  FA8
03A8C:  BCF    FA6.6
03A8E:  BCF    FA6.7
03A90:  BSF    FA6.2
03A92:  MOVF   FF2,W
03A94:  MOVWF  00
03A96:  BCF    FF2.6
03A98:  BCF    FF2.7
03A9A:  MOVLB  F
03A9C:  MOVLW  55
03A9E:  MOVWF  FA7
03AA0:  MOVLW  AA
03AA2:  MOVWF  FA7
03AA4:  BSF    FA6.1
03AA6:  BTFSC  FA6.1
03AA8:  BRA    3AA6
03AAA:  BCF    FA6.2
03AAC:  MOVF   00,W
03AAE:  IORWF  FF2,F
....................       delay_ms(10); 
03AB0:  MOVLW  0A
03AB2:  MOVLB  4
03AB4:  MOVWF  x69
03AB6:  MOVLB  0
03AB8:  CALL   1B4A
....................    } 
....................    if(Ciclos>60000){ 
03ABC:  MOVLB  3
03ABE:  MOVF   x85,W
03AC0:  SUBLW  E9
03AC2:  BC    3B42
03AC4:  XORLW  FF
03AC6:  BNZ   3ACE
03AC8:  MOVF   x84,W
03ACA:  SUBLW  60
03ACC:  BC    3B42
....................       Ciclos=0; 
03ACE:  CLRF   x85
03AD0:  CLRF   x84
....................       write_eeprom(37,0); 
03AD2:  CLRF   FAA
03AD4:  MOVLW  25
03AD6:  MOVWF  FA9
03AD8:  CLRF   FA8
03ADA:  BCF    FA6.6
03ADC:  BCF    FA6.7
03ADE:  BSF    FA6.2
03AE0:  MOVF   FF2,W
03AE2:  MOVWF  00
03AE4:  BCF    FF2.6
03AE6:  BCF    FF2.7
03AE8:  MOVLB  F
03AEA:  MOVLW  55
03AEC:  MOVWF  FA7
03AEE:  MOVLW  AA
03AF0:  MOVWF  FA7
03AF2:  BSF    FA6.1
03AF4:  BTFSC  FA6.1
03AF6:  BRA    3AF4
03AF8:  BCF    FA6.2
03AFA:  MOVF   00,W
03AFC:  IORWF  FF2,F
....................       delay_ms(10); 
03AFE:  MOVLW  0A
03B00:  MOVLB  4
03B02:  MOVWF  x69
03B04:  MOVLB  0
03B06:  CALL   1B4A
....................       write_eeprom(38,0); 
03B0A:  CLRF   FAA
03B0C:  MOVLW  26
03B0E:  MOVWF  FA9
03B10:  CLRF   FA8
03B12:  BCF    FA6.6
03B14:  BCF    FA6.7
03B16:  BSF    FA6.2
03B18:  MOVF   FF2,W
03B1A:  MOVWF  00
03B1C:  BCF    FF2.6
03B1E:  BCF    FF2.7
03B20:  MOVLB  F
03B22:  MOVLW  55
03B24:  MOVWF  FA7
03B26:  MOVLW  AA
03B28:  MOVWF  FA7
03B2A:  BSF    FA6.1
03B2C:  BTFSC  FA6.1
03B2E:  BRA    3B2C
03B30:  BCF    FA6.2
03B32:  MOVF   00,W
03B34:  IORWF  FF2,F
....................       delay_ms(10); 
03B36:  MOVLW  0A
03B38:  MOVLB  4
03B3A:  MOVWF  x69
03B3C:  MOVLB  0
03B3E:  CALL   1B4A
....................    } 
....................    if(TTrampa>100 || Ttrampa<50){ 
03B42:  MOVLB  2
03B44:  MOVF   xE4,W
03B46:  SUBLW  64
03B48:  BNC   3B50
03B4A:  MOVF   xE4,W
03B4C:  SUBLW  31
03B4E:  BNC   3B8E
....................       TTrampa=80; 
03B50:  MOVLW  50
03B52:  MOVWF  xE4
....................       write_eeprom(39,80); 
03B54:  CLRF   FAA
03B56:  MOVLW  27
03B58:  MOVWF  FA9
03B5A:  MOVLW  50
03B5C:  MOVWF  FA8
03B5E:  BCF    FA6.6
03B60:  BCF    FA6.7
03B62:  BSF    FA6.2
03B64:  MOVF   FF2,W
03B66:  MOVWF  00
03B68:  BCF    FF2.6
03B6A:  BCF    FF2.7
03B6C:  MOVLB  F
03B6E:  MOVLW  55
03B70:  MOVWF  FA7
03B72:  MOVLW  AA
03B74:  MOVWF  FA7
03B76:  BSF    FA6.1
03B78:  BTFSC  FA6.1
03B7A:  BRA    3B78
03B7C:  BCF    FA6.2
03B7E:  MOVF   00,W
03B80:  IORWF  FF2,F
....................       delay_ms(10); 
03B82:  MOVLW  0A
03B84:  MOVLB  4
03B86:  MOVWF  x69
03B88:  MOVLB  0
03B8A:  CALL   1B4A
....................    } 
....................    if(ActivaImpresion>1){ 
03B8E:  MOVLB  3
03B90:  MOVF   x61,W
03B92:  SUBLW  01
03B94:  BC    3BD6
....................       ActivaImpresion=1; 
03B96:  MOVLW  01
03B98:  MOVWF  x61
....................       write_eeprom(40,1); 
03B9A:  CLRF   FAA
03B9C:  MOVLW  28
03B9E:  MOVWF  FA9
03BA0:  MOVLW  01
03BA2:  MOVWF  FA8
03BA4:  BCF    FA6.6
03BA6:  BCF    FA6.7
03BA8:  BSF    FA6.2
03BAA:  MOVF   FF2,W
03BAC:  MOVWF  00
03BAE:  BCF    FF2.6
03BB0:  BCF    FF2.7
03BB2:  MOVLB  F
03BB4:  MOVLW  55
03BB6:  MOVWF  FA7
03BB8:  MOVLW  AA
03BBA:  MOVWF  FA7
03BBC:  BSF    FA6.1
03BBE:  BTFSC  FA6.1
03BC0:  BRA    3BBE
03BC2:  BCF    FA6.2
03BC4:  MOVF   00,W
03BC6:  IORWF  FF2,F
....................       delay_ms(10); 
03BC8:  MOVLW  0A
03BCA:  MOVLB  4
03BCC:  MOVWF  x69
03BCE:  MOVLB  0
03BD0:  CALL   1B4A
03BD4:  MOVLB  3
....................    } 
....................    if(timpresion>30){ 
03BD6:  MOVF   x62,W
03BD8:  SUBLW  1E
03BDA:  BC    3C1C
....................       timpresion=2; 
03BDC:  MOVLW  02
03BDE:  MOVWF  x62
....................       write_eeprom(41,2); 
03BE0:  CLRF   FAA
03BE2:  MOVLW  29
03BE4:  MOVWF  FA9
03BE6:  MOVLW  02
03BE8:  MOVWF  FA8
03BEA:  BCF    FA6.6
03BEC:  BCF    FA6.7
03BEE:  BSF    FA6.2
03BF0:  MOVF   FF2,W
03BF2:  MOVWF  00
03BF4:  BCF    FF2.6
03BF6:  BCF    FF2.7
03BF8:  MOVLB  F
03BFA:  MOVLW  55
03BFC:  MOVWF  FA7
03BFE:  MOVLW  AA
03C00:  MOVWF  FA7
03C02:  BSF    FA6.1
03C04:  BTFSC  FA6.1
03C06:  BRA    3C04
03C08:  BCF    FA6.2
03C0A:  MOVF   00,W
03C0C:  IORWF  FF2,F
....................       delay_ms(10); 
03C0E:  MOVLW  0A
03C10:  MOVLB  4
03C12:  MOVWF  x69
03C14:  MOVLB  0
03C16:  CALL   1B4A
03C1A:  MOVLB  3
....................    } 
....................    if(Atmosferica>100 || Atmosferica<50){ 
03C1C:  MOVF   xBF,W
03C1E:  SUBLW  64
03C20:  BNC   3C28
03C22:  MOVF   xBF,W
03C24:  SUBLW  31
03C26:  BNC   3C68
....................       Atmosferica=72; 
03C28:  MOVLW  48
03C2A:  MOVWF  xBF
....................       write_eeprom(46,72); 
03C2C:  CLRF   FAA
03C2E:  MOVLW  2E
03C30:  MOVWF  FA9
03C32:  MOVLW  48
03C34:  MOVWF  FA8
03C36:  BCF    FA6.6
03C38:  BCF    FA6.7
03C3A:  BSF    FA6.2
03C3C:  MOVF   FF2,W
03C3E:  MOVWF  00
03C40:  BCF    FF2.6
03C42:  BCF    FF2.7
03C44:  MOVLB  F
03C46:  MOVLW  55
03C48:  MOVWF  FA7
03C4A:  MOVLW  AA
03C4C:  MOVWF  FA7
03C4E:  BSF    FA6.1
03C50:  BTFSC  FA6.1
03C52:  BRA    3C50
03C54:  BCF    FA6.2
03C56:  MOVF   00,W
03C58:  IORWF  FF2,F
....................       delay_ms(10); 
03C5A:  MOVLW  0A
03C5C:  MOVLB  4
03C5E:  MOVWF  x69
03C60:  MOVLB  0
03C62:  CALL   1B4A
03C66:  MOVLB  3
....................    } 
....................    if(sg1==10){ 
03C68:  MOVF   xC2,W
03C6A:  SUBLW  0A
03C6C:  BNZ   3C84
....................       G1=G1*(-1); 
03C6E:  MOVFF  3C0,452
03C72:  MOVLW  FF
03C74:  MOVLB  4
03C76:  MOVWF  x53
03C78:  MOVLB  0
03C7A:  CALL   315A
03C7E:  MOVFF  01,3C0
03C82:  MOVLB  3
....................    } 
....................    if(sg2==10){ 
03C84:  MOVF   xC3,W
03C86:  SUBLW  0A
03C88:  BNZ   3CA0
....................       G2=G2*(-1); 
03C8A:  MOVFF  3C1,452
03C8E:  MOVLW  FF
03C90:  MOVLB  4
03C92:  MOVWF  x53
03C94:  MOVLB  0
03C96:  CALL   315A
03C9A:  MOVFF  01,3C1
03C9E:  MOVLB  3
....................    } 
.................... } 
03CA0:  MOVLB  0
03CA2:  GOTO   8476 (RETURN)
....................  
.................... void LeeDisplay(void){ 
....................    if(Dato_Exitoso==5){ 
*
046FA:  MOVLB  3
046FC:  MOVF   x65,W
046FE:  SUBLW  05
04700:  BTFSS  FD8.2
04702:  BRA    4878
....................          RX_Buffer[0]=RX_Buffer2[0]; 
04704:  MOVFF  3B,30
....................          RX_Buffer[1]=RX_Buffer2[1]; 
04708:  MOVFF  3C,31
....................          RX_Buffer[2]=RX_Buffer2[2]; 
0470C:  MOVFF  3D,32
....................          RX_Buffer[3]=RX_Buffer2[3]; 
04710:  MOVFF  3E,33
....................          RX_Buffer[4]=RX_Buffer2[4]; 
04714:  MOVFF  3F,34
....................          RX_Buffer[5]=RX_Buffer2[5]; 
04718:  MOVFF  40,35
....................          RX_Buffer[6]=RX_Buffer2[6]; 
0471C:  MOVFF  41,36
....................          RX_Buffer[7]=RX_Buffer2[7]; 
04720:  MOVFF  42,37
....................          RX_Buffer[8]=RX_Buffer2[8]; 
04724:  MOVFF  43,38
....................          RX_Buffer[9]=RX_Buffer2[9]; 
04728:  MOVFF  44,39
....................           
....................       if(RX_Buffer[3]==0x01){// Pregunta por la pagina en la que esta el display,01 es Contrasea de Acceso 
0472C:  DECFSZ 33,W
0472E:  BRA    473E
....................          Menu=0; 
04730:  CLRF   x68
....................          if(MenuAntt!=Menu) 
04732:  MOVF   x68,W
04734:  SUBWF  x6A,W
04736:  BZ    473C
....................             MenuAntt=Menu; 
04738:  MOVFF  368,36A
....................       }else if(RX_Buffer[3]==0x02){//02 es Menu Principal con PantallaPriincipal=0, y con PantallaPrincipal=1 es Ciclo Libre 
0473C:  BRA    4876
0473E:  MOVF   33,W
04740:  SUBLW  02
04742:  BNZ   4754
....................          Menu=1; 
04744:  MOVLW  01
04746:  MOVWF  x68
....................          if(MenuAntt!=Menu) 
04748:  MOVF   x68,W
0474A:  SUBWF  x6A,W
0474C:  BZ    4752
....................             MenuAntt=Menu; 
0474E:  MOVFF  368,36A
....................       }else if(RX_Buffer[3]==0x03){//03 es Tiempo Esterilizacion 
04752:  BRA    4876
04754:  MOVF   33,W
04756:  SUBLW  03
04758:  BNZ   476A
....................          Menu=2; 
0475A:  MOVLW  02
0475C:  MOVWF  x68
....................          if(MenuAntt!=Menu) 
0475E:  MOVF   x68,W
04760:  SUBWF  x6A,W
04762:  BZ    4768
....................             MenuAntt=Menu; 
04764:  MOVFF  368,36A
....................       }else if(RX_Buffer[3]==0x04){//04 es Tiempo de Secado 
04768:  BRA    4876
0476A:  MOVF   33,W
0476C:  SUBLW  04
0476E:  BNZ   4780
....................          Menu=3; 
04770:  MOVLW  03
04772:  MOVWF  x68
....................          if(MenuAntt!=Menu) 
04774:  MOVF   x68,W
04776:  SUBWF  x6A,W
04778:  BZ    477E
....................             MenuAntt=Menu; 
0477A:  MOVFF  368,36A
....................       }else if(RX_Buffer[3]==0x05){//05 es Temperatura 
0477E:  BRA    4876
04780:  MOVF   33,W
04782:  SUBLW  05
04784:  BNZ   4796
....................          Menu=4; 
04786:  MOVLW  04
04788:  MOVWF  x68
....................          if(MenuAntt!=Menu) 
0478A:  MOVF   x68,W
0478C:  SUBWF  x6A,W
0478E:  BZ    4794
....................             MenuAntt=Menu; 
04790:  MOVFF  368,36A
....................       }else if(RX_Buffer[3]==0x06){//06 es Nivel 
04794:  BRA    4876
04796:  MOVF   33,W
04798:  SUBLW  06
0479A:  BNZ   47AC
....................          Menu=5; 
0479C:  MOVLW  05
0479E:  MOVWF  x68
....................          if(MenuAntt!=Menu) 
047A0:  MOVF   x68,W
047A2:  SUBWF  x6A,W
047A4:  BZ    47AA
....................             MenuAntt=Menu; 
047A6:  MOVFF  368,36A
....................       }else if(RX_Buffer[3]==0x07){//07 es Test de Componentes 
047AA:  BRA    4876
047AC:  MOVF   33,W
047AE:  SUBLW  07
047B0:  BNZ   47C2
....................          Menu=6; 
047B2:  MOVLW  06
047B4:  MOVWF  x68
....................          if(MenuAntt!=Menu) 
047B6:  MOVF   x68,W
047B8:  SUBWF  x6A,W
047BA:  BZ    47C0
....................             MenuAntt=Menu; 
047BC:  MOVFF  368,36A
....................       }else if(RX_Buffer[3]==0x08){//08 es Fecha y hora 
047C0:  BRA    4876
047C2:  MOVF   33,W
047C4:  SUBLW  08
047C6:  BNZ   47D8
....................          Menu=7; 
047C8:  MOVLW  07
047CA:  MOVWF  x68
....................          if(MenuAntt!=Menu) 
047CC:  MOVF   x68,W
047CE:  SUBWF  x6A,W
047D0:  BZ    47D6
....................             MenuAntt=Menu; 
047D2:  MOVFF  368,36A
....................       }else if(RX_Buffer[3]==0x09){//09 es Ciclos Personalizados 
047D6:  BRA    4876
047D8:  MOVF   33,W
047DA:  SUBLW  09
047DC:  BNZ   47EE
....................          Menu=8; 
047DE:  MOVLW  08
047E0:  MOVWF  x68
....................          if(MenuAntt!=Menu) 
047E2:  MOVF   x68,W
047E4:  SUBWF  x6A,W
047E6:  BZ    47EC
....................             MenuAntt=Menu; 
047E8:  MOVFF  368,36A
....................       }else if(RX_Buffer[3]==0x0d){//0d es Ciclos 
047EC:  BRA    4876
047EE:  MOVF   33,W
047F0:  SUBLW  0D
047F2:  BNZ   4804
....................          Menu=12; 
047F4:  MOVLW  0C
047F6:  MOVWF  x68
....................          if(MenuAntt!=Menu) 
047F8:  MOVF   x68,W
047FA:  SUBWF  x6A,W
047FC:  BZ    4802
....................             MenuAntt=Menu; 
047FE:  MOVFF  368,36A
....................       }else if(RX_Buffer[3]==0x0f){//0f es Recibe caracteres de contrasea desde display 
04802:  BRA    4876
04804:  MOVF   33,W
04806:  SUBLW  0F
04808:  BNZ   480C
....................           
....................       }else if(RX_Buffer[3]==0x1a){//1a es Menu de Funcionamiento 
0480A:  BRA    4876
0480C:  MOVF   33,W
0480E:  SUBLW  1A
04810:  BNZ   4822
....................          Menu=20; 
04812:  MOVLW  14
04814:  MOVWF  x68
....................          if(MenuAntt!=Menu) 
04816:  MOVF   x68,W
04818:  SUBWF  x6A,W
0481A:  BZ    4820
....................             MenuAntt=Menu; 
0481C:  MOVFF  368,36A
....................       }else if(RX_Buffer[3]==0x1b){//1b es Menu de clave correcta 
04820:  BRA    4876
04822:  MOVF   33,W
04824:  SUBLW  1B
04826:  BNZ   4838
....................          Menu=15; 
04828:  MOVLW  0F
0482A:  MOVWF  x68
....................          if(MenuAntt!=Menu) 
0482C:  MOVF   x68,W
0482E:  SUBWF  x6A,W
04830:  BZ    4836
....................             MenuAntt=Menu; 
04832:  MOVFF  368,36A
....................       }else if(RX_Buffer[3]==0x1c){//1c es Menu de clave incorrecta 
04836:  BRA    4876
04838:  MOVF   33,W
0483A:  SUBLW  1C
0483C:  BNZ   484E
....................          Menu=16; 
0483E:  MOVLW  10
04840:  MOVWF  x68
....................          if(MenuAntt!=Menu) 
04842:  MOVF   x68,W
04844:  SUBWF  x6A,W
04846:  BZ    484C
....................             MenuAntt=Menu; 
04848:  MOVFF  368,36A
....................       }else if(RX_Buffer[3]==0x2c){//2c es Menu de Configuracion de Parametros 
0484C:  BRA    4876
0484E:  MOVF   33,W
04850:  SUBLW  2C
04852:  BNZ   4864
....................          Menu=100; 
04854:  MOVLW  64
04856:  MOVWF  x68
....................          if(MenuAntt!=Menu) 
04858:  MOVF   x68,W
0485A:  SUBWF  x6A,W
0485C:  BZ    4862
....................             MenuAntt=Menu; 
0485E:  MOVFF  368,36A
....................       }else if(RX_Buffer[3]==0xcc){//cc es Menu de Bienvenida 
04862:  BRA    4876
04864:  MOVF   33,W
04866:  SUBLW  CC
04868:  BNZ   4876
....................          Menu=240; 
0486A:  MOVLW  F0
0486C:  MOVWF  x68
....................          if(MenuAntt!=240) 
0486E:  MOVF   x6A,W
04870:  SUBLW  F0
04872:  BZ    4876
....................             reset_cpu(); 
04874:  RESET
....................       } 
....................    }else{ 
04876:  BRA    4884
....................       for(z=0;z<RX_BUFFER_SIZE;z++){ 
04878:  CLRF   x67
0487A:  MOVF   x67,W
0487C:  SUBLW  09
0487E:  BNC   4884
....................             //Rx_Buffer[z]=0; 
....................             //Rx_Buffer2[z]=0; 
....................          } 
04880:  INCF   x67,F
04882:  BRA    487A
....................    } 
.................... } 
04884:  MOVLB  0
04886:  GOTO   8722 (RETURN)
....................  
.................... void ActivaAlarma(int8 Tipo){ 
....................     
....................    if(tsilencio>12000){ 
*
04B9E:  MOVLB  3
04BA0:  MOVF   xA4,W
04BA2:  SUBLW  2D
04BA4:  BC    4BB8
04BA6:  XORLW  FF
04BA8:  BNZ   4BB0
04BAA:  MOVF   xA3,W
04BAC:  SUBLW  E0
04BAE:  BC    4BB8
....................       tsilencio=0; 
04BB0:  CLRF   xA4
04BB2:  CLRF   xA3
....................       flagSilencio=OFF; 
04BB4:  MOVLB  0
04BB6:  BCF    xAB.5
....................    } 
....................     
....................    if(Tipo==1){ // Alarma por Error 
04BB8:  MOVLB  4
04BBA:  DECFSZ x50,W
04BBC:  BRA    4C14
....................    if(UP || DOWN || RIGHT || LEFT) 
04BBE:  BSF    F93.3
04BC0:  BTFSS  F81.3
04BC2:  BRA    4BD6
04BC4:  BSF    F93.2
04BC6:  BTFSS  F81.2
04BC8:  BRA    4BD6
04BCA:  BSF    F93.1
04BCC:  BTFSS  F81.1
04BCE:  BRA    4BD6
04BD0:  BSF    F93.0
04BD2:  BTFSC  F81.0
04BD4:  BRA    4BDA
....................       flagSilencio=ON; 
04BD6:  MOVLB  0
04BD8:  BSF    xAB.5
....................        
....................       if(!flagSilencio){ 
04BDA:  MOVLB  0
04BDC:  BTFSC  xAB.5
04BDE:  BRA    4C0A
....................          flagAlarma=1; 
04BE0:  BSF    xAB.3
....................          if(tbuzzer>200){ 
04BE2:  MOVLB  3
04BE4:  MOVF   xA2,F
04BE6:  BNZ   4BEE
04BE8:  MOVF   xA1,W
04BEA:  SUBLW  C8
04BEC:  BC    4C06
....................             tbuzzer=0; 
04BEE:  CLRF   xA2
04BF0:  CLRF   xA1
....................             flagBuzzer=!flagBuzzer; 
04BF2:  MOVLB  0
04BF4:  BTG    xAB.4
....................             if(flagBuzzer) 
04BF6:  BTFSS  xAB.4
04BF8:  BRA    4C00
....................                Buzzer_on; 
04BFA:  BSF    F8C.7
04BFC:  BCF    F95.7
....................             else 
04BFE:  BRA    4C04
....................                Buzzer_off; 
04C00:  BCF    F8C.7
04C02:  BCF    F95.7
04C04:  MOVLB  3
....................          } 
....................       }else{ 
04C06:  BRA    4C10
04C08:  MOVLB  0
....................          Buzzer_off; 
04C0A:  BCF    F8C.7
04C0C:  BCF    F95.7
04C0E:  MOVLB  3
....................       } 
....................    }else if(Tipo==2){ 
04C10:  BRA    4C6E
04C12:  MOVLB  4
04C14:  MOVF   x50,W
04C16:  SUBLW  02
04C18:  BNZ   4C70
....................    if(UP || DOWN || RIGHT || LEFT) 
04C1A:  BSF    F93.3
04C1C:  BTFSS  F81.3
04C1E:  BRA    4C32
04C20:  BSF    F93.2
04C22:  BTFSS  F81.2
04C24:  BRA    4C32
04C26:  BSF    F93.1
04C28:  BTFSS  F81.1
04C2A:  BRA    4C32
04C2C:  BSF    F93.0
04C2E:  BTFSC  F81.0
04C30:  BRA    4C38
....................       ConteoBuzzer=21; 
04C32:  MOVLW  15
04C34:  MOVLB  3
04C36:  MOVWF  x9E
....................        
....................       flagAlarma=1; 
04C38:  MOVLB  0
04C3A:  BSF    xAB.3
....................       if(ConteoBuzzer<20){    
04C3C:  MOVLB  3
04C3E:  MOVF   x9E,W
04C40:  SUBLW  13
04C42:  BNC   4C6A
....................          if(tbuzzer>100){ 
04C44:  MOVF   xA2,F
04C46:  BNZ   4C4E
04C48:  MOVF   xA1,W
04C4A:  SUBLW  64
04C4C:  BC    4C68
....................             tbuzzer=0; 
04C4E:  CLRF   xA2
04C50:  CLRF   xA1
....................             flagBuzzer=!flagBuzzer; 
04C52:  MOVLB  0
04C54:  BTG    xAB.4
....................             if(flagBuzzer) 
04C56:  BTFSS  xAB.4
04C58:  BRA    4C60
....................                Buzzer_on; 
04C5A:  BSF    F8C.7
04C5C:  BCF    F95.7
....................             else 
04C5E:  BRA    4C64
....................                Buzzer_off; 
04C60:  BCF    F8C.7
04C62:  BCF    F95.7
....................                 
....................             ConteoBuzzer++;    
04C64:  MOVLB  3
04C66:  INCF   x9E,F
....................          } 
....................       }else{ 
04C68:  BRA    4C6E
....................          Buzzer_off; 
04C6A:  BCF    F8C.7
04C6C:  BCF    F95.7
04C6E:  MOVLB  4
....................       } 
....................    } 
.................... } 
04C70:  MOVLB  0
04C72:  RETLW  00
....................  
.................... void CalientaChaqueta(){ 
....................    /*if(PresionPrecamara<130){ 
....................       SSR_on; 
....................    }else if(PresionPreCamara>150){ 
....................       SSR_off; 
....................    } 
....................    */                                  
....................    Tp=50; 
*
07BBA:  CLRF   xB4
07BBC:  MOVLW  32
07BBE:  MOVWF  xB3
....................    Tc=(Tciclo/0.005); 
07BC0:  MOVFF  2FD,45C
07BC4:  MOVFF  2FC,45B
07BC8:  MOVFF  2FB,45A
07BCC:  MOVFF  2FA,459
07BD0:  MOVLW  0A
07BD2:  MOVLB  4
07BD4:  MOVWF  x60
07BD6:  MOVLW  D7
07BD8:  MOVWF  x5F
07BDA:  MOVLW  23
07BDC:  MOVWF  x5E
07BDE:  MOVLW  77
07BE0:  MOVWF  x5D
07BE2:  MOVLB  0
07BE4:  CALL   1BA8
07BE8:  MOVFF  03,468
07BEC:  MOVFF  02,467
07BF0:  MOVFF  01,466
07BF4:  MOVFF  00,465
07BF8:  CALL   44C0
07BFC:  MOVFF  02,B6
07C00:  MOVFF  01,B5
....................    Controlando=1;  
07C04:  MOVLW  01
07C06:  MOVLB  3
07C08:  MOVWF  x60
.................... } 
07C0A:  MOVLB  0
07C0C:  GOTO   DD08 (RETURN)
....................  
.................... void ApagaSalidas(){ 
....................    Desfogue_off; 
*
03D0E:  BSF    F8B.1
03D10:  BCF    F94.1
....................    Bomba_off; 
03D12:  BSF    F8B.0
03D14:  BCF    F94.0
....................    Buzzer_off; 
03D16:  BCF    F8C.7
03D18:  BCF    F95.7
....................    SSR_off; 
03D1A:  BCF    F8D.1
03D1C:  BCF    F96.1
....................    Aire=OFF; 
03D1E:  BCF    xAC.3
....................    Agua_off; 
03D20:  BSF    F8B.2
03D22:  BCF    F94.2
....................    Controlando=0; 
03D24:  MOVLB  3
03D26:  CLRF   x60
.................... } 
03D28:  MOVLB  0
03D2A:  RETLW  00
....................  
.................... void purgaAire(){ 
....................    if(!purga){ 
....................       for(i=0;i<4;i++){ 
....................          Desfogue_on; 
....................          delay_ms(2000); 
....................          Desfogue_off; 
....................          delay_ms(1000); 
....................       } 
....................       purga=ON; 
....................    } 
.................... } 
....................  
.................... int8 extraeDecima(int8 tiempo){ 
*
059BC:  MOVLB  4
059BE:  CLRF   x58
059C0:  CLRF   x59
....................    int8 tmp=0,decima=0; 
....................    tmp=tiempo/10; 
059C2:  MOVFF  457,45A
059C6:  MOVLW  0A
059C8:  MOVWF  x5B
059CA:  MOVLB  0
059CC:  CALL   4CD2
059D0:  MOVFF  01,458
....................    tmp=tmp*10; 
059D4:  MOVLB  4
059D6:  MOVF   x58,W
059D8:  MULLW  0A
059DA:  MOVFF  FF3,458
....................    decima=tiempo-tmp; 
059DE:  MOVF   x58,W
059E0:  SUBWF  x57,W
059E2:  MOVWF  x59
....................    return decima; 
059E4:  MOVFF  459,01
.................... } 
059E8:  MOVLB  0
059EA:  RETLW  00
....................  
.................... int8 extraeDecimal(float data){ 
*
07000:  MOVLB  4
07002:  CLRF   x5D
07004:  CLRF   x5C
07006:  CLRF   x5B
07008:  CLRF   x5A
0700A:  CLRF   x61
0700C:  CLRF   x60
0700E:  CLRF   x5F
07010:  CLRF   x5E
....................    float entero=0; 
....................    float tmp=0.0; 
....................     
....................    entero=(int8)data; 
07012:  MOVFF  459,468
07016:  MOVFF  458,467
0701A:  MOVFF  457,466
0701E:  MOVFF  456,465
07022:  MOVLB  0
07024:  CALL   44C0
07028:  MOVLB  4
0702A:  CLRF   x66
0702C:  MOVFF  01,465
07030:  MOVLB  0
07032:  CALL   1B72
07036:  MOVFF  03,45D
0703A:  MOVFF  02,45C
0703E:  MOVFF  01,45B
07042:  MOVFF  00,45A
....................    tmp=(data-entero)*10; 
07046:  BSF    FD8.1
07048:  MOVFF  459,468
0704C:  MOVFF  458,467
07050:  MOVFF  457,466
07054:  MOVFF  456,465
07058:  MOVFF  45D,46C
0705C:  MOVFF  45C,46B
07060:  MOVFF  45B,46A
07064:  MOVFF  45A,469
07068:  CALL   1D06
0706C:  MOVFF  00,462
07070:  MOVFF  01,463
07074:  MOVFF  02,464
07078:  MOVFF  03,465
0707C:  MOVFF  03,46C
07080:  MOVFF  02,46B
07084:  MOVFF  01,46A
07088:  MOVFF  00,469
0708C:  MOVLB  4
0708E:  CLRF   x70
07090:  CLRF   x6F
07092:  MOVLW  20
07094:  MOVWF  x6E
07096:  MOVLW  82
07098:  MOVWF  x6D
0709A:  MOVLB  0
0709C:  CALL   3D84
070A0:  MOVFF  03,461
070A4:  MOVFF  02,460
070A8:  MOVFF  01,45F
070AC:  MOVFF  00,45E
....................    return (int8)tmp; 
070B0:  MOVFF  461,468
070B4:  MOVFF  460,467
070B8:  MOVFF  45F,466
070BC:  MOVFF  45E,465
070C0:  CALL   44C0
070C4:  MOVF   01,W
.................... } 
070C6:  GOTO   71FE (RETURN)
....................  
.................... void actualizaTabla(){ 
....................    diaCiclos=read_ext_eeprom(2+(cicloVisto*320)); 
*
05B4E:  MOVFF  2EF,46C
05B52:  MOVFF  2EE,46B
05B56:  MOVLW  01
05B58:  MOVLB  4
05B5A:  MOVWF  x6E
05B5C:  MOVLW  40
05B5E:  MOVWF  x6D
05B60:  MOVLB  0
05B62:  CALL   1F7E
05B66:  MOVFF  02,03
05B6A:  MOVF   01,W
05B6C:  ADDLW  02
05B6E:  MOVLB  4
05B70:  MOVWF  x50
05B72:  MOVLW  00
05B74:  ADDWFC 02,W
05B76:  MOVWF  x51
05B78:  MOVWF  x56
05B7A:  MOVFF  450,455
05B7E:  MOVLB  0
05B80:  RCALL  5A58
05B82:  MOVFF  01,3D6
....................          if(diaCiclos>31) 
05B86:  MOVLB  3
05B88:  MOVF   xD6,W
05B8A:  SUBLW  1F
05B8C:  BC    5B92
....................             diaCiclos=1; 
05B8E:  MOVLW  01
05B90:  MOVWF  xD6
....................          mesCiclos=read_ext_eeprom(3+(cicloVisto*320)); 
05B92:  MOVFF  2EF,46C
05B96:  MOVFF  2EE,46B
05B9A:  MOVLW  01
05B9C:  MOVLB  4
05B9E:  MOVWF  x6E
05BA0:  MOVLW  40
05BA2:  MOVWF  x6D
05BA4:  MOVLB  0
05BA6:  CALL   1F7E
05BAA:  MOVFF  02,03
05BAE:  MOVF   01,W
05BB0:  ADDLW  03
05BB2:  MOVLB  4
05BB4:  MOVWF  x50
05BB6:  MOVLW  00
05BB8:  ADDWFC 02,W
05BBA:  MOVWF  x51
05BBC:  MOVWF  x56
05BBE:  MOVFF  450,455
05BC2:  MOVLB  0
05BC4:  RCALL  5A58
05BC6:  MOVFF  01,3D7
....................          if(mesCiclos>12) 
05BCA:  MOVLB  3
05BCC:  MOVF   xD7,W
05BCE:  SUBLW  0C
05BD0:  BC    5BD6
....................             mesCiclos=1; 
05BD2:  MOVLW  01
05BD4:  MOVWF  xD7
....................          yearCiclos=read_ext_eeprom(4+(cicloVisto*320)); 
05BD6:  MOVFF  2EF,46C
05BDA:  MOVFF  2EE,46B
05BDE:  MOVLW  01
05BE0:  MOVLB  4
05BE2:  MOVWF  x6E
05BE4:  MOVLW  40
05BE6:  MOVWF  x6D
05BE8:  MOVLB  0
05BEA:  CALL   1F7E
05BEE:  MOVFF  02,03
05BF2:  MOVF   01,W
05BF4:  ADDLW  04
05BF6:  MOVLB  4
05BF8:  MOVWF  x50
05BFA:  MOVLW  00
05BFC:  ADDWFC 02,W
05BFE:  MOVWF  x51
05C00:  MOVWF  x56
05C02:  MOVFF  450,455
05C06:  MOVLB  0
05C08:  RCALL  5A58
05C0A:  MOVFF  01,3D8
....................          if(yearCiclos>99) 
05C0E:  MOVLB  3
05C10:  MOVF   xD8,W
05C12:  SUBLW  63
05C14:  BC    5C1A
....................             yearCiclos=19; 
05C16:  MOVLW  13
05C18:  MOVWF  xD8
....................          cicloCiclos=read_ext_eeprom(1+(cicloVisto*320)); 
05C1A:  MOVFF  2EF,46C
05C1E:  MOVFF  2EE,46B
05C22:  MOVLW  01
05C24:  MOVLB  4
05C26:  MOVWF  x6E
05C28:  MOVLW  40
05C2A:  MOVWF  x6D
05C2C:  MOVLB  0
05C2E:  CALL   1F7E
05C32:  MOVFF  02,03
05C36:  MOVF   01,W
05C38:  ADDLW  01
05C3A:  MOVLB  4
05C3C:  MOVWF  x50
05C3E:  MOVLW  00
05C40:  ADDWFC 02,W
05C42:  MOVWF  x51
05C44:  MOVWF  x56
05C46:  MOVFF  450,455
05C4A:  MOVLB  0
05C4C:  RCALL  5A58
05C4E:  MOVFF  01,3DA
....................          if(cicloCiclos>20) 
05C52:  MOVLB  3
05C54:  MOVF   xDA,W
05C56:  SUBLW  14
05C58:  BC    5C5E
....................             cicloCiclos=1; 
05C5A:  MOVLW  01
05C5C:  MOVWF  xDA
....................          usuarioCiclos=read_ext_eeprom((cicloVisto*320)); 
05C5E:  MOVFF  2EF,46C
05C62:  MOVFF  2EE,46B
05C66:  MOVLW  01
05C68:  MOVLB  4
05C6A:  MOVWF  x6E
05C6C:  MOVLW  40
05C6E:  MOVWF  x6D
05C70:  MOVLB  0
05C72:  CALL   1F7E
05C76:  MOVFF  02,451
05C7A:  MOVFF  01,450
05C7E:  MOVFF  02,456
05C82:  MOVFF  01,455
05C86:  RCALL  5A58
05C88:  MOVFF  01,3D9
....................          if(usuarioCiclos>10) 
05C8C:  MOVLB  3
05C8E:  MOVF   xD9,W
05C90:  SUBLW  0A
05C92:  BC    5C98
....................             usuarioCiclos=1; 
05C94:  MOVLW  01
05C96:  MOVWF  xD9
....................          for(i=0;i<7;i++){//Lee Valores para completar la Tabla 
05C98:  CLRF   x8D
05C9A:  CLRF   x8C
05C9C:  MOVF   x8D,F
05C9E:  BTFSS  FD8.2
05CA0:  BRA    637C
05CA2:  MOVF   x8C,W
05CA4:  SUBLW  06
05CA6:  BTFSS  FD8.0
05CA8:  BRA    637C
....................             horaCiclos[i]=read_ext_eeprom((cicloVisto*320)+11+((cicloVisualizado+i)*9)); 
05CAA:  MOVLW  13
05CAC:  ADDWF  x8C,W
05CAE:  MOVWF  01
05CB0:  MOVLW  04
05CB2:  ADDWFC x8D,W
05CB4:  MOVWF  03
05CB6:  MOVFF  01,450
05CBA:  MOVLB  4
05CBC:  MOVWF  x51
05CBE:  MOVFF  2EF,46C
05CC2:  MOVFF  2EE,46B
05CC6:  MOVLW  01
05CC8:  MOVWF  x6E
05CCA:  MOVLW  40
05CCC:  MOVWF  x6D
05CCE:  MOVLB  0
05CD0:  CALL   1F7E
05CD4:  MOVFF  02,453
05CD8:  MOVFF  01,452
05CDC:  MOVLW  0B
05CDE:  MOVLB  4
05CE0:  ADDWF  x52,F
05CE2:  MOVLW  00
05CE4:  ADDWFC x53,F
05CE6:  MOVLB  3
05CE8:  MOVF   x8C,W
05CEA:  MOVLB  2
05CEC:  ADDWF  xF0,W
05CEE:  MOVLB  4
05CF0:  MOVWF  x54
05CF2:  MOVLB  3
05CF4:  MOVF   x8D,W
05CF6:  MOVLB  2
05CF8:  ADDWFC xF1,W
05CFA:  MOVLB  4
05CFC:  MOVWF  x55
05CFE:  MOVWF  x6C
05D00:  MOVFF  454,46B
05D04:  CLRF   x6E
05D06:  MOVLW  09
05D08:  MOVWF  x6D
05D0A:  MOVLB  0
05D0C:  CALL   1F7E
05D10:  MOVFF  02,03
05D14:  MOVF   01,W
05D16:  MOVLB  4
05D18:  ADDWF  x52,F
05D1A:  MOVF   02,W
05D1C:  ADDWFC x53,F
05D1E:  MOVFF  453,456
05D22:  MOVFF  452,455
05D26:  MOVLB  0
05D28:  RCALL  5A58
05D2A:  MOVFF  451,FEA
05D2E:  MOVFF  450,FE9
05D32:  MOVFF  01,FEF
....................             if(horaCiclos[i]>24) 
05D36:  MOVLW  13
05D38:  MOVLB  3
05D3A:  ADDWF  x8C,W
05D3C:  MOVWF  FE9
05D3E:  MOVLW  04
05D40:  ADDWFC x8D,W
05D42:  MOVWF  FEA
05D44:  MOVF   FEF,W
05D46:  SUBLW  18
05D48:  BC    5D58
....................                horaCiclos[i]=0; 
05D4A:  MOVLW  13
05D4C:  ADDWF  x8C,W
05D4E:  MOVWF  FE9
05D50:  MOVLW  04
05D52:  ADDWFC x8D,W
05D54:  MOVWF  FEA
05D56:  CLRF   FEF
....................             minutoCiclos[i]=read_ext_eeprom((cicloVisto*320)+12+((cicloVisualizado+i)*9)); 
05D58:  MOVLW  1A
05D5A:  ADDWF  x8C,W
05D5C:  MOVWF  01
05D5E:  MOVLW  04
05D60:  ADDWFC x8D,W
05D62:  MOVWF  03
05D64:  MOVFF  01,450
05D68:  MOVLB  4
05D6A:  MOVWF  x51
05D6C:  MOVFF  2EF,46C
05D70:  MOVFF  2EE,46B
05D74:  MOVLW  01
05D76:  MOVWF  x6E
05D78:  MOVLW  40
05D7A:  MOVWF  x6D
05D7C:  MOVLB  0
05D7E:  CALL   1F7E
05D82:  MOVFF  02,453
05D86:  MOVFF  01,452
05D8A:  MOVLW  0C
05D8C:  MOVLB  4
05D8E:  ADDWF  x52,F
05D90:  MOVLW  00
05D92:  ADDWFC x53,F
05D94:  MOVLB  3
05D96:  MOVF   x8C,W
05D98:  MOVLB  2
05D9A:  ADDWF  xF0,W
05D9C:  MOVLB  4
05D9E:  MOVWF  x54
05DA0:  MOVLB  3
05DA2:  MOVF   x8D,W
05DA4:  MOVLB  2
05DA6:  ADDWFC xF1,W
05DA8:  MOVLB  4
05DAA:  MOVWF  x55
05DAC:  MOVWF  x6C
05DAE:  MOVFF  454,46B
05DB2:  CLRF   x6E
05DB4:  MOVLW  09
05DB6:  MOVWF  x6D
05DB8:  MOVLB  0
05DBA:  CALL   1F7E
05DBE:  MOVFF  02,03
05DC2:  MOVF   01,W
05DC4:  MOVLB  4
05DC6:  ADDWF  x52,F
05DC8:  MOVF   02,W
05DCA:  ADDWFC x53,F
05DCC:  MOVFF  453,456
05DD0:  MOVFF  452,455
05DD4:  MOVLB  0
05DD6:  RCALL  5A58
05DD8:  MOVFF  451,FEA
05DDC:  MOVFF  450,FE9
05DE0:  MOVFF  01,FEF
....................             if(minutoCiclos[i]>59) 
05DE4:  MOVLW  1A
05DE6:  MOVLB  3
05DE8:  ADDWF  x8C,W
05DEA:  MOVWF  FE9
05DEC:  MOVLW  04
05DEE:  ADDWFC x8D,W
05DF0:  MOVWF  FEA
05DF2:  MOVF   FEF,W
05DF4:  SUBLW  3B
05DF6:  BC    5E06
....................                minutoCiclos[i]=0; 
05DF8:  MOVLW  1A
05DFA:  ADDWF  x8C,W
05DFC:  MOVWF  FE9
05DFE:  MOVLW  04
05E00:  ADDWFC x8D,W
05E02:  MOVWF  FEA
05E04:  CLRF   FEF
....................             TCiclos[i]=read_ext_eeprom((cicloVisto*320)+5+((cicloVisualizado+i)*9))+inttofloat(read_ext_eeprom((cicloVisto*320)+6+((cicloVisualizado+i)*9))); 
05E06:  RLCF   x8C,W
05E08:  MOVWF  02
05E0A:  RLCF   x8D,W
05E0C:  MOVWF  03
05E0E:  RLCF   02,F
05E10:  RLCF   03,F
05E12:  MOVLW  FC
05E14:  ANDWF  02,F
05E16:  MOVF   02,W
05E18:  ADDLW  DB
05E1A:  MOVWF  01
05E1C:  MOVLW  03
05E1E:  ADDWFC 03,F
05E20:  MOVFF  01,450
05E24:  MOVLB  4
05E26:  MOVFF  03,451
05E2A:  MOVFF  2EF,46C
05E2E:  MOVFF  2EE,46B
05E32:  MOVLW  01
05E34:  MOVWF  x6E
05E36:  MOVLW  40
05E38:  MOVWF  x6D
05E3A:  MOVLB  0
05E3C:  CALL   1F7E
05E40:  MOVFF  02,453
05E44:  MOVFF  01,452
05E48:  MOVLW  05
05E4A:  MOVLB  4
05E4C:  ADDWF  x52,F
05E4E:  MOVLW  00
05E50:  ADDWFC x53,F
05E52:  MOVLB  3
05E54:  MOVF   x8C,W
05E56:  MOVLB  2
05E58:  ADDWF  xF0,W
05E5A:  MOVLB  4
05E5C:  MOVWF  x54
05E5E:  MOVLB  3
05E60:  MOVF   x8D,W
05E62:  MOVLB  2
05E64:  ADDWFC xF1,W
05E66:  MOVLB  4
05E68:  MOVWF  x55
05E6A:  MOVWF  x6C
05E6C:  MOVFF  454,46B
05E70:  CLRF   x6E
05E72:  MOVLW  09
05E74:  MOVWF  x6D
05E76:  MOVLB  0
05E78:  CALL   1F7E
05E7C:  MOVFF  02,03
05E80:  MOVF   01,W
05E82:  MOVLB  4
05E84:  ADDWF  x52,F
05E86:  MOVF   02,W
05E88:  ADDWFC x53,F
05E8A:  MOVFF  453,456
05E8E:  MOVFF  452,455
05E92:  MOVLB  0
05E94:  RCALL  5A58
05E96:  MOVFF  01,452
05E9A:  MOVFF  2EF,46C
05E9E:  MOVFF  2EE,46B
05EA2:  MOVLW  01
05EA4:  MOVLB  4
05EA6:  MOVWF  x6E
05EA8:  MOVLW  40
05EAA:  MOVWF  x6D
05EAC:  MOVLB  0
05EAE:  CALL   1F7E
05EB2:  MOVFF  02,454
05EB6:  MOVFF  01,453
05EBA:  MOVLW  06
05EBC:  MOVLB  4
05EBE:  ADDWF  x53,F
05EC0:  MOVLW  00
05EC2:  ADDWFC x54,F
05EC4:  MOVLB  3
05EC6:  MOVF   x8C,W
05EC8:  MOVLB  2
05ECA:  ADDWF  xF0,W
05ECC:  MOVLB  4
05ECE:  MOVWF  x55
05ED0:  MOVLB  3
05ED2:  MOVF   x8D,W
05ED4:  MOVLB  2
05ED6:  ADDWFC xF1,W
05ED8:  MOVLB  4
05EDA:  MOVWF  x56
05EDC:  MOVWF  x6C
05EDE:  MOVFF  455,46B
05EE2:  CLRF   x6E
05EE4:  MOVLW  09
05EE6:  MOVWF  x6D
05EE8:  MOVLB  0
05EEA:  CALL   1F7E
05EEE:  MOVFF  02,03
05EF2:  MOVF   01,W
05EF4:  MOVLB  4
05EF6:  ADDWF  x53,F
05EF8:  MOVF   02,W
05EFA:  ADDWFC x54,F
05EFC:  MOVFF  454,456
05F00:  MOVFF  453,455
05F04:  MOVLB  0
05F06:  RCALL  5A58
05F08:  MOVFF  01,453
05F0C:  MOVFF  01,454
05F10:  BRA    5B08
05F12:  MOVFF  00,453
05F16:  MOVFF  01,454
05F1A:  MOVFF  02,455
05F1E:  MOVFF  03,456
05F22:  MOVLB  4
05F24:  CLRF   x66
05F26:  MOVFF  452,465
05F2A:  MOVLB  0
05F2C:  CALL   1B72
05F30:  MOVFF  FEA,458
05F34:  MOVFF  FE9,457
05F38:  BCF    FD8.1
05F3A:  MOVFF  03,468
05F3E:  MOVFF  02,467
05F42:  MOVFF  01,466
05F46:  MOVFF  00,465
05F4A:  MOVFF  456,46C
05F4E:  MOVFF  455,46B
05F52:  MOVFF  454,46A
05F56:  MOVFF  453,469
05F5A:  CALL   1D06
05F5E:  MOVFF  458,FEA
05F62:  MOVFF  457,FE9
05F66:  MOVFF  451,FEA
05F6A:  MOVFF  450,FE9
05F6E:  MOVFF  00,FEF
05F72:  MOVFF  01,FEC
05F76:  MOVFF  02,FEC
05F7A:  MOVFF  03,FEC
....................             if(TCiclos[i]>150) 
05F7E:  MOVLB  3
05F80:  RLCF   x8C,W
05F82:  MOVWF  02
05F84:  RLCF   x8D,W
05F86:  MOVWF  03
05F88:  RLCF   02,F
05F8A:  RLCF   03,F
05F8C:  MOVLW  FC
05F8E:  ANDWF  02,F
05F90:  MOVF   02,W
05F92:  ADDLW  DB
05F94:  MOVWF  FE9
05F96:  MOVLW  03
05F98:  ADDWFC 03,W
05F9A:  MOVWF  FEA
05F9C:  MOVFF  FEF,450
05FA0:  MOVFF  FEC,451
05FA4:  MOVFF  FEC,452
05FA8:  MOVFF  FEC,453
05FAC:  MOVLB  4
05FAE:  CLRF   x57
05FB0:  CLRF   x56
05FB2:  MOVLW  16
05FB4:  MOVWF  x55
05FB6:  MOVLW  86
05FB8:  MOVWF  x54
05FBA:  MOVFF  453,45B
05FBE:  MOVFF  452,45A
05FC2:  MOVFF  451,459
05FC6:  MOVFF  450,458
05FCA:  MOVLB  0
05FCC:  CALL   30E0
05FD0:  BNC   5FFA
....................                TCiclos[i]=0; 
05FD2:  MOVLB  3
05FD4:  RLCF   x8C,W
05FD6:  MOVWF  02
05FD8:  RLCF   x8D,W
05FDA:  MOVWF  03
05FDC:  RLCF   02,F
05FDE:  RLCF   03,F
05FE0:  MOVLW  FC
05FE2:  ANDWF  02,F
05FE4:  MOVF   02,W
05FE6:  ADDLW  DB
05FE8:  MOVWF  FE9
05FEA:  MOVLW  03
05FEC:  ADDWFC 03,W
05FEE:  MOVWF  FEA
05FF0:  CLRF   FEF
05FF2:  CLRF   FEC
05FF4:  CLRF   FEC
05FF6:  CLRF   FEC
05FF8:  MOVLB  0
....................             PcCiclos[i]=make16(read_ext_eeprom((cicloVisto*320)+7+((cicloVisualizado+i)*9)),read_ext_eeprom((cicloVisto*320)+8+((cicloVisualizado+i)*9))); 
05FFA:  BCF    FD8.0
05FFC:  MOVLB  3
05FFE:  RLCF   x8C,W
06000:  MOVWF  02
06002:  RLCF   x8D,W
06004:  MOVWF  03
06006:  MOVF   02,W
06008:  ADDLW  F7
0600A:  MOVWF  01
0600C:  MOVLW  03
0600E:  ADDWFC 03,F
06010:  MOVFF  01,450
06014:  MOVLB  4
06016:  MOVFF  03,451
0601A:  MOVFF  2EF,46C
0601E:  MOVFF  2EE,46B
06022:  MOVLW  01
06024:  MOVWF  x6E
06026:  MOVLW  40
06028:  MOVWF  x6D
0602A:  MOVLB  0
0602C:  CALL   1F7E
06030:  MOVFF  02,453
06034:  MOVFF  01,452
06038:  MOVLW  07
0603A:  MOVLB  4
0603C:  ADDWF  x52,F
0603E:  MOVLW  00
06040:  ADDWFC x53,F
06042:  MOVLB  3
06044:  MOVF   x8C,W
06046:  MOVLB  2
06048:  ADDWF  xF0,W
0604A:  MOVLB  4
0604C:  MOVWF  x54
0604E:  MOVLB  3
06050:  MOVF   x8D,W
06052:  MOVLB  2
06054:  ADDWFC xF1,W
06056:  MOVLB  4
06058:  MOVWF  x55
0605A:  MOVWF  x6C
0605C:  MOVFF  454,46B
06060:  CLRF   x6E
06062:  MOVLW  09
06064:  MOVWF  x6D
06066:  MOVLB  0
06068:  CALL   1F7E
0606C:  MOVFF  02,03
06070:  MOVF   01,W
06072:  MOVLB  4
06074:  ADDWF  x52,F
06076:  MOVF   02,W
06078:  ADDWFC x53,F
0607A:  MOVFF  453,456
0607E:  MOVFF  452,455
06082:  MOVLB  0
06084:  RCALL  5A58
06086:  MOVFF  01,452
0608A:  MOVFF  2EF,46C
0608E:  MOVFF  2EE,46B
06092:  MOVLW  01
06094:  MOVLB  4
06096:  MOVWF  x6E
06098:  MOVLW  40
0609A:  MOVWF  x6D
0609C:  MOVLB  0
0609E:  CALL   1F7E
060A2:  MOVFF  02,454
060A6:  MOVFF  01,453
060AA:  MOVLW  08
060AC:  MOVLB  4
060AE:  ADDWF  x53,F
060B0:  MOVLW  00
060B2:  ADDWFC x54,F
060B4:  MOVLB  3
060B6:  MOVF   x8C,W
060B8:  MOVLB  2
060BA:  ADDWF  xF0,W
060BC:  MOVLB  4
060BE:  MOVWF  x55
060C0:  MOVLB  3
060C2:  MOVF   x8D,W
060C4:  MOVLB  2
060C6:  ADDWFC xF1,W
060C8:  MOVLB  4
060CA:  MOVWF  x56
060CC:  MOVWF  x6C
060CE:  MOVFF  455,46B
060D2:  CLRF   x6E
060D4:  MOVLW  09
060D6:  MOVWF  x6D
060D8:  MOVLB  0
060DA:  CALL   1F7E
060DE:  MOVFF  02,03
060E2:  MOVF   01,W
060E4:  MOVLB  4
060E6:  ADDWF  x53,F
060E8:  MOVF   02,W
060EA:  ADDWFC x54,F
060EC:  MOVFF  454,456
060F0:  MOVFF  453,455
060F4:  MOVLB  0
060F6:  RCALL  5A58
060F8:  MOVFF  451,FEA
060FC:  MOVFF  450,FE9
06100:  MOVFF  452,FEC
06104:  MOVF   FED,F
06106:  MOVFF  01,FEF
....................             if(PcCiclos[i]>400) 
0610A:  BCF    FD8.0
0610C:  MOVLB  3
0610E:  RLCF   x8C,W
06110:  MOVWF  02
06112:  RLCF   x8D,W
06114:  MOVWF  03
06116:  MOVF   02,W
06118:  ADDLW  F7
0611A:  MOVWF  FE9
0611C:  MOVLW  03
0611E:  ADDWFC 03,W
06120:  MOVWF  FEA
06122:  MOVFF  FEC,451
06126:  MOVF   FED,F
06128:  MOVFF  FEF,450
0612C:  MOVLB  4
0612E:  MOVF   x51,W
06130:  SUBLW  00
06132:  BC    615E
06134:  XORLW  FF
06136:  BNZ   613E
06138:  MOVF   x50,W
0613A:  SUBLW  90
0613C:  BC    615E
....................                PcCiclos[i]=0; 
0613E:  BCF    FD8.0
06140:  MOVLB  3
06142:  RLCF   x8C,W
06144:  MOVWF  02
06146:  RLCF   x8D,W
06148:  MOVWF  03
0614A:  MOVF   02,W
0614C:  ADDLW  F7
0614E:  MOVWF  FE9
06150:  MOVLW  03
06152:  ADDWFC 03,W
06154:  MOVWF  FEA
06156:  CLRF   FEC
06158:  MOVF   FED,F
0615A:  CLRF   FEF
0615C:  MOVLB  4
....................             PpcCiclos[i]=make16(read_ext_eeprom((cicloVisto*320)+9+((cicloVisualizado+i)*9)),read_ext_eeprom((cicloVisto*320)+10+((cicloVisualizado+i)*9))); 
0615E:  BCF    FD8.0
06160:  MOVLB  3
06162:  RLCF   x8C,W
06164:  MOVWF  02
06166:  RLCF   x8D,W
06168:  MOVWF  03
0616A:  MOVF   02,W
0616C:  ADDLW  05
0616E:  MOVWF  01
06170:  MOVLW  04
06172:  ADDWFC 03,F
06174:  MOVFF  01,450
06178:  MOVLB  4
0617A:  MOVFF  03,451
0617E:  MOVFF  2EF,46C
06182:  MOVFF  2EE,46B
06186:  MOVLW  01
06188:  MOVWF  x6E
0618A:  MOVLW  40
0618C:  MOVWF  x6D
0618E:  MOVLB  0
06190:  CALL   1F7E
06194:  MOVFF  02,453
06198:  MOVFF  01,452
0619C:  MOVLW  09
0619E:  MOVLB  4
061A0:  ADDWF  x52,F
061A2:  MOVLW  00
061A4:  ADDWFC x53,F
061A6:  MOVLB  3
061A8:  MOVF   x8C,W
061AA:  MOVLB  2
061AC:  ADDWF  xF0,W
061AE:  MOVLB  4
061B0:  MOVWF  x54
061B2:  MOVLB  3
061B4:  MOVF   x8D,W
061B6:  MOVLB  2
061B8:  ADDWFC xF1,W
061BA:  MOVLB  4
061BC:  MOVWF  x55
061BE:  MOVWF  x6C
061C0:  MOVFF  454,46B
061C4:  CLRF   x6E
061C6:  MOVLW  09
061C8:  MOVWF  x6D
061CA:  MOVLB  0
061CC:  CALL   1F7E
061D0:  MOVFF  02,03
061D4:  MOVF   01,W
061D6:  MOVLB  4
061D8:  ADDWF  x52,F
061DA:  MOVF   02,W
061DC:  ADDWFC x53,F
061DE:  MOVFF  453,456
061E2:  MOVFF  452,455
061E6:  MOVLB  0
061E8:  RCALL  5A58
061EA:  MOVFF  01,452
061EE:  MOVFF  2EF,46C
061F2:  MOVFF  2EE,46B
061F6:  MOVLW  01
061F8:  MOVLB  4
061FA:  MOVWF  x6E
061FC:  MOVLW  40
061FE:  MOVWF  x6D
06200:  MOVLB  0
06202:  CALL   1F7E
06206:  MOVFF  02,454
0620A:  MOVFF  01,453
0620E:  MOVLW  0A
06210:  MOVLB  4
06212:  ADDWF  x53,F
06214:  MOVLW  00
06216:  ADDWFC x54,F
06218:  MOVLB  3
0621A:  MOVF   x8C,W
0621C:  MOVLB  2
0621E:  ADDWF  xF0,W
06220:  MOVLB  4
06222:  MOVWF  x55
06224:  MOVLB  3
06226:  MOVF   x8D,W
06228:  MOVLB  2
0622A:  ADDWFC xF1,W
0622C:  MOVLB  4
0622E:  MOVWF  x56
06230:  MOVWF  x6C
06232:  MOVFF  455,46B
06236:  CLRF   x6E
06238:  MOVLW  09
0623A:  MOVWF  x6D
0623C:  MOVLB  0
0623E:  CALL   1F7E
06242:  MOVFF  02,03
06246:  MOVF   01,W
06248:  MOVLB  4
0624A:  ADDWF  x53,F
0624C:  MOVF   02,W
0624E:  ADDWFC x54,F
06250:  MOVFF  454,456
06254:  MOVFF  453,455
06258:  MOVLB  0
0625A:  CALL   5A58
0625E:  MOVFF  451,FEA
06262:  MOVFF  450,FE9
06266:  MOVFF  452,FEC
0626A:  MOVF   FED,F
0626C:  MOVFF  01,FEF
....................             if(PpcCiclos[i]>400) 
06270:  BCF    FD8.0
06272:  MOVLB  3
06274:  RLCF   x8C,W
06276:  MOVWF  02
06278:  RLCF   x8D,W
0627A:  MOVWF  03
0627C:  MOVF   02,W
0627E:  ADDLW  05
06280:  MOVWF  FE9
06282:  MOVLW  04
06284:  ADDWFC 03,W
06286:  MOVWF  FEA
06288:  MOVFF  FEC,451
0628C:  MOVF   FED,F
0628E:  MOVFF  FEF,450
06292:  MOVLB  4
06294:  MOVF   x51,W
06296:  SUBLW  00
06298:  BC    62C2
0629A:  XORLW  FF
0629C:  BNZ   62A4
0629E:  MOVF   x50,W
062A0:  SUBLW  90
062A2:  BC    62C2
....................                PpcCiclos[i]=0; 
062A4:  BCF    FD8.0
062A6:  MOVLB  3
062A8:  RLCF   x8C,W
062AA:  MOVWF  02
062AC:  RLCF   x8D,W
062AE:  MOVWF  03
062B0:  MOVF   02,W
062B2:  ADDLW  05
062B4:  MOVWF  FE9
062B6:  MOVLW  04
062B8:  ADDWFC 03,W
062BA:  MOVWF  FEA
062BC:  CLRF   FEC
062BE:  MOVF   FED,F
062C0:  CLRF   FEF
....................             ACiclos[i]=read_ext_eeprom((cicloVisto*320)+13+((cicloVisualizado+i)*9)); 
062C2:  MOVLW  21
062C4:  MOVLB  3
062C6:  ADDWF  x8C,W
062C8:  MOVWF  01
062CA:  MOVLW  04
062CC:  ADDWFC x8D,W
062CE:  MOVWF  03
062D0:  MOVFF  01,450
062D4:  MOVLB  4
062D6:  MOVWF  x51
062D8:  MOVFF  2EF,46C
062DC:  MOVFF  2EE,46B
062E0:  MOVLW  01
062E2:  MOVWF  x6E
062E4:  MOVLW  40
062E6:  MOVWF  x6D
062E8:  MOVLB  0
062EA:  CALL   1F7E
062EE:  MOVFF  02,453
062F2:  MOVFF  01,452
062F6:  MOVLW  0D
062F8:  MOVLB  4
062FA:  ADDWF  x52,F
062FC:  MOVLW  00
062FE:  ADDWFC x53,F
06300:  MOVLB  3
06302:  MOVF   x8C,W
06304:  MOVLB  2
06306:  ADDWF  xF0,W
06308:  MOVLB  4
0630A:  MOVWF  x54
0630C:  MOVLB  3
0630E:  MOVF   x8D,W
06310:  MOVLB  2
06312:  ADDWFC xF1,W
06314:  MOVLB  4
06316:  MOVWF  x55
06318:  MOVWF  x6C
0631A:  MOVFF  454,46B
0631E:  CLRF   x6E
06320:  MOVLW  09
06322:  MOVWF  x6D
06324:  MOVLB  0
06326:  CALL   1F7E
0632A:  MOVFF  02,03
0632E:  MOVF   01,W
06330:  MOVLB  4
06332:  ADDWF  x52,F
06334:  MOVF   02,W
06336:  ADDWFC x53,F
06338:  MOVFF  453,456
0633C:  MOVFF  452,455
06340:  MOVLB  0
06342:  CALL   5A58
06346:  MOVFF  451,FEA
0634A:  MOVFF  450,FE9
0634E:  MOVFF  01,FEF
....................             if(ACiclos[i]>30) 
06352:  MOVLW  21
06354:  MOVLB  3
06356:  ADDWF  x8C,W
06358:  MOVWF  FE9
0635A:  MOVLW  04
0635C:  ADDWFC x8D,W
0635E:  MOVWF  FEA
06360:  MOVF   FEF,W
06362:  SUBLW  1E
06364:  BC    6374
....................                ACiclos[i]=0; 
06366:  MOVLW  21
06368:  ADDWF  x8C,W
0636A:  MOVWF  FE9
0636C:  MOVLW  04
0636E:  ADDWFC x8D,W
06370:  MOVWF  FEA
06372:  CLRF   FEF
....................          } 
06374:  INCF   x8C,F
06376:  BTFSC  FD8.2
06378:  INCF   x8D,F
0637A:  BRA    5C9C
.................... } 
0637C:  MOVLB  0
0637E:  RETLW  00
.................... void GuardaDatoEstatico(){ 
*
06E02:  MOVLB  4
06E04:  CLRF   x51
06E06:  CLRF   x50
06E08:  CLRF   x53
06E0A:  CLRF   x52
....................    int16 posCiclo=0,cicloMemoria=0; 
....................    posCiclo=Ciclos/200; 
06E0C:  MOVFF  385,46A
06E10:  MOVFF  384,469
06E14:  CLRF   x6C
06E16:  MOVLW  C8
06E18:  MOVWF  x6B
06E1A:  MOVLB  0
06E1C:  CALL   4FE4
06E20:  MOVFF  02,451
06E24:  MOVFF  01,450
....................    cicloMemoria=Ciclos-(posCiclo*200); 
06E28:  MOVFF  451,46C
06E2C:  MOVFF  450,46B
06E30:  MOVLB  4
06E32:  CLRF   x6E
06E34:  MOVLW  C8
06E36:  MOVWF  x6D
06E38:  MOVLB  0
06E3A:  CALL   1F7E
06E3E:  MOVF   01,W
06E40:  MOVLB  3
06E42:  SUBWF  x84,W
06E44:  MOVLB  4
06E46:  MOVWF  x52
06E48:  MOVF   02,W
06E4A:  MOVLB  3
06E4C:  SUBWFB x85,W
06E4E:  MOVLB  4
06E50:  MOVWF  x53
....................    if(!disp_Guarda){ 
06E52:  MOVLB  0
06E54:  BTFSC  xAC.4
06E56:  BRA    6FFC
....................       write_ext_eeprom(cicloMemoria*320,1); 
06E58:  MOVFF  453,46C
06E5C:  MOVFF  452,46B
06E60:  MOVLW  01
06E62:  MOVLB  4
06E64:  MOVWF  x6E
06E66:  MOVLW  40
06E68:  MOVWF  x6D
06E6A:  MOVLB  0
06E6C:  CALL   1F7E
06E70:  MOVFF  02,455
06E74:  MOVFF  01,454
06E78:  MOVFF  02,46C
06E7C:  MOVFF  01,46B
06E80:  MOVLW  01
06E82:  MOVLB  4
06E84:  MOVWF  x6D
06E86:  MOVLB  0
06E88:  CALL   502A
....................       delay_ms(10); 
06E8C:  MOVLW  0A
06E8E:  MOVLB  4
06E90:  MOVWF  x69
06E92:  MOVLB  0
06E94:  CALL   1B4A
....................       if(!Libre) 
06E98:  BTFSC  xAC.0
06E9A:  BRA    6ED8
....................          write_ext_eeprom(1+(cicloMemoria*320),CicloSeleccionado); 
06E9C:  MOVFF  453,46C
06EA0:  MOVFF  452,46B
06EA4:  MOVLW  01
06EA6:  MOVLB  4
06EA8:  MOVWF  x6E
06EAA:  MOVLW  40
06EAC:  MOVWF  x6D
06EAE:  MOVLB  0
06EB0:  CALL   1F7E
06EB4:  MOVFF  02,03
06EB8:  MOVF   01,W
06EBA:  ADDLW  01
06EBC:  MOVLB  4
06EBE:  MOVWF  x54
06EC0:  MOVLW  00
06EC2:  ADDWFC 02,W
06EC4:  MOVWF  x55
06EC6:  MOVWF  x6C
06EC8:  MOVFF  454,46B
06ECC:  MOVFF  36D,46D
06ED0:  MOVLB  0
06ED2:  CALL   502A
....................       else 
06ED6:  BRA    6F1C
....................          write_ext_eeprom(1+(cicloMemoria*320),CicloLibre+4); 
06ED8:  MOVFF  453,46C
06EDC:  MOVFF  452,46B
06EE0:  MOVLW  01
06EE2:  MOVLB  4
06EE4:  MOVWF  x6E
06EE6:  MOVLW  40
06EE8:  MOVWF  x6D
06EEA:  MOVLB  0
06EEC:  CALL   1F7E
06EF0:  MOVFF  02,03
06EF4:  MOVF   01,W
06EF6:  ADDLW  01
06EF8:  MOVLB  4
06EFA:  MOVWF  x54
06EFC:  MOVLW  00
06EFE:  ADDWFC 02,W
06F00:  MOVWF  x55
06F02:  MOVLW  04
06F04:  MOVLB  3
06F06:  ADDWF  x48,W
06F08:  MOVLB  4
06F0A:  MOVWF  x56
06F0C:  MOVFF  455,46C
06F10:  MOVFF  454,46B
06F14:  MOVWF  x6D
06F16:  MOVLB  0
06F18:  CALL   502A
....................       delay_ms(10); 
06F1C:  MOVLW  0A
06F1E:  MOVLB  4
06F20:  MOVWF  x69
06F22:  MOVLB  0
06F24:  CALL   1B4A
....................       write_ext_eeprom(2+(cicloMemoria*320),Dia); 
06F28:  MOVFF  453,46C
06F2C:  MOVFF  452,46B
06F30:  MOVLW  01
06F32:  MOVLB  4
06F34:  MOVWF  x6E
06F36:  MOVLW  40
06F38:  MOVWF  x6D
06F3A:  MOVLB  0
06F3C:  CALL   1F7E
06F40:  MOVFF  02,03
06F44:  MOVF   01,W
06F46:  ADDLW  02
06F48:  MOVLB  4
06F4A:  MOVWF  x54
06F4C:  MOVLW  00
06F4E:  ADDWFC 02,W
06F50:  MOVWF  x55
06F52:  MOVWF  x6C
06F54:  MOVFF  454,46B
06F58:  MOVFF  3AD,46D
06F5C:  MOVLB  0
06F5E:  CALL   502A
....................       delay_ms(10); 
06F62:  MOVLW  0A
06F64:  MOVLB  4
06F66:  MOVWF  x69
06F68:  MOVLB  0
06F6A:  CALL   1B4A
....................       write_ext_eeprom(3+(cicloMemoria*320),Mes); 
06F6E:  MOVFF  453,46C
06F72:  MOVFF  452,46B
06F76:  MOVLW  01
06F78:  MOVLB  4
06F7A:  MOVWF  x6E
06F7C:  MOVLW  40
06F7E:  MOVWF  x6D
06F80:  MOVLB  0
06F82:  CALL   1F7E
06F86:  MOVFF  02,03
06F8A:  MOVF   01,W
06F8C:  ADDLW  03
06F8E:  MOVLB  4
06F90:  MOVWF  x54
06F92:  MOVLW  00
06F94:  ADDWFC 02,W
06F96:  MOVWF  x55
06F98:  MOVWF  x6C
06F9A:  MOVFF  454,46B
06F9E:  MOVFF  3AC,46D
06FA2:  MOVLB  0
06FA4:  CALL   502A
....................       delay_ms(10); 
06FA8:  MOVLW  0A
06FAA:  MOVLB  4
06FAC:  MOVWF  x69
06FAE:  MOVLB  0
06FB0:  CALL   1B4A
....................       write_ext_eeprom(4+(cicloMemoria*320),Year); 
06FB4:  MOVFF  453,46C
06FB8:  MOVFF  452,46B
06FBC:  MOVLW  01
06FBE:  MOVLB  4
06FC0:  MOVWF  x6E
06FC2:  MOVLW  40
06FC4:  MOVWF  x6D
06FC6:  MOVLB  0
06FC8:  CALL   1F7E
06FCC:  MOVFF  02,03
06FD0:  MOVF   01,W
06FD2:  ADDLW  04
06FD4:  MOVLB  4
06FD6:  MOVWF  x54
06FD8:  MOVLW  00
06FDA:  ADDWFC 02,W
06FDC:  MOVWF  x55
06FDE:  MOVWF  x6C
06FE0:  MOVFF  454,46B
06FE4:  MOVFF  3AB,46D
06FE8:  MOVLB  0
06FEA:  CALL   502A
....................       delay_ms(10);  
06FEE:  MOVLW  0A
06FF0:  MOVLB  4
06FF2:  MOVWF  x69
06FF4:  MOVLB  0
06FF6:  CALL   1B4A
....................       disp_Guarda=1; 
06FFA:  BSF    xAC.4
....................    }    
.................... } 
06FFC:  GOTO   CEE0 (RETURN)
....................  
.................... void GuardaDatoCiclo(){ 
*
070CA:  MOVLB  4
070CC:  CLRF   x51
070CE:  CLRF   x50
070D0:  CLRF   x53
070D2:  CLRF   x52
....................    int16 posCiclo=0,cicloMemoria=0; 
....................    posCiclo=Ciclos/200; 
070D4:  MOVFF  385,46A
070D8:  MOVFF  384,469
070DC:  CLRF   x6C
070DE:  MOVLW  C8
070E0:  MOVWF  x6B
070E2:  MOVLB  0
070E4:  CALL   4FE4
070E8:  MOVFF  02,451
070EC:  MOVFF  01,450
....................    if(!Ciclo){ 
070F0:  BTFSC  xA9.7
070F2:  BRA    7526
....................       cicloMemoria=Ciclos-(posCiclo*200); 
070F4:  MOVFF  451,46C
070F8:  MOVFF  450,46B
070FC:  MOVLB  4
070FE:  CLRF   x6E
07100:  MOVLW  C8
07102:  MOVWF  x6D
07104:  MOVLB  0
07106:  CALL   1F7E
0710A:  MOVF   01,W
0710C:  MOVLB  3
0710E:  SUBWF  x84,W
07110:  MOVLB  4
07112:  MOVWF  x52
07114:  MOVF   02,W
07116:  MOVLB  3
07118:  SUBWFB x85,W
0711A:  MOVLB  4
0711C:  MOVWF  x53
....................       write_ext_eeprom(5+(cicloMemoria*320)+(posicionDato*9),(int8)Temperatura); 
0711E:  MOVFF  453,46C
07122:  MOVFF  452,46B
07126:  MOVLW  01
07128:  MOVWF  x6E
0712A:  MOVLW  40
0712C:  MOVWF  x6D
0712E:  MOVLB  0
07130:  CALL   1F7E
07134:  MOVFF  02,03
07138:  MOVF   01,W
0713A:  ADDLW  05
0713C:  MOVLB  4
0713E:  MOVWF  x54
07140:  MOVLW  00
07142:  ADDWFC 02,W
07144:  MOVWF  x55
07146:  MOVFF  2ED,46C
0714A:  MOVFF  2EC,46B
0714E:  CLRF   x6E
07150:  MOVLW  09
07152:  MOVWF  x6D
07154:  MOVLB  0
07156:  CALL   1F7E
0715A:  MOVFF  02,03
0715E:  MOVF   01,W
07160:  MOVLB  4
07162:  ADDWF  x54,F
07164:  MOVF   02,W
07166:  ADDWFC x55,F
07168:  MOVFF  335,468
0716C:  MOVFF  334,467
07170:  MOVFF  333,466
07174:  MOVFF  332,465
07178:  MOVLB  0
0717A:  CALL   44C0
0717E:  MOVFF  01,456
07182:  MOVFF  455,46C
07186:  MOVFF  454,46B
0718A:  MOVFF  01,46D
0718E:  CALL   502A
....................       delay_ms(10); 
07192:  MOVLW  0A
07194:  MOVLB  4
07196:  MOVWF  x69
07198:  MOVLB  0
0719A:  CALL   1B4A
....................       write_ext_eeprom(6+(cicloMemoria*320)+(posicionDato*9),extraeDecimal(Temperatura)); 
0719E:  MOVFF  453,46C
071A2:  MOVFF  452,46B
071A6:  MOVLW  01
071A8:  MOVLB  4
071AA:  MOVWF  x6E
071AC:  MOVLW  40
071AE:  MOVWF  x6D
071B0:  MOVLB  0
071B2:  CALL   1F7E
071B6:  MOVFF  02,03
071BA:  MOVF   01,W
071BC:  ADDLW  06
071BE:  MOVLB  4
071C0:  MOVWF  x54
071C2:  MOVLW  00
071C4:  ADDWFC 02,W
071C6:  MOVWF  x55
071C8:  MOVFF  2ED,46C
071CC:  MOVFF  2EC,46B
071D0:  CLRF   x6E
071D2:  MOVLW  09
071D4:  MOVWF  x6D
071D6:  MOVLB  0
071D8:  CALL   1F7E
071DC:  MOVFF  02,03
071E0:  MOVF   01,W
071E2:  MOVLB  4
071E4:  ADDWF  x54,F
071E6:  MOVF   02,W
071E8:  ADDWFC x55,F
071EA:  MOVFF  335,459
071EE:  MOVFF  334,458
071F2:  MOVFF  333,457
071F6:  MOVFF  332,456
071FA:  MOVLB  0
071FC:  BRA    7000
071FE:  MOVFF  01,456
07202:  MOVFF  455,46C
07206:  MOVFF  454,46B
0720A:  MOVFF  01,46D
0720E:  CALL   502A
....................       delay_ms(10); 
07212:  MOVLW  0A
07214:  MOVLB  4
07216:  MOVWF  x69
07218:  MOVLB  0
0721A:  CALL   1B4A
....................       write_ext_eeprom(7+(cicloMemoria*320)+(posicionDato*9),make8(PresionCamara,1)); 
0721E:  MOVFF  453,46C
07222:  MOVFF  452,46B
07226:  MOVLW  01
07228:  MOVLB  4
0722A:  MOVWF  x6E
0722C:  MOVLW  40
0722E:  MOVWF  x6D
07230:  MOVLB  0
07232:  CALL   1F7E
07236:  MOVFF  02,03
0723A:  MOVF   01,W
0723C:  ADDLW  07
0723E:  MOVLB  4
07240:  MOVWF  x54
07242:  MOVLW  00
07244:  ADDWFC 02,W
07246:  MOVWF  x55
07248:  MOVFF  2ED,46C
0724C:  MOVFF  2EC,46B
07250:  CLRF   x6E
07252:  MOVLW  09
07254:  MOVWF  x6D
07256:  MOVLB  0
07258:  CALL   1F7E
0725C:  MOVFF  02,03
07260:  MOVF   01,W
07262:  MOVLB  4
07264:  ADDWF  x54,F
07266:  MOVF   02,W
07268:  ADDWFC x55,F
0726A:  MOVFF  381,456
0726E:  MOVFF  455,46C
07272:  MOVFF  454,46B
07276:  MOVFF  381,46D
0727A:  MOVLB  0
0727C:  CALL   502A
....................       delay_ms(10); 
07280:  MOVLW  0A
07282:  MOVLB  4
07284:  MOVWF  x69
07286:  MOVLB  0
07288:  CALL   1B4A
....................       write_ext_eeprom(8+(cicloMemoria*320)+(posicionDato*9),make8(PresionCamara,0)); 
0728C:  MOVFF  453,46C
07290:  MOVFF  452,46B
07294:  MOVLW  01
07296:  MOVLB  4
07298:  MOVWF  x6E
0729A:  MOVLW  40
0729C:  MOVWF  x6D
0729E:  MOVLB  0
072A0:  CALL   1F7E
072A4:  MOVFF  02,03
072A8:  MOVF   01,W
072AA:  ADDLW  08
072AC:  MOVLB  4
072AE:  MOVWF  x54
072B0:  MOVLW  00
072B2:  ADDWFC 02,W
072B4:  MOVWF  x55
072B6:  MOVFF  2ED,46C
072BA:  MOVFF  2EC,46B
072BE:  CLRF   x6E
072C0:  MOVLW  09
072C2:  MOVWF  x6D
072C4:  MOVLB  0
072C6:  CALL   1F7E
072CA:  MOVFF  02,03
072CE:  MOVF   01,W
072D0:  MOVLB  4
072D2:  ADDWF  x54,F
072D4:  MOVF   02,W
072D6:  ADDWFC x55,F
072D8:  MOVFF  380,456
072DC:  MOVFF  455,46C
072E0:  MOVFF  454,46B
072E4:  MOVFF  380,46D
072E8:  MOVLB  0
072EA:  CALL   502A
....................       delay_ms(10); 
072EE:  MOVLW  0A
072F0:  MOVLB  4
072F2:  MOVWF  x69
072F4:  MOVLB  0
072F6:  CALL   1B4A
....................       write_ext_eeprom(9+(cicloMemoria*320)+(posicionDato*9),make8(PresionPreCamara,1)); 
072FA:  MOVFF  453,46C
072FE:  MOVFF  452,46B
07302:  MOVLW  01
07304:  MOVLB  4
07306:  MOVWF  x6E
07308:  MOVLW  40
0730A:  MOVWF  x6D
0730C:  MOVLB  0
0730E:  CALL   1F7E
07312:  MOVFF  02,03
07316:  MOVF   01,W
07318:  ADDLW  09
0731A:  MOVLB  4
0731C:  MOVWF  x54
0731E:  MOVLW  00
07320:  ADDWFC 02,W
07322:  MOVWF  x55
07324:  MOVFF  2ED,46C
07328:  MOVFF  2EC,46B
0732C:  CLRF   x6E
0732E:  MOVLW  09
07330:  MOVWF  x6D
07332:  MOVLB  0
07334:  CALL   1F7E
07338:  MOVFF  02,03
0733C:  MOVF   01,W
0733E:  MOVLB  4
07340:  ADDWF  x54,F
07342:  MOVF   02,W
07344:  ADDWFC x55,F
07346:  MOVFF  383,456
0734A:  MOVFF  455,46C
0734E:  MOVFF  454,46B
07352:  MOVFF  383,46D
07356:  MOVLB  0
07358:  CALL   502A
....................       delay_ms(10); 
0735C:  MOVLW  0A
0735E:  MOVLB  4
07360:  MOVWF  x69
07362:  MOVLB  0
07364:  CALL   1B4A
....................       write_ext_eeprom(10+(cicloMemoria*320)+(posicionDato*9),make8(PresionPreCamara,0)); 
07368:  MOVFF  453,46C
0736C:  MOVFF  452,46B
07370:  MOVLW  01
07372:  MOVLB  4
07374:  MOVWF  x6E
07376:  MOVLW  40
07378:  MOVWF  x6D
0737A:  MOVLB  0
0737C:  CALL   1F7E
07380:  MOVFF  02,03
07384:  MOVF   01,W
07386:  ADDLW  0A
07388:  MOVLB  4
0738A:  MOVWF  x54
0738C:  MOVLW  00
0738E:  ADDWFC 02,W
07390:  MOVWF  x55
07392:  MOVFF  2ED,46C
07396:  MOVFF  2EC,46B
0739A:  CLRF   x6E
0739C:  MOVLW  09
0739E:  MOVWF  x6D
073A0:  MOVLB  0
073A2:  CALL   1F7E
073A6:  MOVFF  02,03
073AA:  MOVF   01,W
073AC:  MOVLB  4
073AE:  ADDWF  x54,F
073B0:  MOVF   02,W
073B2:  ADDWFC x55,F
073B4:  MOVFF  382,456
073B8:  MOVFF  455,46C
073BC:  MOVFF  454,46B
073C0:  MOVFF  382,46D
073C4:  MOVLB  0
073C6:  CALL   502A
....................       delay_ms(10); 
073CA:  MOVLW  0A
073CC:  MOVLB  4
073CE:  MOVWF  x69
073D0:  MOVLB  0
073D2:  CALL   1B4A
....................       write_ext_eeprom(11+(cicloMemoria*320)+(posicionDato*9),Hora); 
073D6:  MOVFF  453,46C
073DA:  MOVFF  452,46B
073DE:  MOVLW  01
073E0:  MOVLB  4
073E2:  MOVWF  x6E
073E4:  MOVLW  40
073E6:  MOVWF  x6D
073E8:  MOVLB  0
073EA:  CALL   1F7E
073EE:  MOVFF  02,03
073F2:  MOVF   01,W
073F4:  ADDLW  0B
073F6:  MOVLB  4
073F8:  MOVWF  x54
073FA:  MOVLW  00
073FC:  ADDWFC 02,W
073FE:  MOVWF  x55
07400:  MOVFF  2ED,46C
07404:  MOVFF  2EC,46B
07408:  CLRF   x6E
0740A:  MOVLW  09
0740C:  MOVWF  x6D
0740E:  MOVLB  0
07410:  CALL   1F7E
07414:  MOVFF  02,03
07418:  MOVF   01,W
0741A:  MOVLB  4
0741C:  ADDWF  x54,F
0741E:  MOVF   02,W
07420:  ADDWFC x55,F
07422:  MOVFF  455,46C
07426:  MOVFF  454,46B
0742A:  MOVFF  3AE,46D
0742E:  MOVLB  0
07430:  CALL   502A
....................       delay_ms(10); 
07434:  MOVLW  0A
07436:  MOVLB  4
07438:  MOVWF  x69
0743A:  MOVLB  0
0743C:  CALL   1B4A
....................       write_ext_eeprom(12+(cicloMemoria*320)+(posicionDato*9),Minuto); 
07440:  MOVFF  453,46C
07444:  MOVFF  452,46B
07448:  MOVLW  01
0744A:  MOVLB  4
0744C:  MOVWF  x6E
0744E:  MOVLW  40
07450:  MOVWF  x6D
07452:  MOVLB  0
07454:  CALL   1F7E
07458:  MOVFF  02,03
0745C:  MOVF   01,W
0745E:  ADDLW  0C
07460:  MOVLB  4
07462:  MOVWF  x54
07464:  MOVLW  00
07466:  ADDWFC 02,W
07468:  MOVWF  x55
0746A:  MOVFF  2ED,46C
0746E:  MOVFF  2EC,46B
07472:  CLRF   x6E
07474:  MOVLW  09
07476:  MOVWF  x6D
07478:  MOVLB  0
0747A:  CALL   1F7E
0747E:  MOVFF  02,03
07482:  MOVF   01,W
07484:  MOVLB  4
07486:  ADDWF  x54,F
07488:  MOVF   02,W
0748A:  ADDWFC x55,F
0748C:  MOVFF  455,46C
07490:  MOVFF  454,46B
07494:  MOVFF  3AF,46D
07498:  MOVLB  0
0749A:  CALL   502A
....................       delay_ms(10); 
0749E:  MOVLW  0A
074A0:  MOVLB  4
074A2:  MOVWF  x69
074A4:  MOVLB  0
074A6:  CALL   1B4A
....................       write_ext_eeprom(13+(cicloMemoria*320)+(posicionDato*9),codigoAlarma); 
074AA:  MOVFF  453,46C
074AE:  MOVFF  452,46B
074B2:  MOVLW  01
074B4:  MOVLB  4
074B6:  MOVWF  x6E
074B8:  MOVLW  40
074BA:  MOVWF  x6D
074BC:  MOVLB  0
074BE:  CALL   1F7E
074C2:  MOVFF  02,03
074C6:  MOVF   01,W
074C8:  ADDLW  0D
074CA:  MOVLB  4
074CC:  MOVWF  x54
074CE:  MOVLW  00
074D0:  ADDWFC 02,W
074D2:  MOVWF  x55
074D4:  MOVFF  2ED,46C
074D8:  MOVFF  2EC,46B
074DC:  CLRF   x6E
074DE:  MOVLW  09
074E0:  MOVWF  x6D
074E2:  MOVLB  0
074E4:  CALL   1F7E
074E8:  MOVFF  02,03
074EC:  MOVF   01,W
074EE:  MOVLB  4
074F0:  ADDWF  x54,F
074F2:  MOVF   02,W
074F4:  ADDWFC x55,F
074F6:  MOVFF  455,46C
074FA:  MOVFF  454,46B
074FE:  MOVFF  2EA,46D
07502:  MOVLB  0
07504:  CALL   502A
....................       delay_ms(10); 
07508:  MOVLW  0A
0750A:  MOVLB  4
0750C:  MOVWF  x69
0750E:  MOVLB  0
07510:  CALL   1B4A
....................     
....................       if(posicionDato<35) 
07514:  MOVLB  2
07516:  MOVF   xED,F
07518:  BNZ   7526
0751A:  MOVF   xEC,W
0751C:  SUBLW  22
0751E:  BNC   7526
....................          ++posicionDato; 
07520:  INCF   xEC,F
07522:  BTFSC  FD8.2
07524:  INCF   xED,F
07526:  MOVLB  0
....................    } 
.................... } 
07528:  RETLW  00
....................  
.................... void borraDatoCiclo(){ 
*
0512A:  MOVLB  4
0512C:  CLRF   x66
0512E:  CLRF   x65
05130:  CLRF   x68
05132:  CLRF   x67
....................    int16 posCiclo=0,cicloMemoria=0; 
....................    posCiclo=Ciclos/200; 
05134:  MOVFF  385,46A
05138:  MOVFF  384,469
0513C:  CLRF   x6C
0513E:  MOVLW  C8
05140:  MOVWF  x6B
05142:  MOVLB  0
05144:  RCALL  4FE4
05146:  MOVFF  02,466
0514A:  MOVFF  01,465
....................    cicloMemoria=Ciclos-(posCiclo*200); 
0514E:  MOVFF  466,46C
05152:  MOVFF  465,46B
05156:  MOVLB  4
05158:  CLRF   x6E
0515A:  MOVLW  C8
0515C:  MOVWF  x6D
0515E:  MOVLB  0
05160:  CALL   1F7E
05164:  MOVF   01,W
05166:  MOVLB  3
05168:  SUBWF  x84,W
0516A:  MOVLB  4
0516C:  MOVWF  x67
0516E:  MOVF   02,W
05170:  MOVLB  3
05172:  SUBWFB x85,W
05174:  MOVLB  4
05176:  MOVWF  x68
....................    write_ext_eeprom(cicloMemoria*320,1); 
05178:  MOVFF  468,46C
0517C:  MOVFF  467,46B
05180:  MOVLW  01
05182:  MOVWF  x6E
05184:  MOVLW  40
05186:  MOVWF  x6D
05188:  MOVLB  0
0518A:  CALL   1F7E
0518E:  MOVFF  02,46A
05192:  MOVFF  01,469
05196:  MOVFF  02,46C
0519A:  MOVFF  01,46B
0519E:  MOVLW  01
051A0:  MOVLB  4
051A2:  MOVWF  x6D
051A4:  MOVLB  0
051A6:  RCALL  502A
....................    delay_ms(5); 
051A8:  MOVLW  05
051AA:  MOVLB  4
051AC:  MOVWF  x69
051AE:  MOVLB  0
051B0:  CALL   1B4A
....................    write_ext_eeprom(1+(cicloMemoria*320),0); 
051B4:  MOVFF  468,46C
051B8:  MOVFF  467,46B
051BC:  MOVLW  01
051BE:  MOVLB  4
051C0:  MOVWF  x6E
051C2:  MOVLW  40
051C4:  MOVWF  x6D
051C6:  MOVLB  0
051C8:  CALL   1F7E
051CC:  MOVFF  02,03
051D0:  MOVF   01,W
051D2:  ADDLW  01
051D4:  MOVLB  4
051D6:  MOVWF  x69
051D8:  MOVLW  00
051DA:  ADDWFC 02,W
051DC:  MOVWF  x6A
051DE:  MOVWF  x6C
051E0:  MOVFF  469,46B
051E4:  CLRF   x6D
051E6:  MOVLB  0
051E8:  RCALL  502A
....................    delay_ms(5); 
051EA:  MOVLW  05
051EC:  MOVLB  4
051EE:  MOVWF  x69
051F0:  MOVLB  0
051F2:  CALL   1B4A
....................    write_ext_eeprom(2+(cicloMemoria*320),0); 
051F6:  MOVFF  468,46C
051FA:  MOVFF  467,46B
051FE:  MOVLW  01
05200:  MOVLB  4
05202:  MOVWF  x6E
05204:  MOVLW  40
05206:  MOVWF  x6D
05208:  MOVLB  0
0520A:  CALL   1F7E
0520E:  MOVFF  02,03
05212:  MOVF   01,W
05214:  ADDLW  02
05216:  MOVLB  4
05218:  MOVWF  x69
0521A:  MOVLW  00
0521C:  ADDWFC 02,W
0521E:  MOVWF  x6A
05220:  MOVWF  x6C
05222:  MOVFF  469,46B
05226:  CLRF   x6D
05228:  MOVLB  0
0522A:  RCALL  502A
....................    delay_ms(5); 
0522C:  MOVLW  05
0522E:  MOVLB  4
05230:  MOVWF  x69
05232:  MOVLB  0
05234:  CALL   1B4A
....................    write_ext_eeprom(3+(cicloMemoria*320),0); 
05238:  MOVFF  468,46C
0523C:  MOVFF  467,46B
05240:  MOVLW  01
05242:  MOVLB  4
05244:  MOVWF  x6E
05246:  MOVLW  40
05248:  MOVWF  x6D
0524A:  MOVLB  0
0524C:  CALL   1F7E
05250:  MOVFF  02,03
05254:  MOVF   01,W
05256:  ADDLW  03
05258:  MOVLB  4
0525A:  MOVWF  x69
0525C:  MOVLW  00
0525E:  ADDWFC 02,W
05260:  MOVWF  x6A
05262:  MOVWF  x6C
05264:  MOVFF  469,46B
05268:  CLRF   x6D
0526A:  MOVLB  0
0526C:  RCALL  502A
....................    delay_ms(5); 
0526E:  MOVLW  05
05270:  MOVLB  4
05272:  MOVWF  x69
05274:  MOVLB  0
05276:  CALL   1B4A
....................    write_ext_eeprom(4+(cicloMemoria*320),0); 
0527A:  MOVFF  468,46C
0527E:  MOVFF  467,46B
05282:  MOVLW  01
05284:  MOVLB  4
05286:  MOVWF  x6E
05288:  MOVLW  40
0528A:  MOVWF  x6D
0528C:  MOVLB  0
0528E:  CALL   1F7E
05292:  MOVFF  02,03
05296:  MOVF   01,W
05298:  ADDLW  04
0529A:  MOVLB  4
0529C:  MOVWF  x69
0529E:  MOVLW  00
052A0:  ADDWFC 02,W
052A2:  MOVWF  x6A
052A4:  MOVWF  x6C
052A6:  MOVFF  469,46B
052AA:  CLRF   x6D
052AC:  MOVLB  0
052AE:  RCALL  502A
....................    delay_ms(5); 
052B0:  MOVLW  05
052B2:  MOVLB  4
052B4:  MOVWF  x69
052B6:  MOVLB  0
052B8:  CALL   1B4A
....................    for(posicionDato=0;posicionDato<35;posicionDato++){ 
052BC:  MOVLB  2
052BE:  CLRF   xED
052C0:  CLRF   xEC
052C2:  MOVF   xED,F
052C4:  BTFSS  FD8.2
052C6:  BRA    5670
052C8:  MOVF   xEC,W
052CA:  SUBLW  22
052CC:  BTFSS  FD8.0
052CE:  BRA    5670
....................       write_ext_eeprom(5+(cicloMemoria*320)+(posicionDato*9),0); 
052D0:  MOVFF  468,46C
052D4:  MOVFF  467,46B
052D8:  MOVLW  01
052DA:  MOVLB  4
052DC:  MOVWF  x6E
052DE:  MOVLW  40
052E0:  MOVWF  x6D
052E2:  MOVLB  0
052E4:  CALL   1F7E
052E8:  MOVFF  02,03
052EC:  MOVF   01,W
052EE:  ADDLW  05
052F0:  MOVLB  4
052F2:  MOVWF  x69
052F4:  MOVLW  00
052F6:  ADDWFC 02,W
052F8:  MOVWF  x6A
052FA:  MOVFF  2ED,46C
052FE:  MOVFF  2EC,46B
05302:  CLRF   x6E
05304:  MOVLW  09
05306:  MOVWF  x6D
05308:  MOVLB  0
0530A:  CALL   1F7E
0530E:  MOVFF  02,03
05312:  MOVF   01,W
05314:  MOVLB  4
05316:  ADDWF  x69,F
05318:  MOVF   02,W
0531A:  ADDWFC x6A,F
0531C:  MOVFF  46A,46C
05320:  MOVFF  469,46B
05324:  CLRF   x6D
05326:  MOVLB  0
05328:  RCALL  502A
....................       delay_ms(5); 
0532A:  MOVLW  05
0532C:  MOVLB  4
0532E:  MOVWF  x69
05330:  MOVLB  0
05332:  CALL   1B4A
....................       write_ext_eeprom(6+(cicloMemoria*320)+(posicionDato*9),0); 
05336:  MOVFF  468,46C
0533A:  MOVFF  467,46B
0533E:  MOVLW  01
05340:  MOVLB  4
05342:  MOVWF  x6E
05344:  MOVLW  40
05346:  MOVWF  x6D
05348:  MOVLB  0
0534A:  CALL   1F7E
0534E:  MOVFF  02,03
05352:  MOVF   01,W
05354:  ADDLW  06
05356:  MOVLB  4
05358:  MOVWF  x69
0535A:  MOVLW  00
0535C:  ADDWFC 02,W
0535E:  MOVWF  x6A
05360:  MOVFF  2ED,46C
05364:  MOVFF  2EC,46B
05368:  CLRF   x6E
0536A:  MOVLW  09
0536C:  MOVWF  x6D
0536E:  MOVLB  0
05370:  CALL   1F7E
05374:  MOVFF  02,03
05378:  MOVF   01,W
0537A:  MOVLB  4
0537C:  ADDWF  x69,F
0537E:  MOVF   02,W
05380:  ADDWFC x6A,F
05382:  MOVFF  46A,46C
05386:  MOVFF  469,46B
0538A:  CLRF   x6D
0538C:  MOVLB  0
0538E:  RCALL  502A
....................       delay_ms(5); 
05390:  MOVLW  05
05392:  MOVLB  4
05394:  MOVWF  x69
05396:  MOVLB  0
05398:  CALL   1B4A
....................       write_ext_eeprom(7+(cicloMemoria*320)+(posicionDato*9),0); 
0539C:  MOVFF  468,46C
053A0:  MOVFF  467,46B
053A4:  MOVLW  01
053A6:  MOVLB  4
053A8:  MOVWF  x6E
053AA:  MOVLW  40
053AC:  MOVWF  x6D
053AE:  MOVLB  0
053B0:  CALL   1F7E
053B4:  MOVFF  02,03
053B8:  MOVF   01,W
053BA:  ADDLW  07
053BC:  MOVLB  4
053BE:  MOVWF  x69
053C0:  MOVLW  00
053C2:  ADDWFC 02,W
053C4:  MOVWF  x6A
053C6:  MOVFF  2ED,46C
053CA:  MOVFF  2EC,46B
053CE:  CLRF   x6E
053D0:  MOVLW  09
053D2:  MOVWF  x6D
053D4:  MOVLB  0
053D6:  CALL   1F7E
053DA:  MOVFF  02,03
053DE:  MOVF   01,W
053E0:  MOVLB  4
053E2:  ADDWF  x69,F
053E4:  MOVF   02,W
053E6:  ADDWFC x6A,F
053E8:  MOVFF  46A,46C
053EC:  MOVFF  469,46B
053F0:  CLRF   x6D
053F2:  MOVLB  0
053F4:  RCALL  502A
....................       delay_ms(5); 
053F6:  MOVLW  05
053F8:  MOVLB  4
053FA:  MOVWF  x69
053FC:  MOVLB  0
053FE:  CALL   1B4A
....................       write_ext_eeprom(8+(cicloMemoria*320)+(posicionDato*9),0); 
05402:  MOVFF  468,46C
05406:  MOVFF  467,46B
0540A:  MOVLW  01
0540C:  MOVLB  4
0540E:  MOVWF  x6E
05410:  MOVLW  40
05412:  MOVWF  x6D
05414:  MOVLB  0
05416:  CALL   1F7E
0541A:  MOVFF  02,03
0541E:  MOVF   01,W
05420:  ADDLW  08
05422:  MOVLB  4
05424:  MOVWF  x69
05426:  MOVLW  00
05428:  ADDWFC 02,W
0542A:  MOVWF  x6A
0542C:  MOVFF  2ED,46C
05430:  MOVFF  2EC,46B
05434:  CLRF   x6E
05436:  MOVLW  09
05438:  MOVWF  x6D
0543A:  MOVLB  0
0543C:  CALL   1F7E
05440:  MOVFF  02,03
05444:  MOVF   01,W
05446:  MOVLB  4
05448:  ADDWF  x69,F
0544A:  MOVF   02,W
0544C:  ADDWFC x6A,F
0544E:  MOVFF  46A,46C
05452:  MOVFF  469,46B
05456:  CLRF   x6D
05458:  MOVLB  0
0545A:  RCALL  502A
....................       delay_ms(5); 
0545C:  MOVLW  05
0545E:  MOVLB  4
05460:  MOVWF  x69
05462:  MOVLB  0
05464:  CALL   1B4A
....................       write_ext_eeprom(9+(cicloMemoria*320)+(posicionDato*9),0); 
05468:  MOVFF  468,46C
0546C:  MOVFF  467,46B
05470:  MOVLW  01
05472:  MOVLB  4
05474:  MOVWF  x6E
05476:  MOVLW  40
05478:  MOVWF  x6D
0547A:  MOVLB  0
0547C:  CALL   1F7E
05480:  MOVFF  02,03
05484:  MOVF   01,W
05486:  ADDLW  09
05488:  MOVLB  4
0548A:  MOVWF  x69
0548C:  MOVLW  00
0548E:  ADDWFC 02,W
05490:  MOVWF  x6A
05492:  MOVFF  2ED,46C
05496:  MOVFF  2EC,46B
0549A:  CLRF   x6E
0549C:  MOVLW  09
0549E:  MOVWF  x6D
054A0:  MOVLB  0
054A2:  CALL   1F7E
054A6:  MOVFF  02,03
054AA:  MOVF   01,W
054AC:  MOVLB  4
054AE:  ADDWF  x69,F
054B0:  MOVF   02,W
054B2:  ADDWFC x6A,F
054B4:  MOVFF  46A,46C
054B8:  MOVFF  469,46B
054BC:  CLRF   x6D
054BE:  MOVLB  0
054C0:  RCALL  502A
....................       delay_ms(5); 
054C2:  MOVLW  05
054C4:  MOVLB  4
054C6:  MOVWF  x69
054C8:  MOVLB  0
054CA:  CALL   1B4A
....................       write_ext_eeprom(10+(cicloMemoria*320)+(posicionDato*9),0); 
054CE:  MOVFF  468,46C
054D2:  MOVFF  467,46B
054D6:  MOVLW  01
054D8:  MOVLB  4
054DA:  MOVWF  x6E
054DC:  MOVLW  40
054DE:  MOVWF  x6D
054E0:  MOVLB  0
054E2:  CALL   1F7E
054E6:  MOVFF  02,03
054EA:  MOVF   01,W
054EC:  ADDLW  0A
054EE:  MOVLB  4
054F0:  MOVWF  x69
054F2:  MOVLW  00
054F4:  ADDWFC 02,W
054F6:  MOVWF  x6A
054F8:  MOVFF  2ED,46C
054FC:  MOVFF  2EC,46B
05500:  CLRF   x6E
05502:  MOVLW  09
05504:  MOVWF  x6D
05506:  MOVLB  0
05508:  CALL   1F7E
0550C:  MOVFF  02,03
05510:  MOVF   01,W
05512:  MOVLB  4
05514:  ADDWF  x69,F
05516:  MOVF   02,W
05518:  ADDWFC x6A,F
0551A:  MOVFF  46A,46C
0551E:  MOVFF  469,46B
05522:  CLRF   x6D
05524:  MOVLB  0
05526:  RCALL  502A
....................       delay_ms(5); 
05528:  MOVLW  05
0552A:  MOVLB  4
0552C:  MOVWF  x69
0552E:  MOVLB  0
05530:  CALL   1B4A
....................       write_ext_eeprom(11+(cicloMemoria*320)+(posicionDato*9),0); 
05534:  MOVFF  468,46C
05538:  MOVFF  467,46B
0553C:  MOVLW  01
0553E:  MOVLB  4
05540:  MOVWF  x6E
05542:  MOVLW  40
05544:  MOVWF  x6D
05546:  MOVLB  0
05548:  CALL   1F7E
0554C:  MOVFF  02,03
05550:  MOVF   01,W
05552:  ADDLW  0B
05554:  MOVLB  4
05556:  MOVWF  x69
05558:  MOVLW  00
0555A:  ADDWFC 02,W
0555C:  MOVWF  x6A
0555E:  MOVFF  2ED,46C
05562:  MOVFF  2EC,46B
05566:  CLRF   x6E
05568:  MOVLW  09
0556A:  MOVWF  x6D
0556C:  MOVLB  0
0556E:  CALL   1F7E
05572:  MOVFF  02,03
05576:  MOVF   01,W
05578:  MOVLB  4
0557A:  ADDWF  x69,F
0557C:  MOVF   02,W
0557E:  ADDWFC x6A,F
05580:  MOVFF  46A,46C
05584:  MOVFF  469,46B
05588:  CLRF   x6D
0558A:  MOVLB  0
0558C:  RCALL  502A
....................       delay_ms(5); 
0558E:  MOVLW  05
05590:  MOVLB  4
05592:  MOVWF  x69
05594:  MOVLB  0
05596:  CALL   1B4A
....................       write_ext_eeprom(12+(cicloMemoria*320)+(posicionDato*9),0); 
0559A:  MOVFF  468,46C
0559E:  MOVFF  467,46B
055A2:  MOVLW  01
055A4:  MOVLB  4
055A6:  MOVWF  x6E
055A8:  MOVLW  40
055AA:  MOVWF  x6D
055AC:  MOVLB  0
055AE:  CALL   1F7E
055B2:  MOVFF  02,03
055B6:  MOVF   01,W
055B8:  ADDLW  0C
055BA:  MOVLB  4
055BC:  MOVWF  x69
055BE:  MOVLW  00
055C0:  ADDWFC 02,W
055C2:  MOVWF  x6A
055C4:  MOVFF  2ED,46C
055C8:  MOVFF  2EC,46B
055CC:  CLRF   x6E
055CE:  MOVLW  09
055D0:  MOVWF  x6D
055D2:  MOVLB  0
055D4:  CALL   1F7E
055D8:  MOVFF  02,03
055DC:  MOVF   01,W
055DE:  MOVLB  4
055E0:  ADDWF  x69,F
055E2:  MOVF   02,W
055E4:  ADDWFC x6A,F
055E6:  MOVFF  46A,46C
055EA:  MOVFF  469,46B
055EE:  CLRF   x6D
055F0:  MOVLB  0
055F2:  RCALL  502A
....................       delay_ms(5); 
055F4:  MOVLW  05
055F6:  MOVLB  4
055F8:  MOVWF  x69
055FA:  MOVLB  0
055FC:  CALL   1B4A
....................       write_ext_eeprom(13+(cicloMemoria*320)+(posicionDato*9),0); 
05600:  MOVFF  468,46C
05604:  MOVFF  467,46B
05608:  MOVLW  01
0560A:  MOVLB  4
0560C:  MOVWF  x6E
0560E:  MOVLW  40
05610:  MOVWF  x6D
05612:  MOVLB  0
05614:  CALL   1F7E
05618:  MOVFF  02,03
0561C:  MOVF   01,W
0561E:  ADDLW  0D
05620:  MOVLB  4
05622:  MOVWF  x69
05624:  MOVLW  00
05626:  ADDWFC 02,W
05628:  MOVWF  x6A
0562A:  MOVFF  2ED,46C
0562E:  MOVFF  2EC,46B
05632:  CLRF   x6E
05634:  MOVLW  09
05636:  MOVWF  x6D
05638:  MOVLB  0
0563A:  CALL   1F7E
0563E:  MOVFF  02,03
05642:  MOVF   01,W
05644:  MOVLB  4
05646:  ADDWF  x69,F
05648:  MOVF   02,W
0564A:  ADDWFC x6A,F
0564C:  MOVFF  46A,46C
05650:  MOVFF  469,46B
05654:  CLRF   x6D
05656:  MOVLB  0
05658:  RCALL  502A
....................       delay_ms(5); 
0565A:  MOVLW  05
0565C:  MOVLB  4
0565E:  MOVWF  x69
05660:  MOVLB  0
05662:  CALL   1B4A
....................    } 
05666:  MOVLB  2
05668:  INCF   xEC,F
0566A:  BTFSC  FD8.2
0566C:  INCF   xED,F
0566E:  BRA    52C2
....................    posicionDato=0; 
05670:  CLRF   xED
05672:  CLRF   xEC
.................... } 
05674:  MOVLB  0
05676:  GOTO   5716 (RETURN)
....................  
.................... void incrementaCiclos(){ 
....................    if(!Ciclo){ 
*
0752A:  BTFSC  xA9.7
0752C:  BRA    75B4
....................       Ciclo=ON; 
0752E:  BSF    xA9.7
....................       Ciclos++; 
07530:  MOVLB  3
07532:  INCF   x84,F
07534:  BTFSC  FD8.2
07536:  INCF   x85,F
....................       CiclosL=make8(Ciclos,0); 
07538:  MOVFF  384,36B
....................       CiclosH=make8(Ciclos,1); 
0753C:  MOVFF  385,36C
....................       write_eeprom(37,CiclosL); 
07540:  CLRF   FAA
07542:  MOVLW  25
07544:  MOVWF  FA9
07546:  MOVFF  36B,FA8
0754A:  BCF    FA6.6
0754C:  BCF    FA6.7
0754E:  BSF    FA6.2
07550:  MOVF   FF2,W
07552:  MOVWF  00
07554:  BCF    FF2.6
07556:  BCF    FF2.7
07558:  MOVLB  F
0755A:  MOVLW  55
0755C:  MOVWF  FA7
0755E:  MOVLW  AA
07560:  MOVWF  FA7
07562:  BSF    FA6.1
07564:  BTFSC  FA6.1
07566:  BRA    7564
07568:  BCF    FA6.2
0756A:  MOVF   00,W
0756C:  IORWF  FF2,F
....................       delay_ms(20); 
0756E:  MOVLW  14
07570:  MOVLB  4
07572:  MOVWF  x69
07574:  MOVLB  0
07576:  CALL   1B4A
....................       write_eeprom(38,CiclosH); 
0757A:  CLRF   FAA
0757C:  MOVLW  26
0757E:  MOVWF  FA9
07580:  MOVFF  36C,FA8
07584:  BCF    FA6.6
07586:  BCF    FA6.7
07588:  BSF    FA6.2
0758A:  MOVF   FF2,W
0758C:  MOVWF  00
0758E:  BCF    FF2.6
07590:  BCF    FF2.7
07592:  MOVLB  F
07594:  MOVLW  55
07596:  MOVWF  FA7
07598:  MOVLW  AA
0759A:  MOVWF  FA7
0759C:  BSF    FA6.1
0759E:  BTFSC  FA6.1
075A0:  BRA    759E
075A2:  BCF    FA6.2
075A4:  MOVF   00,W
075A6:  IORWF  FF2,F
....................       delay_ms(20); 
075A8:  MOVLW  14
075AA:  MOVLB  4
075AC:  MOVWF  x69
075AE:  MOVLB  0
075B0:  CALL   1B4A
....................    } 
.................... } 
075B4:  RETLW  00
....................  
.................... void exportarData(){ 
*
06380:  MOVLB  4
06382:  CLRF   x51
06384:  CLRF   x50
06386:  CLRF   x52
.................... int16 posicion=0; 
.................... int8 tmp=0; 
.................... posicion=40; 
06388:  CLRF   x51
0638A:  MOVLW  28
0638C:  MOVWF  x50
.................... direccion=0xB0; 
0638E:  MOVLW  B0
06390:  MOVLB  0
06392:  MOVWF  x8D
.................... //Buzzer_on; 
.................... //Inicio de Transmision 
.................... i2c_start();            // Comienzo comunicacin 
06394:  BSF    F94.4
06396:  MOVLW  05
06398:  MOVWF  00
0639A:  DECFSZ 00,F
0639C:  BRA    639A
0639E:  BSF    F94.3
063A0:  MOVLW  06
063A2:  MOVWF  00
063A4:  DECFSZ 00,F
063A6:  BRA    63A4
063A8:  BCF    F8B.4
063AA:  BCF    F94.4
063AC:  MOVLW  05
063AE:  MOVWF  00
063B0:  DECFSZ 00,F
063B2:  BRA    63B0
063B4:  BCF    F8B.3
063B6:  BCF    F94.3
.................... i2c_write(direccion);   // Direccin del esclavo en el bus I2C 
063B8:  MOVFF  8D,471
063BC:  CALL   4A00
.................... i2c_write(make8(posicion,0));    // Posicin donde se guardara el dato transmitido 
063C0:  MOVFF  450,453
063C4:  MOVFF  450,471
063C8:  CALL   4A00
.................... i2c_write(make8(posicion,1));    // Posicin donde se guardara el dato transmitido 
063CC:  MOVFF  451,453
063D0:  MOVFF  451,471
063D4:  CALL   4A00
.................... i2c_write(0xff);        // Dato a transmitir 
063D8:  MOVLW  FF
063DA:  MOVLB  4
063DC:  MOVWF  x71
063DE:  MOVLB  0
063E0:  CALL   4A00
.................... i2c_stop(); 
063E4:  BCF    F94.4
063E6:  NOP   
063E8:  BSF    F94.3
063EA:  BTFSS  F82.3
063EC:  BRA    63EA
063EE:  MOVLW  05
063F0:  MOVWF  00
063F2:  DECFSZ 00,F
063F4:  BRA    63F2
063F6:  BRA    63F8
063F8:  NOP   
063FA:  BSF    F94.4
063FC:  MOVLW  05
063FE:  MOVWF  00
06400:  DECFSZ 00,F
06402:  BRA    6400
.................... ++posicion; 
06404:  MOVLB  4
06406:  INCF   x50,F
06408:  BTFSC  FD8.2
0640A:  INCF   x51,F
.................... i2c_start();            // Comienzo comunicacin 
0640C:  BSF    F94.4
0640E:  MOVLW  05
06410:  MOVWF  00
06412:  DECFSZ 00,F
06414:  BRA    6412
06416:  BSF    F94.3
06418:  MOVLW  06
0641A:  MOVWF  00
0641C:  DECFSZ 00,F
0641E:  BRA    641C
06420:  BCF    F8B.4
06422:  BCF    F94.4
06424:  MOVLW  05
06426:  MOVWF  00
06428:  DECFSZ 00,F
0642A:  BRA    6428
0642C:  BCF    F8B.3
0642E:  BCF    F94.3
.................... i2c_write(direccion);   // Direccin del esclavo en el bus I2C 
06430:  MOVFF  8D,471
06434:  MOVLB  0
06436:  CALL   4A00
.................... i2c_write(make8(posicion,0));    // Posicin donde se guardara el dato transmitido 
0643A:  MOVFF  450,453
0643E:  MOVFF  450,471
06442:  CALL   4A00
.................... i2c_write(make8(posicion,1));    // Posicin donde se guardara el dato transmitido 
06446:  MOVFF  451,453
0644A:  MOVFF  451,471
0644E:  CALL   4A00
.................... i2c_write(0xff);        // Dato a transmitir 
06452:  MOVLW  FF
06454:  MOVLB  4
06456:  MOVWF  x71
06458:  MOVLB  0
0645A:  CALL   4A00
.................... i2c_stop(); 
0645E:  BCF    F94.4
06460:  NOP   
06462:  BSF    F94.3
06464:  BTFSS  F82.3
06466:  BRA    6464
06468:  MOVLW  05
0646A:  MOVWF  00
0646C:  DECFSZ 00,F
0646E:  BRA    646C
06470:  BRA    6472
06472:  NOP   
06474:  BSF    F94.4
06476:  MOVLW  05
06478:  MOVWF  00
0647A:  DECFSZ 00,F
0647C:  BRA    647A
.................... ++posicion; 
0647E:  MOVLB  4
06480:  INCF   x50,F
06482:  BTFSC  FD8.2
06484:  INCF   x51,F
.................... //Se envian 2 veces ff para indicar que se inicia la transmision. 
....................  
....................    for(i=0;i<5;i++){ 
06486:  MOVLB  3
06488:  CLRF   x8D
0648A:  CLRF   x8C
0648C:  MOVF   x8D,F
0648E:  BNZ   6556
06490:  MOVF   x8C,W
06492:  SUBLW  04
06494:  BNC   6556
....................       tmp=read_ext_eeprom((cicloVisto*320)+i); 
06496:  MOVFF  2EF,46C
0649A:  MOVFF  2EE,46B
0649E:  MOVLW  01
064A0:  MOVLB  4
064A2:  MOVWF  x6E
064A4:  MOVLW  40
064A6:  MOVWF  x6D
064A8:  MOVLB  0
064AA:  CALL   1F7E
064AE:  MOVFF  02,454
064B2:  MOVFF  01,453
064B6:  MOVLB  3
064B8:  MOVF   x8C,W
064BA:  MOVLB  4
064BC:  ADDWF  x53,F
064BE:  MOVLB  3
064C0:  MOVF   x8D,W
064C2:  MOVLB  4
064C4:  ADDWFC x54,F
064C6:  MOVFF  454,456
064CA:  MOVFF  453,455
064CE:  MOVLB  0
064D0:  CALL   5A58
064D4:  MOVFF  01,452
....................       //if(tmp>250) 
....................       //   tmp=20; 
....................       i2c_start();            // Comienzo comunicacin 
064D8:  BSF    F94.4
064DA:  MOVLW  05
064DC:  MOVWF  00
064DE:  DECFSZ 00,F
064E0:  BRA    64DE
064E2:  BSF    F94.3
064E4:  MOVLW  06
064E6:  MOVWF  00
064E8:  DECFSZ 00,F
064EA:  BRA    64E8
064EC:  BCF    F8B.4
064EE:  BCF    F94.4
064F0:  MOVLW  05
064F2:  MOVWF  00
064F4:  DECFSZ 00,F
064F6:  BRA    64F4
064F8:  BCF    F8B.3
064FA:  BCF    F94.3
....................       i2c_write(direccion);   // Direccin del esclavo en el bus I2C 
064FC:  MOVFF  8D,471
06500:  CALL   4A00
....................       i2c_write(make8(posicion,0));    // Posicin donde se guardara el dato transmitido 
06504:  MOVFF  450,453
06508:  MOVFF  450,471
0650C:  CALL   4A00
....................       i2c_write(make8(posicion,1));    // Posicin donde se guardara el dato transmitido 
06510:  MOVFF  451,453
06514:  MOVFF  451,471
06518:  CALL   4A00
....................       i2c_write(tmp);        // Dato a transmitir 
0651C:  MOVFF  452,471
06520:  CALL   4A00
....................       i2c_stop();  
06524:  BCF    F94.4
06526:  NOP   
06528:  BSF    F94.3
0652A:  BTFSS  F82.3
0652C:  BRA    652A
0652E:  MOVLW  05
06530:  MOVWF  00
06532:  DECFSZ 00,F
06534:  BRA    6532
06536:  BRA    6538
06538:  NOP   
0653A:  BSF    F94.4
0653C:  MOVLW  05
0653E:  MOVWF  00
06540:  DECFSZ 00,F
06542:  BRA    6540
....................       ++posicion; 
06544:  MOVLB  4
06546:  INCF   x50,F
06548:  BTFSC  FD8.2
0654A:  INCF   x51,F
....................    } 
0654C:  MOVLB  3
0654E:  INCF   x8C,F
06550:  BTFSC  FD8.2
06552:  INCF   x8D,F
06554:  BRA    648C
....................    for(i=0;i<35;i++){//Lee Valores para completar la Tabla 
06556:  CLRF   x8D
06558:  CLRF   x8C
0655A:  MOVF   x8D,F
0655C:  BTFSS  FD8.2
0655E:  BRA    6662
06560:  MOVF   x8C,W
06562:  SUBLW  22
06564:  BTFSS  FD8.0
06566:  BRA    6662
....................       for(j=5;j<14;j++){//Lee Valores para completar la Tabla 
06568:  CLRF   x8F
0656A:  MOVLW  05
0656C:  MOVWF  x8E
0656E:  MOVF   x8F,F
06570:  BNZ   665A
06572:  MOVF   x8E,W
06574:  SUBLW  0D
06576:  BNC   665A
....................          tmp=read_ext_eeprom((cicloVisto*320)+j+(i*9)); 
06578:  MOVFF  2EF,46C
0657C:  MOVFF  2EE,46B
06580:  MOVLW  01
06582:  MOVLB  4
06584:  MOVWF  x6E
06586:  MOVLW  40
06588:  MOVWF  x6D
0658A:  MOVLB  0
0658C:  CALL   1F7E
06590:  MOVFF  02,454
06594:  MOVFF  01,453
06598:  MOVLB  3
0659A:  MOVF   x8E,W
0659C:  MOVLB  4
0659E:  ADDWF  x53,F
065A0:  MOVLB  3
065A2:  MOVF   x8F,W
065A4:  MOVLB  4
065A6:  ADDWFC x54,F
065A8:  MOVFF  38D,46C
065AC:  MOVFF  38C,46B
065B0:  CLRF   x6E
065B2:  MOVLW  09
065B4:  MOVWF  x6D
065B6:  MOVLB  0
065B8:  CALL   1F7E
065BC:  MOVFF  02,03
065C0:  MOVF   01,W
065C2:  MOVLB  4
065C4:  ADDWF  x53,F
065C6:  MOVF   02,W
065C8:  ADDWFC x54,F
065CA:  MOVFF  454,456
065CE:  MOVFF  453,455
065D2:  MOVLB  0
065D4:  CALL   5A58
065D8:  MOVFF  01,452
....................          //if(tmp>250) 
....................          //   tmp=20; 
....................          i2c_start();            // Comienzo comunicacin 
065DC:  BSF    F94.4
065DE:  MOVLW  05
065E0:  MOVWF  00
065E2:  DECFSZ 00,F
065E4:  BRA    65E2
065E6:  BSF    F94.3
065E8:  MOVLW  06
065EA:  MOVWF  00
065EC:  DECFSZ 00,F
065EE:  BRA    65EC
065F0:  BCF    F8B.4
065F2:  BCF    F94.4
065F4:  MOVLW  05
065F6:  MOVWF  00
065F8:  DECFSZ 00,F
065FA:  BRA    65F8
065FC:  BCF    F8B.3
065FE:  BCF    F94.3
....................          i2c_write(direccion);   // Direccin del esclavo en el bus I2C 
06600:  MOVFF  8D,471
06604:  CALL   4A00
....................          i2c_write(make8(posicion,0));    // Posicin donde se guardara el dato transmitido 
06608:  MOVFF  450,453
0660C:  MOVFF  450,471
06610:  CALL   4A00
....................          i2c_write(make8(posicion,1));    // Posicin donde se guardara el dato transmitido 
06614:  MOVFF  451,453
06618:  MOVFF  451,471
0661C:  CALL   4A00
....................          i2c_write(tmp);        // Dato a transmitir 
06620:  MOVFF  452,471
06624:  CALL   4A00
....................          i2c_stop();  
06628:  BCF    F94.4
0662A:  NOP   
0662C:  BSF    F94.3
0662E:  BTFSS  F82.3
06630:  BRA    662E
06632:  MOVLW  05
06634:  MOVWF  00
06636:  DECFSZ 00,F
06638:  BRA    6636
0663A:  BRA    663C
0663C:  NOP   
0663E:  BSF    F94.4
06640:  MOVLW  05
06642:  MOVWF  00
06644:  DECFSZ 00,F
06646:  BRA    6644
....................          ++posicion; 
06648:  MOVLB  4
0664A:  INCF   x50,F
0664C:  BTFSC  FD8.2
0664E:  INCF   x51,F
....................       } 
06650:  MOVLB  3
06652:  INCF   x8E,F
06654:  BTFSC  FD8.2
06656:  INCF   x8F,F
06658:  BRA    656E
....................    } 
0665A:  INCF   x8C,F
0665C:  BTFSC  FD8.2
0665E:  INCF   x8D,F
06660:  BRA    655A
....................  
.................... //Fin de Transmision 
.................... i2c_start();            // Comienzo comunicacin 
06662:  BSF    F94.4
06664:  MOVLW  05
06666:  MOVWF  00
06668:  DECFSZ 00,F
0666A:  BRA    6668
0666C:  BSF    F94.3
0666E:  MOVLW  06
06670:  MOVWF  00
06672:  DECFSZ 00,F
06674:  BRA    6672
06676:  BCF    F8B.4
06678:  BCF    F94.4
0667A:  MOVLW  05
0667C:  MOVWF  00
0667E:  DECFSZ 00,F
06680:  BRA    667E
06682:  BCF    F8B.3
06684:  BCF    F94.3
.................... i2c_write(direccion);   // Direccin del esclavo en el bus I2C 
06686:  MOVFF  8D,471
0668A:  MOVLB  0
0668C:  CALL   4A00
.................... i2c_write(make8(posicion,0));    // Posicin donde se guardara el dato transmitido 
06690:  MOVFF  450,453
06694:  MOVFF  450,471
06698:  CALL   4A00
.................... i2c_write(make8(posicion,1));    // Posicin donde se guardara el dato transmitido 
0669C:  MOVFF  451,453
066A0:  MOVFF  451,471
066A4:  CALL   4A00
.................... i2c_write(0x1f);        // Dato a transmitir 
066A8:  MOVLW  1F
066AA:  MOVLB  4
066AC:  MOVWF  x71
066AE:  MOVLB  0
066B0:  CALL   4A00
.................... i2c_stop(); 
066B4:  BCF    F94.4
066B6:  NOP   
066B8:  BSF    F94.3
066BA:  BTFSS  F82.3
066BC:  BRA    66BA
066BE:  MOVLW  05
066C0:  MOVWF  00
066C2:  DECFSZ 00,F
066C4:  BRA    66C2
066C6:  BRA    66C8
066C8:  NOP   
066CA:  BSF    F94.4
066CC:  MOVLW  05
066CE:  MOVWF  00
066D0:  DECFSZ 00,F
066D2:  BRA    66D0
.................... ++posicion; 
066D4:  MOVLB  4
066D6:  INCF   x50,F
066D8:  BTFSC  FD8.2
066DA:  INCF   x51,F
.................... i2c_start();            // Comienzo comunicacin 
066DC:  BSF    F94.4
066DE:  MOVLW  05
066E0:  MOVWF  00
066E2:  DECFSZ 00,F
066E4:  BRA    66E2
066E6:  BSF    F94.3
066E8:  MOVLW  06
066EA:  MOVWF  00
066EC:  DECFSZ 00,F
066EE:  BRA    66EC
066F0:  BCF    F8B.4
066F2:  BCF    F94.4
066F4:  MOVLW  05
066F6:  MOVWF  00
066F8:  DECFSZ 00,F
066FA:  BRA    66F8
066FC:  BCF    F8B.3
066FE:  BCF    F94.3
.................... i2c_write(direccion);   // Direccin del esclavo en el bus I2C 
06700:  MOVFF  8D,471
06704:  MOVLB  0
06706:  CALL   4A00
.................... i2c_write(make8(posicion,0));    // Posicin donde se guardara el dato transmitido 
0670A:  MOVFF  450,453
0670E:  MOVFF  450,471
06712:  CALL   4A00
.................... i2c_write(make8(posicion,1));    // Posicin donde se guardara el dato transmitido 
06716:  MOVFF  451,453
0671A:  MOVFF  451,471
0671E:  CALL   4A00
.................... i2c_write(0x1f);        // Dato a transmitir 
06722:  MOVLW  1F
06724:  MOVLB  4
06726:  MOVWF  x71
06728:  MOVLB  0
0672A:  CALL   4A00
.................... i2c_stop(); 
0672E:  BCF    F94.4
06730:  NOP   
06732:  BSF    F94.3
06734:  BTFSS  F82.3
06736:  BRA    6734
06738:  MOVLW  05
0673A:  MOVWF  00
0673C:  DECFSZ 00,F
0673E:  BRA    673C
06740:  BRA    6742
06742:  NOP   
06744:  BSF    F94.4
06746:  MOVLW  05
06748:  MOVWF  00
0674A:  DECFSZ 00,F
0674C:  BRA    674A
.................... ++posicion; 
0674E:  MOVLB  4
06750:  INCF   x50,F
06752:  BTFSC  FD8.2
06754:  INCF   x51,F
.................... //Se envian 2 veces 1f para indicar que se inicia la transmision. 
.................... delay_ms(200); 
06756:  MOVLW  C8
06758:  MOVWF  x69
0675A:  MOVLB  0
0675C:  CALL   1B4A
.................... //Buzzer_off; 
.................... } 
06760:  GOTO   CA4E (RETURN)
....................  
.................... void codificaAlarma(){ 
....................    if(ACiclos[i]==0){ 
06764:  MOVLW  21
06766:  MOVLB  3
06768:  ADDWF  x8C,W
0676A:  MOVWF  FE9
0676C:  MOVLW  04
0676E:  ADDWFC x8D,W
06770:  MOVWF  FEA
06772:  MOVF   FEF,F
06774:  BNZ   67C2
....................       printf("A%Lu.txt=\"----\"",i+1); 
06776:  MOVLW  01
06778:  ADDWF  x8C,W
0677A:  MOVLB  4
0677C:  MOVWF  x50
0677E:  MOVLW  00
06780:  MOVLB  3
06782:  ADDWFC x8D,W
06784:  MOVLB  4
06786:  MOVWF  x51
06788:  MOVLW  41
0678A:  BTFSS  F9E.4
0678C:  BRA    678A
0678E:  MOVWF  FAD
06790:  MOVLW  10
06792:  MOVWF  FE9
06794:  MOVFF  451,457
06798:  MOVFF  450,456
0679C:  MOVLB  0
0679E:  CALL   573A
067A2:  MOVLW  FA
067A4:  MOVWF  FF6
067A6:  MOVLW  01
067A8:  MOVWF  FF7
067AA:  MOVLW  00
067AC:  MOVWF  FF8
067AE:  MOVLW  0B
067B0:  MOVLB  4
067B2:  MOVWF  x56
067B4:  MOVLB  0
067B6:  CALL   4CA0
....................       SendDataDisplay(); 
067BA:  CALL   3CD8
....................    }else if(ACiclos[i]==1){ 
067BE:  BRA    6DFA
067C0:  MOVLB  3
067C2:  MOVLW  21
067C4:  ADDWF  x8C,W
067C6:  MOVWF  FE9
067C8:  MOVLW  04
067CA:  ADDWFC x8D,W
067CC:  MOVWF  FEA
067CE:  DECFSZ FEF,W
067D0:  BRA    681E
....................       printf("A%Lu.txt=\"Parada\"",i+1); 
067D2:  MOVLW  01
067D4:  ADDWF  x8C,W
067D6:  MOVLB  4
067D8:  MOVWF  x50
067DA:  MOVLW  00
067DC:  MOVLB  3
067DE:  ADDWFC x8D,W
067E0:  MOVLB  4
067E2:  MOVWF  x51
067E4:  MOVLW  41
067E6:  BTFSS  F9E.4
067E8:  BRA    67E6
067EA:  MOVWF  FAD
067EC:  MOVLW  10
067EE:  MOVWF  FE9
067F0:  MOVFF  451,457
067F4:  MOVFF  450,456
067F8:  MOVLB  0
067FA:  CALL   573A
067FE:  MOVLW  0A
06800:  MOVWF  FF6
06802:  MOVLW  02
06804:  MOVWF  FF7
06806:  MOVLW  00
06808:  MOVWF  FF8
0680A:  MOVLW  0D
0680C:  MOVLB  4
0680E:  MOVWF  x56
06810:  MOVLB  0
06812:  CALL   4CA0
....................       SendDataDisplay(); 
06816:  CALL   3CD8
....................    }else if(ACiclos[i]==2){ 
0681A:  BRA    6DFA
0681C:  MOVLB  3
0681E:  MOVLW  21
06820:  ADDWF  x8C,W
06822:  MOVWF  FE9
06824:  MOVLW  04
06826:  ADDWFC x8D,W
06828:  MOVWF  FEA
0682A:  MOVF   FEF,W
0682C:  SUBLW  02
0682E:  BNZ   687C
....................       printf("A%Lu.txt=\"Puerta S\"",i+1); 
06830:  MOVLW  01
06832:  ADDWF  x8C,W
06834:  MOVLB  4
06836:  MOVWF  x50
06838:  MOVLW  00
0683A:  MOVLB  3
0683C:  ADDWFC x8D,W
0683E:  MOVLB  4
06840:  MOVWF  x51
06842:  MOVLW  41
06844:  BTFSS  F9E.4
06846:  BRA    6844
06848:  MOVWF  FAD
0684A:  MOVLW  10
0684C:  MOVWF  FE9
0684E:  MOVFF  451,457
06852:  MOVFF  450,456
06856:  MOVLB  0
06858:  CALL   573A
0685C:  MOVLW  1C
0685E:  MOVWF  FF6
06860:  MOVLW  02
06862:  MOVWF  FF7
06864:  MOVLW  00
06866:  MOVWF  FF8
06868:  MOVLW  0F
0686A:  MOVLB  4
0686C:  MOVWF  x56
0686E:  MOVLB  0
06870:  CALL   4CA0
....................       SendDataDisplay(); 
06874:  CALL   3CD8
....................    }else if(ACiclos[i]==3){ 
06878:  BRA    6DFA
0687A:  MOVLB  3
0687C:  MOVLW  21
0687E:  ADDWF  x8C,W
06880:  MOVWF  FE9
06882:  MOVLW  04
06884:  ADDWFC x8D,W
06886:  MOVWF  FEA
06888:  MOVF   FEF,W
0688A:  SUBLW  03
0688C:  BNZ   68DA
....................       printf("A%Lu.txt=\"Termostato\"",i+1); 
0688E:  MOVLW  01
06890:  ADDWF  x8C,W
06892:  MOVLB  4
06894:  MOVWF  x50
06896:  MOVLW  00
06898:  MOVLB  3
0689A:  ADDWFC x8D,W
0689C:  MOVLB  4
0689E:  MOVWF  x51
068A0:  MOVLW  41
068A2:  BTFSS  F9E.4
068A4:  BRA    68A2
068A6:  MOVWF  FAD
068A8:  MOVLW  10
068AA:  MOVWF  FE9
068AC:  MOVFF  451,457
068B0:  MOVFF  450,456
068B4:  MOVLB  0
068B6:  CALL   573A
068BA:  MOVLW  30
068BC:  MOVWF  FF6
068BE:  MOVLW  02
068C0:  MOVWF  FF7
068C2:  MOVLW  00
068C4:  MOVWF  FF8
068C6:  MOVLW  11
068C8:  MOVLB  4
068CA:  MOVWF  x56
068CC:  MOVLB  0
068CE:  CALL   4CA0
....................       SendDataDisplay(); 
068D2:  CALL   3CD8
....................    }else if(ACiclos[i]==4){ 
068D6:  BRA    6DFA
068D8:  MOVLB  3
068DA:  MOVLW  21
068DC:  ADDWF  x8C,W
068DE:  MOVWF  FE9
068E0:  MOVLW  04
068E2:  ADDWFC x8D,W
068E4:  MOVWF  FEA
068E6:  MOVF   FEF,W
068E8:  SUBLW  04
068EA:  BNZ   6938
....................       printf("A%Lu.txt=\"SobreT\"",i+1); 
068EC:  MOVLW  01
068EE:  ADDWF  x8C,W
068F0:  MOVLB  4
068F2:  MOVWF  x50
068F4:  MOVLW  00
068F6:  MOVLB  3
068F8:  ADDWFC x8D,W
068FA:  MOVLB  4
068FC:  MOVWF  x51
068FE:  MOVLW  41
06900:  BTFSS  F9E.4
06902:  BRA    6900
06904:  MOVWF  FAD
06906:  MOVLW  10
06908:  MOVWF  FE9
0690A:  MOVFF  451,457
0690E:  MOVFF  450,456
06912:  MOVLB  0
06914:  CALL   573A
06918:  MOVLW  46
0691A:  MOVWF  FF6
0691C:  MOVLW  02
0691E:  MOVWF  FF7
06920:  MOVLW  00
06922:  MOVWF  FF8
06924:  MOVLW  0D
06926:  MOVLB  4
06928:  MOVWF  x56
0692A:  MOVLB  0
0692C:  CALL   4CA0
....................       SendDataDisplay(); 
06930:  CALL   3CD8
....................    }else if(ACiclos[i]==5){ 
06934:  BRA    6DFA
06936:  MOVLB  3
06938:  MOVLW  21
0693A:  ADDWF  x8C,W
0693C:  MOVWF  FE9
0693E:  MOVLW  04
06940:  ADDWFC x8D,W
06942:  MOVWF  FEA
06944:  MOVF   FEF,W
06946:  SUBLW  05
06948:  BNZ   6996
....................       printf("A%Lu.txt=\"Tiempo\"",i+1); 
0694A:  MOVLW  01
0694C:  ADDWF  x8C,W
0694E:  MOVLB  4
06950:  MOVWF  x50
06952:  MOVLW  00
06954:  MOVLB  3
06956:  ADDWFC x8D,W
06958:  MOVLB  4
0695A:  MOVWF  x51
0695C:  MOVLW  41
0695E:  BTFSS  F9E.4
06960:  BRA    695E
06962:  MOVWF  FAD
06964:  MOVLW  10
06966:  MOVWF  FE9
06968:  MOVFF  451,457
0696C:  MOVFF  450,456
06970:  MOVLB  0
06972:  CALL   573A
06976:  MOVLW  58
06978:  MOVWF  FF6
0697A:  MOVLW  02
0697C:  MOVWF  FF7
0697E:  MOVLW  00
06980:  MOVWF  FF8
06982:  MOVLW  0D
06984:  MOVLB  4
06986:  MOVWF  x56
06988:  MOVLB  0
0698A:  CALL   4CA0
....................       SendDataDisplay(); 
0698E:  CALL   3CD8
....................    }else if(ACiclos[i]==6){ 
06992:  BRA    6DFA
06994:  MOVLB  3
06996:  MOVLW  21
06998:  ADDWF  x8C,W
0699A:  MOVWF  FE9
0699C:  MOVLW  04
0699E:  ADDWFC x8D,W
069A0:  MOVWF  FEA
069A2:  MOVF   FEF,W
069A4:  SUBLW  06
069A6:  BNZ   69F4
....................       printf("A%Lu.txt=\"Presion\"",i+1); 
069A8:  MOVLW  01
069AA:  ADDWF  x8C,W
069AC:  MOVLB  4
069AE:  MOVWF  x50
069B0:  MOVLW  00
069B2:  MOVLB  3
069B4:  ADDWFC x8D,W
069B6:  MOVLB  4
069B8:  MOVWF  x51
069BA:  MOVLW  41
069BC:  BTFSS  F9E.4
069BE:  BRA    69BC
069C0:  MOVWF  FAD
069C2:  MOVLW  10
069C4:  MOVWF  FE9
069C6:  MOVFF  451,457
069CA:  MOVFF  450,456
069CE:  MOVLB  0
069D0:  CALL   573A
069D4:  MOVLW  6A
069D6:  MOVWF  FF6
069D8:  MOVLW  02
069DA:  MOVWF  FF7
069DC:  MOVLW  00
069DE:  MOVWF  FF8
069E0:  MOVLW  0E
069E2:  MOVLB  4
069E4:  MOVWF  x56
069E6:  MOVLB  0
069E8:  CALL   4CA0
....................       SendDataDisplay(); 
069EC:  CALL   3CD8
....................    }else if(ACiclos[i]==7){ 
069F0:  BRA    6DFA
069F2:  MOVLB  3
069F4:  MOVLW  21
069F6:  ADDWF  x8C,W
069F8:  MOVWF  FE9
069FA:  MOVLW  04
069FC:  ADDWFC x8D,W
069FE:  MOVWF  FEA
06A00:  MOVF   FEF,W
06A02:  SUBLW  07
06A04:  BNZ   6A52
....................       printf("A%Lu.txt=\"ERR Ciclo\"",i+1); 
06A06:  MOVLW  01
06A08:  ADDWF  x8C,W
06A0A:  MOVLB  4
06A0C:  MOVWF  x50
06A0E:  MOVLW  00
06A10:  MOVLB  3
06A12:  ADDWFC x8D,W
06A14:  MOVLB  4
06A16:  MOVWF  x51
06A18:  MOVLW  41
06A1A:  BTFSS  F9E.4
06A1C:  BRA    6A1A
06A1E:  MOVWF  FAD
06A20:  MOVLW  10
06A22:  MOVWF  FE9
06A24:  MOVFF  451,457
06A28:  MOVFF  450,456
06A2C:  MOVLB  0
06A2E:  CALL   573A
06A32:  MOVLW  7E
06A34:  MOVWF  FF6
06A36:  MOVLW  02
06A38:  MOVWF  FF7
06A3A:  MOVLW  00
06A3C:  MOVWF  FF8
06A3E:  MOVLW  10
06A40:  MOVLB  4
06A42:  MOVWF  x56
06A44:  MOVLB  0
06A46:  CALL   4CA0
....................       SendDataDisplay(); 
06A4A:  CALL   3CD8
....................    }else if(ACiclos[i]==8){ 
06A4E:  BRA    6DFA
06A50:  MOVLB  3
06A52:  MOVLW  21
06A54:  ADDWF  x8C,W
06A56:  MOVWF  FE9
06A58:  MOVLW  04
06A5A:  ADDWFC x8D,W
06A5C:  MOVWF  FEA
06A5E:  MOVF   FEF,W
06A60:  SUBLW  08
06A62:  BNZ   6AB0
....................       printf("A%Lu.txt=\"Llenado\"",i+1); 
06A64:  MOVLW  01
06A66:  ADDWF  x8C,W
06A68:  MOVLB  4
06A6A:  MOVWF  x50
06A6C:  MOVLW  00
06A6E:  MOVLB  3
06A70:  ADDWFC x8D,W
06A72:  MOVLB  4
06A74:  MOVWF  x51
06A76:  MOVLW  41
06A78:  BTFSS  F9E.4
06A7A:  BRA    6A78
06A7C:  MOVWF  FAD
06A7E:  MOVLW  10
06A80:  MOVWF  FE9
06A82:  MOVFF  451,457
06A86:  MOVFF  450,456
06A8A:  MOVLB  0
06A8C:  CALL   573A
06A90:  MOVLW  94
06A92:  MOVWF  FF6
06A94:  MOVLW  02
06A96:  MOVWF  FF7
06A98:  MOVLW  00
06A9A:  MOVWF  FF8
06A9C:  MOVLW  0E
06A9E:  MOVLB  4
06AA0:  MOVWF  x56
06AA2:  MOVLB  0
06AA4:  CALL   4CA0
....................       SendDataDisplay(); 
06AA8:  CALL   3CD8
....................    }else if(ACiclos[i]==9){ 
06AAC:  BRA    6DFA
06AAE:  MOVLB  3
06AB0:  MOVLW  21
06AB2:  ADDWF  x8C,W
06AB4:  MOVWF  FE9
06AB6:  MOVLW  04
06AB8:  ADDWFC x8D,W
06ABA:  MOVWF  FEA
06ABC:  MOVF   FEF,W
06ABE:  SUBLW  09
06AC0:  BNZ   6B0E
....................       printf("A%Lu.txt=\"Puerta L\"",i+1); 
06AC2:  MOVLW  01
06AC4:  ADDWF  x8C,W
06AC6:  MOVLB  4
06AC8:  MOVWF  x50
06ACA:  MOVLW  00
06ACC:  MOVLB  3
06ACE:  ADDWFC x8D,W
06AD0:  MOVLB  4
06AD2:  MOVWF  x51
06AD4:  MOVLW  41
06AD6:  BTFSS  F9E.4
06AD8:  BRA    6AD6
06ADA:  MOVWF  FAD
06ADC:  MOVLW  10
06ADE:  MOVWF  FE9
06AE0:  MOVFF  451,457
06AE4:  MOVFF  450,456
06AE8:  MOVLB  0
06AEA:  CALL   573A
06AEE:  MOVLW  A8
06AF0:  MOVWF  FF6
06AF2:  MOVLW  02
06AF4:  MOVWF  FF7
06AF6:  MOVLW  00
06AF8:  MOVWF  FF8
06AFA:  MOVLW  0F
06AFC:  MOVLB  4
06AFE:  MOVWF  x56
06B00:  MOVLB  0
06B02:  CALL   4CA0
....................       SendDataDisplay(); 
06B06:  CALL   3CD8
....................    }else if(ACiclos[i]==10){ 
06B0A:  BRA    6DFA
06B0C:  MOVLB  3
06B0E:  MOVLW  21
06B10:  ADDWF  x8C,W
06B12:  MOVWF  FE9
06B14:  MOVLW  04
06B16:  ADDWFC x8D,W
06B18:  MOVWF  FEA
06B1A:  MOVF   FEF,W
06B1C:  SUBLW  0A
06B1E:  BNZ   6B6C
....................       printf("A%Lu.txt=\"Llenando\"",i+1); 
06B20:  MOVLW  01
06B22:  ADDWF  x8C,W
06B24:  MOVLB  4
06B26:  MOVWF  x50
06B28:  MOVLW  00
06B2A:  MOVLB  3
06B2C:  ADDWFC x8D,W
06B2E:  MOVLB  4
06B30:  MOVWF  x51
06B32:  MOVLW  41
06B34:  BTFSS  F9E.4
06B36:  BRA    6B34
06B38:  MOVWF  FAD
06B3A:  MOVLW  10
06B3C:  MOVWF  FE9
06B3E:  MOVFF  451,457
06B42:  MOVFF  450,456
06B46:  MOVLB  0
06B48:  CALL   573A
06B4C:  MOVLW  BC
06B4E:  MOVWF  FF6
06B50:  MOVLW  02
06B52:  MOVWF  FF7
06B54:  MOVLW  00
06B56:  MOVWF  FF8
06B58:  MOVLW  0F
06B5A:  MOVLB  4
06B5C:  MOVWF  x56
06B5E:  MOVLB  0
06B60:  CALL   4CA0
....................       SendDataDisplay(); 
06B64:  CALL   3CD8
....................    }else if(ACiclos[i]==11){ 
06B68:  BRA    6DFA
06B6A:  MOVLB  3
06B6C:  MOVLW  21
06B6E:  ADDWF  x8C,W
06B70:  MOVWF  FE9
06B72:  MOVLW  04
06B74:  ADDWFC x8D,W
06B76:  MOVWF  FEA
06B78:  MOVF   FEF,W
06B7A:  SUBLW  0B
06B7C:  BNZ   6BCA
....................       printf("A%Lu.txt=\"Vacio\"",i+1); 
06B7E:  MOVLW  01
06B80:  ADDWF  x8C,W
06B82:  MOVLB  4
06B84:  MOVWF  x50
06B86:  MOVLW  00
06B88:  MOVLB  3
06B8A:  ADDWFC x8D,W
06B8C:  MOVLB  4
06B8E:  MOVWF  x51
06B90:  MOVLW  41
06B92:  BTFSS  F9E.4
06B94:  BRA    6B92
06B96:  MOVWF  FAD
06B98:  MOVLW  10
06B9A:  MOVWF  FE9
06B9C:  MOVFF  451,457
06BA0:  MOVFF  450,456
06BA4:  MOVLB  0
06BA6:  CALL   573A
06BAA:  MOVLW  D0
06BAC:  MOVWF  FF6
06BAE:  MOVLW  02
06BB0:  MOVWF  FF7
06BB2:  MOVLW  00
06BB4:  MOVWF  FF8
06BB6:  MOVLW  0C
06BB8:  MOVLB  4
06BBA:  MOVWF  x56
06BBC:  MOVLB  0
06BBE:  CALL   4CA0
....................       SendDataDisplay(); 
06BC2:  CALL   3CD8
....................    }else if(ACiclos[i]==12){ 
06BC6:  BRA    6DFA
06BC8:  MOVLB  3
06BCA:  MOVLW  21
06BCC:  ADDWF  x8C,W
06BCE:  MOVWF  FE9
06BD0:  MOVLW  04
06BD2:  ADDWFC x8D,W
06BD4:  MOVWF  FEA
06BD6:  MOVF   FEF,W
06BD8:  SUBLW  0C
06BDA:  BNZ   6C28
....................       printf("A%Lu.txt=\"Calen\"",i+1); 
06BDC:  MOVLW  01
06BDE:  ADDWF  x8C,W
06BE0:  MOVLB  4
06BE2:  MOVWF  x50
06BE4:  MOVLW  00
06BE6:  MOVLB  3
06BE8:  ADDWFC x8D,W
06BEA:  MOVLB  4
06BEC:  MOVWF  x51
06BEE:  MOVLW  41
06BF0:  BTFSS  F9E.4
06BF2:  BRA    6BF0
06BF4:  MOVWF  FAD
06BF6:  MOVLW  10
06BF8:  MOVWF  FE9
06BFA:  MOVFF  451,457
06BFE:  MOVFF  450,456
06C02:  MOVLB  0
06C04:  CALL   573A
06C08:  MOVLW  E2
06C0A:  MOVWF  FF6
06C0C:  MOVLW  02
06C0E:  MOVWF  FF7
06C10:  MOVLW  00
06C12:  MOVWF  FF8
06C14:  MOVLW  0C
06C16:  MOVLB  4
06C18:  MOVWF  x56
06C1A:  MOVLB  0
06C1C:  CALL   4CA0
....................       SendDataDisplay(); 
06C20:  CALL   3CD8
....................    }else if(ACiclos[i]==13){ 
06C24:  BRA    6DFA
06C26:  MOVLB  3
06C28:  MOVLW  21
06C2A:  ADDWF  x8C,W
06C2C:  MOVWF  FE9
06C2E:  MOVLW  04
06C30:  ADDWFC x8D,W
06C32:  MOVWF  FEA
06C34:  MOVF   FEF,W
06C36:  SUBLW  0D
06C38:  BNZ   6C86
....................       printf("A%Lu.txt=\"Desfoga\"",i+1); 
06C3A:  MOVLW  01
06C3C:  ADDWF  x8C,W
06C3E:  MOVLB  4
06C40:  MOVWF  x50
06C42:  MOVLW  00
06C44:  MOVLB  3
06C46:  ADDWFC x8D,W
06C48:  MOVLB  4
06C4A:  MOVWF  x51
06C4C:  MOVLW  41
06C4E:  BTFSS  F9E.4
06C50:  BRA    6C4E
06C52:  MOVWF  FAD
06C54:  MOVLW  10
06C56:  MOVWF  FE9
06C58:  MOVFF  451,457
06C5C:  MOVFF  450,456
06C60:  MOVLB  0
06C62:  CALL   573A
06C66:  MOVLW  F4
06C68:  MOVWF  FF6
06C6A:  MOVLW  02
06C6C:  MOVWF  FF7
06C6E:  MOVLW  00
06C70:  MOVWF  FF8
06C72:  MOVLW  0E
06C74:  MOVLB  4
06C76:  MOVWF  x56
06C78:  MOVLB  0
06C7A:  CALL   4CA0
....................       SendDataDisplay(); 
06C7E:  CALL   3CD8
....................    }else if(ACiclos[i]==14){ 
06C82:  BRA    6DFA
06C84:  MOVLB  3
06C86:  MOVLW  21
06C88:  ADDWF  x8C,W
06C8A:  MOVWF  FE9
06C8C:  MOVLW  04
06C8E:  ADDWFC x8D,W
06C90:  MOVWF  FEA
06C92:  MOVF   FEF,W
06C94:  SUBLW  0E
06C96:  BNZ   6CE4
....................       printf("A%Lu.txt=\"Finalizado\"",i+1); 
06C98:  MOVLW  01
06C9A:  ADDWF  x8C,W
06C9C:  MOVLB  4
06C9E:  MOVWF  x50
06CA0:  MOVLW  00
06CA2:  MOVLB  3
06CA4:  ADDWFC x8D,W
06CA6:  MOVLB  4
06CA8:  MOVWF  x51
06CAA:  MOVLW  41
06CAC:  BTFSS  F9E.4
06CAE:  BRA    6CAC
06CB0:  MOVWF  FAD
06CB2:  MOVLW  10
06CB4:  MOVWF  FE9
06CB6:  MOVFF  451,457
06CBA:  MOVFF  450,456
06CBE:  MOVLB  0
06CC0:  CALL   573A
06CC4:  MOVLW  08
06CC6:  MOVWF  FF6
06CC8:  MOVLW  03
06CCA:  MOVWF  FF7
06CCC:  MOVLW  00
06CCE:  MOVWF  FF8
06CD0:  MOVLW  11
06CD2:  MOVLB  4
06CD4:  MOVWF  x56
06CD6:  MOVLB  0
06CD8:  CALL   4CA0
....................       SendDataDisplay(); 
06CDC:  CALL   3CD8
....................    }else if(ACiclos[i]==15){ 
06CE0:  BRA    6DFA
06CE2:  MOVLB  3
06CE4:  MOVLW  21
06CE6:  ADDWF  x8C,W
06CE8:  MOVWF  FE9
06CEA:  MOVLW  04
06CEC:  ADDWFC x8D,W
06CEE:  MOVWF  FEA
06CF0:  MOVF   FEF,W
06CF2:  SUBLW  0F
06CF4:  BNZ   6D42
....................       printf("A%Lu.txt=\"Secando\"",i+1); 
06CF6:  MOVLW  01
06CF8:  ADDWF  x8C,W
06CFA:  MOVLB  4
06CFC:  MOVWF  x50
06CFE:  MOVLW  00
06D00:  MOVLB  3
06D02:  ADDWFC x8D,W
06D04:  MOVLB  4
06D06:  MOVWF  x51
06D08:  MOVLW  41
06D0A:  BTFSS  F9E.4
06D0C:  BRA    6D0A
06D0E:  MOVWF  FAD
06D10:  MOVLW  10
06D12:  MOVWF  FE9
06D14:  MOVFF  451,457
06D18:  MOVFF  450,456
06D1C:  MOVLB  0
06D1E:  CALL   573A
06D22:  MOVLW  1E
06D24:  MOVWF  FF6
06D26:  MOVLW  03
06D28:  MOVWF  FF7
06D2A:  MOVLW  00
06D2C:  MOVWF  FF8
06D2E:  MOVLW  0E
06D30:  MOVLB  4
06D32:  MOVWF  x56
06D34:  MOVLB  0
06D36:  CALL   4CA0
....................       SendDataDisplay(); 
06D3A:  CALL   3CD8
....................    }else if(ACiclos[i]==16){ 
06D3E:  BRA    6DFA
06D40:  MOVLB  3
06D42:  MOVLW  21
06D44:  ADDWF  x8C,W
06D46:  MOVWF  FE9
06D48:  MOVLW  04
06D4A:  ADDWFC x8D,W
06D4C:  MOVWF  FEA
06D4E:  MOVF   FEF,W
06D50:  SUBLW  10
06D52:  BNZ   6DA0
....................       printf("A%Lu.txt=\"Esterilizando\"",i+1); 
06D54:  MOVLW  01
06D56:  ADDWF  x8C,W
06D58:  MOVLB  4
06D5A:  MOVWF  x50
06D5C:  MOVLW  00
06D5E:  MOVLB  3
06D60:  ADDWFC x8D,W
06D62:  MOVLB  4
06D64:  MOVWF  x51
06D66:  MOVLW  41
06D68:  BTFSS  F9E.4
06D6A:  BRA    6D68
06D6C:  MOVWF  FAD
06D6E:  MOVLW  10
06D70:  MOVWF  FE9
06D72:  MOVFF  451,457
06D76:  MOVFF  450,456
06D7A:  MOVLB  0
06D7C:  CALL   573A
06D80:  MOVLW  32
06D82:  MOVWF  FF6
06D84:  MOVLW  03
06D86:  MOVWF  FF7
06D88:  MOVLW  00
06D8A:  MOVWF  FF8
06D8C:  MOVLW  14
06D8E:  MOVLB  4
06D90:  MOVWF  x56
06D92:  MOVLB  0
06D94:  CALL   4CA0
....................       SendDataDisplay(); 
06D98:  CALL   3CD8
....................    }else if(ACiclos[i]==17){ 
06D9C:  BRA    6DFA
06D9E:  MOVLB  3
06DA0:  MOVLW  21
06DA2:  ADDWF  x8C,W
06DA4:  MOVWF  FE9
06DA6:  MOVLW  04
06DA8:  ADDWFC x8D,W
06DAA:  MOVWF  FEA
06DAC:  MOVF   FEF,W
06DAE:  SUBLW  11
06DB0:  BNZ   6DFC
....................       printf("A%Lu.txt=\"Enfriando\"",i+1); 
06DB2:  MOVLW  01
06DB4:  ADDWF  x8C,W
06DB6:  MOVLB  4
06DB8:  MOVWF  x50
06DBA:  MOVLW  00
06DBC:  MOVLB  3
06DBE:  ADDWFC x8D,W
06DC0:  MOVLB  4
06DC2:  MOVWF  x51
06DC4:  MOVLW  41
06DC6:  BTFSS  F9E.4
06DC8:  BRA    6DC6
06DCA:  MOVWF  FAD
06DCC:  MOVLW  10
06DCE:  MOVWF  FE9
06DD0:  MOVFF  451,457
06DD4:  MOVFF  450,456
06DD8:  MOVLB  0
06DDA:  CALL   573A
06DDE:  MOVLW  4C
06DE0:  MOVWF  FF6
06DE2:  MOVLW  03
06DE4:  MOVWF  FF7
06DE6:  MOVLW  00
06DE8:  MOVWF  FF8
06DEA:  MOVLW  10
06DEC:  MOVLB  4
06DEE:  MOVWF  x56
06DF0:  MOVLB  0
06DF2:  CALL   4CA0
....................       SendDataDisplay(); 
06DF6:  CALL   3CD8
06DFA:  MOVLB  3
....................    } 
.................... } 
06DFC:  MOVLB  0
06DFE:  GOTO   CE4E (RETURN)
....................  
.................... void enciendeBombaAgua(){ 
....................    if(tBombaAgua>120){//Enciende 120 segundos 
*
04B0E:  MOVLB  3
04B10:  MOVF   x89,F
04B12:  BNZ   4B1A
04B14:  MOVF   x88,W
04B16:  SUBLW  78
04B18:  BC    4B3A
....................       Agua_off; 
04B1A:  BSF    F8B.2
04B1C:  BCF    F94.2
....................       Bomba_off; 
04B1E:  BSF    F8B.0
04B20:  BCF    F94.0
....................       flagBombaAgua=OFF; 
04B22:  MOVLB  0
04B24:  BCF    xAC.6
....................       flagBombaAguaOff=ON; 
04B26:  BSF    xAC.7
....................       if(tBombaAguaOff>=60){//Apaga 60 segundos 
04B28:  MOVLB  3
04B2A:  MOVF   x8B,F
04B2C:  BNZ   4B34
04B2E:  MOVF   x8A,W
04B30:  SUBLW  3B
04B32:  BC    4B38
....................          tBombaAgua=0; 
04B34:  CLRF   x89
04B36:  CLRF   x88
....................       } 
....................    }else{ 
04B38:  BRA    4B4E
....................       Agua_on; 
04B3A:  BCF    F8B.2
04B3C:  BCF    F94.2
....................       Bomba_on; 
04B3E:  BCF    F8B.0
04B40:  BCF    F94.0
....................       flagBombaAgua=ON; 
04B42:  MOVLB  0
04B44:  BSF    xAC.6
....................       flagBombaAguaOff=OFF; 
04B46:  BCF    xAC.7
....................       tBombaAguaOff=0; 
04B48:  MOVLB  3
04B4A:  CLRF   x8B
04B4C:  CLRF   x8A
....................    } 
.................... } 
04B4E:  MOVLB  0
04B50:  RETLW  00
....................  
.................... void apagaBombaAgua(){ 
....................    Agua_off; 
04B52:  BSF    F8B.2
04B54:  BCF    F94.2
....................    Bomba_off; 
04B56:  BSF    F8B.0
04B58:  BCF    F94.0
....................    flagBombaAgua=OFF; 
04B5A:  BCF    xAC.6
....................    flagBombaAguaOff=OFF; 
04B5C:  BCF    xAC.7
....................    tBombaAguaOff=0; 
04B5E:  MOVLB  3
04B60:  CLRF   x8B
04B62:  CLRF   x8A
....................    tBombaAgua=0; 
04B64:  CLRF   x89
04B66:  CLRF   x88
.................... } 
04B68:  MOVLB  0
04B6A:  RETLW  00
....................  
....................  
.................... void ConfiguraCiclo(int8 este0,este1,este2,este3,secado0,secado1,secado2,secado3,liquidos,ciclo,temperatura){ 
....................    Testerilizacionp[0]=este0;Testerilizacionp[1]=este1;Testerilizacionp[2]=este2;Testerilizacionp[3]=este3; 
*
0567A:  MOVFF  45A,BE
0567E:  MOVFF  45B,BF
05682:  MOVFF  45C,C0
05686:  MOVFF  45D,C1
....................    Tsecadop[0]=secado0;Tsecadop[1]=secado1;Tsecadop[2]=secado2;Tsecadop[3]=secado3; 
0568A:  MOVFF  45E,C7
0568E:  MOVFF  45F,C8
05692:  MOVFF  460,C9
05696:  MOVFF  461,CA
....................    Setpoint=temperatura;                
0569A:  MOVFF  464,36E
....................    tiempo_secado=0; 
0569E:  MOVLB  3
056A0:  CLRF   x72
....................    desfoguelento=liquidos; 
056A2:  BCF    x5D.0
056A4:  MOVLB  4
056A6:  BTFSS  x62.0
056A8:  BRA    56B0
056AA:  MOVLB  3
056AC:  BSF    x5D.0
056AE:  MOVLB  4
....................    CicloSeleccionado=ciclo; 
056B0:  MOVFF  463,36D
....................    Testerilizacion[0]=Testerilizacionp[0];Testerilizacion[1]=Testerilizacionp[1];Testerilizacion[2]=Testerilizacionp[2]; 
056B4:  MOVFF  BE,B9
056B8:  MOVFF  BF,BA
056BC:  MOVFF  C0,BB
....................    Testerilizacion[3]=Testerilizacionp[3];Testerilizacion[4]=Testerilizacionp[4]; 
056C0:  MOVFF  C1,BC
056C4:  MOVFF  C2,BD
....................    Tsecado[0]=Tsecadop[0];Tsecado[1]=Tsecadop[1];Tsecado[2]=Tsecadop[2];Tsecado[3]=Tsecadop[3]; 
056C8:  MOVFF  C7,C3
056CC:  MOVFF  C8,C4
056D0:  MOVFF  C9,C5
056D4:  MOVFF  CA,C6
....................    sEst=este0+(este1*10); 
056D8:  MOVF   x5B,W
056DA:  MULLW  0A
056DC:  MOVF   FF3,W
056DE:  ADDWF  x5A,W
056E0:  MOVLB  3
056E2:  MOVWF  xB3
....................    mEst=este2+(este3*10); 
056E4:  MOVLB  4
056E6:  MOVF   x5D,W
056E8:  MULLW  0A
056EA:  MOVF   FF3,W
056EC:  ADDWF  x5C,W
056EE:  MOVLB  3
056F0:  MOVWF  xB2
....................    sSec=secado0+(secado1*10); 
056F2:  MOVLB  4
056F4:  MOVF   x5F,W
056F6:  MULLW  0A
056F8:  MOVF   FF3,W
056FA:  ADDWF  x5E,W
056FC:  MOVLB  3
056FE:  MOVWF  xB5
....................    mSec=secado2+(secado3*10); 
05700:  MOVLB  4
05702:  MOVF   x61,W
05704:  MULLW  0A
05706:  MOVF   FF3,W
05708:  ADDWF  x60,W
0570A:  MOVLB  3
0570C:  MOVWF  xB4
....................    if(!borra){ 
0570E:  MOVLB  0
05710:  BTFSC  xA8.0
05712:  BRA    5718
....................       borraDatoCiclo(); 
05714:  BRA    512A
....................       borra=ON; 
05716:  BSF    xA8.0
....................    } 
....................    Imprime=15; 
05718:  MOVLW  0F
0571A:  MOVLB  3
0571C:  MOVWF  xBE
....................    Envio_Esclavos(); 
0571E:  MOVLB  0
05720:  CALL   4A76
....................    delay_ms(100); 
05724:  MOVLW  64
05726:  MOVLB  4
05728:  MOVWF  x69
0572A:  MOVLB  0
0572C:  CALL   1B4A
....................    Imprime=10; 
05730:  MOVLW  0A
05732:  MOVLB  3
05734:  MOVWF  xBE
.................... } 
05736:  MOVLB  0
05738:  RETLW  00
....................  
....................  
.................... #int_rda HIGH 
.................... void serial_rx_isr(){ 
....................  
....................    Dato2=fgetc(); 
*
0035E:  BTFSS  F9E.5
00360:  BRA    035E
00362:  MOVFF  FAE,366
00366:  MOVLB  3
....................    if(Dato2==0x65){//Inicio Comunicacion 
00368:  MOVF   x66,W
0036A:  SUBLW  65
0036C:  BNZ   0374
....................       Inicio=1; 
0036E:  MOVLW  01
00370:  MOVWF  x64
....................       RX_Wr_Index =0; 
00372:  CLRF   46
....................    } 
....................    //Inicio=1; 
....................    if(Inicio==1){ 
00374:  DECFSZ x64,W
00376:  BRA    038C
....................       Rx_Buffer2[RX_Wr_Index] = Dato2; 
00378:  CLRF   03
0037A:  MOVF   46,W
0037C:  ADDLW  3B
0037E:  MOVWF  FE9
00380:  MOVLW  00
00382:  ADDWFC 03,W
00384:  MOVWF  FEA
00386:  MOVFF  366,FEF
....................       RX_Wr_Index++; 
0038A:  INCF   46,F
....................    } 
....................    if(RX_Wr_Index >= RX_BUFFER_SIZE){ 
0038C:  MOVF   46,W
0038E:  SUBLW  09
00390:  BC    0396
....................       RX_Wr_Index =0; 
00392:  CLRF   46
....................       Inicio=0; 
00394:  CLRF   x64
....................    } 
....................  
....................    if(RX_Wr_Index==0){ 
00396:  MOVF   46,F
00398:  BNZ   03BA
....................       if(Rx_Buffer2[0]==0x65 && Rx_Buffer2[1]==0xff && Rx_Buffer2[2]==0xff && Rx_Buffer2[8]==0x00 && Rx_Buffer2[9]==0xff ){ 
0039A:  MOVF   3B,W
0039C:  SUBLW  65
0039E:  BNZ   03B6
003A0:  INCFSZ 3C,W
003A2:  BRA    03B6
003A4:  INCFSZ 3D,W
003A6:  BRA    03B6
003A8:  MOVF   43,F
003AA:  BNZ   03B6
003AC:  INCFSZ 44,W
003AE:  BRA    03B6
....................          Dato_Exitoso=5; 
003B0:  MOVLW  05
003B2:  MOVWF  x65
....................       }else{ 
003B4:  BRA    03BA
....................          Dato_Exitoso=10; 
003B6:  MOVLW  0A
003B8:  MOVWF  x65
....................       } 
....................    } 
....................    //Dato_Exitoso=5; 
....................    if(Menu==20) 
003BA:  MOVF   x68,W
003BC:  SUBLW  14
003BE:  BNZ   03C4
....................      Buzzer_on; 
003C0:  BSF    F8C.7
003C2:  BCF    F95.7
.................... } 
....................  
003C4:  BCF    F9E.5
003C6:  MOVLB  0
003C8:  GOTO   010A
.................... #int_TIMER0 
.................... void temp0s(void){ 
....................    set_timer0(0); 
003CC:  CLRF   FD7
003CE:  CLRF   FD6
....................    t_exhaust++; 
003D0:  MOVLB  3
003D2:  INCF   x9F,F
003D4:  BTFSC  FD8.2
003D6:  INCF   xA0,F
....................    if(DesfogueSuave){ 
003D8:  MOVLB  0
003DA:  BTFSS  xA9.0
003DC:  BRA    041E
....................       if(Nivel<6){ 
003DE:  MOVLB  3
003E0:  MOVF   x7D,F
003E2:  BNZ   0418
003E4:  MOVF   x7C,W
003E6:  SUBLW  05
003E8:  BNC   0418
....................          if(t_exhaust<=NivelSeleccionado) // Si el tiempo es menor o igual al tiempo de control se enciende la resistencia de lo contrario se apaga. 
003EA:  MOVF   xA0,W
003EC:  SUBWF  x87,W
003EE:  BNC   03FE
003F0:  BNZ   03F8
003F2:  MOVF   x9F,W
003F4:  SUBWF  x86,W
003F6:  BNC   03FE
....................             Desfogue_on; 
003F8:  BCF    F8B.1
003FA:  BCF    F94.1
....................          else             
003FC:  BRA    0402
....................             Desfogue_off; 
003FE:  BSF    F8B.1
00400:  BCF    F94.1
....................        
....................          if(t_exhaust>=60000) // Si el tiempo de control es mayor al tiempo de ciclo se reinicia tiempo de control          
00402:  MOVF   xA0,W
00404:  SUBLW  E9
00406:  BC    0416
00408:  XORLW  FF
0040A:  BNZ   0412
0040C:  MOVF   x9F,W
0040E:  SUBLW  5F
00410:  BC    0416
....................             t_exhaust=0; // tiempoctrl incrementa una unidad cada Xms, por eso se dividen los tiempos por 0.005. 
00412:  CLRF   xA0
00414:  CLRF   x9F
....................       }else{ 
00416:  BRA    041C
....................          Desfogue_on; 
00418:  BCF    F8B.1
0041A:  BCF    F94.1
0041C:  MOVLB  0
....................       } 
....................    }   
.................... } 
....................  
0041E:  BCF    FF2.2
00420:  GOTO   0074
.................... #int_TIMER1 
.................... void temp1s(void){ 
....................    set_timer1(40536); // Se repite cada 5ms 
00424:  MOVLW  9E
00426:  MOVWF  FCF
00428:  MOVLW  58
0042A:  MOVWF  FCE
....................    tiempos++; 
0042C:  MOVLB  3
0042E:  INCF   x74,F
00430:  BTFSC  FD8.2
00432:  INCF   x75,F
....................    tiempos2++; 
00434:  INCF   x76,F
00436:  BTFSC  FD8.2
00438:  INCF   x77,F
....................    tiempos3++; 
0043A:  INCF   x78,F
0043C:  BTFSC  FD8.2
0043E:  INCF   x79,F
....................    tiempoctrl++; 
00440:  INCF   x7A,F
00442:  BTFSC  FD8.2
00444:  INCF   x7B,F
....................     
....................    if(!STOP){ 
00446:  BSF    F93.5
00448:  BTFSS  F81.5
0044A:  BRA    0454
....................       tStop++; 
0044C:  INCF   xA7,F
0044E:  BTFSC  FD8.2
00450:  INCF   xA8,F
....................    }else{ 
00452:  BRA    0458
....................       tStop=0; 
00454:  CLRF   xA8
00456:  CLRF   xA7
....................    } 
....................     
....................    if(!TERM){ 
00458:  BSF    F93.4
0045A:  BTFSS  F81.4
0045C:  BRA    0466
....................       tTermostato++; 
0045E:  INCF   xA9,F
00460:  BTFSC  FD8.2
00462:  INCF   xAA,F
....................    }else{ 
00464:  BRA    046A
....................       tTermostato=0; 
00466:  CLRF   xAA
00468:  CLRF   xA9
....................    } 
....................     
....................    if(flagAlarma) 
0046A:  MOVLB  0
0046C:  BTFSS  xAB.3
0046E:  BRA    047A
....................       tbuzzer++; 
00470:  MOVLB  3
00472:  INCF   xA1,F
00474:  BTFSC  FD8.2
00476:  INCF   xA2,F
00478:  MOVLB  0
....................        
....................    if(flagSilencio)    
0047A:  BTFSS  xAB.5
0047C:  BRA    0486
....................       tsilencio++; 
0047E:  MOVLB  3
00480:  INCF   xA3,F
00482:  BTFSC  FD8.2
00484:  INCF   xA4,F
....................     
....................    if(Controlando==1){ 
00486:  MOVLB  3
00488:  DECFSZ x60,W
0048A:  BRA    04C8
....................       if(tiempoctrl<Tp) // Si el tiempo es menor o igual al tiempo de control se enciende la resistencia de lo contrario se apaga. 
0048C:  MOVF   x7B,W
0048E:  MOVLB  0
00490:  SUBWF  xB4,W
00492:  BNC   04AC
00494:  BNZ   04A6
00496:  MOVF   xB3,W
00498:  MOVLB  3
0049A:  SUBWF  x7A,W
0049C:  BTFSS  FD8.0
0049E:  BRA    04A4
004A0:  MOVLB  0
004A2:  BRA    04AC
004A4:  MOVLB  0
....................          SSR_on; 
004A6:  BSF    F8D.1
004A8:  BCF    F96.1
....................       else          
004AA:  BRA    04B0
....................          SSR_off; 
004AC:  BCF    F8D.1
004AE:  BCF    F96.1
....................              
....................       if(tiempoctrl>=Tc) // Si el tiempo de control es mayor al tiempo de ciclo se reinicia tiempo de control 
004B0:  MOVF   xB6,W
004B2:  MOVLB  3
004B4:  SUBWF  x7B,W
004B6:  BNC   04C8
004B8:  BNZ   04C4
004BA:  MOVLB  0
004BC:  MOVF   xB5,W
004BE:  MOVLB  3
004C0:  SUBWF  x7A,W
004C2:  BNC   04C8
....................          tiempoctrl=0;// tiempoctrl incrementa una unidad cada 5ms, por eso se dividen los tiempos por 0.005. 
004C4:  CLRF   x7B
004C6:  CLRF   x7A
....................    } 
....................     
....................    if(tiempos>=200)  // 12000 para que incremente cada minuto, 200para que incremente cada segundo. 
004C8:  MOVF   x75,F
004CA:  BNZ   04D4
004CC:  MOVF   x74,W
004CE:  SUBLW  C7
004D0:  BTFSC  FD8.0
004D2:  BRA    0612
....................    { 
....................       if(flagTC) 
004D4:  BTFSS  x5D.4
004D6:  BRA    04DA
....................          TiempoControl++; 
004D8:  INCF   x9C,F
....................        
....................       tiemporecta++; 
004DA:  INCF   x5F,F
....................        
....................       if(flagBombaAgua) 
004DC:  MOVLB  0
004DE:  BTFSS  xAC.6
004E0:  BRA    04EC
....................          tBombaAgua++; 
004E2:  MOVLB  3
004E4:  INCF   x88,F
004E6:  BTFSC  FD8.2
004E8:  INCF   x89,F
004EA:  MOVLB  0
....................        
....................       if(flagBombaAguaOff) 
004EC:  BTFSS  xAC.7
004EE:  BRA    04FA
....................          tBombaAguaOff++; 
004F0:  MOVLB  3
004F2:  INCF   x8A,F
004F4:  BTFSC  FD8.2
004F6:  INCF   x8B,F
004F8:  MOVLB  0
....................        
....................       if(IniciaCiclo && tiempoImpresion<CalculoImpresion){ 
004FA:  BTFSS  xA8.3
004FC:  BRA    0510
004FE:  MOVLB  3
00500:  MOVF   x63,W
00502:  SUBWF  x73,W
00504:  BTFSS  FD8.0
00506:  BRA    050C
00508:  MOVLB  0
0050A:  BRA    0510
....................          tiempoImpresion++; 
0050C:  INCF   x73,F
....................       }else if(tiempoImpresion>=CalculoImpresion){ 
0050E:  BRA    051C
00510:  MOVLB  3
00512:  MOVF   x63,W
00514:  SUBWF  x73,W
00516:  BNC   051C
....................          flagImprime=1; 
00518:  BSF    x5D.5
....................          tiempoImpresion=0; 
0051A:  CLRF   x73
....................       } 
....................        
....................       if(IniciaCiclo && !Esterilizando){ 
0051C:  MOVLB  0
0051E:  BTFSS  xA8.3
00520:  BRA    0536
00522:  BTFSC  xA8.4
00524:  BRA    0536
....................          TiempoCiclo++; 
00526:  INCF   xAD,F
00528:  BTFSC  FD8.2
0052A:  INCF   xAE,F
....................          tiempoAgua++; 
0052C:  MOVLB  3
0052E:  INCF   xA5,F
00530:  BTFSC  FD8.2
00532:  INCF   xA6,F
00534:  MOVLB  0
....................       } 
....................        
....................       if(IniciaLlenado && !CalderinLleno){ 
00536:  BTFSS  xA8.1
00538:  BRA    0544
0053A:  BTFSC  xA8.2
0053C:  BRA    0544
....................          TiempoLlenado++; 
0053E:  INCF   xAF,F
00540:  BTFSC  FD8.2
00542:  INCF   xB0,F
....................       } 
....................        
....................       if(SensadoNivel){ 
00544:  BTFSS  xA8.6
00546:  BRA    054E
....................          TiempoSensadoNivel++; 
00548:  INCF   xB1,F
0054A:  BTFSC  FD8.2
0054C:  INCF   xB2,F
....................       } 
....................        
....................       if(guardaCiclo) 
0054E:  BTFSS  xAC.5
00550:  BRA    0558
....................          tguarda++;  
00552:  INCF   xB7,F
00554:  BTFSC  FD8.2
00556:  INCF   xB8,F
....................        
....................       tiempos=0;Lectura=1;tinicio++; 
00558:  MOVLB  3
0055A:  CLRF   x75
0055C:  CLRF   x74
0055E:  BSF    x5D.1
00560:  INCF   x7E,F
00562:  BTFSC  FD8.2
00564:  INCF   x7F,F
....................     
....................       if(Esterilizando && !Desfogando){                
00566:  MOVLB  0
00568:  BTFSS  xA8.4
0056A:  BRA    05BE
0056C:  BTFSC  xA8.7
0056E:  BRA    05BE
....................          if(Testerilizacion[0]>0){ 
00570:  BTFSC  xB9.7
00572:  BRA    057E
00574:  MOVF   xB9,W
00576:  SUBLW  00
00578:  BC    057E
....................             Testerilizacion[0]--; 
0057A:  DECF   xB9,F
....................          }else if(Testerilizacion[1]>0){ 
0057C:  BRA    05BE
0057E:  BTFSC  xBA.7
00580:  BRA    0590
00582:  MOVF   xBA,W
00584:  SUBLW  00
00586:  BC    0590
....................             Testerilizacion[1]--; 
00588:  DECF   xBA,F
....................             Testerilizacion[0]=9; 
0058A:  MOVLW  09
0058C:  MOVWF  xB9
....................          }else if(Testerilizacion[2]>0){ 
0058E:  BRA    05BE
00590:  BTFSC  xBB.7
00592:  BRA    05A6
00594:  MOVF   xBB,W
00596:  SUBLW  00
00598:  BC    05A6
....................             Testerilizacion[2]--; 
0059A:  DECF   xBB,F
....................             Testerilizacion[1]=5; 
0059C:  MOVLW  05
0059E:  MOVWF  xBA
....................             Testerilizacion[0]=9; 
005A0:  MOVLW  09
005A2:  MOVWF  xB9
....................          }else if(Testerilizacion[3]>0){ 
005A4:  BRA    05BE
005A6:  BTFSC  xBC.7
005A8:  BRA    05BE
005AA:  MOVF   xBC,W
005AC:  SUBLW  00
005AE:  BC    05BE
....................             Testerilizacion[3]--; 
005B0:  DECF   xBC,F
....................             Testerilizacion[2]=9; 
005B2:  MOVLW  09
005B4:  MOVWF  xBB
....................             Testerilizacion[1]=5; 
005B6:  MOVLW  05
005B8:  MOVWF  xBA
....................             Testerilizacion[0]=9; 
005BA:  MOVLW  09
005BC:  MOVWF  xB9
....................          } 
....................       } 
....................        
....................       if(Secando){ 
005BE:  BTFSS  xA8.5
005C0:  BRA    0610
....................          if(Tsecado[0]>0){ 
005C2:  BTFSC  xC3.7
005C4:  BRA    05D0
005C6:  MOVF   xC3,W
005C8:  SUBLW  00
005CA:  BC    05D0
....................             Tsecado[0]--; 
005CC:  DECF   xC3,F
....................          }else if(Tsecado[1]>0){ 
005CE:  BRA    0610
005D0:  BTFSC  xC4.7
005D2:  BRA    05E2
005D4:  MOVF   xC4,W
005D6:  SUBLW  00
005D8:  BC    05E2
....................             Tsecado[1]--; 
005DA:  DECF   xC4,F
....................             Tsecado[0]=9; 
005DC:  MOVLW  09
005DE:  MOVWF  xC3
....................          }else if(Tsecado[2]>0){ 
005E0:  BRA    0610
005E2:  BTFSC  xC5.7
005E4:  BRA    05F8
005E6:  MOVF   xC5,W
005E8:  SUBLW  00
005EA:  BC    05F8
....................             Tsecado[2]--; 
005EC:  DECF   xC5,F
....................             Tsecado[1]=5; 
005EE:  MOVLW  05
005F0:  MOVWF  xC4
....................             Tsecado[0]=9; 
005F2:  MOVLW  09
005F4:  MOVWF  xC3
....................          }else if(Tsecado[3]>0){ 
005F6:  BRA    0610
005F8:  BTFSC  xC6.7
005FA:  BRA    0610
005FC:  MOVF   xC6,W
005FE:  SUBLW  00
00600:  BC    0610
....................             Tsecado[3]--; 
00602:  DECF   xC6,F
....................             Tsecado[2]=9; 
00604:  MOVLW  09
00606:  MOVWF  xC5
....................             Tsecado[1]=5; 
00608:  MOVLW  05
0060A:  MOVWF  xC4
....................             Tsecado[0]=9; 
0060C:  MOVLW  09
0060E:  MOVWF  xC3
00610:  MOVLB  3
....................          } 
....................       } 
....................    } 
.................... } 
....................  
00612:  BCF    F9E.0
00614:  MOVLB  0
00616:  GOTO   0074
.................... void main() 
.................... { 
*
07C10:  CLRF   FF8
07C12:  BCF    FF1.2
07C14:  BCF    F9F.0
07C16:  BSF    F9F.5
07C18:  BSF    FD0.7
07C1A:  BSF    07.7
07C1C:  CLRF   FEA
07C1E:  CLRF   FE9
07C20:  BSF    FB8.3
07C22:  MOVLW  08
07C24:  MOVWF  FAF
07C26:  MOVLW  02
07C28:  MOVWF  FB0
07C2A:  MOVLW  A6
07C2C:  MOVWF  FAC
07C2E:  MOVLW  90
07C30:  MOVWF  FAB
07C32:  CLRF   46
07C34:  CLRF   47
07C36:  CLRF   48
07C38:  CLRF   x62
07C3A:  CLRF   x63
07C3C:  CLRF   x8C
07C3E:  CLRF   x8D
07C40:  CLRF   x8E
07C42:  BCF    xA7.0
07C44:  BCF    xA7.1
07C46:  BCF    xA7.2
07C48:  BCF    xA7.3
07C4A:  BCF    xA7.4
07C4C:  BCF    xA7.5
07C4E:  BCF    xA7.6
07C50:  BCF    xA7.7
07C52:  BCF    xA8.0
07C54:  BCF    xA8.1
07C56:  BCF    xA8.2
07C58:  BCF    xA8.3
07C5A:  BCF    xA8.4
07C5C:  BCF    xA8.5
07C5E:  BCF    xA8.6
07C60:  BCF    xA8.7
07C62:  BCF    xA9.0
07C64:  BCF    xA9.1
07C66:  BCF    xA9.2
07C68:  BCF    xA9.3
07C6A:  BCF    xA9.4
07C6C:  BCF    xA9.5
07C6E:  BCF    xA9.6
07C70:  BCF    xA9.7
07C72:  BCF    xAA.0
07C74:  BCF    xAA.1
07C76:  BCF    xAA.2
07C78:  BCF    xAA.3
07C7A:  BCF    xAA.4
07C7C:  BCF    xAA.5
07C7E:  BCF    xAA.6
07C80:  BCF    xAA.7
07C82:  BCF    xAB.0
07C84:  BCF    xAB.1
07C86:  BCF    xAB.2
07C88:  BCF    xAB.3
07C8A:  BCF    xAB.4
07C8C:  BCF    xAB.5
07C8E:  BCF    xAB.6
07C90:  BCF    xAB.7
07C92:  BCF    xAC.0
07C94:  BCF    xAC.1
07C96:  BCF    xAC.2
07C98:  BCF    xAC.3
07C9A:  BCF    xAC.4
07C9C:  BCF    xAC.5
07C9E:  BCF    xAC.6
07CA0:  BCF    xAC.7
07CA2:  CLRF   xAE
07CA4:  CLRF   xAD
07CA6:  CLRF   xB0
07CA8:  CLRF   xAF
07CAA:  CLRF   xB2
07CAC:  CLRF   xB1
07CAE:  CLRF   xB4
07CB0:  CLRF   xB3
07CB2:  CLRF   xB6
07CB4:  CLRF   xB5
07CB6:  CLRF   xB8
07CB8:  CLRF   xB7
07CBA:  MOVLW  9A
07CBC:  MOVLB  2
07CBE:  MOVWF  xAE
07CC0:  MOVLW  99
07CC2:  MOVWF  xAD
07CC4:  MOVLW  0D
07CC6:  MOVWF  xAC
07CC8:  MOVLW  86
07CCA:  MOVWF  xAB
07CCC:  CLRF   xB2
07CCE:  CLRF   xB1
07CD0:  CLRF   xB0
07CD2:  MOVLW  7E
07CD4:  MOVWF  xAF
07CD6:  CLRF   xB6
07CD8:  CLRF   xB5
07CDA:  CLRF   xB4
07CDC:  CLRF   xB3
07CDE:  CLRF   xBA
07CE0:  CLRF   xB9
07CE2:  MOVLW  48
07CE4:  MOVWF  xB8
07CE6:  MOVLW  85
07CE8:  MOVWF  xB7
07CEA:  CLRF   xBE
07CEC:  MOVLW  80
07CEE:  MOVWF  xBD
07CF0:  MOVLW  54
07CF2:  MOVWF  xBC
07CF4:  MOVLW  8B
07CF6:  MOVWF  xBB
07CF8:  CLRF   xD2
07CFA:  CLRF   xD1
07CFC:  CLRF   xD0
07CFE:  CLRF   xCF
07D00:  CLRF   xD6
07D02:  CLRF   xD5
07D04:  CLRF   xD4
07D06:  CLRF   xD3
07D08:  CLRF   xDA
07D0A:  CLRF   xD9
07D0C:  CLRF   xD8
07D0E:  CLRF   xD7
07D10:  CLRF   xDE
07D12:  CLRF   xDD
07D14:  CLRF   xDC
07D16:  CLRF   xDB
07D18:  CLRF   xDF
07D1A:  CLRF   xE0
07D1C:  CLRF   xE1
07D1E:  CLRF   xE2
07D20:  MOVLW  14
07D22:  MOVWF  xE3
07D24:  CLRF   xE4
07D26:  CLRF   xE5
07D28:  CLRF   xE6
07D2A:  CLRF   xE7
07D2C:  CLRF   xE8
07D2E:  CLRF   xE9
07D30:  CLRF   xEA
07D32:  CLRF   xEB
07D34:  CLRF   xED
07D36:  CLRF   xEC
07D38:  CLRF   xEF
07D3A:  CLRF   xEE
07D3C:  CLRF   xF1
07D3E:  CLRF   xF0
07D40:  CLRF   xF5
07D42:  CLRF   xF4
07D44:  CLRF   xF3
07D46:  CLRF   xF2
07D48:  CLRF   xFD
07D4A:  CLRF   xFC
07D4C:  MOVLW  20
07D4E:  MOVWF  xFB
07D50:  MOVLW  82
07D52:  MOVWF  xFA
07D54:  MOVLB  3
07D56:  CLRF   x01
07D58:  CLRF   x00
07D5A:  MOVLB  2
07D5C:  CLRF   xFF
07D5E:  CLRF   xFE
07D60:  MOVLB  3
07D62:  CLRF   x05
07D64:  CLRF   x04
07D66:  CLRF   x03
07D68:  CLRF   x02
07D6A:  CLRF   x09
07D6C:  CLRF   x08
07D6E:  CLRF   x07
07D70:  CLRF   x06
07D72:  CLRF   x0D
07D74:  CLRF   x0C
07D76:  CLRF   x0B
07D78:  CLRF   x0A
07D7A:  CLRF   x11
07D7C:  CLRF   x10
07D7E:  CLRF   x0F
07D80:  CLRF   x0E
07D82:  CLRF   x15
07D84:  CLRF   x14
07D86:  MOVLW  48
07D88:  MOVWF  x13
07D8A:  MOVLW  83
07D8C:  MOVWF  x12
07D8E:  CLRF   x19
07D90:  CLRF   x18
07D92:  MOVLW  20
07D94:  MOVWF  x17
07D96:  MOVLW  83
07D98:  MOVWF  x16
07D9A:  MOVLW  9A
07D9C:  MOVWF  x1D
07D9E:  MOVLW  99
07DA0:  MOVWF  x1C
07DA2:  MOVLW  19
07DA4:  MOVWF  x1B
07DA6:  MOVLW  7F
07DA8:  MOVWF  x1A
07DAA:  CLRF   x21
07DAC:  CLRF   x20
07DAE:  CLRF   x1F
07DB0:  CLRF   x1E
07DB2:  CLRF   x25
07DB4:  CLRF   x24
07DB6:  CLRF   x23
07DB8:  CLRF   x22
07DBA:  CLRF   x29
07DBC:  CLRF   x28
07DBE:  CLRF   x27
07DC0:  CLRF   x26
07DC2:  CLRF   x2D
07DC4:  CLRF   x2C
07DC6:  CLRF   x2B
07DC8:  CLRF   x2A
07DCA:  CLRF   x31
07DCC:  CLRF   x30
07DCE:  CLRF   x2F
07DD0:  CLRF   x2E
07DD2:  CLRF   x35
07DD4:  CLRF   x34
07DD6:  CLRF   x33
07DD8:  CLRF   x32
07DDA:  MOVLW  4A
07DDC:  MOVWF  x39
07DDE:  MOVLW  88
07DE0:  MOVWF  x38
07DE2:  MOVLW  28
07DE4:  MOVWF  x37
07DE6:  MOVLW  75
07DE8:  MOVWF  x36
07DEA:  MOVLW  E0
07DEC:  MOVWF  x3D
07DEE:  MOVLW  2D
07DF0:  MOVWF  x3C
07DF2:  MOVLW  10
07DF4:  MOVWF  x3B
07DF6:  MOVLW  75
07DF8:  MOVWF  x3A
07DFA:  MOVLW  FF
07DFC:  MOVWF  x41
07DFE:  MOVLW  21
07E00:  MOVWF  x40
07E02:  MOVLW  15
07E04:  MOVWF  x3F
07E06:  MOVLW  80
07E08:  MOVWF  x3E
07E0A:  MOVLW  82
07E0C:  MOVWF  x45
07E0E:  MOVLW  12
07E10:  MOVWF  x44
07E12:  MOVLW  F4
07E14:  MOVWF  x43
07E16:  MOVLW  86
07E18:  MOVWF  x42
07E1A:  CLRF   x46
07E1C:  CLRF   x47
07E1E:  CLRF   x48
07E20:  MOVLW  B5
07E22:  MOVWF  x4C
07E24:  MOVLW  EB
07E26:  MOVWF  x4B
07E28:  MOVLW  1B
07E2A:  MOVWF  x4A
07E2C:  MOVLW  6B
07E2E:  MOVWF  x49
07E30:  MOVLW  D0
07E32:  MOVWF  x50
07E34:  MOVLW  9B
07E36:  MOVWF  x4F
07E38:  MOVLW  8A
07E3A:  MOVWF  x4E
07E3C:  MOVLW  75
07E3E:  MOVWF  x4D
07E40:  MOVLW  1A
07E42:  MOVWF  x54
07E44:  MOVLW  DD
07E46:  MOVWF  x53
07E48:  MOVLW  61
07E4A:  MOVWF  x52
07E4C:  MOVLW  7D
07E4E:  MOVWF  x51
07E50:  MOVLW  04
07E52:  MOVWF  x58
07E54:  MOVLW  16
07E56:  MOVWF  x57
07E58:  MOVLW  02
07E5A:  MOVWF  x56
07E5C:  MOVLW  85
07E5E:  MOVWF  x55
07E60:  CLRF   x5C
07E62:  CLRF   x5B
07E64:  CLRF   x5A
07E66:  CLRF   x59
07E68:  BCF    x5D.0
07E6A:  BCF    x5D.1
07E6C:  BCF    x5D.2
07E6E:  BCF    x5D.3
07E70:  BCF    x5D.4
07E72:  BCF    x5D.5
07E74:  BCF    x5D.6
07E76:  CLRF   x5E
07E78:  CLRF   x5F
07E7A:  CLRF   x60
07E7C:  MOVLW  01
07E7E:  MOVWF  x61
07E80:  MOVLW  02
07E82:  MOVWF  x62
07E84:  CLRF   x63
07E86:  MOVLW  01
07E88:  MOVWF  x64
07E8A:  CLRF   x65
07E8C:  CLRF   x66
07E8E:  CLRF   x67
07E90:  CLRF   x68
07E92:  CLRF   x69
07E94:  MOVLW  F0
07E96:  MOVWF  x6A
07E98:  CLRF   x6B
07E9A:  CLRF   x6C
07E9C:  CLRF   x6D
07E9E:  CLRF   x6E
07EA0:  MOVLW  01
07EA2:  MOVWF  x6F
07EA4:  MOVWF  x70
07EA6:  CLRF   x71
07EA8:  CLRF   x72
07EAA:  CLRF   x73
07EAC:  CLRF   x75
07EAE:  CLRF   x74
07EB0:  CLRF   x77
07EB2:  CLRF   x76
07EB4:  CLRF   x79
07EB6:  CLRF   x78
07EB8:  CLRF   x7B
07EBA:  CLRF   x7A
07EBC:  CLRF   x7D
07EBE:  CLRF   x7C
07EC0:  CLRF   x7F
07EC2:  CLRF   x7E
07EC4:  CLRF   x81
07EC6:  CLRF   x80
07EC8:  CLRF   x83
07ECA:  CLRF   x82
07ECC:  CLRF   x85
07ECE:  CLRF   x84
07ED0:  CLRF   x87
07ED2:  CLRF   x86
07ED4:  CLRF   x89
07ED6:  CLRF   x88
07ED8:  CLRF   x8B
07EDA:  CLRF   x8A
07EDC:  CLRF   x8D
07EDE:  CLRF   x8C
07EE0:  CLRF   x8F
07EE2:  CLRF   x8E
07EE4:  CLRF   x98
07EE6:  CLRF   x99
07EE8:  CLRF   x9A
07EEA:  CLRF   x9B
07EEC:  CLRF   x9C
07EEE:  CLRF   x9D
07EF0:  CLRF   x9E
07EF2:  CLRF   xA0
07EF4:  CLRF   x9F
07EF6:  CLRF   xA2
07EF8:  CLRF   xA1
07EFA:  CLRF   xA4
07EFC:  CLRF   xA3
07EFE:  CLRF   xA6
07F00:  CLRF   xA5
07F02:  CLRF   xA8
07F04:  CLRF   xA7
07F06:  CLRF   xAA
07F08:  CLRF   xA9
07F0A:  MOVLW  12
07F0C:  MOVWF  xAB
07F0E:  MOVLW  09
07F10:  MOVWF  xAC
07F12:  MOVLW  0D
07F14:  MOVWF  xAD
07F16:  CLRF   xAE
07F18:  CLRF   xAF
07F1A:  CLRF   xB0
07F1C:  CLRF   xB1
07F1E:  CLRF   xB2
07F20:  CLRF   xB3
07F22:  CLRF   xB4
07F24:  CLRF   xB5
07F26:  CLRF   xB6
07F28:  CLRF   xB7
07F2A:  CLRF   xB8
07F2C:  CLRF   xB9
07F2E:  CLRF   xBA
07F30:  CLRF   xBB
07F32:  CLRF   xBC
07F34:  CLRF   xBD
07F36:  CLRF   xBE
07F38:  MOVLW  48
07F3A:  MOVWF  xBF
07F3C:  CLRF   xC0
07F3E:  CLRF   xC1
07F40:  CLRF   xC2
07F42:  CLRF   xC3
07F44:  CLRF   xD6
07F46:  CLRF   xD7
07F48:  CLRF   xD8
07F4A:  CLRF   xD9
07F4C:  CLRF   xDA
07F4E:  MOVF   FC1,W
07F50:  ANDLW  C0
07F52:  IORLW  0F
07F54:  MOVWF  FC1
07F56:  MOVLW  07
07F58:  MOVWF  FB4
07F5A:  CLRF   2A
07F5C:  CLRF   2B
07F5E:  MOVLB  0
07F60:  CLRF   x8F
07F62:  MOVLW  03
07F64:  MOVWF  x90
07F66:  MOVWF  x91
07F68:  MOVLW  06
07F6A:  MOVWF  x92
07F6C:  MOVLW  01
07F6E:  MOVWF  x93
07F70:  MOVLW  04
07F72:  MOVWF  x94
07F74:  MOVLW  06
07F76:  MOVWF  x95
07F78:  MOVLW  02
07F7A:  MOVWF  x96
07F7C:  MOVLW  05
07F7E:  MOVWF  x97
07F80:  CLRF   x98
07F82:  MOVLW  03
07F84:  MOVWF  x99
07F86:  MOVLW  05
07F88:  MOVWF  x9A
07F8A:  CLRF   x9B
07F8C:  MOVLW  03
07F8E:  MOVWF  x9C
07F90:  MOVLW  04
07F92:  MOVWF  x9D
07F94:  CLRF   x9E
07F96:  MOVLW  02
07F98:  MOVWF  x9F
07F9A:  MOVLW  05
07F9C:  MOVWF  xA0
07F9E:  CLRF   xA1
07FA0:  MOVLW  03
07FA2:  MOVWF  xA2
07FA4:  MOVLW  06
07FA6:  MOVWF  xA3
07FA8:  MOVLW  01
07FAA:  MOVWF  xA4
07FAC:  MOVLW  04
07FAE:  MOVWF  xA5
07FB0:  MOVLW  06
07FB2:  MOVWF  xA6
07FB4:  CLRF   xB9
07FB6:  CLRF   xBA
07FB8:  CLRF   xBB
07FBA:  CLRF   xBC
07FBC:  CLRF   xBD
07FBE:  CLRF   xBE
07FC0:  CLRF   xBF
07FC2:  CLRF   xC0
07FC4:  CLRF   xC1
07FC6:  CLRF   xC2
07FC8:  CLRF   xC3
07FCA:  CLRF   xC4
07FCC:  CLRF   xC5
07FCE:  CLRF   xC6
07FD0:  CLRF   xC7
07FD2:  CLRF   xC8
07FD4:  CLRF   xC9
07FD6:  CLRF   xCA
07FD8:  CLRF   xCB
07FDA:  CLRF   xCC
07FDC:  CLRF   xCD
07FDE:  CLRF   xCE
07FE0:  CLRF   xCF
07FE2:  CLRF   xD0
07FE4:  CLRF   xD1
07FE6:  CLRF   xD2
07FE8:  CLRF   xD3
07FEA:  CLRF   xD4
07FEC:  CLRF   xD5
07FEE:  CLRF   xD6
07FF0:  CLRF   xD7
07FF2:  CLRF   xD8
07FF4:  CLRF   xD9
07FF6:  CLRF   xDA
07FF8:  CLRF   xDB
07FFA:  CLRF   xDC
07FFC:  CLRF   xDD
07FFE:  CLRF   xDE
08000:  CLRF   xDF
08002:  CLRF   xE0
08004:  CLRF   xE1
08006:  CLRF   xE2
08008:  CLRF   xE3
0800A:  CLRF   xE4
0800C:  CLRF   xE5
0800E:  CLRF   xE6
08010:  CLRF   xE7
08012:  CLRF   xE8
08014:  CLRF   xE9
08016:  CLRF   xEA
08018:  CLRF   xEB
0801A:  CLRF   xEC
0801C:  CLRF   xED
0801E:  CLRF   xEE
08020:  CLRF   xEF
08022:  CLRF   xF0
08024:  CLRF   xF1
08026:  CLRF   xF2
08028:  CLRF   xF3
0802A:  CLRF   xF4
0802C:  CLRF   xF5
0802E:  CLRF   xF6
08030:  CLRF   xF7
08032:  CLRF   xF8
08034:  CLRF   xF9
08036:  CLRF   xFA
08038:  CLRF   xFB
0803A:  CLRF   xFC
0803C:  CLRF   xFD
0803E:  CLRF   xFE
08040:  CLRF   xFF
08042:  MOVLB  1
08044:  CLRF   x00
08046:  CLRF   x01
08048:  CLRF   x02
0804A:  CLRF   x03
0804C:  CLRF   x04
0804E:  CLRF   x05
08050:  CLRF   x06
08052:  CLRF   x07
08054:  CLRF   x08
08056:  CLRF   x09
08058:  CLRF   x0A
0805A:  CLRF   x0B
0805C:  CLRF   x0C
0805E:  CLRF   x0D
08060:  CLRF   x0E
08062:  CLRF   x0F
08064:  CLRF   x10
08066:  CLRF   x11
08068:  CLRF   x12
0806A:  CLRF   x13
0806C:  CLRF   x14
0806E:  CLRF   x15
08070:  CLRF   x16
08072:  CLRF   x17
08074:  CLRF   x18
08076:  CLRF   x19
08078:  CLRF   x1A
0807A:  CLRF   x1B
0807C:  CLRF   x1C
0807E:  CLRF   x1D
08080:  CLRF   x1E
08082:  CLRF   x1F
08084:  CLRF   x20
08086:  CLRF   x21
08088:  CLRF   x22
0808A:  CLRF   x23
0808C:  CLRF   x24
0808E:  CLRF   x25
08090:  CLRF   x26
08092:  CLRF   x27
08094:  CLRF   x28
08096:  CLRF   x29
08098:  CLRF   x2A
0809A:  CLRF   x2B
0809C:  CLRF   x2C
0809E:  CLRF   x2D
080A0:  CLRF   x2E
080A2:  CLRF   x2F
080A4:  CLRF   x30
080A6:  CLRF   x31
080A8:  CLRF   x32
080AA:  CLRF   x33
080AC:  CLRF   x34
080AE:  CLRF   x35
080B0:  CLRF   x36
080B2:  CLRF   x37
080B4:  CLRF   x38
080B6:  CLRF   x39
080B8:  CLRF   x3A
080BA:  CLRF   x3B
080BC:  CLRF   x3C
080BE:  CLRF   x3D
080C0:  CLRF   x3E
080C2:  CLRF   x3F
080C4:  CLRF   x40
080C6:  CLRF   x41
080C8:  CLRF   x42
080CA:  CLRF   x43
080CC:  CLRF   x44
080CE:  CLRF   x45
080D0:  CLRF   x46
080D2:  CLRF   x47
080D4:  CLRF   x48
080D6:  CLRF   x49
080D8:  CLRF   x4A
080DA:  CLRF   x4B
080DC:  CLRF   x4C
080DE:  CLRF   x4D
080E0:  CLRF   x4E
080E2:  CLRF   x4F
080E4:  CLRF   x50
080E6:  CLRF   x51
080E8:  CLRF   x52
080EA:  CLRF   x53
080EC:  CLRF   x54
080EE:  CLRF   x55
080F0:  CLRF   x56
080F2:  CLRF   x57
080F4:  CLRF   x58
080F6:  CLRF   x59
080F8:  CLRF   x5A
080FA:  CLRF   x5B
080FC:  CLRF   x5C
080FE:  CLRF   x5D
08100:  CLRF   x5E
08102:  CLRF   x5F
08104:  CLRF   x60
08106:  CLRF   x61
08108:  CLRF   x62
0810A:  CLRF   x63
0810C:  CLRF   x64
0810E:  CLRF   x65
08110:  CLRF   x66
08112:  CLRF   x67
08114:  CLRF   x68
08116:  CLRF   x69
08118:  CLRF   x6A
0811A:  CLRF   x6B
0811C:  CLRF   x6C
0811E:  CLRF   x6D
08120:  CLRF   x6E
08122:  CLRF   x6F
08124:  CLRF   x70
08126:  CLRF   x71
08128:  CLRF   x72
0812A:  CLRF   x73
0812C:  CLRF   x74
0812E:  CLRF   x75
08130:  CLRF   x76
08132:  CLRF   x77
08134:  CLRF   x78
08136:  CLRF   x79
08138:  CLRF   x7A
0813A:  CLRF   x7B
0813C:  CLRF   x7C
0813E:  CLRF   x7D
08140:  CLRF   x7E
08142:  CLRF   x7F
08144:  CLRF   x80
08146:  CLRF   x81
08148:  CLRF   x82
0814A:  CLRF   x83
0814C:  CLRF   x84
0814E:  CLRF   x85
08150:  CLRF   x86
08152:  CLRF   x87
08154:  CLRF   x88
08156:  CLRF   x89
08158:  CLRF   x8A
0815A:  CLRF   x8B
0815C:  CLRF   x8C
0815E:  CLRF   x8D
08160:  CLRF   x8E
08162:  CLRF   x8F
08164:  CLRF   x90
08166:  CLRF   x91
08168:  CLRF   x92
0816A:  CLRF   x93
0816C:  CLRF   x94
0816E:  CLRF   x95
08170:  CLRF   x96
08172:  CLRF   x97
08174:  CLRF   x98
08176:  CLRF   x99
08178:  CLRF   x9A
0817A:  CLRF   x9B
0817C:  CLRF   x9C
0817E:  CLRF   x9D
08180:  CLRF   x9E
08182:  CLRF   x9F
08184:  CLRF   xA0
08186:  CLRF   xA1
08188:  CLRF   xA2
0818A:  CLRF   xA3
0818C:  CLRF   xA4
0818E:  CLRF   xA5
08190:  CLRF   xA6
08192:  CLRF   xA7
08194:  CLRF   xA8
08196:  CLRF   xA9
08198:  CLRF   xAA
0819A:  CLRF   xAB
0819C:  CLRF   xAC
0819E:  CLRF   xAD
081A0:  CLRF   xAE
081A2:  CLRF   xAF
081A4:  CLRF   xB0
081A6:  CLRF   xB1
081A8:  CLRF   xB2
081AA:  CLRF   xB3
081AC:  CLRF   xB4
081AE:  CLRF   xB5
081B0:  CLRF   xB6
081B2:  CLRF   xB7
081B4:  CLRF   xB8
081B6:  CLRF   xB9
081B8:  CLRF   xBA
081BA:  CLRF   xBB
081BC:  CLRF   xBC
081BE:  CLRF   xBD
081C0:  CLRF   xBE
081C2:  CLRF   xBF
081C4:  CLRF   xC0
081C6:  CLRF   xC1
081C8:  CLRF   xC2
081CA:  CLRF   xC3
081CC:  CLRF   xC4
081CE:  CLRF   xC5
081D0:  CLRF   xC6
081D2:  CLRF   xC7
081D4:  CLRF   xC8
081D6:  CLRF   xC9
081D8:  CLRF   xCA
081DA:  CLRF   xCB
081DC:  CLRF   xCC
081DE:  CLRF   xCD
081E0:  CLRF   xCE
081E2:  CLRF   xCF
081E4:  CLRF   xD0
081E6:  CLRF   xD1
081E8:  CLRF   xD2
081EA:  CLRF   xD3
081EC:  CLRF   xD4
081EE:  CLRF   xD5
081F0:  CLRF   xD6
081F2:  CLRF   xD7
081F4:  CLRF   xD8
081F6:  CLRF   xD9
081F8:  CLRF   xDA
081FA:  CLRF   xDB
081FC:  CLRF   xDC
081FE:  CLRF   xDD
08200:  CLRF   xDE
08202:  CLRF   xDF
08204:  CLRF   xE0
08206:  CLRF   xE1
08208:  CLRF   xE2
0820A:  CLRF   xE3
0820C:  CLRF   xE4
0820E:  CLRF   xE5
08210:  CLRF   xE6
08212:  CLRF   xE7
08214:  CLRF   xE8
08216:  CLRF   xE9
08218:  CLRF   xEA
0821A:  CLRF   xEB
0821C:  CLRF   xEC
0821E:  CLRF   xED
08220:  CLRF   xEE
08222:  CLRF   xEF
08224:  CLRF   xF0
08226:  CLRF   xF1
08228:  CLRF   xF2
0822A:  CLRF   xF3
0822C:  CLRF   xF4
0822E:  CLRF   xF5
08230:  CLRF   xF6
08232:  CLRF   xF7
08234:  CLRF   xF8
08236:  CLRF   xF9
08238:  CLRF   xFA
0823A:  CLRF   xFB
0823C:  CLRF   xFC
0823E:  CLRF   xFD
08240:  CLRF   xFE
08242:  CLRF   xFF
08244:  MOVLB  2
08246:  CLRF   x00
08248:  CLRF   x01
0824A:  CLRF   x02
0824C:  CLRF   x03
0824E:  CLRF   x04
08250:  CLRF   x05
08252:  CLRF   x06
08254:  CLRF   x07
08256:  CLRF   x08
08258:  CLRF   x09
0825A:  CLRF   x0A
0825C:  CLRF   x0B
0825E:  CLRF   x0C
08260:  CLRF   x0D
08262:  CLRF   x0E
08264:  CLRF   x0F
08266:  CLRF   x10
08268:  CLRF   x11
0826A:  CLRF   x12
0826C:  CLRF   x13
0826E:  CLRF   x14
08270:  CLRF   x15
08272:  CLRF   x16
08274:  CLRF   x17
08276:  CLRF   x18
08278:  CLRF   x19
0827A:  CLRF   x1A
0827C:  CLRF   x1B
0827E:  CLRF   x1C
08280:  CLRF   x1D
08282:  CLRF   x1E
08284:  CLRF   x1F
08286:  CLRF   x20
08288:  CLRF   x21
0828A:  CLRF   x22
0828C:  CLRF   x23
0828E:  CLRF   x24
08290:  CLRF   x25
08292:  CLRF   x26
08294:  CLRF   x27
08296:  CLRF   x28
08298:  CLRF   x29
0829A:  CLRF   x2A
0829C:  CLRF   x2B
0829E:  CLRF   x2C
082A0:  CLRF   x2D
082A2:  CLRF   x2E
082A4:  CLRF   x2F
082A6:  CLRF   x30
082A8:  CLRF   x31
082AA:  CLRF   x32
082AC:  CLRF   x33
082AE:  CLRF   x34
082B0:  CLRF   x35
082B2:  CLRF   x36
082B4:  CLRF   x37
082B6:  CLRF   x38
082B8:  CLRF   x39
082BA:  CLRF   x3A
082BC:  CLRF   x3B
082BE:  CLRF   x3C
082C0:  CLRF   x3D
082C2:  CLRF   x3E
082C4:  CLRF   x3F
082C6:  CLRF   x40
082C8:  CLRF   x41
082CA:  CLRF   x42
082CC:  CLRF   x43
082CE:  CLRF   x44
082D0:  CLRF   x45
082D2:  CLRF   x46
082D4:  CLRF   x47
082D6:  CLRF   x48
082D8:  CLRF   x49
082DA:  CLRF   x4A
082DC:  CLRF   x4B
082DE:  CLRF   x4C
082E0:  CLRF   x4D
082E2:  CLRF   x4E
082E4:  CLRF   x4F
082E6:  CLRF   x50
082E8:  CLRF   x51
082EA:  CLRF   x52
082EC:  CLRF   x53
082EE:  CLRF   x54
082F0:  CLRF   x55
082F2:  CLRF   x56
082F4:  CLRF   x57
082F6:  CLRF   x58
082F8:  CLRF   x59
082FA:  CLRF   x5A
082FC:  CLRF   x5B
082FE:  CLRF   x5C
08300:  CLRF   x5D
08302:  CLRF   x5E
08304:  CLRF   x5F
08306:  CLRF   x60
08308:  CLRF   x61
0830A:  CLRF   x62
0830C:  CLRF   x63
0830E:  CLRF   x64
08310:  CLRF   x65
08312:  CLRF   x66
08314:  CLRF   x67
08316:  CLRF   x68
08318:  CLRF   x69
0831A:  CLRF   x6A
0831C:  CLRF   x6B
0831E:  CLRF   x6C
08320:  CLRF   x6D
08322:  CLRF   x6E
08324:  CLRF   x6F
08326:  CLRF   x70
08328:  CLRF   x71
0832A:  CLRF   x72
0832C:  CLRF   x73
0832E:  CLRF   x74
08330:  CLRF   x75
08332:  CLRF   x76
08334:  CLRF   x77
08336:  CLRF   x78
08338:  CLRF   x79
0833A:  CLRF   x7A
0833C:  CLRF   x7B
0833E:  CLRF   x7C
08340:  CLRF   x7D
08342:  CLRF   x7E
08344:  CLRF   x7F
08346:  CLRF   x80
08348:  CLRF   x81
0834A:  CLRF   x82
0834C:  CLRF   x83
0834E:  CLRF   x84
08350:  CLRF   x85
08352:  CLRF   x86
08354:  CLRF   x87
08356:  CLRF   x88
08358:  CLRF   x89
0835A:  CLRF   x8A
0835C:  CLRF   x8B
0835E:  CLRF   x8C
08360:  CLRF   x8D
08362:  CLRF   x8E
08364:  CLRF   x8F
08366:  CLRF   x90
08368:  CLRF   x91
0836A:  CLRF   x92
0836C:  CLRF   x93
0836E:  CLRF   x94
08370:  CLRF   x95
08372:  CLRF   x96
08374:  CLRF   x97
08376:  CLRF   x98
08378:  CLRF   x99
0837A:  CLRF   x9A
0837C:  CLRF   x9B
0837E:  CLRF   x9C
08380:  CLRF   x9D
08382:  CLRF   x9E
08384:  CLRF   x9F
08386:  CLRF   xA0
08388:  CLRF   xA1
0838A:  CLRF   xA2
0838C:  CLRF   xA3
0838E:  CLRF   xA4
08390:  CLRF   xA5
08392:  CLRF   xA6
08394:  CLRF   xA7
08396:  CLRF   xA8
08398:  CLRF   xA9
0839A:  CLRF   xAA
0839C:  CLRF   xBF
0839E:  CLRF   xC0
083A0:  CLRF   xC1
083A2:  CLRF   xC2
083A4:  CLRF   xC3
083A6:  CLRF   xC4
083A8:  CLRF   xC5
083AA:  CLRF   xC6
083AC:  CLRF   xC7
083AE:  CLRF   xC8
083B0:  CLRF   xC9
083B2:  CLRF   xCA
083B4:  CLRF   xCB
083B6:  CLRF   xCC
083B8:  CLRF   xCD
083BA:  CLRF   xCE
083BC:  MOVLB  3
083BE:  CLRF   x90
083C0:  CLRF   x91
083C2:  CLRF   x92
083C4:  CLRF   x93
083C6:  CLRF   x94
083C8:  CLRF   x95
083CA:  CLRF   x96
083CC:  CLRF   x97
083CE:  MOVLW  19
083D0:  MOVWF  xC4
083D2:  MOVLW  10
083D4:  MOVWF  xC5
083D6:  MOVLW  16
083D8:  MOVWF  xC6
083DA:  MOVLW  18
083DC:  MOVWF  xC7
083DE:  MOVLW  17
083E0:  MOVWF  xC8
083E2:  MOVLW  1C
083E4:  MOVWF  xC9
083E6:  MOVLW  14
083E8:  MOVWF  xCA
083EA:  MOVLW  2E
083EC:  MOVWF  xCB
083EE:  MOVLW  45
083F0:  MOVWF  xCC
083F2:  MOVLW  22
083F4:  MOVWF  xCD
083F6:  MOVLW  24
083F8:  MOVWF  xCE
083FA:  MOVLW  12
083FC:  MOVWF  xCF
083FE:  MOVLW  21
08400:  MOVWF  xD0
08402:  MOVLW  20
08404:  MOVWF  xD1
08406:  MOVLW  26
08408:  MOVWF  xD2
0840A:  MOVLW  13
0840C:  MOVWF  xD3
0840E:  MOVLW  11
08410:  MOVWF  xD4
08412:  MOVLW  44
08414:  MOVWF  xD5
....................     
....................    for (posicion=0;posicion<0x10;posicion++){ 
08416:  MOVLB  0
08418:  CLRF   x8E
0841A:  MOVF   x8E,W
0841C:  SUBLW  0F
0841E:  BNC   8434
....................       SlaveA0Tx[posicion] = 0x00; 
08420:  CLRF   03
08422:  MOVF   x8E,W
08424:  ADDLW  64
08426:  MOVWF  FE9
08428:  MOVLW  00
0842A:  ADDWFC 03,W
0842C:  MOVWF  FEA
0842E:  CLRF   FEF
....................    } 
08430:  INCF   x8E,F
08432:  BRA    841A
....................    setup_timer_0(RTCC_8_BIT|RTCC_DIV_1); 
08434:  MOVLW  C8
08436:  MOVWF  FD5
....................    enable_interrupts(INT_TIMER0); 
08438:  BSF    FF2.5
....................    setup_timer_1(T1_INTERNAL|T1_DIV_BY_1); 
0843A:  MOVLW  85
0843C:  MOVWF  FCD
....................    enable_interrupts(INT_TIMER1); 
0843E:  BSF    F9D.0
....................    setup_adc_ports(AN0_TO_AN3); 
08440:  MOVF   FC1,W
08442:  ANDLW  C0
08444:  IORLW  0B
08446:  MOVWF  FC1
....................    setup_adc(ADC_CLOCK_DIV_32 ); 
08448:  MOVF   FC0,W
0844A:  ANDLW  C0
0844C:  IORLW  02
0844E:  MOVWF  FC0
08450:  BSF    FC0.7
08452:  BSF    FC2.0
....................    port_b_pullups(true); 
08454:  BCF    FF1.7
....................    enable_interrupts(int_rda); 
08456:  BSF    F9D.5
....................    setup_wdt(WDT_ON); 
08458:  BSF    FD1.0
....................    enable_interrupts(global); 
0845A:  MOVLW  C0
0845C:  IORWF  FF2,F
....................    LeeEEPROM(); 
0845E:  GOTO   1FA0
....................    rtc_init(); 
08462:  GOTO   308E
....................    delay_ms(1); 
08466:  MOVLW  01
08468:  MOVLB  4
0846A:  MOVWF  x69
0846C:  MOVLB  0
0846E:  CALL   1B4A
....................    LimitaValores(); 
08472:  GOTO   31A8
....................    CalculoImpresion=timpresion*60; 
08476:  MOVLB  3
08478:  MOVF   x62,W
0847A:  MULLW  3C
0847C:  MOVFF  FF3,363
....................    printf("page Bienvenida"); 
08480:  MOVLW  1A
08482:  MOVWF  FF6
08484:  MOVLW  06
08486:  MOVWF  FF7
08488:  MOVLW  00
0848A:  MOVWF  FF8
0848C:  MOVLB  0
0848E:  CALL   3CA6
....................    SendDataDisplay(); 
08492:  CALL   3CD8
....................    printf("bkcmd=0"); 
08496:  MOVLW  2A
08498:  MOVWF  FF6
0849A:  MOVLW  06
0849C:  MOVWF  FF7
0849E:  MOVLW  00
084A0:  MOVWF  FF8
084A2:  CALL   3CA6
....................    SendDataDisplay(); 
084A6:  CALL   3CD8
....................    delay_ms(1500); 
084AA:  MOVLW  06
084AC:  MOVLB  4
084AE:  MOVWF  x50
084B0:  MOVLW  FA
084B2:  MOVWF  x69
084B4:  MOVLB  0
084B6:  CALL   1B4A
084BA:  MOVLB  4
084BC:  DECFSZ x50,F
084BE:  BRA    84B0
....................    printf("page Clave"); 
084C0:  MOVLW  32
084C2:  MOVWF  FF6
084C4:  MOVLW  06
084C6:  MOVWF  FF7
084C8:  MOVLW  00
084CA:  MOVWF  FF8
084CC:  MOVLB  0
084CE:  CALL   3CA6
....................    SendDataDisplay(); 
084D2:  CALL   3CD8
....................    ApagaSalidas(); 
084D6:  CALL   3D0E
....................    ActivaImpresion=1; 
084DA:  MOVLW  01
084DC:  MOVLB  3
084DE:  MOVWF  x61
....................     
....................    for(i=0;i<MediaMovil;i++){ 
084E0:  CLRF   x8D
084E2:  CLRF   x8C
084E4:  MOVF   x8D,F
084E6:  BNZ   8566
084E8:  MOVLB  2
084EA:  MOVF   xE3,W
084EC:  MOVLB  3
084EE:  SUBWF  x8C,W
084F0:  BC    8566
....................       Temperatura=LeerPT100(MediaMovil); 
084F2:  MOVFF  2E3,450
084F6:  MOVLB  0
084F8:  CALL   3E7A
084FC:  MOVFF  03,335
08500:  MOVFF  02,334
08504:  MOVFF  01,333
08508:  MOVFF  00,332
....................       PresionCamara=Leer_Sensor_Presion_Camara(5); 
0850C:  MOVLW  05
0850E:  MOVLB  4
08510:  MOVWF  x50
08512:  MOVLB  0
08514:  CALL   42C4
08518:  MOVFF  03,468
0851C:  MOVFF  02,467
08520:  MOVFF  01,466
08524:  MOVFF  00,465
08528:  CALL   44C0
0852C:  MOVFF  02,381
08530:  MOVFF  01,380
....................       PresionPreCamara=Leer_Sensor_Presion_PreCamara(5); 
08534:  MOVLW  05
08536:  MOVLB  4
08538:  MOVWF  x50
0853A:  MOVLB  0
0853C:  GOTO   44FC
08540:  MOVFF  03,468
08544:  MOVFF  02,467
08548:  MOVFF  01,466
0854C:  MOVFF  00,465
08550:  CALL   44C0
08554:  MOVFF  02,383
08558:  MOVFF  01,382
....................    } 
0855C:  MOVLB  3
0855E:  INCF   x8C,F
08560:  BTFSC  FD8.2
08562:  INCF   x8D,F
08564:  BRA    84E4
....................     
....................    if(UP && DOWN && RIGHT && LEFT){//Si oprime boton de Toma.    
08566:  BSF    F93.3
08568:  BTFSC  F81.3
0856A:  BRA    85F2
0856C:  BSF    F93.2
0856E:  BTFSC  F81.2
08570:  BRA    85F2
08572:  BSF    F93.1
08574:  BTFSC  F81.1
08576:  BRA    85F2
08578:  BSF    F93.0
0857A:  BTFSC  F81.0
0857C:  BRA    85F2
....................       write_eeprom(37,0); 
0857E:  CLRF   FAA
08580:  MOVLW  25
08582:  MOVWF  FA9
08584:  CLRF   FA8
08586:  BCF    FA6.6
08588:  BCF    FA6.7
0858A:  BSF    FA6.2
0858C:  MOVF   FF2,W
0858E:  MOVWF  00
08590:  BCF    FF2.6
08592:  BCF    FF2.7
08594:  MOVLB  F
08596:  MOVLW  55
08598:  MOVWF  FA7
0859A:  MOVLW  AA
0859C:  MOVWF  FA7
0859E:  BSF    FA6.1
085A0:  BTFSC  FA6.1
085A2:  BRA    85A0
085A4:  BCF    FA6.2
085A6:  MOVF   00,W
085A8:  IORWF  FF2,F
....................       delay_ms(20); 
085AA:  MOVLW  14
085AC:  MOVLB  4
085AE:  MOVWF  x69
085B0:  MOVLB  0
085B2:  CALL   1B4A
....................       write_eeprom(38,0); 
085B6:  CLRF   FAA
085B8:  MOVLW  26
085BA:  MOVWF  FA9
085BC:  CLRF   FA8
085BE:  BCF    FA6.6
085C0:  BCF    FA6.7
085C2:  BSF    FA6.2
085C4:  MOVF   FF2,W
085C6:  MOVWF  00
085C8:  BCF    FF2.6
085CA:  BCF    FF2.7
085CC:  MOVLB  F
085CE:  MOVLW  55
085D0:  MOVWF  FA7
085D2:  MOVLW  AA
085D4:  MOVWF  FA7
085D6:  BSF    FA6.1
085D8:  BTFSC  FA6.1
085DA:  BRA    85D8
085DC:  BCF    FA6.2
085DE:  MOVF   00,W
085E0:  IORWF  FF2,F
....................       delay_ms(20); 
085E2:  MOVLW  14
085E4:  MOVLB  4
085E6:  MOVWF  x69
085E8:  MOVLB  0
085EA:  CALL   1B4A
....................       reset_cpu(); 
085EE:  RESET
085F0:  MOVLB  3
....................    } 
....................     
....................    #if defined(PT100Fija) && !defined(Absoluta) 
....................       Atmosferica=0; 
....................    #else 
....................       if(!DOOR){ 
085F2:  BSF    F93.6
085F4:  BTFSS  F81.6
085F6:  BRA    871C
....................          if(abs((float)PresionCamara-(float)Atmosferica)>=3 && PresionCamara<102){//Funcion de Auto Ajuste de Presion Atmosferica 
085F8:  MOVFF  381,466
085FC:  MOVFF  380,465
08600:  MOVLB  0
08602:  CALL   1B72
08606:  MOVFF  00,450
0860A:  MOVFF  01,451
0860E:  MOVFF  02,452
08612:  MOVFF  03,453
08616:  MOVLB  4
08618:  CLRF   x66
0861A:  MOVFF  3BF,465
0861E:  MOVLB  0
08620:  CALL   1B72
08624:  BSF    FD8.1
08626:  MOVFF  453,468
0862A:  MOVFF  452,467
0862E:  MOVFF  451,466
08632:  MOVFF  450,465
08636:  MOVFF  03,46C
0863A:  MOVFF  02,46B
0863E:  MOVFF  01,46A
08642:  MOVFF  00,469
08646:  CALL   1D06
0864A:  MOVFF  00,450
0864E:  MOVFF  01,451
08652:  MOVFF  02,452
08656:  MOVFF  03,453
0865A:  MOVFF  00,00
0865E:  MOVFF  01,01
08662:  MOVFF  02,02
08666:  MOVFF  03,03
0866A:  BCF    01.7
0866C:  MOVFF  00,450
08670:  MOVFF  01,451
08674:  MOVFF  02,452
08678:  MOVFF  03,453
0867C:  MOVLB  4
0867E:  CLRF   x57
08680:  CLRF   x56
08682:  MOVLW  40
08684:  MOVWF  x55
08686:  MOVLW  80
08688:  MOVWF  x54
0868A:  MOVFF  03,45B
0868E:  MOVFF  02,45A
08692:  MOVFF  01,459
08696:  MOVFF  00,458
0869A:  MOVLB  0
0869C:  CALL   30E0
086A0:  BC    86A4
086A2:  BNZ   871A
086A4:  MOVLB  3
086A6:  MOVF   x81,F
086A8:  BTFSC  FD8.2
086AA:  BRA    86B0
086AC:  MOVLB  0
086AE:  BRA    871A
086B0:  MOVF   x80,W
086B2:  SUBLW  65
086B4:  BTFSC  FD8.0
086B6:  BRA    86BC
086B8:  MOVLB  0
086BA:  BRA    871A
....................             Atmosferica=PresionCamara; 
086BC:  MOVFF  380,3BF
....................             write_eeprom(31,Atmosferica); 
086C0:  CLRF   FAA
086C2:  MOVLW  1F
086C4:  MOVWF  FA9
086C6:  MOVFF  3BF,FA8
086CA:  BCF    FA6.6
086CC:  BCF    FA6.7
086CE:  BSF    FA6.2
086D0:  MOVF   FF2,W
086D2:  MOVWF  00
086D4:  BCF    FF2.6
086D6:  BCF    FF2.7
086D8:  MOVLB  F
086DA:  MOVLW  55
086DC:  MOVWF  FA7
086DE:  MOVLW  AA
086E0:  MOVWF  FA7
086E2:  BSF    FA6.1
086E4:  BTFSC  FA6.1
086E6:  BRA    86E4
086E8:  BCF    FA6.2
086EA:  MOVF   00,W
086EC:  IORWF  FF2,F
....................             delay_ms(10); 
086EE:  MOVLW  0A
086F0:  MOVLB  4
086F2:  MOVWF  x69
086F4:  MOVLB  0
086F6:  CALL   1B4A
....................             Buzzer_on; 
086FA:  BSF    F8C.7
086FC:  BCF    F95.7
....................             delay_ms(1000); 
086FE:  MOVLW  04
08700:  MOVLB  4
08702:  MOVWF  x50
08704:  MOVLW  FA
08706:  MOVWF  x69
08708:  MOVLB  0
0870A:  CALL   1B4A
0870E:  MOVLB  4
08710:  DECFSZ x50,F
08712:  BRA    8704
....................             Buzzer_off; 
08714:  BCF    F8C.7
08716:  BCF    F95.7
08718:  MOVLB  0
0871A:  MOVLB  3
....................          } 
....................       } 
....................    #endif 
....................    while(true) 
....................    { 
....................       LeeDisplay(); 
0871C:  MOVLB  0
0871E:  GOTO   46FA
....................       Envio_Esclavos(); 
08722:  CALL   4A76
....................       delay_ms(1); 
08726:  MOVLW  01
08728:  MOVLB  4
0872A:  MOVWF  x69
0872C:  MOVLB  0
0872E:  CALL   1B4A
....................       sEst=Testerilizacion[0]+(Testerilizacion[1]*10); 
08732:  MOVFF  BA,452
08736:  MOVLW  0A
08738:  MOVLB  4
0873A:  MOVWF  x53
0873C:  MOVLB  0
0873E:  CALL   315A
08742:  MOVF   01,W
08744:  ADDWF  xB9,W
08746:  MOVLB  3
08748:  MOVWF  xB3
....................       mEst=Testerilizacion[2]+(Testerilizacion[3]*10); 
0874A:  MOVFF  BC,452
0874E:  MOVLW  0A
08750:  MOVLB  4
08752:  MOVWF  x53
08754:  MOVLB  0
08756:  CALL   315A
0875A:  MOVF   01,W
0875C:  ADDWF  xBB,W
0875E:  MOVLB  3
08760:  MOVWF  xB2
....................       sSec=Tsecado[0]+(Tsecado[1]*10); 
08762:  MOVFF  C4,452
08766:  MOVLW  0A
08768:  MOVLB  4
0876A:  MOVWF  x53
0876C:  MOVLB  0
0876E:  CALL   315A
08772:  MOVF   01,W
08774:  ADDWF  xC3,W
08776:  MOVLB  3
08778:  MOVWF  xB5
....................       mSec=Tsecado[2]+(Tsecado[3]*10); 
0877A:  MOVFF  C6,452
0877E:  MOVLW  0A
08780:  MOVLB  4
08782:  MOVWF  x53
08784:  MOVLB  0
08786:  CALL   315A
0878A:  MOVF   01,W
0878C:  ADDWF  xC5,W
0878E:  MOVLB  3
08790:  MOVWF  xB4
....................       //Lectura_Esclavos(); 
....................       restart_wdt(); 
08792:  CLRWDT
....................        
....................       if(!Esterilizando || Desfogando){ 
08794:  MOVLB  0
08796:  BTFSS  xA8.4
08798:  BRA    879E
0879A:  BTFSS  xA8.7
0879C:  BRA    87A8
....................          CalculoImpresion=180; 
0879E:  MOVLW  B4
087A0:  MOVLB  3
087A2:  MOVWF  x63
....................       }else{ 
087A4:  BRA    87AE
087A6:  MOVLB  0
....................          CalculoImpresion=60; 
087A8:  MOVLW  3C
087AA:  MOVLB  3
087AC:  MOVWF  x63
....................       } 
....................        
....................       // Monitoreo Nivel de Agua//-------------------------------------- 
....................             if(!LOW){//Si no sensa agua en el nivel alto y no se ha llenado el calderin          
087AE:  MOVLB  0
087B0:  BTFSC  xA9.1
087B2:  BRA    882A
....................                TiempoSensadoNivel=0; 
087B4:  CLRF   xB2
087B6:  CLRF   xB1
....................                Controlando=0;    
087B8:  MOVLB  3
087BA:  CLRF   x60
....................                if(tiempoAgua<600){ 
087BC:  MOVF   xA6,W
087BE:  SUBLW  02
087C0:  BNC   87CE
087C2:  BNZ   87CA
087C4:  MOVF   xA5,W
087C6:  SUBLW  57
087C8:  BNC   87CE
....................                   CalderinLleno=OFF; 
087CA:  MOVLB  0
087CC:  BCF    xA8.2
....................                } 
....................                SensadoNivel=OFF; 
087CE:  MOVLB  0
087D0:  BCF    xA8.6
....................                TiempoSensadoNivel=0; 
087D2:  CLRF   xB2
087D4:  CLRF   xB1
....................                #ifdef ULKA  
....................                   if(!PruebaEstados){ 
087D6:  BTFSC  xA9.6
087D8:  BRA    8828
....................                      if(PresionCamara<=((int16)Atmosferica+10) && Menu!=20 && HIG && Menu!=255){ 
087DA:  MOVLB  4
087DC:  CLRF   x51
087DE:  MOVFF  3BF,450
087E2:  MOVLW  0A
087E4:  ADDWF  x50,W
087E6:  MOVWF  01
087E8:  MOVLW  00
087EA:  ADDWFC x51,W
087EC:  MOVWF  03
087EE:  MOVF   01,W
087F0:  MOVLB  3
087F2:  MOVF   x81,W
087F4:  SUBWF  03,W
087F6:  BNC   881E
087F8:  BNZ   8800
087FA:  MOVF   x80,W
087FC:  SUBWF  01,W
087FE:  BNC   881E
08800:  MOVF   x68,W
08802:  SUBLW  14
08804:  BZ    881E
08806:  MOVLB  0
08808:  BTFSC  xA9.2
0880A:  BRA    8810
0880C:  MOVLB  3
0880E:  BRA    881E
08810:  MOVLB  3
08812:  INCFSZ x68,W
08814:  BRA    8818
08816:  BRA    881E
....................                         enciendeBombaAgua(); 
08818:  MOVLB  0
0881A:  CALL   4B0E
....................                      } 
....................                      if(!HIG){ 
0881E:  MOVLB  0
08820:  BTFSC  xA9.2
08822:  BRA    8828
....................                         apagaBombaAgua(); 
08824:  CALL   4B52
....................                      } 
....................                   } 
....................                #endif 
....................             } else{ 
08828:  BRA    884E
....................                SensadoNivel=ON; 
0882A:  BSF    xA8.6
....................                if(TiempoSensadoNivel>5){ 
0882C:  MOVF   xB2,F
0882E:  BNZ   8836
08830:  MOVF   xB1,W
08832:  SUBLW  05
08834:  BC    884E
....................                   SensadoNivel=OFF; 
08836:  BCF    xA8.6
....................                   CalderinLleno=ON; 
08838:  BSF    xA8.2
....................                   IniciaLlenado=OFF;                   
0883A:  BCF    xA8.1
....................                   #ifdef ULKA 
....................                      if(!PruebaEstados){ 
0883C:  BTFSC  xA9.6
0883E:  BRA    884E
....................                         if(Menu!=20){ 
08840:  MOVLB  3
08842:  MOVF   x68,W
08844:  SUBLW  14
08846:  BZ    8850
....................                            apagaBombaAgua(); 
08848:  MOVLB  0
0884A:  CALL   4B52
0884E:  MOVLB  3
....................                         } 
....................                      } 
....................                   #endif 
....................                } 
....................             } 
.................... // Tiempo de Grafica//-------------------------------------- 
....................       if(tiempos2>=6000){ 
08850:  MOVF   x77,W
08852:  SUBLW  16
08854:  BC    8866
08856:  XORLW  FF
08858:  BNZ   8860
0885A:  MOVF   x76,W
0885C:  SUBLW  6F
0885E:  BC    8866
....................          Grafica=1; 
08860:  BSF    x5D.2
....................          tiempos2=0; 
08862:  CLRF   x77
08864:  CLRF   x76
....................       } 
....................  
.................... // Tiempo de Muestreo//-------------------------------------- 
....................       if(tiempos3>=20){ 
08866:  MOVF   x79,F
08868:  BNZ   8872
0886A:  MOVF   x78,W
0886C:  SUBLW  13
0886E:  BTFSC  FD8.0
08870:  BRA    8A10
....................          Temperatura=LeerPt100(MediaMovil); 
08872:  MOVFF  2E3,450
08876:  MOVLB  0
08878:  CALL   3E7A
0887C:  MOVFF  03,335
08880:  MOVFF  02,334
08884:  MOVFF  01,333
08888:  MOVFF  00,332
....................          PresionCamara=Leer_Sensor_Presion_Camara(10); 
0888C:  MOVLW  0A
0888E:  MOVLB  4
08890:  MOVWF  x50
08892:  MOVLB  0
08894:  CALL   42C4
08898:  MOVFF  03,468
0889C:  MOVFF  02,467
088A0:  MOVFF  01,466
088A4:  MOVFF  00,465
088A8:  CALL   44C0
088AC:  MOVFF  02,381
088B0:  MOVFF  01,380
....................          PresionPreCamara=0;//Leer_Sensor_Presion_PreCamara(10); 
088B4:  MOVLB  3
088B6:  CLRF   x83
088B8:  CLRF   x82
....................          rtc_get_date(Dia,Mes,Year,dow); 
....................          rtc_get_time(Hora,Minuto,Segundo); 
....................          if(sensores(2)<512) 
*
0897E:  MOVLW  02
08980:  MOVLB  4
08982:  MOVWF  x59
08984:  MOVLB  0
08986:  CALL   3D2C
0898A:  MOVFF  00,450
0898E:  MOVFF  01,451
08992:  MOVFF  02,452
08996:  MOVFF  03,453
0899A:  MOVFF  03,457
0899E:  MOVFF  02,456
089A2:  MOVFF  01,455
089A6:  MOVFF  00,454
089AA:  MOVLB  4
089AC:  CLRF   x5B
089AE:  CLRF   x5A
089B0:  CLRF   x59
089B2:  MOVLW  88
089B4:  MOVWF  x58
089B6:  MOVLB  0
089B8:  CALL   30E0
089BC:  BNC   89C2
....................             LOW=ON; 
089BE:  BSF    xA9.1
....................          else 
089C0:  BRA    89C4
....................             LOW=OFF; 
089C2:  BCF    xA9.1
....................           
....................          if(sensores(3)<512)//3 
089C4:  MOVLW  03
089C6:  MOVLB  4
089C8:  MOVWF  x59
089CA:  MOVLB  0
089CC:  CALL   3D2C
089D0:  MOVFF  00,450
089D4:  MOVFF  01,451
089D8:  MOVFF  02,452
089DC:  MOVFF  03,453
089E0:  MOVFF  03,457
089E4:  MOVFF  02,456
089E8:  MOVFF  01,455
089EC:  MOVFF  00,454
089F0:  MOVLB  4
089F2:  CLRF   x5B
089F4:  CLRF   x5A
089F6:  CLRF   x59
089F8:  MOVLW  88
089FA:  MOVWF  x58
089FC:  MOVLB  0
089FE:  CALL   30E0
08A02:  BNC   8A08
....................             HIG=ON; 
08A04:  BSF    xA9.2
....................          else 
08A06:  BRA    8A0A
....................             HIG=OFF; 
08A08:  BCF    xA9.2
....................          tiempos3=0; 
08A0A:  MOVLB  3
08A0C:  CLRF   x79
08A0E:  CLRF   x78
....................       } 
....................        
.................... // Monitoreo Parada Emergencia//--------------------------------------       
....................       if(!STOP && !IniciaCiclo && !PruebaEstados){ 
08A10:  BSF    F93.5
08A12:  BTFSS  F81.5
08A14:  BRA    8A76
08A16:  MOVLB  0
08A18:  BTFSS  xA8.3
08A1A:  BRA    8A20
08A1C:  MOVLB  3
08A1E:  BRA    8A76
08A20:  BTFSS  xA9.6
08A22:  BRA    8A28
08A24:  MOVLB  3
08A26:  BRA    8A76
....................          if(!disp_Stop){ 
08A28:  MOVLB  3
08A2A:  BTFSC  x5D.3
08A2C:  BRA    8A4C
....................             disp_Stop=1;Menu=255; 
08A2E:  BSF    x5D.3
08A30:  MOVLW  FF
08A32:  MOVWF  x68
....................             printf("page Emergencia"); 
08A34:  MOVLW  3E
08A36:  MOVWF  FF6
08A38:  MOVLW  06
08A3A:  MOVWF  FF7
08A3C:  MOVLW  00
08A3E:  MOVWF  FF8
08A40:  MOVLB  0
08A42:  CALL   3CA6
....................             SendDataDisplay(); 
08A46:  CALL   3CD8
08A4A:  MOVLB  3
....................          } 
....................          Controlando=0; 
08A4C:  CLRF   x60
....................          Desfogue_on; 
08A4E:  BCF    F8B.1
08A50:  BCF    F94.1
....................          SSR_off; 
08A52:  BCF    F8D.1
08A54:  BCF    F96.1
....................          Bomba_off; 
08A56:  BSF    F8B.0
08A58:  BCF    F94.0
....................          Agua_off; 
08A5A:  BSF    F8B.2
08A5C:  BCF    F94.2
....................          DesfogueSuave=OFF; 
08A5E:  MOVLB  0
08A60:  BCF    xA9.0
....................          ActivaAlarma(1); 
08A62:  MOVLW  01
08A64:  MOVLB  4
08A66:  MOVWF  x50
08A68:  MOVLB  0
08A6A:  CALL   4B9E
....................          BorraBuffer(); 
08A6E:  GOTO   4C74
....................       }else{ 
08A72:  BRA    8A7C
08A74:  MOVLB  3
....................          if(disp_Stop){ 
08A76:  BTFSS  x5D.3
08A78:  BRA    8A7C
....................             reset_cpu(); 
08A7A:  RESET
....................          } 
....................       }            
....................    //Buzzer_off;    
.................... //_-------------------------------------------------------------------------------------------------------------------------------------------------------- 
....................    if(Menu==240){ //Menu de Bienvenida. 
08A7C:  MOVLB  3
08A7E:  MOVF   x68,W
08A80:  SUBLW  F0
08A82:  BNZ   8ACC
....................       printf("bkcmd=0"); 
08A84:  MOVLW  4E
08A86:  MOVWF  FF6
08A88:  MOVLW  06
08A8A:  MOVWF  FF7
08A8C:  MOVLW  00
08A8E:  MOVWF  FF8
08A90:  MOVLB  0
08A92:  CALL   3CA6
....................       SendDataDisplay(); 
08A96:  CALL   3CD8
....................       delay_ms(1500); 
08A9A:  MOVLW  06
08A9C:  MOVLB  4
08A9E:  MOVWF  x50
08AA0:  MOVLW  FA
08AA2:  MOVWF  x69
08AA4:  MOVLB  0
08AA6:  CALL   1B4A
08AAA:  MOVLB  4
08AAC:  DECFSZ x50,F
08AAE:  BRA    8AA0
....................       printf("page Clave"); 
08AB0:  MOVLW  56
08AB2:  MOVWF  FF6
08AB4:  MOVLW  06
08AB6:  MOVWF  FF7
08AB8:  MOVLW  00
08ABA:  MOVWF  FF8
08ABC:  MOVLB  0
08ABE:  CALL   3CA6
....................       SendDataDisplay(); 
08AC2:  CALL   3CD8
....................       ApagaSalidas(); 
08AC6:  CALL   3D0E
08ACA:  MOVLB  3
....................    } 
.................... //_-------------------------------------------------------------------------------------------------------------------------------------------------------- 
....................  
.................... //_-------------------------------------------------------------------------------------------------------------------------------------------------------- 
....................     if(Menu==0){ //Menu de Contrasea de acceso. 
08ACC:  MOVF   x68,F
08ACE:  BTFSS  FD8.2
08AD0:  GOTO   9546
....................       //ApagaSalidas(); 
....................       entro=OFF; 
08AD4:  MOVLB  0
08AD6:  BCF    xAC.2
....................       if(Digito==1){ 
08AD8:  MOVLB  2
08ADA:  DECFSZ xE8,W
08ADC:  BRA    8B28
....................          printf("t0.txt=\"%u\"",Contrasena[0]); 
08ADE:  MOVLW  62
08AE0:  MOVWF  FF6
08AE2:  MOVLW  06
08AE4:  MOVWF  FF7
08AE6:  MOVLW  00
08AE8:  MOVWF  FF8
08AEA:  MOVLW  08
08AEC:  MOVLB  4
08AEE:  MOVWF  x56
08AF0:  MOVLB  0
08AF2:  CALL   4CA0
08AF6:  MOVFF  390,456
08AFA:  MOVLW  1B
08AFC:  MOVLB  4
08AFE:  MOVWF  x57
08B00:  MOVLB  0
08B02:  CALL   4CFE
08B06:  MOVLW  22
08B08:  BTFSS  F9E.4
08B0A:  BRA    8B08
08B0C:  MOVWF  FAD
....................          SendDataDisplay(); 
08B0E:  CALL   3CD8
....................          printf("va0.val=1"); 
08B12:  MOVLW  6E
08B14:  MOVWF  FF6
08B16:  MOVLW  06
08B18:  MOVWF  FF7
08B1A:  MOVLW  00
08B1C:  MOVWF  FF8
08B1E:  CALL   3CA6
....................          SendDataDisplay(); 
08B22:  CALL   3CD8
08B26:  MOVLB  2
....................       } 
....................        
....................       if(Digito==2){ 
08B28:  MOVF   xE8,W
08B2A:  SUBLW  02
08B2C:  BNZ   8B88
....................          printf("t0.txt=\"%u%u\"",Contrasena[0],Contrasena[1]); 
08B2E:  MOVLW  78
08B30:  MOVWF  FF6
08B32:  MOVLW  06
08B34:  MOVWF  FF7
08B36:  MOVLW  00
08B38:  MOVWF  FF8
08B3A:  MOVLW  08
08B3C:  MOVLB  4
08B3E:  MOVWF  x56
08B40:  MOVLB  0
08B42:  CALL   4CA0
08B46:  MOVFF  390,456
08B4A:  MOVLW  1B
08B4C:  MOVLB  4
08B4E:  MOVWF  x57
08B50:  MOVLB  0
08B52:  CALL   4CFE
08B56:  MOVFF  391,456
08B5A:  MOVLW  1B
08B5C:  MOVLB  4
08B5E:  MOVWF  x57
08B60:  MOVLB  0
08B62:  CALL   4CFE
08B66:  MOVLW  22
08B68:  BTFSS  F9E.4
08B6A:  BRA    8B68
08B6C:  MOVWF  FAD
....................          SendDataDisplay(); 
08B6E:  CALL   3CD8
....................          printf("va0.val=2"); 
08B72:  MOVLW  86
08B74:  MOVWF  FF6
08B76:  MOVLW  06
08B78:  MOVWF  FF7
08B7A:  MOVLW  00
08B7C:  MOVWF  FF8
08B7E:  CALL   3CA6
....................          SendDataDisplay(); 
08B82:  CALL   3CD8
08B86:  MOVLB  2
....................       } 
....................        
....................       if(Digito==3){ 
08B88:  MOVF   xE8,W
08B8A:  SUBLW  03
08B8C:  BNZ   8BF8
....................          printf("t0.txt=\"%u%u%u\"",Contrasena[0],Contrasena[1],Contrasena[2]); 
08B8E:  MOVLW  90
08B90:  MOVWF  FF6
08B92:  MOVLW  06
08B94:  MOVWF  FF7
08B96:  MOVLW  00
08B98:  MOVWF  FF8
08B9A:  MOVLW  08
08B9C:  MOVLB  4
08B9E:  MOVWF  x56
08BA0:  MOVLB  0
08BA2:  CALL   4CA0
08BA6:  MOVFF  390,456
08BAA:  MOVLW  1B
08BAC:  MOVLB  4
08BAE:  MOVWF  x57
08BB0:  MOVLB  0
08BB2:  CALL   4CFE
08BB6:  MOVFF  391,456
08BBA:  MOVLW  1B
08BBC:  MOVLB  4
08BBE:  MOVWF  x57
08BC0:  MOVLB  0
08BC2:  CALL   4CFE
08BC6:  MOVFF  392,456
08BCA:  MOVLW  1B
08BCC:  MOVLB  4
08BCE:  MOVWF  x57
08BD0:  MOVLB  0
08BD2:  CALL   4CFE
08BD6:  MOVLW  22
08BD8:  BTFSS  F9E.4
08BDA:  BRA    8BD8
08BDC:  MOVWF  FAD
....................          SendDataDisplay(); 
08BDE:  CALL   3CD8
....................          printf("va0.val=3"); 
08BE2:  MOVLW  A0
08BE4:  MOVWF  FF6
08BE6:  MOVLW  06
08BE8:  MOVWF  FF7
08BEA:  MOVLW  00
08BEC:  MOVWF  FF8
08BEE:  CALL   3CA6
....................          SendDataDisplay(); 
08BF2:  CALL   3CD8
08BF6:  MOVLB  2
....................       } 
....................        
....................       if(Digito==4){ 
08BF8:  MOVF   xE8,W
08BFA:  SUBLW  04
08BFC:  BNZ   8C78
....................          printf("t0.txt=\"%u%u%u%u\"",Contrasena[0],Contrasena[1],Contrasena[2],Contrasena[3]); 
08BFE:  MOVLW  AA
08C00:  MOVWF  FF6
08C02:  MOVLW  06
08C04:  MOVWF  FF7
08C06:  MOVLW  00
08C08:  MOVWF  FF8
08C0A:  MOVLW  08
08C0C:  MOVLB  4
08C0E:  MOVWF  x56
08C10:  MOVLB  0
08C12:  CALL   4CA0
08C16:  MOVFF  390,456
08C1A:  MOVLW  1B
08C1C:  MOVLB  4
08C1E:  MOVWF  x57
08C20:  MOVLB  0
08C22:  CALL   4CFE
08C26:  MOVFF  391,456
08C2A:  MOVLW  1B
08C2C:  MOVLB  4
08C2E:  MOVWF  x57
08C30:  MOVLB  0
08C32:  CALL   4CFE
08C36:  MOVFF  392,456
08C3A:  MOVLW  1B
08C3C:  MOVLB  4
08C3E:  MOVWF  x57
08C40:  MOVLB  0
08C42:  CALL   4CFE
08C46:  MOVFF  393,456
08C4A:  MOVLW  1B
08C4C:  MOVLB  4
08C4E:  MOVWF  x57
08C50:  MOVLB  0
08C52:  CALL   4CFE
08C56:  MOVLW  22
08C58:  BTFSS  F9E.4
08C5A:  BRA    8C58
08C5C:  MOVWF  FAD
....................          SendDataDisplay(); 
08C5E:  CALL   3CD8
....................          printf("va0.val=4"); 
08C62:  MOVLW  BC
08C64:  MOVWF  FF6
08C66:  MOVLW  06
08C68:  MOVWF  FF7
08C6A:  MOVLW  00
08C6C:  MOVWF  FF8
08C6E:  CALL   3CA6
....................          SendDataDisplay(); 
08C72:  CALL   3CD8
08C76:  MOVLB  2
....................       } 
....................        
....................       if(UP){ 
08C78:  BSF    F93.3
08C7A:  BTFSC  F81.3
08C7C:  BRA    8CC6
....................          delay_ms(100); 
08C7E:  MOVLW  64
08C80:  MOVLB  4
08C82:  MOVWF  x69
08C84:  MOVLB  0
08C86:  CALL   1B4A
....................          if(UP){ 
08C8A:  BSF    F93.3
08C8C:  BTFSC  F81.3
08C8E:  BRA    8CC8
....................          if(Digito==0) 
08C90:  MOVLB  2
08C92:  MOVF   xE8,F
08C94:  BNZ   8C9A
....................             Digito=1; 
08C96:  MOVLW  01
08C98:  MOVWF  xE8
....................             if(Contrasena[Digito-1]<9) 
08C9A:  MOVLW  01
08C9C:  SUBWF  xE8,W
08C9E:  CLRF   03
08CA0:  ADDLW  90
08CA2:  MOVWF  FE9
08CA4:  MOVLW  03
08CA6:  ADDWFC 03,W
08CA8:  MOVWF  FEA
08CAA:  BTFSC  FEF.7
08CAC:  BRA    8CB4
08CAE:  MOVF   FEF,W
08CB0:  SUBLW  08
08CB2:  BNC   8CC6
....................                Contrasena[Digito-1]++; 
08CB4:  MOVLW  01
08CB6:  SUBWF  xE8,W
08CB8:  CLRF   03
08CBA:  ADDLW  90
08CBC:  MOVWF  FE9
08CBE:  MOVLW  03
08CC0:  ADDWFC 03,W
08CC2:  MOVWF  FEA
08CC4:  INCF   FEF,F
08CC6:  MOVLB  0
....................          } 
....................       } 
....................        
....................       if(DOWN){ 
08CC8:  BSF    F93.2
08CCA:  BTFSC  F81.2
08CCC:  BRA    8D18
....................          delay_ms(100); 
08CCE:  MOVLW  64
08CD0:  MOVLB  4
08CD2:  MOVWF  x69
08CD4:  MOVLB  0
08CD6:  CALL   1B4A
....................          if(Digito==0) 
08CDA:  MOVLB  2
08CDC:  MOVF   xE8,F
08CDE:  BNZ   8CE4
....................             Digito=1; 
08CE0:  MOVLW  01
08CE2:  MOVWF  xE8
....................          if(DOWN){ 
08CE4:  BSF    F93.2
08CE6:  BTFSC  F81.2
08CE8:  BRA    8D16
....................             if(Contrasena[Digito-1]>0) 
08CEA:  MOVLW  01
08CEC:  SUBWF  xE8,W
08CEE:  CLRF   03
08CF0:  ADDLW  90
08CF2:  MOVWF  FE9
08CF4:  MOVLW  03
08CF6:  ADDWFC 03,W
08CF8:  MOVWF  FEA
08CFA:  BTFSC  FEF.7
08CFC:  BRA    8D16
08CFE:  MOVF   FEF,W
08D00:  SUBLW  00
08D02:  BC    8D16
....................                Contrasena[Digito-1]--; 
08D04:  MOVLW  01
08D06:  SUBWF  xE8,W
08D08:  CLRF   03
08D0A:  ADDLW  90
08D0C:  MOVWF  FE9
08D0E:  MOVLW  03
08D10:  ADDWFC 03,W
08D12:  MOVWF  FEA
08D14:  DECF   FEF,F
08D16:  MOVLB  0
....................          } 
....................       } 
....................        
....................       if(RIGHT){ 
08D18:  BSF    F93.1
08D1A:  BTFSC  F81.1
08D1C:  BRA    8D36
....................          delay_ms(100); 
08D1E:  MOVLW  64
08D20:  MOVLB  4
08D22:  MOVWF  x69
08D24:  MOVLB  0
08D26:  CALL   1B4A
....................          if(RIGHT){ 
08D2A:  BSF    F93.1
08D2C:  BTFSC  F81.1
08D2E:  BRA    8D36
....................             Digito++; 
08D30:  MOVLB  2
08D32:  INCF   xE8,F
08D34:  MOVLB  0
....................          } 
....................       } 
....................        
....................       if(Digito>4){ 
08D36:  MOVLB  2
08D38:  MOVF   xE8,W
08D3A:  SUBLW  04
08D3C:  BTFSC  FD8.0
08D3E:  BRA    9090
....................       Digito=0; 
08D40:  CLRF   xE8
....................       printf("t0.txt=\"\""); 
08D42:  MOVLW  C6
08D44:  MOVWF  FF6
08D46:  MOVLW  06
08D48:  MOVWF  FF7
08D4A:  MOVLW  00
08D4C:  MOVWF  FF8
08D4E:  MOVLB  0
08D50:  CALL   3CA6
....................       SendDataDisplay(); 
08D54:  CALL   3CD8
....................          if(TipoClave==0){ 
08D58:  MOVLB  2
08D5A:  MOVF   xE6,F
08D5C:  BTFSS  FD8.2
08D5E:  BRA    8EAE
....................             if(Contrasena[0]==3&&Contrasena[1]==8&&Contrasena[2]==9&&Contrasena[3]==2){ // Si Ingresa clave para reset general del sistema. 
08D60:  MOVLB  3
08D62:  MOVF   x90,W
08D64:  SUBLW  03
08D66:  BTFSS  FD8.2
08D68:  BRA    8E62
08D6A:  MOVF   x91,W
08D6C:  SUBLW  08
08D6E:  BTFSS  FD8.2
08D70:  BRA    8E62
08D72:  MOVF   x92,W
08D74:  SUBLW  09
08D76:  BNZ   8E62
08D78:  MOVF   x93,W
08D7A:  SUBLW  02
08D7C:  BNZ   8E62
....................                write_eeprom(10,0);delay_ms(20);write_eeprom(11,0);delay_ms(20);// Reestablece a contrasea de Fabrica y reinicia Programa. 
08D7E:  CLRF   FAA
08D80:  MOVLW  0A
08D82:  MOVWF  FA9
08D84:  CLRF   FA8
08D86:  BCF    FA6.6
08D88:  BCF    FA6.7
08D8A:  BSF    FA6.2
08D8C:  MOVF   FF2,W
08D8E:  MOVWF  00
08D90:  BCF    FF2.6
08D92:  BCF    FF2.7
08D94:  MOVLB  F
08D96:  MOVLW  55
08D98:  MOVWF  FA7
08D9A:  MOVLW  AA
08D9C:  MOVWF  FA7
08D9E:  BSF    FA6.1
08DA0:  BTFSC  FA6.1
08DA2:  BRA    8DA0
08DA4:  BCF    FA6.2
08DA6:  MOVF   00,W
08DA8:  IORWF  FF2,F
08DAA:  MOVLW  14
08DAC:  MOVLB  4
08DAE:  MOVWF  x69
08DB0:  MOVLB  0
08DB2:  CALL   1B4A
08DB6:  CLRF   FAA
08DB8:  MOVLW  0B
08DBA:  MOVWF  FA9
08DBC:  CLRF   FA8
08DBE:  BCF    FA6.6
08DC0:  BCF    FA6.7
08DC2:  BSF    FA6.2
08DC4:  MOVF   FF2,W
08DC6:  MOVWF  00
08DC8:  BCF    FF2.6
08DCA:  BCF    FF2.7
08DCC:  MOVLB  F
08DCE:  MOVLW  55
08DD0:  MOVWF  FA7
08DD2:  MOVLW  AA
08DD4:  MOVWF  FA7
08DD6:  BSF    FA6.1
08DD8:  BTFSC  FA6.1
08DDA:  BRA    8DD8
08DDC:  BCF    FA6.2
08DDE:  MOVF   00,W
08DE0:  IORWF  FF2,F
08DE2:  MOVLW  14
08DE4:  MOVLB  4
08DE6:  MOVWF  x69
08DE8:  MOVLB  0
08DEA:  CALL   1B4A
....................                write_eeprom(12,0);delay_ms(20);write_eeprom(13,0);delay_ms(20); 
08DEE:  CLRF   FAA
08DF0:  MOVLW  0C
08DF2:  MOVWF  FA9
08DF4:  CLRF   FA8
08DF6:  BCF    FA6.6
08DF8:  BCF    FA6.7
08DFA:  BSF    FA6.2
08DFC:  MOVF   FF2,W
08DFE:  MOVWF  00
08E00:  BCF    FF2.6
08E02:  BCF    FF2.7
08E04:  MOVLB  F
08E06:  MOVLW  55
08E08:  MOVWF  FA7
08E0A:  MOVLW  AA
08E0C:  MOVWF  FA7
08E0E:  BSF    FA6.1
08E10:  BTFSC  FA6.1
08E12:  BRA    8E10
08E14:  BCF    FA6.2
08E16:  MOVF   00,W
08E18:  IORWF  FF2,F
08E1A:  MOVLW  14
08E1C:  MOVLB  4
08E1E:  MOVWF  x69
08E20:  MOVLB  0
08E22:  CALL   1B4A
08E26:  CLRF   FAA
08E28:  MOVLW  0D
08E2A:  MOVWF  FA9
08E2C:  CLRF   FA8
08E2E:  BCF    FA6.6
08E30:  BCF    FA6.7
08E32:  BSF    FA6.2
08E34:  MOVF   FF2,W
08E36:  MOVWF  00
08E38:  BCF    FF2.6
08E3A:  BCF    FF2.7
08E3C:  MOVLB  F
08E3E:  MOVLW  55
08E40:  MOVWF  FA7
08E42:  MOVLW  AA
08E44:  MOVWF  FA7
08E46:  BSF    FA6.1
08E48:  BTFSC  FA6.1
08E4A:  BRA    8E48
08E4C:  BCF    FA6.2
08E4E:  MOVF   00,W
08E50:  IORWF  FF2,F
08E52:  MOVLW  14
08E54:  MOVLB  4
08E56:  MOVWF  x69
08E58:  MOVLB  0
08E5A:  CALL   1B4A
....................                reset_cpu(); 
08E5E:  RESET
08E60:  MOVLB  3
....................             } 
....................              
....................             if((Contrasena[0]==Password[0])&&(Contrasena[1]==Password[1])&&(Contrasena[2]==Password[2])&&(Contrasena[3]==Password[3])){ 
08E62:  MOVF   x94,W
08E64:  SUBWF  x90,W
08E66:  BNZ   8E94
08E68:  MOVF   x95,W
08E6A:  SUBWF  x91,W
08E6C:  BNZ   8E94
08E6E:  MOVF   x96,W
08E70:  SUBWF  x92,W
08E72:  BNZ   8E94
08E74:  MOVF   x97,W
08E76:  SUBWF  x93,W
08E78:  BNZ   8E94
....................                //BorraBuffer(); 
....................                printf("page ClaveCorrecta"); 
08E7A:  MOVLW  D0
08E7C:  MOVWF  FF6
08E7E:  MOVLW  06
08E80:  MOVWF  FF7
08E82:  MOVLW  00
08E84:  MOVWF  FF8
08E86:  MOVLB  0
08E88:  CALL   3CA6
....................                SendDataDisplay(); 
08E8C:  CALL   3CD8
....................             }else{ 
08E90:  BRA    8EAA
08E92:  MOVLB  3
....................                //BorraBuffer(); 
....................                printf("page ClaveBad"); 
08E94:  MOVLW  E4
08E96:  MOVWF  FF6
08E98:  MOVLW  06
08E9A:  MOVWF  FF7
08E9C:  MOVLW  00
08E9E:  MOVWF  FF8
08EA0:  MOVLB  0
08EA2:  CALL   3CA6
....................                SendDataDisplay(); 
08EA6:  CALL   3CD8
....................             }  
....................          }else if(TipoClave==1){ 
08EAA:  BRA    908E
08EAC:  MOVLB  2
08EAE:  DECFSZ xE6,W
08EB0:  BRA    8F00
....................             if(Contrasena[0]==4&&Contrasena[1]==4&&Contrasena[2]==4&&Contrasena[3]==4){ // Si Ingresa clave de Servicio Tecnico 
08EB2:  MOVLB  3
08EB4:  MOVF   x90,W
08EB6:  SUBLW  04
08EB8:  BNZ   8EE6
08EBA:  MOVF   x91,W
08EBC:  SUBLW  04
08EBE:  BNZ   8EE6
08EC0:  MOVF   x92,W
08EC2:  SUBLW  04
08EC4:  BNZ   8EE6
08EC6:  MOVF   x93,W
08EC8:  SUBLW  04
08ECA:  BNZ   8EE6
....................                printf("page Config"); 
08ECC:  MOVLW  F2
08ECE:  MOVWF  FF6
08ED0:  MOVLW  06
08ED2:  MOVWF  FF7
08ED4:  MOVLW  00
08ED6:  MOVWF  FF8
08ED8:  MOVLB  0
08EDA:  CALL   3CA6
....................                SendDataDisplay(); 
08EDE:  CALL   3CD8
....................             }else{ 
08EE2:  BRA    8EFC
08EE4:  MOVLB  3
....................                printf("page MenuPrincipal"); 
08EE6:  MOVLW  FE
08EE8:  MOVWF  FF6
08EEA:  MOVLW  06
08EEC:  MOVWF  FF7
08EEE:  MOVLW  00
08EF0:  MOVWF  FF8
08EF2:  MOVLB  0
08EF4:  CALL   3CA6
....................                SendDataDisplay(); 
08EF8:  CALL   3CD8
....................             } 
....................          }else if(TipoClave==2){ 
08EFC:  BRA    908E
08EFE:  MOVLB  2
08F00:  MOVF   xE6,W
08F02:  SUBLW  02
08F04:  BNZ   8F6E
....................             if((Contrasena[0]==Password[0])&&(Contrasena[1]==Password[1])&&(Contrasena[2]==Password[2])&&(Contrasena[3]==Password[3])){ 
08F06:  MOVLB  3
08F08:  MOVF   x94,W
08F0A:  SUBWF  x90,W
08F0C:  BNZ   8F54
08F0E:  MOVF   x95,W
08F10:  SUBWF  x91,W
08F12:  BNZ   8F54
08F14:  MOVF   x96,W
08F16:  SUBWF  x92,W
08F18:  BNZ   8F54
08F1A:  MOVF   x97,W
08F1C:  SUBWF  x93,W
08F1E:  BNZ   8F54
....................                printf("page Clave"); 
08F20:  MOVLW  12
08F22:  MOVWF  FF6
08F24:  MOVLW  07
08F26:  MOVWF  FF7
08F28:  MOVLW  00
08F2A:  MOVWF  FF8
08F2C:  MOVLB  0
08F2E:  CALL   3CA6
....................                SendDataDisplay(); 
08F32:  CALL   3CD8
....................                printf("titulo.txt=\"Clave Nueva\""); 
08F36:  MOVLW  1E
08F38:  MOVWF  FF6
08F3A:  MOVLW  07
08F3C:  MOVWF  FF7
08F3E:  MOVLW  00
08F40:  MOVWF  FF8
08F42:  CALL   3CA6
....................                SendDataDisplay(); 
08F46:  CALL   3CD8
....................                TipoClave=3; 
08F4A:  MOVLW  03
08F4C:  MOVLB  2
08F4E:  MOVWF  xE6
....................             }else{ 
08F50:  BRA    8F6C
08F52:  MOVLB  3
....................                printf("page MenuPrincipal"); 
08F54:  MOVLW  38
08F56:  MOVWF  FF6
08F58:  MOVLW  07
08F5A:  MOVWF  FF7
08F5C:  MOVLW  00
08F5E:  MOVWF  FF8
08F60:  MOVLB  0
08F62:  CALL   3CA6
....................                SendDataDisplay(); 
08F66:  CALL   3CD8
08F6A:  MOVLB  2
....................             }  
....................          }else if(TipoClave==3){ 
08F6C:  BRA    9090
08F6E:  MOVF   xE6,W
08F70:  SUBLW  03
08F72:  BTFSS  FD8.2
08F74:  BRA    9090
....................             printf("titulo.txt=\"Clave Nueva\""); 
08F76:  MOVLW  4C
08F78:  MOVWF  FF6
08F7A:  MOVLW  07
08F7C:  MOVWF  FF7
08F7E:  MOVLW  00
08F80:  MOVWF  FF8
08F82:  MOVLB  0
08F84:  CALL   3CA6
....................             SendDataDisplay(); 
08F88:  CALL   3CD8
....................             printf("page MenuPrincipal"); 
08F8C:  MOVLW  66
08F8E:  MOVWF  FF6
08F90:  MOVLW  07
08F92:  MOVWF  FF7
08F94:  MOVLW  00
08F96:  MOVWF  FF8
08F98:  CALL   3CA6
....................             SendDataDisplay(); 
08F9C:  CALL   3CD8
....................             if(!GuardaEEPROM){ 
08FA0:  BTFSC  xAB.0
08FA2:  BRA    908E
....................                write_eeprom(10,Contrasena[0]);delay_ms(20);write_eeprom(11,Contrasena[1]);delay_ms(20); 
08FA4:  CLRF   FAA
08FA6:  MOVLW  0A
08FA8:  MOVWF  FA9
08FAA:  MOVFF  390,FA8
08FAE:  BCF    FA6.6
08FB0:  BCF    FA6.7
08FB2:  BSF    FA6.2
08FB4:  MOVF   FF2,W
08FB6:  MOVWF  00
08FB8:  BCF    FF2.6
08FBA:  BCF    FF2.7
08FBC:  MOVLB  F
08FBE:  MOVLW  55
08FC0:  MOVWF  FA7
08FC2:  MOVLW  AA
08FC4:  MOVWF  FA7
08FC6:  BSF    FA6.1
08FC8:  BTFSC  FA6.1
08FCA:  BRA    8FC8
08FCC:  BCF    FA6.2
08FCE:  MOVF   00,W
08FD0:  IORWF  FF2,F
08FD2:  MOVLW  14
08FD4:  MOVLB  4
08FD6:  MOVWF  x69
08FD8:  MOVLB  0
08FDA:  CALL   1B4A
08FDE:  CLRF   FAA
08FE0:  MOVLW  0B
08FE2:  MOVWF  FA9
08FE4:  MOVFF  391,FA8
08FE8:  BCF    FA6.6
08FEA:  BCF    FA6.7
08FEC:  BSF    FA6.2
08FEE:  MOVF   FF2,W
08FF0:  MOVWF  00
08FF2:  BCF    FF2.6
08FF4:  BCF    FF2.7
08FF6:  MOVLB  F
08FF8:  MOVLW  55
08FFA:  MOVWF  FA7
08FFC:  MOVLW  AA
08FFE:  MOVWF  FA7
09000:  BSF    FA6.1
09002:  BTFSC  FA6.1
09004:  BRA    9002
09006:  BCF    FA6.2
09008:  MOVF   00,W
0900A:  IORWF  FF2,F
0900C:  MOVLW  14
0900E:  MOVLB  4
09010:  MOVWF  x69
09012:  MOVLB  0
09014:  CALL   1B4A
....................                write_eeprom(12,Contrasena[2]);delay_ms(20);write_eeprom(13,Contrasena[3]);delay_ms(20); 
09018:  CLRF   FAA
0901A:  MOVLW  0C
0901C:  MOVWF  FA9
0901E:  MOVFF  392,FA8
09022:  BCF    FA6.6
09024:  BCF    FA6.7
09026:  BSF    FA6.2
09028:  MOVF   FF2,W
0902A:  MOVWF  00
0902C:  BCF    FF2.6
0902E:  BCF    FF2.7
09030:  MOVLB  F
09032:  MOVLW  55
09034:  MOVWF  FA7
09036:  MOVLW  AA
09038:  MOVWF  FA7
0903A:  BSF    FA6.1
0903C:  BTFSC  FA6.1
0903E:  BRA    903C
09040:  BCF    FA6.2
09042:  MOVF   00,W
09044:  IORWF  FF2,F
09046:  MOVLW  14
09048:  MOVLB  4
0904A:  MOVWF  x69
0904C:  MOVLB  0
0904E:  CALL   1B4A
09052:  CLRF   FAA
09054:  MOVLW  0D
09056:  MOVWF  FA9
09058:  MOVFF  393,FA8
0905C:  BCF    FA6.6
0905E:  BCF    FA6.7
09060:  BSF    FA6.2
09062:  MOVF   FF2,W
09064:  MOVWF  00
09066:  BCF    FF2.6
09068:  BCF    FF2.7
0906A:  MOVLB  F
0906C:  MOVLW  55
0906E:  MOVWF  FA7
09070:  MOVLW  AA
09072:  MOVWF  FA7
09074:  BSF    FA6.1
09076:  BTFSC  FA6.1
09078:  BRA    9076
0907A:  BCF    FA6.2
0907C:  MOVF   00,W
0907E:  IORWF  FF2,F
09080:  MOVLW  14
09082:  MOVLB  4
09084:  MOVWF  x69
09086:  MOVLB  0
09088:  CALL   1B4A
....................                GuardaEEPROM=ON; 
0908C:  BSF    xAB.0
0908E:  MOVLB  2
....................             } 
....................          } 
....................       } 
....................        
....................       if(RX_Buffer[4]==0x11){//11 
09090:  MOVF   34,W
09092:  SUBLW  11
09094:  BNZ   90B4
....................          if(TipoClave!=0){ 
09096:  MOVF   xE6,F
09098:  BZ    90B4
....................             printf("page MenuPrincipal"); 
0909A:  MOVLW  7A
0909C:  MOVWF  FF6
0909E:  MOVLW  07
090A0:  MOVWF  FF7
090A2:  MOVLW  00
090A4:  MOVWF  FF8
090A6:  MOVLB  0
090A8:  CALL   3CA6
....................             SendDataDisplay(); 
090AC:  CALL   3CD8
....................             PantallaPrincipal=0; 
090B0:  MOVLB  2
090B2:  CLRF   xE5
....................          } 
....................       } 
....................        
....................       if(TipoClave==3){ 
090B4:  MOVF   xE6,W
090B6:  SUBLW  03
090B8:  BNZ   90E6
....................          printf("titulo.txt=\"Clave Nueva\""); 
090BA:  MOVLW  8E
090BC:  MOVWF  FF6
090BE:  MOVLW  07
090C0:  MOVWF  FF7
090C2:  MOVLW  00
090C4:  MOVWF  FF8
090C6:  MOVLB  0
090C8:  CALL   3CA6
....................          SendDataDisplay(); 
090CC:  CALL   3CD8
....................          printf("doevents"); 
090D0:  MOVLW  A8
090D2:  MOVWF  FF6
090D4:  MOVLW  07
090D6:  MOVWF  FF7
090D8:  MOVLW  00
090DA:  MOVWF  FF8
090DC:  CALL   3CA6
....................          SendDataDisplay(); 
090E0:  CALL   3CD8
090E4:  MOVLB  2
....................       } 
....................        
....................       if(TipoClave==2){ 
090E6:  MOVF   xE6,W
090E8:  SUBLW  02
090EA:  BNZ   9118
....................          printf("titulo.txt=\"Clave Actual\""); 
090EC:  MOVLW  B2
090EE:  MOVWF  FF6
090F0:  MOVLW  07
090F2:  MOVWF  FF7
090F4:  MOVLW  00
090F6:  MOVWF  FF8
090F8:  MOVLB  0
090FA:  CALL   3CA6
....................          SendDataDisplay(); 
090FE:  CALL   3CD8
....................          printf("doevents"); 
09102:  MOVLW  CC
09104:  MOVWF  FF6
09106:  MOVLW  07
09108:  MOVWF  FF7
0910A:  MOVLW  00
0910C:  MOVWF  FF8
0910E:  CALL   3CA6
....................          SendDataDisplay(); 
09112:  CALL   3CD8
09116:  MOVLB  2
....................       } 
....................        
....................       if(TipoClave==1){ 
09118:  DECFSZ xE6,W
0911A:  BRA    9148
....................          printf("titulo.txt=\"Clave Tecnico\""); 
0911C:  MOVLW  D6
0911E:  MOVWF  FF6
09120:  MOVLW  07
09122:  MOVWF  FF7
09124:  MOVLW  00
09126:  MOVWF  FF8
09128:  MOVLB  0
0912A:  CALL   3CA6
....................          SendDataDisplay(); 
0912E:  CALL   3CD8
....................          printf("doevents"); 
09132:  MOVLW  F2
09134:  MOVWF  FF6
09136:  MOVLW  07
09138:  MOVWF  FF7
0913A:  MOVLW  00
0913C:  MOVWF  FF8
0913E:  CALL   3CA6
....................          SendDataDisplay(); 
09142:  CALL   3CD8
09146:  MOVLB  2
....................       } 
....................        
....................       if(TipoClave==0){ 
09148:  MOVF   xE6,F
0914A:  BNZ   9164
....................          printf("titulo.txt=\"Ingrese Contrasea\""); 
0914C:  MOVLW  FC
0914E:  MOVWF  FF6
09150:  MOVLW  07
09152:  MOVWF  FF7
09154:  MOVLW  00
09156:  MOVWF  FF8
09158:  MOVLB  0
0915A:  CALL   3CA6
....................          SendDataDisplay(); 
0915E:  CALL   3CD8
09162:  MOVLB  2
....................       } 
....................       if(RX_Buffer[3]==0x0f){//0f, recibe caracteres ingresados desde el Display 
09164:  MOVF   33,W
09166:  SUBLW  0F
09168:  BTFSS  FD8.2
0916A:  BRA    9544
....................          if(TipoClave==0){ 
0916C:  MOVF   xE6,F
0916E:  BTFSS  FD8.2
09170:  BRA    9300
....................             if(RX_Buffer[4]==0x33&&RX_Buffer[5]==0x38&&RX_Buffer[6]==0x39&&RX_Buffer[7]==0x32){ // Si Ingresa clave para reset general del sistema. 
09172:  MOVF   34,W
09174:  SUBLW  33
09176:  BTFSS  FD8.2
09178:  BRA    9272
0917A:  MOVF   35,W
0917C:  SUBLW  38
0917E:  BTFSS  FD8.2
09180:  BRA    9272
09182:  MOVF   36,W
09184:  SUBLW  39
09186:  BNZ   9272
09188:  MOVF   37,W
0918A:  SUBLW  32
0918C:  BNZ   9272
....................                write_eeprom(10,0);delay_ms(20);write_eeprom(11,0);delay_ms(20);// Reestablece a contrasea de Fabrica y reinicia Programa. 
0918E:  CLRF   FAA
09190:  MOVLW  0A
09192:  MOVWF  FA9
09194:  CLRF   FA8
09196:  BCF    FA6.6
09198:  BCF    FA6.7
0919A:  BSF    FA6.2
0919C:  MOVF   FF2,W
0919E:  MOVWF  00
091A0:  BCF    FF2.6
091A2:  BCF    FF2.7
091A4:  MOVLB  F
091A6:  MOVLW  55
091A8:  MOVWF  FA7
091AA:  MOVLW  AA
091AC:  MOVWF  FA7
091AE:  BSF    FA6.1
091B0:  BTFSC  FA6.1
091B2:  BRA    91B0
091B4:  BCF    FA6.2
091B6:  MOVF   00,W
091B8:  IORWF  FF2,F
091BA:  MOVLW  14
091BC:  MOVLB  4
091BE:  MOVWF  x69
091C0:  MOVLB  0
091C2:  CALL   1B4A
091C6:  CLRF   FAA
091C8:  MOVLW  0B
091CA:  MOVWF  FA9
091CC:  CLRF   FA8
091CE:  BCF    FA6.6
091D0:  BCF    FA6.7
091D2:  BSF    FA6.2
091D4:  MOVF   FF2,W
091D6:  MOVWF  00
091D8:  BCF    FF2.6
091DA:  BCF    FF2.7
091DC:  MOVLB  F
091DE:  MOVLW  55
091E0:  MOVWF  FA7
091E2:  MOVLW  AA
091E4:  MOVWF  FA7
091E6:  BSF    FA6.1
091E8:  BTFSC  FA6.1
091EA:  BRA    91E8
091EC:  BCF    FA6.2
091EE:  MOVF   00,W
091F0:  IORWF  FF2,F
091F2:  MOVLW  14
091F4:  MOVLB  4
091F6:  MOVWF  x69
091F8:  MOVLB  0
091FA:  CALL   1B4A
....................                write_eeprom(12,0);delay_ms(20);write_eeprom(13,0);delay_ms(20); 
091FE:  CLRF   FAA
09200:  MOVLW  0C
09202:  MOVWF  FA9
09204:  CLRF   FA8
09206:  BCF    FA6.6
09208:  BCF    FA6.7
0920A:  BSF    FA6.2
0920C:  MOVF   FF2,W
0920E:  MOVWF  00
09210:  BCF    FF2.6
09212:  BCF    FF2.7
09214:  MOVLB  F
09216:  MOVLW  55
09218:  MOVWF  FA7
0921A:  MOVLW  AA
0921C:  MOVWF  FA7
0921E:  BSF    FA6.1
09220:  BTFSC  FA6.1
09222:  BRA    9220
09224:  BCF    FA6.2
09226:  MOVF   00,W
09228:  IORWF  FF2,F
0922A:  MOVLW  14
0922C:  MOVLB  4
0922E:  MOVWF  x69
09230:  MOVLB  0
09232:  CALL   1B4A
09236:  CLRF   FAA
09238:  MOVLW  0D
0923A:  MOVWF  FA9
0923C:  CLRF   FA8
0923E:  BCF    FA6.6
09240:  BCF    FA6.7
09242:  BSF    FA6.2
09244:  MOVF   FF2,W
09246:  MOVWF  00
09248:  BCF    FF2.6
0924A:  BCF    FF2.7
0924C:  MOVLB  F
0924E:  MOVLW  55
09250:  MOVWF  FA7
09252:  MOVLW  AA
09254:  MOVWF  FA7
09256:  BSF    FA6.1
09258:  BTFSC  FA6.1
0925A:  BRA    9258
0925C:  BCF    FA6.2
0925E:  MOVF   00,W
09260:  IORWF  FF2,F
09262:  MOVLW  14
09264:  MOVLB  4
09266:  MOVWF  x69
09268:  MOVLB  0
0926A:  CALL   1B4A
....................                reset_cpu(); 
0926E:  RESET
09270:  MOVLB  2
....................             } 
....................             if(RX_Buffer[4]>=0x30 && RX_Buffer[5]>=0x30 && RX_Buffer[6]>=0x30 && RX_Buffer[7]>=0x30 
....................             && RX_Buffer[4]<=0x39 && RX_Buffer[5]<=0x39 && RX_Buffer[6]<=0x39 && RX_Buffer[7]<=0x39){ 
09272:  MOVF   34,W
09274:  SUBLW  2F
09276:  BC    92FE
09278:  MOVF   35,W
0927A:  SUBLW  2F
0927C:  BC    92FE
0927E:  MOVF   36,W
09280:  SUBLW  2F
09282:  BC    92FE
09284:  MOVF   37,W
09286:  SUBLW  2F
09288:  BC    92FE
0928A:  MOVF   34,W
0928C:  SUBLW  39
0928E:  BNC   92FE
09290:  MOVF   35,W
09292:  SUBLW  39
09294:  BNC   92FE
09296:  MOVF   36,W
09298:  SUBLW  39
0929A:  BNC   92FE
0929C:  MOVF   37,W
0929E:  SUBLW  39
092A0:  BNC   92FE
....................             if((RX_Buffer[4]==Password[0]+0x30)&&(RX_Buffer[5]==Password[1]+0x30)&&(RX_Buffer[6]==Password[2]+0x30)&&(RX_Buffer[7]==Password[3]+0x30)){ 
092A2:  MOVLW  30
092A4:  MOVLB  3
092A6:  ADDWF  x94,W
092A8:  SUBWF  34,W
092AA:  BNZ   92E2
092AC:  MOVLW  30
092AE:  ADDWF  x95,W
092B0:  SUBWF  35,W
092B2:  BNZ   92E2
092B4:  MOVLW  30
092B6:  ADDWF  x96,W
092B8:  SUBWF  36,W
092BA:  BNZ   92E2
092BC:  MOVLW  30
092BE:  ADDWF  x97,W
092C0:  SUBWF  37,W
092C2:  BNZ   92E2
....................                   printf("page ClaveCorrecta"); 
092C4:  MOVLW  1C
092C6:  MOVWF  FF6
092C8:  MOVLW  08
092CA:  MOVWF  FF7
092CC:  MOVLW  00
092CE:  MOVWF  FF8
092D0:  MOVLB  0
092D2:  CALL   3CA6
....................                   //printf("page MenuPrincipal"); 
....................                   SendDataDisplay(); 
092D6:  CALL   3CD8
....................                   RX_Buffer[3]=0x00;RX_Buffer2[3]=0x00;   
092DA:  CLRF   33
092DC:  CLRF   3E
....................                }else{ 
092DE:  BRA    92FC
092E0:  MOVLB  3
....................                   printf("page ClaveBad"); 
092E2:  MOVLW  30
092E4:  MOVWF  FF6
092E6:  MOVLW  08
092E8:  MOVWF  FF7
092EA:  MOVLW  00
092EC:  MOVWF  FF8
092EE:  MOVLB  0
092F0:  CALL   3CA6
....................                   SendDataDisplay(); 
092F4:  CALL   3CD8
....................                   RX_Buffer[3]=0x00;RX_Buffer2[3]=0x00;   
092F8:  CLRF   33
092FA:  CLRF   3E
092FC:  MOVLB  2
....................                }  
....................             } 
....................          }else if(TipoClave==1){ 
092FE:  BRA    9544
09300:  DECFSZ xE6,W
09302:  BRA    9350
....................             if(RX_Buffer[4]==0x34&&RX_Buffer[5]==0x34&&RX_Buffer[6]==0x34&&RX_Buffer[7]==0x34){ // Si Ingresa clave de Servicio Tecnico 
09304:  MOVF   34,W
09306:  SUBLW  34
09308:  BNZ   9336
0930A:  MOVF   35,W
0930C:  SUBLW  34
0930E:  BNZ   9336
09310:  MOVF   36,W
09312:  SUBLW  34
09314:  BNZ   9336
09316:  MOVF   37,W
09318:  SUBLW  34
0931A:  BNZ   9336
....................                printf("page Config"); 
0931C:  MOVLW  3E
0931E:  MOVWF  FF6
09320:  MOVLW  08
09322:  MOVWF  FF7
09324:  MOVLW  00
09326:  MOVWF  FF8
09328:  MOVLB  0
0932A:  CALL   3CA6
....................                SendDataDisplay(); 
0932E:  CALL   3CD8
....................             }else{ 
09332:  BRA    934C
09334:  MOVLB  2
....................                printf("page MenuPrincipal"); 
09336:  MOVLW  4A
09338:  MOVWF  FF6
0933A:  MOVLW  08
0933C:  MOVWF  FF7
0933E:  MOVLW  00
09340:  MOVWF  FF8
09342:  MOVLB  0
09344:  CALL   3CA6
....................                SendDataDisplay(); 
09348:  CALL   3CD8
....................             } 
....................          }else if(TipoClave==2){ 
0934C:  BRA    9542
0934E:  MOVLB  2
09350:  MOVF   xE6,W
09352:  SUBLW  02
09354:  BNZ   93FE
....................             if(RX_Buffer[4]>=0x30 && RX_Buffer[5]>=0x30 && RX_Buffer[6]>=0x30 && RX_Buffer[7]>=0x30 
....................             && RX_Buffer[4]<=0x39 && RX_Buffer[5]<=0x39 && RX_Buffer[6]<=0x39 && RX_Buffer[7]<=0x39){ 
09356:  MOVF   34,W
09358:  SUBLW  2F
0935A:  BC    93FC
0935C:  MOVF   35,W
0935E:  SUBLW  2F
09360:  BC    93FC
09362:  MOVF   36,W
09364:  SUBLW  2F
09366:  BC    93FC
09368:  MOVF   37,W
0936A:  SUBLW  2F
0936C:  BC    93FC
0936E:  MOVF   34,W
09370:  SUBLW  39
09372:  BNC   93FC
09374:  MOVF   35,W
09376:  SUBLW  39
09378:  BNC   93FC
0937A:  MOVF   36,W
0937C:  SUBLW  39
0937E:  BNC   93FC
09380:  MOVF   37,W
09382:  SUBLW  39
09384:  BNC   93FC
....................             if((RX_Buffer[4]==Password[0]+0x30)&&(RX_Buffer[5]==Password[1]+0x30)&&(RX_Buffer[6]==Password[2]+0x30)&&(RX_Buffer[7]==Password[3]+0x30)){ 
09386:  MOVLW  30
09388:  MOVLB  3
0938A:  ADDWF  x94,W
0938C:  SUBWF  34,W
0938E:  BNZ   93E0
09390:  MOVLW  30
09392:  ADDWF  x95,W
09394:  SUBWF  35,W
09396:  BNZ   93E0
09398:  MOVLW  30
0939A:  ADDWF  x96,W
0939C:  SUBWF  36,W
0939E:  BNZ   93E0
093A0:  MOVLW  30
093A2:  ADDWF  x97,W
093A4:  SUBWF  37,W
093A6:  BNZ   93E0
....................                printf("page Clave"); 
093A8:  MOVLW  5E
093AA:  MOVWF  FF6
093AC:  MOVLW  08
093AE:  MOVWF  FF7
093B0:  MOVLW  00
093B2:  MOVWF  FF8
093B4:  MOVLB  0
093B6:  CALL   3CA6
....................                SendDataDisplay(); 
093BA:  CALL   3CD8
....................                printf("titulo.txt=\"Clave Nueva\""); 
093BE:  MOVLW  6A
093C0:  MOVWF  FF6
093C2:  MOVLW  08
093C4:  MOVWF  FF7
093C6:  MOVLW  00
093C8:  MOVWF  FF8
093CA:  CALL   3CA6
....................                SendDataDisplay(); 
093CE:  CALL   3CD8
....................                TipoClave=3; 
093D2:  MOVLW  03
093D4:  MOVLB  2
093D6:  MOVWF  xE6
....................                RX_Buffer[3]=0x00; 
093D8:  CLRF   33
....................                RX_Buffer2[3]=0x00; 
093DA:  CLRF   3E
....................             }else{ 
093DC:  BRA    93FC
093DE:  MOVLB  3
....................                printf("page MenuPrincipal"); 
093E0:  MOVLW  84
093E2:  MOVWF  FF6
093E4:  MOVLW  08
093E6:  MOVWF  FF7
093E8:  MOVLW  00
093EA:  MOVWF  FF8
093EC:  MOVLB  0
093EE:  CALL   3CA6
....................                SendDataDisplay(); 
093F2:  CALL   3CD8
....................                RX_Buffer[3]=0x00; 
093F6:  CLRF   33
....................                RX_Buffer2[3]=0x00; 
093F8:  CLRF   3E
093FA:  MOVLB  2
....................             }  
....................             } 
....................          }else if(TipoClave==3){ 
093FC:  BRA    9544
093FE:  MOVF   xE6,W
09400:  SUBLW  03
09402:  BTFSS  FD8.2
09404:  BRA    9544
....................             printf("titulo.txt=\"Clave Nueva\""); 
09406:  MOVLW  98
09408:  MOVWF  FF6
0940A:  MOVLW  08
0940C:  MOVWF  FF7
0940E:  MOVLW  00
09410:  MOVWF  FF8
09412:  MOVLB  0
09414:  CALL   3CA6
....................             SendDataDisplay(); 
09418:  CALL   3CD8
....................             printf("page MenuPrincipal"); 
0941C:  MOVLW  B2
0941E:  MOVWF  FF6
09420:  MOVLW  08
09422:  MOVWF  FF7
09424:  MOVLW  00
09426:  MOVWF  FF8
09428:  CALL   3CA6
....................             SendDataDisplay(); 
0942C:  CALL   3CD8
....................             if(!GuardaEEPROM){ 
09430:  BTFSC  xAB.0
09432:  BRA    953E
....................                write_eeprom(10,RX_Buffer[4]-0x30);delay_ms(20);write_eeprom(11,RX_Buffer[5]-0x30);delay_ms(20); 
09434:  MOVLW  30
09436:  SUBWF  34,W
09438:  MOVLB  4
0943A:  MOVWF  x50
0943C:  CLRF   FAA
0943E:  MOVLW  0A
09440:  MOVWF  FA9
09442:  MOVFF  450,FA8
09446:  BCF    FA6.6
09448:  BCF    FA6.7
0944A:  BSF    FA6.2
0944C:  MOVF   FF2,W
0944E:  MOVWF  00
09450:  BCF    FF2.6
09452:  BCF    FF2.7
09454:  MOVLB  F
09456:  MOVLW  55
09458:  MOVWF  FA7
0945A:  MOVLW  AA
0945C:  MOVWF  FA7
0945E:  BSF    FA6.1
09460:  BTFSC  FA6.1
09462:  BRA    9460
09464:  BCF    FA6.2
09466:  MOVF   00,W
09468:  IORWF  FF2,F
0946A:  MOVLW  14
0946C:  MOVLB  4
0946E:  MOVWF  x69
09470:  MOVLB  0
09472:  CALL   1B4A
09476:  MOVLW  30
09478:  SUBWF  35,W
0947A:  MOVLB  4
0947C:  MOVWF  x50
0947E:  CLRF   FAA
09480:  MOVLW  0B
09482:  MOVWF  FA9
09484:  MOVFF  450,FA8
09488:  BCF    FA6.6
0948A:  BCF    FA6.7
0948C:  BSF    FA6.2
0948E:  MOVF   FF2,W
09490:  MOVWF  00
09492:  BCF    FF2.6
09494:  BCF    FF2.7
09496:  MOVLB  F
09498:  MOVLW  55
0949A:  MOVWF  FA7
0949C:  MOVLW  AA
0949E:  MOVWF  FA7
094A0:  BSF    FA6.1
094A2:  BTFSC  FA6.1
094A4:  BRA    94A2
094A6:  BCF    FA6.2
094A8:  MOVF   00,W
094AA:  IORWF  FF2,F
094AC:  MOVLW  14
094AE:  MOVLB  4
094B0:  MOVWF  x69
094B2:  MOVLB  0
094B4:  CALL   1B4A
....................                write_eeprom(12,RX_Buffer[6]-0x30);delay_ms(20);write_eeprom(13,RX_Buffer[7]-0x30);delay_ms(20); 
094B8:  MOVLW  30
094BA:  SUBWF  36,W
094BC:  MOVLB  4
094BE:  MOVWF  x50
094C0:  CLRF   FAA
094C2:  MOVLW  0C
094C4:  MOVWF  FA9
094C6:  MOVFF  450,FA8
094CA:  BCF    FA6.6
094CC:  BCF    FA6.7
094CE:  BSF    FA6.2
094D0:  MOVF   FF2,W
094D2:  MOVWF  00
094D4:  BCF    FF2.6
094D6:  BCF    FF2.7
094D8:  MOVLB  F
094DA:  MOVLW  55
094DC:  MOVWF  FA7
094DE:  MOVLW  AA
094E0:  MOVWF  FA7
094E2:  BSF    FA6.1
094E4:  BTFSC  FA6.1
094E6:  BRA    94E4
094E8:  BCF    FA6.2
094EA:  MOVF   00,W
094EC:  IORWF  FF2,F
094EE:  MOVLW  14
094F0:  MOVLB  4
094F2:  MOVWF  x69
094F4:  MOVLB  0
094F6:  CALL   1B4A
094FA:  MOVLW  30
094FC:  SUBWF  37,W
094FE:  MOVLB  4
09500:  MOVWF  x50
09502:  CLRF   FAA
09504:  MOVLW  0D
09506:  MOVWF  FA9
09508:  MOVFF  450,FA8
0950C:  BCF    FA6.6
0950E:  BCF    FA6.7
09510:  BSF    FA6.2
09512:  MOVF   FF2,W
09514:  MOVWF  00
09516:  BCF    FF2.6
09518:  BCF    FF2.7
0951A:  MOVLB  F
0951C:  MOVLW  55
0951E:  MOVWF  FA7
09520:  MOVLW  AA
09522:  MOVWF  FA7
09524:  BSF    FA6.1
09526:  BTFSC  FA6.1
09528:  BRA    9526
0952A:  BCF    FA6.2
0952C:  MOVF   00,W
0952E:  IORWF  FF2,F
09530:  MOVLW  14
09532:  MOVLB  4
09534:  MOVWF  x69
09536:  MOVLB  0
09538:  CALL   1B4A
....................                GuardaEEPROM=ON; 
0953C:  BSF    xAB.0
....................             } 
....................             RX_Buffer[3]=0x00; 
0953E:  CLRF   33
....................             RX_Buffer2[3]=0x00; 
09540:  CLRF   3E
09542:  MOVLB  2
09544:  MOVLB  3
....................          } 
....................       } 
....................     } 
.................... //_--------------------------------------------------------------------------------------------------------------------------------------------------------        
....................  
.................... //_-------------------------------------------------------------------------------------------------------------------------------------------------------- 
....................    if(Menu==1){ //Menu Principal. 
09546:  DECFSZ x68,W
09548:  GOTO   9F2C
....................       printf("fecha.txt=\"T:%3.1fC Fecha:%02u/%02u/20%02u Hora: %02u:%02u:%02u\"",Temperatura,Dia,Mes,Year,Hora,Minuto,Segundo); 
0954C:  MOVLW  C6
0954E:  MOVWF  FF6
09550:  MOVLW  08
09552:  MOVWF  FF7
09554:  MOVLW  00
09556:  MOVWF  FF8
09558:  MOVLW  0D
0955A:  MOVLB  4
0955C:  MOVWF  x56
0955E:  MOVLB  0
09560:  CALL   4CA0
09564:  MOVLW  02
09566:  MOVWF  FE9
09568:  MOVFF  335,459
0956C:  MOVFF  334,458
09570:  MOVFF  333,457
09574:  MOVFF  332,456
09578:  MOVLW  01
0957A:  MOVLB  4
0957C:  MOVWF  x5A
0957E:  MOVLB  0
09580:  CALL   4E40
09584:  MOVLW  D8
09586:  MOVWF  FF6
09588:  MOVLW  08
0958A:  MOVWF  FF7
0958C:  MOVLW  00
0958E:  MOVWF  FF8
09590:  MOVLW  09
09592:  MOVLB  4
09594:  MOVWF  x56
09596:  MOVLB  0
09598:  CALL   4CA0
0959C:  MOVFF  3AD,456
095A0:  MOVLW  01
095A2:  MOVLB  4
095A4:  MOVWF  x57
095A6:  MOVLB  0
095A8:  CALL   4CFE
095AC:  MOVLW  2F
095AE:  BTFSS  F9E.4
095B0:  BRA    95AE
095B2:  MOVWF  FAD
095B4:  MOVFF  3AC,456
095B8:  MOVLW  01
095BA:  MOVLB  4
095BC:  MOVWF  x57
095BE:  MOVLB  0
095C0:  CALL   4CFE
095C4:  MOVLW  2F
095C6:  BTFSS  F9E.4
095C8:  BRA    95C6
095CA:  MOVWF  FAD
095CC:  MOVLW  32
095CE:  BTFSS  F9E.4
095D0:  BRA    95CE
095D2:  MOVWF  FAD
095D4:  MOVLW  30
095D6:  BTFSS  F9E.4
095D8:  BRA    95D6
095DA:  MOVWF  FAD
095DC:  MOVFF  3AB,456
095E0:  MOVLW  01
095E2:  MOVLB  4
095E4:  MOVWF  x57
095E6:  MOVLB  0
095E8:  CALL   4CFE
095EC:  MOVLW  F1
095EE:  MOVWF  FF6
095F0:  MOVLW  08
095F2:  MOVWF  FF7
095F4:  MOVLW  00
095F6:  MOVWF  FF8
095F8:  MOVLW  07
095FA:  MOVLB  4
095FC:  MOVWF  x56
095FE:  MOVLB  0
09600:  CALL   4CA0
09604:  MOVFF  3AE,456
09608:  MOVLW  01
0960A:  MOVLB  4
0960C:  MOVWF  x57
0960E:  MOVLB  0
09610:  CALL   4CFE
09614:  MOVLW  3A
09616:  BTFSS  F9E.4
09618:  BRA    9616
0961A:  MOVWF  FAD
0961C:  MOVFF  3AF,456
09620:  MOVLW  01
09622:  MOVLB  4
09624:  MOVWF  x57
09626:  MOVLB  0
09628:  CALL   4CFE
0962C:  MOVLW  3A
0962E:  BTFSS  F9E.4
09630:  BRA    962E
09632:  MOVWF  FAD
09634:  MOVFF  3B0,456
09638:  MOVLW  01
0963A:  MOVLB  4
0963C:  MOVWF  x57
0963E:  MOVLB  0
09640:  CALL   4CFE
09644:  MOVLW  22
09646:  BTFSS  F9E.4
09648:  BRA    9646
0964A:  MOVWF  FAD
....................       SendDataDisplay(); 
0964C:  CALL   3CD8
....................       PruebaEstados=OFF; 
09650:  BCF    xA9.6
....................       GuardaEEPROM=OFF; 
09652:  BCF    xAB.0
....................       if(RX_Buffer[3]==0x0f || UP){//0f, recibe caracteres ingresados desde el Display 
09654:  MOVF   33,W
09656:  SUBLW  0F
09658:  BZ    9660
0965A:  BSF    F93.3
0965C:  BTFSC  F81.3
0965E:  BRA    98E4
....................          delay_ms(5); 
09660:  MOVLW  05
09662:  MOVLB  4
09664:  MOVWF  x69
09666:  MOVLB  0
09668:  CALL   1B4A
....................          if(RX_Buffer[3]==0x0f || UP){ 
0966C:  MOVF   33,W
0966E:  SUBLW  0F
09670:  BZ    9678
09672:  BSF    F93.3
09674:  BTFSC  F81.3
09676:  BRA    98DE
....................          if(PantallaPrincipal==0){//Si esta en menu principal 
09678:  MOVLB  2
0967A:  MOVF   xE5,F
0967C:  BTFSS  FD8.2
0967E:  BRA    98E2
....................             if(RX_Buffer[4]==0x37){//Ajustes y pasa a solicitud de password de tecnico 
09680:  MOVF   34,W
09682:  SUBLW  37
09684:  BNZ   96B2
....................                printf("page Clave"); 
09686:  MOVLW  08
09688:  MOVWF  FF6
0968A:  MOVLW  09
0968C:  MOVWF  FF7
0968E:  MOVLW  00
09690:  MOVWF  FF8
09692:  MOVLB  0
09694:  CALL   3CA6
....................                SendDataDisplay();  
09698:  CALL   3CD8
....................                Op=OFF; 
0969C:  BCF    xAA.4
....................                Op2=OFF; 
0969E:  BCF    xAA.5
....................                MenuAnt=Menu; 
096A0:  MOVFF  368,369
....................                TipoClave=1; 
096A4:  MOVLW  01
096A6:  MOVLB  2
096A8:  MOVWF  xE6
....................                RX_Buffer[3]=0x00; 
096AA:  CLRF   33
....................                RX_Buffer2[3]=0x00; 
096AC:  CLRF   3E
....................                Opcion=0; 
096AE:  MOVLB  3
096B0:  CLRF   x6F
....................             }if(Opcion==9){// Datos Ciclo 
096B2:  MOVLB  3
096B4:  MOVF   x6F,W
096B6:  SUBLW  09
096B8:  BNZ   96E4
....................                printf("page Ciclos"); 
096BA:  MOVLW  14
096BC:  MOVWF  FF6
096BE:  MOVLW  09
096C0:  MOVWF  FF7
096C2:  MOVLW  00
096C4:  MOVWF  FF8
096C6:  MOVLB  0
096C8:  CALL   3CA6
....................                SendDataDisplay();  
096CC:  CALL   3CD8
....................                Op=OFF; 
096D0:  BCF    xAA.4
....................                Op2=OFF; 
096D2:  BCF    xAA.5
....................                MenuAnt=Menu; 
096D4:  MOVFF  368,369
....................                RX_Buffer[3]=0x00; 
096D8:  CLRF   33
....................                RX_Buffer2[3]=0x00; 
096DA:  CLRF   3E
....................                Opcion=1; 
096DC:  MOVLW  01
096DE:  MOVLB  3
096E0:  MOVWF  x6F
....................             }else if(Opcion==8){// Cambio de Clave 
096E2:  BRA    98E0
096E4:  MOVF   x6F,W
096E6:  SUBLW  08
096E8:  BNZ   9718
....................                printf("page Clave"); 
096EA:  MOVLW  20
096EC:  MOVWF  FF6
096EE:  MOVLW  09
096F0:  MOVWF  FF7
096F2:  MOVLW  00
096F4:  MOVWF  FF8
096F6:  MOVLB  0
096F8:  CALL   3CA6
....................                SendDataDisplay();  
096FC:  CALL   3CD8
....................                Op=OFF; 
09700:  BCF    xAA.4
....................                Op2=OFF; 
09702:  BCF    xAA.5
....................                MenuAnt=Menu; 
09704:  MOVFF  368,369
....................                TipoClave=2; 
09708:  MOVLW  02
0970A:  MOVLB  2
0970C:  MOVWF  xE6
....................                RX_Buffer[3]=0x00; 
0970E:  CLRF   33
....................                RX_Buffer2[3]=0x00; 
09710:  CLRF   3E
....................                Opcion=0; 
09712:  MOVLB  3
09714:  CLRF   x6F
....................             }else if(Opcion==7){//Hora y Fecha 
09716:  BRA    98E0
09718:  MOVF   x6F,W
0971A:  SUBLW  07
0971C:  BNZ   975A
....................                printf("page Fecha"); 
0971E:  MOVLW  2C
09720:  MOVWF  FF6
09722:  MOVLW  09
09724:  MOVWF  FF7
09726:  MOVLW  00
09728:  MOVWF  FF8
0972A:  MOVLB  0
0972C:  CALL   3CA6
....................                SendDataDisplay();      
09730:  CALL   3CD8
....................                PantallaPrincipal=0; 
09734:  MOVLB  2
09736:  CLRF   xE5
....................                MenuAnt=Menu; 
09738:  MOVFF  368,369
....................                Op=OFF; 
0973C:  MOVLB  0
0973E:  BCF    xAA.4
....................                Op2=OFF; 
09740:  BCF    xAA.5
....................                DiaTx=Dia; 
09742:  MOVFF  3AD,3B8
....................                MesTx=Mes; 
09746:  MOVFF  3AC,3B7
....................                YearTx=Year; 
0974A:  MOVFF  3AB,3B6
....................                HoraTx=Hora; 
0974E:  MOVFF  3AE,3B9
....................                MinutoTx=Minuto; 
09752:  MOVFF  3AF,3BA
....................             }else if(Opcion==6){//Test 
09756:  BRA    98DE
09758:  MOVLB  3
0975A:  MOVF   x6F,W
0975C:  SUBLW  06
0975E:  BNZ   9788
....................                printf("page Test"); 
09760:  MOVLW  38
09762:  MOVWF  FF6
09764:  MOVLW  09
09766:  MOVWF  FF7
09768:  MOVLW  00
0976A:  MOVWF  FF8
0976C:  MOVLB  0
0976E:  CALL   3CA6
....................                SendDataDisplay();      
09772:  CALL   3CD8
....................                PantallaPrincipal=0; 
09776:  MOVLB  2
09778:  CLRF   xE5
....................                MenuAnt=Menu; 
0977A:  MOVFF  368,369
....................                Op=OFF; 
0977E:  MOVLB  0
09780:  BCF    xAA.4
....................                Op2=OFF; 
09782:  BCF    xAA.5
....................             }else if(Opcion==5){//Ciclo Personalizado 
09784:  BRA    98DE
09786:  MOVLB  3
09788:  MOVF   x6F,W
0978A:  SUBLW  05
0978C:  BNZ   97B0
....................                printf("page CicloPersona"); 
0978E:  MOVLW  42
09790:  MOVWF  FF6
09792:  MOVLW  09
09794:  MOVWF  FF7
09796:  MOVLW  00
09798:  MOVWF  FF8
0979A:  MOVLB  0
0979C:  CALL   3CA6
....................                SendDataDisplay();  
097A0:  CALL   3CD8
....................                MenuAnt=Menu; 
097A4:  MOVFF  368,369
....................                Op=OFF; 
097A8:  BCF    xAA.4
....................                Op2=OFF; 
097AA:  BCF    xAA.5
....................             }else if(Opcion==4){//LiquidosB 
097AC:  BRA    98DE
097AE:  MOVLB  3
097B0:  MOVF   x6F,W
097B2:  SUBLW  04
097B4:  BNZ   97FE
....................                printf("page Nivel"); 
097B6:  MOVLW  54
097B8:  MOVWF  FF6
097BA:  MOVLW  09
097BC:  MOVWF  FF7
097BE:  MOVLW  00
097C0:  MOVWF  FF8
097C2:  MOVLB  0
097C4:  CALL   3CA6
....................                SendDataDisplay();        
097C8:  CALL   3CD8
....................                ConfiguraCiclo(0,0,0,3,0,0,0,0,1,4,121); 
097CC:  MOVLB  4
097CE:  CLRF   x5A
097D0:  CLRF   x5B
097D2:  CLRF   x5C
097D4:  MOVLW  03
097D6:  MOVWF  x5D
097D8:  CLRF   x5E
097DA:  CLRF   x5F
097DC:  CLRF   x60
097DE:  CLRF   x61
097E0:  MOVLW  01
097E2:  MOVWF  x62
097E4:  MOVLW  04
097E6:  MOVWF  x63
097E8:  MOVLW  79
097EA:  MOVWF  x64
097EC:  MOVLB  0
097EE:  CALL   567A
....................                Op=OFF; 
097F2:  BCF    xAA.4
....................                Op2=OFF; 
097F4:  BCF    xAA.5
....................                MenuAnt=2; 
097F6:  MOVLW  02
097F8:  MOVLB  3
097FA:  MOVWF  x69
....................             }else if(Opcion==1){//LiquidosA 
097FC:  BRA    98E0
097FE:  DECFSZ x6F,W
09800:  BRA    9848
....................                printf("page Nivel"); 
09802:  MOVLW  60
09804:  MOVWF  FF6
09806:  MOVLW  09
09808:  MOVWF  FF7
0980A:  MOVLW  00
0980C:  MOVWF  FF8
0980E:  MOVLB  0
09810:  CALL   3CA6
....................                SendDataDisplay();        
09814:  CALL   3CD8
....................                ConfiguraCiclo(0,0,5,1,0,0,0,0,1,1,121); 
09818:  MOVLB  4
0981A:  CLRF   x5A
0981C:  CLRF   x5B
0981E:  MOVLW  05
09820:  MOVWF  x5C
09822:  MOVLW  01
09824:  MOVWF  x5D
09826:  CLRF   x5E
09828:  CLRF   x5F
0982A:  CLRF   x60
0982C:  CLRF   x61
0982E:  MOVWF  x62
09830:  MOVWF  x63
09832:  MOVLW  79
09834:  MOVWF  x64
09836:  MOVLB  0
09838:  CALL   567A
....................                Op=OFF; 
0983C:  BCF    xAA.4
....................                Op2=OFF; 
0983E:  BCF    xAA.5
....................                MenuAnt=2; 
09840:  MOVLW  02
09842:  MOVLB  3
09844:  MOVWF  x69
....................             }else if(Opcion==3){//Instrumental 
09846:  BRA    98E0
09848:  MOVF   x6F,W
0984A:  SUBLW  03
0984C:  BNZ   9892
....................                printf("page Funcionamiento"); 
0984E:  MOVLW  6C
09850:  MOVWF  FF6
09852:  MOVLW  09
09854:  MOVWF  FF7
09856:  MOVLW  00
09858:  MOVWF  FF8
0985A:  MOVLB  0
0985C:  CALL   3CA6
....................                SendDataDisplay();        
09860:  CALL   3CD8
....................                ConfiguraCiclo(0,0,0,3,0,0,0,3,0,3,121); 
09864:  MOVLB  4
09866:  CLRF   x5A
09868:  CLRF   x5B
0986A:  CLRF   x5C
0986C:  MOVLW  03
0986E:  MOVWF  x5D
09870:  CLRF   x5E
09872:  CLRF   x5F
09874:  CLRF   x60
09876:  MOVWF  x61
09878:  CLRF   x62
0987A:  MOVWF  x63
0987C:  MOVLW  79
0987E:  MOVWF  x64
09880:  MOVLB  0
09882:  CALL   567A
....................                Op=OFF; 
09886:  BCF    xAA.4
....................                Op2=OFF; 
09888:  BCF    xAA.5
....................                MenuAnt=Menu; 
0988A:  MOVFF  368,369
....................                //if(Temperatura>60)TTrampa=TTrampa+5; 
....................             }else if(Opcion==2){//Caucho 
0988E:  BRA    98DE
09890:  MOVLB  3
09892:  MOVF   x6F,W
09894:  SUBLW  02
09896:  BNZ   98E0
....................                printf("page Funcionamiento"); 
09898:  MOVLW  80
0989A:  MOVWF  FF6
0989C:  MOVLW  09
0989E:  MOVWF  FF7
098A0:  MOVLW  00
098A2:  MOVWF  FF8
098A4:  MOVLB  0
098A6:  CALL   3CA6
....................                SendDataDisplay();        
098AA:  CALL   3CD8
....................                ConfiguraCiclo(0,0,5,1,0,0,3,0,0,2,121); 
098AE:  MOVLB  4
098B0:  CLRF   x5A
098B2:  CLRF   x5B
098B4:  MOVLW  05
098B6:  MOVWF  x5C
098B8:  MOVLW  01
098BA:  MOVWF  x5D
098BC:  CLRF   x5E
098BE:  CLRF   x5F
098C0:  MOVLW  03
098C2:  MOVWF  x60
098C4:  CLRF   x61
098C6:  CLRF   x62
098C8:  MOVLW  02
098CA:  MOVWF  x63
098CC:  MOVLW  79
098CE:  MOVWF  x64
098D0:  MOVLB  0
098D2:  CALL   567A
....................                Op=OFF; 
098D6:  BCF    xAA.4
....................                Op2=OFF; 
098D8:  BCF    xAA.5
....................                MenuAnt=Menu; 
098DA:  MOVFF  368,369
098DE:  MOVLB  3
098E0:  MOVLB  2
....................                //if(Temperatura>60)TTrampa=TTrampa+5; 
....................             } 
....................          } 
....................          } 
....................       }else if(PantallaPrincipal==0){ 
098E2:  BRA    9EDE
098E4:  MOVLB  2
098E6:  MOVF   xE5,F
098E8:  BTFSS  FD8.2
098EA:  BRA    9EDE
....................          if(Opcion>sizeof(iconoGrande)) 
098EC:  MOVLB  3
098EE:  MOVF   x6F,W
098F0:  SUBLW  09
098F2:  BC    98F8
....................             Opcion=1; 
098F4:  MOVLW  01
098F6:  MOVWF  x6F
....................              
....................          if(Opcion<1) 
098F8:  MOVF   x6F,F
098FA:  BNZ   9900
....................             Opcion=sizeof(iconoGrande); 
098FC:  MOVLW  09
098FE:  MOVWF  x6F
....................           
....................          if(Opcion==1){ 
09900:  DECFSZ x6F,W
09902:  BRA    9AB0
....................             printf("bc.pic=%u",iconoGrande[Opcion-1]); 
09904:  MOVLW  01
09906:  SUBWF  x6F,W
09908:  CLRF   03
0990A:  ADDLW  C4
0990C:  MOVWF  FE9
0990E:  MOVLW  03
09910:  ADDWFC 03,W
09912:  MOVWF  FEA
09914:  MOVFF  FEF,450
09918:  MOVLW  94
0991A:  MOVWF  FF6
0991C:  MOVLW  09
0991E:  MOVWF  FF7
09920:  MOVLW  00
09922:  MOVWF  FF8
09924:  MOVLW  07
09926:  MOVLB  4
09928:  MOVWF  x56
0992A:  MOVLB  0
0992C:  CALL   4CA0
09930:  MOVFF  450,456
09934:  MOVLW  1B
09936:  MOVLB  4
09938:  MOVWF  x57
0993A:  MOVLB  0
0993C:  CALL   4CFE
....................             SendDataDisplay(); 
09940:  CALL   3CD8
....................             printf("bd.pic=%u",iconoPeque[Opcion]); 
09944:  CLRF   03
09946:  MOVLB  3
09948:  MOVF   x6F,W
0994A:  ADDLW  CD
0994C:  MOVWF  FE9
0994E:  MOVLW  03
09950:  ADDWFC 03,W
09952:  MOVWF  FEA
09954:  MOVFF  FEF,450
09958:  MOVLW  9E
0995A:  MOVWF  FF6
0995C:  MOVLW  09
0995E:  MOVWF  FF7
09960:  MOVLW  00
09962:  MOVWF  FF8
09964:  MOVLW  07
09966:  MOVLB  4
09968:  MOVWF  x56
0996A:  MOVLB  0
0996C:  CALL   4CA0
09970:  MOVFF  450,456
09974:  MOVLW  1B
09976:  MOVLB  4
09978:  MOVWF  x57
0997A:  MOVLB  0
0997C:  CALL   4CFE
....................             SendDataDisplay(); 
09980:  CALL   3CD8
....................             printf("bi.pic=%u",iconoPeque[sizeof(iconoGrande)-1]); 
09984:  MOVLW  A8
09986:  MOVWF  FF6
09988:  MOVLW  09
0998A:  MOVWF  FF7
0998C:  MOVLW  00
0998E:  MOVWF  FF8
09990:  MOVLW  07
09992:  MOVLB  4
09994:  MOVWF  x56
09996:  MOVLB  0
09998:  CALL   4CA0
0999C:  MOVFF  3D5,456
099A0:  MOVLW  1B
099A2:  MOVLB  4
099A4:  MOVWF  x57
099A6:  MOVLB  0
099A8:  CALL   4CFE
....................             SendDataDisplay(); 
099AC:  CALL   3CD8
....................             printf("bc.pic2=%u",iconoGrande[Opcion-1]); 
099B0:  MOVLW  01
099B2:  MOVLB  3
099B4:  SUBWF  x6F,W
099B6:  CLRF   03
099B8:  ADDLW  C4
099BA:  MOVWF  FE9
099BC:  MOVLW  03
099BE:  ADDWFC 03,W
099C0:  MOVWF  FEA
099C2:  MOVFF  FEF,450
099C6:  MOVLW  B2
099C8:  MOVWF  FF6
099CA:  MOVLW  09
099CC:  MOVWF  FF7
099CE:  MOVLW  00
099D0:  MOVWF  FF8
099D2:  MOVLW  08
099D4:  MOVLB  4
099D6:  MOVWF  x56
099D8:  MOVLB  0
099DA:  CALL   4CA0
099DE:  MOVFF  450,456
099E2:  MOVLW  1B
099E4:  MOVLB  4
099E6:  MOVWF  x57
099E8:  MOVLB  0
099EA:  CALL   4CFE
....................             SendDataDisplay(); 
099EE:  CALL   3CD8
....................             printf("bd.pic2=%u",iconoPeque[Opcion]); 
099F2:  CLRF   03
099F4:  MOVLB  3
099F6:  MOVF   x6F,W
099F8:  ADDLW  CD
099FA:  MOVWF  FE9
099FC:  MOVLW  03
099FE:  ADDWFC 03,W
09A00:  MOVWF  FEA
09A02:  MOVFF  FEF,450
09A06:  MOVLW  BE
09A08:  MOVWF  FF6
09A0A:  MOVLW  09
09A0C:  MOVWF  FF7
09A0E:  MOVLW  00
09A10:  MOVWF  FF8
09A12:  MOVLW  08
09A14:  MOVLB  4
09A16:  MOVWF  x56
09A18:  MOVLB  0
09A1A:  CALL   4CA0
09A1E:  MOVFF  450,456
09A22:  MOVLW  1B
09A24:  MOVLB  4
09A26:  MOVWF  x57
09A28:  MOVLB  0
09A2A:  CALL   4CFE
....................             SendDataDisplay(); 
09A2E:  CALL   3CD8
....................             printf("bi.pic2=%u",iconoPeque[sizeof(iconoGrande)-1]); 
09A32:  MOVLW  CA
09A34:  MOVWF  FF6
09A36:  MOVLW  09
09A38:  MOVWF  FF7
09A3A:  MOVLW  00
09A3C:  MOVWF  FF8
09A3E:  MOVLW  08
09A40:  MOVLB  4
09A42:  MOVWF  x56
09A44:  MOVLB  0
09A46:  CALL   4CA0
09A4A:  MOVFF  3D5,456
09A4E:  MOVLW  1B
09A50:  MOVLB  4
09A52:  MOVWF  x57
09A54:  MOVLB  0
09A56:  CALL   4CFE
....................             SendDataDisplay(); 
09A5A:  CALL   3CD8
....................             printf("textop.txt=\"%s\"",texto[Opcion-1]); 
09A5E:  MOVLW  01
09A60:  MOVLB  3
09A62:  SUBWF  x6F,W
09A64:  MULLW  14
09A66:  MOVF   FF3,W
09A68:  CLRF   03
09A6A:  MOVLB  4
09A6C:  MOVWF  x50
09A6E:  MOVLW  D6
09A70:  MOVWF  FF6
09A72:  MOVLW  09
09A74:  MOVWF  FF7
09A76:  MOVLW  00
09A78:  MOVWF  FF8
09A7A:  MOVLW  0C
09A7C:  MOVWF  x56
09A7E:  MOVLB  0
09A80:  CALL   4CA0
09A84:  MOVLW  50
09A86:  MOVWF  FF6
09A88:  MOVLW  01
09A8A:  MOVWF  FF7
09A8C:  MOVLW  00
09A8E:  MOVWF  FF8
09A90:  MOVLB  4
09A92:  MOVF   x50,W
09A94:  ADDWF  FF6,F
09A96:  MOVLW  00
09A98:  ADDWFC FF7,F
09A9A:  MOVLB  0
09A9C:  CALL   3CA6
09AA0:  MOVLW  22
09AA2:  BTFSS  F9E.4
09AA4:  BRA    9AA2
09AA6:  MOVWF  FAD
....................             SendDataDisplay(); 
09AA8:  CALL   3CD8
....................          }else if(Opcion==sizeof(iconoGrande)){ 
09AAC:  BRA    9E3C
09AAE:  MOVLB  3
09AB0:  MOVF   x6F,W
09AB2:  SUBLW  09
09AB4:  BTFSS  FD8.2
09AB6:  BRA    9C68
....................             printf("bc.pic=%u",iconoGrande[Opcion-1]); 
09AB8:  MOVLW  01
09ABA:  SUBWF  x6F,W
09ABC:  CLRF   03
09ABE:  ADDLW  C4
09AC0:  MOVWF  FE9
09AC2:  MOVLW  03
09AC4:  ADDWFC 03,W
09AC6:  MOVWF  FEA
09AC8:  MOVFF  FEF,450
09ACC:  MOVLW  E6
09ACE:  MOVWF  FF6
09AD0:  MOVLW  09
09AD2:  MOVWF  FF7
09AD4:  MOVLW  00
09AD6:  MOVWF  FF8
09AD8:  MOVLW  07
09ADA:  MOVLB  4
09ADC:  MOVWF  x56
09ADE:  MOVLB  0
09AE0:  CALL   4CA0
09AE4:  MOVFF  450,456
09AE8:  MOVLW  1B
09AEA:  MOVLB  4
09AEC:  MOVWF  x57
09AEE:  MOVLB  0
09AF0:  CALL   4CFE
....................             SendDataDisplay(); 
09AF4:  CALL   3CD8
....................             printf("bd.pic=%u",iconoPeque[0]); 
09AF8:  MOVLW  F0
09AFA:  MOVWF  FF6
09AFC:  MOVLW  09
09AFE:  MOVWF  FF7
09B00:  MOVLW  00
09B02:  MOVWF  FF8
09B04:  MOVLW  07
09B06:  MOVLB  4
09B08:  MOVWF  x56
09B0A:  MOVLB  0
09B0C:  CALL   4CA0
09B10:  MOVFF  3CD,456
09B14:  MOVLW  1B
09B16:  MOVLB  4
09B18:  MOVWF  x57
09B1A:  MOVLB  0
09B1C:  CALL   4CFE
....................             SendDataDisplay(); 
09B20:  CALL   3CD8
....................             printf("bi.pic=%u",iconoPeque[Opcion-2]); 
09B24:  MOVLW  02
09B26:  MOVLB  3
09B28:  SUBWF  x6F,W
09B2A:  CLRF   03
09B2C:  ADDLW  CD
09B2E:  MOVWF  FE9
09B30:  MOVLW  03
09B32:  ADDWFC 03,W
09B34:  MOVWF  FEA
09B36:  MOVFF  FEF,450
09B3A:  MOVLW  FA
09B3C:  MOVWF  FF6
09B3E:  MOVLW  09
09B40:  MOVWF  FF7
09B42:  MOVLW  00
09B44:  MOVWF  FF8
09B46:  MOVLW  07
09B48:  MOVLB  4
09B4A:  MOVWF  x56
09B4C:  MOVLB  0
09B4E:  CALL   4CA0
09B52:  MOVFF  450,456
09B56:  MOVLW  1B
09B58:  MOVLB  4
09B5A:  MOVWF  x57
09B5C:  MOVLB  0
09B5E:  CALL   4CFE
....................             SendDataDisplay(); 
09B62:  CALL   3CD8
....................             printf("bc.pic2=%u",iconoGrande[Opcion-1]); 
09B66:  MOVLW  01
09B68:  MOVLB  3
09B6A:  SUBWF  x6F,W
09B6C:  CLRF   03
09B6E:  ADDLW  C4
09B70:  MOVWF  FE9
09B72:  MOVLW  03
09B74:  ADDWFC 03,W
09B76:  MOVWF  FEA
09B78:  MOVFF  FEF,450
09B7C:  MOVLW  04
09B7E:  MOVWF  FF6
09B80:  MOVLW  0A
09B82:  MOVWF  FF7
09B84:  MOVLW  00
09B86:  MOVWF  FF8
09B88:  MOVLW  08
09B8A:  MOVLB  4
09B8C:  MOVWF  x56
09B8E:  MOVLB  0
09B90:  CALL   4CA0
09B94:  MOVFF  450,456
09B98:  MOVLW  1B
09B9A:  MOVLB  4
09B9C:  MOVWF  x57
09B9E:  MOVLB  0
09BA0:  CALL   4CFE
....................             SendDataDisplay(); 
09BA4:  CALL   3CD8
....................             printf("bd.pic2=%u",iconoPeque[0]); 
09BA8:  MOVLW  10
09BAA:  MOVWF  FF6
09BAC:  MOVLW  0A
09BAE:  MOVWF  FF7
09BB0:  MOVLW  00
09BB2:  MOVWF  FF8
09BB4:  MOVLW  08
09BB6:  MOVLB  4
09BB8:  MOVWF  x56
09BBA:  MOVLB  0
09BBC:  CALL   4CA0
09BC0:  MOVFF  3CD,456
09BC4:  MOVLW  1B
09BC6:  MOVLB  4
09BC8:  MOVWF  x57
09BCA:  MOVLB  0
09BCC:  CALL   4CFE
....................             SendDataDisplay(); 
09BD0:  CALL   3CD8
....................             printf("bi.pic2=%u",iconoPeque[Opcion-2]); 
09BD4:  MOVLW  02
09BD6:  MOVLB  3
09BD8:  SUBWF  x6F,W
09BDA:  CLRF   03
09BDC:  ADDLW  CD
09BDE:  MOVWF  FE9
09BE0:  MOVLW  03
09BE2:  ADDWFC 03,W
09BE4:  MOVWF  FEA
09BE6:  MOVFF  FEF,450
09BEA:  MOVLW  1C
09BEC:  MOVWF  FF6
09BEE:  MOVLW  0A
09BF0:  MOVWF  FF7
09BF2:  MOVLW  00
09BF4:  MOVWF  FF8
09BF6:  MOVLW  08
09BF8:  MOVLB  4
09BFA:  MOVWF  x56
09BFC:  MOVLB  0
09BFE:  CALL   4CA0
09C02:  MOVFF  450,456
09C06:  MOVLW  1B
09C08:  MOVLB  4
09C0A:  MOVWF  x57
09C0C:  MOVLB  0
09C0E:  CALL   4CFE
....................             SendDataDisplay(); 
09C12:  CALL   3CD8
....................             printf("textop.txt=\"%s\"",texto[Opcion-1]); 
09C16:  MOVLW  01
09C18:  MOVLB  3
09C1A:  SUBWF  x6F,W
09C1C:  MULLW  14
09C1E:  MOVF   FF3,W
09C20:  CLRF   03
09C22:  MOVLB  4
09C24:  MOVWF  x50
09C26:  MOVLW  28
09C28:  MOVWF  FF6
09C2A:  MOVLW  0A
09C2C:  MOVWF  FF7
09C2E:  MOVLW  00
09C30:  MOVWF  FF8
09C32:  MOVLW  0C
09C34:  MOVWF  x56
09C36:  MOVLB  0
09C38:  CALL   4CA0
09C3C:  MOVLW  50
09C3E:  MOVWF  FF6
09C40:  MOVLW  01
09C42:  MOVWF  FF7
09C44:  MOVLW  00
09C46:  MOVWF  FF8
09C48:  MOVLB  4
09C4A:  MOVF   x50,W
09C4C:  ADDWF  FF6,F
09C4E:  MOVLW  00
09C50:  ADDWFC FF7,F
09C52:  MOVLB  0
09C54:  CALL   3CA6
09C58:  MOVLW  22
09C5A:  BTFSS  F9E.4
09C5C:  BRA    9C5A
09C5E:  MOVWF  FAD
....................             SendDataDisplay(); 
09C60:  CALL   3CD8
....................          }else{ 
09C64:  BRA    9E3C
09C66:  MOVLB  3
....................             printf("bc.pic=%u",iconoGrande[Opcion-1]); 
09C68:  MOVLW  01
09C6A:  SUBWF  x6F,W
09C6C:  CLRF   03
09C6E:  ADDLW  C4
09C70:  MOVWF  FE9
09C72:  MOVLW  03
09C74:  ADDWFC 03,W
09C76:  MOVWF  FEA
09C78:  MOVFF  FEF,450
09C7C:  MOVLW  38
09C7E:  MOVWF  FF6
09C80:  MOVLW  0A
09C82:  MOVWF  FF7
09C84:  MOVLW  00
09C86:  MOVWF  FF8
09C88:  MOVLW  07
09C8A:  MOVLB  4
09C8C:  MOVWF  x56
09C8E:  MOVLB  0
09C90:  CALL   4CA0
09C94:  MOVFF  450,456
09C98:  MOVLW  1B
09C9A:  MOVLB  4
09C9C:  MOVWF  x57
09C9E:  MOVLB  0
09CA0:  CALL   4CFE
....................             SendDataDisplay(); 
09CA4:  CALL   3CD8
....................             printf("bd.pic=%u",iconoPeque[Opcion]); 
09CA8:  CLRF   03
09CAA:  MOVLB  3
09CAC:  MOVF   x6F,W
09CAE:  ADDLW  CD
09CB0:  MOVWF  FE9
09CB2:  MOVLW  03
09CB4:  ADDWFC 03,W
09CB6:  MOVWF  FEA
09CB8:  MOVFF  FEF,450
09CBC:  MOVLW  42
09CBE:  MOVWF  FF6
09CC0:  MOVLW  0A
09CC2:  MOVWF  FF7
09CC4:  MOVLW  00
09CC6:  MOVWF  FF8
09CC8:  MOVLW  07
09CCA:  MOVLB  4
09CCC:  MOVWF  x56
09CCE:  MOVLB  0
09CD0:  CALL   4CA0
09CD4:  MOVFF  450,456
09CD8:  MOVLW  1B
09CDA:  MOVLB  4
09CDC:  MOVWF  x57
09CDE:  MOVLB  0
09CE0:  CALL   4CFE
....................             SendDataDisplay(); 
09CE4:  CALL   3CD8
....................             printf("bi.pic=%u",iconoPeque[Opcion-2]); 
09CE8:  MOVLW  02
09CEA:  MOVLB  3
09CEC:  SUBWF  x6F,W
09CEE:  CLRF   03
09CF0:  ADDLW  CD
09CF2:  MOVWF  FE9
09CF4:  MOVLW  03
09CF6:  ADDWFC 03,W
09CF8:  MOVWF  FEA
09CFA:  MOVFF  FEF,450
09CFE:  MOVLW  4C
09D00:  MOVWF  FF6
09D02:  MOVLW  0A
09D04:  MOVWF  FF7
09D06:  MOVLW  00
09D08:  MOVWF  FF8
09D0A:  MOVLW  07
09D0C:  MOVLB  4
09D0E:  MOVWF  x56
09D10:  MOVLB  0
09D12:  CALL   4CA0
09D16:  MOVFF  450,456
09D1A:  MOVLW  1B
09D1C:  MOVLB  4
09D1E:  MOVWF  x57
09D20:  MOVLB  0
09D22:  CALL   4CFE
....................             SendDataDisplay(); 
09D26:  CALL   3CD8
....................             printf("bc.pic2=%u",iconoGrande[Opcion-1]); 
09D2A:  MOVLW  01
09D2C:  MOVLB  3
09D2E:  SUBWF  x6F,W
09D30:  CLRF   03
09D32:  ADDLW  C4
09D34:  MOVWF  FE9
09D36:  MOVLW  03
09D38:  ADDWFC 03,W
09D3A:  MOVWF  FEA
09D3C:  MOVFF  FEF,450
09D40:  MOVLW  56
09D42:  MOVWF  FF6
09D44:  MOVLW  0A
09D46:  MOVWF  FF7
09D48:  MOVLW  00
09D4A:  MOVWF  FF8
09D4C:  MOVLW  08
09D4E:  MOVLB  4
09D50:  MOVWF  x56
09D52:  MOVLB  0
09D54:  CALL   4CA0
09D58:  MOVFF  450,456
09D5C:  MOVLW  1B
09D5E:  MOVLB  4
09D60:  MOVWF  x57
09D62:  MOVLB  0
09D64:  CALL   4CFE
....................             SendDataDisplay(); 
09D68:  CALL   3CD8
....................             printf("bd.pic2=%u",iconoPeque[Opcion]); 
09D6C:  CLRF   03
09D6E:  MOVLB  3
09D70:  MOVF   x6F,W
09D72:  ADDLW  CD
09D74:  MOVWF  FE9
09D76:  MOVLW  03
09D78:  ADDWFC 03,W
09D7A:  MOVWF  FEA
09D7C:  MOVFF  FEF,450
09D80:  MOVLW  62
09D82:  MOVWF  FF6
09D84:  MOVLW  0A
09D86:  MOVWF  FF7
09D88:  MOVLW  00
09D8A:  MOVWF  FF8
09D8C:  MOVLW  08
09D8E:  MOVLB  4
09D90:  MOVWF  x56
09D92:  MOVLB  0
09D94:  CALL   4CA0
09D98:  MOVFF  450,456
09D9C:  MOVLW  1B
09D9E:  MOVLB  4
09DA0:  MOVWF  x57
09DA2:  MOVLB  0
09DA4:  CALL   4CFE
....................             SendDataDisplay(); 
09DA8:  CALL   3CD8
....................             printf("bi.pic2=%u",iconoPeque[Opcion-2]); 
09DAC:  MOVLW  02
09DAE:  MOVLB  3
09DB0:  SUBWF  x6F,W
09DB2:  CLRF   03
09DB4:  ADDLW  CD
09DB6:  MOVWF  FE9
09DB8:  MOVLW  03
09DBA:  ADDWFC 03,W
09DBC:  MOVWF  FEA
09DBE:  MOVFF  FEF,450
09DC2:  MOVLW  6E
09DC4:  MOVWF  FF6
09DC6:  MOVLW  0A
09DC8:  MOVWF  FF7
09DCA:  MOVLW  00
09DCC:  MOVWF  FF8
09DCE:  MOVLW  08
09DD0:  MOVLB  4
09DD2:  MOVWF  x56
09DD4:  MOVLB  0
09DD6:  CALL   4CA0
09DDA:  MOVFF  450,456
09DDE:  MOVLW  1B
09DE0:  MOVLB  4
09DE2:  MOVWF  x57
09DE4:  MOVLB  0
09DE6:  CALL   4CFE
....................             SendDataDisplay(); 
09DEA:  CALL   3CD8
....................             printf("textop.txt=\"%s\"",texto[Opcion-1]); 
09DEE:  MOVLW  01
09DF0:  MOVLB  3
09DF2:  SUBWF  x6F,W
09DF4:  MULLW  14
09DF6:  MOVF   FF3,W
09DF8:  CLRF   03
09DFA:  MOVLB  4
09DFC:  MOVWF  x50
09DFE:  MOVLW  7A
09E00:  MOVWF  FF6
09E02:  MOVLW  0A
09E04:  MOVWF  FF7
09E06:  MOVLW  00
09E08:  MOVWF  FF8
09E0A:  MOVLW  0C
09E0C:  MOVWF  x56
09E0E:  MOVLB  0
09E10:  CALL   4CA0
09E14:  MOVLW  50
09E16:  MOVWF  FF6
09E18:  MOVLW  01
09E1A:  MOVWF  FF7
09E1C:  MOVLW  00
09E1E:  MOVWF  FF8
09E20:  MOVLB  4
09E22:  MOVF   x50,W
09E24:  ADDWF  FF6,F
09E26:  MOVLW  00
09E28:  ADDWFC FF7,F
09E2A:  MOVLB  0
09E2C:  CALL   3CA6
09E30:  MOVLW  22
09E32:  BTFSS  F9E.4
09E34:  BRA    9E32
09E36:  MOVWF  FAD
....................             SendDataDisplay(); 
09E38:  CALL   3CD8
....................          } 
....................           
....................          printf("ttitulo.txt=\"SELECCIONE SU CICLO\""); 
09E3C:  MOVLW  8A
09E3E:  MOVWF  FF6
09E40:  MOVLW  0A
09E42:  MOVWF  FF7
09E44:  MOVLW  00
09E46:  MOVWF  FF8
09E48:  CALL   3CA6
....................          SendDataDisplay(); 
09E4C:  CALL   3CD8
....................           
....................          if(RIGHT){ 
09E50:  BSF    F93.1
09E52:  BTFSC  F81.1
09E54:  BRA    9E6E
....................             delay_ms(20); 
09E56:  MOVLW  14
09E58:  MOVLB  4
09E5A:  MOVWF  x69
09E5C:  MOVLB  0
09E5E:  CALL   1B4A
....................             if(RIGHT){ 
09E62:  BSF    F93.1
09E64:  BTFSC  F81.1
09E66:  BRA    9E6E
....................                Opcion++; 
09E68:  MOVLB  3
09E6A:  INCF   x6F,F
09E6C:  MOVLB  0
....................             } 
....................          } 
....................           
....................          if(LEFT){ 
09E6E:  BSF    F93.0
09E70:  BTFSC  F81.0
09E72:  BRA    9E8C
....................             delay_ms(20); 
09E74:  MOVLW  14
09E76:  MOVLB  4
09E78:  MOVWF  x69
09E7A:  MOVLB  0
09E7C:  CALL   1B4A
....................             if(LEFT){ 
09E80:  BSF    F93.0
09E82:  BTFSC  F81.0
09E84:  BRA    9E8C
....................                Opcion--; 
09E86:  MOVLB  3
09E88:  DECF   x6F,F
09E8A:  MOVLB  0
....................             } 
....................          } 
....................           
....................          if(RX_Buffer[4]==0x0d && !Op){//Tecla Derecha Oprimida 
09E8C:  MOVF   34,W
09E8E:  SUBLW  0D
09E90:  BNZ   9EA0
09E92:  BTFSC  xAA.4
09E94:  BRA    9EA0
....................             Opcion++; 
09E96:  MOVLB  3
09E98:  INCF   x6F,F
....................             RX_Buffer[4]=0x00; 
09E9A:  CLRF   34
....................             Op=ON; 
09E9C:  MOVLB  0
09E9E:  BSF    xAA.4
....................             //BorraBuffer(); 
....................          } 
....................           
....................          if(RX_Buffer[4]==0x0c && Op){//Tecla Derecha Oprimida 
09EA0:  MOVF   34,W
09EA2:  SUBLW  0C
09EA4:  BNZ   9EB4
09EA6:  BTFSS  xAA.4
09EA8:  BRA    9EB4
....................             Opcion++; 
09EAA:  MOVLB  3
09EAC:  INCF   x6F,F
....................             RX_Buffer[4]=0x00; 
09EAE:  CLRF   34
....................             Op=OFF; 
09EB0:  MOVLB  0
09EB2:  BCF    xAA.4
....................             //BorraBuffer(); 
....................          } 
....................           
....................          if(RX_Buffer[4]==0x0e && !Op2){//Tecla Izquierda Oprimida 
09EB4:  MOVF   34,W
09EB6:  SUBLW  0E
09EB8:  BNZ   9EC8
09EBA:  BTFSC  xAA.5
09EBC:  BRA    9EC8
....................             Opcion--; 
09EBE:  MOVLB  3
09EC0:  DECF   x6F,F
....................             RX_Buffer[4]=0x00; 
09EC2:  CLRF   34
....................             Op2=ON; 
09EC4:  MOVLB  0
09EC6:  BSF    xAA.5
....................             //BorraBuffer(); 
....................          } 
....................           
....................          if(RX_Buffer[4]==0x0f && Op2){//Tecla Izquierda Oprimida 
09EC8:  MOVF   34,W
09ECA:  SUBLW  0F
09ECC:  BNZ   9EDC
09ECE:  BTFSS  xAA.5
09ED0:  BRA    9EDC
....................             Opcion--; 
09ED2:  MOVLB  3
09ED4:  DECF   x6F,F
....................             RX_Buffer[4]=0x00; 
09ED6:  CLRF   34
....................             Op2=OFF; 
09ED8:  MOVLB  0
09EDA:  BCF    xAA.5
09EDC:  MOVLB  2
....................             //BorraBuffer(); 
....................          } 
....................           
....................       } 
....................          if(RIGHT && LEFT){ 
09EDE:  BSF    F93.1
09EE0:  BTFSC  F81.1
09EE2:  BRA    9F30
09EE4:  BSF    F93.0
09EE6:  BTFSC  F81.0
09EE8:  BRA    9F30
....................             delay_ms(20); 
09EEA:  MOVLW  14
09EEC:  MOVLB  4
09EEE:  MOVWF  x69
09EF0:  MOVLB  0
09EF2:  CALL   1B4A
....................             if(RIGHT && LEFT){ 
09EF6:  BSF    F93.1
09EF8:  BTFSC  F81.1
09EFA:  BRA    9F2E
09EFC:  BSF    F93.0
09EFE:  BTFSC  F81.0
09F00:  BRA    9F2E
....................                printf("page Clave"); 
09F02:  MOVLW  AC
09F04:  MOVWF  FF6
09F06:  MOVLW  0A
09F08:  MOVWF  FF7
09F0A:  MOVLW  00
09F0C:  MOVWF  FF8
09F0E:  CALL   3CA6
....................                SendDataDisplay();  
09F12:  CALL   3CD8
....................                Op=OFF; 
09F16:  BCF    xAA.4
....................                Op2=OFF; 
09F18:  BCF    xAA.5
....................                MenuAnt=Menu; 
09F1A:  MOVFF  368,369
....................                TipoClave=1; 
09F1E:  MOVLW  01
09F20:  MOVLB  2
09F22:  MOVWF  xE6
....................                RX_Buffer[3]=0x00; 
09F24:  CLRF   33
....................                RX_Buffer2[3]=0x00; 
09F26:  CLRF   3E
....................                Opcion=0; 
09F28:  MOVLB  3
09F2A:  CLRF   x6F
09F2C:  MOVLB  0
09F2E:  MOVLB  2
....................             } 
....................          } 
....................    } 
.................... //_--------------------------------------------------------------------------------------------------------------------------------------------------------        
....................  
.................... //_-------------------------------------------------------------------------------------------------------------------------------------------------------- 
....................     if(Menu==2){ //Menu de Tiempo Esterilizacion      
09F30:  MOVLB  3
09F32:  MOVF   x68,W
09F34:  SUBLW  02
09F36:  BTFSS  FD8.2
09F38:  BRA    A464
....................       printf("fecha.txt=\"T:%3.1fC Fecha:%02u/%02u/20%02u Hora: %02u:%02u:%02u\"",Temperatura,Dia,Mes,Year,Hora,Minuto,Segundo); 
09F3A:  MOVLW  B8
09F3C:  MOVWF  FF6
09F3E:  MOVLW  0A
09F40:  MOVWF  FF7
09F42:  MOVLW  00
09F44:  MOVWF  FF8
09F46:  MOVLW  0D
09F48:  MOVLB  4
09F4A:  MOVWF  x56
09F4C:  MOVLB  0
09F4E:  CALL   4CA0
09F52:  MOVLW  02
09F54:  MOVWF  FE9
09F56:  MOVFF  335,459
09F5A:  MOVFF  334,458
09F5E:  MOVFF  333,457
09F62:  MOVFF  332,456
09F66:  MOVLW  01
09F68:  MOVLB  4
09F6A:  MOVWF  x5A
09F6C:  MOVLB  0
09F6E:  CALL   4E40
09F72:  MOVLW  CA
09F74:  MOVWF  FF6
09F76:  MOVLW  0A
09F78:  MOVWF  FF7
09F7A:  MOVLW  00
09F7C:  MOVWF  FF8
09F7E:  MOVLW  09
09F80:  MOVLB  4
09F82:  MOVWF  x56
09F84:  MOVLB  0
09F86:  CALL   4CA0
09F8A:  MOVFF  3AD,456
09F8E:  MOVLW  01
09F90:  MOVLB  4
09F92:  MOVWF  x57
09F94:  MOVLB  0
09F96:  CALL   4CFE
09F9A:  MOVLW  2F
09F9C:  BTFSS  F9E.4
09F9E:  BRA    9F9C
09FA0:  MOVWF  FAD
09FA2:  MOVFF  3AC,456
09FA6:  MOVLW  01
09FA8:  MOVLB  4
09FAA:  MOVWF  x57
09FAC:  MOVLB  0
09FAE:  CALL   4CFE
09FB2:  MOVLW  2F
09FB4:  BTFSS  F9E.4
09FB6:  BRA    9FB4
09FB8:  MOVWF  FAD
09FBA:  MOVLW  32
09FBC:  BTFSS  F9E.4
09FBE:  BRA    9FBC
09FC0:  MOVWF  FAD
09FC2:  MOVLW  30
09FC4:  BTFSS  F9E.4
09FC6:  BRA    9FC4
09FC8:  MOVWF  FAD
09FCA:  MOVFF  3AB,456
09FCE:  MOVLW  01
09FD0:  MOVLB  4
09FD2:  MOVWF  x57
09FD4:  MOVLB  0
09FD6:  CALL   4CFE
09FDA:  MOVLW  E3
09FDC:  MOVWF  FF6
09FDE:  MOVLW  0A
09FE0:  MOVWF  FF7
09FE2:  MOVLW  00
09FE4:  MOVWF  FF8
09FE6:  MOVLW  07
09FE8:  MOVLB  4
09FEA:  MOVWF  x56
09FEC:  MOVLB  0
09FEE:  CALL   4CA0
09FF2:  MOVFF  3AE,456
09FF6:  MOVLW  01
09FF8:  MOVLB  4
09FFA:  MOVWF  x57
09FFC:  MOVLB  0
09FFE:  CALL   4CFE
0A002:  MOVLW  3A
0A004:  BTFSS  F9E.4
0A006:  BRA    A004
0A008:  MOVWF  FAD
0A00A:  MOVFF  3AF,456
0A00E:  MOVLW  01
0A010:  MOVLB  4
0A012:  MOVWF  x57
0A014:  MOVLB  0
0A016:  CALL   4CFE
0A01A:  MOVLW  3A
0A01C:  BTFSS  F9E.4
0A01E:  BRA    A01C
0A020:  MOVWF  FAD
0A022:  MOVFF  3B0,456
0A026:  MOVLW  01
0A028:  MOVLB  4
0A02A:  MOVWF  x57
0A02C:  MOVLB  0
0A02E:  CALL   4CFE
0A032:  MOVLW  22
0A034:  BTFSS  F9E.4
0A036:  BRA    A034
0A038:  MOVWF  FAD
....................       SendDataDisplay(); 
0A03A:  CALL   3CD8
....................          if(RX_Buffer[4]==0x0a){//Selecciono Minutos 
0A03E:  MOVF   34,W
0A040:  SUBLW  0A
0A042:  BNZ   A048
....................             Minutos=ON; 
0A044:  BSF    xAA.6
....................             Segundos=OFF; 
0A046:  BCF    xAA.7
....................          } 
....................           
....................          if(RX_Buffer[4]==0x0b){//Selecciono Segundos 
0A048:  MOVF   34,W
0A04A:  SUBLW  0B
0A04C:  BNZ   A052
....................             Segundos=ON; 
0A04E:  BSF    xAA.7
....................             Minutos=OFF; 
0A050:  BCF    xAA.6
....................          }            
....................           
....................          if(RX_Buffer[4]==0x11 || LEFT){//Selecciono Regresar 
0A052:  MOVF   34,W
0A054:  SUBLW  11
0A056:  BZ    A05E
0A058:  BSF    F93.0
0A05A:  BTFSC  F81.0
0A05C:  BRA    A1E8
....................             delay_ms(100); 
0A05E:  MOVLW  64
0A060:  MOVLB  4
0A062:  MOVWF  x69
0A064:  MOVLB  0
0A066:  CALL   1B4A
....................             if(RX_Buffer[4]==0x11 || LEFT){ 
0A06A:  MOVF   34,W
0A06C:  SUBLW  11
0A06E:  BZ    A076
0A070:  BSF    F93.0
0A072:  BTFSC  F81.0
0A074:  BRA    A1E8
....................                Segundos=OFF; 
0A076:  BCF    xAA.7
....................                Minutos=OFF; 
0A078:  BCF    xAA.6
....................                printf("page CicloPersona"); 
0A07A:  MOVLW  FA
0A07C:  MOVWF  FF6
0A07E:  MOVLW  0A
0A080:  MOVWF  FF7
0A082:  MOVLW  00
0A084:  MOVWF  FF8
0A086:  CALL   3CA6
....................                SendDataDisplay();   
0A08A:  CALL   3CD8
....................                PantallaPrincipal=1; 
0A08E:  MOVLW  01
0A090:  MOVLB  2
0A092:  MOVWF  xE5
....................                Op=OFF; 
0A094:  MOVLB  0
0A096:  BCF    xAA.4
....................                Op2=OFF; 
0A098:  BCF    xAA.5
....................                if(!GuardaEEPROM){ 
0A09A:  BTFSC  xAB.0
0A09C:  BRA    A1E8
....................                   CiclosPersonalizados[CicloLibre-1].Minutoest=Testerilizacionp[2]+(Testerilizacionp[3]*10); 
0A09E:  MOVLW  01
0A0A0:  MOVLB  3
0A0A2:  SUBWF  x48,W
0A0A4:  MULLW  0A
0A0A6:  MOVF   FF3,W
0A0A8:  MOVLB  4
0A0AA:  CLRF   x51
0A0AC:  MOVWF  x50
0A0AE:  MOVLW  09
0A0B0:  ADDWF  x50,W
0A0B2:  MOVWF  01
0A0B4:  MOVLW  00
0A0B6:  ADDWFC x51,W
0A0B8:  MOVWF  03
0A0BA:  MOVF   01,W
0A0BC:  ADDLW  28
0A0BE:  MOVWF  FE9
0A0C0:  MOVLW  04
0A0C2:  ADDWFC 03,W
0A0C4:  MOVWF  FEA
0A0C6:  MOVFF  C1,452
0A0CA:  MOVLW  0A
0A0CC:  MOVWF  x53
0A0CE:  MOVLB  0
0A0D0:  CALL   315A
0A0D4:  MOVF   01,W
0A0D6:  ADDWF  xC0,W
0A0D8:  MOVWF  FEF
....................                   CiclosPersonalizados[CicloLibre-1].Segundoest=Testerilizacionp[0]+(Testerilizacionp[1]*10); 
0A0DA:  MOVLW  01
0A0DC:  MOVLB  3
0A0DE:  SUBWF  x48,W
0A0E0:  MULLW  0A
0A0E2:  MOVF   FF3,W
0A0E4:  MOVLB  4
0A0E6:  CLRF   x51
0A0E8:  MOVWF  x50
0A0EA:  MOVLW  03
0A0EC:  ADDWF  x50,W
0A0EE:  MOVWF  01
0A0F0:  MOVLW  00
0A0F2:  ADDWFC x51,W
0A0F4:  MOVWF  03
0A0F6:  MOVF   01,W
0A0F8:  ADDLW  28
0A0FA:  MOVWF  FE9
0A0FC:  MOVLW  04
0A0FE:  ADDWFC 03,W
0A100:  MOVWF  FEA
0A102:  MOVFF  BF,452
0A106:  MOVLW  0A
0A108:  MOVWF  x53
0A10A:  MOVLB  0
0A10C:  CALL   315A
0A110:  MOVF   01,W
0A112:  ADDWF  xBE,W
0A114:  MOVWF  FEF
....................                   write_eeprom(102+((CicloLibre-1)*8),Testerilizacionp[2]+(Testerilizacionp[3]*10)); 
0A116:  MOVLW  01
0A118:  MOVLB  3
0A11A:  SUBWF  x48,W
0A11C:  MULLW  08
0A11E:  MOVF   FF3,W
0A120:  ADDLW  66
0A122:  MOVLB  4
0A124:  MOVWF  x50
0A126:  MOVFF  C1,452
0A12A:  MOVLW  0A
0A12C:  MOVWF  x53
0A12E:  MOVLB  0
0A130:  CALL   315A
0A134:  MOVF   01,W
0A136:  ADDWF  xC0,W
0A138:  MOVLB  4
0A13A:  MOVWF  x51
0A13C:  CLRF   FAA
0A13E:  MOVFF  450,FA9
0A142:  MOVFF  451,FA8
0A146:  BCF    FA6.6
0A148:  BCF    FA6.7
0A14A:  BSF    FA6.2
0A14C:  MOVF   FF2,W
0A14E:  MOVWF  00
0A150:  BCF    FF2.6
0A152:  BCF    FF2.7
0A154:  MOVLB  F
0A156:  MOVLW  55
0A158:  MOVWF  FA7
0A15A:  MOVLW  AA
0A15C:  MOVWF  FA7
0A15E:  BSF    FA6.1
0A160:  BTFSC  FA6.1
0A162:  BRA    A160
0A164:  BCF    FA6.2
0A166:  MOVF   00,W
0A168:  IORWF  FF2,F
....................                   delay_ms(10); 
0A16A:  MOVLW  0A
0A16C:  MOVLB  4
0A16E:  MOVWF  x69
0A170:  MOVLB  0
0A172:  CALL   1B4A
....................                   write_eeprom(103+((CicloLibre-1)*8),Testerilizacionp[0]+(Testerilizacionp[1]*10)); 
0A176:  MOVLW  01
0A178:  MOVLB  3
0A17A:  SUBWF  x48,W
0A17C:  MULLW  08
0A17E:  MOVF   FF3,W
0A180:  ADDLW  67
0A182:  MOVLB  4
0A184:  MOVWF  x50
0A186:  MOVFF  BF,452
0A18A:  MOVLW  0A
0A18C:  MOVWF  x53
0A18E:  MOVLB  0
0A190:  CALL   315A
0A194:  MOVF   01,W
0A196:  ADDWF  xBE,W
0A198:  MOVLB  4
0A19A:  MOVWF  x51
0A19C:  CLRF   FAA
0A19E:  MOVFF  450,FA9
0A1A2:  MOVFF  451,FA8
0A1A6:  BCF    FA6.6
0A1A8:  BCF    FA6.7
0A1AA:  BSF    FA6.2
0A1AC:  MOVF   FF2,W
0A1AE:  MOVWF  00
0A1B0:  BCF    FF2.6
0A1B2:  BCF    FF2.7
0A1B4:  MOVLB  F
0A1B6:  MOVLW  55
0A1B8:  MOVWF  FA7
0A1BA:  MOVLW  AA
0A1BC:  MOVWF  FA7
0A1BE:  BSF    FA6.1
0A1C0:  BTFSC  FA6.1
0A1C2:  BRA    A1C0
0A1C4:  BCF    FA6.2
0A1C6:  MOVF   00,W
0A1C8:  IORWF  FF2,F
....................                   delay_ms(10); 
0A1CA:  MOVLW  0A
0A1CC:  MOVLB  4
0A1CE:  MOVWF  x69
0A1D0:  MOVLB  0
0A1D2:  CALL   1B4A
....................                   Testerilizacion[0]=Testerilizacionp[0]; 
0A1D6:  MOVFF  BE,B9
....................                   Testerilizacion[1]=Testerilizacionp[1]; 
0A1DA:  MOVFF  BF,BA
....................                   Testerilizacion[2]=Testerilizacionp[2]; 
0A1DE:  MOVFF  C0,BB
....................                   Testerilizacion[3]=Testerilizacionp[3];                   
0A1E2:  MOVFF  C1,BC
....................                   GuardaEEPROM=ON; 
0A1E6:  BSF    xAB.0
....................                } 
....................             } 
....................          } 
....................           
....................          if(RIGHT){ 
0A1E8:  BSF    F93.1
0A1EA:  BTFSC  F81.1
0A1EC:  BRA    A262
....................             delay_ms(100); 
0A1EE:  MOVLW  64
0A1F0:  MOVLB  4
0A1F2:  MOVWF  x69
0A1F4:  MOVLB  0
0A1F6:  CALL   1B4A
....................             if(RIGHT){ 
0A1FA:  BSF    F93.1
0A1FC:  BTFSC  F81.1
0A1FE:  BRA    A262
....................                if(!Segundos){ 
0A200:  BTFSC  xAA.7
0A202:  BRA    A232
....................                   Segundos=ON; 
0A204:  BSF    xAA.7
....................                   Minutos=OFF; 
0A206:  BCF    xAA.6
....................                   printf("tsecest.pco=65535"); 
0A208:  MOVLW  0C
0A20A:  MOVWF  FF6
0A20C:  MOVLW  0B
0A20E:  MOVWF  FF7
0A210:  MOVLW  00
0A212:  MOVWF  FF8
0A214:  CALL   3CA6
....................                   SendDataDisplay();   
0A218:  CALL   3CD8
....................                   printf("tminest.pco=0"); 
0A21C:  MOVLW  1E
0A21E:  MOVWF  FF6
0A220:  MOVLW  0B
0A222:  MOVWF  FF7
0A224:  MOVLW  00
0A226:  MOVWF  FF8
0A228:  CALL   3CA6
....................                   SendDataDisplay();   
0A22C:  CALL   3CD8
....................                }else if(!Minutos){ 
0A230:  BRA    A262
0A232:  BTFSC  xAA.6
0A234:  BRA    A262
....................                   Segundos=OFF; 
0A236:  BCF    xAA.7
....................                   Minutos=ON; 
0A238:  BSF    xAA.6
....................                   printf("tsecest.pco=0"); 
0A23A:  MOVLW  2C
0A23C:  MOVWF  FF6
0A23E:  MOVLW  0B
0A240:  MOVWF  FF7
0A242:  MOVLW  00
0A244:  MOVWF  FF8
0A246:  CALL   3CA6
....................                   SendDataDisplay();   
0A24A:  CALL   3CD8
....................                   printf("tminest.pco=65535"); 
0A24E:  MOVLW  3A
0A250:  MOVWF  FF6
0A252:  MOVLW  0B
0A254:  MOVWF  FF7
0A256:  MOVLW  00
0A258:  MOVWF  FF8
0A25A:  CALL   3CA6
....................                   SendDataDisplay();   
0A25E:  CALL   3CD8
....................                } 
....................             } 
....................          } 
....................           
....................          if(UP){ 
0A262:  BSF    F93.3
0A264:  BTFSC  F81.3
0A266:  BRA    A2AE
....................             delay_ms(100); 
0A268:  MOVLW  64
0A26A:  MOVLB  4
0A26C:  MOVWF  x69
0A26E:  MOVLB  0
0A270:  CALL   1B4A
....................             if(UP){ 
0A274:  BSF    F93.3
0A276:  BTFSC  F81.3
0A278:  BRA    A2AE
....................                if(Segundos){ 
0A27A:  BTFSS  xAA.7
0A27C:  BRA    A28E
....................                   Testerilizacionp[0]++; 
0A27E:  INCF   xBE,F
....................                   if(Testerilizacionp[0]>9){ 
0A280:  BTFSC  xBE.7
0A282:  BRA    A28E
0A284:  MOVF   xBE,W
0A286:  SUBLW  09
0A288:  BC    A28E
....................                      Testerilizacionp[1]++; 
0A28A:  INCF   xBF,F
....................                      Testerilizacionp[0]=0; 
0A28C:  CLRF   xBE
....................                   } 
....................                } 
....................                if(Minutos){ 
0A28E:  BTFSS  xAA.6
0A290:  BRA    A2AE
....................                   Testerilizacionp[2]++; 
0A292:  INCF   xC0,F
....................                   if(Testerilizacionp[2]>9){ 
0A294:  BTFSC  xC0.7
0A296:  BRA    A2A2
0A298:  MOVF   xC0,W
0A29A:  SUBLW  09
0A29C:  BC    A2A2
....................                      Testerilizacionp[3]++; 
0A29E:  INCF   xC1,F
....................                      Testerilizacionp[2]=0; 
0A2A0:  CLRF   xC0
....................                   } 
....................                   if(Testerilizacionp[3]>9){                      
0A2A2:  BTFSC  xC1.7
0A2A4:  BRA    A2AE
0A2A6:  MOVF   xC1,W
0A2A8:  SUBLW  09
0A2AA:  BC    A2AE
....................                      Testerilizacionp[3]=0; 
0A2AC:  CLRF   xC1
....................                   } 
....................                }     
....................             } 
....................          } 
....................           
....................          if(DOWN){ 
0A2AE:  BSF    F93.2
0A2B0:  BTFSC  F81.2
0A2B2:  BRA    A2F4
....................             delay_ms(100); 
0A2B4:  MOVLW  64
0A2B6:  MOVLB  4
0A2B8:  MOVWF  x69
0A2BA:  MOVLB  0
0A2BC:  CALL   1B4A
....................             if(DOWN){ 
0A2C0:  BSF    F93.2
0A2C2:  BTFSC  F81.2
0A2C4:  BRA    A2F4
....................                if(Segundos){ 
0A2C6:  BTFSS  xAA.7
0A2C8:  BRA    A2D8
....................                   Testerilizacionp[0]--; 
0A2CA:  DECF   xBE,F
....................                   if(Testerilizacionp[0]<0){ 
0A2CC:  BTFSC  xBE.7
0A2CE:  BRA    A2D2
0A2D0:  BRA    A2D8
....................                      Testerilizacionp[1]--; 
0A2D2:  DECF   xBF,F
....................                      Testerilizacionp[0]=9; 
0A2D4:  MOVLW  09
0A2D6:  MOVWF  xBE
....................                   } 
....................                } 
....................                if(Minutos){ 
0A2D8:  BTFSS  xAA.6
0A2DA:  BRA    A2F4
....................                   Testerilizacionp[2]--; 
0A2DC:  DECF   xC0,F
....................                   if(Testerilizacionp[2]<0){ 
0A2DE:  BTFSC  xC0.7
0A2E0:  BRA    A2E4
0A2E2:  BRA    A2EA
....................                      Testerilizacionp[3]--; 
0A2E4:  DECF   xC1,F
....................                      Testerilizacionp[2]=9; 
0A2E6:  MOVLW  09
0A2E8:  MOVWF  xC0
....................                   } 
....................                   if(Testerilizacionp[3]<0){ 
0A2EA:  BTFSC  xC1.7
0A2EC:  BRA    A2F0
0A2EE:  BRA    A2F4
....................                      Testerilizacionp[3]=9; 
0A2F0:  MOVLW  09
0A2F2:  MOVWF  xC1
....................                   } 
....................                }     
....................             } 
....................          } 
....................           
....................          if(RX_Buffer[4]==0x0c || RX_Buffer[4]==0x0d){//Tecla Derecha Oprimida 
0A2F4:  MOVF   34,W
0A2F6:  SUBLW  0C
0A2F8:  BZ    A300
0A2FA:  MOVF   34,W
0A2FC:  SUBLW  0D
0A2FE:  BNZ   A338
....................             if(Segundos){ 
0A300:  BTFSS  xAA.7
0A302:  BRA    A314
....................                Testerilizacionp[0]++; 
0A304:  INCF   xBE,F
....................                if(Testerilizacionp[0]>9){ 
0A306:  BTFSC  xBE.7
0A308:  BRA    A314
0A30A:  MOVF   xBE,W
0A30C:  SUBLW  09
0A30E:  BC    A314
....................                   Testerilizacionp[1]++; 
0A310:  INCF   xBF,F
....................                   Testerilizacionp[0]=0; 
0A312:  CLRF   xBE
....................                } 
....................             } 
....................             if(Minutos){ 
0A314:  BTFSS  xAA.6
0A316:  BRA    A334
....................                Testerilizacionp[2]++; 
0A318:  INCF   xC0,F
....................                if(Testerilizacionp[2]>9){ 
0A31A:  BTFSC  xC0.7
0A31C:  BRA    A328
0A31E:  MOVF   xC0,W
0A320:  SUBLW  09
0A322:  BC    A328
....................                   Testerilizacionp[3]++; 
0A324:  INCF   xC1,F
....................                   Testerilizacionp[2]=0; 
0A326:  CLRF   xC0
....................                } 
....................                if(Testerilizacionp[3]>9){                   
0A328:  BTFSC  xC1.7
0A32A:  BRA    A334
0A32C:  MOVF   xC1,W
0A32E:  SUBLW  09
0A330:  BC    A334
....................                   Testerilizacionp[3]=0; 
0A332:  CLRF   xC1
....................                } 
....................             } 
....................             RX_Buffer[4]=0x00;   
0A334:  CLRF   34
....................             RX_Buffer2[4]=0x00; 
0A336:  CLRF   3F
....................          } 
....................           
....................          if(RX_Buffer[4]==0x0f || RX_Buffer[4]==0x0e){//Tecla Izquierda Oprimida 
0A338:  MOVF   34,W
0A33A:  SUBLW  0F
0A33C:  BZ    A344
0A33E:  MOVF   34,W
0A340:  SUBLW  0E
0A342:  BNZ   A376
....................              
....................             if(Segundos){ 
0A344:  BTFSS  xAA.7
0A346:  BRA    A356
....................                Testerilizacionp[0]--; 
0A348:  DECF   xBE,F
....................                if(Testerilizacionp[0]<0){ 
0A34A:  BTFSC  xBE.7
0A34C:  BRA    A350
0A34E:  BRA    A356
....................                   Testerilizacionp[1]--; 
0A350:  DECF   xBF,F
....................                   Testerilizacionp[0]=9; 
0A352:  MOVLW  09
0A354:  MOVWF  xBE
....................                } 
....................             } 
....................             if(Minutos){ 
0A356:  BTFSS  xAA.6
0A358:  BRA    A372
....................                Testerilizacionp[2]--; 
0A35A:  DECF   xC0,F
....................                if(Testerilizacionp[2]<0){ 
0A35C:  BTFSC  xC0.7
0A35E:  BRA    A362
0A360:  BRA    A368
....................                   Testerilizacionp[3]--; 
0A362:  DECF   xC1,F
....................                   Testerilizacionp[2]=9; 
0A364:  MOVLW  09
0A366:  MOVWF  xC0
....................                } 
....................                if(Testerilizacionp[3]<0){ 
0A368:  BTFSC  xC1.7
0A36A:  BRA    A36E
0A36C:  BRA    A372
....................                   Testerilizacionp[3]=9; 
0A36E:  MOVLW  09
0A370:  MOVWF  xC1
....................                } 
....................             } 
....................             RX_Buffer[4]=0x00;   
0A372:  CLRF   34
....................             RX_Buffer2[4]=0x00; 
0A374:  CLRF   3F
....................          } 
....................           
....................          if(Testerilizacionp[0]<0) 
0A376:  BTFSC  xBE.7
0A378:  BRA    A37C
0A37A:  BRA    A380
....................             Testerilizacionp[0]=9;             
0A37C:  MOVLW  09
0A37E:  MOVWF  xBE
....................          if(Testerilizacionp[1]<0) 
0A380:  BTFSC  xBF.7
0A382:  BRA    A386
0A384:  BRA    A38A
....................             Testerilizacionp[1]=5;             
0A386:  MOVLW  05
0A388:  MOVWF  xBF
....................          if(Testerilizacionp[2]<0) 
0A38A:  BTFSC  xC0.7
0A38C:  BRA    A390
0A38E:  BRA    A394
....................             Testerilizacionp[2]=9;             
0A390:  MOVLW  09
0A392:  MOVWF  xC0
....................          if(Testerilizacionp[3]<0) 
0A394:  BTFSC  xC1.7
0A396:  BRA    A39A
0A398:  BRA    A39E
....................             Testerilizacionp[3]=9;             
0A39A:  MOVLW  09
0A39C:  MOVWF  xC1
....................           
....................          if(Testerilizacionp[0]>9) 
0A39E:  BTFSC  xBE.7
0A3A0:  BRA    A3AA
0A3A2:  MOVF   xBE,W
0A3A4:  SUBLW  09
0A3A6:  BC    A3AA
....................             Testerilizacionp[0]=0;             
0A3A8:  CLRF   xBE
....................          if(Testerilizacionp[1]>5) 
0A3AA:  BTFSC  xBF.7
0A3AC:  BRA    A3B6
0A3AE:  MOVF   xBF,W
0A3B0:  SUBLW  05
0A3B2:  BC    A3B6
....................             Testerilizacionp[1]=0;             
0A3B4:  CLRF   xBF
....................          if(Testerilizacionp[2]>9) 
0A3B6:  BTFSC  xC0.7
0A3B8:  BRA    A3C2
0A3BA:  MOVF   xC0,W
0A3BC:  SUBLW  09
0A3BE:  BC    A3C2
....................             Testerilizacionp[2]=0;             
0A3C0:  CLRF   xC0
....................          if(Testerilizacionp[3]>9) 
0A3C2:  BTFSC  xC1.7
0A3C4:  BRA    A3CE
0A3C6:  MOVF   xC1,W
0A3C8:  SUBLW  09
0A3CA:  BC    A3CE
....................             Testerilizacionp[3]=0;  
0A3CC:  CLRF   xC1
....................              
....................          printf("tminest.txt=\"%02u\"",((Testerilizacionp[3]*10)+Testerilizacionp[2])); 
0A3CE:  MOVFF  C1,452
0A3D2:  MOVLW  0A
0A3D4:  MOVLB  4
0A3D6:  MOVWF  x53
0A3D8:  MOVLB  0
0A3DA:  CALL   315A
0A3DE:  MOVF   xC0,W
0A3E0:  ADDWF  01,W
0A3E2:  MOVLB  4
0A3E4:  MOVWF  x50
0A3E6:  MOVLW  4C
0A3E8:  MOVWF  FF6
0A3EA:  MOVLW  0B
0A3EC:  MOVWF  FF7
0A3EE:  MOVLW  00
0A3F0:  MOVWF  FF8
0A3F2:  MOVLW  0D
0A3F4:  MOVWF  x56
0A3F6:  MOVLB  0
0A3F8:  CALL   4CA0
0A3FC:  MOVFF  450,456
0A400:  MOVLW  01
0A402:  MOVLB  4
0A404:  MOVWF  x57
0A406:  MOVLB  0
0A408:  CALL   4CFE
0A40C:  MOVLW  22
0A40E:  BTFSS  F9E.4
0A410:  BRA    A40E
0A412:  MOVWF  FAD
....................          SendDataDisplay(); 
0A414:  CALL   3CD8
....................          printf("tsecest.txt=\"%02u\"",((Testerilizacionp[1]*10)+Testerilizacionp[0])); 
0A418:  MOVFF  BF,452
0A41C:  MOVLW  0A
0A41E:  MOVLB  4
0A420:  MOVWF  x53
0A422:  MOVLB  0
0A424:  CALL   315A
0A428:  MOVF   xBE,W
0A42A:  ADDWF  01,W
0A42C:  MOVLB  4
0A42E:  MOVWF  x50
0A430:  MOVLW  60
0A432:  MOVWF  FF6
0A434:  MOVLW  0B
0A436:  MOVWF  FF7
0A438:  MOVLW  00
0A43A:  MOVWF  FF8
0A43C:  MOVLW  0D
0A43E:  MOVWF  x56
0A440:  MOVLB  0
0A442:  CALL   4CA0
0A446:  MOVFF  450,456
0A44A:  MOVLW  01
0A44C:  MOVLB  4
0A44E:  MOVWF  x57
0A450:  MOVLB  0
0A452:  CALL   4CFE
0A456:  MOVLW  22
0A458:  BTFSS  F9E.4
0A45A:  BRA    A458
0A45C:  MOVWF  FAD
....................          SendDataDisplay(); 
0A45E:  CALL   3CD8
0A462:  MOVLB  3
....................     } 
.................... //_--------------------------------------------------------------------------------------------------------------------------------------------------------        
....................  
.................... //_-------------------------------------------------------------------------------------------------------------------------------------------------------- 
....................     if(Menu==3){ //Menu de Tiempo de Secado 
0A464:  MOVF   x68,W
0A466:  SUBLW  03
0A468:  BTFSS  FD8.2
0A46A:  BRA    A966
....................       printf("fecha.txt=\"T:%3.1fC Fecha:%02u/%02u/20%02u Hora: %02u:%02u:%02u\"",Temperatura,Dia,Mes,Year,Hora,Minuto,Segundo); 
0A46C:  MOVLW  74
0A46E:  MOVWF  FF6
0A470:  MOVLW  0B
0A472:  MOVWF  FF7
0A474:  MOVLW  00
0A476:  MOVWF  FF8
0A478:  MOVLW  0D
0A47A:  MOVLB  4
0A47C:  MOVWF  x56
0A47E:  MOVLB  0
0A480:  CALL   4CA0
0A484:  MOVLW  02
0A486:  MOVWF  FE9
0A488:  MOVFF  335,459
0A48C:  MOVFF  334,458
0A490:  MOVFF  333,457
0A494:  MOVFF  332,456
0A498:  MOVLW  01
0A49A:  MOVLB  4
0A49C:  MOVWF  x5A
0A49E:  MOVLB  0
0A4A0:  CALL   4E40
0A4A4:  MOVLW  86
0A4A6:  MOVWF  FF6
0A4A8:  MOVLW  0B
0A4AA:  MOVWF  FF7
0A4AC:  MOVLW  00
0A4AE:  MOVWF  FF8
0A4B0:  MOVLW  09
0A4B2:  MOVLB  4
0A4B4:  MOVWF  x56
0A4B6:  MOVLB  0
0A4B8:  CALL   4CA0
0A4BC:  MOVFF  3AD,456
0A4C0:  MOVLW  01
0A4C2:  MOVLB  4
0A4C4:  MOVWF  x57
0A4C6:  MOVLB  0
0A4C8:  CALL   4CFE
0A4CC:  MOVLW  2F
0A4CE:  BTFSS  F9E.4
0A4D0:  BRA    A4CE
0A4D2:  MOVWF  FAD
0A4D4:  MOVFF  3AC,456
0A4D8:  MOVLW  01
0A4DA:  MOVLB  4
0A4DC:  MOVWF  x57
0A4DE:  MOVLB  0
0A4E0:  CALL   4CFE
0A4E4:  MOVLW  2F
0A4E6:  BTFSS  F9E.4
0A4E8:  BRA    A4E6
0A4EA:  MOVWF  FAD
0A4EC:  MOVLW  32
0A4EE:  BTFSS  F9E.4
0A4F0:  BRA    A4EE
0A4F2:  MOVWF  FAD
0A4F4:  MOVLW  30
0A4F6:  BTFSS  F9E.4
0A4F8:  BRA    A4F6
0A4FA:  MOVWF  FAD
0A4FC:  MOVFF  3AB,456
0A500:  MOVLW  01
0A502:  MOVLB  4
0A504:  MOVWF  x57
0A506:  MOVLB  0
0A508:  CALL   4CFE
0A50C:  MOVLW  9F
0A50E:  MOVWF  FF6
0A510:  MOVLW  0B
0A512:  MOVWF  FF7
0A514:  MOVLW  00
0A516:  MOVWF  FF8
0A518:  MOVLW  07
0A51A:  MOVLB  4
0A51C:  MOVWF  x56
0A51E:  MOVLB  0
0A520:  CALL   4CA0
0A524:  MOVFF  3AE,456
0A528:  MOVLW  01
0A52A:  MOVLB  4
0A52C:  MOVWF  x57
0A52E:  MOVLB  0
0A530:  CALL   4CFE
0A534:  MOVLW  3A
0A536:  BTFSS  F9E.4
0A538:  BRA    A536
0A53A:  MOVWF  FAD
0A53C:  MOVFF  3AF,456
0A540:  MOVLW  01
0A542:  MOVLB  4
0A544:  MOVWF  x57
0A546:  MOVLB  0
0A548:  CALL   4CFE
0A54C:  MOVLW  3A
0A54E:  BTFSS  F9E.4
0A550:  BRA    A54E
0A552:  MOVWF  FAD
0A554:  MOVFF  3B0,456
0A558:  MOVLW  01
0A55A:  MOVLB  4
0A55C:  MOVWF  x57
0A55E:  MOVLB  0
0A560:  CALL   4CFE
0A564:  MOVLW  22
0A566:  BTFSS  F9E.4
0A568:  BRA    A566
0A56A:  MOVWF  FAD
....................       SendDataDisplay();             
0A56C:  CALL   3CD8
....................              
....................          if(RX_Buffer[4]==0x0a){//Selecciono Minutos 
0A570:  MOVF   34,W
0A572:  SUBLW  0A
0A574:  BNZ   A57A
....................             Minutos=ON; 
0A576:  BSF    xAA.6
....................             Segundos=OFF; 
0A578:  BCF    xAA.7
....................          } 
....................           
....................          if(RX_Buffer[4]==0x0b){//Selecciono Segundos 
0A57A:  MOVF   34,W
0A57C:  SUBLW  0B
0A57E:  BNZ   A584
....................             Segundos=ON; 
0A580:  BSF    xAA.7
....................             Minutos=OFF; 
0A582:  BCF    xAA.6
....................          } 
....................           
....................          if(RX_Buffer[4]==0x11 || LEFT){//Selecciono Regresar 
0A584:  MOVF   34,W
0A586:  SUBLW  11
0A588:  BZ    A590
0A58A:  BSF    F93.0
0A58C:  BTFSC  F81.0
0A58E:  BRA    A6FA
....................             Segundos=OFF; 
0A590:  BCF    xAA.7
....................             Minutos=OFF; 
0A592:  BCF    xAA.6
....................             printf("page CicloPersona"); 
0A594:  MOVLW  B6
0A596:  MOVWF  FF6
0A598:  MOVLW  0B
0A59A:  MOVWF  FF7
0A59C:  MOVLW  00
0A59E:  MOVWF  FF8
0A5A0:  CALL   3CA6
....................             SendDataDisplay();   
0A5A4:  CALL   3CD8
....................             //PantallaPrincipal=1; 
....................             Op=OFF; 
0A5A8:  BCF    xAA.4
....................             Op2=OFF; 
0A5AA:  BCF    xAA.5
....................             if(!GuardaEEPROM){ 
0A5AC:  BTFSC  xAB.0
0A5AE:  BRA    A6FA
....................                CiclosPersonalizados[CicloLibre-1].Minutosec=Tsecadop[2]+(Tsecadop[3]*10); 
0A5B0:  MOVLW  01
0A5B2:  MOVLB  3
0A5B4:  SUBWF  x48,W
0A5B6:  MULLW  0A
0A5B8:  MOVF   FF3,W
0A5BA:  MOVLB  4
0A5BC:  CLRF   x51
0A5BE:  MOVWF  x50
0A5C0:  MOVLW  04
0A5C2:  ADDWF  x50,W
0A5C4:  MOVWF  01
0A5C6:  MOVLW  00
0A5C8:  ADDWFC x51,W
0A5CA:  MOVWF  03
0A5CC:  MOVF   01,W
0A5CE:  ADDLW  28
0A5D0:  MOVWF  FE9
0A5D2:  MOVLW  04
0A5D4:  ADDWFC 03,W
0A5D6:  MOVWF  FEA
0A5D8:  MOVFF  CA,452
0A5DC:  MOVLW  0A
0A5DE:  MOVWF  x53
0A5E0:  MOVLB  0
0A5E2:  CALL   315A
0A5E6:  MOVF   01,W
0A5E8:  ADDWF  xC9,W
0A5EA:  MOVWF  FEF
....................                CiclosPersonalizados[CicloLibre-1].Segundosec=Tsecadop[0]+(Tsecadop[1]*10); 
0A5EC:  MOVLW  01
0A5EE:  MOVLB  3
0A5F0:  SUBWF  x48,W
0A5F2:  MULLW  0A
0A5F4:  MOVF   FF3,W
0A5F6:  MOVLB  4
0A5F8:  CLRF   x51
0A5FA:  MOVWF  x50
0A5FC:  MOVLW  05
0A5FE:  ADDWF  x50,W
0A600:  MOVWF  01
0A602:  MOVLW  00
0A604:  ADDWFC x51,W
0A606:  MOVWF  03
0A608:  MOVF   01,W
0A60A:  ADDLW  28
0A60C:  MOVWF  FE9
0A60E:  MOVLW  04
0A610:  ADDWFC 03,W
0A612:  MOVWF  FEA
0A614:  MOVFF  C8,452
0A618:  MOVLW  0A
0A61A:  MOVWF  x53
0A61C:  MOVLB  0
0A61E:  CALL   315A
0A622:  MOVF   01,W
0A624:  ADDWF  xC7,W
0A626:  MOVWF  FEF
....................                write_eeprom(104+((CicloLibre-1)*8),Tsecadop[2]+(Tsecadop[3]*10)); 
0A628:  MOVLW  01
0A62A:  MOVLB  3
0A62C:  SUBWF  x48,W
0A62E:  MULLW  08
0A630:  MOVF   FF3,W
0A632:  ADDLW  68
0A634:  MOVLB  4
0A636:  MOVWF  x50
0A638:  MOVFF  CA,452
0A63C:  MOVLW  0A
0A63E:  MOVWF  x53
0A640:  MOVLB  0
0A642:  CALL   315A
0A646:  MOVF   01,W
0A648:  ADDWF  xC9,W
0A64A:  MOVLB  4
0A64C:  MOVWF  x51
0A64E:  CLRF   FAA
0A650:  MOVFF  450,FA9
0A654:  MOVFF  451,FA8
0A658:  BCF    FA6.6
0A65A:  BCF    FA6.7
0A65C:  BSF    FA6.2
0A65E:  MOVF   FF2,W
0A660:  MOVWF  00
0A662:  BCF    FF2.6
0A664:  BCF    FF2.7
0A666:  MOVLB  F
0A668:  MOVLW  55
0A66A:  MOVWF  FA7
0A66C:  MOVLW  AA
0A66E:  MOVWF  FA7
0A670:  BSF    FA6.1
0A672:  BTFSC  FA6.1
0A674:  BRA    A672
0A676:  BCF    FA6.2
0A678:  MOVF   00,W
0A67A:  IORWF  FF2,F
....................                delay_ms(10); 
0A67C:  MOVLW  0A
0A67E:  MOVLB  4
0A680:  MOVWF  x69
0A682:  MOVLB  0
0A684:  CALL   1B4A
....................                write_eeprom(105+((CicloLibre-1)*8),Tsecadop[0]+(Tsecadop[1]*10)); 
0A688:  MOVLW  01
0A68A:  MOVLB  3
0A68C:  SUBWF  x48,W
0A68E:  MULLW  08
0A690:  MOVF   FF3,W
0A692:  ADDLW  69
0A694:  MOVLB  4
0A696:  MOVWF  x50
0A698:  MOVFF  C8,452
0A69C:  MOVLW  0A
0A69E:  MOVWF  x53
0A6A0:  MOVLB  0
0A6A2:  CALL   315A
0A6A6:  MOVF   01,W
0A6A8:  ADDWF  xC7,W
0A6AA:  MOVLB  4
0A6AC:  MOVWF  x51
0A6AE:  CLRF   FAA
0A6B0:  MOVFF  450,FA9
0A6B4:  MOVFF  451,FA8
0A6B8:  BCF    FA6.6
0A6BA:  BCF    FA6.7
0A6BC:  BSF    FA6.2
0A6BE:  MOVF   FF2,W
0A6C0:  MOVWF  00
0A6C2:  BCF    FF2.6
0A6C4:  BCF    FF2.7
0A6C6:  MOVLB  F
0A6C8:  MOVLW  55
0A6CA:  MOVWF  FA7
0A6CC:  MOVLW  AA
0A6CE:  MOVWF  FA7
0A6D0:  BSF    FA6.1
0A6D2:  BTFSC  FA6.1
0A6D4:  BRA    A6D2
0A6D6:  BCF    FA6.2
0A6D8:  MOVF   00,W
0A6DA:  IORWF  FF2,F
....................                delay_ms(10); 
0A6DC:  MOVLW  0A
0A6DE:  MOVLB  4
0A6E0:  MOVWF  x69
0A6E2:  MOVLB  0
0A6E4:  CALL   1B4A
....................                Tsecado[0]=Tsecadop[0]; 
0A6E8:  MOVFF  C7,C3
....................                Tsecado[1]=Tsecadop[1]; 
0A6EC:  MOVFF  C8,C4
....................                Tsecado[2]=Tsecadop[2]; 
0A6F0:  MOVFF  C9,C5
....................                Tsecado[3]=Tsecadop[3]; 
0A6F4:  MOVFF  CA,C6
....................                GuardaEEPROM=ON; 
0A6F8:  BSF    xAB.0
....................             } 
....................          } 
....................           
....................          if(RIGHT){ 
0A6FA:  BSF    F93.1
0A6FC:  BTFSC  F81.1
0A6FE:  BRA    A774
....................             delay_ms(100); 
0A700:  MOVLW  64
0A702:  MOVLB  4
0A704:  MOVWF  x69
0A706:  MOVLB  0
0A708:  CALL   1B4A
....................             if(RIGHT){ 
0A70C:  BSF    F93.1
0A70E:  BTFSC  F81.1
0A710:  BRA    A774
....................                if(!Segundos){ 
0A712:  BTFSC  xAA.7
0A714:  BRA    A744
....................                   Segundos=ON; 
0A716:  BSF    xAA.7
....................                   Minutos=OFF; 
0A718:  BCF    xAA.6
....................                   printf("tminsec.pco=0"); 
0A71A:  MOVLW  C8
0A71C:  MOVWF  FF6
0A71E:  MOVLW  0B
0A720:  MOVWF  FF7
0A722:  MOVLW  00
0A724:  MOVWF  FF8
0A726:  CALL   3CA6
....................                   SendDataDisplay();                    
0A72A:  CALL   3CD8
....................                   printf("tsecsec.pco=65535"); 
0A72E:  MOVLW  D6
0A730:  MOVWF  FF6
0A732:  MOVLW  0B
0A734:  MOVWF  FF7
0A736:  MOVLW  00
0A738:  MOVWF  FF8
0A73A:  CALL   3CA6
....................                   SendDataDisplay();   
0A73E:  CALL   3CD8
....................                }else if(!Minutos){ 
0A742:  BRA    A774
0A744:  BTFSC  xAA.6
0A746:  BRA    A774
....................                   Segundos=OFF; 
0A748:  BCF    xAA.7
....................                   Minutos=ON; 
0A74A:  BSF    xAA.6
....................                   printf("tminsec.pco=65535"); 
0A74C:  MOVLW  E8
0A74E:  MOVWF  FF6
0A750:  MOVLW  0B
0A752:  MOVWF  FF7
0A754:  MOVLW  00
0A756:  MOVWF  FF8
0A758:  CALL   3CA6
....................                   SendDataDisplay();   
0A75C:  CALL   3CD8
....................                   printf("tsecsec.pco=0"); 
0A760:  MOVLW  FA
0A762:  MOVWF  FF6
0A764:  MOVLW  0B
0A766:  MOVWF  FF7
0A768:  MOVLW  00
0A76A:  MOVWF  FF8
0A76C:  CALL   3CA6
....................                   SendDataDisplay();   
0A770:  CALL   3CD8
....................                } 
....................             } 
....................          } 
....................           
....................          if(UP){ 
0A774:  BSF    F93.3
0A776:  BTFSC  F81.3
0A778:  BRA    A7B4
....................             delay_ms(100); 
0A77A:  MOVLW  64
0A77C:  MOVLB  4
0A77E:  MOVWF  x69
0A780:  MOVLB  0
0A782:  CALL   1B4A
....................             if(UP){ 
0A786:  BSF    F93.3
0A788:  BTFSC  F81.3
0A78A:  BRA    A7B4
....................                if(Segundos){ 
0A78C:  BTFSS  xAA.7
0A78E:  BRA    A7A0
....................                   Tsecadop[0]++; 
0A790:  INCF   xC7,F
....................                   if(Tsecadop[0]>9){ 
0A792:  BTFSC  xC7.7
0A794:  BRA    A7A0
0A796:  MOVF   xC7,W
0A798:  SUBLW  09
0A79A:  BC    A7A0
....................                      Tsecadop[1]++; 
0A79C:  INCF   xC8,F
....................                      Tsecadop[0]=0; 
0A79E:  CLRF   xC7
....................                   } 
....................                } 
....................                if(Minutos){ 
0A7A0:  BTFSS  xAA.6
0A7A2:  BRA    A7B4
....................                   Tsecado[2]++; 
0A7A4:  INCF   xC5,F
....................                   if(Tsecadop[2]>9){ 
0A7A6:  BTFSC  xC9.7
0A7A8:  BRA    A7B4
0A7AA:  MOVF   xC9,W
0A7AC:  SUBLW  09
0A7AE:  BC    A7B4
....................                      Tsecadop[3]++; 
0A7B0:  INCF   xCA,F
....................                      Tsecadop[2]=0; 
0A7B2:  CLRF   xC9
....................                   } 
....................                }   
....................             } 
....................          } 
....................           
....................          if(DOWN){ 
0A7B4:  BSF    F93.2
0A7B6:  BTFSC  F81.2
0A7B8:  BRA    A7FE
....................             delay_ms(100); 
0A7BA:  MOVLW  64
0A7BC:  MOVLB  4
0A7BE:  MOVWF  x69
0A7C0:  MOVLB  0
0A7C2:  CALL   1B4A
....................             if(DOWN){ 
0A7C6:  BSF    F93.2
0A7C8:  BTFSC  F81.2
0A7CA:  BRA    A7FE
....................                if(Segundos){ 
0A7CC:  BTFSS  xAA.7
0A7CE:  BRA    A7EC
....................                   Tsecadop[0]--; 
0A7D0:  DECF   xC7,F
....................                   if(Tsecadop[0]<0){ 
0A7D2:  BTFSC  xC7.7
0A7D4:  BRA    A7D8
0A7D6:  BRA    A7DE
....................                      Tsecadop[1]--; 
0A7D8:  DECF   xC8,F
....................                      Tsecadop[0]=9; 
0A7DA:  MOVLW  09
0A7DC:  MOVWF  xC7
....................                   } 
....................                   if(Tsecadop[1]<0){ 
0A7DE:  BTFSC  xC8.7
0A7E0:  BRA    A7E4
0A7E2:  BRA    A7EC
....................                      Tsecadop[1]=5; 
0A7E4:  MOVLW  05
0A7E6:  MOVWF  xC8
....................                      Tsecadop[0]=9; 
0A7E8:  MOVLW  09
0A7EA:  MOVWF  xC7
....................                   } 
....................                } 
....................                if(Minutos){ 
0A7EC:  BTFSS  xAA.6
0A7EE:  BRA    A7FE
....................                   Tsecadop[2]--; 
0A7F0:  DECF   xC9,F
....................                   if(Tsecadop[2]<0){ 
0A7F2:  BTFSC  xC9.7
0A7F4:  BRA    A7F8
0A7F6:  BRA    A7FE
....................                      Tsecadop[3]--; 
0A7F8:  DECF   xCA,F
....................                      Tsecadop[2]=9; 
0A7FA:  MOVLW  09
0A7FC:  MOVWF  xC9
....................                   } 
....................                }   
....................             } 
....................          } 
....................           
....................          if(RX_Buffer[4]==0x0c || RX_Buffer[4]==0x0d){//Tecla Derecha Oprimida 
0A7FE:  MOVF   34,W
0A800:  SUBLW  0C
0A802:  BZ    A80A
0A804:  MOVF   34,W
0A806:  SUBLW  0D
0A808:  BNZ   A836
....................             if(Segundos){ 
0A80A:  BTFSS  xAA.7
0A80C:  BRA    A81E
....................                Tsecadop[0]++; 
0A80E:  INCF   xC7,F
....................                if(Tsecadop[0]>9){ 
0A810:  BTFSC  xC7.7
0A812:  BRA    A81E
0A814:  MOVF   xC7,W
0A816:  SUBLW  09
0A818:  BC    A81E
....................                   Tsecadop[1]++; 
0A81A:  INCF   xC8,F
....................                   Tsecadop[0]=0; 
0A81C:  CLRF   xC7
....................                } 
....................             } 
....................             if(Minutos){ 
0A81E:  BTFSS  xAA.6
0A820:  BRA    A832
....................                Tsecadop[2]++; 
0A822:  INCF   xC9,F
....................                if(Tsecadop[2]>9){ 
0A824:  BTFSC  xC9.7
0A826:  BRA    A832
0A828:  MOVF   xC9,W
0A82A:  SUBLW  09
0A82C:  BC    A832
....................                   Tsecadop[3]++; 
0A82E:  INCF   xCA,F
....................                   Tsecadop[2]=0; 
0A830:  CLRF   xC9
....................                } 
....................             } 
....................             RX_Buffer[4]=0x00;   
0A832:  CLRF   34
....................             RX_Buffer2[4]=0x00;  
0A834:  CLRF   3F
....................          } 
....................           
....................          if(RX_Buffer[4]==0x0f || RX_Buffer[4]==0x0e){//Tecla Izquierda Oprimida 
0A836:  MOVF   34,W
0A838:  SUBLW  0F
0A83A:  BZ    A842
0A83C:  MOVF   34,W
0A83E:  SUBLW  0E
0A840:  BNZ   A878
....................             if(Segundos){ 
0A842:  BTFSS  xAA.7
0A844:  BRA    A862
....................                Tsecadop[0]--; 
0A846:  DECF   xC7,F
....................                if(Tsecadop[0]<0){ 
0A848:  BTFSC  xC7.7
0A84A:  BRA    A84E
0A84C:  BRA    A854
....................                   Tsecadop[1]--; 
0A84E:  DECF   xC8,F
....................                   Tsecadop[0]=9; 
0A850:  MOVLW  09
0A852:  MOVWF  xC7
....................                } 
....................                if(Tsecadop[1]<0){ 
0A854:  BTFSC  xC8.7
0A856:  BRA    A85A
0A858:  BRA    A862
....................                   Tsecadop[1]=5; 
0A85A:  MOVLW  05
0A85C:  MOVWF  xC8
....................                   Tsecadop[0]=9; 
0A85E:  MOVLW  09
0A860:  MOVWF  xC7
....................                } 
....................             } 
....................             if(Minutos){ 
0A862:  BTFSS  xAA.6
0A864:  BRA    A874
....................                Tsecadop[2]--; 
0A866:  DECF   xC9,F
....................                if(Tsecadop[2]<0){ 
0A868:  BTFSC  xC9.7
0A86A:  BRA    A86E
0A86C:  BRA    A874
....................                   Tsecadop[3]--; 
0A86E:  DECF   xCA,F
....................                   Tsecadop[2]=9; 
0A870:  MOVLW  09
0A872:  MOVWF  xC9
....................                } 
....................             } 
....................             RX_Buffer[4]=0x00;   
0A874:  CLRF   34
....................             RX_Buffer2[4]=0x00;             
0A876:  CLRF   3F
....................          } 
....................        
....................          if(Tsecadop[0]<0) 
0A878:  BTFSC  xC7.7
0A87A:  BRA    A87E
0A87C:  BRA    A882
....................             Tsecadop[0]=9;             
0A87E:  MOVLW  09
0A880:  MOVWF  xC7
....................          if(Tsecadop[1]<0) 
0A882:  BTFSC  xC8.7
0A884:  BRA    A888
0A886:  BRA    A88C
....................             Tsecadop[1]=5;             
0A888:  MOVLW  05
0A88A:  MOVWF  xC8
....................          if(Tsecadop[2]<0) 
0A88C:  BTFSC  xC9.7
0A88E:  BRA    A892
0A890:  BRA    A896
....................             Tsecadop[2]=9;             
0A892:  MOVLW  09
0A894:  MOVWF  xC9
....................          if(Tsecadop[3]<0) 
0A896:  BTFSC  xCA.7
0A898:  BRA    A89C
0A89A:  BRA    A8A0
....................             Tsecadop[3]=9;             
0A89C:  MOVLW  09
0A89E:  MOVWF  xCA
....................           
....................          if(Tsecadop[0]>9) 
0A8A0:  BTFSC  xC7.7
0A8A2:  BRA    A8AC
0A8A4:  MOVF   xC7,W
0A8A6:  SUBLW  09
0A8A8:  BC    A8AC
....................             Tsecadop[0]=0;             
0A8AA:  CLRF   xC7
....................          if(Tsecadop[1]>5) 
0A8AC:  BTFSC  xC8.7
0A8AE:  BRA    A8B8
0A8B0:  MOVF   xC8,W
0A8B2:  SUBLW  05
0A8B4:  BC    A8B8
....................             Tsecadop[1]=0;             
0A8B6:  CLRF   xC8
....................          if(Tsecadop[2]>9) 
0A8B8:  BTFSC  xC9.7
0A8BA:  BRA    A8C4
0A8BC:  MOVF   xC9,W
0A8BE:  SUBLW  09
0A8C0:  BC    A8C4
....................             Tsecadop[2]=0;             
0A8C2:  CLRF   xC9
....................          if(Tsecadop[3]>9) 
0A8C4:  BTFSC  xCA.7
0A8C6:  BRA    A8D0
0A8C8:  MOVF   xCA,W
0A8CA:  SUBLW  09
0A8CC:  BC    A8D0
....................             Tsecadop[3]=0; 
0A8CE:  CLRF   xCA
....................              
....................       printf("tminsec.txt=\"%02u\"",((Tsecadop[3]*10)+Tsecadop[2])); 
0A8D0:  MOVFF  CA,452
0A8D4:  MOVLW  0A
0A8D6:  MOVLB  4
0A8D8:  MOVWF  x53
0A8DA:  MOVLB  0
0A8DC:  CALL   315A
0A8E0:  MOVF   xC9,W
0A8E2:  ADDWF  01,W
0A8E4:  MOVLB  4
0A8E6:  MOVWF  x50
0A8E8:  MOVLW  08
0A8EA:  MOVWF  FF6
0A8EC:  MOVLW  0C
0A8EE:  MOVWF  FF7
0A8F0:  MOVLW  00
0A8F2:  MOVWF  FF8
0A8F4:  MOVLW  0D
0A8F6:  MOVWF  x56
0A8F8:  MOVLB  0
0A8FA:  CALL   4CA0
0A8FE:  MOVFF  450,456
0A902:  MOVLW  01
0A904:  MOVLB  4
0A906:  MOVWF  x57
0A908:  MOVLB  0
0A90A:  CALL   4CFE
0A90E:  MOVLW  22
0A910:  BTFSS  F9E.4
0A912:  BRA    A910
0A914:  MOVWF  FAD
....................       SendDataDisplay(); 
0A916:  CALL   3CD8
....................       printf("tsecsec.txt=\"%02u\"",((Tsecadop[1]*10)+Tsecadop[0])); 
0A91A:  MOVFF  C8,452
0A91E:  MOVLW  0A
0A920:  MOVLB  4
0A922:  MOVWF  x53
0A924:  MOVLB  0
0A926:  CALL   315A
0A92A:  MOVF   xC7,W
0A92C:  ADDWF  01,W
0A92E:  MOVLB  4
0A930:  MOVWF  x50
0A932:  MOVLW  1C
0A934:  MOVWF  FF6
0A936:  MOVLW  0C
0A938:  MOVWF  FF7
0A93A:  MOVLW  00
0A93C:  MOVWF  FF8
0A93E:  MOVLW  0D
0A940:  MOVWF  x56
0A942:  MOVLB  0
0A944:  CALL   4CA0
0A948:  MOVFF  450,456
0A94C:  MOVLW  01
0A94E:  MOVLB  4
0A950:  MOVWF  x57
0A952:  MOVLB  0
0A954:  CALL   4CFE
0A958:  MOVLW  22
0A95A:  BTFSS  F9E.4
0A95C:  BRA    A95A
0A95E:  MOVWF  FAD
....................       SendDataDisplay(); 
0A960:  CALL   3CD8
0A964:  MOVLB  3
....................     } 
.................... //_--------------------------------------------------------------------------------------------------------------------------------------------------------        
....................  
.................... //_-------------------------------------------------------------------------------------------------------------------------------------------------------- 
....................     if(Menu==4){ //Menu de Temperatura 
0A966:  MOVF   x68,W
0A968:  SUBLW  04
0A96A:  BTFSS  FD8.2
0A96C:  BRA    AB6E
....................       printf("fecha.txt=\"Fecha:%02u/%02u/20%02u    Hora: %02u:%02u\"",Dia,Mes,Year,Hora,Minuto); 
0A96E:  MOVLW  30
0A970:  MOVWF  FF6
0A972:  MOVLW  0C
0A974:  MOVWF  FF7
0A976:  MOVLW  00
0A978:  MOVWF  FF8
0A97A:  MOVLW  11
0A97C:  MOVLB  4
0A97E:  MOVWF  x56
0A980:  MOVLB  0
0A982:  CALL   4CA0
0A986:  MOVFF  3AD,456
0A98A:  MOVLW  01
0A98C:  MOVLB  4
0A98E:  MOVWF  x57
0A990:  MOVLB  0
0A992:  CALL   4CFE
0A996:  MOVLW  2F
0A998:  BTFSS  F9E.4
0A99A:  BRA    A998
0A99C:  MOVWF  FAD
0A99E:  MOVFF  3AC,456
0A9A2:  MOVLW  01
0A9A4:  MOVLB  4
0A9A6:  MOVWF  x57
0A9A8:  MOVLB  0
0A9AA:  CALL   4CFE
0A9AE:  MOVLW  2F
0A9B0:  BTFSS  F9E.4
0A9B2:  BRA    A9B0
0A9B4:  MOVWF  FAD
0A9B6:  MOVLW  32
0A9B8:  BTFSS  F9E.4
0A9BA:  BRA    A9B8
0A9BC:  MOVWF  FAD
0A9BE:  MOVLW  30
0A9C0:  BTFSS  F9E.4
0A9C2:  BRA    A9C0
0A9C4:  MOVWF  FAD
0A9C6:  MOVFF  3AB,456
0A9CA:  MOVLW  01
0A9CC:  MOVLB  4
0A9CE:  MOVWF  x57
0A9D0:  MOVLB  0
0A9D2:  CALL   4CFE
0A9D6:  MOVLW  51
0A9D8:  MOVWF  FF6
0A9DA:  MOVLW  0C
0A9DC:  MOVWF  FF7
0A9DE:  MOVLW  00
0A9E0:  MOVWF  FF8
0A9E2:  MOVLW  0A
0A9E4:  MOVLB  4
0A9E6:  MOVWF  x56
0A9E8:  MOVLB  0
0A9EA:  CALL   4CA0
0A9EE:  MOVFF  3AE,456
0A9F2:  MOVLW  01
0A9F4:  MOVLB  4
0A9F6:  MOVWF  x57
0A9F8:  MOVLB  0
0A9FA:  CALL   4CFE
0A9FE:  MOVLW  3A
0AA00:  BTFSS  F9E.4
0AA02:  BRA    AA00
0AA04:  MOVWF  FAD
0AA06:  MOVFF  3AF,456
0AA0A:  MOVLW  01
0AA0C:  MOVLB  4
0AA0E:  MOVWF  x57
0AA10:  MOVLB  0
0AA12:  CALL   4CFE
0AA16:  MOVLW  22
0AA18:  BTFSS  F9E.4
0AA1A:  BRA    AA18
0AA1C:  MOVWF  FAD
....................       SendDataDisplay(); 
0AA1E:  CALL   3CD8
....................          if(Setpoint<Tmin) 
0AA22:  MOVLB  3
0AA24:  MOVF   x6E,W
0AA26:  SUBLW  68
0AA28:  BNC   AA2E
....................             Setpoint=Tmax; 
0AA2A:  MOVLW  80
0AA2C:  MOVWF  x6E
....................          if(Setpoint>Tmax) 
0AA2E:  MOVF   x6E,W
0AA30:  SUBLW  80
0AA32:  BC    AA38
....................             Setpoint=Tmin; 
0AA34:  MOVLW  69
0AA36:  MOVWF  x6E
....................           
....................          if(RX_Buffer[4]==0x11 || LEFT){//Selecciono Regresar 
0AA38:  MOVF   34,W
0AA3A:  SUBLW  11
0AA3C:  BZ    AA44
0AA3E:  BSF    F93.0
0AA40:  BTFSC  F81.0
0AA42:  BRA    AADC
....................             Segundos=OFF; 
0AA44:  MOVLB  0
0AA46:  BCF    xAA.7
....................             Minutos=OFF; 
0AA48:  BCF    xAA.6
....................             printf("page CicloPersona"); 
0AA4A:  MOVLW  66
0AA4C:  MOVWF  FF6
0AA4E:  MOVLW  0C
0AA50:  MOVWF  FF7
0AA52:  MOVLW  00
0AA54:  MOVWF  FF8
0AA56:  CALL   3CA6
....................             SendDataDisplay();   
0AA5A:  CALL   3CD8
....................             PantallaPrincipal=1; 
0AA5E:  MOVLW  01
0AA60:  MOVLB  2
0AA62:  MOVWF  xE5
....................             Op=OFF; 
0AA64:  MOVLB  0
0AA66:  BCF    xAA.4
....................             Op2=OFF; 
0AA68:  BCF    xAA.5
....................             if(!GuardaEEPROM){ 
0AA6A:  BTFSC  xAB.0
0AA6C:  BRA    AADA
....................                CiclosPersonalizados[CicloLibre-1].Temperatura=Setpoint; 
0AA6E:  MOVLW  01
0AA70:  MOVLB  3
0AA72:  SUBWF  x48,W
0AA74:  MULLW  0A
0AA76:  MOVF   FF3,W
0AA78:  MOVLB  4
0AA7A:  CLRF   x51
0AA7C:  MOVWF  x50
0AA7E:  MOVLW  28
0AA80:  ADDWF  x50,W
0AA82:  MOVWF  FE9
0AA84:  MOVLW  04
0AA86:  ADDWFC x51,W
0AA88:  MOVWF  FEA
0AA8A:  MOVFF  36E,FEF
....................                write_eeprom(100+((CicloLibre-1)*8),Setpoint); 
0AA8E:  MOVLW  01
0AA90:  MOVLB  3
0AA92:  SUBWF  x48,W
0AA94:  MULLW  08
0AA96:  MOVF   FF3,W
0AA98:  ADDLW  64
0AA9A:  MOVLB  4
0AA9C:  MOVWF  x50
0AA9E:  CLRF   FAA
0AAA0:  MOVFF  450,FA9
0AAA4:  MOVFF  36E,FA8
0AAA8:  BCF    FA6.6
0AAAA:  BCF    FA6.7
0AAAC:  BSF    FA6.2
0AAAE:  MOVF   FF2,W
0AAB0:  MOVWF  00
0AAB2:  BCF    FF2.6
0AAB4:  BCF    FF2.7
0AAB6:  MOVLB  F
0AAB8:  MOVLW  55
0AABA:  MOVWF  FA7
0AABC:  MOVLW  AA
0AABE:  MOVWF  FA7
0AAC0:  BSF    FA6.1
0AAC2:  BTFSC  FA6.1
0AAC4:  BRA    AAC2
0AAC6:  BCF    FA6.2
0AAC8:  MOVF   00,W
0AACA:  IORWF  FF2,F
....................                delay_ms(10); 
0AACC:  MOVLW  0A
0AACE:  MOVLB  4
0AAD0:  MOVWF  x69
0AAD2:  MOVLB  0
0AAD4:  CALL   1B4A
....................                GuardaEEPROM=ON; 
0AAD8:  BSF    xAB.0
0AADA:  MOVLB  3
....................             } 
....................          } 
....................           
....................          if(UP){ 
0AADC:  BSF    F93.3
0AADE:  BTFSC  F81.3
0AAE0:  BRA    AAF8
....................             delay_ms(100); 
0AAE2:  MOVLW  64
0AAE4:  MOVLB  4
0AAE6:  MOVWF  x69
0AAE8:  MOVLB  0
0AAEA:  CALL   1B4A
....................             if(UP){ 
0AAEE:  BSF    F93.3
0AAF0:  BTFSC  F81.3
0AAF2:  BRA    AAFA
....................                Setpoint++; 
0AAF4:  MOVLB  3
0AAF6:  INCF   x6E,F
0AAF8:  MOVLB  0
....................             } 
....................          } 
....................           
....................          if(DOWN){ 
0AAFA:  BSF    F93.2
0AAFC:  BTFSC  F81.2
0AAFE:  BRA    AB18
....................             delay_ms(100); 
0AB00:  MOVLW  64
0AB02:  MOVLB  4
0AB04:  MOVWF  x69
0AB06:  MOVLB  0
0AB08:  CALL   1B4A
....................             if(DOWN){ 
0AB0C:  BSF    F93.2
0AB0E:  BTFSC  F81.2
0AB10:  BRA    AB18
....................                Setpoint--; 
0AB12:  MOVLB  3
0AB14:  DECF   x6E,F
0AB16:  MOVLB  0
....................             } 
....................          } 
....................           
....................          if(RX_Buffer[4]==0x0d){//Tecla Arriba Oprimida 
0AB18:  MOVF   34,W
0AB1A:  SUBLW  0D
0AB1C:  BNZ   AB28
....................             Setpoint++; 
0AB1E:  MOVLB  3
0AB20:  INCF   x6E,F
....................             RX_Buffer[4]=0x00;   
0AB22:  CLRF   34
....................             RX_Buffer2[4]=0x00;             
0AB24:  CLRF   3F
0AB26:  MOVLB  0
....................             //BorraBuffer(); 
....................          } 
....................           
....................          if(RX_Buffer[4]==0x0c){//Tecla Abajo Oprimida 
0AB28:  MOVF   34,W
0AB2A:  SUBLW  0C
0AB2C:  BNZ   AB38
....................             Setpoint--; 
0AB2E:  MOVLB  3
0AB30:  DECF   x6E,F
....................             RX_Buffer[4]=0x00; 
0AB32:  CLRF   34
....................             RX_Buffer2[4]=0x00;             
0AB34:  CLRF   3F
0AB36:  MOVLB  0
....................             //BorraBuffer(); 
....................          } 
....................           
....................       printf("tsettem.txt=\"%03u\"",Setpoint); 
0AB38:  MOVLW  78
0AB3A:  MOVWF  FF6
0AB3C:  MOVLW  0C
0AB3E:  MOVWF  FF7
0AB40:  MOVLW  00
0AB42:  MOVWF  FF8
0AB44:  MOVLW  0D
0AB46:  MOVLB  4
0AB48:  MOVWF  x56
0AB4A:  MOVLB  0
0AB4C:  CALL   4CA0
0AB50:  MOVFF  36E,456
0AB54:  MOVLW  03
0AB56:  MOVLB  4
0AB58:  MOVWF  x57
0AB5A:  MOVLB  0
0AB5C:  CALL   4CFE
0AB60:  MOVLW  22
0AB62:  BTFSS  F9E.4
0AB64:  BRA    AB62
0AB66:  MOVWF  FAD
....................       SendDataDisplay(); 
0AB68:  CALL   3CD8
0AB6C:  MOVLB  3
....................     } 
.................... //_--------------------------------------------------------------------------------------------------------------------------------------------------------        
....................  
.................... //_--------------------------------------------------------------------------------------------------------------------------------------------------------       
....................    if(Menu==5){//Menu de Nivel 
0AB6E:  MOVF   x68,W
0AB70:  SUBLW  05
0AB72:  BTFSS  FD8.2
0AB74:  BRA    AE42
....................       printf("fecha.txt=\"T:%3.1fC Fecha:%02u/%02u/20%02u Hora: %02u:%02u:%02u\"",Temperatura,Dia,Mes,Year,Hora,Minuto,Segundo); 
0AB76:  MOVLW  8C
0AB78:  MOVWF  FF6
0AB7A:  MOVLW  0C
0AB7C:  MOVWF  FF7
0AB7E:  MOVLW  00
0AB80:  MOVWF  FF8
0AB82:  MOVLW  0D
0AB84:  MOVLB  4
0AB86:  MOVWF  x56
0AB88:  MOVLB  0
0AB8A:  CALL   4CA0
0AB8E:  MOVLW  02
0AB90:  MOVWF  FE9
0AB92:  MOVFF  335,459
0AB96:  MOVFF  334,458
0AB9A:  MOVFF  333,457
0AB9E:  MOVFF  332,456
0ABA2:  MOVLW  01
0ABA4:  MOVLB  4
0ABA6:  MOVWF  x5A
0ABA8:  MOVLB  0
0ABAA:  CALL   4E40
0ABAE:  MOVLW  9E
0ABB0:  MOVWF  FF6
0ABB2:  MOVLW  0C
0ABB4:  MOVWF  FF7
0ABB6:  MOVLW  00
0ABB8:  MOVWF  FF8
0ABBA:  MOVLW  09
0ABBC:  MOVLB  4
0ABBE:  MOVWF  x56
0ABC0:  MOVLB  0
0ABC2:  CALL   4CA0
0ABC6:  MOVFF  3AD,456
0ABCA:  MOVLW  01
0ABCC:  MOVLB  4
0ABCE:  MOVWF  x57
0ABD0:  MOVLB  0
0ABD2:  CALL   4CFE
0ABD6:  MOVLW  2F
0ABD8:  BTFSS  F9E.4
0ABDA:  BRA    ABD8
0ABDC:  MOVWF  FAD
0ABDE:  MOVFF  3AC,456
0ABE2:  MOVLW  01
0ABE4:  MOVLB  4
0ABE6:  MOVWF  x57
0ABE8:  MOVLB  0
0ABEA:  CALL   4CFE
0ABEE:  MOVLW  2F
0ABF0:  BTFSS  F9E.4
0ABF2:  BRA    ABF0
0ABF4:  MOVWF  FAD
0ABF6:  MOVLW  32
0ABF8:  BTFSS  F9E.4
0ABFA:  BRA    ABF8
0ABFC:  MOVWF  FAD
0ABFE:  MOVLW  30
0AC00:  BTFSS  F9E.4
0AC02:  BRA    AC00
0AC04:  MOVWF  FAD
0AC06:  MOVFF  3AB,456
0AC0A:  MOVLW  01
0AC0C:  MOVLB  4
0AC0E:  MOVWF  x57
0AC10:  MOVLB  0
0AC12:  CALL   4CFE
0AC16:  MOVLW  B7
0AC18:  MOVWF  FF6
0AC1A:  MOVLW  0C
0AC1C:  MOVWF  FF7
0AC1E:  MOVLW  00
0AC20:  MOVWF  FF8
0AC22:  MOVLW  07
0AC24:  MOVLB  4
0AC26:  MOVWF  x56
0AC28:  MOVLB  0
0AC2A:  CALL   4CA0
0AC2E:  MOVFF  3AE,456
0AC32:  MOVLW  01
0AC34:  MOVLB  4
0AC36:  MOVWF  x57
0AC38:  MOVLB  0
0AC3A:  CALL   4CFE
0AC3E:  MOVLW  3A
0AC40:  BTFSS  F9E.4
0AC42:  BRA    AC40
0AC44:  MOVWF  FAD
0AC46:  MOVFF  3AF,456
0AC4A:  MOVLW  01
0AC4C:  MOVLB  4
0AC4E:  MOVWF  x57
0AC50:  MOVLB  0
0AC52:  CALL   4CFE
0AC56:  MOVLW  3A
0AC58:  BTFSS  F9E.4
0AC5A:  BRA    AC58
0AC5C:  MOVWF  FAD
0AC5E:  MOVFF  3B0,456
0AC62:  MOVLW  01
0AC64:  MOVLB  4
0AC66:  MOVWF  x57
0AC68:  MOVLB  0
0AC6A:  CALL   4CFE
0AC6E:  MOVLW  22
0AC70:  BTFSS  F9E.4
0AC72:  BRA    AC70
0AC74:  MOVWF  FAD
....................       SendDataDisplay(); 
0AC76:  CALL   3CD8
....................          if(Nivel<1) 
0AC7A:  MOVLB  3
0AC7C:  MOVF   x7C,F
0AC7E:  BNZ   AC8A
0AC80:  MOVF   x7D,F
0AC82:  BNZ   AC8A
....................             Nivel=6; 
0AC84:  CLRF   x7D
0AC86:  MOVLW  06
0AC88:  MOVWF  x7C
....................          if(Nivel>6) 
0AC8A:  MOVF   x7D,F
0AC8C:  BNZ   AC94
0AC8E:  MOVF   x7C,W
0AC90:  SUBLW  06
0AC92:  BC    AC9A
....................             Nivel=1; 
0AC94:  CLRF   x7D
0AC96:  MOVLW  01
0AC98:  MOVWF  x7C
....................           
....................          if(RX_Buffer[4]==0x11 || LEFT){//Selecciono Regresar 
0AC9A:  MOVF   34,W
0AC9C:  SUBLW  11
0AC9E:  BZ    ACA6
0ACA0:  BSF    F93.0
0ACA2:  BTFSC  F81.0
0ACA4:  BRA    AD9C
....................             Segundos=OFF; 
0ACA6:  MOVLB  0
0ACA8:  BCF    xAA.7
....................             Minutos=OFF;             
0ACAA:  BCF    xAA.6
....................             tiempo_secado=0; 
0ACAC:  MOVLB  3
0ACAE:  CLRF   x72
....................              
....................             if(!GuardaEEPROM){     
0ACB0:  MOVLB  0
0ACB2:  BTFSC  xAB.0
0ACB4:  BRA    AD4E
....................                CiclosPersonalizados[CicloLibre-1].NivelDesfogue=Nivel; 
0ACB6:  MOVLW  01
0ACB8:  MOVLB  3
0ACBA:  SUBWF  x48,W
0ACBC:  MULLW  0A
0ACBE:  MOVF   FF3,W
0ACC0:  MOVLB  4
0ACC2:  CLRF   x51
0ACC4:  MOVWF  x50
0ACC6:  MOVLW  08
0ACC8:  ADDWF  x50,W
0ACCA:  MOVWF  01
0ACCC:  MOVLW  00
0ACCE:  ADDWFC x51,W
0ACD0:  MOVWF  03
0ACD2:  MOVF   01,W
0ACD4:  ADDLW  28
0ACD6:  MOVWF  FE9
0ACD8:  MOVLW  04
0ACDA:  ADDWFC 03,W
0ACDC:  MOVWF  FEA
0ACDE:  MOVFF  37C,FEF
....................                write_eeprom(107+((CicloLibre-1)*8),Nivel); 
0ACE2:  MOVLW  01
0ACE4:  MOVLB  3
0ACE6:  SUBWF  x48,W
0ACE8:  MULLW  08
0ACEA:  MOVF   FF3,W
0ACEC:  ADDLW  6B
0ACEE:  MOVLB  4
0ACF0:  MOVWF  x50
0ACF2:  CLRF   FAA
0ACF4:  MOVFF  450,FA9
0ACF8:  MOVFF  37C,FA8
0ACFC:  BCF    FA6.6
0ACFE:  BCF    FA6.7
0AD00:  BSF    FA6.2
0AD02:  MOVF   FF2,W
0AD04:  MOVWF  00
0AD06:  BCF    FF2.6
0AD08:  BCF    FF2.7
0AD0A:  MOVLB  F
0AD0C:  MOVLW  55
0AD0E:  MOVWF  FA7
0AD10:  MOVLW  AA
0AD12:  MOVWF  FA7
0AD14:  BSF    FA6.1
0AD16:  BTFSC  FA6.1
0AD18:  BRA    AD16
0AD1A:  BCF    FA6.2
0AD1C:  MOVF   00,W
0AD1E:  IORWF  FF2,F
....................                delay_ms(20);             
0AD20:  MOVLW  14
0AD22:  MOVLB  4
0AD24:  MOVWF  x69
0AD26:  MOVLB  0
0AD28:  CALL   1B4A
....................                NivelSeleccionado=4995*Nivel; 
0AD2C:  MOVLW  13
0AD2E:  MOVLB  4
0AD30:  MOVWF  x6C
0AD32:  MOVLW  83
0AD34:  MOVWF  x6B
0AD36:  MOVFF  37D,46E
0AD3A:  MOVFF  37C,46D
0AD3E:  MOVLB  0
0AD40:  CALL   1F7E
0AD44:  MOVFF  02,387
0AD48:  MOVFF  01,386
....................                GuardaEEPROM=ON; 
0AD4C:  BSF    xAB.0
....................             } 
....................              
....................             if(Nivel<6) 
0AD4E:  MOVLB  3
0AD50:  MOVF   x7D,F
0AD52:  BNZ   AD5E
0AD54:  MOVF   x7C,W
0AD56:  SUBLW  05
0AD58:  BNC   AD5E
....................                desfoguelento=1; 
0AD5A:  BSF    x5D.0
....................             else             
0AD5C:  BRA    AD60
....................                desfoguelento=0; 
0AD5E:  BCF    x5D.0
....................  
....................             if(MenuAnt==1){ 
0AD60:  DECFSZ x69,W
0AD62:  BRA    AD7E
....................                //Buzzer_on; 
....................                printf("page CicloPersona"); 
0AD64:  MOVLW  CE
0AD66:  MOVWF  FF6
0AD68:  MOVLW  0C
0AD6A:  MOVWF  FF7
0AD6C:  MOVLW  00
0AD6E:  MOVWF  FF8
0AD70:  MOVLB  0
0AD72:  CALL   3CA6
....................                SendDataDisplay();  
0AD76:  CALL   3CD8
....................                //PantallaPrincipal=1; 
....................             }else if(MenuAnt==2){ 
0AD7A:  BRA    AD9A
0AD7C:  MOVLB  3
0AD7E:  MOVF   x69,W
0AD80:  SUBLW  02
0AD82:  BNZ   AD9C
....................                printf("page Funcionamiento"); 
0AD84:  MOVLW  E0
0AD86:  MOVWF  FF6
0AD88:  MOVLW  0C
0AD8A:  MOVWF  FF7
0AD8C:  MOVLW  00
0AD8E:  MOVWF  FF8
0AD90:  MOVLB  0
0AD92:  CALL   3CA6
....................                SendDataDisplay();  
0AD96:  CALL   3CD8
0AD9A:  MOVLB  3
....................                //if(Temperatura>60)TTrampa=TTrampa+5; 
....................             } 
....................          } 
....................           
....................          if(UP){ 
0AD9C:  BSF    F93.3
0AD9E:  BTFSC  F81.3
0ADA0:  BRA    ADBC
....................             delay_ms(100); 
0ADA2:  MOVLW  64
0ADA4:  MOVLB  4
0ADA6:  MOVWF  x69
0ADA8:  MOVLB  0
0ADAA:  CALL   1B4A
....................             if(UP){ 
0ADAE:  BSF    F93.3
0ADB0:  BTFSC  F81.3
0ADB2:  BRA    ADBE
....................                Nivel++; 
0ADB4:  MOVLB  3
0ADB6:  INCF   x7C,F
0ADB8:  BTFSC  FD8.2
0ADBA:  INCF   x7D,F
0ADBC:  MOVLB  0
....................             } 
....................          } 
....................           
....................          if(DOWN){ 
0ADBE:  BSF    F93.2
0ADC0:  BTFSC  F81.2
0ADC2:  BRA    ADE2
....................             delay_ms(100); 
0ADC4:  MOVLW  64
0ADC6:  MOVLB  4
0ADC8:  MOVWF  x69
0ADCA:  MOVLB  0
0ADCC:  CALL   1B4A
....................             if(DOWN){ 
0ADD0:  BSF    F93.2
0ADD2:  BTFSC  F81.2
0ADD4:  BRA    ADE2
....................                Nivel--; 
0ADD6:  MOVLB  3
0ADD8:  MOVF   x7C,W
0ADDA:  BTFSC  FD8.2
0ADDC:  DECF   x7D,F
0ADDE:  DECF   x7C,F
0ADE0:  MOVLB  0
....................             } 
....................          } 
....................           
....................          if(RX_Buffer[4]==0x0d){//Tecla Arriba Oprimida 
0ADE2:  MOVF   34,W
0ADE4:  SUBLW  0D
0ADE6:  BNZ   ADF6
....................             Nivel++; 
0ADE8:  MOVLB  3
0ADEA:  INCF   x7C,F
0ADEC:  BTFSC  FD8.2
0ADEE:  INCF   x7D,F
....................             RX_Buffer[4]=0x00;             
0ADF0:  CLRF   34
....................             RX_Buffer2[4]=0x00;             
0ADF2:  CLRF   3F
0ADF4:  MOVLB  0
....................             //BorraBuffer(); 
....................          } 
....................           
....................          if(RX_Buffer[4]==0x0c){//Tecla Abajo Oprimida 
0ADF6:  MOVF   34,W
0ADF8:  SUBLW  0C
0ADFA:  BNZ   AE0C
....................             Nivel--; 
0ADFC:  MOVLB  3
0ADFE:  MOVF   x7C,W
0AE00:  BTFSC  FD8.2
0AE02:  DECF   x7D,F
0AE04:  DECF   x7C,F
....................             RX_Buffer[4]=0x00; 
0AE06:  CLRF   34
....................             RX_Buffer2[4]=0x00;             
0AE08:  CLRF   3F
0AE0A:  MOVLB  0
....................             //BorraBuffer(); 
....................          } 
....................           
....................       printf("tnivel.txt=\"%Lu\"",Nivel); 
0AE0C:  MOVLW  F4
0AE0E:  MOVWF  FF6
0AE10:  MOVLW  0C
0AE12:  MOVWF  FF7
0AE14:  MOVLW  00
0AE16:  MOVWF  FF8
0AE18:  MOVLW  0C
0AE1A:  MOVLB  4
0AE1C:  MOVWF  x56
0AE1E:  MOVLB  0
0AE20:  CALL   4CA0
0AE24:  MOVLW  10
0AE26:  MOVWF  FE9
0AE28:  MOVFF  37D,457
0AE2C:  MOVFF  37C,456
0AE30:  CALL   573A
0AE34:  MOVLW  22
0AE36:  BTFSS  F9E.4
0AE38:  BRA    AE36
0AE3A:  MOVWF  FAD
....................       SendDataDisplay(); 
0AE3C:  CALL   3CD8
0AE40:  MOVLB  3
....................    } 
.................... //_--------------------------------------------------------------------------------------------------------------------------------------------------------       
....................  
.................... //_--------------------------------------------------------------------------------------------------------------------------------------------------------       
....................       if(Menu==6){ // Menu de Prueba de Componentes 
0AE42:  MOVF   x68,W
0AE44:  SUBLW  06
0AE46:  BTFSS  FD8.2
0AE48:  BRA    B5C0
....................          PruebaEstados=ON; 
0AE4A:  MOVLB  0
0AE4C:  BSF    xA9.6
....................           
....................          if(RX_Buffer[4]==0x02)//Oprimio EV Desfogue 
0AE4E:  MOVF   34,W
0AE50:  SUBLW  02
0AE52:  BNZ   AE5A
....................          { 
....................             EstadoDesfogue=!EstadoDesfogue; 
0AE54:  BTG    xA9.3
....................             RX_Buffer[4]=0x00; 
0AE56:  CLRF   34
....................             RX_Buffer2[4]=0x00; 
0AE58:  CLRF   3F
....................          } 
....................           
....................          if(EstadoDesfogue){ 
0AE5A:  BTFSS  xA9.3
0AE5C:  BRA    AE78
....................             printf("b1.bco=2016"); 
0AE5E:  MOVLW  06
0AE60:  MOVWF  FF6
0AE62:  MOVLW  0D
0AE64:  MOVWF  FF7
0AE66:  MOVLW  00
0AE68:  MOVWF  FF8
0AE6A:  CALL   3CA6
....................             SendDataDisplay();  
0AE6E:  CALL   3CD8
....................             Desfogue_on; 
0AE72:  BCF    F8B.1
0AE74:  BCF    F94.1
....................          } 
....................          else{ 
0AE76:  BRA    AE90
....................             printf("b1.bco=63488"); 
0AE78:  MOVLW  12
0AE7A:  MOVWF  FF6
0AE7C:  MOVLW  0D
0AE7E:  MOVWF  FF7
0AE80:  MOVLW  00
0AE82:  MOVWF  FF8
0AE84:  CALL   3CA6
....................             SendDataDisplay();  
0AE88:  CALL   3CD8
....................             Desfogue_off; 
0AE8C:  BSF    F8B.1
0AE8E:  BCF    F94.1
....................          } 
....................           
....................          if(RX_Buffer[4]==0x01)//Oprimio EV Agua 
0AE90:  DECFSZ 34,W
0AE92:  BRA    AE9A
....................          { 
....................             EstadoAgua=!EstadoAgua; 
0AE94:  BTG    xA9.4
....................             RX_Buffer[4]=0x00; 
0AE96:  CLRF   34
....................             RX_Buffer2[4]=0x00; 
0AE98:  CLRF   3F
....................          } 
....................           
....................          if(EstadoAgua){ 
0AE9A:  BTFSS  xA9.4
0AE9C:  BRA    AEB8
....................             printf("b0.bco=2016"); 
0AE9E:  MOVLW  20
0AEA0:  MOVWF  FF6
0AEA2:  MOVLW  0D
0AEA4:  MOVWF  FF7
0AEA6:  MOVLW  00
0AEA8:  MOVWF  FF8
0AEAA:  CALL   3CA6
....................             SendDataDisplay();  
0AEAE:  CALL   3CD8
....................             Agua_on; 
0AEB2:  BCF    F8B.2
0AEB4:  BCF    F94.2
....................          } 
....................          else{ 
0AEB6:  BRA    AED0
....................             printf("b0.bco=63488"); 
0AEB8:  MOVLW  2C
0AEBA:  MOVWF  FF6
0AEBC:  MOVLW  0D
0AEBE:  MOVWF  FF7
0AEC0:  MOVLW  00
0AEC2:  MOVWF  FF8
0AEC4:  CALL   3CA6
....................             SendDataDisplay();  
0AEC8:  CALL   3CD8
....................             Agua_off; 
0AECC:  BSF    F8B.2
0AECE:  BCF    F94.2
....................          } 
....................           
....................          if(RX_Buffer[4]==0x03)//Oprimio EV Paso 
0AED0:  MOVF   34,W
0AED2:  SUBLW  03
0AED4:  BNZ   AEDC
....................          { 
....................             EstadoPaso=!EstadoPaso; 
0AED6:  BTG    xAB.1
....................             RX_Buffer[4]=0x00; 
0AED8:  CLRF   34
....................             RX_Buffer2[4]=0x00; 
0AEDA:  CLRF   3F
....................          } 
....................           
....................          if(EstadoPaso){ 
0AEDC:  BTFSS  xAB.1
0AEDE:  BRA    AEFA
....................             printf("b2.bco=2016"); 
0AEE0:  MOVLW  3A
0AEE2:  MOVWF  FF6
0AEE4:  MOVLW  0D
0AEE6:  MOVWF  FF7
0AEE8:  MOVLW  00
0AEEA:  MOVWF  FF8
0AEEC:  CALL   3CA6
....................             SendDataDisplay();  
0AEF0:  CALL   3CD8
....................             Bomba_on; 
0AEF4:  BCF    F8B.0
0AEF6:  BCF    F94.0
....................          } 
....................          else{ 
0AEF8:  BRA    AF12
....................             printf("b2.bco=63488"); 
0AEFA:  MOVLW  46
0AEFC:  MOVWF  FF6
0AEFE:  MOVLW  0D
0AF00:  MOVWF  FF7
0AF02:  MOVLW  00
0AF04:  MOVWF  FF8
0AF06:  CALL   3CA6
....................             SendDataDisplay();  
0AF0A:  CALL   3CD8
....................             Bomba_off; 
0AF0E:  BSF    F8B.0
0AF10:  BCF    F94.0
....................          } 
....................          
....................           
....................          if(RX_Buffer[4]==0x05)//Oprimio Bloqueo 
0AF12:  MOVF   34,W
0AF14:  SUBLW  05
0AF16:  BNZ   AF1E
....................          { 
....................             EstadoAire=!EstadoAire; 
0AF18:  BTG    xAA.2
....................             RX_Buffer[4]=0x00; 
0AF1A:  CLRF   34
....................             RX_Buffer2[4]=0x00; 
0AF1C:  CLRF   3F
....................          } 
....................           
....................          if(EstadoAire){ 
0AF1E:  BTFSS  xAA.2
0AF20:  BRA    AF3A
....................             printf("b4.bco=2016"); 
0AF22:  MOVLW  54
0AF24:  MOVWF  FF6
0AF26:  MOVLW  0D
0AF28:  MOVWF  FF7
0AF2A:  MOVLW  00
0AF2C:  MOVWF  FF8
0AF2E:  CALL   3CA6
....................             SendDataDisplay();  
0AF32:  CALL   3CD8
....................             Aire=ON;    
0AF36:  BSF    xAC.3
....................          }else{ 
0AF38:  BRA    AF50
....................             printf("b4.bco=63488"); 
0AF3A:  MOVLW  60
0AF3C:  MOVWF  FF6
0AF3E:  MOVLW  0D
0AF40:  MOVWF  FF7
0AF42:  MOVLW  00
0AF44:  MOVWF  FF8
0AF46:  CALL   3CA6
....................             SendDataDisplay();  
0AF4A:  CALL   3CD8
....................             Aire=OFF; 
0AF4E:  BCF    xAC.3
....................          } 
....................           
....................           
....................          if(RX_Buffer[4]==0x04)//Oprimio SSR1 
0AF50:  MOVF   34,W
0AF52:  SUBLW  04
0AF54:  BNZ   AF5C
....................          { 
....................             EstadoSSR=!EstadoSSR; 
0AF56:  BTG    xA9.5
....................             RX_Buffer[4]=0x00; 
0AF58:  CLRF   34
....................             RX_Buffer2[4]=0x00; 
0AF5A:  CLRF   3F
....................          } 
....................           
....................          if(EstadoSSR){ 
0AF5C:  BTFSS  xA9.5
0AF5E:  BRA    AF7A
....................             printf("b3.bco=2016"); 
0AF60:  MOVLW  6E
0AF62:  MOVWF  FF6
0AF64:  MOVLW  0D
0AF66:  MOVWF  FF7
0AF68:  MOVLW  00
0AF6A:  MOVWF  FF8
0AF6C:  CALL   3CA6
....................             SendDataDisplay();  
0AF70:  CALL   3CD8
....................             SSR_on; 
0AF74:  BSF    F8D.1
0AF76:  BCF    F96.1
....................          } 
....................          else{ 
0AF78:  BRA    AF92
....................             printf("b3.bco=63488"); 
0AF7A:  MOVLW  7A
0AF7C:  MOVWF  FF6
0AF7E:  MOVLW  0D
0AF80:  MOVWF  FF7
0AF82:  MOVLW  00
0AF84:  MOVWF  FF8
0AF86:  CALL   3CA6
....................             SendDataDisplay();  
0AF8A:  CALL   3CD8
....................             SSR_off; 
0AF8E:  BCF    F8D.1
0AF90:  BCF    F96.1
....................          } 
....................           
....................          if(DOOR){ 
0AF92:  BSF    F93.6
0AF94:  BTFSC  F81.6
0AF96:  BRA    AFAE
....................             printf("b8.bco=2016"); 
0AF98:  MOVLW  88
0AF9A:  MOVWF  FF6
0AF9C:  MOVLW  0D
0AF9E:  MOVWF  FF7
0AFA0:  MOVLW  00
0AFA2:  MOVWF  FF8
0AFA4:  CALL   3CA6
....................             SendDataDisplay();  
0AFA8:  CALL   3CD8
....................          }else{ 
0AFAC:  BRA    AFC2
....................             printf("b8.bco=63488"); 
0AFAE:  MOVLW  94
0AFB0:  MOVWF  FF6
0AFB2:  MOVLW  0D
0AFB4:  MOVWF  FF7
0AFB6:  MOVLW  00
0AFB8:  MOVWF  FF8
0AFBA:  CALL   3CA6
....................             SendDataDisplay();  
0AFBE:  CALL   3CD8
....................          } 
....................           
....................          if(TERM){ 
0AFC2:  BSF    F93.4
0AFC4:  BTFSC  F81.4
0AFC6:  BRA    AFDE
....................             printf("b9.bco=2016"); 
0AFC8:  MOVLW  A2
0AFCA:  MOVWF  FF6
0AFCC:  MOVLW  0D
0AFCE:  MOVWF  FF7
0AFD0:  MOVLW  00
0AFD2:  MOVWF  FF8
0AFD4:  CALL   3CA6
....................             SendDataDisplay();  
0AFD8:  CALL   3CD8
....................          }else{ 
0AFDC:  BRA    AFF2
....................             printf("b9.bco=63488"); 
0AFDE:  MOVLW  AE
0AFE0:  MOVWF  FF6
0AFE2:  MOVLW  0D
0AFE4:  MOVWF  FF7
0AFE6:  MOVLW  00
0AFE8:  MOVWF  FF8
0AFEA:  CALL   3CA6
....................             SendDataDisplay();  
0AFEE:  CALL   3CD8
....................          } 
....................           
....................          if(STOP){ 
0AFF2:  BSF    F93.5
0AFF4:  BTFSC  F81.5
0AFF6:  BRA    B00E
....................             printf("b10.bco=2016"); 
0AFF8:  MOVLW  BC
0AFFA:  MOVWF  FF6
0AFFC:  MOVLW  0D
0AFFE:  MOVWF  FF7
0B000:  MOVLW  00
0B002:  MOVWF  FF8
0B004:  CALL   3CA6
....................             SendDataDisplay();  
0B008:  CALL   3CD8
....................          }else{ 
0B00C:  BRA    B022
....................             printf("b10.bco=63488"); 
0B00E:  MOVLW  CA
0B010:  MOVWF  FF6
0B012:  MOVLW  0D
0B014:  MOVWF  FF7
0B016:  MOVLW  00
0B018:  MOVWF  FF8
0B01A:  CALL   3CA6
....................             SendDataDisplay();  
0B01E:  CALL   3CD8
....................          } 
....................           
....................          if(DOORL){ 
0B022:  BSF    F93.7
0B024:  BTFSC  F81.7
0B026:  BRA    B03E
....................             printf("b11.bco=2016"); 
0B028:  MOVLW  D8
0B02A:  MOVWF  FF6
0B02C:  MOVLW  0D
0B02E:  MOVWF  FF7
0B030:  MOVLW  00
0B032:  MOVWF  FF8
0B034:  CALL   3CA6
....................             SendDataDisplay();  
0B038:  CALL   3CD8
....................          }else{ 
0B03C:  BRA    B052
....................             printf("b11.bco=63488"); 
0B03E:  MOVLW  E6
0B040:  MOVWF  FF6
0B042:  MOVLW  0D
0B044:  MOVWF  FF7
0B046:  MOVLW  00
0B048:  MOVWF  FF8
0B04A:  CALL   3CA6
....................             SendDataDisplay();  
0B04E:  CALL   3CD8
....................          } 
....................           
....................          if(RX_Buffer[4]==0x13)//Oprimio Buzzer 
0B052:  MOVF   34,W
0B054:  SUBLW  13
0B056:  BNZ   B05E
....................          { 
....................             EstadoBuzzer=!EstadoBuzzer; 
0B058:  BTG    xAB.2
....................             RX_Buffer[4]=0x00; 
0B05A:  CLRF   34
....................             RX_Buffer2[4]=0x00; 
0B05C:  CLRF   3F
....................          } 
....................           
....................          if(EstadoBuzzer){ 
0B05E:  BTFSS  xAB.2
0B060:  BRA    B07C
....................             printf("b12.bco=2016"); 
0B062:  MOVLW  F4
0B064:  MOVWF  FF6
0B066:  MOVLW  0D
0B068:  MOVWF  FF7
0B06A:  MOVLW  00
0B06C:  MOVWF  FF8
0B06E:  CALL   3CA6
....................             SendDataDisplay();  
0B072:  CALL   3CD8
....................             Buzzer_on; 
0B076:  BSF    F8C.7
0B078:  BCF    F95.7
....................          } 
....................          else{ 
0B07A:  BRA    B094
....................             printf("b12.bco=63488"); 
0B07C:  MOVLW  02
0B07E:  MOVWF  FF6
0B080:  MOVLW  0E
0B082:  MOVWF  FF7
0B084:  MOVLW  00
0B086:  MOVWF  FF8
0B088:  CALL   3CA6
....................             SendDataDisplay();  
0B08C:  CALL   3CD8
....................             Buzzer_off; 
0B090:  BCF    F8C.7
0B092:  BCF    F95.7
....................          } 
....................           
....................          if(HIG){ 
0B094:  BTFSS  xA9.2
0B096:  BRA    B0AE
....................             printf("b16.bco=2016"); 
0B098:  MOVLW  10
0B09A:  MOVWF  FF6
0B09C:  MOVLW  0E
0B09E:  MOVWF  FF7
0B0A0:  MOVLW  00
0B0A2:  MOVWF  FF8
0B0A4:  CALL   3CA6
....................             SendDataDisplay();  
0B0A8:  CALL   3CD8
....................          }else{ 
0B0AC:  BRA    B0C2
....................             printf("b16.bco=63488"); 
0B0AE:  MOVLW  1E
0B0B0:  MOVWF  FF6
0B0B2:  MOVLW  0E
0B0B4:  MOVWF  FF7
0B0B6:  MOVLW  00
0B0B8:  MOVWF  FF8
0B0BA:  CALL   3CA6
....................             SendDataDisplay();  
0B0BE:  CALL   3CD8
....................          } 
....................           
....................          if(LOW){ 
0B0C2:  BTFSS  xA9.1
0B0C4:  BRA    B0DC
....................             printf("b17.bco=2016"); 
0B0C6:  MOVLW  2C
0B0C8:  MOVWF  FF6
0B0CA:  MOVLW  0E
0B0CC:  MOVWF  FF7
0B0CE:  MOVLW  00
0B0D0:  MOVWF  FF8
0B0D2:  CALL   3CA6
....................             SendDataDisplay();  
0B0D6:  CALL   3CD8
....................          }else{ 
0B0DA:  BRA    B0F0
....................             printf("b17.bco=63488"); 
0B0DC:  MOVLW  3A
0B0DE:  MOVWF  FF6
0B0E0:  MOVLW  0E
0B0E2:  MOVWF  FF7
0B0E4:  MOVLW  00
0B0E6:  MOVWF  FF8
0B0E8:  CALL   3CA6
....................             SendDataDisplay();  
0B0EC:  CALL   3CD8
....................          } 
....................           
....................          printf("b13.txt=\"ADC0:%3.0f\"",sensores(0));          
0B0F0:  MOVLB  4
0B0F2:  CLRF   x59
0B0F4:  MOVLB  0
0B0F6:  CALL   3D2C
0B0FA:  MOVFF  00,450
0B0FE:  MOVFF  01,451
0B102:  MOVFF  02,452
0B106:  MOVFF  03,453
0B10A:  MOVLW  48
0B10C:  MOVWF  FF6
0B10E:  MOVLW  0E
0B110:  MOVWF  FF7
0B112:  MOVLW  00
0B114:  MOVWF  FF8
0B116:  MOVLW  0E
0B118:  MOVLB  4
0B11A:  MOVWF  x56
0B11C:  MOVLB  0
0B11E:  CALL   4CA0
0B122:  MOVLW  02
0B124:  MOVWF  FE9
0B126:  MOVFF  453,459
0B12A:  MOVFF  452,458
0B12E:  MOVFF  451,457
0B132:  MOVFF  450,456
0B136:  MOVLB  4
0B138:  CLRF   x5A
0B13A:  MOVLB  0
0B13C:  CALL   4E40
0B140:  MOVLW  22
0B142:  BTFSS  F9E.4
0B144:  BRA    B142
0B146:  MOVWF  FAD
....................          SendDataDisplay(); 
0B148:  CALL   3CD8
....................          printf("b14.txt=\"ADC1:%3.0f\"",sensores(1));          
0B14C:  MOVLW  01
0B14E:  MOVLB  4
0B150:  MOVWF  x59
0B152:  MOVLB  0
0B154:  CALL   3D2C
0B158:  MOVFF  00,450
0B15C:  MOVFF  01,451
0B160:  MOVFF  02,452
0B164:  MOVFF  03,453
0B168:  MOVLW  5E
0B16A:  MOVWF  FF6
0B16C:  MOVLW  0E
0B16E:  MOVWF  FF7
0B170:  MOVLW  00
0B172:  MOVWF  FF8
0B174:  MOVLW  0E
0B176:  MOVLB  4
0B178:  MOVWF  x56
0B17A:  MOVLB  0
0B17C:  CALL   4CA0
0B180:  MOVLW  02
0B182:  MOVWF  FE9
0B184:  MOVFF  453,459
0B188:  MOVFF  452,458
0B18C:  MOVFF  451,457
0B190:  MOVFF  450,456
0B194:  MOVLB  4
0B196:  CLRF   x5A
0B198:  MOVLB  0
0B19A:  CALL   4E40
0B19E:  MOVLW  22
0B1A0:  BTFSS  F9E.4
0B1A2:  BRA    B1A0
0B1A4:  MOVWF  FAD
....................          SendDataDisplay(); 
0B1A6:  CALL   3CD8
....................          printf("b15.txt=\"A5:%3.0f %03Lu\"",sensores(5),PresionCamara); 
0B1AA:  MOVLW  05
0B1AC:  MOVLB  4
0B1AE:  MOVWF  x59
0B1B0:  MOVLB  0
0B1B2:  CALL   3D2C
0B1B6:  MOVFF  00,450
0B1BA:  MOVFF  01,451
0B1BE:  MOVFF  02,452
0B1C2:  MOVFF  03,453
0B1C6:  MOVLW  74
0B1C8:  MOVWF  FF6
0B1CA:  MOVLW  0E
0B1CC:  MOVWF  FF7
0B1CE:  MOVLW  00
0B1D0:  MOVWF  FF8
0B1D2:  MOVLW  0C
0B1D4:  MOVLB  4
0B1D6:  MOVWF  x56
0B1D8:  MOVLB  0
0B1DA:  CALL   4CA0
0B1DE:  MOVLW  02
0B1E0:  MOVWF  FE9
0B1E2:  MOVFF  453,459
0B1E6:  MOVFF  452,458
0B1EA:  MOVFF  451,457
0B1EE:  MOVFF  450,456
0B1F2:  MOVLB  4
0B1F4:  CLRF   x5A
0B1F6:  MOVLB  0
0B1F8:  CALL   4E40
0B1FC:  MOVLW  20
0B1FE:  BTFSS  F9E.4
0B200:  BRA    B1FE
0B202:  MOVWF  FAD
0B204:  MOVLW  0A
0B206:  MOVWF  FE9
0B208:  MOVFF  381,457
0B20C:  MOVFF  380,456
0B210:  CALL   573A
0B214:  MOVLW  22
0B216:  BTFSS  F9E.4
0B218:  BRA    B216
0B21A:  MOVWF  FAD
....................          SendDataDisplay(); 
0B21C:  CALL   3CD8
....................          printf("b18.txt=\"A4:%3.0f %03Lu\"",sensores(4),PresionPreCamara); 
0B220:  MOVLW  04
0B222:  MOVLB  4
0B224:  MOVWF  x59
0B226:  MOVLB  0
0B228:  CALL   3D2C
0B22C:  MOVFF  00,450
0B230:  MOVFF  01,451
0B234:  MOVFF  02,452
0B238:  MOVFF  03,453
0B23C:  MOVLW  8E
0B23E:  MOVWF  FF6
0B240:  MOVLW  0E
0B242:  MOVWF  FF7
0B244:  MOVLW  00
0B246:  MOVWF  FF8
0B248:  MOVLW  0C
0B24A:  MOVLB  4
0B24C:  MOVWF  x56
0B24E:  MOVLB  0
0B250:  CALL   4CA0
0B254:  MOVLW  02
0B256:  MOVWF  FE9
0B258:  MOVFF  453,459
0B25C:  MOVFF  452,458
0B260:  MOVFF  451,457
0B264:  MOVFF  450,456
0B268:  MOVLB  4
0B26A:  CLRF   x5A
0B26C:  MOVLB  0
0B26E:  CALL   4E40
0B272:  MOVLW  20
0B274:  BTFSS  F9E.4
0B276:  BRA    B274
0B278:  MOVWF  FAD
0B27A:  MOVLW  0A
0B27C:  MOVWF  FE9
0B27E:  MOVFF  383,457
0B282:  MOVFF  382,456
0B286:  CALL   573A
0B28A:  MOVLW  22
0B28C:  BTFSS  F9E.4
0B28E:  BRA    B28C
0B290:  MOVWF  FAD
....................          SendDataDisplay(); 
0B292:  CALL   3CD8
....................          printf("b20.txt=\"T1:%3.1f\"",Temperatura); 
0B296:  MOVLW  A8
0B298:  MOVWF  FF6
0B29A:  MOVLW  0E
0B29C:  MOVWF  FF7
0B29E:  MOVLW  00
0B2A0:  MOVWF  FF8
0B2A2:  MOVLW  0C
0B2A4:  MOVLB  4
0B2A6:  MOVWF  x56
0B2A8:  MOVLB  0
0B2AA:  CALL   4CA0
0B2AE:  MOVLW  02
0B2B0:  MOVWF  FE9
0B2B2:  MOVFF  335,459
0B2B6:  MOVFF  334,458
0B2BA:  MOVFF  333,457
0B2BE:  MOVFF  332,456
0B2C2:  MOVLW  01
0B2C4:  MOVLB  4
0B2C6:  MOVWF  x5A
0B2C8:  MOVLB  0
0B2CA:  CALL   4E40
0B2CE:  MOVLW  22
0B2D0:  BTFSS  F9E.4
0B2D2:  BRA    B2D0
0B2D4:  MOVWF  FAD
....................          SendDataDisplay(); 
0B2D6:  CALL   3CD8
....................           
....................          if(RX_Buffer[4]==0x21 || LEFT){//Oprimio salir 
0B2DA:  MOVF   34,W
0B2DC:  SUBLW  21
0B2DE:  BZ    B2E6
0B2E0:  BSF    F93.0
0B2E2:  BTFSC  F81.0
0B2E4:  BRA    B32E
....................             delay_ms(100); 
0B2E6:  MOVLW  64
0B2E8:  MOVLB  4
0B2EA:  MOVWF  x69
0B2EC:  MOVLB  0
0B2EE:  CALL   1B4A
....................             if(RX_Buffer[4]==0x21 || LEFT){ 
0B2F2:  MOVF   34,W
0B2F4:  SUBLW  21
0B2F6:  BZ    B2FE
0B2F8:  BSF    F93.0
0B2FA:  BTFSC  F81.0
0B2FC:  BRA    B32E
....................                printf("page MenuPrincipal"); 
0B2FE:  MOVLW  BC
0B300:  MOVWF  FF6
0B302:  MOVLW  0E
0B304:  MOVWF  FF7
0B306:  MOVLW  00
0B308:  MOVWF  FF8
0B30A:  CALL   3CA6
....................                SendDataDisplay(); 
0B30E:  CALL   3CD8
....................                PantallaPrincipal=0; 
0B312:  MOVLB  2
0B314:  CLRF   xE5
....................                PruebaEstados=OFF;Desfogue_off;Agua_off;Bomba_off;SSR_off; 
0B316:  MOVLB  0
0B318:  BCF    xA9.6
0B31A:  BSF    F8B.1
0B31C:  BCF    F94.1
0B31E:  BSF    F8B.2
0B320:  BCF    F94.2
0B322:  BSF    F8B.0
0B324:  BCF    F94.0
0B326:  BCF    F8D.1
0B328:  BCF    F96.1
....................                ApagaSalidas(); 
0B32A:  CALL   3D0E
....................                // Falta apagar Todo 
....................             } 
....................          } 
....................           
....................          if(UP){ 
0B32E:  BSF    F93.3
0B330:  BTFSC  F81.3
0B332:  BRA    B476
....................             delay_ms(100); 
0B334:  MOVLW  64
0B336:  MOVLB  4
0B338:  MOVWF  x69
0B33A:  MOVLB  0
0B33C:  CALL   1B4A
....................             if(UP){ 
0B340:  BSF    F93.3
0B342:  BTFSC  F81.3
0B344:  BRA    B476
....................                G1=41-sensores(2); 
0B346:  MOVLW  02
0B348:  MOVLB  4
0B34A:  MOVWF  x59
0B34C:  MOVLB  0
0B34E:  CALL   3D2C
0B352:  MOVFF  FEA,451
0B356:  MOVFF  FE9,450
0B35A:  BSF    FD8.1
0B35C:  MOVLB  4
0B35E:  CLRF   x68
0B360:  CLRF   x67
0B362:  MOVLW  24
0B364:  MOVWF  x66
0B366:  MOVLW  84
0B368:  MOVWF  x65
0B36A:  MOVFF  03,46C
0B36E:  MOVFF  02,46B
0B372:  MOVFF  01,46A
0B376:  MOVFF  00,469
0B37A:  MOVLB  0
0B37C:  CALL   1D06
0B380:  MOVFF  451,FEA
0B384:  MOVFF  450,FE9
0B388:  MOVFF  03,468
0B38C:  MOVFF  02,467
0B390:  MOVFF  01,466
0B394:  MOVFF  00,465
0B398:  CALL   44C0
0B39C:  MOVFF  01,3C0
....................                if(G1<0) 
0B3A0:  MOVLB  3
0B3A2:  BTFSC  xC0.7
0B3A4:  BRA    B3A8
0B3A6:  BRA    B3AE
....................                   sg1=10; 
0B3A8:  MOVLW  0A
0B3AA:  MOVWF  xC2
....................                else 
0B3AC:  BRA    B3B2
....................                   sg1=5; 
0B3AE:  MOVLW  05
0B3B0:  MOVWF  xC2
....................                    
....................                write_eeprom(42,(int8)G1); 
0B3B2:  CLRF   FAA
0B3B4:  MOVLW  2A
0B3B6:  MOVWF  FA9
0B3B8:  MOVFF  3C0,FA8
0B3BC:  BCF    FA6.6
0B3BE:  BCF    FA6.7
0B3C0:  BSF    FA6.2
0B3C2:  MOVF   FF2,W
0B3C4:  MOVWF  00
0B3C6:  BCF    FF2.6
0B3C8:  BCF    FF2.7
0B3CA:  MOVLB  F
0B3CC:  MOVLW  55
0B3CE:  MOVWF  FA7
0B3D0:  MOVLW  AA
0B3D2:  MOVWF  FA7
0B3D4:  BSF    FA6.1
0B3D6:  BTFSC  FA6.1
0B3D8:  BRA    B3D6
0B3DA:  BCF    FA6.2
0B3DC:  MOVF   00,W
0B3DE:  IORWF  FF2,F
....................                delay_ms(10); 
0B3E0:  MOVLW  0A
0B3E2:  MOVLB  4
0B3E4:  MOVWF  x69
0B3E6:  MOVLB  0
0B3E8:  CALL   1B4A
....................                write_eeprom(44,(int8)sg1); 
0B3EC:  CLRF   FAA
0B3EE:  MOVLW  2C
0B3F0:  MOVWF  FA9
0B3F2:  MOVFF  3C2,FA8
0B3F6:  BCF    FA6.6
0B3F8:  BCF    FA6.7
0B3FA:  BSF    FA6.2
0B3FC:  MOVF   FF2,W
0B3FE:  MOVWF  00
0B400:  BCF    FF2.6
0B402:  BCF    FF2.7
0B404:  MOVLB  F
0B406:  MOVLW  55
0B408:  MOVWF  FA7
0B40A:  MOVLW  AA
0B40C:  MOVWF  FA7
0B40E:  BSF    FA6.1
0B410:  BTFSC  FA6.1
0B412:  BRA    B410
0B414:  BCF    FA6.2
0B416:  MOVF   00,W
0B418:  IORWF  FF2,F
....................                delay_ms(10); 
0B41A:  MOVLW  0A
0B41C:  MOVLB  4
0B41E:  MOVWF  x69
0B420:  MOVLB  0
0B422:  CALL   1B4A
....................                Buzzer_on; 
0B426:  BSF    F8C.7
0B428:  BCF    F95.7
....................                delay_ms(1000); 
0B42A:  MOVLW  04
0B42C:  MOVLB  4
0B42E:  MOVWF  x50
0B430:  MOVLW  FA
0B432:  MOVWF  x69
0B434:  MOVLB  0
0B436:  CALL   1B4A
0B43A:  MOVLB  4
0B43C:  DECFSZ x50,F
0B43E:  BRA    B430
....................                Buzzer_off; 
0B440:  BCF    F8C.7
0B442:  BCF    F95.7
....................                delay_ms(1000); 
0B444:  MOVLW  04
0B446:  MOVWF  x50
0B448:  MOVLW  FA
0B44A:  MOVWF  x69
0B44C:  MOVLB  0
0B44E:  CALL   1B4A
0B452:  MOVLB  4
0B454:  DECFSZ x50,F
0B456:  BRA    B448
....................                Buzzer_on; 
0B458:  BSF    F8C.7
0B45A:  BCF    F95.7
....................                delay_ms(1000); 
0B45C:  MOVLW  04
0B45E:  MOVWF  x50
0B460:  MOVLW  FA
0B462:  MOVWF  x69
0B464:  MOVLB  0
0B466:  CALL   1B4A
0B46A:  MOVLB  4
0B46C:  DECFSZ x50,F
0B46E:  BRA    B460
....................                Buzzer_off; 
0B470:  BCF    F8C.7
0B472:  BCF    F95.7
0B474:  MOVLB  0
....................             } 
....................          } 
....................           
....................          if(DOWN){ 
0B476:  BSF    F93.2
0B478:  BTFSC  F81.2
0B47A:  BRA    B5BE
....................             delay_ms(100); 
0B47C:  MOVLW  64
0B47E:  MOVLB  4
0B480:  MOVWF  x69
0B482:  MOVLB  0
0B484:  CALL   1B4A
....................             if(DOWN){ 
0B488:  BSF    F93.2
0B48A:  BTFSC  F81.2
0B48C:  BRA    B5BE
....................                G2=41-sensores(3); 
0B48E:  MOVLW  03
0B490:  MOVLB  4
0B492:  MOVWF  x59
0B494:  MOVLB  0
0B496:  CALL   3D2C
0B49A:  MOVFF  FEA,451
0B49E:  MOVFF  FE9,450
0B4A2:  BSF    FD8.1
0B4A4:  MOVLB  4
0B4A6:  CLRF   x68
0B4A8:  CLRF   x67
0B4AA:  MOVLW  24
0B4AC:  MOVWF  x66
0B4AE:  MOVLW  84
0B4B0:  MOVWF  x65
0B4B2:  MOVFF  03,46C
0B4B6:  MOVFF  02,46B
0B4BA:  MOVFF  01,46A
0B4BE:  MOVFF  00,469
0B4C2:  MOVLB  0
0B4C4:  CALL   1D06
0B4C8:  MOVFF  451,FEA
0B4CC:  MOVFF  450,FE9
0B4D0:  MOVFF  03,468
0B4D4:  MOVFF  02,467
0B4D8:  MOVFF  01,466
0B4DC:  MOVFF  00,465
0B4E0:  CALL   44C0
0B4E4:  MOVFF  01,3C1
....................                if(G2<0) 
0B4E8:  MOVLB  3
0B4EA:  BTFSC  xC1.7
0B4EC:  BRA    B4F0
0B4EE:  BRA    B4F6
....................                   sg2=10; 
0B4F0:  MOVLW  0A
0B4F2:  MOVWF  xC3
....................                else 
0B4F4:  BRA    B4FA
....................                   sg2=5; 
0B4F6:  MOVLW  05
0B4F8:  MOVWF  xC3
....................                    
....................                write_eeprom(43,(int8)G2); 
0B4FA:  CLRF   FAA
0B4FC:  MOVLW  2B
0B4FE:  MOVWF  FA9
0B500:  MOVFF  3C1,FA8
0B504:  BCF    FA6.6
0B506:  BCF    FA6.7
0B508:  BSF    FA6.2
0B50A:  MOVF   FF2,W
0B50C:  MOVWF  00
0B50E:  BCF    FF2.6
0B510:  BCF    FF2.7
0B512:  MOVLB  F
0B514:  MOVLW  55
0B516:  MOVWF  FA7
0B518:  MOVLW  AA
0B51A:  MOVWF  FA7
0B51C:  BSF    FA6.1
0B51E:  BTFSC  FA6.1
0B520:  BRA    B51E
0B522:  BCF    FA6.2
0B524:  MOVF   00,W
0B526:  IORWF  FF2,F
....................                delay_ms(10); 
0B528:  MOVLW  0A
0B52A:  MOVLB  4
0B52C:  MOVWF  x69
0B52E:  MOVLB  0
0B530:  CALL   1B4A
....................                write_eeprom(45,(int8)sg2); 
0B534:  CLRF   FAA
0B536:  MOVLW  2D
0B538:  MOVWF  FA9
0B53A:  MOVFF  3C3,FA8
0B53E:  BCF    FA6.6
0B540:  BCF    FA6.7
0B542:  BSF    FA6.2
0B544:  MOVF   FF2,W
0B546:  MOVWF  00
0B548:  BCF    FF2.6
0B54A:  BCF    FF2.7
0B54C:  MOVLB  F
0B54E:  MOVLW  55
0B550:  MOVWF  FA7
0B552:  MOVLW  AA
0B554:  MOVWF  FA7
0B556:  BSF    FA6.1
0B558:  BTFSC  FA6.1
0B55A:  BRA    B558
0B55C:  BCF    FA6.2
0B55E:  MOVF   00,W
0B560:  IORWF  FF2,F
....................                delay_ms(10); 
0B562:  MOVLW  0A
0B564:  MOVLB  4
0B566:  MOVWF  x69
0B568:  MOVLB  0
0B56A:  CALL   1B4A
....................                Buzzer_on; 
0B56E:  BSF    F8C.7
0B570:  BCF    F95.7
....................                delay_ms(1000); 
0B572:  MOVLW  04
0B574:  MOVLB  4
0B576:  MOVWF  x50
0B578:  MOVLW  FA
0B57A:  MOVWF  x69
0B57C:  MOVLB  0
0B57E:  CALL   1B4A
0B582:  MOVLB  4
0B584:  DECFSZ x50,F
0B586:  BRA    B578
....................                Buzzer_off; 
0B588:  BCF    F8C.7
0B58A:  BCF    F95.7
....................                delay_ms(1000); 
0B58C:  MOVLW  04
0B58E:  MOVWF  x50
0B590:  MOVLW  FA
0B592:  MOVWF  x69
0B594:  MOVLB  0
0B596:  CALL   1B4A
0B59A:  MOVLB  4
0B59C:  DECFSZ x50,F
0B59E:  BRA    B590
....................                Buzzer_on; 
0B5A0:  BSF    F8C.7
0B5A2:  BCF    F95.7
....................                delay_ms(1000); 
0B5A4:  MOVLW  04
0B5A6:  MOVWF  x50
0B5A8:  MOVLW  FA
0B5AA:  MOVWF  x69
0B5AC:  MOVLB  0
0B5AE:  CALL   1B4A
0B5B2:  MOVLB  4
0B5B4:  DECFSZ x50,F
0B5B6:  BRA    B5A8
....................                Buzzer_off; 
0B5B8:  BCF    F8C.7
0B5BA:  BCF    F95.7
0B5BC:  MOVLB  0
0B5BE:  MOVLB  3
....................             } 
....................          } 
....................      } 
.................... //_--------------------------------------------------------------------------------------------------------------------------------------------------------     
....................  
.................... //_--------------------------------------------------------------------------------------------------------------------------------------------------------       
....................       if(Menu==7){ //Menu de Configuracin de Fecha y Hora 
0B5C0:  MOVF   x68,W
0B5C2:  SUBLW  07
0B5C4:  BTFSS  FD8.2
0B5C6:  BRA    B9EE
....................        
....................          if(RX_Buffer[4]==0x0a){//Selecciono Hora 
0B5C8:  MOVF   34,W
0B5CA:  SUBLW  0A
0B5CC:  BNZ   B5D2
....................             Opcion=4; 
0B5CE:  MOVLW  04
0B5D0:  MOVWF  x6F
....................          } 
....................           
....................          if(RX_Buffer[4]==0x0b){//Selecciono Minuto 
0B5D2:  MOVF   34,W
0B5D4:  SUBLW  0B
0B5D6:  BNZ   B5DC
....................             Opcion=5; 
0B5D8:  MOVLW  05
0B5DA:  MOVWF  x6F
....................          } 
....................           
....................          if(RX_Buffer[4]==0x0c){//Selecciono Dia 
0B5DC:  MOVF   34,W
0B5DE:  SUBLW  0C
0B5E0:  BNZ   B5E6
....................             Opcion=1; 
0B5E2:  MOVLW  01
0B5E4:  MOVWF  x6F
....................          } 
....................           
....................          if(RX_Buffer[4]==0x0d){//Selecciono Hora 
0B5E6:  MOVF   34,W
0B5E8:  SUBLW  0D
0B5EA:  BNZ   B5F0
....................             Opcion=2; 
0B5EC:  MOVLW  02
0B5EE:  MOVWF  x6F
....................          } 
....................           
....................          if(RX_Buffer[4]==0x0e){//Selecciono Year 
0B5F0:  MOVF   34,W
0B5F2:  SUBLW  0E
0B5F4:  BNZ   B5FA
....................             Opcion=3; 
0B5F6:  MOVLW  03
0B5F8:  MOVWF  x6F
....................          } 
....................           
....................          if(RIGHT){ 
0B5FA:  BSF    F93.1
0B5FC:  BTFSC  F81.1
0B5FE:  BRA    B616
....................             delay_ms(200); 
0B600:  MOVLW  C8
0B602:  MOVLB  4
0B604:  MOVWF  x69
0B606:  MOVLB  0
0B608:  CALL   1B4A
....................             if(RIGHT){ 
0B60C:  BSF    F93.1
0B60E:  BTFSC  F81.1
0B610:  BRA    B618
....................                Opcion++; 
0B612:  MOVLB  3
0B614:  INCF   x6F,F
0B616:  MOVLB  0
....................             } 
....................          } 
....................          if(Opcion>5) 
0B618:  MOVLB  3
0B61A:  MOVF   x6F,W
0B61C:  SUBLW  05
0B61E:  BC    B624
....................             Opcion=1; 
0B620:  MOVLW  01
0B622:  MOVWF  x6F
....................          if(Opcion<1) 
0B624:  MOVF   x6F,F
0B626:  BNZ   B62C
....................             Opcion=5; 
0B628:  MOVLW  05
0B62A:  MOVWF  x6F
....................              
....................          if(RX_Buffer[4]==0x11 || LEFT){//Selecciono Regresar 
0B62C:  MOVF   34,W
0B62E:  SUBLW  11
0B630:  BZ    B638
0B632:  BSF    F93.0
0B634:  BTFSC  F81.0
0B636:  BRA    B750
....................             printf("page MenuPrincipal"); 
0B638:  MOVLW  D0
0B63A:  MOVWF  FF6
0B63C:  MOVLW  0E
0B63E:  MOVWF  FF7
0B640:  MOVLW  00
0B642:  MOVWF  FF8
0B644:  MOVLB  0
0B646:  CALL   3CA6
....................             SendDataDisplay();   
0B64A:  CALL   3CD8
....................             PantallaPrincipal=0; 
0B64E:  MOVLB  2
0B650:  CLRF   xE5
....................             Op=OFF; 
0B652:  MOVLB  0
0B654:  BCF    xAA.4
....................             Op2=OFF; 
0B656:  BCF    xAA.5
....................              
....................             if(esBisiesto(YearTx)) 
0B658:  MOVFF  3B6,450
0B65C:  CALL   57E4
0B660:  MOVF   01,F
0B662:  BZ    B67E
....................                Modulo=Bisiesto[MesTx]; 
0B664:  CLRF   03
0B666:  MOVLB  3
0B668:  MOVF   xB7,W
0B66A:  ADDLW  9B
0B66C:  MOVWF  FE9
0B66E:  MOVLW  00
0B670:  ADDWFC 03,W
0B672:  MOVWF  FEA
0B674:  MOVFF  FEF,2E7
0B678:  MOVLB  2
....................             else 
0B67A:  BRA    B694
0B67C:  MOVLB  0
....................                Modulo=Regular[MesTx]; 
0B67E:  CLRF   03
0B680:  MOVLB  3
0B682:  MOVF   xB7,W
0B684:  ADDLW  8F
0B686:  MOVWF  FE9
0B688:  MOVLW  00
0B68A:  ADDWFC 03,W
0B68C:  MOVWF  FEA
0B68E:  MOVFF  FEF,2E7
0B692:  MOVLB  2
....................           
....................             dowTx=((YearTx-1)%7+((YearTx-1)/4-3*((YearTx-1)/100+1)/4)%7+Modulo+DiaTx%7)%7; 
0B694:  MOVLW  01
0B696:  MOVLB  3
0B698:  SUBWF  xB6,W
0B69A:  MOVLB  4
0B69C:  MOVWF  x51
0B69E:  MOVWF  x5A
0B6A0:  MOVLW  07
0B6A2:  MOVWF  x5B
0B6A4:  MOVLB  0
0B6A6:  CALL   4CD2
0B6AA:  MOVFF  00,450
0B6AE:  MOVLW  01
0B6B0:  MOVLB  3
0B6B2:  SUBWF  xB6,W
0B6B4:  MOVWF  00
0B6B6:  RRCF   00,W
0B6B8:  MOVLB  4
0B6BA:  MOVWF  x51
0B6BC:  RRCF   x51,F
0B6BE:  MOVLW  3F
0B6C0:  ANDWF  x51,F
0B6C2:  MOVLW  01
0B6C4:  MOVLB  3
0B6C6:  SUBWF  xB6,W
0B6C8:  MOVLB  4
0B6CA:  MOVWF  x53
0B6CC:  MOVWF  x5A
0B6CE:  MOVLW  64
0B6D0:  MOVWF  x5B
0B6D2:  MOVLB  0
0B6D4:  CALL   4CD2
0B6D8:  MOVLW  01
0B6DA:  ADDWF  01,W
0B6DC:  MULLW  03
0B6DE:  MOVFF  FF3,00
0B6E2:  RRCF   00,F
0B6E4:  RRCF   00,F
0B6E6:  MOVLW  3F
0B6E8:  ANDWF  00,F
0B6EA:  MOVF   00,W
0B6EC:  MOVLB  4
0B6EE:  SUBWF  x51,W
0B6F0:  MOVWF  x52
0B6F2:  MOVWF  x5A
0B6F4:  MOVLW  07
0B6F6:  MOVWF  x5B
0B6F8:  MOVLB  0
0B6FA:  CALL   4CD2
0B6FE:  MOVF   00,W
0B700:  MOVLB  4
0B702:  ADDWF  x50,W
0B704:  MOVLB  2
0B706:  ADDWF  xE7,W
0B708:  MOVLB  4
0B70A:  MOVWF  x50
0B70C:  MOVFF  3B8,45A
0B710:  MOVLW  07
0B712:  MOVWF  x5B
0B714:  MOVLB  0
0B716:  CALL   4CD2
0B71A:  MOVF   00,W
0B71C:  MOVLB  4
0B71E:  ADDWF  x50,W
0B720:  MOVWF  x51
0B722:  MOVWF  x5A
0B724:  MOVLW  07
0B726:  MOVWF  x5B
0B728:  MOVLB  0
0B72A:  CALL   4CD2
0B72E:  MOVFF  00,3BC
....................             rtc_set_datetime(DiaTx,MesTx,YearTx,dowTx,HoraTx,MinutoTx); 
0B732:  MOVFF  3B8,450
0B736:  MOVFF  3B7,451
0B73A:  MOVFF  3B6,452
0B73E:  MOVFF  3BC,453
0B742:  MOVFF  3B9,454
0B746:  MOVFF  3BA,455
0B74A:  GOTO   586C
0B74E:  MOVLB  3
....................          } 
....................           
....................          if((RX_Buffer[4]==0x2a)|| UP){//Tecla Arriba Oprimida 
0B750:  MOVF   34,W
0B752:  SUBLW  2A
0B754:  BZ    B75C
0B756:  BSF    F93.3
0B758:  BTFSC  F81.3
0B75A:  BRA    B85A
....................             delay_ms(200); 
0B75C:  MOVLW  C8
0B75E:  MOVLB  4
0B760:  MOVWF  x69
0B762:  MOVLB  0
0B764:  CALL   1B4A
....................             if((RX_Buffer[4]==0x2a)|| UP){    
0B768:  MOVF   34,W
0B76A:  SUBLW  2A
0B76C:  BZ    B774
0B76E:  BSF    F93.3
0B770:  BTFSC  F81.3
0B772:  BRA    B85C
....................                if(Opcion==1){ 
0B774:  MOVLB  3
0B776:  DECFSZ x6F,W
0B778:  BRA    B806
....................                   if(MesTx==2){ 
0B77A:  MOVF   xB7,W
0B77C:  SUBLW  02
0B77E:  BNZ   B7B4
....................                      if(esBisiesto(YearTx)){ 
0B780:  MOVFF  3B6,450
0B784:  MOVLB  0
0B786:  CALL   57E4
0B78A:  MOVF   01,F
0B78C:  BZ    B7A2
....................                         if(DiaTx<29) 
0B78E:  MOVLB  3
0B790:  MOVF   xB8,W
0B792:  SUBLW  1C
0B794:  BNC   B79A
....................                            DiaTx++; 
0B796:  INCF   xB8,F
....................                         else 
0B798:  BRA    B79E
....................                            DiaTx=1;    
0B79A:  MOVLW  01
0B79C:  MOVWF  xB8
....................                      }else{ 
0B79E:  BRA    B7B2
0B7A0:  MOVLB  0
....................                         if(DiaTx<28) 
0B7A2:  MOVLB  3
0B7A4:  MOVF   xB8,W
0B7A6:  SUBLW  1B
0B7A8:  BNC   B7AE
....................                            DiaTx++; 
0B7AA:  INCF   xB8,F
....................                         else 
0B7AC:  BRA    B7B2
....................                            DiaTx=1;    
0B7AE:  MOVLW  01
0B7B0:  MOVWF  xB8
....................                      } 
....................                   }else{ 
0B7B2:  BRA    B804
....................                      if(MesTx<=7){ 
0B7B4:  MOVF   xB7,W
0B7B6:  SUBLW  07
0B7B8:  BNC   B7E0
....................                         if(MesTx % 2 ==0){ 
0B7BA:  MOVF   xB7,W
0B7BC:  ANDLW  01
0B7BE:  BNZ   B7D0
....................                            if(DiaTx<30) 
0B7C0:  MOVF   xB8,W
0B7C2:  SUBLW  1D
0B7C4:  BNC   B7CA
....................                               DiaTx++;     
0B7C6:  INCF   xB8,F
....................                            else 
0B7C8:  BRA    B7CE
....................                               DiaTx=1;    
0B7CA:  MOVLW  01
0B7CC:  MOVWF  xB8
....................                         }else{ 
0B7CE:  BRA    B7DE
....................                            if(DiaTx<31) 
0B7D0:  MOVF   xB8,W
0B7D2:  SUBLW  1E
0B7D4:  BNC   B7DA
....................                               DiaTx++;     
0B7D6:  INCF   xB8,F
....................                            else 
0B7D8:  BRA    B7DE
....................                               DiaTx=1;    
0B7DA:  MOVLW  01
0B7DC:  MOVWF  xB8
....................                         }     
....................                      }else{ 
0B7DE:  BRA    B804
....................                         if(MesTx % 2 ==0){ 
0B7E0:  MOVF   xB7,W
0B7E2:  ANDLW  01
0B7E4:  BNZ   B7F6
....................                            if(DiaTx<31) 
0B7E6:  MOVF   xB8,W
0B7E8:  SUBLW  1E
0B7EA:  BNC   B7F0
....................                               DiaTx++;   
0B7EC:  INCF   xB8,F
....................                            else 
0B7EE:  BRA    B7F4
....................                               DiaTx=1; 
0B7F0:  MOVLW  01
0B7F2:  MOVWF  xB8
....................                         }else{ 
0B7F4:  BRA    B804
....................                            if(DiaTx<30) 
0B7F6:  MOVF   xB8,W
0B7F8:  SUBLW  1D
0B7FA:  BNC   B800
....................                               DiaTx++;     
0B7FC:  INCF   xB8,F
....................                            else 
0B7FE:  BRA    B804
....................                               DiaTx=1; 
0B800:  MOVLW  01
0B802:  MOVWF  xB8
....................                         }     
....................                      } 
....................                   } 
....................                }else if(Opcion==2){ 
0B804:  BRA    B856
0B806:  MOVF   x6F,W
0B808:  SUBLW  02
0B80A:  BNZ   B81C
....................                   if(MesTx<12) 
0B80C:  MOVF   xB7,W
0B80E:  SUBLW  0B
0B810:  BNC   B816
....................                      MesTx++; 
0B812:  INCF   xB7,F
....................                   else 
0B814:  BRA    B81A
....................                      MesTx=1; 
0B816:  MOVLW  01
0B818:  MOVWF  xB7
....................                }else if(Opcion==3){ 
0B81A:  BRA    B856
0B81C:  MOVF   x6F,W
0B81E:  SUBLW  03
0B820:  BNZ   B830
....................                   if(YearTx<99) 
0B822:  MOVF   xB6,W
0B824:  SUBLW  62
0B826:  BNC   B82C
....................                      YearTx++; 
0B828:  INCF   xB6,F
....................                   else  
0B82A:  BRA    B82E
....................                      YearTx=0; 
0B82C:  CLRF   xB6
....................                }else if(Opcion==4){ 
0B82E:  BRA    B856
0B830:  MOVF   x6F,W
0B832:  SUBLW  04
0B834:  BNZ   B844
....................                   if(HoraTx<24) 
0B836:  MOVF   xB9,W
0B838:  SUBLW  17
0B83A:  BNC   B840
....................                      HoraTx++; 
0B83C:  INCF   xB9,F
....................                   else 
0B83E:  BRA    B842
....................                      HoraTx=0; 
0B840:  CLRF   xB9
....................                }else if(Opcion==5){ 
0B842:  BRA    B856
0B844:  MOVF   x6F,W
0B846:  SUBLW  05
0B848:  BNZ   B856
....................                   if(MinutoTx<59) 
0B84A:  MOVF   xBA,W
0B84C:  SUBLW  3A
0B84E:  BNC   B854
....................                      MinutoTx++; 
0B850:  INCF   xBA,F
....................                   else 
0B852:  BRA    B856
....................                      MinutoTx=0; 
0B854:  CLRF   xBA
....................                } 
....................                RX_Buffer[4]=0x00; 
0B856:  CLRF   34
....................                RX_Buffer2[4]=0x00; 
0B858:  CLRF   3F
0B85A:  MOVLB  0
....................             } 
....................          } 
....................           
....................          if(RX_Buffer[4]==0x2b || DOWN){//Tecla Abajo Oprimida 
0B85C:  MOVF   34,W
0B85E:  SUBLW  2B
0B860:  BZ    B868
0B862:  BSF    F93.2
0B864:  BTFSC  F81.2
0B866:  BRA    B8E4
....................             delay_ms(200); 
0B868:  MOVLW  C8
0B86A:  MOVLB  4
0B86C:  MOVWF  x69
0B86E:  MOVLB  0
0B870:  CALL   1B4A
....................             if(RX_Buffer[4]==0x2b || DOWN){    
0B874:  MOVF   34,W
0B876:  SUBLW  2B
0B878:  BZ    B880
0B87A:  BSF    F93.2
0B87C:  BTFSC  F81.2
0B87E:  BRA    B8E4
....................                if(Opcion==1){ 
0B880:  MOVLB  3
0B882:  DECFSZ x6F,W
0B884:  BRA    B88E
....................                   if(DiaTx>0) 
0B886:  MOVF   xB8,F
0B888:  BZ    B88C
....................                      DiaTx--; 
0B88A:  DECF   xB8,F
....................                }else if(Opcion==2){ 
0B88C:  BRA    B8DE
0B88E:  MOVF   x6F,W
0B890:  SUBLW  02
0B892:  BNZ   B8A4
....................                   if(MesTx>1) 
0B894:  MOVF   xB7,W
0B896:  SUBLW  01
0B898:  BC    B89E
....................                      MesTx--; 
0B89A:  DECF   xB7,F
....................                   else 
0B89C:  BRA    B8A2
....................                      MesTx=12; 
0B89E:  MOVLW  0C
0B8A0:  MOVWF  xB7
....................                }else if(Opcion==3){ 
0B8A2:  BRA    B8DE
0B8A4:  MOVF   x6F,W
0B8A6:  SUBLW  03
0B8A8:  BNZ   B8B8
....................                   if(YearTx>0) 
0B8AA:  MOVF   xB6,F
0B8AC:  BZ    B8B2
....................                      YearTx--; 
0B8AE:  DECF   xB6,F
....................                   else 
0B8B0:  BRA    B8B6
....................                      YearTx=99; 
0B8B2:  MOVLW  63
0B8B4:  MOVWF  xB6
....................                }else if(Opcion==4){ 
0B8B6:  BRA    B8DE
0B8B8:  MOVF   x6F,W
0B8BA:  SUBLW  04
0B8BC:  BNZ   B8CC
....................                   if(HoraTx>0) 
0B8BE:  MOVF   xB9,F
0B8C0:  BZ    B8C6
....................                      HoraTx--; 
0B8C2:  DECF   xB9,F
....................                   else 
0B8C4:  BRA    B8CA
....................                      HoraTx=23; 
0B8C6:  MOVLW  17
0B8C8:  MOVWF  xB9
....................                }else if(Opcion==5){ 
0B8CA:  BRA    B8DE
0B8CC:  MOVF   x6F,W
0B8CE:  SUBLW  05
0B8D0:  BNZ   B8DE
....................                   if(MinutoTx>0) 
0B8D2:  MOVF   xBA,F
0B8D4:  BZ    B8DA
....................                      MinutoTx--; 
0B8D6:  DECF   xBA,F
....................                   else 
0B8D8:  BRA    B8DE
....................                      MinutoTx=59; 
0B8DA:  MOVLW  3B
0B8DC:  MOVWF  xBA
....................                } 
....................                RX_Buffer[4]=0x00; 
0B8DE:  CLRF   34
....................                RX_Buffer2[4]=0x00; 
0B8E0:  CLRF   3F
0B8E2:  MOVLB  0
....................             } 
....................          } 
....................        
....................       printf("thora.txt=\"%02u\"",HoraTx); 
0B8E4:  MOVLW  E4
0B8E6:  MOVWF  FF6
0B8E8:  MOVLW  0E
0B8EA:  MOVWF  FF7
0B8EC:  MOVLW  00
0B8EE:  MOVWF  FF8
0B8F0:  MOVLW  0B
0B8F2:  MOVLB  4
0B8F4:  MOVWF  x56
0B8F6:  MOVLB  0
0B8F8:  CALL   4CA0
0B8FC:  MOVFF  3B9,456
0B900:  MOVLW  01
0B902:  MOVLB  4
0B904:  MOVWF  x57
0B906:  MOVLB  0
0B908:  CALL   4CFE
0B90C:  MOVLW  22
0B90E:  BTFSS  F9E.4
0B910:  BRA    B90E
0B912:  MOVWF  FAD
....................       SendDataDisplay(); 
0B914:  CALL   3CD8
....................       printf("tminutos.txt=\"%02u\"",MinutoTx); 
0B918:  MOVLW  F6
0B91A:  MOVWF  FF6
0B91C:  MOVLW  0E
0B91E:  MOVWF  FF7
0B920:  MOVLW  00
0B922:  MOVWF  FF8
0B924:  MOVLW  0E
0B926:  MOVLB  4
0B928:  MOVWF  x56
0B92A:  MOVLB  0
0B92C:  CALL   4CA0
0B930:  MOVFF  3BA,456
0B934:  MOVLW  01
0B936:  MOVLB  4
0B938:  MOVWF  x57
0B93A:  MOVLB  0
0B93C:  CALL   4CFE
0B940:  MOVLW  22
0B942:  BTFSS  F9E.4
0B944:  BRA    B942
0B946:  MOVWF  FAD
....................       SendDataDisplay(); 
0B948:  CALL   3CD8
....................       printf("tdia.txt=\"%02u\"",DiaTx); 
0B94C:  MOVLW  0A
0B94E:  MOVWF  FF6
0B950:  MOVLW  0F
0B952:  MOVWF  FF7
0B954:  MOVLW  00
0B956:  MOVWF  FF8
0B958:  MOVLW  0A
0B95A:  MOVLB  4
0B95C:  MOVWF  x56
0B95E:  MOVLB  0
0B960:  CALL   4CA0
0B964:  MOVFF  3B8,456
0B968:  MOVLW  01
0B96A:  MOVLB  4
0B96C:  MOVWF  x57
0B96E:  MOVLB  0
0B970:  CALL   4CFE
0B974:  MOVLW  22
0B976:  BTFSS  F9E.4
0B978:  BRA    B976
0B97A:  MOVWF  FAD
....................       SendDataDisplay(); 
0B97C:  CALL   3CD8
....................       printf("tmes.txt=\"%02u\"",MesTx); 
0B980:  MOVLW  1A
0B982:  MOVWF  FF6
0B984:  MOVLW  0F
0B986:  MOVWF  FF7
0B988:  MOVLW  00
0B98A:  MOVWF  FF8
0B98C:  MOVLW  0A
0B98E:  MOVLB  4
0B990:  MOVWF  x56
0B992:  MOVLB  0
0B994:  CALL   4CA0
0B998:  MOVFF  3B7,456
0B99C:  MOVLW  01
0B99E:  MOVLB  4
0B9A0:  MOVWF  x57
0B9A2:  MOVLB  0
0B9A4:  CALL   4CFE
0B9A8:  MOVLW  22
0B9AA:  BTFSS  F9E.4
0B9AC:  BRA    B9AA
0B9AE:  MOVWF  FAD
....................       SendDataDisplay(); 
0B9B0:  CALL   3CD8
....................       printf("tyear.txt=\"%02u\"",YearTx); 
0B9B4:  MOVLW  2A
0B9B6:  MOVWF  FF6
0B9B8:  MOVLW  0F
0B9BA:  MOVWF  FF7
0B9BC:  MOVLW  00
0B9BE:  MOVWF  FF8
0B9C0:  MOVLW  0B
0B9C2:  MOVLB  4
0B9C4:  MOVWF  x56
0B9C6:  MOVLB  0
0B9C8:  CALL   4CA0
0B9CC:  MOVFF  3B6,456
0B9D0:  MOVLW  01
0B9D2:  MOVLB  4
0B9D4:  MOVWF  x57
0B9D6:  MOVLB  0
0B9D8:  CALL   4CFE
0B9DC:  MOVLW  22
0B9DE:  BTFSS  F9E.4
0B9E0:  BRA    B9DE
0B9E2:  MOVWF  FAD
....................       SendDataDisplay(); 
0B9E4:  CALL   3CD8
....................       LimitaDia();   
0B9E8:  GOTO   5928
0B9EC:  MOVLB  3
....................     } 
.................... //_--------------------------------------------------------------------------------------------------------------------------------------------------------        
....................  
.................... //_-------------------------------------------------------------------------------------------------------------------------------------------------------- 
....................    if(Menu==8){ //Menu Ciclos Personalizados 
0B9EE:  MOVF   x68,W
0B9F0:  SUBLW  08
0B9F2:  BTFSS  FD8.2
0B9F4:  GOTO   C850
....................       printf("fecha.txt=\"T:%3.1fC Fecha:%02u/%02u/20%02u Hora: %02u:%02u:%02u\"",Temperatura,Dia,Mes,Year,Hora,Minuto,Segundo); 
0B9F8:  MOVLW  3C
0B9FA:  MOVWF  FF6
0B9FC:  MOVLW  0F
0B9FE:  MOVWF  FF7
0BA00:  MOVLW  00
0BA02:  MOVWF  FF8
0BA04:  MOVLW  0D
0BA06:  MOVLB  4
0BA08:  MOVWF  x56
0BA0A:  MOVLB  0
0BA0C:  CALL   4CA0
0BA10:  MOVLW  02
0BA12:  MOVWF  FE9
0BA14:  MOVFF  335,459
0BA18:  MOVFF  334,458
0BA1C:  MOVFF  333,457
0BA20:  MOVFF  332,456
0BA24:  MOVLW  01
0BA26:  MOVLB  4
0BA28:  MOVWF  x5A
0BA2A:  MOVLB  0
0BA2C:  CALL   4E40
0BA30:  MOVLW  4E
0BA32:  MOVWF  FF6
0BA34:  MOVLW  0F
0BA36:  MOVWF  FF7
0BA38:  MOVLW  00
0BA3A:  MOVWF  FF8
0BA3C:  MOVLW  09
0BA3E:  MOVLB  4
0BA40:  MOVWF  x56
0BA42:  MOVLB  0
0BA44:  CALL   4CA0
0BA48:  MOVFF  3AD,456
0BA4C:  MOVLW  01
0BA4E:  MOVLB  4
0BA50:  MOVWF  x57
0BA52:  MOVLB  0
0BA54:  CALL   4CFE
0BA58:  MOVLW  2F
0BA5A:  BTFSS  F9E.4
0BA5C:  BRA    BA5A
0BA5E:  MOVWF  FAD
0BA60:  MOVFF  3AC,456
0BA64:  MOVLW  01
0BA66:  MOVLB  4
0BA68:  MOVWF  x57
0BA6A:  MOVLB  0
0BA6C:  CALL   4CFE
0BA70:  MOVLW  2F
0BA72:  BTFSS  F9E.4
0BA74:  BRA    BA72
0BA76:  MOVWF  FAD
0BA78:  MOVLW  32
0BA7A:  BTFSS  F9E.4
0BA7C:  BRA    BA7A
0BA7E:  MOVWF  FAD
0BA80:  MOVLW  30
0BA82:  BTFSS  F9E.4
0BA84:  BRA    BA82
0BA86:  MOVWF  FAD
0BA88:  MOVFF  3AB,456
0BA8C:  MOVLW  01
0BA8E:  MOVLB  4
0BA90:  MOVWF  x57
0BA92:  MOVLB  0
0BA94:  CALL   4CFE
0BA98:  MOVLW  67
0BA9A:  MOVWF  FF6
0BA9C:  MOVLW  0F
0BA9E:  MOVWF  FF7
0BAA0:  MOVLW  00
0BAA2:  MOVWF  FF8
0BAA4:  MOVLW  07
0BAA6:  MOVLB  4
0BAA8:  MOVWF  x56
0BAAA:  MOVLB  0
0BAAC:  CALL   4CA0
0BAB0:  MOVFF  3AE,456
0BAB4:  MOVLW  01
0BAB6:  MOVLB  4
0BAB8:  MOVWF  x57
0BABA:  MOVLB  0
0BABC:  CALL   4CFE
0BAC0:  MOVLW  3A
0BAC2:  BTFSS  F9E.4
0BAC4:  BRA    BAC2
0BAC6:  MOVWF  FAD
0BAC8:  MOVFF  3AF,456
0BACC:  MOVLW  01
0BACE:  MOVLB  4
0BAD0:  MOVWF  x57
0BAD2:  MOVLB  0
0BAD4:  CALL   4CFE
0BAD8:  MOVLW  3A
0BADA:  BTFSS  F9E.4
0BADC:  BRA    BADA
0BADE:  MOVWF  FAD
0BAE0:  MOVFF  3B0,456
0BAE4:  MOVLW  01
0BAE6:  MOVLB  4
0BAE8:  MOVWF  x57
0BAEA:  MOVLB  0
0BAEC:  CALL   4CFE
0BAF0:  MOVLW  22
0BAF2:  BTFSS  F9E.4
0BAF4:  BRA    BAF2
0BAF6:  MOVWF  FAD
....................       SendDataDisplay(); 
0BAF8:  CALL   3CD8
....................       GuardaEEPROM=OFF; 
0BAFC:  BCF    xAB.0
....................        
....................       if(RX_Buffer[4]>0x00 && RX_Buffer[4]<0x04){//Personalizados 
0BAFE:  MOVF   34,F
0BB00:  BTFSC  FD8.2
0BB02:  BRA    BD30
0BB04:  MOVF   34,W
0BB06:  SUBLW  03
0BB08:  BTFSS  FD8.0
0BB0A:  BRA    BD30
....................          printf("ciclo.txt=\"CICLO P%02u\"",RX_Buffer[4]+0x04); 
0BB0C:  MOVLW  04
0BB0E:  ADDWF  34,W
0BB10:  MOVLB  4
0BB12:  MOVWF  x50
0BB14:  MOVLW  7E
0BB16:  MOVWF  FF6
0BB18:  MOVLW  0F
0BB1A:  MOVWF  FF7
0BB1C:  MOVLW  00
0BB1E:  MOVWF  FF8
0BB20:  MOVLW  12
0BB22:  MOVWF  x56
0BB24:  MOVLB  0
0BB26:  CALL   4CA0
0BB2A:  MOVFF  450,456
0BB2E:  MOVLW  01
0BB30:  MOVLB  4
0BB32:  MOVWF  x57
0BB34:  MOVLB  0
0BB36:  CALL   4CFE
0BB3A:  MOVLW  22
0BB3C:  BTFSS  F9E.4
0BB3E:  BRA    BB3C
0BB40:  MOVWF  FAD
....................          SendDataDisplay();           
0BB42:  CALL   3CD8
....................          printf("temp.txt=\"%u\"",CiclosPersonalizados[RX_Buffer[4]-1].Temperatura); 
0BB46:  MOVLW  01
0BB48:  SUBWF  34,W
0BB4A:  MULLW  0A
0BB4C:  MOVF   FF3,W
0BB4E:  MOVLB  4
0BB50:  CLRF   x51
0BB52:  MOVWF  x50
0BB54:  MOVLW  28
0BB56:  ADDWF  x50,W
0BB58:  MOVWF  FE9
0BB5A:  MOVLW  04
0BB5C:  ADDWFC x51,W
0BB5E:  MOVWF  FEA
0BB60:  MOVFF  FEF,450
0BB64:  MOVLW  96
0BB66:  MOVWF  FF6
0BB68:  MOVLW  0F
0BB6A:  MOVWF  FF7
0BB6C:  MOVLW  00
0BB6E:  MOVWF  FF8
0BB70:  MOVLW  0A
0BB72:  MOVWF  x56
0BB74:  MOVLB  0
0BB76:  CALL   4CA0
0BB7A:  MOVFF  450,456
0BB7E:  MOVLW  1B
0BB80:  MOVLB  4
0BB82:  MOVWF  x57
0BB84:  MOVLB  0
0BB86:  CALL   4CFE
0BB8A:  MOVLW  22
0BB8C:  BTFSS  F9E.4
0BB8E:  BRA    BB8C
0BB90:  MOVWF  FAD
....................          SendDataDisplay(); 
0BB92:  CALL   3CD8
....................          printf("test.txt=\"%02u:%02u\"",CiclosPersonalizados[RX_Buffer[4]-1].Minutoest,CiclosPersonalizados[RX_Buffer[4]-1].Segundoest); 
0BB96:  MOVLW  01
0BB98:  SUBWF  34,W
0BB9A:  MULLW  0A
0BB9C:  MOVF   FF3,W
0BB9E:  MOVLB  4
0BBA0:  CLRF   x51
0BBA2:  MOVWF  x50
0BBA4:  MOVLW  09
0BBA6:  ADDWF  x50,W
0BBA8:  MOVWF  01
0BBAA:  MOVLW  00
0BBAC:  ADDWFC x51,W
0BBAE:  MOVWF  03
0BBB0:  MOVF   01,W
0BBB2:  ADDLW  28
0BBB4:  MOVWF  FE9
0BBB6:  MOVLW  04
0BBB8:  ADDWFC 03,W
0BBBA:  MOVWF  FEA
0BBBC:  MOVFF  FEF,450
0BBC0:  MOVLW  01
0BBC2:  SUBWF  34,W
0BBC4:  MULLW  0A
0BBC6:  MOVF   FF3,W
0BBC8:  CLRF   x52
0BBCA:  MOVWF  x51
0BBCC:  MOVLW  03
0BBCE:  ADDWF  x51,W
0BBD0:  MOVWF  01
0BBD2:  MOVLW  00
0BBD4:  ADDWFC x52,W
0BBD6:  MOVWF  03
0BBD8:  MOVF   01,W
0BBDA:  ADDLW  28
0BBDC:  MOVWF  FE9
0BBDE:  MOVLW  04
0BBE0:  ADDWFC 03,W
0BBE2:  MOVWF  FEA
0BBE4:  MOVFF  FEF,451
0BBE8:  MOVLW  A4
0BBEA:  MOVWF  FF6
0BBEC:  MOVLW  0F
0BBEE:  MOVWF  FF7
0BBF0:  MOVLW  00
0BBF2:  MOVWF  FF8
0BBF4:  MOVLW  0A
0BBF6:  MOVWF  x56
0BBF8:  MOVLB  0
0BBFA:  CALL   4CA0
0BBFE:  MOVFF  450,456
0BC02:  MOVLW  01
0BC04:  MOVLB  4
0BC06:  MOVWF  x57
0BC08:  MOVLB  0
0BC0A:  CALL   4CFE
0BC0E:  MOVLW  3A
0BC10:  BTFSS  F9E.4
0BC12:  BRA    BC10
0BC14:  MOVWF  FAD
0BC16:  MOVFF  451,456
0BC1A:  MOVLW  01
0BC1C:  MOVLB  4
0BC1E:  MOVWF  x57
0BC20:  MOVLB  0
0BC22:  CALL   4CFE
0BC26:  MOVLW  22
0BC28:  BTFSS  F9E.4
0BC2A:  BRA    BC28
0BC2C:  MOVWF  FAD
....................          SendDataDisplay(); 
0BC2E:  CALL   3CD8
....................          printf("tsec.txt=\"%02u:%02u\"",CiclosPersonalizados[RX_Buffer[4]-1].Minutosec,CiclosPersonalizados[RX_Buffer[4]-1].Segundosec); 
0BC32:  MOVLW  01
0BC34:  SUBWF  34,W
0BC36:  MULLW  0A
0BC38:  MOVF   FF3,W
0BC3A:  MOVLB  4
0BC3C:  CLRF   x51
0BC3E:  MOVWF  x50
0BC40:  MOVLW  04
0BC42:  ADDWF  x50,W
0BC44:  MOVWF  01
0BC46:  MOVLW  00
0BC48:  ADDWFC x51,W
0BC4A:  MOVWF  03
0BC4C:  MOVF   01,W
0BC4E:  ADDLW  28
0BC50:  MOVWF  FE9
0BC52:  MOVLW  04
0BC54:  ADDWFC 03,W
0BC56:  MOVWF  FEA
0BC58:  MOVFF  FEF,450
0BC5C:  MOVLW  01
0BC5E:  SUBWF  34,W
0BC60:  MULLW  0A
0BC62:  MOVF   FF3,W
0BC64:  CLRF   x52
0BC66:  MOVWF  x51
0BC68:  MOVLW  05
0BC6A:  ADDWF  x51,W
0BC6C:  MOVWF  01
0BC6E:  MOVLW  00
0BC70:  ADDWFC x52,W
0BC72:  MOVWF  03
0BC74:  MOVF   01,W
0BC76:  ADDLW  28
0BC78:  MOVWF  FE9
0BC7A:  MOVLW  04
0BC7C:  ADDWFC 03,W
0BC7E:  MOVWF  FEA
0BC80:  MOVFF  FEF,451
0BC84:  MOVLW  BA
0BC86:  MOVWF  FF6
0BC88:  MOVLW  0F
0BC8A:  MOVWF  FF7
0BC8C:  MOVLW  00
0BC8E:  MOVWF  FF8
0BC90:  MOVLW  0A
0BC92:  MOVWF  x56
0BC94:  MOVLB  0
0BC96:  CALL   4CA0
0BC9A:  MOVFF  450,456
0BC9E:  MOVLW  01
0BCA0:  MOVLB  4
0BCA2:  MOVWF  x57
0BCA4:  MOVLB  0
0BCA6:  CALL   4CFE
0BCAA:  MOVLW  3A
0BCAC:  BTFSS  F9E.4
0BCAE:  BRA    BCAC
0BCB0:  MOVWF  FAD
0BCB2:  MOVFF  451,456
0BCB6:  MOVLW  01
0BCB8:  MOVLB  4
0BCBA:  MOVWF  x57
0BCBC:  MOVLB  0
0BCBE:  CALL   4CFE
0BCC2:  MOVLW  22
0BCC4:  BTFSS  F9E.4
0BCC6:  BRA    BCC4
0BCC8:  MOVWF  FAD
....................          SendDataDisplay(); 
0BCCA:  CALL   3CD8
....................          printf("desfogue.txt=\"%u\"",CiclosPersonalizados[RX_Buffer[4]-1].NivelDesfogue); 
0BCCE:  MOVLW  01
0BCD0:  SUBWF  34,W
0BCD2:  MULLW  0A
0BCD4:  MOVF   FF3,W
0BCD6:  MOVLB  4
0BCD8:  CLRF   x51
0BCDA:  MOVWF  x50
0BCDC:  MOVLW  08
0BCDE:  ADDWF  x50,W
0BCE0:  MOVWF  01
0BCE2:  MOVLW  00
0BCE4:  ADDWFC x51,W
0BCE6:  MOVWF  03
0BCE8:  MOVF   01,W
0BCEA:  ADDLW  28
0BCEC:  MOVWF  FE9
0BCEE:  MOVLW  04
0BCF0:  ADDWFC 03,W
0BCF2:  MOVWF  FEA
0BCF4:  MOVFF  FEF,450
0BCF8:  MOVLW  D0
0BCFA:  MOVWF  FF6
0BCFC:  MOVLW  0F
0BCFE:  MOVWF  FF7
0BD00:  MOVLW  00
0BD02:  MOVWF  FF8
0BD04:  MOVLW  0E
0BD06:  MOVWF  x56
0BD08:  MOVLB  0
0BD0A:  CALL   4CA0
0BD0E:  MOVFF  450,456
0BD12:  MOVLW  1B
0BD14:  MOVLB  4
0BD16:  MOVWF  x57
0BD18:  MOVLB  0
0BD1A:  CALL   4CFE
0BD1E:  MOVLW  22
0BD20:  BTFSS  F9E.4
0BD22:  BRA    BD20
0BD24:  MOVWF  FAD
....................          SendDataDisplay(); 
0BD26:  CALL   3CD8
....................          CicloLibre=RX_Buffer[4]; 
0BD2A:  MOVFF  34,348
....................       }else if(CicloLibre==0x00){ 
0BD2E:  BRA    BFDC
0BD30:  MOVLB  3
0BD32:  MOVF   x48,F
0BD34:  BNZ   BDA0
....................          printf("ciclo.txt=\"CICLO P--\""); 
0BD36:  MOVLW  E2
0BD38:  MOVWF  FF6
0BD3A:  MOVLW  0F
0BD3C:  MOVWF  FF7
0BD3E:  MOVLW  00
0BD40:  MOVWF  FF8
0BD42:  MOVLB  0
0BD44:  CALL   3CA6
....................          SendDataDisplay();           
0BD48:  CALL   3CD8
....................          printf("temp.txt=\"--\""); 
0BD4C:  MOVLW  F8
0BD4E:  MOVWF  FF6
0BD50:  MOVLW  0F
0BD52:  MOVWF  FF7
0BD54:  MOVLW  00
0BD56:  MOVWF  FF8
0BD58:  CALL   3CA6
....................          SendDataDisplay(); 
0BD5C:  CALL   3CD8
....................          printf("test.txt=\"--:--\""); 
0BD60:  MOVLW  06
0BD62:  MOVWF  FF6
0BD64:  MOVLW  10
0BD66:  MOVWF  FF7
0BD68:  MOVLW  00
0BD6A:  MOVWF  FF8
0BD6C:  CALL   3CA6
....................          SendDataDisplay(); 
0BD70:  CALL   3CD8
....................          printf("tsec.txt=\"--:--\""); 
0BD74:  MOVLW  18
0BD76:  MOVWF  FF6
0BD78:  MOVLW  10
0BD7A:  MOVWF  FF7
0BD7C:  MOVLW  00
0BD7E:  MOVWF  FF8
0BD80:  CALL   3CA6
....................          SendDataDisplay(); 
0BD84:  CALL   3CD8
....................          printf("desfogue.txt=\"--\""); 
0BD88:  MOVLW  2A
0BD8A:  MOVWF  FF6
0BD8C:  MOVLW  10
0BD8E:  MOVWF  FF7
0BD90:  MOVLW  00
0BD92:  MOVWF  FF8
0BD94:  CALL   3CA6
....................          SendDataDisplay(); 
0BD98:  CALL   3CD8
....................       }else if(CicloLibre>0 && CicloLibre<4){ 
0BD9C:  BRA    BFDC
0BD9E:  MOVLB  3
0BDA0:  MOVF   x48,F
0BDA2:  BTFSC  FD8.2
0BDA4:  BRA    BFDE
0BDA6:  MOVF   x48,W
0BDA8:  SUBLW  03
0BDAA:  BTFSS  FD8.0
0BDAC:  BRA    BFDE
....................          printf("ciclo.txt=\"CICLO P%02u\"",CicloLibre+0x04); 
0BDAE:  MOVLW  04
0BDB0:  ADDWF  x48,W
0BDB2:  MOVLB  4
0BDB4:  MOVWF  x50
0BDB6:  MOVLW  3C
0BDB8:  MOVWF  FF6
0BDBA:  MOVLW  10
0BDBC:  MOVWF  FF7
0BDBE:  MOVLW  00
0BDC0:  MOVWF  FF8
0BDC2:  MOVLW  12
0BDC4:  MOVWF  x56
0BDC6:  MOVLB  0
0BDC8:  CALL   4CA0
0BDCC:  MOVFF  450,456
0BDD0:  MOVLW  01
0BDD2:  MOVLB  4
0BDD4:  MOVWF  x57
0BDD6:  MOVLB  0
0BDD8:  CALL   4CFE
0BDDC:  MOVLW  22
0BDDE:  BTFSS  F9E.4
0BDE0:  BRA    BDDE
0BDE2:  MOVWF  FAD
....................          SendDataDisplay();           
0BDE4:  CALL   3CD8
....................          printf("temp.txt=\"%u\"",CiclosPersonalizados[CicloLibre-1].Temperatura); 
0BDE8:  MOVLW  01
0BDEA:  MOVLB  3
0BDEC:  SUBWF  x48,W
0BDEE:  MULLW  0A
0BDF0:  MOVF   FF3,W
0BDF2:  MOVLB  4
0BDF4:  CLRF   x51
0BDF6:  MOVWF  x50
0BDF8:  MOVLW  28
0BDFA:  ADDWF  x50,W
0BDFC:  MOVWF  FE9
0BDFE:  MOVLW  04
0BE00:  ADDWFC x51,W
0BE02:  MOVWF  FEA
0BE04:  MOVFF  FEF,450
0BE08:  MOVLW  54
0BE0A:  MOVWF  FF6
0BE0C:  MOVLW  10
0BE0E:  MOVWF  FF7
0BE10:  MOVLW  00
0BE12:  MOVWF  FF8
0BE14:  MOVLW  0A
0BE16:  MOVWF  x56
0BE18:  MOVLB  0
0BE1A:  CALL   4CA0
0BE1E:  MOVFF  450,456
0BE22:  MOVLW  1B
0BE24:  MOVLB  4
0BE26:  MOVWF  x57
0BE28:  MOVLB  0
0BE2A:  CALL   4CFE
0BE2E:  MOVLW  22
0BE30:  BTFSS  F9E.4
0BE32:  BRA    BE30
0BE34:  MOVWF  FAD
....................          SendDataDisplay(); 
0BE36:  CALL   3CD8
....................          printf("test.txt=\"%02u:%02u\"",CiclosPersonalizados[CicloLibre-1].Minutoest,CiclosPersonalizados[CicloLibre-1].Segundoest); 
0BE3A:  MOVLW  01
0BE3C:  MOVLB  3
0BE3E:  SUBWF  x48,W
0BE40:  MULLW  0A
0BE42:  MOVF   FF3,W
0BE44:  MOVLB  4
0BE46:  CLRF   x51
0BE48:  MOVWF  x50
0BE4A:  MOVLW  09
0BE4C:  ADDWF  x50,W
0BE4E:  MOVWF  01
0BE50:  MOVLW  00
0BE52:  ADDWFC x51,W
0BE54:  MOVWF  03
0BE56:  MOVF   01,W
0BE58:  ADDLW  28
0BE5A:  MOVWF  FE9
0BE5C:  MOVLW  04
0BE5E:  ADDWFC 03,W
0BE60:  MOVWF  FEA
0BE62:  MOVFF  FEF,450
0BE66:  MOVLW  01
0BE68:  MOVLB  3
0BE6A:  SUBWF  x48,W
0BE6C:  MULLW  0A
0BE6E:  MOVF   FF3,W
0BE70:  MOVLB  4
0BE72:  CLRF   x52
0BE74:  MOVWF  x51
0BE76:  MOVLW  03
0BE78:  ADDWF  x51,W
0BE7A:  MOVWF  01
0BE7C:  MOVLW  00
0BE7E:  ADDWFC x52,W
0BE80:  MOVWF  03
0BE82:  MOVF   01,W
0BE84:  ADDLW  28
0BE86:  MOVWF  FE9
0BE88:  MOVLW  04
0BE8A:  ADDWFC 03,W
0BE8C:  MOVWF  FEA
0BE8E:  MOVFF  FEF,451
0BE92:  MOVLW  62
0BE94:  MOVWF  FF6
0BE96:  MOVLW  10
0BE98:  MOVWF  FF7
0BE9A:  MOVLW  00
0BE9C:  MOVWF  FF8
0BE9E:  MOVLW  0A
0BEA0:  MOVWF  x56
0BEA2:  MOVLB  0
0BEA4:  CALL   4CA0
0BEA8:  MOVFF  450,456
0BEAC:  MOVLW  01
0BEAE:  MOVLB  4
0BEB0:  MOVWF  x57
0BEB2:  MOVLB  0
0BEB4:  CALL   4CFE
0BEB8:  MOVLW  3A
0BEBA:  BTFSS  F9E.4
0BEBC:  BRA    BEBA
0BEBE:  MOVWF  FAD
0BEC0:  MOVFF  451,456
0BEC4:  MOVLW  01
0BEC6:  MOVLB  4
0BEC8:  MOVWF  x57
0BECA:  MOVLB  0
0BECC:  CALL   4CFE
0BED0:  MOVLW  22
0BED2:  BTFSS  F9E.4
0BED4:  BRA    BED2
0BED6:  MOVWF  FAD
....................          SendDataDisplay(); 
0BED8:  CALL   3CD8
....................          printf("tsec.txt=\"%02u:%02u\"",CiclosPersonalizados[CicloLibre-1].Minutosec,CiclosPersonalizados[CicloLibre-1].Segundosec); 
0BEDC:  MOVLW  01
0BEDE:  MOVLB  3
0BEE0:  SUBWF  x48,W
0BEE2:  MULLW  0A
0BEE4:  MOVF   FF3,W
0BEE6:  MOVLB  4
0BEE8:  CLRF   x51
0BEEA:  MOVWF  x50
0BEEC:  MOVLW  04
0BEEE:  ADDWF  x50,W
0BEF0:  MOVWF  01
0BEF2:  MOVLW  00
0BEF4:  ADDWFC x51,W
0BEF6:  MOVWF  03
0BEF8:  MOVF   01,W
0BEFA:  ADDLW  28
0BEFC:  MOVWF  FE9
0BEFE:  MOVLW  04
0BF00:  ADDWFC 03,W
0BF02:  MOVWF  FEA
0BF04:  MOVFF  FEF,450
0BF08:  MOVLW  01
0BF0A:  MOVLB  3
0BF0C:  SUBWF  x48,W
0BF0E:  MULLW  0A
0BF10:  MOVF   FF3,W
0BF12:  MOVLB  4
0BF14:  CLRF   x52
0BF16:  MOVWF  x51
0BF18:  MOVLW  05
0BF1A:  ADDWF  x51,W
0BF1C:  MOVWF  01
0BF1E:  MOVLW  00
0BF20:  ADDWFC x52,W
0BF22:  MOVWF  03
0BF24:  MOVF   01,W
0BF26:  ADDLW  28
0BF28:  MOVWF  FE9
0BF2A:  MOVLW  04
0BF2C:  ADDWFC 03,W
0BF2E:  MOVWF  FEA
0BF30:  MOVFF  FEF,451
0BF34:  MOVLW  78
0BF36:  MOVWF  FF6
0BF38:  MOVLW  10
0BF3A:  MOVWF  FF7
0BF3C:  MOVLW  00
0BF3E:  MOVWF  FF8
0BF40:  MOVLW  0A
0BF42:  MOVWF  x56
0BF44:  MOVLB  0
0BF46:  CALL   4CA0
0BF4A:  MOVFF  450,456
0BF4E:  MOVLW  01
0BF50:  MOVLB  4
0BF52:  MOVWF  x57
0BF54:  MOVLB  0
0BF56:  CALL   4CFE
0BF5A:  MOVLW  3A
0BF5C:  BTFSS  F9E.4
0BF5E:  BRA    BF5C
0BF60:  MOVWF  FAD
0BF62:  MOVFF  451,456
0BF66:  MOVLW  01
0BF68:  MOVLB  4
0BF6A:  MOVWF  x57
0BF6C:  MOVLB  0
0BF6E:  CALL   4CFE
0BF72:  MOVLW  22
0BF74:  BTFSS  F9E.4
0BF76:  BRA    BF74
0BF78:  MOVWF  FAD
....................          SendDataDisplay(); 
0BF7A:  CALL   3CD8
....................          printf("desfogue.txt=\"%u\"",CiclosPersonalizados[CicloLibre-1].NivelDesfogue); 
0BF7E:  MOVLW  01
0BF80:  MOVLB  3
0BF82:  SUBWF  x48,W
0BF84:  MULLW  0A
0BF86:  MOVF   FF3,W
0BF88:  MOVLB  4
0BF8A:  CLRF   x51
0BF8C:  MOVWF  x50
0BF8E:  MOVLW  08
0BF90:  ADDWF  x50,W
0BF92:  MOVWF  01
0BF94:  MOVLW  00
0BF96:  ADDWFC x51,W
0BF98:  MOVWF  03
0BF9A:  MOVF   01,W
0BF9C:  ADDLW  28
0BF9E:  MOVWF  FE9
0BFA0:  MOVLW  04
0BFA2:  ADDWFC 03,W
0BFA4:  MOVWF  FEA
0BFA6:  MOVFF  FEF,450
0BFAA:  MOVLW  8E
0BFAC:  MOVWF  FF6
0BFAE:  MOVLW  10
0BFB0:  MOVWF  FF7
0BFB2:  MOVLW  00
0BFB4:  MOVWF  FF8
0BFB6:  MOVLW  0E
0BFB8:  MOVWF  x56
0BFBA:  MOVLB  0
0BFBC:  CALL   4CA0
0BFC0:  MOVFF  450,456
0BFC4:  MOVLW  1B
0BFC6:  MOVLB  4
0BFC8:  MOVWF  x57
0BFCA:  MOVLB  0
0BFCC:  CALL   4CFE
0BFD0:  MOVLW  22
0BFD2:  BTFSS  F9E.4
0BFD4:  BRA    BFD2
0BFD6:  MOVWF  FAD
....................          SendDataDisplay(); 
0BFD8:  CALL   3CD8
0BFDC:  MOVLB  3
....................       } 
....................        
....................       if(RIGHT){ 
0BFDE:  BSF    F93.1
0BFE0:  BTFSC  F81.1
0BFE2:  BRA    BFFA
....................          delay_ms(100); 
0BFE4:  MOVLW  64
0BFE6:  MOVLB  4
0BFE8:  MOVWF  x69
0BFEA:  MOVLB  0
0BFEC:  CALL   1B4A
....................          if(RIGHT){ 
0BFF0:  BSF    F93.1
0BFF2:  BTFSC  F81.1
0BFF4:  BRA    BFFC
....................             CicloLibre++; 
0BFF6:  MOVLB  3
0BFF8:  INCF   x48,F
0BFFA:  MOVLB  0
....................          } 
....................       }       
....................        
....................       if(CicloLibre<1) 
0BFFC:  MOVLB  3
0BFFE:  MOVF   x48,F
0C000:  BNZ   C006
....................          CicloLibre=1; 
0C002:  MOVLW  01
0C004:  MOVWF  x48
....................       if(CicloLibre>4) 
0C006:  MOVF   x48,W
0C008:  SUBLW  04
0C00A:  BC    C010
....................          CicloLibre=4; 
0C00C:  MOVLW  04
0C00E:  MOVWF  x48
....................        
....................       if(RX_Buffer[4]==0xa0 || LEFT){//a0, Menu Principal 
0C010:  MOVF   34,W
0C012:  SUBLW  A0
0C014:  BZ    C01C
0C016:  BSF    F93.0
0C018:  BTFSC  F81.0
0C01A:  BRA    C054
....................          delay_ms(100); 
0C01C:  MOVLW  64
0C01E:  MOVLB  4
0C020:  MOVWF  x69
0C022:  MOVLB  0
0C024:  CALL   1B4A
....................          if(RX_Buffer[4]==0xa0 || LEFT){ 
0C028:  MOVF   34,W
0C02A:  SUBLW  A0
0C02C:  BZ    C034
0C02E:  BSF    F93.0
0C030:  BTFSC  F81.0
0C032:  BRA    C052
....................             printf("page MenuPrincipal"); 
0C034:  MOVLW  A0
0C036:  MOVWF  FF6
0C038:  MOVLW  10
0C03A:  MOVWF  FF7
0C03C:  MOVLW  00
0C03E:  MOVWF  FF8
0C040:  CALL   3CA6
....................             SendDataDisplay();      
0C044:  CALL   3CD8
....................             PantallaPrincipal=0; 
0C048:  MOVLB  2
0C04A:  CLRF   xE5
....................             Op=OFF; 
0C04C:  MOVLB  0
0C04E:  BCF    xAA.4
....................             Op2=OFF; 
0C050:  BCF    xAA.5
0C052:  MOVLB  3
....................          } 
....................       } 
....................        
....................       if(RX_Buffer[4]==0x20 && CicloLibre>0){//20, Temperatura 
0C054:  MOVF   34,W
0C056:  SUBLW  20
0C058:  BNZ   C096
0C05A:  MOVF   x48,F
0C05C:  BZ    C096
....................             printf("page Temperatura"); 
0C05E:  MOVLW  B4
0C060:  MOVWF  FF6
0C062:  MOVLW  10
0C064:  MOVWF  FF7
0C066:  MOVLW  00
0C068:  MOVWF  FF8
0C06A:  MOVLB  0
0C06C:  CALL   3CA6
....................             SendDataDisplay();      
0C070:  CALL   3CD8
....................             Setpoint=CiclosPersonalizados[CicloLibre-1].Temperatura; 
0C074:  MOVLW  01
0C076:  MOVLB  3
0C078:  SUBWF  x48,W
0C07A:  MULLW  0A
0C07C:  MOVF   FF3,W
0C07E:  MOVLB  4
0C080:  CLRF   x51
0C082:  MOVWF  x50
0C084:  MOVLW  28
0C086:  ADDWF  x50,W
0C088:  MOVWF  FE9
0C08A:  MOVLW  04
0C08C:  ADDWFC x51,W
0C08E:  MOVWF  FEA
0C090:  MOVFF  FEF,36E
0C094:  MOVLB  3
....................       } 
....................        
....................       if(RX_Buffer[4]==0x30 && CicloLibre>0){//30, Test 
0C096:  MOVF   34,W
0C098:  SUBLW  30
0C09A:  BTFSS  FD8.2
0C09C:  BRA    C1B8
0C09E:  MOVF   x48,F
0C0A0:  BTFSC  FD8.2
0C0A2:  BRA    C1B8
....................             printf("page TiempoEst"); 
0C0A4:  MOVLW  C6
0C0A6:  MOVWF  FF6
0C0A8:  MOVLW  10
0C0AA:  MOVWF  FF7
0C0AC:  MOVLW  00
0C0AE:  MOVWF  FF8
0C0B0:  MOVLB  0
0C0B2:  CALL   3CA6
....................             SendDataDisplay();      
0C0B6:  CALL   3CD8
....................             Testerilizacionp[3]=CiclosPersonalizados[CicloLibre-1].Minutoest/10; 
0C0BA:  MOVLW  01
0C0BC:  MOVLB  3
0C0BE:  SUBWF  x48,W
0C0C0:  MULLW  0A
0C0C2:  MOVF   FF3,W
0C0C4:  MOVLB  4
0C0C6:  CLRF   x51
0C0C8:  MOVWF  x50
0C0CA:  MOVLW  09
0C0CC:  ADDWF  x50,W
0C0CE:  MOVWF  01
0C0D0:  MOVLW  00
0C0D2:  ADDWFC x51,W
0C0D4:  MOVWF  03
0C0D6:  MOVF   01,W
0C0D8:  ADDLW  28
0C0DA:  MOVWF  FE9
0C0DC:  MOVLW  04
0C0DE:  ADDWFC 03,W
0C0E0:  MOVWF  FEA
0C0E2:  MOVFF  FEF,45A
0C0E6:  MOVLW  0A
0C0E8:  MOVWF  x5B
0C0EA:  MOVLB  0
0C0EC:  CALL   4CD2
0C0F0:  MOVFF  01,C1
....................             Testerilizacionp[2]=CiclosPersonalizados[CicloLibre-1].Minutoest-(Testerilizacionp[3]*10); 
0C0F4:  MOVLW  01
0C0F6:  MOVLB  3
0C0F8:  SUBWF  x48,W
0C0FA:  MULLW  0A
0C0FC:  MOVF   FF3,W
0C0FE:  MOVLB  4
0C100:  CLRF   x51
0C102:  MOVWF  x50
0C104:  MOVLW  09
0C106:  ADDWF  x50,W
0C108:  MOVWF  01
0C10A:  MOVLW  00
0C10C:  ADDWFC x51,W
0C10E:  MOVWF  03
0C110:  MOVF   01,W
0C112:  ADDLW  28
0C114:  MOVWF  FE9
0C116:  MOVLW  04
0C118:  ADDWFC 03,W
0C11A:  MOVWF  FEA
0C11C:  MOVFF  FEF,450
0C120:  MOVFF  C1,452
0C124:  MOVLW  0A
0C126:  MOVWF  x53
0C128:  MOVLB  0
0C12A:  CALL   315A
0C12E:  MOVF   01,W
0C130:  MOVLB  4
0C132:  SUBWF  x50,W
0C134:  MOVLB  0
0C136:  MOVWF  xC0
....................             Testerilizacionp[1]=CiclosPersonalizados[CicloLibre-1].Segundoest/10; 
0C138:  MOVLW  01
0C13A:  MOVLB  3
0C13C:  SUBWF  x48,W
0C13E:  MULLW  0A
0C140:  MOVF   FF3,W
0C142:  MOVLB  4
0C144:  CLRF   x51
0C146:  MOVWF  x50
0C148:  MOVLW  03
0C14A:  ADDWF  x50,W
0C14C:  MOVWF  01
0C14E:  MOVLW  00
0C150:  ADDWFC x51,W
0C152:  MOVWF  03
0C154:  MOVF   01,W
0C156:  ADDLW  28
0C158:  MOVWF  FE9
0C15A:  MOVLW  04
0C15C:  ADDWFC 03,W
0C15E:  MOVWF  FEA
0C160:  MOVFF  FEF,45A
0C164:  MOVLW  0A
0C166:  MOVWF  x5B
0C168:  MOVLB  0
0C16A:  CALL   4CD2
0C16E:  MOVFF  01,BF
....................             Testerilizacionp[0]=CiclosPersonalizados[CicloLibre-1].Segundoest-(Testerilizacionp[1]*10); 
0C172:  MOVLW  01
0C174:  MOVLB  3
0C176:  SUBWF  x48,W
0C178:  MULLW  0A
0C17A:  MOVF   FF3,W
0C17C:  MOVLB  4
0C17E:  CLRF   x51
0C180:  MOVWF  x50
0C182:  MOVLW  03
0C184:  ADDWF  x50,W
0C186:  MOVWF  01
0C188:  MOVLW  00
0C18A:  ADDWFC x51,W
0C18C:  MOVWF  03
0C18E:  MOVF   01,W
0C190:  ADDLW  28
0C192:  MOVWF  FE9
0C194:  MOVLW  04
0C196:  ADDWFC 03,W
0C198:  MOVWF  FEA
0C19A:  MOVFF  FEF,450
0C19E:  MOVFF  BF,452
0C1A2:  MOVLW  0A
0C1A4:  MOVWF  x53
0C1A6:  MOVLB  0
0C1A8:  CALL   315A
0C1AC:  MOVF   01,W
0C1AE:  MOVLB  4
0C1B0:  SUBWF  x50,W
0C1B2:  MOVLB  0
0C1B4:  MOVWF  xBE
0C1B6:  MOVLB  3
....................       } 
....................        
....................       if(RX_Buffer[4]==0x40 && CicloLibre>0){//30, Test 
0C1B8:  MOVF   34,W
0C1BA:  SUBLW  40
0C1BC:  BTFSS  FD8.2
0C1BE:  BRA    C2DA
0C1C0:  MOVF   x48,F
0C1C2:  BTFSC  FD8.2
0C1C4:  BRA    C2DA
....................             printf("page TiempoSec"); 
0C1C6:  MOVLW  D6
0C1C8:  MOVWF  FF6
0C1CA:  MOVLW  10
0C1CC:  MOVWF  FF7
0C1CE:  MOVLW  00
0C1D0:  MOVWF  FF8
0C1D2:  MOVLB  0
0C1D4:  CALL   3CA6
....................             SendDataDisplay();      
0C1D8:  CALL   3CD8
....................             Tsecadop[3]=CiclosPersonalizados[CicloLibre-1].Minutosec/10; 
0C1DC:  MOVLW  01
0C1DE:  MOVLB  3
0C1E0:  SUBWF  x48,W
0C1E2:  MULLW  0A
0C1E4:  MOVF   FF3,W
0C1E6:  MOVLB  4
0C1E8:  CLRF   x51
0C1EA:  MOVWF  x50
0C1EC:  MOVLW  04
0C1EE:  ADDWF  x50,W
0C1F0:  MOVWF  01
0C1F2:  MOVLW  00
0C1F4:  ADDWFC x51,W
0C1F6:  MOVWF  03
0C1F8:  MOVF   01,W
0C1FA:  ADDLW  28
0C1FC:  MOVWF  FE9
0C1FE:  MOVLW  04
0C200:  ADDWFC 03,W
0C202:  MOVWF  FEA
0C204:  MOVFF  FEF,45A
0C208:  MOVLW  0A
0C20A:  MOVWF  x5B
0C20C:  MOVLB  0
0C20E:  CALL   4CD2
0C212:  MOVFF  01,CA
....................             Tsecadop[2]=CiclosPersonalizados[CicloLibre-1].Minutosec-(Tsecadop[3]*10); 
0C216:  MOVLW  01
0C218:  MOVLB  3
0C21A:  SUBWF  x48,W
0C21C:  MULLW  0A
0C21E:  MOVF   FF3,W
0C220:  MOVLB  4
0C222:  CLRF   x51
0C224:  MOVWF  x50
0C226:  MOVLW  04
0C228:  ADDWF  x50,W
0C22A:  MOVWF  01
0C22C:  MOVLW  00
0C22E:  ADDWFC x51,W
0C230:  MOVWF  03
0C232:  MOVF   01,W
0C234:  ADDLW  28
0C236:  MOVWF  FE9
0C238:  MOVLW  04
0C23A:  ADDWFC 03,W
0C23C:  MOVWF  FEA
0C23E:  MOVFF  FEF,450
0C242:  MOVFF  CA,452
0C246:  MOVLW  0A
0C248:  MOVWF  x53
0C24A:  MOVLB  0
0C24C:  CALL   315A
0C250:  MOVF   01,W
0C252:  MOVLB  4
0C254:  SUBWF  x50,W
0C256:  MOVLB  0
0C258:  MOVWF  xC9
....................             Tsecadop[1]=CiclosPersonalizados[CicloLibre-1].Segundosec/10; 
0C25A:  MOVLW  01
0C25C:  MOVLB  3
0C25E:  SUBWF  x48,W
0C260:  MULLW  0A
0C262:  MOVF   FF3,W
0C264:  MOVLB  4
0C266:  CLRF   x51
0C268:  MOVWF  x50
0C26A:  MOVLW  05
0C26C:  ADDWF  x50,W
0C26E:  MOVWF  01
0C270:  MOVLW  00
0C272:  ADDWFC x51,W
0C274:  MOVWF  03
0C276:  MOVF   01,W
0C278:  ADDLW  28
0C27A:  MOVWF  FE9
0C27C:  MOVLW  04
0C27E:  ADDWFC 03,W
0C280:  MOVWF  FEA
0C282:  MOVFF  FEF,45A
0C286:  MOVLW  0A
0C288:  MOVWF  x5B
0C28A:  MOVLB  0
0C28C:  CALL   4CD2
0C290:  MOVFF  01,C8
....................             Tsecadop[0]=CiclosPersonalizados[CicloLibre-1].Segundosec-(Tsecadop[1]*10); 
0C294:  MOVLW  01
0C296:  MOVLB  3
0C298:  SUBWF  x48,W
0C29A:  MULLW  0A
0C29C:  MOVF   FF3,W
0C29E:  MOVLB  4
0C2A0:  CLRF   x51
0C2A2:  MOVWF  x50
0C2A4:  MOVLW  05
0C2A6:  ADDWF  x50,W
0C2A8:  MOVWF  01
0C2AA:  MOVLW  00
0C2AC:  ADDWFC x51,W
0C2AE:  MOVWF  03
0C2B0:  MOVF   01,W
0C2B2:  ADDLW  28
0C2B4:  MOVWF  FE9
0C2B6:  MOVLW  04
0C2B8:  ADDWFC 03,W
0C2BA:  MOVWF  FEA
0C2BC:  MOVFF  FEF,450
0C2C0:  MOVFF  C8,452
0C2C4:  MOVLW  0A
0C2C6:  MOVWF  x53
0C2C8:  MOVLB  0
0C2CA:  CALL   315A
0C2CE:  MOVF   01,W
0C2D0:  MOVLB  4
0C2D2:  SUBWF  x50,W
0C2D4:  MOVLB  0
0C2D6:  MOVWF  xC7
0C2D8:  MOVLB  3
....................       } 
....................        
....................       if(RX_Buffer[4]==0x80 && CicloLibre>0){//80, NivelDesfogue          
0C2DA:  MOVF   34,W
0C2DC:  SUBLW  80
0C2DE:  BNZ   C32E
0C2E0:  MOVF   x48,F
0C2E2:  BZ    C32E
....................             printf("page Nivel"); 
0C2E4:  MOVLW  E6
0C2E6:  MOVWF  FF6
0C2E8:  MOVLW  10
0C2EA:  MOVWF  FF7
0C2EC:  MOVLW  00
0C2EE:  MOVWF  FF8
0C2F0:  MOVLB  0
0C2F2:  CALL   3CA6
....................             SendDataDisplay();      
0C2F6:  CALL   3CD8
....................             Nivel=CiclosPersonalizados[CicloLibre-1].NivelDesfogue;          
0C2FA:  MOVLW  01
0C2FC:  MOVLB  3
0C2FE:  SUBWF  x48,W
0C300:  MULLW  0A
0C302:  MOVF   FF3,W
0C304:  MOVLB  4
0C306:  CLRF   x51
0C308:  MOVWF  x50
0C30A:  MOVLW  08
0C30C:  ADDWF  x50,W
0C30E:  MOVWF  01
0C310:  MOVLW  00
0C312:  ADDWFC x51,W
0C314:  MOVWF  03
0C316:  MOVF   01,W
0C318:  ADDLW  28
0C31A:  MOVWF  FE9
0C31C:  MOVLW  04
0C31E:  ADDWFC 03,W
0C320:  MOVWF  FEA
0C322:  MOVF   FEF,W
0C324:  CLRF   03
0C326:  MOVLB  3
0C328:  MOVWF  x7C
0C32A:  MOVFF  03,37D
....................       } 
....................        
....................       if((RX_Buffer[4]==0x70 || UP)&& CicloLibre>0){//70, Iniciar Ciclo 
0C32E:  MOVF   34,W
0C330:  SUBLW  70
0C332:  BZ    C33A
0C334:  BSF    F93.3
0C336:  BTFSC  F81.3
0C338:  BRA    C850
0C33A:  MOVF   x48,F
0C33C:  BTFSC  FD8.2
0C33E:  BRA    C850
....................          delay_ms(100); 
0C340:  MOVLW  64
0C342:  MOVLB  4
0C344:  MOVWF  x69
0C346:  MOVLB  0
0C348:  CALL   1B4A
....................          if((RX_Buffer[4]==0x70 || UP)&& CicloLibre>0){ 
0C34C:  MOVF   34,W
0C34E:  SUBLW  70
0C350:  BZ    C358
0C352:  BSF    F93.3
0C354:  BTFSC  F81.3
0C356:  BRA    C84E
0C358:  MOVLB  3
0C35A:  MOVF   x48,F
0C35C:  BTFSS  FD8.2
0C35E:  BRA    C364
0C360:  MOVLB  0
0C362:  BRA    C84E
....................             printf("page Funcionamiento"); 
0C364:  MOVLW  F2
0C366:  MOVWF  FF6
0C368:  MOVLW  10
0C36A:  MOVWF  FF7
0C36C:  MOVLW  00
0C36E:  MOVWF  FF8
0C370:  MOVLB  0
0C372:  CALL   3CA6
....................             SendDataDisplay();        
0C376:  CALL   3CD8
....................             Libre=ON; 
0C37A:  BSF    xAC.0
....................             if(CiclosPersonalizados[CicloLibre-1].NivelDesfogue>5){ 
0C37C:  MOVLW  01
0C37E:  MOVLB  3
0C380:  SUBWF  x48,W
0C382:  MULLW  0A
0C384:  MOVF   FF3,W
0C386:  MOVLB  4
0C388:  CLRF   x51
0C38A:  MOVWF  x50
0C38C:  MOVLW  08
0C38E:  ADDWF  x50,W
0C390:  MOVWF  01
0C392:  MOVLW  00
0C394:  ADDWFC x51,W
0C396:  MOVWF  03
0C398:  MOVF   01,W
0C39A:  ADDLW  28
0C39C:  MOVWF  FE9
0C39E:  MOVLW  04
0C3A0:  ADDWFC 03,W
0C3A2:  MOVWF  FEA
0C3A4:  MOVF   FEF,W
0C3A6:  SUBLW  05
0C3A8:  BTFSC  FD8.0
0C3AA:  BRA    C5DA
....................                ConfiguraCiclo(extraeDecima(CiclosPersonalizados[CicloLibre-1].Segundoest), 
....................                            CiclosPersonalizados[CicloLibre-1].Segundoest/10, 
....................                            extraeDecima(CiclosPersonalizados[CicloLibre-1].Minutoest), 
....................                            CiclosPersonalizados[CicloLibre-1].Minutoest/10, 
....................                            extraeDecima(CiclosPersonalizados[CicloLibre-1].Segundosec), 
....................                            CiclosPersonalizados[CicloLibre-1].Segundosec/10, 
....................                            extraeDecima(CiclosPersonalizados[CicloLibre-1].Minutosec), 
....................                            CiclosPersonalizados[CicloLibre-1].Minutosec/10,0,CicloLibre+4,CiclosPersonalizados[CicloLibre-1].Temperatura);             
0C3AC:  MOVLW  01
0C3AE:  MOVLB  3
0C3B0:  SUBWF  x48,W
0C3B2:  MULLW  0A
0C3B4:  MOVF   FF3,W
0C3B6:  MOVLB  4
0C3B8:  CLRF   x51
0C3BA:  MOVWF  x50
0C3BC:  MOVLW  03
0C3BE:  ADDWF  x50,W
0C3C0:  MOVWF  01
0C3C2:  MOVLW  00
0C3C4:  ADDWFC x51,W
0C3C6:  MOVWF  03
0C3C8:  MOVF   01,W
0C3CA:  ADDLW  28
0C3CC:  MOVWF  FE9
0C3CE:  MOVLW  04
0C3D0:  ADDWFC 03,W
0C3D2:  MOVWF  FEA
0C3D4:  MOVFF  FEF,450
0C3D8:  MOVFF  450,457
0C3DC:  MOVLB  0
0C3DE:  CALL   59BC
0C3E2:  MOVFF  01,450
0C3E6:  MOVLW  01
0C3E8:  MOVLB  3
0C3EA:  SUBWF  x48,W
0C3EC:  MULLW  0A
0C3EE:  MOVF   FF3,W
0C3F0:  MOVLB  4
0C3F2:  CLRF   x52
0C3F4:  MOVWF  x51
0C3F6:  MOVLW  03
0C3F8:  ADDWF  x51,W
0C3FA:  MOVWF  01
0C3FC:  MOVLW  00
0C3FE:  ADDWFC x52,W
0C400:  MOVWF  03
0C402:  MOVF   01,W
0C404:  ADDLW  28
0C406:  MOVWF  FE9
0C408:  MOVLW  04
0C40A:  ADDWFC 03,W
0C40C:  MOVWF  FEA
0C40E:  MOVFF  FEF,45A
0C412:  MOVLW  0A
0C414:  MOVWF  x5B
0C416:  MOVLB  0
0C418:  CALL   4CD2
0C41C:  MOVFF  01,451
0C420:  MOVLW  01
0C422:  MOVLB  3
0C424:  SUBWF  x48,W
0C426:  MULLW  0A
0C428:  MOVF   FF3,W
0C42A:  MOVLB  4
0C42C:  CLRF   x53
0C42E:  MOVWF  x52
0C430:  MOVLW  09
0C432:  ADDWF  x52,W
0C434:  MOVWF  01
0C436:  MOVLW  00
0C438:  ADDWFC x53,W
0C43A:  MOVWF  03
0C43C:  MOVF   01,W
0C43E:  ADDLW  28
0C440:  MOVWF  FE9
0C442:  MOVLW  04
0C444:  ADDWFC 03,W
0C446:  MOVWF  FEA
0C448:  MOVFF  FEF,452
0C44C:  MOVFF  452,457
0C450:  MOVLB  0
0C452:  CALL   59BC
0C456:  MOVFF  01,452
0C45A:  MOVLW  01
0C45C:  MOVLB  3
0C45E:  SUBWF  x48,W
0C460:  MULLW  0A
0C462:  MOVF   FF3,W
0C464:  MOVLB  4
0C466:  CLRF   x54
0C468:  MOVWF  x53
0C46A:  MOVLW  09
0C46C:  ADDWF  x53,W
0C46E:  MOVWF  01
0C470:  MOVLW  00
0C472:  ADDWFC x54,W
0C474:  MOVWF  03
0C476:  MOVF   01,W
0C478:  ADDLW  28
0C47A:  MOVWF  FE9
0C47C:  MOVLW  04
0C47E:  ADDWFC 03,W
0C480:  MOVWF  FEA
0C482:  MOVFF  FEF,45A
0C486:  MOVLW  0A
0C488:  MOVWF  x5B
0C48A:  MOVLB  0
0C48C:  CALL   4CD2
0C490:  MOVFF  01,453
0C494:  MOVLW  01
0C496:  MOVLB  3
0C498:  SUBWF  x48,W
0C49A:  MULLW  0A
0C49C:  MOVF   FF3,W
0C49E:  MOVLB  4
0C4A0:  CLRF   x55
0C4A2:  MOVWF  x54
0C4A4:  MOVLW  05
0C4A6:  ADDWF  x54,W
0C4A8:  MOVWF  01
0C4AA:  MOVLW  00
0C4AC:  ADDWFC x55,W
0C4AE:  MOVWF  03
0C4B0:  MOVF   01,W
0C4B2:  ADDLW  28
0C4B4:  MOVWF  FE9
0C4B6:  MOVLW  04
0C4B8:  ADDWFC 03,W
0C4BA:  MOVWF  FEA
0C4BC:  MOVFF  FEF,454
0C4C0:  MOVFF  454,457
0C4C4:  MOVLB  0
0C4C6:  CALL   59BC
0C4CA:  MOVFF  01,454
0C4CE:  MOVLW  01
0C4D0:  MOVLB  3
0C4D2:  SUBWF  x48,W
0C4D4:  MULLW  0A
0C4D6:  MOVF   FF3,W
0C4D8:  MOVLB  4
0C4DA:  CLRF   x56
0C4DC:  MOVWF  x55
0C4DE:  MOVLW  05
0C4E0:  ADDWF  x55,W
0C4E2:  MOVWF  01
0C4E4:  MOVLW  00
0C4E6:  ADDWFC x56,W
0C4E8:  MOVWF  03
0C4EA:  MOVF   01,W
0C4EC:  ADDLW  28
0C4EE:  MOVWF  FE9
0C4F0:  MOVLW  04
0C4F2:  ADDWFC 03,W
0C4F4:  MOVWF  FEA
0C4F6:  MOVFF  FEF,45A
0C4FA:  MOVLW  0A
0C4FC:  MOVWF  x5B
0C4FE:  MOVLB  0
0C500:  CALL   4CD2
0C504:  MOVFF  01,455
0C508:  MOVLW  01
0C50A:  MOVLB  3
0C50C:  SUBWF  x48,W
0C50E:  MULLW  0A
0C510:  MOVF   FF3,W
0C512:  MOVLB  4
0C514:  CLRF   x57
0C516:  MOVWF  x56
0C518:  MOVLW  04
0C51A:  ADDWF  x56,W
0C51C:  MOVWF  01
0C51E:  MOVLW  00
0C520:  ADDWFC x57,W
0C522:  MOVWF  03
0C524:  MOVF   01,W
0C526:  ADDLW  28
0C528:  MOVWF  FE9
0C52A:  MOVLW  04
0C52C:  ADDWFC 03,W
0C52E:  MOVWF  FEA
0C530:  MOVFF  FEF,456
0C534:  MOVFF  456,457
0C538:  MOVLB  0
0C53A:  CALL   59BC
0C53E:  MOVFF  01,456
0C542:  MOVLW  01
0C544:  MOVLB  3
0C546:  SUBWF  x48,W
0C548:  MULLW  0A
0C54A:  MOVF   FF3,W
0C54C:  MOVLB  4
0C54E:  CLRF   x58
0C550:  MOVWF  x57
0C552:  MOVLW  04
0C554:  ADDWF  x57,W
0C556:  MOVWF  01
0C558:  MOVLW  00
0C55A:  ADDWFC x58,W
0C55C:  MOVWF  03
0C55E:  MOVF   01,W
0C560:  ADDLW  28
0C562:  MOVWF  FE9
0C564:  MOVLW  04
0C566:  ADDWFC 03,W
0C568:  MOVWF  FEA
0C56A:  MOVFF  FEF,45A
0C56E:  MOVLW  0A
0C570:  MOVWF  x5B
0C572:  MOVLB  0
0C574:  CALL   4CD2
0C578:  MOVFF  01,457
0C57C:  MOVLW  04
0C57E:  MOVLB  3
0C580:  ADDWF  x48,W
0C582:  MOVLB  4
0C584:  MOVWF  x58
0C586:  MOVLW  01
0C588:  MOVLB  3
0C58A:  SUBWF  x48,W
0C58C:  MULLW  0A
0C58E:  MOVF   FF3,W
0C590:  MOVLB  4
0C592:  CLRF   x5A
0C594:  MOVWF  x59
0C596:  MOVLW  28
0C598:  ADDWF  x59,W
0C59A:  MOVWF  FE9
0C59C:  MOVLW  04
0C59E:  ADDWFC x5A,W
0C5A0:  MOVWF  FEA
0C5A2:  MOVFF  FEF,459
0C5A6:  MOVFF  450,45A
0C5AA:  MOVFF  451,45B
0C5AE:  MOVFF  452,45C
0C5B2:  MOVFF  453,45D
0C5B6:  MOVFF  454,45E
0C5BA:  MOVFF  455,45F
0C5BE:  MOVFF  456,460
0C5C2:  MOVFF  01,461
0C5C6:  CLRF   x62
0C5C8:  MOVFF  458,463
0C5CC:  MOVFF  459,464
0C5D0:  MOVLB  0
0C5D2:  CALL   567A
....................             }else{ 
0C5D6:  BRA    C84E
0C5D8:  MOVLB  4
....................                ConfiguraCiclo(extraeDecima(CiclosPersonalizados[CicloLibre-1].Segundoest), 
....................                            CiclosPersonalizados[CicloLibre-1].Segundoest/10, 
....................                            extraeDecima(CiclosPersonalizados[CicloLibre-1].Minutoest), 
....................                            CiclosPersonalizados[CicloLibre-1].Minutoest/10, 
....................                            extraeDecima(CiclosPersonalizados[CicloLibre-1].Segundosec), 
....................                            CiclosPersonalizados[CicloLibre-1].Segundosec/10, 
....................                            extraeDecima(CiclosPersonalizados[CicloLibre-1].Minutosec), 
....................                            CiclosPersonalizados[CicloLibre-1].Minutosec/10,1,CicloLibre+4,CiclosPersonalizados[CicloLibre-1].Temperatura);             
0C5DA:  MOVLW  01
0C5DC:  MOVLB  3
0C5DE:  SUBWF  x48,W
0C5E0:  MULLW  0A
0C5E2:  MOVF   FF3,W
0C5E4:  MOVLB  4
0C5E6:  CLRF   x51
0C5E8:  MOVWF  x50
0C5EA:  MOVLW  03
0C5EC:  ADDWF  x50,W
0C5EE:  MOVWF  01
0C5F0:  MOVLW  00
0C5F2:  ADDWFC x51,W
0C5F4:  MOVWF  03
0C5F6:  MOVF   01,W
0C5F8:  ADDLW  28
0C5FA:  MOVWF  FE9
0C5FC:  MOVLW  04
0C5FE:  ADDWFC 03,W
0C600:  MOVWF  FEA
0C602:  MOVFF  FEF,450
0C606:  MOVFF  450,457
0C60A:  MOVLB  0
0C60C:  CALL   59BC
0C610:  MOVFF  01,450
0C614:  MOVLW  01
0C616:  MOVLB  3
0C618:  SUBWF  x48,W
0C61A:  MULLW  0A
0C61C:  MOVF   FF3,W
0C61E:  MOVLB  4
0C620:  CLRF   x52
0C622:  MOVWF  x51
0C624:  MOVLW  03
0C626:  ADDWF  x51,W
0C628:  MOVWF  01
0C62A:  MOVLW  00
0C62C:  ADDWFC x52,W
0C62E:  MOVWF  03
0C630:  MOVF   01,W
0C632:  ADDLW  28
0C634:  MOVWF  FE9
0C636:  MOVLW  04
0C638:  ADDWFC 03,W
0C63A:  MOVWF  FEA
0C63C:  MOVFF  FEF,45A
0C640:  MOVLW  0A
0C642:  MOVWF  x5B
0C644:  MOVLB  0
0C646:  CALL   4CD2
0C64A:  MOVFF  01,451
0C64E:  MOVLW  01
0C650:  MOVLB  3
0C652:  SUBWF  x48,W
0C654:  MULLW  0A
0C656:  MOVF   FF3,W
0C658:  MOVLB  4
0C65A:  CLRF   x53
0C65C:  MOVWF  x52
0C65E:  MOVLW  09
0C660:  ADDWF  x52,W
0C662:  MOVWF  01
0C664:  MOVLW  00
0C666:  ADDWFC x53,W
0C668:  MOVWF  03
0C66A:  MOVF   01,W
0C66C:  ADDLW  28
0C66E:  MOVWF  FE9
0C670:  MOVLW  04
0C672:  ADDWFC 03,W
0C674:  MOVWF  FEA
0C676:  MOVFF  FEF,452
0C67A:  MOVFF  452,457
0C67E:  MOVLB  0
0C680:  CALL   59BC
0C684:  MOVFF  01,452
0C688:  MOVLW  01
0C68A:  MOVLB  3
0C68C:  SUBWF  x48,W
0C68E:  MULLW  0A
0C690:  MOVF   FF3,W
0C692:  MOVLB  4
0C694:  CLRF   x54
0C696:  MOVWF  x53
0C698:  MOVLW  09
0C69A:  ADDWF  x53,W
0C69C:  MOVWF  01
0C69E:  MOVLW  00
0C6A0:  ADDWFC x54,W
0C6A2:  MOVWF  03
0C6A4:  MOVF   01,W
0C6A6:  ADDLW  28
0C6A8:  MOVWF  FE9
0C6AA:  MOVLW  04
0C6AC:  ADDWFC 03,W
0C6AE:  MOVWF  FEA
0C6B0:  MOVFF  FEF,45A
0C6B4:  MOVLW  0A
0C6B6:  MOVWF  x5B
0C6B8:  MOVLB  0
0C6BA:  CALL   4CD2
0C6BE:  MOVFF  01,453
0C6C2:  MOVLW  01
0C6C4:  MOVLB  3
0C6C6:  SUBWF  x48,W
0C6C8:  MULLW  0A
0C6CA:  MOVF   FF3,W
0C6CC:  MOVLB  4
0C6CE:  CLRF   x55
0C6D0:  MOVWF  x54
0C6D2:  MOVLW  05
0C6D4:  ADDWF  x54,W
0C6D6:  MOVWF  01
0C6D8:  MOVLW  00
0C6DA:  ADDWFC x55,W
0C6DC:  MOVWF  03
0C6DE:  MOVF   01,W
0C6E0:  ADDLW  28
0C6E2:  MOVWF  FE9
0C6E4:  MOVLW  04
0C6E6:  ADDWFC 03,W
0C6E8:  MOVWF  FEA
0C6EA:  MOVFF  FEF,454
0C6EE:  MOVFF  454,457
0C6F2:  MOVLB  0
0C6F4:  CALL   59BC
0C6F8:  MOVFF  01,454
0C6FC:  MOVLW  01
0C6FE:  MOVLB  3
0C700:  SUBWF  x48,W
0C702:  MULLW  0A
0C704:  MOVF   FF3,W
0C706:  MOVLB  4
0C708:  CLRF   x56
0C70A:  MOVWF  x55
0C70C:  MOVLW  05
0C70E:  ADDWF  x55,W
0C710:  MOVWF  01
0C712:  MOVLW  00
0C714:  ADDWFC x56,W
0C716:  MOVWF  03
0C718:  MOVF   01,W
0C71A:  ADDLW  28
0C71C:  MOVWF  FE9
0C71E:  MOVLW  04
0C720:  ADDWFC 03,W
0C722:  MOVWF  FEA
0C724:  MOVFF  FEF,45A
0C728:  MOVLW  0A
0C72A:  MOVWF  x5B
0C72C:  MOVLB  0
0C72E:  CALL   4CD2
0C732:  MOVFF  01,455
0C736:  MOVLW  01
0C738:  MOVLB  3
0C73A:  SUBWF  x48,W
0C73C:  MULLW  0A
0C73E:  MOVF   FF3,W
0C740:  MOVLB  4
0C742:  CLRF   x57
0C744:  MOVWF  x56
0C746:  MOVLW  04
0C748:  ADDWF  x56,W
0C74A:  MOVWF  01
0C74C:  MOVLW  00
0C74E:  ADDWFC x57,W
0C750:  MOVWF  03
0C752:  MOVF   01,W
0C754:  ADDLW  28
0C756:  MOVWF  FE9
0C758:  MOVLW  04
0C75A:  ADDWFC 03,W
0C75C:  MOVWF  FEA
0C75E:  MOVFF  FEF,456
0C762:  MOVFF  456,457
0C766:  MOVLB  0
0C768:  CALL   59BC
0C76C:  MOVFF  01,456
0C770:  MOVLW  01
0C772:  MOVLB  3
0C774:  SUBWF  x48,W
0C776:  MULLW  0A
0C778:  MOVF   FF3,W
0C77A:  MOVLB  4
0C77C:  CLRF   x58
0C77E:  MOVWF  x57
0C780:  MOVLW  04
0C782:  ADDWF  x57,W
0C784:  MOVWF  01
0C786:  MOVLW  00
0C788:  ADDWFC x58,W
0C78A:  MOVWF  03
0C78C:  MOVF   01,W
0C78E:  ADDLW  28
0C790:  MOVWF  FE9
0C792:  MOVLW  04
0C794:  ADDWFC 03,W
0C796:  MOVWF  FEA
0C798:  MOVFF  FEF,45A
0C79C:  MOVLW  0A
0C79E:  MOVWF  x5B
0C7A0:  MOVLB  0
0C7A2:  CALL   4CD2
0C7A6:  MOVFF  01,457
0C7AA:  MOVLW  04
0C7AC:  MOVLB  3
0C7AE:  ADDWF  x48,W
0C7B0:  MOVLB  4
0C7B2:  MOVWF  x58
0C7B4:  MOVLW  01
0C7B6:  MOVLB  3
0C7B8:  SUBWF  x48,W
0C7BA:  MULLW  0A
0C7BC:  MOVF   FF3,W
0C7BE:  MOVLB  4
0C7C0:  CLRF   x5A
0C7C2:  MOVWF  x59
0C7C4:  MOVLW  28
0C7C6:  ADDWF  x59,W
0C7C8:  MOVWF  FE9
0C7CA:  MOVLW  04
0C7CC:  ADDWFC x5A,W
0C7CE:  MOVWF  FEA
0C7D0:  MOVFF  FEF,459
0C7D4:  MOVFF  450,45A
0C7D8:  MOVFF  451,45B
0C7DC:  MOVFF  452,45C
0C7E0:  MOVFF  453,45D
0C7E4:  MOVFF  454,45E
0C7E8:  MOVFF  455,45F
0C7EC:  MOVFF  456,460
0C7F0:  MOVFF  01,461
0C7F4:  MOVLW  01
0C7F6:  MOVWF  x62
0C7F8:  MOVFF  458,463
0C7FC:  MOVFF  459,464
0C800:  MOVLB  0
0C802:  CALL   567A
....................                NivelSeleccionado=4995*CiclosPersonalizados[CicloLibre-1].NivelDesfogue; 
0C806:  MOVLW  01
0C808:  MOVLB  3
0C80A:  SUBWF  x48,W
0C80C:  MULLW  0A
0C80E:  MOVF   FF3,W
0C810:  MOVLB  4
0C812:  CLRF   x51
0C814:  MOVWF  x50
0C816:  MOVLW  08
0C818:  ADDWF  x50,W
0C81A:  MOVWF  01
0C81C:  MOVLW  00
0C81E:  ADDWFC x51,W
0C820:  MOVWF  03
0C822:  MOVF   01,W
0C824:  ADDLW  28
0C826:  MOVWF  FE9
0C828:  MOVLW  04
0C82A:  ADDWFC 03,W
0C82C:  MOVWF  FEA
0C82E:  MOVFF  FEF,450
0C832:  MOVLW  13
0C834:  MOVWF  x6C
0C836:  MOVLW  83
0C838:  MOVWF  x6B
0C83A:  CLRF   x6E
0C83C:  MOVFF  450,46D
0C840:  MOVLB  0
0C842:  CALL   1F7E
0C846:  MOVFF  02,387
0C84A:  MOVFF  01,386
0C84E:  MOVLB  3
....................             } 
....................          } 
....................       } 
....................    } 
.................... //_--------------------------------------------------------------------------------------------------------------------------------------------------------        
....................  
.................... //_--------------------------------------------------------------------------------------------------------------------------------------------------------       
....................    if(Menu==12){//Menu de Visualizacion de Ciclos Realizados 
0C850:  MOVF   x68,W
0C852:  SUBLW  0C
0C854:  BTFSS  FD8.2
0C856:  BRA    CE58
....................       //printf("fecha.txt=\"Fecha:%02u/%02u/20%02u    Hora: %02u:%02u\"",Dia,Mes,Year,Hora,Minuto); 
....................       //SendDataDisplay(); 
....................       GuardaEEPROM=OFF; 
0C858:  MOVLB  0
0C85A:  BCF    xAB.0
....................       /*  
....................       i2c_start();            // Comienzo de la comunicacin 
....................       i2c_write(0xA0);   // Direccin del esclavo en el bus I2C 
....................       i2c_write(9);    // Posicin de donde se leer el dato en el esclavo 
....................       i2c_write(0);    // Posicin de donde se leer el dato en el esclavo 
....................       i2c_start();            // Reinicio 
....................       i2c_write(direccion+1); // Direccin del esclavo en modo lectura 
....................       dato=i2c_read(0);       // Lectura del dato 
....................       i2c_stop(); 
....................       */       
....................        
....................       if(RX_Buffer[6]==0x01){//01, Ciclos 
0C85C:  DECFSZ 36,W
0C85E:  BRA    C874
....................          printf("page MenuPrincipal"); 
0C860:  MOVLW  06
0C862:  MOVWF  FF6
0C864:  MOVLW  11
0C866:  MOVWF  FF7
0C868:  MOVLW  00
0C86A:  MOVWF  FF8
0C86C:  CALL   3CA6
....................          SendDataDisplay();      
0C870:  CALL   3CD8
....................       } 
....................        
....................       if(RX_Buffer[6]==0x02 || LEFT){//02, Izquierda 
0C874:  MOVF   36,W
0C876:  SUBLW  02
0C878:  BZ    C880
0C87A:  BSF    F93.0
0C87C:  BTFSC  F81.0
0C87E:  BRA    C8E2
....................          RX_Buffer[6]=0x00;   
0C880:  CLRF   36
....................          RX_Buffer2[6]=0x00; 
0C882:  CLRF   41
....................          if(cicloVisto>0) 
0C884:  MOVLB  2
0C886:  MOVF   xEE,F
0C888:  BNZ   C88E
0C88A:  MOVF   xEF,F
0C88C:  BZ    C896
....................             cicloVisto--; 
0C88E:  MOVF   xEE,W
0C890:  BTFSC  FD8.2
0C892:  DECF   xEF,F
0C894:  DECF   xEE,F
....................          printf("h0.val=%Lu",cicloVisto+1); 
0C896:  MOVLW  01
0C898:  ADDWF  xEE,W
0C89A:  MOVLB  4
0C89C:  MOVWF  x50
0C89E:  MOVLW  00
0C8A0:  MOVLB  2
0C8A2:  ADDWFC xEF,W
0C8A4:  MOVLB  4
0C8A6:  MOVWF  x51
0C8A8:  MOVLW  1A
0C8AA:  MOVWF  FF6
0C8AC:  MOVLW  11
0C8AE:  MOVWF  FF7
0C8B0:  MOVLW  00
0C8B2:  MOVWF  FF8
0C8B4:  MOVLW  07
0C8B6:  MOVWF  x56
0C8B8:  MOVLB  0
0C8BA:  CALL   4CA0
0C8BE:  MOVLW  10
0C8C0:  MOVWF  FE9
0C8C2:  MOVFF  451,457
0C8C6:  MOVFF  450,456
0C8CA:  CALL   573A
....................          SendDataDisplay();      
0C8CE:  CALL   3CD8
....................          actualizaTabla(); 
0C8D2:  CALL   5B4E
....................          delay_ms(100); 
0C8D6:  MOVLW  64
0C8D8:  MOVLB  4
0C8DA:  MOVWF  x69
0C8DC:  MOVLB  0
0C8DE:  CALL   1B4A
....................       } 
....................        
....................       if(RX_Buffer[6]==0x03 || UP){//03, Arriba 
0C8E2:  MOVF   36,W
0C8E4:  SUBLW  03
0C8E6:  BZ    C8EE
0C8E8:  BSF    F93.3
0C8EA:  BTFSC  F81.3
0C8EC:  BRA    C950
....................          RX_Buffer[6]=0x00;   
0C8EE:  CLRF   36
....................          RX_Buffer2[6]=0x00; 
0C8F0:  CLRF   41
....................          if(cicloVisualizado<28) 
0C8F2:  MOVLB  2
0C8F4:  MOVF   xF1,F
0C8F6:  BNZ   C904
0C8F8:  MOVF   xF0,W
0C8FA:  SUBLW  1B
0C8FC:  BNC   C904
....................             cicloVisualizado++; 
0C8FE:  INCF   xF0,F
0C900:  BTFSC  FD8.2
0C902:  INCF   xF1,F
....................          printf("h1.val=%Lu",cicloVisualizado+1); 
0C904:  MOVLW  01
0C906:  ADDWF  xF0,W
0C908:  MOVLB  4
0C90A:  MOVWF  x50
0C90C:  MOVLW  00
0C90E:  MOVLB  2
0C910:  ADDWFC xF1,W
0C912:  MOVLB  4
0C914:  MOVWF  x51
0C916:  MOVLW  26
0C918:  MOVWF  FF6
0C91A:  MOVLW  11
0C91C:  MOVWF  FF7
0C91E:  MOVLW  00
0C920:  MOVWF  FF8
0C922:  MOVLW  07
0C924:  MOVWF  x56
0C926:  MOVLB  0
0C928:  CALL   4CA0
0C92C:  MOVLW  10
0C92E:  MOVWF  FE9
0C930:  MOVFF  451,457
0C934:  MOVFF  450,456
0C938:  CALL   573A
....................          SendDataDisplay();     
0C93C:  CALL   3CD8
....................          actualizaTabla(); 
0C940:  CALL   5B4E
....................          delay_ms(100); 
0C944:  MOVLW  64
0C946:  MOVLB  4
0C948:  MOVWF  x69
0C94A:  MOVLB  0
0C94C:  CALL   1B4A
....................          //exportarData(); 
....................       } 
....................        
....................       if(RX_Buffer[6]==0x04 || DOWN){//04, Abajo 
0C950:  MOVF   36,W
0C952:  SUBLW  04
0C954:  BZ    C95C
0C956:  BSF    F93.2
0C958:  BTFSC  F81.2
0C95A:  BRA    C9BE
....................          RX_Buffer[6]=0x00;   
0C95C:  CLRF   36
....................          RX_Buffer2[6]=0x00; 
0C95E:  CLRF   41
....................          if(cicloVisualizado>0) 
0C960:  MOVLB  2
0C962:  MOVF   xF0,F
0C964:  BNZ   C96A
0C966:  MOVF   xF1,F
0C968:  BZ    C972
....................             cicloVisualizado--; 
0C96A:  MOVF   xF0,W
0C96C:  BTFSC  FD8.2
0C96E:  DECF   xF1,F
0C970:  DECF   xF0,F
....................          printf("h1.val=%Lu",cicloVisualizado+1); 
0C972:  MOVLW  01
0C974:  ADDWF  xF0,W
0C976:  MOVLB  4
0C978:  MOVWF  x50
0C97A:  MOVLW  00
0C97C:  MOVLB  2
0C97E:  ADDWFC xF1,W
0C980:  MOVLB  4
0C982:  MOVWF  x51
0C984:  MOVLW  32
0C986:  MOVWF  FF6
0C988:  MOVLW  11
0C98A:  MOVWF  FF7
0C98C:  MOVLW  00
0C98E:  MOVWF  FF8
0C990:  MOVLW  07
0C992:  MOVWF  x56
0C994:  MOVLB  0
0C996:  CALL   4CA0
0C99A:  MOVLW  10
0C99C:  MOVWF  FE9
0C99E:  MOVFF  451,457
0C9A2:  MOVFF  450,456
0C9A6:  CALL   573A
....................          SendDataDisplay();   
0C9AA:  CALL   3CD8
....................          actualizaTabla(); 
0C9AE:  CALL   5B4E
....................          delay_ms(100); 
0C9B2:  MOVLW  64
0C9B4:  MOVLB  4
0C9B6:  MOVWF  x69
0C9B8:  MOVLB  0
0C9BA:  CALL   1B4A
....................          //exportarData(); 
....................       } 
....................        
....................       if(RX_Buffer[6]==0x05 || RIGHT){//05, Derecha 
0C9BE:  MOVF   36,W
0C9C0:  SUBLW  05
0C9C2:  BZ    C9CA
0C9C4:  BSF    F93.1
0C9C6:  BTFSC  F81.1
0C9C8:  BRA    CA2C
....................          RX_Buffer[6]=0x00;   
0C9CA:  CLRF   36
....................          RX_Buffer2[6]=0x00; 
0C9CC:  CLRF   41
....................          if(cicloVisto<200) 
0C9CE:  MOVLB  2
0C9D0:  MOVF   xEF,F
0C9D2:  BNZ   C9E0
0C9D4:  MOVF   xEE,W
0C9D6:  SUBLW  C7
0C9D8:  BNC   C9E0
....................             cicloVisto++; 
0C9DA:  INCF   xEE,F
0C9DC:  BTFSC  FD8.2
0C9DE:  INCF   xEF,F
....................          printf("h0.val=%Lu",cicloVisto+1); 
0C9E0:  MOVLW  01
0C9E2:  ADDWF  xEE,W
0C9E4:  MOVLB  4
0C9E6:  MOVWF  x50
0C9E8:  MOVLW  00
0C9EA:  MOVLB  2
0C9EC:  ADDWFC xEF,W
0C9EE:  MOVLB  4
0C9F0:  MOVWF  x51
0C9F2:  MOVLW  3E
0C9F4:  MOVWF  FF6
0C9F6:  MOVLW  11
0C9F8:  MOVWF  FF7
0C9FA:  MOVLW  00
0C9FC:  MOVWF  FF8
0C9FE:  MOVLW  07
0CA00:  MOVWF  x56
0CA02:  MOVLB  0
0CA04:  CALL   4CA0
0CA08:  MOVLW  10
0CA0A:  MOVWF  FE9
0CA0C:  MOVFF  451,457
0CA10:  MOVFF  450,456
0CA14:  CALL   573A
....................          SendDataDisplay();   
0CA18:  CALL   3CD8
....................          actualizaTabla(); 
0CA1C:  CALL   5B4E
....................          delay_ms(100); 
0CA20:  MOVLW  64
0CA22:  MOVLB  4
0CA24:  MOVWF  x69
0CA26:  MOVLB  0
0CA28:  CALL   1B4A
....................          //exportarData(); 
....................       } 
....................        
....................       if(RX_Buffer[6]==0x06){//06, Imprime 
0CA2C:  MOVF   36,W
0CA2E:  SUBLW  06
0CA30:  BNZ   CA4E
....................          RX_Buffer[6]=0x00;   
0CA32:  CLRF   36
....................          RX_Buffer2[6]=0x00; 
0CA34:  CLRF   41
....................          printf("t0.txt=\"!IMPRIMIENDO!\""); 
0CA36:  MOVLW  4A
0CA38:  MOVWF  FF6
0CA3A:  MOVLW  11
0CA3C:  MOVWF  FF7
0CA3E:  MOVLW  00
0CA40:  MOVWF  FF8
0CA42:  CALL   3CA6
....................          SendDataDisplay();  
0CA46:  CALL   3CD8
....................          exportarData(); 
0CA4A:  GOTO   6380
....................       } 
....................        
....................       if(RX_Buffer[4]>0x00 || RX_Buffer[5]>0x00){ 
0CA4E:  MOVF   34,F
0CA50:  BNZ   CA56
0CA52:  MOVF   35,F
0CA54:  BZ    CA76
....................          cicloVisualizado=RX_Buffer[4]-1; 
0CA56:  MOVLW  01
0CA58:  SUBWF  34,W
0CA5A:  MOVLB  2
0CA5C:  MOVWF  xF0
0CA5E:  CLRF   xF1
....................          cicloVisto=RX_Buffer[5]-1; 
0CA60:  MOVLW  01
0CA62:  SUBWF  35,W
0CA64:  MOVWF  xEE
0CA66:  CLRF   xEF
....................          RX_Buffer[4]=0x00; 
0CA68:  CLRF   34
....................          RX_Buffer[5]=0x00; 
0CA6A:  CLRF   35
....................          RX_Buffer2[4]=0x00; 
0CA6C:  CLRF   3F
....................          RX_Buffer2[5]=0x00; 
0CA6E:  CLRF   40
....................          actualizaTabla(); 
0CA70:  MOVLB  0
0CA72:  CALL   5B4E
....................       } 
....................        
....................       //Imprime Valores Estaticos 
....................       printf("fecha.txt=\"%02u/%02u/%02u\"",diaCiclos,mesCiclos,yearCiclos); 
0CA76:  MOVLW  62
0CA78:  MOVWF  FF6
0CA7A:  MOVLW  11
0CA7C:  MOVWF  FF7
0CA7E:  MOVLW  00
0CA80:  MOVWF  FF8
0CA82:  MOVLW  0B
0CA84:  MOVLB  4
0CA86:  MOVWF  x56
0CA88:  MOVLB  0
0CA8A:  CALL   4CA0
0CA8E:  MOVFF  3D6,456
0CA92:  MOVLW  01
0CA94:  MOVLB  4
0CA96:  MOVWF  x57
0CA98:  MOVLB  0
0CA9A:  CALL   4CFE
0CA9E:  MOVLW  2F
0CAA0:  BTFSS  F9E.4
0CAA2:  BRA    CAA0
0CAA4:  MOVWF  FAD
0CAA6:  MOVFF  3D7,456
0CAAA:  MOVLW  01
0CAAC:  MOVLB  4
0CAAE:  MOVWF  x57
0CAB0:  MOVLB  0
0CAB2:  CALL   4CFE
0CAB6:  MOVLW  2F
0CAB8:  BTFSS  F9E.4
0CABA:  BRA    CAB8
0CABC:  MOVWF  FAD
0CABE:  MOVFF  3D8,456
0CAC2:  MOVLW  01
0CAC4:  MOVLB  4
0CAC6:  MOVWF  x57
0CAC8:  MOVLB  0
0CACA:  CALL   4CFE
0CACE:  MOVLW  22
0CAD0:  BTFSS  F9E.4
0CAD2:  BRA    CAD0
0CAD4:  MOVWF  FAD
....................       SendDataDisplay(); 
0CAD6:  CALL   3CD8
....................        
....................       printf("ciclo.txt=\"%02u\"",cicloCiclos); 
0CADA:  MOVLW  7E
0CADC:  MOVWF  FF6
0CADE:  MOVLW  11
0CAE0:  MOVWF  FF7
0CAE2:  MOVLW  00
0CAE4:  MOVWF  FF8
0CAE6:  MOVLW  0B
0CAE8:  MOVLB  4
0CAEA:  MOVWF  x56
0CAEC:  MOVLB  0
0CAEE:  CALL   4CA0
0CAF2:  MOVFF  3DA,456
0CAF6:  MOVLW  01
0CAF8:  MOVLB  4
0CAFA:  MOVWF  x57
0CAFC:  MOVLB  0
0CAFE:  CALL   4CFE
0CB02:  MOVLW  22
0CB04:  BTFSS  F9E.4
0CB06:  BRA    CB04
0CB08:  MOVWF  FAD
....................       SendDataDisplay(); 
0CB0A:  CALL   3CD8
....................        
....................       printf("t0.txt=\"Ciclo %02Lu\"",cicloVisto); 
0CB0E:  MOVLW  90
0CB10:  MOVWF  FF6
0CB12:  MOVLW  11
0CB14:  MOVWF  FF7
0CB16:  MOVLW  00
0CB18:  MOVWF  FF8
0CB1A:  MOVLW  0E
0CB1C:  MOVLB  4
0CB1E:  MOVWF  x56
0CB20:  MOVLB  0
0CB22:  CALL   4CA0
0CB26:  MOVLW  0B
0CB28:  MOVWF  FE9
0CB2A:  MOVFF  2EF,457
0CB2E:  MOVFF  2EE,456
0CB32:  CALL   573A
0CB36:  MOVLW  22
0CB38:  BTFSS  F9E.4
0CB3A:  BRA    CB38
0CB3C:  MOVWF  FAD
....................       SendDataDisplay(); 
0CB3E:  CALL   3CD8
....................        
....................       printf("usuario.txt=\"---\""); 
0CB42:  MOVLW  A6
0CB44:  MOVWF  FF6
0CB46:  MOVLW  11
0CB48:  MOVWF  FF7
0CB4A:  MOVLW  00
0CB4C:  MOVWF  FF8
0CB4E:  CALL   3CA6
....................       SendDataDisplay(); 
0CB52:  CALL   3CD8
....................        
....................       //Imprime Valores Dinamicos 
....................       for(i=0;i<7;i++){ 
0CB56:  MOVLB  3
0CB58:  CLRF   x8D
0CB5A:  CLRF   x8C
0CB5C:  MOVF   x8D,F
0CB5E:  BTFSS  FD8.2
0CB60:  BRA    CE58
0CB62:  MOVF   x8C,W
0CB64:  SUBLW  06
0CB66:  BTFSS  FD8.0
0CB68:  BRA    CE58
....................          printf("hora%Lu.txt=\"%02Lu.  %02u:%02u\"",i+1,cicloVisualizado+i+1,horaCiclos[i],minutoCiclos[i]); 
0CB6A:  MOVLW  01
0CB6C:  ADDWF  x8C,W
0CB6E:  MOVLB  4
0CB70:  MOVWF  x50
0CB72:  MOVLW  00
0CB74:  MOVLB  3
0CB76:  ADDWFC x8D,W
0CB78:  MOVLB  4
0CB7A:  MOVWF  x51
0CB7C:  MOVLB  3
0CB7E:  MOVF   x8C,W
0CB80:  MOVLB  2
0CB82:  ADDWF  xF0,W
0CB84:  MOVLB  4
0CB86:  MOVWF  x52
0CB88:  MOVLB  3
0CB8A:  MOVF   x8D,W
0CB8C:  MOVLB  2
0CB8E:  ADDWFC xF1,W
0CB90:  MOVLB  4
0CB92:  MOVWF  x53
0CB94:  MOVLW  01
0CB96:  ADDWF  x52,F
0CB98:  MOVLW  00
0CB9A:  ADDWFC x53,F
0CB9C:  MOVLW  13
0CB9E:  MOVLB  3
0CBA0:  ADDWF  x8C,W
0CBA2:  MOVWF  FE9
0CBA4:  MOVLW  04
0CBA6:  ADDWFC x8D,W
0CBA8:  MOVWF  FEA
0CBAA:  MOVFF  FEF,454
0CBAE:  MOVLW  1A
0CBB0:  ADDWF  x8C,W
0CBB2:  MOVWF  FE9
0CBB4:  MOVLW  04
0CBB6:  ADDWFC x8D,W
0CBB8:  MOVWF  FEA
0CBBA:  MOVFF  FEF,455
0CBBE:  MOVLW  B8
0CBC0:  MOVWF  FF6
0CBC2:  MOVLW  11
0CBC4:  MOVWF  FF7
0CBC6:  MOVLW  00
0CBC8:  MOVWF  FF8
0CBCA:  MOVLW  04
0CBCC:  MOVLB  4
0CBCE:  MOVWF  x56
0CBD0:  MOVLB  0
0CBD2:  CALL   4CA0
0CBD6:  MOVLW  10
0CBD8:  MOVWF  FE9
0CBDA:  MOVFF  451,457
0CBDE:  MOVFF  450,456
0CBE2:  CALL   573A
0CBE6:  MOVLW  BF
0CBE8:  MOVWF  FF6
0CBEA:  MOVLW  11
0CBEC:  MOVWF  FF7
0CBEE:  MOVLW  00
0CBF0:  MOVWF  FF8
0CBF2:  MOVLW  06
0CBF4:  MOVLB  4
0CBF6:  MOVWF  x56
0CBF8:  MOVLB  0
0CBFA:  CALL   4CA0
0CBFE:  MOVLW  0B
0CC00:  MOVWF  FE9
0CC02:  MOVFF  453,457
0CC06:  MOVFF  452,456
0CC0A:  CALL   573A
0CC0E:  MOVLW  2E
0CC10:  BTFSS  F9E.4
0CC12:  BRA    CC10
0CC14:  MOVWF  FAD
0CC16:  MOVLW  20
0CC18:  BTFSS  F9E.4
0CC1A:  BRA    CC18
0CC1C:  MOVWF  FAD
0CC1E:  MOVLW  20
0CC20:  BTFSS  F9E.4
0CC22:  BRA    CC20
0CC24:  MOVWF  FAD
0CC26:  MOVFF  454,456
0CC2A:  MOVLW  01
0CC2C:  MOVLB  4
0CC2E:  MOVWF  x57
0CC30:  MOVLB  0
0CC32:  CALL   4CFE
0CC36:  MOVLW  3A
0CC38:  BTFSS  F9E.4
0CC3A:  BRA    CC38
0CC3C:  MOVWF  FAD
0CC3E:  MOVFF  455,456
0CC42:  MOVLW  01
0CC44:  MOVLB  4
0CC46:  MOVWF  x57
0CC48:  MOVLB  0
0CC4A:  CALL   4CFE
0CC4E:  MOVLW  22
0CC50:  BTFSS  F9E.4
0CC52:  BRA    CC50
0CC54:  MOVWF  FAD
....................          SendDataDisplay(); 
0CC56:  CALL   3CD8
....................          printf("T%Lu.txt=\"%3.1fC\"",i+1,TCiclos[i]); 
0CC5A:  MOVLW  01
0CC5C:  MOVLB  3
0CC5E:  ADDWF  x8C,W
0CC60:  MOVLB  4
0CC62:  MOVWF  x50
0CC64:  MOVLW  00
0CC66:  MOVLB  3
0CC68:  ADDWFC x8D,W
0CC6A:  MOVLB  4
0CC6C:  MOVWF  x51
0CC6E:  MOVLB  3
0CC70:  RLCF   x8C,W
0CC72:  MOVWF  02
0CC74:  RLCF   x8D,W
0CC76:  MOVWF  03
0CC78:  RLCF   02,F
0CC7A:  RLCF   03,F
0CC7C:  MOVLW  FC
0CC7E:  ANDWF  02,F
0CC80:  MOVF   02,W
0CC82:  ADDLW  DB
0CC84:  MOVWF  FE9
0CC86:  MOVLW  03
0CC88:  ADDWFC 03,W
0CC8A:  MOVWF  FEA
0CC8C:  MOVFF  FEF,452
0CC90:  MOVFF  FEC,453
0CC94:  MOVFF  FEC,454
0CC98:  MOVFF  FEC,455
0CC9C:  MOVLW  54
0CC9E:  BTFSS  F9E.4
0CCA0:  BRA    CC9E
0CCA2:  MOVWF  FAD
0CCA4:  MOVLW  10
0CCA6:  MOVWF  FE9
0CCA8:  MOVFF  451,457
0CCAC:  MOVFF  450,456
0CCB0:  MOVLB  0
0CCB2:  CALL   573A
0CCB6:  MOVLW  DC
0CCB8:  MOVWF  FF6
0CCBA:  MOVLW  11
0CCBC:  MOVWF  FF7
0CCBE:  MOVLW  00
0CCC0:  MOVWF  FF8
0CCC2:  MOVLW  06
0CCC4:  MOVLB  4
0CCC6:  MOVWF  x56
0CCC8:  MOVLB  0
0CCCA:  CALL   4CA0
0CCCE:  MOVLW  02
0CCD0:  MOVWF  FE9
0CCD2:  MOVFF  455,459
0CCD6:  MOVFF  454,458
0CCDA:  MOVFF  453,457
0CCDE:  MOVFF  452,456
0CCE2:  MOVLW  01
0CCE4:  MOVLB  4
0CCE6:  MOVWF  x5A
0CCE8:  MOVLB  0
0CCEA:  CALL   4E40
0CCEE:  MOVLW  B0
0CCF0:  BTFSS  F9E.4
0CCF2:  BRA    CCF0
0CCF4:  MOVWF  FAD
0CCF6:  MOVLW  43
0CCF8:  BTFSS  F9E.4
0CCFA:  BRA    CCF8
0CCFC:  MOVWF  FAD
0CCFE:  MOVLW  22
0CD00:  BTFSS  F9E.4
0CD02:  BRA    CD00
0CD04:  MOVWF  FAD
....................          SendDataDisplay(); 
0CD06:  CALL   3CD8
....................          printf("Pc%Lu.txt=\"%03LukPa\"",i+1,PcCiclos[i]); 
0CD0A:  MOVLW  01
0CD0C:  MOVLB  3
0CD0E:  ADDWF  x8C,W
0CD10:  MOVLB  4
0CD12:  MOVWF  x50
0CD14:  MOVLW  00
0CD16:  MOVLB  3
0CD18:  ADDWFC x8D,W
0CD1A:  MOVLB  4
0CD1C:  MOVWF  x51
0CD1E:  BCF    FD8.0
0CD20:  MOVLB  3
0CD22:  RLCF   x8C,W
0CD24:  MOVWF  02
0CD26:  RLCF   x8D,W
0CD28:  MOVWF  03
0CD2A:  MOVF   02,W
0CD2C:  ADDLW  F7
0CD2E:  MOVWF  FE9
0CD30:  MOVLW  03
0CD32:  ADDWFC 03,W
0CD34:  MOVWF  FEA
0CD36:  MOVFF  FEC,453
0CD3A:  MOVF   FED,F
0CD3C:  MOVFF  FEF,452
0CD40:  MOVLW  50
0CD42:  BTFSS  F9E.4
0CD44:  BRA    CD42
0CD46:  MOVWF  FAD
0CD48:  MOVLW  63
0CD4A:  BTFSS  F9E.4
0CD4C:  BRA    CD4A
0CD4E:  MOVWF  FAD
0CD50:  MOVLW  10
0CD52:  MOVWF  FE9
0CD54:  MOVFF  451,457
0CD58:  MOVFF  450,456
0CD5C:  MOVLB  0
0CD5E:  CALL   573A
0CD62:  MOVLW  F1
0CD64:  MOVWF  FF6
0CD66:  MOVLW  11
0CD68:  MOVWF  FF7
0CD6A:  MOVLW  00
0CD6C:  MOVWF  FF8
0CD6E:  MOVLW  06
0CD70:  MOVLB  4
0CD72:  MOVWF  x56
0CD74:  MOVLB  0
0CD76:  CALL   4CA0
0CD7A:  MOVLW  0A
0CD7C:  MOVWF  FE9
0CD7E:  MOVFF  453,457
0CD82:  MOVFF  452,456
0CD86:  CALL   573A
0CD8A:  MOVLW  FC
0CD8C:  MOVWF  FF6
0CD8E:  MOVLW  11
0CD90:  MOVWF  FF7
0CD92:  MOVLW  00
0CD94:  MOVWF  FF8
0CD96:  MOVLW  04
0CD98:  MOVLB  4
0CD9A:  MOVWF  x56
0CD9C:  MOVLB  0
0CD9E:  CALL   4CA0
....................          SendDataDisplay(); 
0CDA2:  CALL   3CD8
....................          printf("Ppc%Lu.txt=\"%03LukPa\"",i+1,PpcCiclos[i]); 
0CDA6:  MOVLW  01
0CDA8:  MOVLB  3
0CDAA:  ADDWF  x8C,W
0CDAC:  MOVLB  4
0CDAE:  MOVWF  x50
0CDB0:  MOVLW  00
0CDB2:  MOVLB  3
0CDB4:  ADDWFC x8D,W
0CDB6:  MOVLB  4
0CDB8:  MOVWF  x51
0CDBA:  BCF    FD8.0
0CDBC:  MOVLB  3
0CDBE:  RLCF   x8C,W
0CDC0:  MOVWF  02
0CDC2:  RLCF   x8D,W
0CDC4:  MOVWF  03
0CDC6:  MOVF   02,W
0CDC8:  ADDLW  05
0CDCA:  MOVWF  FE9
0CDCC:  MOVLW  04
0CDCE:  ADDWFC 03,W
0CDD0:  MOVWF  FEA
0CDD2:  MOVFF  FEC,453
0CDD6:  MOVF   FED,F
0CDD8:  MOVFF  FEF,452
0CDDC:  MOVLW  50
0CDDE:  BTFSS  F9E.4
0CDE0:  BRA    CDDE
0CDE2:  MOVWF  FAD
0CDE4:  MOVLW  70
0CDE6:  BTFSS  F9E.4
0CDE8:  BRA    CDE6
0CDEA:  MOVWF  FAD
0CDEC:  MOVLW  63
0CDEE:  BTFSS  F9E.4
0CDF0:  BRA    CDEE
0CDF2:  MOVWF  FAD
0CDF4:  MOVLW  10
0CDF6:  MOVWF  FE9
0CDF8:  MOVFF  451,457
0CDFC:  MOVFF  450,456
0CE00:  MOVLB  0
0CE02:  CALL   573A
0CE06:  MOVLW  08
0CE08:  MOVWF  FF6
0CE0A:  MOVLW  12
0CE0C:  MOVWF  FF7
0CE0E:  MOVLW  00
0CE10:  MOVWF  FF8
0CE12:  MOVLW  06
0CE14:  MOVLB  4
0CE16:  MOVWF  x56
0CE18:  MOVLB  0
0CE1A:  CALL   4CA0
0CE1E:  MOVLW  0A
0CE20:  MOVWF  FE9
0CE22:  MOVFF  453,457
0CE26:  MOVFF  452,456
0CE2A:  CALL   573A
0CE2E:  MOVLW  13
0CE30:  MOVWF  FF6
0CE32:  MOVLW  12
0CE34:  MOVWF  FF7
0CE36:  MOVLW  00
0CE38:  MOVWF  FF8
0CE3A:  MOVLW  04
0CE3C:  MOVLB  4
0CE3E:  MOVWF  x56
0CE40:  MOVLB  0
0CE42:  CALL   4CA0
....................          SendDataDisplay();          
0CE46:  CALL   3CD8
....................          codificaAlarma(); 
0CE4A:  GOTO   6764
....................       }   
0CE4E:  MOVLB  3
0CE50:  INCF   x8C,F
0CE52:  BTFSC  FD8.2
0CE54:  INCF   x8D,F
0CE56:  BRA    CB5C
....................    } 
.................... //_--------------------------------------------------------------------------------------------------------------------------------------------------------       
....................  
.................... //_--------------------------------------------------------------------------------------------------------------------------------------------------------       
....................     if(Menu==15){//Menu de Clave Correcta 
0CE58:  MOVF   x68,W
0CE5A:  SUBLW  0F
0CE5C:  BNZ   CE94
....................       if(!entro){ 
0CE5E:  MOVLB  0
0CE60:  BTFSC  xAC.2
0CE62:  BRA    CE7E
....................          delay_ms(2000); 
0CE64:  MOVLW  08
0CE66:  MOVLB  4
0CE68:  MOVWF  x50
0CE6A:  MOVLW  FA
0CE6C:  MOVWF  x69
0CE6E:  MOVLB  0
0CE70:  CALL   1B4A
0CE74:  MOVLB  4
0CE76:  DECFSZ x50,F
0CE78:  BRA    CE6A
....................          entro=ON; 
0CE7A:  MOVLB  0
0CE7C:  BSF    xAC.2
....................       } 
....................       printf("page MenuPrincipal"); 
0CE7E:  MOVLW  18
0CE80:  MOVWF  FF6
0CE82:  MOVLW  12
0CE84:  MOVWF  FF7
0CE86:  MOVLW  00
0CE88:  MOVWF  FF8
0CE8A:  CALL   3CA6
....................       SendDataDisplay(); 
0CE8E:  CALL   3CD8
0CE92:  MOVLB  3
....................    } 
.................... //_--------------------------------------------------------------------------------------------------------------------------------------------------------       
....................  
.................... //_--------------------------------------------------------------------------------------------------------------------------------------------------------       
....................     if(Menu==16){//Menu de Clave InCorrecta 
0CE94:  MOVF   x68,W
0CE96:  SUBLW  10
0CE98:  BNZ   CED0
....................       if(!entro){ 
0CE9A:  MOVLB  0
0CE9C:  BTFSC  xAC.2
0CE9E:  BRA    CEBA
....................          delay_ms(2000); 
0CEA0:  MOVLW  08
0CEA2:  MOVLB  4
0CEA4:  MOVWF  x50
0CEA6:  MOVLW  FA
0CEA8:  MOVWF  x69
0CEAA:  MOVLB  0
0CEAC:  CALL   1B4A
0CEB0:  MOVLB  4
0CEB2:  DECFSZ x50,F
0CEB4:  BRA    CEA6
....................          entro=ON; 
0CEB6:  MOVLB  0
0CEB8:  BSF    xAC.2
....................       } 
....................       printf("page Clave"); 
0CEBA:  MOVLW  2C
0CEBC:  MOVWF  FF6
0CEBE:  MOVLW  12
0CEC0:  MOVWF  FF7
0CEC2:  MOVLW  00
0CEC4:  MOVWF  FF8
0CEC6:  CALL   3CA6
....................       SendDataDisplay(); 
0CECA:  CALL   3CD8
0CECE:  MOVLB  3
....................    } 
.................... //_--------------------------------------------------------------------------------------------------------------------------------------------------------       
....................  
.................... //_--------------------------------------------------------------------------------------------------------------------------------------------------------     
....................    if(Menu==20){ // Este es el menu de cuando el proceso se inicio. 
0CED0:  MOVF   x68,W
0CED2:  SUBLW  14
0CED4:  BTFSS  FD8.2
0CED6:  GOTO   E0F8
....................    //Lectura_Esclavos(); 
....................    GuardaDatoEstatico(); 
0CEDA:  MOVLB  0
0CEDC:  GOTO   6E02
....................    guardaCiclo=ON; 
0CEE0:  BSF    xAC.5
....................    if(!Libre){ 
0CEE2:  BTFSC  xAC.0
0CEE4:  BRA    CF6A
....................       printf("t2f.txt=\"%u\"",CicloSeleccionado); 
0CEE6:  MOVLW  38
0CEE8:  MOVWF  FF6
0CEEA:  MOVLW  12
0CEEC:  MOVWF  FF7
0CEEE:  MOVLW  00
0CEF0:  MOVWF  FF8
0CEF2:  MOVLW  09
0CEF4:  MOVLB  4
0CEF6:  MOVWF  x56
0CEF8:  MOVLB  0
0CEFA:  CALL   4CA0
0CEFE:  MOVFF  36D,456
0CF02:  MOVLW  1B
0CF04:  MOVLB  4
0CF06:  MOVWF  x57
0CF08:  MOVLB  0
0CF0A:  CALL   4CFE
0CF0E:  MOVLW  22
0CF10:  BTFSS  F9E.4
0CF12:  BRA    CF10
0CF14:  MOVWF  FAD
....................       SendDataDisplay(); 
0CF16:  CALL   3CD8
....................       printf("t3f.txt=\"%s\"",texto[CicloSeleccionado-1]); 
0CF1A:  MOVLW  01
0CF1C:  MOVLB  3
0CF1E:  SUBWF  x6D,W
0CF20:  MULLW  14
0CF22:  MOVF   FF3,W
0CF24:  CLRF   03
0CF26:  MOVLB  4
0CF28:  MOVWF  x50
0CF2A:  MOVLW  46
0CF2C:  MOVWF  FF6
0CF2E:  MOVLW  12
0CF30:  MOVWF  FF7
0CF32:  MOVLW  00
0CF34:  MOVWF  FF8
0CF36:  MOVLW  09
0CF38:  MOVWF  x56
0CF3A:  MOVLB  0
0CF3C:  CALL   4CA0
0CF40:  MOVLW  50
0CF42:  MOVWF  FF6
0CF44:  MOVLW  01
0CF46:  MOVWF  FF7
0CF48:  MOVLW  00
0CF4A:  MOVWF  FF8
0CF4C:  MOVLB  4
0CF4E:  MOVF   x50,W
0CF50:  ADDWF  FF6,F
0CF52:  MOVLW  00
0CF54:  ADDWFC FF7,F
0CF56:  MOVLB  0
0CF58:  CALL   3CA6
0CF5C:  MOVLW  22
0CF5E:  BTFSS  F9E.4
0CF60:  BRA    CF5E
0CF62:  MOVWF  FAD
....................       SendDataDisplay(); 
0CF64:  CALL   3CD8
....................    }else{ 
0CF68:  BRA    CFBA
....................       printf("t2f.txt=\"%u\"",CicloLibre+4); 
0CF6A:  MOVLW  04
0CF6C:  MOVLB  3
0CF6E:  ADDWF  x48,W
0CF70:  MOVLB  4
0CF72:  MOVWF  x50
0CF74:  MOVLW  54
0CF76:  MOVWF  FF6
0CF78:  MOVLW  12
0CF7A:  MOVWF  FF7
0CF7C:  MOVLW  00
0CF7E:  MOVWF  FF8
0CF80:  MOVLW  09
0CF82:  MOVWF  x56
0CF84:  MOVLB  0
0CF86:  CALL   4CA0
0CF8A:  MOVFF  450,456
0CF8E:  MOVLW  1B
0CF90:  MOVLB  4
0CF92:  MOVWF  x57
0CF94:  MOVLB  0
0CF96:  CALL   4CFE
0CF9A:  MOVLW  22
0CF9C:  BTFSS  F9E.4
0CF9E:  BRA    CF9C
0CFA0:  MOVWF  FAD
....................       SendDataDisplay(); 
0CFA2:  CALL   3CD8
....................       printf("t3f.txt=\"Personalizado\""); 
0CFA6:  MOVLW  62
0CFA8:  MOVWF  FF6
0CFAA:  MOVLW  12
0CFAC:  MOVWF  FF7
0CFAE:  MOVLW  00
0CFB0:  MOVWF  FF8
0CFB2:  CALL   3CA6
....................       SendDataDisplay(); 
0CFB6:  CALL   3CD8
....................    } 
....................     
....................    if(RIGHT){ 
0CFBA:  BSF    F93.1
0CFBC:  BTFSC  F81.1
0CFBE:  BRA    CFD6
....................       //glcd_init(ON); 
....................       delay_ms(1000); 
0CFC0:  MOVLW  04
0CFC2:  MOVLB  4
0CFC4:  MOVWF  x50
0CFC6:  MOVLW  FA
0CFC8:  MOVWF  x69
0CFCA:  MOVLB  0
0CFCC:  CALL   1B4A
0CFD0:  MOVLB  4
0CFD2:  DECFSZ x50,F
0CFD4:  BRA    CFC6
....................       /*flagCalentando=OFF; 
....................       flagDesfogando=OFF; 
....................       flagEsterilizando=OFF;*/ 
....................    } 
....................     
....................    if(PresionCamara>Atmosferica+275){ 
0CFD6:  MOVLW  13
0CFD8:  MOVLB  3
0CFDA:  ADDWF  xBF,W
0CFDC:  MOVWF  01
0CFDE:  MOVLW  01
0CFE0:  MOVWF  03
0CFE2:  BTFSC  FD8.0
0CFE4:  INCF   03,F
0CFE6:  MOVF   03,W
0CFE8:  SUBWF  x81,W
0CFEA:  BNC   CFF8
0CFEC:  BNZ   CFF4
0CFEE:  MOVF   x80,W
0CFF0:  SUBWF  01,W
0CFF2:  BC    CFF8
....................       AlarmaPresion=ON; 
0CFF4:  MOVLB  0
0CFF6:  BSF    xAB.7
....................    } 
....................     
....................    if(Temperatura>105 && PresionCamara<Atmosferica+10 && !Desfogando){ 
0CFF8:  MOVLB  4
0CFFA:  CLRF   x57
0CFFC:  CLRF   x56
0CFFE:  MOVLW  52
0D000:  MOVWF  x55
0D002:  MOVLW  85
0D004:  MOVWF  x54
0D006:  MOVFF  335,45B
0D00A:  MOVFF  334,45A
0D00E:  MOVFF  333,459
0D012:  MOVFF  332,458
0D016:  MOVLB  0
0D018:  CALL   30E0
0D01C:  BNC   D040
0D01E:  MOVLW  0A
0D020:  MOVLB  3
0D022:  ADDWF  xBF,W
0D024:  MOVF   x81,F
0D026:  BTFSC  FD8.2
0D028:  BRA    D02E
0D02A:  MOVLB  0
0D02C:  BRA    D040
0D02E:  SUBWF  x80,W
0D030:  BTFSS  FD8.0
0D032:  BRA    D038
0D034:  MOVLB  0
0D036:  BRA    D040
0D038:  MOVLB  0
0D03A:  BTFSC  xA8.7
0D03C:  BRA    D040
....................       AlarmaCiclo=ON; 
0D03E:  BSF    xA7.6
....................    } 
....................     
....................    if(TiempoCiclo>3000){ 
0D040:  MOVF   xAE,W
0D042:  SUBLW  0A
0D044:  BC    D07A
0D046:  XORLW  FF
0D048:  BNZ   D050
0D04A:  MOVF   xAD,W
0D04C:  SUBLW  B8
0D04E:  BC    D07A
....................       if(TiempoCiclo>5000) 
0D050:  MOVF   xAE,W
0D052:  SUBLW  12
0D054:  BC    D062
0D056:  XORLW  FF
0D058:  BNZ   D060
0D05A:  MOVF   xAD,W
0D05C:  SUBLW  88
0D05E:  BC    D062
....................          AlarmaTiempoProlongado=ON; 
0D060:  BSF    xA7.0
....................       if(PresionCamara<Atmosferica+10){ 
0D062:  MOVLW  0A
0D064:  MOVLB  3
0D066:  ADDWF  xBF,W
0D068:  MOVF   x81,F
0D06A:  BNZ   D076
0D06C:  SUBWF  x80,W
0D06E:  BC    D076
....................          AlarmaTiempoProlongado=ON; 
0D070:  MOVLB  0
0D072:  BSF    xA7.0
0D074:  MOVLB  3
....................       } 
....................    }else{ 
0D076:  BRA    D07C
0D078:  MOVLB  0
....................       AlarmaTiempoProlongado=OFF; 
0D07A:  BCF    xA7.0
....................    } 
....................     
....................    if(Temperatura>Setpoint+3.0){ 
0D07C:  MOVLB  4
0D07E:  CLRF   x66
0D080:  MOVFF  36E,465
0D084:  MOVLB  0
0D086:  CALL   1B72
0D08A:  BCF    FD8.1
0D08C:  MOVFF  03,468
0D090:  MOVFF  02,467
0D094:  MOVFF  01,466
0D098:  MOVFF  00,465
0D09C:  MOVLB  4
0D09E:  CLRF   x6C
0D0A0:  CLRF   x6B
0D0A2:  MOVLW  40
0D0A4:  MOVWF  x6A
0D0A6:  MOVLW  80
0D0A8:  MOVWF  x69
0D0AA:  MOVLB  0
0D0AC:  CALL   1D06
0D0B0:  MOVFF  03,457
0D0B4:  MOVFF  02,456
0D0B8:  MOVFF  01,455
0D0BC:  MOVFF  00,454
0D0C0:  MOVFF  335,45B
0D0C4:  MOVFF  334,45A
0D0C8:  MOVFF  333,459
0D0CC:  MOVFF  332,458
0D0D0:  CALL   30E0
0D0D4:  BNC   D0D8
....................       AlarmaSobreTemperatura=ON; 
0D0D6:  BSF    xA7.1
....................    } 
....................     
....................    if(TiempoLlenado>1800){ 
0D0D8:  MOVF   xB0,W
0D0DA:  SUBLW  06
0D0DC:  BC    D0EC
0D0DE:  XORLW  FF
0D0E0:  BNZ   D0E8
0D0E2:  MOVF   xAF,W
0D0E4:  SUBLW  08
0D0E6:  BC    D0EC
....................       AlarmaLlenado=ON; 
0D0E8:  BSF    xA7.2
....................    }else{ 
0D0EA:  BRA    D0EE
....................       AlarmaLlenado=OFF; 
0D0EC:  BCF    xA7.2
....................    } 
....................     
....................    if(tTermostato>=2000){ 
0D0EE:  MOVLB  3
0D0F0:  MOVF   xAA,W
0D0F2:  SUBLW  06
0D0F4:  BC    D106
0D0F6:  XORLW  FF
0D0F8:  BNZ   D100
0D0FA:  MOVF   xA9,W
0D0FC:  SUBLW  CF
0D0FE:  BC    D106
....................       AlarmaTermostato=ON; 
0D100:  MOVLB  0
0D102:  BSF    xA7.3
0D104:  MOVLB  3
....................    } 
....................     
....................    if(!DOOR){ 
0D106:  BSF    F93.6
0D108:  BTFSS  F81.6
0D10A:  BRA    D120
....................       if(!Secando && !Finalizo && !Desfogando){ 
0D10C:  MOVLB  0
0D10E:  BTFSC  xA8.5
0D110:  BRA    D11C
0D112:  BTFSC  xAB.6
0D114:  BRA    D11C
0D116:  BTFSC  xA8.7
0D118:  BRA    D11C
....................          AlarmaPuerta=ON; 
0D11A:  BSF    xA7.4
....................       } 
....................    }else{ 
0D11C:  BRA    D124
0D11E:  MOVLB  3
....................       AlarmaPuerta=OFF; 
0D120:  MOVLB  0
0D122:  BCF    xA7.4
....................    } 
....................     
....................    if(!DOORL){ 
0D124:  BSF    F93.7
0D126:  BTFSS  F81.7
0D128:  BRA    D13A
....................       if(!Secando && !Finalizo && !Desfogando){ 
0D12A:  BTFSC  xA8.5
0D12C:  BRA    D138
0D12E:  BTFSC  xAB.6
0D130:  BRA    D138
0D132:  BTFSC  xA8.7
0D134:  BRA    D138
....................          AlarmaPuertaL=ON; 
0D136:  BSF    xA7.7
....................       } 
....................    }else{ 
0D138:  BRA    D13C
....................       AlarmaPuertaL=OFF; 
0D13A:  BCF    xA7.7
....................    } 
....................  
....................    if(tStop>=300){ 
0D13C:  MOVLB  3
0D13E:  MOVF   xA8,W
0D140:  SUBLW  00
0D142:  BC    D154
0D144:  XORLW  FF
0D146:  BNZ   D14E
0D148:  MOVF   xA7,W
0D14A:  SUBLW  2B
0D14C:  BC    D154
....................       AlarmaEmergencia=ON; 
0D14E:  MOVLB  0
0D150:  BSF    xA7.5
0D152:  MOVLB  3
....................    } 
....................     
....................    if(AlarmaPuerta || AlarmaPuertaL || AlarmaTermostato || AlarmaLlenado || AlarmaSobreTemperatura || AlarmaTiempoProlongado || AlarmaEmergencia || AlarmaPresion 
....................    || AlarmaCiclo){ 
0D154:  MOVLB  0
0D156:  BTFSC  xA7.4
0D158:  BRA    D17A
0D15A:  BTFSC  xA7.7
0D15C:  BRA    D17A
0D15E:  BTFSC  xA7.3
0D160:  BRA    D17A
0D162:  BTFSC  xA7.2
0D164:  BRA    D17A
0D166:  BTFSC  xA7.1
0D168:  BRA    D17A
0D16A:  BTFSC  xA7.0
0D16C:  BRA    D17A
0D16E:  BTFSC  xA7.5
0D170:  BRA    D17A
0D172:  BTFSC  xAB.7
0D174:  BRA    D17A
0D176:  BTFSS  xA7.6
0D178:  BRA    D71A
....................       ActivaAlarma(1); 
0D17A:  MOVLW  01
0D17C:  MOVLB  4
0D17E:  MOVWF  x50
0D180:  MOVLB  0
0D182:  CALL   4B9E
....................       if(AlarmaEmergencia){ 
0D186:  BTFSS  xA7.5
0D188:  BRA    D232
....................          printf("Funcionamiento.t4f.txt=\" Parada de Emergencia\""); 
0D18A:  MOVLW  7A
0D18C:  MOVWF  FF6
0D18E:  MOVLW  12
0D190:  MOVWF  FF7
0D192:  MOVLW  00
0D194:  MOVWF  FF8
0D196:  CALL   3CA6
....................          SendDataDisplay(); 
0D19A:  CALL   3CD8
....................          printf("Funcionamiento.t5f.txt=\" Cancelado\""); 
0D19E:  MOVLW  AA
0D1A0:  MOVWF  FF6
0D1A2:  MOVLW  12
0D1A4:  MOVWF  FF7
0D1A6:  MOVLW  00
0D1A8:  MOVWF  FF8
0D1AA:  CALL   3CA6
....................          SendDataDisplay(); 
0D1AE:  CALL   3CD8
....................          Desfogue_on; 
0D1B2:  BCF    F8B.1
0D1B4:  BCF    F94.1
....................          SSR_off; 
0D1B6:  BCF    F8D.1
0D1B8:  BCF    F96.1
....................          Agua_off; 
0D1BA:  BSF    F8B.2
0D1BC:  BCF    F94.2
....................          Bomba_off; 
0D1BE:  BSF    F8B.0
0D1C0:  BCF    F94.0
....................          Aire=OFF; 
0D1C2:  BCF    xAC.3
....................          Esterilizando=OFF; 
0D1C4:  BCF    xA8.4
....................          Desfogando=OFF; 
0D1C6:  BCF    xA8.7
....................          DesfogueSuave=OFF; 
0D1C8:  BCF    xA9.0
....................          Esterilizando=OFF; 
0D1CA:  BCF    xA8.4
....................          //IniciaCiclo=OFF; 
....................          Controlando=0; 
0D1CC:  MOVLB  3
0D1CE:  CLRF   x60
....................          codigoAlarma=1; 
0D1D0:  MOVLW  01
0D1D2:  MOVLB  2
0D1D4:  MOVWF  xEA
....................          if(codigoAnt!=codigoAlarma){ 
0D1D6:  MOVF   xEA,W
0D1D8:  SUBWF  xEB,W
0D1DA:  BZ    D1EA
....................             codigoAnt=codigoAlarma; 
0D1DC:  MOVFF  2EA,2EB
....................             GuardaDatoCiclo(); 
0D1E0:  MOVLB  0
0D1E2:  CALL   70CA
....................             incrementaCiclos(); 
0D1E6:  CALL   752A
....................          } 
....................          if(!flagImprimir){ 
0D1EA:  MOVLB  3
0D1EC:  BTFSC  x5D.6
0D1EE:  BRA    D22E
....................             Imprime=20; 
0D1F0:  MOVLW  14
0D1F2:  MOVWF  xBE
....................             Envio_Esclavos(); 
0D1F4:  MOVLB  0
0D1F6:  CALL   4A76
....................             delay_ms(100); 
0D1FA:  MOVLW  64
0D1FC:  MOVLB  4
0D1FE:  MOVWF  x69
0D200:  MOVLB  0
0D202:  CALL   1B4A
....................             Envio_Esclavos(); 
0D206:  CALL   4A76
....................             delay_ms(100); 
0D20A:  MOVLW  64
0D20C:  MOVLB  4
0D20E:  MOVWF  x69
0D210:  MOVLB  0
0D212:  CALL   1B4A
....................             Envio_Esclavos(); 
0D216:  CALL   4A76
....................             delay_ms(100); 
0D21A:  MOVLW  64
0D21C:  MOVLB  4
0D21E:  MOVWF  x69
0D220:  MOVLB  0
0D222:  CALL   1B4A
....................             Imprime=10; 
0D226:  MOVLW  0A
0D228:  MOVLB  3
0D22A:  MOVWF  xBE
....................             flagImprimir=1; 
0D22C:  BSF    x5D.6
....................          } 
....................       }else if(AlarmaPuerta){ 
0D22E:  BRA    D714
0D230:  MOVLB  0
0D232:  BTFSS  xA7.4
0D234:  BRA    D296
....................             codigoAlarma=2; 
0D236:  MOVLW  02
0D238:  MOVLB  2
0D23A:  MOVWF  xEA
....................             printf("Funcionamiento.t4f.txt=\" Puerta Lado Sucio Abierta\""); 
0D23C:  MOVLW  CE
0D23E:  MOVWF  FF6
0D240:  MOVLW  12
0D242:  MOVWF  FF7
0D244:  MOVLW  00
0D246:  MOVWF  FF8
0D248:  MOVLB  0
0D24A:  CALL   3CA6
....................             SendDataDisplay(); 
0D24E:  CALL   3CD8
....................             printf("Funcionamiento.t5f.txt=\" Pausado\""); 
0D252:  MOVLW  02
0D254:  MOVWF  FF6
0D256:  MOVLW  13
0D258:  MOVWF  FF7
0D25A:  MOVLW  00
0D25C:  MOVWF  FF8
0D25E:  CALL   3CA6
....................             SendDataDisplay(); 
0D262:  CALL   3CD8
....................             SSR_off; 
0D266:  BCF    F8D.1
0D268:  BCF    F96.1
....................             Agua_off; 
0D26A:  BSF    F8B.2
0D26C:  BCF    F94.2
....................             Bomba_off; 
0D26E:  BSF    F8B.0
0D270:  BCF    F94.0
....................             Aire=OFF; 
0D272:  BCF    xAC.3
....................             IniciaLlenado=OFF; 
0D274:  BCF    xA8.1
....................             IniciaCiclo=OFF; 
0D276:  BCF    xA8.3
....................             Esterilizando=OFF; 
0D278:  BCF    xA8.4
....................             Controlando=0; 
0D27A:  MOVLB  3
0D27C:  CLRF   x60
....................             if(codigoAnt!=codigoAlarma){ 
0D27E:  MOVLB  2
0D280:  MOVF   xEA,W
0D282:  SUBWF  xEB,W
0D284:  BZ    D292
....................                codigoAnt=codigoAlarma; 
0D286:  MOVFF  2EA,2EB
....................                GuardaDatoCiclo(); 
0D28A:  MOVLB  0
0D28C:  CALL   70CA
0D290:  MOVLB  2
....................                //incrementaCiclos(); 
....................             } 
....................       }else if(AlarmaPuertaL){ 
0D292:  BRA    D716
0D294:  MOVLB  0
0D296:  BTFSS  xA7.7
0D298:  BRA    D2FA
....................             codigoAlarma=9; 
0D29A:  MOVLW  09
0D29C:  MOVLB  2
0D29E:  MOVWF  xEA
....................             printf("Funcionamiento.t4f.txt=\" Puerta Lado Limpio Abierta\""); 
0D2A0:  MOVLW  24
0D2A2:  MOVWF  FF6
0D2A4:  MOVLW  13
0D2A6:  MOVWF  FF7
0D2A8:  MOVLW  00
0D2AA:  MOVWF  FF8
0D2AC:  MOVLB  0
0D2AE:  CALL   3CA6
....................             SendDataDisplay(); 
0D2B2:  CALL   3CD8
....................             printf("Funcionamiento.t5f.txt=\" Pausado\""); 
0D2B6:  MOVLW  5A
0D2B8:  MOVWF  FF6
0D2BA:  MOVLW  13
0D2BC:  MOVWF  FF7
0D2BE:  MOVLW  00
0D2C0:  MOVWF  FF8
0D2C2:  CALL   3CA6
....................             SendDataDisplay(); 
0D2C6:  CALL   3CD8
....................             SSR_off; 
0D2CA:  BCF    F8D.1
0D2CC:  BCF    F96.1
....................             Agua_off; 
0D2CE:  BSF    F8B.2
0D2D0:  BCF    F94.2
....................             Bomba_off; 
0D2D2:  BSF    F8B.0
0D2D4:  BCF    F94.0
....................             Aire=OFF; 
0D2D6:  BCF    xAC.3
....................             IniciaLlenado=OFF; 
0D2D8:  BCF    xA8.1
....................             IniciaCiclo=OFF; 
0D2DA:  BCF    xA8.3
....................             Esterilizando=OFF; 
0D2DC:  BCF    xA8.4
....................             Controlando=0; 
0D2DE:  MOVLB  3
0D2E0:  CLRF   x60
....................             if(codigoAnt!=codigoAlarma){ 
0D2E2:  MOVLB  2
0D2E4:  MOVF   xEA,W
0D2E6:  SUBWF  xEB,W
0D2E8:  BZ    D2F6
....................                codigoAnt=codigoAlarma; 
0D2EA:  MOVFF  2EA,2EB
....................                GuardaDatoCiclo(); 
0D2EE:  MOVLB  0
0D2F0:  CALL   70CA
0D2F4:  MOVLB  2
....................                //incrementaCiclos(); 
....................             } 
....................       }else if(AlarmaLlenado){ 
0D2F6:  BRA    D716
0D2F8:  MOVLB  0
0D2FA:  BTFSS  xA7.2
0D2FC:  BRA    D3AC
....................             codigoAlarma=8; 
0D2FE:  MOVLW  08
0D300:  MOVLB  2
0D302:  MOVWF  xEA
....................             printf("Funcionamiento.t4f.txt=\" Tiempo Llenado\""); 
0D304:  MOVLW  7C
0D306:  MOVWF  FF6
0D308:  MOVLW  13
0D30A:  MOVWF  FF7
0D30C:  MOVLW  00
0D30E:  MOVWF  FF8
0D310:  MOVLB  0
0D312:  CALL   3CA6
....................             SendDataDisplay(); 
0D316:  CALL   3CD8
....................             printf("Funcionamiento.t5f.txt=\" Cancelado\""); 
0D31A:  MOVLW  A6
0D31C:  MOVWF  FF6
0D31E:  MOVLW  13
0D320:  MOVWF  FF7
0D322:  MOVLW  00
0D324:  MOVWF  FF8
0D326:  CALL   3CA6
....................             SendDataDisplay(); 
0D32A:  CALL   3CD8
....................             Desfogue_off; 
0D32E:  BSF    F8B.1
0D330:  BCF    F94.1
....................             SSR_off; 
0D332:  BCF    F8D.1
0D334:  BCF    F96.1
....................             Agua_off; 
0D336:  BSF    F8B.2
0D338:  BCF    F94.2
....................             Bomba_off; 
0D33A:  BSF    F8B.0
0D33C:  BCF    F94.0
....................             Aire=OFF; 
0D33E:  BCF    xAC.3
....................             IniciaLlenado=OFF; 
0D340:  BCF    xA8.1
....................             IniciaCiclo=OFF; 
0D342:  BCF    xA8.3
....................             Esterilizando=OFF; 
0D344:  BCF    xA8.4
....................             Controlando=0; 
0D346:  MOVLB  3
0D348:  CLRF   x60
....................             if(codigoAnt!=codigoAlarma){ 
0D34A:  MOVLB  2
0D34C:  MOVF   xEA,W
0D34E:  SUBWF  xEB,W
0D350:  BZ    D360
....................                codigoAnt=codigoAlarma; 
0D352:  MOVFF  2EA,2EB
....................                GuardaDatoCiclo(); 
0D356:  MOVLB  0
0D358:  CALL   70CA
....................                incrementaCiclos(); 
0D35C:  CALL   752A
....................             } 
....................             if(!flagImprimir){ 
0D360:  MOVLB  3
0D362:  BTFSC  x5D.6
0D364:  BRA    D3A8
....................                Imprime=21; 
0D366:  MOVLW  15
0D368:  MOVWF  xBE
....................                Envio_Esclavos(); 
0D36A:  MOVLB  0
0D36C:  CALL   4A76
....................                delay_ms(100); 
0D370:  MOVLW  64
0D372:  MOVLB  4
0D374:  MOVWF  x69
0D376:  MOVLB  0
0D378:  CALL   1B4A
....................                Imprime=10; 
0D37C:  MOVLW  0A
0D37E:  MOVLB  3
0D380:  MOVWF  xBE
....................                Envio_Esclavos(); 
0D382:  MOVLB  0
0D384:  CALL   4A76
....................                delay_ms(100); 
0D388:  MOVLW  64
0D38A:  MOVLB  4
0D38C:  MOVWF  x69
0D38E:  MOVLB  0
0D390:  CALL   1B4A
....................                Envio_Esclavos(); 
0D394:  CALL   4A76
....................                delay_ms(100); 
0D398:  MOVLW  64
0D39A:  MOVLB  4
0D39C:  MOVWF  x69
0D39E:  MOVLB  0
0D3A0:  CALL   1B4A
....................                flagImprimir=1; 
0D3A4:  MOVLB  3
0D3A6:  BSF    x5D.6
....................             } 
....................       }else if(AlarmaTermostato){ // Alarma de Termostato 
0D3A8:  BRA    D714
0D3AA:  MOVLB  0
0D3AC:  BTFSS  xA7.3
0D3AE:  BRA    D460
....................             codigoAlarma=3; 
0D3B0:  MOVLW  03
0D3B2:  MOVLB  2
0D3B4:  MOVWF  xEA
....................             tiempo_esterilizacion=0;tiempo_secado=0; 
0D3B6:  MOVLB  3
0D3B8:  CLRF   x71
0D3BA:  CLRF   x72
....................             printf("Funcionamiento.t4f.txt=\" Termostato\""); 
0D3BC:  MOVLW  CA
0D3BE:  MOVWF  FF6
0D3C0:  MOVLW  13
0D3C2:  MOVWF  FF7
0D3C4:  MOVLW  00
0D3C6:  MOVWF  FF8
0D3C8:  MOVLB  0
0D3CA:  CALL   3CA6
....................             SendDataDisplay(); 
0D3CE:  CALL   3CD8
....................             printf("Funcionamiento.t5f.txt=\" Cancelado\""); 
0D3D2:  MOVLW  F0
0D3D4:  MOVWF  FF6
0D3D6:  MOVLW  13
0D3D8:  MOVWF  FF7
0D3DA:  MOVLW  00
0D3DC:  MOVWF  FF8
0D3DE:  CALL   3CA6
....................             SendDataDisplay(); 
0D3E2:  CALL   3CD8
....................             Desfogue_on;             
0D3E6:  BCF    F8B.1
0D3E8:  BCF    F94.1
....................             SSR_off; 
0D3EA:  BCF    F8D.1
0D3EC:  BCF    F96.1
....................             Agua_off; 
0D3EE:  BSF    F8B.2
0D3F0:  BCF    F94.2
....................             Bomba_off; 
0D3F2:  BSF    F8B.0
0D3F4:  BCF    F94.0
....................             Aire=OFF; 
0D3F6:  BCF    xAC.3
....................             Esterilizando=OFF; 
0D3F8:  BCF    xA8.4
....................             Desfogando=OFF; 
0D3FA:  BCF    xA8.7
....................             IniciaCiclo=OFF; 
0D3FC:  BCF    xA8.3
....................             Controlando=0; 
0D3FE:  MOVLB  3
0D400:  CLRF   x60
....................             if(codigoAnt!=codigoAlarma){ 
0D402:  MOVLB  2
0D404:  MOVF   xEA,W
0D406:  SUBWF  xEB,W
0D408:  BZ    D418
....................                codigoAnt=codigoAlarma; 
0D40A:  MOVFF  2EA,2EB
....................                GuardaDatoCiclo(); 
0D40E:  MOVLB  0
0D410:  CALL   70CA
....................                incrementaCiclos(); 
0D414:  CALL   752A
....................             } 
....................             if(!flagImprimir){ 
0D418:  MOVLB  3
0D41A:  BTFSC  x5D.6
0D41C:  BRA    D45C
....................                Imprime=22; 
0D41E:  MOVLW  16
0D420:  MOVWF  xBE
....................                Envio_Esclavos(); 
0D422:  MOVLB  0
0D424:  CALL   4A76
....................                delay_ms(100); 
0D428:  MOVLW  64
0D42A:  MOVLB  4
0D42C:  MOVWF  x69
0D42E:  MOVLB  0
0D430:  CALL   1B4A
....................                Envio_Esclavos(); 
0D434:  CALL   4A76
....................                delay_ms(100); 
0D438:  MOVLW  64
0D43A:  MOVLB  4
0D43C:  MOVWF  x69
0D43E:  MOVLB  0
0D440:  CALL   1B4A
....................                Envio_Esclavos(); 
0D444:  CALL   4A76
....................                delay_ms(100); 
0D448:  MOVLW  64
0D44A:  MOVLB  4
0D44C:  MOVWF  x69
0D44E:  MOVLB  0
0D450:  CALL   1B4A
....................                Imprime=10; 
0D454:  MOVLW  0A
0D456:  MOVLB  3
0D458:  MOVWF  xBE
....................                flagImprimir=1; 
0D45A:  BSF    x5D.6
....................             } 
....................       }else if(AlarmaSobreTemperatura){ // Alarma de Sobre Temperatura 
0D45C:  BRA    D714
0D45E:  MOVLB  0
0D460:  BTFSS  xA7.1
0D462:  BRA    D516
....................          codigoAlarma=4; 
0D464:  MOVLW  04
0D466:  MOVLB  2
0D468:  MOVWF  xEA
....................          tiempo_esterilizacion=0;tiempo_secado=0; 
0D46A:  MOVLB  3
0D46C:  CLRF   x71
0D46E:  CLRF   x72
....................          printf("Funcionamiento.t4f.txt=\" Sobretemperatura\""); 
0D470:  MOVLW  14
0D472:  MOVWF  FF6
0D474:  MOVLW  14
0D476:  MOVWF  FF7
0D478:  MOVLW  00
0D47A:  MOVWF  FF8
0D47C:  MOVLB  0
0D47E:  CALL   3CA6
....................          SendDataDisplay(); 
0D482:  CALL   3CD8
....................          printf("Funcionamiento.t5f.txt=\" Cancelado\""); 
0D486:  MOVLW  40
0D488:  MOVWF  FF6
0D48A:  MOVLW  14
0D48C:  MOVWF  FF7
0D48E:  MOVLW  00
0D490:  MOVWF  FF8
0D492:  CALL   3CA6
....................          SendDataDisplay();   
0D496:  CALL   3CD8
....................          Desfogue_on; 
0D49A:  BCF    F8B.1
0D49C:  BCF    F94.1
....................          SSR_off; 
0D49E:  BCF    F8D.1
0D4A0:  BCF    F96.1
....................          Agua_off; 
0D4A2:  BSF    F8B.2
0D4A4:  BCF    F94.2
....................          Bomba_off; 
0D4A6:  BSF    F8B.0
0D4A8:  BCF    F94.0
....................          Aire=OFF; 
0D4AA:  BCF    xAC.3
....................          Controlando=0; 
0D4AC:  MOVLB  3
0D4AE:  CLRF   x60
....................          IniciaLlenado=OFF; 
0D4B0:  MOVLB  0
0D4B2:  BCF    xA8.1
....................          IniciaCiclo=OFF; 
0D4B4:  BCF    xA8.3
....................          Esterilizando=OFF; 
0D4B6:  BCF    xA8.4
....................          if(codigoAnt!=codigoAlarma){ 
0D4B8:  MOVLB  2
0D4BA:  MOVF   xEA,W
0D4BC:  SUBWF  xEB,W
0D4BE:  BZ    D4CE
....................             codigoAnt=codigoAlarma; 
0D4C0:  MOVFF  2EA,2EB
....................             GuardaDatoCiclo(); 
0D4C4:  MOVLB  0
0D4C6:  CALL   70CA
....................             incrementaCiclos(); 
0D4CA:  CALL   752A
....................          } 
....................          if(!flagImprimir){ 
0D4CE:  MOVLB  3
0D4D0:  BTFSC  x5D.6
0D4D2:  BRA    D512
....................             Imprime=23; 
0D4D4:  MOVLW  17
0D4D6:  MOVWF  xBE
....................             Envio_Esclavos(); 
0D4D8:  MOVLB  0
0D4DA:  CALL   4A76
....................             delay_ms(100); 
0D4DE:  MOVLW  64
0D4E0:  MOVLB  4
0D4E2:  MOVWF  x69
0D4E4:  MOVLB  0
0D4E6:  CALL   1B4A
....................             Envio_Esclavos(); 
0D4EA:  CALL   4A76
....................             delay_ms(100); 
0D4EE:  MOVLW  64
0D4F0:  MOVLB  4
0D4F2:  MOVWF  x69
0D4F4:  MOVLB  0
0D4F6:  CALL   1B4A
....................             Envio_Esclavos(); 
0D4FA:  CALL   4A76
....................             delay_ms(100); 
0D4FE:  MOVLW  64
0D500:  MOVLB  4
0D502:  MOVWF  x69
0D504:  MOVLB  0
0D506:  CALL   1B4A
....................             Imprime=10; 
0D50A:  MOVLW  0A
0D50C:  MOVLB  3
0D50E:  MOVWF  xBE
....................             flagImprimir=1; 
0D510:  BSF    x5D.6
....................          } 
....................       }else if(AlarmaTiempoProlongado){ // Alarma de Error de Tiempo: Error por exceso de tiempo de calentamiento. 
0D512:  BRA    D714
0D514:  MOVLB  0
0D516:  BTFSS  xA7.0
0D518:  BRA    D5C6
....................          codigoAlarma=5; 
0D51A:  MOVLW  05
0D51C:  MOVLB  2
0D51E:  MOVWF  xEA
....................          printf("Funcionamiento.t4f.txt=\" Tiempo Prolongado\""); 
0D520:  MOVLW  64
0D522:  MOVWF  FF6
0D524:  MOVLW  14
0D526:  MOVWF  FF7
0D528:  MOVLW  00
0D52A:  MOVWF  FF8
0D52C:  MOVLB  0
0D52E:  CALL   3CA6
....................          SendDataDisplay(); 
0D532:  CALL   3CD8
....................          printf("Funcionamiento.t5f.txt=\" Cancelado\""); 
0D536:  MOVLW  90
0D538:  MOVWF  FF6
0D53A:  MOVLW  14
0D53C:  MOVWF  FF7
0D53E:  MOVLW  00
0D540:  MOVWF  FF8
0D542:  CALL   3CA6
....................          SendDataDisplay(); 
0D546:  CALL   3CD8
....................          Desfogue_on; 
0D54A:  BCF    F8B.1
0D54C:  BCF    F94.1
....................          SSR_off; 
0D54E:  BCF    F8D.1
0D550:  BCF    F96.1
....................          Agua_off; 
0D552:  BSF    F8B.2
0D554:  BCF    F94.2
....................          Bomba_off; 
0D556:  BSF    F8B.0
0D558:  BCF    F94.0
....................          Aire=OFF; 
0D55A:  BCF    xAC.3
....................          Controlando=0; 
0D55C:  MOVLB  3
0D55E:  CLRF   x60
....................          IniciaLlenado=OFF; 
0D560:  MOVLB  0
0D562:  BCF    xA8.1
....................          IniciaCiclo=OFF; 
0D564:  BCF    xA8.3
....................          Esterilizando=OFF; 
0D566:  BCF    xA8.4
....................          if(codigoAnt!=codigoAlarma){ 
0D568:  MOVLB  2
0D56A:  MOVF   xEA,W
0D56C:  SUBWF  xEB,W
0D56E:  BZ    D57E
....................             codigoAnt=codigoAlarma; 
0D570:  MOVFF  2EA,2EB
....................             GuardaDatoCiclo(); 
0D574:  MOVLB  0
0D576:  CALL   70CA
....................             incrementaCiclos(); 
0D57A:  CALL   752A
....................          } 
....................          if(!flagImprimir){ 
0D57E:  MOVLB  3
0D580:  BTFSC  x5D.6
0D582:  BRA    D5C2
....................             Imprime=24; 
0D584:  MOVLW  18
0D586:  MOVWF  xBE
....................             Envio_Esclavos(); 
0D588:  MOVLB  0
0D58A:  CALL   4A76
....................             delay_ms(100); 
0D58E:  MOVLW  64
0D590:  MOVLB  4
0D592:  MOVWF  x69
0D594:  MOVLB  0
0D596:  CALL   1B4A
....................             Envio_Esclavos(); 
0D59A:  CALL   4A76
....................             delay_ms(100); 
0D59E:  MOVLW  64
0D5A0:  MOVLB  4
0D5A2:  MOVWF  x69
0D5A4:  MOVLB  0
0D5A6:  CALL   1B4A
....................             Envio_Esclavos(); 
0D5AA:  CALL   4A76
....................             delay_ms(100); 
0D5AE:  MOVLW  64
0D5B0:  MOVLB  4
0D5B2:  MOVWF  x69
0D5B4:  MOVLB  0
0D5B6:  CALL   1B4A
....................             Imprime=10; 
0D5BA:  MOVLW  0A
0D5BC:  MOVLB  3
0D5BE:  MOVWF  xBE
....................             flagImprimir=1; 
0D5C0:  BSF    x5D.6
....................          } 
....................       }else if(AlarmaPresion){ // Alarma de Error de SobrePresion: Error por exceso de Presion. 
0D5C2:  BRA    D714
0D5C4:  MOVLB  0
0D5C6:  BTFSS  xAB.7
0D5C8:  BRA    D674
....................          codigoAlarma=6; 
0D5CA:  MOVLW  06
0D5CC:  MOVLB  2
0D5CE:  MOVWF  xEA
....................          printf("Funcionamiento.t4f.txt=\" SobrePresin\""); 
0D5D0:  MOVLW  B4
0D5D2:  MOVWF  FF6
0D5D4:  MOVLW  14
0D5D6:  MOVWF  FF7
0D5D8:  MOVLW  00
0D5DA:  MOVWF  FF8
0D5DC:  MOVLB  0
0D5DE:  CALL   3CA6
....................          SendDataDisplay(); 
0D5E2:  CALL   3CD8
....................          printf("Funcionamiento.t5f.txt=\" Cancelado\""); 
0D5E6:  MOVLW  DC
0D5E8:  MOVWF  FF6
0D5EA:  MOVLW  14
0D5EC:  MOVWF  FF7
0D5EE:  MOVLW  00
0D5F0:  MOVWF  FF8
0D5F2:  CALL   3CA6
....................          SendDataDisplay(); 
0D5F6:  CALL   3CD8
....................          Desfogue_on; 
0D5FA:  BCF    F8B.1
0D5FC:  BCF    F94.1
....................          SSR_off; 
0D5FE:  BCF    F8D.1
0D600:  BCF    F96.1
....................          IniciaLlenado=OFF; 
0D602:  BCF    xA8.1
....................          IniciaCiclo=OFF; 
0D604:  BCF    xA8.3
....................          Esterilizando=OFF; 
0D606:  BCF    xA8.4
....................          Agua_off; 
0D608:  BSF    F8B.2
0D60A:  BCF    F94.2
....................          Bomba_off; 
0D60C:  BSF    F8B.0
0D60E:  BCF    F94.0
....................          Aire=OFF; 
0D610:  BCF    xAC.3
....................          Controlando=0; 
0D612:  MOVLB  3
0D614:  CLRF   x60
....................          if(codigoAnt!=codigoAlarma){ 
0D616:  MOVLB  2
0D618:  MOVF   xEA,W
0D61A:  SUBWF  xEB,W
0D61C:  BZ    D62C
....................             codigoAnt=codigoAlarma; 
0D61E:  MOVFF  2EA,2EB
....................             GuardaDatoCiclo(); 
0D622:  MOVLB  0
0D624:  CALL   70CA
....................             incrementaCiclos(); 
0D628:  CALL   752A
....................          } 
....................          if(!flagImprimir){ 
0D62C:  MOVLB  3
0D62E:  BTFSC  x5D.6
0D630:  BRA    D670
....................             Imprime=25; 
0D632:  MOVLW  19
0D634:  MOVWF  xBE
....................             Envio_Esclavos(); 
0D636:  MOVLB  0
0D638:  CALL   4A76
....................             delay_ms(100); 
0D63C:  MOVLW  64
0D63E:  MOVLB  4
0D640:  MOVWF  x69
0D642:  MOVLB  0
0D644:  CALL   1B4A
....................             Envio_Esclavos(); 
0D648:  CALL   4A76
....................             delay_ms(100); 
0D64C:  MOVLW  64
0D64E:  MOVLB  4
0D650:  MOVWF  x69
0D652:  MOVLB  0
0D654:  CALL   1B4A
....................             Envio_Esclavos(); 
0D658:  CALL   4A76
....................             delay_ms(100); 
0D65C:  MOVLW  64
0D65E:  MOVLB  4
0D660:  MOVWF  x69
0D662:  MOVLB  0
0D664:  CALL   1B4A
....................             Imprime=10; 
0D668:  MOVLW  0A
0D66A:  MOVLB  3
0D66C:  MOVWF  xBE
....................             flagImprimir=1; 
0D66E:  BSF    x5D.6
....................          } 
....................       }else if(AlarmaCiclo){ // Alarma de Error de SobrePresion: Error por exceso de Presion. 
0D670:  BRA    D714
0D672:  MOVLB  0
0D674:  BTFSS  xA7.6
0D676:  BRA    D714
....................          codigoAlarma=7; 
0D678:  MOVLW  07
0D67A:  MOVLB  2
0D67C:  MOVWF  xEA
....................          printf("Funcionamiento.t4f.txt=\" Error Ciclo\""); 
0D67E:  MOVLW  00
0D680:  MOVWF  FF6
0D682:  MOVLW  15
0D684:  MOVWF  FF7
0D686:  MOVLW  00
0D688:  MOVWF  FF8
0D68A:  MOVLB  0
0D68C:  CALL   3CA6
....................          SendDataDisplay(); 
0D690:  CALL   3CD8
....................          printf("Funcionamiento.t5f.txt=\" Cancelado\""); 
0D694:  MOVLW  26
0D696:  MOVWF  FF6
0D698:  MOVLW  15
0D69A:  MOVWF  FF7
0D69C:  MOVLW  00
0D69E:  MOVWF  FF8
0D6A0:  CALL   3CA6
....................          SendDataDisplay(); 
0D6A4:  CALL   3CD8
....................          Desfogue_on; 
0D6A8:  BCF    F8B.1
0D6AA:  BCF    F94.1
....................          SSR_off; 
0D6AC:  BCF    F8D.1
0D6AE:  BCF    F96.1
....................          IniciaLlenado=OFF; 
0D6B0:  BCF    xA8.1
....................          IniciaCiclo=OFF; 
0D6B2:  BCF    xA8.3
....................          Esterilizando=OFF; 
0D6B4:  BCF    xA8.4
....................          Controlando=0; 
0D6B6:  MOVLB  3
0D6B8:  CLRF   x60
....................          if(codigoAnt!=codigoAlarma){ 
0D6BA:  MOVLB  2
0D6BC:  MOVF   xEA,W
0D6BE:  SUBWF  xEB,W
0D6C0:  BZ    D6D0
....................             codigoAnt=codigoAlarma; 
0D6C2:  MOVFF  2EA,2EB
....................             GuardaDatoCiclo(); 
0D6C6:  MOVLB  0
0D6C8:  CALL   70CA
....................             incrementaCiclos(); 
0D6CC:  CALL   752A
....................          } 
....................          if(!flagImprimir){ 
0D6D0:  MOVLB  3
0D6D2:  BTFSC  x5D.6
0D6D4:  BRA    D714
....................             Imprime=26; 
0D6D6:  MOVLW  1A
0D6D8:  MOVWF  xBE
....................             Envio_Esclavos(); 
0D6DA:  MOVLB  0
0D6DC:  CALL   4A76
....................             delay_ms(100); 
0D6E0:  MOVLW  64
0D6E2:  MOVLB  4
0D6E4:  MOVWF  x69
0D6E6:  MOVLB  0
0D6E8:  CALL   1B4A
....................             Envio_Esclavos(); 
0D6EC:  CALL   4A76
....................             delay_ms(100); 
0D6F0:  MOVLW  64
0D6F2:  MOVLB  4
0D6F4:  MOVWF  x69
0D6F6:  MOVLB  0
0D6F8:  CALL   1B4A
....................             Envio_Esclavos(); 
0D6FC:  CALL   4A76
....................             delay_ms(100); 
0D700:  MOVLW  64
0D702:  MOVLB  4
0D704:  MOVWF  x69
0D706:  MOVLB  0
0D708:  CALL   1B4A
....................             Imprime=10; 
0D70C:  MOVLW  0A
0D70E:  MOVLB  3
0D710:  MOVWF  xBE
....................             flagImprimir=1; 
0D712:  BSF    x5D.6
0D714:  MOVLB  2
....................          } 
....................       } 
....................    } 
....................    else{   
0D716:  BRA    DDD8
0D718:  MOVLB  0
....................       Buzzer_off; 
0D71A:  BCF    F8C.7
0D71C:  BCF    F95.7
....................       IniciaCiclo=ON; 
0D71E:  BSF    xA8.3
....................       if(flagImprime){ 
0D720:  MOVLB  3
0D722:  BTFSS  x5D.5
0D724:  BRA    D744
....................          Imprime=5; 
0D726:  MOVLW  05
0D728:  MOVWF  xBE
....................          Envio_Esclavos(); 
0D72A:  MOVLB  0
0D72C:  CALL   4A76
....................          delay_ms(100); 
0D730:  MOVLW  64
0D732:  MOVLB  4
0D734:  MOVWF  x69
0D736:  MOVLB  0
0D738:  CALL   1B4A
....................          Imprime=10; 
0D73C:  MOVLW  0A
0D73E:  MOVLB  3
0D740:  MOVWF  xBE
....................          flagImprime=0; 
0D742:  BCF    x5D.5
....................       } 
....................          if(!CalderinLleno){ 
0D744:  MOVLB  0
0D746:  BTFSC  xA8.2
0D748:  BRA    D7DE
....................             //Agua_on; 
....................             #ifdef Reservorio 
....................                if(!HIG){ 
0D74A:  BTFSC  xA9.2
0D74C:  BRA    D77C
....................                   printf("Funcionamiento.t4f.txt=\" Reservorio Bajo \""); 
0D74E:  MOVLW  4A
0D750:  MOVWF  FF6
0D752:  MOVLW  15
0D754:  MOVWF  FF7
0D756:  MOVLW  00
0D758:  MOVWF  FF8
0D75A:  CALL   3CA6
....................                   SendDataDisplay(); 
0D75E:  CALL   3CD8
....................                   printf("Funcionamiento.t5f.txt=\" Llenando Camara\""); 
0D762:  MOVLW  76
0D764:  MOVWF  FF6
0D766:  MOVLW  15
0D768:  MOVWF  FF7
0D76A:  MOVLW  00
0D76C:  MOVWF  FF8
0D76E:  CALL   3CA6
....................                   SendDataDisplay(); 
0D772:  CALL   3CD8
....................                   #ifdef ULKA               
....................                      apagaBombaAgua(); 
0D776:  CALL   4B52
....................                   #else 
....................                      Agua_on; 
....................                      Bomba_off; 
....................                   #endif 
....................                }else{ 
0D77A:  BRA    D7A8
....................                   printf("Funcionamiento.t4f.txt=\" Ninguna\""); 
0D77C:  MOVLW  A0
0D77E:  MOVWF  FF6
0D780:  MOVLW  15
0D782:  MOVWF  FF7
0D784:  MOVLW  00
0D786:  MOVWF  FF8
0D788:  CALL   3CA6
....................                   SendDataDisplay(); 
0D78C:  CALL   3CD8
....................                   printf("Funcionamiento.t5f.txt=\" Llenando Camara\""); 
0D790:  MOVLW  C2
0D792:  MOVWF  FF6
0D794:  MOVLW  15
0D796:  MOVWF  FF7
0D798:  MOVLW  00
0D79A:  MOVWF  FF8
0D79C:  CALL   3CA6
....................                   SendDataDisplay(); 
0D7A0:  CALL   3CD8
....................                   #ifdef ULKA               
....................                      enciendeBombaAgua(); 
0D7A4:  CALL   4B0E
....................                   #else 
....................                      Agua_on; 
....................                      Bomba_on; 
....................                   #endif 
....................                }  
....................             #else 
....................                printf("Funcionamiento.t4f.txt=\" Ninguna\""); 
....................                SendDataDisplay(); 
....................                printf("Funcionamiento.t5f.txt=\" Nivel Bajo\""); 
....................                SendDataDisplay(); 
....................                Agua_on; 
....................             #endif 
....................             SSR_off; 
0D7A8:  BCF    F8D.1
0D7AA:  BCF    F96.1
....................             Controlando=0; 
0D7AC:  MOVLB  3
0D7AE:  CLRF   x60
....................             Control=0; 
0D7B0:  CLRF   x5E
....................             IniciaLlenado=ON; 
0D7B2:  MOVLB  0
0D7B4:  BSF    xA8.1
....................             Controlando=0; 
0D7B6:  MOVLB  3
0D7B8:  CLRF   x60
....................             Desfogue_off; 
0D7BA:  BSF    F8B.1
0D7BC:  BCF    F94.1
....................             Aire=ON; 
0D7BE:  MOVLB  0
0D7C0:  BSF    xAC.3
....................             codigoAlarma=10; 
0D7C2:  MOVLW  0A
0D7C4:  MOVLB  2
0D7C6:  MOVWF  xEA
....................             if(codigoAnt!=codigoAlarma){ 
0D7C8:  MOVF   xEA,W
0D7CA:  SUBWF  xEB,W
0D7CC:  BZ    D7DA
....................                codigoAnt=codigoAlarma; 
0D7CE:  MOVFF  2EA,2EB
....................                GuardaDatoCiclo(); 
0D7D2:  MOVLB  0
0D7D4:  CALL   70CA
0D7D8:  MOVLB  2
....................             } 
....................          } 
....................          else{ 
0D7DA:  BRA    DDD8
0D7DC:  MOVLB  0
....................             Agua_off; 
0D7DE:  BSF    F8B.2
0D7E0:  BCF    F94.2
....................             if(Temperatura>=((float)Setpoint)){ 
0D7E2:  MOVLB  4
0D7E4:  CLRF   x66
0D7E6:  MOVFF  36E,465
0D7EA:  MOVLB  0
0D7EC:  CALL   1B72
0D7F0:  MOVFF  03,457
0D7F4:  MOVFF  02,456
0D7F8:  MOVFF  01,455
0D7FC:  MOVFF  00,454
0D800:  MOVFF  335,45B
0D804:  MOVFF  334,45A
0D808:  MOVFF  333,459
0D80C:  MOVFF  332,458
0D810:  CALL   30E0
0D814:  BC    D818
0D816:  BNZ   D81A
....................                Esterilizando=ON; 
0D818:  BSF    xA8.4
....................             } 
....................              
....................             if(Temperatura<((float)Setpoint-0.9) && !Desfogando){ 
0D81A:  MOVLB  4
0D81C:  CLRF   x66
0D81E:  MOVFF  36E,465
0D822:  MOVLB  0
0D824:  CALL   1B72
0D828:  MOVFF  00,450
0D82C:  MOVFF  01,451
0D830:  MOVFF  02,452
0D834:  MOVFF  03,453
0D838:  BSF    FD8.1
0D83A:  MOVFF  03,468
0D83E:  MOVFF  02,467
0D842:  MOVFF  01,466
0D846:  MOVFF  00,465
0D84A:  MOVLW  66
0D84C:  MOVLB  4
0D84E:  MOVWF  x6C
0D850:  MOVWF  x6B
0D852:  MOVWF  x6A
0D854:  MOVLW  7E
0D856:  MOVWF  x69
0D858:  MOVLB  0
0D85A:  CALL   1D06
0D85E:  MOVFF  335,457
0D862:  MOVFF  334,456
0D866:  MOVFF  333,455
0D86A:  MOVFF  332,454
0D86E:  MOVFF  03,45B
0D872:  MOVFF  02,45A
0D876:  MOVFF  01,459
0D87A:  MOVFF  00,458
0D87E:  CALL   30E0
0D882:  BNC   D88A
0D884:  BTFSC  xA8.7
0D886:  BRA    D88A
....................                Esterilizando=OFF; 
0D888:  BCF    xA8.4
....................             } 
....................              
....................             if(!Esterilizando){ 
0D88A:  BTFSC  xA8.4
0D88C:  BRA    D928
....................                codigoAlarma=12; 
0D88E:  MOVLW  0C
0D890:  MOVLB  2
0D892:  MOVWF  xEA
....................                if(codigoAnt!=codigoAlarma){ 
0D894:  MOVF   xEA,W
0D896:  SUBWF  xEB,W
0D898:  BZ    D8A6
....................                   codigoAnt=codigoAlarma; 
0D89A:  MOVFF  2EA,2EB
....................                   GuardaDatoCiclo();                   
0D89E:  MOVLB  0
0D8A0:  CALL   70CA
0D8A4:  MOVLB  2
....................                } 
....................                printf("Funcionamiento.t4f.txt=\" Ninguna\""); 
0D8A6:  MOVLW  EC
0D8A8:  MOVWF  FF6
0D8AA:  MOVLW  15
0D8AC:  MOVWF  FF7
0D8AE:  MOVLW  00
0D8B0:  MOVWF  FF8
0D8B2:  MOVLB  0
0D8B4:  CALL   3CA6
....................                SendDataDisplay(); 
0D8B8:  CALL   3CD8
....................                printf("Funcionamiento.t5f.txt=\" Calentando\""); 
0D8BC:  MOVLW  0E
0D8BE:  MOVWF  FF6
0D8C0:  MOVLW  16
0D8C2:  MOVWF  FF7
0D8C4:  MOVLW  00
0D8C6:  MOVWF  FF8
0D8C8:  CALL   3CA6
....................                SendDataDisplay(); 
0D8CC:  CALL   3CD8
....................                Control=1; 
0D8D0:  MOVLW  01
0D8D2:  MOVLB  3
0D8D4:  MOVWF  x5E
....................                Bomba_off; 
0D8D6:  BSF    F8B.0
0D8D8:  BCF    F94.0
....................                if(Temperatura<=TTrampa){ 
0D8DA:  MOVLB  4
0D8DC:  CLRF   x66
0D8DE:  MOVFF  2E4,465
0D8E2:  MOVLB  0
0D8E4:  CALL   1B72
0D8E8:  MOVFF  335,457
0D8EC:  MOVFF  334,456
0D8F0:  MOVFF  333,455
0D8F4:  MOVFF  332,454
0D8F8:  MOVFF  03,45B
0D8FC:  MOVFF  02,45A
0D900:  MOVFF  01,459
0D904:  MOVFF  00,458
0D908:  CALL   30E0
0D90C:  BC    D910
0D90E:  BNZ   D91C
....................                   Aire=ON; 
0D910:  BSF    xAC.3
....................                   Controla(); 
0D912:  CALL   7624
....................                   #ifdef Reservorio 
....................                      Desfogue_off; 
0D916:  BSF    F8B.1
0D918:  BCF    F94.1
....................                   #else 
....................                      Desfogue_on; 
....................                   #endif 
....................                }else{ 
0D91A:  BRA    D926
....................                   Aire=OFF; 
0D91C:  BCF    xAC.3
....................                   Desfogue_off; 
0D91E:  BSF    F8B.1
0D920:  BCF    F94.1
....................                   #ifdef PT100Fija 
....................                      Controla(); 
0D922:  CALL   7624
....................                   #else 
....................                      ControlaPresion(); 
....................                   #endif 
....................                } 
....................             }else{ 
0D926:  BRA    DDD4
....................                TiempoCiclo=0; 
0D928:  CLRF   xAE
0D92A:  CLRF   xAD
....................                if((Testerilizacion[0]==0)&&(Testerilizacion[1]==0)&& 
....................                (Testerilizacion[2]==0)&&(Testerilizacion[3]==0)){  
0D92C:  MOVF   xB9,F
0D92E:  BTFSS  FD8.2
0D930:  BRA    DD80
0D932:  MOVF   xBA,F
0D934:  BTFSS  FD8.2
0D936:  BRA    DD80
0D938:  MOVF   xBB,F
0D93A:  BTFSS  FD8.2
0D93C:  BRA    DD80
0D93E:  MOVF   xBC,F
0D940:  BTFSS  FD8.2
0D942:  BRA    DD80
....................                   if(desfoguelento){ 
0D944:  MOVLB  3
0D946:  BTFSS  x5D.0
0D948:  BRA    DB46
....................                      Controlando=0; 
0D94A:  CLRF   x60
....................                      if(PresionCamara<=Atmosferica+25){ 
0D94C:  MOVLW  19
0D94E:  ADDWF  xBF,W
0D950:  MOVF   x81,F
0D952:  BTFSS  FD8.2
0D954:  BRA    DAEC
0D956:  SUBWF  x80,W
0D958:  BZ    D95E
0D95A:  BTFSC  FD8.0
0D95C:  BRA    DAEC
....................                         Secando=OFF; 
0D95E:  MOVLB  0
0D960:  BCF    xA8.5
....................                         DesfogueSuave=OFF; 
0D962:  BCF    xA9.0
....................                         Bomba_off; 
0D964:  BSF    F8B.0
0D966:  BCF    F94.0
....................                         Aire=OFF; 
0D968:  BCF    xAC.3
....................                         if(PresionCamara<Atmosferica+2){ 
0D96A:  MOVLW  02
0D96C:  MOVLB  3
0D96E:  ADDWF  xBF,W
0D970:  MOVF   x81,F
0D972:  BTFSS  FD8.2
0D974:  BRA    DAD6
0D976:  SUBWF  x80,W
0D978:  BTFSC  FD8.0
0D97A:  BRA    DAD6
....................                            if(!DOOR && !DOORL){ 
0D97C:  BSF    F93.6
0D97E:  BTFSS  F81.6
0D980:  BRA    D98E
0D982:  BSF    F93.7
0D984:  BTFSS  F81.7
0D986:  BRA    D98E
....................                               Desfogue_off; 
0D988:  BSF    F8B.1
0D98A:  BCF    F94.1
....................                            }else{ 
0D98C:  BRA    D992
....................                               Desfogue_on; 
0D98E:  BCF    F8B.1
0D990:  BCF    F94.1
....................                            } 
....................                            if(Temperatura<=90){ 
0D992:  MOVFF  335,457
0D996:  MOVFF  334,456
0D99A:  MOVFF  333,455
0D99E:  MOVFF  332,454
0D9A2:  MOVLB  4
0D9A4:  CLRF   x5B
0D9A6:  CLRF   x5A
0D9A8:  MOVLW  34
0D9AA:  MOVWF  x59
0D9AC:  MOVLW  85
0D9AE:  MOVWF  x58
0D9B0:  MOVLB  0
0D9B2:  CALL   30E0
0D9B6:  BC    D9BA
0D9B8:  BNZ   D9F0
....................                               ActivaAlarma(2); 
0D9BA:  MOVLW  02
0D9BC:  MOVLB  4
0D9BE:  MOVWF  x50
0D9C0:  MOVLB  0
0D9C2:  CALL   4B9E
....................                               printf("Funcionamiento.t4f.txt=\" Abra Lado Limpio\""); 
0D9C6:  MOVLW  34
0D9C8:  MOVWF  FF6
0D9CA:  MOVLW  16
0D9CC:  MOVWF  FF7
0D9CE:  MOVLW  00
0D9D0:  MOVWF  FF8
0D9D2:  CALL   3CA6
....................                               SendDataDisplay(); 
0D9D6:  CALL   3CD8
....................                               printf("Funcionamiento.t5f.txt=\" Finalizado\""); 
0D9DA:  MOVLW  60
0D9DC:  MOVWF  FF6
0D9DE:  MOVLW  16
0D9E0:  MOVWF  FF7
0D9E2:  MOVLW  00
0D9E4:  MOVWF  FF8
0D9E6:  CALL   3CA6
....................                               SendDataDisplay(); 
0D9EA:  CALL   3CD8
....................                               Finalizo=ON; 
0D9EE:  BSF    xAB.6
....................                            } 
....................                            codigoAlarma=14; 
0D9F0:  MOVLW  0E
0D9F2:  MOVLB  2
0D9F4:  MOVWF  xEA
....................                            if(codigoAnt!=codigoAlarma){ 
0D9F6:  MOVF   xEA,W
0D9F8:  SUBWF  xEB,W
0D9FA:  BZ    DA06
....................                               codigoAnt=codigoAlarma; 
0D9FC:  MOVFF  2EA,2EB
....................                               GuardaDatoCiclo();                   
0DA00:  MOVLB  0
0DA02:  CALL   70CA
....................                            } 
....................                            if(!Ciclo){ 
0DA06:  MOVLB  0
0DA08:  BTFSC  xA9.7
0DA0A:  BRA    DAD2
....................                               Ciclo=ON; 
0DA0C:  BSF    xA9.7
....................                               Ciclos++; 
0DA0E:  MOVLB  3
0DA10:  INCF   x84,F
0DA12:  BTFSC  FD8.2
0DA14:  INCF   x85,F
....................                               CiclosL=make8(Ciclos,0); 
0DA16:  MOVFF  384,36B
....................                               CiclosH=make8(Ciclos,1); 
0DA1A:  MOVFF  385,36C
....................                               write_eeprom(37,CiclosL); 
0DA1E:  CLRF   FAA
0DA20:  MOVLW  25
0DA22:  MOVWF  FA9
0DA24:  MOVFF  36B,FA8
0DA28:  BCF    FA6.6
0DA2A:  BCF    FA6.7
0DA2C:  BSF    FA6.2
0DA2E:  MOVF   FF2,W
0DA30:  MOVWF  00
0DA32:  BCF    FF2.6
0DA34:  BCF    FF2.7
0DA36:  MOVLB  F
0DA38:  MOVLW  55
0DA3A:  MOVWF  FA7
0DA3C:  MOVLW  AA
0DA3E:  MOVWF  FA7
0DA40:  BSF    FA6.1
0DA42:  BTFSC  FA6.1
0DA44:  BRA    DA42
0DA46:  BCF    FA6.2
0DA48:  MOVF   00,W
0DA4A:  IORWF  FF2,F
....................                               delay_ms(20); 
0DA4C:  MOVLW  14
0DA4E:  MOVLB  4
0DA50:  MOVWF  x69
0DA52:  MOVLB  0
0DA54:  CALL   1B4A
....................                               write_eeprom(38,CiclosH); 
0DA58:  CLRF   FAA
0DA5A:  MOVLW  26
0DA5C:  MOVWF  FA9
0DA5E:  MOVFF  36C,FA8
0DA62:  BCF    FA6.6
0DA64:  BCF    FA6.7
0DA66:  BSF    FA6.2
0DA68:  MOVF   FF2,W
0DA6A:  MOVWF  00
0DA6C:  BCF    FF2.6
0DA6E:  BCF    FF2.7
0DA70:  MOVLB  F
0DA72:  MOVLW  55
0DA74:  MOVWF  FA7
0DA76:  MOVLW  AA
0DA78:  MOVWF  FA7
0DA7A:  BSF    FA6.1
0DA7C:  BTFSC  FA6.1
0DA7E:  BRA    DA7C
0DA80:  BCF    FA6.2
0DA82:  MOVF   00,W
0DA84:  IORWF  FF2,F
....................                               delay_ms(20);                               
0DA86:  MOVLW  14
0DA88:  MOVLB  4
0DA8A:  MOVWF  x69
0DA8C:  MOVLB  0
0DA8E:  CALL   1B4A
....................                               Imprime=28; 
0DA92:  MOVLW  1C
0DA94:  MOVLB  3
0DA96:  MOVWF  xBE
....................                               Envio_Esclavos(); 
0DA98:  MOVLB  0
0DA9A:  CALL   4A76
....................                               delay_ms(100); 
0DA9E:  MOVLW  64
0DAA0:  MOVLB  4
0DAA2:  MOVWF  x69
0DAA4:  MOVLB  0
0DAA6:  CALL   1B4A
....................                               Envio_Esclavos(); 
0DAAA:  CALL   4A76
....................                               delay_ms(100); 
0DAAE:  MOVLW  64
0DAB0:  MOVLB  4
0DAB2:  MOVWF  x69
0DAB4:  MOVLB  0
0DAB6:  CALL   1B4A
....................                               Envio_Esclavos(); 
0DABA:  CALL   4A76
....................                               delay_ms(100); 
0DABE:  MOVLW  64
0DAC0:  MOVLB  4
0DAC2:  MOVWF  x69
0DAC4:  MOVLB  0
0DAC6:  CALL   1B4A
....................                               Imprime=10;                               
0DACA:  MOVLW  0A
0DACC:  MOVLB  3
0DACE:  MOVWF  xBE
0DAD0:  MOVLB  0
....................                            } 
....................                         }else if(PresionCamara>=Atmosferica+7){ 
0DAD2:  BRA    DAE8
0DAD4:  MOVLB  3
0DAD6:  MOVLW  07
0DAD8:  ADDWF  xBF,W
0DADA:  MOVF   x81,F
0DADC:  BNZ   DAE2
0DADE:  SUBWF  x80,W
0DAE0:  BNC   DAE6
....................                            Desfogue_on; 
0DAE2:  BCF    F8B.1
0DAE4:  BCF    F94.1
0DAE6:  MOVLB  0
....................                         } 
....................                      }else{ 
0DAE8:  BRA    DB42
0DAEA:  MOVLB  3
....................                         codigoAlarma=13; 
0DAEC:  MOVLW  0D
0DAEE:  MOVLB  2
0DAF0:  MOVWF  xEA
....................                         if(codigoAnt!=codigoAlarma){ 
0DAF2:  MOVF   xEA,W
0DAF4:  SUBWF  xEB,W
0DAF6:  BZ    DB02
....................                            codigoAnt=codigoAlarma; 
0DAF8:  MOVFF  2EA,2EB
....................                            GuardaDatoCiclo();                   
0DAFC:  MOVLB  0
0DAFE:  CALL   70CA
....................                         } 
....................                         Desfogando=ON; 
0DB02:  MOVLB  0
0DB04:  BSF    xA8.7
....................                         DesfogueSuave=ON; 
0DB06:  BSF    xA9.0
....................                         printf("Funcionamiento.t4f.txt=\" Ninguna\""); 
0DB08:  MOVLW  86
0DB0A:  MOVWF  FF6
0DB0C:  MOVLW  16
0DB0E:  MOVWF  FF7
0DB10:  MOVLW  00
0DB12:  MOVWF  FF8
0DB14:  CALL   3CA6
....................                         SendDataDisplay(); 
0DB18:  CALL   3CD8
....................                         printf("Funcionamiento.t5f.txt=\" Despresurizando\""); 
0DB1C:  MOVLW  A8
0DB1E:  MOVWF  FF6
0DB20:  MOVLW  16
0DB22:  MOVWF  FF7
0DB24:  MOVLW  00
0DB26:  MOVWF  FF8
0DB28:  CALL   3CA6
....................                         SendDataDisplay(); 
0DB2C:  CALL   3CD8
....................                         Control=0; 
0DB30:  MOVLB  3
0DB32:  CLRF   x5E
....................                         Controlando=0; 
0DB34:  CLRF   x60
....................                         SSR_off; 
0DB36:  BCF    F8D.1
0DB38:  BCF    F96.1
....................                         Bomba_off; 
0DB3A:  BSF    F8B.0
0DB3C:  BCF    F94.0
....................                         Aire=OFF; 
0DB3E:  MOVLB  0
0DB40:  BCF    xAC.3
....................                      } 
....................                   }else{ 
0DB42:  BRA    DD7A
0DB44:  MOVLB  3
....................                      //SSR_off; 
....................                      Controlando=0; 
0DB46:  CLRF   x60
....................                      Control=0; 
0DB48:  CLRF   x5E
....................                      if(PresionCamara<=Atmosferica+5){ 
0DB4A:  MOVLW  05
0DB4C:  ADDWF  xBF,W
0DB4E:  MOVF   x81,F
0DB50:  BTFSS  FD8.2
0DB52:  BRA    DD16
0DB54:  SUBWF  x80,W
0DB56:  BZ    DB5C
0DB58:  BTFSC  FD8.0
0DB5A:  BRA    DD16
....................                         if((Tsecado[0]==0)&&(Tsecado[1]==0)&&(Tsecado[2]==0)&&(Tsecado[3]==0)){ 
0DB5C:  MOVLB  0
0DB5E:  MOVF   xC3,F
0DB60:  BTFSS  FD8.2
0DB62:  BRA    DCB4
0DB64:  MOVF   xC4,F
0DB66:  BTFSS  FD8.2
0DB68:  BRA    DCB4
0DB6A:  MOVF   xC5,F
0DB6C:  BTFSS  FD8.2
0DB6E:  BRA    DCB4
0DB70:  MOVF   xC6,F
0DB72:  BTFSS  FD8.2
0DB74:  BRA    DCB4
....................                            SSR_off; 
0DB76:  BCF    F8D.1
0DB78:  BCF    F96.1
....................                            Secando=OFF; 
0DB7A:  BCF    xA8.5
....................                            if(!DOOR && !DOORL){ 
0DB7C:  BSF    F93.6
0DB7E:  BTFSS  F81.6
0DB80:  BRA    DB92
0DB82:  BSF    F93.7
0DB84:  BTFSS  F81.7
0DB86:  BRA    DB92
....................                               Bomba_off; 
0DB88:  BSF    F8B.0
0DB8A:  BCF    F94.0
....................                               Aire=OFF; 
0DB8C:  BCF    xAC.3
....................                               Desfogue_off; 
0DB8E:  BSF    F8B.1
0DB90:  BCF    F94.1
....................                            } 
....................                            
....................                            ActivaAlarma(2); 
0DB92:  MOVLW  02
0DB94:  MOVLB  4
0DB96:  MOVWF  x50
0DB98:  MOVLB  0
0DB9A:  CALL   4B9E
....................                            printf("Funcionamiento.t4f.txt=\" Abra Lado Limpio\""); 
0DB9E:  MOVLW  D2
0DBA0:  MOVWF  FF6
0DBA2:  MOVLW  16
0DBA4:  MOVWF  FF7
0DBA6:  MOVLW  00
0DBA8:  MOVWF  FF8
0DBAA:  CALL   3CA6
....................                            SendDataDisplay(); 
0DBAE:  CALL   3CD8
....................                            printf("Funcionamiento.t5f.txt=\" Finalizado\""); 
0DBB2:  MOVLW  FE
0DBB4:  MOVWF  FF6
0DBB6:  MOVLW  16
0DBB8:  MOVWF  FF7
0DBBA:  MOVLW  00
0DBBC:  MOVWF  FF8
0DBBE:  CALL   3CA6
....................                            SendDataDisplay(); 
0DBC2:  CALL   3CD8
....................                            Finalizo=ON; 
0DBC6:  BSF    xAB.6
....................                            Bomba_off; 
0DBC8:  BSF    F8B.0
0DBCA:  BCF    F94.0
....................                            Aire=OFF; 
0DBCC:  BCF    xAC.3
....................                             
....................                            codigoAlarma=14; 
0DBCE:  MOVLW  0E
0DBD0:  MOVLB  2
0DBD2:  MOVWF  xEA
....................                            if(codigoAnt!=codigoAlarma){ 
0DBD4:  MOVF   xEA,W
0DBD6:  SUBWF  xEB,W
0DBD8:  BZ    DBE4
....................                               codigoAnt=codigoAlarma; 
0DBDA:  MOVFF  2EA,2EB
....................                               GuardaDatoCiclo();                   
0DBDE:  MOVLB  0
0DBE0:  CALL   70CA
....................                            } 
....................                            if(!Ciclo){ 
0DBE4:  MOVLB  0
0DBE6:  BTFSC  xA9.7
0DBE8:  BRA    DCB0
....................                               Ciclo=ON; 
0DBEA:  BSF    xA9.7
....................                               Ciclos++; 
0DBEC:  MOVLB  3
0DBEE:  INCF   x84,F
0DBF0:  BTFSC  FD8.2
0DBF2:  INCF   x85,F
....................                               CiclosL=make8(Ciclos,0); 
0DBF4:  MOVFF  384,36B
....................                               CiclosH=make8(Ciclos,1); 
0DBF8:  MOVFF  385,36C
....................                               write_eeprom(37,CiclosL); 
0DBFC:  CLRF   FAA
0DBFE:  MOVLW  25
0DC00:  MOVWF  FA9
0DC02:  MOVFF  36B,FA8
0DC06:  BCF    FA6.6
0DC08:  BCF    FA6.7
0DC0A:  BSF    FA6.2
0DC0C:  MOVF   FF2,W
0DC0E:  MOVWF  00
0DC10:  BCF    FF2.6
0DC12:  BCF    FF2.7
0DC14:  MOVLB  F
0DC16:  MOVLW  55
0DC18:  MOVWF  FA7
0DC1A:  MOVLW  AA
0DC1C:  MOVWF  FA7
0DC1E:  BSF    FA6.1
0DC20:  BTFSC  FA6.1
0DC22:  BRA    DC20
0DC24:  BCF    FA6.2
0DC26:  MOVF   00,W
0DC28:  IORWF  FF2,F
....................                               delay_ms(20); 
0DC2A:  MOVLW  14
0DC2C:  MOVLB  4
0DC2E:  MOVWF  x69
0DC30:  MOVLB  0
0DC32:  CALL   1B4A
....................                               write_eeprom(38,CiclosH); 
0DC36:  CLRF   FAA
0DC38:  MOVLW  26
0DC3A:  MOVWF  FA9
0DC3C:  MOVFF  36C,FA8
0DC40:  BCF    FA6.6
0DC42:  BCF    FA6.7
0DC44:  BSF    FA6.2
0DC46:  MOVF   FF2,W
0DC48:  MOVWF  00
0DC4A:  BCF    FF2.6
0DC4C:  BCF    FF2.7
0DC4E:  MOVLB  F
0DC50:  MOVLW  55
0DC52:  MOVWF  FA7
0DC54:  MOVLW  AA
0DC56:  MOVWF  FA7
0DC58:  BSF    FA6.1
0DC5A:  BTFSC  FA6.1
0DC5C:  BRA    DC5A
0DC5E:  BCF    FA6.2
0DC60:  MOVF   00,W
0DC62:  IORWF  FF2,F
....................                               delay_ms(20); 
0DC64:  MOVLW  14
0DC66:  MOVLB  4
0DC68:  MOVWF  x69
0DC6A:  MOVLB  0
0DC6C:  CALL   1B4A
....................                               Imprime=28; 
0DC70:  MOVLW  1C
0DC72:  MOVLB  3
0DC74:  MOVWF  xBE
....................                               Envio_Esclavos(); 
0DC76:  MOVLB  0
0DC78:  CALL   4A76
....................                               delay_ms(100); 
0DC7C:  MOVLW  64
0DC7E:  MOVLB  4
0DC80:  MOVWF  x69
0DC82:  MOVLB  0
0DC84:  CALL   1B4A
....................                               Envio_Esclavos(); 
0DC88:  CALL   4A76
....................                               delay_ms(100); 
0DC8C:  MOVLW  64
0DC8E:  MOVLB  4
0DC90:  MOVWF  x69
0DC92:  MOVLB  0
0DC94:  CALL   1B4A
....................                               Envio_Esclavos(); 
0DC98:  CALL   4A76
....................                               delay_ms(100); 
0DC9C:  MOVLW  64
0DC9E:  MOVLB  4
0DCA0:  MOVWF  x69
0DCA2:  MOVLB  0
0DCA4:  CALL   1B4A
....................                               Imprime=10; 
0DCA8:  MOVLW  0A
0DCAA:  MOVLB  3
0DCAC:  MOVWF  xBE
0DCAE:  MOVLB  0
....................                            } 
....................                            Secando=OFF; 
0DCB0:  BCF    xA8.5
....................                         }else{ 
0DCB2:  BRA    DD12
....................                            codigoAlarma=15; 
0DCB4:  MOVLW  0F
0DCB6:  MOVLB  2
0DCB8:  MOVWF  xEA
....................                            if(codigoAnt!=codigoAlarma){ 
0DCBA:  MOVF   xEA,W
0DCBC:  SUBWF  xEB,W
0DCBE:  BZ    DCCA
....................                               codigoAnt=codigoAlarma; 
0DCC0:  MOVFF  2EA,2EB
....................                               GuardaDatoCiclo();                   
0DCC4:  MOVLB  0
0DCC6:  CALL   70CA
....................                            } 
....................                            Secando=ON; 
0DCCA:  MOVLB  0
0DCCC:  BSF    xA8.5
....................                            printf("Funcionamiento.t4f.txt=\" Ninguna\""); 
0DCCE:  MOVLW  24
0DCD0:  MOVWF  FF6
0DCD2:  MOVLW  17
0DCD4:  MOVWF  FF7
0DCD6:  MOVLW  00
0DCD8:  MOVWF  FF8
0DCDA:  CALL   3CA6
....................                            SendDataDisplay(); 
0DCDE:  CALL   3CD8
....................                            printf("Funcionamiento.t5f.txt=\" Secando\""); 
0DCE2:  MOVLW  46
0DCE4:  MOVWF  FF6
0DCE6:  MOVLW  17
0DCE8:  MOVWF  FF7
0DCEA:  MOVLW  00
0DCEC:  MOVWF  FF8
0DCEE:  CALL   3CA6
....................                            SendDataDisplay();                            
0DCF2:  CALL   3CD8
....................                            if(DOOR){ 
0DCF6:  BSF    F93.6
0DCF8:  BTFSC  F81.6
0DCFA:  BRA    DD04
....................                               Aire=ON; 
0DCFC:  BSF    xAC.3
....................                               Desfogue_on; 
0DCFE:  BCF    F8B.1
0DD00:  BCF    F94.1
....................                            }else{ 
0DD02:  BRA    DD12
....................                               CalientaChaqueta(); 
0DD04:  GOTO   7BBA
....................                               Bomba_off; 
0DD08:  BSF    F8B.0
0DD0A:  BCF    F94.0
....................                               Aire=OFF; 
0DD0C:  BCF    xAC.3
....................                               Desfogue_off; 
0DD0E:  BSF    F8B.1
0DD10:  BCF    F94.1
....................                            } 
....................                         } 
....................                      }else if(PresionCamara>Atmosferica+6){ 
0DD12:  BRA    DD7A
0DD14:  MOVLB  3
0DD16:  MOVLW  06
0DD18:  ADDWF  xBF,W
0DD1A:  MOVF   x81,F
0DD1C:  BNZ   DD24
0DD1E:  SUBWF  x80,W
0DD20:  BZ    DD7C
0DD22:  BNC   DD7C
....................                         codigoAlarma=13; 
0DD24:  MOVLW  0D
0DD26:  MOVLB  2
0DD28:  MOVWF  xEA
....................                         if(codigoAnt!=codigoAlarma){ 
0DD2A:  MOVF   xEA,W
0DD2C:  SUBWF  xEB,W
0DD2E:  BZ    DD3A
....................                            codigoAnt=codigoAlarma; 
0DD30:  MOVFF  2EA,2EB
....................                            GuardaDatoCiclo();                   
0DD34:  MOVLB  0
0DD36:  CALL   70CA
....................                         } 
....................                         Desfogando=ON; 
0DD3A:  MOVLB  0
0DD3C:  BSF    xA8.7
....................                         printf("Funcionamiento.t4f.txt=\" Ninguna\""); 
0DD3E:  MOVLW  68
0DD40:  MOVWF  FF6
0DD42:  MOVLW  17
0DD44:  MOVWF  FF7
0DD46:  MOVLW  00
0DD48:  MOVWF  FF8
0DD4A:  CALL   3CA6
....................                         SendDataDisplay(); 
0DD4E:  CALL   3CD8
....................                         printf("Funcionamiento.t5f.txt=\" Despresurizando\""); 
0DD52:  MOVLW  8A
0DD54:  MOVWF  FF6
0DD56:  MOVLW  17
0DD58:  MOVWF  FF7
0DD5A:  MOVLW  00
0DD5C:  MOVWF  FF8
0DD5E:  CALL   3CA6
....................                         SendDataDisplay();                         
0DD62:  CALL   3CD8
....................                         Controlando=0; 
0DD66:  MOVLB  3
0DD68:  CLRF   x60
....................                         SSR_off; 
0DD6A:  BCF    F8D.1
0DD6C:  BCF    F96.1
....................                         Bomba_off; 
0DD6E:  BSF    F8B.0
0DD70:  BCF    F94.0
....................                         Aire=OFF; 
0DD72:  MOVLB  0
0DD74:  BCF    xAC.3
....................                         Desfogue_on; 
0DD76:  BCF    F8B.1
0DD78:  BCF    F94.1
0DD7A:  MOVLB  3
....................                      } 
....................                   } 
....................                    
....................                }else{ 
0DD7C:  BRA    DDD6
0DD7E:  MOVLB  0
....................                   printf("Funcionamiento.t4f.txt=\" Ninguna\""); 
0DD80:  MOVLW  B4
0DD82:  MOVWF  FF6
0DD84:  MOVLW  17
0DD86:  MOVWF  FF7
0DD88:  MOVLW  00
0DD8A:  MOVWF  FF8
0DD8C:  CALL   3CA6
....................                   SendDataDisplay(); 
0DD90:  CALL   3CD8
....................                   printf("Funcionamiento.t5f.txt=\" Esterilizando\""); 
0DD94:  MOVLW  D6
0DD96:  MOVWF  FF6
0DD98:  MOVLW  17
0DD9A:  MOVWF  FF7
0DD9C:  MOVLW  00
0DD9E:  MOVWF  FF8
0DDA0:  CALL   3CA6
....................                   SendDataDisplay(); 
0DDA4:  CALL   3CD8
....................                   Bomba_off; 
0DDA8:  BSF    F8B.0
0DDAA:  BCF    F94.0
....................                   Aire=OFF; 
0DDAC:  BCF    xAC.3
....................                   Desfogue_off; 
0DDAE:  BSF    F8B.1
0DDB0:  BCF    F94.1
....................                   Control=1; 
0DDB2:  MOVLW  01
0DDB4:  MOVLB  3
0DDB6:  MOVWF  x5E
....................                   codigoAlarma=16; 
0DDB8:  MOVLW  10
0DDBA:  MOVLB  2
0DDBC:  MOVWF  xEA
....................                   if(codigoAnt!=codigoAlarma){ 
0DDBE:  MOVF   xEA,W
0DDC0:  SUBWF  xEB,W
0DDC2:  BZ    DDCE
....................                      codigoAnt=codigoAlarma; 
0DDC4:  MOVFF  2EA,2EB
....................                      GuardaDatoCiclo();                   
0DDC8:  MOVLB  0
0DDCA:  CALL   70CA
....................                   } 
....................                   #ifdef PT100Fija 
....................                      Controla(); 
0DDCE:  MOVLB  0
0DDD0:  CALL   7624
0DDD4:  MOVLB  3
0DDD6:  MOVLB  2
....................                   #else 
....................                      ControlaPresion(); 
....................                   #endif 
....................                } 
....................             } 
....................          } 
....................    } 
....................  
....................    if(tguarda>=180){ 
0DDD8:  MOVLB  0
0DDDA:  MOVF   xB8,F
0DDDC:  BNZ   DDE4
0DDDE:  MOVF   xB7,W
0DDE0:  SUBLW  B3
0DDE2:  BC    DDF0
....................       if(!Ciclo){ 
0DDE4:  BTFSC  xA9.7
0DDE6:  BRA    DDF0
....................          GuardaDatoCiclo(); 
0DDE8:  CALL   70CA
....................          tguarda=0; 
0DDEC:  CLRF   xB8
0DDEE:  CLRF   xB7
....................       } 
....................    } 
....................     
....................    if(Grafica==1){ 
0DDF0:  MOVLB  3
0DDF2:  BTFSS  x5D.2
0DDF4:  BRA    DE34
....................       printf("add 14,0,%1.0f",Temperatura); 
0DDF6:  MOVLW  FE
0DDF8:  MOVWF  FF6
0DDFA:  MOVLW  17
0DDFC:  MOVWF  FF7
0DDFE:  MOVLW  00
0DE00:  MOVWF  FF8
0DE02:  MOVLW  09
0DE04:  MOVLB  4
0DE06:  MOVWF  x56
0DE08:  MOVLB  0
0DE0A:  CALL   4CA0
0DE0E:  MOVLW  00
0DE10:  MOVWF  FE9
0DE12:  MOVFF  335,459
0DE16:  MOVFF  334,458
0DE1A:  MOVFF  333,457
0DE1E:  MOVFF  332,456
0DE22:  MOVLB  4
0DE24:  CLRF   x5A
0DE26:  MOVLB  0
0DE28:  CALL   4E40
....................       SendDataDisplay(); 
0DE2C:  CALL   3CD8
....................       //printf("add 14,1,%1.0f",PresionCamara/1.667); 
....................       //SendDataDisplay(); 
....................       //printf("add 14,0,%1.0f",Temperatura); 
....................       //SendDataDisplay(); 
....................       Grafica=0; 
0DE30:  MOVLB  3
0DE32:  BCF    x5D.2
....................    } 
....................    if(Lectura==1)// Utilizado para visualizar la lectura de la temperatura 
0DE34:  BTFSS  x5D.1
0DE36:  BRA    E0F8
....................    {                             
....................       Lectura=0; 
0DE38:  BCF    x5D.1
....................       printf("t6f.txt=\"%3.1fC\"",Temperatura); 
0DE3A:  MOVLW  0E
0DE3C:  MOVWF  FF6
0DE3E:  MOVLW  18
0DE40:  MOVWF  FF7
0DE42:  MOVLW  00
0DE44:  MOVWF  FF8
0DE46:  MOVLW  09
0DE48:  MOVLB  4
0DE4A:  MOVWF  x56
0DE4C:  MOVLB  0
0DE4E:  CALL   4CA0
0DE52:  MOVLW  02
0DE54:  MOVWF  FE9
0DE56:  MOVFF  335,459
0DE5A:  MOVFF  334,458
0DE5E:  MOVFF  333,457
0DE62:  MOVFF  332,456
0DE66:  MOVLW  01
0DE68:  MOVLB  4
0DE6A:  MOVWF  x5A
0DE6C:  MOVLB  0
0DE6E:  CALL   4E40
0DE72:  MOVLW  B0
0DE74:  BTFSS  F9E.4
0DE76:  BRA    DE74
0DE78:  MOVWF  FAD
0DE7A:  MOVLW  43
0DE7C:  BTFSS  F9E.4
0DE7E:  BRA    DE7C
0DE80:  MOVWF  FAD
0DE82:  MOVLW  22
0DE84:  BTFSS  F9E.4
0DE86:  BRA    DE84
0DE88:  MOVWF  FAD
....................       SendDataDisplay(); 
0DE8A:  CALL   3CD8
....................       printf("Funcionamiento.t7f.txt=\"%03LukPa\"",PresionCamara); 
0DE8E:  MOVLW  20
0DE90:  MOVWF  FF6
0DE92:  MOVLW  18
0DE94:  MOVWF  FF7
0DE96:  MOVLW  00
0DE98:  MOVWF  FF8
0DE9A:  MOVLW  18
0DE9C:  MOVLB  4
0DE9E:  MOVWF  x56
0DEA0:  MOVLB  0
0DEA2:  CALL   4CA0
0DEA6:  MOVLW  0A
0DEA8:  MOVWF  FE9
0DEAA:  MOVFF  381,457
0DEAE:  MOVFF  380,456
0DEB2:  CALL   573A
0DEB6:  MOVLW  3D
0DEB8:  MOVWF  FF6
0DEBA:  MOVLW  18
0DEBC:  MOVWF  FF7
0DEBE:  MOVLW  00
0DEC0:  MOVWF  FF8
0DEC2:  MOVLW  04
0DEC4:  MOVLB  4
0DEC6:  MOVWF  x56
0DEC8:  MOVLB  0
0DECA:  CALL   4CA0
....................       SendDataDisplay(); 
0DECE:  CALL   3CD8
....................       //printf("Funcionamiento.t12f.txt=\"%03LukPa\"",PresionPreCamara); 
....................       printf("Funcionamiento.t12f.txt=\"000kPa\""); 
0DED2:  MOVLW  42
0DED4:  MOVWF  FF6
0DED6:  MOVLW  18
0DED8:  MOVWF  FF7
0DEDA:  MOVLW  00
0DEDC:  MOVWF  FF8
0DEDE:  CALL   3CA6
....................       SendDataDisplay(); 
0DEE2:  CALL   3CD8
....................       printf("Funcionamiento.t9f.txt=\"%03u\"",Setpoint); 
0DEE6:  MOVLW  64
0DEE8:  MOVWF  FF6
0DEEA:  MOVLW  18
0DEEC:  MOVWF  FF7
0DEEE:  MOVLW  00
0DEF0:  MOVWF  FF8
0DEF2:  MOVLW  18
0DEF4:  MOVLB  4
0DEF6:  MOVWF  x56
0DEF8:  MOVLB  0
0DEFA:  CALL   4CA0
0DEFE:  MOVFF  36E,456
0DF02:  MOVLW  03
0DF04:  MOVLB  4
0DF06:  MOVWF  x57
0DF08:  MOVLB  0
0DF0A:  CALL   4CFE
0DF0E:  MOVLW  22
0DF10:  BTFSS  F9E.4
0DF12:  BRA    DF10
0DF14:  MOVWF  FAD
....................       SendDataDisplay();       
0DF16:  CALL   3CD8
....................       printf("Funcionamiento.t10f.txt=\"%02u\"",((Testerilizacion[3]*10)+Testerilizacion[2])); 
0DF1A:  MOVFF  BC,452
0DF1E:  MOVLW  0A
0DF20:  MOVLB  4
0DF22:  MOVWF  x53
0DF24:  MOVLB  0
0DF26:  CALL   315A
0DF2A:  MOVF   xBB,W
0DF2C:  ADDWF  01,W
0DF2E:  MOVLB  4
0DF30:  MOVWF  x50
0DF32:  MOVLW  82
0DF34:  MOVWF  FF6
0DF36:  MOVLW  18
0DF38:  MOVWF  FF7
0DF3A:  MOVLW  00
0DF3C:  MOVWF  FF8
0DF3E:  MOVLW  19
0DF40:  MOVWF  x56
0DF42:  MOVLB  0
0DF44:  CALL   4CA0
0DF48:  MOVFF  450,456
0DF4C:  MOVLW  01
0DF4E:  MOVLB  4
0DF50:  MOVWF  x57
0DF52:  MOVLB  0
0DF54:  CALL   4CFE
0DF58:  MOVLW  22
0DF5A:  BTFSS  F9E.4
0DF5C:  BRA    DF5A
0DF5E:  MOVWF  FAD
....................       SendDataDisplay();       
0DF60:  CALL   3CD8
....................       printf("Funcionamiento.t13f.txt=\"%02u\"",((Testerilizacion[1]*10)+Testerilizacion[0])); 
0DF64:  MOVFF  BA,452
0DF68:  MOVLW  0A
0DF6A:  MOVLB  4
0DF6C:  MOVWF  x53
0DF6E:  MOVLB  0
0DF70:  CALL   315A
0DF74:  MOVF   xB9,W
0DF76:  ADDWF  01,W
0DF78:  MOVLB  4
0DF7A:  MOVWF  x50
0DF7C:  MOVLW  A2
0DF7E:  MOVWF  FF6
0DF80:  MOVLW  18
0DF82:  MOVWF  FF7
0DF84:  MOVLW  00
0DF86:  MOVWF  FF8
0DF88:  MOVLW  19
0DF8A:  MOVWF  x56
0DF8C:  MOVLB  0
0DF8E:  CALL   4CA0
0DF92:  MOVFF  450,456
0DF96:  MOVLW  01
0DF98:  MOVLB  4
0DF9A:  MOVWF  x57
0DF9C:  MOVLB  0
0DF9E:  CALL   4CFE
0DFA2:  MOVLW  22
0DFA4:  BTFSS  F9E.4
0DFA6:  BRA    DFA4
0DFA8:  MOVWF  FAD
....................       SendDataDisplay();       
0DFAA:  CALL   3CD8
....................       printf("Funcionamiento.t11f.txt=\"%02u\"",((Tsecado[3]*10)+Tsecado[2])); 
0DFAE:  MOVFF  C6,452
0DFB2:  MOVLW  0A
0DFB4:  MOVLB  4
0DFB6:  MOVWF  x53
0DFB8:  MOVLB  0
0DFBA:  CALL   315A
0DFBE:  MOVF   xC5,W
0DFC0:  ADDWF  01,W
0DFC2:  MOVLB  4
0DFC4:  MOVWF  x50
0DFC6:  MOVLW  C2
0DFC8:  MOVWF  FF6
0DFCA:  MOVLW  18
0DFCC:  MOVWF  FF7
0DFCE:  MOVLW  00
0DFD0:  MOVWF  FF8
0DFD2:  MOVLW  19
0DFD4:  MOVWF  x56
0DFD6:  MOVLB  0
0DFD8:  CALL   4CA0
0DFDC:  MOVFF  450,456
0DFE0:  MOVLW  01
0DFE2:  MOVLB  4
0DFE4:  MOVWF  x57
0DFE6:  MOVLB  0
0DFE8:  CALL   4CFE
0DFEC:  MOVLW  22
0DFEE:  BTFSS  F9E.4
0DFF0:  BRA    DFEE
0DFF2:  MOVWF  FAD
....................       SendDataDisplay();       
0DFF4:  CALL   3CD8
....................       printf("Funcionamiento.t16f.txt=\"%02u\"",((Tsecado[1]*10)+Tsecado[0])); 
0DFF8:  MOVFF  C4,452
0DFFC:  MOVLW  0A
0DFFE:  MOVLB  4
0E000:  MOVWF  x53
0E002:  MOVLB  0
0E004:  CALL   315A
0E008:  MOVF   xC3,W
0E00A:  ADDWF  01,W
0E00C:  MOVLB  4
0E00E:  MOVWF  x50
0E010:  MOVLW  E2
0E012:  MOVWF  FF6
0E014:  MOVLW  18
0E016:  MOVWF  FF7
0E018:  MOVLW  00
0E01A:  MOVWF  FF8
0E01C:  MOVLW  19
0E01E:  MOVWF  x56
0E020:  MOVLB  0
0E022:  CALL   4CA0
0E026:  MOVFF  450,456
0E02A:  MOVLW  01
0E02C:  MOVLB  4
0E02E:  MOVWF  x57
0E030:  MOVLB  0
0E032:  CALL   4CFE
0E036:  MOVLW  22
0E038:  BTFSS  F9E.4
0E03A:  BRA    E038
0E03C:  MOVWF  FAD
....................       SendDataDisplay();       
0E03E:  CALL   3CD8
....................        
....................       printf("fecha.txt=\"Fecha:%02u/%02u/20%02u    Hora: %02u:%02u\"",Dia,Mes,Year,Hora,Minuto); 
0E042:  MOVLW  02
0E044:  MOVWF  FF6
0E046:  MOVLW  19
0E048:  MOVWF  FF7
0E04A:  MOVLW  00
0E04C:  MOVWF  FF8
0E04E:  MOVLW  11
0E050:  MOVLB  4
0E052:  MOVWF  x56
0E054:  MOVLB  0
0E056:  CALL   4CA0
0E05A:  MOVFF  3AD,456
0E05E:  MOVLW  01
0E060:  MOVLB  4
0E062:  MOVWF  x57
0E064:  MOVLB  0
0E066:  CALL   4CFE
0E06A:  MOVLW  2F
0E06C:  BTFSS  F9E.4
0E06E:  BRA    E06C
0E070:  MOVWF  FAD
0E072:  MOVFF  3AC,456
0E076:  MOVLW  01
0E078:  MOVLB  4
0E07A:  MOVWF  x57
0E07C:  MOVLB  0
0E07E:  CALL   4CFE
0E082:  MOVLW  2F
0E084:  BTFSS  F9E.4
0E086:  BRA    E084
0E088:  MOVWF  FAD
0E08A:  MOVLW  32
0E08C:  BTFSS  F9E.4
0E08E:  BRA    E08C
0E090:  MOVWF  FAD
0E092:  MOVLW  30
0E094:  BTFSS  F9E.4
0E096:  BRA    E094
0E098:  MOVWF  FAD
0E09A:  MOVFF  3AB,456
0E09E:  MOVLW  01
0E0A0:  MOVLB  4
0E0A2:  MOVWF  x57
0E0A4:  MOVLB  0
0E0A6:  CALL   4CFE
0E0AA:  MOVLW  23
0E0AC:  MOVWF  FF6
0E0AE:  MOVLW  19
0E0B0:  MOVWF  FF7
0E0B2:  MOVLW  00
0E0B4:  MOVWF  FF8
0E0B6:  MOVLW  0A
0E0B8:  MOVLB  4
0E0BA:  MOVWF  x56
0E0BC:  MOVLB  0
0E0BE:  CALL   4CA0
0E0C2:  MOVFF  3AE,456
0E0C6:  MOVLW  01
0E0C8:  MOVLB  4
0E0CA:  MOVWF  x57
0E0CC:  MOVLB  0
0E0CE:  CALL   4CFE
0E0D2:  MOVLW  3A
0E0D4:  BTFSS  F9E.4
0E0D6:  BRA    E0D4
0E0D8:  MOVWF  FAD
0E0DA:  MOVFF  3AF,456
0E0DE:  MOVLW  01
0E0E0:  MOVLB  4
0E0E2:  MOVWF  x57
0E0E4:  MOVLB  0
0E0E6:  CALL   4CFE
0E0EA:  MOVLW  22
0E0EC:  BTFSS  F9E.4
0E0EE:  BRA    E0EC
0E0F0:  MOVWF  FAD
....................       SendDataDisplay(); 
0E0F2:  CALL   3CD8
0E0F6:  MOVLB  3
....................    } 
....................  
....................  
.................... } 
.................... //_-------------------------------------------------------------------------------------------------------------------------------------------------------- 
....................  
.................... //_-------------------------------------------------------------------------------------------------------------------------------------------------------- 
....................       if(Menu==100){ //Menu de Configuracin de Parametros de Control 
0E0F8:  MOVF   x68,W
0E0FA:  SUBLW  64
0E0FC:  BTFSS  FD8.2
0E0FE:  GOTO   EFCE
....................       
....................       if(Opcion2>11) 
0E102:  MOVF   x70,W
0E104:  SUBLW  0B
0E106:  BC    E10C
....................          Opcion2=1; 
0E108:  MOVLW  01
0E10A:  MOVWF  x70
....................       if(Opcion2<1) 
0E10C:  MOVF   x70,F
0E10E:  BNZ   E114
....................          Opcion2=11; 
0E110:  MOVLW  0B
0E112:  MOVWF  x70
....................        
....................       if(Opcion2==1){ 
0E114:  DECFSZ x70,W
0E116:  BRA    E294
....................          printf("Config.t2c.txt=\"Proporcional\""); 
0E118:  MOVLW  38
0E11A:  MOVWF  FF6
0E11C:  MOVLW  19
0E11E:  MOVWF  FF7
0E120:  MOVLW  00
0E122:  MOVWF  FF8
0E124:  MOVLB  0
0E126:  CALL   3CA6
....................          SendDataDisplay();       
0E12A:  CALL   3CD8
....................          printf("t3c.txt=\"%2.0f\"",Ganancia); 
0E12E:  MOVLW  56
0E130:  MOVWF  FF6
0E132:  MOVLW  19
0E134:  MOVWF  FF7
0E136:  MOVLW  00
0E138:  MOVWF  FF8
0E13A:  MOVLW  09
0E13C:  MOVLB  4
0E13E:  MOVWF  x56
0E140:  MOVLB  0
0E142:  CALL   4CA0
0E146:  MOVLW  01
0E148:  MOVWF  FE9
0E14A:  MOVFF  315,459
0E14E:  MOVFF  314,458
0E152:  MOVFF  313,457
0E156:  MOVFF  312,456
0E15A:  MOVLB  4
0E15C:  CLRF   x5A
0E15E:  MOVLB  0
0E160:  CALL   4E40
0E164:  MOVLW  22
0E166:  BTFSS  F9E.4
0E168:  BRA    E166
0E16A:  MOVWF  FAD
....................          SendDataDisplay(); 
0E16C:  CALL   3CD8
....................          if(RX_Buffer[4]==0x0a || UP){//Tecla Arriba Oprimida 
0E170:  MOVF   34,W
0E172:  SUBLW  0A
0E174:  BZ    E17C
0E176:  BSF    F93.3
0E178:  BTFSC  F81.3
0E17A:  BRA    E1CC
....................             delay_ms(20); 
0E17C:  MOVLW  14
0E17E:  MOVLB  4
0E180:  MOVWF  x69
0E182:  MOVLB  0
0E184:  CALL   1B4A
....................             if(RX_Buffer[4]==0x0a || UP){ 
0E188:  MOVF   34,W
0E18A:  SUBLW  0A
0E18C:  BZ    E194
0E18E:  BSF    F93.3
0E190:  BTFSC  F81.3
0E192:  BRA    E1CC
....................                Ganancia+=1.0; 
0E194:  BCF    FD8.1
0E196:  MOVFF  315,468
0E19A:  MOVFF  314,467
0E19E:  MOVFF  313,466
0E1A2:  MOVFF  312,465
0E1A6:  MOVLB  4
0E1A8:  CLRF   x6C
0E1AA:  CLRF   x6B
0E1AC:  CLRF   x6A
0E1AE:  MOVLW  7F
0E1B0:  MOVWF  x69
0E1B2:  MOVLB  0
0E1B4:  CALL   1D06
0E1B8:  MOVFF  03,315
0E1BC:  MOVFF  02,314
0E1C0:  MOVFF  01,313
0E1C4:  MOVFF  00,312
....................                RX_Buffer[4]=0x00;   
0E1C8:  CLRF   34
....................                RX_Buffer2[4]=0x00;             
0E1CA:  CLRF   3F
....................                //BorraBuffer(); 
....................             } 
....................          } 
....................              
....................          if(RX_Buffer[4]==0x0b || DOWN){//Tecla Abajo Oprimida 
0E1CC:  MOVF   34,W
0E1CE:  SUBLW  0B
0E1D0:  BZ    E1D8
0E1D2:  BSF    F93.2
0E1D4:  BTFSC  F81.2
0E1D6:  BRA    E228
....................             delay_ms(20); 
0E1D8:  MOVLW  14
0E1DA:  MOVLB  4
0E1DC:  MOVWF  x69
0E1DE:  MOVLB  0
0E1E0:  CALL   1B4A
....................             if(RX_Buffer[4]==0x0b || DOWN){ 
0E1E4:  MOVF   34,W
0E1E6:  SUBLW  0B
0E1E8:  BZ    E1F0
0E1EA:  BSF    F93.2
0E1EC:  BTFSC  F81.2
0E1EE:  BRA    E228
....................                Ganancia-=1.0; 
0E1F0:  BSF    FD8.1
0E1F2:  MOVFF  315,468
0E1F6:  MOVFF  314,467
0E1FA:  MOVFF  313,466
0E1FE:  MOVFF  312,465
0E202:  MOVLB  4
0E204:  CLRF   x6C
0E206:  CLRF   x6B
0E208:  CLRF   x6A
0E20A:  MOVLW  7F
0E20C:  MOVWF  x69
0E20E:  MOVLB  0
0E210:  CALL   1D06
0E214:  MOVFF  03,315
0E218:  MOVFF  02,314
0E21C:  MOVFF  01,313
0E220:  MOVFF  00,312
....................                RX_Buffer[4]=0x00; 
0E224:  CLRF   34
....................                RX_Buffer2[4]=0x00;             
0E226:  CLRF   3F
....................                //BorraBuffer(); 
....................             } 
....................          } 
....................           
....................          if(Ganancia>40) 
0E228:  MOVLB  4
0E22A:  CLRF   x57
0E22C:  CLRF   x56
0E22E:  MOVLW  20
0E230:  MOVWF  x55
0E232:  MOVLW  84
0E234:  MOVWF  x54
0E236:  MOVFF  315,45B
0E23A:  MOVFF  314,45A
0E23E:  MOVFF  313,459
0E242:  MOVFF  312,458
0E246:  MOVLB  0
0E248:  CALL   30E0
0E24C:  BNC   E25A
....................             Ganancia=1; 
0E24E:  MOVLB  3
0E250:  CLRF   x15
0E252:  CLRF   x14
0E254:  CLRF   x13
0E256:  MOVLW  7F
0E258:  MOVWF  x12
....................          if(Ganancia<1) 
0E25A:  MOVFF  315,457
0E25E:  MOVFF  314,456
0E262:  MOVFF  313,455
0E266:  MOVFF  312,454
0E26A:  MOVLB  4
0E26C:  CLRF   x5B
0E26E:  CLRF   x5A
0E270:  CLRF   x59
0E272:  MOVLW  7F
0E274:  MOVWF  x58
0E276:  MOVLB  0
0E278:  CALL   30E0
0E27C:  BNC   E28E
....................             Ganancia=40; 
0E27E:  MOVLB  3
0E280:  CLRF   x15
0E282:  CLRF   x14
0E284:  MOVLW  20
0E286:  MOVWF  x13
0E288:  MOVLW  84
0E28A:  MOVWF  x12
0E28C:  MOVLB  0
....................       }else if(Opcion2==2){ 
0E28E:  GOTO   EB08
0E292:  MOVLB  3
0E294:  MOVF   x70,W
0E296:  SUBLW  02
0E298:  BNZ   E358
....................          printf("Config.t2c.txt=\"Derivativo\""); 
0E29A:  MOVLW  66
0E29C:  MOVWF  FF6
0E29E:  MOVLW  19
0E2A0:  MOVWF  FF7
0E2A2:  MOVLW  00
0E2A4:  MOVWF  FF8
0E2A6:  MOVLB  0
0E2A8:  CALL   3CA6
....................          SendDataDisplay();       
0E2AC:  CALL   3CD8
....................          printf("t3c.txt=\"%u\"",Derivativo); 
0E2B0:  MOVLW  82
0E2B2:  MOVWF  FF6
0E2B4:  MOVLW  19
0E2B6:  MOVWF  FF7
0E2B8:  MOVLW  00
0E2BA:  MOVWF  FF8
0E2BC:  MOVLW  09
0E2BE:  MOVLB  4
0E2C0:  MOVWF  x56
0E2C2:  MOVLB  0
0E2C4:  CALL   4CA0
0E2C8:  MOVFF  347,456
0E2CC:  MOVLW  1B
0E2CE:  MOVLB  4
0E2D0:  MOVWF  x57
0E2D2:  MOVLB  0
0E2D4:  CALL   4CFE
0E2D8:  MOVLW  22
0E2DA:  BTFSS  F9E.4
0E2DC:  BRA    E2DA
0E2DE:  MOVWF  FAD
....................          SendDataDisplay(); 
0E2E0:  CALL   3CD8
....................          if(RX_Buffer[4]==0x0a || UP){//Tecla Arriba Oprimida 
0E2E4:  MOVF   34,W
0E2E6:  SUBLW  0A
0E2E8:  BZ    E2F0
0E2EA:  BSF    F93.3
0E2EC:  BTFSC  F81.3
0E2EE:  BRA    E312
....................             delay_ms(20); 
0E2F0:  MOVLW  14
0E2F2:  MOVLB  4
0E2F4:  MOVWF  x69
0E2F6:  MOVLB  0
0E2F8:  CALL   1B4A
....................             if(RX_Buffer[4]==0x0a || UP){ 
0E2FC:  MOVF   34,W
0E2FE:  SUBLW  0A
0E300:  BZ    E308
0E302:  BSF    F93.3
0E304:  BTFSC  F81.3
0E306:  BRA    E312
....................                Derivativo++; 
0E308:  MOVLB  3
0E30A:  INCF   x47,F
....................                RX_Buffer[4]=0x00;   
0E30C:  CLRF   34
....................                RX_Buffer2[4]=0x00;             
0E30E:  CLRF   3F
0E310:  MOVLB  0
....................                //BorraBuffer(); 
....................             } 
....................          } 
....................              
....................          if(RX_Buffer[4]==0x0b || DOWN){//Tecla Abajo Oprimida 
0E312:  MOVF   34,W
0E314:  SUBLW  0B
0E316:  BZ    E31E
0E318:  BSF    F93.2
0E31A:  BTFSC  F81.2
0E31C:  BRA    E340
....................             delay_ms(20); 
0E31E:  MOVLW  14
0E320:  MOVLB  4
0E322:  MOVWF  x69
0E324:  MOVLB  0
0E326:  CALL   1B4A
....................             if(RX_Buffer[4]==0x0b || DOWN){ 
0E32A:  MOVF   34,W
0E32C:  SUBLW  0B
0E32E:  BZ    E336
0E330:  BSF    F93.2
0E332:  BTFSC  F81.2
0E334:  BRA    E340
....................                Derivativo--; 
0E336:  MOVLB  3
0E338:  DECF   x47,F
....................                RX_Buffer[4]=0x00; 
0E33A:  CLRF   34
....................                RX_Buffer2[4]=0x00;             
0E33C:  CLRF   3F
0E33E:  MOVLB  0
....................                //BorraBuffer(); 
....................             } 
....................          } 
....................           
....................           
....................          if(Derivativo>40) 
0E340:  MOVLB  3
0E342:  MOVF   x47,W
0E344:  SUBLW  28
0E346:  BC    E34C
....................             Derivativo=1; 
0E348:  MOVLW  01
0E34A:  MOVWF  x47
....................          if(Derivativo<1) 
0E34C:  MOVF   x47,F
0E34E:  BNZ   E354
....................             Derivativo=40; 
0E350:  MOVLW  28
0E352:  MOVWF  x47
....................       }else if(Opcion2==3){ 
0E354:  GOTO   EB06
0E358:  MOVF   x70,W
0E35A:  SUBLW  03
0E35C:  BNZ   E41C
....................          printf("Config.t2c.txt=\"Integral\""); 
0E35E:  MOVLW  90
0E360:  MOVWF  FF6
0E362:  MOVLW  19
0E364:  MOVWF  FF7
0E366:  MOVLW  00
0E368:  MOVWF  FF8
0E36A:  MOVLB  0
0E36C:  CALL   3CA6
....................          SendDataDisplay();       
0E370:  CALL   3CD8
....................          printf("t3c.txt=\"%u\"",Integral); 
0E374:  MOVLW  AA
0E376:  MOVWF  FF6
0E378:  MOVLW  19
0E37A:  MOVWF  FF7
0E37C:  MOVLW  00
0E37E:  MOVWF  FF8
0E380:  MOVLW  09
0E382:  MOVLB  4
0E384:  MOVWF  x56
0E386:  MOVLB  0
0E388:  CALL   4CA0
0E38C:  MOVFF  346,456
0E390:  MOVLW  1B
0E392:  MOVLB  4
0E394:  MOVWF  x57
0E396:  MOVLB  0
0E398:  CALL   4CFE
0E39C:  MOVLW  22
0E39E:  BTFSS  F9E.4
0E3A0:  BRA    E39E
0E3A2:  MOVWF  FAD
....................          SendDataDisplay(); 
0E3A4:  CALL   3CD8
....................          if(RX_Buffer[4]==0x0a || UP){//Tecla Arriba Oprimida 
0E3A8:  MOVF   34,W
0E3AA:  SUBLW  0A
0E3AC:  BZ    E3B4
0E3AE:  BSF    F93.3
0E3B0:  BTFSC  F81.3
0E3B2:  BRA    E3D6
....................             delay_ms(20); 
0E3B4:  MOVLW  14
0E3B6:  MOVLB  4
0E3B8:  MOVWF  x69
0E3BA:  MOVLB  0
0E3BC:  CALL   1B4A
....................             if(RX_Buffer[4]==0x0a || UP){ 
0E3C0:  MOVF   34,W
0E3C2:  SUBLW  0A
0E3C4:  BZ    E3CC
0E3C6:  BSF    F93.3
0E3C8:  BTFSC  F81.3
0E3CA:  BRA    E3D6
....................                Integral++; 
0E3CC:  MOVLB  3
0E3CE:  INCF   x46,F
....................                RX_Buffer[4]=0x00;   
0E3D0:  CLRF   34
....................                RX_Buffer2[4]=0x00;             
0E3D2:  CLRF   3F
0E3D4:  MOVLB  0
....................                //BorraBuffer(); 
....................             } 
....................          } 
....................              
....................          if(RX_Buffer[4]==0x0b || DOWN){//Tecla Abajo Oprimida 
0E3D6:  MOVF   34,W
0E3D8:  SUBLW  0B
0E3DA:  BZ    E3E2
0E3DC:  BSF    F93.2
0E3DE:  BTFSC  F81.2
0E3E0:  BRA    E404
....................             delay_ms(20); 
0E3E2:  MOVLW  14
0E3E4:  MOVLB  4
0E3E6:  MOVWF  x69
0E3E8:  MOVLB  0
0E3EA:  CALL   1B4A
....................             if(RX_Buffer[4]==0x0b || DOWN){ 
0E3EE:  MOVF   34,W
0E3F0:  SUBLW  0B
0E3F2:  BZ    E3FA
0E3F4:  BSF    F93.2
0E3F6:  BTFSC  F81.2
0E3F8:  BRA    E404
....................                Integral--; 
0E3FA:  MOVLB  3
0E3FC:  DECF   x46,F
....................                RX_Buffer[4]=0x00; 
0E3FE:  CLRF   34
....................                RX_Buffer2[4]=0x00;             
0E400:  CLRF   3F
0E402:  MOVLB  0
....................                //BorraBuffer(); 
....................             } 
....................          } 
....................           
....................          if(Integral>40) 
0E404:  MOVLB  3
0E406:  MOVF   x46,W
0E408:  SUBLW  28
0E40A:  BC    E410
....................             Integral=1; 
0E40C:  MOVLW  01
0E40E:  MOVWF  x46
....................          if(Integral<1) 
0E410:  MOVF   x46,F
0E412:  BNZ   E418
....................             Integral=40; 
0E414:  MOVLW  28
0E416:  MOVWF  x46
....................       }else if(Opcion2==4){ 
0E418:  GOTO   EB06
0E41C:  MOVF   x70,W
0E41E:  SUBLW  04
0E420:  BTFSS  FD8.2
0E422:  BRA    E5A2
....................          printf("Config.t2c.txt=\"Tciclo\""); 
0E424:  MOVLW  B8
0E426:  MOVWF  FF6
0E428:  MOVLW  19
0E42A:  MOVWF  FF7
0E42C:  MOVLW  00
0E42E:  MOVWF  FF8
0E430:  MOVLB  0
0E432:  CALL   3CA6
....................          SendDataDisplay();       
0E436:  CALL   3CD8
....................          printf("t3c.txt=\"%2.0f\"",Tciclo); 
0E43A:  MOVLW  D0
0E43C:  MOVWF  FF6
0E43E:  MOVLW  19
0E440:  MOVWF  FF7
0E442:  MOVLW  00
0E444:  MOVWF  FF8
0E446:  MOVLW  09
0E448:  MOVLB  4
0E44A:  MOVWF  x56
0E44C:  MOVLB  0
0E44E:  CALL   4CA0
0E452:  MOVLW  01
0E454:  MOVWF  FE9
0E456:  MOVFF  2FD,459
0E45A:  MOVFF  2FC,458
0E45E:  MOVFF  2FB,457
0E462:  MOVFF  2FA,456
0E466:  MOVLB  4
0E468:  CLRF   x5A
0E46A:  MOVLB  0
0E46C:  CALL   4E40
0E470:  MOVLW  22
0E472:  BTFSS  F9E.4
0E474:  BRA    E472
0E476:  MOVWF  FAD
....................          SendDataDisplay(); 
0E478:  CALL   3CD8
....................          if(RX_Buffer[4]==0x0a || UP){//Tecla Arriba Oprimida 
0E47C:  MOVF   34,W
0E47E:  SUBLW  0A
0E480:  BZ    E488
0E482:  BSF    F93.3
0E484:  BTFSC  F81.3
0E486:  BRA    E4D8
....................             delay_ms(20); 
0E488:  MOVLW  14
0E48A:  MOVLB  4
0E48C:  MOVWF  x69
0E48E:  MOVLB  0
0E490:  CALL   1B4A
....................             if(RX_Buffer[4]==0x0a || UP){ 
0E494:  MOVF   34,W
0E496:  SUBLW  0A
0E498:  BZ    E4A0
0E49A:  BSF    F93.3
0E49C:  BTFSC  F81.3
0E49E:  BRA    E4D8
....................                Tciclo+=1.0; 
0E4A0:  BCF    FD8.1
0E4A2:  MOVFF  2FD,468
0E4A6:  MOVFF  2FC,467
0E4AA:  MOVFF  2FB,466
0E4AE:  MOVFF  2FA,465
0E4B2:  MOVLB  4
0E4B4:  CLRF   x6C
0E4B6:  CLRF   x6B
0E4B8:  CLRF   x6A
0E4BA:  MOVLW  7F
0E4BC:  MOVWF  x69
0E4BE:  MOVLB  0
0E4C0:  CALL   1D06
0E4C4:  MOVFF  03,2FD
0E4C8:  MOVFF  02,2FC
0E4CC:  MOVFF  01,2FB
0E4D0:  MOVFF  00,2FA
....................                RX_Buffer[4]=0x00;   
0E4D4:  CLRF   34
....................                RX_Buffer2[4]=0x00;             
0E4D6:  CLRF   3F
....................                //BorraBuffer(); 
....................             } 
....................          } 
....................              
....................          if(RX_Buffer[4]==0x0b || DOWN){//Tecla Abajo Oprimida 
0E4D8:  MOVF   34,W
0E4DA:  SUBLW  0B
0E4DC:  BZ    E4E4
0E4DE:  BSF    F93.2
0E4E0:  BTFSC  F81.2
0E4E2:  BRA    E534
....................             delay_ms(20); 
0E4E4:  MOVLW  14
0E4E6:  MOVLB  4
0E4E8:  MOVWF  x69
0E4EA:  MOVLB  0
0E4EC:  CALL   1B4A
....................             if(RX_Buffer[4]==0x0b || DOWN){ 
0E4F0:  MOVF   34,W
0E4F2:  SUBLW  0B
0E4F4:  BZ    E4FC
0E4F6:  BSF    F93.2
0E4F8:  BTFSC  F81.2
0E4FA:  BRA    E534
....................                Tciclo-=1.0; 
0E4FC:  BSF    FD8.1
0E4FE:  MOVFF  2FD,468
0E502:  MOVFF  2FC,467
0E506:  MOVFF  2FB,466
0E50A:  MOVFF  2FA,465
0E50E:  MOVLB  4
0E510:  CLRF   x6C
0E512:  CLRF   x6B
0E514:  CLRF   x6A
0E516:  MOVLW  7F
0E518:  MOVWF  x69
0E51A:  MOVLB  0
0E51C:  CALL   1D06
0E520:  MOVFF  03,2FD
0E524:  MOVFF  02,2FC
0E528:  MOVFF  01,2FB
0E52C:  MOVFF  00,2FA
....................                RX_Buffer[4]=0x00; 
0E530:  CLRF   34
....................                RX_Buffer2[4]=0x00;             
0E532:  CLRF   3F
....................                //BorraBuffer(); 
....................             } 
....................          } 
....................           
....................          if(Tciclo>20) 
0E534:  MOVLB  4
0E536:  CLRF   x57
0E538:  CLRF   x56
0E53A:  MOVLW  20
0E53C:  MOVWF  x55
0E53E:  MOVLW  83
0E540:  MOVWF  x54
0E542:  MOVFF  2FD,45B
0E546:  MOVFF  2FC,45A
0E54A:  MOVFF  2FB,459
0E54E:  MOVFF  2FA,458
0E552:  MOVLB  0
0E554:  CALL   30E0
0E558:  BNC   E568
....................             Tciclo=5; 
0E55A:  MOVLB  2
0E55C:  CLRF   xFD
0E55E:  CLRF   xFC
0E560:  MOVLW  20
0E562:  MOVWF  xFB
0E564:  MOVLW  81
0E566:  MOVWF  xFA
....................          if(Tciclo<5) 
0E568:  MOVFF  2FD,457
0E56C:  MOVFF  2FC,456
0E570:  MOVFF  2FB,455
0E574:  MOVFF  2FA,454
0E578:  MOVLB  4
0E57A:  CLRF   x5B
0E57C:  CLRF   x5A
0E57E:  MOVLW  20
0E580:  MOVWF  x59
0E582:  MOVLW  81
0E584:  MOVWF  x58
0E586:  MOVLB  0
0E588:  CALL   30E0
0E58C:  BNC   E59E
....................             Tciclo=20; 
0E58E:  MOVLB  2
0E590:  CLRF   xFD
0E592:  CLRF   xFC
0E594:  MOVLW  20
0E596:  MOVWF  xFB
0E598:  MOVLW  83
0E59A:  MOVWF  xFA
0E59C:  MOVLB  0
....................       }else if(Opcion2==5){ 
0E59E:  BRA    EB08
0E5A0:  MOVLB  3
0E5A2:  MOVF   x70,W
0E5A4:  SUBLW  05
0E5A6:  BNZ   E65C
....................          printf("Config.t2c.txt=\"Ajuste +\""); 
0E5A8:  MOVLW  E0
0E5AA:  MOVWF  FF6
0E5AC:  MOVLW  19
0E5AE:  MOVWF  FF7
0E5B0:  MOVLW  00
0E5B2:  MOVWF  FF8
0E5B4:  MOVLB  0
0E5B6:  CALL   3CA6
....................          SendDataDisplay();       
0E5BA:  CALL   3CD8
....................          printf("t3c.txt=\"%u\"",Ajuste); 
0E5BE:  MOVLW  FA
0E5C0:  MOVWF  FF6
0E5C2:  MOVLW  19
0E5C4:  MOVWF  FF7
0E5C6:  MOVLW  00
0E5C8:  MOVWF  FF8
0E5CA:  MOVLW  09
0E5CC:  MOVLB  4
0E5CE:  MOVWF  x56
0E5D0:  MOVLB  0
0E5D2:  CALL   4CA0
0E5D6:  MOVFF  2E1,456
0E5DA:  MOVLW  1B
0E5DC:  MOVLB  4
0E5DE:  MOVWF  x57
0E5E0:  MOVLB  0
0E5E2:  CALL   4CFE
0E5E6:  MOVLW  22
0E5E8:  BTFSS  F9E.4
0E5EA:  BRA    E5E8
0E5EC:  MOVWF  FAD
....................          SendDataDisplay(); 
0E5EE:  CALL   3CD8
....................          if(RX_Buffer[4]==0x0a || UP){//Tecla Arriba Oprimida 
0E5F2:  MOVF   34,W
0E5F4:  SUBLW  0A
0E5F6:  BZ    E5FE
0E5F8:  BSF    F93.3
0E5FA:  BTFSC  F81.3
0E5FC:  BRA    E626
....................             delay_ms(20); 
0E5FE:  MOVLW  14
0E600:  MOVLB  4
0E602:  MOVWF  x69
0E604:  MOVLB  0
0E606:  CALL   1B4A
....................             if(RX_Buffer[4]==0x0a || UP){ 
0E60A:  MOVF   34,W
0E60C:  SUBLW  0A
0E60E:  BZ    E616
0E610:  BSF    F93.3
0E612:  BTFSC  F81.3
0E614:  BRA    E626
....................                if(Ajuste<100) 
0E616:  MOVLB  2
0E618:  MOVF   xE1,W
0E61A:  SUBLW  63
0E61C:  BNC   E620
....................                   Ajuste++; 
0E61E:  INCF   xE1,F
....................                RX_Buffer[4]=0x00;   
0E620:  CLRF   34
....................                RX_Buffer2[4]=0x00;             
0E622:  CLRF   3F
0E624:  MOVLB  0
....................                //BorraBuffer(); 
....................             } 
....................          } 
....................              
....................          if(RX_Buffer[4]==0x0b || DOWN){//Tecla Abajo Oprimida 
0E626:  MOVF   34,W
0E628:  SUBLW  0B
0E62A:  BZ    E632
0E62C:  BSF    F93.2
0E62E:  BTFSC  F81.2
0E630:  BRA    E658
....................             delay_ms(20); 
0E632:  MOVLW  14
0E634:  MOVLB  4
0E636:  MOVWF  x69
0E638:  MOVLB  0
0E63A:  CALL   1B4A
....................             if(RX_Buffer[4]==0x0b || DOWN){ 
0E63E:  MOVF   34,W
0E640:  SUBLW  0B
0E642:  BZ    E64A
0E644:  BSF    F93.2
0E646:  BTFSC  F81.2
0E648:  BRA    E658
....................                if(Ajuste>0) 
0E64A:  MOVLB  2
0E64C:  MOVF   xE1,F
0E64E:  BZ    E652
....................                   Ajuste--; 
0E650:  DECF   xE1,F
....................                RX_Buffer[4]=0x00; 
0E652:  CLRF   34
....................                RX_Buffer2[4]=0x00;             
0E654:  CLRF   3F
0E656:  MOVLB  0
....................                //BorraBuffer(); 
....................             } 
....................          } 
....................       }else if(Opcion2==6){ 
0E658:  BRA    EB08
0E65A:  MOVLB  3
0E65C:  MOVF   x70,W
0E65E:  SUBLW  06
0E660:  BNZ   E716
....................          printf("Config.t2c.txt=\"Ajuste -\""); 
0E662:  MOVLW  08
0E664:  MOVWF  FF6
0E666:  MOVLW  1A
0E668:  MOVWF  FF7
0E66A:  MOVLW  00
0E66C:  MOVWF  FF8
0E66E:  MOVLB  0
0E670:  CALL   3CA6
....................          SendDataDisplay();       
0E674:  CALL   3CD8
....................          printf("t3c.txt=\"%u\"",Ajusten); 
0E678:  MOVLW  22
0E67A:  MOVWF  FF6
0E67C:  MOVLW  1A
0E67E:  MOVWF  FF7
0E680:  MOVLW  00
0E682:  MOVWF  FF8
0E684:  MOVLW  09
0E686:  MOVLB  4
0E688:  MOVWF  x56
0E68A:  MOVLB  0
0E68C:  CALL   4CA0
0E690:  MOVFF  2E2,456
0E694:  MOVLW  1B
0E696:  MOVLB  4
0E698:  MOVWF  x57
0E69A:  MOVLB  0
0E69C:  CALL   4CFE
0E6A0:  MOVLW  22
0E6A2:  BTFSS  F9E.4
0E6A4:  BRA    E6A2
0E6A6:  MOVWF  FAD
....................          SendDataDisplay(); 
0E6A8:  CALL   3CD8
....................          if(RX_Buffer[4]==0x0a || UP){//Tecla Arriba Oprimida 
0E6AC:  MOVF   34,W
0E6AE:  SUBLW  0A
0E6B0:  BZ    E6B8
0E6B2:  BSF    F93.3
0E6B4:  BTFSC  F81.3
0E6B6:  BRA    E6E0
....................             delay_ms(20); 
0E6B8:  MOVLW  14
0E6BA:  MOVLB  4
0E6BC:  MOVWF  x69
0E6BE:  MOVLB  0
0E6C0:  CALL   1B4A
....................             if(RX_Buffer[4]==0x0a || UP){ 
0E6C4:  MOVF   34,W
0E6C6:  SUBLW  0A
0E6C8:  BZ    E6D0
0E6CA:  BSF    F93.3
0E6CC:  BTFSC  F81.3
0E6CE:  BRA    E6E0
....................                if(Ajusten<100) 
0E6D0:  MOVLB  2
0E6D2:  MOVF   xE2,W
0E6D4:  SUBLW  63
0E6D6:  BNC   E6DA
....................                   Ajusten++; 
0E6D8:  INCF   xE2,F
....................                RX_Buffer[4]=0x00;   
0E6DA:  CLRF   34
....................                RX_Buffer2[4]=0x00;             
0E6DC:  CLRF   3F
0E6DE:  MOVLB  0
....................                //BorraBuffer(); 
....................             } 
....................          } 
....................              
....................          if(RX_Buffer[4]==0x0b || DOWN){//Tecla Abajo Oprimida 
0E6E0:  MOVF   34,W
0E6E2:  SUBLW  0B
0E6E4:  BZ    E6EC
0E6E6:  BSF    F93.2
0E6E8:  BTFSC  F81.2
0E6EA:  BRA    E712
....................             delay_ms(20); 
0E6EC:  MOVLW  14
0E6EE:  MOVLB  4
0E6F0:  MOVWF  x69
0E6F2:  MOVLB  0
0E6F4:  CALL   1B4A
....................             if(RX_Buffer[4]==0x0b || DOWN){ 
0E6F8:  MOVF   34,W
0E6FA:  SUBLW  0B
0E6FC:  BZ    E704
0E6FE:  BSF    F93.2
0E700:  BTFSC  F81.2
0E702:  BRA    E712
....................                if(Ajusten>0) 
0E704:  MOVLB  2
0E706:  MOVF   xE2,F
0E708:  BZ    E70C
....................                   Ajusten--; 
0E70A:  DECF   xE2,F
....................                RX_Buffer[4]=0x00; 
0E70C:  CLRF   34
....................                RX_Buffer2[4]=0x00;             
0E70E:  CLRF   3F
0E710:  MOVLB  0
....................                //BorraBuffer(); 
....................             } 
....................          } 
....................       }else if(Opcion2==7){ 
0E712:  BRA    EB08
0E714:  MOVLB  3
0E716:  MOVF   x70,W
0E718:  SUBLW  07
0E71A:  BNZ   E7D2
....................          printf("Config.t2c.txt=\"Media\""); 
0E71C:  MOVLW  30
0E71E:  MOVWF  FF6
0E720:  MOVLW  1A
0E722:  MOVWF  FF7
0E724:  MOVLW  00
0E726:  MOVWF  FF8
0E728:  MOVLB  0
0E72A:  CALL   3CA6
....................          SendDataDisplay();       
0E72E:  CALL   3CD8
....................          printf("t3c.txt=\"%u\"",MediaMovil); 
0E732:  MOVLW  48
0E734:  MOVWF  FF6
0E736:  MOVLW  1A
0E738:  MOVWF  FF7
0E73A:  MOVLW  00
0E73C:  MOVWF  FF8
0E73E:  MOVLW  09
0E740:  MOVLB  4
0E742:  MOVWF  x56
0E744:  MOVLB  0
0E746:  CALL   4CA0
0E74A:  MOVFF  2E3,456
0E74E:  MOVLW  1B
0E750:  MOVLB  4
0E752:  MOVWF  x57
0E754:  MOVLB  0
0E756:  CALL   4CFE
0E75A:  MOVLW  22
0E75C:  BTFSS  F9E.4
0E75E:  BRA    E75C
0E760:  MOVWF  FAD
....................          SendDataDisplay(); 
0E762:  CALL   3CD8
....................          if(RX_Buffer[4]==0x0a || UP){//Tecla Arriba Oprimida 
0E766:  MOVF   34,W
0E768:  SUBLW  0A
0E76A:  BZ    E772
0E76C:  BSF    F93.3
0E76E:  BTFSC  F81.3
0E770:  BRA    E79A
....................             delay_ms(20); 
0E772:  MOVLW  14
0E774:  MOVLB  4
0E776:  MOVWF  x69
0E778:  MOVLB  0
0E77A:  CALL   1B4A
....................             if(RX_Buffer[4]==0x0a || UP){ 
0E77E:  MOVF   34,W
0E780:  SUBLW  0A
0E782:  BZ    E78A
0E784:  BSF    F93.3
0E786:  BTFSC  F81.3
0E788:  BRA    E79A
....................                if(MediaMovil<80) 
0E78A:  MOVLB  2
0E78C:  MOVF   xE3,W
0E78E:  SUBLW  4F
0E790:  BNC   E794
....................                   MediaMovil++; 
0E792:  INCF   xE3,F
....................                RX_Buffer[4]=0x00;   
0E794:  CLRF   34
....................                RX_Buffer2[4]=0x00;             
0E796:  CLRF   3F
0E798:  MOVLB  0
....................                //BorraBuffer(); 
....................             } 
....................          } 
....................              
....................          if(RX_Buffer[4]==0x0b || DOWN){//Tecla Abajo Oprimida 
0E79A:  MOVF   34,W
0E79C:  SUBLW  0B
0E79E:  BZ    E7A6
0E7A0:  BSF    F93.2
0E7A2:  BTFSC  F81.2
0E7A4:  BRA    E7CE
....................             delay_ms(20); 
0E7A6:  MOVLW  14
0E7A8:  MOVLB  4
0E7AA:  MOVWF  x69
0E7AC:  MOVLB  0
0E7AE:  CALL   1B4A
....................             if(RX_Buffer[4]==0x0b || DOWN){ 
0E7B2:  MOVF   34,W
0E7B4:  SUBLW  0B
0E7B6:  BZ    E7BE
0E7B8:  BSF    F93.2
0E7BA:  BTFSC  F81.2
0E7BC:  BRA    E7CE
....................                if(MediaMovil>10) 
0E7BE:  MOVLB  2
0E7C0:  MOVF   xE3,W
0E7C2:  SUBLW  0A
0E7C4:  BC    E7C8
....................                   MediaMovil--; 
0E7C6:  DECF   xE3,F
....................                RX_Buffer[4]=0x00; 
0E7C8:  CLRF   34
....................                RX_Buffer2[4]=0x00;             
0E7CA:  CLRF   3F
0E7CC:  MOVLB  0
....................                //BorraBuffer(); 
....................             } 
....................          } 
....................       }else if(Opcion2==8){ 
0E7CE:  BRA    EB08
0E7D0:  MOVLB  3
0E7D2:  MOVF   x70,W
0E7D4:  SUBLW  08
0E7D6:  BTFSS  FD8.2
0E7D8:  BRA    E940
....................          printf("Config.t2c.txt=\"RPT100B\""); 
0E7DA:  MOVLW  56
0E7DC:  MOVWF  FF6
0E7DE:  MOVLW  1A
0E7E0:  MOVWF  FF7
0E7E2:  MOVLW  00
0E7E4:  MOVWF  FF8
0E7E6:  MOVLB  0
0E7E8:  CALL   3CA6
....................          SendDataDisplay();       
0E7EC:  CALL   3CD8
....................          printf("t3c.txt=\"%2.1f\"",RPT100); 
0E7F0:  MOVLW  70
0E7F2:  MOVWF  FF6
0E7F4:  MOVLW  1A
0E7F6:  MOVWF  FF7
0E7F8:  MOVLW  00
0E7FA:  MOVWF  FF8
0E7FC:  MOVLW  09
0E7FE:  MOVLB  4
0E800:  MOVWF  x56
0E802:  MOVLB  0
0E804:  CALL   4CA0
0E808:  MOVLW  01
0E80A:  MOVWF  FE9
0E80C:  MOVFF  2B2,459
0E810:  MOVFF  2B1,458
0E814:  MOVFF  2B0,457
0E818:  MOVFF  2AF,456
0E81C:  MOVLB  4
0E81E:  MOVWF  x5A
0E820:  MOVLB  0
0E822:  CALL   4E40
0E826:  MOVLW  22
0E828:  BTFSS  F9E.4
0E82A:  BRA    E828
0E82C:  MOVWF  FAD
....................          SendDataDisplay(); 
0E82E:  CALL   3CD8
....................          if(RX_Buffer[4]==0x0a || UP){//Tecla Arriba Oprimida 
0E832:  MOVF   34,W
0E834:  SUBLW  0A
0E836:  BZ    E83E
0E838:  BSF    F93.3
0E83A:  BTFSC  F81.3
0E83C:  BRA    E8B8
....................             delay_ms(20); 
0E83E:  MOVLW  14
0E840:  MOVLB  4
0E842:  MOVWF  x69
0E844:  MOVLB  0
0E846:  CALL   1B4A
....................             if(RX_Buffer[4]==0x0a || UP){ 
0E84A:  MOVF   34,W
0E84C:  SUBLW  0A
0E84E:  BZ    E856
0E850:  BSF    F93.3
0E852:  BTFSC  F81.3
0E854:  BRA    E8B8
....................                if(RPT100<2.0) 
0E856:  MOVFF  2B2,457
0E85A:  MOVFF  2B1,456
0E85E:  MOVFF  2B0,455
0E862:  MOVFF  2AF,454
0E866:  MOVLB  4
0E868:  CLRF   x5B
0E86A:  CLRF   x5A
0E86C:  CLRF   x59
0E86E:  MOVLW  80
0E870:  MOVWF  x58
0E872:  MOVLB  0
0E874:  CALL   30E0
0E878:  BNC   E8B4
....................                   RPT100+=0.1; 
0E87A:  BCF    FD8.1
0E87C:  MOVFF  2B2,468
0E880:  MOVFF  2B1,467
0E884:  MOVFF  2B0,466
0E888:  MOVFF  2AF,465
0E88C:  MOVLW  CD
0E88E:  MOVLB  4
0E890:  MOVWF  x6C
0E892:  MOVLW  CC
0E894:  MOVWF  x6B
0E896:  MOVLW  4C
0E898:  MOVWF  x6A
0E89A:  MOVLW  7B
0E89C:  MOVWF  x69
0E89E:  MOVLB  0
0E8A0:  CALL   1D06
0E8A4:  MOVFF  03,2B2
0E8A8:  MOVFF  02,2B1
0E8AC:  MOVFF  01,2B0
0E8B0:  MOVFF  00,2AF
....................                RX_Buffer[4]=0x00;   
0E8B4:  CLRF   34
....................                RX_Buffer2[4]=0x00;             
0E8B6:  CLRF   3F
....................                //BorraBuffer(); 
....................             } 
....................          } 
....................              
....................          if(RX_Buffer[4]==0x0b || DOWN){//Tecla Abajo Oprimida 
0E8B8:  MOVF   34,W
0E8BA:  SUBLW  0B
0E8BC:  BZ    E8C4
0E8BE:  BSF    F93.2
0E8C0:  BTFSC  F81.2
0E8C2:  BRA    E93C
....................             delay_ms(20); 
0E8C4:  MOVLW  14
0E8C6:  MOVLB  4
0E8C8:  MOVWF  x69
0E8CA:  MOVLB  0
0E8CC:  CALL   1B4A
....................             if(RX_Buffer[4]==0x0b || DOWN){ 
0E8D0:  MOVF   34,W
0E8D2:  SUBLW  0B
0E8D4:  BZ    E8DC
0E8D6:  BSF    F93.2
0E8D8:  BTFSC  F81.2
0E8DA:  BRA    E93C
....................                if(RPT100>0.0) 
0E8DC:  MOVLB  4
0E8DE:  CLRF   x57
0E8E0:  CLRF   x56
0E8E2:  CLRF   x55
0E8E4:  CLRF   x54
0E8E6:  MOVFF  2B2,45B
0E8EA:  MOVFF  2B1,45A
0E8EE:  MOVFF  2B0,459
0E8F2:  MOVFF  2AF,458
0E8F6:  MOVLB  0
0E8F8:  CALL   30E0
0E8FC:  BNC   E938
....................                   RPT100-=0.1; 
0E8FE:  BSF    FD8.1
0E900:  MOVFF  2B2,468
0E904:  MOVFF  2B1,467
0E908:  MOVFF  2B0,466
0E90C:  MOVFF  2AF,465
0E910:  MOVLW  CD
0E912:  MOVLB  4
0E914:  MOVWF  x6C
0E916:  MOVLW  CC
0E918:  MOVWF  x6B
0E91A:  MOVLW  4C
0E91C:  MOVWF  x6A
0E91E:  MOVLW  7B
0E920:  MOVWF  x69
0E922:  MOVLB  0
0E924:  CALL   1D06
0E928:  MOVFF  03,2B2
0E92C:  MOVFF  02,2B1
0E930:  MOVFF  01,2B0
0E934:  MOVFF  00,2AF
....................                RX_Buffer[4]=0x00; 
0E938:  CLRF   34
....................                RX_Buffer2[4]=0x00;             
0E93A:  CLRF   3F
....................                //BorraBuffer(); 
....................             } 
....................          } 
....................       }else if(Opcion2==9){ 
0E93C:  BRA    EB08
0E93E:  MOVLB  3
0E940:  MOVF   x70,W
0E942:  SUBLW  09
0E944:  BNZ   E9FC
....................          printf("Config.t2c.txt=\"TTrampa\""); 
0E946:  MOVLW  80
0E948:  MOVWF  FF6
0E94A:  MOVLW  1A
0E94C:  MOVWF  FF7
0E94E:  MOVLW  00
0E950:  MOVWF  FF8
0E952:  MOVLB  0
0E954:  CALL   3CA6
....................          SendDataDisplay();       
0E958:  CALL   3CD8
....................          printf("t3c.txt=\"%02u\"",TTrampa); 
0E95C:  MOVLW  9A
0E95E:  MOVWF  FF6
0E960:  MOVLW  1A
0E962:  MOVWF  FF7
0E964:  MOVLW  00
0E966:  MOVWF  FF8
0E968:  MOVLW  09
0E96A:  MOVLB  4
0E96C:  MOVWF  x56
0E96E:  MOVLB  0
0E970:  CALL   4CA0
0E974:  MOVFF  2E4,456
0E978:  MOVLW  01
0E97A:  MOVLB  4
0E97C:  MOVWF  x57
0E97E:  MOVLB  0
0E980:  CALL   4CFE
0E984:  MOVLW  22
0E986:  BTFSS  F9E.4
0E988:  BRA    E986
0E98A:  MOVWF  FAD
....................          SendDataDisplay(); 
0E98C:  CALL   3CD8
....................          if(RX_Buffer[4]==0x0a || UP){//Tecla Arriba Oprimida 
0E990:  MOVF   34,W
0E992:  SUBLW  0A
0E994:  BZ    E99C
0E996:  BSF    F93.3
0E998:  BTFSC  F81.3
0E99A:  BRA    E9C4
....................             delay_ms(20); 
0E99C:  MOVLW  14
0E99E:  MOVLB  4
0E9A0:  MOVWF  x69
0E9A2:  MOVLB  0
0E9A4:  CALL   1B4A
....................             if(RX_Buffer[4]==0x0a || UP){ 
0E9A8:  MOVF   34,W
0E9AA:  SUBLW  0A
0E9AC:  BZ    E9B4
0E9AE:  BSF    F93.3
0E9B0:  BTFSC  F81.3
0E9B2:  BRA    E9C4
....................                if(TTrampa<100) 
0E9B4:  MOVLB  2
0E9B6:  MOVF   xE4,W
0E9B8:  SUBLW  63
0E9BA:  BNC   E9BE
....................                   TTrampa++; 
0E9BC:  INCF   xE4,F
....................                RX_Buffer[4]=0x00;   
0E9BE:  CLRF   34
....................                RX_Buffer2[4]=0x00;             
0E9C0:  CLRF   3F
0E9C2:  MOVLB  0
....................                //BorraBuffer(); 
....................             } 
....................          } 
....................              
....................          if(RX_Buffer[4]==0x0b || DOWN){//Tecla Abajo Oprimida 
0E9C4:  MOVF   34,W
0E9C6:  SUBLW  0B
0E9C8:  BZ    E9D0
0E9CA:  BSF    F93.2
0E9CC:  BTFSC  F81.2
0E9CE:  BRA    E9F8
....................             delay_ms(20); 
0E9D0:  MOVLW  14
0E9D2:  MOVLB  4
0E9D4:  MOVWF  x69
0E9D6:  MOVLB  0
0E9D8:  CALL   1B4A
....................             if(RX_Buffer[4]==0x0b || DOWN){ 
0E9DC:  MOVF   34,W
0E9DE:  SUBLW  0B
0E9E0:  BZ    E9E8
0E9E2:  BSF    F93.2
0E9E4:  BTFSC  F81.2
0E9E6:  BRA    E9F8
....................                if(TTrampa>50) 
0E9E8:  MOVLB  2
0E9EA:  MOVF   xE4,W
0E9EC:  SUBLW  32
0E9EE:  BC    E9F2
....................                   TTrampa--; 
0E9F0:  DECF   xE4,F
....................                RX_Buffer[4]=0x00; 
0E9F2:  CLRF   34
....................                RX_Buffer2[4]=0x00;             
0E9F4:  CLRF   3F
0E9F6:  MOVLB  0
....................                //BorraBuffer(); 
....................             } 
....................          } 
....................       }else if(Opcion2==10){ 
0E9F8:  BRA    EB08
0E9FA:  MOVLB  3
0E9FC:  MOVF   x70,W
0E9FE:  SUBLW  0A
0EA00:  BNZ   EA50
....................          printf("Config.t2c.txt=\"Ciclos\""); 
0EA02:  MOVLW  AA
0EA04:  MOVWF  FF6
0EA06:  MOVLW  1A
0EA08:  MOVWF  FF7
0EA0A:  MOVLW  00
0EA0C:  MOVWF  FF8
0EA0E:  MOVLB  0
0EA10:  CALL   3CA6
....................          SendDataDisplay();       
0EA14:  CALL   3CD8
....................          printf("t3c.txt=\"%05Lu\"",Ciclos); 
0EA18:  MOVLW  C2
0EA1A:  MOVWF  FF6
0EA1C:  MOVLW  1A
0EA1E:  MOVWF  FF7
0EA20:  MOVLW  00
0EA22:  MOVWF  FF8
0EA24:  MOVLW  09
0EA26:  MOVLB  4
0EA28:  MOVWF  x56
0EA2A:  MOVLB  0
0EA2C:  CALL   4CA0
0EA30:  MOVLW  08
0EA32:  MOVWF  FE9
0EA34:  MOVFF  385,457
0EA38:  MOVFF  384,456
0EA3C:  CALL   573A
0EA40:  MOVLW  22
0EA42:  BTFSS  F9E.4
0EA44:  BRA    EA42
0EA46:  MOVWF  FAD
....................          SendDataDisplay(); 
0EA48:  CALL   3CD8
....................       }else if(Opcion2==11){ 
0EA4C:  BRA    EB08
0EA4E:  MOVLB  3
0EA50:  MOVF   x70,W
0EA52:  SUBLW  0B
0EA54:  BNZ   EB06
....................          printf("Config.t2c.txt=\"Atmosferica\""); 
0EA56:  MOVLW  D2
0EA58:  MOVWF  FF6
0EA5A:  MOVLW  1A
0EA5C:  MOVWF  FF7
0EA5E:  MOVLW  00
0EA60:  MOVWF  FF8
0EA62:  MOVLB  0
0EA64:  CALL   3CA6
....................          SendDataDisplay();    
0EA68:  CALL   3CD8
....................          printf("t3c.txt=\"%02u\"",Atmosferica); 
0EA6C:  MOVLW  F0
0EA6E:  MOVWF  FF6
0EA70:  MOVLW  1A
0EA72:  MOVWF  FF7
0EA74:  MOVLW  00
0EA76:  MOVWF  FF8
0EA78:  MOVLW  09
0EA7A:  MOVLB  4
0EA7C:  MOVWF  x56
0EA7E:  MOVLB  0
0EA80:  CALL   4CA0
0EA84:  MOVFF  3BF,456
0EA88:  MOVLW  01
0EA8A:  MOVLB  4
0EA8C:  MOVWF  x57
0EA8E:  MOVLB  0
0EA90:  CALL   4CFE
0EA94:  MOVLW  22
0EA96:  BTFSS  F9E.4
0EA98:  BRA    EA96
0EA9A:  MOVWF  FAD
....................          SendDataDisplay(); 
0EA9C:  CALL   3CD8
....................           
....................          #if defined(PT100Fija) && !defined(Absoluta) 
....................             Atmosferica=0; 
....................          #else 
....................             if(RX_Buffer[4]==0x0a || UP){//Tecla Arriba Oprimida 
0EAA0:  MOVF   34,W
0EAA2:  SUBLW  0A
0EAA4:  BZ    EAAC
0EAA6:  BSF    F93.3
0EAA8:  BTFSC  F81.3
0EAAA:  BRA    EAD4
....................                delay_ms(20); 
0EAAC:  MOVLW  14
0EAAE:  MOVLB  4
0EAB0:  MOVWF  x69
0EAB2:  MOVLB  0
0EAB4:  CALL   1B4A
....................                if(RX_Buffer[4]==0x0a || UP){ 
0EAB8:  MOVF   34,W
0EABA:  SUBLW  0A
0EABC:  BZ    EAC4
0EABE:  BSF    F93.3
0EAC0:  BTFSC  F81.3
0EAC2:  BRA    EAD4
....................                   if(Atmosferica<100) 
0EAC4:  MOVLB  3
0EAC6:  MOVF   xBF,W
0EAC8:  SUBLW  63
0EACA:  BNC   EACE
....................                      Atmosferica++; 
0EACC:  INCF   xBF,F
....................                   RX_Buffer[4]=0x00;   
0EACE:  CLRF   34
....................                   RX_Buffer2[4]=0x00;             
0EAD0:  CLRF   3F
0EAD2:  MOVLB  0
....................                   //BorraBuffer(); 
....................                } 
....................             } 
....................                 
....................             if(RX_Buffer[4]==0x0b || DOWN){//Tecla Abajo Oprimida 
0EAD4:  MOVF   34,W
0EAD6:  SUBLW  0B
0EAD8:  BZ    EAE0
0EADA:  BSF    F93.2
0EADC:  BTFSC  F81.2
0EADE:  BRA    EB08
....................                delay_ms(20); 
0EAE0:  MOVLW  14
0EAE2:  MOVLB  4
0EAE4:  MOVWF  x69
0EAE6:  MOVLB  0
0EAE8:  CALL   1B4A
....................                if(RX_Buffer[4]==0x0b || DOWN){ 
0EAEC:  MOVF   34,W
0EAEE:  SUBLW  0B
0EAF0:  BZ    EAF8
0EAF2:  BSF    F93.2
0EAF4:  BTFSC  F81.2
0EAF6:  BRA    EB08
....................                   if(Atmosferica>50) 
0EAF8:  MOVLB  3
0EAFA:  MOVF   xBF,W
0EAFC:  SUBLW  32
0EAFE:  BC    EB02
....................                      Atmosferica--; 
0EB00:  DECF   xBF,F
....................                   RX_Buffer[4]=0x00; 
0EB02:  CLRF   34
....................                   RX_Buffer2[4]=0x00;             
0EB04:  CLRF   3F
0EB06:  MOVLB  0
....................                   //BorraBuffer(); 
....................                } 
....................             }  
....................          #endif 
....................       } 
....................        
....................       if(RX_Buffer[4]==0x0c || LEFT){//Tecla Izquierda Oprimida 
0EB08:  MOVF   34,W
0EB0A:  SUBLW  0C
0EB0C:  BZ    EB14
0EB0E:  BSF    F93.0
0EB10:  BTFSC  F81.0
0EB12:  BRA    EB36
....................          delay_ms(20); 
0EB14:  MOVLW  14
0EB16:  MOVLB  4
0EB18:  MOVWF  x69
0EB1A:  MOVLB  0
0EB1C:  CALL   1B4A
....................          if(RX_Buffer[4]==0x0c || LEFT){ 
0EB20:  MOVF   34,W
0EB22:  SUBLW  0C
0EB24:  BZ    EB2C
0EB26:  BSF    F93.0
0EB28:  BTFSC  F81.0
0EB2A:  BRA    EB36
....................             Opcion2++; 
0EB2C:  MOVLB  3
0EB2E:  INCF   x70,F
....................             RX_Buffer[4]=0x00;   
0EB30:  CLRF   34
....................             RX_Buffer2[4]=0x00;             
0EB32:  CLRF   3F
0EB34:  MOVLB  0
....................             //BorraBuffer(); 
....................          } 
....................       } 
....................           
....................       if(RX_Buffer[4]==0x0d || RIGHT){//Tecla Derecha Oprimida 
0EB36:  MOVF   34,W
0EB38:  SUBLW  0D
0EB3A:  BZ    EB42
0EB3C:  BSF    F93.1
0EB3E:  BTFSC  F81.1
0EB40:  BRA    EB64
....................          delay_ms(20); 
0EB42:  MOVLW  14
0EB44:  MOVLB  4
0EB46:  MOVWF  x69
0EB48:  MOVLB  0
0EB4A:  CALL   1B4A
....................          if(RX_Buffer[4]==0x0d || RIGHT){ 
0EB4E:  MOVF   34,W
0EB50:  SUBLW  0D
0EB52:  BZ    EB5A
0EB54:  BSF    F93.1
0EB56:  BTFSC  F81.1
0EB58:  BRA    EB64
....................             Opcion2--; 
0EB5A:  MOVLB  3
0EB5C:  DECF   x70,F
....................             RX_Buffer[4]=0x00; 
0EB5E:  CLRF   34
....................             RX_Buffer2[4]=0x00;             
0EB60:  CLRF   3F
0EB62:  MOVLB  0
....................             //BorraBuffer(); 
....................          } 
....................       } 
....................        
....................       if(RX_Buffer[4]==0x11 || (RIGHT && LEFT)){//Tecla Regresar 
0EB64:  MOVF   34,W
0EB66:  SUBLW  11
0EB68:  BZ    EB76
0EB6A:  BSF    F93.1
0EB6C:  BTFSC  F81.1
0EB6E:  BRA    EF18
0EB70:  BSF    F93.0
0EB72:  BTFSC  F81.0
0EB74:  BRA    EF18
....................          delay_ms(20); 
0EB76:  MOVLW  14
0EB78:  MOVLB  4
0EB7A:  MOVWF  x69
0EB7C:  MOVLB  0
0EB7E:  CALL   1B4A
....................          if(RX_Buffer[4]==0x11 || (RIGHT && LEFT)){ 
0EB82:  MOVF   34,W
0EB84:  SUBLW  11
0EB86:  BZ    EB94
0EB88:  BSF    F93.1
0EB8A:  BTFSC  F81.1
0EB8C:  BRA    EF18
0EB8E:  BSF    F93.0
0EB90:  BTFSC  F81.0
0EB92:  BRA    EF18
....................             if(!GuardaEEPROM){ 
0EB94:  BTFSC  xAB.0
0EB96:  BRA    EF04
....................                write_eeprom(20,(int8)Ganancia); 
0EB98:  MOVFF  315,468
0EB9C:  MOVFF  314,467
0EBA0:  MOVFF  313,466
0EBA4:  MOVFF  312,465
0EBA8:  CALL   44C0
0EBAC:  MOVFF  01,450
0EBB0:  CLRF   FAA
0EBB2:  MOVLW  14
0EBB4:  MOVWF  FA9
0EBB6:  MOVFF  450,FA8
0EBBA:  BCF    FA6.6
0EBBC:  BCF    FA6.7
0EBBE:  BSF    FA6.2
0EBC0:  MOVF   FF2,W
0EBC2:  MOVWF  00
0EBC4:  BCF    FF2.6
0EBC6:  BCF    FF2.7
0EBC8:  MOVLB  F
0EBCA:  MOVLW  55
0EBCC:  MOVWF  FA7
0EBCE:  MOVLW  AA
0EBD0:  MOVWF  FA7
0EBD2:  BSF    FA6.1
0EBD4:  BTFSC  FA6.1
0EBD6:  BRA    EBD4
0EBD8:  BCF    FA6.2
0EBDA:  MOVF   00,W
0EBDC:  IORWF  FF2,F
....................                delay_ms(10); 
0EBDE:  MOVLW  0A
0EBE0:  MOVLB  4
0EBE2:  MOVWF  x69
0EBE4:  MOVLB  0
0EBE6:  CALL   1B4A
....................                write_eeprom(26,(int8)Integral); 
0EBEA:  CLRF   FAA
0EBEC:  MOVLW  1A
0EBEE:  MOVWF  FA9
0EBF0:  MOVFF  346,FA8
0EBF4:  BCF    FA6.6
0EBF6:  BCF    FA6.7
0EBF8:  BSF    FA6.2
0EBFA:  MOVF   FF2,W
0EBFC:  MOVWF  00
0EBFE:  BCF    FF2.6
0EC00:  BCF    FF2.7
0EC02:  MOVLB  F
0EC04:  MOVLW  55
0EC06:  MOVWF  FA7
0EC08:  MOVLW  AA
0EC0A:  MOVWF  FA7
0EC0C:  BSF    FA6.1
0EC0E:  BTFSC  FA6.1
0EC10:  BRA    EC0E
0EC12:  BCF    FA6.2
0EC14:  MOVF   00,W
0EC16:  IORWF  FF2,F
....................                delay_ms(10); 
0EC18:  MOVLW  0A
0EC1A:  MOVLB  4
0EC1C:  MOVWF  x69
0EC1E:  MOVLB  0
0EC20:  CALL   1B4A
....................                write_eeprom(27,(int8)Derivativo); 
0EC24:  CLRF   FAA
0EC26:  MOVLW  1B
0EC28:  MOVWF  FA9
0EC2A:  MOVFF  347,FA8
0EC2E:  BCF    FA6.6
0EC30:  BCF    FA6.7
0EC32:  BSF    FA6.2
0EC34:  MOVF   FF2,W
0EC36:  MOVWF  00
0EC38:  BCF    FF2.6
0EC3A:  BCF    FF2.7
0EC3C:  MOVLB  F
0EC3E:  MOVLW  55
0EC40:  MOVWF  FA7
0EC42:  MOVLW  AA
0EC44:  MOVWF  FA7
0EC46:  BSF    FA6.1
0EC48:  BTFSC  FA6.1
0EC4A:  BRA    EC48
0EC4C:  BCF    FA6.2
0EC4E:  MOVF   00,W
0EC50:  IORWF  FF2,F
....................                delay_ms(10); 
0EC52:  MOVLW  0A
0EC54:  MOVLB  4
0EC56:  MOVWF  x69
0EC58:  MOVLB  0
0EC5A:  CALL   1B4A
....................                write_eeprom(25,(int8)Tciclo); 
0EC5E:  MOVFF  2FD,468
0EC62:  MOVFF  2FC,467
0EC66:  MOVFF  2FB,466
0EC6A:  MOVFF  2FA,465
0EC6E:  CALL   44C0
0EC72:  MOVFF  01,450
0EC76:  CLRF   FAA
0EC78:  MOVLW  19
0EC7A:  MOVWF  FA9
0EC7C:  MOVFF  450,FA8
0EC80:  BCF    FA6.6
0EC82:  BCF    FA6.7
0EC84:  BSF    FA6.2
0EC86:  MOVF   FF2,W
0EC88:  MOVWF  00
0EC8A:  BCF    FF2.6
0EC8C:  BCF    FF2.7
0EC8E:  MOVLB  F
0EC90:  MOVLW  55
0EC92:  MOVWF  FA7
0EC94:  MOVLW  AA
0EC96:  MOVWF  FA7
0EC98:  BSF    FA6.1
0EC9A:  BTFSC  FA6.1
0EC9C:  BRA    EC9A
0EC9E:  BCF    FA6.2
0ECA0:  MOVF   00,W
0ECA2:  IORWF  FF2,F
....................                delay_ms(10); 
0ECA4:  MOVLW  0A
0ECA6:  MOVLB  4
0ECA8:  MOVWF  x69
0ECAA:  MOVLB  0
0ECAC:  CALL   1B4A
....................                write_eeprom(21,Ajuste); 
0ECB0:  CLRF   FAA
0ECB2:  MOVLW  15
0ECB4:  MOVWF  FA9
0ECB6:  MOVFF  2E1,FA8
0ECBA:  BCF    FA6.6
0ECBC:  BCF    FA6.7
0ECBE:  BSF    FA6.2
0ECC0:  MOVF   FF2,W
0ECC2:  MOVWF  00
0ECC4:  BCF    FF2.6
0ECC6:  BCF    FF2.7
0ECC8:  MOVLB  F
0ECCA:  MOVLW  55
0ECCC:  MOVWF  FA7
0ECCE:  MOVLW  AA
0ECD0:  MOVWF  FA7
0ECD2:  BSF    FA6.1
0ECD4:  BTFSC  FA6.1
0ECD6:  BRA    ECD4
0ECD8:  BCF    FA6.2
0ECDA:  MOVF   00,W
0ECDC:  IORWF  FF2,F
....................                delay_ms(10); 
0ECDE:  MOVLW  0A
0ECE0:  MOVLB  4
0ECE2:  MOVWF  x69
0ECE4:  MOVLB  0
0ECE6:  CALL   1B4A
....................                write_eeprom(22,Ajusten); 
0ECEA:  CLRF   FAA
0ECEC:  MOVLW  16
0ECEE:  MOVWF  FA9
0ECF0:  MOVFF  2E2,FA8
0ECF4:  BCF    FA6.6
0ECF6:  BCF    FA6.7
0ECF8:  BSF    FA6.2
0ECFA:  MOVF   FF2,W
0ECFC:  MOVWF  00
0ECFE:  BCF    FF2.6
0ED00:  BCF    FF2.7
0ED02:  MOVLB  F
0ED04:  MOVLW  55
0ED06:  MOVWF  FA7
0ED08:  MOVLW  AA
0ED0A:  MOVWF  FA7
0ED0C:  BSF    FA6.1
0ED0E:  BTFSC  FA6.1
0ED10:  BRA    ED0E
0ED12:  BCF    FA6.2
0ED14:  MOVF   00,W
0ED16:  IORWF  FF2,F
....................                delay_ms(10); 
0ED18:  MOVLW  0A
0ED1A:  MOVLB  4
0ED1C:  MOVWF  x69
0ED1E:  MOVLB  0
0ED20:  CALL   1B4A
....................                write_eeprom(24,(int8)MediaMovil); 
0ED24:  CLRF   FAA
0ED26:  MOVLW  18
0ED28:  MOVWF  FA9
0ED2A:  MOVFF  2E3,FA8
0ED2E:  BCF    FA6.6
0ED30:  BCF    FA6.7
0ED32:  BSF    FA6.2
0ED34:  MOVF   FF2,W
0ED36:  MOVWF  00
0ED38:  BCF    FF2.6
0ED3A:  BCF    FF2.7
0ED3C:  MOVLB  F
0ED3E:  MOVLW  55
0ED40:  MOVWF  FA7
0ED42:  MOVLW  AA
0ED44:  MOVWF  FA7
0ED46:  BSF    FA6.1
0ED48:  BTFSC  FA6.1
0ED4A:  BRA    ED48
0ED4C:  BCF    FA6.2
0ED4E:  MOVF   00,W
0ED50:  IORWF  FF2,F
....................                delay_ms(10); 
0ED52:  MOVLW  0A
0ED54:  MOVLB  4
0ED56:  MOVWF  x69
0ED58:  MOVLB  0
0ED5A:  CALL   1B4A
....................                write_eeprom(32,(int8)RPT100); 
0ED5E:  MOVFF  2B2,468
0ED62:  MOVFF  2B1,467
0ED66:  MOVFF  2B0,466
0ED6A:  MOVFF  2AF,465
0ED6E:  CALL   44C0
0ED72:  MOVFF  01,450
0ED76:  CLRF   FAA
0ED78:  MOVLW  20
0ED7A:  MOVWF  FA9
0ED7C:  MOVFF  450,FA8
0ED80:  BCF    FA6.6
0ED82:  BCF    FA6.7
0ED84:  BSF    FA6.2
0ED86:  MOVF   FF2,W
0ED88:  MOVWF  00
0ED8A:  BCF    FF2.6
0ED8C:  BCF    FF2.7
0ED8E:  MOVLB  F
0ED90:  MOVLW  55
0ED92:  MOVWF  FA7
0ED94:  MOVLW  AA
0ED96:  MOVWF  FA7
0ED98:  BSF    FA6.1
0ED9A:  BTFSC  FA6.1
0ED9C:  BRA    ED9A
0ED9E:  BCF    FA6.2
0EDA0:  MOVF   00,W
0EDA2:  IORWF  FF2,F
....................                delay_ms(10); 
0EDA4:  MOVLW  0A
0EDA6:  MOVLB  4
0EDA8:  MOVWF  x69
0EDAA:  MOVLB  0
0EDAC:  CALL   1B4A
....................                Temporal=RPT100-((int8)RPT100); 
0EDB0:  MOVFF  2B2,468
0EDB4:  MOVFF  2B1,467
0EDB8:  MOVFF  2B0,466
0EDBC:  MOVFF  2AF,465
0EDC0:  CALL   44C0
0EDC4:  MOVLB  4
0EDC6:  CLRF   x66
0EDC8:  MOVFF  01,465
0EDCC:  MOVLB  0
0EDCE:  CALL   1B72
0EDD2:  BSF    FD8.1
0EDD4:  MOVFF  2B2,468
0EDD8:  MOVFF  2B1,467
0EDDC:  MOVFF  2B0,466
0EDE0:  MOVFF  2AF,465
0EDE4:  MOVFF  03,46C
0EDE8:  MOVFF  02,46B
0EDEC:  MOVFF  01,46A
0EDF0:  MOVFF  00,469
0EDF4:  CALL   1D06
0EDF8:  MOVFF  03,2B6
0EDFC:  MOVFF  02,2B5
0EE00:  MOVFF  01,2B4
0EE04:  MOVFF  00,2B3
....................                Temporal=Temporal*10; 
0EE08:  MOVFF  2B6,46C
0EE0C:  MOVFF  2B5,46B
0EE10:  MOVFF  2B4,46A
0EE14:  MOVFF  2B3,469
0EE18:  MOVLB  4
0EE1A:  CLRF   x70
0EE1C:  CLRF   x6F
0EE1E:  MOVLW  20
0EE20:  MOVWF  x6E
0EE22:  MOVLW  82
0EE24:  MOVWF  x6D
0EE26:  MOVLB  0
0EE28:  CALL   3D84
0EE2C:  MOVFF  03,2B6
0EE30:  MOVFF  02,2B5
0EE34:  MOVFF  01,2B4
0EE38:  MOVFF  00,2B3
....................                write_eeprom(33,(int8)Temporal); 
0EE3C:  MOVFF  2B6,468
0EE40:  MOVFF  2B5,467
0EE44:  MOVFF  2B4,466
0EE48:  MOVFF  2B3,465
0EE4C:  CALL   44C0
0EE50:  MOVFF  01,450
0EE54:  CLRF   FAA
0EE56:  MOVLW  21
0EE58:  MOVWF  FA9
0EE5A:  MOVFF  450,FA8
0EE5E:  BCF    FA6.6
0EE60:  BCF    FA6.7
0EE62:  BSF    FA6.2
0EE64:  MOVF   FF2,W
0EE66:  MOVWF  00
0EE68:  BCF    FF2.6
0EE6A:  BCF    FF2.7
0EE6C:  MOVLB  F
0EE6E:  MOVLW  55
0EE70:  MOVWF  FA7
0EE72:  MOVLW  AA
0EE74:  MOVWF  FA7
0EE76:  BSF    FA6.1
0EE78:  BTFSC  FA6.1
0EE7A:  BRA    EE78
0EE7C:  BCF    FA6.2
0EE7E:  MOVF   00,W
0EE80:  IORWF  FF2,F
....................                delay_ms(10); 
0EE82:  MOVLW  0A
0EE84:  MOVLB  4
0EE86:  MOVWF  x69
0EE88:  MOVLB  0
0EE8A:  CALL   1B4A
....................                write_eeprom(39,TTrampa); 
0EE8E:  CLRF   FAA
0EE90:  MOVLW  27
0EE92:  MOVWF  FA9
0EE94:  MOVFF  2E4,FA8
0EE98:  BCF    FA6.6
0EE9A:  BCF    FA6.7
0EE9C:  BSF    FA6.2
0EE9E:  MOVF   FF2,W
0EEA0:  MOVWF  00
0EEA2:  BCF    FF2.6
0EEA4:  BCF    FF2.7
0EEA6:  MOVLB  F
0EEA8:  MOVLW  55
0EEAA:  MOVWF  FA7
0EEAC:  MOVLW  AA
0EEAE:  MOVWF  FA7
0EEB0:  BSF    FA6.1
0EEB2:  BTFSC  FA6.1
0EEB4:  BRA    EEB2
0EEB6:  BCF    FA6.2
0EEB8:  MOVF   00,W
0EEBA:  IORWF  FF2,F
....................                delay_ms(10); 
0EEBC:  MOVLW  0A
0EEBE:  MOVLB  4
0EEC0:  MOVWF  x69
0EEC2:  MOVLB  0
0EEC4:  CALL   1B4A
....................                write_eeprom(46,Atmosferica); 
0EEC8:  CLRF   FAA
0EECA:  MOVLW  2E
0EECC:  MOVWF  FA9
0EECE:  MOVFF  3BF,FA8
0EED2:  BCF    FA6.6
0EED4:  BCF    FA6.7
0EED6:  BSF    FA6.2
0EED8:  MOVF   FF2,W
0EEDA:  MOVWF  00
0EEDC:  BCF    FF2.6
0EEDE:  BCF    FF2.7
0EEE0:  MOVLB  F
0EEE2:  MOVLW  55
0EEE4:  MOVWF  FA7
0EEE6:  MOVLW  AA
0EEE8:  MOVWF  FA7
0EEEA:  BSF    FA6.1
0EEEC:  BTFSC  FA6.1
0EEEE:  BRA    EEEC
0EEF0:  BCF    FA6.2
0EEF2:  MOVF   00,W
0EEF4:  IORWF  FF2,F
....................                delay_ms(10); 
0EEF6:  MOVLW  0A
0EEF8:  MOVLB  4
0EEFA:  MOVWF  x69
0EEFC:  MOVLB  0
0EEFE:  CALL   1B4A
....................                GuardaEEPROM=ON; 
0EF02:  BSF    xAB.0
....................             } 
....................             printf("page MenuPrincipal"); 
0EF04:  MOVLW  00
0EF06:  MOVWF  FF6
0EF08:  MOVLW  1B
0EF0A:  MOVWF  FF7
0EF0C:  MOVLW  00
0EF0E:  MOVWF  FF8
0EF10:  CALL   3CA6
....................             SendDataDisplay(); 
0EF14:  CALL   3CD8
....................             //BorraBuffer(); 
....................          } 
....................       } 
....................       printf("fecha.txt=\"Fecha:%02u/%02u/20%02u    Hora: %02u:%02u\"",Dia,Mes,Year,Hora,Minuto); 
0EF18:  MOVLW  14
0EF1A:  MOVWF  FF6
0EF1C:  MOVLW  1B
0EF1E:  MOVWF  FF7
0EF20:  MOVLW  00
0EF22:  MOVWF  FF8
0EF24:  MOVLW  11
0EF26:  MOVLB  4
0EF28:  MOVWF  x56
0EF2A:  MOVLB  0
0EF2C:  CALL   4CA0
0EF30:  MOVFF  3AD,456
0EF34:  MOVLW  01
0EF36:  MOVLB  4
0EF38:  MOVWF  x57
0EF3A:  MOVLB  0
0EF3C:  CALL   4CFE
0EF40:  MOVLW  2F
0EF42:  BTFSS  F9E.4
0EF44:  BRA    EF42
0EF46:  MOVWF  FAD
0EF48:  MOVFF  3AC,456
0EF4C:  MOVLW  01
0EF4E:  MOVLB  4
0EF50:  MOVWF  x57
0EF52:  MOVLB  0
0EF54:  CALL   4CFE
0EF58:  MOVLW  2F
0EF5A:  BTFSS  F9E.4
0EF5C:  BRA    EF5A
0EF5E:  MOVWF  FAD
0EF60:  MOVLW  32
0EF62:  BTFSS  F9E.4
0EF64:  BRA    EF62
0EF66:  MOVWF  FAD
0EF68:  MOVLW  30
0EF6A:  BTFSS  F9E.4
0EF6C:  BRA    EF6A
0EF6E:  MOVWF  FAD
0EF70:  MOVFF  3AB,456
0EF74:  MOVLW  01
0EF76:  MOVLB  4
0EF78:  MOVWF  x57
0EF7A:  MOVLB  0
0EF7C:  CALL   4CFE
0EF80:  MOVLW  35
0EF82:  MOVWF  FF6
0EF84:  MOVLW  1B
0EF86:  MOVWF  FF7
0EF88:  MOVLW  00
0EF8A:  MOVWF  FF8
0EF8C:  MOVLW  0A
0EF8E:  MOVLB  4
0EF90:  MOVWF  x56
0EF92:  MOVLB  0
0EF94:  CALL   4CA0
0EF98:  MOVFF  3AE,456
0EF9C:  MOVLW  01
0EF9E:  MOVLB  4
0EFA0:  MOVWF  x57
0EFA2:  MOVLB  0
0EFA4:  CALL   4CFE
0EFA8:  MOVLW  3A
0EFAA:  BTFSS  F9E.4
0EFAC:  BRA    EFAA
0EFAE:  MOVWF  FAD
0EFB0:  MOVFF  3AF,456
0EFB4:  MOVLW  01
0EFB6:  MOVLB  4
0EFB8:  MOVWF  x57
0EFBA:  MOVLB  0
0EFBC:  CALL   4CFE
0EFC0:  MOVLW  22
0EFC2:  BTFSS  F9E.4
0EFC4:  BRA    EFC2
0EFC6:  MOVWF  FAD
....................       SendDataDisplay();  
0EFC8:  CALL   3CD8
0EFCC:  MOVLB  3
....................     } 
.................... //_--------------------------------------------------------------------------------------------------------------------------------------------------------        
....................  
....................    } 
0EFCE:  GOTO   871C
.................... } 
0EFD2:  SLEEP 

Configuration Fuses:
   Word  1: 0200   HS NOIESO NOFCMEN
   Word  2: 1B08   NOBROWNOUT WDT BORV42 PUT WDT8192
   Word  3: 0000   NOPBADEN NOLPT1OSC NOMCLR
   Word  4: 00B0   NOSTVREN NODEBUG NOLVP NOXINST BBSIZ4K
   Word  5: C03F   NOPROTECT NOCPD NOCPB
   Word  6: E03F   NOWRT NOWRTD NOWRTC NOWRTB
   Word  7: 403F   NOEBTR NOEBTRB
