CCS PCH C Compiler, Version 4.104, 5967               31-ene.-20 11:46

               Filename: D:\Laboratorio\Autoclave\Autoclave Horizontal\Con Precamara\2019\Autoclave 250L Doble Puerta UCC#0045879XX\Firmware\NextionController\GLCD_Controller.lst

               ROM used: 60674 bytes (62%)
                         Largest free fragment is 32768
               RAM used: 1721 (52%) at main() level
                         1748 (53%) worst case
               Stack:    5 worst case (4 in main + 1 for interrupts)

*
00000:  GOTO   77E0
*
00008:  GOTO   00AE
0000C:  NOP   
0000E:  NOP   
00010:  NOP   
00012:  NOP   
00014:  NOP   
00016:  NOP   
00018:  MOVWF  04
0001A:  MOVFF  FD8,05
0001E:  MOVFF  FE0,06
00022:  MOVLB  0
00024:  MOVFF  FE9,0C
00028:  MOVFF  FEA,07
0002C:  MOVFF  FE1,08
00030:  MOVFF  FE2,09
00034:  MOVFF  FD9,0A
00038:  MOVFF  FDA,0B
0003C:  MOVFF  FF3,12
00040:  MOVFF  FF4,13
00044:  MOVFF  FFA,14
00048:  MOVFF  FFB,15
0004C:  MOVFF  00,0E
00050:  MOVFF  01,0F
00054:  MOVFF  02,10
00058:  MOVFF  03,11
0005C:  BTFSS  F9D.0
0005E:  GOTO   0068
00062:  BTFSC  F9E.0
00064:  GOTO   05A2
00068:  MOVFF  0E,00
0006C:  MOVFF  0F,01
00070:  MOVFF  10,02
00074:  MOVFF  11,03
00078:  MOVFF  0C,FE9
0007C:  MOVFF  07,FEA
00080:  BSF    07.7
00082:  MOVFF  08,FE1
00086:  MOVFF  09,FE2
0008A:  MOVFF  0A,FD9
0008E:  MOVFF  0B,FDA
00092:  MOVFF  12,FF3
00096:  MOVFF  13,FF4
0009A:  MOVFF  14,FFA
0009E:  MOVFF  15,FFB
000A2:  MOVF   04,W
000A4:  MOVFF  06,FE0
000A8:  MOVFF  05,FD8
000AC:  RETFIE 0
000AE:  MOVWF  17
000B0:  MOVFF  FD8,18
000B4:  MOVFF  FE0,19
000B8:  MOVLB  0
000BA:  MOVFF  FE9,1F
000BE:  MOVFF  FEA,1A
000C2:  MOVFF  FE1,1B
000C6:  MOVFF  FE2,1C
000CA:  MOVFF  FD9,1D
000CE:  MOVFF  FDA,1E
000D2:  MOVFF  FF3,25
000D6:  MOVFF  FF4,26
000DA:  MOVFF  FFA,27
000DE:  MOVFF  FFB,28
000E2:  MOVFF  00,21
000E6:  MOVFF  01,22
000EA:  MOVFF  02,23
000EE:  MOVFF  03,24
000F2:  BTFSS  F9D.5
000F4:  GOTO   00FE
000F8:  BTFSC  F9E.5
000FA:  GOTO   053E
000FE:  MOVFF  21,00
00102:  MOVFF  22,01
00106:  MOVFF  23,02
0010A:  MOVFF  24,03
0010E:  MOVFF  1F,FE9
00112:  MOVFF  1A,FEA
00116:  BSF    1A.7
00118:  MOVFF  1B,FE1
0011C:  MOVFF  1C,FE2
00120:  MOVFF  1D,FD9
00124:  MOVFF  1E,FDA
00128:  MOVFF  25,FF3
0012C:  MOVFF  26,FF4
00130:  MOVFF  27,FFA
00134:  MOVFF  28,FFB
00138:  MOVF   17,W
0013A:  MOVFF  19,FE0
0013E:  MOVFF  18,FD8
00142:  RETFIE 0
.................... //Falta crear menu de ajuste de variables y de norma CFR21 
.................... //Falta revisar niveles de agua con variable calderin lleno de bomba de agua 
....................  
.................... #include <18F4685.h> 
.................... //////// Standard Header file for the PIC18F4685 device //////////////// 
.................... #device PIC18F4685 
.................... #list 
....................  
.................... #device adc=10 
.................... #device HIGH_INTS=TRUE //Activamos niveles de prioridad 
.................... #fuses HS,WDT8192,NOPROTECT,NOLVP,NODEBUG,NOSTVREN,NOPUT,NOCPD,NOWRT,NOIESO,NOFCMEN,NOPBADEN,NOWRTC,NOWRTB,NOEBTR,NOEBTRB,NOCPB,NOXINST,NOLPT1OSC,NOMCLR 
.................... #use delay(clock=20000000) 
*
01F7A:  MOVLW  06
01F7C:  MOVWF  FEA
01F7E:  MOVLW  C2
01F80:  MOVWF  FE9
01F82:  MOVF   FEF,W
01F84:  BZ    1FA0
01F86:  MOVLW  06
01F88:  MOVWF  01
01F8A:  CLRF   00
01F8C:  DECFSZ 00,F
01F8E:  BRA    1F8C
01F90:  DECFSZ 01,F
01F92:  BRA    1F8A
01F94:  MOVLW  7B
01F96:  MOVWF  00
01F98:  DECFSZ 00,F
01F9A:  BRA    1F98
01F9C:  DECFSZ FEF,F
01F9E:  BRA    1F86
01FA0:  RETLW  00
.................... #use i2c(Master,slow,sda=PIN_C4,scl=PIN_C3) 
.................... #use rs232(baud=9600, xmit=PIN_C6, rcv=PIN_C7, bits=8, parity=N) 
*
04024:  BTFSS  F9E.4
04026:  BRA    4024
04028:  MOVWF  FAD
0402A:  RETLW  00
.................... #include <stdio.h> 
.................... /////////////////////////////////////////////////////////////////////////// 
.................... ////        (C) Copyright 1996,2003 Custom Computer Services           //// 
.................... //// This source code may only be used by licensed users of the CCS C  //// 
.................... //// compiler.  This source code may only be distributed to other      //// 
.................... //// licensed users of the CCS C compiler.  No other use, reproduction //// 
.................... //// or distribution is permitted without written permission.          //// 
.................... //// Derivative programs created using this software in object code    //// 
.................... //// form are not restricted in any way.                               //// 
.................... /////////////////////////////////////////////////////////////////////////// 
....................  
.................... #ifndef _STDIO 
.................... #define _STDIO 
.................... #include <string.h> 
.................... //////////////////////////////////////////////////////////////////////////// 
.................... ////        (C) Copyright 1996,2008 Custom Computer Services            //// 
.................... //// This source code may only be used by licensed users of the CCS C   //// 
.................... //// compiler.  This source code may only be distributed to other       //// 
.................... //// licensed users of the CCS C compiler.  No other use, reproduction  //// 
.................... //// or distribution is permitted without written permission.           //// 
.................... //// Derivative programs created using this software in object code     //// 
.................... //// form are not restricted in any way.                                //// 
.................... //////////////////////////////////////////////////////////////////////////// 
....................  
.................... #ifndef _STRING 
.................... #define _STRING 
.................... #include <stddef.h> 
.................... /////////////////////////////////////////////////////////////////////////// 
.................... ////        (C) Copyright 1996,2003 Custom Computer Services           //// 
.................... //// This source code may only be used by licensed users of the CCS C  //// 
.................... //// compiler.  This source code may only be distributed to other      //// 
.................... //// licensed users of the CCS C compiler.  No other use, reproduction //// 
.................... //// or distribution is permitted without written permission.          //// 
.................... //// Derivative programs created using this software in object code    //// 
.................... //// form are not restricted in any way.                               //// 
.................... /////////////////////////////////////////////////////////////////////////// 
....................  
.................... #ifndef _STDDEF 
....................  
.................... #define _STDDEF 
....................  
.................... #if sizeof(unsigned int8 *)==1 
.................... #define ptrdiff_t unsigned int8 
.................... #else 
.................... #define ptrdiff_t unsigned int16 
.................... #endif 
....................  
.................... #define size_t unsigned int8 
.................... #define wchar_t char 
.................... #define NULL 0 
....................  
.................... #define offsetof(s,f) (offsetofbit(s,f)/8) 
....................  
.................... #endif 
....................  
.................... #include <ctype.h> 
.................... //////////////////////////////////////////////////////////////////////////// 
.................... ////        (C) Copyright 1996,2003 Custom Computer Services            //// 
.................... //// This source code may only be used by licensed users of the CCS C   //// 
.................... //// compiler.  This source code may only be distributed to other       //// 
.................... //// licensed users of the CCS C compiler.  No other use, reproduction  //// 
.................... //// or distribution is permitted without written permission.           //// 
.................... //// Derivative programs created using this software in object code     //// 
.................... //// form are not restricted in any way.                                //// 
.................... //////////////////////////////////////////////////////////////////////////// 
....................  
.................... #ifndef _CTYPE 
.................... #define _CTYPE 
....................  
.................... #define islower(x)  isamong(x,"abcdefghijklmnopqrstuvwxyz") 
.................... #define isupper(x)  isamong(x,"ABCDEFGHIJKLMNOPQRSTUVWXYZ") 
.................... #define isalnum(x)  isamong(x,"0123456789ABCDEFGHIJKLMNOPQRSTUVWXYZabcdefghijklmnopqrstuvwxyz") 
.................... #define isalpha(x)  isamong(x,"ABCDEFGHIJKLMNOPQRSTUVWXYZabcdefghijklmnopqrstuvwxyz") 
.................... #define isdigit(x)  isamong(x,"0123456789") 
.................... #define isspace(x)  ((x)==' ') 
.................... #define isxdigit(x) isamong(x,"0123456789ABCDEFabcdef") 
.................... #define iscntrl(x)  ((x)<' ') 
.................... #define isprint(x)  ((x)>=' ') 
.................... #define isgraph(x)  ((x)>' ') 
.................... #define ispunct(x)  (((x)>' ')&&!isalnum(x)) 
....................  
.................... #endif 
....................  
....................  
....................  
....................  
....................  
.................... ////////////////////////////////////////////// 
.................... //// Uncomment the following define to    //// 
.................... //// allow some functions to use a        //// 
.................... //// quicker algorithm, but use more ROM  //// 
.................... ////                                      //// 
.................... //// #define FASTER_BUT_MORE_ROM          //// 
.................... ////////////////////////////////////////////// 
....................  
....................  
....................  
.................... /*Copying functions*/ 
.................... /* standard template: 
....................    void *memmove(void *s1, void *s2, size_t n). 
....................    Copies max of n characters safely (not following ending '\0') 
....................    from s2 in s1; if s2 has less than n characters, appends 0 */ 
....................  
.................... char *memmove(void *s1,char *s2,size_t n) 
.................... { 
....................    char *sc1; 
....................    char *sc2; 
....................    sc1=s1; 
....................    sc2=s2; 
....................    if(sc2<sc1 && sc1 <sc2 +n) 
....................       for(sc1+=n,sc2+=n;0<n;--n) 
....................          *--sc1=*--sc2; 
....................    else 
....................       for(;0<n;--n) 
....................          *sc1++=*sc2++; 
....................   return s1; 
....................   } 
....................  
.................... /* Standard template: char *strcpy(char *s1, const char *s2) 
....................    copies the string s2 including the null character to s1. 
....................    This is a compiler built in to handle the different address 
....................    spaces */ 
....................  
.................... #define strcopy strcpy 
....................  
.................... /* standard template: 
....................    char *strncpy(char *s1, const char *s2, size_t n). 
....................    Copies max of n characters (not following ending '\0') 
....................    from s2 in s1; if s2 has less than n characters, appends 0 */ 
....................  
.................... char *strncpy(char *s1, char *s2, size_t n) 
.................... { 
....................   char *s; 
....................  
....................   for (s = s1; n > 0 && *s2 != '\0'; n--) 
....................      *s++ = *s2++; 
....................   for (; n > 0; n--) 
....................      *s++ = '\0'; 
....................  
....................   return(s1); 
.................... } 
.................... /***********************************************************/ 
....................  
.................... /*concatenation functions*/ 
.................... /* standard template: char *strcat(char *s1, const char *s2) 
.................... appends s2 to s1*/ 
....................  
.................... char *strcat(char *s1, char *s2) 
.................... { 
....................    char *s; 
....................  
....................    for (s = s1; *s != '\0'; ++s); 
....................    while(*s2 != '\0') 
....................    { 
....................       *s = *s2; 
....................       ++s; 
....................       ++s2; 
....................    } 
....................  
....................    *s = '\0'; 
....................    return(s1); 
.................... } 
.................... /* standard template: char *strncat(char *s1, char *s2,size_t n) 
.................... appends not more than n characters from s2 to s1*/ 
....................  
.................... char *strncat(char *s1, char *s2, size_t n) 
.................... { 
....................    char *s; 
....................  
....................    for (s = s1; *s != '\0'; ++s); 
....................    while(*s2 != '\0' && 0<n) 
....................    { 
....................       *s = *s2; 
....................       ++s; 
....................       ++s2; 
....................       --n; 
....................    } 
....................  
....................    *s = '\0'; 
....................    return(s1); 
.................... } 
....................  
.................... /***********************************************************/ 
....................  
....................  
.................... /*comparison functions*/ 
.................... /* standard template: signed int memcmp(void *s1, void *s2). 
....................    Compares s1 & s2; returns -1 if s1<s2, 0 if s1=s2, 1 if s1>s2 */ 
....................  
.................... signed int8 memcmp(void * s1,char *s2,size_t n) 
.................... { 
.................... char *su1, *su2; 
.................... for(su1=s1, su2=s2; 0<n; ++su1, ++su2, --n) 
.................... { 
....................    if(*su1!=*su2) 
....................       return ((*su1<*su2)?-1:+1); 
.................... } 
.................... return 0; 
.................... } 
....................  
.................... /* standard template: int strcmp(const char *s1, const char *s2). 
....................    Compares s1 & s2; returns -1 if s1<s2, 0 if s1=s2, 1 if s1>s2 */ 
....................  
.................... signed int8 strcmp(char *s1, char *s2) 
.................... { 
....................    for (; *s1 == *s2; s1++, s2++) 
....................       if (*s1 == '\0') 
....................          return(0); 
....................    return((*s1 < *s2) ? -1: 1); 
.................... } 
.................... /* standard template: int strcoll(const char *s1, const char *s2). 
....................    Compares s1 & s2; returns -1 if s1<s2, 0 if s1=s2, 1 if s1>s2 */ 
....................  
.................... signed int8 strcoll(char *s1, char *s2) 
.................... { 
....................    for (; *s1 == *s2; s1++, s2++) 
....................       if (*s1 == '\0') 
....................          return(0); 
....................    return((*s1 < *s2) ? -1: 1); 
.................... } 
....................  
.................... /* standard template: 
....................    int strncmp(const char *s1, const char *s2, size_t n). 
....................    Compares max of n characters (not following 0) from s1 to s2; 
....................    returns same as strcmp */ 
....................  
.................... signed int8 strncmp(char *s1, char *s2, size_t n) 
.................... { 
....................    for (; n > 0; s1++, s2++, n--) 
....................       if (*s1 != *s2) 
....................          return((*s1 <*s2) ? -1: 1); 
....................       else if (*s1 == '\0') 
....................          return(0); 
....................    return(0); 
.................... } 
.................... /* standard template: 
....................    int strxfrm(const char *s1, const char *s2, size_t n). 
....................    transforms maximum of n characters from s2 and places them into s1*/ 
.................... size_t strxfrm(char *s1, char *s2, size_t n) 
.................... { 
....................   char *s; 
....................   unsigned int8 n1; 
....................   n1=n; 
....................   for (s = s1; n > 0 && *s2 != '\0'; n--) 
....................      *s++ = *s2++; 
....................   for (; n > 0; n--) 
....................      *s++ = '\0'; 
....................  
....................   return(n1); 
.................... } 
....................  
....................  
....................  
....................  
....................  
.................... /***********************************************************/ 
.................... /*Search functions*/ 
.................... /* standard template: void *memchr(const char *s, int c). 
....................    Finds first occurrence of c in n characters of s */ 
....................  
.................... char *memchr(void *s,unsigned int8 c,size_t n) 
.................... { 
....................    char uc; 
....................    char *su; 
....................    uc=c; 
....................    for(su=s;0<n;++su,--n) 
....................       if(*su==uc) 
....................       return su; 
....................    return NULL; 
.................... } 
....................  
.................... /* standard template: char *strchr(const char *s, int c). 
....................    Finds first occurrence of c in s */ 
....................  
.................... char *strchr(char *s, unsigned int8 c) 
.................... { 
....................    for (; *s != c; s++) 
....................       if (*s == '\0') 
....................          return(0); 
....................    return(s); 
.................... } 
.................... /* standard template: 
....................    size_t strcspn(const char *s1, const char *s2). 
....................    Computes length of max initial segment of s1 that 
....................    consists entirely of characters NOT from s2*/ 
....................  
.................... unsigned int8  strcspn(char *s1, char *s2) 
.................... { 
....................    char *sc1, *sc2; 
....................  
....................    for (sc1 = s1; *sc1 != 0; sc1++) 
....................       for (sc2 = s2; *sc2 != 0; sc2++) 
....................          if (*sc1 == *sc2) 
....................             return(sc1 - s1); 
....................    return(sc1 - s1); 
.................... } 
.................... /* standard template: 
....................    char *strpbrk(const char *s1, const char *s2). 
....................    Locates first occurence of any character from s2 in s1; 
....................    returns s1 if s2 is empty string */ 
....................  
.................... char *strpbrk(char *s1, char *s2) 
.................... { 
....................    char *sc1, *sc2; 
....................  
....................    for (sc1 = s1; *sc1 != 0; sc1++) 
....................       for (sc2 = s2; *sc2 != 0; sc2++) 
....................          if (*sc1 == *sc2) 
....................             return(sc1); 
....................    return(0); 
.................... } 
....................  
....................  
.................... /* standard template: char *strrchr(const char *s, int c). 
....................    Finds last occurrence of c in s */ 
....................  
.................... char *strrchr(char *s, unsigned int8 c) 
.................... { 
....................    char *p; 
....................  
....................    for (p = 0; ; s++) 
....................    { 
....................       if (*s == c) 
....................          p = s; 
....................       if (*s == '\0') 
....................          return(p); 
....................    } 
.................... } 
.................... /* computes length of max initial segment of s1 consisting 
....................    entirely of characters from s2 */ 
....................  
.................... unsigned int8  strspn(char *s1, char *s2) 
.................... { 
....................    char *sc1, *sc2; 
....................  
....................    for (sc1 = s1; *sc1 != 0; sc1++) 
....................       for (sc2 = s2; ; sc2++) 
....................     if (*sc2 == '\0') 
....................        return(sc1 - s1); 
....................          else if (*sc1 == *sc2) 
....................             break; 
....................    return(sc1 - s1); 
.................... } 
.................... /* standard template: 
....................    char *strstr(const char *s1, const char *s2); 
....................    Locates first occurence of character sequence s2 in s1; 
....................    returns 0 if s2 is empty string 
....................  
....................    Uncomment #define FASTER_BUT_MORE_ROM at the top of the 
....................    file to use the faster algorithm */ 
.................... char *strstr(char *s1, char *s2) 
.................... { 
....................    char *s, *t; 
....................  
....................    #ifdef FASTER_BUT_MORE_ROM 
....................    if (*s2 == '\0') 
....................          return(s1); 
....................    #endif 
....................  
....................    while (*s1) 
....................    { 
....................       for(s = s1, t = s2; *t && (*s == *t); ++s, ++t); 
....................  
....................       if (*t == '\0') 
....................          return s1; 
....................       ++s1; 
....................       #ifdef FASTER_BUT_MORE_ROM 
....................          while(*s1 != '\0' && *s1 != *s2) 
....................             ++s1; 
....................       #endif 
....................    } 
....................    return 0; 
.................... } 
....................  
.................... /* standard template: char *strtok(char *s1, const char *s2). 
....................  
....................    Finds next token in s1 delimited by a character from separator 
....................    string s2 (which can be different from call to call).  First call 
....................    starts at beginning of s1 searching for first character NOT 
....................    contained in s2; returns 0 if none is found. 
....................    If one is found, it is the start of first token (return value). 
....................    Function then searches from there for a character contained in s2. 
....................    If none is found, current token extends to end of s1, and subsequent 
....................    searches for a token will return 0.  If one is found, it is 
....................    overwritten by '\0', which terminates current token.  Function saves 
....................    pointer to following character from which next search will start. 
....................    Each subsequent call, with 0 as first argument, starts searching 
....................    from saved pointer */ 
....................  
.................... char *strtok(char *s1, char *s2) 
.................... { 
....................    char *beg, *end; 
....................    static char *save; 
....................  
....................    beg = (s1)? s1: save; 
....................    beg += strspn(beg, s2); 
....................    if (*beg == '\0') 
....................    { 
....................       *save = ' '; 
....................       return(0); 
....................    } 
....................    end = strpbrk(beg, s2); 
....................    if (*end != '\0') 
....................    { 
....................       *end = '\0'; 
....................       end++; 
....................    } 
....................    save = end; 
....................    return(beg); 
.................... } 
....................  
.................... /*****************************************************************/ 
.................... /*Miscellaneous functions*/ 
.................... /* standard template 
.................... maps error number in errnum to an error message string 
.................... Returns: Pointer to string 
.................... */ 
.................... #ifdef _ERRNO 
.................... char * strerror(unsigned int8 errnum) 
.................... { 
.................... char s[15]; 
.................... switch( errnum) 
.................... { 
.................... case 0: 
....................    strcpy(s,"no errors"); 
....................    return s; 
.................... case EDOM : 
....................    strcpy(s,"domain error"); 
....................    return s; 
.................... case ERANGE: 
....................    strcpy(s,"range error"); 
....................    return s; 
.................... } 
.................... } 
.................... #ENDIF 
.................... /* standard template: size_t strlen(const char *s). 
....................    Computes length of s1 (preceding terminating 0) */ 
....................  
.................... unsigned int8 strlen(char *s) 
.................... { 
....................    char *sc; 
....................  
....................    for (sc = s; *sc != 0; sc++); 
....................    return(sc - s); 
.................... } 
....................  
.................... /* standard template: size_t stricmp(const char *s1, const char *s2). 
....................    Compares s1 to s2 ignoring case (upper vs. lower) */ 
....................  
.................... signed int8 stricmp(char *s1, char *s2) 
.................... { 
....................  for(; *s1==*s2||(isalpha(*s1)&&isalpha(*s2)&&(*s1==*s2+32||*s2==*s1+32)); 
....................     s1++, s2++) 
....................     if (*s1 == '\0') 
....................        return(0); 
....................  return((*s1 < *s2) ? -1: 1); 
.................... } 
....................  
....................  
.................... /* standard template: char *strlwr(char *s). 
....................    Replaces uppercase letters by lowercase; 
....................    returns pointer to new string s */ 
....................  
.................... char *strlwr(char *s) 
.................... { 
....................    char *p; 
....................  
....................    for (p = s; *p != '\0'; p++) 
....................       if (*p >= 'A' && *p <='Z') 
....................          *p += 'a' - 'A'; 
....................    return(s); 
.................... } 
....................  
....................  
.................... /************************************************************/ 
....................  
....................  
.................... #endif 
....................  
.................... #ifndef getc 
.................... #define getc getch 
.................... #define getchar getch 
.................... #define puts(s) {printf(s); putchar(13); putchar(10);} 
.................... #define putc putchar 
.................... #endif 
.................... /* maps error number to an error message. Writes a sequence of characters to 
.................... stderr stream thus: if s is not null then string pointed to by s follwed by 
.................... a colon (:) and a space and the appropriate error message returned by strerror 
.................... function with argument errno 
....................  
.................... Returns: no value 
.................... */ 
....................  
.................... #ifdef _ERRNO 
.................... void perror(char *s) 
.................... { 
....................   if(s) 
....................   fprintf(STDERR,"%s: ",s); 
....................   fprintf(STDERR,"%s\r\n",strerror(errno)); 
.................... } 
.................... #endif 
.................... #endif 
....................  
.................... #include <string.h> 
.................... //////////////////////////////////////////////////////////////////////////// 
.................... ////        (C) Copyright 1996,2008 Custom Computer Services            //// 
.................... //// This source code may only be used by licensed users of the CCS C   //// 
.................... //// compiler.  This source code may only be distributed to other       //// 
.................... //// licensed users of the CCS C compiler.  No other use, reproduction  //// 
.................... //// or distribution is permitted without written permission.           //// 
.................... //// Derivative programs created using this software in object code     //// 
.................... //// form are not restricted in any way.                                //// 
.................... //////////////////////////////////////////////////////////////////////////// 
....................  
.................... #ifndef _STRING 
.................... #define _STRING 
.................... #include <stddef.h> 
.................... #include <ctype.h> 
....................  
....................  
....................  
.................... ////////////////////////////////////////////// 
.................... //// Uncomment the following define to    //// 
.................... //// allow some functions to use a        //// 
.................... //// quicker algorithm, but use more ROM  //// 
.................... ////                                      //// 
.................... //// #define FASTER_BUT_MORE_ROM          //// 
.................... ////////////////////////////////////////////// 
....................  
....................  
....................  
.................... /*Copying functions*/ 
.................... /* standard template: 
....................    void *memmove(void *s1, void *s2, size_t n). 
....................    Copies max of n characters safely (not following ending '\0') 
....................    from s2 in s1; if s2 has less than n characters, appends 0 */ 
....................  
.................... char *memmove(void *s1,char *s2,size_t n) 
.................... { 
....................    char *sc1; 
....................    char *sc2; 
....................    sc1=s1; 
....................    sc2=s2; 
....................    if(sc2<sc1 && sc1 <sc2 +n) 
....................       for(sc1+=n,sc2+=n;0<n;--n) 
....................          *--sc1=*--sc2; 
....................    else 
....................       for(;0<n;--n) 
....................          *sc1++=*sc2++; 
....................   return s1; 
....................   } 
....................  
.................... /* Standard template: char *strcpy(char *s1, const char *s2) 
....................    copies the string s2 including the null character to s1. 
....................    This is a compiler built in to handle the different address 
....................    spaces */ 
....................  
.................... #define strcopy strcpy 
....................  
.................... /* standard template: 
....................    char *strncpy(char *s1, const char *s2, size_t n). 
....................    Copies max of n characters (not following ending '\0') 
....................    from s2 in s1; if s2 has less than n characters, appends 0 */ 
....................  
.................... char *strncpy(char *s1, char *s2, size_t n) 
.................... { 
....................   char *s; 
....................  
....................   for (s = s1; n > 0 && *s2 != '\0'; n--) 
....................      *s++ = *s2++; 
....................   for (; n > 0; n--) 
....................      *s++ = '\0'; 
....................  
....................   return(s1); 
.................... } 
.................... /***********************************************************/ 
....................  
.................... /*concatenation functions*/ 
.................... /* standard template: char *strcat(char *s1, const char *s2) 
.................... appends s2 to s1*/ 
....................  
.................... char *strcat(char *s1, char *s2) 
.................... { 
....................    char *s; 
....................  
....................    for (s = s1; *s != '\0'; ++s); 
....................    while(*s2 != '\0') 
....................    { 
....................       *s = *s2; 
....................       ++s; 
....................       ++s2; 
....................    } 
....................  
....................    *s = '\0'; 
....................    return(s1); 
.................... } 
.................... /* standard template: char *strncat(char *s1, char *s2,size_t n) 
.................... appends not more than n characters from s2 to s1*/ 
....................  
.................... char *strncat(char *s1, char *s2, size_t n) 
.................... { 
....................    char *s; 
....................  
....................    for (s = s1; *s != '\0'; ++s); 
....................    while(*s2 != '\0' && 0<n) 
....................    { 
....................       *s = *s2; 
....................       ++s; 
....................       ++s2; 
....................       --n; 
....................    } 
....................  
....................    *s = '\0'; 
....................    return(s1); 
.................... } 
....................  
.................... /***********************************************************/ 
....................  
....................  
.................... /*comparison functions*/ 
.................... /* standard template: signed int memcmp(void *s1, void *s2). 
....................    Compares s1 & s2; returns -1 if s1<s2, 0 if s1=s2, 1 if s1>s2 */ 
....................  
.................... signed int8 memcmp(void * s1,char *s2,size_t n) 
.................... { 
.................... char *su1, *su2; 
.................... for(su1=s1, su2=s2; 0<n; ++su1, ++su2, --n) 
.................... { 
....................    if(*su1!=*su2) 
....................       return ((*su1<*su2)?-1:+1); 
.................... } 
.................... return 0; 
.................... } 
....................  
.................... /* standard template: int strcmp(const char *s1, const char *s2). 
....................    Compares s1 & s2; returns -1 if s1<s2, 0 if s1=s2, 1 if s1>s2 */ 
....................  
.................... signed int8 strcmp(char *s1, char *s2) 
.................... { 
....................    for (; *s1 == *s2; s1++, s2++) 
....................       if (*s1 == '\0') 
....................          return(0); 
....................    return((*s1 < *s2) ? -1: 1); 
.................... } 
.................... /* standard template: int strcoll(const char *s1, const char *s2). 
....................    Compares s1 & s2; returns -1 if s1<s2, 0 if s1=s2, 1 if s1>s2 */ 
....................  
.................... signed int8 strcoll(char *s1, char *s2) 
.................... { 
....................    for (; *s1 == *s2; s1++, s2++) 
....................       if (*s1 == '\0') 
....................          return(0); 
....................    return((*s1 < *s2) ? -1: 1); 
.................... } 
....................  
.................... /* standard template: 
....................    int strncmp(const char *s1, const char *s2, size_t n). 
....................    Compares max of n characters (not following 0) from s1 to s2; 
....................    returns same as strcmp */ 
....................  
.................... signed int8 strncmp(char *s1, char *s2, size_t n) 
.................... { 
....................    for (; n > 0; s1++, s2++, n--) 
....................       if (*s1 != *s2) 
....................          return((*s1 <*s2) ? -1: 1); 
....................       else if (*s1 == '\0') 
....................          return(0); 
....................    return(0); 
.................... } 
.................... /* standard template: 
....................    int strxfrm(const char *s1, const char *s2, size_t n). 
....................    transforms maximum of n characters from s2 and places them into s1*/ 
.................... size_t strxfrm(char *s1, char *s2, size_t n) 
.................... { 
....................   char *s; 
....................   unsigned int8 n1; 
....................   n1=n; 
....................   for (s = s1; n > 0 && *s2 != '\0'; n--) 
....................      *s++ = *s2++; 
....................   for (; n > 0; n--) 
....................      *s++ = '\0'; 
....................  
....................   return(n1); 
.................... } 
....................  
....................  
....................  
....................  
....................  
.................... /***********************************************************/ 
.................... /*Search functions*/ 
.................... /* standard template: void *memchr(const char *s, int c). 
....................    Finds first occurrence of c in n characters of s */ 
....................  
.................... char *memchr(void *s,unsigned int8 c,size_t n) 
.................... { 
....................    char uc; 
....................    char *su; 
....................    uc=c; 
....................    for(su=s;0<n;++su,--n) 
....................       if(*su==uc) 
....................       return su; 
....................    return NULL; 
.................... } 
....................  
.................... /* standard template: char *strchr(const char *s, int c). 
....................    Finds first occurrence of c in s */ 
....................  
.................... char *strchr(char *s, unsigned int8 c) 
.................... { 
....................    for (; *s != c; s++) 
....................       if (*s == '\0') 
....................          return(0); 
....................    return(s); 
.................... } 
.................... /* standard template: 
....................    size_t strcspn(const char *s1, const char *s2). 
....................    Computes length of max initial segment of s1 that 
....................    consists entirely of characters NOT from s2*/ 
....................  
.................... unsigned int8  strcspn(char *s1, char *s2) 
.................... { 
....................    char *sc1, *sc2; 
....................  
....................    for (sc1 = s1; *sc1 != 0; sc1++) 
....................       for (sc2 = s2; *sc2 != 0; sc2++) 
....................          if (*sc1 == *sc2) 
....................             return(sc1 - s1); 
....................    return(sc1 - s1); 
.................... } 
.................... /* standard template: 
....................    char *strpbrk(const char *s1, const char *s2). 
....................    Locates first occurence of any character from s2 in s1; 
....................    returns s1 if s2 is empty string */ 
....................  
.................... char *strpbrk(char *s1, char *s2) 
.................... { 
....................    char *sc1, *sc2; 
....................  
....................    for (sc1 = s1; *sc1 != 0; sc1++) 
....................       for (sc2 = s2; *sc2 != 0; sc2++) 
....................          if (*sc1 == *sc2) 
....................             return(sc1); 
....................    return(0); 
.................... } 
....................  
....................  
.................... /* standard template: char *strrchr(const char *s, int c). 
....................    Finds last occurrence of c in s */ 
....................  
.................... char *strrchr(char *s, unsigned int8 c) 
.................... { 
....................    char *p; 
....................  
....................    for (p = 0; ; s++) 
....................    { 
....................       if (*s == c) 
....................          p = s; 
....................       if (*s == '\0') 
....................          return(p); 
....................    } 
.................... } 
.................... /* computes length of max initial segment of s1 consisting 
....................    entirely of characters from s2 */ 
....................  
.................... unsigned int8  strspn(char *s1, char *s2) 
.................... { 
....................    char *sc1, *sc2; 
....................  
....................    for (sc1 = s1; *sc1 != 0; sc1++) 
....................       for (sc2 = s2; ; sc2++) 
....................     if (*sc2 == '\0') 
....................        return(sc1 - s1); 
....................          else if (*sc1 == *sc2) 
....................             break; 
....................    return(sc1 - s1); 
.................... } 
.................... /* standard template: 
....................    char *strstr(const char *s1, const char *s2); 
....................    Locates first occurence of character sequence s2 in s1; 
....................    returns 0 if s2 is empty string 
....................  
....................    Uncomment #define FASTER_BUT_MORE_ROM at the top of the 
....................    file to use the faster algorithm */ 
.................... char *strstr(char *s1, char *s2) 
.................... { 
....................    char *s, *t; 
....................  
....................    #ifdef FASTER_BUT_MORE_ROM 
....................    if (*s2 == '\0') 
....................          return(s1); 
....................    #endif 
....................  
....................    while (*s1) 
....................    { 
....................       for(s = s1, t = s2; *t && (*s == *t); ++s, ++t); 
....................  
....................       if (*t == '\0') 
....................          return s1; 
....................       ++s1; 
....................       #ifdef FASTER_BUT_MORE_ROM 
....................          while(*s1 != '\0' && *s1 != *s2) 
....................             ++s1; 
....................       #endif 
....................    } 
....................    return 0; 
.................... } 
....................  
.................... /* standard template: char *strtok(char *s1, const char *s2). 
....................  
....................    Finds next token in s1 delimited by a character from separator 
....................    string s2 (which can be different from call to call).  First call 
....................    starts at beginning of s1 searching for first character NOT 
....................    contained in s2; returns 0 if none is found. 
....................    If one is found, it is the start of first token (return value). 
....................    Function then searches from there for a character contained in s2. 
....................    If none is found, current token extends to end of s1, and subsequent 
....................    searches for a token will return 0.  If one is found, it is 
....................    overwritten by '\0', which terminates current token.  Function saves 
....................    pointer to following character from which next search will start. 
....................    Each subsequent call, with 0 as first argument, starts searching 
....................    from saved pointer */ 
....................  
.................... char *strtok(char *s1, char *s2) 
.................... { 
....................    char *beg, *end; 
....................    static char *save; 
....................  
....................    beg = (s1)? s1: save; 
....................    beg += strspn(beg, s2); 
....................    if (*beg == '\0') 
....................    { 
....................       *save = ' '; 
....................       return(0); 
....................    } 
....................    end = strpbrk(beg, s2); 
....................    if (*end != '\0') 
....................    { 
....................       *end = '\0'; 
....................       end++; 
....................    } 
....................    save = end; 
....................    return(beg); 
.................... } 
....................  
.................... /*****************************************************************/ 
.................... /*Miscellaneous functions*/ 
.................... /* standard template 
.................... maps error number in errnum to an error message string 
.................... Returns: Pointer to string 
.................... */ 
.................... #ifdef _ERRNO 
.................... char * strerror(unsigned int8 errnum) 
.................... { 
.................... char s[15]; 
.................... switch( errnum) 
.................... { 
.................... case 0: 
....................    strcpy(s,"no errors"); 
....................    return s; 
.................... case EDOM : 
....................    strcpy(s,"domain error"); 
....................    return s; 
.................... case ERANGE: 
....................    strcpy(s,"range error"); 
....................    return s; 
.................... } 
.................... } 
.................... #ENDIF 
.................... /* standard template: size_t strlen(const char *s). 
....................    Computes length of s1 (preceding terminating 0) */ 
....................  
.................... unsigned int8 strlen(char *s) 
.................... { 
....................    char *sc; 
....................  
....................    for (sc = s; *sc != 0; sc++); 
....................    return(sc - s); 
.................... } 
....................  
.................... /* standard template: size_t stricmp(const char *s1, const char *s2). 
....................    Compares s1 to s2 ignoring case (upper vs. lower) */ 
....................  
.................... signed int8 stricmp(char *s1, char *s2) 
.................... { 
....................  for(; *s1==*s2||(isalpha(*s1)&&isalpha(*s2)&&(*s1==*s2+32||*s2==*s1+32)); 
....................     s1++, s2++) 
....................     if (*s1 == '\0') 
....................        return(0); 
....................  return((*s1 < *s2) ? -1: 1); 
.................... } 
....................  
....................  
.................... /* standard template: char *strlwr(char *s). 
....................    Replaces uppercase letters by lowercase; 
....................    returns pointer to new string s */ 
....................  
.................... char *strlwr(char *s) 
.................... { 
....................    char *p; 
....................  
....................    for (p = s; *p != '\0'; p++) 
....................       if (*p >= 'A' && *p <='Z') 
....................          *p += 'a' - 'A'; 
....................    return(s); 
.................... } 
....................  
....................  
.................... /************************************************************/ 
....................  
....................  
.................... #endif 
....................  
.................... #include <stdlib.h> 
.................... /////////////////////////////////////////////////////////////////////////// 
.................... ////        (C) Copyright 1996,2007 Custom Computer Services           //// 
.................... //// This source code may only be used by licensed users of the CCS C  //// 
.................... //// compiler.  This source code may only be distributed to other      //// 
.................... //// licensed users of the CCS C compiler.  No other use, reproduction //// 
.................... //// or distribution is permitted without written permission.          //// 
.................... //// Derivative programs created using this software in object code    //// 
.................... //// form are not restricted in any way.                               //// 
.................... /////////////////////////////////////////////////////////////////////////// 
....................  
.................... #ifndef _STDLIB 
.................... #define _STDLIB 
....................  
.................... //--------------------------------------------------------------------------- 
.................... // Definitions and types 
.................... //--------------------------------------------------------------------------- 
....................  
.................... #ifndef RAND_MAX 
.................... #define RAND_MAX  32767    // The value of which is the maximum value 
....................                            // ... returned by the rand function 
.................... #endif 
....................  
....................  
.................... #IF (sizeof(int16*)>1) 
.................... #DEFINE LONG_POINTERS 1 
.................... #ELSE  
.................... #DEFINE LONG_POINTERS 0 
.................... #ENDIF 
....................  
.................... typedef struct { 
....................    signed int quot; 
....................    signed int rem; 
.................... } div_t; 
....................  
.................... typedef struct { 
....................    signed long quot; 
....................    signed long rem; 
.................... } ldiv_t; 
....................  
.................... #include <stddef.h> 
.................... /////////////////////////////////////////////////////////////////////////// 
.................... ////        (C) Copyright 1996,2003 Custom Computer Services           //// 
.................... //// This source code may only be used by licensed users of the CCS C  //// 
.................... //// compiler.  This source code may only be distributed to other      //// 
.................... //// licensed users of the CCS C compiler.  No other use, reproduction //// 
.................... //// or distribution is permitted without written permission.          //// 
.................... //// Derivative programs created using this software in object code    //// 
.................... //// form are not restricted in any way.                               //// 
.................... /////////////////////////////////////////////////////////////////////////// 
....................  
.................... #ifndef _STDDEF 
....................  
.................... #define _STDDEF 
....................  
.................... #if sizeof(unsigned int8 *)==1 
.................... #define ptrdiff_t unsigned int8 
.................... #else 
.................... #define ptrdiff_t unsigned int16 
.................... #endif 
....................  
.................... #define size_t unsigned int8 
.................... #define wchar_t char 
.................... #define NULL 0 
....................  
.................... #define offsetof(s,f) (offsetofbit(s,f)/8) 
....................  
.................... #endif 
....................  
....................  
.................... //--------------------------------------------------------------------------- 
.................... // String conversion functions 
.................... //--------------------------------------------------------------------------- 
....................  
.................... /* Standard template: signed int  atoi(char * s) 
....................  * converts the initial portion of the string s to a signed int 
....................  * returns the converted value if any, 0 otherwise 
....................  */ 
.................... signed int atoi(char *s); 
....................  
.................... /* Syntax: signed int32  atoi32(char * s) 
....................    converts the initial portion of the string s to a signed int32 
....................    returns the converted value if any, 0 otherwise*/ 
.................... #if (sizeof(long)==4) 
....................  #define atoi32(s) atol(s) 
.................... #else  
....................  signed int32 atoi32(char *s); 
.................... #endif 
....................  
.................... #if defined(__PCD__) 
.................... // The following functions only work on the 24 bit compiler 
.................... // for the 30F, 33F, 24F and 24H parts 
.................... /* Syntax: signed int48  atoi48(char * s) 
....................    converts the initial portion of the string s to a signed int48 
....................    returns the converted value if any, 0 otherwise*/ 
....................     
.................... signed int48 atoi48(char *s); 
....................  
.................... /* Syntax: signed int64  atoi64(char * s) 
....................    converts the initial portion of the string s to a signed int64 
....................    returns the converted value if any, 0 otherwise*/ 
.................... signed int64 atoi64(char *s); 
.................... #endif 
....................  
.................... /* Syntax: char *  itoa(signed int32 num, int8 base, char * s) 
....................    converts the signed int32 to a string and 
....................    returns the converted value if any, 0 otherwise*/ 
.................... char * itoa(signed int32 num, unsigned int base, char * s); 
....................  
.................... /* Standard template: signed int16  atol(char * s) 
....................  * converts the initial portion of the string s to a signed int16 
....................  * returns the converted value if any, 0 otherwise 
....................  */ 
.................... signed long atol(char *s); 
....................  
.................... /* Standard template: int16 strtoul(char * s,char *endptr,signed int base) 
....................  * converts the initial portion of the string s, represented as an 
....................  * integral value of radix base  to a signed long. 
....................  * Returns the converted value if any, 0 otherwise 
....................  * the final string is returned in the endptr, if endptr is not null 
....................  */ 
.................... signed long strtol(char *s,char *endptr, signed int base); 
....................  
.................... /* Standard template: int16 strtoul(char * s,char *endptr,signed int base) 
....................  * converts the initial portion of the string s, represented as an 
....................  * integral value of radix base to a unsigned long. 
....................  * returns the converted value if any, 0 otherwise 
....................  * the final string is returned in the endptr, if endptr is not null 
....................  */ 
.................... unsigned long strtoul(char *s,char *endptr, signed int base); 
....................  
.................... /* Standart template: float strtof(char * s,char *endptr) 
....................                       float48 strtof48(char *s,char *endptr); 
....................                       float64 strtod(char *s,char *endptr); 
....................  * converts the initial portion of the string s to a float32, float48 or float64, 
....................  * returns the converted value if any, 0 otherwise 
....................  * the final string is returned in the endptr, if endptr is not null                    
.................... */ 
.................... float strtof(char *s,char *endptr); 
.................... #if defined(__PCD__) 
.................... float48 strtof48(char *s,char *endptr); 
.................... float64 strtod(char *s,char *endptr); 
.................... #else 
.................... //provided for compatibility 
.................... #define strtof48(s, e) strtof(s, e) 
.................... #define strtod(s, e) strtof(s, e) 
.................... #endif 
....................  
.................... /* Standard template: float32 atof(char * s) 
....................  * converts the initial portion of the string s to a float. 
....................  * returns the converted value if any, 0 otherwise 
....................  */ 
.................... #define atof(s)   strtof(s, 0) 
....................  
.................... #if defined(__PCD__) 
.................... // The following functions only work on the 24 bit compiler 
.................... // for the 30F, 33F, 24F and 24H parts 
....................  
.................... /* Standard template: float48 atof48(char * s) 
....................  * converts the initial portion of the string s to a float. 
....................  * returns the converted value if any, 0 otherwise 
....................  */ 
.................... #define atof48(s) strtof48(s, 0) 
....................  
.................... /* Standard template: float64 atof64(char * s) 
....................  * converts the initial portion of the string s to a float. 
....................  * returns the converted value if any, 0 otherwise 
....................  */ 
.................... #define atof64(s) strtod(s, 0) 
.................... #endif 
....................  
.................... /* Standard template: float32 atoe(char * s) 
....................  * converts the initial portion of the string s to a float. 
....................  * returns the converted value if any, 0 otherwise 
....................  * also handles E format numbers 
....................  */ 
.................... #if !defined(__PCD__) 
.................... float atoe(char * s); 
.................... #endif 
....................  
.................... #if defined(__PCD__) 
.................... float32 atoe(char * s); 
.................... #endif 
....................  
.................... //--------------------------------------------------------------------------- 
.................... // Pseudo-random sequence generation functions 
.................... //--------------------------------------------------------------------------- 
....................  
.................... /* The rand function computes a sequence of pseudo-random integers in 
....................  * the range 0 to RAND_MAX 
....................  * 
....................  * Parameters: 
....................  *       (none) 
....................  * 
....................  * Returns: 
....................  *       The pseudo-random integer 
....................  */ 
.................... unsigned int16 rand(void); 
....................  
.................... /* The srand function uses the argument as a seed for a new sequence of 
....................  * pseudo-random numbers to be returned by subsequent calls to rand. 
....................  * 
....................  * Parameters: 
....................  *       [in] seed: The seed value to start from. You might need to pass 
....................  * 
....................  * Returns: 
....................  *       (none) 
....................  * 
....................  * Remarks 
....................  *          The srand function sets the starting point for generating 
....................  *       a series of pseudorandom integers. To reinitialize the 
....................  *       generator, use 1 as the seed argument. Any other value for 
....................  *       seed sets the generator to a random starting point. rand 
....................  *       retrieves the pseudorandom numbers that are generated. 
....................  *       Calling rand before any call to srand generates the same 
....................  *       sequence as calling srand with seed passed as 1. 
....................  *          Usually, you need to pass a time here from outer source 
....................  *       so that the numbers will be different every time you run. 
....................  */ 
.................... void srand(unsigned int32 seed); 
....................  
.................... //--------------------------------------------------------------------------- 
.................... // Memory management functions 
.................... //--------------------------------------------------------------------------- 
....................  
.................... // Comming soon 
....................  
.................... //--------------------------------------------------------------------------- 
.................... // Communication with the environment 
.................... //--------------------------------------------------------------------------- 
....................  
.................... /* The function returns 0 always 
....................  */ 
.................... signed int8 system(char *string); 
....................  
.................... //--------------------------------------------------------------------------- 
.................... // Searching and sorting utilities 
.................... //--------------------------------------------------------------------------- 
....................  
.................... /* Performs a binary search of a sorted array.. 
....................  * 
....................  * Parameters: 
....................  *       [in] key: Object to search for 
....................  *       [in] base: Pointer to base of search data 
....................  *       [in] num: Number of elements 
....................  *       [in] width: Width of elements 
....................  *       [in] compare: Function that compares two elements 
....................  * 
....................  * Returns: 
....................  *       bsearch returns a pointer to an occurrence of key in the array pointed 
....................  *       to by base. If key is not found, the function returns NULL. If the 
....................  *       array is not in order or contains duplicate records with identical keys, 
....................  *       the result is unpredictable. 
....................  */ 
.................... //void *bsearch(const void *key, const void *base, size_t num, size_t width, 
.................... //              int (*compare)(const void *, const void *)); 
....................  
.................... /* Performs the shell-metzner sort (not the quick sort algorithm). The contents 
....................  * of the array are sorted into ascending order according to a comparison 
....................  * function pointed to by compar. 
....................  * 
....................  * Parameters: 
....................  *       [in] base: Pointer to base of search data 
....................  *       [in] num: Number of elements 
....................  *       [in] width: Width of elements 
....................  *       [in] compare: Function that compares two elements 
....................  * 
....................  * Returns: 
....................  *       (none) 
....................  */ 
.................... //void *qsort(const void *base, size_t num, size_t width, 
.................... //              int (*compare)(const void *, const void *)); 
....................  
.................... //--------------------------------------------------------------------------- 
.................... // Integer arithmetic functions 
.................... //--------------------------------------------------------------------------- 
....................  
.................... #define labs abs 
....................  
.................... div_t div(signed int numer, signed int denom); 
.................... ldiv_t ldiv(signed long numer, signed long denom); 
....................  
.................... //--------------------------------------------------------------------------- 
.................... // Multibyte character functions 
.................... //--------------------------------------------------------------------------- 
....................  
.................... // Not supported 
....................  
.................... //--------------------------------------------------------------------------- 
.................... // Multibyte string functions 
.................... //--------------------------------------------------------------------------- 
....................  
.................... // Not supported 
....................  
....................  
.................... //--------------------------------------------------------------------------- 
.................... // Internal implementation 
.................... //--------------------------------------------------------------------------- 
....................  
.................... #include <stddef.h> 
.................... /////////////////////////////////////////////////////////////////////////// 
.................... ////        (C) Copyright 1996,2003 Custom Computer Services           //// 
.................... //// This source code may only be used by licensed users of the CCS C  //// 
.................... //// compiler.  This source code may only be distributed to other      //// 
.................... //// licensed users of the CCS C compiler.  No other use, reproduction //// 
.................... //// or distribution is permitted without written permission.          //// 
.................... //// Derivative programs created using this software in object code    //// 
.................... //// form are not restricted in any way.                               //// 
.................... /////////////////////////////////////////////////////////////////////////// 
....................  
.................... #ifndef _STDDEF 
....................  
.................... #define _STDDEF 
....................  
.................... #if sizeof(unsigned int8 *)==1 
.................... #define ptrdiff_t unsigned int8 
.................... #else 
.................... #define ptrdiff_t unsigned int16 
.................... #endif 
....................  
.................... #define size_t unsigned int8 
.................... #define wchar_t char 
.................... #define NULL 0 
....................  
.................... #define offsetof(s,f) (offsetofbit(s,f)/8) 
....................  
.................... #endif 
....................  
.................... #include <string.h> 
.................... //////////////////////////////////////////////////////////////////////////// 
.................... ////        (C) Copyright 1996,2008 Custom Computer Services            //// 
.................... //// This source code may only be used by licensed users of the CCS C   //// 
.................... //// compiler.  This source code may only be distributed to other       //// 
.................... //// licensed users of the CCS C compiler.  No other use, reproduction  //// 
.................... //// or distribution is permitted without written permission.           //// 
.................... //// Derivative programs created using this software in object code     //// 
.................... //// form are not restricted in any way.                                //// 
.................... //////////////////////////////////////////////////////////////////////////// 
....................  
.................... #ifndef _STRING 
.................... #define _STRING 
.................... #include <stddef.h> 
.................... #include <ctype.h> 
....................  
....................  
....................  
.................... ////////////////////////////////////////////// 
.................... //// Uncomment the following define to    //// 
.................... //// allow some functions to use a        //// 
.................... //// quicker algorithm, but use more ROM  //// 
.................... ////                                      //// 
.................... //// #define FASTER_BUT_MORE_ROM          //// 
.................... ////////////////////////////////////////////// 
....................  
....................  
....................  
.................... /*Copying functions*/ 
.................... /* standard template: 
....................    void *memmove(void *s1, void *s2, size_t n). 
....................    Copies max of n characters safely (not following ending '\0') 
....................    from s2 in s1; if s2 has less than n characters, appends 0 */ 
....................  
.................... char *memmove(void *s1,char *s2,size_t n) 
.................... { 
....................    char *sc1; 
....................    char *sc2; 
....................    sc1=s1; 
....................    sc2=s2; 
....................    if(sc2<sc1 && sc1 <sc2 +n) 
....................       for(sc1+=n,sc2+=n;0<n;--n) 
....................          *--sc1=*--sc2; 
....................    else 
....................       for(;0<n;--n) 
....................          *sc1++=*sc2++; 
....................   return s1; 
....................   } 
....................  
.................... /* Standard template: char *strcpy(char *s1, const char *s2) 
....................    copies the string s2 including the null character to s1. 
....................    This is a compiler built in to handle the different address 
....................    spaces */ 
....................  
.................... #define strcopy strcpy 
....................  
.................... /* standard template: 
....................    char *strncpy(char *s1, const char *s2, size_t n). 
....................    Copies max of n characters (not following ending '\0') 
....................    from s2 in s1; if s2 has less than n characters, appends 0 */ 
....................  
.................... char *strncpy(char *s1, char *s2, size_t n) 
.................... { 
....................   char *s; 
....................  
....................   for (s = s1; n > 0 && *s2 != '\0'; n--) 
....................      *s++ = *s2++; 
....................   for (; n > 0; n--) 
....................      *s++ = '\0'; 
....................  
....................   return(s1); 
.................... } 
.................... /***********************************************************/ 
....................  
.................... /*concatenation functions*/ 
.................... /* standard template: char *strcat(char *s1, const char *s2) 
.................... appends s2 to s1*/ 
....................  
.................... char *strcat(char *s1, char *s2) 
.................... { 
....................    char *s; 
....................  
....................    for (s = s1; *s != '\0'; ++s); 
....................    while(*s2 != '\0') 
....................    { 
....................       *s = *s2; 
....................       ++s; 
....................       ++s2; 
....................    } 
....................  
....................    *s = '\0'; 
....................    return(s1); 
.................... } 
.................... /* standard template: char *strncat(char *s1, char *s2,size_t n) 
.................... appends not more than n characters from s2 to s1*/ 
....................  
.................... char *strncat(char *s1, char *s2, size_t n) 
.................... { 
....................    char *s; 
....................  
....................    for (s = s1; *s != '\0'; ++s); 
....................    while(*s2 != '\0' && 0<n) 
....................    { 
....................       *s = *s2; 
....................       ++s; 
....................       ++s2; 
....................       --n; 
....................    } 
....................  
....................    *s = '\0'; 
....................    return(s1); 
.................... } 
....................  
.................... /***********************************************************/ 
....................  
....................  
.................... /*comparison functions*/ 
.................... /* standard template: signed int memcmp(void *s1, void *s2). 
....................    Compares s1 & s2; returns -1 if s1<s2, 0 if s1=s2, 1 if s1>s2 */ 
....................  
.................... signed int8 memcmp(void * s1,char *s2,size_t n) 
.................... { 
.................... char *su1, *su2; 
.................... for(su1=s1, su2=s2; 0<n; ++su1, ++su2, --n) 
.................... { 
....................    if(*su1!=*su2) 
....................       return ((*su1<*su2)?-1:+1); 
.................... } 
.................... return 0; 
.................... } 
....................  
.................... /* standard template: int strcmp(const char *s1, const char *s2). 
....................    Compares s1 & s2; returns -1 if s1<s2, 0 if s1=s2, 1 if s1>s2 */ 
....................  
.................... signed int8 strcmp(char *s1, char *s2) 
.................... { 
....................    for (; *s1 == *s2; s1++, s2++) 
....................       if (*s1 == '\0') 
....................          return(0); 
....................    return((*s1 < *s2) ? -1: 1); 
.................... } 
.................... /* standard template: int strcoll(const char *s1, const char *s2). 
....................    Compares s1 & s2; returns -1 if s1<s2, 0 if s1=s2, 1 if s1>s2 */ 
....................  
.................... signed int8 strcoll(char *s1, char *s2) 
.................... { 
....................    for (; *s1 == *s2; s1++, s2++) 
....................       if (*s1 == '\0') 
....................          return(0); 
....................    return((*s1 < *s2) ? -1: 1); 
.................... } 
....................  
.................... /* standard template: 
....................    int strncmp(const char *s1, const char *s2, size_t n). 
....................    Compares max of n characters (not following 0) from s1 to s2; 
....................    returns same as strcmp */ 
....................  
.................... signed int8 strncmp(char *s1, char *s2, size_t n) 
.................... { 
....................    for (; n > 0; s1++, s2++, n--) 
....................       if (*s1 != *s2) 
....................          return((*s1 <*s2) ? -1: 1); 
....................       else if (*s1 == '\0') 
....................          return(0); 
....................    return(0); 
.................... } 
.................... /* standard template: 
....................    int strxfrm(const char *s1, const char *s2, size_t n). 
....................    transforms maximum of n characters from s2 and places them into s1*/ 
.................... size_t strxfrm(char *s1, char *s2, size_t n) 
.................... { 
....................   char *s; 
....................   unsigned int8 n1; 
....................   n1=n; 
....................   for (s = s1; n > 0 && *s2 != '\0'; n--) 
....................      *s++ = *s2++; 
....................   for (; n > 0; n--) 
....................      *s++ = '\0'; 
....................  
....................   return(n1); 
.................... } 
....................  
....................  
....................  
....................  
....................  
.................... /***********************************************************/ 
.................... /*Search functions*/ 
.................... /* standard template: void *memchr(const char *s, int c). 
....................    Finds first occurrence of c in n characters of s */ 
....................  
.................... char *memchr(void *s,unsigned int8 c,size_t n) 
.................... { 
....................    char uc; 
....................    char *su; 
....................    uc=c; 
....................    for(su=s;0<n;++su,--n) 
....................       if(*su==uc) 
....................       return su; 
....................    return NULL; 
.................... } 
....................  
.................... /* standard template: char *strchr(const char *s, int c). 
....................    Finds first occurrence of c in s */ 
....................  
.................... char *strchr(char *s, unsigned int8 c) 
.................... { 
....................    for (; *s != c; s++) 
....................       if (*s == '\0') 
....................          return(0); 
....................    return(s); 
.................... } 
.................... /* standard template: 
....................    size_t strcspn(const char *s1, const char *s2). 
....................    Computes length of max initial segment of s1 that 
....................    consists entirely of characters NOT from s2*/ 
....................  
.................... unsigned int8  strcspn(char *s1, char *s2) 
.................... { 
....................    char *sc1, *sc2; 
....................  
....................    for (sc1 = s1; *sc1 != 0; sc1++) 
....................       for (sc2 = s2; *sc2 != 0; sc2++) 
....................          if (*sc1 == *sc2) 
....................             return(sc1 - s1); 
....................    return(sc1 - s1); 
.................... } 
.................... /* standard template: 
....................    char *strpbrk(const char *s1, const char *s2). 
....................    Locates first occurence of any character from s2 in s1; 
....................    returns s1 if s2 is empty string */ 
....................  
.................... char *strpbrk(char *s1, char *s2) 
.................... { 
....................    char *sc1, *sc2; 
....................  
....................    for (sc1 = s1; *sc1 != 0; sc1++) 
....................       for (sc2 = s2; *sc2 != 0; sc2++) 
....................          if (*sc1 == *sc2) 
....................             return(sc1); 
....................    return(0); 
.................... } 
....................  
....................  
.................... /* standard template: char *strrchr(const char *s, int c). 
....................    Finds last occurrence of c in s */ 
....................  
.................... char *strrchr(char *s, unsigned int8 c) 
.................... { 
....................    char *p; 
....................  
....................    for (p = 0; ; s++) 
....................    { 
....................       if (*s == c) 
....................          p = s; 
....................       if (*s == '\0') 
....................          return(p); 
....................    } 
.................... } 
.................... /* computes length of max initial segment of s1 consisting 
....................    entirely of characters from s2 */ 
....................  
.................... unsigned int8  strspn(char *s1, char *s2) 
.................... { 
....................    char *sc1, *sc2; 
....................  
....................    for (sc1 = s1; *sc1 != 0; sc1++) 
....................       for (sc2 = s2; ; sc2++) 
....................     if (*sc2 == '\0') 
....................        return(sc1 - s1); 
....................          else if (*sc1 == *sc2) 
....................             break; 
....................    return(sc1 - s1); 
.................... } 
.................... /* standard template: 
....................    char *strstr(const char *s1, const char *s2); 
....................    Locates first occurence of character sequence s2 in s1; 
....................    returns 0 if s2 is empty string 
....................  
....................    Uncomment #define FASTER_BUT_MORE_ROM at the top of the 
....................    file to use the faster algorithm */ 
.................... char *strstr(char *s1, char *s2) 
.................... { 
....................    char *s, *t; 
....................  
....................    #ifdef FASTER_BUT_MORE_ROM 
....................    if (*s2 == '\0') 
....................          return(s1); 
....................    #endif 
....................  
....................    while (*s1) 
....................    { 
....................       for(s = s1, t = s2; *t && (*s == *t); ++s, ++t); 
....................  
....................       if (*t == '\0') 
....................          return s1; 
....................       ++s1; 
....................       #ifdef FASTER_BUT_MORE_ROM 
....................          while(*s1 != '\0' && *s1 != *s2) 
....................             ++s1; 
....................       #endif 
....................    } 
....................    return 0; 
.................... } 
....................  
.................... /* standard template: char *strtok(char *s1, const char *s2). 
....................  
....................    Finds next token in s1 delimited by a character from separator 
....................    string s2 (which can be different from call to call).  First call 
....................    starts at beginning of s1 searching for first character NOT 
....................    contained in s2; returns 0 if none is found. 
....................    If one is found, it is the start of first token (return value). 
....................    Function then searches from there for a character contained in s2. 
....................    If none is found, current token extends to end of s1, and subsequent 
....................    searches for a token will return 0.  If one is found, it is 
....................    overwritten by '\0', which terminates current token.  Function saves 
....................    pointer to following character from which next search will start. 
....................    Each subsequent call, with 0 as first argument, starts searching 
....................    from saved pointer */ 
....................  
.................... char *strtok(char *s1, char *s2) 
.................... { 
....................    char *beg, *end; 
....................    static char *save; 
....................  
....................    beg = (s1)? s1: save; 
....................    beg += strspn(beg, s2); 
....................    if (*beg == '\0') 
....................    { 
....................       *save = ' '; 
....................       return(0); 
....................    } 
....................    end = strpbrk(beg, s2); 
....................    if (*end != '\0') 
....................    { 
....................       *end = '\0'; 
....................       end++; 
....................    } 
....................    save = end; 
....................    return(beg); 
.................... } 
....................  
.................... /*****************************************************************/ 
.................... /*Miscellaneous functions*/ 
.................... /* standard template 
.................... maps error number in errnum to an error message string 
.................... Returns: Pointer to string 
.................... */ 
.................... #ifdef _ERRNO 
.................... char * strerror(unsigned int8 errnum) 
.................... { 
.................... char s[15]; 
.................... switch( errnum) 
.................... { 
.................... case 0: 
....................    strcpy(s,"no errors"); 
....................    return s; 
.................... case EDOM : 
....................    strcpy(s,"domain error"); 
....................    return s; 
.................... case ERANGE: 
....................    strcpy(s,"range error"); 
....................    return s; 
.................... } 
.................... } 
.................... #ENDIF 
.................... /* standard template: size_t strlen(const char *s). 
....................    Computes length of s1 (preceding terminating 0) */ 
....................  
.................... unsigned int8 strlen(char *s) 
.................... { 
....................    char *sc; 
....................  
....................    for (sc = s; *sc != 0; sc++); 
....................    return(sc - s); 
.................... } 
....................  
.................... /* standard template: size_t stricmp(const char *s1, const char *s2). 
....................    Compares s1 to s2 ignoring case (upper vs. lower) */ 
....................  
.................... signed int8 stricmp(char *s1, char *s2) 
.................... { 
....................  for(; *s1==*s2||(isalpha(*s1)&&isalpha(*s2)&&(*s1==*s2+32||*s2==*s1+32)); 
....................     s1++, s2++) 
....................     if (*s1 == '\0') 
....................        return(0); 
....................  return((*s1 < *s2) ? -1: 1); 
.................... } 
....................  
....................  
.................... /* standard template: char *strlwr(char *s). 
....................    Replaces uppercase letters by lowercase; 
....................    returns pointer to new string s */ 
....................  
.................... char *strlwr(char *s) 
.................... { 
....................    char *p; 
....................  
....................    for (p = s; *p != '\0'; p++) 
....................       if (*p >= 'A' && *p <='Z') 
....................          *p += 'a' - 'A'; 
....................    return(s); 
.................... } 
....................  
....................  
.................... /************************************************************/ 
....................  
....................  
.................... #endif 
....................  
....................  
.................... div_t div(signed int numer, signed int denom) 
.................... { 
....................    div_t val; 
....................    val.quot = numer / denom; 
....................    val.rem = numer - (denom * val.quot); 
....................    return (val); 
.................... } 
....................  
.................... ldiv_t ldiv(signed long numer, signed long denom) 
.................... { 
....................    ldiv_t val; 
....................  
....................    val.quot = numer / denom; 
....................    val.rem = numer - (denom * val.quot); 
....................    return (val); 
.................... } 
....................  
.................... #if defined(__PCD__) 
.................... float32 atoe(char * s) 
.................... { 
....................    float32 pow10 = 1.0; 
....................    float32 result = 0.0; 
....................    unsigned int8 sign = 0; 
....................    unsigned int8 expsign = 0; 
....................    char c; 
....................    unsigned int8 ptr = 0; 
....................    unsigned int8 i; 
....................    float32 exp = 1.0; 
....................    unsigned int8 expcnt = 0; 
....................  
....................    c = s[ptr++]; 
....................  
....................    if ((c>='0' && c<='9') || c=='+' || c=='-' || c=='.' || c=='E' || c=='e') { 
....................       if(c == '-') { 
....................          sign = 1; 
....................          c = s[ptr++]; 
....................       } 
....................       if(c == '+') 
....................          c = s[ptr++]; 
....................  
....................       while((c >= '0' && c <= '9')) { 
....................          result = 10*result + c - '0'; 
....................          c = s[ptr++]; 
....................       } 
....................  
....................       if (c == '.') { 
....................          c = s[ptr++]; 
....................          while((c >= '0' && c <= '9')) { 
....................              pow10 = pow10*10; 
....................              result += (c - '0')/pow10; 
....................              c = s[ptr++]; 
....................          } 
....................       } 
....................  
....................       // Handling the exponent 
....................       if (c=='e' || c=='E') { 
....................          c = s[ptr++]; 
....................  
....................          if(c == '-') { 
....................             expsign = 1; 
....................             c = s[ptr++]; 
....................          } 
....................          if(c == '+') 
....................             c = s[ptr++]; 
....................  
....................          while((c >= '0' && c <= '9')) { 
....................             expcnt = 10*expcnt + c - '0'; 
....................             c = s[ptr++]; 
....................          } 
....................  
....................          for(i=0;i<expcnt;i++) 
....................             exp*=10; 
....................  
....................          if(expsign==1) 
....................             result/=exp; 
....................          else 
....................             result*=exp; 
....................       } 
....................    } 
....................  
....................    if (sign == 1) 
....................       result = -1*result; 
....................    return(result); 
.................... } 
.................... #endif 
....................  
.................... #if !defined(__PCD__) 
.................... float atoe(char * s) 
.................... { 
....................    float pow10 = 1.0; 
....................    float result = 0.0; 
....................    unsigned int8 sign = 0; 
....................    unsigned int8 expsign = 0; 
....................    char c; 
....................    unsigned int8 ptr = 0; 
....................    unsigned int8 i; 
....................    float exp = 1.0; 
....................    unsigned int8 expcnt = 0; 
....................  
....................    c = s[ptr++]; 
....................  
....................    if ((c>='0' && c<='9') || c=='+' || c=='-' || c=='.' || c=='E' || c=='e') { 
....................       if(c == '-') { 
....................          sign = 1; 
....................          c = s[ptr++]; 
....................       } 
....................       if(c == '+') 
....................          c = s[ptr++]; 
....................  
....................       while((c >= '0' && c <= '9')) { 
....................          result = 10*result + c - '0'; 
....................          c = s[ptr++]; 
....................       } 
....................  
....................       if (c == '.') { 
....................          c = s[ptr++]; 
....................          while((c >= '0' && c <= '9')) { 
....................              pow10 = pow10*10; 
....................              result += (c - '0')/pow10; 
....................              c = s[ptr++]; 
....................          } 
....................       } 
....................  
....................       // Handling the exponent 
....................       if (c=='e' || c=='E') { 
....................          c = s[ptr++]; 
....................  
....................          if(c == '-') { 
....................             expsign = 1; 
....................             c = s[ptr++]; 
....................          } 
....................          if(c == '+') 
....................             c = s[ptr++]; 
....................  
....................          while((c >= '0' && c <= '9')) { 
....................             expcnt = 10*expcnt + c - '0'; 
....................             c = s[ptr++]; 
....................          } 
....................  
....................          for(i=0;i<expcnt;i++) 
....................             exp*=10; 
....................  
....................          if(expsign==1) 
....................             result/=exp; 
....................          else 
....................             result*=exp; 
....................       } 
....................    } 
....................  
....................    if (sign == 1) 
....................       result = -1*result; 
....................    return(result); 
.................... } 
.................... #endif 
....................  
.................... signed int atoi(char *s) 
.................... { 
....................    signed int result; 
....................    unsigned int sign, base, index; 
....................    char c; 
....................  
....................    index = 0; 
....................    sign = 0; 
....................    base = 10; 
....................    result = 0; 
....................  
....................    if (!s) 
....................       return 0; 
....................    // Omit all preceeding alpha characters 
....................    c = s[index++]; 
....................  
....................    // increase index if either positive or negative sign is detected 
....................    if (c == '-') 
....................    { 
....................       sign = 1;         // Set the sign to negative 
....................       c = s[index++]; 
....................    } 
....................    else if (c == '+') 
....................    { 
....................       c = s[index++]; 
....................    } 
....................  
....................    if (c >= '0' && c <= '9') 
....................    { 
....................  
....................       // Check for hexa number 
....................       if (c == '0' && (s[index] == 'x' || s[index] == 'X')) 
....................       { 
....................          base = 16; 
....................          index++; 
....................          c = s[index++]; 
....................       } 
....................  
....................       // The number is a decimal number 
....................       if (base == 10) 
....................       { 
....................          while (c >= '0' && c <= '9') 
....................          { 
....................             result = 10*result + (c - '0'); 
....................             c = s[index++]; 
....................          } 
....................       } 
....................       else if (base == 16)    // The number is a hexa number 
....................       { 
....................          c = toupper(c); 
....................          while ( (c >= '0' && c <= '9') || (c >= 'A' && c<='F')) 
....................          { 
....................             if (c >= '0' && c <= '9') 
....................                result = (result << 4) + (c - '0'); 
....................             else 
....................                result = (result << 4) + (c - 'A' + 10); 
....................  
....................             c = s[index++]; 
....................             c = toupper(c); 
....................          } 
....................       } 
....................    } 
....................  
....................    if (sign == 1 && base == 10) 
....................        result = -result; 
....................  
....................    return(result); 
.................... } 
....................  
.................... signed long atol(char *s) 
.................... { 
....................    signed long result; 
....................    unsigned int sign, base, index; 
....................    char c; 
....................  
....................    index = 0; 
....................    sign = 0; 
....................    base = 10; 
....................    result = 0; 
....................  
....................    if (!s) 
....................       return 0; 
....................    c = s[index++]; 
....................  
....................    // increase index if either positive or negative sign is detected 
....................    if (c == '-') 
....................    { 
....................       sign = 1;         // Set the sign to negative 
....................       c = s[index++]; 
....................    } 
....................    else if (c == '+') 
....................    { 
....................       c = s[index++]; 
....................    } 
....................  
....................    if (c >= '0' && c <= '9') 
....................    { 
....................       if (c == '0' && (s[index] == 'x' || s[index] == 'X')) 
....................       { 
....................          base = 16; 
....................          index++; 
....................          c = s[index++]; 
....................       } 
....................  
....................       // The number is a decimal number 
....................       if (base == 10) 
....................       { 
....................          while (c >= '0' && c <= '9') 
....................          { 
....................             result = 10*result + (c - '0'); 
....................             c = s[index++]; 
....................          } 
....................       } 
....................       else if (base == 16)    // The number is a hexa number 
....................       { 
....................          c = toupper(c); 
....................          while ( (c >= '0' && c <= '9') || (c >= 'A' && c <='F')) 
....................          { 
....................             if (c >= '0' && c <= '9') 
....................                result = (result << 4) + (c - '0'); 
....................             else 
....................                result = (result << 4) + (c - 'A' + 10); 
....................  
....................             c = s[index++];c = toupper(c); 
....................          } 
....................       } 
....................    } 
....................  
....................    if (base == 10 && sign == 1) 
....................       result = -result; 
....................  
....................    return(result); 
.................... } 
....................  
.................... /* A fast routine to multiply by 10 
....................  */ 
.................... signed int32 mult_with10(int32 num) 
.................... { 
....................    return ( (num << 1) + (num << 3) ); 
.................... } 
....................  
.................... #if sizeof(long)==2 
.................... signed int32 atoi32(char *s) 
.................... { 
....................    signed int32 result; 
....................    int8 sign, base, index; 
....................    char c; 
....................  
....................    index = 0; 
....................    sign = 0; 
....................    base = 10; 
....................    result = 0; 
....................  
....................    if (!s) 
....................       return 0; 
....................    c = s[index++]; 
....................  
....................    // increase index if either positive or negative sign is detected 
....................    if (c == '-') 
....................    { 
....................       sign = 1;         // Set the sign to negative 
....................       c = s[index++]; 
....................    } 
....................    else if (c == '+') 
....................    { 
....................       c = s[index++]; 
....................    } 
....................  
....................    if (c >= '0' && c <= '9') 
....................    { 
....................       if (c == '0' && (s[index] == 'x' || s[index] == 'X')) 
....................       { 
....................          base = 16; 
....................          index++; 
....................          c = s[index++]; 
....................       } 
....................  
....................       // The number is a decimal number 
....................       if (base == 10) 
....................       { 
....................          while (c >= '0' && c <= '9') { 
....................             result = (result << 1) + (result << 3);  // result *= 10; 
....................             result += (c - '0'); 
....................             c = s[index++]; 
....................          } 
....................       } 
....................       else if (base == 16)    // The number is a hexa number 
....................       { 
....................          c = toupper(c); 
....................          while ((c >= '0' && c <= '9') || (c >= 'A' && c <='F')) 
....................          { 
....................             if (c >= '0' && c <= '9') 
....................                result = (result << 4) + (c - '0'); 
....................             else 
....................                result = (result << 4) + (c - 'A' + 10); 
....................  
....................             c = s[index++];c = toupper(c); 
....................          } 
....................       } 
....................    } 
....................  
....................    if (base == 10 && sign == 1) 
....................       result = -result; 
....................  
....................    return(result); 
.................... } 
.................... #endif 
....................  
.................... #if defined(__PCD__) 
....................  
.................... signed int48 atoi48(char *s) 
.................... { 
....................    signed int48 result; 
....................    int8 sign, base, index; 
....................    char c; 
....................  
....................    index = 0; 
....................    sign = 0; 
....................    base = 10; 
....................    result = 0; 
....................  
....................    if (!s) 
....................       return 0; 
....................    c = s[index++]; 
....................  
....................    // increase index if either positive or negative sign is detected 
....................    if (c == '-') 
....................    { 
....................       sign = 1;         // Set the sign to negative 
....................       c = s[index++]; 
....................    } 
....................    else if (c == '+') 
....................    { 
....................       c = s[index++]; 
....................    } 
....................  
....................    if (c >= '0' && c <= '9') 
....................    { 
....................       if (c == '0' && (s[index] == 'x' || s[index] == 'X')) 
....................       { 
....................          base = 16; 
....................          index++; 
....................          c = s[index++]; 
....................       } 
....................  
....................       // The number is a decimal number 
....................       if (base == 10) 
....................       { 
....................          while (c >= '0' && c <= '9') { 
....................             result = (result << 1) + (result << 3);  // result *= 10; 
....................             result += (c - '0'); 
....................             c = s[index++]; 
....................          } 
....................       } 
....................       else if (base == 16)    // The number is a hexa number 
....................       { 
....................          c = toupper(c); 
....................          while ((c >= '0' && c <= '9') || (c >= 'A' && c <='F')) 
....................          { 
....................             if (c >= '0' && c <= '9') 
....................                result = (result << 4) + (c - '0'); 
....................             else 
....................                result = (result << 4) + (c - 'A' + 10); 
....................  
....................             c = s[index++];c = toupper(c); 
....................          } 
....................       } 
....................    } 
....................  
....................    if (base == 10 && sign == 1) 
....................       result = -result; 
....................  
....................    return(result); 
.................... } 
....................  
.................... signed int64 atoi64(char *s) 
.................... { 
....................    signed int64 result; 
....................    int8 sign, base, index; 
....................    char c; 
....................  
....................    index = 0; 
....................    sign = 0; 
....................    base = 10; 
....................    result = 0; 
....................  
....................    if (!s) 
....................       return 0; 
....................    c = s[index++]; 
....................  
....................    // increase index if either positive or negative sign is detected 
....................    if (c == '-') 
....................    { 
....................       sign = 1;         // Set the sign to negative 
....................       c = s[index++]; 
....................    } 
....................    else if (c == '+') 
....................    { 
....................       c = s[index++]; 
....................    } 
....................  
....................    if (c >= '0' && c <= '9') 
....................    { 
....................       if (c == '0' && (s[index] == 'x' || s[index] == 'X')) 
....................       { 
....................          base = 16; 
....................          index++; 
....................          c = s[index++]; 
....................       } 
....................  
....................       // The number is a decimal number 
....................       if (base == 10) 
....................       { 
....................          while (c >= '0' && c <= '9') { 
....................             result = (result << 1) + (result << 3);  // result *= 10; 
....................             result += (c - '0'); 
....................             c = s[index++]; 
....................          } 
....................       } 
....................       else if (base == 16)    // The number is a hexa number 
....................       { 
....................          c = toupper(c); 
....................          while ((c >= '0' && c <= '9') || (c >= 'A' && c <='F')) 
....................          { 
....................             if (c >= '0' && c <= '9') 
....................                result = (result << 4) + (c - '0'); 
....................             else 
....................                result = (result << 4) + (c - 'A' + 10); 
....................  
....................             c = s[index++];c = toupper(c); 
....................          } 
....................       } 
....................    } 
....................  
....................    if (base == 10 && sign == 1) 
....................       result = -result; 
....................  
....................    return(result); 
.................... } 
.................... #endif 
....................  
.................... char * itoa(signed int32 num, unsigned int base, char * s) 
.................... { 
....................      unsigned int32 temp=1; 
....................      unsigned int8 i,sign=0,cnt=0; 
....................      char c; 
....................  
....................      if(num<0) { 
....................          sign=1;        // Check for negative number 
....................          num*=-1; 
....................      } 
....................  
....................      while(temp>0) { 
....................          temp=(num/base); 
....................          s[cnt]=(num%base)+'0';    // Conversion 
....................  
....................          if(s[cnt]>0x39) 
....................             s[cnt]+=0x7; 
....................  
....................          cnt++; 
....................          num=temp; 
....................      } 
....................  
....................      if(sign==1) { 
....................          s[cnt]=0x2D;      // Negative sign 
....................          cnt++; 
....................      } 
....................  
....................      for(i = 0;i<(int8)(cnt/2);i++) { 
....................  
....................          c=s[i]; 
....................          s[i]=s[cnt-i-1];        // Reverse the number 
....................          s[cnt-i-1]=c; 
....................      } 
....................      s[cnt]='\0';     // End the string 
....................      return s; 
.................... } 
....................  
.................... float strtof(char *s, char *endptr) 
.................... { 
....................    float pow10 = 1.0; 
....................    float result = 0.0; 
....................    int1 skip = 1, sign = 0, point = 0; 
....................    char c; 
....................    unsigned int8 ptr = 0; 
....................  
....................    if (!s) 
....................       return 0; 
....................  
....................    for(c=s[ptr++]; c!=0; c=s[ptr++]) 
....................    { 
....................       if (skip && !isspace(c)) 
....................       { 
....................          skip = 0; 
....................          if (c == '+') 
....................          { 
....................             sign = 0; 
....................             continue; 
....................          }             
....................          else if (c == '-') 
....................          { 
....................             sign = 1; 
....................             continue; 
....................          } 
....................       } 
....................       if (!skip && (c == '.') && !point) 
....................          point = 1; 
....................       else if (!skip && isdigit(c)) 
....................       { 
....................          c -= '0'; 
....................          if (point) 
....................          { 
....................             pow10 = pow10 * 10.0; 
....................             result += (float)c / pow10;    
....................          } 
....................          else 
....................          { 
....................             result = 10.0 * result + (float)c; 
....................          } 
....................       } 
....................       else if (!skip) 
....................          break; 
....................    } 
....................  
....................    if (sign) 
....................       result = -1*result; 
....................        
....................    if(endptr) 
....................    { 
....................       if (ptr) { 
....................          ptr--; 
....................        #IF LONG_POINTERS  
....................          *((long *)endptr)= s+ptr;  
....................        #ELSE 
....................          *((char *)endptr)=s+ptr; 
....................        #ENDIF 
....................       } 
....................       else 
....................       { 
....................       #IF LONG_POINTERS 
....................       *((long *)endptr)= s;  
....................       #ELSE 
....................       *((char *)endptr)=s; 
....................       #ENDIF 
....................       } 
....................    } 
....................  
....................    return(result); 
.................... } 
....................  
.................... #if defined(__PCD__) 
.................... float48 strtof48(char *s, char *endptr) 
.................... { 
....................    float48 pow10 = 1.0; 
....................    float48 result = 0.0; 
....................    int1 skip = 1, sign = 0, point = 0; 
....................    char c; 
....................    unsigned int8 ptr = 0; 
....................  
....................    if (!s) 
....................       return 0; 
....................  
....................    for(c=s[ptr++]; c!=0; c=s[ptr++]) 
....................    { 
....................       if (skip && !isspace(c)) 
....................       { 
....................          skip = 0; 
....................          if (c == '+') 
....................          { 
....................             sign = 0; 
....................             continue; 
....................          }             
....................          else if (c == '-') 
....................          { 
....................             sign = 1; 
....................             continue; 
....................          } 
....................       } 
....................       if (!skip && (c == '.') && !point) 
....................          point = 1; 
....................       else if (!skip && isdigit(c)) 
....................       { 
....................          c -= '0'; 
....................          if (point) 
....................          { 
....................             pow10 = pow10 * 10.0; 
....................             result += (float48)c / pow10;    
....................          } 
....................          else 
....................          { 
....................             result = 10.0 * result + (float48)c; 
....................          } 
....................       } 
....................       else if (!skip) 
....................          break; 
....................    } 
....................  
....................    if (sign) 
....................       result = -1*result; 
....................        
....................    if(endptr) 
....................    { 
....................       if (ptr) { 
....................          ptr--; 
....................        #IF LONG_POINTERS  
....................          *((long *)endptr)= s+ptr;  
....................        #ELSE 
....................          *((char *)endptr)=s+ptr; 
....................        #ENDIF 
....................       } 
....................       else 
....................       { 
....................       #IF LONG_POINTERS 
....................       *((long *)endptr)= s;  
....................       #ELSE 
....................       *((char *)endptr)=s; 
....................       #ENDIF 
....................       } 
....................    } 
....................  
....................    return(result); 
.................... } 
....................  
.................... float64 strtod(char *s, char *endptr) 
.................... { 
....................    float64 pow10 = 1.0; 
....................    float64 result = 0.0; 
....................    int1 skip = 1, sign = 0, point = 0; 
....................    char c; 
....................    unsigned int8 ptr = 0; 
....................  
....................    if (!s) 
....................       return 0; 
....................  
....................    for(c=s[ptr++]; c!=0; c=s[ptr++]) 
....................    { 
....................       if (skip && !isspace(c)) 
....................       { 
....................          skip = 0; 
....................          if (c == '+') 
....................          { 
....................             sign = 0; 
....................             continue; 
....................          }             
....................          else if (c == '-') 
....................          { 
....................             sign = 1; 
....................             continue; 
....................          } 
....................       } 
....................       if (!skip && (c == '.') && !point) 
....................          point = 1; 
....................       else if (!skip && isdigit(c)) 
....................       { 
....................          c -= '0'; 
....................          if (point) 
....................          { 
....................             pow10 = pow10 * 10.0; 
....................             result += (float64)c / pow10;    
....................          } 
....................          else 
....................          { 
....................             result = 10.0 * result + (float64)c; 
....................          } 
....................       } 
....................       else if (!skip) 
....................          break; 
....................    } 
....................  
....................    if (sign) 
....................       result = -1*result; 
....................        
....................    if(endptr) 
....................    { 
....................       if (ptr) { 
....................          ptr--; 
....................        #IF LONG_POINTERS  
....................          *((long *)endptr)= s+ptr;  
....................        #ELSE 
....................          *((char *)endptr)=s+ptr; 
....................        #ENDIF 
....................       } 
....................       else 
....................       { 
....................       #IF LONG_POINTERS 
....................       *((long *)endptr)= s;  
....................       #ELSE 
....................       *((char *)endptr)=s; 
....................       #ENDIF 
....................       } 
....................    } 
....................  
....................    return(result); 
.................... } 
.................... #endif 
....................  
.................... unsigned long strtoul(char *s, char *endptr, signed int base) 
.................... { 
....................    char *sc,*s1,*sd; 
....................    unsigned long x=0; 
....................    char sign; 
....................    char digits[]="0123456789abcdefghijklmnopqstuvwxyz"; 
....................    for(sc=s;isspace(*sc);++sc); 
....................    sign=*sc=='-'||*sc=='+'?*sc++:'+'; 
....................    if(sign=='-' || base <0 || base ==1|| base >36) // invalid base 
....................    goto StrtoulGO; 
....................  
....................    else if (base) 
....................    { 
....................       if(base==16 && *sc =='0'&&(sc[1]=='x' || sc[1]=='X')) 
....................          sc+=2; 
....................       if(base==8 && *sc =='0') 
....................          sc+=1; 
....................       if(base==2 && *sc =='0'&&sc[1]=='b') 
....................          sc+=2; 
....................  
....................    } 
....................    else if(*sc!='0') // base is 0, find base 
....................       base=10; 
....................    else if (sc[1]=='x' || sc[1]=='X') 
....................       base =16,sc+=2; 
....................    else if(sc[1]=='b') 
....................       base=2,sc+=2; 
....................    else 
....................       base=8; 
....................    for (s1=sc;*sc=='0';++sc);// skip leading zeroes 
....................    sd=memchr(digits,tolower(*sc),base); 
....................    for(; sd!=0; ) 
....................    { 
....................       x=x*base+(int16)(sd-digits); 
....................       ++sc; 
....................       sd=memchr(digits,tolower(*sc),base); 
....................    } 
....................    if(s1==sc) 
....................    { 
....................    StrtoulGO: 
....................       if (endptr) 
....................       { 
....................          #IF LONG_POINTERS 
....................          *((long *)endptr)= s;  
....................          #ELSE 
....................          *((char *)endptr)=s; 
....................          #ENDIF 
....................          } 
....................    return 0; 
....................    } 
....................    if (endptr) 
....................    { 
....................          #IF LONG_POINTERS 
....................          *((long *)endptr)= sc;  
....................          #ELSE 
....................          *((char *)endptr)=sc;  
....................          #ENDIF 
....................    } 
....................    return x; 
.................... } 
....................  
....................  
.................... signed long strtol(char *s,char *endptr, signed int base) 
.................... { 
....................    char *sc,*s1,*sd; 
....................    signed long x=0; 
....................    char sign; 
....................    char digits[]="0123456789abcdefghijklmnopqstuvwxyz"; 
....................    for(sc=s;isspace(*sc);++sc); 
....................    sign=*sc=='-'||*sc=='+'?*sc++:'+'; 
....................    if (base <0 || base ==1|| base >36) // invalid base 
....................    goto StrtolGO; 
....................    else if (base) 
....................    { 
....................       if(base==16 && *sc =='0'&&(sc[1]=='x' || sc[1]=='X')) 
....................          sc+=2; 
....................       if(base==8 && *sc =='0') 
....................          sc+=1; 
....................       if(base==2 && *sc =='0'&&sc[1]=='b') 
....................          sc+=2; 
....................  
....................    } 
....................    else if(*sc!='0') // base is 0, find base 
....................       base=10; 
....................    else if (sc[1]=='x' || sc[1]=='X') 
....................       base =16,sc+=2; 
....................    else if(sc[1]=='b') 
....................       base=2,sc+=2; 
....................    else 
....................       base=8; 
....................    for (s1=sc;*sc=='0';++sc);// skip leading zeroes 
....................  
....................    sd=memchr(digits,tolower(*sc),base); 
....................    for(;sd!=0;) 
....................    { 
....................       x=x*base+(int16)(sd-digits); 
....................       ++sc; 
....................       sd=memchr(digits,tolower(*sc),base); 
....................    } 
....................    if(s1==sc) 
....................    { 
....................    StrtolGO: 
....................       if (endptr) 
....................       { 
....................          #IF LONG_POINTERS 
....................          *((long *)endptr)= s;  
....................          #ELSE 
....................          *((char *)endptr)=s; 
....................          #ENDIF 
....................       } 
....................    return 0; 
....................    } 
....................    if(sign=='-') 
....................       x  =-x; 
....................    if (endptr) 
....................    { 
....................         #IF LONG_POINTERS 
....................          *((long *)endptr)= sc;  
....................         #ELSE 
....................         *((char *)endptr)=sc; 
....................         #ENDIF 
....................    } 
....................    return x; 
.................... } 
....................  
.................... signed int8 system(char *string) 
.................... { 
....................    return 0; 
.................... } 
....................  
.................... int8 mblen(char *s,size_t n) 
.................... { 
....................    return strlen(s); 
.................... } 
....................  
.................... int8 mbtowc(wchar_t *pwc,char *s,size_t n) 
.................... { 
....................    *pwc=*s; 
....................    return 1; 
.................... } 
....................  
.................... int8 wctomb(char *s,wchar_t wchar) 
.................... { 
....................    *s=wchar; 
....................    return 1; 
.................... } 
....................  
.................... size_t mbstowcs(wchar_t *pwcs,char *s,size_t n) 
.................... { 
....................    strncpy(pwcs,s,n); 
....................    return strlen(pwcs); 
.................... } 
....................  
.................... size_t wcstombs(char *s,wchar_t *pwcs,size_t n) 
.................... { 
....................    strncpy(s,pwcs,n); 
....................    return strlen(s); 
.................... } 
....................  
.................... //--------------------------------------------------------------------------- 
.................... // The random number implementation 
.................... //--------------------------------------------------------------------------- 
....................  
.................... unsigned int32 _Randseed; 
....................  
.................... unsigned int16 rand(void) 
.................... { 
....................    _Randseed = _Randseed * 1103515245 + 12345; 
....................    return ((unsigned int16)(_Randseed >> 16) % RAND_MAX); 
.................... } 
....................  
.................... void srand(unsigned int32 seed) 
.................... { 
....................    _Randseed = seed; 
.................... } 
....................  
.................... //--------------------------------------------------------------------------- 
.................... // Searching and sorting utilities implementation 
.................... //--------------------------------------------------------------------------- 
....................  
.................... #if !defined(__PCD__) 
.................... typedef signed int8 (*_Cmpfun)(char * p1,char * p2);  
.................... #else  
.................... typedef signed int16 (*_Cmpfun)(char * p1,char * p2);  
.................... #endif 
....................  
....................  
....................  
.................... void qsort(char * qdata, unsigned int qitems, unsigned int qsize, _Cmpfun cmp) { 
....................    unsigned int m,j,i,l; 
....................    int1 done; 
....................    unsigned int8 t[16]; 
....................  
....................    m = qitems/2; 
....................    while( m > 0 ) { 
....................      for(j=0; j<(qitems-m); ++j) { 
....................         i = j; 
....................         do 
....................         { 
....................            done=1; 
....................            l = i+m; 
....................            if( (*cmp)(qdata+i*qsize, qdata+l*qsize) > 0 ) { 
....................               memcpy(t, qdata+i*qsize, qsize); 
....................               memcpy(qdata+i*qsize, qdata+l*qsize, qsize); 
....................               memcpy(qdata+l*qsize, t, qsize); 
....................               if(m <= i) 
....................                 i -= m; 
....................                 done = 0; 
....................            } 
....................         } while(!done); 
....................      } 
....................      m = m/2; 
....................    } 
.................... } 
....................  
....................  
.................... char *bsearch(char *key, char *base, size_t num, size_t width,_Cmpfun cmp) 
.................... { 
....................    char *p, *q; 
....................    size_t n; 
....................    size_t pivot; 
....................    signed int val; 
....................  
....................    p = base; 
....................    n = num; 
....................  
....................    while (n > 0) 
....................    { 
....................       pivot = n >> 1; 
....................       q = p + width * pivot; 
....................  
....................       val = (*cmp)(key, q); 
....................  
....................       if (val < 0) 
....................          n = pivot; 
....................       else if (val == 0) 
....................          return ((char *)q); 
....................       else { 
....................          p = q + width; 
....................          n -= pivot + 1; 
....................       } 
....................    } 
....................  
....................    return NULL;      // There's no match 
.................... } 
....................  
....................  
.................... #endif 
....................  
.................... #include <DS1302.c> 
.................... ////////////////////////////////////////////////////////////////////////// 
.................... ////                               DS1302.C                           //// 
.................... ////                     Driver for Real Time Clock                   //// 
.................... ////                                                                  //// 
.................... ////  rtc_init()                                   Call after power up//// 
.................... ////                                                                  //// 
.................... ////  rtc_set_datetime(day,mth,year,dow,hour,min)  Set the date/time  //// 
.................... ////                                                                  //// 
.................... ////  rtc_get_date(day,mth,year,dow)               Get the date       //// 
.................... ////                                                                  //// 
.................... ////  rtc_get_time(hr,min,sec)                     Get the time       //// 
.................... ////                                                                  //// 
.................... ////  rtc_write_nvr(address,data)                  Write to NVR       //// 
.................... ////                                                                  //// 
.................... ////  data = rtc_read_nvr(address)                 Read from NVR      //// 
.................... ////                                                                  //// 
.................... ////  get_bcd(data)                              Convert data to BCD  //// 
.................... ////                                                                  //// 
.................... ////  rm_bcd(data)                               Convert data to int  //// 
.................... ////                                                                  //// 
.................... ////////////////////////////////////////////////////////////////////////// 
.................... ////        (C) Copyright 1996,2003 Custom Computer Services          //// 
.................... //// This source code may only be used by licensed users of the CCS C //// 
.................... //// compiler.  This source code may only be distributed to other     //// 
.................... //// licensed users of the CCS C compiler.  No other use, reproduction//// 
.................... //// or distribution is permitted without written permission.         //// 
.................... //// Derivative programs created using this software in object code   //// 
.................... //// form are not restricted in any way.                              //// 
.................... ////////////////////////////////////////////////////////////////////////// 
....................  
.................... //#ifndef RTC_SCLK 
....................  
.................... #define RTC_SCLK PIN_C0 
.................... #define RTC_IO   PIN_C1 
.................... #define RTC_RST  PIN_C2 
....................  
.................... //#endif 
....................  
.................... void write_ds1302_byte(BYTE cmd) { 
....................    BYTE i; 
....................  
....................    for(i=0;i<=7;++i) { 
*
0395A:  MOVLB  6
0395C:  CLRF   xBA
0395E:  MOVF   xBA,W
03960:  SUBLW  07
03962:  BNC   397E
....................       output_bit(RTC_IO, shift_right(&cmd,1,0) ); 
03964:  BCF    FD8.0
03966:  RRCF   xB9,F
03968:  BC    396E
0396A:  BCF    F8B.1
0396C:  BRA    3970
0396E:  BSF    F8B.1
03970:  BCF    F94.1
....................       output_high(RTC_SCLK); 
03972:  BCF    F94.0
03974:  BSF    F8B.0
....................       output_low(RTC_SCLK); 
03976:  BCF    F94.0
03978:  BCF    F8B.0
....................    } 
0397A:  INCF   xBA,F
0397C:  BRA    395E
.................... } 
0397E:  MOVLB  0
03980:  RETLW  00
....................  
.................... void write_ds1302(BYTE cmd, BYTE data) { 
....................  
....................    output_high(RTC_RST); 
03982:  BCF    F94.2
03984:  BSF    F8B.2
....................    write_ds1302_byte(cmd); 
03986:  MOVFF  6B7,6B9
0398A:  RCALL  395A
....................    write_ds1302_byte(data); 
0398C:  MOVFF  6B8,6B9
03990:  RCALL  395A
....................    output_low(RTC_RST); 
03992:  BCF    F94.2
03994:  BCF    F8B.2
.................... } 
03996:  RETLW  00
....................  
.................... BYTE read_ds1302(BYTE cmd) { 
....................    BYTE i,data; 
....................  
....................    output_high(RTC_RST); 
03998:  BCF    F94.2
0399A:  BSF    F8B.2
....................    write_ds1302_byte(cmd); 
0399C:  MOVFF  6B4,6B9
039A0:  RCALL  395A
....................     
....................    input(RTC_IO); 
039A2:  BSF    F94.1
....................    delay_us(10); 
039A4:  MOVLW  10
039A6:  MOVWF  00
039A8:  DECFSZ 00,F
039AA:  BRA    39A8
039AC:  NOP   
....................           
....................    for(i=0;i<=7;++i) { 
039AE:  MOVLB  6
039B0:  CLRF   xB5
039B2:  MOVF   xB5,W
039B4:  SUBLW  07
039B6:  BNC   39E2
....................       shift_right(&data,1,input(RTC_IO)); 
039B8:  BSF    F94.1
039BA:  BTFSC  F82.1
039BC:  BRA    39C2
039BE:  BCF    FD8.0
039C0:  BRA    39C4
039C2:  BSF    FD8.0
039C4:  RRCF   xB6,F
....................       output_high(RTC_SCLK); 
039C6:  BCF    F94.0
039C8:  BSF    F8B.0
....................       delay_us(20); 
039CA:  MOVLW  21
039CC:  MOVWF  00
039CE:  DECFSZ 00,F
039D0:  BRA    39CE
....................       output_low(RTC_SCLK); 
039D2:  BCF    F94.0
039D4:  BCF    F8B.0
....................       delay_us(20); 
039D6:  MOVLW  21
039D8:  MOVWF  00
039DA:  DECFSZ 00,F
039DC:  BRA    39DA
....................    } 
039DE:  INCF   xB5,F
039E0:  BRA    39B2
....................    output_low(RTC_RST); 
039E2:  BCF    F94.2
039E4:  BCF    F8B.2
....................  
....................    return(data); 
039E6:  MOVFF  6B6,01
.................... } 
039EA:  MOVLB  0
039EC:  RETLW  00
....................  
.................... void rtc_init() { 
....................    BYTE x; 
....................    output_low(RTC_RST); 
039EE:  BCF    F94.2
039F0:  BCF    F8B.2
....................    delay_us(20); 
039F2:  MOVLW  21
039F4:  MOVWF  00
039F6:  DECFSZ 00,F
039F8:  BRA    39F6
....................    output_low(RTC_SCLK); 
039FA:  BCF    F94.0
039FC:  BCF    F8B.0
....................    write_ds1302(0x8e,0); 
039FE:  MOVLW  8E
03A00:  MOVLB  6
03A02:  MOVWF  xB7
03A04:  CLRF   xB8
03A06:  MOVLB  0
03A08:  RCALL  3982
....................    write_ds1302(0x90,0xa4); 
03A0A:  MOVLW  90
03A0C:  MOVLB  6
03A0E:  MOVWF  xB7
03A10:  MOVLW  A4
03A12:  MOVWF  xB8
03A14:  MOVLB  0
03A16:  RCALL  3982
....................    x=read_ds1302(0x81); 
03A18:  MOVLW  81
03A1A:  MOVLB  6
03A1C:  MOVWF  xB4
03A1E:  MOVLB  0
03A20:  RCALL  3998
03A22:  MOVFF  01,6B0
....................    if((x & 0x80)!=0) 
03A26:  MOVLB  6
03A28:  MOVF   xB0,W
03A2A:  ANDLW  80
03A2C:  BZ    3A3A
....................      write_ds1302(0x80,0); 
03A2E:  MOVLW  80
03A30:  MOVWF  xB7
03A32:  CLRF   xB8
03A34:  MOVLB  0
03A36:  RCALL  3982
03A38:  MOVLB  6
.................... } 
03A3A:  MOVLB  0
03A3C:  GOTO   7D42 (RETURN)
....................  
.................... byte get_bcd(BYTE data) 
.................... { 
....................    byte nibh; 
....................    byte nibl; 
....................  
....................    nibh=data/10; 
*
05EBA:  MOVFF  6B6,6B9
05EBE:  MOVLW  0A
05EC0:  MOVLB  6
05EC2:  MOVWF  xBA
05EC4:  MOVLB  0
05EC6:  RCALL  59EC
05EC8:  MOVFF  01,6B7
....................    nibl=data-(nibh*10); 
05ECC:  MOVLB  6
05ECE:  MOVF   xB7,W
05ED0:  MULLW  0A
05ED2:  MOVF   FF3,W
05ED4:  SUBWF  xB6,W
05ED6:  MOVWF  xB8
....................  
....................    return((nibh<<4)|nibl); 
05ED8:  SWAPF  xB7,W
05EDA:  MOVWF  00
05EDC:  MOVLW  F0
05EDE:  ANDWF  00,F
05EE0:  MOVF   00,W
05EE2:  IORWF  xB8,W
05EE4:  MOVWF  01
.................... } 
05EE6:  MOVLB  0
05EE8:  RETLW  00
....................  
.................... byte rm_bcd(BYTE data) 
.................... { 
....................    byte i; 
....................  
....................    i=data; 
*
0523C:  MOVFF  6B5,6B6
....................    data=(i>>4)*10; 
05240:  MOVLB  6
05242:  SWAPF  xB6,W
05244:  MOVWF  00
05246:  MOVLW  0F
05248:  ANDWF  00,F
0524A:  MOVF   00,W
0524C:  MULLW  0A
0524E:  MOVFF  FF3,6B5
....................    data=data+(i<<4>>4); 
05252:  SWAPF  xB6,W
05254:  MOVWF  00
05256:  MOVLW  F0
05258:  ANDWF  00,F
0525A:  MOVF   00,W
0525C:  SWAPF  00,F
0525E:  MOVLW  0F
05260:  ANDWF  00,F
05262:  MOVF   00,W
05264:  ADDWF  xB5,F
....................  
....................    return data; 
05266:  MOVFF  6B5,01
.................... } 
0526A:  MOVLB  0
0526C:  RETLW  00
....................  
.................... void rtc_set_datetime(BYTE day, BYTE mth, BYTE year, BYTE dow, BYTE hr, BYTE min) { 
....................  
....................    write_ds1302(0x86,get_bcd(day)); 
*
05EEA:  MOVFF  6B0,6B6
05EEE:  RCALL  5EBA
05EF0:  MOVFF  01,6B6
05EF4:  MOVLW  86
05EF6:  MOVLB  6
05EF8:  MOVWF  xB7
05EFA:  MOVFF  01,6B8
05EFE:  MOVLB  0
05F00:  CALL   3982
....................    write_ds1302(0x88,get_bcd(mth)); 
05F04:  MOVFF  6B1,6B6
05F08:  RCALL  5EBA
05F0A:  MOVFF  01,6B6
05F0E:  MOVLW  88
05F10:  MOVLB  6
05F12:  MOVWF  xB7
05F14:  MOVFF  01,6B8
05F18:  MOVLB  0
05F1A:  CALL   3982
....................    write_ds1302(0x8c,get_bcd(year)); 
05F1E:  MOVFF  6B2,6B6
05F22:  RCALL  5EBA
05F24:  MOVFF  01,6B6
05F28:  MOVLW  8C
05F2A:  MOVLB  6
05F2C:  MOVWF  xB7
05F2E:  MOVFF  01,6B8
05F32:  MOVLB  0
05F34:  CALL   3982
....................    write_ds1302(0x8a,get_bcd(dow)); 
05F38:  MOVFF  6B3,6B6
05F3C:  RCALL  5EBA
05F3E:  MOVFF  01,6B6
05F42:  MOVLW  8A
05F44:  MOVLB  6
05F46:  MOVWF  xB7
05F48:  MOVFF  01,6B8
05F4C:  MOVLB  0
05F4E:  CALL   3982
....................    write_ds1302(0x84,get_bcd(hr)); 
05F52:  MOVFF  6B4,6B6
05F56:  RCALL  5EBA
05F58:  MOVFF  01,6B6
05F5C:  MOVLW  84
05F5E:  MOVLB  6
05F60:  MOVWF  xB7
05F62:  MOVFF  01,6B8
05F66:  MOVLB  0
05F68:  CALL   3982
....................    write_ds1302(0x82,get_bcd(min)); 
05F6C:  MOVFF  6B5,6B6
05F70:  RCALL  5EBA
05F72:  MOVFF  01,6B6
05F76:  MOVLW  82
05F78:  MOVLB  6
05F7A:  MOVWF  xB7
05F7C:  MOVFF  01,6B8
05F80:  MOVLB  0
05F82:  CALL   3982
....................    write_ds1302(0x80,get_bcd(0)); 
05F86:  MOVLB  6
05F88:  CLRF   xB6
05F8A:  MOVLB  0
05F8C:  RCALL  5EBA
05F8E:  MOVFF  01,6B6
05F92:  MOVLW  80
05F94:  MOVLB  6
05F96:  MOVWF  xB7
05F98:  MOVFF  01,6B8
05F9C:  MOVLB  0
05F9E:  CALL   3982
.................... } 
05FA2:  GOTO   A082 (RETURN)
....................  
.................... void rtc_get_date(BYTE& day, BYTE& mth, BYTE& year, BYTE& dow) { 
....................    day = rm_bcd(read_ds1302(0x87)); 
*
07EAC:  MOVLW  87
07EAE:  MOVLB  6
07EB0:  MOVWF  xB4
07EB2:  MOVLB  0
07EB4:  CALL   3998
07EB8:  MOVFF  01,6B0
07EBC:  MOVFF  01,6B5
07EC0:  CALL   523C
07EC4:  MOVFF  01,29A
....................    mth = rm_bcd(read_ds1302(0x89)); 
07EC8:  MOVLW  89
07ECA:  MOVLB  6
07ECC:  MOVWF  xB4
07ECE:  MOVLB  0
07ED0:  CALL   3998
07ED4:  MOVFF  01,6B0
07ED8:  MOVFF  01,6B5
07EDC:  CALL   523C
07EE0:  MOVFF  01,299
....................    year = rm_bcd(read_ds1302(0x8d)); 
07EE4:  MOVLW  8D
07EE6:  MOVLB  6
07EE8:  MOVWF  xB4
07EEA:  MOVLB  0
07EEC:  CALL   3998
07EF0:  MOVFF  01,6B0
07EF4:  MOVFF  01,6B5
07EF8:  CALL   523C
07EFC:  MOVFF  01,298
....................    dow = rm_bcd(read_ds1302(0x8b)); 
07F00:  MOVLW  8B
07F02:  MOVLB  6
07F04:  MOVWF  xB4
07F06:  MOVLB  0
07F08:  CALL   3998
07F0C:  MOVFF  01,6B0
07F10:  MOVFF  01,6B5
07F14:  CALL   523C
07F18:  MOVFF  01,29E
.................... } 
....................  
.................... void rtc_get_time(BYTE& hr, BYTE& min, BYTE& sec) { 
....................    hr = rm_bcd(read_ds1302(0x85)); 
07F1C:  MOVLW  85
07F1E:  MOVLB  6
07F20:  MOVWF  xB4
07F22:  MOVLB  0
07F24:  CALL   3998
07F28:  MOVFF  01,6B0
07F2C:  MOVFF  01,6B5
07F30:  CALL   523C
07F34:  MOVFF  01,29B
....................    min = rm_bcd(read_ds1302(0x83)); 
07F38:  MOVLW  83
07F3A:  MOVLB  6
07F3C:  MOVWF  xB4
07F3E:  MOVLB  0
07F40:  CALL   3998
07F44:  MOVFF  01,6B0
07F48:  MOVFF  01,6B5
07F4C:  CALL   523C
07F50:  MOVFF  01,29C
....................    sec = rm_bcd(read_ds1302(0x81)); 
07F54:  MOVLW  81
07F56:  MOVLB  6
07F58:  MOVWF  xB4
07F5A:  MOVLB  0
07F5C:  CALL   3998
07F60:  MOVFF  01,6B0
07F64:  MOVFF  01,6B5
07F68:  CALL   523C
07F6C:  MOVFF  01,29D
.................... } 
....................  
.................... void rtc_write_nvr(BYTE address, BYTE data) { 
....................    write_ds1302(address|0xc0,data); 
.................... } 
....................  
.................... BYTE rtc_read_nvr(BYTE address) { 
....................     return(read_ds1302(address|0xc1)); 
.................... } 
....................  
.................... #include <24512.c> 
.................... /////////////////////////////////////////////////////////////////////////// 
.................... ////   Library for a 24LC512 serial EEPROM                             //// 
.................... ////                                                                   //// 
.................... ////   init_ext_eeprom();    Call before the other functions are used  //// 
.................... ////                                                                   //// 
.................... ////   write_ext_eeprom(a, d);  Write the byte d to the address a      //// 
.................... ////                                                                   //// 
.................... ////   d = read_ext_eeprom(a);   Read the byte d from the address a    //// 
.................... ////                                                                   //// 
.................... ////   The main program may define eeprom_sda                          //// 
.................... ////   and eeprom_scl to override the defaults below.                  //// 
.................... ////                                                                   //// 
.................... /////////////////////////////////////////////////////////////////////////// 
.................... ////        (C) Copyright 1996,2003 Custom Computer Services           //// 
.................... //// This source code may only be used by licensed users of the CCS C  //// 
.................... //// compiler.  This source code may only be distributed to other      //// 
.................... //// licensed users of the CCS C compiler.  No other use, reproduction //// 
.................... //// or distribution is permitted without written permission.          //// 
.................... //// Derivative programs created using this software in object code    //// 
.................... //// form are not restricted in any way.                               //// 
.................... /////////////////////////////////////////////////////////////////////////// 
....................  
.................... #ifndef EEPROM_SDA 
....................  
.................... #define EEPROM_SDA  PIN_C4 
.................... #define EEPROM_SCL  PIN_C3 
....................  
.................... #endif 
....................  
.................... #use i2c(master, sda=EEPROM_SDA, scl=EEPROM_SCL) 
*
0240E:  MOVLW  08
02410:  MOVWF  01
02412:  MOVLW  05
02414:  MOVWF  00
02416:  DECFSZ 00,F
02418:  BRA    2416
0241A:  BCF    F8B.3
0241C:  BCF    F94.3
0241E:  MOVLW  06
02420:  MOVWF  00
02422:  DECFSZ 00,F
02424:  BRA    2422
02426:  MOVLB  6
02428:  RLCF   xC6,F
0242A:  BCF    F8B.4
0242C:  BTFSC  FD8.0
0242E:  BSF    F94.4
02430:  BTFSS  FD8.0
02432:  BCF    F94.4
02434:  BSF    F94.3
02436:  BTFSS  F82.3
02438:  BRA    2436
0243A:  DECFSZ 01,F
0243C:  BRA    2440
0243E:  BRA    2444
02440:  MOVLB  0
02442:  BRA    2412
02444:  MOVLW  05
02446:  MOVWF  00
02448:  DECFSZ 00,F
0244A:  BRA    2448
0244C:  BCF    F8B.3
0244E:  BCF    F94.3
02450:  NOP   
02452:  BSF    F94.4
02454:  MOVLW  06
02456:  MOVWF  00
02458:  DECFSZ 00,F
0245A:  BRA    2458
0245C:  MOVLW  06
0245E:  MOVWF  00
02460:  DECFSZ 00,F
02462:  BRA    2460
02464:  BSF    F94.3
02466:  BTFSS  F82.3
02468:  BRA    2466
0246A:  CLRF   01
0246C:  MOVLW  06
0246E:  MOVWF  00
02470:  DECFSZ 00,F
02472:  BRA    2470
02474:  BTFSC  F82.4
02476:  BSF    01.0
02478:  BCF    F8B.3
0247A:  BCF    F94.3
0247C:  BCF    F8B.4
0247E:  BCF    F94.4
02480:  MOVLB  0
02482:  RETLW  00
02484:  MOVLW  08
02486:  MOVLB  6
02488:  MOVWF  xB9
0248A:  MOVFF  00,6BA
0248E:  BSF    F94.4
02490:  MOVLW  06
02492:  MOVWF  00
02494:  DECFSZ 00,F
02496:  BRA    2494
02498:  BSF    F94.3
0249A:  BTFSS  F82.3
0249C:  BRA    249A
0249E:  BTFSC  F82.4
024A0:  BSF    FD8.0
024A2:  BTFSS  F82.4
024A4:  BCF    FD8.0
024A6:  RLCF   01,F
024A8:  MOVLW  05
024AA:  MOVWF  00
024AC:  DECFSZ 00,F
024AE:  BRA    24AC
024B0:  BCF    F94.3
024B2:  BCF    F8B.3
024B4:  DECFSZ xB9,F
024B6:  BRA    248E
024B8:  BSF    F94.4
024BA:  MOVLW  06
024BC:  MOVWF  00
024BE:  DECFSZ 00,F
024C0:  BRA    24BE
024C2:  BCF    F8B.4
024C4:  MOVF   xBA,W
024C6:  BTFSS  FD8.2
024C8:  BCF    F94.4
024CA:  NOP   
024CC:  BSF    F94.3
024CE:  BTFSS  F82.3
024D0:  BRA    24CE
024D2:  MOVLW  05
024D4:  MOVWF  00
024D6:  DECFSZ 00,F
024D8:  BRA    24D6
024DA:  BCF    F8B.3
024DC:  BCF    F94.3
024DE:  MOVLW  06
024E0:  MOVWF  00
024E2:  DECFSZ 00,F
024E4:  BRA    24E2
024E6:  BCF    F8B.4
024E8:  BCF    F94.4
024EA:  MOVLB  0
024EC:  RETLW  00
....................  
.................... #define EEPROM_ADDRESS long int 
.................... #define EEPROM_SIZE   65535 
....................  
.................... void init_ext_eeprom() 
.................... { 
....................    output_float(EEPROM_SCL); 
....................    output_float(EEPROM_SDA); 
....................  
.................... } 
....................  
.................... void write_ext_eeprom(long int address, BYTE data) 
.................... { 
....................    short int status; 
....................    i2c_start(); 
*
06900:  BSF    F94.4
06902:  MOVLW  05
06904:  MOVWF  00
06906:  DECFSZ 00,F
06908:  BRA    6906
0690A:  BSF    F94.3
0690C:  MOVLW  06
0690E:  MOVWF  00
06910:  DECFSZ 00,F
06912:  BRA    6910
06914:  BCF    F8B.4
06916:  BCF    F94.4
06918:  MOVLW  05
0691A:  MOVWF  00
0691C:  DECFSZ 00,F
0691E:  BRA    691C
06920:  BCF    F8B.3
06922:  BCF    F94.3
....................    i2c_write(0xa0); 
06924:  MOVLW  A0
06926:  MOVLB  6
06928:  MOVWF  xC6
0692A:  MOVLB  0
0692C:  CALL   240E
....................    i2c_write(address>>8); 
06930:  MOVFF  6B8,6BB
06934:  MOVLB  6
06936:  CLRF   xBC
06938:  MOVFF  6B8,6C6
0693C:  MOVLB  0
0693E:  CALL   240E
....................    i2c_write(address); 
06942:  MOVFF  6B7,6C6
06946:  CALL   240E
....................    i2c_write(data); 
0694A:  MOVFF  6B9,6C6
0694E:  CALL   240E
....................    i2c_stop(); 
06952:  BCF    F94.4
06954:  NOP   
06956:  BSF    F94.3
06958:  BTFSS  F82.3
0695A:  BRA    6958
0695C:  MOVLW  05
0695E:  MOVWF  00
06960:  DECFSZ 00,F
06962:  BRA    6960
06964:  BRA    6966
06966:  NOP   
06968:  BSF    F94.4
0696A:  MOVLW  05
0696C:  MOVWF  00
0696E:  DECFSZ 00,F
06970:  BRA    696E
....................    i2c_start(); 
06972:  BSF    F94.4
06974:  MOVLW  05
06976:  MOVWF  00
06978:  DECFSZ 00,F
0697A:  BRA    6978
0697C:  BSF    F94.3
0697E:  MOVLW  06
06980:  MOVWF  00
06982:  DECFSZ 00,F
06984:  BRA    6982
06986:  BCF    F8B.4
06988:  BCF    F94.4
0698A:  MOVLW  05
0698C:  MOVWF  00
0698E:  DECFSZ 00,F
06990:  BRA    698E
06992:  BCF    F8B.3
06994:  BCF    F94.3
....................    status=i2c_write(0xa0); 
06996:  MOVLW  A0
06998:  MOVLB  6
0699A:  MOVWF  xC6
0699C:  MOVLB  0
0699E:  CALL   240E
069A2:  MOVF   01,W
069A4:  MOVLB  6
069A6:  BCF    xBA.0
069A8:  BTFSC  01.0
069AA:  BSF    xBA.0
....................    while(status==1) 
....................    { 
069AC:  BTFSS  xBA.0
069AE:  BRA    69EE
....................       i2c_start(); 
069B0:  BSF    F94.4
069B2:  MOVLW  05
069B4:  MOVWF  00
069B6:  DECFSZ 00,F
069B8:  BRA    69B6
069BA:  BSF    F94.3
069BC:  MOVLW  06
069BE:  MOVWF  00
069C0:  DECFSZ 00,F
069C2:  BRA    69C0
069C4:  BTFSS  F82.3
069C6:  BRA    69C4
069C8:  BCF    F8B.4
069CA:  BCF    F94.4
069CC:  MOVLW  05
069CE:  MOVWF  00
069D0:  DECFSZ 00,F
069D2:  BRA    69D0
069D4:  BCF    F8B.3
069D6:  BCF    F94.3
....................       status=i2c_write(0xa0); 
069D8:  MOVLW  A0
069DA:  MOVWF  xC6
069DC:  MOVLB  0
069DE:  CALL   240E
069E2:  MOVF   01,W
069E4:  MOVLB  6
069E6:  BCF    xBA.0
069E8:  BTFSC  01.0
069EA:  BSF    xBA.0
....................    } 
069EC:  BRA    69AC
....................    i2c_stop(); 
069EE:  BCF    F94.4
069F0:  NOP   
069F2:  BSF    F94.3
069F4:  BTFSS  F82.3
069F6:  BRA    69F4
069F8:  MOVLW  05
069FA:  MOVWF  00
069FC:  DECFSZ 00,F
069FE:  BRA    69FC
06A00:  BRA    6A02
06A02:  NOP   
06A04:  BSF    F94.4
06A06:  MOVLW  05
06A08:  MOVWF  00
06A0A:  DECFSZ 00,F
06A0C:  BRA    6A0A
.................... } 
06A0E:  MOVLB  0
06A10:  RETLW  00
....................  
.................... BYTE read_ext_eeprom(long int address) { 
....................    BYTE data; 
....................    i2c_start(); 
*
024EE:  BSF    F94.4
024F0:  MOVLW  05
024F2:  MOVWF  00
024F4:  DECFSZ 00,F
024F6:  BRA    24F4
024F8:  BSF    F94.3
024FA:  MOVLW  06
024FC:  MOVWF  00
024FE:  DECFSZ 00,F
02500:  BRA    24FE
02502:  BCF    F8B.4
02504:  BCF    F94.4
02506:  MOVLW  05
02508:  MOVWF  00
0250A:  DECFSZ 00,F
0250C:  BRA    250A
0250E:  BCF    F8B.3
02510:  BCF    F94.3
....................    i2c_write(0xa0); 
02512:  MOVLW  A0
02514:  MOVLB  6
02516:  MOVWF  xC6
02518:  MOVLB  0
0251A:  RCALL  240E
....................    i2c_write(address>>8); 
0251C:  MOVFF  6B6,6B8
02520:  MOVLB  6
02522:  CLRF   xB9
02524:  MOVFF  6B6,6C6
02528:  MOVLB  0
0252A:  RCALL  240E
....................    i2c_write(address); 
0252C:  MOVFF  6B5,6C6
02530:  RCALL  240E
....................    i2c_start(); 
02532:  BSF    F94.4
02534:  MOVLW  05
02536:  MOVWF  00
02538:  DECFSZ 00,F
0253A:  BRA    2538
0253C:  BSF    F94.3
0253E:  MOVLW  06
02540:  MOVWF  00
02542:  DECFSZ 00,F
02544:  BRA    2542
02546:  BTFSS  F82.3
02548:  BRA    2546
0254A:  BCF    F8B.4
0254C:  BCF    F94.4
0254E:  MOVLW  05
02550:  MOVWF  00
02552:  DECFSZ 00,F
02554:  BRA    2552
02556:  BCF    F8B.3
02558:  BCF    F94.3
....................    i2c_write(0xa1); 
0255A:  MOVLW  A1
0255C:  MOVLB  6
0255E:  MOVWF  xC6
02560:  MOVLB  0
02562:  RCALL  240E
....................    data=i2c_read(0); 
02564:  CLRF   00
02566:  RCALL  2484
02568:  MOVFF  01,6B7
....................    i2c_stop(); 
0256C:  BCF    F94.4
0256E:  NOP   
02570:  BSF    F94.3
02572:  BTFSS  F82.3
02574:  BRA    2572
02576:  MOVLW  05
02578:  MOVWF  00
0257A:  DECFSZ 00,F
0257C:  BRA    257A
0257E:  BRA    2580
02580:  NOP   
02582:  BSF    F94.4
02584:  MOVLW  05
02586:  MOVWF  00
02588:  DECFSZ 00,F
0258A:  BRA    2588
....................    return(data); 
0258C:  MOVLB  6
0258E:  MOVFF  6B7,01
.................... } 
02592:  MOVLB  0
02594:  RETLW  00
....................  
....................  
.................... #define   STOP          !input(PIN_B0) 
.................... #define   EMPAQUES      !input(PIN_B1) 
.................... #define   EMPAQUEL      !input(PIN_B2) 
.................... #define   DOORS         !input(PIN_B3) 
.................... #define   DOORL         !input(PIN_B4) 
.................... #define   LOWB          !input(PIN_B5) 
.................... #define   BLOQUEOS      !input(PIN_B6) 
.................... #define   BLOQUEOL      !input(PIN_B7) 
....................  
....................  
.................... #define OFF 0 
.................... #define ON  1 
.................... #define RX_BUFFER_SIZE  10 
.................... char Rx_Buffer[RX_BUFFER_SIZE+1]; 
.................... char Rx_Buffer2[RX_BUFFER_SIZE+1]; 
.................... char RX_Wr_Index=0; 
....................  
.................... //Comunicacion//------------------------ 
.................... byte txbuf[0X25]; 
.................... byte SlaveB0Tx[0X26]; 
.................... byte SlaveC0Tx[0X25]; 
.................... byte SlaveC0Rx[0X25]; 
.................... byte dato=0;            //Contendr la informacin a enviar o recibir 
.................... byte direccion=0;       //Contendr la direccin del esclavo en el bus I2C 
.................... byte posicion=0;        //Contendr la posicin en el buffer de memoria del esclavo donde se almacenar o de donde se recuperar el dato 
.................... //byte ByteConfig1=0,ByteConfig2=0,ByteConfig3=0; 
....................  
.................... /* Tabla de Modulos, Primera Fila Ao Regular y el siguiente ao Bisiesto 
.................... E   F   M   A   M   J   J   A   S   O   N   D 
.................... 0   3   3   6   1   4   6   2   5   0   3   5 
.................... 0   3   4   0   2   5   0   3   6   1   4   6 
.................... */ 
.................... int8 Regular[12]={0,3,3,6,1,4,6,2,5,0,3,5}; 
.................... int8 Bisiesto[12]={0,3,4,0,2,5,0,3,6,1,4,6}; 
....................  
.................... //Salidas//------------------------ 
.................... short suministroAire=OFF,aguaEnfriador=OFF,bombaVacio=OFF,empaqueLimpio=OFF,empaqueSucio=OFF,suministroVapor=OFF,Paso=OFF,outVacio=OFF,Desfogue=OFF,Aire=OFF,cilindroSucio=OFF,cilindroLimpio=OFF,Aux=OFF; 
.................... short seguroValvula=OFF; 
....................  
.................... //Alarmas//--------------------- 
.................... short AlarmaTiempoProlongado=OFF,AlarmaSobreTemperatura=OFF,AlarmaTermostato=OFF,AlarmaPuertaS=OFF,AlarmaPuertaL=OFF,AlarmaEmergencia=OFF,AlarmaVacio=OFF,AlarmaEmpaqueL=OFF,AlarmaEmpaqueS=OFF; 
.................... short AlarmaBomba=OFF,guardaCiclo=OFF,Cilindro=OFF,AlarmaLlenado=OFF,cerroSucio=OFF,cerroLimpio=OFF,pulsoSubirS=OFF,pulsoSubirL=OFF; 
.................... int16 TiempoVacio=600; 
....................  
.................... //Banderas//-------------------- 
.................... short EstadoAguaEnfriador=OFF,EstadoSuministroV=OFF,EstadoCilindrosL=OFF,EstadoCilindrosS=OFF,EstadoEmpaqueL=OFF,EstadoEmpaqueS=OFF; 
.................... short IniciaLlenado=OFF,IniciaCiclo=OFF,Esterilizando=OFF,Secando=OFF,SensadoNivel=OFF,Desfogando=OFF,DesfogueSuave=OFF,CalderinLleno=OFF; 
.................... short EstadoDesfogue=OFF,EstadoSuministro=OFF,EstadoAire=OFF,PruebaEstados=OFF,disp_Guarda=OFF,Ciclo=OFF,EstadoAgua2=OFF; 
.................... short Op=OFF,Op2=OFF,Minutos=OFF,Segundos=OFF,GuardaEEPROM=OFF,EstadoPaso=OFF,EstadoVacio=OFF,EstadoBuzzer=OFF,flagAlarma=OFF; 
.................... short flagBuzzer=OFF,flagSilencio=OFF,Finalizo=OFF,AlarmaPresion=OFF,EstadoACierre=OFF,EstadoBomba=OFF,Libre=OFF,ingreso=OFF,Fugas=OFF; 
.................... short PreCalentamiento=OFF,IniciaVacio=OFF,IniciaVacio2=OFF,Vacio=OFF,flag_vac=OFF,flag_vacio=OFF,flag_pulso=OFF,EstadoAireBomba=OFF; 
.................... short SensadoNivelL=OFF,NivelBajo=OFF,onBomba=OFF,flagBombaAgua=OFF,flagBombaAguaOff=OFF,flagImprimir=OFF,entro=OFF; 
.................... short EstadoEmpaque=OFF,EstadoSSR1=OFF,EstadoSSR2=OFF,ReservorioLleno=OFF,SensadoNivelR=OFF; 
....................  
.................... //Tiempos//--------------------- 
.................... int16 TiempoCiclo=0,TiempoSensadoNivel=0,Tp=0,Tc=0,tguarda=0,tNivelBajo=0,TiempoLlenado=OFF; 
.................... int8 sEst=0,mEst=0,sSec=0,mSec=0,sEstp=0,mEstp=0,sSecp=0,mSecp=0;// Tiempo transcurrido 
....................  
.................... //Control//------------------------ 
.................... float PromPresion[20]={0.0,0.0,0.0,0.0,0.0,0.0,0.0,0.0,0.0,0.0,0.0,0.0,0.0,0.0,0.0,0.0,0.0,0.0,0.0,0.0}; 
.................... float PromPresionp[20]={0.0,0.0,0.0,0.0,0.0,0.0,0.0,0.0,0.0,0.0,0.0,0.0,0.0,0.0,0.0,0.0,0.0,0.0,0.0,0.0}; 
.................... float Temporal=0.0,Aumento=0.0,tmp2=0.0; 
.................... float K=0.0012858; 
.................... float R7=3000,R8=3100,R9=3100,R10=6800,AN=0,BN=0; 
.................... float X[2]={0.0,0.0}; 
.................... float promediopresion=0.0,promediopresionp=0.0; 
.................... int8 h=0,l=0,MediaMovil=20,PantallaPrincipal=0,TipoClave=0,Modulo=0,TiempoSensadoNivelR=0,subirPuertaLimpio=0,cerroSucioInt=0,cerroLimpioInt=0; 
.................... float V0=0.0,Pt,Tciclo=10.0,Tpulso=0.0,error=0.0,Prom=0.0,Temperature=0.0,tmp=0.0,Ganancia=25.0,Ganancia2=20.0,desvio=1.0; 
.................... float V1=0.0,Presion=0.0,V2=0.0,Presionp=0.0; 
.................... float Temperatura=0.0,Temperatura2=0.0; 
.................... float a=0.0011,b=2.3302,c=-244.0723; 
.................... int8 Integral=0,Derivativo=0,CicloLibre=0; 
....................  
.................... //Varios//-------------------------------- 
.................... short desfoguelento=0,Lectura=0,Grafica=0; 
.................... short disp_Stop=0,flagTC=0,flagImprime=0; 
.................... int8 Control=0,tiemporecta=0,Controlando=0,timpresion=2,CalculoImpresion=0,Inicio=1,Dato_Exitoso=0,Dato2=0,Codigo=0; 
.................... int8 Menu=0, MenuAnt=0,MenuAntt=240,i=0,CiclosL=0,CiclosH=0,CicloSeleccionado=0,Tapertura=0; 
.................... int16 CantidadPulsos=4,tEmpaqueS=0,tEmpaqueL=0; 
.................... int8 Setpoint=0,Opcion=1,Opcion2=1,tiempo_esterilizacion=0,tiempo_secado=0; 
.................... int16 tiempos=0,tiempos2=0,tiempos3=0,tiempoctrl=0,Nivel=0,tinicio=0,PresionCamara=0,PresionPreCamara=0,Ciclos=0,tbomba=0,tvacio=0,tiempoImpresion=0; 
.................... signed int  Password[4]={0,0,0,0};        // Contrasena Almacenada de 4 digitos 
.................... int8 r=0,t=0,r22=0,t2=0,TiempoControl=0,NivelDes=0; 
.................... int8 y=0,ConteoBuzzer=0,posicionDato=0,codigoAlarma=0,codigoAnt=0,codigoUsuario2=0; 
.................... int16 tbuzzer=0,tsilencio=0; 
.................... int8 Year=18,Mes=9,Dia=13,Hora=0,Minuto=0,Segundo=0,dow=0,cicloVisualizado=0,cicloVisto=0,NivelVacio=25,Atmosferica=75,PulsoPositivo=10,PulsosVacio=0; 
.................... int8 YearTx=0,MesTx=0,DiaTx=0,HoraTx=0,MinutoTx=0,SegundoTx=0,dowTx=0,SetTime=0,Imprime=0,Pulsos=0,j=0,codigoUsuario=0,codigoUsuarioant=0; 
.................... signed int8 G1=0,G2=0,sg1=0,sg2=0; 
.................... const char Texto[12][20]={"CALENTAMIENTO","NO ENVUELTOS 134","NO ENVUELTOS 121","ENVUELTOS 134","ENVUELTOS 121","ENVUELTO DOBLE 1", 
.................... "ENVUELTO DOBLE 2","PRION","BOWIE & DICK","TEST DE FUGAS","TEST DE COMPONENTES","HORA Y FECHA"}; 
....................  
.................... //Textil & Instrumental 134C, 5m,15m 
.................... //Prion 134C, 20m,15m 
.................... //Caucho 121C, 25m,15m 
.................... //Contenedores 134C, 5m,25m 
.................... //Rapid 134C, 5m,8m 
....................  
.................... char usuario[20]; 
.................... float TCiclos[7]; 
.................... int16 PcCiclos[7]; 
.................... int16 PpcCiclos[7]; 
.................... int8 horaCiclos[7]; 
.................... int8 minutoCiclos[7]; 
.................... int8 ACiclos[7]; 
.................... int8 diaCiclos=0,mesCiclos=0,yearCiclos=0,usuarioCiclos=0,cicloCiclos=0; 
.................... short estados[30]={0,0,0,0,0,0,0,0,0,0,0,0,0,0,0,0,0,0,0,0,0,0,0,0,0,0,0,0,0,0}; 
....................  
.................... typedef struct{ 
....................    int8 Password[4]; 
.................... }Claves; 
....................  
.................... typedef struct{ 
....................    int8 Temperatura; 
....................    int8 Minutoest; 
....................    int8 Segundoest; 
....................    int8 Minutosec; 
....................    int8 Segundosec; 
....................    int8 PulsosVacio; 
....................    int8 NivelVacio; 
....................    int8 NivelDesfogue; 
.................... }Personalizado; 
....................  
.................... typedef struct{ 
....................    float BN; 
....................    float AN; 
....................    float V0; 
....................    float Pt; 
....................    float RPT100; 
....................    int8 l; 
....................    int8 h; 
....................    float Prom; 
....................    float Temperature; 
....................    int8 Ajuste; 
....................    int8 Ajusten; 
....................    float promedio[80]; 
....................    float Gain; 
.................... }SensorPT100; 
....................  
.................... SensorPT100 Sensor[2]; 
.................... Personalizado CiclosPersonalizados[20]; 
.................... Claves Clave[10]; 
....................  
.................... #include "Funciones.h" 
....................  
.................... void BorraBuffer(void){ 
.................... RX_Buffer[0]=0; 
*
057FA:  CLRF   30
.................... RX_Buffer[1]=0; 
057FC:  CLRF   31
.................... RX_Buffer[2]=0; 
057FE:  CLRF   32
.................... RX_Buffer[3]=0; 
05800:  CLRF   33
.................... RX_Buffer[4]=0; 
05802:  CLRF   34
.................... RX_Buffer[5]=0; 
05804:  CLRF   35
.................... RX_Buffer[6]=0; 
05806:  CLRF   36
.................... RX_Buffer[7]=0; 
05808:  CLRF   37
.................... RX_Buffer[8]=0; 
0580A:  CLRF   38
.................... RX_Buffer[9]=0; 
0580C:  CLRF   39
....................  
.................... RX_Buffer2[0]=0; 
0580E:  CLRF   3B
.................... RX_Buffer2[1]=0; 
05810:  CLRF   3C
.................... RX_Buffer2[2]=0; 
05812:  CLRF   3D
.................... RX_Buffer2[3]=0; 
05814:  CLRF   3E
.................... RX_Buffer2[4]=0; 
05816:  CLRF   3F
.................... RX_Buffer2[5]=0; 
05818:  CLRF   40
.................... RX_Buffer2[6]=0; 
0581A:  CLRF   41
.................... RX_Buffer2[7]=0; 
0581C:  CLRF   42
.................... RX_Buffer2[8]=0; 
0581E:  CLRF   43
.................... RX_Buffer2[9]=0; 
05820:  CLRF   44
.................... } 
05822:  GOTO   588E (RETURN)
....................  
.................... void SendDataDisplay(void){ 
.................... delay_us(10); 
*
0402C:  MOVLW  10
0402E:  MOVWF  00
04030:  DECFSZ 00,F
04032:  BRA    4030
04034:  NOP   
.................... putc(0xFF); 
04036:  MOVLW  FF
04038:  RCALL  4024
.................... delay_us(10); 
0403A:  MOVLW  10
0403C:  MOVWF  00
0403E:  DECFSZ 00,F
04040:  BRA    403E
04042:  NOP   
.................... putc(0xFF); 
04044:  MOVLW  FF
04046:  RCALL  4024
.................... delay_us(10); 
04048:  MOVLW  10
0404A:  MOVWF  00
0404C:  DECFSZ 00,F
0404E:  BRA    404C
04050:  NOP   
.................... putc(0xFF); 
04052:  MOVLW  FF
04054:  RCALL  4024
.................... delay_us(10); 
04056:  MOVLW  10
04058:  MOVWF  00
0405A:  DECFSZ 00,F
0405C:  BRA    405A
0405E:  NOP   
.................... } 
04060:  RETLW  00
....................  
.................... short esBisiesto(int8 year) { 
....................      return ((year % 4 == 0 && year % 100 != 0) || year % 400 == 0); 
*
05E68:  MOVLB  6
05E6A:  MOVF   xB0,W
05E6C:  ANDLW  03
05E6E:  BNZ   5E82
05E70:  MOVFF  6B0,6B9
05E74:  MOVLW  64
05E76:  MOVWF  xBA
05E78:  MOVLB  0
05E7A:  RCALL  59EC
05E7C:  MOVF   00,F
05E7E:  BNZ   5EB0
05E80:  MOVLB  6
05E82:  CLRF   xB5
05E84:  MOVFF  6B0,6B4
05E88:  MOVLW  01
05E8A:  MOVWF  xB7
05E8C:  MOVLW  90
05E8E:  MOVWF  xB6
05E90:  MOVLB  0
05E92:  RCALL  5E22
05E94:  MOVFF  00,6B1
05E98:  MOVLB  6
05E9A:  MOVFF  03,6B2
05E9E:  MOVF   xB1,F
05EA0:  BNZ   5EAC
05EA2:  MOVF   xB2,F
05EA4:  BTFSS  FD8.2
05EA6:  BRA    5EAC
05EA8:  MOVLB  0
05EAA:  BRA    5EB0
05EAC:  MOVLW  00
05EAE:  BRA    5EB4
05EB0:  MOVLW  01
05EB2:  MOVLB  6
05EB4:  MOVWF  01
.................... } 
05EB6:  MOVLB  0
05EB8:  RETLW  00
....................  
.................... void LimitaDia(){ 
....................    if(MesTx>12) 
*
05FA6:  MOVLB  2
05FA8:  MOVF   xA6,W
05FAA:  SUBLW  0C
05FAC:  BC    5FB2
....................       MesTx=10; 
05FAE:  MOVLW  0A
05FB0:  MOVWF  xA6
....................    if(DiaTx>31) 
05FB2:  MOVF   xA7,W
05FB4:  SUBLW  1F
05FB6:  BC    5FBC
....................       DiaTx=16; 
05FB8:  MOVLW  10
05FBA:  MOVWF  xA7
....................    if(YearTx>99) 
05FBC:  MOVF   xA5,W
05FBE:  SUBLW  63
05FC0:  BC    5FC6
....................       YearTx=18;    
05FC2:  MOVLW  12
05FC4:  MOVWF  xA5
....................    if(HoraTx>24) 
05FC6:  MOVF   xA8,W
05FC8:  SUBLW  18
05FCA:  BC    5FD0
....................       HoraTx=11;       
05FCC:  MOVLW  0B
05FCE:  MOVWF  xA8
....................    if(MinutoTx>59) 
05FD0:  MOVF   xA9,W
05FD2:  SUBLW  3B
05FD4:  BC    5FDA
....................       MinutoTx=30;       
05FD6:  MOVLW  1E
05FD8:  MOVWF  xA9
....................     
....................       if(MesTx==2){ 
05FDA:  MOVF   xA6,W
05FDC:  SUBLW  02
05FDE:  BNZ   600A
....................          if(esBisiesto(YearTx)){ 
05FE0:  MOVFF  2A5,6B0
05FE4:  MOVLB  0
05FE6:  RCALL  5E68
05FE8:  MOVF   01,F
05FEA:  BZ    5FFC
....................             if(DiaTx>29){ 
05FEC:  MOVLB  2
05FEE:  MOVF   xA7,W
05FF0:  SUBLW  1D
05FF2:  BC    5FF8
....................                DiaTx=29; 
05FF4:  MOVLW  1D
05FF6:  MOVWF  xA7
....................                //glcd_fillScreen(OFF); 
....................             } 
....................          }else{ 
05FF8:  BRA    6008
05FFA:  MOVLB  0
....................             if(DiaTx>28){ 
05FFC:  MOVLB  2
05FFE:  MOVF   xA7,W
06000:  SUBLW  1C
06002:  BC    6008
....................                DiaTx=28; 
06004:  MOVLW  1C
06006:  MOVWF  xA7
....................                //glcd_fillScreen(OFF); 
....................             } 
....................          } 
....................       }else{ 
06008:  BRA    6034
....................          if(MesTx<=7){ 
0600A:  MOVF   xA6,W
0600C:  SUBLW  07
0600E:  BNC   6022
....................             if(MesTx % 2 ==0){ 
06010:  MOVF   xA6,W
06012:  ANDLW  01
06014:  BNZ   6020
....................                if(DiaTx>30){ 
06016:  MOVF   xA7,W
06018:  SUBLW  1E
0601A:  BC    6020
....................                   DiaTx=30;  
0601C:  MOVLW  1E
0601E:  MOVWF  xA7
....................                   //glcd_fillScreen(OFF); 
....................                } 
....................             } 
....................          }else{ 
06020:  BRA    6034
....................             if(MesTx % 2 ==1){ 
06022:  MOVF   xA6,W
06024:  ANDLW  01
06026:  SUBLW  01
06028:  BNZ   6034
....................                if(DiaTx>30){ 
0602A:  MOVF   xA7,W
0602C:  SUBLW  1E
0602E:  BC    6034
....................                   DiaTx=30;  
06030:  MOVLW  1E
06032:  MOVWF  xA7
....................                   //glcd_fillScreen(OFF); 
....................                } 
....................             } 
....................          } 
....................       } 
.................... } 
06034:  MOVLB  0
06036:  GOTO   A2DE (RETURN)
....................  
.................... void ActualizaRecta(){ 
....................    X[y]=Temperature; 
*
0718C:  MOVLB  2
0718E:  MOVF   x8E,W
07190:  MULLW  04
07192:  MOVF   FF3,W
07194:  CLRF   03
07196:  ADDLW  E3
07198:  MOVWF  FE9
0719A:  MOVLW  01
0719C:  ADDWFC 03,W
0719E:  MOVWF  FEA
071A0:  MOVFF  215,FEF
071A4:  MOVFF  216,FEC
071A8:  MOVFF  217,FEC
071AC:  MOVFF  218,FEC
....................    y++; 
071B0:  INCF   x8E,F
....................    if(y>=2){ 
071B2:  MOVF   x8E,W
071B4:  SUBLW  01
071B6:  BC    71F4
....................       y=0; 
071B8:  CLRF   x8E
....................       Aumento=X[1]-X[0]; 
071BA:  BSF    FD8.1
071BC:  MOVFF  1EA,6C5
071C0:  MOVFF  1E9,6C4
071C4:  MOVFF  1E8,6C3
071C8:  MOVFF  1E7,6C2
071CC:  MOVFF  1E6,6C9
071D0:  MOVFF  1E5,6C8
071D4:  MOVFF  1E4,6C7
071D8:  MOVFF  1E3,6C6
071DC:  MOVLB  0
071DE:  CALL   2100
071E2:  MOVFF  03,1C2
071E6:  MOVFF  02,1C1
071EA:  MOVFF  01,1C0
071EE:  MOVFF  00,1BF
071F2:  MOVLB  2
....................    } 
.................... } 
071F4:  MOVLB  0
071F6:  GOTO   7272 (RETURN)
....................  
.................... // Funcion para conversor analogo-digital 
.................... float sensores(int x){ 
.................... float y;set_adc_channel(x);delay_ms(1);y=read_adc();return (y); 
*
04160:  MOVLB  6
04162:  RLCF   xB6,W
04164:  MOVWF  00
04166:  RLCF   00,F
04168:  MOVLW  FC
0416A:  ANDWF  00,F
0416C:  MOVFF  00,01
04170:  MOVF   FC2,W
04172:  ANDLW  C3
04174:  IORWF  00,W
04176:  MOVWF  FC2
04178:  MOVLW  01
0417A:  MOVWF  xC2
0417C:  MOVLB  0
0417E:  CALL   1F7A
04182:  BSF    FC2.1
04184:  BTFSC  FC2.1
04186:  BRA    4184
04188:  MOVFF  FC4,6C3
0418C:  MOVFF  FC3,6C2
04190:  MOVLB  0
04192:  CALL   1F44
04196:  MOVFF  03,6BA
0419A:  MOVFF  02,6B9
0419E:  MOVFF  01,6B8
041A2:  MOVFF  00,6B7
041A6:  MOVFF  6B7,00
041AA:  MOVFF  6B8,01
041AE:  MOVFF  6B9,02
041B2:  MOVFF  6BA,03
.................... } 
041B6:  RETLW  00
....................  
.................... float LeerPT100(int8 canal,int media) 
.................... { 
....................    Prom=0.0;  
041B8:  MOVLB  2
041BA:  CLRF   x14
041BC:  CLRF   x13
041BE:  CLRF   x12
041C0:  CLRF   x11
....................    Sensor[canal].V0 = sensores(canal);   //Lectura de Divisor de Voltaje de PT100 con resistencia de 6.18k (+-2%) 
041C2:  MOVLB  6
041C4:  CLRF   xBB
041C6:  MOVFF  6B2,6BA
041CA:  MOVLW  01
041CC:  MOVWF  xBD
041CE:  MOVLW  64
041D0:  MOVWF  xBC
041D2:  MOVLB  0
041D4:  CALL   23EC
041D8:  MOVFF  01,6B4
041DC:  MOVLW  08
041DE:  MOVLB  6
041E0:  ADDWF  01,W
041E2:  MOVWF  01
041E4:  MOVLW  00
041E6:  ADDWFC 02,W
041E8:  MOVWF  03
041EA:  MOVF   01,W
041EC:  ADDLW  20
041EE:  MOVWF  01
041F0:  MOVLW  03
041F2:  ADDWFC 03,F
041F4:  MOVFF  01,6B4
041F8:  MOVFF  03,6B5
041FC:  MOVFF  6B2,6B6
04200:  MOVLB  0
04202:  RCALL  4160
04204:  MOVFF  6B5,FEA
04208:  MOVFF  6B4,FE9
0420C:  MOVFF  00,FEF
04210:  MOVFF  01,FEC
04214:  MOVFF  02,FEC
04218:  MOVFF  03,FEC
....................    Sensor[canal].V0 = Sensor[canal].V0/Sensor[canal].Gain; // Se elimina la ganancia 
0421C:  MOVLB  6
0421E:  CLRF   xBB
04220:  MOVFF  6B2,6BA
04224:  MOVLW  01
04226:  MOVWF  xBD
04228:  MOVLW  64
0422A:  MOVWF  xBC
0422C:  MOVLB  0
0422E:  CALL   23EC
04232:  MOVFF  01,6B4
04236:  MOVLW  08
04238:  MOVLB  6
0423A:  ADDWF  01,W
0423C:  MOVWF  01
0423E:  MOVLW  00
04240:  ADDWFC 02,W
04242:  MOVWF  03
04244:  MOVF   01,W
04246:  ADDLW  20
04248:  MOVWF  01
0424A:  MOVLW  03
0424C:  ADDWFC 03,F
0424E:  MOVFF  01,6B4
04252:  MOVFF  03,6B5
04256:  CLRF   xBB
04258:  MOVFF  6B2,6BA
0425C:  MOVLW  01
0425E:  MOVWF  xBD
04260:  MOVLW  64
04262:  MOVWF  xBC
04264:  MOVLB  0
04266:  CALL   23EC
0426A:  MOVFF  01,6B6
0426E:  MOVLW  08
04270:  MOVLB  6
04272:  ADDWF  01,W
04274:  MOVWF  01
04276:  MOVLW  00
04278:  ADDWFC 02,W
0427A:  MOVWF  03
0427C:  MOVF   01,W
0427E:  ADDLW  20
04280:  MOVWF  FE9
04282:  MOVLW  03
04284:  ADDWFC 03,W
04286:  MOVWF  FEA
04288:  MOVFF  FEF,6B6
0428C:  MOVFF  FEC,6B7
04290:  MOVFF  FEC,6B8
04294:  MOVFF  FEC,6B9
04298:  CLRF   xBB
0429A:  MOVFF  6B2,6BA
0429E:  MOVLW  01
042A0:  MOVWF  xBD
042A2:  MOVLW  64
042A4:  MOVWF  xBC
042A6:  MOVLB  0
042A8:  CALL   23EC
042AC:  MOVFF  02,6BB
042B0:  MOVFF  01,6BA
042B4:  MOVLW  60
042B6:  MOVLB  6
042B8:  ADDWF  01,W
042BA:  MOVWF  01
042BC:  MOVLW  01
042BE:  ADDWFC 02,W
042C0:  MOVWF  03
042C2:  MOVF   01,W
042C4:  ADDLW  20
042C6:  MOVWF  FE9
042C8:  MOVLW  03
042CA:  ADDWFC 03,W
042CC:  MOVWF  FEA
042CE:  MOVFF  FEF,00
042D2:  MOVFF  FEC,01
042D6:  MOVFF  FEC,02
042DA:  MOVFF  FEC,03
042DE:  MOVFF  6B9,6BF
042E2:  MOVFF  6B8,6BE
042E6:  MOVFF  6B7,6BD
042EA:  MOVFF  6B6,6BC
042EE:  MOVFF  03,6C3
042F2:  MOVFF  02,6C2
042F6:  MOVFF  01,6C1
042FA:  MOVFF  00,6C0
042FE:  MOVLB  0
04300:  CALL   1FA2
04304:  MOVFF  6B5,FEA
04308:  MOVFF  6B4,FE9
0430C:  MOVFF  00,FEF
04310:  MOVFF  01,FEC
04314:  MOVFF  02,FEC
04318:  MOVFF  03,FEC
....................    Sensor[canal].V0 = Sensor[canal].V0+14.83; // Se suma voltaje de divisor fijo 
0431C:  MOVLB  6
0431E:  CLRF   xBB
04320:  MOVFF  6B2,6BA
04324:  MOVLW  01
04326:  MOVWF  xBD
04328:  MOVLW  64
0432A:  MOVWF  xBC
0432C:  MOVLB  0
0432E:  CALL   23EC
04332:  MOVFF  01,6B4
04336:  MOVLW  08
04338:  MOVLB  6
0433A:  ADDWF  01,W
0433C:  MOVWF  01
0433E:  MOVLW  00
04340:  ADDWFC 02,W
04342:  MOVWF  03
04344:  MOVF   01,W
04346:  ADDLW  20
04348:  MOVWF  01
0434A:  MOVLW  03
0434C:  ADDWFC 03,F
0434E:  MOVFF  01,6B4
04352:  MOVFF  03,6B5
04356:  CLRF   xBB
04358:  MOVFF  6B2,6BA
0435C:  MOVLW  01
0435E:  MOVWF  xBD
04360:  MOVLW  64
04362:  MOVWF  xBC
04364:  MOVLB  0
04366:  CALL   23EC
0436A:  MOVFF  01,6B6
0436E:  MOVLW  08
04370:  MOVLB  6
04372:  ADDWF  01,W
04374:  MOVWF  01
04376:  MOVLW  00
04378:  ADDWFC 02,W
0437A:  MOVWF  03
0437C:  MOVF   01,W
0437E:  ADDLW  20
04380:  MOVWF  FE9
04382:  MOVLW  03
04384:  ADDWFC 03,W
04386:  MOVWF  FEA
04388:  MOVFF  FEF,6B6
0438C:  MOVFF  FEC,6B7
04390:  MOVFF  FEC,6B8
04394:  MOVFF  FEC,6B9
04398:  MOVFF  FEA,6BB
0439C:  MOVFF  FE9,6BA
043A0:  BCF    FD8.1
043A2:  MOVFF  6B9,6C5
043A6:  MOVFF  6B8,6C4
043AA:  MOVFF  6B7,6C3
043AE:  MOVFF  6B6,6C2
043B2:  MOVLW  AE
043B4:  MOVWF  xC9
043B6:  MOVLW  47
043B8:  MOVWF  xC8
043BA:  MOVLW  6D
043BC:  MOVWF  xC7
043BE:  MOVLW  82
043C0:  MOVWF  xC6
043C2:  MOVLB  0
043C4:  CALL   2100
043C8:  MOVFF  6BB,FEA
043CC:  MOVFF  6BA,FE9
043D0:  MOVFF  6B5,FEA
043D4:  MOVFF  6B4,FE9
043D8:  MOVFF  00,FEF
043DC:  MOVFF  01,FEC
043E0:  MOVFF  02,FEC
043E4:  MOVFF  03,FEC
....................    //Sensor[canal].BN=(Sensor[canal].V0*(R8+R9))+(1023*R9); 
....................    Sensor[canal].Pt = R10/((1023/Sensor[canal].V0)-1); 
043E8:  MOVLB  6
043EA:  CLRF   xBB
043EC:  MOVFF  6B2,6BA
043F0:  MOVLW  01
043F2:  MOVWF  xBD
043F4:  MOVLW  64
043F6:  MOVWF  xBC
043F8:  MOVLB  0
043FA:  CALL   23EC
043FE:  MOVFF  01,6B4
04402:  MOVLW  0C
04404:  MOVLB  6
04406:  ADDWF  01,W
04408:  MOVWF  01
0440A:  MOVLW  00
0440C:  ADDWFC 02,W
0440E:  MOVWF  03
04410:  MOVF   01,W
04412:  ADDLW  20
04414:  MOVWF  01
04416:  MOVLW  03
04418:  ADDWFC 03,F
0441A:  MOVFF  01,6B4
0441E:  MOVFF  03,6B5
04422:  CLRF   xBB
04424:  MOVFF  6B2,6BA
04428:  MOVLW  01
0442A:  MOVWF  xBD
0442C:  MOVLW  64
0442E:  MOVWF  xBC
04430:  MOVLB  0
04432:  CALL   23EC
04436:  MOVFF  02,6B7
0443A:  MOVFF  01,6B6
0443E:  MOVLW  08
04440:  MOVLB  6
04442:  ADDWF  01,W
04444:  MOVWF  01
04446:  MOVLW  00
04448:  ADDWFC 02,W
0444A:  MOVWF  03
0444C:  MOVF   01,W
0444E:  ADDLW  20
04450:  MOVWF  FE9
04452:  MOVLW  03
04454:  ADDWFC 03,W
04456:  MOVWF  FEA
04458:  MOVFF  FEF,00
0445C:  MOVFF  FEC,01
04460:  MOVFF  FEC,02
04464:  MOVFF  FEC,03
04468:  CLRF   xBF
0446A:  MOVLW  C0
0446C:  MOVWF  xBE
0446E:  MOVLW  7F
04470:  MOVWF  xBD
04472:  MOVLW  88
04474:  MOVWF  xBC
04476:  MOVFF  03,6C3
0447A:  MOVFF  02,6C2
0447E:  MOVFF  01,6C1
04482:  MOVFF  00,6C0
04486:  MOVLB  0
04488:  CALL   1FA2
0448C:  MOVFF  00,6B6
04490:  MOVFF  01,6B7
04494:  MOVFF  02,6B8
04498:  MOVFF  03,6B9
0449C:  MOVFF  FEA,6BB
044A0:  MOVFF  FE9,6BA
044A4:  BSF    FD8.1
044A6:  MOVFF  03,6C5
044AA:  MOVFF  02,6C4
044AE:  MOVFF  01,6C3
044B2:  MOVFF  00,6C2
044B6:  MOVLB  6
044B8:  CLRF   xC9
044BA:  CLRF   xC8
044BC:  CLRF   xC7
044BE:  MOVLW  7F
044C0:  MOVWF  xC6
044C2:  MOVLB  0
044C4:  CALL   2100
044C8:  MOVFF  6BB,FEA
044CC:  MOVFF  6BA,FE9
044D0:  MOVFF  1DA,6BF
044D4:  MOVFF  1D9,6BE
044D8:  MOVFF  1D8,6BD
044DC:  MOVFF  1D7,6BC
044E0:  MOVFF  03,6C3
044E4:  MOVFF  02,6C2
044E8:  MOVFF  01,6C1
044EC:  MOVFF  00,6C0
044F0:  CALL   1FA2
044F4:  MOVFF  6B5,FEA
044F8:  MOVFF  6B4,FE9
044FC:  MOVFF  00,FEF
04500:  MOVFF  01,FEC
04504:  MOVFF  02,FEC
04508:  MOVFF  03,FEC
....................    //Sensor[canal].Pt=Sensor[canal].Pt-Sensor[canal].RPT100; //Ajuste de impedancia de cableado de PT100    
....................              
....................    if(Sensor[canal].l>(media-1)) 
0450C:  MOVLB  6
0450E:  CLRF   xBB
04510:  MOVFF  6B2,6BA
04514:  MOVLW  01
04516:  MOVWF  xBD
04518:  MOVLW  64
0451A:  MOVWF  xBC
0451C:  MOVLB  0
0451E:  CALL   23EC
04522:  MOVFF  02,6B5
04526:  MOVFF  01,6B4
0452A:  MOVLW  14
0452C:  MOVLB  6
0452E:  ADDWF  01,W
04530:  MOVWF  01
04532:  MOVLW  00
04534:  ADDWFC 02,W
04536:  MOVWF  03
04538:  MOVF   01,W
0453A:  ADDLW  20
0453C:  MOVWF  FE9
0453E:  MOVLW  03
04540:  ADDWFC 03,W
04542:  MOVWF  FEA
04544:  MOVFF  FEF,6B4
04548:  MOVLW  01
0454A:  SUBWF  xB3,W
0454C:  SUBWF  xB4,W
0454E:  BZ    4586
04550:  BNC   4586
....................    {Sensor[canal].l=0;} 
04552:  CLRF   xBB
04554:  MOVFF  6B2,6BA
04558:  MOVLW  01
0455A:  MOVWF  xBD
0455C:  MOVLW  64
0455E:  MOVWF  xBC
04560:  MOVLB  0
04562:  CALL   23EC
04566:  MOVFF  01,6B4
0456A:  MOVLW  14
0456C:  MOVLB  6
0456E:  ADDWF  01,W
04570:  MOVWF  01
04572:  MOVLW  00
04574:  ADDWFC 02,W
04576:  MOVWF  03
04578:  MOVF   01,W
0457A:  ADDLW  20
0457C:  MOVWF  FE9
0457E:  MOVLW  03
04580:  ADDWFC 03,W
04582:  MOVWF  FEA
04584:  CLRF   FEF
....................     
....................    Sensor[canal].promedio[Sensor[canal].l]=Sensor[canal].Pt;Sensor[canal].l++; 
04586:  CLRF   xBB
04588:  MOVFF  6B2,6BA
0458C:  MOVLW  01
0458E:  MOVWF  xBD
04590:  MOVLW  64
04592:  MOVWF  xBC
04594:  MOVLB  0
04596:  CALL   23EC
0459A:  MOVFF  02,6B5
0459E:  MOVFF  01,6B4
045A2:  MOVLW  20
045A4:  MOVLB  6
045A6:  ADDWF  xB4,F
045A8:  MOVLW  00
045AA:  ADDWFC xB5,F
045AC:  CLRF   xBB
045AE:  MOVFF  6B2,6BA
045B2:  MOVLW  01
045B4:  MOVWF  xBD
045B6:  MOVLW  64
045B8:  MOVWF  xBC
045BA:  MOVLB  0
045BC:  CALL   23EC
045C0:  MOVFF  02,6B7
045C4:  MOVFF  01,6B6
045C8:  MOVLW  14
045CA:  MOVLB  6
045CC:  ADDWF  01,W
045CE:  MOVWF  01
045D0:  MOVLW  00
045D2:  ADDWFC 02,W
045D4:  MOVWF  03
045D6:  MOVF   01,W
045D8:  ADDLW  20
045DA:  MOVWF  FE9
045DC:  MOVLW  03
045DE:  ADDWFC 03,W
045E0:  MOVWF  FEA
045E2:  CLRF   xBB
045E4:  MOVFF  FEF,6BA
045E8:  CLRF   xBD
045EA:  MOVLW  04
045EC:  MOVWF  xBC
045EE:  MOVLB  0
045F0:  CALL   23EC
045F4:  MOVFF  02,03
045F8:  MOVF   01,W
045FA:  MOVLB  6
045FC:  ADDWF  xB4,W
045FE:  MOVWF  01
04600:  MOVF   xB5,W
04602:  ADDWFC 03,F
04604:  MOVF   01,W
04606:  ADDLW  20
04608:  MOVWF  01
0460A:  MOVLW  03
0460C:  ADDWFC 03,F
0460E:  MOVFF  01,6B4
04612:  MOVFF  03,6B5
04616:  CLRF   xBB
04618:  MOVFF  6B2,6BA
0461C:  MOVLW  01
0461E:  MOVWF  xBD
04620:  MOVLW  64
04622:  MOVWF  xBC
04624:  MOVLB  0
04626:  CALL   23EC
0462A:  MOVFF  02,6B7
0462E:  MOVFF  01,6B6
04632:  MOVLW  0C
04634:  MOVLB  6
04636:  ADDWF  01,W
04638:  MOVWF  01
0463A:  MOVLW  00
0463C:  ADDWFC 02,W
0463E:  MOVWF  03
04640:  MOVF   01,W
04642:  ADDLW  20
04644:  MOVWF  FE9
04646:  MOVLW  03
04648:  ADDWFC 03,W
0464A:  MOVWF  FEA
0464C:  MOVFF  FEF,00
04650:  MOVFF  FEC,01
04654:  MOVFF  FEC,02
04658:  MOVFF  FEC,03
0465C:  MOVFF  6B5,FEA
04660:  MOVFF  6B4,FE9
04664:  MOVFF  00,FEF
04668:  MOVFF  01,FEC
0466C:  MOVFF  02,FEC
04670:  MOVFF  03,FEC
04674:  CLRF   xBB
04676:  MOVFF  6B2,6BA
0467A:  MOVLW  01
0467C:  MOVWF  xBD
0467E:  MOVLW  64
04680:  MOVWF  xBC
04682:  MOVLB  0
04684:  CALL   23EC
04688:  MOVFF  01,6B4
0468C:  MOVLW  14
0468E:  MOVLB  6
04690:  ADDWF  01,W
04692:  MOVWF  01
04694:  MOVLW  00
04696:  ADDWFC 02,W
04698:  MOVWF  03
0469A:  MOVF   01,W
0469C:  ADDLW  20
0469E:  MOVWF  FE9
046A0:  MOVLW  03
046A2:  ADDWFC 03,W
046A4:  MOVWF  FEA
046A6:  INCF   FEF,F
....................           
....................    for(Sensor[canal].h=0;Sensor[canal].h<media;Sensor[canal].h++) 
046A8:  CLRF   xBB
046AA:  MOVFF  6B2,6BA
046AE:  MOVLW  01
046B0:  MOVWF  xBD
046B2:  MOVLW  64
046B4:  MOVWF  xBC
046B6:  MOVLB  0
046B8:  CALL   23EC
046BC:  MOVFF  02,6B5
046C0:  MOVFF  01,6B4
046C4:  MOVLW  15
046C6:  MOVLB  6
046C8:  ADDWF  01,W
046CA:  MOVWF  01
046CC:  MOVLW  00
046CE:  ADDWFC 02,W
046D0:  MOVWF  03
046D2:  MOVF   01,W
046D4:  ADDLW  20
046D6:  MOVWF  FE9
046D8:  MOVLW  03
046DA:  ADDWFC 03,W
046DC:  MOVWF  FEA
046DE:  CLRF   FEF
046E0:  CLRF   xBB
046E2:  MOVFF  6B2,6BA
046E6:  MOVLW  01
046E8:  MOVWF  xBD
046EA:  MOVLW  64
046EC:  MOVWF  xBC
046EE:  MOVLB  0
046F0:  CALL   23EC
046F4:  MOVFF  02,6B5
046F8:  MOVFF  01,6B4
046FC:  MOVLW  15
046FE:  MOVLB  6
04700:  ADDWF  01,W
04702:  MOVWF  01
04704:  MOVLW  00
04706:  ADDWFC 02,W
04708:  MOVWF  03
0470A:  MOVF   01,W
0470C:  ADDLW  20
0470E:  MOVWF  FE9
04710:  MOVLW  03
04712:  ADDWFC 03,W
04714:  MOVWF  FEA
04716:  MOVF   xB3,W
04718:  SUBWF  FEF,W
0471A:  BTFSC  FD8.0
0471C:  BRA    483C
....................    { 
....................       Prom+=Sensor[canal].promedio[Sensor[canal].h]; 
0471E:  CLRF   xBB
04720:  MOVFF  6B2,6BA
04724:  MOVLW  01
04726:  MOVWF  xBD
04728:  MOVLW  64
0472A:  MOVWF  xBC
0472C:  MOVLB  0
0472E:  CALL   23EC
04732:  MOVFF  02,6B5
04736:  MOVFF  01,6B4
0473A:  MOVLW  20
0473C:  MOVLB  6
0473E:  ADDWF  xB4,F
04740:  MOVLW  00
04742:  ADDWFC xB5,F
04744:  CLRF   xBB
04746:  MOVFF  6B2,6BA
0474A:  MOVLW  01
0474C:  MOVWF  xBD
0474E:  MOVLW  64
04750:  MOVWF  xBC
04752:  MOVLB  0
04754:  CALL   23EC
04758:  MOVFF  02,6B7
0475C:  MOVFF  01,6B6
04760:  MOVLW  15
04762:  MOVLB  6
04764:  ADDWF  01,W
04766:  MOVWF  01
04768:  MOVLW  00
0476A:  ADDWFC 02,W
0476C:  MOVWF  03
0476E:  MOVF   01,W
04770:  ADDLW  20
04772:  MOVWF  FE9
04774:  MOVLW  03
04776:  ADDWFC 03,W
04778:  MOVWF  FEA
0477A:  CLRF   xBB
0477C:  MOVFF  FEF,6BA
04780:  CLRF   xBD
04782:  MOVLW  04
04784:  MOVWF  xBC
04786:  MOVLB  0
04788:  CALL   23EC
0478C:  MOVFF  02,03
04790:  MOVF   01,W
04792:  MOVLB  6
04794:  ADDWF  xB4,W
04796:  MOVWF  01
04798:  MOVF   xB5,W
0479A:  ADDWFC 03,F
0479C:  MOVF   01,W
0479E:  ADDLW  20
047A0:  MOVWF  FE9
047A2:  MOVLW  03
047A4:  ADDWFC 03,W
047A6:  MOVWF  FEA
047A8:  MOVFF  FEF,00
047AC:  MOVFF  FEC,01
047B0:  MOVFF  FEC,02
047B4:  MOVFF  FEC,03
047B8:  MOVFF  FEA,6B5
047BC:  MOVFF  FE9,6B4
047C0:  BCF    FD8.1
047C2:  MOVFF  214,6C5
047C6:  MOVFF  213,6C4
047CA:  MOVFF  212,6C3
047CE:  MOVFF  211,6C2
047D2:  MOVFF  03,6C9
047D6:  MOVFF  02,6C8
047DA:  MOVFF  01,6C7
047DE:  MOVFF  00,6C6
047E2:  MOVLB  0
047E4:  CALL   2100
047E8:  MOVFF  6B5,FEA
047EC:  MOVFF  6B4,FE9
047F0:  MOVFF  03,214
047F4:  MOVFF  02,213
047F8:  MOVFF  01,212
047FC:  MOVFF  00,211
....................    }  
04800:  MOVLB  6
04802:  CLRF   xBB
04804:  MOVFF  6B2,6BA
04808:  MOVLW  01
0480A:  MOVWF  xBD
0480C:  MOVLW  64
0480E:  MOVWF  xBC
04810:  MOVLB  0
04812:  CALL   23EC
04816:  MOVFF  02,6B5
0481A:  MOVFF  01,6B4
0481E:  MOVLW  15
04820:  MOVLB  6
04822:  ADDWF  01,W
04824:  MOVWF  01
04826:  MOVLW  00
04828:  ADDWFC 02,W
0482A:  MOVWF  03
0482C:  MOVF   01,W
0482E:  ADDLW  20
04830:  MOVWF  FE9
04832:  MOVLW  03
04834:  ADDWFC 03,W
04836:  MOVWF  FEA
04838:  INCF   FEF,F
0483A:  BRA    46E0
....................    Prom=Prom/media;    
0483C:  CLRF   xC3
0483E:  MOVFF  6B3,6C2
04842:  MOVLB  0
04844:  CALL   1F44
04848:  MOVFF  214,6BF
0484C:  MOVFF  213,6BE
04850:  MOVFF  212,6BD
04854:  MOVFF  211,6BC
04858:  MOVFF  03,6C3
0485C:  MOVFF  02,6C2
04860:  MOVFF  01,6C1
04864:  MOVFF  00,6C0
04868:  CALL   1FA2
0486C:  MOVFF  03,214
04870:  MOVFF  02,213
04874:  MOVFF  01,212
04878:  MOVFF  00,211
....................    //Temperature=(Prom-100.0)/(0.385);  // Ecuacin determinada por linealizacin en Matlab. Revisar este polinomio.   
....................    Temperature=((Prom*Prom)*a)+(Prom*b)+c;  // Ecuacin determinada por linealizacin en Matlab. Revisar este polinomio. 
0487C:  MOVFF  214,6C9
04880:  MOVFF  213,6C8
04884:  MOVFF  212,6C7
04888:  MOVFF  211,6C6
0488C:  MOVFF  214,6CD
04890:  MOVFF  213,6CC
04894:  MOVFF  212,6CB
04898:  MOVFF  211,6CA
0489C:  CALL   406A
048A0:  MOVFF  00,6B4
048A4:  MOVFF  01,6B5
048A8:  MOVFF  02,6B6
048AC:  MOVFF  03,6B7
048B0:  MOVFF  03,6C9
048B4:  MOVFF  02,6C8
048B8:  MOVFF  01,6C7
048BC:  MOVFF  00,6C6
048C0:  MOVFF  244,6CD
048C4:  MOVFF  243,6CC
048C8:  MOVFF  242,6CB
048CC:  MOVFF  241,6CA
048D0:  CALL   406A
048D4:  MOVFF  00,6B4
048D8:  MOVFF  01,6B5
048DC:  MOVFF  02,6B6
048E0:  MOVFF  03,6B7
048E4:  MOVFF  214,6C9
048E8:  MOVFF  213,6C8
048EC:  MOVFF  212,6C7
048F0:  MOVFF  211,6C6
048F4:  MOVFF  248,6CD
048F8:  MOVFF  247,6CC
048FC:  MOVFF  246,6CB
04900:  MOVFF  245,6CA
04904:  CALL   406A
04908:  BCF    FD8.1
0490A:  MOVFF  6B7,6C5
0490E:  MOVFF  6B6,6C4
04912:  MOVFF  6B5,6C3
04916:  MOVFF  6B4,6C2
0491A:  MOVFF  03,6C9
0491E:  MOVFF  02,6C8
04922:  MOVFF  01,6C7
04926:  MOVFF  00,6C6
0492A:  CALL   2100
0492E:  MOVFF  00,6B4
04932:  MOVFF  01,6B5
04936:  MOVFF  02,6B6
0493A:  MOVFF  03,6B7
0493E:  BCF    FD8.1
04940:  MOVFF  03,6C5
04944:  MOVFF  02,6C4
04948:  MOVFF  01,6C3
0494C:  MOVFF  00,6C2
04950:  MOVFF  24C,6C9
04954:  MOVFF  24B,6C8
04958:  MOVFF  24A,6C7
0495C:  MOVFF  249,6C6
04960:  CALL   2100
04964:  MOVFF  03,218
04968:  MOVFF  02,217
0496C:  MOVFF  01,216
04970:  MOVFF  00,215
....................    Temperature+=((float)Sensor[canal].Ajuste-(float)Sensor[canal].Ajusten); 
04974:  MOVLB  6
04976:  CLRF   xBB
04978:  MOVFF  6B2,6BA
0497C:  MOVLW  01
0497E:  MOVWF  xBD
04980:  MOVLW  64
04982:  MOVWF  xBC
04984:  MOVLB  0
04986:  CALL   23EC
0498A:  MOVFF  02,6B5
0498E:  MOVFF  01,6B4
04992:  MOVLW  1E
04994:  MOVLB  6
04996:  ADDWF  01,W
04998:  MOVWF  01
0499A:  MOVLW  00
0499C:  ADDWFC 02,W
0499E:  MOVWF  03
049A0:  MOVF   01,W
049A2:  ADDLW  20
049A4:  MOVWF  FE9
049A6:  MOVLW  03
049A8:  ADDWFC 03,W
049AA:  MOVWF  FEA
049AC:  MOVF   FEF,W
049AE:  CLRF   xC3
049B0:  MOVWF  xC2
049B2:  MOVLB  0
049B4:  CALL   1F44
049B8:  MOVFF  00,6B4
049BC:  MOVFF  01,6B5
049C0:  MOVFF  02,6B6
049C4:  MOVFF  03,6B7
049C8:  MOVLB  6
049CA:  CLRF   xBB
049CC:  MOVFF  6B2,6BA
049D0:  MOVLW  01
049D2:  MOVWF  xBD
049D4:  MOVLW  64
049D6:  MOVWF  xBC
049D8:  MOVLB  0
049DA:  CALL   23EC
049DE:  MOVFF  02,6B9
049E2:  MOVFF  01,6B8
049E6:  MOVLW  1F
049E8:  MOVLB  6
049EA:  ADDWF  01,W
049EC:  MOVWF  01
049EE:  MOVLW  00
049F0:  ADDWFC 02,W
049F2:  MOVWF  03
049F4:  MOVF   01,W
049F6:  ADDLW  20
049F8:  MOVWF  FE9
049FA:  MOVLW  03
049FC:  ADDWFC 03,W
049FE:  MOVWF  FEA
04A00:  MOVF   FEF,W
04A02:  CLRF   xC3
04A04:  MOVWF  xC2
04A06:  MOVLB  0
04A08:  CALL   1F44
04A0C:  MOVFF  FEA,6B9
04A10:  MOVFF  FE9,6B8
04A14:  BSF    FD8.1
04A16:  MOVFF  6B7,6C5
04A1A:  MOVFF  6B6,6C4
04A1E:  MOVFF  6B5,6C3
04A22:  MOVFF  6B4,6C2
04A26:  MOVFF  03,6C9
04A2A:  MOVFF  02,6C8
04A2E:  MOVFF  01,6C7
04A32:  MOVFF  00,6C6
04A36:  CALL   2100
04A3A:  MOVFF  6B9,FEA
04A3E:  MOVFF  6B8,FE9
04A42:  MOVFF  FEA,6B5
04A46:  MOVFF  FE9,6B4
04A4A:  BCF    FD8.1
04A4C:  MOVFF  218,6C5
04A50:  MOVFF  217,6C4
04A54:  MOVFF  216,6C3
04A58:  MOVFF  215,6C2
04A5C:  MOVFF  03,6C9
04A60:  MOVFF  02,6C8
04A64:  MOVFF  01,6C7
04A68:  MOVFF  00,6C6
04A6C:  CALL   2100
04A70:  MOVFF  6B5,FEA
04A74:  MOVFF  6B4,FE9
04A78:  MOVFF  03,218
04A7C:  MOVFF  02,217
04A80:  MOVFF  01,216
04A84:  MOVFF  00,215
....................     
....................    return Temperature; 
04A88:  MOVFF  215,00
04A8C:  MOVFF  216,01
04A90:  MOVFF  217,02
04A94:  MOVFF  218,03
.................... } 
04A98:  RETLW  00
....................  
.................... float Leer_Sensor_Presion_Camara(int8 media){ 
....................    promediopresion=0.0; 
*
05294:  MOVLB  1
05296:  CLRF   xEE
05298:  CLRF   xED
0529A:  CLRF   xEC
0529C:  CLRF   xEB
....................    V1 = sensores(5);   //Lectura de Divisor de Voltaje de PT100 con resistencia de 1k (+-10%) 
0529E:  MOVLW  05
052A0:  MOVLB  6
052A2:  MOVWF  xB6
052A4:  MOVLB  0
052A6:  CALL   4160
052AA:  MOVFF  03,22C
052AE:  MOVFF  02,22B
052B2:  MOVFF  01,22A
052B6:  MOVFF  00,229
....................    //V1 = V1*(5.0/1024.0); 
....................    //Presion=(V1-0.2)/(K); 
....................    Presion=(((V1)/1023)-0.04)/K; 
052BA:  MOVFF  22C,6BF
052BE:  MOVFF  22B,6BE
052C2:  MOVFF  22A,6BD
052C6:  MOVFF  229,6BC
052CA:  MOVLB  6
052CC:  CLRF   xC3
052CE:  MOVLW  C0
052D0:  MOVWF  xC2
052D2:  MOVLW  7F
052D4:  MOVWF  xC1
052D6:  MOVLW  88
052D8:  MOVWF  xC0
052DA:  MOVLB  0
052DC:  CALL   1FA2
052E0:  MOVFF  00,6B3
052E4:  MOVFF  01,6B4
052E8:  MOVFF  02,6B5
052EC:  MOVFF  03,6B6
052F0:  BSF    FD8.1
052F2:  MOVFF  03,6C5
052F6:  MOVFF  02,6C4
052FA:  MOVFF  01,6C3
052FE:  MOVFF  00,6C2
05302:  MOVLW  0A
05304:  MOVLB  6
05306:  MOVWF  xC9
05308:  MOVLW  D7
0530A:  MOVWF  xC8
0530C:  MOVLW  23
0530E:  MOVWF  xC7
05310:  MOVLW  7A
05312:  MOVWF  xC6
05314:  MOVLB  0
05316:  CALL   2100
0531A:  MOVFF  00,6B3
0531E:  MOVFF  01,6B4
05322:  MOVFF  02,6B5
05326:  MOVFF  03,6B6
0532A:  MOVFF  03,6BF
0532E:  MOVFF  02,6BE
05332:  MOVFF  01,6BD
05336:  MOVFF  00,6BC
0533A:  MOVFF  1CA,6C3
0533E:  MOVFF  1C9,6C2
05342:  MOVFF  1C8,6C1
05346:  MOVFF  1C7,6C0
0534A:  CALL   1FA2
0534E:  MOVFF  03,230
05352:  MOVFF  02,22F
05356:  MOVFF  01,22E
0535A:  MOVFF  00,22D
....................     
....................    if(Presion<0.0) 
0535E:  MOVFF  230,6B7
05362:  MOVFF  22F,6B6
05366:  MOVFF  22E,6B5
0536A:  MOVFF  22D,6B4
0536E:  MOVLB  6
05370:  CLRF   xBB
05372:  CLRF   xBA
05374:  CLRF   xB9
05376:  CLRF   xB8
05378:  MOVLB  0
0537A:  CALL   25D6
0537E:  BNC   538A
....................       Presion=0.0; 
05380:  MOVLB  2
05382:  CLRF   x30
05384:  CLRF   x2F
05386:  CLRF   x2E
05388:  CLRF   x2D
....................     
....................    if(r>media-1) 
0538A:  MOVLW  01
0538C:  MOVLB  6
0538E:  SUBWF  xB2,W
05390:  MOVLB  2
05392:  SUBWF  x88,W
05394:  BZ    539A
05396:  BNC   539A
....................       r=0; 
05398:  CLRF   x88
....................    PromPresion[r]=Presion;r++; 
0539A:  MOVF   x88,W
0539C:  MULLW  04
0539E:  MOVF   FF3,W
053A0:  CLRF   03
053A2:  ADDLW  1B
053A4:  MOVWF  FE9
053A6:  MOVLW  01
053A8:  ADDWFC 03,W
053AA:  MOVWF  FEA
053AC:  MOVFF  22D,FEF
053B0:  MOVFF  22E,FEC
053B4:  MOVFF  22F,FEC
053B8:  MOVFF  230,FEC
053BC:  INCF   x88,F
....................           
....................    for(t=0;t<=(media-1);t++) 
053BE:  CLRF   x89
053C0:  MOVLW  01
053C2:  MOVLB  6
053C4:  SUBWF  xB2,W
053C6:  MOVLB  2
053C8:  SUBWF  x89,W
053CA:  BZ    53CE
053CC:  BC    543E
....................       promediopresion+=PromPresion[t]; 
053CE:  MOVF   x89,W
053D0:  MULLW  04
053D2:  MOVF   FF3,W
053D4:  CLRF   03
053D6:  ADDLW  1B
053D8:  MOVWF  FE9
053DA:  MOVLW  01
053DC:  ADDWFC 03,W
053DE:  MOVWF  FEA
053E0:  MOVFF  FEF,00
053E4:  MOVFF  FEC,01
053E8:  MOVFF  FEC,02
053EC:  MOVFF  FEC,03
053F0:  MOVFF  FEA,6B4
053F4:  MOVFF  FE9,6B3
053F8:  BCF    FD8.1
053FA:  MOVFF  1EE,6C5
053FE:  MOVFF  1ED,6C4
05402:  MOVFF  1EC,6C3
05406:  MOVFF  1EB,6C2
0540A:  MOVFF  03,6C9
0540E:  MOVFF  02,6C8
05412:  MOVFF  01,6C7
05416:  MOVFF  00,6C6
0541A:  MOVLB  0
0541C:  CALL   2100
05420:  MOVFF  6B4,FEA
05424:  MOVFF  6B3,FE9
05428:  MOVFF  03,1EE
0542C:  MOVFF  02,1ED
05430:  MOVFF  01,1EC
05434:  MOVFF  00,1EB
05438:  MOVLB  2
0543A:  INCF   x89,F
0543C:  BRA    53C0
....................      
....................    promediopresion=promediopresion/media;    
0543E:  MOVLB  6
05440:  CLRF   xC3
05442:  MOVFF  6B2,6C2
05446:  MOVLB  0
05448:  CALL   1F44
0544C:  MOVFF  1EE,6BF
05450:  MOVFF  1ED,6BE
05454:  MOVFF  1EC,6BD
05458:  MOVFF  1EB,6BC
0545C:  MOVFF  03,6C3
05460:  MOVFF  02,6C2
05464:  MOVFF  01,6C1
05468:  MOVFF  00,6C0
0546C:  CALL   1FA2
05470:  MOVFF  03,1EE
05474:  MOVFF  02,1ED
05478:  MOVFF  01,1EC
0547C:  MOVFF  00,1EB
....................     
....................    return promediopresion; 
05480:  MOVFF  1EB,00
05484:  MOVFF  1EC,01
05488:  MOVFF  1ED,02
0548C:  MOVFF  1EE,03
.................... } 
05490:  GOTO   56F2 (RETURN)
....................  
.................... float Leer_Sensor_Presion_PreCamara(int8 media){ 
....................    promediopresionp=0.0; 
05494:  MOVLB  1
05496:  CLRF   xF2
05498:  CLRF   xF1
0549A:  CLRF   xF0
0549C:  CLRF   xEF
....................    V2 = sensores(4);   //Lectura de Divisor de Voltaje de PT100 con resistencia de 1k (+-10%) 
0549E:  MOVLW  04
054A0:  MOVLB  6
054A2:  MOVWF  xB6
054A4:  MOVLB  0
054A6:  CALL   4160
054AA:  MOVFF  03,234
054AE:  MOVFF  02,233
054B2:  MOVFF  01,232
054B6:  MOVFF  00,231
....................    //V2 = V2*(5.0/1024.0); 
....................    //Presionp=(V2-0.2)/(K); 
....................    Presionp=(((V2)/1023)-0.04)/K; 
054BA:  MOVFF  234,6BF
054BE:  MOVFF  233,6BE
054C2:  MOVFF  232,6BD
054C6:  MOVFF  231,6BC
054CA:  MOVLB  6
054CC:  CLRF   xC3
054CE:  MOVLW  C0
054D0:  MOVWF  xC2
054D2:  MOVLW  7F
054D4:  MOVWF  xC1
054D6:  MOVLW  88
054D8:  MOVWF  xC0
054DA:  MOVLB  0
054DC:  CALL   1FA2
054E0:  MOVFF  00,6B3
054E4:  MOVFF  01,6B4
054E8:  MOVFF  02,6B5
054EC:  MOVFF  03,6B6
054F0:  BSF    FD8.1
054F2:  MOVFF  03,6C5
054F6:  MOVFF  02,6C4
054FA:  MOVFF  01,6C3
054FE:  MOVFF  00,6C2
05502:  MOVLW  0A
05504:  MOVLB  6
05506:  MOVWF  xC9
05508:  MOVLW  D7
0550A:  MOVWF  xC8
0550C:  MOVLW  23
0550E:  MOVWF  xC7
05510:  MOVLW  7A
05512:  MOVWF  xC6
05514:  MOVLB  0
05516:  CALL   2100
0551A:  MOVFF  00,6B3
0551E:  MOVFF  01,6B4
05522:  MOVFF  02,6B5
05526:  MOVFF  03,6B6
0552A:  MOVFF  03,6BF
0552E:  MOVFF  02,6BE
05532:  MOVFF  01,6BD
05536:  MOVFF  00,6BC
0553A:  MOVFF  1CA,6C3
0553E:  MOVFF  1C9,6C2
05542:  MOVFF  1C8,6C1
05546:  MOVFF  1C7,6C0
0554A:  CALL   1FA2
0554E:  MOVFF  03,238
05552:  MOVFF  02,237
05556:  MOVFF  01,236
0555A:  MOVFF  00,235
....................     
....................    if(Presionp<0.0) 
0555E:  MOVFF  238,6B7
05562:  MOVFF  237,6B6
05566:  MOVFF  236,6B5
0556A:  MOVFF  235,6B4
0556E:  MOVLB  6
05570:  CLRF   xBB
05572:  CLRF   xBA
05574:  CLRF   xB9
05576:  CLRF   xB8
05578:  MOVLB  0
0557A:  CALL   25D6
0557E:  BNC   558A
....................       Presionp=0.0; 
05580:  MOVLB  2
05582:  CLRF   x38
05584:  CLRF   x37
05586:  CLRF   x36
05588:  CLRF   x35
....................     
....................    if(r22>media-1) 
0558A:  MOVLW  01
0558C:  MOVLB  6
0558E:  SUBWF  xB2,W
05590:  MOVLB  2
05592:  SUBWF  x8A,W
05594:  BZ    559A
05596:  BNC   559A
....................       r22=0; 
05598:  CLRF   x8A
....................    PromPresionp[r22]=Presionp;r22++; 
0559A:  MOVF   x8A,W
0559C:  MULLW  04
0559E:  MOVF   FF3,W
055A0:  CLRF   03
055A2:  ADDLW  6B
055A4:  MOVWF  FE9
055A6:  MOVLW  01
055A8:  ADDWFC 03,W
055AA:  MOVWF  FEA
055AC:  MOVFF  235,FEF
055B0:  MOVFF  236,FEC
055B4:  MOVFF  237,FEC
055B8:  MOVFF  238,FEC
055BC:  INCF   x8A,F
....................           
....................    for(t2=0;t2<=(media-1);t2++) 
055BE:  CLRF   x8B
055C0:  MOVLW  01
055C2:  MOVLB  6
055C4:  SUBWF  xB2,W
055C6:  MOVLB  2
055C8:  SUBWF  x8B,W
055CA:  BZ    55CE
055CC:  BC    563E
....................       promediopresionp+=PromPresionp[t2];  
055CE:  MOVF   x8B,W
055D0:  MULLW  04
055D2:  MOVF   FF3,W
055D4:  CLRF   03
055D6:  ADDLW  6B
055D8:  MOVWF  FE9
055DA:  MOVLW  01
055DC:  ADDWFC 03,W
055DE:  MOVWF  FEA
055E0:  MOVFF  FEF,00
055E4:  MOVFF  FEC,01
055E8:  MOVFF  FEC,02
055EC:  MOVFF  FEC,03
055F0:  MOVFF  FEA,6B4
055F4:  MOVFF  FE9,6B3
055F8:  BCF    FD8.1
055FA:  MOVFF  1F2,6C5
055FE:  MOVFF  1F1,6C4
05602:  MOVFF  1F0,6C3
05606:  MOVFF  1EF,6C2
0560A:  MOVFF  03,6C9
0560E:  MOVFF  02,6C8
05612:  MOVFF  01,6C7
05616:  MOVFF  00,6C6
0561A:  MOVLB  0
0561C:  CALL   2100
05620:  MOVFF  6B4,FEA
05624:  MOVFF  6B3,FE9
05628:  MOVFF  03,1F2
0562C:  MOVFF  02,1F1
05630:  MOVFF  01,1F0
05634:  MOVFF  00,1EF
05638:  MOVLB  2
0563A:  INCF   x8B,F
0563C:  BRA    55C0
....................        
....................    promediopresionp=promediopresionp/media;    
0563E:  MOVLB  6
05640:  CLRF   xC3
05642:  MOVFF  6B2,6C2
05646:  MOVLB  0
05648:  CALL   1F44
0564C:  MOVFF  1F2,6BF
05650:  MOVFF  1F1,6BE
05654:  MOVFF  1F0,6BD
05658:  MOVFF  1EF,6BC
0565C:  MOVFF  03,6C3
05660:  MOVFF  02,6C2
05664:  MOVFF  01,6C1
05668:  MOVFF  00,6C0
0566C:  CALL   1FA2
05670:  MOVFF  03,1F2
05674:  MOVFF  02,1F1
05678:  MOVFF  01,1F0
0567C:  MOVFF  00,1EF
....................     
....................    return promediopresionp; 
05680:  MOVFF  1EF,00
05684:  MOVFF  1F0,01
05688:  MOVFF  1F1,02
0568C:  MOVFF  1F2,03
.................... } 
05690:  GOTO   5718 (RETURN)
....................  
.................... void Controla(){ 
....................    if(tiemporecta>=Derivativo/2.0){ 
*
071FA:  MOVLB  6
071FC:  CLRF   xC3
071FE:  MOVFF  24E,6C2
07202:  MOVLB  0
07204:  CALL   1F44
07208:  MOVFF  03,6BF
0720C:  MOVFF  02,6BE
07210:  MOVFF  01,6BD
07214:  MOVFF  00,6BC
07218:  MOVLB  6
0721A:  CLRF   xC3
0721C:  CLRF   xC2
0721E:  CLRF   xC1
07220:  MOVLW  80
07222:  MOVWF  xC0
07224:  MOVLB  0
07226:  CALL   1FA2
0722A:  MOVFF  00,6B0
0722E:  MOVFF  01,6B1
07232:  MOVFF  02,6B2
07236:  MOVFF  03,6B3
0723A:  MOVLB  6
0723C:  CLRF   xC3
0723E:  MOVFF  251,6C2
07242:  MOVLB  0
07244:  CALL   1F44
07248:  MOVFF  6B3,6B7
0724C:  MOVFF  6B2,6B6
07250:  MOVFF  6B1,6B5
07254:  MOVFF  6B0,6B4
07258:  MOVFF  03,6BB
0725C:  MOVFF  02,6BA
07260:  MOVFF  01,6B9
07264:  MOVFF  00,6B8
07268:  CALL   25D6
0726C:  BC    7270
0726E:  BNZ   7276
....................       ActualizaRecta(); 
07270:  BRA    718C
....................       tiemporecta=0; 
07272:  MOVLB  2
07274:  CLRF   x51
....................    }  
.................... //-------------------------------Control de Calentamiento------------------------------------------------------------//          
....................    error=desvio+Setpoint-Temperatura;      // Clculo del error ****** 
07276:  MOVLB  6
07278:  CLRF   xC3
0727A:  MOVFF  267,6C2
0727E:  MOVLB  0
07280:  CALL   1F44
07284:  BCF    FD8.1
07286:  MOVFF  228,6C5
0728A:  MOVFF  227,6C4
0728E:  MOVFF  226,6C3
07292:  MOVFF  225,6C2
07296:  MOVFF  03,6C9
0729A:  MOVFF  02,6C8
0729E:  MOVFF  01,6C7
072A2:  MOVFF  00,6C6
072A6:  CALL   2100
072AA:  MOVFF  00,6B0
072AE:  MOVFF  01,6B1
072B2:  MOVFF  02,6B2
072B6:  MOVFF  03,6B3
072BA:  BSF    FD8.1
072BC:  MOVFF  03,6C5
072C0:  MOVFF  02,6C4
072C4:  MOVFF  01,6C3
072C8:  MOVFF  00,6C2
072CC:  MOVFF  23C,6C9
072D0:  MOVFF  23B,6C8
072D4:  MOVFF  23A,6C7
072D8:  MOVFF  239,6C6
072DC:  CALL   2100
072E0:  MOVFF  03,210
072E4:  MOVFF  02,20F
072E8:  MOVFF  01,20E
072EC:  MOVFF  00,20D
....................     
....................    if(error>1.0 && error<15 && Aumento<0.3){ 
072F0:  MOVLB  6
072F2:  CLRF   xB7
072F4:  CLRF   xB6
072F6:  CLRF   xB5
072F8:  MOVLW  7F
072FA:  MOVWF  xB4
072FC:  MOVFF  210,6BB
07300:  MOVFF  20F,6BA
07304:  MOVFF  20E,6B9
07308:  MOVFF  20D,6B8
0730C:  MOVLB  0
0730E:  CALL   25D6
07312:  BTFSS  FD8.0
07314:  BRA    74F4
07316:  MOVFF  210,6B7
0731A:  MOVFF  20F,6B6
0731E:  MOVFF  20E,6B5
07322:  MOVFF  20D,6B4
07326:  MOVLB  6
07328:  CLRF   xBB
0732A:  CLRF   xBA
0732C:  MOVLW  70
0732E:  MOVWF  xB9
07330:  MOVLW  82
07332:  MOVWF  xB8
07334:  MOVLB  0
07336:  CALL   25D6
0733A:  BTFSS  FD8.0
0733C:  BRA    74F4
0733E:  MOVFF  1C2,6B7
07342:  MOVFF  1C1,6B6
07346:  MOVFF  1C0,6B5
0734A:  MOVFF  1BF,6B4
0734E:  MOVLW  9A
07350:  MOVLB  6
07352:  MOVWF  xBB
07354:  MOVLW  99
07356:  MOVWF  xBA
07358:  MOVLW  19
0735A:  MOVWF  xB9
0735C:  MOVLW  7D
0735E:  MOVWF  xB8
07360:  MOVLB  0
07362:  CALL   25D6
07366:  BTFSS  FD8.0
07368:  BRA    74F4
....................       if(Tpulso<7.0){ 
0736A:  MOVFF  20C,6B7
0736E:  MOVFF  20B,6B6
07372:  MOVFF  20A,6B5
07376:  MOVFF  209,6B4
0737A:  MOVLB  6
0737C:  CLRF   xBB
0737E:  CLRF   xBA
07380:  MOVLW  60
07382:  MOVWF  xB9
07384:  MOVLW  81
07386:  MOVWF  xB8
07388:  MOVLB  0
0738A:  CALL   25D6
0738E:  BTFSS  FD8.0
07390:  BRA    74EE
....................          flagTC=1; 
07392:  MOVLB  1
07394:  BSF    x04.6
....................          if(TiempoControl>=Derivativo){ 
07396:  MOVLB  2
07398:  MOVF   x4E,W
0739A:  SUBWF  x8C,W
0739C:  BTFSS  FD8.0
0739E:  BRA    74EA
....................             TiempoControl=0; 
073A0:  CLRF   x8C
....................             if(Aumento<-0.5){ 
073A2:  MOVFF  1C2,6B7
073A6:  MOVFF  1C1,6B6
073AA:  MOVFF  1C0,6B5
073AE:  MOVFF  1BF,6B4
073B2:  MOVLB  6
073B4:  CLRF   xBB
073B6:  CLRF   xBA
073B8:  MOVLW  80
073BA:  MOVWF  xB9
073BC:  MOVLW  7E
073BE:  MOVWF  xB8
073C0:  MOVLB  0
073C2:  CALL   25D6
073C6:  BNC   7412
....................                Ganancia+=Integral+1; 
073C8:  MOVLW  01
073CA:  MOVLB  2
073CC:  ADDWF  x4D,W
073CE:  MOVLB  6
073D0:  CLRF   xC3
073D2:  MOVWF  xC2
073D4:  MOVLB  0
073D6:  CALL   1F44
073DA:  BCF    FD8.1
073DC:  MOVFF  220,6C5
073E0:  MOVFF  21F,6C4
073E4:  MOVFF  21E,6C3
073E8:  MOVFF  21D,6C2
073EC:  MOVFF  03,6C9
073F0:  MOVFF  02,6C8
073F4:  MOVFF  01,6C7
073F8:  MOVFF  00,6C6
073FC:  CALL   2100
07400:  MOVFF  03,220
07404:  MOVFF  02,21F
07408:  MOVFF  01,21E
0740C:  MOVFF  00,21D
....................             }else{ 
07410:  BRA    74E8
....................                if(Aumento<-0.1){ 
07412:  MOVFF  1C2,6B7
07416:  MOVFF  1C1,6B6
0741A:  MOVFF  1C0,6B5
0741E:  MOVFF  1BF,6B4
07422:  MOVLW  CD
07424:  MOVLB  6
07426:  MOVWF  xBB
07428:  MOVLW  CC
0742A:  MOVWF  xBA
0742C:  MOVWF  xB9
0742E:  MOVLW  7B
07430:  MOVWF  xB8
07432:  MOVLB  0
07434:  CALL   25D6
07438:  BNC   74A4
....................                   Ganancia+=Integral+0.5; 
0743A:  MOVLB  6
0743C:  CLRF   xC3
0743E:  MOVFF  24D,6C2
07442:  MOVLB  0
07444:  CALL   1F44
07448:  BCF    FD8.1
0744A:  MOVFF  03,6C5
0744E:  MOVFF  02,6C4
07452:  MOVFF  01,6C3
07456:  MOVFF  00,6C2
0745A:  MOVLB  6
0745C:  CLRF   xC9
0745E:  CLRF   xC8
07460:  CLRF   xC7
07462:  MOVLW  7E
07464:  MOVWF  xC6
07466:  MOVLB  0
07468:  CALL   2100
0746C:  BCF    FD8.1
0746E:  MOVFF  220,6C5
07472:  MOVFF  21F,6C4
07476:  MOVFF  21E,6C3
0747A:  MOVFF  21D,6C2
0747E:  MOVFF  03,6C9
07482:  MOVFF  02,6C8
07486:  MOVFF  01,6C7
0748A:  MOVFF  00,6C6
0748E:  CALL   2100
07492:  MOVFF  03,220
07496:  MOVFF  02,21F
0749A:  MOVFF  01,21E
0749E:  MOVFF  00,21D
....................                }else{ 
074A2:  BRA    74E8
....................                   Ganancia+=Integral; 
074A4:  MOVLB  6
074A6:  CLRF   xC3
074A8:  MOVFF  24D,6C2
074AC:  MOVLB  0
074AE:  CALL   1F44
074B2:  BCF    FD8.1
074B4:  MOVFF  220,6C5
074B8:  MOVFF  21F,6C4
074BC:  MOVFF  21E,6C3
074C0:  MOVFF  21D,6C2
074C4:  MOVFF  03,6C9
074C8:  MOVFF  02,6C8
074CC:  MOVFF  01,6C7
074D0:  MOVFF  00,6C6
074D4:  CALL   2100
074D8:  MOVFF  03,220
074DC:  MOVFF  02,21F
074E0:  MOVFF  01,21E
074E4:  MOVFF  00,21D
074E8:  MOVLB  2
....................                } 
....................             } 
....................          } 
....................       }else{ 
074EA:  BRA    74F4
074EC:  MOVLB  0
....................          flagTC=0; 
074EE:  MOVLB  1
074F0:  BCF    x04.6
074F2:  MOVLB  2
....................       } 
....................    } 
....................     
....................    if(error<-0.3) 
074F4:  MOVFF  210,6B7
074F8:  MOVFF  20F,6B6
074FC:  MOVFF  20E,6B5
07500:  MOVFF  20D,6B4
07504:  MOVLW  9A
07506:  MOVLB  6
07508:  MOVWF  xBB
0750A:  MOVLW  99
0750C:  MOVWF  xBA
0750E:  MOVWF  xB9
07510:  MOVLW  7D
07512:  MOVWF  xB8
07514:  MOVLB  0
07516:  CALL   25D6
0751A:  BNC   752C
....................       Ganancia=Ganancia2; 
0751C:  MOVFF  224,220
07520:  MOVFF  223,21F
07524:  MOVFF  222,21E
07528:  MOVFF  221,21D
....................     
....................    if(Ganancia<1) 
0752C:  MOVFF  220,6B7
07530:  MOVFF  21F,6B6
07534:  MOVFF  21E,6B5
07538:  MOVFF  21D,6B4
0753C:  MOVLB  6
0753E:  CLRF   xBB
07540:  CLRF   xBA
07542:  CLRF   xB9
07544:  MOVLW  7F
07546:  MOVWF  xB8
07548:  MOVLB  0
0754A:  CALL   25D6
0754E:  BNC   755C
....................       Ganancia=1; 
07550:  MOVLB  2
07552:  CLRF   x20
07554:  CLRF   x1F
07556:  CLRF   x1E
07558:  MOVLW  7F
0755A:  MOVWF  x1D
....................     
....................    if(error<0.0)     // Anti Wind_DOWN     
0755C:  MOVFF  210,6B7
07560:  MOVFF  20F,6B6
07564:  MOVFF  20E,6B5
07568:  MOVFF  20D,6B4
0756C:  MOVLB  6
0756E:  CLRF   xBB
07570:  CLRF   xBA
07572:  CLRF   xB9
07574:  CLRF   xB8
07576:  MOVLB  0
07578:  CALL   25D6
0757C:  BNC   758A
....................       error=0.0; 
0757E:  MOVLB  2
07580:  CLRF   x10
07582:  CLRF   x0F
07584:  CLRF   x0E
07586:  CLRF   x0D
07588:  MOVLB  0
....................    //tmp=(Setpoint-Prom)*Ganancia;  // Control Proporcional. 
....................    tmp=error*Ganancia;  // Control Proporcional. 
0758A:  MOVFF  210,6C9
0758E:  MOVFF  20F,6C8
07592:  MOVFF  20E,6C7
07596:  MOVFF  20D,6C6
0759A:  MOVFF  220,6CD
0759E:  MOVFF  21F,6CC
075A2:  MOVFF  21E,6CB
075A6:  MOVFF  21D,6CA
075AA:  CALL   406A
075AE:  MOVFF  03,21C
075B2:  MOVFF  02,21B
075B6:  MOVFF  01,21A
075BA:  MOVFF  00,219
....................           
....................    if(tmp>Setpoint)   // Anti Wind-UP       
075BE:  MOVLB  6
075C0:  CLRF   xC3
075C2:  MOVFF  267,6C2
075C6:  MOVLB  0
075C8:  CALL   1F44
075CC:  MOVFF  03,6B7
075D0:  MOVFF  02,6B6
075D4:  MOVFF  01,6B5
075D8:  MOVFF  00,6B4
075DC:  MOVFF  21C,6BB
075E0:  MOVFF  21B,6BA
075E4:  MOVFF  21A,6B9
075E8:  MOVFF  219,6B8
075EC:  CALL   25D6
075F0:  BNC   7610
....................       tmp=Setpoint; 
075F2:  MOVLB  6
075F4:  CLRF   xC3
075F6:  MOVFF  267,6C2
075FA:  MOVLB  0
075FC:  CALL   1F44
07600:  MOVFF  03,21C
07604:  MOVFF  02,21B
07608:  MOVFF  01,21A
0760C:  MOVFF  00,219
....................                 
....................    if(tmp<0.0)     // Anti Wind_DOWN     
07610:  MOVFF  21C,6B7
07614:  MOVFF  21B,6B6
07618:  MOVFF  21A,6B5
0761C:  MOVFF  219,6B4
07620:  MOVLB  6
07622:  CLRF   xBB
07624:  CLRF   xBA
07626:  CLRF   xB9
07628:  CLRF   xB8
0762A:  MOVLB  0
0762C:  CALL   25D6
07630:  BNC   763C
....................       tmp=0.0; 
07632:  MOVLB  2
07634:  CLRF   x1C
07636:  CLRF   x1B
07638:  CLRF   x1A
0763A:  CLRF   x19
....................     
....................    // Tpulso(t)= Tciclo*(y(t)-ymin)/(ymax - ymin); calculo de ciclo util para control de resistencia.ymax=140.ymin=0; 
....................    // Tpulso es float, hay que pasar ese ciclo a una salida de un puerto usando el TMR1. 
....................    tmp2=(tmp/Setpoint); 
0763C:  MOVLB  6
0763E:  CLRF   xC3
07640:  MOVFF  267,6C2
07644:  MOVLB  0
07646:  CALL   1F44
0764A:  MOVFF  21C,6BF
0764E:  MOVFF  21B,6BE
07652:  MOVFF  21A,6BD
07656:  MOVFF  219,6BC
0765A:  MOVFF  03,6C3
0765E:  MOVFF  02,6C2
07662:  MOVFF  01,6C1
07666:  MOVFF  00,6C0
0766A:  CALL   1FA2
0766E:  MOVFF  03,1C6
07672:  MOVFF  02,1C5
07676:  MOVFF  01,1C4
0767A:  MOVFF  00,1C3
....................    //if(tmp2>0.8) 
....................    //tmp2=0.8; 
....................    Tpulso=tmp2*Tciclo;   
0767E:  MOVFF  1C6,6C9
07682:  MOVFF  1C5,6C8
07686:  MOVFF  1C4,6C7
0768A:  MOVFF  1C3,6C6
0768E:  MOVFF  208,6CD
07692:  MOVFF  207,6CC
07696:  MOVFF  206,6CB
0769A:  MOVFF  205,6CA
0769E:  CALL   406A
076A2:  MOVFF  03,20C
076A6:  MOVFF  02,20B
076AA:  MOVFF  01,20A
076AE:  MOVFF  00,209
....................                                        
....................    Tp=(Tpulso/0.005); 
076B2:  MOVFF  20C,6BF
076B6:  MOVFF  20B,6BE
076BA:  MOVFF  20A,6BD
076BE:  MOVFF  209,6BC
076C2:  MOVLW  0A
076C4:  MOVLB  6
076C6:  MOVWF  xC3
076C8:  MOVLW  D7
076CA:  MOVWF  xC2
076CC:  MOVLW  23
076CE:  MOVWF  xC1
076D0:  MOVLW  77
076D2:  MOVWF  xC0
076D4:  MOVLB  0
076D6:  CALL   1FA2
076DA:  MOVFF  03,6C5
076DE:  MOVFF  02,6C4
076E2:  MOVFF  01,6C3
076E6:  MOVFF  00,6C2
076EA:  CALL   4C8A
076EE:  MOVFF  02,10A
076F2:  MOVFF  01,109
....................    Tc=(Tciclo/0.005); 
076F6:  MOVFF  208,6BF
076FA:  MOVFF  207,6BE
076FE:  MOVFF  206,6BD
07702:  MOVFF  205,6BC
07706:  MOVLW  0A
07708:  MOVLB  6
0770A:  MOVWF  xC3
0770C:  MOVLW  D7
0770E:  MOVWF  xC2
07710:  MOVLW  23
07712:  MOVWF  xC1
07714:  MOVLW  77
07716:  MOVWF  xC0
07718:  MOVLB  0
0771A:  CALL   1FA2
0771E:  MOVFF  03,6C5
07722:  MOVFF  02,6C4
07726:  MOVFF  01,6C3
0772A:  MOVFF  00,6C2
0772E:  CALL   4C8A
07732:  MOVFF  02,10C
07736:  MOVFF  01,10B
....................    Controlando=1;    
0773A:  MOVLW  01
0773C:  MOVLB  2
0773E:  MOVWF  x52
....................     
....................    if(Temperatura>Setpoint+0.1){ 
07740:  MOVLB  6
07742:  CLRF   xC3
07744:  MOVFF  267,6C2
07748:  MOVLB  0
0774A:  CALL   1F44
0774E:  BCF    FD8.1
07750:  MOVFF  03,6C5
07754:  MOVFF  02,6C4
07758:  MOVFF  01,6C3
0775C:  MOVFF  00,6C2
07760:  MOVLW  CD
07762:  MOVLB  6
07764:  MOVWF  xC9
07766:  MOVLW  CC
07768:  MOVWF  xC8
0776A:  MOVLW  4C
0776C:  MOVWF  xC7
0776E:  MOVLW  7B
07770:  MOVWF  xC6
07772:  MOVLB  0
07774:  CALL   2100
07778:  MOVFF  03,6B7
0777C:  MOVFF  02,6B6
07780:  MOVFF  01,6B5
07784:  MOVFF  00,6B4
07788:  MOVFF  23C,6BB
0778C:  MOVFF  23B,6BA
07790:  MOVFF  23A,6B9
07794:  MOVFF  239,6B8
07798:  CALL   25D6
0779C:  BNC   77A4
....................       suministroVapor=OFF; 
0779E:  BCF    xF7.5
....................       Paso=ON; 
077A0:  BSF    xF7.6
....................    }else if(Temperatura<=Setpoint){ 
077A2:  BRA    77DE
077A4:  MOVLB  6
077A6:  CLRF   xC3
077A8:  MOVFF  267,6C2
077AC:  MOVLB  0
077AE:  CALL   1F44
077B2:  MOVFF  23C,6B7
077B6:  MOVFF  23B,6B6
077BA:  MOVFF  23A,6B5
077BE:  MOVFF  239,6B4
077C2:  MOVFF  03,6BB
077C6:  MOVFF  02,6BA
077CA:  MOVFF  01,6B9
077CE:  MOVFF  00,6B8
077D2:  CALL   25D6
077D6:  BC    77DA
077D8:  BNZ   77DE
....................       suministroVapor=ON; 
077DA:  BSF    xF7.5
....................       Paso=ON; 
077DC:  BSF    xF7.6
....................    } 
.................... //--------------------------------------------------------------------------------------------------------------------//    
.................... } 
077DE:  RETLW  00
....................  
.................... void Envio_I2C(direccion, posicion, dato){ 
....................    i2c_start();            // Comienzo comunicacin 
*
04F92:  BSF    F94.4
04F94:  MOVLW  05
04F96:  MOVWF  00
04F98:  DECFSZ 00,F
04F9A:  BRA    4F98
04F9C:  BSF    F94.3
04F9E:  MOVLW  06
04FA0:  MOVWF  00
04FA2:  DECFSZ 00,F
04FA4:  BRA    4FA2
04FA6:  BCF    F8B.4
04FA8:  BCF    F94.4
04FAA:  MOVLW  05
04FAC:  MOVWF  00
04FAE:  DECFSZ 00,F
04FB0:  BRA    4FAE
04FB2:  BCF    F8B.3
04FB4:  BCF    F94.3
....................    i2c_write(direccion);   // Direccin del esclavo en el bus I2C 
04FB6:  MOVFF  6C3,6C6
04FBA:  CALL   240E
....................    i2c_write(posicion);    // Posicin donde se guardara el dato transmitido 
04FBE:  MOVFF  6C4,6C6
04FC2:  CALL   240E
....................    i2c_write(dato);        // Dato a transmitir 
04FC6:  MOVFF  6C5,6C6
04FCA:  CALL   240E
....................    i2c_stop();             // Fin comunicacin 
04FCE:  BCF    F94.4
04FD0:  NOP   
04FD2:  BSF    F94.3
04FD4:  BTFSS  F82.3
04FD6:  BRA    4FD4
04FD8:  MOVLW  05
04FDA:  MOVWF  00
04FDC:  DECFSZ 00,F
04FDE:  BRA    4FDC
04FE0:  BRA    4FE2
04FE2:  NOP   
04FE4:  BSF    F94.4
04FE6:  MOVLW  05
04FE8:  MOVWF  00
04FEA:  DECFSZ 00,F
04FEC:  BRA    4FEA
....................  } 
04FEE:  GOTO   50B8 (RETURN)
....................  
.................... void Lectura_I2C (byte direccion, byte posicion, byte &dato) { 
....................  
....................    i2c_start();            // Comienzo de la comunicacin 
*
050DE:  BSF    F94.4
050E0:  MOVLW  05
050E2:  MOVWF  00
050E4:  DECFSZ 00,F
050E6:  BRA    50E4
050E8:  BSF    F94.3
050EA:  MOVLW  06
050EC:  MOVWF  00
050EE:  DECFSZ 00,F
050F0:  BRA    50EE
050F2:  BCF    F8B.4
050F4:  BCF    F94.4
050F6:  MOVLW  05
050F8:  MOVWF  00
050FA:  DECFSZ 00,F
050FC:  BRA    50FA
050FE:  BCF    F8B.3
05100:  BCF    F94.3
*
05194:  BSF    F94.4
05196:  MOVLW  05
05198:  MOVWF  00
0519A:  DECFSZ 00,F
0519C:  BRA    519A
0519E:  BSF    F94.3
051A0:  MOVLW  06
051A2:  MOVWF  00
051A4:  DECFSZ 00,F
051A6:  BRA    51A4
051A8:  BCF    F8B.4
051AA:  BCF    F94.4
051AC:  MOVLW  05
051AE:  MOVWF  00
051B0:  DECFSZ 00,F
051B2:  BRA    51B0
051B4:  BCF    F8B.3
051B6:  BCF    F94.3
....................    i2c_write(direccion);   // Direccin del esclavo en el bus I2C 
*
05102:  MOVFF  6B0,6C6
05106:  CALL   240E
*
051B8:  MOVFF  6B0,6C6
051BC:  MOVLB  0
051BE:  CALL   240E
....................    i2c_write(posicion);    // Posicin de donde se leer el dato en el esclavo 
*
0510A:  MOVFF  6B1,6C6
0510E:  CALL   240E
*
051C2:  MOVFF  6B1,6C6
051C6:  CALL   240E
....................    i2c_start();            // Reinicio 
*
05112:  BSF    F94.4
05114:  MOVLW  05
05116:  MOVWF  00
05118:  DECFSZ 00,F
0511A:  BRA    5118
0511C:  BSF    F94.3
0511E:  MOVLW  06
05120:  MOVWF  00
05122:  DECFSZ 00,F
05124:  BRA    5122
05126:  BTFSS  F82.3
05128:  BRA    5126
0512A:  BCF    F8B.4
0512C:  BCF    F94.4
0512E:  MOVLW  05
05130:  MOVWF  00
05132:  DECFSZ 00,F
05134:  BRA    5132
05136:  BCF    F8B.3
05138:  BCF    F94.3
*
051CA:  BSF    F94.4
051CC:  MOVLW  05
051CE:  MOVWF  00
051D0:  DECFSZ 00,F
051D2:  BRA    51D0
051D4:  BSF    F94.3
051D6:  MOVLW  06
051D8:  MOVWF  00
051DA:  DECFSZ 00,F
051DC:  BRA    51DA
051DE:  BTFSS  F82.3
051E0:  BRA    51DE
051E2:  BCF    F8B.4
051E4:  BCF    F94.4
051E6:  MOVLW  05
051E8:  MOVWF  00
051EA:  DECFSZ 00,F
051EC:  BRA    51EA
051EE:  BCF    F8B.3
051F0:  BCF    F94.3
....................    i2c_write(direccion+1); // Direccin del esclavo en modo lectura 
*
0513A:  MOVLW  01
0513C:  MOVLB  6
0513E:  ADDWF  xB0,W
05140:  MOVWF  xB2
05142:  MOVWF  xC6
05144:  MOVLB  0
05146:  CALL   240E
*
051F2:  MOVLW  01
051F4:  MOVLB  6
051F6:  ADDWF  xB0,W
051F8:  MOVWF  xB2
051FA:  MOVWF  xC6
051FC:  MOVLB  0
051FE:  CALL   240E
....................    dato=i2c_read(0);       // Lectura del dato 
*
0514A:  CLRF   00
0514C:  CALL   2484
05150:  MOVFF  01,DC
*
05202:  CLRF   00
05204:  CALL   2484
05208:  MOVFF  01,DC
....................    i2c_stop();             // Fin comunicacin 
*
05154:  BCF    F94.4
05156:  NOP   
05158:  BSF    F94.3
0515A:  BTFSS  F82.3
0515C:  BRA    515A
0515E:  MOVLW  05
05160:  MOVWF  00
05162:  DECFSZ 00,F
05164:  BRA    5162
05166:  BRA    5168
05168:  NOP   
0516A:  BSF    F94.4
0516C:  MOVLW  05
0516E:  MOVWF  00
05170:  DECFSZ 00,F
05172:  BRA    5170
*
0520C:  BCF    F94.4
0520E:  NOP   
05210:  BSF    F94.3
05212:  BTFSS  F82.3
05214:  BRA    5212
05216:  MOVLW  05
05218:  MOVWF  00
0521A:  DECFSZ 00,F
0521C:  BRA    521A
0521E:  BRA    5220
05220:  NOP   
05222:  BSF    F94.4
05224:  MOVLW  05
05226:  MOVWF  00
05228:  DECFSZ 00,F
0522A:  BRA    5228
.................... } 
....................  
.................... void Carga_Vector(void){ 
....................    SlaveB0Tx[0]=(int8)Temperatura; 
*
04CC6:  MOVFF  23C,6C5
04CCA:  MOVFF  23B,6C4
04CCE:  MOVFF  23A,6C3
04CD2:  MOVFF  239,6C2
04CD6:  RCALL  4C8A
04CD8:  MOVFF  01,6C
....................    SlaveB0Tx[1]=(Temperatura-((int8)Temperatura))*10; 
04CDC:  MOVFF  23C,6C5
04CE0:  MOVFF  23B,6C4
04CE4:  MOVFF  23A,6C3
04CE8:  MOVFF  239,6C2
04CEC:  RCALL  4C8A
04CEE:  MOVLB  6
04CF0:  CLRF   xC3
04CF2:  MOVFF  01,6C2
04CF6:  MOVLB  0
04CF8:  CALL   1F44
04CFC:  BSF    FD8.1
04CFE:  MOVFF  23C,6C5
04D02:  MOVFF  23B,6C4
04D06:  MOVFF  23A,6C3
04D0A:  MOVFF  239,6C2
04D0E:  MOVFF  03,6C9
04D12:  MOVFF  02,6C8
04D16:  MOVFF  01,6C7
04D1A:  MOVFF  00,6C6
04D1E:  CALL   2100
04D22:  MOVFF  00,6C2
04D26:  MOVFF  01,6C3
04D2A:  MOVFF  02,6C4
04D2E:  MOVFF  03,6C5
04D32:  MOVFF  03,6C9
04D36:  MOVFF  02,6C8
04D3A:  MOVFF  01,6C7
04D3E:  MOVFF  00,6C6
04D42:  MOVLB  6
04D44:  CLRF   xCD
04D46:  CLRF   xCC
04D48:  MOVLW  20
04D4A:  MOVWF  xCB
04D4C:  MOVLW  82
04D4E:  MOVWF  xCA
04D50:  MOVLB  0
04D52:  CALL   406A
04D56:  MOVFF  03,6C5
04D5A:  MOVFF  02,6C4
04D5E:  MOVFF  01,6C3
04D62:  MOVFF  00,6C2
04D66:  RCALL  4C8A
04D68:  MOVFF  01,6D
....................    SlaveB0Tx[2]=make8((int16)PresionCamara,0); 
04D6C:  MOVFF  278,6E
04D70:  MOVLB  0
....................    SlaveB0Tx[3]=make8((int16)PresionCamara,1); 
04D72:  MOVFF  279,6F
04D76:  MOVLB  0
....................    SlaveB0Tx[4]=make8((int16)PresionPreCamara,0); 
04D78:  MOVFF  27A,70
04D7C:  MOVLB  0
....................    SlaveB0Tx[5]=make8((int16)PresionPreCamara,1); 
04D7E:  MOVFF  27B,71
04D82:  MOVLB  0
....................    SlaveB0Tx[6]=(int8)Tpulso*10; 
04D84:  MOVFF  20C,6C5
04D88:  MOVFF  20B,6C4
04D8C:  MOVFF  20A,6C3
04D90:  MOVFF  209,6C2
04D94:  RCALL  4C8A
04D96:  MOVF   01,W
04D98:  MULLW  0A
04D9A:  MOVFF  FF3,72
....................    SlaveB0Tx[7]=seguroValvula; 
04D9E:  CLRF   x73
04DA0:  BTFSC  xF8.5
04DA2:  INCF   x73,F
....................    //SlaveB0Tx[8]=LOW; 
....................    //SlaveB0Tx[9]=TERM; 
....................    //SlaveB0Tx[10]=DOOR; 
....................    SlaveB0Tx[11]=STOP; 
04DA4:  BSF    F93.0
04DA6:  CLRF   x77
04DA8:  BTFSS  F81.0
04DAA:  INCF   x77,F
....................    SlaveB0Tx[12]=(int8)error; 
04DAC:  MOVFF  210,6C5
04DB0:  MOVFF  20F,6C4
04DB4:  MOVFF  20E,6C3
04DB8:  MOVFF  20D,6C2
04DBC:  RCALL  4C8A
04DBE:  MOVFF  01,78
....................    SlaveB0Tx[13]=CicloSeleccionado; 
04DC2:  MOVFF  25F,79
....................    SlaveB0Tx[14]=SetTime; 
04DC6:  MOVFF  2AC,7A
....................    SlaveB0Tx[15]=Dia; 
04DCA:  MOVFF  29A,7B
....................    SlaveB0Tx[16]=Mes; 
04DCE:  MOVFF  299,7C
....................    SlaveB0Tx[17]=Year; 
04DD2:  MOVFF  298,7D
....................    SlaveB0Tx[18]=Hora; 
04DD6:  MOVFF  29B,7E
....................    SlaveB0Tx[19]=Minuto; 
04DDA:  MOVFF  29C,7F
....................    SlaveB0Tx[20]=Segundo; 
04DDE:  MOVFF  29D,80
....................    SlaveB0Tx[21]=Imprime; 
04DE2:  MOVFF  2AD,81
....................    SlaveB0Tx[22]=make8(Ciclos,0); 
04DE6:  MOVFF  27C,82
04DEA:  MOVLB  0
....................    SlaveB0Tx[23]=make8(Ciclos,1); 
04DEC:  MOVFF  27D,83
04DF0:  MOVLB  0
....................    SlaveB0Tx[24]=EstadoBuzzer; 
04DF2:  CLRF   x84
04DF4:  MOVLB  1
04DF6:  BTFSS  x00.3
04DF8:  BRA    4E00
04DFA:  MOVLB  0
04DFC:  INCF   x84,F
04DFE:  MOVLB  1
....................    SlaveB0Tx[25]=suministroAire; 
04E00:  MOVLB  0
04E02:  CLRF   x85
04E04:  BTFSC  xF7.0
04E06:  INCF   x85,F
....................    SlaveB0Tx[26]=AguaEnfriador; 
04E08:  CLRF   x86
04E0A:  BTFSC  xF7.1
04E0C:  INCF   x86,F
....................    SlaveB0Tx[27]=BombaVacio; 
04E0E:  CLRF   x87
04E10:  BTFSC  xF7.2
04E12:  INCF   x87,F
....................    SlaveB0Tx[28]=empaqueLimpio; 
04E14:  CLRF   x88
04E16:  BTFSC  xF7.3
04E18:  INCF   x88,F
....................    SlaveB0Tx[29]=empaqueSucio; 
04E1A:  CLRF   x89
04E1C:  BTFSC  xF7.4
04E1E:  INCF   x89,F
....................    SlaveB0Tx[30]=cilindroSucio; 
04E20:  CLRF   x8A
04E22:  BTFSC  xF8.2
04E24:  INCF   x8A,F
....................    SlaveB0Tx[31]=cilindroLimpio; 
04E26:  CLRF   x8B
04E28:  BTFSC  xF8.3
04E2A:  INCF   x8B,F
....................    SlaveB0Tx[32]=suministroVapor; 
04E2C:  CLRF   x8C
04E2E:  BTFSC  xF7.5
04E30:  INCF   x8C,F
....................    SlaveB0Tx[33]=Paso; 
04E32:  CLRF   x8D
04E34:  BTFSC  xF7.6
04E36:  INCF   x8D,F
....................    SlaveB0Tx[34]=outVacio; 
04E38:  CLRF   x8E
04E3A:  BTFSC  xF7.7
04E3C:  INCF   x8E,F
....................    SlaveB0Tx[35]=Desfogue; 
04E3E:  CLRF   x8F
04E40:  BTFSC  xF8.0
04E42:  INCF   x8F,F
....................    SlaveB0Tx[36]=Aire; 
04E44:  CLRF   x90
04E46:  BTFSC  xF8.1
04E48:  INCF   x90,F
....................    SlaveB0Tx[37]=Aux; 
04E4A:  CLRF   x91
04E4C:  BTFSC  xF8.4
04E4E:  INCF   x91,F
....................     
....................    SlaveC0Tx[0]=(int8)Temperatura; 
04E50:  MOVFF  23C,6C5
04E54:  MOVFF  23B,6C4
04E58:  MOVFF  23A,6C3
04E5C:  MOVFF  239,6C2
04E60:  RCALL  4C8A
04E62:  MOVFF  01,92
....................    SlaveC0Tx[1]=(Temperatura-((int8)Temperatura))*10; 
04E66:  MOVFF  23C,6C5
04E6A:  MOVFF  23B,6C4
04E6E:  MOVFF  23A,6C3
04E72:  MOVFF  239,6C2
04E76:  RCALL  4C8A
04E78:  MOVLB  6
04E7A:  CLRF   xC3
04E7C:  MOVFF  01,6C2
04E80:  MOVLB  0
04E82:  CALL   1F44
04E86:  BSF    FD8.1
04E88:  MOVFF  23C,6C5
04E8C:  MOVFF  23B,6C4
04E90:  MOVFF  23A,6C3
04E94:  MOVFF  239,6C2
04E98:  MOVFF  03,6C9
04E9C:  MOVFF  02,6C8
04EA0:  MOVFF  01,6C7
04EA4:  MOVFF  00,6C6
04EA8:  CALL   2100
04EAC:  MOVFF  00,6C2
04EB0:  MOVFF  01,6C3
04EB4:  MOVFF  02,6C4
04EB8:  MOVFF  03,6C5
04EBC:  MOVFF  03,6C9
04EC0:  MOVFF  02,6C8
04EC4:  MOVFF  01,6C7
04EC8:  MOVFF  00,6C6
04ECC:  MOVLB  6
04ECE:  CLRF   xCD
04ED0:  CLRF   xCC
04ED2:  MOVLW  20
04ED4:  MOVWF  xCB
04ED6:  MOVLW  82
04ED8:  MOVWF  xCA
04EDA:  MOVLB  0
04EDC:  CALL   406A
04EE0:  MOVFF  03,6C5
04EE4:  MOVFF  02,6C4
04EE8:  MOVFF  01,6C3
04EEC:  MOVFF  00,6C2
04EF0:  RCALL  4C8A
04EF2:  MOVFF  01,93
....................    SlaveC0Tx[2]=make8((int16)PresionCamara,0); 
04EF6:  MOVFF  278,94
04EFA:  MOVLB  0
....................    SlaveC0Tx[3]=make8((int16)PresionCamara,1); 
04EFC:  MOVFF  279,95
04F00:  MOVLB  0
....................    SlaveC0Tx[4]=make8((int16)PresionPreCamara,0); 
04F02:  MOVFF  27A,96
04F06:  MOVLB  0
....................    SlaveC0Tx[5]=make8((int16)PresionPreCamara,1); 
04F08:  MOVFF  27B,97
04F0C:  MOVLB  0
....................    SlaveC0Tx[6]=(int8)Tpulso*10; 
04F0E:  MOVFF  20C,6C5
04F12:  MOVFF  20B,6C4
04F16:  MOVFF  20A,6C3
04F1A:  MOVFF  209,6C2
04F1E:  RCALL  4C8A
04F20:  MOVF   01,W
04F22:  MULLW  0A
04F24:  MOVFF  FF3,98
....................    //SlaveC0Tx[7]=HIG; 
....................    //SlaveC0Tx[8]=LOW; 
....................    //SlaveC0Tx[9]=TERM; 
....................    //SlaveC0Tx[10]=DOOR; 
....................    SlaveC0Tx[11]=STOP; 
04F28:  BSF    F93.0
04F2A:  CLRF   x9D
04F2C:  BTFSS  F81.0
04F2E:  INCF   x9D,F
....................    SlaveC0Tx[12]=(int8)error; 
04F30:  MOVFF  210,6C5
04F34:  MOVFF  20F,6C4
04F38:  MOVFF  20E,6C3
04F3C:  MOVFF  20D,6C2
04F40:  RCALL  4C8A
04F42:  MOVFF  01,9E
....................    SlaveC0Tx[13]=CicloSeleccionado; 
04F46:  MOVFF  25F,9F
....................    SlaveC0Tx[14]=SetTime; 
04F4A:  MOVFF  2AC,A0
....................    SlaveC0Tx[15]=Dia; 
04F4E:  MOVFF  29A,A1
....................    SlaveC0Tx[16]=Mes; 
04F52:  MOVFF  299,A2
....................    SlaveC0Tx[17]=Year; 
04F56:  MOVFF  298,A3
....................    SlaveC0Tx[18]=Hora; 
04F5A:  MOVFF  29B,A4
....................    SlaveC0Tx[19]=Minuto; 
04F5E:  MOVFF  29C,A5
....................    SlaveC0Tx[20]=Segundo; 
04F62:  MOVFF  29D,A6
....................    SlaveC0Tx[21]=mEst; 
04F66:  MOVFF  114,A7
....................    SlaveC0Tx[22]=sEst; 
04F6A:  MOVFF  113,A8
....................    SlaveC0Tx[23]=mSec; 
04F6E:  MOVFF  116,A9
....................    SlaveC0Tx[24]=sSec; 
04F72:  MOVFF  115,AA
....................    SlaveC0Tx[25]=Menu; 
04F76:  MOVFF  259,AB
....................    SlaveC0Tx[26]=Setpoint; 
04F7A:  MOVFF  267,AC
....................    SlaveC0Tx[27]=codigoAlarma; 
04F7E:  MOVFF  291,AD
....................    SlaveC0Tx[28]=255; 
04F82:  MOVLW  FF
04F84:  MOVWF  xAE
....................    SlaveC0Tx[29]=128; 
04F86:  MOVLW  80
04F88:  MOVWF  xAF
....................    SlaveC0Tx[30]=50; 
04F8A:  MOVLW  32
04F8C:  MOVWF  xB0
.................... } 
04F8E:  GOTO   4FF4 (RETURN)
....................  
.................... void Lee_Vector(void){ 
....................    //Dia=txbuf[0];    
.................... } 
*
00004:  GOTO   5238 (RETURN)
....................  
.................... void Envio_Esclavos(void){ 
....................    Carga_Vector(); 
*
04FF2:  BRA    4CC6
....................    for(i=0;i<38;i++){ 
04FF4:  MOVLB  2
04FF6:  CLRF   x5C
04FF8:  MOVF   x5C,W
04FFA:  SUBLW  25
04FFC:  BNC   5086
....................       direccion=0xB0; 
04FFE:  MOVLW  B0
05000:  MOVLB  0
05002:  MOVWF  xDD
....................       i2c_start();            // Comienzo comunicacin 
05004:  BSF    F94.4
05006:  MOVLW  05
05008:  MOVWF  00
0500A:  DECFSZ 00,F
0500C:  BRA    500A
0500E:  BSF    F94.3
05010:  MOVLW  06
05012:  MOVWF  00
05014:  DECFSZ 00,F
05016:  BRA    5014
05018:  BCF    F8B.4
0501A:  BCF    F94.4
0501C:  MOVLW  05
0501E:  MOVWF  00
05020:  DECFSZ 00,F
05022:  BRA    5020
05024:  BCF    F8B.3
05026:  BCF    F94.3
....................       i2c_write(direccion);   // Direccin del esclavo en el bus I2C 
05028:  MOVFF  DD,6C6
0502C:  CALL   240E
....................       i2c_write(i);   // Direccin del esclavo en el bus I2C 
05030:  MOVFF  25C,6C6
05034:  CALL   240E
....................       i2c_write(0);    // Posicin donde se guardara el dato transmitido 
05038:  MOVLB  6
0503A:  CLRF   xC6
0503C:  MOVLB  0
0503E:  CALL   240E
....................       i2c_write(SlaveB0Tx[i]); // Dato a transmitir 
05042:  CLRF   03
05044:  MOVLB  2
05046:  MOVF   x5C,W
05048:  ADDLW  6C
0504A:  MOVWF  FE9
0504C:  MOVLW  00
0504E:  ADDWFC 03,W
05050:  MOVWF  FEA
05052:  MOVFF  FEF,6C2
05056:  MOVFF  6C2,6C6
0505A:  MOVLB  0
0505C:  CALL   240E
....................       i2c_stop();  
05060:  BCF    F94.4
05062:  NOP   
05064:  BSF    F94.3
05066:  BTFSS  F82.3
05068:  BRA    5066
0506A:  MOVLW  05
0506C:  MOVWF  00
0506E:  DECFSZ 00,F
05070:  BRA    506E
05072:  BRA    5074
05074:  NOP   
05076:  BSF    F94.4
05078:  MOVLW  05
0507A:  MOVWF  00
0507C:  DECFSZ 00,F
0507E:  BRA    507C
....................       //Envio_I2C(direccion,i,SlaveB0Tx[i]); 
....................    }  
05080:  MOVLB  2
05082:  INCF   x5C,F
05084:  BRA    4FF8
....................     
....................    for(i=0;i<31;i++){ 
05086:  CLRF   x5C
05088:  MOVF   x5C,W
0508A:  SUBLW  1E
0508C:  BNC   50BE
....................       direccion=0xC0; 
0508E:  MOVLW  C0
05090:  MOVLB  0
05092:  MOVWF  xDD
....................       Envio_I2C(direccion,i,SlaveC0Tx[i]); 
05094:  CLRF   03
05096:  MOVLB  2
05098:  MOVF   x5C,W
0509A:  ADDLW  92
0509C:  MOVWF  FE9
0509E:  MOVLW  00
050A0:  ADDWFC 03,W
050A2:  MOVWF  FEA
050A4:  MOVFF  FEF,6C2
050A8:  MOVFF  DD,6C3
050AC:  MOVFF  25C,6C4
050B0:  MOVFF  6C2,6C5
050B4:  MOVLB  0
050B6:  BRA    4F92
....................    } 
050B8:  MOVLB  2
050BA:  INCF   x5C,F
050BC:  BRA    5088
.................... } 
050BE:  MOVLB  0
050C0:  RETLW  00
.................... void Lectura_Esclavos(void){ 
....................    for(i=0;i<9;i++){ 
050C2:  MOVLB  2
050C4:  CLRF   x5C
050C6:  MOVF   x5C,W
050C8:  SUBLW  08
050CA:  BNC   518C
....................       direccion=0xB0;                        //Direccin en el bus I2c 
050CC:  MOVLW  B0
050CE:  MOVLB  0
050D0:  MOVWF  xDD
....................       posicion=i;                         //Posicin de memoria a leer 
050D2:  MOVFF  25C,DE
....................       Lectura_I2C(direccion, posicion, dato);    //Lectura por I2C 
050D6:  MOVFF  DD,6B0
050DA:  MOVFF  DE,6B1
....................       txbuf[i]=(int8)dato; 
*
05174:  CLRF   03
05176:  MOVLB  2
05178:  MOVF   x5C,W
0517A:  ADDLW  47
0517C:  MOVWF  FE9
0517E:  MOVLW  00
05180:  ADDWFC 03,W
05182:  MOVWF  FEA
05184:  MOVFF  DC,FEF
....................    } 
05188:  INCF   x5C,F
0518A:  BRA    50C6
....................    Lectura_I2C(0XC0, 0, dato);    //Lectura por I2C 
0518C:  MOVLW  C0
0518E:  MOVLB  6
05190:  MOVWF  xB0
05192:  CLRF   xB1
....................    SlaveC0Rx[0]=(int8)dato; 
*
0522C:  MOVFF  DC,B7
....................    subirPuertaLimpio=SlaveC0Rx[0]; 
05230:  MOVFF  B7,1FA
....................    Lee_Vector(); 
05234:  GOTO   0004
.................... } 
05238:  GOTO   7EAC (RETURN)
....................  
.................... int8 extraeDecimal(float data){ 
*
06C32:  MOVLB  6
06C34:  CLRF   xBD
06C36:  CLRF   xBC
06C38:  CLRF   xBB
06C3A:  CLRF   xBA
06C3C:  CLRF   xC1
06C3E:  CLRF   xC0
06C40:  CLRF   xBF
06C42:  CLRF   xBE
....................    float entero=0; 
....................    float tmp=0.0; 
....................     
....................    entero=(int8)data; 
06C44:  MOVFF  6B9,6C5
06C48:  MOVFF  6B8,6C4
06C4C:  MOVFF  6B7,6C3
06C50:  MOVFF  6B6,6C2
06C54:  MOVLB  0
06C56:  CALL   4C8A
06C5A:  MOVLB  6
06C5C:  CLRF   xC3
06C5E:  MOVFF  01,6C2
06C62:  MOVLB  0
06C64:  CALL   1F44
06C68:  MOVFF  03,6BD
06C6C:  MOVFF  02,6BC
06C70:  MOVFF  01,6BB
06C74:  MOVFF  00,6BA
....................    tmp=(data-entero)*10; 
06C78:  BSF    FD8.1
06C7A:  MOVFF  6B9,6C5
06C7E:  MOVFF  6B8,6C4
06C82:  MOVFF  6B7,6C3
06C86:  MOVFF  6B6,6C2
06C8A:  MOVFF  6BD,6C9
06C8E:  MOVFF  6BC,6C8
06C92:  MOVFF  6BB,6C7
06C96:  MOVFF  6BA,6C6
06C9A:  CALL   2100
06C9E:  MOVFF  00,6C2
06CA2:  MOVFF  01,6C3
06CA6:  MOVFF  02,6C4
06CAA:  MOVFF  03,6C5
06CAE:  MOVFF  03,6C9
06CB2:  MOVFF  02,6C8
06CB6:  MOVFF  01,6C7
06CBA:  MOVFF  00,6C6
06CBE:  MOVLB  6
06CC0:  CLRF   xCD
06CC2:  CLRF   xCC
06CC4:  MOVLW  20
06CC6:  MOVWF  xCB
06CC8:  MOVLW  82
06CCA:  MOVWF  xCA
06CCC:  MOVLB  0
06CCE:  CALL   406A
06CD2:  MOVFF  03,6C1
06CD6:  MOVFF  02,6C0
06CDA:  MOVFF  01,6BF
06CDE:  MOVFF  00,6BE
....................    return (int8)tmp; 
06CE2:  MOVFF  6C1,6C5
06CE6:  MOVFF  6C0,6C4
06CEA:  MOVFF  6BF,6C3
06CEE:  MOVFF  6BE,6C2
06CF2:  CALL   4C8A
06CF6:  MOVF   01,W
.................... } 
06CF8:  GOTO   6E0A (RETURN)
....................  
.................... float inttofloat(int8 decimal){ 
....................    float tmp; 
....................    tmp=decimal; 
*
02596:  MOVLB  6
02598:  CLRF   xC3
0259A:  MOVFF  6B4,6C2
0259E:  MOVLB  0
025A0:  RCALL  1F44
025A2:  MOVFF  03,6B8
025A6:  MOVFF  02,6B7
025AA:  MOVFF  01,6B6
025AE:  MOVFF  00,6B5
....................    return tmp/10; 
025B2:  MOVFF  6B8,6BF
025B6:  MOVFF  6B7,6BE
025BA:  MOVFF  6B6,6BD
025BE:  MOVFF  6B5,6BC
025C2:  MOVLB  6
025C4:  CLRF   xC3
025C6:  CLRF   xC2
025C8:  MOVLW  20
025CA:  MOVWF  xC1
025CC:  MOVLW  82
025CE:  MOVWF  xC0
025D0:  MOVLB  0
025D2:  RCALL  1FA2
.................... } 
025D4:  RETLW  00
....................  
.................... void LeeEEPROM(){ 
.................... //Lectura EEPROM//-------------------------- 
....................    Ganancia=read_eeprom(20); 
*
02650:  MOVFF  FF2,6B0
02654:  BCF    FF2.6
02656:  BCF    FF2.7
02658:  CLRF   FAA
0265A:  MOVLW  14
0265C:  MOVWF  FA9
0265E:  BCF    FA6.6
02660:  BCF    FA6.7
02662:  BSF    FA6.0
02664:  MOVF   FA8,W
02666:  MOVLB  6
02668:  BTFSC  xB0.6
0266A:  BSF    FF2.6
0266C:  BTFSC  xB0.7
0266E:  BSF    FF2.7
02670:  CLRF   xC3
02672:  MOVWF  xC2
02674:  MOVLB  0
02676:  RCALL  1F44
02678:  MOVFF  03,220
0267C:  MOVFF  02,21F
02680:  MOVFF  01,21E
02684:  MOVFF  00,21D
....................    delay_ms(10); 
02688:  MOVLW  0A
0268A:  MOVLB  6
0268C:  MOVWF  xC2
0268E:  MOVLB  0
02690:  RCALL  1F7A
....................    Sensor[0].Ajuste=read_eeprom(21); 
02692:  MOVFF  FF2,6B0
02696:  BCF    FF2.6
02698:  BCF    FF2.7
0269A:  CLRF   FAA
0269C:  MOVLW  15
0269E:  MOVWF  FA9
026A0:  BCF    FA6.6
026A2:  BCF    FA6.7
026A4:  BSF    FA6.0
026A6:  MOVF   FA8,W
026A8:  MOVLB  6
026AA:  BTFSC  xB0.6
026AC:  BSF    FF2.6
026AE:  BTFSC  xB0.7
026B0:  BSF    FF2.7
026B2:  MOVLB  3
026B4:  MOVWF  x3E
....................    delay_ms(10); 
026B6:  MOVLW  0A
026B8:  MOVLB  6
026BA:  MOVWF  xC2
026BC:  MOVLB  0
026BE:  RCALL  1F7A
....................    Sensor[0].Ajusten=read_eeprom(22); 
026C0:  MOVFF  FF2,6B0
026C4:  BCF    FF2.6
026C6:  BCF    FF2.7
026C8:  CLRF   FAA
026CA:  MOVLW  16
026CC:  MOVWF  FA9
026CE:  BCF    FA6.6
026D0:  BCF    FA6.7
026D2:  BSF    FA6.0
026D4:  MOVF   FA8,W
026D6:  MOVLB  6
026D8:  BTFSC  xB0.6
026DA:  BSF    FF2.6
026DC:  BTFSC  xB0.7
026DE:  BSF    FF2.7
026E0:  MOVLB  3
026E2:  MOVWF  x3F
....................    delay_ms(10); 
026E4:  MOVLW  0A
026E6:  MOVLB  6
026E8:  MOVWF  xC2
026EA:  MOVLB  0
026EC:  RCALL  1F7A
....................    Sensor[1].Ajuste=read_eeprom(23); 
026EE:  MOVFF  FF2,6B0
026F2:  BCF    FF2.6
026F4:  BCF    FF2.7
026F6:  CLRF   FAA
026F8:  MOVLW  17
026FA:  MOVWF  FA9
026FC:  BCF    FA6.6
026FE:  BCF    FA6.7
02700:  BSF    FA6.0
02702:  MOVF   FA8,W
02704:  MOVLB  6
02706:  BTFSC  xB0.6
02708:  BSF    FF2.6
0270A:  BTFSC  xB0.7
0270C:  BSF    FF2.7
0270E:  MOVLB  4
02710:  MOVWF  xA2
....................    delay_ms(10); 
02712:  MOVLW  0A
02714:  MOVLB  6
02716:  MOVWF  xC2
02718:  MOVLB  0
0271A:  RCALL  1F7A
....................    Sensor[1].Ajusten=read_eeprom(24); 
0271C:  MOVFF  FF2,6B0
02720:  BCF    FF2.6
02722:  BCF    FF2.7
02724:  CLRF   FAA
02726:  MOVLW  18
02728:  MOVWF  FA9
0272A:  BCF    FA6.6
0272C:  BCF    FA6.7
0272E:  BSF    FA6.0
02730:  MOVF   FA8,W
02732:  MOVLB  6
02734:  BTFSC  xB0.6
02736:  BSF    FF2.6
02738:  BTFSC  xB0.7
0273A:  BSF    FF2.7
0273C:  MOVLB  4
0273E:  MOVWF  xA3
....................    delay_ms(10);    
02740:  MOVLW  0A
02742:  MOVLB  6
02744:  MOVWF  xC2
02746:  MOVLB  0
02748:  RCALL  1F7A
....................    MediaMovil=read_eeprom(25); 
0274A:  MOVFF  FF2,6B0
0274E:  BCF    FF2.6
02750:  BCF    FF2.7
02752:  CLRF   FAA
02754:  MOVLW  19
02756:  MOVWF  FA9
02758:  BCF    FA6.6
0275A:  BCF    FA6.7
0275C:  BSF    FA6.0
0275E:  MOVF   FA8,W
02760:  MOVLB  6
02762:  BTFSC  xB0.6
02764:  BSF    FF2.6
02766:  BTFSC  xB0.7
02768:  BSF    FF2.7
0276A:  MOVLB  1
0276C:  MOVWF  xF5
....................    delay_ms(10); 
0276E:  MOVLW  0A
02770:  MOVLB  6
02772:  MOVWF  xC2
02774:  MOVLB  0
02776:  RCALL  1F7A
....................    Tciclo=read_eeprom(26); 
02778:  MOVFF  FF2,6B0
0277C:  BCF    FF2.6
0277E:  BCF    FF2.7
02780:  CLRF   FAA
02782:  MOVLW  1A
02784:  MOVWF  FA9
02786:  BCF    FA6.6
02788:  BCF    FA6.7
0278A:  BSF    FA6.0
0278C:  MOVF   FA8,W
0278E:  MOVLB  6
02790:  BTFSC  xB0.6
02792:  BSF    FF2.6
02794:  BTFSC  xB0.7
02796:  BSF    FF2.7
02798:  CLRF   xC3
0279A:  MOVWF  xC2
0279C:  MOVLB  0
0279E:  CALL   1F44
027A2:  MOVFF  03,208
027A6:  MOVFF  02,207
027AA:  MOVFF  01,206
027AE:  MOVFF  00,205
....................    delay_ms(10); 
027B2:  MOVLW  0A
027B4:  MOVLB  6
027B6:  MOVWF  xC2
027B8:  MOVLB  0
027BA:  CALL   1F7A
....................    Temporal=read_eeprom(27); 
027BE:  MOVFF  FF2,6B0
027C2:  BCF    FF2.6
027C4:  BCF    FF2.7
027C6:  CLRF   FAA
027C8:  MOVLW  1B
027CA:  MOVWF  FA9
027CC:  BCF    FA6.6
027CE:  BCF    FA6.7
027D0:  BSF    FA6.0
027D2:  MOVF   FA8,W
027D4:  MOVLB  6
027D6:  BTFSC  xB0.6
027D8:  BSF    FF2.6
027DA:  BTFSC  xB0.7
027DC:  BSF    FF2.7
027DE:  CLRF   xC3
027E0:  MOVWF  xC2
027E2:  MOVLB  0
027E4:  CALL   1F44
027E8:  MOVFF  03,1BE
027EC:  MOVFF  02,1BD
027F0:  MOVFF  01,1BC
027F4:  MOVFF  00,1BB
....................    Temporal=Temporal/10.0; 
027F8:  MOVFF  1BE,6BF
027FC:  MOVFF  1BD,6BE
02800:  MOVFF  1BC,6BD
02804:  MOVFF  1BB,6BC
02808:  MOVLB  6
0280A:  CLRF   xC3
0280C:  CLRF   xC2
0280E:  MOVLW  20
02810:  MOVWF  xC1
02812:  MOVLW  82
02814:  MOVWF  xC0
02816:  MOVLB  0
02818:  CALL   1FA2
0281C:  MOVFF  03,1BE
02820:  MOVFF  02,1BD
02824:  MOVFF  01,1BC
02828:  MOVFF  00,1BB
....................    delay_ms(10); 
0282C:  MOVLW  0A
0282E:  MOVLB  6
02830:  MOVWF  xC2
02832:  MOVLB  0
02834:  CALL   1F7A
....................    Sensor[0].RPT100=read_eeprom(28)+Temporal; 
02838:  MOVFF  FF2,6B0
0283C:  BCF    FF2.6
0283E:  BCF    FF2.7
02840:  CLRF   FAA
02842:  MOVLW  1C
02844:  MOVWF  FA9
02846:  BCF    FA6.6
02848:  BCF    FA6.7
0284A:  BSF    FA6.0
0284C:  MOVF   FA8,W
0284E:  MOVLB  6
02850:  BTFSC  xB0.6
02852:  BSF    FF2.6
02854:  BTFSC  xB0.7
02856:  BSF    FF2.7
02858:  CLRF   xC3
0285A:  MOVWF  xC2
0285C:  MOVLB  0
0285E:  CALL   1F44
02862:  BCF    FD8.1
02864:  MOVFF  03,6C5
02868:  MOVFF  02,6C4
0286C:  MOVFF  01,6C3
02870:  MOVFF  00,6C2
02874:  MOVFF  1BE,6C9
02878:  MOVFF  1BD,6C8
0287C:  MOVFF  1BC,6C7
02880:  MOVFF  1BB,6C6
02884:  RCALL  2100
02886:  MOVFF  03,333
0288A:  MOVFF  02,332
0288E:  MOVFF  01,331
02892:  MOVFF  00,330
....................    delay_ms(10); 
02896:  MOVLW  0A
02898:  MOVLB  6
0289A:  MOVWF  xC2
0289C:  MOVLB  0
0289E:  CALL   1F7A
....................    Temporal=read_eeprom(29); 
028A2:  MOVFF  FF2,6B0
028A6:  BCF    FF2.6
028A8:  BCF    FF2.7
028AA:  CLRF   FAA
028AC:  MOVLW  1D
028AE:  MOVWF  FA9
028B0:  BCF    FA6.6
028B2:  BCF    FA6.7
028B4:  BSF    FA6.0
028B6:  MOVF   FA8,W
028B8:  MOVLB  6
028BA:  BTFSC  xB0.6
028BC:  BSF    FF2.6
028BE:  BTFSC  xB0.7
028C0:  BSF    FF2.7
028C2:  CLRF   xC3
028C4:  MOVWF  xC2
028C6:  MOVLB  0
028C8:  CALL   1F44
028CC:  MOVFF  03,1BE
028D0:  MOVFF  02,1BD
028D4:  MOVFF  01,1BC
028D8:  MOVFF  00,1BB
....................    Temporal=Temporal/10.0; 
028DC:  MOVFF  1BE,6BF
028E0:  MOVFF  1BD,6BE
028E4:  MOVFF  1BC,6BD
028E8:  MOVFF  1BB,6BC
028EC:  MOVLB  6
028EE:  CLRF   xC3
028F0:  CLRF   xC2
028F2:  MOVLW  20
028F4:  MOVWF  xC1
028F6:  MOVLW  82
028F8:  MOVWF  xC0
028FA:  MOVLB  0
028FC:  CALL   1FA2
02900:  MOVFF  03,1BE
02904:  MOVFF  02,1BD
02908:  MOVFF  01,1BC
0290C:  MOVFF  00,1BB
....................    delay_ms(10); 
02910:  MOVLW  0A
02912:  MOVLB  6
02914:  MOVWF  xC2
02916:  MOVLB  0
02918:  CALL   1F7A
....................    Sensor[1].RPT100=read_eeprom(30)+Temporal; 
0291C:  MOVFF  FF2,6B0
02920:  BCF    FF2.6
02922:  BCF    FF2.7
02924:  CLRF   FAA
02926:  MOVLW  1E
02928:  MOVWF  FA9
0292A:  BCF    FA6.6
0292C:  BCF    FA6.7
0292E:  BSF    FA6.0
02930:  MOVF   FA8,W
02932:  MOVLB  6
02934:  BTFSC  xB0.6
02936:  BSF    FF2.6
02938:  BTFSC  xB0.7
0293A:  BSF    FF2.7
0293C:  CLRF   xC3
0293E:  MOVWF  xC2
02940:  MOVLB  0
02942:  CALL   1F44
02946:  BCF    FD8.1
02948:  MOVFF  03,6C5
0294C:  MOVFF  02,6C4
02950:  MOVFF  01,6C3
02954:  MOVFF  00,6C2
02958:  MOVFF  1BE,6C9
0295C:  MOVFF  1BD,6C8
02960:  MOVFF  1BC,6C7
02964:  MOVFF  1BB,6C6
02968:  CALL   2100
0296C:  MOVFF  03,497
02970:  MOVFF  02,496
02974:  MOVFF  01,495
02978:  MOVFF  00,494
....................    delay_ms(10); 
0297C:  MOVLW  0A
0297E:  MOVLB  6
02980:  MOVWF  xC2
02982:  MOVLB  0
02984:  CALL   1F7A
....................    Atmosferica=read_eeprom(31); 
02988:  MOVFF  FF2,6B0
0298C:  BCF    FF2.6
0298E:  BCF    FF2.7
02990:  CLRF   FAA
02992:  MOVLW  1F
02994:  MOVWF  FA9
02996:  BCF    FA6.6
02998:  BCF    FA6.7
0299A:  BSF    FA6.0
0299C:  MOVF   FA8,W
0299E:  MOVLB  6
029A0:  BTFSC  xB0.6
029A2:  BSF    FF2.6
029A4:  BTFSC  xB0.7
029A6:  BSF    FF2.7
029A8:  MOVLB  2
029AA:  MOVWF  xA2
....................    delay_ms(10); 
029AC:  MOVLW  0A
029AE:  MOVLB  6
029B0:  MOVWF  xC2
029B2:  MOVLB  0
029B4:  CALL   1F7A
....................    Tapertura=read_eeprom(32); 
029B8:  MOVFF  FF2,6B0
029BC:  BCF    FF2.6
029BE:  BCF    FF2.7
029C0:  CLRF   FAA
029C2:  MOVLW  20
029C4:  MOVWF  FA9
029C6:  BCF    FA6.6
029C8:  BCF    FA6.7
029CA:  BSF    FA6.0
029CC:  MOVF   FA8,W
029CE:  MOVLB  6
029D0:  BTFSC  xB0.6
029D2:  BSF    FF2.6
029D4:  BTFSC  xB0.7
029D6:  BSF    FF2.7
029D8:  MOVLB  2
029DA:  MOVWF  x60
....................    delay_ms(10); 
029DC:  MOVLW  0A
029DE:  MOVLB  6
029E0:  MOVWF  xC2
029E2:  MOVLB  0
029E4:  CALL   1F7A
....................    CiclosL=read_eeprom(37); 
029E8:  MOVFF  FF2,6B0
029EC:  BCF    FF2.6
029EE:  BCF    FF2.7
029F0:  CLRF   FAA
029F2:  MOVLW  25
029F4:  MOVWF  FA9
029F6:  BCF    FA6.6
029F8:  BCF    FA6.7
029FA:  BSF    FA6.0
029FC:  MOVF   FA8,W
029FE:  MOVLB  6
02A00:  BTFSC  xB0.6
02A02:  BSF    FF2.6
02A04:  BTFSC  xB0.7
02A06:  BSF    FF2.7
02A08:  MOVLB  2
02A0A:  MOVWF  x5D
....................    delay_ms(10); 
02A0C:  MOVLW  0A
02A0E:  MOVLB  6
02A10:  MOVWF  xC2
02A12:  MOVLB  0
02A14:  CALL   1F7A
....................    CiclosH=read_eeprom(38); 
02A18:  MOVFF  FF2,6B0
02A1C:  BCF    FF2.6
02A1E:  BCF    FF2.7
02A20:  CLRF   FAA
02A22:  MOVLW  26
02A24:  MOVWF  FA9
02A26:  BCF    FA6.6
02A28:  BCF    FA6.7
02A2A:  BSF    FA6.0
02A2C:  MOVF   FA8,W
02A2E:  MOVLB  6
02A30:  BTFSC  xB0.6
02A32:  BSF    FF2.6
02A34:  BTFSC  xB0.7
02A36:  BSF    FF2.7
02A38:  MOVLB  2
02A3A:  MOVWF  x5E
....................    delay_ms(10); 
02A3C:  MOVLW  0A
02A3E:  MOVLB  6
02A40:  MOVWF  xC2
02A42:  MOVLB  0
02A44:  CALL   1F7A
....................    Ciclos=make16(CiclosH,CiclosL); 
02A48:  MOVFF  25E,27D
02A4C:  MOVFF  25D,27C
....................    delay_ms(10); 
02A50:  MOVLW  0A
02A52:  MOVLB  6
02A54:  MOVWF  xC2
02A56:  MOVLB  0
02A58:  CALL   1F7A
....................    G1=read_eeprom(42); 
02A5C:  MOVFF  FF2,6B0
02A60:  BCF    FF2.6
02A62:  BCF    FF2.7
02A64:  CLRF   FAA
02A66:  MOVLW  2A
02A68:  MOVWF  FA9
02A6A:  BCF    FA6.6
02A6C:  BCF    FA6.7
02A6E:  BSF    FA6.0
02A70:  MOVF   FA8,W
02A72:  MOVLB  6
02A74:  BTFSC  xB0.6
02A76:  BSF    FF2.6
02A78:  BTFSC  xB0.7
02A7A:  BSF    FF2.7
02A7C:  MOVLB  2
02A7E:  MOVWF  xB2
....................    delay_ms(10); 
02A80:  MOVLW  0A
02A82:  MOVLB  6
02A84:  MOVWF  xC2
02A86:  MOVLB  0
02A88:  CALL   1F7A
....................    G2=read_eeprom(43); 
02A8C:  MOVFF  FF2,6B0
02A90:  BCF    FF2.6
02A92:  BCF    FF2.7
02A94:  CLRF   FAA
02A96:  MOVLW  2B
02A98:  MOVWF  FA9
02A9A:  BCF    FA6.6
02A9C:  BCF    FA6.7
02A9E:  BSF    FA6.0
02AA0:  MOVF   FA8,W
02AA2:  MOVLB  6
02AA4:  BTFSC  xB0.6
02AA6:  BSF    FF2.6
02AA8:  BTFSC  xB0.7
02AAA:  BSF    FF2.7
02AAC:  MOVLB  2
02AAE:  MOVWF  xB3
....................    delay_ms(10); 
02AB0:  MOVLW  0A
02AB2:  MOVLB  6
02AB4:  MOVWF  xC2
02AB6:  MOVLB  0
02AB8:  CALL   1F7A
....................    sg1=read_eeprom(44); 
02ABC:  MOVFF  FF2,6B0
02AC0:  BCF    FF2.6
02AC2:  BCF    FF2.7
02AC4:  CLRF   FAA
02AC6:  MOVLW  2C
02AC8:  MOVWF  FA9
02ACA:  BCF    FA6.6
02ACC:  BCF    FA6.7
02ACE:  BSF    FA6.0
02AD0:  MOVF   FA8,W
02AD2:  MOVLB  6
02AD4:  BTFSC  xB0.6
02AD6:  BSF    FF2.6
02AD8:  BTFSC  xB0.7
02ADA:  BSF    FF2.7
02ADC:  MOVLB  2
02ADE:  MOVWF  xB4
....................    delay_ms(10); 
02AE0:  MOVLW  0A
02AE2:  MOVLB  6
02AE4:  MOVWF  xC2
02AE6:  MOVLB  0
02AE8:  CALL   1F7A
....................    sg2=read_eeprom(45); 
02AEC:  MOVFF  FF2,6B0
02AF0:  BCF    FF2.6
02AF2:  BCF    FF2.7
02AF4:  CLRF   FAA
02AF6:  MOVLW  2D
02AF8:  MOVWF  FA9
02AFA:  BCF    FA6.6
02AFC:  BCF    FA6.7
02AFE:  BSF    FA6.0
02B00:  MOVF   FA8,W
02B02:  MOVLB  6
02B04:  BTFSC  xB0.6
02B06:  BSF    FF2.6
02B08:  BTFSC  xB0.7
02B0A:  BSF    FF2.7
02B0C:  MOVLB  2
02B0E:  MOVWF  xB5
....................    delay_ms(10); 
02B10:  MOVLW  0A
02B12:  MOVLB  6
02B14:  MOVWF  xC2
02B16:  MOVLB  0
02B18:  CALL   1F7A
....................    cerroSucioInt=read_eeprom(46); 
02B1C:  MOVFF  FF2,6B0
02B20:  BCF    FF2.6
02B22:  BCF    FF2.7
02B24:  CLRF   FAA
02B26:  MOVLW  2E
02B28:  MOVWF  FA9
02B2A:  BCF    FA6.6
02B2C:  BCF    FA6.7
02B2E:  BSF    FA6.0
02B30:  MOVF   FA8,W
02B32:  MOVLB  6
02B34:  BTFSC  xB0.6
02B36:  BSF    FF2.6
02B38:  BTFSC  xB0.7
02B3A:  BSF    FF2.7
02B3C:  MOVLB  1
02B3E:  MOVWF  xFB
....................    delay_ms(10); 
02B40:  MOVLW  0A
02B42:  MOVLB  6
02B44:  MOVWF  xC2
02B46:  MOVLB  0
02B48:  CALL   1F7A
....................    cerroLimpioInt=read_eeprom(47); 
02B4C:  MOVFF  FF2,6B0
02B50:  BCF    FF2.6
02B52:  BCF    FF2.7
02B54:  CLRF   FAA
02B56:  MOVLW  2F
02B58:  MOVWF  FA9
02B5A:  BCF    FA6.6
02B5C:  BCF    FA6.7
02B5E:  BSF    FA6.0
02B60:  MOVF   FA8,W
02B62:  MOVLB  6
02B64:  BTFSC  xB0.6
02B66:  BSF    FF2.6
02B68:  BTFSC  xB0.7
02B6A:  BSF    FF2.7
02B6C:  MOVLB  1
02B6E:  MOVWF  xFC
....................    delay_ms(10); 
02B70:  MOVLW  0A
02B72:  MOVLB  6
02B74:  MOVWF  xC2
02B76:  MOVLB  0
02B78:  CALL   1F7A
....................     
....................    for(i=0;i<30;i++){ 
02B7C:  MOVLB  2
02B7E:  CLRF   x5C
02B80:  MOVF   x5C,W
02B82:  SUBLW  1D
02B84:  BNC   2BFE
....................       estados[i]=read_eeprom(i+50); 
02B86:  MOVLW  32
02B88:  ADDWF  x5C,W
02B8A:  MOVLB  6
02B8C:  MOVWF  xB0
02B8E:  MOVFF  FF2,6B1
02B92:  BCF    FF2.6
02B94:  BCF    FF2.7
02B96:  CLRF   FAA
02B98:  MOVFF  6B0,FA9
02B9C:  BCF    FA6.6
02B9E:  BCF    FA6.7
02BA0:  BSF    FA6.0
02BA2:  MOVF   FA8,W
02BA4:  BTFSC  xB1.6
02BA6:  BSF    FF2.6
02BA8:  BTFSC  xB1.7
02BAA:  BSF    FF2.7
02BAC:  MOVFF  25C,6B2
02BB0:  MOVWF  xB3
02BB2:  MOVLW  03
02BB4:  MOVWF  xB5
02BB6:  MOVLW  1C
02BB8:  MOVWF  xB4
02BBA:  MOVLB  0
02BBC:  CALL   2378
....................       if(estados[i]>1) 
02BC0:  MOVFF  25C,6B1
02BC4:  MOVLW  03
02BC6:  MOVLB  6
02BC8:  MOVWF  xB3
02BCA:  MOVLW  1C
02BCC:  MOVWF  xB2
02BCE:  MOVLB  0
02BD0:  CALL   23BA
02BD4:  MOVLW  00
02BD6:  BTFSC  01.0
02BD8:  MOVLW  01
02BDA:  ANDLW  01
02BDC:  SUBLW  01
02BDE:  BC    2BF8
....................          estados[i]=1; 
02BE0:  MOVFF  25C,6B2
02BE4:  MOVLW  01
02BE6:  MOVLB  6
02BE8:  MOVWF  xB3
02BEA:  MOVLW  03
02BEC:  MOVWF  xB5
02BEE:  MOVLW  1C
02BF0:  MOVWF  xB4
02BF2:  MOVLB  0
02BF4:  CALL   2378
....................    } 
02BF8:  MOVLB  2
02BFA:  INCF   x5C,F
02BFC:  BRA    2B80
....................     
....................    for(i=0;i<20;i++){//Lee valores almacenados de ciclos personalizados 
02BFE:  CLRF   x5C
02C00:  MOVF   x5C,W
02C02:  SUBLW  13
02C04:  BTFSS  FD8.0
02C06:  BRA    31D4
....................       CiclosPersonalizados[i].Temperatura=read_eeprom(100+(i*8));  
02C08:  MOVF   x5C,W
02C0A:  MULLW  08
02C0C:  MOVF   FF3,W
02C0E:  MOVLB  6
02C10:  CLRF   xB1
02C12:  MOVWF  xB0
02C14:  MOVLW  E8
02C16:  ADDWF  xB0,W
02C18:  MOVWF  FE9
02C1A:  MOVLW  05
02C1C:  ADDWFC xB1,W
02C1E:  MOVWF  FEA
02C20:  MOVLB  2
02C22:  MOVF   x5C,W
02C24:  MULLW  08
02C26:  MOVF   FF3,W
02C28:  ADDLW  64
02C2A:  MOVLB  6
02C2C:  MOVWF  xB2
02C2E:  MOVFF  FF2,6B3
02C32:  BCF    FF2.6
02C34:  BCF    FF2.7
02C36:  CLRF   FAA
02C38:  MOVFF  6B2,FA9
02C3C:  BCF    FA6.6
02C3E:  BCF    FA6.7
02C40:  BSF    FA6.0
02C42:  MOVF   FA8,W
02C44:  BTFSC  xB3.6
02C46:  BSF    FF2.6
02C48:  BTFSC  xB3.7
02C4A:  BSF    FF2.7
02C4C:  MOVWF  FEF
....................       CiclosPersonalizados[i].Minutoest=read_eeprom(101+(i*8));  
02C4E:  MOVLB  2
02C50:  MOVF   x5C,W
02C52:  MULLW  08
02C54:  MOVF   FF3,W
02C56:  MOVLB  6
02C58:  CLRF   xB1
02C5A:  MOVWF  xB0
02C5C:  MOVLW  01
02C5E:  ADDWF  xB0,W
02C60:  MOVWF  01
02C62:  MOVLW  00
02C64:  ADDWFC xB1,W
02C66:  MOVWF  03
02C68:  MOVF   01,W
02C6A:  ADDLW  E8
02C6C:  MOVWF  FE9
02C6E:  MOVLW  05
02C70:  ADDWFC 03,W
02C72:  MOVWF  FEA
02C74:  MOVLB  2
02C76:  MOVF   x5C,W
02C78:  MULLW  08
02C7A:  MOVF   FF3,W
02C7C:  ADDLW  65
02C7E:  MOVLB  6
02C80:  MOVWF  xB2
02C82:  MOVFF  FF2,6B3
02C86:  BCF    FF2.6
02C88:  BCF    FF2.7
02C8A:  CLRF   FAA
02C8C:  MOVFF  6B2,FA9
02C90:  BCF    FA6.6
02C92:  BCF    FA6.7
02C94:  BSF    FA6.0
02C96:  MOVF   FA8,W
02C98:  BTFSC  xB3.6
02C9A:  BSF    FF2.6
02C9C:  BTFSC  xB3.7
02C9E:  BSF    FF2.7
02CA0:  MOVWF  FEF
....................       CiclosPersonalizados[i].Segundoest=read_eeprom(102+(i*8));  
02CA2:  MOVLB  2
02CA4:  MOVF   x5C,W
02CA6:  MULLW  08
02CA8:  MOVF   FF3,W
02CAA:  MOVLB  6
02CAC:  CLRF   xB1
02CAE:  MOVWF  xB0
02CB0:  MOVLW  02
02CB2:  ADDWF  xB0,W
02CB4:  MOVWF  01
02CB6:  MOVLW  00
02CB8:  ADDWFC xB1,W
02CBA:  MOVWF  03
02CBC:  MOVF   01,W
02CBE:  ADDLW  E8
02CC0:  MOVWF  FE9
02CC2:  MOVLW  05
02CC4:  ADDWFC 03,W
02CC6:  MOVWF  FEA
02CC8:  MOVLB  2
02CCA:  MOVF   x5C,W
02CCC:  MULLW  08
02CCE:  MOVF   FF3,W
02CD0:  ADDLW  66
02CD2:  MOVLB  6
02CD4:  MOVWF  xB2
02CD6:  MOVFF  FF2,6B3
02CDA:  BCF    FF2.6
02CDC:  BCF    FF2.7
02CDE:  CLRF   FAA
02CE0:  MOVFF  6B2,FA9
02CE4:  BCF    FA6.6
02CE6:  BCF    FA6.7
02CE8:  BSF    FA6.0
02CEA:  MOVF   FA8,W
02CEC:  BTFSC  xB3.6
02CEE:  BSF    FF2.6
02CF0:  BTFSC  xB3.7
02CF2:  BSF    FF2.7
02CF4:  MOVWF  FEF
....................       CiclosPersonalizados[i].Minutosec=read_eeprom(103+(i*8));  
02CF6:  MOVLB  2
02CF8:  MOVF   x5C,W
02CFA:  MULLW  08
02CFC:  MOVF   FF3,W
02CFE:  MOVLB  6
02D00:  CLRF   xB1
02D02:  MOVWF  xB0
02D04:  MOVLW  03
02D06:  ADDWF  xB0,W
02D08:  MOVWF  01
02D0A:  MOVLW  00
02D0C:  ADDWFC xB1,W
02D0E:  MOVWF  03
02D10:  MOVF   01,W
02D12:  ADDLW  E8
02D14:  MOVWF  FE9
02D16:  MOVLW  05
02D18:  ADDWFC 03,W
02D1A:  MOVWF  FEA
02D1C:  MOVLB  2
02D1E:  MOVF   x5C,W
02D20:  MULLW  08
02D22:  MOVF   FF3,W
02D24:  ADDLW  67
02D26:  MOVLB  6
02D28:  MOVWF  xB2
02D2A:  MOVFF  FF2,6B3
02D2E:  BCF    FF2.6
02D30:  BCF    FF2.7
02D32:  CLRF   FAA
02D34:  MOVFF  6B2,FA9
02D38:  BCF    FA6.6
02D3A:  BCF    FA6.7
02D3C:  BSF    FA6.0
02D3E:  MOVF   FA8,W
02D40:  BTFSC  xB3.6
02D42:  BSF    FF2.6
02D44:  BTFSC  xB3.7
02D46:  BSF    FF2.7
02D48:  MOVWF  FEF
....................       CiclosPersonalizados[i].Segundosec=read_eeprom(104+(i*8));  
02D4A:  MOVLB  2
02D4C:  MOVF   x5C,W
02D4E:  MULLW  08
02D50:  MOVF   FF3,W
02D52:  MOVLB  6
02D54:  CLRF   xB1
02D56:  MOVWF  xB0
02D58:  MOVLW  04
02D5A:  ADDWF  xB0,W
02D5C:  MOVWF  01
02D5E:  MOVLW  00
02D60:  ADDWFC xB1,W
02D62:  MOVWF  03
02D64:  MOVF   01,W
02D66:  ADDLW  E8
02D68:  MOVWF  FE9
02D6A:  MOVLW  05
02D6C:  ADDWFC 03,W
02D6E:  MOVWF  FEA
02D70:  MOVLB  2
02D72:  MOVF   x5C,W
02D74:  MULLW  08
02D76:  MOVF   FF3,W
02D78:  ADDLW  68
02D7A:  MOVLB  6
02D7C:  MOVWF  xB2
02D7E:  MOVFF  FF2,6B3
02D82:  BCF    FF2.6
02D84:  BCF    FF2.7
02D86:  CLRF   FAA
02D88:  MOVFF  6B2,FA9
02D8C:  BCF    FA6.6
02D8E:  BCF    FA6.7
02D90:  BSF    FA6.0
02D92:  MOVF   FA8,W
02D94:  BTFSC  xB3.6
02D96:  BSF    FF2.6
02D98:  BTFSC  xB3.7
02D9A:  BSF    FF2.7
02D9C:  MOVWF  FEF
....................       CiclosPersonalizados[i].PulsosVacio=read_eeprom(105+(i*8));  
02D9E:  MOVLB  2
02DA0:  MOVF   x5C,W
02DA2:  MULLW  08
02DA4:  MOVF   FF3,W
02DA6:  MOVLB  6
02DA8:  CLRF   xB1
02DAA:  MOVWF  xB0
02DAC:  MOVLW  05
02DAE:  ADDWF  xB0,W
02DB0:  MOVWF  01
02DB2:  MOVLW  00
02DB4:  ADDWFC xB1,W
02DB6:  MOVWF  03
02DB8:  MOVF   01,W
02DBA:  ADDLW  E8
02DBC:  MOVWF  FE9
02DBE:  MOVLW  05
02DC0:  ADDWFC 03,W
02DC2:  MOVWF  FEA
02DC4:  MOVLB  2
02DC6:  MOVF   x5C,W
02DC8:  MULLW  08
02DCA:  MOVF   FF3,W
02DCC:  ADDLW  69
02DCE:  MOVLB  6
02DD0:  MOVWF  xB2
02DD2:  MOVFF  FF2,6B3
02DD6:  BCF    FF2.6
02DD8:  BCF    FF2.7
02DDA:  CLRF   FAA
02DDC:  MOVFF  6B2,FA9
02DE0:  BCF    FA6.6
02DE2:  BCF    FA6.7
02DE4:  BSF    FA6.0
02DE6:  MOVF   FA8,W
02DE8:  BTFSC  xB3.6
02DEA:  BSF    FF2.6
02DEC:  BTFSC  xB3.7
02DEE:  BSF    FF2.7
02DF0:  MOVWF  FEF
....................       CiclosPersonalizados[i].NivelVacio=read_eeprom(106+(i*8));  
02DF2:  MOVLB  2
02DF4:  MOVF   x5C,W
02DF6:  MULLW  08
02DF8:  MOVF   FF3,W
02DFA:  MOVLB  6
02DFC:  CLRF   xB1
02DFE:  MOVWF  xB0
02E00:  MOVLW  06
02E02:  ADDWF  xB0,W
02E04:  MOVWF  01
02E06:  MOVLW  00
02E08:  ADDWFC xB1,W
02E0A:  MOVWF  03
02E0C:  MOVF   01,W
02E0E:  ADDLW  E8
02E10:  MOVWF  FE9
02E12:  MOVLW  05
02E14:  ADDWFC 03,W
02E16:  MOVWF  FEA
02E18:  MOVLB  2
02E1A:  MOVF   x5C,W
02E1C:  MULLW  08
02E1E:  MOVF   FF3,W
02E20:  ADDLW  6A
02E22:  MOVLB  6
02E24:  MOVWF  xB2
02E26:  MOVFF  FF2,6B3
02E2A:  BCF    FF2.6
02E2C:  BCF    FF2.7
02E2E:  CLRF   FAA
02E30:  MOVFF  6B2,FA9
02E34:  BCF    FA6.6
02E36:  BCF    FA6.7
02E38:  BSF    FA6.0
02E3A:  MOVF   FA8,W
02E3C:  BTFSC  xB3.6
02E3E:  BSF    FF2.6
02E40:  BTFSC  xB3.7
02E42:  BSF    FF2.7
02E44:  MOVWF  FEF
....................       CiclosPersonalizados[i].NivelDesfogue=read_eeprom(107+(i*8));  
02E46:  MOVLB  2
02E48:  MOVF   x5C,W
02E4A:  MULLW  08
02E4C:  MOVF   FF3,W
02E4E:  MOVLB  6
02E50:  CLRF   xB1
02E52:  MOVWF  xB0
02E54:  MOVLW  07
02E56:  ADDWF  xB0,W
02E58:  MOVWF  01
02E5A:  MOVLW  00
02E5C:  ADDWFC xB1,W
02E5E:  MOVWF  03
02E60:  MOVF   01,W
02E62:  ADDLW  E8
02E64:  MOVWF  FE9
02E66:  MOVLW  05
02E68:  ADDWFC 03,W
02E6A:  MOVWF  FEA
02E6C:  MOVLB  2
02E6E:  MOVF   x5C,W
02E70:  MULLW  08
02E72:  MOVF   FF3,W
02E74:  ADDLW  6B
02E76:  MOVLB  6
02E78:  MOVWF  xB2
02E7A:  MOVFF  FF2,6B3
02E7E:  BCF    FF2.6
02E80:  BCF    FF2.7
02E82:  CLRF   FAA
02E84:  MOVFF  6B2,FA9
02E88:  BCF    FA6.6
02E8A:  BCF    FA6.7
02E8C:  BSF    FA6.0
02E8E:  MOVF   FA8,W
02E90:  BTFSC  xB3.6
02E92:  BSF    FF2.6
02E94:  BTFSC  xB3.7
02E96:  BSF    FF2.7
02E98:  MOVWF  FEF
....................        
....................       if(CiclosPersonalizados[i].Temperatura>138 || CiclosPersonalizados[i].Temperatura<110) 
02E9A:  MOVLB  2
02E9C:  MOVF   x5C,W
02E9E:  MULLW  08
02EA0:  MOVF   FF3,W
02EA2:  MOVLB  6
02EA4:  CLRF   xB1
02EA6:  MOVWF  xB0
02EA8:  MOVLW  E8
02EAA:  ADDWF  xB0,W
02EAC:  MOVWF  FE9
02EAE:  MOVLW  05
02EB0:  ADDWFC xB1,W
02EB2:  MOVWF  FEA
02EB4:  MOVF   FEF,W
02EB6:  SUBLW  8A
02EB8:  BNC   2EDA
02EBA:  MOVLB  2
02EBC:  MOVF   x5C,W
02EBE:  MULLW  08
02EC0:  MOVF   FF3,W
02EC2:  MOVLB  6
02EC4:  CLRF   xB1
02EC6:  MOVWF  xB0
02EC8:  MOVLW  E8
02ECA:  ADDWF  xB0,W
02ECC:  MOVWF  FE9
02ECE:  MOVLW  05
02ED0:  ADDWFC xB1,W
02ED2:  MOVWF  FEA
02ED4:  MOVF   FEF,W
02ED6:  SUBLW  6D
02ED8:  BNC   2EF8
....................          CiclosPersonalizados[i].Temperatura=121; 
02EDA:  MOVLB  2
02EDC:  MOVF   x5C,W
02EDE:  MULLW  08
02EE0:  MOVF   FF3,W
02EE2:  MOVLB  6
02EE4:  CLRF   xB1
02EE6:  MOVWF  xB0
02EE8:  MOVLW  E8
02EEA:  ADDWF  xB0,W
02EEC:  MOVWF  FE9
02EEE:  MOVLW  05
02EF0:  ADDWFC xB1,W
02EF2:  MOVWF  FEA
02EF4:  MOVLW  79
02EF6:  MOVWF  FEF
....................       if(CiclosPersonalizados[i].Minutoest>99 || CiclosPersonalizados[i].Minutoest<1) 
02EF8:  MOVLB  2
02EFA:  MOVF   x5C,W
02EFC:  MULLW  08
02EFE:  MOVF   FF3,W
02F00:  MOVLB  6
02F02:  CLRF   xB1
02F04:  MOVWF  xB0
02F06:  MOVLW  01
02F08:  ADDWF  xB0,W
02F0A:  MOVWF  01
02F0C:  MOVLW  00
02F0E:  ADDWFC xB1,W
02F10:  MOVWF  03
02F12:  MOVF   01,W
02F14:  ADDLW  E8
02F16:  MOVWF  FE9
02F18:  MOVLW  05
02F1A:  ADDWFC 03,W
02F1C:  MOVWF  FEA
02F1E:  MOVF   FEF,W
02F20:  SUBLW  63
02F22:  BNC   2F4E
02F24:  MOVLB  2
02F26:  MOVF   x5C,W
02F28:  MULLW  08
02F2A:  MOVF   FF3,W
02F2C:  MOVLB  6
02F2E:  CLRF   xB1
02F30:  MOVWF  xB0
02F32:  MOVLW  01
02F34:  ADDWF  xB0,W
02F36:  MOVWF  01
02F38:  MOVLW  00
02F3A:  ADDWFC xB1,W
02F3C:  MOVWF  03
02F3E:  MOVF   01,W
02F40:  ADDLW  E8
02F42:  MOVWF  FE9
02F44:  MOVLW  05
02F46:  ADDWFC 03,W
02F48:  MOVWF  FEA
02F4A:  MOVF   FEF,F
02F4C:  BNZ   2F78
....................          CiclosPersonalizados[i].Minutoest=3; 
02F4E:  MOVLB  2
02F50:  MOVF   x5C,W
02F52:  MULLW  08
02F54:  MOVF   FF3,W
02F56:  MOVLB  6
02F58:  CLRF   xB1
02F5A:  MOVWF  xB0
02F5C:  MOVLW  01
02F5E:  ADDWF  xB0,W
02F60:  MOVWF  01
02F62:  MOVLW  00
02F64:  ADDWFC xB1,W
02F66:  MOVWF  03
02F68:  MOVF   01,W
02F6A:  ADDLW  E8
02F6C:  MOVWF  FE9
02F6E:  MOVLW  05
02F70:  ADDWFC 03,W
02F72:  MOVWF  FEA
02F74:  MOVLW  03
02F76:  MOVWF  FEF
....................       if(CiclosPersonalizados[i].Minutosec>99 || CiclosPersonalizados[i].Minutosec<1) 
02F78:  MOVLB  2
02F7A:  MOVF   x5C,W
02F7C:  MULLW  08
02F7E:  MOVF   FF3,W
02F80:  MOVLB  6
02F82:  CLRF   xB1
02F84:  MOVWF  xB0
02F86:  MOVLW  03
02F88:  ADDWF  xB0,W
02F8A:  MOVWF  01
02F8C:  MOVLW  00
02F8E:  ADDWFC xB1,W
02F90:  MOVWF  03
02F92:  MOVF   01,W
02F94:  ADDLW  E8
02F96:  MOVWF  FE9
02F98:  MOVLW  05
02F9A:  ADDWFC 03,W
02F9C:  MOVWF  FEA
02F9E:  MOVF   FEF,W
02FA0:  SUBLW  63
02FA2:  BNC   2FCE
02FA4:  MOVLB  2
02FA6:  MOVF   x5C,W
02FA8:  MULLW  08
02FAA:  MOVF   FF3,W
02FAC:  MOVLB  6
02FAE:  CLRF   xB1
02FB0:  MOVWF  xB0
02FB2:  MOVLW  03
02FB4:  ADDWF  xB0,W
02FB6:  MOVWF  01
02FB8:  MOVLW  00
02FBA:  ADDWFC xB1,W
02FBC:  MOVWF  03
02FBE:  MOVF   01,W
02FC0:  ADDLW  E8
02FC2:  MOVWF  FE9
02FC4:  MOVLW  05
02FC6:  ADDWFC 03,W
02FC8:  MOVWF  FEA
02FCA:  MOVF   FEF,F
02FCC:  BNZ   2FF8
....................          CiclosPersonalizados[i].Minutosec=1;    
02FCE:  MOVLB  2
02FD0:  MOVF   x5C,W
02FD2:  MULLW  08
02FD4:  MOVF   FF3,W
02FD6:  MOVLB  6
02FD8:  CLRF   xB1
02FDA:  MOVWF  xB0
02FDC:  MOVLW  03
02FDE:  ADDWF  xB0,W
02FE0:  MOVWF  01
02FE2:  MOVLW  00
02FE4:  ADDWFC xB1,W
02FE6:  MOVWF  03
02FE8:  MOVF   01,W
02FEA:  ADDLW  E8
02FEC:  MOVWF  FE9
02FEE:  MOVLW  05
02FF0:  ADDWFC 03,W
02FF2:  MOVWF  FEA
02FF4:  MOVLW  01
02FF6:  MOVWF  FEF
....................       if(CiclosPersonalizados[i].Segundoest>59) 
02FF8:  MOVLB  2
02FFA:  MOVF   x5C,W
02FFC:  MULLW  08
02FFE:  MOVF   FF3,W
03000:  MOVLB  6
03002:  CLRF   xB1
03004:  MOVWF  xB0
03006:  MOVLW  02
03008:  ADDWF  xB0,W
0300A:  MOVWF  01
0300C:  MOVLW  00
0300E:  ADDWFC xB1,W
03010:  MOVWF  03
03012:  MOVF   01,W
03014:  ADDLW  E8
03016:  MOVWF  FE9
03018:  MOVLW  05
0301A:  ADDWFC 03,W
0301C:  MOVWF  FEA
0301E:  MOVF   FEF,W
03020:  SUBLW  3B
03022:  BC    304C
....................          CiclosPersonalizados[i].Segundoest=0; 
03024:  MOVLB  2
03026:  MOVF   x5C,W
03028:  MULLW  08
0302A:  MOVF   FF3,W
0302C:  MOVLB  6
0302E:  CLRF   xB1
03030:  MOVWF  xB0
03032:  MOVLW  02
03034:  ADDWF  xB0,W
03036:  MOVWF  01
03038:  MOVLW  00
0303A:  ADDWFC xB1,W
0303C:  MOVWF  03
0303E:  MOVF   01,W
03040:  ADDLW  E8
03042:  MOVWF  FE9
03044:  MOVLW  05
03046:  ADDWFC 03,W
03048:  MOVWF  FEA
0304A:  CLRF   FEF
....................       if(CiclosPersonalizados[i].Segundosec>59) 
0304C:  MOVLB  2
0304E:  MOVF   x5C,W
03050:  MULLW  08
03052:  MOVF   FF3,W
03054:  MOVLB  6
03056:  CLRF   xB1
03058:  MOVWF  xB0
0305A:  MOVLW  04
0305C:  ADDWF  xB0,W
0305E:  MOVWF  01
03060:  MOVLW  00
03062:  ADDWFC xB1,W
03064:  MOVWF  03
03066:  MOVF   01,W
03068:  ADDLW  E8
0306A:  MOVWF  FE9
0306C:  MOVLW  05
0306E:  ADDWFC 03,W
03070:  MOVWF  FEA
03072:  MOVF   FEF,W
03074:  SUBLW  3B
03076:  BC    30A0
....................          CiclosPersonalizados[i].Segundosec=0;       
03078:  MOVLB  2
0307A:  MOVF   x5C,W
0307C:  MULLW  08
0307E:  MOVF   FF3,W
03080:  MOVLB  6
03082:  CLRF   xB1
03084:  MOVWF  xB0
03086:  MOVLW  04
03088:  ADDWF  xB0,W
0308A:  MOVWF  01
0308C:  MOVLW  00
0308E:  ADDWFC xB1,W
03090:  MOVWF  03
03092:  MOVF   01,W
03094:  ADDLW  E8
03096:  MOVWF  FE9
03098:  MOVLW  05
0309A:  ADDWFC 03,W
0309C:  MOVWF  FEA
0309E:  CLRF   FEF
....................       if(CiclosPersonalizados[i].PulsosVacio>15) 
030A0:  MOVLB  2
030A2:  MOVF   x5C,W
030A4:  MULLW  08
030A6:  MOVF   FF3,W
030A8:  MOVLB  6
030AA:  CLRF   xB1
030AC:  MOVWF  xB0
030AE:  MOVLW  05
030B0:  ADDWF  xB0,W
030B2:  MOVWF  01
030B4:  MOVLW  00
030B6:  ADDWFC xB1,W
030B8:  MOVWF  03
030BA:  MOVF   01,W
030BC:  ADDLW  E8
030BE:  MOVWF  FE9
030C0:  MOVLW  05
030C2:  ADDWFC 03,W
030C4:  MOVWF  FEA
030C6:  MOVF   FEF,W
030C8:  SUBLW  0F
030CA:  BC    30F6
....................          CiclosPersonalizados[i].PulsosVacio=4; 
030CC:  MOVLB  2
030CE:  MOVF   x5C,W
030D0:  MULLW  08
030D2:  MOVF   FF3,W
030D4:  MOVLB  6
030D6:  CLRF   xB1
030D8:  MOVWF  xB0
030DA:  MOVLW  05
030DC:  ADDWF  xB0,W
030DE:  MOVWF  01
030E0:  MOVLW  00
030E2:  ADDWFC xB1,W
030E4:  MOVWF  03
030E6:  MOVF   01,W
030E8:  ADDLW  E8
030EA:  MOVWF  FE9
030EC:  MOVLW  05
030EE:  ADDWFC 03,W
030F0:  MOVWF  FEA
030F2:  MOVLW  04
030F4:  MOVWF  FEF
....................       if(CiclosPersonalizados[i].NivelVacio>100 || CiclosPersonalizados[i].NivelVacio<10) 
030F6:  MOVLB  2
030F8:  MOVF   x5C,W
030FA:  MULLW  08
030FC:  MOVF   FF3,W
030FE:  MOVLB  6
03100:  CLRF   xB1
03102:  MOVWF  xB0
03104:  MOVLW  06
03106:  ADDWF  xB0,W
03108:  MOVWF  01
0310A:  MOVLW  00
0310C:  ADDWFC xB1,W
0310E:  MOVWF  03
03110:  MOVF   01,W
03112:  ADDLW  E8
03114:  MOVWF  FE9
03116:  MOVLW  05
03118:  ADDWFC 03,W
0311A:  MOVWF  FEA
0311C:  MOVF   FEF,W
0311E:  SUBLW  64
03120:  BNC   314E
03122:  MOVLB  2
03124:  MOVF   x5C,W
03126:  MULLW  08
03128:  MOVF   FF3,W
0312A:  MOVLB  6
0312C:  CLRF   xB1
0312E:  MOVWF  xB0
03130:  MOVLW  06
03132:  ADDWF  xB0,W
03134:  MOVWF  01
03136:  MOVLW  00
03138:  ADDWFC xB1,W
0313A:  MOVWF  03
0313C:  MOVF   01,W
0313E:  ADDLW  E8
03140:  MOVWF  FE9
03142:  MOVLW  05
03144:  ADDWFC 03,W
03146:  MOVWF  FEA
03148:  MOVF   FEF,W
0314A:  SUBLW  09
0314C:  BNC   3178
....................          CiclosPersonalizados[i].NivelVacio=25;    
0314E:  MOVLB  2
03150:  MOVF   x5C,W
03152:  MULLW  08
03154:  MOVF   FF3,W
03156:  MOVLB  6
03158:  CLRF   xB1
0315A:  MOVWF  xB0
0315C:  MOVLW  06
0315E:  ADDWF  xB0,W
03160:  MOVWF  01
03162:  MOVLW  00
03164:  ADDWFC xB1,W
03166:  MOVWF  03
03168:  MOVF   01,W
0316A:  ADDLW  E8
0316C:  MOVWF  FE9
0316E:  MOVLW  05
03170:  ADDWFC 03,W
03172:  MOVWF  FEA
03174:  MOVLW  19
03176:  MOVWF  FEF
....................       if(CiclosPersonalizados[i].NivelDesfogue>6) 
03178:  MOVLB  2
0317A:  MOVF   x5C,W
0317C:  MULLW  08
0317E:  MOVF   FF3,W
03180:  MOVLB  6
03182:  CLRF   xB1
03184:  MOVWF  xB0
03186:  MOVLW  07
03188:  ADDWF  xB0,W
0318A:  MOVWF  01
0318C:  MOVLW  00
0318E:  ADDWFC xB1,W
03190:  MOVWF  03
03192:  MOVF   01,W
03194:  ADDLW  E8
03196:  MOVWF  FE9
03198:  MOVLW  05
0319A:  ADDWFC 03,W
0319C:  MOVWF  FEA
0319E:  MOVF   FEF,W
031A0:  SUBLW  06
031A2:  BC    31CE
....................          CiclosPersonalizados[i].NivelDesfogue=6; 
031A4:  MOVLB  2
031A6:  MOVF   x5C,W
031A8:  MULLW  08
031AA:  MOVF   FF3,W
031AC:  MOVLB  6
031AE:  CLRF   xB1
031B0:  MOVWF  xB0
031B2:  MOVLW  07
031B4:  ADDWF  xB0,W
031B6:  MOVWF  01
031B8:  MOVLW  00
031BA:  ADDWFC xB1,W
031BC:  MOVWF  03
031BE:  MOVF   01,W
031C0:  ADDLW  E8
031C2:  MOVWF  FE9
031C4:  MOVLW  05
031C6:  ADDWFC 03,W
031C8:  MOVWF  FEA
031CA:  MOVLW  06
031CC:  MOVWF  FEF
....................    } 
031CE:  MOVLB  2
031D0:  INCF   x5C,F
031D2:  BRA    2C00
....................     
....................    for(i=0;i<10;i++){//Lee contraseas de usuarios 
031D4:  CLRF   x5C
031D6:  MOVF   x5C,W
031D8:  SUBLW  09
031DA:  BNC   32B6
....................       for(j=0;j<4;j++){ 
031DC:  CLRF   xAF
031DE:  MOVF   xAF,W
031E0:  SUBLW  03
031E2:  BNC   32B2
....................          Clave[i].Password[j]=read_eeprom((300+j)+(i*4)); 
031E4:  MOVF   x5C,W
031E6:  MULLW  04
031E8:  MOVF   FF3,W
031EA:  MOVLB  6
031EC:  CLRF   xB1
031EE:  MOVWF  xB0
031F0:  CLRF   03
031F2:  MOVLB  2
031F4:  MOVF   xAF,W
031F6:  MOVLB  6
031F8:  ADDWF  xB0,W
031FA:  MOVWF  01
031FC:  MOVF   xB1,W
031FE:  ADDWFC 03,F
03200:  MOVF   01,W
03202:  ADDLW  88
03204:  MOVWF  FE9
03206:  MOVLW  06
03208:  ADDWFC 03,W
0320A:  MOVWF  FEA
0320C:  MOVLW  2C
0320E:  MOVLB  2
03210:  ADDWF  xAF,W
03212:  MOVLB  6
03214:  MOVWF  xB2
03216:  MOVLW  01
03218:  MOVWF  xB3
0321A:  BTFSC  FD8.0
0321C:  INCF   xB3,F
0321E:  MOVLB  2
03220:  MOVF   x5C,W
03222:  MULLW  04
03224:  MOVF   FF3,W
03226:  MOVLB  6
03228:  ADDWF  xB2,F
0322A:  MOVLW  00
0322C:  ADDWFC xB3,F
0322E:  MOVFF  FF2,6B4
03232:  BCF    FF2.6
03234:  BCF    FF2.7
03236:  MOVFF  6B3,FAA
0323A:  MOVFF  6B2,FA9
0323E:  BCF    FA6.6
03240:  BCF    FA6.7
03242:  BSF    FA6.0
03244:  MOVF   FA8,W
03246:  BTFSC  xB4.6
03248:  BSF    FF2.6
0324A:  BTFSC  xB4.7
0324C:  BSF    FF2.7
0324E:  MOVWF  FEF
....................          if(Clave[i].Password[j]>9) 
03250:  MOVLB  2
03252:  MOVF   x5C,W
03254:  MULLW  04
03256:  MOVF   FF3,W
03258:  MOVLB  6
0325A:  CLRF   xB1
0325C:  MOVWF  xB0
0325E:  CLRF   03
03260:  MOVLB  2
03262:  MOVF   xAF,W
03264:  MOVLB  6
03266:  ADDWF  xB0,W
03268:  MOVWF  01
0326A:  MOVF   xB1,W
0326C:  ADDWFC 03,F
0326E:  MOVF   01,W
03270:  ADDLW  88
03272:  MOVWF  FE9
03274:  MOVLW  06
03276:  ADDWFC 03,W
03278:  MOVWF  FEA
0327A:  MOVF   FEF,W
0327C:  SUBLW  09
0327E:  BC    32AC
....................             Clave[i].Password[j]=0; 
03280:  MOVLB  2
03282:  MOVF   x5C,W
03284:  MULLW  04
03286:  MOVF   FF3,W
03288:  MOVLB  6
0328A:  CLRF   xB1
0328C:  MOVWF  xB0
0328E:  CLRF   03
03290:  MOVLB  2
03292:  MOVF   xAF,W
03294:  MOVLB  6
03296:  ADDWF  xB0,W
03298:  MOVWF  01
0329A:  MOVF   xB1,W
0329C:  ADDWFC 03,F
0329E:  MOVF   01,W
032A0:  ADDLW  88
032A2:  MOVWF  FE9
032A4:  MOVLW  06
032A6:  ADDWFC 03,W
032A8:  MOVWF  FEA
032AA:  CLRF   FEF
....................       } 
032AC:  MOVLB  2
032AE:  INCF   xAF,F
032B0:  BRA    31DE
....................    } 
032B2:  INCF   x5C,F
032B4:  BRA    31D6
....................     
....................    diaCiclos=read_ext_eeprom(2+(cicloVisto*320)); 
032B6:  MOVLB  6
032B8:  CLRF   xBB
032BA:  MOVFF  2A0,6BA
032BE:  MOVLW  01
032C0:  MOVWF  xBD
032C2:  MOVLW  40
032C4:  MOVWF  xBC
032C6:  MOVLB  0
032C8:  CALL   23EC
032CC:  MOVFF  02,03
032D0:  MOVF   01,W
032D2:  ADDLW  02
032D4:  MOVLB  6
032D6:  MOVWF  xB0
032D8:  MOVLW  00
032DA:  ADDWFC 02,W
032DC:  MOVWF  xB1
032DE:  MOVWF  xB6
032E0:  MOVFF  6B0,6B5
032E4:  MOVLB  0
032E6:  CALL   24EE
032EA:  MOVFF  01,317
....................    if(diaCiclos>31) 
032EE:  MOVLB  3
032F0:  MOVF   x17,W
032F2:  SUBLW  1F
032F4:  BC    32FA
....................       diaCiclos=1; 
032F6:  MOVLW  01
032F8:  MOVWF  x17
....................    mesCiclos=read_ext_eeprom(3+(cicloVisto*320)); 
032FA:  MOVLB  6
032FC:  CLRF   xBB
032FE:  MOVFF  2A0,6BA
03302:  MOVLW  01
03304:  MOVWF  xBD
03306:  MOVLW  40
03308:  MOVWF  xBC
0330A:  MOVLB  0
0330C:  CALL   23EC
03310:  MOVFF  02,03
03314:  MOVF   01,W
03316:  ADDLW  03
03318:  MOVLB  6
0331A:  MOVWF  xB0
0331C:  MOVLW  00
0331E:  ADDWFC 02,W
03320:  MOVWF  xB1
03322:  MOVWF  xB6
03324:  MOVFF  6B0,6B5
03328:  MOVLB  0
0332A:  CALL   24EE
0332E:  MOVFF  01,318
....................    if(mesCiclos>12) 
03332:  MOVLB  3
03334:  MOVF   x18,W
03336:  SUBLW  0C
03338:  BC    333E
....................       mesCiclos=1; 
0333A:  MOVLW  01
0333C:  MOVWF  x18
....................    yearCiclos=read_ext_eeprom(4+(cicloVisto*320)); 
0333E:  MOVLB  6
03340:  CLRF   xBB
03342:  MOVFF  2A0,6BA
03346:  MOVLW  01
03348:  MOVWF  xBD
0334A:  MOVLW  40
0334C:  MOVWF  xBC
0334E:  MOVLB  0
03350:  CALL   23EC
03354:  MOVFF  02,03
03358:  MOVF   01,W
0335A:  ADDLW  04
0335C:  MOVLB  6
0335E:  MOVWF  xB0
03360:  MOVLW  00
03362:  ADDWFC 02,W
03364:  MOVWF  xB1
03366:  MOVWF  xB6
03368:  MOVFF  6B0,6B5
0336C:  MOVLB  0
0336E:  CALL   24EE
03372:  MOVFF  01,319
....................    if(yearCiclos>99) 
03376:  MOVLB  3
03378:  MOVF   x19,W
0337A:  SUBLW  63
0337C:  BC    3382
....................       yearCiclos=19; 
0337E:  MOVLW  13
03380:  MOVWF  x19
....................    cicloCiclos=read_ext_eeprom(1+(cicloVisto*320)); 
03382:  MOVLB  6
03384:  CLRF   xBB
03386:  MOVFF  2A0,6BA
0338A:  MOVLW  01
0338C:  MOVWF  xBD
0338E:  MOVLW  40
03390:  MOVWF  xBC
03392:  MOVLB  0
03394:  CALL   23EC
03398:  MOVFF  02,03
0339C:  MOVF   01,W
0339E:  ADDLW  01
033A0:  MOVLB  6
033A2:  MOVWF  xB0
033A4:  MOVLW  00
033A6:  ADDWFC 02,W
033A8:  MOVWF  xB1
033AA:  MOVWF  xB6
033AC:  MOVFF  6B0,6B5
033B0:  MOVLB  0
033B2:  CALL   24EE
033B6:  MOVFF  01,31B
....................    if(cicloCiclos>20) 
033BA:  MOVLB  3
033BC:  MOVF   x1B,W
033BE:  SUBLW  14
033C0:  BC    33C6
....................       cicloCiclos=1; 
033C2:  MOVLW  01
033C4:  MOVWF  x1B
....................    usuarioCiclos=read_ext_eeprom((cicloVisto*320)); 
033C6:  MOVLB  6
033C8:  CLRF   xBB
033CA:  MOVFF  2A0,6BA
033CE:  MOVLW  01
033D0:  MOVWF  xBD
033D2:  MOVLW  40
033D4:  MOVWF  xBC
033D6:  MOVLB  0
033D8:  CALL   23EC
033DC:  MOVFF  02,6B1
033E0:  MOVFF  01,6B0
033E4:  MOVFF  02,6B6
033E8:  MOVFF  01,6B5
033EC:  CALL   24EE
033F0:  MOVFF  01,31A
....................    if(usuarioCiclos>10) 
033F4:  MOVLB  3
033F6:  MOVF   x1A,W
033F8:  SUBLW  0A
033FA:  BC    3400
....................       usuarioCiclos=1; 
033FC:  MOVLW  01
033FE:  MOVWF  x1A
....................    for(i=0;i<7;i++){//Lee Valores para completar la Tabla 
03400:  MOVLB  2
03402:  CLRF   x5C
03404:  MOVF   x5C,W
03406:  SUBLW  06
03408:  BTFSS  FD8.0
0340A:  BRA    3954
....................       horaCiclos[i]=read_ext_eeprom((cicloVisto*320)+11+((cicloVisualizado+i)*9)); 
0340C:  CLRF   03
0340E:  MOVF   x5C,W
03410:  ADDLW  02
03412:  MOVWF  01
03414:  MOVLW  03
03416:  ADDWFC 03,F
03418:  MOVFF  01,6B0
0341C:  MOVLB  6
0341E:  MOVFF  03,6B1
03422:  CLRF   xBB
03424:  MOVFF  2A0,6BA
03428:  MOVLW  01
0342A:  MOVWF  xBD
0342C:  MOVLW  40
0342E:  MOVWF  xBC
03430:  MOVLB  0
03432:  CALL   23EC
03436:  MOVFF  02,6B3
0343A:  MOVFF  01,6B2
0343E:  MOVLW  0B
03440:  MOVLB  6
03442:  ADDWF  xB2,F
03444:  MOVLW  00
03446:  ADDWFC xB3,F
03448:  MOVLB  2
0344A:  MOVF   x5C,W
0344C:  ADDWF  x9F,W
0344E:  MULLW  09
03450:  MOVF   FF3,W
03452:  MOVLB  6
03454:  ADDWF  xB2,F
03456:  MOVLW  00
03458:  ADDWFC xB3,F
0345A:  MOVFF  6B3,6B6
0345E:  MOVFF  6B2,6B5
03462:  MOVLB  0
03464:  CALL   24EE
03468:  MOVFF  6B1,FEA
0346C:  MOVFF  6B0,FE9
03470:  MOVFF  01,FEF
....................       if(horaCiclos[i]>24) 
03474:  CLRF   03
03476:  MOVLB  2
03478:  MOVF   x5C,W
0347A:  ADDLW  02
0347C:  MOVWF  FE9
0347E:  MOVLW  03
03480:  ADDWFC 03,W
03482:  MOVWF  FEA
03484:  MOVF   FEF,W
03486:  SUBLW  18
03488:  BC    349A
....................          horaCiclos[i]=0; 
0348A:  CLRF   03
0348C:  MOVF   x5C,W
0348E:  ADDLW  02
03490:  MOVWF  FE9
03492:  MOVLW  03
03494:  ADDWFC 03,W
03496:  MOVWF  FEA
03498:  CLRF   FEF
....................       minutoCiclos[i]=read_ext_eeprom((cicloVisto*320)+12+((cicloVisualizado+i)*9)); 
0349A:  CLRF   03
0349C:  MOVF   x5C,W
0349E:  ADDLW  09
034A0:  MOVWF  01
034A2:  MOVLW  03
034A4:  ADDWFC 03,F
034A6:  MOVFF  01,6B0
034AA:  MOVLB  6
034AC:  MOVFF  03,6B1
034B0:  CLRF   xBB
034B2:  MOVFF  2A0,6BA
034B6:  MOVLW  01
034B8:  MOVWF  xBD
034BA:  MOVLW  40
034BC:  MOVWF  xBC
034BE:  MOVLB  0
034C0:  CALL   23EC
034C4:  MOVFF  02,6B3
034C8:  MOVFF  01,6B2
034CC:  MOVLW  0C
034CE:  MOVLB  6
034D0:  ADDWF  xB2,F
034D2:  MOVLW  00
034D4:  ADDWFC xB3,F
034D6:  MOVLB  2
034D8:  MOVF   x5C,W
034DA:  ADDWF  x9F,W
034DC:  MULLW  09
034DE:  MOVF   FF3,W
034E0:  MOVLB  6
034E2:  ADDWF  xB2,F
034E4:  MOVLW  00
034E6:  ADDWFC xB3,F
034E8:  MOVFF  6B3,6B6
034EC:  MOVFF  6B2,6B5
034F0:  MOVLB  0
034F2:  CALL   24EE
034F6:  MOVFF  6B1,FEA
034FA:  MOVFF  6B0,FE9
034FE:  MOVFF  01,FEF
....................       if(minutoCiclos[i]>59) 
03502:  CLRF   03
03504:  MOVLB  2
03506:  MOVF   x5C,W
03508:  ADDLW  09
0350A:  MOVWF  FE9
0350C:  MOVLW  03
0350E:  ADDWFC 03,W
03510:  MOVWF  FEA
03512:  MOVF   FEF,W
03514:  SUBLW  3B
03516:  BC    3528
....................          minutoCiclos[i]=0; 
03518:  CLRF   03
0351A:  MOVF   x5C,W
0351C:  ADDLW  09
0351E:  MOVWF  FE9
03520:  MOVLW  03
03522:  ADDWFC 03,W
03524:  MOVWF  FEA
03526:  CLRF   FEF
....................       TCiclos[i]=read_ext_eeprom((cicloVisto*320)+5+((cicloVisualizado+i)*9))+inttofloat(read_ext_eeprom((cicloVisto*320)+6+((cicloVisualizado+i)*9))); 
03528:  MOVF   x5C,W
0352A:  MULLW  04
0352C:  MOVF   FF3,W
0352E:  CLRF   03
03530:  ADDLW  CA
03532:  MOVWF  01
03534:  MOVLW  02
03536:  ADDWFC 03,F
03538:  MOVFF  01,6B0
0353C:  MOVLB  6
0353E:  MOVFF  03,6B1
03542:  CLRF   xBB
03544:  MOVFF  2A0,6BA
03548:  MOVLW  01
0354A:  MOVWF  xBD
0354C:  MOVLW  40
0354E:  MOVWF  xBC
03550:  MOVLB  0
03552:  CALL   23EC
03556:  MOVFF  02,6B3
0355A:  MOVFF  01,6B2
0355E:  MOVLW  05
03560:  MOVLB  6
03562:  ADDWF  xB2,F
03564:  MOVLW  00
03566:  ADDWFC xB3,F
03568:  MOVLB  2
0356A:  MOVF   x5C,W
0356C:  ADDWF  x9F,W
0356E:  MULLW  09
03570:  MOVF   FF3,W
03572:  MOVLB  6
03574:  ADDWF  xB2,F
03576:  MOVLW  00
03578:  ADDWFC xB3,F
0357A:  MOVFF  6B3,6B6
0357E:  MOVFF  6B2,6B5
03582:  MOVLB  0
03584:  CALL   24EE
03588:  MOVFF  01,6B2
0358C:  MOVLB  6
0358E:  CLRF   xBB
03590:  MOVFF  2A0,6BA
03594:  MOVLW  01
03596:  MOVWF  xBD
03598:  MOVLW  40
0359A:  MOVWF  xBC
0359C:  MOVLB  0
0359E:  CALL   23EC
035A2:  MOVFF  02,6B4
035A6:  MOVFF  01,6B3
035AA:  MOVLW  06
035AC:  MOVLB  6
035AE:  ADDWF  xB3,F
035B0:  MOVLW  00
035B2:  ADDWFC xB4,F
035B4:  MOVLB  2
035B6:  MOVF   x5C,W
035B8:  ADDWF  x9F,W
035BA:  MULLW  09
035BC:  MOVF   FF3,W
035BE:  MOVLB  6
035C0:  ADDWF  xB3,F
035C2:  MOVLW  00
035C4:  ADDWFC xB4,F
035C6:  MOVFF  6B4,6B6
035CA:  MOVFF  6B3,6B5
035CE:  MOVLB  0
035D0:  CALL   24EE
035D4:  MOVFF  01,6B3
035D8:  MOVFF  01,6B4
035DC:  CALL   2596
035E0:  MOVFF  00,6B3
035E4:  MOVFF  01,6B4
035E8:  MOVFF  02,6B5
035EC:  MOVFF  03,6B6
035F0:  MOVLB  6
035F2:  CLRF   xC3
035F4:  MOVFF  6B2,6C2
035F8:  MOVLB  0
035FA:  CALL   1F44
035FE:  MOVFF  FEA,6B8
03602:  MOVFF  FE9,6B7
03606:  BCF    FD8.1
03608:  MOVFF  03,6C5
0360C:  MOVFF  02,6C4
03610:  MOVFF  01,6C3
03614:  MOVFF  00,6C2
03618:  MOVFF  6B6,6C9
0361C:  MOVFF  6B5,6C8
03620:  MOVFF  6B4,6C7
03624:  MOVFF  6B3,6C6
03628:  CALL   2100
0362C:  MOVFF  6B8,FEA
03630:  MOVFF  6B7,FE9
03634:  MOVFF  6B1,FEA
03638:  MOVFF  6B0,FE9
0363C:  MOVFF  00,FEF
03640:  MOVFF  01,FEC
03644:  MOVFF  02,FEC
03648:  MOVFF  03,FEC
....................       if(TCiclos[i]>200) 
0364C:  MOVLB  2
0364E:  MOVF   x5C,W
03650:  MULLW  04
03652:  MOVF   FF3,W
03654:  CLRF   03
03656:  ADDLW  CA
03658:  MOVWF  FE9
0365A:  MOVLW  02
0365C:  ADDWFC 03,W
0365E:  MOVWF  FEA
03660:  MOVFF  FEF,6B0
03664:  MOVFF  FEC,6B1
03668:  MOVFF  FEC,6B2
0366C:  MOVFF  FEC,6B3
03670:  MOVLB  6
03672:  CLRF   xB7
03674:  CLRF   xB6
03676:  MOVLW  48
03678:  MOVWF  xB5
0367A:  MOVLW  86
0367C:  MOVWF  xB4
0367E:  MOVFF  6B3,6BB
03682:  MOVFF  6B2,6BA
03686:  MOVFF  6B1,6B9
0368A:  MOVFF  6B0,6B8
0368E:  MOVLB  0
03690:  CALL   25D6
03694:  BNC   36B4
....................          TCiclos[i]=0; 
03696:  MOVLB  2
03698:  MOVF   x5C,W
0369A:  MULLW  04
0369C:  MOVF   FF3,W
0369E:  CLRF   03
036A0:  ADDLW  CA
036A2:  MOVWF  FE9
036A4:  MOVLW  02
036A6:  ADDWFC 03,W
036A8:  MOVWF  FEA
036AA:  CLRF   FEF
036AC:  CLRF   FEC
036AE:  CLRF   FEC
036B0:  CLRF   FEC
036B2:  MOVLB  0
....................       PcCiclos[i]=make16(read_ext_eeprom((cicloVisto*320)+7+((cicloVisualizado+i)*9)),read_ext_eeprom((cicloVisto*320)+8+((cicloVisualizado+i)*9))); 
036B4:  BCF    FD8.0
036B6:  MOVLB  2
036B8:  RLCF   x5C,W
036BA:  CLRF   03
036BC:  ADDLW  E6
036BE:  MOVWF  01
036C0:  MOVLW  02
036C2:  ADDWFC 03,F
036C4:  MOVFF  01,6B0
036C8:  MOVLB  6
036CA:  MOVFF  03,6B1
036CE:  CLRF   xBB
036D0:  MOVFF  2A0,6BA
036D4:  MOVLW  01
036D6:  MOVWF  xBD
036D8:  MOVLW  40
036DA:  MOVWF  xBC
036DC:  MOVLB  0
036DE:  CALL   23EC
036E2:  MOVFF  02,6B3
036E6:  MOVFF  01,6B2
036EA:  MOVLW  07
036EC:  MOVLB  6
036EE:  ADDWF  xB2,F
036F0:  MOVLW  00
036F2:  ADDWFC xB3,F
036F4:  MOVLB  2
036F6:  MOVF   x5C,W
036F8:  ADDWF  x9F,W
036FA:  MULLW  09
036FC:  MOVF   FF3,W
036FE:  MOVLB  6
03700:  ADDWF  xB2,F
03702:  MOVLW  00
03704:  ADDWFC xB3,F
03706:  MOVFF  6B3,6B6
0370A:  MOVFF  6B2,6B5
0370E:  MOVLB  0
03710:  CALL   24EE
03714:  MOVFF  01,6B2
03718:  MOVLB  6
0371A:  CLRF   xBB
0371C:  MOVFF  2A0,6BA
03720:  MOVLW  01
03722:  MOVWF  xBD
03724:  MOVLW  40
03726:  MOVWF  xBC
03728:  MOVLB  0
0372A:  CALL   23EC
0372E:  MOVFF  02,6B4
03732:  MOVFF  01,6B3
03736:  MOVLW  08
03738:  MOVLB  6
0373A:  ADDWF  xB3,F
0373C:  MOVLW  00
0373E:  ADDWFC xB4,F
03740:  MOVLB  2
03742:  MOVF   x5C,W
03744:  ADDWF  x9F,W
03746:  MULLW  09
03748:  MOVF   FF3,W
0374A:  MOVLB  6
0374C:  ADDWF  xB3,F
0374E:  MOVLW  00
03750:  ADDWFC xB4,F
03752:  MOVFF  6B4,6B6
03756:  MOVFF  6B3,6B5
0375A:  MOVLB  0
0375C:  CALL   24EE
03760:  MOVFF  6B1,FEA
03764:  MOVFF  6B0,FE9
03768:  MOVFF  6B2,FEC
0376C:  MOVF   FED,F
0376E:  MOVFF  01,FEF
....................       if(PcCiclos[i]>500) 
03772:  BCF    FD8.0
03774:  MOVLB  2
03776:  RLCF   x5C,W
03778:  CLRF   03
0377A:  ADDLW  E6
0377C:  MOVWF  FE9
0377E:  MOVLW  02
03780:  ADDWFC 03,W
03782:  MOVWF  FEA
03784:  MOVFF  FEC,6B1
03788:  MOVF   FED,F
0378A:  MOVFF  FEF,6B0
0378E:  MOVLB  6
03790:  MOVF   xB1,W
03792:  SUBLW  00
03794:  BC    37BA
03796:  XORLW  FF
03798:  BNZ   37A0
0379A:  MOVF   xB0,W
0379C:  SUBLW  F4
0379E:  BC    37BA
....................          PcCiclos[i]=0; 
037A0:  BCF    FD8.0
037A2:  MOVLB  2
037A4:  RLCF   x5C,W
037A6:  CLRF   03
037A8:  ADDLW  E6
037AA:  MOVWF  FE9
037AC:  MOVLW  02
037AE:  ADDWFC 03,W
037B0:  MOVWF  FEA
037B2:  CLRF   FEC
037B4:  MOVF   FED,F
037B6:  CLRF   FEF
037B8:  MOVLB  6
....................       PpcCiclos[i]=make16(read_ext_eeprom((cicloVisto*320)+9+((cicloVisualizado+i)*9)),read_ext_eeprom((cicloVisto*320)+10+((cicloVisualizado+i)*9))); 
037BA:  BCF    FD8.0
037BC:  MOVLB  2
037BE:  RLCF   x5C,W
037C0:  CLRF   03
037C2:  ADDLW  F4
037C4:  MOVWF  01
037C6:  MOVLW  02
037C8:  ADDWFC 03,F
037CA:  MOVFF  01,6B0
037CE:  MOVLB  6
037D0:  MOVFF  03,6B1
037D4:  CLRF   xBB
037D6:  MOVFF  2A0,6BA
037DA:  MOVLW  01
037DC:  MOVWF  xBD
037DE:  MOVLW  40
037E0:  MOVWF  xBC
037E2:  MOVLB  0
037E4:  CALL   23EC
037E8:  MOVFF  02,6B3
037EC:  MOVFF  01,6B2
037F0:  MOVLW  09
037F2:  MOVLB  6
037F4:  ADDWF  xB2,F
037F6:  MOVLW  00
037F8:  ADDWFC xB3,F
037FA:  MOVLB  2
037FC:  MOVF   x5C,W
037FE:  ADDWF  x9F,W
03800:  MULLW  09
03802:  MOVF   FF3,W
03804:  MOVLB  6
03806:  ADDWF  xB2,F
03808:  MOVLW  00
0380A:  ADDWFC xB3,F
0380C:  MOVFF  6B3,6B6
03810:  MOVFF  6B2,6B5
03814:  MOVLB  0
03816:  CALL   24EE
0381A:  MOVFF  01,6B2
0381E:  MOVLB  6
03820:  CLRF   xBB
03822:  MOVFF  2A0,6BA
03826:  MOVLW  01
03828:  MOVWF  xBD
0382A:  MOVLW  40
0382C:  MOVWF  xBC
0382E:  MOVLB  0
03830:  CALL   23EC
03834:  MOVFF  02,6B4
03838:  MOVFF  01,6B3
0383C:  MOVLW  0A
0383E:  MOVLB  6
03840:  ADDWF  xB3,F
03842:  MOVLW  00
03844:  ADDWFC xB4,F
03846:  MOVLB  2
03848:  MOVF   x5C,W
0384A:  ADDWF  x9F,W
0384C:  MULLW  09
0384E:  MOVF   FF3,W
03850:  MOVLB  6
03852:  ADDWF  xB3,F
03854:  MOVLW  00
03856:  ADDWFC xB4,F
03858:  MOVFF  6B4,6B6
0385C:  MOVFF  6B3,6B5
03860:  MOVLB  0
03862:  CALL   24EE
03866:  MOVFF  6B1,FEA
0386A:  MOVFF  6B0,FE9
0386E:  MOVFF  6B2,FEC
03872:  MOVF   FED,F
03874:  MOVFF  01,FEF
....................       if(PpcCiclos[i]>500) 
03878:  BCF    FD8.0
0387A:  MOVLB  2
0387C:  RLCF   x5C,W
0387E:  CLRF   03
03880:  ADDLW  F4
03882:  MOVWF  FE9
03884:  MOVLW  02
03886:  ADDWFC 03,W
03888:  MOVWF  FEA
0388A:  MOVFF  FEC,6B1
0388E:  MOVF   FED,F
03890:  MOVFF  FEF,6B0
03894:  MOVLB  6
03896:  MOVF   xB1,W
03898:  SUBLW  00
0389A:  BC    38C0
0389C:  XORLW  FF
0389E:  BNZ   38A6
038A0:  MOVF   xB0,W
038A2:  SUBLW  F4
038A4:  BC    38C0
....................          PpcCiclos[i]=0; 
038A6:  BCF    FD8.0
038A8:  MOVLB  2
038AA:  RLCF   x5C,W
038AC:  CLRF   03
038AE:  ADDLW  F4
038B0:  MOVWF  FE9
038B2:  MOVLW  02
038B4:  ADDWFC 03,W
038B6:  MOVWF  FEA
038B8:  CLRF   FEC
038BA:  MOVF   FED,F
038BC:  CLRF   FEF
038BE:  MOVLB  6
....................       ACiclos[i]=read_ext_eeprom((cicloVisto*320)+13+((cicloVisualizado+i)*9)); 
038C0:  CLRF   03
038C2:  MOVLB  2
038C4:  MOVF   x5C,W
038C6:  ADDLW  10
038C8:  MOVWF  01
038CA:  MOVLW  03
038CC:  ADDWFC 03,F
038CE:  MOVFF  01,6B0
038D2:  MOVLB  6
038D4:  MOVFF  03,6B1
038D8:  CLRF   xBB
038DA:  MOVFF  2A0,6BA
038DE:  MOVLW  01
038E0:  MOVWF  xBD
038E2:  MOVLW  40
038E4:  MOVWF  xBC
038E6:  MOVLB  0
038E8:  CALL   23EC
038EC:  MOVFF  02,6B3
038F0:  MOVFF  01,6B2
038F4:  MOVLW  0D
038F6:  MOVLB  6
038F8:  ADDWF  xB2,F
038FA:  MOVLW  00
038FC:  ADDWFC xB3,F
038FE:  MOVLB  2
03900:  MOVF   x5C,W
03902:  ADDWF  x9F,W
03904:  MULLW  09
03906:  MOVF   FF3,W
03908:  MOVLB  6
0390A:  ADDWF  xB2,F
0390C:  MOVLW  00
0390E:  ADDWFC xB3,F
03910:  MOVFF  6B3,6B6
03914:  MOVFF  6B2,6B5
03918:  MOVLB  0
0391A:  CALL   24EE
0391E:  MOVFF  6B1,FEA
03922:  MOVFF  6B0,FE9
03926:  MOVFF  01,FEF
....................       if(ACiclos[i]>10) 
0392A:  CLRF   03
0392C:  MOVLB  2
0392E:  MOVF   x5C,W
03930:  ADDLW  10
03932:  MOVWF  FE9
03934:  MOVLW  03
03936:  ADDWFC 03,W
03938:  MOVWF  FEA
0393A:  MOVF   FEF,W
0393C:  SUBLW  0A
0393E:  BC    3950
....................          ACiclos[i]=0; 
03940:  CLRF   03
03942:  MOVF   x5C,W
03944:  ADDLW  10
03946:  MOVWF  FE9
03948:  MOVLW  03
0394A:  ADDWFC 03,W
0394C:  MOVWF  FEA
0394E:  CLRF   FEF
....................    } 
03950:  INCF   x5C,F
03952:  BRA    3404
.................... } 
03954:  MOVLB  0
03956:  GOTO   7D3E (RETURN)
....................  
.................... void LimitaValores(){ 
....................    if(Ganancia>20.0){ 
*
03A8E:  MOVLB  6
03A90:  CLRF   xB7
03A92:  CLRF   xB6
03A94:  MOVLW  20
03A96:  MOVWF  xB5
03A98:  MOVLW  83
03A9A:  MOVWF  xB4
03A9C:  MOVFF  220,6BB
03AA0:  MOVFF  21F,6BA
03AA4:  MOVFF  21E,6B9
03AA8:  MOVFF  21D,6B8
03AAC:  MOVLB  0
03AAE:  CALL   25D6
03AB2:  BNC   3AFC
....................       Ganancia=15.0; 
03AB4:  MOVLB  2
03AB6:  CLRF   x20
03AB8:  CLRF   x1F
03ABA:  MOVLW  70
03ABC:  MOVWF  x1E
03ABE:  MOVLW  82
03AC0:  MOVWF  x1D
....................       write_eeprom(20,15); 
03AC2:  CLRF   FAA
03AC4:  MOVLW  14
03AC6:  MOVWF  FA9
03AC8:  MOVLW  0F
03ACA:  MOVWF  FA8
03ACC:  BCF    FA6.6
03ACE:  BCF    FA6.7
03AD0:  BSF    FA6.2
03AD2:  MOVF   FF2,W
03AD4:  MOVWF  00
03AD6:  BCF    FF2.6
03AD8:  BCF    FF2.7
03ADA:  MOVLB  F
03ADC:  MOVLW  55
03ADE:  MOVWF  FA7
03AE0:  MOVLW  AA
03AE2:  MOVWF  FA7
03AE4:  BSF    FA6.1
03AE6:  BTFSC  FA6.1
03AE8:  BRA    3AE6
03AEA:  BCF    FA6.2
03AEC:  MOVF   00,W
03AEE:  IORWF  FF2,F
....................       delay_ms(10); 
03AF0:  MOVLW  0A
03AF2:  MOVLB  6
03AF4:  MOVWF  xC2
03AF6:  MOVLB  0
03AF8:  CALL   1F7A
....................    } 
....................    if(Sensor[0].Ajuste>20){ 
03AFC:  MOVLB  3
03AFE:  MOVF   x3E,W
03B00:  SUBLW  14
03B02:  BC    3B40
....................       Sensor[0].Ajuste=0; 
03B04:  CLRF   x3E
....................       write_eeprom(21,0); 
03B06:  CLRF   FAA
03B08:  MOVLW  15
03B0A:  MOVWF  FA9
03B0C:  CLRF   FA8
03B0E:  BCF    FA6.6
03B10:  BCF    FA6.7
03B12:  BSF    FA6.2
03B14:  MOVF   FF2,W
03B16:  MOVWF  00
03B18:  BCF    FF2.6
03B1A:  BCF    FF2.7
03B1C:  MOVLB  F
03B1E:  MOVLW  55
03B20:  MOVWF  FA7
03B22:  MOVLW  AA
03B24:  MOVWF  FA7
03B26:  BSF    FA6.1
03B28:  BTFSC  FA6.1
03B2A:  BRA    3B28
03B2C:  BCF    FA6.2
03B2E:  MOVF   00,W
03B30:  IORWF  FF2,F
....................       delay_ms(10); 
03B32:  MOVLW  0A
03B34:  MOVLB  6
03B36:  MOVWF  xC2
03B38:  MOVLB  0
03B3A:  CALL   1F7A
03B3E:  MOVLB  3
....................    } 
....................    if(Sensor[0].Ajusten>20){ 
03B40:  MOVF   x3F,W
03B42:  SUBLW  14
03B44:  BC    3B80
....................       Sensor[0].Ajusten=0; 
03B46:  CLRF   x3F
....................       write_eeprom(22,0); 
03B48:  CLRF   FAA
03B4A:  MOVLW  16
03B4C:  MOVWF  FA9
03B4E:  CLRF   FA8
03B50:  BCF    FA6.6
03B52:  BCF    FA6.7
03B54:  BSF    FA6.2
03B56:  MOVF   FF2,W
03B58:  MOVWF  00
03B5A:  BCF    FF2.6
03B5C:  BCF    FF2.7
03B5E:  MOVLB  F
03B60:  MOVLW  55
03B62:  MOVWF  FA7
03B64:  MOVLW  AA
03B66:  MOVWF  FA7
03B68:  BSF    FA6.1
03B6A:  BTFSC  FA6.1
03B6C:  BRA    3B6A
03B6E:  BCF    FA6.2
03B70:  MOVF   00,W
03B72:  IORWF  FF2,F
....................       delay_ms(10); 
03B74:  MOVLW  0A
03B76:  MOVLB  6
03B78:  MOVWF  xC2
03B7A:  MOVLB  0
03B7C:  CALL   1F7A
....................    } 
....................    if(Sensor[1].Ajuste>20){ 
03B80:  MOVLB  4
03B82:  MOVF   xA2,W
03B84:  SUBLW  14
03B86:  BC    3BC4
....................       Sensor[1].Ajuste=0; 
03B88:  CLRF   xA2
....................       write_eeprom(23,0); 
03B8A:  CLRF   FAA
03B8C:  MOVLW  17
03B8E:  MOVWF  FA9
03B90:  CLRF   FA8
03B92:  BCF    FA6.6
03B94:  BCF    FA6.7
03B96:  BSF    FA6.2
03B98:  MOVF   FF2,W
03B9A:  MOVWF  00
03B9C:  BCF    FF2.6
03B9E:  BCF    FF2.7
03BA0:  MOVLB  F
03BA2:  MOVLW  55
03BA4:  MOVWF  FA7
03BA6:  MOVLW  AA
03BA8:  MOVWF  FA7
03BAA:  BSF    FA6.1
03BAC:  BTFSC  FA6.1
03BAE:  BRA    3BAC
03BB0:  BCF    FA6.2
03BB2:  MOVF   00,W
03BB4:  IORWF  FF2,F
....................       delay_ms(10); 
03BB6:  MOVLW  0A
03BB8:  MOVLB  6
03BBA:  MOVWF  xC2
03BBC:  MOVLB  0
03BBE:  CALL   1F7A
03BC2:  MOVLB  4
....................    } 
....................    if(Sensor[1].Ajusten>20){ 
03BC4:  MOVF   xA3,W
03BC6:  SUBLW  14
03BC8:  BC    3C04
....................       Sensor[1].Ajusten=0; 
03BCA:  CLRF   xA3
....................       write_eeprom(24,0); 
03BCC:  CLRF   FAA
03BCE:  MOVLW  18
03BD0:  MOVWF  FA9
03BD2:  CLRF   FA8
03BD4:  BCF    FA6.6
03BD6:  BCF    FA6.7
03BD8:  BSF    FA6.2
03BDA:  MOVF   FF2,W
03BDC:  MOVWF  00
03BDE:  BCF    FF2.6
03BE0:  BCF    FF2.7
03BE2:  MOVLB  F
03BE4:  MOVLW  55
03BE6:  MOVWF  FA7
03BE8:  MOVLW  AA
03BEA:  MOVWF  FA7
03BEC:  BSF    FA6.1
03BEE:  BTFSC  FA6.1
03BF0:  BRA    3BEE
03BF2:  BCF    FA6.2
03BF4:  MOVF   00,W
03BF6:  IORWF  FF2,F
....................       delay_ms(10); 
03BF8:  MOVLW  0A
03BFA:  MOVLB  6
03BFC:  MOVWF  xC2
03BFE:  MOVLB  0
03C00:  CALL   1F7A
....................    } 
....................    if(MediaMovil>80){ 
03C04:  MOVLB  1
03C06:  MOVF   xF5,W
03C08:  SUBLW  50
03C0A:  BC    3C4A
....................       MediaMovil=40; 
03C0C:  MOVLW  28
03C0E:  MOVWF  xF5
....................       write_eeprom(25,40); 
03C10:  CLRF   FAA
03C12:  MOVLW  19
03C14:  MOVWF  FA9
03C16:  MOVLW  28
03C18:  MOVWF  FA8
03C1A:  BCF    FA6.6
03C1C:  BCF    FA6.7
03C1E:  BSF    FA6.2
03C20:  MOVF   FF2,W
03C22:  MOVWF  00
03C24:  BCF    FF2.6
03C26:  BCF    FF2.7
03C28:  MOVLB  F
03C2A:  MOVLW  55
03C2C:  MOVWF  FA7
03C2E:  MOVLW  AA
03C30:  MOVWF  FA7
03C32:  BSF    FA6.1
03C34:  BTFSC  FA6.1
03C36:  BRA    3C34
03C38:  BCF    FA6.2
03C3A:  MOVF   00,W
03C3C:  IORWF  FF2,F
....................       delay_ms(10); 
03C3E:  MOVLW  0A
03C40:  MOVLB  6
03C42:  MOVWF  xC2
03C44:  MOVLB  0
03C46:  CALL   1F7A
....................    } 
....................    if(Tciclo>10){ 
03C4A:  MOVLB  6
03C4C:  CLRF   xB7
03C4E:  CLRF   xB6
03C50:  MOVLW  20
03C52:  MOVWF  xB5
03C54:  MOVLW  82
03C56:  MOVWF  xB4
03C58:  MOVFF  208,6BB
03C5C:  MOVFF  207,6BA
03C60:  MOVFF  206,6B9
03C64:  MOVFF  205,6B8
03C68:  MOVLB  0
03C6A:  CALL   25D6
03C6E:  BNC   3CB8
....................       Tciclo=10; 
03C70:  MOVLB  2
03C72:  CLRF   x08
03C74:  CLRF   x07
03C76:  MOVLW  20
03C78:  MOVWF  x06
03C7A:  MOVLW  82
03C7C:  MOVWF  x05
....................       write_eeprom(26,10); 
03C7E:  CLRF   FAA
03C80:  MOVLW  1A
03C82:  MOVWF  FA9
03C84:  MOVLW  0A
03C86:  MOVWF  FA8
03C88:  BCF    FA6.6
03C8A:  BCF    FA6.7
03C8C:  BSF    FA6.2
03C8E:  MOVF   FF2,W
03C90:  MOVWF  00
03C92:  BCF    FF2.6
03C94:  BCF    FF2.7
03C96:  MOVLB  F
03C98:  MOVLW  55
03C9A:  MOVWF  FA7
03C9C:  MOVLW  AA
03C9E:  MOVWF  FA7
03CA0:  BSF    FA6.1
03CA2:  BTFSC  FA6.1
03CA4:  BRA    3CA2
03CA6:  BCF    FA6.2
03CA8:  MOVF   00,W
03CAA:  IORWF  FF2,F
....................       delay_ms(10); 
03CAC:  MOVLW  0A
03CAE:  MOVLB  6
03CB0:  MOVWF  xC2
03CB2:  MOVLB  0
03CB4:  CALL   1F7A
....................    } 
....................    if(Sensor[0].RPT100>2.0){ 
03CB8:  MOVLB  6
03CBA:  CLRF   xB7
03CBC:  CLRF   xB6
03CBE:  CLRF   xB5
03CC0:  MOVLW  80
03CC2:  MOVWF  xB4
03CC4:  MOVFF  333,6BB
03CC8:  MOVFF  332,6BA
03CCC:  MOVFF  331,6B9
03CD0:  MOVFF  330,6B8
03CD4:  MOVLB  0
03CD6:  CALL   25D6
03CDA:  BNC   3D5A
....................       Sensor[0].RPT100=0.5; 
03CDC:  MOVLB  3
03CDE:  CLRF   x33
03CE0:  CLRF   x32
03CE2:  CLRF   x31
03CE4:  MOVLW  7E
03CE6:  MOVWF  x30
....................       write_eeprom(28,0); 
03CE8:  CLRF   FAA
03CEA:  MOVLW  1C
03CEC:  MOVWF  FA9
03CEE:  CLRF   FA8
03CF0:  BCF    FA6.6
03CF2:  BCF    FA6.7
03CF4:  BSF    FA6.2
03CF6:  MOVF   FF2,W
03CF8:  MOVWF  00
03CFA:  BCF    FF2.6
03CFC:  BCF    FF2.7
03CFE:  MOVLB  F
03D00:  MOVLW  55
03D02:  MOVWF  FA7
03D04:  MOVLW  AA
03D06:  MOVWF  FA7
03D08:  BSF    FA6.1
03D0A:  BTFSC  FA6.1
03D0C:  BRA    3D0A
03D0E:  BCF    FA6.2
03D10:  MOVF   00,W
03D12:  IORWF  FF2,F
....................       delay_ms(10); 
03D14:  MOVLW  0A
03D16:  MOVLB  6
03D18:  MOVWF  xC2
03D1A:  MOVLB  0
03D1C:  CALL   1F7A
....................       write_eeprom(27,5); 
03D20:  CLRF   FAA
03D22:  MOVLW  1B
03D24:  MOVWF  FA9
03D26:  MOVLW  05
03D28:  MOVWF  FA8
03D2A:  BCF    FA6.6
03D2C:  BCF    FA6.7
03D2E:  BSF    FA6.2
03D30:  MOVF   FF2,W
03D32:  MOVWF  00
03D34:  BCF    FF2.6
03D36:  BCF    FF2.7
03D38:  MOVLB  F
03D3A:  MOVLW  55
03D3C:  MOVWF  FA7
03D3E:  MOVLW  AA
03D40:  MOVWF  FA7
03D42:  BSF    FA6.1
03D44:  BTFSC  FA6.1
03D46:  BRA    3D44
03D48:  BCF    FA6.2
03D4A:  MOVF   00,W
03D4C:  IORWF  FF2,F
....................       delay_ms(10); 
03D4E:  MOVLW  0A
03D50:  MOVLB  6
03D52:  MOVWF  xC2
03D54:  MOVLB  0
03D56:  CALL   1F7A
....................    } 
....................    if(Sensor[1].RPT100>2.0){ 
03D5A:  MOVLB  6
03D5C:  CLRF   xB7
03D5E:  CLRF   xB6
03D60:  CLRF   xB5
03D62:  MOVLW  80
03D64:  MOVWF  xB4
03D66:  MOVFF  497,6BB
03D6A:  MOVFF  496,6BA
03D6E:  MOVFF  495,6B9
03D72:  MOVFF  494,6B8
03D76:  MOVLB  0
03D78:  CALL   25D6
03D7C:  BNC   3DFC
....................       Sensor[1].RPT100=0.5; 
03D7E:  MOVLB  4
03D80:  CLRF   x97
03D82:  CLRF   x96
03D84:  CLRF   x95
03D86:  MOVLW  7E
03D88:  MOVWF  x94
....................       write_eeprom(30,0); 
03D8A:  CLRF   FAA
03D8C:  MOVLW  1E
03D8E:  MOVWF  FA9
03D90:  CLRF   FA8
03D92:  BCF    FA6.6
03D94:  BCF    FA6.7
03D96:  BSF    FA6.2
03D98:  MOVF   FF2,W
03D9A:  MOVWF  00
03D9C:  BCF    FF2.6
03D9E:  BCF    FF2.7
03DA0:  MOVLB  F
03DA2:  MOVLW  55
03DA4:  MOVWF  FA7
03DA6:  MOVLW  AA
03DA8:  MOVWF  FA7
03DAA:  BSF    FA6.1
03DAC:  BTFSC  FA6.1
03DAE:  BRA    3DAC
03DB0:  BCF    FA6.2
03DB2:  MOVF   00,W
03DB4:  IORWF  FF2,F
....................       delay_ms(10); 
03DB6:  MOVLW  0A
03DB8:  MOVLB  6
03DBA:  MOVWF  xC2
03DBC:  MOVLB  0
03DBE:  CALL   1F7A
....................       write_eeprom(29,5); 
03DC2:  CLRF   FAA
03DC4:  MOVLW  1D
03DC6:  MOVWF  FA9
03DC8:  MOVLW  05
03DCA:  MOVWF  FA8
03DCC:  BCF    FA6.6
03DCE:  BCF    FA6.7
03DD0:  BSF    FA6.2
03DD2:  MOVF   FF2,W
03DD4:  MOVWF  00
03DD6:  BCF    FF2.6
03DD8:  BCF    FF2.7
03DDA:  MOVLB  F
03DDC:  MOVLW  55
03DDE:  MOVWF  FA7
03DE0:  MOVLW  AA
03DE2:  MOVWF  FA7
03DE4:  BSF    FA6.1
03DE6:  BTFSC  FA6.1
03DE8:  BRA    3DE6
03DEA:  BCF    FA6.2
03DEC:  MOVF   00,W
03DEE:  IORWF  FF2,F
....................       delay_ms(10); 
03DF0:  MOVLW  0A
03DF2:  MOVLB  6
03DF4:  MOVWF  xC2
03DF6:  MOVLB  0
03DF8:  CALL   1F7A
....................    } 
....................    if(Atmosferica>100){ 
03DFC:  MOVLB  2
03DFE:  MOVF   xA2,W
03E00:  SUBLW  64
03E02:  BC    3E44
....................       Atmosferica=69; 
03E04:  MOVLW  45
03E06:  MOVWF  xA2
....................       write_eeprom(31,69); 
03E08:  CLRF   FAA
03E0A:  MOVLW  1F
03E0C:  MOVWF  FA9
03E0E:  MOVLW  45
03E10:  MOVWF  FA8
03E12:  BCF    FA6.6
03E14:  BCF    FA6.7
03E16:  BSF    FA6.2
03E18:  MOVF   FF2,W
03E1A:  MOVWF  00
03E1C:  BCF    FF2.6
03E1E:  BCF    FF2.7
03E20:  MOVLB  F
03E22:  MOVLW  55
03E24:  MOVWF  FA7
03E26:  MOVLW  AA
03E28:  MOVWF  FA7
03E2A:  BSF    FA6.1
03E2C:  BTFSC  FA6.1
03E2E:  BRA    3E2C
03E30:  BCF    FA6.2
03E32:  MOVF   00,W
03E34:  IORWF  FF2,F
....................       delay_ms(10); 
03E36:  MOVLW  0A
03E38:  MOVLB  6
03E3A:  MOVWF  xC2
03E3C:  MOVLB  0
03E3E:  CALL   1F7A
03E42:  MOVLB  2
....................    } 
....................    if(Tapertura>100){ 
03E44:  MOVF   x60,W
03E46:  SUBLW  64
03E48:  BC    3E8A
....................       Tapertura=85; 
03E4A:  MOVLW  55
03E4C:  MOVWF  x60
....................       write_eeprom(32,85); 
03E4E:  CLRF   FAA
03E50:  MOVLW  20
03E52:  MOVWF  FA9
03E54:  MOVLW  55
03E56:  MOVWF  FA8
03E58:  BCF    FA6.6
03E5A:  BCF    FA6.7
03E5C:  BSF    FA6.2
03E5E:  MOVF   FF2,W
03E60:  MOVWF  00
03E62:  BCF    FF2.6
03E64:  BCF    FF2.7
03E66:  MOVLB  F
03E68:  MOVLW  55
03E6A:  MOVWF  FA7
03E6C:  MOVLW  AA
03E6E:  MOVWF  FA7
03E70:  BSF    FA6.1
03E72:  BTFSC  FA6.1
03E74:  BRA    3E72
03E76:  BCF    FA6.2
03E78:  MOVF   00,W
03E7A:  IORWF  FF2,F
....................       delay_ms(10); 
03E7C:  MOVLW  0A
03E7E:  MOVLB  6
03E80:  MOVWF  xC2
03E82:  MOVLB  0
03E84:  CALL   1F7A
03E88:  MOVLB  2
....................    } 
....................    if(Ciclos>60000){ 
03E8A:  MOVF   x7D,W
03E8C:  SUBLW  E9
03E8E:  BC    3F10
03E90:  XORLW  FF
03E92:  BNZ   3E9A
03E94:  MOVF   x7C,W
03E96:  SUBLW  60
03E98:  BC    3F10
....................       Ciclos=0; 
03E9A:  CLRF   x7D
03E9C:  CLRF   x7C
....................       write_eeprom(37,0); 
03E9E:  CLRF   FAA
03EA0:  MOVLW  25
03EA2:  MOVWF  FA9
03EA4:  CLRF   FA8
03EA6:  BCF    FA6.6
03EA8:  BCF    FA6.7
03EAA:  BSF    FA6.2
03EAC:  MOVF   FF2,W
03EAE:  MOVWF  00
03EB0:  BCF    FF2.6
03EB2:  BCF    FF2.7
03EB4:  MOVLB  F
03EB6:  MOVLW  55
03EB8:  MOVWF  FA7
03EBA:  MOVLW  AA
03EBC:  MOVWF  FA7
03EBE:  BSF    FA6.1
03EC0:  BTFSC  FA6.1
03EC2:  BRA    3EC0
03EC4:  BCF    FA6.2
03EC6:  MOVF   00,W
03EC8:  IORWF  FF2,F
....................       delay_ms(10); 
03ECA:  MOVLW  0A
03ECC:  MOVLB  6
03ECE:  MOVWF  xC2
03ED0:  MOVLB  0
03ED2:  CALL   1F7A
....................       write_eeprom(38,0); 
03ED6:  CLRF   FAA
03ED8:  MOVLW  26
03EDA:  MOVWF  FA9
03EDC:  CLRF   FA8
03EDE:  BCF    FA6.6
03EE0:  BCF    FA6.7
03EE2:  BSF    FA6.2
03EE4:  MOVF   FF2,W
03EE6:  MOVWF  00
03EE8:  BCF    FF2.6
03EEA:  BCF    FF2.7
03EEC:  MOVLB  F
03EEE:  MOVLW  55
03EF0:  MOVWF  FA7
03EF2:  MOVLW  AA
03EF4:  MOVWF  FA7
03EF6:  BSF    FA6.1
03EF8:  BTFSC  FA6.1
03EFA:  BRA    3EF8
03EFC:  BCF    FA6.2
03EFE:  MOVF   00,W
03F00:  IORWF  FF2,F
....................       delay_ms(10); 
03F02:  MOVLW  0A
03F04:  MOVLB  6
03F06:  MOVWF  xC2
03F08:  MOVLB  0
03F0A:  CALL   1F7A
03F0E:  MOVLB  2
....................    } 
....................    if(sg1==10){ 
03F10:  MOVF   xB4,W
03F12:  SUBLW  0A
03F14:  BNZ   3F2A
....................       G1=G1*(-1); 
03F16:  MOVFF  2B2,6B0
03F1A:  MOVLW  FF
03F1C:  MOVLB  6
03F1E:  MOVWF  xB1
03F20:  MOVLB  0
03F22:  RCALL  3A40
03F24:  MOVFF  01,2B2
03F28:  MOVLB  2
....................    } 
....................    if(sg2==10){ 
03F2A:  MOVF   xB5,W
03F2C:  SUBLW  0A
03F2E:  BNZ   3F42
....................       G2=G2*(-1); 
03F30:  MOVFF  2B3,6B0
03F34:  MOVLW  FF
03F36:  MOVLB  6
03F38:  MOVWF  xB1
03F3A:  MOVLB  0
03F3C:  RCALL  3A40
03F3E:  MOVFF  01,2B3
....................    } 
....................    if(cerroSucioInt>1){ 
03F42:  MOVLB  1
03F44:  MOVF   xFB,W
03F46:  SUBLW  01
03F48:  BC    3F88
....................       cerroSucioInt=0; 
03F4A:  CLRF   xFB
....................       write_eeprom(46,0); 
03F4C:  CLRF   FAA
03F4E:  MOVLW  2E
03F50:  MOVWF  FA9
03F52:  CLRF   FA8
03F54:  BCF    FA6.6
03F56:  BCF    FA6.7
03F58:  BSF    FA6.2
03F5A:  MOVF   FF2,W
03F5C:  MOVWF  00
03F5E:  BCF    FF2.6
03F60:  BCF    FF2.7
03F62:  MOVLB  F
03F64:  MOVLW  55
03F66:  MOVWF  FA7
03F68:  MOVLW  AA
03F6A:  MOVWF  FA7
03F6C:  BSF    FA6.1
03F6E:  BTFSC  FA6.1
03F70:  BRA    3F6E
03F72:  BCF    FA6.2
03F74:  MOVF   00,W
03F76:  IORWF  FF2,F
....................       delay_ms(10); 
03F78:  MOVLW  0A
03F7A:  MOVLB  6
03F7C:  MOVWF  xC2
03F7E:  MOVLB  0
03F80:  CALL   1F7A
....................       cerroSucio=OFF; 
03F84:  BCF    xFA.3
03F86:  MOVLB  1
....................    } 
....................    if(cerroLimpioInt>1){ 
03F88:  MOVF   xFC,W
03F8A:  SUBLW  01
03F8C:  BC    3FCC
....................       cerroLimpioInt=0; 
03F8E:  CLRF   xFC
....................       write_eeprom(47,0); 
03F90:  CLRF   FAA
03F92:  MOVLW  2F
03F94:  MOVWF  FA9
03F96:  CLRF   FA8
03F98:  BCF    FA6.6
03F9A:  BCF    FA6.7
03F9C:  BSF    FA6.2
03F9E:  MOVF   FF2,W
03FA0:  MOVWF  00
03FA2:  BCF    FF2.6
03FA4:  BCF    FF2.7
03FA6:  MOVLB  F
03FA8:  MOVLW  55
03FAA:  MOVWF  FA7
03FAC:  MOVLW  AA
03FAE:  MOVWF  FA7
03FB0:  BSF    FA6.1
03FB2:  BTFSC  FA6.1
03FB4:  BRA    3FB2
03FB6:  BCF    FA6.2
03FB8:  MOVF   00,W
03FBA:  IORWF  FF2,F
....................       delay_ms(10); 
03FBC:  MOVLW  0A
03FBE:  MOVLB  6
03FC0:  MOVWF  xC2
03FC2:  MOVLB  0
03FC4:  CALL   1F7A
....................       cerroLimpio=OFF; 
03FC8:  BCF    xFA.4
03FCA:  MOVLB  1
....................    } 
....................    if(cerroSucioInt==1) 
03FCC:  DECFSZ xFB,W
03FCE:  BRA    3FD6
....................       cerroSucio=ON; 
03FD0:  MOVLB  0
03FD2:  BSF    xFA.3
03FD4:  MOVLB  1
....................    if(cerroSucioInt==0) 
03FD6:  MOVF   xFB,F
03FD8:  BNZ   3FE0
....................       cerroSucio=OFF;    
03FDA:  MOVLB  0
03FDC:  BCF    xFA.3
03FDE:  MOVLB  1
....................    if(cerroLimpioInt==1) 
03FE0:  DECFSZ xFC,W
03FE2:  BRA    3FEA
....................       cerroLimpio=ON; 
03FE4:  MOVLB  0
03FE6:  BSF    xFA.4
03FE8:  MOVLB  1
....................    if(cerroLimpioInt==0) 
03FEA:  MOVF   xFC,F
03FEC:  BNZ   3FF4
....................       cerroLimpio=OFF;       
03FEE:  MOVLB  0
03FF0:  BCF    xFA.4
03FF2:  MOVLB  1
.................... } 
03FF4:  MOVLB  0
03FF6:  GOTO   7D52 (RETURN)
....................  
.................... void LeeDisplay(void){ 
....................    if(Dato_Exitoso==5){ 
*
04A9A:  MOVLB  2
04A9C:  MOVF   x56,W
04A9E:  SUBLW  05
04AA0:  BTFSS  FD8.2
04AA2:  BRA    4C84
....................          RX_Buffer[0]=RX_Buffer2[0]; 
04AA4:  MOVFF  3B,30
....................          RX_Buffer[1]=RX_Buffer2[1]; 
04AA8:  MOVFF  3C,31
....................          RX_Buffer[2]=RX_Buffer2[2]; 
04AAC:  MOVFF  3D,32
....................          RX_Buffer[3]=RX_Buffer2[3]; 
04AB0:  MOVFF  3E,33
....................          RX_Buffer[4]=RX_Buffer2[4]; 
04AB4:  MOVFF  3F,34
....................          RX_Buffer[5]=RX_Buffer2[5]; 
04AB8:  MOVFF  40,35
....................          RX_Buffer[6]=RX_Buffer2[6]; 
04ABC:  MOVFF  41,36
....................          RX_Buffer[7]=RX_Buffer2[7]; 
04AC0:  MOVFF  42,37
....................          RX_Buffer[8]=RX_Buffer2[8]; 
04AC4:  MOVFF  43,38
....................          RX_Buffer[9]=RX_Buffer2[9]; 
04AC8:  MOVFF  44,39
....................           
....................       if(RX_Buffer[3]==0x01){// Pregunta por la pagina en la que esta el display,01 es Contrasea de Acceso 
04ACC:  DECFSZ 33,W
04ACE:  BRA    4ADE
....................          Menu=0; 
04AD0:  CLRF   x59
....................          if(MenuAntt!=Menu) 
04AD2:  MOVF   x59,W
04AD4:  SUBWF  x5B,W
04AD6:  BZ    4ADC
....................             MenuAntt=Menu; 
04AD8:  MOVFF  259,25B
....................       }else if(RX_Buffer[3]==0x02){//02 es Ciclos Fijos 
04ADC:  BRA    4C84
04ADE:  MOVF   33,W
04AE0:  SUBLW  02
04AE2:  BNZ   4AF4
....................          Menu=1; 
04AE4:  MOVLW  01
04AE6:  MOVWF  x59
....................          if(MenuAntt!=Menu) 
04AE8:  MOVF   x59,W
04AEA:  SUBWF  x5B,W
04AEC:  BZ    4AF2
....................             MenuAntt=Menu; 
04AEE:  MOVFF  259,25B
....................       }else if(RX_Buffer[3]==0x03){//03 es Tiempo Esterilizacion 
04AF2:  BRA    4C84
04AF4:  MOVF   33,W
04AF6:  SUBLW  03
04AF8:  BNZ   4B0A
....................          Menu=2; 
04AFA:  MOVLW  02
04AFC:  MOVWF  x59
....................          if(MenuAntt!=Menu) 
04AFE:  MOVF   x59,W
04B00:  SUBWF  x5B,W
04B02:  BZ    4B08
....................             MenuAntt=Menu; 
04B04:  MOVFF  259,25B
....................       }else if(RX_Buffer[3]==0x04){//04 es Tiempo de Secado 
04B08:  BRA    4C84
04B0A:  MOVF   33,W
04B0C:  SUBLW  04
04B0E:  BNZ   4B20
....................          Menu=3; 
04B10:  MOVLW  03
04B12:  MOVWF  x59
....................          if(MenuAntt!=Menu) 
04B14:  MOVF   x59,W
04B16:  SUBWF  x5B,W
04B18:  BZ    4B1E
....................             MenuAntt=Menu; 
04B1A:  MOVFF  259,25B
....................       }else if(RX_Buffer[3]==0x05){//05 es Temperatura 
04B1E:  BRA    4C84
04B20:  MOVF   33,W
04B22:  SUBLW  05
04B24:  BNZ   4B36
....................          Menu=4; 
04B26:  MOVLW  04
04B28:  MOVWF  x59
....................          if(MenuAntt!=Menu) 
04B2A:  MOVF   x59,W
04B2C:  SUBWF  x5B,W
04B2E:  BZ    4B34
....................             MenuAntt=Menu; 
04B30:  MOVFF  259,25B
....................       }else if(RX_Buffer[3]==0x06){//06 es Nivel de Vacio 
04B34:  BRA    4C84
04B36:  MOVF   33,W
04B38:  SUBLW  06
04B3A:  BNZ   4B4C
....................          Menu=5; 
04B3C:  MOVLW  05
04B3E:  MOVWF  x59
....................          if(MenuAntt!=Menu) 
04B40:  MOVF   x59,W
04B42:  SUBWF  x5B,W
04B44:  BZ    4B4A
....................             MenuAntt=Menu; 
04B46:  MOVFF  259,25B
....................       }else if(RX_Buffer[3]==0x07){//07 es Test de Componentes 
04B4A:  BRA    4C84
04B4C:  MOVF   33,W
04B4E:  SUBLW  07
04B50:  BNZ   4B62
....................          Menu=6; 
04B52:  MOVLW  06
04B54:  MOVWF  x59
....................          if(MenuAntt!=Menu) 
04B56:  MOVF   x59,W
04B58:  SUBWF  x5B,W
04B5A:  BZ    4B60
....................             MenuAntt=Menu; 
04B5C:  MOVFF  259,25B
....................       }else if(RX_Buffer[3]==0x08){//08 es Fecha y hora 
04B60:  BRA    4C84
04B62:  MOVF   33,W
04B64:  SUBLW  08
04B66:  BNZ   4B78
....................          Menu=7; 
04B68:  MOVLW  07
04B6A:  MOVWF  x59
....................          if(MenuAntt!=Menu) 
04B6C:  MOVF   x59,W
04B6E:  SUBWF  x5B,W
04B70:  BZ    4B76
....................             MenuAntt=Menu; 
04B72:  MOVFF  259,25B
....................       }else if(RX_Buffer[3]==0x09){//09 es Ciclos Personalizados 
04B76:  BRA    4C84
04B78:  MOVF   33,W
04B7A:  SUBLW  09
04B7C:  BNZ   4B8E
....................          Menu=8; 
04B7E:  MOVLW  08
04B80:  MOVWF  x59
....................          if(MenuAntt!=Menu) 
04B82:  MOVF   x59,W
04B84:  SUBWF  x5B,W
04B86:  BZ    4B8C
....................             MenuAntt=Menu; 
04B88:  MOVFF  259,25B
....................       }else if(RX_Buffer[3]==0x0a){//0a es Pulsos de Vacio 
04B8C:  BRA    4C84
04B8E:  MOVF   33,W
04B90:  SUBLW  0A
04B92:  BNZ   4BA4
....................          Menu=9; 
04B94:  MOVLW  09
04B96:  MOVWF  x59
....................          if(MenuAntt!=Menu) 
04B98:  MOVF   x59,W
04B9A:  SUBWF  x5B,W
04B9C:  BZ    4BA2
....................             MenuAntt=Menu; 
04B9E:  MOVFF  259,25B
....................       }else if(RX_Buffer[3]==0x0b){//0b es Usuarios 
04BA2:  BRA    4C84
04BA4:  MOVF   33,W
04BA6:  SUBLW  0B
04BA8:  BNZ   4BBA
....................          Menu=10; 
04BAA:  MOVLW  0A
04BAC:  MOVWF  x59
....................          if(MenuAntt!=Menu) 
04BAE:  MOVF   x59,W
04BB0:  SUBWF  x5B,W
04BB2:  BZ    4BB8
....................             MenuAntt=Menu; 
04BB4:  MOVFF  259,25B
....................       }else if(RX_Buffer[3]==0x0c){//0c es Configuraciones 
04BB8:  BRA    4C84
04BBA:  MOVF   33,W
04BBC:  SUBLW  0C
04BBE:  BNZ   4BD0
....................          Menu=11; 
04BC0:  MOVLW  0B
04BC2:  MOVWF  x59
....................          if(MenuAntt!=Menu) 
04BC4:  MOVF   x59,W
04BC6:  SUBWF  x5B,W
04BC8:  BZ    4BCE
....................             MenuAntt=Menu; 
04BCA:  MOVFF  259,25B
....................       }else if(RX_Buffer[3]==0x0d){//0d es Ciclos 
04BCE:  BRA    4C84
04BD0:  MOVF   33,W
04BD2:  SUBLW  0D
04BD4:  BNZ   4BE6
....................          Menu=12; 
04BD6:  MOVLW  0C
04BD8:  MOVWF  x59
....................          if(MenuAntt!=Menu) 
04BDA:  MOVF   x59,W
04BDC:  SUBWF  x5B,W
04BDE:  BZ    4BE4
....................             MenuAntt=Menu; 
04BE0:  MOVFF  259,25B
....................       }else if(RX_Buffer[3]==0x0e){//0d es Activacion de Ciclos 
04BE4:  BRA    4C84
04BE6:  MOVF   33,W
04BE8:  SUBLW  0E
04BEA:  BNZ   4BFC
....................          Menu=14; 
04BEC:  MOVLW  0E
04BEE:  MOVWF  x59
....................          if(MenuAntt!=Menu) 
04BF0:  MOVF   x59,W
04BF2:  SUBWF  x5B,W
04BF4:  BZ    4BFA
....................             MenuAntt=Menu; 
04BF6:  MOVFF  259,25B
....................       }else if(RX_Buffer[3]==0x10){//10 es Nivel de Desfogue 
04BFA:  BRA    4C84
04BFC:  MOVF   33,W
04BFE:  SUBLW  10
04C00:  BNZ   4C12
....................          Menu=13; 
04C02:  MOVLW  0D
04C04:  MOVWF  x59
....................          if(MenuAntt!=Menu) 
04C06:  MOVF   x59,W
04C08:  SUBWF  x5B,W
04C0A:  BZ    4C10
....................             MenuAntt=Menu; 
04C0C:  MOVFF  259,25B
....................       }else if(RX_Buffer[3]==0x0f){//0f es Recibe caracteres de contrasea desde display 
04C10:  BRA    4C84
04C12:  MOVF   33,W
04C14:  SUBLW  0F
04C16:  BNZ   4C1A
....................           
....................       }else if(RX_Buffer[3]==0x1a){//1a es Menu de Funcionamiento 
04C18:  BRA    4C84
04C1A:  MOVF   33,W
04C1C:  SUBLW  1A
04C1E:  BNZ   4C30
....................          Menu=20; 
04C20:  MOVLW  14
04C22:  MOVWF  x59
....................          if(MenuAntt!=Menu) 
04C24:  MOVF   x59,W
04C26:  SUBWF  x5B,W
04C28:  BZ    4C2E
....................             MenuAntt=Menu; 
04C2A:  MOVFF  259,25B
....................       }else if(RX_Buffer[3]==0x1b){//1b es Menu de clave correcta 
04C2E:  BRA    4C84
04C30:  MOVF   33,W
04C32:  SUBLW  1B
04C34:  BNZ   4C46
....................          Menu=15; 
04C36:  MOVLW  0F
04C38:  MOVWF  x59
....................          if(MenuAntt!=Menu) 
04C3A:  MOVF   x59,W
04C3C:  SUBWF  x5B,W
04C3E:  BZ    4C44
....................             MenuAntt=Menu; 
04C40:  MOVFF  259,25B
....................       }else if(RX_Buffer[3]==0x1c){//1c es Menu de clave incorrecta 
04C44:  BRA    4C84
04C46:  MOVF   33,W
04C48:  SUBLW  1C
04C4A:  BNZ   4C5C
....................          Menu=16; 
04C4C:  MOVLW  10
04C4E:  MOVWF  x59
....................          if(MenuAntt!=Menu) 
04C50:  MOVF   x59,W
04C52:  SUBWF  x5B,W
04C54:  BZ    4C5A
....................             MenuAntt=Menu; 
04C56:  MOVFF  259,25B
....................       }else if(RX_Buffer[3]==0x2c){//2c es Menu de Configuracion de Parametros 
04C5A:  BRA    4C84
04C5C:  MOVF   33,W
04C5E:  SUBLW  2C
04C60:  BNZ   4C72
....................          Menu=100; 
04C62:  MOVLW  64
04C64:  MOVWF  x59
....................          if(MenuAntt!=Menu) 
04C66:  MOVF   x59,W
04C68:  SUBWF  x5B,W
04C6A:  BZ    4C70
....................             MenuAntt=Menu; 
04C6C:  MOVFF  259,25B
....................       }else if(RX_Buffer[3]==0xcc){//cc es Menu de Bienvenida 
04C70:  BRA    4C84
04C72:  MOVF   33,W
04C74:  SUBLW  CC
04C76:  BNZ   4C84
....................          Menu=240; 
04C78:  MOVLW  F0
04C7A:  MOVWF  x59
....................          if(MenuAntt!=240) 
04C7C:  MOVF   x5B,W
04C7E:  SUBLW  F0
04C80:  BZ    4C84
....................             reset_cpu(); 
04C82:  RESET
....................       } 
....................    } 
.................... } 
04C84:  MOVLB  0
04C86:  GOTO   7E98 (RETURN)
....................  
.................... void ConfiguraCiclo(int8 segest,minest,segsec,minsec,liquidos,ciclo,temperatura,pulsos,nvacio,fug){ 
....................    sEstp=segest; 
*
05A96:  MOVFF  6B8,117
....................    mEstp=minest; 
05A9A:  MOVFF  6B9,118
....................    sSecp=segsec; 
05A9E:  MOVFF  6BA,119
....................    mSecp=minsec; 
05AA2:  MOVFF  6BB,11A
....................    Setpoint=temperatura;                
05AA6:  MOVFF  6BE,267
....................    tiempo_secado=0; 
05AAA:  MOVLB  2
05AAC:  CLRF   x6B
....................    desfoguelento=liquidos; 
05AAE:  MOVLB  1
05AB0:  BCF    x04.2
05AB2:  MOVLB  6
05AB4:  BTFSS  xBC.0
05AB6:  BRA    5ABE
05AB8:  MOVLB  1
05ABA:  BSF    x04.2
05ABC:  MOVLB  6
....................    CicloSeleccionado=ciclo; 
05ABE:  MOVFF  6BD,25F
....................    sEst=sEstp; 
05AC2:  MOVFF  117,113
....................    mEst=mEstp; 
05AC6:  MOVFF  118,114
....................    sSec=sSecp; 
05ACA:  MOVFF  119,115
....................    mSec=mSecp; 
05ACE:  MOVFF  11A,116
....................    CantidadPulsos=pulsos; 
05AD2:  MOVLB  2
05AD4:  CLRF   x62
05AD6:  MOVFF  6BF,261
....................    NivelVacio=nvacio; 
05ADA:  MOVFF  6C0,2A1
....................    Fugas=fug; 
05ADE:  MOVLB  1
05AE0:  BCF    x01.5
05AE2:  MOVLB  6
05AE4:  BTFSS  xC1.0
05AE6:  BRA    5AEE
05AE8:  MOVLB  1
05AEA:  BSF    x01.5
05AEC:  MOVLB  6
....................    //TiempoVacio=CantidadPulsos*180; 
....................    Imprime=15; 
05AEE:  MOVLW  0F
05AF0:  MOVLB  2
05AF2:  MOVWF  xAD
....................    Envio_Esclavos(); 
05AF4:  MOVLB  0
05AF6:  CALL   4FF2
....................    delay_ms(10); 
05AFA:  MOVLW  0A
05AFC:  MOVLB  6
05AFE:  MOVWF  xC2
05B00:  MOVLB  0
05B02:  CALL   1F7A
....................    Imprime=10; 
05B06:  MOVLW  0A
05B08:  MOVLB  2
05B0A:  MOVWF  xAD
.................... } 
05B0C:  MOVLB  0
05B0E:  RETLW  00
....................  
.................... void ActivaAlarma(int8 Tipo){ 
....................     
....................    if(tsilencio>12000){ 
*
05766:  MOVLB  2
05768:  MOVF   x97,W
0576A:  SUBLW  2D
0576C:  BC    5780
0576E:  XORLW  FF
05770:  BNZ   5778
05772:  MOVF   x96,W
05774:  SUBLW  E0
05776:  BC    5780
....................       tsilencio=0; 
05778:  CLRF   x97
0577A:  CLRF   x96
....................       flagSilencio=OFF; 
0577C:  MOVLB  1
0577E:  BCF    x00.6
....................    } 
....................     
....................    if(Tipo==1){ // Alarma por Error 
05780:  MOVLB  6
05782:  DECFSZ xB0,W
05784:  BRA    57BA
....................        
....................       if(!flagSilencio){ 
05786:  MOVLB  1
05788:  BTFSC  x00.6
0578A:  BRA    57B2
....................          flagAlarma=1; 
0578C:  BSF    x00.4
....................          if(tbuzzer>200){ 
0578E:  MOVLB  2
05790:  MOVF   x95,F
05792:  BNZ   579A
05794:  MOVF   x94,W
05796:  SUBLW  C8
05798:  BC    57AE
....................             tbuzzer=0; 
0579A:  CLRF   x95
0579C:  CLRF   x94
....................             flagBuzzer=!flagBuzzer; 
0579E:  MOVLB  1
057A0:  BTG    x00.5
....................             if(flagBuzzer) 
057A2:  BTFSS  x00.5
057A4:  BRA    57AA
....................                EstadoBuzzer=ON; 
057A6:  BSF    x00.3
....................             else 
057A8:  BRA    57AC
....................                EstadoBuzzer=OFF; 
057AA:  BCF    x00.3
057AC:  MOVLB  2
....................          } 
....................       }else{ 
057AE:  BRA    57B6
057B0:  MOVLB  1
....................          EstadoBuzzer=OFF; 
057B2:  BCF    x00.3
057B4:  MOVLB  2
....................       } 
....................    }else if(Tipo==2){  
057B6:  BRA    57F4
057B8:  MOVLB  6
057BA:  MOVF   xB0,W
057BC:  SUBLW  02
057BE:  BNZ   57F6
....................       flagAlarma=1; 
057C0:  MOVLB  1
057C2:  BSF    x00.4
....................       if(ConteoBuzzer<20){    
057C4:  MOVLB  2
057C6:  MOVF   x8F,W
057C8:  SUBLW  13
057CA:  BNC   57EE
....................          if(tbuzzer>100){ 
057CC:  MOVF   x95,F
057CE:  BNZ   57D6
057D0:  MOVF   x94,W
057D2:  SUBLW  64
057D4:  BC    57EC
....................             tbuzzer=0; 
057D6:  CLRF   x95
057D8:  CLRF   x94
....................             flagBuzzer=!flagBuzzer; 
057DA:  MOVLB  1
057DC:  BTG    x00.5
....................             if(flagBuzzer) 
057DE:  BTFSS  x00.5
057E0:  BRA    57E6
....................                EstadoBuzzer=ON; 
057E2:  BSF    x00.3
....................             else 
057E4:  BRA    57E8
....................                EstadoBuzzer=OFF; 
057E6:  BCF    x00.3
....................                 
....................             ConteoBuzzer++;    
057E8:  MOVLB  2
057EA:  INCF   x8F,F
....................          } 
....................       }else{ 
057EC:  BRA    57F4
....................          EstadoBuzzer=OFF; 
057EE:  MOVLB  1
057F0:  BCF    x00.3
057F2:  MOVLB  2
057F4:  MOVLB  6
....................       } 
....................    } 
.................... } 
057F6:  MOVLB  0
057F8:  RETLW  00
....................  
.................... void ControlaPresion(){ 
....................    if(Setpoint>125){ 
*
0712C:  MOVLB  2
0712E:  MOVF   x67,W
07130:  SUBLW  7D
07132:  BC    7164
....................       if(PresionPrecamara>=300){ 
07134:  MOVF   x7B,W
07136:  SUBLW  00
07138:  BC    714E
0713A:  XORLW  FF
0713C:  BNZ   7144
0713E:  MOVF   x7A,W
07140:  SUBLW  2B
07142:  BC    714E
....................          suministroVapor=OFF; 
07144:  MOVLB  0
07146:  BCF    xF7.5
....................          Precalentamiento=ON; 
07148:  MOVLB  1
0714A:  BSF    x01.6
0714C:  MOVLB  2
....................       } 
....................       if(PresionPrecamara<290) 
0714E:  MOVF   x7B,W
07150:  SUBLW  01
07152:  BNC   7162
07154:  BNZ   715C
07156:  MOVF   x7A,W
07158:  SUBLW  21
0715A:  BNC   7162
....................          suministroVapor=ON; 
0715C:  MOVLB  0
0715E:  BSF    xF7.5
07160:  MOVLB  2
....................    }else{ 
07162:  BRA    7188
....................       if(PresionPrecamara>=230){ 
07164:  MOVF   x7B,F
07166:  BNZ   716E
07168:  MOVF   x7A,W
0716A:  SUBLW  E5
0716C:  BC    7178
....................          suministroVapor=OFF; 
0716E:  MOVLB  0
07170:  BCF    xF7.5
....................          Precalentamiento=ON; 
07172:  MOVLB  1
07174:  BSF    x01.6
07176:  MOVLB  2
....................       } 
....................       if(PresionPrecamara<220) 
07178:  MOVF   x7B,F
0717A:  BNZ   7188
0717C:  MOVF   x7A,W
0717E:  SUBLW  DB
07180:  BNC   7188
....................          suministroVapor=ON; 
07182:  MOVLB  0
07184:  BSF    xF7.5
07186:  MOVLB  2
....................    } 
.................... } 
07188:  MOVLB  0
0718A:  RETLW  00
....................  
.................... void GuardaDatoEstatico(){ 
*
06A12:  MOVLB  6
06A14:  CLRF   xB1
06A16:  CLRF   xB0
06A18:  CLRF   xB3
06A1A:  CLRF   xB2
....................    int16 posCiclo=0,cicloMemoria=0; 
....................    posCiclo=Ciclos/200; 
06A1C:  MOVFF  27D,6B5
06A20:  MOVFF  27C,6B4
06A24:  CLRF   xB7
06A26:  MOVLW  C8
06A28:  MOVWF  xB6
06A2A:  MOVLB  0
06A2C:  CALL   5E22
06A30:  MOVFF  02,6B1
06A34:  MOVFF  01,6B0
....................    cicloMemoria=Ciclos-(posCiclo*200); 
06A38:  MOVFF  6B1,6BB
06A3C:  MOVFF  6B0,6BA
06A40:  MOVLB  6
06A42:  CLRF   xBD
06A44:  MOVLW  C8
06A46:  MOVWF  xBC
06A48:  MOVLB  0
06A4A:  CALL   23EC
06A4E:  MOVF   01,W
06A50:  MOVLB  2
06A52:  SUBWF  x7C,W
06A54:  MOVLB  6
06A56:  MOVWF  xB2
06A58:  MOVF   02,W
06A5A:  MOVLB  2
06A5C:  SUBWFB x7D,W
06A5E:  MOVLB  6
06A60:  MOVWF  xB3
....................    if(!disp_Guarda){ 
06A62:  MOVLB  0
06A64:  BTFSC  xFF.1
06A66:  BRA    6BFE
....................       write_ext_eeprom(cicloMemoria*320,codigoUsuario); 
06A68:  MOVFF  6B3,6BB
06A6C:  MOVFF  6B2,6BA
06A70:  MOVLW  01
06A72:  MOVLB  6
06A74:  MOVWF  xBD
06A76:  MOVLW  40
06A78:  MOVWF  xBC
06A7A:  MOVLB  0
06A7C:  CALL   23EC
06A80:  MOVFF  02,6B5
06A84:  MOVFF  01,6B4
06A88:  MOVFF  02,6B8
06A8C:  MOVFF  01,6B7
06A90:  MOVFF  2B0,6B9
06A94:  RCALL  6900
....................       delay_ms(10); 
06A96:  MOVLW  0A
06A98:  MOVLB  6
06A9A:  MOVWF  xC2
06A9C:  MOVLB  0
06A9E:  CALL   1F7A
....................       if(!Libre) 
06AA2:  MOVLB  1
06AA4:  BTFSC  x01.3
06AA6:  BRA    6AE2
....................          write_ext_eeprom(1+(cicloMemoria*320),CicloSeleccionado); 
06AA8:  MOVFF  6B3,6BB
06AAC:  MOVFF  6B2,6BA
06AB0:  MOVLW  01
06AB2:  MOVLB  6
06AB4:  MOVWF  xBD
06AB6:  MOVLW  40
06AB8:  MOVWF  xBC
06ABA:  MOVLB  0
06ABC:  CALL   23EC
06AC0:  MOVFF  02,03
06AC4:  MOVF   01,W
06AC6:  ADDLW  01
06AC8:  MOVLB  6
06ACA:  MOVWF  xB4
06ACC:  MOVLW  00
06ACE:  ADDWFC 02,W
06AD0:  MOVWF  xB5
06AD2:  MOVWF  xB8
06AD4:  MOVFF  6B4,6B7
06AD8:  MOVFF  25F,6B9
06ADC:  MOVLB  0
06ADE:  RCALL  6900
....................       else 
06AE0:  BRA    6B24
....................          write_ext_eeprom(1+(cicloMemoria*320),CicloLibre+10); 
06AE2:  MOVFF  6B3,6BB
06AE6:  MOVFF  6B2,6BA
06AEA:  MOVLW  01
06AEC:  MOVLB  6
06AEE:  MOVWF  xBD
06AF0:  MOVLW  40
06AF2:  MOVWF  xBC
06AF4:  MOVLB  0
06AF6:  CALL   23EC
06AFA:  MOVFF  02,03
06AFE:  MOVF   01,W
06B00:  ADDLW  01
06B02:  MOVLB  6
06B04:  MOVWF  xB4
06B06:  MOVLW  00
06B08:  ADDWFC 02,W
06B0A:  MOVWF  xB5
06B0C:  MOVLW  0A
06B0E:  MOVLB  2
06B10:  ADDWF  x4F,W
06B12:  MOVLB  6
06B14:  MOVWF  xB6
06B16:  MOVFF  6B5,6B8
06B1A:  MOVFF  6B4,6B7
06B1E:  MOVWF  xB9
06B20:  MOVLB  0
06B22:  RCALL  6900
....................       delay_ms(10); 
06B24:  MOVLW  0A
06B26:  MOVLB  6
06B28:  MOVWF  xC2
06B2A:  MOVLB  0
06B2C:  CALL   1F7A
....................       write_ext_eeprom(2+(cicloMemoria*320),Dia); 
06B30:  MOVFF  6B3,6BB
06B34:  MOVFF  6B2,6BA
06B38:  MOVLW  01
06B3A:  MOVLB  6
06B3C:  MOVWF  xBD
06B3E:  MOVLW  40
06B40:  MOVWF  xBC
06B42:  MOVLB  0
06B44:  CALL   23EC
06B48:  MOVFF  02,03
06B4C:  MOVF   01,W
06B4E:  ADDLW  02
06B50:  MOVLB  6
06B52:  MOVWF  xB4
06B54:  MOVLW  00
06B56:  ADDWFC 02,W
06B58:  MOVWF  xB5
06B5A:  MOVWF  xB8
06B5C:  MOVFF  6B4,6B7
06B60:  MOVFF  29A,6B9
06B64:  MOVLB  0
06B66:  RCALL  6900
....................       delay_ms(10); 
06B68:  MOVLW  0A
06B6A:  MOVLB  6
06B6C:  MOVWF  xC2
06B6E:  MOVLB  0
06B70:  CALL   1F7A
....................       write_ext_eeprom(3+(cicloMemoria*320),Mes); 
06B74:  MOVFF  6B3,6BB
06B78:  MOVFF  6B2,6BA
06B7C:  MOVLW  01
06B7E:  MOVLB  6
06B80:  MOVWF  xBD
06B82:  MOVLW  40
06B84:  MOVWF  xBC
06B86:  MOVLB  0
06B88:  CALL   23EC
06B8C:  MOVFF  02,03
06B90:  MOVF   01,W
06B92:  ADDLW  03
06B94:  MOVLB  6
06B96:  MOVWF  xB4
06B98:  MOVLW  00
06B9A:  ADDWFC 02,W
06B9C:  MOVWF  xB5
06B9E:  MOVWF  xB8
06BA0:  MOVFF  6B4,6B7
06BA4:  MOVFF  299,6B9
06BA8:  MOVLB  0
06BAA:  RCALL  6900
....................       delay_ms(10); 
06BAC:  MOVLW  0A
06BAE:  MOVLB  6
06BB0:  MOVWF  xC2
06BB2:  MOVLB  0
06BB4:  CALL   1F7A
....................       write_ext_eeprom(4+(cicloMemoria*320),Year); 
06BB8:  MOVFF  6B3,6BB
06BBC:  MOVFF  6B2,6BA
06BC0:  MOVLW  01
06BC2:  MOVLB  6
06BC4:  MOVWF  xBD
06BC6:  MOVLW  40
06BC8:  MOVWF  xBC
06BCA:  MOVLB  0
06BCC:  CALL   23EC
06BD0:  MOVFF  02,03
06BD4:  MOVF   01,W
06BD6:  ADDLW  04
06BD8:  MOVLB  6
06BDA:  MOVWF  xB4
06BDC:  MOVLW  00
06BDE:  ADDWFC 02,W
06BE0:  MOVWF  xB5
06BE2:  MOVWF  xB8
06BE4:  MOVFF  6B4,6B7
06BE8:  MOVFF  298,6B9
06BEC:  MOVLB  0
06BEE:  RCALL  6900
....................       delay_ms(10);  
06BF0:  MOVLW  0A
06BF2:  MOVLB  6
06BF4:  MOVWF  xC2
06BF6:  MOVLB  0
06BF8:  CALL   1F7A
....................       disp_Guarda=1; 
06BFC:  BSF    xFF.1
....................    }    
.................... } 
06BFE:  GOTO   C7B8 (RETURN)
....................  
.................... void GuardaDatoCiclo(){ 
*
06CFC:  MOVLB  6
06CFE:  CLRF   xB1
06D00:  CLRF   xB0
06D02:  CLRF   xB3
06D04:  CLRF   xB2
....................    int16 posCiclo=0,cicloMemoria=0; 
....................    posCiclo=Ciclos/200; 
06D06:  MOVFF  27D,6B5
06D0A:  MOVFF  27C,6B4
06D0E:  CLRF   xB7
06D10:  MOVLW  C8
06D12:  MOVWF  xB6
06D14:  MOVLB  0
06D16:  CALL   5E22
06D1A:  MOVFF  02,6B1
06D1E:  MOVFF  01,6B0
....................    if(!Ciclo){ 
06D22:  BTFSC  xFF.2
06D24:  BRA    709C
....................       cicloMemoria=Ciclos-(posCiclo*200); 
06D26:  MOVFF  6B1,6BB
06D2A:  MOVFF  6B0,6BA
06D2E:  MOVLB  6
06D30:  CLRF   xBD
06D32:  MOVLW  C8
06D34:  MOVWF  xBC
06D36:  MOVLB  0
06D38:  CALL   23EC
06D3C:  MOVF   01,W
06D3E:  MOVLB  2
06D40:  SUBWF  x7C,W
06D42:  MOVLB  6
06D44:  MOVWF  xB2
06D46:  MOVF   02,W
06D48:  MOVLB  2
06D4A:  SUBWFB x7D,W
06D4C:  MOVLB  6
06D4E:  MOVWF  xB3
....................       write_ext_eeprom(5+(cicloMemoria*320)+(posicionDato*9),(int8)Temperatura); 
06D50:  MOVFF  6B3,6BB
06D54:  MOVFF  6B2,6BA
06D58:  MOVLW  01
06D5A:  MOVWF  xBD
06D5C:  MOVLW  40
06D5E:  MOVWF  xBC
06D60:  MOVLB  0
06D62:  CALL   23EC
06D66:  MOVFF  02,03
06D6A:  MOVF   01,W
06D6C:  ADDLW  05
06D6E:  MOVLB  6
06D70:  MOVWF  xB4
06D72:  MOVLW  00
06D74:  ADDWFC 02,W
06D76:  MOVWF  xB5
06D78:  MOVLB  2
06D7A:  MOVF   x90,W
06D7C:  MULLW  09
06D7E:  MOVF   FF3,W
06D80:  MOVLB  6
06D82:  ADDWF  xB4,F
06D84:  MOVLW  00
06D86:  ADDWFC xB5,F
06D88:  MOVFF  23C,6C5
06D8C:  MOVFF  23B,6C4
06D90:  MOVFF  23A,6C3
06D94:  MOVFF  239,6C2
06D98:  MOVLB  0
06D9A:  CALL   4C8A
06D9E:  MOVFF  01,6B6
06DA2:  MOVFF  6B5,6B8
06DA6:  MOVFF  6B4,6B7
06DAA:  MOVFF  01,6B9
06DAE:  RCALL  6900
....................       delay_ms(10); 
06DB0:  MOVLW  0A
06DB2:  MOVLB  6
06DB4:  MOVWF  xC2
06DB6:  MOVLB  0
06DB8:  CALL   1F7A
....................       write_ext_eeprom(6+(cicloMemoria*320)+(posicionDato*9),extraeDecimal(Temperatura)); 
06DBC:  MOVFF  6B3,6BB
06DC0:  MOVFF  6B2,6BA
06DC4:  MOVLW  01
06DC6:  MOVLB  6
06DC8:  MOVWF  xBD
06DCA:  MOVLW  40
06DCC:  MOVWF  xBC
06DCE:  MOVLB  0
06DD0:  CALL   23EC
06DD4:  MOVFF  02,03
06DD8:  MOVF   01,W
06DDA:  ADDLW  06
06DDC:  MOVLB  6
06DDE:  MOVWF  xB4
06DE0:  MOVLW  00
06DE2:  ADDWFC 02,W
06DE4:  MOVWF  xB5
06DE6:  MOVLB  2
06DE8:  MOVF   x90,W
06DEA:  MULLW  09
06DEC:  MOVF   FF3,W
06DEE:  MOVLB  6
06DF0:  ADDWF  xB4,F
06DF2:  MOVLW  00
06DF4:  ADDWFC xB5,F
06DF6:  MOVFF  23C,6B9
06DFA:  MOVFF  23B,6B8
06DFE:  MOVFF  23A,6B7
06E02:  MOVFF  239,6B6
06E06:  MOVLB  0
06E08:  BRA    6C32
06E0A:  MOVFF  01,6B6
06E0E:  MOVFF  6B5,6B8
06E12:  MOVFF  6B4,6B7
06E16:  MOVFF  01,6B9
06E1A:  RCALL  6900
....................       delay_ms(10); 
06E1C:  MOVLW  0A
06E1E:  MOVLB  6
06E20:  MOVWF  xC2
06E22:  MOVLB  0
06E24:  CALL   1F7A
....................       write_ext_eeprom(7+(cicloMemoria*320)+(posicionDato*9),make8(PresionCamara,1)); 
06E28:  MOVFF  6B3,6BB
06E2C:  MOVFF  6B2,6BA
06E30:  MOVLW  01
06E32:  MOVLB  6
06E34:  MOVWF  xBD
06E36:  MOVLW  40
06E38:  MOVWF  xBC
06E3A:  MOVLB  0
06E3C:  CALL   23EC
06E40:  MOVFF  02,03
06E44:  MOVF   01,W
06E46:  ADDLW  07
06E48:  MOVLB  6
06E4A:  MOVWF  xB4
06E4C:  MOVLW  00
06E4E:  ADDWFC 02,W
06E50:  MOVWF  xB5
06E52:  MOVLB  2
06E54:  MOVF   x90,W
06E56:  MULLW  09
06E58:  MOVF   FF3,W
06E5A:  MOVLB  6
06E5C:  ADDWF  xB4,F
06E5E:  MOVLW  00
06E60:  ADDWFC xB5,F
06E62:  MOVFF  279,6B6
06E66:  MOVFF  6B5,6B8
06E6A:  MOVFF  6B4,6B7
06E6E:  MOVFF  279,6B9
06E72:  MOVLB  0
06E74:  RCALL  6900
....................       delay_ms(10); 
06E76:  MOVLW  0A
06E78:  MOVLB  6
06E7A:  MOVWF  xC2
06E7C:  MOVLB  0
06E7E:  CALL   1F7A
....................       write_ext_eeprom(8+(cicloMemoria*320)+(posicionDato*9),make8(PresionCamara,0)); 
06E82:  MOVFF  6B3,6BB
06E86:  MOVFF  6B2,6BA
06E8A:  MOVLW  01
06E8C:  MOVLB  6
06E8E:  MOVWF  xBD
06E90:  MOVLW  40
06E92:  MOVWF  xBC
06E94:  MOVLB  0
06E96:  CALL   23EC
06E9A:  MOVFF  02,03
06E9E:  MOVF   01,W
06EA0:  ADDLW  08
06EA2:  MOVLB  6
06EA4:  MOVWF  xB4
06EA6:  MOVLW  00
06EA8:  ADDWFC 02,W
06EAA:  MOVWF  xB5
06EAC:  MOVLB  2
06EAE:  MOVF   x90,W
06EB0:  MULLW  09
06EB2:  MOVF   FF3,W
06EB4:  MOVLB  6
06EB6:  ADDWF  xB4,F
06EB8:  MOVLW  00
06EBA:  ADDWFC xB5,F
06EBC:  MOVFF  278,6B6
06EC0:  MOVFF  6B5,6B8
06EC4:  MOVFF  6B4,6B7
06EC8:  MOVFF  278,6B9
06ECC:  MOVLB  0
06ECE:  RCALL  6900
....................       delay_ms(10); 
06ED0:  MOVLW  0A
06ED2:  MOVLB  6
06ED4:  MOVWF  xC2
06ED6:  MOVLB  0
06ED8:  CALL   1F7A
....................       write_ext_eeprom(9+(cicloMemoria*320)+(posicionDato*9),make8(PresionPreCamara,1)); 
06EDC:  MOVFF  6B3,6BB
06EE0:  MOVFF  6B2,6BA
06EE4:  MOVLW  01
06EE6:  MOVLB  6
06EE8:  MOVWF  xBD
06EEA:  MOVLW  40
06EEC:  MOVWF  xBC
06EEE:  MOVLB  0
06EF0:  CALL   23EC
06EF4:  MOVFF  02,03
06EF8:  MOVF   01,W
06EFA:  ADDLW  09
06EFC:  MOVLB  6
06EFE:  MOVWF  xB4
06F00:  MOVLW  00
06F02:  ADDWFC 02,W
06F04:  MOVWF  xB5
06F06:  MOVLB  2
06F08:  MOVF   x90,W
06F0A:  MULLW  09
06F0C:  MOVF   FF3,W
06F0E:  MOVLB  6
06F10:  ADDWF  xB4,F
06F12:  MOVLW  00
06F14:  ADDWFC xB5,F
06F16:  MOVFF  27B,6B6
06F1A:  MOVFF  6B5,6B8
06F1E:  MOVFF  6B4,6B7
06F22:  MOVFF  27B,6B9
06F26:  MOVLB  0
06F28:  RCALL  6900
....................       delay_ms(10); 
06F2A:  MOVLW  0A
06F2C:  MOVLB  6
06F2E:  MOVWF  xC2
06F30:  MOVLB  0
06F32:  CALL   1F7A
....................       write_ext_eeprom(10+(cicloMemoria*320)+(posicionDato*9),make8(PresionPreCamara,0)); 
06F36:  MOVFF  6B3,6BB
06F3A:  MOVFF  6B2,6BA
06F3E:  MOVLW  01
06F40:  MOVLB  6
06F42:  MOVWF  xBD
06F44:  MOVLW  40
06F46:  MOVWF  xBC
06F48:  MOVLB  0
06F4A:  CALL   23EC
06F4E:  MOVFF  02,03
06F52:  MOVF   01,W
06F54:  ADDLW  0A
06F56:  MOVLB  6
06F58:  MOVWF  xB4
06F5A:  MOVLW  00
06F5C:  ADDWFC 02,W
06F5E:  MOVWF  xB5
06F60:  MOVLB  2
06F62:  MOVF   x90,W
06F64:  MULLW  09
06F66:  MOVF   FF3,W
06F68:  MOVLB  6
06F6A:  ADDWF  xB4,F
06F6C:  MOVLW  00
06F6E:  ADDWFC xB5,F
06F70:  MOVFF  27A,6B6
06F74:  MOVFF  6B5,6B8
06F78:  MOVFF  6B4,6B7
06F7C:  MOVFF  27A,6B9
06F80:  MOVLB  0
06F82:  RCALL  6900
....................       delay_ms(10); 
06F84:  MOVLW  0A
06F86:  MOVLB  6
06F88:  MOVWF  xC2
06F8A:  MOVLB  0
06F8C:  CALL   1F7A
....................       write_ext_eeprom(11+(cicloMemoria*320)+(posicionDato*9),Hora); 
06F90:  MOVFF  6B3,6BB
06F94:  MOVFF  6B2,6BA
06F98:  MOVLW  01
06F9A:  MOVLB  6
06F9C:  MOVWF  xBD
06F9E:  MOVLW  40
06FA0:  MOVWF  xBC
06FA2:  MOVLB  0
06FA4:  CALL   23EC
06FA8:  MOVFF  02,03
06FAC:  MOVF   01,W
06FAE:  ADDLW  0B
06FB0:  MOVLB  6
06FB2:  MOVWF  xB4
06FB4:  MOVLW  00
06FB6:  ADDWFC 02,W
06FB8:  MOVWF  xB5
06FBA:  MOVLB  2
06FBC:  MOVF   x90,W
06FBE:  MULLW  09
06FC0:  MOVF   FF3,W
06FC2:  MOVLB  6
06FC4:  ADDWF  xB4,F
06FC6:  MOVLW  00
06FC8:  ADDWFC xB5,F
06FCA:  MOVFF  6B5,6B8
06FCE:  MOVFF  6B4,6B7
06FD2:  MOVFF  29B,6B9
06FD6:  MOVLB  0
06FD8:  RCALL  6900
....................       delay_ms(10); 
06FDA:  MOVLW  0A
06FDC:  MOVLB  6
06FDE:  MOVWF  xC2
06FE0:  MOVLB  0
06FE2:  CALL   1F7A
....................       write_ext_eeprom(12+(cicloMemoria*320)+(posicionDato*9),Minuto); 
06FE6:  MOVFF  6B3,6BB
06FEA:  MOVFF  6B2,6BA
06FEE:  MOVLW  01
06FF0:  MOVLB  6
06FF2:  MOVWF  xBD
06FF4:  MOVLW  40
06FF6:  MOVWF  xBC
06FF8:  MOVLB  0
06FFA:  CALL   23EC
06FFE:  MOVFF  02,03
07002:  MOVF   01,W
07004:  ADDLW  0C
07006:  MOVLB  6
07008:  MOVWF  xB4
0700A:  MOVLW  00
0700C:  ADDWFC 02,W
0700E:  MOVWF  xB5
07010:  MOVLB  2
07012:  MOVF   x90,W
07014:  MULLW  09
07016:  MOVF   FF3,W
07018:  MOVLB  6
0701A:  ADDWF  xB4,F
0701C:  MOVLW  00
0701E:  ADDWFC xB5,F
07020:  MOVFF  6B5,6B8
07024:  MOVFF  6B4,6B7
07028:  MOVFF  29C,6B9
0702C:  MOVLB  0
0702E:  RCALL  6900
....................       delay_ms(10); 
07030:  MOVLW  0A
07032:  MOVLB  6
07034:  MOVWF  xC2
07036:  MOVLB  0
07038:  CALL   1F7A
....................       write_ext_eeprom(13+(cicloMemoria*320)+(posicionDato*9),codigoAlarma); 
0703C:  MOVFF  6B3,6BB
07040:  MOVFF  6B2,6BA
07044:  MOVLW  01
07046:  MOVLB  6
07048:  MOVWF  xBD
0704A:  MOVLW  40
0704C:  MOVWF  xBC
0704E:  MOVLB  0
07050:  CALL   23EC
07054:  MOVFF  02,03
07058:  MOVF   01,W
0705A:  ADDLW  0D
0705C:  MOVLB  6
0705E:  MOVWF  xB4
07060:  MOVLW  00
07062:  ADDWFC 02,W
07064:  MOVWF  xB5
07066:  MOVLB  2
07068:  MOVF   x90,W
0706A:  MULLW  09
0706C:  MOVF   FF3,W
0706E:  MOVLB  6
07070:  ADDWF  xB4,F
07072:  MOVLW  00
07074:  ADDWFC xB5,F
07076:  MOVFF  6B5,6B8
0707A:  MOVFF  6B4,6B7
0707E:  MOVFF  291,6B9
07082:  MOVLB  0
07084:  RCALL  6900
....................       delay_ms(10); 
07086:  MOVLW  0A
07088:  MOVLB  6
0708A:  MOVWF  xC2
0708C:  MOVLB  0
0708E:  CALL   1F7A
....................     
....................       if(posicionDato<35) 
07092:  MOVLB  2
07094:  MOVF   x90,W
07096:  SUBLW  22
07098:  BNC   709C
....................          ++posicionDato; 
0709A:  INCF   x90,F
0709C:  MOVLB  0
....................    } 
.................... } 
0709E:  RETLW  00
....................  
.................... void incrementaCiclos(){ 
....................    if(!Ciclo){ 
070A0:  BTFSC  xFF.2
070A2:  BRA    712A
....................       Ciclo=ON; 
070A4:  BSF    xFF.2
....................       Ciclos++; 
070A6:  MOVLB  2
070A8:  INCF   x7C,F
070AA:  BTFSC  FD8.2
070AC:  INCF   x7D,F
....................       CiclosL=make8(Ciclos,0); 
070AE:  MOVFF  27C,25D
....................       CiclosH=make8(Ciclos,1); 
070B2:  MOVFF  27D,25E
....................       write_eeprom(37,CiclosL); 
070B6:  CLRF   FAA
070B8:  MOVLW  25
070BA:  MOVWF  FA9
070BC:  MOVFF  25D,FA8
070C0:  BCF    FA6.6
070C2:  BCF    FA6.7
070C4:  BSF    FA6.2
070C6:  MOVF   FF2,W
070C8:  MOVWF  00
070CA:  BCF    FF2.6
070CC:  BCF    FF2.7
070CE:  MOVLB  F
070D0:  MOVLW  55
070D2:  MOVWF  FA7
070D4:  MOVLW  AA
070D6:  MOVWF  FA7
070D8:  BSF    FA6.1
070DA:  BTFSC  FA6.1
070DC:  BRA    70DA
070DE:  BCF    FA6.2
070E0:  MOVF   00,W
070E2:  IORWF  FF2,F
....................       delay_ms(20); 
070E4:  MOVLW  14
070E6:  MOVLB  6
070E8:  MOVWF  xC2
070EA:  MOVLB  0
070EC:  CALL   1F7A
....................       write_eeprom(38,CiclosH); 
070F0:  CLRF   FAA
070F2:  MOVLW  26
070F4:  MOVWF  FA9
070F6:  MOVFF  25E,FA8
070FA:  BCF    FA6.6
070FC:  BCF    FA6.7
070FE:  BSF    FA6.2
07100:  MOVF   FF2,W
07102:  MOVWF  00
07104:  BCF    FF2.6
07106:  BCF    FF2.7
07108:  MOVLB  F
0710A:  MOVLW  55
0710C:  MOVWF  FA7
0710E:  MOVLW  AA
07110:  MOVWF  FA7
07112:  BSF    FA6.1
07114:  BTFSC  FA6.1
07116:  BRA    7114
07118:  BCF    FA6.2
0711A:  MOVF   00,W
0711C:  IORWF  FF2,F
....................       delay_ms(20); 
0711E:  MOVLW  14
07120:  MOVLB  6
07122:  MOVWF  xC2
07124:  MOVLB  0
07126:  CALL   1F7A
....................    } 
.................... } 
0712A:  RETLW  00
....................  
.................... void exportarData(){ 
*
0603A:  MOVLB  6
0603C:  CLRF   xB1
0603E:  CLRF   xB0
06040:  CLRF   xB2
.................... int16 posicion=0; 
.................... int8 tmp=0; 
.................... posicion=40; 
06042:  CLRF   xB1
06044:  MOVLW  28
06046:  MOVWF  xB0
.................... direccion=0xB0; 
06048:  MOVLW  B0
0604A:  MOVLB  0
0604C:  MOVWF  xDD
.................... //Buzzer_on; 
.................... //Inicio de Transmision 
.................... i2c_start();            // Comienzo comunicacin 
0604E:  BSF    F94.4
06050:  MOVLW  05
06052:  MOVWF  00
06054:  DECFSZ 00,F
06056:  BRA    6054
06058:  BSF    F94.3
0605A:  MOVLW  06
0605C:  MOVWF  00
0605E:  DECFSZ 00,F
06060:  BRA    605E
06062:  BCF    F8B.4
06064:  BCF    F94.4
06066:  MOVLW  05
06068:  MOVWF  00
0606A:  DECFSZ 00,F
0606C:  BRA    606A
0606E:  BCF    F8B.3
06070:  BCF    F94.3
.................... i2c_write(direccion);   // Direccin del esclavo en el bus I2C 
06072:  MOVFF  DD,6C6
06076:  CALL   240E
.................... i2c_write(make8(posicion,0));    // Posicin donde se guardara el dato transmitido 
0607A:  MOVFF  6B0,6B3
0607E:  MOVFF  6B0,6C6
06082:  CALL   240E
.................... i2c_write(make8(posicion,1));    // Posicin donde se guardara el dato transmitido 
06086:  MOVFF  6B1,6B3
0608A:  MOVFF  6B1,6C6
0608E:  CALL   240E
.................... i2c_write(0xff);        // Dato a transmitir 
06092:  MOVLW  FF
06094:  MOVLB  6
06096:  MOVWF  xC6
06098:  MOVLB  0
0609A:  CALL   240E
.................... i2c_stop(); 
0609E:  BCF    F94.4
060A0:  NOP   
060A2:  BSF    F94.3
060A4:  BTFSS  F82.3
060A6:  BRA    60A4
060A8:  MOVLW  05
060AA:  MOVWF  00
060AC:  DECFSZ 00,F
060AE:  BRA    60AC
060B0:  BRA    60B2
060B2:  NOP   
060B4:  BSF    F94.4
060B6:  MOVLW  05
060B8:  MOVWF  00
060BA:  DECFSZ 00,F
060BC:  BRA    60BA
.................... ++posicion; 
060BE:  MOVLB  6
060C0:  INCF   xB0,F
060C2:  BTFSC  FD8.2
060C4:  INCF   xB1,F
.................... i2c_start();            // Comienzo comunicacin 
060C6:  BSF    F94.4
060C8:  MOVLW  05
060CA:  MOVWF  00
060CC:  DECFSZ 00,F
060CE:  BRA    60CC
060D0:  BSF    F94.3
060D2:  MOVLW  06
060D4:  MOVWF  00
060D6:  DECFSZ 00,F
060D8:  BRA    60D6
060DA:  BCF    F8B.4
060DC:  BCF    F94.4
060DE:  MOVLW  05
060E0:  MOVWF  00
060E2:  DECFSZ 00,F
060E4:  BRA    60E2
060E6:  BCF    F8B.3
060E8:  BCF    F94.3
.................... i2c_write(direccion);   // Direccin del esclavo en el bus I2C 
060EA:  MOVFF  DD,6C6
060EE:  MOVLB  0
060F0:  CALL   240E
.................... i2c_write(make8(posicion,0));    // Posicin donde se guardara el dato transmitido 
060F4:  MOVFF  6B0,6B3
060F8:  MOVFF  6B0,6C6
060FC:  CALL   240E
.................... i2c_write(make8(posicion,1));    // Posicin donde se guardara el dato transmitido 
06100:  MOVFF  6B1,6B3
06104:  MOVFF  6B1,6C6
06108:  CALL   240E
.................... i2c_write(0xff);        // Dato a transmitir 
0610C:  MOVLW  FF
0610E:  MOVLB  6
06110:  MOVWF  xC6
06112:  MOVLB  0
06114:  CALL   240E
.................... i2c_stop(); 
06118:  BCF    F94.4
0611A:  NOP   
0611C:  BSF    F94.3
0611E:  BTFSS  F82.3
06120:  BRA    611E
06122:  MOVLW  05
06124:  MOVWF  00
06126:  DECFSZ 00,F
06128:  BRA    6126
0612A:  BRA    612C
0612C:  NOP   
0612E:  BSF    F94.4
06130:  MOVLW  05
06132:  MOVWF  00
06134:  DECFSZ 00,F
06136:  BRA    6134
.................... ++posicion; 
06138:  MOVLB  6
0613A:  INCF   xB0,F
0613C:  BTFSC  FD8.2
0613E:  INCF   xB1,F
.................... //Se envian 2 veces ff para indicar que se inicia la transmision. 
....................  
....................    for(i=0;i<5;i++){ 
06140:  MOVLB  2
06142:  CLRF   x5C
06144:  MOVF   x5C,W
06146:  SUBLW  04
06148:  BNC   6200
....................       tmp=read_ext_eeprom((cicloVisto*320)+i); 
0614A:  MOVLB  6
0614C:  CLRF   xBB
0614E:  MOVFF  2A0,6BA
06152:  MOVLW  01
06154:  MOVWF  xBD
06156:  MOVLW  40
06158:  MOVWF  xBC
0615A:  MOVLB  0
0615C:  CALL   23EC
06160:  MOVFF  02,6B4
06164:  MOVFF  01,6B3
06168:  MOVLB  2
0616A:  MOVF   x5C,W
0616C:  MOVLB  6
0616E:  ADDWF  xB3,F
06170:  MOVLW  00
06172:  ADDWFC xB4,F
06174:  MOVFF  6B4,6B6
06178:  MOVFF  6B3,6B5
0617C:  MOVLB  0
0617E:  CALL   24EE
06182:  MOVFF  01,6B2
....................       //if(tmp>250) 
....................       //   tmp=20; 
....................       i2c_start();            // Comienzo comunicacin 
06186:  BSF    F94.4
06188:  MOVLW  05
0618A:  MOVWF  00
0618C:  DECFSZ 00,F
0618E:  BRA    618C
06190:  BSF    F94.3
06192:  MOVLW  06
06194:  MOVWF  00
06196:  DECFSZ 00,F
06198:  BRA    6196
0619A:  BCF    F8B.4
0619C:  BCF    F94.4
0619E:  MOVLW  05
061A0:  MOVWF  00
061A2:  DECFSZ 00,F
061A4:  BRA    61A2
061A6:  BCF    F8B.3
061A8:  BCF    F94.3
....................       i2c_write(direccion);   // Direccin del esclavo en el bus I2C 
061AA:  MOVFF  DD,6C6
061AE:  CALL   240E
....................       i2c_write(make8(posicion,0));    // Posicin donde se guardara el dato transmitido 
061B2:  MOVFF  6B0,6B3
061B6:  MOVFF  6B0,6C6
061BA:  CALL   240E
....................       i2c_write(make8(posicion,1));    // Posicin donde se guardara el dato transmitido 
061BE:  MOVFF  6B1,6B3
061C2:  MOVFF  6B1,6C6
061C6:  CALL   240E
....................       i2c_write(tmp);        // Dato a transmitir 
061CA:  MOVFF  6B2,6C6
061CE:  CALL   240E
....................       i2c_stop();  
061D2:  BCF    F94.4
061D4:  NOP   
061D6:  BSF    F94.3
061D8:  BTFSS  F82.3
061DA:  BRA    61D8
061DC:  MOVLW  05
061DE:  MOVWF  00
061E0:  DECFSZ 00,F
061E2:  BRA    61E0
061E4:  BRA    61E6
061E6:  NOP   
061E8:  BSF    F94.4
061EA:  MOVLW  05
061EC:  MOVWF  00
061EE:  DECFSZ 00,F
061F0:  BRA    61EE
....................       ++posicion; 
061F2:  MOVLB  6
061F4:  INCF   xB0,F
061F6:  BTFSC  FD8.2
061F8:  INCF   xB1,F
....................    } 
061FA:  MOVLB  2
061FC:  INCF   x5C,F
061FE:  BRA    6144
....................    for(i=0;i<35;i++){//Lee Valores para completar la Tabla 
06200:  CLRF   x5C
06202:  MOVF   x5C,W
06204:  SUBLW  22
06206:  BNC   62DC
....................       for(j=5;j<14;j++){//Lee Valores para completar la Tabla 
06208:  MOVLW  05
0620A:  MOVWF  xAF
0620C:  MOVF   xAF,W
0620E:  SUBLW  0D
06210:  BNC   62D8
....................          tmp=read_ext_eeprom((cicloVisto*320)+j+(i*9)); 
06212:  MOVLB  6
06214:  CLRF   xBB
06216:  MOVFF  2A0,6BA
0621A:  MOVLW  01
0621C:  MOVWF  xBD
0621E:  MOVLW  40
06220:  MOVWF  xBC
06222:  MOVLB  0
06224:  CALL   23EC
06228:  MOVFF  02,6B4
0622C:  MOVFF  01,6B3
06230:  MOVLB  2
06232:  MOVF   xAF,W
06234:  MOVLB  6
06236:  ADDWF  xB3,F
06238:  MOVLW  00
0623A:  ADDWFC xB4,F
0623C:  MOVLB  2
0623E:  MOVF   x5C,W
06240:  MULLW  09
06242:  MOVF   FF3,W
06244:  MOVLB  6
06246:  ADDWF  xB3,F
06248:  MOVLW  00
0624A:  ADDWFC xB4,F
0624C:  MOVFF  6B4,6B6
06250:  MOVFF  6B3,6B5
06254:  MOVLB  0
06256:  CALL   24EE
0625A:  MOVFF  01,6B2
....................          //if(tmp>250) 
....................          //   tmp=20; 
....................          i2c_start();            // Comienzo comunicacin 
0625E:  BSF    F94.4
06260:  MOVLW  05
06262:  MOVWF  00
06264:  DECFSZ 00,F
06266:  BRA    6264
06268:  BSF    F94.3
0626A:  MOVLW  06
0626C:  MOVWF  00
0626E:  DECFSZ 00,F
06270:  BRA    626E
06272:  BCF    F8B.4
06274:  BCF    F94.4
06276:  MOVLW  05
06278:  MOVWF  00
0627A:  DECFSZ 00,F
0627C:  BRA    627A
0627E:  BCF    F8B.3
06280:  BCF    F94.3
....................          i2c_write(direccion);   // Direccin del esclavo en el bus I2C 
06282:  MOVFF  DD,6C6
06286:  CALL   240E
....................          i2c_write(make8(posicion,0));    // Posicin donde se guardara el dato transmitido 
0628A:  MOVFF  6B0,6B3
0628E:  MOVFF  6B0,6C6
06292:  CALL   240E
....................          i2c_write(make8(posicion,1));    // Posicin donde se guardara el dato transmitido 
06296:  MOVFF  6B1,6B3
0629A:  MOVFF  6B1,6C6
0629E:  CALL   240E
....................          i2c_write(tmp);        // Dato a transmitir 
062A2:  MOVFF  6B2,6C6
062A6:  CALL   240E
....................          i2c_stop();  
062AA:  BCF    F94.4
062AC:  NOP   
062AE:  BSF    F94.3
062B0:  BTFSS  F82.3
062B2:  BRA    62B0
062B4:  MOVLW  05
062B6:  MOVWF  00
062B8:  DECFSZ 00,F
062BA:  BRA    62B8
062BC:  BRA    62BE
062BE:  NOP   
062C0:  BSF    F94.4
062C2:  MOVLW  05
062C4:  MOVWF  00
062C6:  DECFSZ 00,F
062C8:  BRA    62C6
....................          ++posicion; 
062CA:  MOVLB  6
062CC:  INCF   xB0,F
062CE:  BTFSC  FD8.2
062D0:  INCF   xB1,F
....................       } 
062D2:  MOVLB  2
062D4:  INCF   xAF,F
062D6:  BRA    620C
....................    } 
062D8:  INCF   x5C,F
062DA:  BRA    6202
....................  
.................... //Fin de Transmision 
.................... i2c_start();            // Comienzo comunicacin 
062DC:  BSF    F94.4
062DE:  MOVLW  05
062E0:  MOVWF  00
062E2:  DECFSZ 00,F
062E4:  BRA    62E2
062E6:  BSF    F94.3
062E8:  MOVLW  06
062EA:  MOVWF  00
062EC:  DECFSZ 00,F
062EE:  BRA    62EC
062F0:  BCF    F8B.4
062F2:  BCF    F94.4
062F4:  MOVLW  05
062F6:  MOVWF  00
062F8:  DECFSZ 00,F
062FA:  BRA    62F8
062FC:  BCF    F8B.3
062FE:  BCF    F94.3
.................... i2c_write(direccion);   // Direccin del esclavo en el bus I2C 
06300:  MOVFF  DD,6C6
06304:  MOVLB  0
06306:  CALL   240E
.................... i2c_write(make8(posicion,0));    // Posicin donde se guardara el dato transmitido 
0630A:  MOVFF  6B0,6B3
0630E:  MOVFF  6B0,6C6
06312:  CALL   240E
.................... i2c_write(make8(posicion,1));    // Posicin donde se guardara el dato transmitido 
06316:  MOVFF  6B1,6B3
0631A:  MOVFF  6B1,6C6
0631E:  CALL   240E
.................... i2c_write(0x1f);        // Dato a transmitir 
06322:  MOVLW  1F
06324:  MOVLB  6
06326:  MOVWF  xC6
06328:  MOVLB  0
0632A:  CALL   240E
.................... i2c_stop(); 
0632E:  BCF    F94.4
06330:  NOP   
06332:  BSF    F94.3
06334:  BTFSS  F82.3
06336:  BRA    6334
06338:  MOVLW  05
0633A:  MOVWF  00
0633C:  DECFSZ 00,F
0633E:  BRA    633C
06340:  BRA    6342
06342:  NOP   
06344:  BSF    F94.4
06346:  MOVLW  05
06348:  MOVWF  00
0634A:  DECFSZ 00,F
0634C:  BRA    634A
.................... ++posicion; 
0634E:  MOVLB  6
06350:  INCF   xB0,F
06352:  BTFSC  FD8.2
06354:  INCF   xB1,F
.................... i2c_start();            // Comienzo comunicacin 
06356:  BSF    F94.4
06358:  MOVLW  05
0635A:  MOVWF  00
0635C:  DECFSZ 00,F
0635E:  BRA    635C
06360:  BSF    F94.3
06362:  MOVLW  06
06364:  MOVWF  00
06366:  DECFSZ 00,F
06368:  BRA    6366
0636A:  BCF    F8B.4
0636C:  BCF    F94.4
0636E:  MOVLW  05
06370:  MOVWF  00
06372:  DECFSZ 00,F
06374:  BRA    6372
06376:  BCF    F8B.3
06378:  BCF    F94.3
.................... i2c_write(direccion);   // Direccin del esclavo en el bus I2C 
0637A:  MOVFF  DD,6C6
0637E:  MOVLB  0
06380:  CALL   240E
.................... i2c_write(make8(posicion,0));    // Posicin donde se guardara el dato transmitido 
06384:  MOVFF  6B0,6B3
06388:  MOVFF  6B0,6C6
0638C:  CALL   240E
.................... i2c_write(make8(posicion,1));    // Posicin donde se guardara el dato transmitido 
06390:  MOVFF  6B1,6B3
06394:  MOVFF  6B1,6C6
06398:  CALL   240E
.................... i2c_write(0x1f);        // Dato a transmitir 
0639C:  MOVLW  1F
0639E:  MOVLB  6
063A0:  MOVWF  xC6
063A2:  MOVLB  0
063A4:  CALL   240E
.................... i2c_stop(); 
063A8:  BCF    F94.4
063AA:  NOP   
063AC:  BSF    F94.3
063AE:  BTFSS  F82.3
063B0:  BRA    63AE
063B2:  MOVLW  05
063B4:  MOVWF  00
063B6:  DECFSZ 00,F
063B8:  BRA    63B6
063BA:  BRA    63BC
063BC:  NOP   
063BE:  BSF    F94.4
063C0:  MOVLW  05
063C2:  MOVWF  00
063C4:  DECFSZ 00,F
063C6:  BRA    63C4
.................... ++posicion; 
063C8:  MOVLB  6
063CA:  INCF   xB0,F
063CC:  BTFSC  FD8.2
063CE:  INCF   xB1,F
.................... //Se envian 2 veces 1f para indicar que se inicia la transmision. 
.................... delay_ms(200); 
063D0:  MOVLW  C8
063D2:  MOVWF  xC2
063D4:  MOVLB  0
063D6:  CALL   1F7A
.................... //Buzzer_off; 
.................... } 
063DA:  GOTO   B868 (RETURN)
....................  
.................... void codificaAlarma(){ 
....................    if(ACiclos[i]==0){ 
063DE:  CLRF   03
063E0:  MOVLB  2
063E2:  MOVF   x5C,W
063E4:  ADDLW  10
063E6:  MOVWF  FE9
063E8:  MOVLW  03
063EA:  ADDWFC 03,W
063EC:  MOVWF  FEA
063EE:  MOVF   FEF,F
063F0:  BNZ   6430
....................       printf("A%u.txt=\"----\"",i+1); 
063F2:  MOVLW  01
063F4:  ADDWF  x5C,W
063F6:  MOVLB  6
063F8:  MOVWF  xB0
063FA:  MOVLW  41
063FC:  BTFSS  F9E.4
063FE:  BRA    63FC
06400:  MOVWF  FAD
06402:  MOVFF  6B0,6B5
06406:  MOVLW  1B
06408:  MOVWF  xB6
0640A:  MOVLB  0
0640C:  CALL   5A18
06410:  MOVLW  07
06412:  MOVWF  FF6
06414:  MOVLW  04
06416:  MOVWF  FF7
06418:  MOVLW  00
0641A:  MOVWF  FF8
0641C:  MOVLW  0B
0641E:  MOVLB  6
06420:  MOVWF  xB5
06422:  MOVLB  0
06424:  CALL   5994
....................       SendDataDisplay(); 
06428:  CALL   402C
....................    }else if(ACiclos[i]==1){ 
0642C:  BRA    68F8
0642E:  MOVLB  2
06430:  CLRF   03
06432:  MOVF   x5C,W
06434:  ADDLW  10
06436:  MOVWF  FE9
06438:  MOVLW  03
0643A:  ADDWFC 03,W
0643C:  MOVWF  FEA
0643E:  DECFSZ FEF,W
06440:  BRA    6480
....................       printf("A%u.txt=\"Parada\"",i+1); 
06442:  MOVLW  01
06444:  ADDWF  x5C,W
06446:  MOVLB  6
06448:  MOVWF  xB0
0644A:  MOVLW  41
0644C:  BTFSS  F9E.4
0644E:  BRA    644C
06450:  MOVWF  FAD
06452:  MOVFF  6B0,6B5
06456:  MOVLW  1B
06458:  MOVWF  xB6
0645A:  MOVLB  0
0645C:  CALL   5A18
06460:  MOVLW  17
06462:  MOVWF  FF6
06464:  MOVLW  04
06466:  MOVWF  FF7
06468:  MOVLW  00
0646A:  MOVWF  FF8
0646C:  MOVLW  0D
0646E:  MOVLB  6
06470:  MOVWF  xB5
06472:  MOVLB  0
06474:  CALL   5994
....................       SendDataDisplay(); 
06478:  CALL   402C
....................    }else if(ACiclos[i]==2){ 
0647C:  BRA    68F8
0647E:  MOVLB  2
06480:  CLRF   03
06482:  MOVF   x5C,W
06484:  ADDLW  10
06486:  MOVWF  FE9
06488:  MOVLW  03
0648A:  ADDWFC 03,W
0648C:  MOVWF  FEA
0648E:  MOVF   FEF,W
06490:  SUBLW  02
06492:  BNZ   64D2
....................       printf("A%u.txt=\"Puerta\"",i+1); 
06494:  MOVLW  01
06496:  ADDWF  x5C,W
06498:  MOVLB  6
0649A:  MOVWF  xB0
0649C:  MOVLW  41
0649E:  BTFSS  F9E.4
064A0:  BRA    649E
064A2:  MOVWF  FAD
064A4:  MOVFF  6B0,6B5
064A8:  MOVLW  1B
064AA:  MOVWF  xB6
064AC:  MOVLB  0
064AE:  CALL   5A18
064B2:  MOVLW  29
064B4:  MOVWF  FF6
064B6:  MOVLW  04
064B8:  MOVWF  FF7
064BA:  MOVLW  00
064BC:  MOVWF  FF8
064BE:  MOVLW  0D
064C0:  MOVLB  6
064C2:  MOVWF  xB5
064C4:  MOVLB  0
064C6:  CALL   5994
....................       SendDataDisplay(); 
064CA:  CALL   402C
....................    }else if(ACiclos[i]==3){ 
064CE:  BRA    68F8
064D0:  MOVLB  2
064D2:  CLRF   03
064D4:  MOVF   x5C,W
064D6:  ADDLW  10
064D8:  MOVWF  FE9
064DA:  MOVLW  03
064DC:  ADDWFC 03,W
064DE:  MOVWF  FEA
064E0:  MOVF   FEF,W
064E2:  SUBLW  03
064E4:  BNZ   6524
....................       printf("A%u.txt=\"Termostato\"",i+1); 
064E6:  MOVLW  01
064E8:  ADDWF  x5C,W
064EA:  MOVLB  6
064EC:  MOVWF  xB0
064EE:  MOVLW  41
064F0:  BTFSS  F9E.4
064F2:  BRA    64F0
064F4:  MOVWF  FAD
064F6:  MOVFF  6B0,6B5
064FA:  MOVLW  1B
064FC:  MOVWF  xB6
064FE:  MOVLB  0
06500:  CALL   5A18
06504:  MOVLW  3B
06506:  MOVWF  FF6
06508:  MOVLW  04
0650A:  MOVWF  FF7
0650C:  MOVLW  00
0650E:  MOVWF  FF8
06510:  MOVLW  11
06512:  MOVLB  6
06514:  MOVWF  xB5
06516:  MOVLB  0
06518:  CALL   5994
....................       SendDataDisplay(); 
0651C:  CALL   402C
....................    }else if(ACiclos[i]==4){ 
06520:  BRA    68F8
06522:  MOVLB  2
06524:  CLRF   03
06526:  MOVF   x5C,W
06528:  ADDLW  10
0652A:  MOVWF  FE9
0652C:  MOVLW  03
0652E:  ADDWFC 03,W
06530:  MOVWF  FEA
06532:  MOVF   FEF,W
06534:  SUBLW  04
06536:  BNZ   6576
....................       printf("A%u.txt=\"SobreT\"",i+1); 
06538:  MOVLW  01
0653A:  ADDWF  x5C,W
0653C:  MOVLB  6
0653E:  MOVWF  xB0
06540:  MOVLW  41
06542:  BTFSS  F9E.4
06544:  BRA    6542
06546:  MOVWF  FAD
06548:  MOVFF  6B0,6B5
0654C:  MOVLW  1B
0654E:  MOVWF  xB6
06550:  MOVLB  0
06552:  CALL   5A18
06556:  MOVLW  51
06558:  MOVWF  FF6
0655A:  MOVLW  04
0655C:  MOVWF  FF7
0655E:  MOVLW  00
06560:  MOVWF  FF8
06562:  MOVLW  0D
06564:  MOVLB  6
06566:  MOVWF  xB5
06568:  MOVLB  0
0656A:  CALL   5994
....................       SendDataDisplay(); 
0656E:  CALL   402C
....................    }else if(ACiclos[i]==5){ 
06572:  BRA    68F8
06574:  MOVLB  2
06576:  CLRF   03
06578:  MOVF   x5C,W
0657A:  ADDLW  10
0657C:  MOVWF  FE9
0657E:  MOVLW  03
06580:  ADDWFC 03,W
06582:  MOVWF  FEA
06584:  MOVF   FEF,W
06586:  SUBLW  05
06588:  BNZ   65C8
....................       printf("A%u.txt=\"Tiempo\"",i+1); 
0658A:  MOVLW  01
0658C:  ADDWF  x5C,W
0658E:  MOVLB  6
06590:  MOVWF  xB0
06592:  MOVLW  41
06594:  BTFSS  F9E.4
06596:  BRA    6594
06598:  MOVWF  FAD
0659A:  MOVFF  6B0,6B5
0659E:  MOVLW  1B
065A0:  MOVWF  xB6
065A2:  MOVLB  0
065A4:  CALL   5A18
065A8:  MOVLW  63
065AA:  MOVWF  FF6
065AC:  MOVLW  04
065AE:  MOVWF  FF7
065B0:  MOVLW  00
065B2:  MOVWF  FF8
065B4:  MOVLW  0D
065B6:  MOVLB  6
065B8:  MOVWF  xB5
065BA:  MOVLB  0
065BC:  CALL   5994
....................       SendDataDisplay(); 
065C0:  CALL   402C
....................    }else if(ACiclos[i]==6){ 
065C4:  BRA    68F8
065C6:  MOVLB  2
065C8:  CLRF   03
065CA:  MOVF   x5C,W
065CC:  ADDLW  10
065CE:  MOVWF  FE9
065D0:  MOVLW  03
065D2:  ADDWFC 03,W
065D4:  MOVWF  FEA
065D6:  MOVF   FEF,W
065D8:  SUBLW  06
065DA:  BNZ   661A
....................       printf("A%u.txt=\"Presion\"",i+1); 
065DC:  MOVLW  01
065DE:  ADDWF  x5C,W
065E0:  MOVLB  6
065E2:  MOVWF  xB0
065E4:  MOVLW  41
065E6:  BTFSS  F9E.4
065E8:  BRA    65E6
065EA:  MOVWF  FAD
065EC:  MOVFF  6B0,6B5
065F0:  MOVLW  1B
065F2:  MOVWF  xB6
065F4:  MOVLB  0
065F6:  CALL   5A18
065FA:  MOVLW  75
065FC:  MOVWF  FF6
065FE:  MOVLW  04
06600:  MOVWF  FF7
06602:  MOVLW  00
06604:  MOVWF  FF8
06606:  MOVLW  0E
06608:  MOVLB  6
0660A:  MOVWF  xB5
0660C:  MOVLB  0
0660E:  CALL   5994
....................       SendDataDisplay(); 
06612:  CALL   402C
....................    }else if(ACiclos[i]==7){ 
06616:  BRA    68F8
06618:  MOVLB  2
0661A:  CLRF   03
0661C:  MOVF   x5C,W
0661E:  ADDLW  10
06620:  MOVWF  FE9
06622:  MOVLW  03
06624:  ADDWFC 03,W
06626:  MOVWF  FEA
06628:  MOVF   FEF,W
0662A:  SUBLW  07
0662C:  BNZ   666C
....................       printf("A%u.txt=\"Bomba\"",i+1); 
0662E:  MOVLW  01
06630:  ADDWF  x5C,W
06632:  MOVLB  6
06634:  MOVWF  xB0
06636:  MOVLW  41
06638:  BTFSS  F9E.4
0663A:  BRA    6638
0663C:  MOVWF  FAD
0663E:  MOVFF  6B0,6B5
06642:  MOVLW  1B
06644:  MOVWF  xB6
06646:  MOVLB  0
06648:  CALL   5A18
0664C:  MOVLW  87
0664E:  MOVWF  FF6
06650:  MOVLW  04
06652:  MOVWF  FF7
06654:  MOVLW  00
06656:  MOVWF  FF8
06658:  MOVLW  0C
0665A:  MOVLB  6
0665C:  MOVWF  xB5
0665E:  MOVLB  0
06660:  CALL   5994
....................       SendDataDisplay(); 
06664:  CALL   402C
....................    }else if(ACiclos[i]==8){ 
06668:  BRA    68F8
0666A:  MOVLB  2
0666C:  CLRF   03
0666E:  MOVF   x5C,W
06670:  ADDLW  10
06672:  MOVWF  FE9
06674:  MOVLW  03
06676:  ADDWFC 03,W
06678:  MOVWF  FEA
0667A:  MOVF   FEF,W
0667C:  SUBLW  08
0667E:  BNZ   66BE
....................       printf("A%u.txt=\"ErrorVacio\"",i+1); 
06680:  MOVLW  01
06682:  ADDWF  x5C,W
06684:  MOVLB  6
06686:  MOVWF  xB0
06688:  MOVLW  41
0668A:  BTFSS  F9E.4
0668C:  BRA    668A
0668E:  MOVWF  FAD
06690:  MOVFF  6B0,6B5
06694:  MOVLW  1B
06696:  MOVWF  xB6
06698:  MOVLB  0
0669A:  CALL   5A18
0669E:  MOVLW  97
066A0:  MOVWF  FF6
066A2:  MOVLW  04
066A4:  MOVWF  FF7
066A6:  MOVLW  00
066A8:  MOVWF  FF8
066AA:  MOVLW  11
066AC:  MOVLB  6
066AE:  MOVWF  xB5
066B0:  MOVLB  0
066B2:  CALL   5994
....................       SendDataDisplay(); 
066B6:  CALL   402C
....................    }else if(ACiclos[i]==10){ 
066BA:  BRA    68F8
066BC:  MOVLB  2
066BE:  CLRF   03
066C0:  MOVF   x5C,W
066C2:  ADDLW  10
066C4:  MOVWF  FE9
066C6:  MOVLW  03
066C8:  ADDWFC 03,W
066CA:  MOVWF  FEA
066CC:  MOVF   FEF,W
066CE:  SUBLW  0A
066D0:  BNZ   6710
....................       printf("A%u.txt=\"PreCale\"",i+1); 
066D2:  MOVLW  01
066D4:  ADDWF  x5C,W
066D6:  MOVLB  6
066D8:  MOVWF  xB0
066DA:  MOVLW  41
066DC:  BTFSS  F9E.4
066DE:  BRA    66DC
066E0:  MOVWF  FAD
066E2:  MOVFF  6B0,6B5
066E6:  MOVLW  1B
066E8:  MOVWF  xB6
066EA:  MOVLB  0
066EC:  CALL   5A18
066F0:  MOVLW  AD
066F2:  MOVWF  FF6
066F4:  MOVLW  04
066F6:  MOVWF  FF7
066F8:  MOVLW  00
066FA:  MOVWF  FF8
066FC:  MOVLW  0E
066FE:  MOVLB  6
06700:  MOVWF  xB5
06702:  MOVLB  0
06704:  CALL   5994
....................       SendDataDisplay(); 
06708:  CALL   402C
....................    }else if(ACiclos[i]==11){ 
0670C:  BRA    68F8
0670E:  MOVLB  2
06710:  CLRF   03
06712:  MOVF   x5C,W
06714:  ADDLW  10
06716:  MOVWF  FE9
06718:  MOVLW  03
0671A:  ADDWFC 03,W
0671C:  MOVWF  FEA
0671E:  MOVF   FEF,W
06720:  SUBLW  0B
06722:  BNZ   6762
....................       printf("A%u.txt=\"Vacio\"",i+1); 
06724:  MOVLW  01
06726:  ADDWF  x5C,W
06728:  MOVLB  6
0672A:  MOVWF  xB0
0672C:  MOVLW  41
0672E:  BTFSS  F9E.4
06730:  BRA    672E
06732:  MOVWF  FAD
06734:  MOVFF  6B0,6B5
06738:  MOVLW  1B
0673A:  MOVWF  xB6
0673C:  MOVLB  0
0673E:  CALL   5A18
06742:  MOVLW  BF
06744:  MOVWF  FF6
06746:  MOVLW  04
06748:  MOVWF  FF7
0674A:  MOVLW  00
0674C:  MOVWF  FF8
0674E:  MOVLW  0C
06750:  MOVLB  6
06752:  MOVWF  xB5
06754:  MOVLB  0
06756:  CALL   5994
....................       SendDataDisplay(); 
0675A:  CALL   402C
....................    }else if(ACiclos[i]==12){ 
0675E:  BRA    68F8
06760:  MOVLB  2
06762:  CLRF   03
06764:  MOVF   x5C,W
06766:  ADDLW  10
06768:  MOVWF  FE9
0676A:  MOVLW  03
0676C:  ADDWFC 03,W
0676E:  MOVWF  FEA
06770:  MOVF   FEF,W
06772:  SUBLW  0C
06774:  BNZ   67B4
....................       printf("A%u.txt=\"Calen\"",i+1); 
06776:  MOVLW  01
06778:  ADDWF  x5C,W
0677A:  MOVLB  6
0677C:  MOVWF  xB0
0677E:  MOVLW  41
06780:  BTFSS  F9E.4
06782:  BRA    6780
06784:  MOVWF  FAD
06786:  MOVFF  6B0,6B5
0678A:  MOVLW  1B
0678C:  MOVWF  xB6
0678E:  MOVLB  0
06790:  CALL   5A18
06794:  MOVLW  CF
06796:  MOVWF  FF6
06798:  MOVLW  04
0679A:  MOVWF  FF7
0679C:  MOVLW  00
0679E:  MOVWF  FF8
067A0:  MOVLW  0C
067A2:  MOVLB  6
067A4:  MOVWF  xB5
067A6:  MOVLB  0
067A8:  CALL   5994
....................       SendDataDisplay(); 
067AC:  CALL   402C
....................    }else if(ACiclos[i]==13){ 
067B0:  BRA    68F8
067B2:  MOVLB  2
067B4:  CLRF   03
067B6:  MOVF   x5C,W
067B8:  ADDLW  10
067BA:  MOVWF  FE9
067BC:  MOVLW  03
067BE:  ADDWFC 03,W
067C0:  MOVWF  FEA
067C2:  MOVF   FEF,W
067C4:  SUBLW  0D
067C6:  BNZ   6806
....................       printf("A%u.txt=\"Desfoga\"",i+1); 
067C8:  MOVLW  01
067CA:  ADDWF  x5C,W
067CC:  MOVLB  6
067CE:  MOVWF  xB0
067D0:  MOVLW  41
067D2:  BTFSS  F9E.4
067D4:  BRA    67D2
067D6:  MOVWF  FAD
067D8:  MOVFF  6B0,6B5
067DC:  MOVLW  1B
067DE:  MOVWF  xB6
067E0:  MOVLB  0
067E2:  CALL   5A18
067E6:  MOVLW  DF
067E8:  MOVWF  FF6
067EA:  MOVLW  04
067EC:  MOVWF  FF7
067EE:  MOVLW  00
067F0:  MOVWF  FF8
067F2:  MOVLW  0E
067F4:  MOVLB  6
067F6:  MOVWF  xB5
067F8:  MOVLB  0
067FA:  CALL   5994
....................       SendDataDisplay(); 
067FE:  CALL   402C
....................    }else if(ACiclos[i]==14){ 
06802:  BRA    68F8
06804:  MOVLB  2
06806:  CLRF   03
06808:  MOVF   x5C,W
0680A:  ADDLW  10
0680C:  MOVWF  FE9
0680E:  MOVLW  03
06810:  ADDWFC 03,W
06812:  MOVWF  FEA
06814:  MOVF   FEF,W
06816:  SUBLW  0E
06818:  BNZ   6858
....................       printf("A%u.txt=\"Finalizado\"",i+1); 
0681A:  MOVLW  01
0681C:  ADDWF  x5C,W
0681E:  MOVLB  6
06820:  MOVWF  xB0
06822:  MOVLW  41
06824:  BTFSS  F9E.4
06826:  BRA    6824
06828:  MOVWF  FAD
0682A:  MOVFF  6B0,6B5
0682E:  MOVLW  1B
06830:  MOVWF  xB6
06832:  MOVLB  0
06834:  CALL   5A18
06838:  MOVLW  F1
0683A:  MOVWF  FF6
0683C:  MOVLW  04
0683E:  MOVWF  FF7
06840:  MOVLW  00
06842:  MOVWF  FF8
06844:  MOVLW  11
06846:  MOVLB  6
06848:  MOVWF  xB5
0684A:  MOVLB  0
0684C:  CALL   5994
....................       SendDataDisplay(); 
06850:  CALL   402C
....................    }else if(ACiclos[i]==15){ 
06854:  BRA    68F8
06856:  MOVLB  2
06858:  CLRF   03
0685A:  MOVF   x5C,W
0685C:  ADDLW  10
0685E:  MOVWF  FE9
06860:  MOVLW  03
06862:  ADDWFC 03,W
06864:  MOVWF  FEA
06866:  MOVF   FEF,W
06868:  SUBLW  0F
0686A:  BNZ   68AA
....................       printf("A%u.txt=\"Secando\"",i+1); 
0686C:  MOVLW  01
0686E:  ADDWF  x5C,W
06870:  MOVLB  6
06872:  MOVWF  xB0
06874:  MOVLW  41
06876:  BTFSS  F9E.4
06878:  BRA    6876
0687A:  MOVWF  FAD
0687C:  MOVFF  6B0,6B5
06880:  MOVLW  1B
06882:  MOVWF  xB6
06884:  MOVLB  0
06886:  CALL   5A18
0688A:  MOVLW  07
0688C:  MOVWF  FF6
0688E:  MOVLW  05
06890:  MOVWF  FF7
06892:  MOVLW  00
06894:  MOVWF  FF8
06896:  MOVLW  0E
06898:  MOVLB  6
0689A:  MOVWF  xB5
0689C:  MOVLB  0
0689E:  CALL   5994
....................       SendDataDisplay(); 
068A2:  CALL   402C
....................    }else if(ACiclos[i]==16){ 
068A6:  BRA    68F8
068A8:  MOVLB  2
068AA:  CLRF   03
068AC:  MOVF   x5C,W
068AE:  ADDLW  10
068B0:  MOVWF  FE9
068B2:  MOVLW  03
068B4:  ADDWFC 03,W
068B6:  MOVWF  FEA
068B8:  MOVF   FEF,W
068BA:  SUBLW  10
068BC:  BNZ   68FA
....................       printf("A%u.txt=\"Esterilizando\"",i+1); 
068BE:  MOVLW  01
068C0:  ADDWF  x5C,W
068C2:  MOVLB  6
068C4:  MOVWF  xB0
068C6:  MOVLW  41
068C8:  BTFSS  F9E.4
068CA:  BRA    68C8
068CC:  MOVWF  FAD
068CE:  MOVFF  6B0,6B5
068D2:  MOVLW  1B
068D4:  MOVWF  xB6
068D6:  MOVLB  0
068D8:  CALL   5A18
068DC:  MOVLW  19
068DE:  MOVWF  FF6
068E0:  MOVLW  05
068E2:  MOVWF  FF7
068E4:  MOVLW  00
068E6:  MOVWF  FF8
068E8:  MOVLW  14
068EA:  MOVLB  6
068EC:  MOVWF  xB5
068EE:  MOVLB  0
068F0:  CALL   5994
....................       SendDataDisplay(); 
068F4:  CALL   402C
068F8:  MOVLB  2
....................    } 
.................... } 
068FA:  MOVLB  0
068FC:  GOTO   C318 (RETURN)
....................  
.................... void graficaCurva(int16 tGrafica){ 
....................    if(tiempos2>=tGrafica){ 
*
0526E:  MOVLB  6
05270:  MOVF   xB1,W
05272:  MOVLB  2
05274:  SUBWF  x6F,W
05276:  BNC   528E
05278:  BNZ   5284
0527A:  MOVLB  6
0527C:  MOVF   xB0,W
0527E:  MOVLB  2
05280:  SUBWF  x6E,W
05282:  BNC   528E
....................       Grafica=1; 
05284:  MOVLB  1
05286:  BSF    x04.4
....................       tiempos2=0; 
05288:  MOVLB  2
0528A:  CLRF   x6F
0528C:  CLRF   x6E
....................    } 
.................... } 
0528E:  MOVLB  0
05290:  GOTO   7F9A (RETURN)
....................  
.................... void muestreo(int16 tmuestreo){ 
....................    if(tiempos3>=tmuestreo){ 
*
05694:  MOVLB  6
05696:  MOVF   xB1,W
05698:  MOVLB  2
0569A:  SUBWF  x71,W
0569C:  BNC   573A
0569E:  BNZ   56AA
056A0:  MOVLB  6
056A2:  MOVF   xB0,W
056A4:  MOVLB  2
056A6:  SUBWF  x70,W
056A8:  BNC   573A
....................       Temperatura=LeerPt100(0,MediaMovil); 
056AA:  MOVLB  6
056AC:  CLRF   xB2
056AE:  MOVFF  1F5,6B3
056B2:  MOVLB  0
056B4:  CALL   41B8
056B8:  MOVFF  03,23C
056BC:  MOVFF  02,23B
056C0:  MOVFF  01,23A
056C4:  MOVFF  00,239
....................       Temperatura2=LeerPt100(1,MediaMovil); 
056C8:  MOVLW  01
056CA:  MOVLB  6
056CC:  MOVWF  xB2
056CE:  MOVFF  1F5,6B3
056D2:  MOVLB  0
056D4:  CALL   41B8
056D8:  MOVFF  03,240
056DC:  MOVFF  02,23F
056E0:  MOVFF  01,23E
056E4:  MOVFF  00,23D
....................       PresionCamara=Leer_Sensor_Presion_Camara(10); 
056E8:  MOVLW  0A
056EA:  MOVLB  6
056EC:  MOVWF  xB2
056EE:  MOVLB  0
056F0:  BRA    5294
056F2:  MOVFF  03,6C5
056F6:  MOVFF  02,6C4
056FA:  MOVFF  01,6C3
056FE:  MOVFF  00,6C2
05702:  CALL   4C8A
05706:  MOVFF  02,279
0570A:  MOVFF  01,278
....................       PresionPreCamara=Leer_Sensor_Presion_PreCamara(10); 
0570E:  MOVLW  0A
05710:  MOVLB  6
05712:  MOVWF  xB2
05714:  MOVLB  0
05716:  BRA    5494
05718:  MOVFF  03,6C5
0571C:  MOVFF  02,6C4
05720:  MOVFF  01,6C3
05724:  MOVFF  00,6C2
05728:  CALL   4C8A
0572C:  MOVFF  02,27B
05730:  MOVFF  01,27A
....................       tiempos3=0; 
05734:  MOVLB  2
05736:  CLRF   x71
05738:  CLRF   x70
....................    } 
.................... } 
0573A:  MOVLB  0
0573C:  GOTO   7FA8 (RETURN)
....................  
.................... void monitoreaAgua(){ 
....................    if(LOWB){ 
05740:  BSF    F93.5
05742:  BTFSC  F81.5
05744:  BRA    5758
....................       SensadoNivelR=ON; 
05746:  MOVLB  1
05748:  BSF    x04.1
....................       if(TiempoSensadoNivelR>2){ 
0574A:  MOVF   xF9,W
0574C:  SUBLW  02
0574E:  BC    5754
....................          SensadoNivelR=OFF; 
05750:  BCF    x04.1
....................          ReservorioLleno=ON; 
05752:  BSF    x04.0
....................       } 
....................    }else{ 
05754:  BRA    5760
05756:  MOVLB  0
....................       SensadoNivelR=OFF; 
05758:  MOVLB  1
0575A:  BCF    x04.1
....................       TiempoSensadoNivelR=0; 
0575C:  CLRF   xF9
....................       ReservorioLleno=OFF; 
0575E:  BCF    x04.0
....................    }  
.................... } 
05760:  MOVLB  0
05762:  GOTO   7FAC (RETURN)
....................  
.................... void monitoreaStop(){ 
....................       if(!STOP && !IniciaCiclo && !PruebaEstados){ 
*
05826:  BSF    F93.0
05828:  BTFSS  F81.0
0582A:  BRA    5890
0582C:  BTFSC  xFD.6
0582E:  BRA    5890
05830:  BTFSC  xFF.0
05832:  BRA    5890
....................          if(!disp_Stop){ 
05834:  MOVLB  1
05836:  BTFSC  x04.5
05838:  BRA    5842
....................             disp_Stop=1;Menu=255; 
0583A:  BSF    x04.5
0583C:  MOVLW  FF
0583E:  MOVLB  2
05840:  MOVWF  x59
....................          } 
....................          codigoAlarma=200; 
05842:  MOVLW  C8
05844:  MOVLB  2
05846:  MOVWF  x91
....................          Controlando=0; 
05848:  CLRF   x52
....................          Desfogue=ON; 
0584A:  MOVLB  0
0584C:  BSF    xF8.0
....................          Paso=OFF; 
0584E:  BCF    xF7.6
....................          //Suministro_off; 
....................          if(PresionCamara<Atmosferica) 
05850:  MOVLB  2
05852:  MOVF   x79,F
05854:  BNZ   5862
05856:  MOVF   xA2,W
05858:  SUBWF  x78,W
0585A:  BC    5862
....................             Aire=ON; 
0585C:  MOVLB  0
0585E:  BSF    xF8.1
....................          else 
05860:  BRA    5866
....................             Aire=ON; 
05862:  MOVLB  0
05864:  BSF    xF8.1
....................          outVacio=OFF;    
05866:  BCF    xF7.7
....................          aguaEnfriador=OFF; 
05868:  BCF    xF7.1
....................          bombaVacio=OFF; 
0586A:  BCF    xF7.2
....................          DesfogueSuave=OFF; 
0586C:  BCF    xFE.3
....................          printf("page Emergencia"); 
0586E:  MOVLW  2E
05870:  MOVWF  FF6
05872:  MOVLW  05
05874:  MOVWF  FF7
05876:  MOVLW  00
05878:  MOVWF  FF8
0587A:  CALL   3FFA
....................          SendDataDisplay(); 
0587E:  CALL   402C
....................          ActivaAlarma(1); 
05882:  MOVLW  01
05884:  MOVLB  6
05886:  MOVWF  xB0
05888:  MOVLB  0
0588A:  RCALL  5766
....................          BorraBuffer(); 
0588C:  BRA    57FA
....................       }else{ 
0588E:  BRA    5898
....................          if(disp_Stop){ 
05890:  MOVLB  1
05892:  BTFSS  x04.5
05894:  BRA    5898
....................             reset_cpu(); 
05896:  RESET
05898:  MOVLB  0
....................          } 
....................       }           
.................... } 
0589A:  GOTO   7FB0 (RETURN)
....................  
.................... void cierraPuertaS(){// Aadir logica de puertas 
....................    suministroAire=ON; 
*
05978:  BSF    xF7.0
....................    if(!BLOQUEOS){ 
0597A:  BSF    F93.6
0597C:  BTFSS  F81.6
0597E:  BRA    5990
....................       cilindroSucio=OFF; 
05980:  BCF    xF8.2
....................       if(DOORS){ 
05982:  BSF    F93.3
05984:  BTFSC  F81.3
05986:  BRA    598C
....................          empaqueSucio=ON; 
05988:  BSF    xF7.4
....................          //cerroSucio=ON; 
....................       }else{ 
0598A:  BRA    598E
....................          empaqueSucio=OFF; 
0598C:  BCF    xF7.4
....................       } 
....................    }else{ 
0598E:  BRA    5992
....................       cilindroSucio=ON; 
05990:  BSF    xF8.2
....................    } 
.................... } 
05992:  RETLW  00
....................  
.................... void abrePuertaS(){ 
....................    suministroAire=ON; 
*
06C02:  BSF    xF7.0
....................    if(PresionCamara<=Atmosferica+2 && PresionCamara>Atmosferica-10){ 
06C04:  MOVLW  02
06C06:  MOVLB  2
06C08:  ADDWF  xA2,W
06C0A:  MOVF   x79,F
06C0C:  BNZ   6C2E
06C0E:  SUBWF  x78,W
06C10:  BZ    6C14
06C12:  BC    6C2E
06C14:  MOVLW  0A
06C16:  SUBWF  xA2,W
06C18:  MOVF   x79,F
06C1A:  BNZ   6C22
06C1C:  SUBWF  x78,W
06C1E:  BZ    6C2E
06C20:  BNC   6C2E
....................       empaqueSucio=OFF; 
06C22:  MOVLB  0
06C24:  BCF    xF7.4
....................       cilindroSucio=ON; 
06C26:  BSF    xF8.2
....................       cerroSucio=OFF; 
06C28:  BCF    xFA.3
....................       seguroValvula=ON; 
06C2A:  BSF    xF8.5
06C2C:  MOVLB  2
....................    } 
.................... } 
06C2E:  MOVLB  0
06C30:  RETLW  00
....................  
.................... void cierraPuertaL(){// Aadir logica de puertas 
....................    suministroAire=ON; 
*
0589E:  BSF    xF7.0
....................    if(!BLOQUEOL){ 
058A0:  BSF    F93.7
058A2:  BTFSS  F81.7
058A4:  BRA    58B6
....................       cilindroLimpio=OFF; 
058A6:  BCF    xF8.3
....................       if(DOORL){ 
058A8:  BSF    F93.4
058AA:  BTFSC  F81.4
058AC:  BRA    58B2
....................          empaqueLimpio=ON; 
058AE:  BSF    xF7.3
....................          //cerroLimpio=ON; 
....................       }else{ 
058B0:  BRA    58B4
....................          empaqueLimpio=OFF; 
058B2:  BCF    xF7.3
....................       } 
....................    }else{ 
058B4:  BRA    58B8
....................       cilindroLimpio=ON; 
058B6:  BSF    xF8.3
....................    } 
.................... } 
058B8:  RETLW  00
....................  
.................... void abrePuertaL(){ 
....................    suministroAire=ON; 
058BA:  BSF    xF7.0
....................    if(PresionCamara<=Atmosferica+2 && PresionCamara>Atmosferica-10){ 
058BC:  MOVLW  02
058BE:  MOVLB  2
058C0:  ADDWF  xA2,W
058C2:  MOVF   x79,F
058C4:  BNZ   58E6
058C6:  SUBWF  x78,W
058C8:  BZ    58CC
058CA:  BC    58E6
058CC:  MOVLW  0A
058CE:  SUBWF  xA2,W
058D0:  MOVF   x79,F
058D2:  BNZ   58DA
058D4:  SUBWF  x78,W
058D6:  BZ    58E6
058D8:  BNC   58E6
....................       empaqueLimpio=OFF; 
058DA:  MOVLB  0
058DC:  BCF    xF7.3
....................       cilindroLimpio=ON; 
058DE:  BSF    xF8.3
....................       cerroLimpio=OFF; 
058E0:  BCF    xFA.4
....................       seguroValvula=ON; 
058E2:  BSF    xF8.5
058E4:  MOVLB  2
....................    } 
.................... } 
058E6:  MOVLB  0
058E8:  RETLW  00
....................  
.................... void monitoreaPuertaLimpio(){ 
....................    if(pulsoSubirL) 
058EA:  BTFSS  xFA.6
058EC:  BRA    58F0
....................       cierraPuertaL(); 
058EE:  RCALL  589E
....................        
....................    if(subirPuertaLimpio==5){//Oprimio Subir Puerta Limpio 
058F0:  MOVLB  1
058F2:  MOVF   xFA,W
058F4:  SUBLW  05
058F6:  BNZ   5900
....................       //cierraPuertaL(); 
....................       pulsoSubirL=ON; 
058F8:  MOVLB  0
058FA:  BSF    xFA.6
....................    }else if(subirPuertaLimpio==10){//Solto Subir Puerta Limpio 
058FC:  BRA    5970
058FE:  MOVLB  1
05900:  MOVF   xFA,W
05902:  SUBLW  0A
05904:  BNZ   5920
....................       pulsoSubirL=OFF; 
05906:  MOVLB  0
05908:  BCF    xFA.6
....................       if(!DOORL && !EMPAQUEL) 
0590A:  BSF    F93.4
0590C:  BTFSS  F81.4
0590E:  BRA    591A
05910:  BSF    F93.2
05912:  BTFSS  F81.2
05914:  BRA    591A
....................          abrePuertaL(); 
05916:  RCALL  58BA
....................       else 
05918:  BRA    591C
....................          cierraPuertaL(); 
0591A:  RCALL  589E
....................    }else if(subirPuertaLimpio==15){//Oprimio Bajar Puerta Limpio 
0591C:  BRA    5970
0591E:  MOVLB  1
05920:  MOVF   xFA,W
05922:  SUBLW  0F
05924:  BNZ   5972
....................       pulsoSubirL=OFF; 
05926:  MOVLB  0
05928:  BCF    xFA.6
....................       if(Temperatura<Tapertura && Finalizo && cerroSucio) 
0592A:  MOVLB  6
0592C:  CLRF   xC3
0592E:  MOVFF  260,6C2
05932:  MOVLB  0
05934:  CALL   1F44
05938:  MOVFF  23C,6B7
0593C:  MOVFF  23B,6B6
05940:  MOVFF  23A,6B5
05944:  MOVFF  239,6B4
05948:  MOVFF  03,6BB
0594C:  MOVFF  02,6BA
05950:  MOVFF  01,6B9
05954:  MOVFF  00,6B8
05958:  CALL   25D6
0595C:  BNC   5970
0595E:  MOVLB  1
05960:  BTFSC  x00.7
05962:  BRA    5968
05964:  MOVLB  0
05966:  BRA    5970
05968:  MOVLB  0
0596A:  BTFSS  xFA.3
0596C:  BRA    5970
....................          abrePuertaL(); 
0596E:  RCALL  58BA
05970:  MOVLB  1
....................    } 
.................... } 
05972:  MOVLB  0
05974:  GOTO   7FC4 (RETURN)
.................... /* 
.................... void salidas(int8 valor){ 
....................    if(valor==0){ 
....................       output_bit(PIN_D0,0); 
....................       output_bit(PIN_D1,0); 
....................       output_bit(PIN_C5,0); 
....................       output_bit(PIN_D3,0); 
....................       output_bit(PIN_D2,0); 
....................       delay_ms(50); 
....................    }else if(valor==1){ 
....................       output_bit(PIN_D0,1); 
....................       output_bit(PIN_D1,0); 
....................       output_bit(PIN_C5,0); 
....................       output_bit(PIN_D3,0); 
....................       output_bit(PIN_D2,0); 
....................       delay_ms(50); 
....................    }else if(valor==2){ 
....................       output_bit(PIN_D0,0); 
....................       output_bit(PIN_D1,1); 
....................       output_bit(PIN_C5,0); 
....................       output_bit(PIN_D3,0); 
....................       output_bit(PIN_D2,0); 
....................       delay_ms(50); 
....................    }else if(valor==3){ 
....................       output_bit(PIN_D0,1); 
....................       output_bit(PIN_D1,1); 
....................       output_bit(PIN_C5,0); 
....................       output_bit(PIN_D3,0); 
....................       output_bit(PIN_D2,0); 
....................       delay_ms(50); 
....................    }else if(valor==4){ 
....................       output_bit(PIN_D0,0); 
....................       output_bit(PIN_D1,0); 
....................       output_bit(PIN_C5,1); 
....................       output_bit(PIN_D3,0); 
....................       output_bit(PIN_D2,0); 
....................       delay_ms(50); 
....................    }else if(valor==5){ 
....................       output_bit(PIN_D0,1); 
....................       output_bit(PIN_D1,0); 
....................       output_bit(PIN_C5,1); 
....................       output_bit(PIN_D3,0); 
....................       output_bit(PIN_D2,0); 
....................       delay_ms(50); 
....................    }else if(valor==6){ 
....................       output_bit(PIN_D0,0); 
....................       output_bit(PIN_D1,1); 
....................       output_bit(PIN_C5,1); 
....................       output_bit(PIN_D3,0); 
....................       output_bit(PIN_D2,0); 
....................       delay_ms(50); 
....................    }else if(valor==7){ 
....................       output_bit(PIN_D0,1); 
....................       output_bit(PIN_D1,1); 
....................       output_bit(PIN_C5,1); 
....................       output_bit(PIN_D3,0); 
....................       output_bit(PIN_D2,0); 
....................       delay_ms(50); 
....................    }else if(valor==8){ 
....................       output_bit(PIN_D0,0); 
....................       output_bit(PIN_D1,0); 
....................       output_bit(PIN_C5,0); 
....................       output_bit(PIN_D3,1); 
....................       output_bit(PIN_D2,0); 
....................       delay_ms(50); 
....................    }else if(valor==9){ 
....................       output_bit(PIN_D0,1); 
....................       output_bit(PIN_D1,0); 
....................       output_bit(PIN_C5,0); 
....................       output_bit(PIN_D3,1); 
....................       output_bit(PIN_D2,0); 
....................       delay_ms(50); 
....................    }else if(valor==10){ 
....................       output_bit(PIN_D0,0); 
....................       output_bit(PIN_D1,1); 
....................       output_bit(PIN_C5,0); 
....................       output_bit(PIN_D3,1); 
....................       output_bit(PIN_D2,0); 
....................       delay_ms(50); 
....................    }else if(valor==11){ 
....................       output_bit(PIN_D0,1); 
....................       output_bit(PIN_D1,1); 
....................       output_bit(PIN_C5,0); 
....................       output_bit(PIN_D3,1); 
....................       output_bit(PIN_D2,0); 
....................       delay_ms(50); 
....................    }else if(valor==12){ 
....................       output_bit(PIN_D0,0); 
....................       output_bit(PIN_D1,0); 
....................       output_bit(PIN_C5,1); 
....................       output_bit(PIN_D3,1); 
....................       output_bit(PIN_D2,0); 
....................       delay_ms(50); 
....................    }else if(valor==13){ 
....................       output_bit(PIN_D0,1); 
....................       output_bit(PIN_D1,0); 
....................       output_bit(PIN_C5,1); 
....................       output_bit(PIN_D3,1); 
....................       output_bit(PIN_D2,0); 
....................       delay_ms(50); 
....................    }else if(valor==14){ 
....................       output_bit(PIN_D0,0); 
....................       output_bit(PIN_D1,1); 
....................       output_bit(PIN_C5,1); 
....................       output_bit(PIN_D3,1); 
....................       output_bit(PIN_D2,0); 
....................       delay_ms(50); 
....................    }else if(valor==15){ 
....................       output_bit(PIN_D0,1); 
....................       output_bit(PIN_D1,1); 
....................       output_bit(PIN_C5,1); 
....................       output_bit(PIN_D3,1); 
....................       output_bit(PIN_D2,0); 
....................       delay_ms(50); 
....................    }else if(valor==16){ 
....................       output_bit(PIN_D0,0); 
....................       output_bit(PIN_D1,0); 
....................       output_bit(PIN_C5,0); 
....................       output_bit(PIN_D3,0); 
....................       output_bit(PIN_D2,1); 
....................       delay_ms(50); 
....................    }else if(valor==17){ 
....................       output_bit(PIN_D0,1); 
....................       output_bit(PIN_D1,0); 
....................       output_bit(PIN_C5,0); 
....................       output_bit(PIN_D3,0); 
....................       output_bit(PIN_D2,1); 
....................       delay_ms(50); 
....................    }else if(valor==18){ 
....................       output_bit(PIN_D0,0); 
....................       output_bit(PIN_D1,1); 
....................       output_bit(PIN_C5,0); 
....................       output_bit(PIN_D3,0); 
....................       output_bit(PIN_D2,1); 
....................       delay_ms(50); 
....................    }else if(valor==19){ 
....................       output_bit(PIN_D0,1); 
....................       output_bit(PIN_D1,1); 
....................       output_bit(PIN_C5,0); 
....................       output_bit(PIN_D3,0); 
....................       output_bit(PIN_D2,1); 
....................       delay_ms(50); 
....................    }else if(valor==20){ 
....................       output_bit(PIN_D0,0); 
....................       output_bit(PIN_D1,0); 
....................       output_bit(PIN_C5,1); 
....................       output_bit(PIN_D3,0); 
....................       output_bit(PIN_D2,1); 
....................       delay_ms(50); 
....................    }else if(valor==21){ 
....................       output_bit(PIN_D0,1); 
....................       output_bit(PIN_D1,0); 
....................       output_bit(PIN_C5,1); 
....................       output_bit(PIN_D3,0); 
....................       output_bit(PIN_D2,1); 
....................       delay_ms(50); 
....................    }else if(valor==22){ 
....................       output_bit(PIN_D0,0); 
....................       output_bit(PIN_D1,1); 
....................       output_bit(PIN_C5,1); 
....................       output_bit(PIN_D3,0); 
....................       output_bit(PIN_D2,1); 
....................       delay_ms(50); 
....................    }else if(valor==23){ 
....................       output_bit(PIN_D0,1); 
....................       output_bit(PIN_D1,1); 
....................       output_bit(PIN_C5,1); 
....................       output_bit(PIN_D3,0); 
....................       output_bit(PIN_D2,1); 
....................       delay_ms(50); 
....................    }else if(valor==24){ 
....................       output_bit(PIN_D0,0); 
....................       output_bit(PIN_D1,0); 
....................       output_bit(PIN_C5,0); 
....................       output_bit(PIN_D3,1); 
....................       output_bit(PIN_D2,1); 
....................       delay_ms(50); 
....................    }else if(valor==25){ 
....................       output_bit(PIN_D0,1); 
....................       output_bit(PIN_D1,0); 
....................       output_bit(PIN_C5,0); 
....................       output_bit(PIN_D3,1); 
....................       output_bit(PIN_D2,1); 
....................       delay_ms(50); 
....................    }else if(valor==26){ 
....................       output_bit(PIN_D0,0); 
....................       output_bit(PIN_D1,1); 
....................       output_bit(PIN_C5,0); 
....................       output_bit(PIN_D3,1); 
....................       output_bit(PIN_D2,1); 
....................       delay_ms(50); 
....................    }else if(valor==27){ 
....................       output_bit(PIN_D0,1); 
....................       output_bit(PIN_D1,1); 
....................       output_bit(PIN_C5,0); 
....................       output_bit(PIN_D3,1); 
....................       output_bit(PIN_D2,1); 
....................       delay_ms(50); 
....................    }else if(valor==28){ 
....................       output_bit(PIN_D0,0); 
....................       output_bit(PIN_D1,0); 
....................       output_bit(PIN_C5,1); 
....................       output_bit(PIN_D3,1); 
....................       output_bit(PIN_D2,1); 
....................       delay_ms(50); 
....................    }else if(valor==29){ 
....................       output_bit(PIN_D0,1); 
....................       output_bit(PIN_D1,0); 
....................       output_bit(PIN_C5,1); 
....................       output_bit(PIN_D3,1); 
....................       output_bit(PIN_D2,1); 
....................       delay_ms(50); 
....................    }else if(valor==30){ 
....................       output_bit(PIN_D0,0); 
....................       output_bit(PIN_D1,1); 
....................       output_bit(PIN_C5,1); 
....................       output_bit(PIN_D3,1); 
....................       output_bit(PIN_D2,1); 
....................       delay_ms(50); 
....................    }else if(valor==31){ 
....................       output_bit(PIN_D0,1); 
....................       output_bit(PIN_D1,1); 
....................       output_bit(PIN_C5,1); 
....................       output_bit(PIN_D3,1); 
....................       output_bit(PIN_D2,1); 
....................       delay_ms(50); 
....................    } 
.................... } 
....................  
.................... void codificaSalidas(){ 
....................    if(suministroAire) 
....................       salidas(1); 
....................    else    
....................       salidas(2);  
....................     
....................    if(aguaEnfriador) 
....................       salidas(3); 
....................    else    
....................       salidas(4);  
....................     
....................    if(bombaVacio) 
....................       salidas(5); 
....................    else    
....................       salidas(6);  
....................     
....................    if(empaqueLimpio) 
....................       salidas(7); 
....................    else    
....................       salidas(8); 
....................        
....................    if(empaqueSucio) 
....................       salidas(9); 
....................    else    
....................       salidas(10);    
....................     
....................    if(cilindroSucio) 
....................       salidas(11); 
....................    else    
....................       salidas(12); 
....................     
....................    if(cilindroLimpio) 
....................       salidas(13); 
....................    else    
....................       salidas(14); 
....................        
....................    if(SuministroVapor) 
....................       salidas(15); 
....................    else    
....................       salidas(16);    
....................        
....................    if(Paso) 
....................       salidas(17); 
....................    else    
....................       salidas(18);    
....................        
....................    if(outVacio) 
....................       salidas(19); 
....................    else    
....................       salidas(20);    
....................        
....................    if(Desfogue) 
....................       salidas(21); 
....................    else    
....................       salidas(22);       
....................        
....................    if(Aire) 
....................       salidas(23); 
....................    else    
....................       salidas(24);        
.................... } 
.................... */ 
....................  
.................... void ApagaSalidas(){ 
....................     
....................    Controlando=0; 
*
04062:  MOVLB  2
04064:  CLRF   x52
.................... } 
04066:  MOVLB  0
04068:  RETLW  00
....................  
....................  
.................... #int_rda HIGH 
.................... void serial_rx_isr(){ 
....................    Dato2=fgetc(); 
*
0053E:  BTFSS  F9E.5
00540:  BRA    053E
00542:  MOVFF  FAE,257
00546:  MOVLB  2
....................    if(Dato2==0x65){//Inicio Comunicacion 
00548:  MOVF   x57,W
0054A:  SUBLW  65
0054C:  BNZ   0554
....................       Inicio=1; 
0054E:  MOVLW  01
00550:  MOVWF  x55
....................       RX_Wr_Index =0; 
00552:  CLRF   46
....................    } 
....................     
....................    if(Inicio==1){ 
00554:  DECFSZ x55,W
00556:  BRA    056C
....................       Rx_Buffer2[RX_Wr_Index] = Dato2; 
00558:  CLRF   03
0055A:  MOVF   46,W
0055C:  ADDLW  3B
0055E:  MOVWF  FE9
00560:  MOVLW  00
00562:  ADDWFC 03,W
00564:  MOVWF  FEA
00566:  MOVFF  257,FEF
....................       RX_Wr_Index++; 
0056A:  INCF   46,F
....................    } 
....................    if(RX_Wr_Index >= RX_BUFFER_SIZE){ 
0056C:  MOVF   46,W
0056E:  SUBLW  09
00570:  BC    0576
....................       RX_Wr_Index =0; 
00572:  CLRF   46
....................       Inicio=0; 
00574:  CLRF   x55
....................    } 
....................  
....................    if(RX_Wr_Index==0){ 
00576:  MOVF   46,F
00578:  BNZ   059A
....................       if(Rx_Buffer2[0]==0x65 && Rx_Buffer2[1]==0xff && Rx_Buffer2[2]==0xff && Rx_Buffer2[8]==0x00 && Rx_Buffer2[9]==0xff ){ 
0057A:  MOVF   3B,W
0057C:  SUBLW  65
0057E:  BNZ   0596
00580:  INCFSZ 3C,W
00582:  BRA    0596
00584:  INCFSZ 3D,W
00586:  BRA    0596
00588:  MOVF   43,F
0058A:  BNZ   0596
0058C:  INCFSZ 44,W
0058E:  BRA    0596
....................          Dato_Exitoso=5; 
00590:  MOVLW  05
00592:  MOVWF  x56
....................       }else{ 
00594:  BRA    059A
....................          Dato_Exitoso=10; 
00596:  MOVLW  0A
00598:  MOVWF  x56
....................       } 
....................    } 
.................... } 
....................  
0059A:  BCF    F9E.5
0059C:  MOVLB  0
0059E:  GOTO   00FE
.................... #int_TIMER1 
.................... void temp1s(void){ 
....................    set_timer1(40536); // Se repite cada 5ms 
005A2:  MOVLW  9E
005A4:  MOVWF  FCF
005A6:  MOVLW  58
005A8:  MOVWF  FCE
....................    tiempos++; 
005AA:  MOVLB  2
005AC:  INCF   x6C,F
005AE:  BTFSC  FD8.2
005B0:  INCF   x6D,F
....................    tiempos2++; 
005B2:  INCF   x6E,F
005B4:  BTFSC  FD8.2
005B6:  INCF   x6F,F
....................    tiempos3++; 
005B8:  INCF   x70,F
005BA:  BTFSC  FD8.2
005BC:  INCF   x71,F
....................    tiempoctrl++; 
005BE:  INCF   x72,F
005C0:  BTFSC  FD8.2
005C2:  INCF   x73,F
....................     
....................    if(flagAlarma) 
005C4:  MOVLB  1
005C6:  BTFSS  x00.4
005C8:  BRA    05D4
....................       tbuzzer++; 
005CA:  MOVLB  2
005CC:  INCF   x94,F
005CE:  BTFSC  FD8.2
005D0:  INCF   x95,F
005D2:  MOVLB  1
....................        
....................    if(flagSilencio)    
005D4:  BTFSS  x00.6
005D6:  BRA    05E0
....................       tsilencio++; 
005D8:  MOVLB  2
005DA:  INCF   x96,F
005DC:  BTFSC  FD8.2
005DE:  INCF   x97,F
....................  
....................    if(tiempos>=200){  // 12000 para que incremente cada minuto, 200para que incremente cada segundo. 
005E0:  MOVLB  2
005E2:  MOVF   x6D,F
005E4:  BNZ   05EE
005E6:  MOVF   x6C,W
005E8:  SUBLW  C7
005EA:  BTFSC  FD8.0
005EC:  BRA    0746
....................       if(flagTC) 
005EE:  MOVLB  1
005F0:  BTFSS  x04.6
005F2:  BRA    05F8
....................          TiempoControl++; 
005F4:  MOVLB  2
005F6:  INCF   x8C,F
....................        
....................       tiemporecta++; 
005F8:  MOVLB  2
005FA:  INCF   x51,F
....................        
....................       if(IniciaCiclo && tiempoImpresion<CalculoImpresion){ 
005FC:  MOVLB  0
005FE:  BTFSS  xFD.6
00600:  BRA    0622
00602:  MOVLB  2
00604:  MOVF   x83,F
00606:  BTFSC  FD8.2
00608:  BRA    060E
0060A:  MOVLB  0
0060C:  BRA    0622
0060E:  MOVF   x54,W
00610:  SUBWF  x82,W
00612:  BTFSS  FD8.0
00614:  BRA    061A
00616:  MOVLB  0
00618:  BRA    0622
....................          tiempoImpresion++; 
0061A:  INCF   x82,F
0061C:  BTFSC  FD8.2
0061E:  INCF   x83,F
....................       }else if(tiempoImpresion>=CalculoImpresion){ 
00620:  BRA    0638
00622:  MOVLB  2
00624:  MOVF   x83,F
00626:  BNZ   062E
00628:  MOVF   x54,W
0062A:  SUBWF  x82,W
0062C:  BNC   0638
....................          flagImprime=1; 
0062E:  MOVLB  1
00630:  BSF    x04.7
....................          tiempoImpresion=0; 
00632:  MOVLB  2
00634:  CLRF   x83
00636:  CLRF   x82
....................       } 
....................        
....................       if(empaqueLimpio && !EMPAQUEL) 
00638:  MOVLB  0
0063A:  BTFSS  xF7.3
0063C:  BRA    064E
0063E:  BSF    F93.2
00640:  BTFSS  F81.2
00642:  BRA    064E
....................          tEmpaqueL++; 
00644:  MOVLB  2
00646:  INCF   x65,F
00648:  BTFSC  FD8.2
0064A:  INCF   x66,F
....................       else 
0064C:  BRA    0654
....................          tEmpaqueL=0; 
0064E:  MOVLB  2
00650:  CLRF   x66
00652:  CLRF   x65
....................        
....................       if(empaqueSucio && !EMPAQUES) 
00654:  MOVLB  0
00656:  BTFSS  xF7.4
00658:  BRA    066A
0065A:  BSF    F93.1
0065C:  BTFSS  F81.1
0065E:  BRA    066A
....................          tEmpaqueS++; 
00660:  MOVLB  2
00662:  INCF   x63,F
00664:  BTFSC  FD8.2
00666:  INCF   x64,F
....................       else 
00668:  BRA    0670
....................          tEmpaqueS=0; 
0066A:  MOVLB  2
0066C:  CLRF   x64
0066E:  CLRF   x63
....................        
....................       if(IniciaLlenado && !CalderinLleno) 
00670:  MOVLB  0
00672:  BTFSS  xFD.5
00674:  BRA    0684
00676:  BTFSC  xFE.4
00678:  BRA    0684
....................          TiempoLlenado++; 
0067A:  MOVLB  1
0067C:  INCF   x11,F
0067E:  BTFSC  FD8.2
00680:  INCF   x12,F
00682:  MOVLB  0
....................        
....................       if(SensadoNivel) 
00684:  BTFSS  xFE.1
00686:  BRA    0690
....................          TiempoSensadoNivel++; 
00688:  MOVLB  1
0068A:  INCF   x07,F
0068C:  BTFSC  FD8.2
0068E:  INCF   x08,F
....................           
....................       if(SensadoNivelR) 
00690:  MOVLB  1
00692:  BTFSS  x04.1
00694:  BRA    0698
....................          TiempoSensadoNivelR++;    
00696:  INCF   xF9,F
....................        
....................       if(guardaCiclo) 
00698:  MOVLB  0
0069A:  BTFSS  xFA.0
0069C:  BRA    06A8
....................          tguarda++; 
0069E:  MOVLB  1
006A0:  INCF   x0D,F
006A2:  BTFSC  FD8.2
006A4:  INCF   x0E,F
006A6:  MOVLB  0
....................        
....................       if(IniciaCiclo && !Esterilizando && DOORS && DOORL) 
006A8:  BTFSS  xFD.6
006AA:  BRA    06C6
006AC:  BTFSC  xFD.7
006AE:  BRA    06C6
006B0:  BSF    F93.3
006B2:  BTFSC  F81.3
006B4:  BRA    06C6
006B6:  BSF    F93.4
006B8:  BTFSC  F81.4
006BA:  BRA    06C6
....................          TiempoCiclo++; 
006BC:  MOVLB  1
006BE:  INCF   x05,F
006C0:  BTFSC  FD8.2
006C2:  INCF   x06,F
006C4:  MOVLB  0
....................        
....................       if(SensadoNivel) 
006C6:  BTFSS  xFE.1
006C8:  BRA    06D2
....................          TiempoSensadoNivel++; 
006CA:  MOVLB  1
006CC:  INCF   x07,F
006CE:  BTFSC  FD8.2
006D0:  INCF   x08,F
....................           
....................       if(SensadoNivelL) 
006D2:  MOVLB  1
006D4:  BTFSS  x02.6
006D6:  BRA    06DE
....................          tNivelBajo++; 
006D8:  INCF   x0F,F
006DA:  BTFSC  FD8.2
006DC:  INCF   x10,F
....................        
....................       if(IniciaVacio) 
006DE:  BTFSS  x01.7
006E0:  BRA    06EC
....................          tvacio++;          
006E2:  MOVLB  2
006E4:  INCF   x80,F
006E6:  BTFSC  FD8.2
006E8:  INCF   x81,F
006EA:  MOVLB  1
....................        
....................       if(IniciaVacio2) 
006EC:  BTFSS  x02.0
006EE:  BRA    06F8
....................          tbomba++; 
006F0:  MOVLB  2
006F2:  INCF   x7E,F
006F4:  BTFSC  FD8.2
006F6:  INCF   x7F,F
....................       
....................       tiempos=0;Lectura=1;tinicio++; 
006F8:  MOVLB  2
006FA:  CLRF   x6D
006FC:  CLRF   x6C
006FE:  MOVLB  1
00700:  BSF    x04.3
00702:  MOVLB  2
00704:  INCF   x76,F
00706:  BTFSC  FD8.2
00708:  INCF   x77,F
....................     
....................       if(Esterilizando && !Desfogando){                
0070A:  MOVLB  0
0070C:  BTFSS  xFD.7
0070E:  BRA    072A
00710:  BTFSC  xFE.2
00712:  BRA    072A
....................          if(sEst>0){ 
00714:  MOVLB  1
00716:  MOVF   x13,F
00718:  BZ    071E
....................             sEst--; 
0071A:  DECF   x13,F
....................          }else if(mEst>0){ 
0071C:  BRA    0728
0071E:  MOVF   x14,F
00720:  BZ    0728
....................             mEst--; 
00722:  DECF   x14,F
....................             sEst=59; 
00724:  MOVLW  3B
00726:  MOVWF  x13
00728:  MOVLB  0
....................          } 
....................       } 
....................       if(Secando){ 
0072A:  BTFSS  xFE.0
0072C:  BRA    0744
....................          if(sSec>0){ 
0072E:  MOVLB  1
00730:  MOVF   x15,F
00732:  BZ    0738
....................             sSec--; 
00734:  DECF   x15,F
....................          }else if(mSec>0){ 
00736:  BRA    0742
00738:  MOVF   x16,F
0073A:  BZ    0742
....................             mSec--; 
0073C:  DECF   x16,F
....................             sSec=59; 
0073E:  MOVLW  3B
00740:  MOVWF  x15
00742:  MOVLB  0
00744:  MOVLB  2
....................          } 
....................       } 
....................    } 
.................... } 
....................  
00746:  BCF    F9E.0
00748:  MOVLB  0
0074A:  GOTO   0068
.................... void main() 
.................... { 
*
077E0:  CLRF   FF8
077E2:  BCF    F9F.0
077E4:  BSF    F9F.5
077E6:  BSF    FD0.7
077E8:  BSF    07.7
077EA:  CLRF   FEA
077EC:  CLRF   FE9
077EE:  BSF    FB8.3
077F0:  MOVLW  08
077F2:  MOVWF  FAF
077F4:  MOVLW  02
077F6:  MOVWF  FB0
077F8:  MOVLW  A6
077FA:  MOVWF  FAC
077FC:  MOVLW  90
077FE:  MOVWF  FAB
07800:  CLRF   46
07802:  CLRF   xDC
07804:  CLRF   xDD
07806:  CLRF   xDE
07808:  BCF    xF7.0
0780A:  BCF    xF7.1
0780C:  BCF    xF7.2
0780E:  BCF    xF7.3
07810:  BCF    xF7.4
07812:  BCF    xF7.5
07814:  BCF    xF7.6
07816:  BCF    xF7.7
07818:  BCF    xF8.0
0781A:  BCF    xF8.1
0781C:  BCF    xF8.2
0781E:  BCF    xF8.3
07820:  BCF    xF8.4
07822:  BCF    xF8.5
07824:  BCF    xF8.6
07826:  BCF    xF8.7
07828:  BCF    xF9.0
0782A:  BCF    xF9.1
0782C:  BCF    xF9.2
0782E:  BCF    xF9.3
07830:  BCF    xF9.4
07832:  BCF    xF9.5
07834:  BCF    xF9.6
07836:  BCF    xF9.7
07838:  BCF    xFA.0
0783A:  BCF    xFA.1
0783C:  BCF    xFA.2
0783E:  BCF    xFA.3
07840:  BCF    xFA.4
07842:  BCF    xFA.5
07844:  BCF    xFA.6
07846:  MOVLW  02
07848:  MOVWF  xFC
0784A:  MOVLW  58
0784C:  MOVWF  xFB
0784E:  BCF    xFA.7
07850:  BCF    xFD.0
07852:  BCF    xFD.1
07854:  BCF    xFD.2
07856:  BCF    xFD.3
07858:  BCF    xFD.4
0785A:  BCF    xFD.5
0785C:  BCF    xFD.6
0785E:  BCF    xFD.7
07860:  BCF    xFE.0
07862:  BCF    xFE.1
07864:  BCF    xFE.2
07866:  BCF    xFE.3
07868:  BCF    xFE.4
0786A:  BCF    xFE.5
0786C:  BCF    xFE.6
0786E:  BCF    xFE.7
07870:  BCF    xFF.0
07872:  BCF    xFF.1
07874:  BCF    xFF.2
07876:  BCF    xFF.3
07878:  BCF    xFF.4
0787A:  BCF    xFF.5
0787C:  BCF    xFF.6
0787E:  BCF    xFF.7
07880:  MOVLB  1
07882:  BCF    x00.0
07884:  BCF    x00.1
07886:  BCF    x00.2
07888:  BCF    x00.3
0788A:  BCF    x00.4
0788C:  BCF    x00.5
0788E:  BCF    x00.6
07890:  BCF    x00.7
07892:  BCF    x01.0
07894:  BCF    x01.1
07896:  BCF    x01.2
07898:  BCF    x01.3
0789A:  BCF    x01.4
0789C:  BCF    x01.5
0789E:  BCF    x01.6
078A0:  BCF    x01.7
078A2:  BCF    x02.0
078A4:  BCF    x02.1
078A6:  BCF    x02.2
078A8:  BCF    x02.3
078AA:  BCF    x02.4
078AC:  BCF    x02.5
078AE:  BCF    x02.6
078B0:  BCF    x02.7
078B2:  BCF    x03.0
078B4:  BCF    x03.1
078B6:  BCF    x03.2
078B8:  BCF    x03.3
078BA:  BCF    x03.4
078BC:  BCF    x03.5
078BE:  BCF    x03.6
078C0:  BCF    x03.7
078C2:  BCF    x04.0
078C4:  BCF    x04.1
078C6:  CLRF   x06
078C8:  CLRF   x05
078CA:  CLRF   x08
078CC:  CLRF   x07
078CE:  CLRF   x0A
078D0:  CLRF   x09
078D2:  CLRF   x0C
078D4:  CLRF   x0B
078D6:  CLRF   x0E
078D8:  CLRF   x0D
078DA:  CLRF   x10
078DC:  CLRF   x0F
078DE:  CLRF   x12
078E0:  CLRF   x11
078E2:  CLRF   x13
078E4:  CLRF   x14
078E6:  CLRF   x15
078E8:  CLRF   x16
078EA:  CLRF   x17
078EC:  CLRF   x18
078EE:  CLRF   x19
078F0:  CLRF   x1A
078F2:  CLRF   xBE
078F4:  CLRF   xBD
078F6:  CLRF   xBC
078F8:  CLRF   xBB
078FA:  CLRF   xC2
078FC:  CLRF   xC1
078FE:  CLRF   xC0
07900:  CLRF   xBF
07902:  CLRF   xC6
07904:  CLRF   xC5
07906:  CLRF   xC4
07908:  CLRF   xC3
0790A:  MOVLW  4A
0790C:  MOVWF  xCA
0790E:  MOVLW  88
07910:  MOVWF  xC9
07912:  MOVLW  28
07914:  MOVWF  xC8
07916:  MOVLW  75
07918:  MOVWF  xC7
0791A:  CLRF   xCE
0791C:  MOVLW  80
0791E:  MOVWF  xCD
07920:  MOVLW  3B
07922:  MOVWF  xCC
07924:  MOVLW  8A
07926:  MOVWF  xCB
07928:  CLRF   xD2
0792A:  MOVLW  C0
0792C:  MOVWF  xD1
0792E:  MOVLW  41
07930:  MOVWF  xD0
07932:  MOVLW  8A
07934:  MOVWF  xCF
07936:  CLRF   xD6
07938:  MOVLW  C0
0793A:  MOVWF  xD5
0793C:  MOVLW  41
0793E:  MOVWF  xD4
07940:  MOVLW  8A
07942:  MOVWF  xD3
07944:  CLRF   xDA
07946:  MOVLW  80
07948:  MOVWF  xD9
0794A:  MOVLW  54
0794C:  MOVWF  xD8
0794E:  MOVLW  8B
07950:  MOVWF  xD7
07952:  CLRF   xDE
07954:  CLRF   xDD
07956:  CLRF   xDC
07958:  CLRF   xDB
0795A:  CLRF   xE2
0795C:  CLRF   xE1
0795E:  CLRF   xE0
07960:  CLRF   xDF
07962:  CLRF   xEE
07964:  CLRF   xED
07966:  CLRF   xEC
07968:  CLRF   xEB
0796A:  CLRF   xF2
0796C:  CLRF   xF1
0796E:  CLRF   xF0
07970:  CLRF   xEF
07972:  CLRF   xF3
07974:  CLRF   xF4
07976:  MOVLW  14
07978:  MOVWF  xF5
0797A:  CLRF   xF6
0797C:  CLRF   xF7
0797E:  CLRF   xF8
07980:  CLRF   xF9
07982:  CLRF   xFA
07984:  CLRF   xFB
07986:  CLRF   xFC
07988:  MOVLB  2
0798A:  CLRF   x00
0798C:  MOVLB  1
0798E:  CLRF   xFF
07990:  CLRF   xFE
07992:  CLRF   xFD
07994:  MOVLB  2
07996:  CLRF   x08
07998:  CLRF   x07
0799A:  MOVLW  20
0799C:  MOVWF  x06
0799E:  MOVLW  82
079A0:  MOVWF  x05
079A2:  CLRF   x0C
079A4:  CLRF   x0B
079A6:  CLRF   x0A
079A8:  CLRF   x09
079AA:  CLRF   x10
079AC:  CLRF   x0F
079AE:  CLRF   x0E
079B0:  CLRF   x0D
079B2:  CLRF   x14
079B4:  CLRF   x13
079B6:  CLRF   x12
079B8:  CLRF   x11
079BA:  CLRF   x18
079BC:  CLRF   x17
079BE:  CLRF   x16
079C0:  CLRF   x15
079C2:  CLRF   x1C
079C4:  CLRF   x1B
079C6:  CLRF   x1A
079C8:  CLRF   x19
079CA:  CLRF   x20
079CC:  CLRF   x1F
079CE:  MOVLW  48
079D0:  MOVWF  x1E
079D2:  MOVLW  83
079D4:  MOVWF  x1D
079D6:  CLRF   x24
079D8:  CLRF   x23
079DA:  MOVLW  20
079DC:  MOVWF  x22
079DE:  MOVLW  83
079E0:  MOVWF  x21
079E2:  CLRF   x28
079E4:  CLRF   x27
079E6:  CLRF   x26
079E8:  MOVLW  7F
079EA:  MOVWF  x25
079EC:  CLRF   x2C
079EE:  CLRF   x2B
079F0:  CLRF   x2A
079F2:  CLRF   x29
079F4:  CLRF   x30
079F6:  CLRF   x2F
079F8:  CLRF   x2E
079FA:  CLRF   x2D
079FC:  CLRF   x34
079FE:  CLRF   x33
07A00:  CLRF   x32
07A02:  CLRF   x31
07A04:  CLRF   x38
07A06:  CLRF   x37
07A08:  CLRF   x36
07A0A:  CLRF   x35
07A0C:  CLRF   x3C
07A0E:  CLRF   x3B
07A10:  CLRF   x3A
07A12:  CLRF   x39
07A14:  CLRF   x40
07A16:  CLRF   x3F
07A18:  CLRF   x3E
07A1A:  CLRF   x3D
07A1C:  MOVLW  E0
07A1E:  MOVWF  x44
07A20:  MOVLW  2D
07A22:  MOVWF  x43
07A24:  MOVLW  10
07A26:  MOVWF  x42
07A28:  MOVLW  75
07A2A:  MOVWF  x41
07A2C:  MOVLW  FF
07A2E:  MOVWF  x48
07A30:  MOVLW  21
07A32:  MOVWF  x47
07A34:  MOVLW  15
07A36:  MOVWF  x46
07A38:  MOVLW  80
07A3A:  MOVWF  x45
07A3C:  MOVLW  82
07A3E:  MOVWF  x4C
07A40:  MOVLW  12
07A42:  MOVWF  x4B
07A44:  MOVLW  F4
07A46:  MOVWF  x4A
07A48:  MOVLW  86
07A4A:  MOVWF  x49
07A4C:  CLRF   x4D
07A4E:  CLRF   x4E
07A50:  CLRF   x4F
07A52:  MOVLB  1
07A54:  BCF    x04.2
07A56:  BCF    x04.3
07A58:  BCF    x04.4
07A5A:  BCF    x04.5
07A5C:  BCF    x04.6
07A5E:  BCF    x04.7
07A60:  MOVLB  2
07A62:  CLRF   x50
07A64:  CLRF   x51
07A66:  CLRF   x52
07A68:  MOVLW  02
07A6A:  MOVWF  x53
07A6C:  CLRF   x54
07A6E:  MOVLW  01
07A70:  MOVWF  x55
07A72:  CLRF   x56
07A74:  CLRF   x57
07A76:  CLRF   x58
07A78:  CLRF   x59
07A7A:  CLRF   x5A
07A7C:  MOVLW  F0
07A7E:  MOVWF  x5B
07A80:  CLRF   x5C
07A82:  CLRF   x5D
07A84:  CLRF   x5E
07A86:  CLRF   x5F
07A88:  CLRF   x60
07A8A:  CLRF   x62
07A8C:  MOVLW  04
07A8E:  MOVWF  x61
07A90:  CLRF   x64
07A92:  CLRF   x63
07A94:  CLRF   x66
07A96:  CLRF   x65
07A98:  CLRF   x67
07A9A:  MOVLW  01
07A9C:  MOVWF  x68
07A9E:  MOVWF  x69
07AA0:  CLRF   x6A
07AA2:  CLRF   x6B
07AA4:  CLRF   x6D
07AA6:  CLRF   x6C
07AA8:  CLRF   x6F
07AAA:  CLRF   x6E
07AAC:  CLRF   x71
07AAE:  CLRF   x70
07AB0:  CLRF   x73
07AB2:  CLRF   x72
07AB4:  CLRF   x75
07AB6:  CLRF   x74
07AB8:  CLRF   x77
07ABA:  CLRF   x76
07ABC:  CLRF   x79
07ABE:  CLRF   x78
07AC0:  CLRF   x7B
07AC2:  CLRF   x7A
07AC4:  CLRF   x7D
07AC6:  CLRF   x7C
07AC8:  CLRF   x7F
07ACA:  CLRF   x7E
07ACC:  CLRF   x81
07ACE:  CLRF   x80
07AD0:  CLRF   x83
07AD2:  CLRF   x82
07AD4:  CLRF   x88
07AD6:  CLRF   x89
07AD8:  CLRF   x8A
07ADA:  CLRF   x8B
07ADC:  CLRF   x8C
07ADE:  CLRF   x8D
07AE0:  CLRF   x8E
07AE2:  CLRF   x8F
07AE4:  CLRF   x90
07AE6:  CLRF   x91
07AE8:  CLRF   x92
07AEA:  CLRF   x93
07AEC:  CLRF   x95
07AEE:  CLRF   x94
07AF0:  CLRF   x97
07AF2:  CLRF   x96
07AF4:  MOVLW  12
07AF6:  MOVWF  x98
07AF8:  MOVLW  09
07AFA:  MOVWF  x99
07AFC:  MOVLW  0D
07AFE:  MOVWF  x9A
07B00:  CLRF   x9B
07B02:  CLRF   x9C
07B04:  CLRF   x9D
07B06:  CLRF   x9E
07B08:  CLRF   x9F
07B0A:  CLRF   xA0
07B0C:  MOVLW  19
07B0E:  MOVWF  xA1
07B10:  MOVLW  4B
07B12:  MOVWF  xA2
07B14:  MOVLW  0A
07B16:  MOVWF  xA3
07B18:  CLRF   xA4
07B1A:  CLRF   xA5
07B1C:  CLRF   xA6
07B1E:  CLRF   xA7
07B20:  CLRF   xA8
07B22:  CLRF   xA9
07B24:  CLRF   xAA
07B26:  CLRF   xAB
07B28:  CLRF   xAC
07B2A:  CLRF   xAD
07B2C:  CLRF   xAE
07B2E:  CLRF   xAF
07B30:  CLRF   xB0
07B32:  CLRF   xB1
07B34:  CLRF   xB2
07B36:  CLRF   xB3
07B38:  CLRF   xB4
07B3A:  CLRF   xB5
07B3C:  MOVLB  3
07B3E:  CLRF   x17
07B40:  CLRF   x18
07B42:  CLRF   x19
07B44:  CLRF   x1A
07B46:  CLRF   x1B
07B48:  MOVF   FC1,W
07B4A:  ANDLW  C0
07B4C:  IORLW  0F
07B4E:  MOVWF  FC1
07B50:  MOVLW  07
07B52:  MOVWF  FB4
07B54:  CLRF   2A
07B56:  CLRF   2B
07B58:  MOVLB  0
07B5A:  CLRF   xDF
07B5C:  MOVLW  03
07B5E:  MOVWF  xE0
07B60:  MOVWF  xE1
07B62:  MOVLW  06
07B64:  MOVWF  xE2
07B66:  MOVLW  01
07B68:  MOVWF  xE3
07B6A:  MOVLW  04
07B6C:  MOVWF  xE4
07B6E:  MOVLW  06
07B70:  MOVWF  xE5
07B72:  MOVLW  02
07B74:  MOVWF  xE6
07B76:  MOVLW  05
07B78:  MOVWF  xE7
07B7A:  CLRF   xE8
07B7C:  MOVLW  03
07B7E:  MOVWF  xE9
07B80:  MOVLW  05
07B82:  MOVWF  xEA
07B84:  CLRF   xEB
07B86:  MOVLW  03
07B88:  MOVWF  xEC
07B8A:  MOVLW  04
07B8C:  MOVWF  xED
07B8E:  CLRF   xEE
07B90:  MOVLW  02
07B92:  MOVWF  xEF
07B94:  MOVLW  05
07B96:  MOVWF  xF0
07B98:  CLRF   xF1
07B9A:  MOVLW  03
07B9C:  MOVWF  xF2
07B9E:  MOVLW  06
07BA0:  MOVWF  xF3
07BA2:  MOVLW  01
07BA4:  MOVWF  xF4
07BA6:  MOVLW  04
07BA8:  MOVWF  xF5
07BAA:  MOVLW  06
07BAC:  MOVWF  xF6
07BAE:  MOVLB  1
07BB0:  CLRF   x1B
07BB2:  CLRF   x1C
07BB4:  CLRF   x1D
07BB6:  CLRF   x1E
07BB8:  CLRF   x1F
07BBA:  CLRF   x20
07BBC:  CLRF   x21
07BBE:  CLRF   x22
07BC0:  CLRF   x23
07BC2:  CLRF   x24
07BC4:  CLRF   x25
07BC6:  CLRF   x26
07BC8:  CLRF   x27
07BCA:  CLRF   x28
07BCC:  CLRF   x29
07BCE:  CLRF   x2A
07BD0:  CLRF   x2B
07BD2:  CLRF   x2C
07BD4:  CLRF   x2D
07BD6:  CLRF   x2E
07BD8:  CLRF   x2F
07BDA:  CLRF   x30
07BDC:  CLRF   x31
07BDE:  CLRF   x32
07BE0:  CLRF   x33
07BE2:  CLRF   x34
07BE4:  CLRF   x35
07BE6:  CLRF   x36
07BE8:  CLRF   x37
07BEA:  CLRF   x38
07BEC:  CLRF   x39
07BEE:  CLRF   x3A
07BF0:  CLRF   x3B
07BF2:  CLRF   x3C
07BF4:  CLRF   x3D
07BF6:  CLRF   x3E
07BF8:  CLRF   x3F
07BFA:  CLRF   x40
07BFC:  CLRF   x41
07BFE:  CLRF   x42
07C00:  CLRF   x43
07C02:  CLRF   x44
07C04:  CLRF   x45
07C06:  CLRF   x46
07C08:  CLRF   x47
07C0A:  CLRF   x48
07C0C:  CLRF   x49
07C0E:  CLRF   x4A
07C10:  CLRF   x4B
07C12:  CLRF   x4C
07C14:  CLRF   x4D
07C16:  CLRF   x4E
07C18:  CLRF   x4F
07C1A:  CLRF   x50
07C1C:  CLRF   x51
07C1E:  CLRF   x52
07C20:  CLRF   x53
07C22:  CLRF   x54
07C24:  CLRF   x55
07C26:  CLRF   x56
07C28:  CLRF   x57
07C2A:  CLRF   x58
07C2C:  CLRF   x59
07C2E:  CLRF   x5A
07C30:  CLRF   x5B
07C32:  CLRF   x5C
07C34:  CLRF   x5D
07C36:  CLRF   x5E
07C38:  CLRF   x5F
07C3A:  CLRF   x60
07C3C:  CLRF   x61
07C3E:  CLRF   x62
07C40:  CLRF   x63
07C42:  CLRF   x64
07C44:  CLRF   x65
07C46:  CLRF   x66
07C48:  CLRF   x67
07C4A:  CLRF   x68
07C4C:  CLRF   x69
07C4E:  CLRF   x6A
07C50:  CLRF   x6B
07C52:  CLRF   x6C
07C54:  CLRF   x6D
07C56:  CLRF   x6E
07C58:  CLRF   x6F
07C5A:  CLRF   x70
07C5C:  CLRF   x71
07C5E:  CLRF   x72
07C60:  CLRF   x73
07C62:  CLRF   x74
07C64:  CLRF   x75
07C66:  CLRF   x76
07C68:  CLRF   x77
07C6A:  CLRF   x78
07C6C:  CLRF   x79
07C6E:  CLRF   x7A
07C70:  CLRF   x7B
07C72:  CLRF   x7C
07C74:  CLRF   x7D
07C76:  CLRF   x7E
07C78:  CLRF   x7F
07C7A:  CLRF   x80
07C7C:  CLRF   x81
07C7E:  CLRF   x82
07C80:  CLRF   x83
07C82:  CLRF   x84
07C84:  CLRF   x85
07C86:  CLRF   x86
07C88:  CLRF   x87
07C8A:  CLRF   x88
07C8C:  CLRF   x89
07C8E:  CLRF   x8A
07C90:  CLRF   x8B
07C92:  CLRF   x8C
07C94:  CLRF   x8D
07C96:  CLRF   x8E
07C98:  CLRF   x8F
07C9A:  CLRF   x90
07C9C:  CLRF   x91
07C9E:  CLRF   x92
07CA0:  CLRF   x93
07CA2:  CLRF   x94
07CA4:  CLRF   x95
07CA6:  CLRF   x96
07CA8:  CLRF   x97
07CAA:  CLRF   x98
07CAC:  CLRF   x99
07CAE:  CLRF   x9A
07CB0:  CLRF   x9B
07CB2:  CLRF   x9C
07CB4:  CLRF   x9D
07CB6:  CLRF   x9E
07CB8:  CLRF   x9F
07CBA:  CLRF   xA0
07CBC:  CLRF   xA1
07CBE:  CLRF   xA2
07CC0:  CLRF   xA3
07CC2:  CLRF   xA4
07CC4:  CLRF   xA5
07CC6:  CLRF   xA6
07CC8:  CLRF   xA7
07CCA:  CLRF   xA8
07CCC:  CLRF   xA9
07CCE:  CLRF   xAA
07CD0:  CLRF   xAB
07CD2:  CLRF   xAC
07CD4:  CLRF   xAD
07CD6:  CLRF   xAE
07CD8:  CLRF   xAF
07CDA:  CLRF   xB0
07CDC:  CLRF   xB1
07CDE:  CLRF   xB2
07CE0:  CLRF   xB3
07CE2:  CLRF   xB4
07CE4:  CLRF   xB5
07CE6:  CLRF   xB6
07CE8:  CLRF   xB7
07CEA:  CLRF   xB8
07CEC:  CLRF   xB9
07CEE:  CLRF   xBA
07CF0:  CLRF   xE3
07CF2:  CLRF   xE4
07CF4:  CLRF   xE5
07CF6:  CLRF   xE6
07CF8:  CLRF   xE7
07CFA:  CLRF   xE8
07CFC:  CLRF   xE9
07CFE:  CLRF   xEA
07D00:  MOVLB  2
07D02:  CLRF   x84
07D04:  CLRF   x85
07D06:  CLRF   x86
07D08:  CLRF   x87
07D0A:  MOVLB  3
07D0C:  CLRF   x1C
07D0E:  CLRF   x1D
07D10:  CLRF   x1E
07D12:  CLRF   x1F
....................    setup_timer_1(T1_INTERNAL|T1_DIV_BY_1); 
07D14:  MOVLW  85
07D16:  MOVWF  FCD
....................    enable_interrupts(INT_TIMER1); 
07D18:  BSF    F9D.0
....................    setup_adc(ADC_CLOCK_DIV_64); 
07D1A:  MOVF   FC0,W
07D1C:  ANDLW  C0
07D1E:  IORLW  06
07D20:  MOVWF  FC0
07D22:  BSF    FC0.7
07D24:  BSF    FC2.0
....................    setup_adc_ports(AN0_TO_AN5); 
07D26:  MOVF   FC1,W
07D28:  ANDLW  C0
07D2A:  IORLW  09
07D2C:  MOVWF  FC1
....................    port_b_pullups(true); 
07D2E:  BCF    FF1.7
....................    enable_interrupts(int_rda); 
07D30:  BSF    F9D.5
....................    setup_wdt(WDT_ON); 
07D32:  BSF    FD1.0
....................    enable_interrupts(global); 
07D34:  MOVLW  C0
07D36:  IORWF  FF2,F
....................    LeeEEPROM(); 
07D38:  MOVLB  0
07D3A:  GOTO   2650
....................    rtc_init(); 
07D3E:  GOTO   39EE
....................    delay_ms(1); 
07D42:  MOVLW  01
07D44:  MOVLB  6
07D46:  MOVWF  xC2
07D48:  MOVLB  0
07D4A:  CALL   1F7A
....................    LimitaValores(); 
07D4E:  GOTO   3A8E
....................    printf("page Bienvenida"); 
07D52:  MOVLW  4E
07D54:  MOVWF  FF6
07D56:  MOVLW  07
07D58:  MOVWF  FF7
07D5A:  MOVLW  00
07D5C:  MOVWF  FF8
07D5E:  CALL   3FFA
....................    SendDataDisplay(); 
07D62:  CALL   402C
....................    printf("bkcmd=0"); 
07D66:  MOVLW  5E
07D68:  MOVWF  FF6
07D6A:  MOVLW  07
07D6C:  MOVWF  FF7
07D6E:  MOVLW  00
07D70:  MOVWF  FF8
07D72:  CALL   3FFA
....................    SendDataDisplay(); 
07D76:  CALL   402C
....................    delay_ms(3500);  
07D7A:  MOVLW  0E
07D7C:  MOVLB  6
07D7E:  MOVWF  xB0
07D80:  MOVLW  FA
07D82:  MOVWF  xC2
07D84:  MOVLB  0
07D86:  CALL   1F7A
07D8A:  MOVLB  6
07D8C:  DECFSZ xB0,F
07D8E:  BRA    7D80
....................    printf("page Usuarios"); 
07D90:  MOVLW  66
07D92:  MOVWF  FF6
07D94:  MOVLW  07
07D96:  MOVWF  FF7
07D98:  MOVLW  00
07D9A:  MOVWF  FF8
07D9C:  MOVLB  0
07D9E:  CALL   3FFA
....................    SendDataDisplay(); 
07DA2:  CALL   402C
....................    ApagaSalidas(); 
07DA6:  CALL   4062
....................    AN=1023*(R8+R9); 
07DAA:  BCF    FD8.1
07DAC:  MOVFF  1D2,6C5
07DB0:  MOVFF  1D1,6C4
07DB4:  MOVFF  1D0,6C3
07DB8:  MOVFF  1CF,6C2
07DBC:  MOVFF  1D6,6C9
07DC0:  MOVFF  1D5,6C8
07DC4:  MOVFF  1D4,6C7
07DC8:  MOVFF  1D3,6C6
07DCC:  CALL   2100
07DD0:  MOVLB  6
07DD2:  CLRF   xC9
07DD4:  MOVLW  C0
07DD6:  MOVWF  xC8
07DD8:  MOVLW  7F
07DDA:  MOVWF  xC7
07DDC:  MOVLW  88
07DDE:  MOVWF  xC6
07DE0:  MOVFF  03,6CD
07DE4:  MOVFF  02,6CC
07DE8:  MOVFF  01,6CB
07DEC:  MOVFF  00,6CA
07DF0:  MOVLB  0
07DF2:  CALL   406A
07DF6:  MOVFF  03,1DE
07DFA:  MOVFF  02,1DD
07DFE:  MOVFF  01,1DC
07E02:  MOVFF  00,1DB
....................    //TiempoVacio=CantidadPulsos*360;  
....................    TiempoVacio=360;  
07E06:  MOVLW  01
07E08:  MOVWF  xFC
07E0A:  MOVLW  68
07E0C:  MOVWF  xFB
....................    Sensor[0].Gain=106.07; 
07E0E:  MOVLW  D7
07E10:  MOVLB  4
07E12:  MOVWF  x83
07E14:  MOVLW  23
07E16:  MOVWF  x82
07E18:  MOVLW  54
07E1A:  MOVWF  x81
07E1C:  MOVLW  85
07E1E:  MOVWF  x80
....................    Sensor[1].Gain=106.07; 
07E20:  MOVLW  D7
07E22:  MOVLB  5
07E24:  MOVWF  xE7
07E26:  MOVLW  23
07E28:  MOVWF  xE6
07E2A:  MOVLW  54
07E2C:  MOVWF  xE5
07E2E:  MOVLW  85
07E30:  MOVWF  xE4
....................    Imprime=10; 
07E32:  MOVLW  0A
07E34:  MOVLB  2
07E36:  MOVWF  xAD
....................    CalculoImpresion=timpresion*60; 
07E38:  MOVF   x53,W
07E3A:  MULLW  3C
07E3C:  MOVFF  FF3,254
....................     
....................    for(i=0;i<MediaMovil;i++){ 
07E40:  CLRF   x5C
07E42:  MOVLB  1
07E44:  MOVF   xF5,W
07E46:  MOVLB  2
07E48:  SUBWF  x5C,W
07E4A:  BC    7E90
....................       Temperatura=LeerPT100(0,MediaMovil); 
07E4C:  MOVLB  6
07E4E:  CLRF   xB2
07E50:  MOVFF  1F5,6B3
07E54:  MOVLB  0
07E56:  CALL   41B8
07E5A:  MOVFF  03,23C
07E5E:  MOVFF  02,23B
07E62:  MOVFF  01,23A
07E66:  MOVFF  00,239
....................       Temperatura2=LeerPT100(1,MediaMovil); 
07E6A:  MOVLW  01
07E6C:  MOVLB  6
07E6E:  MOVWF  xB2
07E70:  MOVFF  1F5,6B3
07E74:  MOVLB  0
07E76:  CALL   41B8
07E7A:  MOVFF  03,240
07E7E:  MOVFF  02,23F
07E82:  MOVFF  01,23E
07E86:  MOVFF  00,23D
....................    } 
07E8A:  MOVLB  2
07E8C:  INCF   x5C,F
07E8E:  BRA    7E42
....................    seguroValvula=OFF; 
07E90:  MOVLB  0
07E92:  BCF    xF8.5
....................     
....................    while(true) 
....................    { 
....................       //codificaSalidas();       
....................       LeeDisplay(); 
07E94:  GOTO   4A9A
....................       Envio_Esclavos(); 
07E98:  CALL   4FF2
....................       delay_ms(10); 
07E9C:  MOVLW  0A
07E9E:  MOVLB  6
07EA0:  MOVWF  xC2
07EA2:  MOVLB  0
07EA4:  CALL   1F7A
....................       Lectura_Esclavos(); 
07EA8:  GOTO   50C2
....................       rtc_get_date(Dia,Mes,Year,dow); 
....................       rtc_get_time(Hora,Minuto,Segundo); 
....................       restart_wdt(); 
*
07F70:  CLRWDT
....................       if(!Esterilizando || Desfogando){ 
07F72:  BTFSS  xFD.7
07F74:  BRA    7F7A
07F76:  BTFSS  xFE.2
07F78:  BRA    7F84
....................          CalculoImpresion=180; 
07F7A:  MOVLW  B4
07F7C:  MOVLB  2
07F7E:  MOVWF  x54
....................       }else{ 
07F80:  BRA    7F8A
07F82:  MOVLB  0
....................          CalculoImpresion=60; 
07F84:  MOVLW  3C
07F86:  MOVLB  2
07F88:  MOVWF  x54
....................       } 
....................        
....................       graficaCurva(2000); 
07F8A:  MOVLW  07
07F8C:  MOVLB  6
07F8E:  MOVWF  xB1
07F90:  MOVLW  D0
07F92:  MOVWF  xB0
07F94:  MOVLB  0
07F96:  GOTO   526E
....................       muestreo(20); 
07F9A:  MOVLB  6
07F9C:  CLRF   xB1
07F9E:  MOVLW  14
07FA0:  MOVWF  xB0
07FA2:  MOVLB  0
07FA4:  GOTO   5694
....................       monitoreaAgua(); 
07FA8:  GOTO   5740
....................       monitoreaStop(); 
07FAC:  GOTO   5826
....................       if(ingreso && !PruebaEstados) 
07FB0:  MOVLB  1
07FB2:  BTFSS  x01.4
07FB4:  BRA    7FC4
07FB6:  MOVLB  0
07FB8:  BTFSS  xFF.0
07FBA:  BRA    7FC0
07FBC:  MOVLB  1
07FBE:  BRA    7FC4
....................          monitoreaPuertaLimpio(); 
07FC0:  GOTO   58EA
....................           
....................       if(PresionCamara>Atmosferica+15){ 
07FC4:  MOVLW  0F
07FC6:  MOVLB  2
07FC8:  ADDWF  xA2,W
07FCA:  MOVF   x79,F
07FCC:  BNZ   7FD4
07FCE:  SUBWF  x78,W
07FD0:  BZ    7FE0
07FD2:  BNC   7FE0
....................          cierraPuertaS(); 
07FD4:  MOVLB  0
07FD6:  CALL   5978
....................          cierraPuertaL(); 
07FDA:  CALL   589E
07FDE:  MOVLB  2
....................       } 
....................  
.................... //_-------------------------------------------------------------------------------------------------------------------------------------------------------- 
....................    if(Menu==240){ //Menu de Bienvenida. 
07FE0:  MOVF   x59,W
07FE2:  SUBLW  F0
07FE4:  BNZ   802E
....................       printf("bkcmd=0"); 
07FE6:  MOVLW  74
07FE8:  MOVWF  FF6
07FEA:  MOVLW  07
07FEC:  MOVWF  FF7
07FEE:  MOVLW  00
07FF0:  MOVWF  FF8
07FF2:  MOVLB  0
07FF4:  CALL   3FFA
....................       SendDataDisplay(); 
07FF8:  CALL   402C
....................       delay_ms(1500); 
07FFC:  MOVLW  06
07FFE:  MOVLB  6
08000:  MOVWF  xB0
08002:  MOVLW  FA
08004:  MOVWF  xC2
08006:  MOVLB  0
08008:  CALL   1F7A
0800C:  MOVLB  6
0800E:  DECFSZ xB0,F
08010:  BRA    8002
....................       printf("page Usuarios"); 
08012:  MOVLW  7C
08014:  MOVWF  FF6
08016:  MOVLW  07
08018:  MOVWF  FF7
0801A:  MOVLW  00
0801C:  MOVWF  FF8
0801E:  MOVLB  0
08020:  CALL   3FFA
....................       SendDataDisplay(); 
08024:  CALL   402C
....................       ApagaSalidas(); 
08028:  CALL   4062
0802C:  MOVLB  2
....................    } 
.................... //_-------------------------------------------------------------------------------------------------------------------------------------------------------- 
....................  
.................... //_-------------------------------------------------------------------------------------------------------------------------------------------------------- 
....................     if(Menu==0){ //Menu de Contrasea de acceso. 
0802E:  MOVF   x59,F
08030:  BTFSS  FD8.2
08032:  BRA    8666
....................       entro=OFF; 
08034:  MOVLB  1
08036:  BCF    x03.4
....................       ApagaSalidas(); 
08038:  MOVLB  0
0803A:  CALL   4062
....................       //printf("bkcmd=0"); 
....................       //SendDataDisplay(); 
....................       if(RX_Buffer[4]==0x11){//11 
0803E:  MOVF   34,W
08040:  SUBLW  11
08042:  BNZ   8064
....................          if(TipoClave!=0){ 
08044:  MOVLB  1
08046:  MOVF   xF7,F
08048:  BZ    8064
....................             printf("page Menu"); 
0804A:  MOVLW  8A
0804C:  MOVWF  FF6
0804E:  MOVLW  07
08050:  MOVWF  FF7
08052:  MOVLW  00
08054:  MOVWF  FF8
08056:  MOVLB  0
08058:  CALL   3FFA
....................             SendDataDisplay(); 
0805C:  CALL   402C
....................             PantallaPrincipal=0; 
08060:  MOVLB  1
08062:  CLRF   xF6
....................          } 
....................       } 
....................        
....................       if(TipoClave==3){ 
08064:  MOVLB  1
08066:  MOVF   xF7,W
08068:  SUBLW  03
0806A:  BNZ   8084
....................          printf("titulo.txt=\"Clave Nueva\""); 
0806C:  MOVLW  94
0806E:  MOVWF  FF6
08070:  MOVLW  07
08072:  MOVWF  FF7
08074:  MOVLW  00
08076:  MOVWF  FF8
08078:  MOVLB  0
0807A:  CALL   3FFA
....................          SendDataDisplay(); 
0807E:  CALL   402C
08082:  MOVLB  1
....................       } 
....................        
....................       if(TipoClave==2){ 
08084:  MOVF   xF7,W
08086:  SUBLW  02
08088:  BNZ   80A2
....................          printf("titulo.txt=\"Clave Actual\""); 
0808A:  MOVLW  AE
0808C:  MOVWF  FF6
0808E:  MOVLW  07
08090:  MOVWF  FF7
08092:  MOVLW  00
08094:  MOVWF  FF8
08096:  MOVLB  0
08098:  CALL   3FFA
....................          SendDataDisplay();         
0809C:  CALL   402C
080A0:  MOVLB  1
....................       } 
....................        
....................       if(TipoClave==1){ 
080A2:  DECFSZ xF7,W
080A4:  BRA    80BE
....................          printf("titulo.txt=\"Clave Tecnico\""); 
080A6:  MOVLW  C8
080A8:  MOVWF  FF6
080AA:  MOVLW  07
080AC:  MOVWF  FF7
080AE:  MOVLW  00
080B0:  MOVWF  FF8
080B2:  MOVLB  0
080B4:  CALL   3FFA
....................          SendDataDisplay(); 
080B8:  CALL   402C
080BC:  MOVLB  1
....................       } 
....................        
....................       if(TipoClave==0){ 
080BE:  MOVF   xF7,F
080C0:  BNZ   80F4
....................          printf("titulo.txt=\"%s\"",usuario); 
080C2:  MOVLW  E4
080C4:  MOVWF  FF6
080C6:  MOVLW  07
080C8:  MOVWF  FF7
080CA:  MOVLW  00
080CC:  MOVWF  FF8
080CE:  MOVLW  0C
080D0:  MOVLB  6
080D2:  MOVWF  xB5
080D4:  MOVLB  0
080D6:  CALL   5994
080DA:  MOVLW  02
080DC:  MOVWF  FEA
080DE:  MOVLW  B6
080E0:  MOVWF  FE9
080E2:  CALL   59C6
080E6:  MOVLW  22
080E8:  BTFSS  F9E.4
080EA:  BRA    80E8
080EC:  MOVWF  FAD
....................          SendDataDisplay(); 
080EE:  CALL   402C
080F2:  MOVLB  1
....................       } 
....................        
....................       if(RX_Buffer[4]==0x11){//11, Regresar 
080F4:  MOVF   34,W
080F6:  SUBLW  11
080F8:  BNZ   8130
....................          if(TipoClave==1){ 
080FA:  DECFSZ xF7,W
080FC:  BRA    8118
....................             printf("page Ajustes"); 
080FE:  MOVLW  F4
08100:  MOVWF  FF6
08102:  MOVLW  07
08104:  MOVWF  FF7
08106:  MOVLW  00
08108:  MOVWF  FF8
0810A:  MOVLB  0
0810C:  CALL   3FFA
....................             SendDataDisplay();        
08110:  CALL   402C
....................          }else{ 
08114:  BRA    812E
08116:  MOVLB  1
....................             printf("page Usuarios"); 
08118:  MOVLW  02
0811A:  MOVWF  FF6
0811C:  MOVLW  08
0811E:  MOVWF  FF7
08120:  MOVLW  00
08122:  MOVWF  FF8
08124:  MOVLB  0
08126:  CALL   3FFA
....................             SendDataDisplay();        
0812A:  CALL   402C
0812E:  MOVLB  1
....................          } 
....................       } 
....................        
....................       if(RX_Buffer[3]==0x0f){//0f, recibe caracteres ingresados desde el Display 
08130:  MOVF   33,W
08132:  SUBLW  0F
08134:  BTFSS  FD8.2
08136:  BRA    8662
....................          delay_ms(800); 
08138:  MOVLW  04
0813A:  MOVLB  6
0813C:  MOVWF  xB0
0813E:  MOVLW  C8
08140:  MOVWF  xC2
08142:  MOVLB  0
08144:  CALL   1F7A
08148:  MOVLB  6
0814A:  DECFSZ xB0,F
0814C:  BRA    813E
....................          if(TipoClave==0){ 
0814E:  MOVLB  1
08150:  MOVF   xF7,F
08152:  BTFSS  FD8.2
08154:  BRA    8308
....................             if(RX_Buffer[4]==0x33&&RX_Buffer[5]==0x38&&RX_Buffer[6]==0x39&&RX_Buffer[7]==0x32 &&RX_Buffer[8]==0x00 &&RX_Buffer[9]==0xff){ // Si Ingresa clave para reset general del sistema. 
08156:  MOVF   34,W
08158:  SUBLW  33
0815A:  BNZ   81D4
0815C:  MOVF   35,W
0815E:  SUBLW  38
08160:  BNZ   81D4
08162:  MOVF   36,W
08164:  SUBLW  39
08166:  BNZ   81D4
08168:  MOVF   37,W
0816A:  SUBLW  32
0816C:  BNZ   81D4
0816E:  MOVF   38,F
08170:  BNZ   81D4
08172:  INCFSZ 39,W
08174:  BRA    81D4
....................                for(i=0;i<40;i++){//Lee contraseas de usuarios 
08176:  MOVLB  2
08178:  CLRF   x5C
0817A:  MOVF   x5C,W
0817C:  SUBLW  27
0817E:  BNC   81D0
....................                   write_eeprom(300+i,0);delay_ms(20); 
08180:  MOVLW  2C
08182:  ADDWF  x5C,W
08184:  MOVLB  6
08186:  MOVWF  xB0
08188:  MOVLW  01
0818A:  MOVWF  xB1
0818C:  BTFSC  FD8.0
0818E:  INCF   xB1,F
08190:  MOVFF  6B1,FAA
08194:  MOVFF  6B0,FA9
08198:  CLRF   FA8
0819A:  BCF    FA6.6
0819C:  BCF    FA6.7
0819E:  BSF    FA6.2
081A0:  MOVF   FF2,W
081A2:  MOVWF  00
081A4:  BCF    FF2.6
081A6:  BCF    FF2.7
081A8:  MOVLB  F
081AA:  MOVLW  55
081AC:  MOVWF  FA7
081AE:  MOVLW  AA
081B0:  MOVWF  FA7
081B2:  BSF    FA6.1
081B4:  BTFSC  FA6.1
081B6:  BRA    81B4
081B8:  BCF    FA6.2
081BA:  MOVF   00,W
081BC:  IORWF  FF2,F
081BE:  MOVLW  14
081C0:  MOVLB  6
081C2:  MOVWF  xC2
081C4:  MOVLB  0
081C6:  CALL   1F7A
....................                } 
081CA:  MOVLB  2
081CC:  INCF   x5C,F
081CE:  BRA    817A
....................                reset_cpu(); 
081D0:  RESET
081D2:  MOVLB  1
....................             } 
....................              
....................             if(RX_Buffer[4]>=0x30 && RX_Buffer[5]>=0x30 && RX_Buffer[6]>=0x30 && RX_Buffer[7]>=0x30 
....................             && RX_Buffer[4]<=0x39 && RX_Buffer[5]<=0x39 && RX_Buffer[6]<=0x39 && RX_Buffer[7]<=0x39){ 
081D4:  MOVF   34,W
081D6:  SUBLW  2F
081D8:  BTFSC  FD8.0
081DA:  BRA    8306
081DC:  MOVF   35,W
081DE:  SUBLW  2F
081E0:  BTFSC  FD8.0
081E2:  BRA    8306
081E4:  MOVF   36,W
081E6:  SUBLW  2F
081E8:  BTFSC  FD8.0
081EA:  BRA    8306
081EC:  MOVF   37,W
081EE:  SUBLW  2F
081F0:  BTFSC  FD8.0
081F2:  BRA    8306
081F4:  MOVF   34,W
081F6:  SUBLW  39
081F8:  BTFSS  FD8.0
081FA:  BRA    8306
081FC:  MOVF   35,W
081FE:  SUBLW  39
08200:  BTFSS  FD8.0
08202:  BRA    8306
08204:  MOVF   36,W
08206:  SUBLW  39
08208:  BTFSS  FD8.0
0820A:  BRA    8306
0820C:  MOVF   37,W
0820E:  SUBLW  39
08210:  BTFSS  FD8.0
08212:  BRA    8306
....................                if((RX_Buffer[4]==Clave[codigoUsuario].Password[0]+0x30)&&(RX_Buffer[5]==Clave[codigoUsuario].Password[1]+0x30)&& 
....................                (RX_Buffer[6]==Clave[codigoUsuario].Password[2]+0x30)&&(RX_Buffer[7]==Clave[codigoUsuario].Password[3]+0x30) 
....................                &&RX_Buffer[8]==0x00 &&RX_Buffer[9]==0xff){ 
08214:  MOVLB  2
08216:  MOVF   xB0,W
08218:  MULLW  04
0821A:  MOVF   FF3,W
0821C:  MOVLB  6
0821E:  CLRF   xB1
08220:  MOVWF  xB0
08222:  MOVLW  88
08224:  ADDWF  xB0,W
08226:  MOVWF  FE9
08228:  MOVLW  06
0822A:  ADDWFC xB1,W
0822C:  MOVWF  FEA
0822E:  MOVLW  30
08230:  ADDWF  FEF,W
08232:  SUBWF  34,W
08234:  BNZ   82EA
08236:  MOVLB  2
08238:  MOVF   xB0,W
0823A:  MULLW  04
0823C:  MOVF   FF3,W
0823E:  MOVLB  6
08240:  CLRF   xB1
08242:  MOVWF  xB0
08244:  MOVLW  01
08246:  ADDWF  xB0,W
08248:  MOVWF  01
0824A:  MOVLW  00
0824C:  ADDWFC xB1,W
0824E:  MOVWF  03
08250:  MOVF   01,W
08252:  ADDLW  88
08254:  MOVWF  FE9
08256:  MOVLW  06
08258:  ADDWFC 03,W
0825A:  MOVWF  FEA
0825C:  MOVLW  30
0825E:  ADDWF  FEF,W
08260:  SUBWF  35,W
08262:  BNZ   82EA
08264:  MOVLB  2
08266:  MOVF   xB0,W
08268:  MULLW  04
0826A:  MOVF   FF3,W
0826C:  MOVLB  6
0826E:  CLRF   xB1
08270:  MOVWF  xB0
08272:  MOVLW  02
08274:  ADDWF  xB0,W
08276:  MOVWF  01
08278:  MOVLW  00
0827A:  ADDWFC xB1,W
0827C:  MOVWF  03
0827E:  MOVF   01,W
08280:  ADDLW  88
08282:  MOVWF  FE9
08284:  MOVLW  06
08286:  ADDWFC 03,W
08288:  MOVWF  FEA
0828A:  MOVLW  30
0828C:  ADDWF  FEF,W
0828E:  SUBWF  36,W
08290:  BNZ   82EA
08292:  MOVLB  2
08294:  MOVF   xB0,W
08296:  MULLW  04
08298:  MOVF   FF3,W
0829A:  MOVLB  6
0829C:  CLRF   xB1
0829E:  MOVWF  xB0
082A0:  MOVLW  03
082A2:  ADDWF  xB0,W
082A4:  MOVWF  01
082A6:  MOVLW  00
082A8:  ADDWFC xB1,W
082AA:  MOVWF  03
082AC:  MOVF   01,W
082AE:  ADDLW  88
082B0:  MOVWF  FE9
082B2:  MOVLW  06
082B4:  ADDWFC 03,W
082B6:  MOVWF  FEA
082B8:  MOVLW  30
082BA:  ADDWF  FEF,W
082BC:  SUBWF  37,W
082BE:  BNZ   82EA
082C0:  MOVF   38,F
082C2:  BNZ   82EA
082C4:  INCFSZ 39,W
082C6:  BRA    82EA
....................                   printf("page ClaveCorrecta"); 
082C8:  MOVLW  10
082CA:  MOVWF  FF6
082CC:  MOVLW  08
082CE:  MOVWF  FF7
082D0:  MOVLW  00
082D2:  MOVWF  FF8
082D4:  MOVLB  0
082D6:  CALL   3FFA
....................                   SendDataDisplay(); 
082DA:  CALL   402C
....................                   ingreso=ON; 
082DE:  MOVLB  1
082E0:  BSF    x01.4
....................                   RX_Buffer[3]=0x00;RX_Buffer2[3]=0x00;   
082E2:  CLRF   33
082E4:  CLRF   3E
....................                }else{ 
082E6:  BRA    8306
082E8:  MOVLB  6
....................                   printf("page ClaveBad"); 
082EA:  MOVLW  24
082EC:  MOVWF  FF6
082EE:  MOVLW  08
082F0:  MOVWF  FF7
082F2:  MOVLW  00
082F4:  MOVWF  FF8
082F6:  MOVLB  0
082F8:  CALL   3FFA
....................                   SendDataDisplay(); 
082FC:  CALL   402C
....................                   RX_Buffer[3]=0x00;RX_Buffer2[3]=0x00;   
08300:  CLRF   33
08302:  CLRF   3E
08304:  MOVLB  1
....................                }  
....................             } 
....................          }else if(TipoClave==1){ 
08306:  BRA    8662
08308:  DECFSZ xF7,W
0830A:  BRA    8368
....................             if(RX_Buffer[4]==0x34&&RX_Buffer[5]==0x34&&RX_Buffer[6]==0x34&&RX_Buffer[7]==0x34&&RX_Buffer[8]==0x00 &&RX_Buffer[9]==0xff){ // Si Ingresa clave de Servicio Tecnico 
0830C:  MOVF   34,W
0830E:  SUBLW  34
08310:  BNZ   834A
08312:  MOVF   35,W
08314:  SUBLW  34
08316:  BNZ   834A
08318:  MOVF   36,W
0831A:  SUBLW  34
0831C:  BNZ   834A
0831E:  MOVF   37,W
08320:  SUBLW  34
08322:  BNZ   834A
08324:  MOVF   38,F
08326:  BNZ   834A
08328:  INCFSZ 39,W
0832A:  BRA    834A
....................                printf("page Config"); 
0832C:  MOVLW  32
0832E:  MOVWF  FF6
08330:  MOVLW  08
08332:  MOVWF  FF7
08334:  MOVLW  00
08336:  MOVWF  FF8
08338:  MOVLB  0
0833A:  CALL   3FFA
....................                SendDataDisplay(); 
0833E:  CALL   402C
....................                RX_Buffer[3]=0x00;RX_Buffer2[3]=0x00;   
08342:  CLRF   33
08344:  CLRF   3E
....................             }else{ 
08346:  BRA    8364
08348:  MOVLB  1
....................                printf("page Menu"); 
0834A:  MOVLW  3E
0834C:  MOVWF  FF6
0834E:  MOVLW  08
08350:  MOVWF  FF7
08352:  MOVLW  00
08354:  MOVWF  FF8
08356:  MOVLB  0
08358:  CALL   3FFA
....................                SendDataDisplay(); 
0835C:  CALL   402C
....................                RX_Buffer[3]=0x00;RX_Buffer2[3]=0x00;   
08360:  CLRF   33
08362:  CLRF   3E
....................             } 
....................          }else if(TipoClave==2){ 
08364:  BRA    8664
08366:  MOVLB  1
08368:  MOVF   xF7,W
0836A:  SUBLW  02
0836C:  BTFSS  FD8.2
0836E:  BRA    84BE
....................             if(RX_Buffer[4]>=0x30 && RX_Buffer[5]>=0x30 && RX_Buffer[6]>=0x30 && RX_Buffer[7]>=0x30 
....................             && RX_Buffer[4]<=0x39 && RX_Buffer[5]<=0x39 && RX_Buffer[6]<=0x39 && RX_Buffer[7]<=0x39){ 
08370:  MOVF   34,W
08372:  SUBLW  2F
08374:  BTFSC  FD8.0
08376:  BRA    84BC
08378:  MOVF   35,W
0837A:  SUBLW  2F
0837C:  BTFSC  FD8.0
0837E:  BRA    84BC
08380:  MOVF   36,W
08382:  SUBLW  2F
08384:  BTFSC  FD8.0
08386:  BRA    84BC
08388:  MOVF   37,W
0838A:  SUBLW  2F
0838C:  BTFSC  FD8.0
0838E:  BRA    84BC
08390:  MOVF   34,W
08392:  SUBLW  39
08394:  BTFSS  FD8.0
08396:  BRA    84BC
08398:  MOVF   35,W
0839A:  SUBLW  39
0839C:  BTFSS  FD8.0
0839E:  BRA    84BC
083A0:  MOVF   36,W
083A2:  SUBLW  39
083A4:  BTFSS  FD8.0
083A6:  BRA    84BC
083A8:  MOVF   37,W
083AA:  SUBLW  39
083AC:  BTFSS  FD8.0
083AE:  BRA    84BC
....................                if((RX_Buffer[4]==Clave[codigoUsuario2].Password[0]+0x30)&&(RX_Buffer[5]==Clave[codigoUsuario2].Password[1]+0x30)&& 
....................                (RX_Buffer[6]==Clave[codigoUsuario2].Password[2]+0x30)&&(RX_Buffer[7]==Clave[codigoUsuario2].Password[3]+0x30) 
....................                &&RX_Buffer[8]==0x00 &&RX_Buffer[9]==0xff){ 
083B0:  MOVLB  2
083B2:  MOVF   x93,W
083B4:  MULLW  04
083B6:  MOVF   FF3,W
083B8:  MOVLB  6
083BA:  CLRF   xB1
083BC:  MOVWF  xB0
083BE:  MOVLW  88
083C0:  ADDWF  xB0,W
083C2:  MOVWF  FE9
083C4:  MOVLW  06
083C6:  ADDWFC xB1,W
083C8:  MOVWF  FEA
083CA:  MOVLW  30
083CC:  ADDWF  FEF,W
083CE:  SUBWF  34,W
083D0:  BNZ   849C
083D2:  MOVLB  2
083D4:  MOVF   x93,W
083D6:  MULLW  04
083D8:  MOVF   FF3,W
083DA:  MOVLB  6
083DC:  CLRF   xB1
083DE:  MOVWF  xB0
083E0:  MOVLW  01
083E2:  ADDWF  xB0,W
083E4:  MOVWF  01
083E6:  MOVLW  00
083E8:  ADDWFC xB1,W
083EA:  MOVWF  03
083EC:  MOVF   01,W
083EE:  ADDLW  88
083F0:  MOVWF  FE9
083F2:  MOVLW  06
083F4:  ADDWFC 03,W
083F6:  MOVWF  FEA
083F8:  MOVLW  30
083FA:  ADDWF  FEF,W
083FC:  SUBWF  35,W
083FE:  BNZ   849C
08400:  MOVLB  2
08402:  MOVF   x93,W
08404:  MULLW  04
08406:  MOVF   FF3,W
08408:  MOVLB  6
0840A:  CLRF   xB1
0840C:  MOVWF  xB0
0840E:  MOVLW  02
08410:  ADDWF  xB0,W
08412:  MOVWF  01
08414:  MOVLW  00
08416:  ADDWFC xB1,W
08418:  MOVWF  03
0841A:  MOVF   01,W
0841C:  ADDLW  88
0841E:  MOVWF  FE9
08420:  MOVLW  06
08422:  ADDWFC 03,W
08424:  MOVWF  FEA
08426:  MOVLW  30
08428:  ADDWF  FEF,W
0842A:  SUBWF  36,W
0842C:  BNZ   849C
0842E:  MOVLB  2
08430:  MOVF   x93,W
08432:  MULLW  04
08434:  MOVF   FF3,W
08436:  MOVLB  6
08438:  CLRF   xB1
0843A:  MOVWF  xB0
0843C:  MOVLW  03
0843E:  ADDWF  xB0,W
08440:  MOVWF  01
08442:  MOVLW  00
08444:  ADDWFC xB1,W
08446:  MOVWF  03
08448:  MOVF   01,W
0844A:  ADDLW  88
0844C:  MOVWF  FE9
0844E:  MOVLW  06
08450:  ADDWFC 03,W
08452:  MOVWF  FEA
08454:  MOVLW  30
08456:  ADDWF  FEF,W
08458:  SUBWF  37,W
0845A:  BNZ   849C
0845C:  MOVF   38,F
0845E:  BNZ   849C
08460:  INCFSZ 39,W
08462:  BRA    849C
....................                   printf("page Clave"); 
08464:  MOVLW  48
08466:  MOVWF  FF6
08468:  MOVLW  08
0846A:  MOVWF  FF7
0846C:  MOVLW  00
0846E:  MOVWF  FF8
08470:  MOVLB  0
08472:  CALL   3FFA
....................                   SendDataDisplay(); 
08476:  CALL   402C
....................                   printf("titulo.txt=\"Clave Nueva\""); 
0847A:  MOVLW  54
0847C:  MOVWF  FF6
0847E:  MOVLW  08
08480:  MOVWF  FF7
08482:  MOVLW  00
08484:  MOVWF  FF8
08486:  CALL   3FFA
....................                   SendDataDisplay(); 
0848A:  CALL   402C
....................                   TipoClave=3; 
0848E:  MOVLW  03
08490:  MOVLB  1
08492:  MOVWF  xF7
....................                   RX_Buffer[3]=0x00; 
08494:  CLRF   33
....................                   RX_Buffer2[3]=0x00; 
08496:  CLRF   3E
....................                }else{ 
08498:  BRA    84BC
0849A:  MOVLB  6
....................                   printf("page Menu"); 
0849C:  MOVLW  6E
0849E:  MOVWF  FF6
084A0:  MOVLW  08
084A2:  MOVWF  FF7
084A4:  MOVLW  00
084A6:  MOVWF  FF8
084A8:  MOVLB  0
084AA:  CALL   3FFA
....................                   SendDataDisplay(); 
084AE:  CALL   402C
....................                   RX_Buffer[3]=0x00; 
084B2:  CLRF   33
....................                   RX_Buffer2[3]=0x00; 
084B4:  CLRF   3E
....................                   codigoUsuario=codigoUsuarioant; 
084B6:  MOVFF  2B1,2B0
084BA:  MOVLB  1
....................                }  
....................             } 
....................          }else if(TipoClave==3){ 
084BC:  BRA    8662
084BE:  MOVF   xF7,W
084C0:  SUBLW  03
084C2:  BTFSS  FD8.2
084C4:  BRA    8662
....................             printf("titulo.txt=\"Clave Nueva\""); 
084C6:  MOVLW  78
084C8:  MOVWF  FF6
084CA:  MOVLW  08
084CC:  MOVWF  FF7
084CE:  MOVLW  00
084D0:  MOVWF  FF8
084D2:  MOVLB  0
084D4:  CALL   3FFA
....................             SendDataDisplay(); 
084D8:  CALL   402C
....................             printf("page Menu"); 
084DC:  MOVLW  92
084DE:  MOVWF  FF6
084E0:  MOVLW  08
084E2:  MOVWF  FF7
084E4:  MOVLW  00
084E6:  MOVWF  FF8
084E8:  CALL   3FFA
....................             SendDataDisplay(); 
084EC:  CALL   402C
....................             if(!GuardaEEPROM){ 
084F0:  MOVLB  1
084F2:  BTFSC  x00.0
084F4:  BRA    865E
....................                write_eeprom(300+(codigoUsuario*4),RX_Buffer[4]-0x30);delay_ms(20); 
084F6:  MOVLB  2
084F8:  MOVF   xB0,W
084FA:  MULLW  04
084FC:  MOVF   FF3,W
084FE:  ADDLW  2C
08500:  MOVLB  6
08502:  MOVWF  xB0
08504:  MOVLW  01
08506:  MOVWF  xB1
08508:  BTFSC  FD8.0
0850A:  INCF   xB1,F
0850C:  MOVLW  30
0850E:  SUBWF  34,W
08510:  MOVWF  xB2
08512:  MOVFF  6B1,FAA
08516:  MOVFF  6B0,FA9
0851A:  MOVFF  6B2,FA8
0851E:  BCF    FA6.6
08520:  BCF    FA6.7
08522:  BSF    FA6.2
08524:  MOVF   FF2,W
08526:  MOVWF  00
08528:  BCF    FF2.6
0852A:  BCF    FF2.7
0852C:  MOVLB  F
0852E:  MOVLW  55
08530:  MOVWF  FA7
08532:  MOVLW  AA
08534:  MOVWF  FA7
08536:  BSF    FA6.1
08538:  BTFSC  FA6.1
0853A:  BRA    8538
0853C:  BCF    FA6.2
0853E:  MOVF   00,W
08540:  IORWF  FF2,F
08542:  MOVLW  14
08544:  MOVLB  6
08546:  MOVWF  xC2
08548:  MOVLB  0
0854A:  CALL   1F7A
....................                write_eeprom(301+(codigoUsuario*4),RX_Buffer[5]-0x30);delay_ms(20); 
0854E:  MOVLB  2
08550:  MOVF   xB0,W
08552:  MULLW  04
08554:  MOVF   FF3,W
08556:  ADDLW  2D
08558:  MOVLB  6
0855A:  MOVWF  xB0
0855C:  MOVLW  01
0855E:  MOVWF  xB1
08560:  BTFSC  FD8.0
08562:  INCF   xB1,F
08564:  MOVLW  30
08566:  SUBWF  35,W
08568:  MOVWF  xB2
0856A:  MOVFF  6B1,FAA
0856E:  MOVFF  6B0,FA9
08572:  MOVFF  6B2,FA8
08576:  BCF    FA6.6
08578:  BCF    FA6.7
0857A:  BSF    FA6.2
0857C:  MOVF   FF2,W
0857E:  MOVWF  00
08580:  BCF    FF2.6
08582:  BCF    FF2.7
08584:  MOVLB  F
08586:  MOVLW  55
08588:  MOVWF  FA7
0858A:  MOVLW  AA
0858C:  MOVWF  FA7
0858E:  BSF    FA6.1
08590:  BTFSC  FA6.1
08592:  BRA    8590
08594:  BCF    FA6.2
08596:  MOVF   00,W
08598:  IORWF  FF2,F
0859A:  MOVLW  14
0859C:  MOVLB  6
0859E:  MOVWF  xC2
085A0:  MOVLB  0
085A2:  CALL   1F7A
....................                write_eeprom(302+(codigoUsuario*4),RX_Buffer[6]-0x30);delay_ms(20); 
085A6:  MOVLB  2
085A8:  MOVF   xB0,W
085AA:  MULLW  04
085AC:  MOVF   FF3,W
085AE:  ADDLW  2E
085B0:  MOVLB  6
085B2:  MOVWF  xB0
085B4:  MOVLW  01
085B6:  MOVWF  xB1
085B8:  BTFSC  FD8.0
085BA:  INCF   xB1,F
085BC:  MOVLW  30
085BE:  SUBWF  36,W
085C0:  MOVWF  xB2
085C2:  MOVFF  6B1,FAA
085C6:  MOVFF  6B0,FA9
085CA:  MOVFF  6B2,FA8
085CE:  BCF    FA6.6
085D0:  BCF    FA6.7
085D2:  BSF    FA6.2
085D4:  MOVF   FF2,W
085D6:  MOVWF  00
085D8:  BCF    FF2.6
085DA:  BCF    FF2.7
085DC:  MOVLB  F
085DE:  MOVLW  55
085E0:  MOVWF  FA7
085E2:  MOVLW  AA
085E4:  MOVWF  FA7
085E6:  BSF    FA6.1
085E8:  BTFSC  FA6.1
085EA:  BRA    85E8
085EC:  BCF    FA6.2
085EE:  MOVF   00,W
085F0:  IORWF  FF2,F
085F2:  MOVLW  14
085F4:  MOVLB  6
085F6:  MOVWF  xC2
085F8:  MOVLB  0
085FA:  CALL   1F7A
....................                write_eeprom(303+(codigoUsuario*4),RX_Buffer[7]-0x30);delay_ms(20); 
085FE:  MOVLB  2
08600:  MOVF   xB0,W
08602:  MULLW  04
08604:  MOVF   FF3,W
08606:  ADDLW  2F
08608:  MOVLB  6
0860A:  MOVWF  xB0
0860C:  MOVLW  01
0860E:  MOVWF  xB1
08610:  BTFSC  FD8.0
08612:  INCF   xB1,F
08614:  MOVLW  30
08616:  SUBWF  37,W
08618:  MOVWF  xB2
0861A:  MOVFF  6B1,FAA
0861E:  MOVFF  6B0,FA9
08622:  MOVFF  6B2,FA8
08626:  BCF    FA6.6
08628:  BCF    FA6.7
0862A:  BSF    FA6.2
0862C:  MOVF   FF2,W
0862E:  MOVWF  00
08630:  BCF    FF2.6
08632:  BCF    FF2.7
08634:  MOVLB  F
08636:  MOVLW  55
08638:  MOVWF  FA7
0863A:  MOVLW  AA
0863C:  MOVWF  FA7
0863E:  BSF    FA6.1
08640:  BTFSC  FA6.1
08642:  BRA    8640
08644:  BCF    FA6.2
08646:  MOVF   00,W
08648:  IORWF  FF2,F
0864A:  MOVLW  14
0864C:  MOVLB  6
0864E:  MOVWF  xC2
08650:  MOVLB  0
08652:  CALL   1F7A
....................                GuardaEEPROM=ON; 
08656:  MOVLB  1
08658:  BSF    x00.0
....................                codigoUsuario=codigoUsuarioant; 
0865A:  MOVFF  2B1,2B0
....................             } 
....................             RX_Buffer[3]=0x00; 
0865E:  CLRF   33
....................             RX_Buffer2[3]=0x00; 
08660:  CLRF   3E
08662:  MOVLB  0
08664:  MOVLB  2
....................          } 
....................       } 
....................     } 
.................... //_--------------------------------------------------------------------------------------------------------------------------------------------------------        
....................  
.................... //_-------------------------------------------------------------------------------------------------------------------------------------------------------- 
....................    if(Menu==1){ //Menu Principal. 
08666:  DECFSZ x59,W
08668:  GOTO   8DEE
....................       printf("fecha.txt=\"Fecha:%02u/%02u/20%02u    Hora: %02u:%02u:%02u\"",Dia,Mes,Year,Hora,Minuto,Segundo); 
0866C:  MOVLW  9C
0866E:  MOVWF  FF6
08670:  MOVLW  08
08672:  MOVWF  FF7
08674:  MOVLW  00
08676:  MOVWF  FF8
08678:  MOVLW  11
0867A:  MOVLB  6
0867C:  MOVWF  xB5
0867E:  MOVLB  0
08680:  CALL   5994
08684:  MOVFF  29A,6B5
08688:  MOVLW  01
0868A:  MOVLB  6
0868C:  MOVWF  xB6
0868E:  MOVLB  0
08690:  CALL   5A18
08694:  MOVLW  2F
08696:  BTFSS  F9E.4
08698:  BRA    8696
0869A:  MOVWF  FAD
0869C:  MOVFF  299,6B5
086A0:  MOVLW  01
086A2:  MOVLB  6
086A4:  MOVWF  xB6
086A6:  MOVLB  0
086A8:  CALL   5A18
086AC:  MOVLW  2F
086AE:  BTFSS  F9E.4
086B0:  BRA    86AE
086B2:  MOVWF  FAD
086B4:  MOVLW  32
086B6:  BTFSS  F9E.4
086B8:  BRA    86B6
086BA:  MOVWF  FAD
086BC:  MOVLW  30
086BE:  BTFSS  F9E.4
086C0:  BRA    86BE
086C2:  MOVWF  FAD
086C4:  MOVFF  298,6B5
086C8:  MOVLW  01
086CA:  MOVLB  6
086CC:  MOVWF  xB6
086CE:  MOVLB  0
086D0:  CALL   5A18
086D4:  MOVLW  BD
086D6:  MOVWF  FF6
086D8:  MOVLW  08
086DA:  MOVWF  FF7
086DC:  MOVLW  00
086DE:  MOVWF  FF8
086E0:  MOVLW  0A
086E2:  MOVLB  6
086E4:  MOVWF  xB5
086E6:  MOVLB  0
086E8:  CALL   5994
086EC:  MOVFF  29B,6B5
086F0:  MOVLW  01
086F2:  MOVLB  6
086F4:  MOVWF  xB6
086F6:  MOVLB  0
086F8:  CALL   5A18
086FC:  MOVLW  3A
086FE:  BTFSS  F9E.4
08700:  BRA    86FE
08702:  MOVWF  FAD
08704:  MOVFF  29C,6B5
08708:  MOVLW  01
0870A:  MOVLB  6
0870C:  MOVWF  xB6
0870E:  MOVLB  0
08710:  CALL   5A18
08714:  MOVLW  3A
08716:  BTFSS  F9E.4
08718:  BRA    8716
0871A:  MOVWF  FAD
0871C:  MOVFF  29D,6B5
08720:  MOVLW  01
08722:  MOVLB  6
08724:  MOVWF  xB6
08726:  MOVLB  0
08728:  CALL   5A18
0872C:  MOVLW  22
0872E:  BTFSS  F9E.4
08730:  BRA    872E
08732:  MOVWF  FAD
....................       SendDataDisplay(); 
08734:  CALL   402C
....................       GuardaEEPROM=OFF; 
08738:  MOVLB  1
0873A:  BCF    x00.0
....................       printf("tuser.txt=\"%s\"",usuario); 
0873C:  MOVLW  D8
0873E:  MOVWF  FF6
08740:  MOVLW  08
08742:  MOVWF  FF7
08744:  MOVLW  00
08746:  MOVWF  FF8
08748:  MOVLW  0B
0874A:  MOVLB  6
0874C:  MOVWF  xB5
0874E:  MOVLB  0
08750:  CALL   5994
08754:  MOVLW  02
08756:  MOVWF  FEA
08758:  MOVLW  B6
0875A:  MOVWF  FE9
0875C:  CALL   59C6
08760:  MOVLW  22
08762:  BTFSS  F9E.4
08764:  BRA    8762
08766:  MOVWF  FAD
....................       SendDataDisplay(); 
08768:  CALL   402C
....................       codigoUsuarioant=codigoUsuario; 
0876C:  MOVFF  2B0,2B1
....................        
....................       if(RX_Buffer[4]==0x01 && RX_Buffer[5]==0x0f && estados[19+RX_Buffer[4]]){//01, Calentamiento 
08770:  DECFSZ 34,W
08772:  BRA    8806
08774:  MOVF   35,W
08776:  SUBLW  0F
08778:  BNZ   8806
0877A:  MOVLW  13
0877C:  ADDWF  34,W
0877E:  MOVLB  6
08780:  MOVWF  xB1
08782:  MOVLW  03
08784:  MOVWF  xB3
08786:  MOVLW  1C
08788:  MOVWF  xB2
0878A:  MOVLB  0
0878C:  CALL   23BA
08790:  BTFSS  01.0
08792:  BRA    8806
....................          delay_ms(5); 
08794:  MOVLW  05
08796:  MOVLB  6
08798:  MOVWF  xC2
0879A:  MOVLB  0
0879C:  CALL   1F7A
....................          if(RX_Buffer[4]==0x01 && RX_Buffer[5]==0x0f && estados[19+RX_Buffer[4]]){//01, Calentamiento 
087A0:  DECFSZ 34,W
087A2:  BRA    8806
087A4:  MOVF   35,W
087A6:  SUBLW  0F
087A8:  BNZ   8806
087AA:  MOVLW  13
087AC:  ADDWF  34,W
087AE:  MOVLB  6
087B0:  MOVWF  xB1
087B2:  MOVLW  03
087B4:  MOVWF  xB3
087B6:  MOVLW  1C
087B8:  MOVWF  xB2
087BA:  MOVLB  0
087BC:  CALL   23BA
087C0:  BTFSS  01.0
087C2:  BRA    8806
....................             printf("page Funcionamiento"); 
087C4:  MOVLW  E8
087C6:  MOVWF  FF6
087C8:  MOVLW  08
087CA:  MOVWF  FF7
087CC:  MOVLW  00
087CE:  MOVWF  FF8
087D0:  CALL   3FFA
....................             SendDataDisplay(); 
087D4:  CALL   402C
....................             ConfiguraCiclo(0,15,0,1,0,1,121,4,25,0); 
087D8:  MOVLB  6
087DA:  CLRF   xB8
087DC:  MOVLW  0F
087DE:  MOVWF  xB9
087E0:  CLRF   xBA
087E2:  MOVLW  01
087E4:  MOVWF  xBB
087E6:  CLRF   xBC
087E8:  MOVWF  xBD
087EA:  MOVLW  79
087EC:  MOVWF  xBE
087EE:  MOVLW  04
087F0:  MOVWF  xBF
087F2:  MOVLW  19
087F4:  MOVWF  xC0
087F6:  CLRF   xC1
087F8:  MOVLB  0
087FA:  CALL   5A96
....................             Op=OFF; 
087FE:  BCF    xFF.4
....................             Op2=OFF; 
08800:  BCF    xFF.5
....................             MenuAnt=Menu; 
08802:  MOVFF  259,25A
....................             //TiempoVacio=CantidadPulsos*180; 
....................          } 
....................       } 
....................        
....................       if(RX_Buffer[4]==0x02 && RX_Buffer[5]==0x0f && estados[19+RX_Buffer[4]]){//02, No Envueltos 134 
08806:  MOVF   34,W
08808:  SUBLW  02
0880A:  BNZ   88A2
0880C:  MOVF   35,W
0880E:  SUBLW  0F
08810:  BNZ   88A2
08812:  MOVLW  13
08814:  ADDWF  34,W
08816:  MOVLB  6
08818:  MOVWF  xB1
0881A:  MOVLW  03
0881C:  MOVWF  xB3
0881E:  MOVLW  1C
08820:  MOVWF  xB2
08822:  MOVLB  0
08824:  CALL   23BA
08828:  BTFSS  01.0
0882A:  BRA    88A2
....................          delay_ms(5); 
0882C:  MOVLW  05
0882E:  MOVLB  6
08830:  MOVWF  xC2
08832:  MOVLB  0
08834:  CALL   1F7A
....................          if(RX_Buffer[4]==0x02 && RX_Buffer[5]==0x0f && estados[19+RX_Buffer[4]]){ 
08838:  MOVF   34,W
0883A:  SUBLW  02
0883C:  BNZ   88A2
0883E:  MOVF   35,W
08840:  SUBLW  0F
08842:  BNZ   88A2
08844:  MOVLW  13
08846:  ADDWF  34,W
08848:  MOVLB  6
0884A:  MOVWF  xB1
0884C:  MOVLW  03
0884E:  MOVWF  xB3
08850:  MOVLW  1C
08852:  MOVWF  xB2
08854:  MOVLB  0
08856:  CALL   23BA
0885A:  BTFSS  01.0
0885C:  BRA    88A2
....................             printf("page Funcionamiento"); 
0885E:  MOVLW  FC
08860:  MOVWF  FF6
08862:  MOVLW  08
08864:  MOVWF  FF7
08866:  MOVLW  00
08868:  MOVWF  FF8
0886A:  CALL   3FFA
....................             SendDataDisplay();        
0886E:  CALL   402C
....................             ConfiguraCiclo(0,3,0,1,0,2,134,4,25,0);             
08872:  MOVLB  6
08874:  CLRF   xB8
08876:  MOVLW  03
08878:  MOVWF  xB9
0887A:  CLRF   xBA
0887C:  MOVLW  01
0887E:  MOVWF  xBB
08880:  CLRF   xBC
08882:  MOVLW  02
08884:  MOVWF  xBD
08886:  MOVLW  86
08888:  MOVWF  xBE
0888A:  MOVLW  04
0888C:  MOVWF  xBF
0888E:  MOVLW  19
08890:  MOVWF  xC0
08892:  CLRF   xC1
08894:  MOVLB  0
08896:  CALL   5A96
....................             Op=OFF; 
0889A:  BCF    xFF.4
....................             Op2=OFF; 
0889C:  BCF    xFF.5
....................             MenuAnt=Menu; 
0889E:  MOVFF  259,25A
....................             //TiempoVacio=CantidadPulsos*180; 
....................          } 
....................       } 
....................        
....................       if(RX_Buffer[4]==0x03  && RX_Buffer[5]==0x0f && estados[19+RX_Buffer[4]]){//03, No Envueltos 121 
088A2:  MOVF   34,W
088A4:  SUBLW  03
088A6:  BNZ   893E
088A8:  MOVF   35,W
088AA:  SUBLW  0F
088AC:  BNZ   893E
088AE:  MOVLW  13
088B0:  ADDWF  34,W
088B2:  MOVLB  6
088B4:  MOVWF  xB1
088B6:  MOVLW  03
088B8:  MOVWF  xB3
088BA:  MOVLW  1C
088BC:  MOVWF  xB2
088BE:  MOVLB  0
088C0:  CALL   23BA
088C4:  BTFSS  01.0
088C6:  BRA    893E
....................          delay_ms(5); 
088C8:  MOVLW  05
088CA:  MOVLB  6
088CC:  MOVWF  xC2
088CE:  MOVLB  0
088D0:  CALL   1F7A
....................          if(RX_Buffer[4]==0x03 && RX_Buffer[5]==0x0f && estados[19+RX_Buffer[4]]){ 
088D4:  MOVF   34,W
088D6:  SUBLW  03
088D8:  BNZ   893E
088DA:  MOVF   35,W
088DC:  SUBLW  0F
088DE:  BNZ   893E
088E0:  MOVLW  13
088E2:  ADDWF  34,W
088E4:  MOVLB  6
088E6:  MOVWF  xB1
088E8:  MOVLW  03
088EA:  MOVWF  xB3
088EC:  MOVLW  1C
088EE:  MOVWF  xB2
088F0:  MOVLB  0
088F2:  CALL   23BA
088F6:  BTFSS  01.0
088F8:  BRA    893E
....................             printf("page Funcionamiento"); 
088FA:  MOVLW  10
088FC:  MOVWF  FF6
088FE:  MOVLW  09
08900:  MOVWF  FF7
08902:  MOVLW  00
08904:  MOVWF  FF8
08906:  CALL   3FFA
....................             SendDataDisplay();      
0890A:  CALL   402C
....................             ConfiguraCiclo(0,15,0,1,0,3,121,4,25,0);   
0890E:  MOVLB  6
08910:  CLRF   xB8
08912:  MOVLW  0F
08914:  MOVWF  xB9
08916:  CLRF   xBA
08918:  MOVLW  01
0891A:  MOVWF  xBB
0891C:  CLRF   xBC
0891E:  MOVLW  03
08920:  MOVWF  xBD
08922:  MOVLW  79
08924:  MOVWF  xBE
08926:  MOVLW  04
08928:  MOVWF  xBF
0892A:  MOVLW  19
0892C:  MOVWF  xC0
0892E:  CLRF   xC1
08930:  MOVLB  0
08932:  CALL   5A96
....................             Op=OFF; 
08936:  BCF    xFF.4
....................             Op2=OFF; 
08938:  BCF    xFF.5
....................             MenuAnt=Menu; 
0893A:  MOVFF  259,25A
....................             //TiempoVacio=CantidadPulsos*180; 
....................          } 
....................       } 
....................        
....................       if(RX_Buffer[4]==0x04 && RX_Buffer[5]==0x0f && estados[19+RX_Buffer[4]]){//04, Envueltos 134 
0893E:  MOVF   34,W
08940:  SUBLW  04
08942:  BNZ   89DA
08944:  MOVF   35,W
08946:  SUBLW  0F
08948:  BNZ   89DA
0894A:  MOVLW  13
0894C:  ADDWF  34,W
0894E:  MOVLB  6
08950:  MOVWF  xB1
08952:  MOVLW  03
08954:  MOVWF  xB3
08956:  MOVLW  1C
08958:  MOVWF  xB2
0895A:  MOVLB  0
0895C:  CALL   23BA
08960:  BTFSS  01.0
08962:  BRA    89DA
....................          delay_ms(5); 
08964:  MOVLW  05
08966:  MOVLB  6
08968:  MOVWF  xC2
0896A:  MOVLB  0
0896C:  CALL   1F7A
....................          if(RX_Buffer[4]==0x04 && RX_Buffer[5]==0x0f && estados[19+RX_Buffer[4]]){ 
08970:  MOVF   34,W
08972:  SUBLW  04
08974:  BNZ   89DA
08976:  MOVF   35,W
08978:  SUBLW  0F
0897A:  BNZ   89DA
0897C:  MOVLW  13
0897E:  ADDWF  34,W
08980:  MOVLB  6
08982:  MOVWF  xB1
08984:  MOVLW  03
08986:  MOVWF  xB3
08988:  MOVLW  1C
0898A:  MOVWF  xB2
0898C:  MOVLB  0
0898E:  CALL   23BA
08992:  BTFSS  01.0
08994:  BRA    89DA
....................             printf("page Funcionamiento"); 
08996:  MOVLW  24
08998:  MOVWF  FF6
0899A:  MOVLW  09
0899C:  MOVWF  FF7
0899E:  MOVLW  00
089A0:  MOVWF  FF8
089A2:  CALL   3FFA
....................             SendDataDisplay();        
089A6:  CALL   402C
....................             ConfiguraCiclo(0,4,0,15,0,4,134,4,25,0);   
089AA:  MOVLB  6
089AC:  CLRF   xB8
089AE:  MOVLW  04
089B0:  MOVWF  xB9
089B2:  CLRF   xBA
089B4:  MOVLW  0F
089B6:  MOVWF  xBB
089B8:  CLRF   xBC
089BA:  MOVLW  04
089BC:  MOVWF  xBD
089BE:  MOVLW  86
089C0:  MOVWF  xBE
089C2:  MOVLW  04
089C4:  MOVWF  xBF
089C6:  MOVLW  19
089C8:  MOVWF  xC0
089CA:  CLRF   xC1
089CC:  MOVLB  0
089CE:  CALL   5A96
....................             Op=OFF; 
089D2:  BCF    xFF.4
....................             Op2=OFF; 
089D4:  BCF    xFF.5
....................             MenuAnt=Menu; 
089D6:  MOVFF  259,25A
....................             //TiempoVacio=CantidadPulsos*180; 
....................          } 
....................       } 
....................        
....................       if(RX_Buffer[4]==0x05 && RX_Buffer[5]==0x0f && estados[19+RX_Buffer[4]]){//05, Envueltos 121 
089DA:  MOVF   34,W
089DC:  SUBLW  05
089DE:  BNZ   8A86
089E0:  MOVF   35,W
089E2:  SUBLW  0F
089E4:  BNZ   8A86
089E6:  MOVLW  13
089E8:  ADDWF  34,W
089EA:  MOVLB  6
089EC:  MOVWF  xB1
089EE:  MOVLW  03
089F0:  MOVWF  xB3
089F2:  MOVLW  1C
089F4:  MOVWF  xB2
089F6:  MOVLB  0
089F8:  CALL   23BA
089FC:  BTFSS  01.0
089FE:  BRA    8A86
....................          delay_ms(5); 
08A00:  MOVLW  05
08A02:  MOVLB  6
08A04:  MOVWF  xC2
08A06:  MOVLB  0
08A08:  CALL   1F7A
....................          if(RX_Buffer[4]==0x05 && RX_Buffer[5]==0x0f && estados[19+RX_Buffer[4]]){ 
08A0C:  MOVF   34,W
08A0E:  SUBLW  05
08A10:  BNZ   8A86
08A12:  MOVF   35,W
08A14:  SUBLW  0F
08A16:  BNZ   8A86
08A18:  MOVLW  13
08A1A:  ADDWF  34,W
08A1C:  MOVLB  6
08A1E:  MOVWF  xB1
08A20:  MOVLW  03
08A22:  MOVWF  xB3
08A24:  MOVLW  1C
08A26:  MOVWF  xB2
08A28:  MOVLB  0
08A2A:  CALL   23BA
08A2E:  BTFSS  01.0
08A30:  BRA    8A86
....................             printf("page Funcionamiento"); 
08A32:  MOVLW  38
08A34:  MOVWF  FF6
08A36:  MOVLW  09
08A38:  MOVWF  FF7
08A3A:  MOVLW  00
08A3C:  MOVWF  FF8
08A3E:  CALL   3FFA
....................             SendDataDisplay();        
08A42:  CALL   402C
....................             ConfiguraCiclo(0,15,0,15,0,5,121,4,25,0);   
08A46:  MOVLB  6
08A48:  CLRF   xB8
08A4A:  MOVLW  0F
08A4C:  MOVWF  xB9
08A4E:  CLRF   xBA
08A50:  MOVWF  xBB
08A52:  CLRF   xBC
08A54:  MOVLW  05
08A56:  MOVWF  xBD
08A58:  MOVLW  79
08A5A:  MOVWF  xBE
08A5C:  MOVLW  04
08A5E:  MOVWF  xBF
08A60:  MOVLW  19
08A62:  MOVWF  xC0
08A64:  CLRF   xC1
08A66:  MOVLB  0
08A68:  CALL   5A96
....................             Op=OFF; 
08A6C:  BCF    xFF.4
....................             Op2=OFF; 
08A6E:  BCF    xFF.5
....................             MenuAnt=Menu; 
08A70:  MOVFF  259,25A
....................             CantidadPulsos=7; 
08A74:  MOVLB  2
08A76:  CLRF   x62
08A78:  MOVLW  07
08A7A:  MOVWF  x61
....................             NivelVacio=32; 
08A7C:  MOVLW  20
08A7E:  MOVWF  xA1
....................             Fugas=OFF; 
08A80:  MOVLB  1
08A82:  BCF    x01.5
08A84:  MOVLB  0
....................             //TiempoVacio=CantidadPulsos*180; 
....................          } 
....................       } 
....................        
....................       if(RX_Buffer[4]==0x06 && RX_Buffer[5]==0x0f && estados[19+RX_Buffer[4]]){//06, Envuelto Doble 1 
08A86:  MOVF   34,W
08A88:  SUBLW  06
08A8A:  BNZ   8B22
08A8C:  MOVF   35,W
08A8E:  SUBLW  0F
08A90:  BNZ   8B22
08A92:  MOVLW  13
08A94:  ADDWF  34,W
08A96:  MOVLB  6
08A98:  MOVWF  xB1
08A9A:  MOVLW  03
08A9C:  MOVWF  xB3
08A9E:  MOVLW  1C
08AA0:  MOVWF  xB2
08AA2:  MOVLB  0
08AA4:  CALL   23BA
08AA8:  BTFSS  01.0
08AAA:  BRA    8B22
....................          delay_ms(5); 
08AAC:  MOVLW  05
08AAE:  MOVLB  6
08AB0:  MOVWF  xC2
08AB2:  MOVLB  0
08AB4:  CALL   1F7A
....................          if(RX_Buffer[4]==0x06 && RX_Buffer[5]==0x0f && estados[19+RX_Buffer[4]]){ 
08AB8:  MOVF   34,W
08ABA:  SUBLW  06
08ABC:  BNZ   8B22
08ABE:  MOVF   35,W
08AC0:  SUBLW  0F
08AC2:  BNZ   8B22
08AC4:  MOVLW  13
08AC6:  ADDWF  34,W
08AC8:  MOVLB  6
08ACA:  MOVWF  xB1
08ACC:  MOVLW  03
08ACE:  MOVWF  xB3
08AD0:  MOVLW  1C
08AD2:  MOVWF  xB2
08AD4:  MOVLB  0
08AD6:  CALL   23BA
08ADA:  BTFSS  01.0
08ADC:  BRA    8B22
....................             printf("page Funcionamiento"); 
08ADE:  MOVLW  4C
08AE0:  MOVWF  FF6
08AE2:  MOVLW  09
08AE4:  MOVWF  FF7
08AE6:  MOVLW  00
08AE8:  MOVWF  FF8
08AEA:  CALL   3FFA
....................             SendDataDisplay();        
08AEE:  CALL   402C
....................             ConfiguraCiclo(0,7,0,20,0,6,134,4,25,0);   
08AF2:  MOVLB  6
08AF4:  CLRF   xB8
08AF6:  MOVLW  07
08AF8:  MOVWF  xB9
08AFA:  CLRF   xBA
08AFC:  MOVLW  14
08AFE:  MOVWF  xBB
08B00:  CLRF   xBC
08B02:  MOVLW  06
08B04:  MOVWF  xBD
08B06:  MOVLW  86
08B08:  MOVWF  xBE
08B0A:  MOVLW  04
08B0C:  MOVWF  xBF
08B0E:  MOVLW  19
08B10:  MOVWF  xC0
08B12:  CLRF   xC1
08B14:  MOVLB  0
08B16:  CALL   5A96
....................             Op=OFF; 
08B1A:  BCF    xFF.4
....................             Op2=OFF; 
08B1C:  BCF    xFF.5
....................             MenuAnt=Menu; 
08B1E:  MOVFF  259,25A
....................             //TiempoVacio=CantidadPulsos*180; 
....................          } 
....................       } 
....................        
....................       if(RX_Buffer[4]==0x07 && RX_Buffer[5]==0x0f && estados[19+RX_Buffer[4]]){//07, Envuelto Doble 2 
08B22:  MOVF   34,W
08B24:  SUBLW  07
08B26:  BNZ   8BBE
08B28:  MOVF   35,W
08B2A:  SUBLW  0F
08B2C:  BNZ   8BBE
08B2E:  MOVLW  13
08B30:  ADDWF  34,W
08B32:  MOVLB  6
08B34:  MOVWF  xB1
08B36:  MOVLW  03
08B38:  MOVWF  xB3
08B3A:  MOVLW  1C
08B3C:  MOVWF  xB2
08B3E:  MOVLB  0
08B40:  CALL   23BA
08B44:  BTFSS  01.0
08B46:  BRA    8BBE
....................          delay_ms(5); 
08B48:  MOVLW  05
08B4A:  MOVLB  6
08B4C:  MOVWF  xC2
08B4E:  MOVLB  0
08B50:  CALL   1F7A
....................          if(RX_Buffer[4]==0x07 && RX_Buffer[5]==0x0f && estados[19+RX_Buffer[4]]){ 
08B54:  MOVF   34,W
08B56:  SUBLW  07
08B58:  BNZ   8BBE
08B5A:  MOVF   35,W
08B5C:  SUBLW  0F
08B5E:  BNZ   8BBE
08B60:  MOVLW  13
08B62:  ADDWF  34,W
08B64:  MOVLB  6
08B66:  MOVWF  xB1
08B68:  MOVLW  03
08B6A:  MOVWF  xB3
08B6C:  MOVLW  1C
08B6E:  MOVWF  xB2
08B70:  MOVLB  0
08B72:  CALL   23BA
08B76:  BTFSS  01.0
08B78:  BRA    8BBE
....................             printf("page Funcionamiento"); 
08B7A:  MOVLW  60
08B7C:  MOVWF  FF6
08B7E:  MOVLW  09
08B80:  MOVWF  FF7
08B82:  MOVLW  00
08B84:  MOVWF  FF8
08B86:  CALL   3FFA
....................             SendDataDisplay();        
08B8A:  CALL   402C
....................             ConfiguraCiclo(0,7,0,30,0,7,134,4,25,0);   
08B8E:  MOVLB  6
08B90:  CLRF   xB8
08B92:  MOVLW  07
08B94:  MOVWF  xB9
08B96:  CLRF   xBA
08B98:  MOVLW  1E
08B9A:  MOVWF  xBB
08B9C:  CLRF   xBC
08B9E:  MOVLW  07
08BA0:  MOVWF  xBD
08BA2:  MOVLW  86
08BA4:  MOVWF  xBE
08BA6:  MOVLW  04
08BA8:  MOVWF  xBF
08BAA:  MOVLW  19
08BAC:  MOVWF  xC0
08BAE:  CLRF   xC1
08BB0:  MOVLB  0
08BB2:  CALL   5A96
....................             Op=OFF; 
08BB6:  BCF    xFF.4
....................             Op2=OFF; 
08BB8:  BCF    xFF.5
....................             MenuAnt=Menu; 
08BBA:  MOVFF  259,25A
....................             //TiempoVacio=CantidadPulsos*180; 
....................          } 
....................       } 
....................        
....................       if(RX_Buffer[4]==0x08 && RX_Buffer[5]==0x0f && estados[19+RX_Buffer[4]]){//08, Prion 
08BBE:  MOVF   34,W
08BC0:  SUBLW  08
08BC2:  BNZ   8C5A
08BC4:  MOVF   35,W
08BC6:  SUBLW  0F
08BC8:  BNZ   8C5A
08BCA:  MOVLW  13
08BCC:  ADDWF  34,W
08BCE:  MOVLB  6
08BD0:  MOVWF  xB1
08BD2:  MOVLW  03
08BD4:  MOVWF  xB3
08BD6:  MOVLW  1C
08BD8:  MOVWF  xB2
08BDA:  MOVLB  0
08BDC:  CALL   23BA
08BE0:  BTFSS  01.0
08BE2:  BRA    8C5A
....................          delay_ms(5); 
08BE4:  MOVLW  05
08BE6:  MOVLB  6
08BE8:  MOVWF  xC2
08BEA:  MOVLB  0
08BEC:  CALL   1F7A
....................          if(RX_Buffer[4]==0x08 && RX_Buffer[5]==0x0f && estados[19+RX_Buffer[4]]){ 
08BF0:  MOVF   34,W
08BF2:  SUBLW  08
08BF4:  BNZ   8C5A
08BF6:  MOVF   35,W
08BF8:  SUBLW  0F
08BFA:  BNZ   8C5A
08BFC:  MOVLW  13
08BFE:  ADDWF  34,W
08C00:  MOVLB  6
08C02:  MOVWF  xB1
08C04:  MOVLW  03
08C06:  MOVWF  xB3
08C08:  MOVLW  1C
08C0A:  MOVWF  xB2
08C0C:  MOVLB  0
08C0E:  CALL   23BA
08C12:  BTFSS  01.0
08C14:  BRA    8C5A
....................             printf("page Funcionamiento"); 
08C16:  MOVLW  74
08C18:  MOVWF  FF6
08C1A:  MOVLW  09
08C1C:  MOVWF  FF7
08C1E:  MOVLW  00
08C20:  MOVWF  FF8
08C22:  CALL   3FFA
....................             SendDataDisplay();        
08C26:  CALL   402C
....................             ConfiguraCiclo(0,20,0,15,0,8,134,4,25,0);   
08C2A:  MOVLB  6
08C2C:  CLRF   xB8
08C2E:  MOVLW  14
08C30:  MOVWF  xB9
08C32:  CLRF   xBA
08C34:  MOVLW  0F
08C36:  MOVWF  xBB
08C38:  CLRF   xBC
08C3A:  MOVLW  08
08C3C:  MOVWF  xBD
08C3E:  MOVLW  86
08C40:  MOVWF  xBE
08C42:  MOVLW  04
08C44:  MOVWF  xBF
08C46:  MOVLW  19
08C48:  MOVWF  xC0
08C4A:  CLRF   xC1
08C4C:  MOVLB  0
08C4E:  CALL   5A96
....................             Op=OFF; 
08C52:  BCF    xFF.4
....................             Op2=OFF; 
08C54:  BCF    xFF.5
....................             MenuAnt=Menu; 
08C56:  MOVFF  259,25A
....................             //TiempoVacio=CantidadPulsos*180; 
....................          } 
....................       } 
....................        
....................       if(RX_Buffer[4]==0x09 && RX_Buffer[5]==0x0f && estados[19+RX_Buffer[4]]){//09, Bowie & Dick 
08C5A:  MOVF   34,W
08C5C:  SUBLW  09
08C5E:  BNZ   8CF8
08C60:  MOVF   35,W
08C62:  SUBLW  0F
08C64:  BNZ   8CF8
08C66:  MOVLW  13
08C68:  ADDWF  34,W
08C6A:  MOVLB  6
08C6C:  MOVWF  xB1
08C6E:  MOVLW  03
08C70:  MOVWF  xB3
08C72:  MOVLW  1C
08C74:  MOVWF  xB2
08C76:  MOVLB  0
08C78:  CALL   23BA
08C7C:  BTFSS  01.0
08C7E:  BRA    8CF8
....................          delay_ms(5); 
08C80:  MOVLW  05
08C82:  MOVLB  6
08C84:  MOVWF  xC2
08C86:  MOVLB  0
08C88:  CALL   1F7A
....................          if(RX_Buffer[4]==0x09 && RX_Buffer[5]==0x0f && estados[19+RX_Buffer[4]]){ 
08C8C:  MOVF   34,W
08C8E:  SUBLW  09
08C90:  BNZ   8CF8
08C92:  MOVF   35,W
08C94:  SUBLW  0F
08C96:  BNZ   8CF8
08C98:  MOVLW  13
08C9A:  ADDWF  34,W
08C9C:  MOVLB  6
08C9E:  MOVWF  xB1
08CA0:  MOVLW  03
08CA2:  MOVWF  xB3
08CA4:  MOVLW  1C
08CA6:  MOVWF  xB2
08CA8:  MOVLB  0
08CAA:  CALL   23BA
08CAE:  BTFSS  01.0
08CB0:  BRA    8CF8
....................             printf("page Funcionamiento"); 
08CB2:  MOVLW  88
08CB4:  MOVWF  FF6
08CB6:  MOVLW  09
08CB8:  MOVWF  FF7
08CBA:  MOVLW  00
08CBC:  MOVWF  FF8
08CBE:  CALL   3FFA
....................             SendDataDisplay();        
08CC2:  CALL   402C
....................             ConfiguraCiclo(30,3,0,1,0,9,134,4,25,0);   
08CC6:  MOVLW  1E
08CC8:  MOVLB  6
08CCA:  MOVWF  xB8
08CCC:  MOVLW  03
08CCE:  MOVWF  xB9
08CD0:  CLRF   xBA
08CD2:  MOVLW  01
08CD4:  MOVWF  xBB
08CD6:  CLRF   xBC
08CD8:  MOVLW  09
08CDA:  MOVWF  xBD
08CDC:  MOVLW  86
08CDE:  MOVWF  xBE
08CE0:  MOVLW  04
08CE2:  MOVWF  xBF
08CE4:  MOVLW  19
08CE6:  MOVWF  xC0
08CE8:  CLRF   xC1
08CEA:  MOVLB  0
08CEC:  CALL   5A96
....................             Op=OFF; 
08CF0:  BCF    xFF.4
....................             Op2=OFF; 
08CF2:  BCF    xFF.5
....................             MenuAnt=Menu; 
08CF4:  MOVFF  259,25A
....................             //TiempoVacio=CantidadPulsos*180; 
....................          } 
....................       } 
....................        
....................       if(RX_Buffer[4]==0x0a && RX_Buffer[5]==0x0f && estados[19+RX_Buffer[4]]){//0a, Test de Fugas 
08CF8:  MOVF   34,W
08CFA:  SUBLW  0A
08CFC:  BNZ   8D90
08CFE:  MOVF   35,W
08D00:  SUBLW  0F
08D02:  BNZ   8D90
08D04:  MOVLW  13
08D06:  ADDWF  34,W
08D08:  MOVLB  6
08D0A:  MOVWF  xB1
08D0C:  MOVLW  03
08D0E:  MOVWF  xB3
08D10:  MOVLW  1C
08D12:  MOVWF  xB2
08D14:  MOVLB  0
08D16:  CALL   23BA
08D1A:  BTFSS  01.0
08D1C:  BRA    8D90
....................          delay_ms(5); 
08D1E:  MOVLW  05
08D20:  MOVLB  6
08D22:  MOVWF  xC2
08D24:  MOVLB  0
08D26:  CALL   1F7A
....................          if(RX_Buffer[4]==0x0a && RX_Buffer[5]==0x0f && estados[19+RX_Buffer[4]]){ 
08D2A:  MOVF   34,W
08D2C:  SUBLW  0A
08D2E:  BNZ   8D90
08D30:  MOVF   35,W
08D32:  SUBLW  0F
08D34:  BNZ   8D90
08D36:  MOVLW  13
08D38:  ADDWF  34,W
08D3A:  MOVLB  6
08D3C:  MOVWF  xB1
08D3E:  MOVLW  03
08D40:  MOVWF  xB3
08D42:  MOVLW  1C
08D44:  MOVWF  xB2
08D46:  MOVLB  0
08D48:  CALL   23BA
08D4C:  BTFSS  01.0
08D4E:  BRA    8D90
....................             printf("page Funcionamiento"); 
08D50:  MOVLW  9C
08D52:  MOVWF  FF6
08D54:  MOVLW  09
08D56:  MOVWF  FF7
08D58:  MOVLW  00
08D5A:  MOVWF  FF8
08D5C:  CALL   3FFA
....................             SendDataDisplay();        
08D60:  CALL   402C
....................             ConfiguraCiclo(0,20,0,0,0,6,30,1,17,1); 
08D64:  MOVLB  6
08D66:  CLRF   xB8
08D68:  MOVLW  14
08D6A:  MOVWF  xB9
08D6C:  CLRF   xBA
08D6E:  CLRF   xBB
08D70:  CLRF   xBC
08D72:  MOVLW  06
08D74:  MOVWF  xBD
08D76:  MOVLW  1E
08D78:  MOVWF  xBE
08D7A:  MOVLW  01
08D7C:  MOVWF  xBF
08D7E:  MOVLW  11
08D80:  MOVWF  xC0
08D82:  MOVLW  01
08D84:  MOVWF  xC1
08D86:  MOVLB  0
08D88:  CALL   5A96
....................             MenuAnt=Menu; 
08D8C:  MOVFF  259,25A
....................             //TiempoVacio=CantidadPulsos*180; 
....................          } 
....................       } 
....................        
....................       if(RX_Buffer[4]==0xa0){//a0, Ciclos Fijos 
08D90:  MOVF   34,W
08D92:  SUBLW  A0
08D94:  BNZ   8DAA
....................          printf("page Menu"); 
08D96:  MOVLW  B0
08D98:  MOVWF  FF6
08D9A:  MOVLW  09
08D9C:  MOVWF  FF7
08D9E:  MOVLW  00
08DA0:  MOVWF  FF8
08DA2:  CALL   3FFA
....................          SendDataDisplay();      
08DA6:  CALL   402C
....................       } 
....................        
....................       if(RX_Buffer[4]==0xb0){//b0, Personalizados 
08DAA:  MOVF   34,W
08DAC:  SUBLW  B0
08DAE:  BNZ   8DC4
....................          printf("page CicloPersona"); 
08DB0:  MOVLW  BA
08DB2:  MOVWF  FF6
08DB4:  MOVLW  09
08DB6:  MOVWF  FF7
08DB8:  MOVLW  00
08DBA:  MOVWF  FF8
08DBC:  CALL   3FFA
....................          SendDataDisplay();      
08DC0:  CALL   402C
....................       } 
....................        
....................       if(RX_Buffer[4]==0xc0){//c0, Configuraciones 
08DC4:  MOVF   34,W
08DC6:  SUBLW  C0
08DC8:  BNZ   8DEC
....................          if(codigoUsuario==0 || codigoUsuario==9){        
08DCA:  MOVLB  2
08DCC:  MOVF   xB0,F
08DCE:  BZ    8DD6
08DD0:  MOVF   xB0,W
08DD2:  SUBLW  09
08DD4:  BNZ   8DEE
....................             printf("page Ajustes"); 
08DD6:  MOVLW  CC
08DD8:  MOVWF  FF6
08DDA:  MOVLW  09
08DDC:  MOVWF  FF7
08DDE:  MOVLW  00
08DE0:  MOVWF  FF8
08DE2:  MOVLB  0
08DE4:  CALL   3FFA
....................             SendDataDisplay();      
08DE8:  CALL   402C
08DEC:  MOVLB  2
....................          } 
....................       } 
....................    } 
.................... //_--------------------------------------------------------------------------------------------------------------------------------------------------------        
....................  
.................... //_-------------------------------------------------------------------------------------------------------------------------------------------------------- 
....................       if(Menu==2){ //Menu de Tiempo Esterilizacion      
08DEE:  MOVF   x59,W
08DF0:  SUBLW  02
08DF2:  BTFSS  FD8.2
08DF4:  BRA    90CE
....................          printf("fecha.txt=\"Fecha:%02u/%02u/20%02u    Hora: %02u:%02u:%02u\"",Dia,Mes,Year,Hora,Minuto,Segundo); 
08DF6:  MOVLW  DA
08DF8:  MOVWF  FF6
08DFA:  MOVLW  09
08DFC:  MOVWF  FF7
08DFE:  MOVLW  00
08E00:  MOVWF  FF8
08E02:  MOVLW  11
08E04:  MOVLB  6
08E06:  MOVWF  xB5
08E08:  MOVLB  0
08E0A:  CALL   5994
08E0E:  MOVFF  29A,6B5
08E12:  MOVLW  01
08E14:  MOVLB  6
08E16:  MOVWF  xB6
08E18:  MOVLB  0
08E1A:  CALL   5A18
08E1E:  MOVLW  2F
08E20:  BTFSS  F9E.4
08E22:  BRA    8E20
08E24:  MOVWF  FAD
08E26:  MOVFF  299,6B5
08E2A:  MOVLW  01
08E2C:  MOVLB  6
08E2E:  MOVWF  xB6
08E30:  MOVLB  0
08E32:  CALL   5A18
08E36:  MOVLW  2F
08E38:  BTFSS  F9E.4
08E3A:  BRA    8E38
08E3C:  MOVWF  FAD
08E3E:  MOVLW  32
08E40:  BTFSS  F9E.4
08E42:  BRA    8E40
08E44:  MOVWF  FAD
08E46:  MOVLW  30
08E48:  BTFSS  F9E.4
08E4A:  BRA    8E48
08E4C:  MOVWF  FAD
08E4E:  MOVFF  298,6B5
08E52:  MOVLW  01
08E54:  MOVLB  6
08E56:  MOVWF  xB6
08E58:  MOVLB  0
08E5A:  CALL   5A18
08E5E:  MOVLW  FB
08E60:  MOVWF  FF6
08E62:  MOVLW  09
08E64:  MOVWF  FF7
08E66:  MOVLW  00
08E68:  MOVWF  FF8
08E6A:  MOVLW  0A
08E6C:  MOVLB  6
08E6E:  MOVWF  xB5
08E70:  MOVLB  0
08E72:  CALL   5994
08E76:  MOVFF  29B,6B5
08E7A:  MOVLW  01
08E7C:  MOVLB  6
08E7E:  MOVWF  xB6
08E80:  MOVLB  0
08E82:  CALL   5A18
08E86:  MOVLW  3A
08E88:  BTFSS  F9E.4
08E8A:  BRA    8E88
08E8C:  MOVWF  FAD
08E8E:  MOVFF  29C,6B5
08E92:  MOVLW  01
08E94:  MOVLB  6
08E96:  MOVWF  xB6
08E98:  MOVLB  0
08E9A:  CALL   5A18
08E9E:  MOVLW  3A
08EA0:  BTFSS  F9E.4
08EA2:  BRA    8EA0
08EA4:  MOVWF  FAD
08EA6:  MOVFF  29D,6B5
08EAA:  MOVLW  01
08EAC:  MOVLB  6
08EAE:  MOVWF  xB6
08EB0:  MOVLB  0
08EB2:  CALL   5A18
08EB6:  MOVLW  22
08EB8:  BTFSS  F9E.4
08EBA:  BRA    8EB8
08EBC:  MOVWF  FAD
....................          SendDataDisplay(); 
08EBE:  CALL   402C
....................          if(RX_Buffer[4]==0x0a){//Selecciono Minutos 
08EC2:  MOVF   34,W
08EC4:  SUBLW  0A
08EC6:  BNZ   8ECC
....................             Minutos=ON; 
08EC8:  BSF    xFF.6
....................             Segundos=OFF; 
08ECA:  BCF    xFF.7
....................          } 
....................           
....................          if(RX_Buffer[4]==0x0b){//Selecciono Segundos 
08ECC:  MOVF   34,W
08ECE:  SUBLW  0B
08ED0:  BNZ   8ED6
....................             Segundos=ON; 
08ED2:  BSF    xFF.7
....................             Minutos=OFF; 
08ED4:  BCF    xFF.6
....................          }            
....................           
....................          if(RX_Buffer[4]==0x11){//Selecciono Regresar             
08ED6:  MOVF   34,W
08ED8:  SUBLW  11
08EDA:  BTFSS  FD8.2
08EDC:  BRA    8FF6
....................                Segundos=OFF; 
08EDE:  BCF    xFF.7
....................                Minutos=OFF; 
08EE0:  BCF    xFF.6
....................                printf("page CicloPersona"); 
08EE2:  MOVLW  16
08EE4:  MOVWF  FF6
08EE6:  MOVLW  0A
08EE8:  MOVWF  FF7
08EEA:  MOVLW  00
08EEC:  MOVWF  FF8
08EEE:  CALL   3FFA
....................                SendDataDisplay();   
08EF2:  CALL   402C
....................                if(!GuardaEEPROM){ 
08EF6:  MOVLB  1
08EF8:  BTFSC  x00.0
08EFA:  BRA    8FF4
....................                   CiclosPersonalizados[CicloLibre-1].Minutoest=mEstp; 
08EFC:  MOVLW  01
08EFE:  MOVLB  2
08F00:  SUBWF  x4F,W
08F02:  MULLW  08
08F04:  MOVF   FF3,W
08F06:  MOVLB  6
08F08:  CLRF   xB1
08F0A:  MOVWF  xB0
08F0C:  MOVLW  01
08F0E:  ADDWF  xB0,W
08F10:  MOVWF  01
08F12:  MOVLW  00
08F14:  ADDWFC xB1,W
08F16:  MOVWF  03
08F18:  MOVF   01,W
08F1A:  ADDLW  E8
08F1C:  MOVWF  FE9
08F1E:  MOVLW  05
08F20:  ADDWFC 03,W
08F22:  MOVWF  FEA
08F24:  MOVFF  118,FEF
....................                   CiclosPersonalizados[CicloLibre-1].Segundoest=sEstp; 
08F28:  MOVLW  01
08F2A:  MOVLB  2
08F2C:  SUBWF  x4F,W
08F2E:  MULLW  08
08F30:  MOVF   FF3,W
08F32:  MOVLB  6
08F34:  CLRF   xB1
08F36:  MOVWF  xB0
08F38:  MOVLW  02
08F3A:  ADDWF  xB0,W
08F3C:  MOVWF  01
08F3E:  MOVLW  00
08F40:  ADDWFC xB1,W
08F42:  MOVWF  03
08F44:  MOVF   01,W
08F46:  ADDLW  E8
08F48:  MOVWF  FE9
08F4A:  MOVLW  05
08F4C:  ADDWFC 03,W
08F4E:  MOVWF  FEA
08F50:  MOVFF  117,FEF
....................                   write_eeprom(101+((CicloLibre-1)*8),mEstp); 
08F54:  MOVLW  01
08F56:  MOVLB  2
08F58:  SUBWF  x4F,W
08F5A:  MULLW  08
08F5C:  MOVF   FF3,W
08F5E:  ADDLW  65
08F60:  MOVLB  6
08F62:  MOVWF  xB0
08F64:  CLRF   FAA
08F66:  MOVFF  6B0,FA9
08F6A:  MOVFF  118,FA8
08F6E:  BCF    FA6.6
08F70:  BCF    FA6.7
08F72:  BSF    FA6.2
08F74:  MOVF   FF2,W
08F76:  MOVWF  00
08F78:  BCF    FF2.6
08F7A:  BCF    FF2.7
08F7C:  MOVLB  F
08F7E:  MOVLW  55
08F80:  MOVWF  FA7
08F82:  MOVLW  AA
08F84:  MOVWF  FA7
08F86:  BSF    FA6.1
08F88:  BTFSC  FA6.1
08F8A:  BRA    8F88
08F8C:  BCF    FA6.2
08F8E:  MOVF   00,W
08F90:  IORWF  FF2,F
....................                   delay_ms(10); 
08F92:  MOVLW  0A
08F94:  MOVLB  6
08F96:  MOVWF  xC2
08F98:  MOVLB  0
08F9A:  CALL   1F7A
....................                   write_eeprom(102+((CicloLibre-1)*8),sEstp); 
08F9E:  MOVLW  01
08FA0:  MOVLB  2
08FA2:  SUBWF  x4F,W
08FA4:  MULLW  08
08FA6:  MOVF   FF3,W
08FA8:  ADDLW  66
08FAA:  MOVLB  6
08FAC:  MOVWF  xB0
08FAE:  CLRF   FAA
08FB0:  MOVFF  6B0,FA9
08FB4:  MOVFF  117,FA8
08FB8:  BCF    FA6.6
08FBA:  BCF    FA6.7
08FBC:  BSF    FA6.2
08FBE:  MOVF   FF2,W
08FC0:  MOVWF  00
08FC2:  BCF    FF2.6
08FC4:  BCF    FF2.7
08FC6:  MOVLB  F
08FC8:  MOVLW  55
08FCA:  MOVWF  FA7
08FCC:  MOVLW  AA
08FCE:  MOVWF  FA7
08FD0:  BSF    FA6.1
08FD2:  BTFSC  FA6.1
08FD4:  BRA    8FD2
08FD6:  BCF    FA6.2
08FD8:  MOVF   00,W
08FDA:  IORWF  FF2,F
....................                   delay_ms(10); 
08FDC:  MOVLW  0A
08FDE:  MOVLB  6
08FE0:  MOVWF  xC2
08FE2:  MOVLB  0
08FE4:  CALL   1F7A
....................                   mEst=mEstp; 
08FE8:  MOVFF  118,114
....................                   sEst=sEstp; 
08FEC:  MOVFF  117,113
....................                   GuardaEEPROM=ON; 
08FF0:  MOVLB  1
08FF2:  BSF    x00.0
08FF4:  MOVLB  0
....................                } 
....................          } 
....................           
....................          if(RX_Buffer[4]==0x0c || RX_Buffer[4]==0x0d){//Tecla arriba Oprimida 
08FF6:  MOVF   34,W
08FF8:  SUBLW  0C
08FFA:  BZ    9002
08FFC:  MOVF   34,W
08FFE:  SUBLW  0D
09000:  BNZ   901A
....................             if(Segundos){ 
09002:  BTFSS  xFF.7
09004:  BRA    900C
....................                sEstp++; 
09006:  MOVLB  1
09008:  INCF   x17,F
0900A:  MOVLB  0
....................             } 
....................             if(Minutos){ 
0900C:  BTFSS  xFF.6
0900E:  BRA    9016
....................                mEstp++; 
09010:  MOVLB  1
09012:  INCF   x18,F
09014:  MOVLB  0
....................             }   
....................             RX_Buffer[4]=0x00;   
09016:  CLRF   34
....................             RX_Buffer2[4]=0x00; 
09018:  CLRF   3F
....................          } 
....................           
....................          if(RX_Buffer[4]==0x0f || RX_Buffer[4]==0x0e){//Tecla abajo oprimida 
0901A:  MOVF   34,W
0901C:  SUBLW  0F
0901E:  BZ    9026
09020:  MOVF   34,W
09022:  SUBLW  0E
09024:  BNZ   9048
....................             if(Segundos && sEstp>0){ 
09026:  BTFSS  xFF.7
09028:  BRA    903A
0902A:  MOVLB  1
0902C:  MOVF   x17,F
0902E:  BTFSS  FD8.2
09030:  BRA    9036
09032:  MOVLB  0
09034:  BRA    903A
....................                sEstp--; 
09036:  DECF   x17,F
09038:  MOVLB  0
....................             } 
....................             if(Minutos){ 
0903A:  BTFSS  xFF.6
0903C:  BRA    9044
....................                mEstp--; 
0903E:  MOVLB  1
09040:  DECF   x18,F
09042:  MOVLB  0
....................             } 
....................             RX_Buffer[4]=0x00;   
09044:  CLRF   34
....................             RX_Buffer2[4]=0x00; 
09046:  CLRF   3F
....................          } 
....................           
....................          if(mEstp<1)mEstp=99; 
09048:  MOVLB  1
0904A:  MOVF   x18,F
0904C:  BNZ   9052
0904E:  MOVLW  63
09050:  MOVWF  x18
....................          if(mEstp>99)mEstp=1; 
09052:  MOVF   x18,W
09054:  SUBLW  63
09056:  BC    905C
09058:  MOVLW  01
0905A:  MOVWF  x18
....................          if(sEstp>59)sEstp=0; 
0905C:  MOVF   x17,W
0905E:  SUBLW  3B
09060:  BTFSS  FD8.0
09062:  CLRF   x17
....................              
....................          printf("tminest.txt=\"%02u\"",mEstp); 
09064:  MOVLW  28
09066:  MOVWF  FF6
09068:  MOVLW  0A
0906A:  MOVWF  FF7
0906C:  MOVLW  00
0906E:  MOVWF  FF8
09070:  MOVLW  0D
09072:  MOVLB  6
09074:  MOVWF  xB5
09076:  MOVLB  0
09078:  CALL   5994
0907C:  MOVFF  118,6B5
09080:  MOVLW  01
09082:  MOVLB  6
09084:  MOVWF  xB6
09086:  MOVLB  0
09088:  CALL   5A18
0908C:  MOVLW  22
0908E:  BTFSS  F9E.4
09090:  BRA    908E
09092:  MOVWF  FAD
....................          SendDataDisplay(); 
09094:  CALL   402C
....................          printf("tsecest.txt=\"%02u\"",sEstp); 
09098:  MOVLW  3C
0909A:  MOVWF  FF6
0909C:  MOVLW  0A
0909E:  MOVWF  FF7
090A0:  MOVLW  00
090A2:  MOVWF  FF8
090A4:  MOVLW  0D
090A6:  MOVLB  6
090A8:  MOVWF  xB5
090AA:  MOVLB  0
090AC:  CALL   5994
090B0:  MOVFF  117,6B5
090B4:  MOVLW  01
090B6:  MOVLB  6
090B8:  MOVWF  xB6
090BA:  MOVLB  0
090BC:  CALL   5A18
090C0:  MOVLW  22
090C2:  BTFSS  F9E.4
090C4:  BRA    90C2
090C6:  MOVWF  FAD
....................          SendDataDisplay(); 
090C8:  CALL   402C
090CC:  MOVLB  2
....................     } 
.................... //_--------------------------------------------------------------------------------------------------------------------------------------------------------        
....................  
.................... //_-------------------------------------------------------------------------------------------------------------------------------------------------------- 
....................     if(Menu==3){ //Menu de Tiempo de Secado 
090CE:  MOVF   x59,W
090D0:  SUBLW  03
090D2:  BTFSS  FD8.2
090D4:  BRA    93AE
....................       printf("fecha.txt=\"Fecha:%02u/%02u/20%02u    Hora: %02u:%02u:%02u\"",Dia,Mes,Year,Hora,Minuto,Segundo); 
090D6:  MOVLW  50
090D8:  MOVWF  FF6
090DA:  MOVLW  0A
090DC:  MOVWF  FF7
090DE:  MOVLW  00
090E0:  MOVWF  FF8
090E2:  MOVLW  11
090E4:  MOVLB  6
090E6:  MOVWF  xB5
090E8:  MOVLB  0
090EA:  CALL   5994
090EE:  MOVFF  29A,6B5
090F2:  MOVLW  01
090F4:  MOVLB  6
090F6:  MOVWF  xB6
090F8:  MOVLB  0
090FA:  CALL   5A18
090FE:  MOVLW  2F
09100:  BTFSS  F9E.4
09102:  BRA    9100
09104:  MOVWF  FAD
09106:  MOVFF  299,6B5
0910A:  MOVLW  01
0910C:  MOVLB  6
0910E:  MOVWF  xB6
09110:  MOVLB  0
09112:  CALL   5A18
09116:  MOVLW  2F
09118:  BTFSS  F9E.4
0911A:  BRA    9118
0911C:  MOVWF  FAD
0911E:  MOVLW  32
09120:  BTFSS  F9E.4
09122:  BRA    9120
09124:  MOVWF  FAD
09126:  MOVLW  30
09128:  BTFSS  F9E.4
0912A:  BRA    9128
0912C:  MOVWF  FAD
0912E:  MOVFF  298,6B5
09132:  MOVLW  01
09134:  MOVLB  6
09136:  MOVWF  xB6
09138:  MOVLB  0
0913A:  CALL   5A18
0913E:  MOVLW  71
09140:  MOVWF  FF6
09142:  MOVLW  0A
09144:  MOVWF  FF7
09146:  MOVLW  00
09148:  MOVWF  FF8
0914A:  MOVLW  0A
0914C:  MOVLB  6
0914E:  MOVWF  xB5
09150:  MOVLB  0
09152:  CALL   5994
09156:  MOVFF  29B,6B5
0915A:  MOVLW  01
0915C:  MOVLB  6
0915E:  MOVWF  xB6
09160:  MOVLB  0
09162:  CALL   5A18
09166:  MOVLW  3A
09168:  BTFSS  F9E.4
0916A:  BRA    9168
0916C:  MOVWF  FAD
0916E:  MOVFF  29C,6B5
09172:  MOVLW  01
09174:  MOVLB  6
09176:  MOVWF  xB6
09178:  MOVLB  0
0917A:  CALL   5A18
0917E:  MOVLW  3A
09180:  BTFSS  F9E.4
09182:  BRA    9180
09184:  MOVWF  FAD
09186:  MOVFF  29D,6B5
0918A:  MOVLW  01
0918C:  MOVLB  6
0918E:  MOVWF  xB6
09190:  MOVLB  0
09192:  CALL   5A18
09196:  MOVLW  22
09198:  BTFSS  F9E.4
0919A:  BRA    9198
0919C:  MOVWF  FAD
....................       SendDataDisplay();             
0919E:  CALL   402C
....................              
....................          if(RX_Buffer[4]==0x0a){//Selecciono Minutos 
091A2:  MOVF   34,W
091A4:  SUBLW  0A
091A6:  BNZ   91AC
....................             Minutos=ON; 
091A8:  BSF    xFF.6
....................             Segundos=OFF; 
091AA:  BCF    xFF.7
....................          } 
....................           
....................          if(RX_Buffer[4]==0x0b){//Selecciono Segundos 
091AC:  MOVF   34,W
091AE:  SUBLW  0B
091B0:  BNZ   91B6
....................             Segundos=ON; 
091B2:  BSF    xFF.7
....................             Minutos=OFF; 
091B4:  BCF    xFF.6
....................          } 
....................           
....................          if(RX_Buffer[4]==0x11){//Selecciono Regresar 
091B6:  MOVF   34,W
091B8:  SUBLW  11
091BA:  BTFSS  FD8.2
091BC:  BRA    92D6
....................             Segundos=OFF; 
091BE:  BCF    xFF.7
....................             Minutos=OFF; 
091C0:  BCF    xFF.6
....................             printf("page CicloPersona"); 
091C2:  MOVLW  8C
091C4:  MOVWF  FF6
091C6:  MOVLW  0A
091C8:  MOVWF  FF7
091CA:  MOVLW  00
091CC:  MOVWF  FF8
091CE:  CALL   3FFA
....................             SendDataDisplay();   
091D2:  CALL   402C
....................             if(!GuardaEEPROM){ 
091D6:  MOVLB  1
091D8:  BTFSC  x00.0
091DA:  BRA    92D4
....................                CiclosPersonalizados[CicloLibre-1].Minutosec=mSecp; 
091DC:  MOVLW  01
091DE:  MOVLB  2
091E0:  SUBWF  x4F,W
091E2:  MULLW  08
091E4:  MOVF   FF3,W
091E6:  MOVLB  6
091E8:  CLRF   xB1
091EA:  MOVWF  xB0
091EC:  MOVLW  03
091EE:  ADDWF  xB0,W
091F0:  MOVWF  01
091F2:  MOVLW  00
091F4:  ADDWFC xB1,W
091F6:  MOVWF  03
091F8:  MOVF   01,W
091FA:  ADDLW  E8
091FC:  MOVWF  FE9
091FE:  MOVLW  05
09200:  ADDWFC 03,W
09202:  MOVWF  FEA
09204:  MOVFF  11A,FEF
....................                CiclosPersonalizados[CicloLibre-1].Segundosec=sSecp; 
09208:  MOVLW  01
0920A:  MOVLB  2
0920C:  SUBWF  x4F,W
0920E:  MULLW  08
09210:  MOVF   FF3,W
09212:  MOVLB  6
09214:  CLRF   xB1
09216:  MOVWF  xB0
09218:  MOVLW  04
0921A:  ADDWF  xB0,W
0921C:  MOVWF  01
0921E:  MOVLW  00
09220:  ADDWFC xB1,W
09222:  MOVWF  03
09224:  MOVF   01,W
09226:  ADDLW  E8
09228:  MOVWF  FE9
0922A:  MOVLW  05
0922C:  ADDWFC 03,W
0922E:  MOVWF  FEA
09230:  MOVFF  119,FEF
....................                write_eeprom(103+((CicloLibre-1)*8),mSecp); 
09234:  MOVLW  01
09236:  MOVLB  2
09238:  SUBWF  x4F,W
0923A:  MULLW  08
0923C:  MOVF   FF3,W
0923E:  ADDLW  67
09240:  MOVLB  6
09242:  MOVWF  xB0
09244:  CLRF   FAA
09246:  MOVFF  6B0,FA9
0924A:  MOVFF  11A,FA8
0924E:  BCF    FA6.6
09250:  BCF    FA6.7
09252:  BSF    FA6.2
09254:  MOVF   FF2,W
09256:  MOVWF  00
09258:  BCF    FF2.6
0925A:  BCF    FF2.7
0925C:  MOVLB  F
0925E:  MOVLW  55
09260:  MOVWF  FA7
09262:  MOVLW  AA
09264:  MOVWF  FA7
09266:  BSF    FA6.1
09268:  BTFSC  FA6.1
0926A:  BRA    9268
0926C:  BCF    FA6.2
0926E:  MOVF   00,W
09270:  IORWF  FF2,F
....................                delay_ms(10); 
09272:  MOVLW  0A
09274:  MOVLB  6
09276:  MOVWF  xC2
09278:  MOVLB  0
0927A:  CALL   1F7A
....................                write_eeprom(104+((CicloLibre-1)*8),sSecp); 
0927E:  MOVLW  01
09280:  MOVLB  2
09282:  SUBWF  x4F,W
09284:  MULLW  08
09286:  MOVF   FF3,W
09288:  ADDLW  68
0928A:  MOVLB  6
0928C:  MOVWF  xB0
0928E:  CLRF   FAA
09290:  MOVFF  6B0,FA9
09294:  MOVFF  119,FA8
09298:  BCF    FA6.6
0929A:  BCF    FA6.7
0929C:  BSF    FA6.2
0929E:  MOVF   FF2,W
092A0:  MOVWF  00
092A2:  BCF    FF2.6
092A4:  BCF    FF2.7
092A6:  MOVLB  F
092A8:  MOVLW  55
092AA:  MOVWF  FA7
092AC:  MOVLW  AA
092AE:  MOVWF  FA7
092B0:  BSF    FA6.1
092B2:  BTFSC  FA6.1
092B4:  BRA    92B2
092B6:  BCF    FA6.2
092B8:  MOVF   00,W
092BA:  IORWF  FF2,F
....................                delay_ms(10); 
092BC:  MOVLW  0A
092BE:  MOVLB  6
092C0:  MOVWF  xC2
092C2:  MOVLB  0
092C4:  CALL   1F7A
....................                mSec=mSecp; 
092C8:  MOVFF  11A,116
....................                sSec=sSecp; 
092CC:  MOVFF  119,115
....................                GuardaEEPROM=ON; 
092D0:  MOVLB  1
092D2:  BSF    x00.0
092D4:  MOVLB  0
....................             } 
....................          } 
....................           
....................          if(RX_Buffer[4]==0x0c || RX_Buffer[4]==0x0d){//Tecla Derecha Oprimida 
092D6:  MOVF   34,W
092D8:  SUBLW  0C
092DA:  BZ    92E2
092DC:  MOVF   34,W
092DE:  SUBLW  0D
092E0:  BNZ   92FA
....................             if(Segundos){ 
092E2:  BTFSS  xFF.7
092E4:  BRA    92EC
....................                sSecp++; 
092E6:  MOVLB  1
092E8:  INCF   x19,F
092EA:  MOVLB  0
....................             } 
....................             if(Minutos){ 
092EC:  BTFSS  xFF.6
092EE:  BRA    92F6
....................                mSecp++; 
092F0:  MOVLB  1
092F2:  INCF   x1A,F
092F4:  MOVLB  0
....................             }   
....................             RX_Buffer[4]=0x00;   
092F6:  CLRF   34
....................             RX_Buffer2[4]=0x00;  
092F8:  CLRF   3F
....................          } 
....................           
....................          if(RX_Buffer[4]==0x0f || RX_Buffer[4]==0x0e){//Tecla Izquierda Oprimida 
092FA:  MOVF   34,W
092FC:  SUBLW  0F
092FE:  BZ    9306
09300:  MOVF   34,W
09302:  SUBLW  0E
09304:  BNZ   9328
....................             if(Segundos && sSecp>0){ 
09306:  BTFSS  xFF.7
09308:  BRA    931A
0930A:  MOVLB  1
0930C:  MOVF   x19,F
0930E:  BTFSS  FD8.2
09310:  BRA    9316
09312:  MOVLB  0
09314:  BRA    931A
....................                sSecp--; 
09316:  DECF   x19,F
09318:  MOVLB  0
....................             } 
....................             if(Minutos){ 
0931A:  BTFSS  xFF.6
0931C:  BRA    9324
....................                mSecp--; 
0931E:  MOVLB  1
09320:  DECF   x1A,F
09322:  MOVLB  0
....................             }  
....................             RX_Buffer[4]=0x00;   
09324:  CLRF   34
....................             RX_Buffer2[4]=0x00;             
09326:  CLRF   3F
....................          } 
....................          if(mSecp<1)mSecp=99; 
09328:  MOVLB  1
0932A:  MOVF   x1A,F
0932C:  BNZ   9332
0932E:  MOVLW  63
09330:  MOVWF  x1A
....................          if(mSecp>99)mSecp=1; 
09332:  MOVF   x1A,W
09334:  SUBLW  63
09336:  BC    933C
09338:  MOVLW  01
0933A:  MOVWF  x1A
....................          if(sSecp>59)mSecp=0; 
0933C:  MOVF   x19,W
0933E:  SUBLW  3B
09340:  BTFSS  FD8.0
09342:  CLRF   x1A
....................              
....................       printf("tminsec.txt=\"%02u\"",mSecp); 
09344:  MOVLW  9E
09346:  MOVWF  FF6
09348:  MOVLW  0A
0934A:  MOVWF  FF7
0934C:  MOVLW  00
0934E:  MOVWF  FF8
09350:  MOVLW  0D
09352:  MOVLB  6
09354:  MOVWF  xB5
09356:  MOVLB  0
09358:  CALL   5994
0935C:  MOVFF  11A,6B5
09360:  MOVLW  01
09362:  MOVLB  6
09364:  MOVWF  xB6
09366:  MOVLB  0
09368:  CALL   5A18
0936C:  MOVLW  22
0936E:  BTFSS  F9E.4
09370:  BRA    936E
09372:  MOVWF  FAD
....................       SendDataDisplay(); 
09374:  CALL   402C
....................       printf("tsecsec.txt=\"%02u\"",sSecp); 
09378:  MOVLW  B2
0937A:  MOVWF  FF6
0937C:  MOVLW  0A
0937E:  MOVWF  FF7
09380:  MOVLW  00
09382:  MOVWF  FF8
09384:  MOVLW  0D
09386:  MOVLB  6
09388:  MOVWF  xB5
0938A:  MOVLB  0
0938C:  CALL   5994
09390:  MOVFF  119,6B5
09394:  MOVLW  01
09396:  MOVLB  6
09398:  MOVWF  xB6
0939A:  MOVLB  0
0939C:  CALL   5A18
093A0:  MOVLW  22
093A2:  BTFSS  F9E.4
093A4:  BRA    93A2
093A6:  MOVWF  FAD
....................       SendDataDisplay(); 
093A8:  CALL   402C
093AC:  MOVLB  2
....................     } 
.................... //_--------------------------------------------------------------------------------------------------------------------------------------------------------        
....................  
.................... //_-------------------------------------------------------------------------------------------------------------------------------------------------------- 
....................     if(Menu==4){ //Menu de Temperatura 
093AE:  MOVF   x59,W
093B0:  SUBLW  04
093B2:  BTFSS  FD8.2
093B4:  BRA    9588
....................       printf("fecha.txt=\"Fecha:%02u/%02u/20%02u    Hora: %02u:%02u:%02u\"",Dia,Mes,Year,Hora,Minuto,Segundo); 
093B6:  MOVLW  C6
093B8:  MOVWF  FF6
093BA:  MOVLW  0A
093BC:  MOVWF  FF7
093BE:  MOVLW  00
093C0:  MOVWF  FF8
093C2:  MOVLW  11
093C4:  MOVLB  6
093C6:  MOVWF  xB5
093C8:  MOVLB  0
093CA:  CALL   5994
093CE:  MOVFF  29A,6B5
093D2:  MOVLW  01
093D4:  MOVLB  6
093D6:  MOVWF  xB6
093D8:  MOVLB  0
093DA:  CALL   5A18
093DE:  MOVLW  2F
093E0:  BTFSS  F9E.4
093E2:  BRA    93E0
093E4:  MOVWF  FAD
093E6:  MOVFF  299,6B5
093EA:  MOVLW  01
093EC:  MOVLB  6
093EE:  MOVWF  xB6
093F0:  MOVLB  0
093F2:  CALL   5A18
093F6:  MOVLW  2F
093F8:  BTFSS  F9E.4
093FA:  BRA    93F8
093FC:  MOVWF  FAD
093FE:  MOVLW  32
09400:  BTFSS  F9E.4
09402:  BRA    9400
09404:  MOVWF  FAD
09406:  MOVLW  30
09408:  BTFSS  F9E.4
0940A:  BRA    9408
0940C:  MOVWF  FAD
0940E:  MOVFF  298,6B5
09412:  MOVLW  01
09414:  MOVLB  6
09416:  MOVWF  xB6
09418:  MOVLB  0
0941A:  CALL   5A18
0941E:  MOVLW  E7
09420:  MOVWF  FF6
09422:  MOVLW  0A
09424:  MOVWF  FF7
09426:  MOVLW  00
09428:  MOVWF  FF8
0942A:  MOVLW  0A
0942C:  MOVLB  6
0942E:  MOVWF  xB5
09430:  MOVLB  0
09432:  CALL   5994
09436:  MOVFF  29B,6B5
0943A:  MOVLW  01
0943C:  MOVLB  6
0943E:  MOVWF  xB6
09440:  MOVLB  0
09442:  CALL   5A18
09446:  MOVLW  3A
09448:  BTFSS  F9E.4
0944A:  BRA    9448
0944C:  MOVWF  FAD
0944E:  MOVFF  29C,6B5
09452:  MOVLW  01
09454:  MOVLB  6
09456:  MOVWF  xB6
09458:  MOVLB  0
0945A:  CALL   5A18
0945E:  MOVLW  3A
09460:  BTFSS  F9E.4
09462:  BRA    9460
09464:  MOVWF  FAD
09466:  MOVFF  29D,6B5
0946A:  MOVLW  01
0946C:  MOVLB  6
0946E:  MOVWF  xB6
09470:  MOVLB  0
09472:  CALL   5A18
09476:  MOVLW  22
09478:  BTFSS  F9E.4
0947A:  BRA    9478
0947C:  MOVWF  FAD
....................       SendDataDisplay(); 
0947E:  CALL   402C
....................          if(Setpoint<110) 
09482:  MOVLB  2
09484:  MOVF   x67,W
09486:  SUBLW  6D
09488:  BNC   948E
....................             Setpoint=138; 
0948A:  MOVLW  8A
0948C:  MOVWF  x67
....................          if(Setpoint>138) 
0948E:  MOVF   x67,W
09490:  SUBLW  8A
09492:  BC    9498
....................             Setpoint=110; 
09494:  MOVLW  6E
09496:  MOVWF  x67
....................           
....................          if(RX_Buffer[4]==0x11){//Selecciono Regresar 
09498:  MOVF   34,W
0949A:  SUBLW  11
0949C:  BNZ   953A
....................             Segundos=OFF; 
0949E:  MOVLB  0
094A0:  BCF    xFF.7
....................             Minutos=OFF; 
094A2:  BCF    xFF.6
....................             printf("page CicloPersona"); 
094A4:  MOVLW  02
094A6:  MOVWF  FF6
094A8:  MOVLW  0B
094AA:  MOVWF  FF7
094AC:  MOVLW  00
094AE:  MOVWF  FF8
094B0:  CALL   3FFA
....................             SendDataDisplay();   
094B4:  CALL   402C
....................             PantallaPrincipal=1; 
094B8:  MOVLW  01
094BA:  MOVLB  1
094BC:  MOVWF  xF6
....................             Op=OFF; 
094BE:  MOVLB  0
094C0:  BCF    xFF.4
....................             Op2=OFF; 
094C2:  BCF    xFF.5
....................             if(!GuardaEEPROM){ 
094C4:  MOVLB  1
094C6:  BTFSC  x00.0
094C8:  BRA    9538
....................                CiclosPersonalizados[CicloLibre-1].Temperatura=Setpoint; 
094CA:  MOVLW  01
094CC:  MOVLB  2
094CE:  SUBWF  x4F,W
094D0:  MULLW  08
094D2:  MOVF   FF3,W
094D4:  MOVLB  6
094D6:  CLRF   xB1
094D8:  MOVWF  xB0
094DA:  MOVLW  E8
094DC:  ADDWF  xB0,W
094DE:  MOVWF  FE9
094E0:  MOVLW  05
094E2:  ADDWFC xB1,W
094E4:  MOVWF  FEA
094E6:  MOVFF  267,FEF
....................                write_eeprom(100+((CicloLibre-1)*8),Setpoint); 
094EA:  MOVLW  01
094EC:  MOVLB  2
094EE:  SUBWF  x4F,W
094F0:  MULLW  08
094F2:  MOVF   FF3,W
094F4:  ADDLW  64
094F6:  MOVLB  6
094F8:  MOVWF  xB0
094FA:  CLRF   FAA
094FC:  MOVFF  6B0,FA9
09500:  MOVFF  267,FA8
09504:  BCF    FA6.6
09506:  BCF    FA6.7
09508:  BSF    FA6.2
0950A:  MOVF   FF2,W
0950C:  MOVWF  00
0950E:  BCF    FF2.6
09510:  BCF    FF2.7
09512:  MOVLB  F
09514:  MOVLW  55
09516:  MOVWF  FA7
09518:  MOVLW  AA
0951A:  MOVWF  FA7
0951C:  BSF    FA6.1
0951E:  BTFSC  FA6.1
09520:  BRA    951E
09522:  BCF    FA6.2
09524:  MOVF   00,W
09526:  IORWF  FF2,F
....................                delay_ms(10); 
09528:  MOVLW  0A
0952A:  MOVLB  6
0952C:  MOVWF  xC2
0952E:  MOVLB  0
09530:  CALL   1F7A
....................                GuardaEEPROM=ON; 
09534:  MOVLB  1
09536:  BSF    x00.0
09538:  MOVLB  2
....................             } 
....................          } 
....................           
....................          if(RX_Buffer[4]==0x0d){//Tecla Arriba Oprimida 
0953A:  MOVF   34,W
0953C:  SUBLW  0D
0953E:  BNZ   9546
....................             Setpoint++; 
09540:  INCF   x67,F
....................             RX_Buffer[4]=0x00;   
09542:  CLRF   34
....................             RX_Buffer2[4]=0x00;             
09544:  CLRF   3F
....................             //BorraBuffer(); 
....................          } 
....................           
....................          if(RX_Buffer[4]==0x0c){//Tecla Abajo Oprimida 
09546:  MOVF   34,W
09548:  SUBLW  0C
0954A:  BNZ   9552
....................             Setpoint--; 
0954C:  DECF   x67,F
....................             RX_Buffer[4]=0x00; 
0954E:  CLRF   34
....................             RX_Buffer2[4]=0x00;             
09550:  CLRF   3F
....................             //BorraBuffer(); 
....................          } 
....................           
....................       printf("tsettem.txt=\"%03u\"",Setpoint); 
09552:  MOVLW  14
09554:  MOVWF  FF6
09556:  MOVLW  0B
09558:  MOVWF  FF7
0955A:  MOVLW  00
0955C:  MOVWF  FF8
0955E:  MOVLW  0D
09560:  MOVLB  6
09562:  MOVWF  xB5
09564:  MOVLB  0
09566:  CALL   5994
0956A:  MOVFF  267,6B5
0956E:  MOVLW  03
09570:  MOVLB  6
09572:  MOVWF  xB6
09574:  MOVLB  0
09576:  CALL   5A18
0957A:  MOVLW  22
0957C:  BTFSS  F9E.4
0957E:  BRA    957C
09580:  MOVWF  FAD
....................       SendDataDisplay(); 
09582:  CALL   402C
09586:  MOVLB  2
....................     } 
.................... //_--------------------------------------------------------------------------------------------------------------------------------------------------------        
....................  
.................... //_--------------------------------------------------------------------------------------------------------------------------------------------------------       
....................     if(Menu==5){//Menu de Nivel de Vacio 
09588:  MOVF   x59,W
0958A:  SUBLW  05
0958C:  BTFSS  FD8.2
0958E:  BRA    977E
....................       printf("fecha.txt=\"Fecha:%02u/%02u/20%02u    Hora: %02u:%02u:%02u\"",Dia,Mes,Year,Hora,Minuto,Segundo); 
09590:  MOVLW  28
09592:  MOVWF  FF6
09594:  MOVLW  0B
09596:  MOVWF  FF7
09598:  MOVLW  00
0959A:  MOVWF  FF8
0959C:  MOVLW  11
0959E:  MOVLB  6
095A0:  MOVWF  xB5
095A2:  MOVLB  0
095A4:  CALL   5994
095A8:  MOVFF  29A,6B5
095AC:  MOVLW  01
095AE:  MOVLB  6
095B0:  MOVWF  xB6
095B2:  MOVLB  0
095B4:  CALL   5A18
095B8:  MOVLW  2F
095BA:  BTFSS  F9E.4
095BC:  BRA    95BA
095BE:  MOVWF  FAD
095C0:  MOVFF  299,6B5
095C4:  MOVLW  01
095C6:  MOVLB  6
095C8:  MOVWF  xB6
095CA:  MOVLB  0
095CC:  CALL   5A18
095D0:  MOVLW  2F
095D2:  BTFSS  F9E.4
095D4:  BRA    95D2
095D6:  MOVWF  FAD
095D8:  MOVLW  32
095DA:  BTFSS  F9E.4
095DC:  BRA    95DA
095DE:  MOVWF  FAD
095E0:  MOVLW  30
095E2:  BTFSS  F9E.4
095E4:  BRA    95E2
095E6:  MOVWF  FAD
095E8:  MOVFF  298,6B5
095EC:  MOVLW  01
095EE:  MOVLB  6
095F0:  MOVWF  xB6
095F2:  MOVLB  0
095F4:  CALL   5A18
095F8:  MOVLW  49
095FA:  MOVWF  FF6
095FC:  MOVLW  0B
095FE:  MOVWF  FF7
09600:  MOVLW  00
09602:  MOVWF  FF8
09604:  MOVLW  0A
09606:  MOVLB  6
09608:  MOVWF  xB5
0960A:  MOVLB  0
0960C:  CALL   5994
09610:  MOVFF  29B,6B5
09614:  MOVLW  01
09616:  MOVLB  6
09618:  MOVWF  xB6
0961A:  MOVLB  0
0961C:  CALL   5A18
09620:  MOVLW  3A
09622:  BTFSS  F9E.4
09624:  BRA    9622
09626:  MOVWF  FAD
09628:  MOVFF  29C,6B5
0962C:  MOVLW  01
0962E:  MOVLB  6
09630:  MOVWF  xB6
09632:  MOVLB  0
09634:  CALL   5A18
09638:  MOVLW  3A
0963A:  BTFSS  F9E.4
0963C:  BRA    963A
0963E:  MOVWF  FAD
09640:  MOVFF  29D,6B5
09644:  MOVLW  01
09646:  MOVLB  6
09648:  MOVWF  xB6
0964A:  MOVLB  0
0964C:  CALL   5A18
09650:  MOVLW  22
09652:  BTFSS  F9E.4
09654:  BRA    9652
09656:  MOVWF  FAD
....................       SendDataDisplay(); 
09658:  CALL   402C
....................          if(Nivel<25) 
0965C:  MOVLB  2
0965E:  MOVF   x75,F
09660:  BNZ   966E
09662:  MOVF   x74,W
09664:  SUBLW  18
09666:  BNC   966E
....................             Nivel=100; 
09668:  CLRF   x75
0966A:  MOVLW  64
0966C:  MOVWF  x74
....................          if(Nivel>100) 
0966E:  MOVF   x75,F
09670:  BNZ   9678
09672:  MOVF   x74,W
09674:  SUBLW  64
09676:  BC    967E
....................             Nivel=25; 
09678:  CLRF   x75
0967A:  MOVLW  19
0967C:  MOVWF  x74
....................           
....................          if(RX_Buffer[4]==0x11){//Selecciono Regresar 
0967E:  MOVF   34,W
09680:  SUBLW  11
09682:  BNZ   9726
....................             Segundos=OFF; 
09684:  MOVLB  0
09686:  BCF    xFF.7
....................             Minutos=OFF;             
09688:  BCF    xFF.6
....................             tiempo_secado=0; 
0968A:  MOVLB  2
0968C:  CLRF   x6B
....................             printf("page CicloPersona"); 
0968E:  MOVLW  64
09690:  MOVWF  FF6
09692:  MOVLW  0B
09694:  MOVWF  FF7
09696:  MOVLW  00
09698:  MOVWF  FF8
0969A:  MOVLB  0
0969C:  CALL   3FFA
....................             SendDataDisplay();   
096A0:  CALL   402C
....................             if(!GuardaEEPROM){     
096A4:  MOVLB  1
096A6:  BTFSC  x00.0
096A8:  BRA    9724
....................                CiclosPersonalizados[CicloLibre-1].NivelVacio=Nivel; 
096AA:  MOVLW  01
096AC:  MOVLB  2
096AE:  SUBWF  x4F,W
096B0:  MULLW  08
096B2:  MOVF   FF3,W
096B4:  MOVLB  6
096B6:  CLRF   xB1
096B8:  MOVWF  xB0
096BA:  MOVLW  06
096BC:  ADDWF  xB0,W
096BE:  MOVWF  01
096C0:  MOVLW  00
096C2:  ADDWFC xB1,W
096C4:  MOVWF  03
096C6:  MOVF   01,W
096C8:  ADDLW  E8
096CA:  MOVWF  FE9
096CC:  MOVLW  05
096CE:  ADDWFC 03,W
096D0:  MOVWF  FEA
096D2:  MOVFF  274,FEF
....................                write_eeprom(106+((CicloLibre-1)*8),Nivel); 
096D6:  MOVLW  01
096D8:  MOVLB  2
096DA:  SUBWF  x4F,W
096DC:  MULLW  08
096DE:  MOVF   FF3,W
096E0:  ADDLW  6A
096E2:  MOVLB  6
096E4:  MOVWF  xB0
096E6:  CLRF   FAA
096E8:  MOVFF  6B0,FA9
096EC:  MOVFF  274,FA8
096F0:  BCF    FA6.6
096F2:  BCF    FA6.7
096F4:  BSF    FA6.2
096F6:  MOVF   FF2,W
096F8:  MOVWF  00
096FA:  BCF    FF2.6
096FC:  BCF    FF2.7
096FE:  MOVLB  F
09700:  MOVLW  55
09702:  MOVWF  FA7
09704:  MOVLW  AA
09706:  MOVWF  FA7
09708:  BSF    FA6.1
0970A:  BTFSC  FA6.1
0970C:  BRA    970A
0970E:  BCF    FA6.2
09710:  MOVF   00,W
09712:  IORWF  FF2,F
....................                delay_ms(20);             
09714:  MOVLW  14
09716:  MOVLB  6
09718:  MOVWF  xC2
0971A:  MOVLB  0
0971C:  CALL   1F7A
....................                GuardaEEPROM=ON; 
09720:  MOVLB  1
09722:  BSF    x00.0
09724:  MOVLB  2
....................             } 
....................          } 
....................           
....................          if(RX_Buffer[4]==0x0d){//Tecla Arriba Oprimida 
09726:  MOVF   34,W
09728:  SUBLW  0D
0972A:  BNZ   9736
....................             Nivel++; 
0972C:  INCF   x74,F
0972E:  BTFSC  FD8.2
09730:  INCF   x75,F
....................             RX_Buffer[4]=0x00;             
09732:  CLRF   34
....................             RX_Buffer2[4]=0x00;             
09734:  CLRF   3F
....................             //BorraBuffer(); 
....................          } 
....................           
....................          if(RX_Buffer[4]==0x0c){//Tecla Abajo Oprimida 
09736:  MOVF   34,W
09738:  SUBLW  0C
0973A:  BNZ   9748
....................             Nivel--; 
0973C:  MOVF   x74,W
0973E:  BTFSC  FD8.2
09740:  DECF   x75,F
09742:  DECF   x74,F
....................             RX_Buffer[4]=0x00; 
09744:  CLRF   34
....................             RX_Buffer2[4]=0x00;             
09746:  CLRF   3F
....................             //BorraBuffer(); 
....................          } 
....................           
....................       printf("tnivel.txt=\"%Lu\"",Nivel); 
09748:  MOVLW  76
0974A:  MOVWF  FF6
0974C:  MOVLW  0B
0974E:  MOVWF  FF7
09750:  MOVLW  00
09752:  MOVWF  FF8
09754:  MOVLW  0C
09756:  MOVLB  6
09758:  MOVWF  xB5
0975A:  MOVLB  0
0975C:  CALL   5994
09760:  MOVLW  10
09762:  MOVWF  FE9
09764:  MOVFF  275,6B5
09768:  MOVFF  274,6B4
0976C:  CALL   5B10
09770:  MOVLW  22
09772:  BTFSS  F9E.4
09774:  BRA    9772
09776:  MOVWF  FAD
....................       SendDataDisplay(); 
09778:  CALL   402C
0977C:  MOVLB  2
....................    } 
.................... //_--------------------------------------------------------------------------------------------------------------------------------------------------------       
....................  
.................... //_--------------------------------------------------------------------------------------------------------------------------------------------------------       
....................     if(Menu==6){ // Menu de Prueba de Componentes 
0977E:  MOVF   x59,W
09780:  SUBLW  06
09782:  BTFSS  FD8.2
09784:  GOTO   9EF8
....................          PruebaEstados=ON; 
09788:  MOVLB  0
0978A:  BSF    xFF.0
....................           
....................          printf("t0.txt=\"Test %02u\"",Codigo); 
0978C:  MOVLW  88
0978E:  MOVWF  FF6
09790:  MOVLW  0B
09792:  MOVWF  FF7
09794:  MOVLW  00
09796:  MOVWF  FF8
09798:  MOVLW  0D
0979A:  MOVLB  6
0979C:  MOVWF  xB5
0979E:  MOVLB  0
097A0:  CALL   5994
097A4:  MOVFF  258,6B5
097A8:  MOVLW  01
097AA:  MOVLB  6
097AC:  MOVWF  xB6
097AE:  MOVLB  0
097B0:  CALL   5A18
097B4:  MOVLW  22
097B6:  BTFSS  F9E.4
097B8:  BRA    97B6
097BA:  MOVWF  FAD
....................          SendDataDisplay(); 
097BC:  CALL   402C
....................           
....................          if(RX_Buffer[4]==0x01){//Oprimio EV Suministro 
097C0:  DECFSZ 34,W
097C2:  BRA    97CA
....................             EstadoSuministro=!EstadoSuministro; 
097C4:  BTG    xFE.6
....................             RX_Buffer[4]=0x00; 
097C6:  CLRF   34
....................             RX_Buffer2[4]=0x00; 
097C8:  CLRF   3F
....................          } 
....................           
....................          if(EstadoSuministro){ 
097CA:  BTFSS  xFE.6
097CC:  BRA    97E6
....................             printf("b0.bco=2016"); 
097CE:  MOVLW  9C
097D0:  MOVWF  FF6
097D2:  MOVLW  0B
097D4:  MOVWF  FF7
097D6:  MOVLW  00
097D8:  MOVWF  FF8
097DA:  CALL   3FFA
....................             SendDataDisplay();  
097DE:  CALL   402C
....................             suministroAire=ON; 
097E2:  BSF    xF7.0
....................          }else{ 
097E4:  BRA    97FC
....................             printf("b0.bco=63488"); 
097E6:  MOVLW  A8
097E8:  MOVWF  FF6
097EA:  MOVLW  0B
097EC:  MOVWF  FF7
097EE:  MOVLW  00
097F0:  MOVWF  FF8
097F2:  CALL   3FFA
....................             SendDataDisplay();  
097F6:  CALL   402C
....................             suministroAire=OFF; 
097FA:  BCF    xF7.0
....................          } 
....................           
....................          if(RX_Buffer[4]==0x02){//Oprimio EV Desfogue 
097FC:  MOVF   34,W
097FE:  SUBLW  02
09800:  BNZ   9808
....................             EstadoDesfogue=!EstadoDesfogue; 
09802:  BTG    xFE.5
....................             RX_Buffer[4]=0x00; 
09804:  CLRF   34
....................             RX_Buffer2[4]=0x00; 
09806:  CLRF   3F
....................          } 
....................           
....................          if(EstadoDesfogue){ 
09808:  BTFSS  xFE.5
0980A:  BRA    9824
....................             printf("b1.bco=2016"); 
0980C:  MOVLW  B6
0980E:  MOVWF  FF6
09810:  MOVLW  0B
09812:  MOVWF  FF7
09814:  MOVLW  00
09816:  MOVWF  FF8
09818:  CALL   3FFA
....................             SendDataDisplay();  
0981C:  CALL   402C
....................             Desfogue=ON; 
09820:  BSF    xF8.0
....................          }else{ 
09822:  BRA    983A
....................             printf("b1.bco=63488"); 
09824:  MOVLW  C2
09826:  MOVWF  FF6
09828:  MOVLW  0B
0982A:  MOVWF  FF7
0982C:  MOVLW  00
0982E:  MOVWF  FF8
09830:  CALL   3FFA
....................             SendDataDisplay();  
09834:  CALL   402C
....................             Desfogue=OFF; 
09838:  BCF    xF8.0
....................          } 
....................           
....................          if(RX_Buffer[4]==0x03){//Oprimio EV Paso 
0983A:  MOVF   34,W
0983C:  SUBLW  03
0983E:  BNZ   9848
....................             EstadoPaso=!EstadoPaso; 
09840:  MOVLB  1
09842:  BTG    x00.1
....................             RX_Buffer[4]=0x00; 
09844:  CLRF   34
....................             RX_Buffer2[4]=0x00; 
09846:  CLRF   3F
....................          } 
....................           
....................          if(EstadoPaso){ 
09848:  MOVLB  1
0984A:  BTFSS  x00.1
0984C:  BRA    986A
....................             printf("b2.bco=2016"); 
0984E:  MOVLW  D0
09850:  MOVWF  FF6
09852:  MOVLW  0B
09854:  MOVWF  FF7
09856:  MOVLW  00
09858:  MOVWF  FF8
0985A:  MOVLB  0
0985C:  CALL   3FFA
....................             SendDataDisplay();  
09860:  CALL   402C
....................             Paso=ON; 
09864:  BSF    xF7.6
....................          }else{ 
09866:  BRA    9882
09868:  MOVLB  1
....................             printf("b2.bco=63488"); 
0986A:  MOVLW  DC
0986C:  MOVWF  FF6
0986E:  MOVLW  0B
09870:  MOVWF  FF7
09872:  MOVLW  00
09874:  MOVWF  FF8
09876:  MOVLB  0
09878:  CALL   3FFA
....................             SendDataDisplay();  
0987C:  CALL   402C
....................             Paso=OFF; 
09880:  BCF    xF7.6
....................          } 
....................          
....................          if(RX_Buffer[4]==0x04){//Oprimio Vacio 
09882:  MOVF   34,W
09884:  SUBLW  04
09886:  BNZ   9890
....................             EstadoVacio=!EstadoVacio; 
09888:  MOVLB  1
0988A:  BTG    x00.2
....................             RX_Buffer[4]=0x00; 
0988C:  CLRF   34
....................             RX_Buffer2[4]=0x00; 
0988E:  CLRF   3F
....................          } 
....................           
....................          if(EstadoVacio){ 
09890:  MOVLB  1
09892:  BTFSS  x00.2
09894:  BRA    98B2
....................             printf("b3.bco=2016"); 
09896:  MOVLW  EA
09898:  MOVWF  FF6
0989A:  MOVLW  0B
0989C:  MOVWF  FF7
0989E:  MOVLW  00
098A0:  MOVWF  FF8
098A2:  MOVLB  0
098A4:  CALL   3FFA
....................             SendDataDisplay();  
098A8:  CALL   402C
....................             outVacio=ON; 
098AC:  BSF    xF7.7
....................          }else{ 
098AE:  BRA    98CA
098B0:  MOVLB  1
....................             printf("b3.bco=63488"); 
098B2:  MOVLW  F6
098B4:  MOVWF  FF6
098B6:  MOVLW  0B
098B8:  MOVWF  FF7
098BA:  MOVLW  00
098BC:  MOVWF  FF8
098BE:  MOVLB  0
098C0:  CALL   3FFA
....................             SendDataDisplay();  
098C4:  CALL   402C
....................             outVacio=OFF; 
098C8:  BCF    xF7.7
....................          } 
....................           
....................          if(RX_Buffer[4]==0x05){//Oprimio Aire 
098CA:  MOVF   34,W
098CC:  SUBLW  05
098CE:  BNZ   98D6
....................             EstadoAire=!EstadoAire; 
098D0:  BTG    xFE.7
....................             RX_Buffer[4]=0x00; 
098D2:  CLRF   34
....................             RX_Buffer2[4]=0x00; 
098D4:  CLRF   3F
....................          } 
....................           
....................          if(EstadoAire){ 
098D6:  BTFSS  xFE.7
098D8:  BRA    98F2
....................             printf("b4.bco=2016"); 
098DA:  MOVLW  04
098DC:  MOVWF  FF6
098DE:  MOVLW  0C
098E0:  MOVWF  FF7
098E2:  MOVLW  00
098E4:  MOVWF  FF8
098E6:  CALL   3FFA
....................             SendDataDisplay();  
098EA:  CALL   402C
....................             Aire=ON; 
098EE:  BSF    xF8.1
....................          }else{ 
098F0:  BRA    9908
....................             printf("b4.bco=63488"); 
098F2:  MOVLW  10
098F4:  MOVWF  FF6
098F6:  MOVLW  0C
098F8:  MOVWF  FF7
098FA:  MOVLW  00
098FC:  MOVWF  FF8
098FE:  CALL   3FFA
....................             SendDataDisplay();  
09902:  CALL   402C
....................             Aire=OFF; 
09906:  BCF    xF8.1
....................          } 
....................           
....................          if(RX_Buffer[4]==0x06){//Oprimio Bomba Vacio 
09908:  MOVF   34,W
0990A:  SUBLW  06
0990C:  BNZ   9916
....................             EstadoBomba=!EstadoBomba; 
0990E:  MOVLB  1
09910:  BTG    x01.2
....................             RX_Buffer[4]=0x00; 
09912:  CLRF   34
....................             RX_Buffer2[4]=0x00; 
09914:  CLRF   3F
....................          } 
....................           
....................          if(EstadoBomba){ 
09916:  MOVLB  1
09918:  BTFSS  x01.2
0991A:  BRA    9946
....................             printf("b5.bco=2016"); 
0991C:  MOVLW  1E
0991E:  MOVWF  FF6
09920:  MOVLW  0C
09922:  MOVWF  FF7
09924:  MOVLW  00
09926:  MOVWF  FF8
09928:  MOVLB  0
0992A:  CALL   3FFA
....................             SendDataDisplay();  
0992E:  CALL   402C
....................             if(ReservorioLleno) 
09932:  MOVLB  1
09934:  BTFSS  x04.0
09936:  BRA    993E
....................                bombaVacio=ON; 
09938:  MOVLB  0
0993A:  BSF    xF7.2
....................             else 
0993C:  BRA    9942
....................                bombaVacio=OFF; 
0993E:  MOVLB  0
09940:  BCF    xF7.2
....................          }else{ 
09942:  BRA    995E
09944:  MOVLB  1
....................             printf("b5.bco=63488"); 
09946:  MOVLW  2A
09948:  MOVWF  FF6
0994A:  MOVLW  0C
0994C:  MOVWF  FF7
0994E:  MOVLW  00
09950:  MOVWF  FF8
09952:  MOVLB  0
09954:  CALL   3FFA
....................             SendDataDisplay();  
09958:  CALL   402C
....................             bombaVacio=OFF; 
0995C:  BCF    xF7.2
....................          } 
....................           
....................          if(RX_Buffer[4]==0x07){//Oprimio EV Agua 
0995E:  MOVF   34,W
09960:  SUBLW  07
09962:  BNZ   996A
....................             EstadoAguaEnfriador=!EstadoAguaEnfriador; 
09964:  BTG    xFA.7
....................             RX_Buffer[4]=0x00; 
09966:  CLRF   34
....................             RX_Buffer2[4]=0x00; 
09968:  CLRF   3F
....................          } 
....................           
....................          if(EstadoAguaEnfriador){ 
0996A:  BTFSS  xFA.7
0996C:  BRA    9986
....................             printf("b7.bco=2016"); 
0996E:  MOVLW  38
09970:  MOVWF  FF6
09972:  MOVLW  0C
09974:  MOVWF  FF7
09976:  MOVLW  00
09978:  MOVWF  FF8
0997A:  CALL   3FFA
....................             SendDataDisplay();  
0997E:  CALL   402C
....................             aguaEnfriador=ON; 
09982:  BSF    xF7.1
....................          }else{ 
09984:  BRA    999C
....................             printf("b7.bco=63488"); 
09986:  MOVLW  44
09988:  MOVWF  FF6
0998A:  MOVLW  0C
0998C:  MOVWF  FF7
0998E:  MOVLW  00
09990:  MOVWF  FF8
09992:  CALL   3FFA
....................             SendDataDisplay();  
09996:  CALL   402C
....................             aguaEnfriador=OFF; 
0999A:  BCF    xF7.1
....................          } 
....................           
....................          if(RX_Buffer[4]==0x08){//Oprimio EV Suministro Vapor 
0999C:  MOVF   34,W
0999E:  SUBLW  08
099A0:  BNZ   99A8
....................             EstadoSuministroV=!EstadoSuministroV; 
099A2:  BTG    xFD.0
....................             RX_Buffer[4]=0x00; 
099A4:  CLRF   34
....................             RX_Buffer2[4]=0x00; 
099A6:  CLRF   3F
....................          } 
....................           
....................          if(EstadoSuministroV){ 
099A8:  BTFSS  xFD.0
099AA:  BRA    99C4
....................             printf("b6.bco=2016"); 
099AC:  MOVLW  52
099AE:  MOVWF  FF6
099B0:  MOVLW  0C
099B2:  MOVWF  FF7
099B4:  MOVLW  00
099B6:  MOVWF  FF8
099B8:  CALL   3FFA
....................             SendDataDisplay();  
099BC:  CALL   402C
....................             suministroVapor=ON; 
099C0:  BSF    xF7.5
....................          }else{ 
099C2:  BRA    99DA
....................             printf("b6.bco=63488"); 
099C4:  MOVLW  5E
099C6:  MOVWF  FF6
099C8:  MOVLW  0C
099CA:  MOVWF  FF7
099CC:  MOVLW  00
099CE:  MOVWF  FF8
099D0:  CALL   3FFA
....................             SendDataDisplay();  
099D4:  CALL   402C
....................             suministroVapor=OFF; 
099D8:  BCF    xF7.5
....................          } 
....................           
....................          if(RX_Buffer[4]==0x09){//Oprimio Abrir Cierre 
099DA:  MOVF   34,W
099DC:  SUBLW  09
099DE:  BNZ   99E6
....................             EstadoCilindrosL=!EstadoCilindrosL; 
099E0:  BTG    xFD.1
....................             RX_Buffer[4]=0x00; 
099E2:  CLRF   34
....................             RX_Buffer2[4]=0x00; 
099E4:  CLRF   3F
....................          } 
....................           
....................          if(EstadoCilindrosL){ 
099E6:  BTFSS  xFD.1
099E8:  BRA    9A02
....................             printf("b12.bco=2016"); 
099EA:  MOVLW  6C
099EC:  MOVWF  FF6
099EE:  MOVLW  0C
099F0:  MOVWF  FF7
099F2:  MOVLW  00
099F4:  MOVWF  FF8
099F6:  CALL   3FFA
....................             SendDataDisplay();  
099FA:  CALL   402C
....................             cilindroLimpio=OFF; 
099FE:  BCF    xF8.3
....................          }else{ 
09A00:  BRA    9A18
....................             printf("b12.bco=63488"); 
09A02:  MOVLW  7A
09A04:  MOVWF  FF6
09A06:  MOVLW  0C
09A08:  MOVWF  FF7
09A0A:  MOVLW  00
09A0C:  MOVWF  FF8
09A0E:  CALL   3FFA
....................             SendDataDisplay();  
09A12:  CALL   402C
....................             cilindroLimpio=ON; 
09A16:  BSF    xF8.3
....................          } 
....................           
....................          if(RX_Buffer[4]==0x0a){//Oprimio Empaque 
09A18:  MOVF   34,W
09A1A:  SUBLW  0A
09A1C:  BNZ   9A24
....................             EstadoEmpaqueL=!EstadoEmpaqueL; 
09A1E:  BTG    xFD.3
....................             RX_Buffer[4]=0x00; 
09A20:  CLRF   34
....................             RX_Buffer2[4]=0x00; 
09A22:  CLRF   3F
....................          } 
....................           
....................          if(EstadoEmpaqueL && DOORL){ 
09A24:  BTFSS  xFD.3
09A26:  BRA    9A46
09A28:  BSF    F93.4
09A2A:  BTFSC  F81.4
09A2C:  BRA    9A46
....................             printf("b16.bco=2016"); 
09A2E:  MOVLW  88
09A30:  MOVWF  FF6
09A32:  MOVLW  0C
09A34:  MOVWF  FF7
09A36:  MOVLW  00
09A38:  MOVWF  FF8
09A3A:  CALL   3FFA
....................             SendDataDisplay();  
09A3E:  CALL   402C
....................             empaqueLimpio=ON;             
09A42:  BSF    xF7.3
....................          }else{ 
09A44:  BRA    9A5C
....................             printf("b16.bco=63488"); 
09A46:  MOVLW  96
09A48:  MOVWF  FF6
09A4A:  MOVLW  0C
09A4C:  MOVWF  FF7
09A4E:  MOVLW  00
09A50:  MOVWF  FF8
09A52:  CALL   3FFA
....................             SendDataDisplay();  
09A56:  CALL   402C
....................             empaqueLimpio=OFF; 
09A5A:  BCF    xF7.3
....................          } 
....................           
....................          if(RX_Buffer[4]==0x0b){//Oprimio Abrir Cierre 
09A5C:  MOVF   34,W
09A5E:  SUBLW  0B
09A60:  BNZ   9A68
....................             EstadoCilindrosS=!EstadoCilindrosS; 
09A62:  BTG    xFD.2
....................             RX_Buffer[4]=0x00; 
09A64:  CLRF   34
....................             RX_Buffer2[4]=0x00; 
09A66:  CLRF   3F
....................          } 
....................           
....................          if(EstadoCilindrosS){ 
09A68:  BTFSS  xFD.2
09A6A:  BRA    9A84
....................             printf("b17.bco=2016"); 
09A6C:  MOVLW  A4
09A6E:  MOVWF  FF6
09A70:  MOVLW  0C
09A72:  MOVWF  FF7
09A74:  MOVLW  00
09A76:  MOVWF  FF8
09A78:  CALL   3FFA
....................             SendDataDisplay();  
09A7C:  CALL   402C
....................             cilindroSucio=OFF; 
09A80:  BCF    xF8.2
....................          }else{ 
09A82:  BRA    9A9A
....................             printf("b17.bco=63488"); 
09A84:  MOVLW  B2
09A86:  MOVWF  FF6
09A88:  MOVLW  0C
09A8A:  MOVWF  FF7
09A8C:  MOVLW  00
09A8E:  MOVWF  FF8
09A90:  CALL   3FFA
....................             SendDataDisplay();  
09A94:  CALL   402C
....................             cilindroSucio=ON; 
09A98:  BSF    xF8.2
....................          } 
....................           
....................          if(RX_Buffer[4]==0x0c){//Oprimio Empaque 
09A9A:  MOVF   34,W
09A9C:  SUBLW  0C
09A9E:  BNZ   9AA6
....................             EstadoEmpaqueS=!EstadoEmpaqueS; 
09AA0:  BTG    xFD.4
....................             RX_Buffer[4]=0x00; 
09AA2:  CLRF   34
....................             RX_Buffer2[4]=0x00; 
09AA4:  CLRF   3F
....................          } 
....................           
....................          if(EstadoEmpaqueS && DOORS){ 
09AA6:  BTFSS  xFD.4
09AA8:  BRA    9AC8
09AAA:  BSF    F93.3
09AAC:  BTFSC  F81.3
09AAE:  BRA    9AC8
....................             printf("b25.bco=2016"); 
09AB0:  MOVLW  C0
09AB2:  MOVWF  FF6
09AB4:  MOVLW  0C
09AB6:  MOVWF  FF7
09AB8:  MOVLW  00
09ABA:  MOVWF  FF8
09ABC:  CALL   3FFA
....................             SendDataDisplay();  
09AC0:  CALL   402C
....................             empaqueSucio=ON;             
09AC4:  BSF    xF7.4
....................          }else{ 
09AC6:  BRA    9ADE
....................             printf("b25.bco=63488"); 
09AC8:  MOVLW  CE
09ACA:  MOVWF  FF6
09ACC:  MOVLW  0C
09ACE:  MOVWF  FF7
09AD0:  MOVLW  00
09AD2:  MOVWF  FF8
09AD4:  CALL   3FFA
....................             SendDataDisplay();  
09AD8:  CALL   402C
....................             empaqueSucio=OFF; 
09ADC:  BCF    xF7.4
....................          } 
....................           
....................          if(RX_Buffer[4]==0x0d){//Oprimio Empaque 
09ADE:  MOVF   34,W
09AE0:  SUBLW  0D
09AE2:  BNZ   9AEC
....................             EstadoBuzzer=!EstadoBuzzer; 
09AE4:  MOVLB  1
09AE6:  BTG    x00.3
....................             RX_Buffer[4]=0x00; 
09AE8:  CLRF   34
....................             RX_Buffer2[4]=0x00; 
09AEA:  CLRF   3F
....................          } 
....................           
....................          if(EstadoBuzzer){ 
09AEC:  MOVLB  1
09AEE:  BTFSS  x00.3
09AF0:  BRA    9B0C
....................             printf("b21.bco=2016"); 
09AF2:  MOVLW  DC
09AF4:  MOVWF  FF6
09AF6:  MOVLW  0C
09AF8:  MOVWF  FF7
09AFA:  MOVLW  00
09AFC:  MOVWF  FF8
09AFE:  MOVLB  0
09B00:  CALL   3FFA
....................             SendDataDisplay();  
09B04:  CALL   402C
....................          }else{ 
09B08:  BRA    9B22
09B0A:  MOVLB  1
....................             printf("b21.bco=63488"); 
09B0C:  MOVLW  EA
09B0E:  MOVWF  FF6
09B10:  MOVLW  0C
09B12:  MOVWF  FF7
09B14:  MOVLW  00
09B16:  MOVWF  FF8
09B18:  MOVLB  0
09B1A:  CALL   3FFA
....................             SendDataDisplay();  
09B1E:  CALL   402C
....................          } 
....................           
....................          if(DOORS){ 
09B22:  BSF    F93.3
09B24:  BTFSC  F81.3
09B26:  BRA    9B3E
....................             printf("b8.bco=2016"); 
09B28:  MOVLW  F8
09B2A:  MOVWF  FF6
09B2C:  MOVLW  0C
09B2E:  MOVWF  FF7
09B30:  MOVLW  00
09B32:  MOVWF  FF8
09B34:  CALL   3FFA
....................             SendDataDisplay();  
09B38:  CALL   402C
....................          }else{ 
09B3C:  BRA    9B52
....................             printf("b8.bco=63488"); 
09B3E:  MOVLW  04
09B40:  MOVWF  FF6
09B42:  MOVLW  0D
09B44:  MOVWF  FF7
09B46:  MOVLW  00
09B48:  MOVWF  FF8
09B4A:  CALL   3FFA
....................             SendDataDisplay();  
09B4E:  CALL   402C
....................          } 
....................           
....................          if(DOORL){ 
09B52:  BSF    F93.4
09B54:  BTFSC  F81.4
09B56:  BRA    9B6E
....................             printf("b26.bco=2016"); 
09B58:  MOVLW  12
09B5A:  MOVWF  FF6
09B5C:  MOVLW  0D
09B5E:  MOVWF  FF7
09B60:  MOVLW  00
09B62:  MOVWF  FF8
09B64:  CALL   3FFA
....................             SendDataDisplay();  
09B68:  CALL   402C
....................          }else{ 
09B6C:  BRA    9B82
....................             printf("b26.bco=63488"); 
09B6E:  MOVLW  20
09B70:  MOVWF  FF6
09B72:  MOVLW  0D
09B74:  MOVWF  FF7
09B76:  MOVLW  00
09B78:  MOVWF  FF8
09B7A:  CALL   3FFA
....................             SendDataDisplay();  
09B7E:  CALL   402C
....................          } 
....................           
....................          if(EMPAQUEL){ 
09B82:  BSF    F93.2
09B84:  BTFSC  F81.2
09B86:  BRA    9B9E
....................             printf("b9.bco=2016"); 
09B88:  MOVLW  2E
09B8A:  MOVWF  FF6
09B8C:  MOVLW  0D
09B8E:  MOVWF  FF7
09B90:  MOVLW  00
09B92:  MOVWF  FF8
09B94:  CALL   3FFA
....................             SendDataDisplay();  
09B98:  CALL   402C
....................          }else{ 
09B9C:  BRA    9BB2
....................             printf("b9.bco=63488"); 
09B9E:  MOVLW  3A
09BA0:  MOVWF  FF6
09BA2:  MOVLW  0D
09BA4:  MOVWF  FF7
09BA6:  MOVLW  00
09BA8:  MOVWF  FF8
09BAA:  CALL   3FFA
....................             SendDataDisplay();  
09BAE:  CALL   402C
....................          } 
....................           
....................          if(EMPAQUES){ 
09BB2:  BSF    F93.1
09BB4:  BTFSC  F81.1
09BB6:  BRA    9BCE
....................             printf("b11.bco=2016"); 
09BB8:  MOVLW  48
09BBA:  MOVWF  FF6
09BBC:  MOVLW  0D
09BBE:  MOVWF  FF7
09BC0:  MOVLW  00
09BC2:  MOVWF  FF8
09BC4:  CALL   3FFA
....................             SendDataDisplay();  
09BC8:  CALL   402C
....................          }else{ 
09BCC:  BRA    9BE2
....................             printf("b11.bco=63488"); 
09BCE:  MOVLW  56
09BD0:  MOVWF  FF6
09BD2:  MOVLW  0D
09BD4:  MOVWF  FF7
09BD6:  MOVLW  00
09BD8:  MOVWF  FF8
09BDA:  CALL   3FFA
....................             SendDataDisplay();  
09BDE:  CALL   402C
....................          } 
....................           
....................          if(STOP){ 
09BE2:  BSF    F93.0
09BE4:  BTFSC  F81.0
09BE6:  BRA    9BFE
....................             printf("b10.bco=2016"); 
09BE8:  MOVLW  64
09BEA:  MOVWF  FF6
09BEC:  MOVLW  0D
09BEE:  MOVWF  FF7
09BF0:  MOVLW  00
09BF2:  MOVWF  FF8
09BF4:  CALL   3FFA
....................             SendDataDisplay();  
09BF8:  CALL   402C
....................          }else{ 
09BFC:  BRA    9C12
....................             printf("b10.bco=63488"); 
09BFE:  MOVLW  72
09C00:  MOVWF  FF6
09C02:  MOVLW  0D
09C04:  MOVWF  FF7
09C06:  MOVLW  00
09C08:  MOVWF  FF8
09C0A:  CALL   3FFA
....................             SendDataDisplay();  
09C0E:  CALL   402C
....................          } 
....................           
....................          if(LOWB){ 
09C12:  BSF    F93.5
09C14:  BTFSC  F81.5
09C16:  BRA    9C2E
....................             printf("b23.bco=2016"); 
09C18:  MOVLW  80
09C1A:  MOVWF  FF6
09C1C:  MOVLW  0D
09C1E:  MOVWF  FF7
09C20:  MOVLW  00
09C22:  MOVWF  FF8
09C24:  CALL   3FFA
....................             SendDataDisplay();  
09C28:  CALL   402C
....................          }else{ 
09C2C:  BRA    9C42
....................             printf("b23.bco=63488"); 
09C2E:  MOVLW  8E
09C30:  MOVWF  FF6
09C32:  MOVLW  0D
09C34:  MOVWF  FF7
09C36:  MOVLW  00
09C38:  MOVWF  FF8
09C3A:  CALL   3FFA
....................             SendDataDisplay();  
09C3E:  CALL   402C
....................          } 
....................           
....................          if(BLOQUEOL){ 
09C42:  BSF    F93.7
09C44:  BTFSC  F81.7
09C46:  BRA    9C5E
....................             printf("b24.bco=2016"); 
09C48:  MOVLW  9C
09C4A:  MOVWF  FF6
09C4C:  MOVLW  0D
09C4E:  MOVWF  FF7
09C50:  MOVLW  00
09C52:  MOVWF  FF8
09C54:  CALL   3FFA
....................             SendDataDisplay();  
09C58:  CALL   402C
....................          }else{ 
09C5C:  BRA    9C72
....................             printf("b24.bco=63488"); 
09C5E:  MOVLW  AA
09C60:  MOVWF  FF6
09C62:  MOVLW  0D
09C64:  MOVWF  FF7
09C66:  MOVLW  00
09C68:  MOVWF  FF8
09C6A:  CALL   3FFA
....................             SendDataDisplay();  
09C6E:  CALL   402C
....................          } 
....................           
....................          if(BLOQUEOS){ 
09C72:  BSF    F93.6
09C74:  BTFSC  F81.6
09C76:  BRA    9C8E
....................             printf("b27.bco=2016"); 
09C78:  MOVLW  B8
09C7A:  MOVWF  FF6
09C7C:  MOVLW  0D
09C7E:  MOVWF  FF7
09C80:  MOVLW  00
09C82:  MOVWF  FF8
09C84:  CALL   3FFA
....................             SendDataDisplay();  
09C88:  CALL   402C
....................          }else{ 
09C8C:  BRA    9CA2
....................             printf("b27.bco=63488"); 
09C8E:  MOVLW  C6
09C90:  MOVWF  FF6
09C92:  MOVLW  0D
09C94:  MOVWF  FF7
09C96:  MOVLW  00
09C98:  MOVWF  FF8
09C9A:  CALL   3FFA
....................             SendDataDisplay();  
09C9E:  CALL   402C
....................          }          
....................                    
....................          printf("b13.txt=\"ADC0:%3.0f\"",sensores(0));          
09CA2:  MOVLB  6
09CA4:  CLRF   xB6
09CA6:  MOVLB  0
09CA8:  CALL   4160
09CAC:  MOVFF  00,6B0
09CB0:  MOVFF  01,6B1
09CB4:  MOVFF  02,6B2
09CB8:  MOVFF  03,6B3
09CBC:  MOVLW  D4
09CBE:  MOVWF  FF6
09CC0:  MOVLW  0D
09CC2:  MOVWF  FF7
09CC4:  MOVLW  00
09CC6:  MOVWF  FF8
09CC8:  MOVLW  0E
09CCA:  MOVLB  6
09CCC:  MOVWF  xB5
09CCE:  MOVLB  0
09CD0:  CALL   5994
09CD4:  MOVLW  02
09CD6:  MOVWF  FE9
09CD8:  MOVFF  6B3,6B8
09CDC:  MOVFF  6B2,6B7
09CE0:  MOVFF  6B1,6B6
09CE4:  MOVFF  6B0,6B5
09CE8:  MOVLB  6
09CEA:  CLRF   xB9
09CEC:  MOVLB  0
09CEE:  CALL   5C7E
09CF2:  MOVLW  22
09CF4:  BTFSS  F9E.4
09CF6:  BRA    9CF4
09CF8:  MOVWF  FAD
....................          SendDataDisplay(); 
09CFA:  CALL   402C
....................          printf("b14.txt=\"ADC1:%3.0f\"",sensores(1));          
09CFE:  MOVLW  01
09D00:  MOVLB  6
09D02:  MOVWF  xB6
09D04:  MOVLB  0
09D06:  CALL   4160
09D0A:  MOVFF  00,6B0
09D0E:  MOVFF  01,6B1
09D12:  MOVFF  02,6B2
09D16:  MOVFF  03,6B3
09D1A:  MOVLW  EA
09D1C:  MOVWF  FF6
09D1E:  MOVLW  0D
09D20:  MOVWF  FF7
09D22:  MOVLW  00
09D24:  MOVWF  FF8
09D26:  MOVLW  0E
09D28:  MOVLB  6
09D2A:  MOVWF  xB5
09D2C:  MOVLB  0
09D2E:  CALL   5994
09D32:  MOVLW  02
09D34:  MOVWF  FE9
09D36:  MOVFF  6B3,6B8
09D3A:  MOVFF  6B2,6B7
09D3E:  MOVFF  6B1,6B6
09D42:  MOVFF  6B0,6B5
09D46:  MOVLB  6
09D48:  CLRF   xB9
09D4A:  MOVLB  0
09D4C:  CALL   5C7E
09D50:  MOVLW  22
09D52:  BTFSS  F9E.4
09D54:  BRA    9D52
09D56:  MOVWF  FAD
....................          SendDataDisplay(); 
09D58:  CALL   402C
....................          printf("b15.txt=\"A4:%3.0f %03Lu\"",sensores(4),PresionPreCamara); 
09D5C:  MOVLW  04
09D5E:  MOVLB  6
09D60:  MOVWF  xB6
09D62:  MOVLB  0
09D64:  CALL   4160
09D68:  MOVFF  00,6B0
09D6C:  MOVFF  01,6B1
09D70:  MOVFF  02,6B2
09D74:  MOVFF  03,6B3
09D78:  MOVLW  00
09D7A:  MOVWF  FF6
09D7C:  MOVLW  0E
09D7E:  MOVWF  FF7
09D80:  MOVLW  00
09D82:  MOVWF  FF8
09D84:  MOVLW  0C
09D86:  MOVLB  6
09D88:  MOVWF  xB5
09D8A:  MOVLB  0
09D8C:  CALL   5994
09D90:  MOVLW  02
09D92:  MOVWF  FE9
09D94:  MOVFF  6B3,6B8
09D98:  MOVFF  6B2,6B7
09D9C:  MOVFF  6B1,6B6
09DA0:  MOVFF  6B0,6B5
09DA4:  MOVLB  6
09DA6:  CLRF   xB9
09DA8:  MOVLB  0
09DAA:  CALL   5C7E
09DAE:  MOVLW  20
09DB0:  BTFSS  F9E.4
09DB2:  BRA    9DB0
09DB4:  MOVWF  FAD
09DB6:  MOVLW  0A
09DB8:  MOVWF  FE9
09DBA:  MOVFF  27B,6B5
09DBE:  MOVFF  27A,6B4
09DC2:  CALL   5B10
09DC6:  MOVLW  22
09DC8:  BTFSS  F9E.4
09DCA:  BRA    9DC8
09DCC:  MOVWF  FAD
....................          SendDataDisplay(); 
09DCE:  CALL   402C
....................          printf("b18.txt=\"A5:%3.0f %03Lu\"",sensores(5),PresionCamara); 
09DD2:  MOVLW  05
09DD4:  MOVLB  6
09DD6:  MOVWF  xB6
09DD8:  MOVLB  0
09DDA:  CALL   4160
09DDE:  MOVFF  00,6B0
09DE2:  MOVFF  01,6B1
09DE6:  MOVFF  02,6B2
09DEA:  MOVFF  03,6B3
09DEE:  MOVLW  1A
09DF0:  MOVWF  FF6
09DF2:  MOVLW  0E
09DF4:  MOVWF  FF7
09DF6:  MOVLW  00
09DF8:  MOVWF  FF8
09DFA:  MOVLW  0C
09DFC:  MOVLB  6
09DFE:  MOVWF  xB5
09E00:  MOVLB  0
09E02:  CALL   5994
09E06:  MOVLW  02
09E08:  MOVWF  FE9
09E0A:  MOVFF  6B3,6B8
09E0E:  MOVFF  6B2,6B7
09E12:  MOVFF  6B1,6B6
09E16:  MOVFF  6B0,6B5
09E1A:  MOVLB  6
09E1C:  CLRF   xB9
09E1E:  MOVLB  0
09E20:  CALL   5C7E
09E24:  MOVLW  20
09E26:  BTFSS  F9E.4
09E28:  BRA    9E26
09E2A:  MOVWF  FAD
09E2C:  MOVLW  0A
09E2E:  MOVWF  FE9
09E30:  MOVFF  279,6B5
09E34:  MOVFF  278,6B4
09E38:  CALL   5B10
09E3C:  MOVLW  22
09E3E:  BTFSS  F9E.4
09E40:  BRA    9E3E
09E42:  MOVWF  FAD
....................          SendDataDisplay(); 
09E44:  CALL   402C
....................          printf("b19.txt=\"T2:%3.1f\"",Temperatura2); 
09E48:  MOVLW  34
09E4A:  MOVWF  FF6
09E4C:  MOVLW  0E
09E4E:  MOVWF  FF7
09E50:  MOVLW  00
09E52:  MOVWF  FF8
09E54:  MOVLW  0C
09E56:  MOVLB  6
09E58:  MOVWF  xB5
09E5A:  MOVLB  0
09E5C:  CALL   5994
09E60:  MOVLW  02
09E62:  MOVWF  FE9
09E64:  MOVFF  240,6B8
09E68:  MOVFF  23F,6B7
09E6C:  MOVFF  23E,6B6
09E70:  MOVFF  23D,6B5
09E74:  MOVLW  01
09E76:  MOVLB  6
09E78:  MOVWF  xB9
09E7A:  MOVLB  0
09E7C:  CALL   5C7E
09E80:  MOVLW  22
09E82:  BTFSS  F9E.4
09E84:  BRA    9E82
09E86:  MOVWF  FAD
....................          SendDataDisplay(); 
09E88:  CALL   402C
....................          printf("b20.txt=\"T1:%3.1f\"",Temperatura); 
09E8C:  MOVLW  48
09E8E:  MOVWF  FF6
09E90:  MOVLW  0E
09E92:  MOVWF  FF7
09E94:  MOVLW  00
09E96:  MOVWF  FF8
09E98:  MOVLW  0C
09E9A:  MOVLB  6
09E9C:  MOVWF  xB5
09E9E:  MOVLB  0
09EA0:  CALL   5994
09EA4:  MOVLW  02
09EA6:  MOVWF  FE9
09EA8:  MOVFF  23C,6B8
09EAC:  MOVFF  23B,6B7
09EB0:  MOVFF  23A,6B6
09EB4:  MOVFF  239,6B5
09EB8:  MOVLW  01
09EBA:  MOVLB  6
09EBC:  MOVWF  xB9
09EBE:  MOVLB  0
09EC0:  CALL   5C7E
09EC4:  MOVLW  22
09EC6:  BTFSS  F9E.4
09EC8:  BRA    9EC6
09ECA:  MOVWF  FAD
....................          SendDataDisplay(); 
09ECC:  CALL   402C
....................           
....................          if(RX_Buffer[4]==0x21)//Oprimio salir 
09ED0:  MOVF   34,W
09ED2:  SUBLW  21
09ED4:  BNZ   9EF6
....................          { 
....................             printf("page Menu"); 
09ED6:  MOVLW  5C
09ED8:  MOVWF  FF6
09EDA:  MOVLW  0E
09EDC:  MOVWF  FF7
09EDE:  MOVLW  00
09EE0:  MOVWF  FF8
09EE2:  CALL   3FFA
....................             SendDataDisplay(); 
09EE6:  CALL   402C
....................             PantallaPrincipal=0; 
09EEA:  MOVLB  1
09EEC:  CLRF   xF6
....................             PruebaEstados=OFF; 
09EEE:  MOVLB  0
09EF0:  BCF    xFF.0
....................             ApagaSalidas(); 
09EF2:  CALL   4062
09EF6:  MOVLB  2
....................             // Falta apagar Todo 
....................          } 
....................      } 
.................... //_--------------------------------------------------------------------------------------------------------------------------------------------------------     
....................  
.................... //_--------------------------------------------------------------------------------------------------------------------------------------------------------       
....................     if(Menu==7){ //Menu de Configuracin de Fecha y Hora 
09EF8:  MOVF   x59,W
09EFA:  SUBLW  07
09EFC:  BTFSS  FD8.2
09EFE:  BRA    A2E0
....................        
....................          if(RX_Buffer[4]==0x0a)//Selecciono Hora 
09F00:  MOVF   34,W
09F02:  SUBLW  0A
09F04:  BNZ   9F0A
....................             Opcion=4; 
09F06:  MOVLW  04
09F08:  MOVWF  x68
....................           
....................          if(RX_Buffer[4]==0x0b)//Selecciono Minuto 
09F0A:  MOVF   34,W
09F0C:  SUBLW  0B
09F0E:  BNZ   9F14
....................             Opcion=5; 
09F10:  MOVLW  05
09F12:  MOVWF  x68
....................           
....................          if(RX_Buffer[4]==0x0c)//Selecciono Dia 
09F14:  MOVF   34,W
09F16:  SUBLW  0C
09F18:  BNZ   9F1E
....................             Opcion=1; 
09F1A:  MOVLW  01
09F1C:  MOVWF  x68
....................           
....................          if(RX_Buffer[4]==0x0d)//Selecciono Hora 
09F1E:  MOVF   34,W
09F20:  SUBLW  0D
09F22:  BNZ   9F28
....................             Opcion=2; 
09F24:  MOVLW  02
09F26:  MOVWF  x68
....................           
....................          if(RX_Buffer[4]==0x0e)//Selecciono Year 
09F28:  MOVF   34,W
09F2A:  SUBLW  0E
09F2C:  BNZ   9F32
....................             Opcion=3; 
09F2E:  MOVLW  03
09F30:  MOVWF  x68
....................           
....................          if(Opcion>5) 
09F32:  MOVF   x68,W
09F34:  SUBLW  05
09F36:  BC    9F3C
....................             Opcion=1; 
09F38:  MOVLW  01
09F3A:  MOVWF  x68
....................          if(Opcion<1) 
09F3C:  MOVF   x68,F
09F3E:  BNZ   9F44
....................             Opcion=5; 
09F40:  MOVLW  05
09F42:  MOVWF  x68
....................              
....................          if(RX_Buffer[4]==0x11){//Selecciono Regresar 
09F44:  MOVF   34,W
09F46:  SUBLW  11
09F48:  BTFSS  FD8.2
09F4A:  BRA    A084
....................             printf("page Menu"); 
09F4C:  MOVLW  66
09F4E:  MOVWF  FF6
09F50:  MOVLW  0E
09F52:  MOVWF  FF7
09F54:  MOVLW  00
09F56:  MOVWF  FF8
09F58:  MOVLB  0
09F5A:  CALL   3FFA
....................             SendDataDisplay();   
09F5E:  CALL   402C
....................             PantallaPrincipal=0; 
09F62:  MOVLB  1
09F64:  CLRF   xF6
....................             Op=OFF; 
09F66:  MOVLB  0
09F68:  BCF    xFF.4
....................             Op2=OFF; 
09F6A:  BCF    xFF.5
....................              
....................             if(esBisiesto(YearTx)) 
09F6C:  MOVFF  2A5,6B0
09F70:  CALL   5E68
09F74:  MOVF   01,F
09F76:  BZ    9F92
....................                Modulo=Bisiesto[MesTx]; 
09F78:  CLRF   03
09F7A:  MOVLB  2
09F7C:  MOVF   xA6,W
09F7E:  ADDLW  EB
09F80:  MOVWF  FE9
09F82:  MOVLW  00
09F84:  ADDWFC 03,W
09F86:  MOVWF  FEA
09F88:  MOVFF  FEF,1F8
09F8C:  MOVLB  1
....................             else 
09F8E:  BRA    9FA8
09F90:  MOVLB  0
....................                Modulo=Regular[MesTx]; 
09F92:  CLRF   03
09F94:  MOVLB  2
09F96:  MOVF   xA6,W
09F98:  ADDLW  DF
09F9A:  MOVWF  FE9
09F9C:  MOVLW  00
09F9E:  ADDWFC 03,W
09FA0:  MOVWF  FEA
09FA2:  MOVFF  FEF,1F8
09FA6:  MOVLB  1
....................           
....................             dowTx=((YearTx-1)%7+((YearTx-1)/4-3*((YearTx-1)/100+1)/4)%7+Modulo+DiaTx%7)%7; 
09FA8:  MOVLW  01
09FAA:  MOVLB  2
09FAC:  SUBWF  xA5,W
09FAE:  MOVLB  6
09FB0:  MOVWF  xB1
09FB2:  MOVWF  xB9
09FB4:  MOVLW  07
09FB6:  MOVWF  xBA
09FB8:  MOVLB  0
09FBA:  CALL   59EC
09FBE:  MOVFF  00,6B0
09FC2:  MOVLW  01
09FC4:  MOVLB  2
09FC6:  SUBWF  xA5,W
09FC8:  MOVWF  00
09FCA:  RRCF   00,W
09FCC:  MOVLB  6
09FCE:  MOVWF  xB1
09FD0:  RRCF   xB1,F
09FD2:  MOVLW  3F
09FD4:  ANDWF  xB1,F
09FD6:  MOVLW  01
09FD8:  MOVLB  2
09FDA:  SUBWF  xA5,W
09FDC:  MOVLB  6
09FDE:  MOVWF  xB3
09FE0:  MOVWF  xB9
09FE2:  MOVLW  64
09FE4:  MOVWF  xBA
09FE6:  MOVLB  0
09FE8:  CALL   59EC
09FEC:  MOVLW  01
09FEE:  ADDWF  01,W
09FF0:  MULLW  03
09FF2:  MOVFF  FF3,00
09FF6:  RRCF   00,F
09FF8:  RRCF   00,F
09FFA:  MOVLW  3F
09FFC:  ANDWF  00,F
09FFE:  MOVF   00,W
0A000:  MOVLB  6
0A002:  SUBWF  xB1,W
0A004:  MOVWF  xB2
0A006:  MOVWF  xB9
0A008:  MOVLW  07
0A00A:  MOVWF  xBA
0A00C:  MOVLB  0
0A00E:  CALL   59EC
0A012:  MOVF   00,W
0A014:  MOVLB  6
0A016:  ADDWF  xB0,W
0A018:  MOVLB  1
0A01A:  ADDWF  xF8,W
0A01C:  MOVLB  6
0A01E:  MOVWF  xB0
0A020:  MOVFF  2A7,6B9
0A024:  MOVLW  07
0A026:  MOVWF  xBA
0A028:  MOVLB  0
0A02A:  CALL   59EC
0A02E:  MOVF   00,W
0A030:  MOVLB  6
0A032:  ADDWF  xB0,W
0A034:  MOVWF  xB1
0A036:  MOVWF  xB9
0A038:  MOVLW  07
0A03A:  MOVWF  xBA
0A03C:  MOVLB  0
0A03E:  CALL   59EC
0A042:  MOVFF  00,2AB
....................             SetTime=5; 
0A046:  MOVLW  05
0A048:  MOVLB  2
0A04A:  MOVWF  xAC
....................             Envio_Esclavos(); 
0A04C:  MOVLB  0
0A04E:  CALL   4FF2
....................             delay_ms(100);    
0A052:  MOVLW  64
0A054:  MOVLB  6
0A056:  MOVWF  xC2
0A058:  MOVLB  0
0A05A:  CALL   1F7A
....................             SetTime=10; 
0A05E:  MOVLW  0A
0A060:  MOVLB  2
0A062:  MOVWF  xAC
....................             rtc_set_datetime(DiaTx,MesTx,YearTx,dowTx,HoraTx,MinutoTx); 
0A064:  MOVFF  2A7,6B0
0A068:  MOVFF  2A6,6B1
0A06C:  MOVFF  2A5,6B2
0A070:  MOVFF  2AB,6B3
0A074:  MOVFF  2A8,6B4
0A078:  MOVFF  2A9,6B5
0A07C:  MOVLB  0
0A07E:  GOTO   5EEA
0A082:  MOVLB  2
....................          } 
....................           
....................          if(RX_Buffer[4]==0x2a){//Tecla Arriba Oprimida 
0A084:  MOVF   34,W
0A086:  SUBLW  2A
0A088:  BTFSS  FD8.2
0A08A:  BRA    A170
....................                if(Opcion==1){ 
0A08C:  DECFSZ x68,W
0A08E:  BRA    A11C
....................                   if(MesTx==2){ 
0A090:  MOVF   xA6,W
0A092:  SUBLW  02
0A094:  BNZ   A0CA
....................                      if(esBisiesto(YearTx)){ 
0A096:  MOVFF  2A5,6B0
0A09A:  MOVLB  0
0A09C:  CALL   5E68
0A0A0:  MOVF   01,F
0A0A2:  BZ    A0B8
....................                         if(DiaTx<29) 
0A0A4:  MOVLB  2
0A0A6:  MOVF   xA7,W
0A0A8:  SUBLW  1C
0A0AA:  BNC   A0B0
....................                            DiaTx++; 
0A0AC:  INCF   xA7,F
....................                         else 
0A0AE:  BRA    A0B4
....................                            DiaTx=1;    
0A0B0:  MOVLW  01
0A0B2:  MOVWF  xA7
....................                      }else{ 
0A0B4:  BRA    A0C8
0A0B6:  MOVLB  0
....................                         if(DiaTx<28) 
0A0B8:  MOVLB  2
0A0BA:  MOVF   xA7,W
0A0BC:  SUBLW  1B
0A0BE:  BNC   A0C4
....................                            DiaTx++; 
0A0C0:  INCF   xA7,F
....................                         else 
0A0C2:  BRA    A0C8
....................                            DiaTx=1;    
0A0C4:  MOVLW  01
0A0C6:  MOVWF  xA7
....................                      } 
....................                   }else{ 
0A0C8:  BRA    A11A
....................                      if(MesTx<=7){ 
0A0CA:  MOVF   xA6,W
0A0CC:  SUBLW  07
0A0CE:  BNC   A0F6
....................                         if(MesTx % 2 ==0){ 
0A0D0:  MOVF   xA6,W
0A0D2:  ANDLW  01
0A0D4:  BNZ   A0E6
....................                            if(DiaTx<30) 
0A0D6:  MOVF   xA7,W
0A0D8:  SUBLW  1D
0A0DA:  BNC   A0E0
....................                               DiaTx++;     
0A0DC:  INCF   xA7,F
....................                            else 
0A0DE:  BRA    A0E4
....................                               DiaTx=1;    
0A0E0:  MOVLW  01
0A0E2:  MOVWF  xA7
....................                         }else{ 
0A0E4:  BRA    A0F4
....................                            if(DiaTx<31) 
0A0E6:  MOVF   xA7,W
0A0E8:  SUBLW  1E
0A0EA:  BNC   A0F0
....................                               DiaTx++;     
0A0EC:  INCF   xA7,F
....................                            else 
0A0EE:  BRA    A0F4
....................                               DiaTx=1;    
0A0F0:  MOVLW  01
0A0F2:  MOVWF  xA7
....................                         }     
....................                      }else{ 
0A0F4:  BRA    A11A
....................                         if(MesTx % 2 ==0){ 
0A0F6:  MOVF   xA6,W
0A0F8:  ANDLW  01
0A0FA:  BNZ   A10C
....................                            if(DiaTx<31) 
0A0FC:  MOVF   xA7,W
0A0FE:  SUBLW  1E
0A100:  BNC   A106
....................                               DiaTx++;   
0A102:  INCF   xA7,F
....................                            else 
0A104:  BRA    A10A
....................                               DiaTx=1; 
0A106:  MOVLW  01
0A108:  MOVWF  xA7
....................                         }else{ 
0A10A:  BRA    A11A
....................                            if(DiaTx<30) 
0A10C:  MOVF   xA7,W
0A10E:  SUBLW  1D
0A110:  BNC   A116
....................                               DiaTx++;     
0A112:  INCF   xA7,F
....................                            else 
0A114:  BRA    A11A
....................                               DiaTx=1; 
0A116:  MOVLW  01
0A118:  MOVWF  xA7
....................                         }     
....................                      } 
....................                   } 
....................                }else if(Opcion==2){ 
0A11A:  BRA    A16C
0A11C:  MOVF   x68,W
0A11E:  SUBLW  02
0A120:  BNZ   A132
....................                   if(MesTx<12) 
0A122:  MOVF   xA6,W
0A124:  SUBLW  0B
0A126:  BNC   A12C
....................                      MesTx++; 
0A128:  INCF   xA6,F
....................                   else 
0A12A:  BRA    A130
....................                      MesTx=1; 
0A12C:  MOVLW  01
0A12E:  MOVWF  xA6
....................                }else if(Opcion==3){ 
0A130:  BRA    A16C
0A132:  MOVF   x68,W
0A134:  SUBLW  03
0A136:  BNZ   A146
....................                   if(YearTx<99) 
0A138:  MOVF   xA5,W
0A13A:  SUBLW  62
0A13C:  BNC   A142
....................                      YearTx++; 
0A13E:  INCF   xA5,F
....................                   else  
0A140:  BRA    A144
....................                      YearTx=0; 
0A142:  CLRF   xA5
....................                }else if(Opcion==4){ 
0A144:  BRA    A16C
0A146:  MOVF   x68,W
0A148:  SUBLW  04
0A14A:  BNZ   A15A
....................                   if(HoraTx<24) 
0A14C:  MOVF   xA8,W
0A14E:  SUBLW  17
0A150:  BNC   A156
....................                      HoraTx++; 
0A152:  INCF   xA8,F
....................                   else 
0A154:  BRA    A158
....................                      HoraTx=0; 
0A156:  CLRF   xA8
....................                }else if(Opcion==5){ 
0A158:  BRA    A16C
0A15A:  MOVF   x68,W
0A15C:  SUBLW  05
0A15E:  BNZ   A16C
....................                   if(MinutoTx<59) 
0A160:  MOVF   xA9,W
0A162:  SUBLW  3A
0A164:  BNC   A16A
....................                      MinutoTx++; 
0A166:  INCF   xA9,F
....................                   else 
0A168:  BRA    A16C
....................                      MinutoTx=0; 
0A16A:  CLRF   xA9
....................                } 
....................                RX_Buffer[4]=0x00; 
0A16C:  CLRF   34
....................                RX_Buffer2[4]=0x00; 
0A16E:  CLRF   3F
....................          } 
....................           
....................          if(RX_Buffer[4]==0x2b){//Tecla Abajo Oprimida  
0A170:  MOVF   34,W
0A172:  SUBLW  2B
0A174:  BNZ   A1D6
....................                if(Opcion==1){ 
0A176:  DECFSZ x68,W
0A178:  BRA    A182
....................                   if(DiaTx>0) 
0A17A:  MOVF   xA7,F
0A17C:  BZ    A180
....................                      DiaTx--; 
0A17E:  DECF   xA7,F
....................                }else if(Opcion==2){ 
0A180:  BRA    A1D2
0A182:  MOVF   x68,W
0A184:  SUBLW  02
0A186:  BNZ   A198
....................                   if(MesTx>1) 
0A188:  MOVF   xA6,W
0A18A:  SUBLW  01
0A18C:  BC    A192
....................                      MesTx--; 
0A18E:  DECF   xA6,F
....................                   else 
0A190:  BRA    A196
....................                      MesTx=12; 
0A192:  MOVLW  0C
0A194:  MOVWF  xA6
....................                }else if(Opcion==3){ 
0A196:  BRA    A1D2
0A198:  MOVF   x68,W
0A19A:  SUBLW  03
0A19C:  BNZ   A1AC
....................                   if(YearTx>0) 
0A19E:  MOVF   xA5,F
0A1A0:  BZ    A1A6
....................                      YearTx--; 
0A1A2:  DECF   xA5,F
....................                   else 
0A1A4:  BRA    A1AA
....................                      YearTx=99; 
0A1A6:  MOVLW  63
0A1A8:  MOVWF  xA5
....................                }else if(Opcion==4){ 
0A1AA:  BRA    A1D2
0A1AC:  MOVF   x68,W
0A1AE:  SUBLW  04
0A1B0:  BNZ   A1C0
....................                   if(HoraTx>0) 
0A1B2:  MOVF   xA8,F
0A1B4:  BZ    A1BA
....................                      HoraTx--; 
0A1B6:  DECF   xA8,F
....................                   else 
0A1B8:  BRA    A1BE
....................                      HoraTx=23; 
0A1BA:  MOVLW  17
0A1BC:  MOVWF  xA8
....................                }else if(Opcion==5){ 
0A1BE:  BRA    A1D2
0A1C0:  MOVF   x68,W
0A1C2:  SUBLW  05
0A1C4:  BNZ   A1D2
....................                   if(MinutoTx>0) 
0A1C6:  MOVF   xA9,F
0A1C8:  BZ    A1CE
....................                      MinutoTx--; 
0A1CA:  DECF   xA9,F
....................                   else 
0A1CC:  BRA    A1D2
....................                      MinutoTx=59; 
0A1CE:  MOVLW  3B
0A1D0:  MOVWF  xA9
....................                } 
....................                RX_Buffer[4]=0x00; 
0A1D2:  CLRF   34
....................                RX_Buffer2[4]=0x00; 
0A1D4:  CLRF   3F
....................                //BorraBuffer(); 
....................          } 
....................        
....................       printf("thora.txt=\"%02u\"",HoraTx); 
0A1D6:  MOVLW  70
0A1D8:  MOVWF  FF6
0A1DA:  MOVLW  0E
0A1DC:  MOVWF  FF7
0A1DE:  MOVLW  00
0A1E0:  MOVWF  FF8
0A1E2:  MOVLW  0B
0A1E4:  MOVLB  6
0A1E6:  MOVWF  xB5
0A1E8:  MOVLB  0
0A1EA:  CALL   5994
0A1EE:  MOVFF  2A8,6B5
0A1F2:  MOVLW  01
0A1F4:  MOVLB  6
0A1F6:  MOVWF  xB6
0A1F8:  MOVLB  0
0A1FA:  CALL   5A18
0A1FE:  MOVLW  22
0A200:  BTFSS  F9E.4
0A202:  BRA    A200
0A204:  MOVWF  FAD
....................       SendDataDisplay(); 
0A206:  CALL   402C
....................       printf("tminutos.txt=\"%02u\"",MinutoTx); 
0A20A:  MOVLW  82
0A20C:  MOVWF  FF6
0A20E:  MOVLW  0E
0A210:  MOVWF  FF7
0A212:  MOVLW  00
0A214:  MOVWF  FF8
0A216:  MOVLW  0E
0A218:  MOVLB  6
0A21A:  MOVWF  xB5
0A21C:  MOVLB  0
0A21E:  CALL   5994
0A222:  MOVFF  2A9,6B5
0A226:  MOVLW  01
0A228:  MOVLB  6
0A22A:  MOVWF  xB6
0A22C:  MOVLB  0
0A22E:  CALL   5A18
0A232:  MOVLW  22
0A234:  BTFSS  F9E.4
0A236:  BRA    A234
0A238:  MOVWF  FAD
....................       SendDataDisplay(); 
0A23A:  CALL   402C
....................       printf("tdia.txt=\"%02u\"",DiaTx); 
0A23E:  MOVLW  96
0A240:  MOVWF  FF6
0A242:  MOVLW  0E
0A244:  MOVWF  FF7
0A246:  MOVLW  00
0A248:  MOVWF  FF8
0A24A:  MOVLW  0A
0A24C:  MOVLB  6
0A24E:  MOVWF  xB5
0A250:  MOVLB  0
0A252:  CALL   5994
0A256:  MOVFF  2A7,6B5
0A25A:  MOVLW  01
0A25C:  MOVLB  6
0A25E:  MOVWF  xB6
0A260:  MOVLB  0
0A262:  CALL   5A18
0A266:  MOVLW  22
0A268:  BTFSS  F9E.4
0A26A:  BRA    A268
0A26C:  MOVWF  FAD
....................       SendDataDisplay(); 
0A26E:  CALL   402C
....................       printf("tmes.txt=\"%02u\"",MesTx); 
0A272:  MOVLW  A6
0A274:  MOVWF  FF6
0A276:  MOVLW  0E
0A278:  MOVWF  FF7
0A27A:  MOVLW  00
0A27C:  MOVWF  FF8
0A27E:  MOVLW  0A
0A280:  MOVLB  6
0A282:  MOVWF  xB5
0A284:  MOVLB  0
0A286:  CALL   5994
0A28A:  MOVFF  2A6,6B5
0A28E:  MOVLW  01
0A290:  MOVLB  6
0A292:  MOVWF  xB6
0A294:  MOVLB  0
0A296:  CALL   5A18
0A29A:  MOVLW  22
0A29C:  BTFSS  F9E.4
0A29E:  BRA    A29C
0A2A0:  MOVWF  FAD
....................       SendDataDisplay(); 
0A2A2:  CALL   402C
....................       printf("tyear.txt=\"%02u\"",YearTx); 
0A2A6:  MOVLW  B6
0A2A8:  MOVWF  FF6
0A2AA:  MOVLW  0E
0A2AC:  MOVWF  FF7
0A2AE:  MOVLW  00
0A2B0:  MOVWF  FF8
0A2B2:  MOVLW  0B
0A2B4:  MOVLB  6
0A2B6:  MOVWF  xB5
0A2B8:  MOVLB  0
0A2BA:  CALL   5994
0A2BE:  MOVFF  2A5,6B5
0A2C2:  MOVLW  01
0A2C4:  MOVLB  6
0A2C6:  MOVWF  xB6
0A2C8:  MOVLB  0
0A2CA:  CALL   5A18
0A2CE:  MOVLW  22
0A2D0:  BTFSS  F9E.4
0A2D2:  BRA    A2D0
0A2D4:  MOVWF  FAD
....................       SendDataDisplay(); 
0A2D6:  CALL   402C
....................       LimitaDia();   
0A2DA:  GOTO   5FA6
0A2DE:  MOVLB  2
....................     } 
.................... //_--------------------------------------------------------------------------------------------------------------------------------------------------------        
....................  
.................... //_-------------------------------------------------------------------------------------------------------------------------------------------------------- 
....................    if(Menu==8){ //Menu Ciclos Personalizados 
0A2E0:  MOVF   x59,W
0A2E2:  SUBLW  08
0A2E4:  BTFSS  FD8.2
0A2E6:  GOTO   AE98
....................       printf("fecha.txt=\"Fecha:%02u/%02u/20%02u    Hora: %02u:%02u:%02u\"",Dia,Mes,Year,Hora,Minuto,Segundo); 
0A2EA:  MOVLW  C8
0A2EC:  MOVWF  FF6
0A2EE:  MOVLW  0E
0A2F0:  MOVWF  FF7
0A2F2:  MOVLW  00
0A2F4:  MOVWF  FF8
0A2F6:  MOVLW  11
0A2F8:  MOVLB  6
0A2FA:  MOVWF  xB5
0A2FC:  MOVLB  0
0A2FE:  CALL   5994
0A302:  MOVFF  29A,6B5
0A306:  MOVLW  01
0A308:  MOVLB  6
0A30A:  MOVWF  xB6
0A30C:  MOVLB  0
0A30E:  CALL   5A18
0A312:  MOVLW  2F
0A314:  BTFSS  F9E.4
0A316:  BRA    A314
0A318:  MOVWF  FAD
0A31A:  MOVFF  299,6B5
0A31E:  MOVLW  01
0A320:  MOVLB  6
0A322:  MOVWF  xB6
0A324:  MOVLB  0
0A326:  CALL   5A18
0A32A:  MOVLW  2F
0A32C:  BTFSS  F9E.4
0A32E:  BRA    A32C
0A330:  MOVWF  FAD
0A332:  MOVLW  32
0A334:  BTFSS  F9E.4
0A336:  BRA    A334
0A338:  MOVWF  FAD
0A33A:  MOVLW  30
0A33C:  BTFSS  F9E.4
0A33E:  BRA    A33C
0A340:  MOVWF  FAD
0A342:  MOVFF  298,6B5
0A346:  MOVLW  01
0A348:  MOVLB  6
0A34A:  MOVWF  xB6
0A34C:  MOVLB  0
0A34E:  CALL   5A18
0A352:  MOVLW  E9
0A354:  MOVWF  FF6
0A356:  MOVLW  0E
0A358:  MOVWF  FF7
0A35A:  MOVLW  00
0A35C:  MOVWF  FF8
0A35E:  MOVLW  0A
0A360:  MOVLB  6
0A362:  MOVWF  xB5
0A364:  MOVLB  0
0A366:  CALL   5994
0A36A:  MOVFF  29B,6B5
0A36E:  MOVLW  01
0A370:  MOVLB  6
0A372:  MOVWF  xB6
0A374:  MOVLB  0
0A376:  CALL   5A18
0A37A:  MOVLW  3A
0A37C:  BTFSS  F9E.4
0A37E:  BRA    A37C
0A380:  MOVWF  FAD
0A382:  MOVFF  29C,6B5
0A386:  MOVLW  01
0A388:  MOVLB  6
0A38A:  MOVWF  xB6
0A38C:  MOVLB  0
0A38E:  CALL   5A18
0A392:  MOVLW  3A
0A394:  BTFSS  F9E.4
0A396:  BRA    A394
0A398:  MOVWF  FAD
0A39A:  MOVFF  29D,6B5
0A39E:  MOVLW  01
0A3A0:  MOVLB  6
0A3A2:  MOVWF  xB6
0A3A4:  MOVLB  0
0A3A6:  CALL   5A18
0A3AA:  MOVLW  22
0A3AC:  BTFSS  F9E.4
0A3AE:  BRA    A3AC
0A3B0:  MOVWF  FAD
....................       SendDataDisplay(); 
0A3B2:  CALL   402C
....................       GuardaEEPROM=OFF; 
0A3B6:  MOVLB  1
0A3B8:  BCF    x00.0
....................       printf("tuser.txt=\"%s\"",usuario); 
0A3BA:  MOVLW  04
0A3BC:  MOVWF  FF6
0A3BE:  MOVLW  0F
0A3C0:  MOVWF  FF7
0A3C2:  MOVLW  00
0A3C4:  MOVWF  FF8
0A3C6:  MOVLW  0B
0A3C8:  MOVLB  6
0A3CA:  MOVWF  xB5
0A3CC:  MOVLB  0
0A3CE:  CALL   5994
0A3D2:  MOVLW  02
0A3D4:  MOVWF  FEA
0A3D6:  MOVLW  B6
0A3D8:  MOVWF  FE9
0A3DA:  CALL   59C6
0A3DE:  MOVLW  22
0A3E0:  BTFSS  F9E.4
0A3E2:  BRA    A3E0
0A3E4:  MOVWF  FAD
....................       SendDataDisplay(); 
0A3E6:  CALL   402C
....................        
....................       if(RX_Buffer[4]>0x00 && RX_Buffer[4]<0x15 && estados[RX_Buffer[4]-1]){//Personalizados 
0A3EA:  MOVF   34,F
0A3EC:  BTFSC  FD8.2
0A3EE:  BRA    A6B6
0A3F0:  MOVF   34,W
0A3F2:  SUBLW  14
0A3F4:  BTFSS  FD8.0
0A3F6:  BRA    A6B6
0A3F8:  MOVLW  01
0A3FA:  SUBWF  34,W
0A3FC:  MOVLB  6
0A3FE:  MOVWF  xB1
0A400:  MOVLW  03
0A402:  MOVWF  xB3
0A404:  MOVLW  1C
0A406:  MOVWF  xB2
0A408:  MOVLB  0
0A40A:  CALL   23BA
0A40E:  BTFSS  01.0
0A410:  BRA    A6B6
....................          printf("ciclo.txt=\"CICLO P%02u\"",RX_Buffer[4]+0x0a); 
0A412:  MOVLW  0A
0A414:  ADDWF  34,W
0A416:  MOVLB  6
0A418:  MOVWF  xB0
0A41A:  MOVLW  14
0A41C:  MOVWF  FF6
0A41E:  MOVLW  0F
0A420:  MOVWF  FF7
0A422:  MOVLW  00
0A424:  MOVWF  FF8
0A426:  MOVLW  12
0A428:  MOVWF  xB5
0A42A:  MOVLB  0
0A42C:  CALL   5994
0A430:  MOVFF  6B0,6B5
0A434:  MOVLW  01
0A436:  MOVLB  6
0A438:  MOVWF  xB6
0A43A:  MOVLB  0
0A43C:  CALL   5A18
0A440:  MOVLW  22
0A442:  BTFSS  F9E.4
0A444:  BRA    A442
0A446:  MOVWF  FAD
....................          SendDataDisplay();           
0A448:  CALL   402C
....................          printf("temp.txt=\"%u\"",CiclosPersonalizados[RX_Buffer[4]-1].Temperatura); 
0A44C:  MOVLW  01
0A44E:  SUBWF  34,W
0A450:  MULLW  08
0A452:  MOVF   FF3,W
0A454:  MOVLB  6
0A456:  CLRF   xB1
0A458:  MOVWF  xB0
0A45A:  MOVLW  E8
0A45C:  ADDWF  xB0,W
0A45E:  MOVWF  FE9
0A460:  MOVLW  05
0A462:  ADDWFC xB1,W
0A464:  MOVWF  FEA
0A466:  MOVFF  FEF,6B0
0A46A:  MOVLW  2C
0A46C:  MOVWF  FF6
0A46E:  MOVLW  0F
0A470:  MOVWF  FF7
0A472:  MOVLW  00
0A474:  MOVWF  FF8
0A476:  MOVLW  0A
0A478:  MOVWF  xB5
0A47A:  MOVLB  0
0A47C:  CALL   5994
0A480:  MOVFF  6B0,6B5
0A484:  MOVLW  1B
0A486:  MOVLB  6
0A488:  MOVWF  xB6
0A48A:  MOVLB  0
0A48C:  CALL   5A18
0A490:  MOVLW  22
0A492:  BTFSS  F9E.4
0A494:  BRA    A492
0A496:  MOVWF  FAD
....................          SendDataDisplay(); 
0A498:  CALL   402C
....................          printf("test.txt=\"%02u:%02u\"",CiclosPersonalizados[RX_Buffer[4]-1].Minutoest,CiclosPersonalizados[RX_Buffer[4]-1].Segundoest); 
0A49C:  MOVLW  01
0A49E:  SUBWF  34,W
0A4A0:  MULLW  08
0A4A2:  MOVF   FF3,W
0A4A4:  MOVLB  6
0A4A6:  CLRF   xB1
0A4A8:  MOVWF  xB0
0A4AA:  MOVLW  01
0A4AC:  ADDWF  xB0,W
0A4AE:  MOVWF  01
0A4B0:  MOVLW  00
0A4B2:  ADDWFC xB1,W
0A4B4:  MOVWF  03
0A4B6:  MOVF   01,W
0A4B8:  ADDLW  E8
0A4BA:  MOVWF  FE9
0A4BC:  MOVLW  05
0A4BE:  ADDWFC 03,W
0A4C0:  MOVWF  FEA
0A4C2:  MOVFF  FEF,6B0
0A4C6:  MOVLW  01
0A4C8:  SUBWF  34,W
0A4CA:  MULLW  08
0A4CC:  MOVF   FF3,W
0A4CE:  CLRF   xB2
0A4D0:  MOVWF  xB1
0A4D2:  MOVLW  02
0A4D4:  ADDWF  xB1,W
0A4D6:  MOVWF  01
0A4D8:  MOVLW  00
0A4DA:  ADDWFC xB2,W
0A4DC:  MOVWF  03
0A4DE:  MOVF   01,W
0A4E0:  ADDLW  E8
0A4E2:  MOVWF  FE9
0A4E4:  MOVLW  05
0A4E6:  ADDWFC 03,W
0A4E8:  MOVWF  FEA
0A4EA:  MOVFF  FEF,6B1
0A4EE:  MOVLW  3A
0A4F0:  MOVWF  FF6
0A4F2:  MOVLW  0F
0A4F4:  MOVWF  FF7
0A4F6:  MOVLW  00
0A4F8:  MOVWF  FF8
0A4FA:  MOVLW  0A
0A4FC:  MOVWF  xB5
0A4FE:  MOVLB  0
0A500:  CALL   5994
0A504:  MOVFF  6B0,6B5
0A508:  MOVLW  01
0A50A:  MOVLB  6
0A50C:  MOVWF  xB6
0A50E:  MOVLB  0
0A510:  CALL   5A18
0A514:  MOVLW  3A
0A516:  BTFSS  F9E.4
0A518:  BRA    A516
0A51A:  MOVWF  FAD
0A51C:  MOVFF  6B1,6B5
0A520:  MOVLW  01
0A522:  MOVLB  6
0A524:  MOVWF  xB6
0A526:  MOVLB  0
0A528:  CALL   5A18
0A52C:  MOVLW  22
0A52E:  BTFSS  F9E.4
0A530:  BRA    A52E
0A532:  MOVWF  FAD
....................          SendDataDisplay(); 
0A534:  CALL   402C
....................          printf("tsec.txt=\"%02u:%02u\"",CiclosPersonalizados[RX_Buffer[4]-1].Minutosec,CiclosPersonalizados[RX_Buffer[4]-1].Segundosec); 
0A538:  MOVLW  01
0A53A:  SUBWF  34,W
0A53C:  MULLW  08
0A53E:  MOVF   FF3,W
0A540:  MOVLB  6
0A542:  CLRF   xB1
0A544:  MOVWF  xB0
0A546:  MOVLW  03
0A548:  ADDWF  xB0,W
0A54A:  MOVWF  01
0A54C:  MOVLW  00
0A54E:  ADDWFC xB1,W
0A550:  MOVWF  03
0A552:  MOVF   01,W
0A554:  ADDLW  E8
0A556:  MOVWF  FE9
0A558:  MOVLW  05
0A55A:  ADDWFC 03,W
0A55C:  MOVWF  FEA
0A55E:  MOVFF  FEF,6B0
0A562:  MOVLW  01
0A564:  SUBWF  34,W
0A566:  MULLW  08
0A568:  MOVF   FF3,W
0A56A:  CLRF   xB2
0A56C:  MOVWF  xB1
0A56E:  MOVLW  04
0A570:  ADDWF  xB1,W
0A572:  MOVWF  01
0A574:  MOVLW  00
0A576:  ADDWFC xB2,W
0A578:  MOVWF  03
0A57A:  MOVF   01,W
0A57C:  ADDLW  E8
0A57E:  MOVWF  FE9
0A580:  MOVLW  05
0A582:  ADDWFC 03,W
0A584:  MOVWF  FEA
0A586:  MOVFF  FEF,6B1
0A58A:  MOVLW  50
0A58C:  MOVWF  FF6
0A58E:  MOVLW  0F
0A590:  MOVWF  FF7
0A592:  MOVLW  00
0A594:  MOVWF  FF8
0A596:  MOVLW  0A
0A598:  MOVWF  xB5
0A59A:  MOVLB  0
0A59C:  CALL   5994
0A5A0:  MOVFF  6B0,6B5
0A5A4:  MOVLW  01
0A5A6:  MOVLB  6
0A5A8:  MOVWF  xB6
0A5AA:  MOVLB  0
0A5AC:  CALL   5A18
0A5B0:  MOVLW  3A
0A5B2:  BTFSS  F9E.4
0A5B4:  BRA    A5B2
0A5B6:  MOVWF  FAD
0A5B8:  MOVFF  6B1,6B5
0A5BC:  MOVLW  01
0A5BE:  MOVLB  6
0A5C0:  MOVWF  xB6
0A5C2:  MOVLB  0
0A5C4:  CALL   5A18
0A5C8:  MOVLW  22
0A5CA:  BTFSS  F9E.4
0A5CC:  BRA    A5CA
0A5CE:  MOVWF  FAD
....................          SendDataDisplay(); 
0A5D0:  CALL   402C
....................          printf("pulsos.txt=\"%02u\"",CiclosPersonalizados[RX_Buffer[4]-1].PulsosVacio); 
0A5D4:  MOVLW  01
0A5D6:  SUBWF  34,W
0A5D8:  MULLW  08
0A5DA:  MOVF   FF3,W
0A5DC:  MOVLB  6
0A5DE:  CLRF   xB1
0A5E0:  MOVWF  xB0
0A5E2:  MOVLW  05
0A5E4:  ADDWF  xB0,W
0A5E6:  MOVWF  01
0A5E8:  MOVLW  00
0A5EA:  ADDWFC xB1,W
0A5EC:  MOVWF  03
0A5EE:  MOVF   01,W
0A5F0:  ADDLW  E8
0A5F2:  MOVWF  FE9
0A5F4:  MOVLW  05
0A5F6:  ADDWFC 03,W
0A5F8:  MOVWF  FEA
0A5FA:  MOVFF  FEF,6B0
0A5FE:  MOVLW  66
0A600:  MOVWF  FF6
0A602:  MOVLW  0F
0A604:  MOVWF  FF7
0A606:  MOVLW  00
0A608:  MOVWF  FF8
0A60A:  MOVLW  0C
0A60C:  MOVWF  xB5
0A60E:  MOVLB  0
0A610:  CALL   5994
0A614:  MOVFF  6B0,6B5
0A618:  MOVLW  01
0A61A:  MOVLB  6
0A61C:  MOVWF  xB6
0A61E:  MOVLB  0
0A620:  CALL   5A18
0A624:  MOVLW  22
0A626:  BTFSS  F9E.4
0A628:  BRA    A626
0A62A:  MOVWF  FAD
....................          SendDataDisplay(); 
0A62C:  CALL   402C
....................          printf("vacio.txt=\"%03u kPa\"",CiclosPersonalizados[RX_Buffer[4]-1].NivelVacio); 
0A630:  MOVLW  01
0A632:  SUBWF  34,W
0A634:  MULLW  08
0A636:  MOVF   FF3,W
0A638:  MOVLB  6
0A63A:  CLRF   xB1
0A63C:  MOVWF  xB0
0A63E:  MOVLW  06
0A640:  ADDWF  xB0,W
0A642:  MOVWF  01
0A644:  MOVLW  00
0A646:  ADDWFC xB1,W
0A648:  MOVWF  03
0A64A:  MOVF   01,W
0A64C:  ADDLW  E8
0A64E:  MOVWF  FE9
0A650:  MOVLW  05
0A652:  ADDWFC 03,W
0A654:  MOVWF  FEA
0A656:  MOVFF  FEF,6B0
0A65A:  MOVLW  78
0A65C:  MOVWF  FF6
0A65E:  MOVLW  0F
0A660:  MOVWF  FF7
0A662:  MOVLW  00
0A664:  MOVWF  FF8
0A666:  MOVLW  0B
0A668:  MOVWF  xB5
0A66A:  MOVLB  0
0A66C:  CALL   5994
0A670:  MOVFF  6B0,6B5
0A674:  MOVLW  03
0A676:  MOVLB  6
0A678:  MOVWF  xB6
0A67A:  MOVLB  0
0A67C:  CALL   5A18
0A680:  MOVLW  87
0A682:  MOVWF  FF6
0A684:  MOVLW  0F
0A686:  MOVWF  FF7
0A688:  MOVLW  00
0A68A:  MOVWF  FF8
0A68C:  MOVLW  05
0A68E:  MOVLB  6
0A690:  MOVWF  xB5
0A692:  MOVLB  0
0A694:  CALL   5994
....................          SendDataDisplay(); 
0A698:  CALL   402C
....................          //printf("desfogue.txt=\"%u\"",CiclosPersonalizados[RX_Buffer[4]-1].NivelDesfogue); 
....................          printf("desfogue.txt=\"N/A\""); 
0A69C:  MOVLW  8E
0A69E:  MOVWF  FF6
0A6A0:  MOVLW  0F
0A6A2:  MOVWF  FF7
0A6A4:  MOVLW  00
0A6A6:  MOVWF  FF8
0A6A8:  CALL   3FFA
....................          SendDataDisplay(); 
0A6AC:  CALL   402C
....................          CicloLibre=RX_Buffer[4]; 
0A6B0:  MOVFF  34,24F
....................       }else if(CicloLibre==0x00){ 
0A6B4:  BRA    AA2C
0A6B6:  MOVLB  2
0A6B8:  MOVF   x4F,F
0A6BA:  BNZ   A74E
....................          printf("ciclo.txt=\"CICLO P--\""); 
0A6BC:  MOVLW  A2
0A6BE:  MOVWF  FF6
0A6C0:  MOVLW  0F
0A6C2:  MOVWF  FF7
0A6C4:  MOVLW  00
0A6C6:  MOVWF  FF8
0A6C8:  MOVLB  0
0A6CA:  CALL   3FFA
....................          SendDataDisplay();           
0A6CE:  CALL   402C
....................          printf("temp.txt=\"--\""); 
0A6D2:  MOVLW  B8
0A6D4:  MOVWF  FF6
0A6D6:  MOVLW  0F
0A6D8:  MOVWF  FF7
0A6DA:  MOVLW  00
0A6DC:  MOVWF  FF8
0A6DE:  CALL   3FFA
....................          SendDataDisplay(); 
0A6E2:  CALL   402C
....................          printf("test.txt=\"--:--\""); 
0A6E6:  MOVLW  C6
0A6E8:  MOVWF  FF6
0A6EA:  MOVLW  0F
0A6EC:  MOVWF  FF7
0A6EE:  MOVLW  00
0A6F0:  MOVWF  FF8
0A6F2:  CALL   3FFA
....................          SendDataDisplay(); 
0A6F6:  CALL   402C
....................          printf("tsec.txt=\"--:--\""); 
0A6FA:  MOVLW  D8
0A6FC:  MOVWF  FF6
0A6FE:  MOVLW  0F
0A700:  MOVWF  FF7
0A702:  MOVLW  00
0A704:  MOVWF  FF8
0A706:  CALL   3FFA
....................          SendDataDisplay(); 
0A70A:  CALL   402C
....................          printf("pulsos.txt=\"--\""); 
0A70E:  MOVLW  EA
0A710:  MOVWF  FF6
0A712:  MOVLW  0F
0A714:  MOVWF  FF7
0A716:  MOVLW  00
0A718:  MOVWF  FF8
0A71A:  CALL   3FFA
....................          SendDataDisplay(); 
0A71E:  CALL   402C
....................          printf("vacio.txt=\"--\""); 
0A722:  MOVLW  FA
0A724:  MOVWF  FF6
0A726:  MOVLW  0F
0A728:  MOVWF  FF7
0A72A:  MOVLW  00
0A72C:  MOVWF  FF8
0A72E:  CALL   3FFA
....................          SendDataDisplay(); 
0A732:  CALL   402C
....................          printf("desfogue.txt=\"--\""); 
0A736:  MOVLW  0A
0A738:  MOVWF  FF6
0A73A:  MOVLW  10
0A73C:  MOVWF  FF7
0A73E:  MOVLW  00
0A740:  MOVWF  FF8
0A742:  CALL   3FFA
....................          SendDataDisplay(); 
0A746:  CALL   402C
....................       }else if(CicloLibre>0 && CicloLibre<21 && estados[CicloLibre-1]){ 
0A74A:  BRA    AA2C
0A74C:  MOVLB  2
0A74E:  MOVF   x4F,F
0A750:  BTFSC  FD8.2
0A752:  BRA    AA2E
0A754:  MOVF   x4F,W
0A756:  SUBLW  14
0A758:  BTFSS  FD8.0
0A75A:  BRA    AA2E
0A75C:  MOVLW  01
0A75E:  SUBWF  x4F,W
0A760:  MOVLB  6
0A762:  MOVWF  xB1
0A764:  MOVLW  03
0A766:  MOVWF  xB3
0A768:  MOVLW  1C
0A76A:  MOVWF  xB2
0A76C:  MOVLB  0
0A76E:  CALL   23BA
0A772:  BTFSC  01.0
0A774:  BRA    A77A
0A776:  MOVLB  2
0A778:  BRA    AA2E
....................          printf("ciclo.txt=\"CICLO P%02u\"",CicloLibre+0x0a); 
0A77A:  MOVLW  0A
0A77C:  MOVLB  2
0A77E:  ADDWF  x4F,W
0A780:  MOVLB  6
0A782:  MOVWF  xB0
0A784:  MOVLW  1C
0A786:  MOVWF  FF6
0A788:  MOVLW  10
0A78A:  MOVWF  FF7
0A78C:  MOVLW  00
0A78E:  MOVWF  FF8
0A790:  MOVLW  12
0A792:  MOVWF  xB5
0A794:  MOVLB  0
0A796:  CALL   5994
0A79A:  MOVFF  6B0,6B5
0A79E:  MOVLW  01
0A7A0:  MOVLB  6
0A7A2:  MOVWF  xB6
0A7A4:  MOVLB  0
0A7A6:  CALL   5A18
0A7AA:  MOVLW  22
0A7AC:  BTFSS  F9E.4
0A7AE:  BRA    A7AC
0A7B0:  MOVWF  FAD
....................          SendDataDisplay();           
0A7B2:  CALL   402C
....................          printf("temp.txt=\"%u\"",CiclosPersonalizados[CicloLibre-1].Temperatura); 
0A7B6:  MOVLW  01
0A7B8:  MOVLB  2
0A7BA:  SUBWF  x4F,W
0A7BC:  MULLW  08
0A7BE:  MOVF   FF3,W
0A7C0:  MOVLB  6
0A7C2:  CLRF   xB1
0A7C4:  MOVWF  xB0
0A7C6:  MOVLW  E8
0A7C8:  ADDWF  xB0,W
0A7CA:  MOVWF  FE9
0A7CC:  MOVLW  05
0A7CE:  ADDWFC xB1,W
0A7D0:  MOVWF  FEA
0A7D2:  MOVFF  FEF,6B0
0A7D6:  MOVLW  34
0A7D8:  MOVWF  FF6
0A7DA:  MOVLW  10
0A7DC:  MOVWF  FF7
0A7DE:  MOVLW  00
0A7E0:  MOVWF  FF8
0A7E2:  MOVLW  0A
0A7E4:  MOVWF  xB5
0A7E6:  MOVLB  0
0A7E8:  CALL   5994
0A7EC:  MOVFF  6B0,6B5
0A7F0:  MOVLW  1B
0A7F2:  MOVLB  6
0A7F4:  MOVWF  xB6
0A7F6:  MOVLB  0
0A7F8:  CALL   5A18
0A7FC:  MOVLW  22
0A7FE:  BTFSS  F9E.4
0A800:  BRA    A7FE
0A802:  MOVWF  FAD
....................          SendDataDisplay(); 
0A804:  CALL   402C
....................          printf("test.txt=\"%02u:%02u\"",CiclosPersonalizados[CicloLibre-1].Minutoest,CiclosPersonalizados[CicloLibre-1].Segundoest); 
0A808:  MOVLW  01
0A80A:  MOVLB  2
0A80C:  SUBWF  x4F,W
0A80E:  MULLW  08
0A810:  MOVF   FF3,W
0A812:  MOVLB  6
0A814:  CLRF   xB1
0A816:  MOVWF  xB0
0A818:  MOVLW  01
0A81A:  ADDWF  xB0,W
0A81C:  MOVWF  01
0A81E:  MOVLW  00
0A820:  ADDWFC xB1,W
0A822:  MOVWF  03
0A824:  MOVF   01,W
0A826:  ADDLW  E8
0A828:  MOVWF  FE9
0A82A:  MOVLW  05
0A82C:  ADDWFC 03,W
0A82E:  MOVWF  FEA
0A830:  MOVFF  FEF,6B0
0A834:  MOVLW  01
0A836:  MOVLB  2
0A838:  SUBWF  x4F,W
0A83A:  MULLW  08
0A83C:  MOVF   FF3,W
0A83E:  MOVLB  6
0A840:  CLRF   xB2
0A842:  MOVWF  xB1
0A844:  MOVLW  02
0A846:  ADDWF  xB1,W
0A848:  MOVWF  01
0A84A:  MOVLW  00
0A84C:  ADDWFC xB2,W
0A84E:  MOVWF  03
0A850:  MOVF   01,W
0A852:  ADDLW  E8
0A854:  MOVWF  FE9
0A856:  MOVLW  05
0A858:  ADDWFC 03,W
0A85A:  MOVWF  FEA
0A85C:  MOVFF  FEF,6B1
0A860:  MOVLW  42
0A862:  MOVWF  FF6
0A864:  MOVLW  10
0A866:  MOVWF  FF7
0A868:  MOVLW  00
0A86A:  MOVWF  FF8
0A86C:  MOVLW  0A
0A86E:  MOVWF  xB5
0A870:  MOVLB  0
0A872:  CALL   5994
0A876:  MOVFF  6B0,6B5
0A87A:  MOVLW  01
0A87C:  MOVLB  6
0A87E:  MOVWF  xB6
0A880:  MOVLB  0
0A882:  CALL   5A18
0A886:  MOVLW  3A
0A888:  BTFSS  F9E.4
0A88A:  BRA    A888
0A88C:  MOVWF  FAD
0A88E:  MOVFF  6B1,6B5
0A892:  MOVLW  01
0A894:  MOVLB  6
0A896:  MOVWF  xB6
0A898:  MOVLB  0
0A89A:  CALL   5A18
0A89E:  MOVLW  22
0A8A0:  BTFSS  F9E.4
0A8A2:  BRA    A8A0
0A8A4:  MOVWF  FAD
....................          SendDataDisplay(); 
0A8A6:  CALL   402C
....................          printf("tsec.txt=\"%02u:%02u\"",CiclosPersonalizados[CicloLibre-1].Minutosec,CiclosPersonalizados[CicloLibre-1].Segundosec); 
0A8AA:  MOVLW  01
0A8AC:  MOVLB  2
0A8AE:  SUBWF  x4F,W
0A8B0:  MULLW  08
0A8B2:  MOVF   FF3,W
0A8B4:  MOVLB  6
0A8B6:  CLRF   xB1
0A8B8:  MOVWF  xB0
0A8BA:  MOVLW  03
0A8BC:  ADDWF  xB0,W
0A8BE:  MOVWF  01
0A8C0:  MOVLW  00
0A8C2:  ADDWFC xB1,W
0A8C4:  MOVWF  03
0A8C6:  MOVF   01,W
0A8C8:  ADDLW  E8
0A8CA:  MOVWF  FE9
0A8CC:  MOVLW  05
0A8CE:  ADDWFC 03,W
0A8D0:  MOVWF  FEA
0A8D2:  MOVFF  FEF,6B0
0A8D6:  MOVLW  01
0A8D8:  MOVLB  2
0A8DA:  SUBWF  x4F,W
0A8DC:  MULLW  08
0A8DE:  MOVF   FF3,W
0A8E0:  MOVLB  6
0A8E2:  CLRF   xB2
0A8E4:  MOVWF  xB1
0A8E6:  MOVLW  04
0A8E8:  ADDWF  xB1,W
0A8EA:  MOVWF  01
0A8EC:  MOVLW  00
0A8EE:  ADDWFC xB2,W
0A8F0:  MOVWF  03
0A8F2:  MOVF   01,W
0A8F4:  ADDLW  E8
0A8F6:  MOVWF  FE9
0A8F8:  MOVLW  05
0A8FA:  ADDWFC 03,W
0A8FC:  MOVWF  FEA
0A8FE:  MOVFF  FEF,6B1
0A902:  MOVLW  58
0A904:  MOVWF  FF6
0A906:  MOVLW  10
0A908:  MOVWF  FF7
0A90A:  MOVLW  00
0A90C:  MOVWF  FF8
0A90E:  MOVLW  0A
0A910:  MOVWF  xB5
0A912:  MOVLB  0
0A914:  CALL   5994
0A918:  MOVFF  6B0,6B5
0A91C:  MOVLW  01
0A91E:  MOVLB  6
0A920:  MOVWF  xB6
0A922:  MOVLB  0
0A924:  CALL   5A18
0A928:  MOVLW  3A
0A92A:  BTFSS  F9E.4
0A92C:  BRA    A92A
0A92E:  MOVWF  FAD
0A930:  MOVFF  6B1,6B5
0A934:  MOVLW  01
0A936:  MOVLB  6
0A938:  MOVWF  xB6
0A93A:  MOVLB  0
0A93C:  CALL   5A18
0A940:  MOVLW  22
0A942:  BTFSS  F9E.4
0A944:  BRA    A942
0A946:  MOVWF  FAD
....................          SendDataDisplay(); 
0A948:  CALL   402C
....................          printf("pulsos.txt=\"%02u\"",CiclosPersonalizados[CicloLibre-1].PulsosVacio); 
0A94C:  MOVLW  01
0A94E:  MOVLB  2
0A950:  SUBWF  x4F,W
0A952:  MULLW  08
0A954:  MOVF   FF3,W
0A956:  MOVLB  6
0A958:  CLRF   xB1
0A95A:  MOVWF  xB0
0A95C:  MOVLW  05
0A95E:  ADDWF  xB0,W
0A960:  MOVWF  01
0A962:  MOVLW  00
0A964:  ADDWFC xB1,W
0A966:  MOVWF  03
0A968:  MOVF   01,W
0A96A:  ADDLW  E8
0A96C:  MOVWF  FE9
0A96E:  MOVLW  05
0A970:  ADDWFC 03,W
0A972:  MOVWF  FEA
0A974:  MOVFF  FEF,6B0
0A978:  MOVLW  6E
0A97A:  MOVWF  FF6
0A97C:  MOVLW  10
0A97E:  MOVWF  FF7
0A980:  MOVLW  00
0A982:  MOVWF  FF8
0A984:  MOVLW  0C
0A986:  MOVWF  xB5
0A988:  MOVLB  0
0A98A:  CALL   5994
0A98E:  MOVFF  6B0,6B5
0A992:  MOVLW  01
0A994:  MOVLB  6
0A996:  MOVWF  xB6
0A998:  MOVLB  0
0A99A:  CALL   5A18
0A99E:  MOVLW  22
0A9A0:  BTFSS  F9E.4
0A9A2:  BRA    A9A0
0A9A4:  MOVWF  FAD
....................          SendDataDisplay(); 
0A9A6:  CALL   402C
....................          printf("vacio.txt=\"%03u kPa\"",CiclosPersonalizados[CicloLibre-1].NivelVacio); 
0A9AA:  MOVLW  01
0A9AC:  MOVLB  2
0A9AE:  SUBWF  x4F,W
0A9B0:  MULLW  08
0A9B2:  MOVF   FF3,W
0A9B4:  MOVLB  6
0A9B6:  CLRF   xB1
0A9B8:  MOVWF  xB0
0A9BA:  MOVLW  06
0A9BC:  ADDWF  xB0,W
0A9BE:  MOVWF  01
0A9C0:  MOVLW  00
0A9C2:  ADDWFC xB1,W
0A9C4:  MOVWF  03
0A9C6:  MOVF   01,W
0A9C8:  ADDLW  E8
0A9CA:  MOVWF  FE9
0A9CC:  MOVLW  05
0A9CE:  ADDWFC 03,W
0A9D0:  MOVWF  FEA
0A9D2:  MOVFF  FEF,6B0
0A9D6:  MOVLW  80
0A9D8:  MOVWF  FF6
0A9DA:  MOVLW  10
0A9DC:  MOVWF  FF7
0A9DE:  MOVLW  00
0A9E0:  MOVWF  FF8
0A9E2:  MOVLW  0B
0A9E4:  MOVWF  xB5
0A9E6:  MOVLB  0
0A9E8:  CALL   5994
0A9EC:  MOVFF  6B0,6B5
0A9F0:  MOVLW  03
0A9F2:  MOVLB  6
0A9F4:  MOVWF  xB6
0A9F6:  MOVLB  0
0A9F8:  CALL   5A18
0A9FC:  MOVLW  8F
0A9FE:  MOVWF  FF6
0AA00:  MOVLW  10
0AA02:  MOVWF  FF7
0AA04:  MOVLW  00
0AA06:  MOVWF  FF8
0AA08:  MOVLW  05
0AA0A:  MOVLB  6
0AA0C:  MOVWF  xB5
0AA0E:  MOVLB  0
0AA10:  CALL   5994
....................          SendDataDisplay(); 
0AA14:  CALL   402C
....................          //printf("desfogue.txt=\"%u\"",CiclosPersonalizados[CicloLibre-1].NivelDesfogue); 
....................          printf("desfogue.txt=\"N/A\""); 
0AA18:  MOVLW  96
0AA1A:  MOVWF  FF6
0AA1C:  MOVLW  10
0AA1E:  MOVWF  FF7
0AA20:  MOVLW  00
0AA22:  MOVWF  FF8
0AA24:  CALL   3FFA
....................          SendDataDisplay(); 
0AA28:  CALL   402C
0AA2C:  MOVLB  2
....................       } 
....................        
....................       if(RX_Buffer[4]==0xa0){//a0, Menu Principal 
0AA2E:  MOVF   34,W
0AA30:  SUBLW  A0
0AA32:  BNZ   AA4C
....................          printf("page Menu"); 
0AA34:  MOVLW  AA
0AA36:  MOVWF  FF6
0AA38:  MOVLW  10
0AA3A:  MOVWF  FF7
0AA3C:  MOVLW  00
0AA3E:  MOVWF  FF8
0AA40:  MOVLB  0
0AA42:  CALL   3FFA
....................          SendDataDisplay();      
0AA46:  CALL   402C
0AA4A:  MOVLB  2
....................       } 
....................        
....................       if(RX_Buffer[4]==0xb0){//b0, Personalizados 
0AA4C:  MOVF   34,W
0AA4E:  SUBLW  B0
0AA50:  BNZ   AA6A
....................          printf("page CicloPersona"); 
0AA52:  MOVLW  B4
0AA54:  MOVWF  FF6
0AA56:  MOVLW  10
0AA58:  MOVWF  FF7
0AA5A:  MOVLW  00
0AA5C:  MOVWF  FF8
0AA5E:  MOVLB  0
0AA60:  CALL   3FFA
....................          SendDataDisplay();      
0AA64:  CALL   402C
0AA68:  MOVLB  2
....................       } 
....................        
....................       if(RX_Buffer[4]==0xc0){//c0, Configuraciones 
0AA6A:  MOVF   34,W
0AA6C:  SUBLW  C0
0AA6E:  BNZ   AA92
....................          if(codigoUsuario==0 || codigoUsuario==9){   
0AA70:  MOVF   xB0,F
0AA72:  BZ    AA7A
0AA74:  MOVF   xB0,W
0AA76:  SUBLW  09
0AA78:  BNZ   AA92
....................             printf("page Ajustes"); 
0AA7A:  MOVLW  C6
0AA7C:  MOVWF  FF6
0AA7E:  MOVLW  10
0AA80:  MOVWF  FF7
0AA82:  MOVLW  00
0AA84:  MOVWF  FF8
0AA86:  MOVLB  0
0AA88:  CALL   3FFA
....................             SendDataDisplay();      
0AA8C:  CALL   402C
0AA90:  MOVLB  2
....................          } 
....................       } 
....................        
....................       if(RX_Buffer[4]==0x20 && CicloLibre>0){//20, Temperatura 
0AA92:  MOVF   34,W
0AA94:  SUBLW  20
0AA96:  BNZ   AADE
0AA98:  MOVF   x4F,F
0AA9A:  BZ    AADE
....................          if(codigoUsuario==0 || codigoUsuario==9){   
0AA9C:  MOVF   xB0,F
0AA9E:  BZ    AAA6
0AAA0:  MOVF   xB0,W
0AAA2:  SUBLW  09
0AAA4:  BNZ   AADE
....................             printf("page Temperatura"); 
0AAA6:  MOVLW  D4
0AAA8:  MOVWF  FF6
0AAAA:  MOVLW  10
0AAAC:  MOVWF  FF7
0AAAE:  MOVLW  00
0AAB0:  MOVWF  FF8
0AAB2:  MOVLB  0
0AAB4:  CALL   3FFA
....................             SendDataDisplay();      
0AAB8:  CALL   402C
....................             Setpoint=CiclosPersonalizados[CicloLibre-1].Temperatura; 
0AABC:  MOVLW  01
0AABE:  MOVLB  2
0AAC0:  SUBWF  x4F,W
0AAC2:  MULLW  08
0AAC4:  MOVF   FF3,W
0AAC6:  MOVLB  6
0AAC8:  CLRF   xB1
0AACA:  MOVWF  xB0
0AACC:  MOVLW  E8
0AACE:  ADDWF  xB0,W
0AAD0:  MOVWF  FE9
0AAD2:  MOVLW  05
0AAD4:  ADDWFC xB1,W
0AAD6:  MOVWF  FEA
0AAD8:  MOVFF  FEF,267
0AADC:  MOVLB  2
....................          } 
....................       } 
....................        
....................       if(RX_Buffer[4]==0x30 && CicloLibre>0){//30, Test 
0AADE:  MOVF   34,W
0AAE0:  SUBLW  30
0AAE2:  BNZ   AB66
0AAE4:  MOVF   x4F,F
0AAE6:  BZ    AB66
....................          if(codigoUsuario==0 || codigoUsuario==9){   
0AAE8:  MOVF   xB0,F
0AAEA:  BZ    AAF2
0AAEC:  MOVF   xB0,W
0AAEE:  SUBLW  09
0AAF0:  BNZ   AB66
....................             printf("page TiempoEst"); 
0AAF2:  MOVLW  E6
0AAF4:  MOVWF  FF6
0AAF6:  MOVLW  10
0AAF8:  MOVWF  FF7
0AAFA:  MOVLW  00
0AAFC:  MOVWF  FF8
0AAFE:  MOVLB  0
0AB00:  CALL   3FFA
....................             SendDataDisplay();      
0AB04:  CALL   402C
....................             mEstp=CiclosPersonalizados[CicloLibre-1].Minutoest; 
0AB08:  MOVLW  01
0AB0A:  MOVLB  2
0AB0C:  SUBWF  x4F,W
0AB0E:  MULLW  08
0AB10:  MOVF   FF3,W
0AB12:  MOVLB  6
0AB14:  CLRF   xB1
0AB16:  MOVWF  xB0
0AB18:  MOVLW  01
0AB1A:  ADDWF  xB0,W
0AB1C:  MOVWF  01
0AB1E:  MOVLW  00
0AB20:  ADDWFC xB1,W
0AB22:  MOVWF  03
0AB24:  MOVF   01,W
0AB26:  ADDLW  E8
0AB28:  MOVWF  FE9
0AB2A:  MOVLW  05
0AB2C:  ADDWFC 03,W
0AB2E:  MOVWF  FEA
0AB30:  MOVFF  FEF,118
0AB34:  MOVLB  1
....................             sEstp=CiclosPersonalizados[CicloLibre-1].Segundoest; 
0AB36:  MOVLW  01
0AB38:  MOVLB  2
0AB3A:  SUBWF  x4F,W
0AB3C:  MULLW  08
0AB3E:  MOVF   FF3,W
0AB40:  MOVLB  6
0AB42:  CLRF   xB1
0AB44:  MOVWF  xB0
0AB46:  MOVLW  02
0AB48:  ADDWF  xB0,W
0AB4A:  MOVWF  01
0AB4C:  MOVLW  00
0AB4E:  ADDWFC xB1,W
0AB50:  MOVWF  03
0AB52:  MOVF   01,W
0AB54:  ADDLW  E8
0AB56:  MOVWF  FE9
0AB58:  MOVLW  05
0AB5A:  ADDWFC 03,W
0AB5C:  MOVWF  FEA
0AB5E:  MOVFF  FEF,117
0AB62:  MOVLB  1
0AB64:  MOVLB  2
....................          } 
....................       } 
....................        
....................       if(RX_Buffer[4]==0x40 && CicloLibre>0){//40, Tsec 
0AB66:  MOVF   34,W
0AB68:  SUBLW  40
0AB6A:  BNZ   ABEE
0AB6C:  MOVF   x4F,F
0AB6E:  BZ    ABEE
....................          if(codigoUsuario==0 || codigoUsuario==9){   
0AB70:  MOVF   xB0,F
0AB72:  BZ    AB7A
0AB74:  MOVF   xB0,W
0AB76:  SUBLW  09
0AB78:  BNZ   ABEE
....................             printf("page TiempoSec"); 
0AB7A:  MOVLW  F6
0AB7C:  MOVWF  FF6
0AB7E:  MOVLW  10
0AB80:  MOVWF  FF7
0AB82:  MOVLW  00
0AB84:  MOVWF  FF8
0AB86:  MOVLB  0
0AB88:  CALL   3FFA
....................             SendDataDisplay();    
0AB8C:  CALL   402C
....................             mSecp=CiclosPersonalizados[CicloLibre-1].Minutosec; 
0AB90:  MOVLW  01
0AB92:  MOVLB  2
0AB94:  SUBWF  x4F,W
0AB96:  MULLW  08
0AB98:  MOVF   FF3,W
0AB9A:  MOVLB  6
0AB9C:  CLRF   xB1
0AB9E:  MOVWF  xB0
0ABA0:  MOVLW  03
0ABA2:  ADDWF  xB0,W
0ABA4:  MOVWF  01
0ABA6:  MOVLW  00
0ABA8:  ADDWFC xB1,W
0ABAA:  MOVWF  03
0ABAC:  MOVF   01,W
0ABAE:  ADDLW  E8
0ABB0:  MOVWF  FE9
0ABB2:  MOVLW  05
0ABB4:  ADDWFC 03,W
0ABB6:  MOVWF  FEA
0ABB8:  MOVFF  FEF,11A
0ABBC:  MOVLB  1
....................             sSecp=CiclosPersonalizados[CicloLibre-1].Segundosec; 
0ABBE:  MOVLW  01
0ABC0:  MOVLB  2
0ABC2:  SUBWF  x4F,W
0ABC4:  MULLW  08
0ABC6:  MOVF   FF3,W
0ABC8:  MOVLB  6
0ABCA:  CLRF   xB1
0ABCC:  MOVWF  xB0
0ABCE:  MOVLW  04
0ABD0:  ADDWF  xB0,W
0ABD2:  MOVWF  01
0ABD4:  MOVLW  00
0ABD6:  ADDWFC xB1,W
0ABD8:  MOVWF  03
0ABDA:  MOVF   01,W
0ABDC:  ADDLW  E8
0ABDE:  MOVWF  FE9
0ABE0:  MOVLW  05
0ABE2:  ADDWFC 03,W
0ABE4:  MOVWF  FEA
0ABE6:  MOVFF  FEF,119
0ABEA:  MOVLB  1
0ABEC:  MOVLB  2
....................          } 
....................       } 
....................        
....................       if(RX_Buffer[4]==0x50 && CicloLibre>0){//50, PulsosVacio 
0ABEE:  MOVF   34,W
0ABF0:  SUBLW  50
0ABF2:  BNZ   AC46
0ABF4:  MOVF   x4F,F
0ABF6:  BZ    AC46
....................          if(codigoUsuario==0 || codigoUsuario==9){   
0ABF8:  MOVF   xB0,F
0ABFA:  BZ    AC02
0ABFC:  MOVF   xB0,W
0ABFE:  SUBLW  09
0AC00:  BNZ   AC46
....................             printf("page Pulsos"); 
0AC02:  MOVLW  06
0AC04:  MOVWF  FF6
0AC06:  MOVLW  11
0AC08:  MOVWF  FF7
0AC0A:  MOVLW  00
0AC0C:  MOVWF  FF8
0AC0E:  MOVLB  0
0AC10:  CALL   3FFA
....................             SendDataDisplay();      
0AC14:  CALL   402C
....................             Pulsos=CiclosPersonalizados[CicloLibre-1].PulsosVacio; 
0AC18:  MOVLW  01
0AC1A:  MOVLB  2
0AC1C:  SUBWF  x4F,W
0AC1E:  MULLW  08
0AC20:  MOVF   FF3,W
0AC22:  MOVLB  6
0AC24:  CLRF   xB1
0AC26:  MOVWF  xB0
0AC28:  MOVLW  05
0AC2A:  ADDWF  xB0,W
0AC2C:  MOVWF  01
0AC2E:  MOVLW  00
0AC30:  ADDWFC xB1,W
0AC32:  MOVWF  03
0AC34:  MOVF   01,W
0AC36:  ADDLW  E8
0AC38:  MOVWF  FE9
0AC3A:  MOVLW  05
0AC3C:  ADDWFC 03,W
0AC3E:  MOVWF  FEA
0AC40:  MOVFF  FEF,2AE
0AC44:  MOVLB  2
....................          } 
....................       } 
....................        
....................       if(RX_Buffer[4]==0x60 && CicloLibre>0){//60, NivelVacio 
0AC46:  MOVF   34,W
0AC48:  SUBLW  60
0AC4A:  BNZ   ACA4
0AC4C:  MOVF   x4F,F
0AC4E:  BZ    ACA4
....................          if(codigoUsuario==0 || codigoUsuario==9){   
0AC50:  MOVF   xB0,F
0AC52:  BZ    AC5A
0AC54:  MOVF   xB0,W
0AC56:  SUBLW  09
0AC58:  BNZ   ACA4
....................             printf("page Nivel"); 
0AC5A:  MOVLW  12
0AC5C:  MOVWF  FF6
0AC5E:  MOVLW  11
0AC60:  MOVWF  FF7
0AC62:  MOVLW  00
0AC64:  MOVWF  FF8
0AC66:  MOVLB  0
0AC68:  CALL   3FFA
....................             SendDataDisplay();      
0AC6C:  CALL   402C
....................             Nivel=CiclosPersonalizados[CicloLibre-1].NivelVacio; 
0AC70:  MOVLW  01
0AC72:  MOVLB  2
0AC74:  SUBWF  x4F,W
0AC76:  MULLW  08
0AC78:  MOVF   FF3,W
0AC7A:  MOVLB  6
0AC7C:  CLRF   xB1
0AC7E:  MOVWF  xB0
0AC80:  MOVLW  06
0AC82:  ADDWF  xB0,W
0AC84:  MOVWF  01
0AC86:  MOVLW  00
0AC88:  ADDWFC xB1,W
0AC8A:  MOVWF  03
0AC8C:  MOVF   01,W
0AC8E:  ADDLW  E8
0AC90:  MOVWF  FE9
0AC92:  MOVLW  05
0AC94:  ADDWFC 03,W
0AC96:  MOVWF  FEA
0AC98:  MOVF   FEF,W
0AC9A:  CLRF   03
0AC9C:  MOVLB  2
0AC9E:  MOVWF  x74
0ACA0:  MOVFF  03,275
....................          } 
....................       } 
....................        
....................       if(RX_Buffer[4]==0x80 && CicloLibre>0){//80, NivelDesfogue 
0ACA4:  MOVF   34,W
0ACA6:  SUBLW  80
0ACA8:  BNZ   ACAE
0ACAA:  MOVF   x4F,F
0ACAC:  BZ    ACAE
....................          //printf("page NivelDes"); 
....................          //SendDataDisplay();      
....................          //NivelDes=CiclosPersonalizados[CicloLibre-1].NivelDesfogue; 
....................       } 
....................        
....................       if(RX_Buffer[4]==0x70 && CicloLibre>0){//70, Iniciar Ciclo 
0ACAE:  MOVF   34,W
0ACB0:  SUBLW  70
0ACB2:  BTFSS  FD8.2
0ACB4:  BRA    AE98
0ACB6:  MOVF   x4F,F
0ACB8:  BTFSC  FD8.2
0ACBA:  BRA    AE98
....................          printf("page Funcionamiento"); 
0ACBC:  MOVLW  1E
0ACBE:  MOVWF  FF6
0ACC0:  MOVLW  11
0ACC2:  MOVWF  FF7
0ACC4:  MOVLW  00
0ACC6:  MOVWF  FF8
0ACC8:  MOVLB  0
0ACCA:  CALL   3FFA
....................          SendDataDisplay();        
0ACCE:  CALL   402C
....................          Libre=ON; 
0ACD2:  MOVLB  1
0ACD4:  BSF    x01.3
....................          ConfiguraCiclo(CiclosPersonalizados[CicloLibre-1].Segundoest,CiclosPersonalizados[CicloLibre-1].Minutoest, 
....................          CiclosPersonalizados[CicloLibre-1].Segundosec,CiclosPersonalizados[CicloLibre-1].MinutoSec,0,CicloLibre+10, 
....................          CiclosPersonalizados[CicloLibre-1].Temperatura,CiclosPersonalizados[CicloLibre-1].PulsosVacio,CiclosPersonalizados[CicloLibre-1].NivelVacio 
....................          ,0); 
0ACD6:  MOVLW  01
0ACD8:  MOVLB  2
0ACDA:  SUBWF  x4F,W
0ACDC:  MULLW  08
0ACDE:  MOVF   FF3,W
0ACE0:  MOVLB  6
0ACE2:  CLRF   xB1
0ACE4:  MOVWF  xB0
0ACE6:  MOVLW  02
0ACE8:  ADDWF  xB0,W
0ACEA:  MOVWF  01
0ACEC:  MOVLW  00
0ACEE:  ADDWFC xB1,W
0ACF0:  MOVWF  03
0ACF2:  MOVF   01,W
0ACF4:  ADDLW  E8
0ACF6:  MOVWF  FE9
0ACF8:  MOVLW  05
0ACFA:  ADDWFC 03,W
0ACFC:  MOVWF  FEA
0ACFE:  MOVFF  FEF,6B0
0AD02:  MOVLW  01
0AD04:  MOVLB  2
0AD06:  SUBWF  x4F,W
0AD08:  MULLW  08
0AD0A:  MOVF   FF3,W
0AD0C:  MOVLB  6
0AD0E:  CLRF   xB2
0AD10:  MOVWF  xB1
0AD12:  MOVLW  01
0AD14:  ADDWF  xB1,W
0AD16:  MOVWF  01
0AD18:  MOVLW  00
0AD1A:  ADDWFC xB2,W
0AD1C:  MOVWF  03
0AD1E:  MOVF   01,W
0AD20:  ADDLW  E8
0AD22:  MOVWF  FE9
0AD24:  MOVLW  05
0AD26:  ADDWFC 03,W
0AD28:  MOVWF  FEA
0AD2A:  MOVFF  FEF,6B1
0AD2E:  MOVLW  01
0AD30:  MOVLB  2
0AD32:  SUBWF  x4F,W
0AD34:  MULLW  08
0AD36:  MOVF   FF3,W
0AD38:  MOVLB  6
0AD3A:  CLRF   xB3
0AD3C:  MOVWF  xB2
0AD3E:  MOVLW  04
0AD40:  ADDWF  xB2,W
0AD42:  MOVWF  01
0AD44:  MOVLW  00
0AD46:  ADDWFC xB3,W
0AD48:  MOVWF  03
0AD4A:  MOVF   01,W
0AD4C:  ADDLW  E8
0AD4E:  MOVWF  FE9
0AD50:  MOVLW  05
0AD52:  ADDWFC 03,W
0AD54:  MOVWF  FEA
0AD56:  MOVFF  FEF,6B2
0AD5A:  MOVLW  01
0AD5C:  MOVLB  2
0AD5E:  SUBWF  x4F,W
0AD60:  MULLW  08
0AD62:  MOVF   FF3,W
0AD64:  MOVLB  6
0AD66:  CLRF   xB4
0AD68:  MOVWF  xB3
0AD6A:  MOVLW  03
0AD6C:  ADDWF  xB3,W
0AD6E:  MOVWF  01
0AD70:  MOVLW  00
0AD72:  ADDWFC xB4,W
0AD74:  MOVWF  03
0AD76:  MOVF   01,W
0AD78:  ADDLW  E8
0AD7A:  MOVWF  FE9
0AD7C:  MOVLW  05
0AD7E:  ADDWFC 03,W
0AD80:  MOVWF  FEA
0AD82:  MOVFF  FEF,6B3
0AD86:  MOVLW  0A
0AD88:  MOVLB  2
0AD8A:  ADDWF  x4F,W
0AD8C:  MOVLB  6
0AD8E:  MOVWF  xB4
0AD90:  MOVLW  01
0AD92:  MOVLB  2
0AD94:  SUBWF  x4F,W
0AD96:  MULLW  08
0AD98:  MOVF   FF3,W
0AD9A:  MOVLB  6
0AD9C:  CLRF   xB6
0AD9E:  MOVWF  xB5
0ADA0:  MOVLW  E8
0ADA2:  ADDWF  xB5,W
0ADA4:  MOVWF  FE9
0ADA6:  MOVLW  05
0ADA8:  ADDWFC xB6,W
0ADAA:  MOVWF  FEA
0ADAC:  MOVFF  FEF,6B5
0ADB0:  MOVLW  01
0ADB2:  MOVLB  2
0ADB4:  SUBWF  x4F,W
0ADB6:  MULLW  08
0ADB8:  MOVF   FF3,W
0ADBA:  MOVLB  6
0ADBC:  CLRF   xB7
0ADBE:  MOVWF  xB6
0ADC0:  MOVLW  05
0ADC2:  ADDWF  xB6,W
0ADC4:  MOVWF  01
0ADC6:  MOVLW  00
0ADC8:  ADDWFC xB7,W
0ADCA:  MOVWF  03
0ADCC:  MOVF   01,W
0ADCE:  ADDLW  E8
0ADD0:  MOVWF  FE9
0ADD2:  MOVLW  05
0ADD4:  ADDWFC 03,W
0ADD6:  MOVWF  FEA
0ADD8:  MOVFF  FEF,6B6
0ADDC:  MOVLW  01
0ADDE:  MOVLB  2
0ADE0:  SUBWF  x4F,W
0ADE2:  MULLW  08
0ADE4:  MOVF   FF3,W
0ADE6:  MOVLB  6
0ADE8:  CLRF   xB8
0ADEA:  MOVWF  xB7
0ADEC:  MOVLW  06
0ADEE:  ADDWF  xB7,W
0ADF0:  MOVWF  01
0ADF2:  MOVLW  00
0ADF4:  ADDWFC xB8,W
0ADF6:  MOVWF  03
0ADF8:  MOVF   01,W
0ADFA:  ADDLW  E8
0ADFC:  MOVWF  FE9
0ADFE:  MOVLW  05
0AE00:  ADDWFC 03,W
0AE02:  MOVWF  FEA
0AE04:  MOVFF  FEF,6B7
0AE08:  MOVFF  6B0,6B8
0AE0C:  MOVFF  6B1,6B9
0AE10:  MOVFF  6B2,6BA
0AE14:  MOVFF  6B3,6BB
0AE18:  CLRF   xBC
0AE1A:  MOVFF  6B4,6BD
0AE1E:  MOVFF  6B5,6BE
0AE22:  MOVFF  6B6,6BF
0AE26:  MOVFF  6B7,6C0
0AE2A:  CLRF   xC1
0AE2C:  MOVLB  0
0AE2E:  CALL   5A96
....................          NivelVacio=CiclosPersonalizados[CicloLibre-1].NivelVacio; 
0AE32:  MOVLW  01
0AE34:  MOVLB  2
0AE36:  SUBWF  x4F,W
0AE38:  MULLW  08
0AE3A:  MOVF   FF3,W
0AE3C:  MOVLB  6
0AE3E:  CLRF   xB1
0AE40:  MOVWF  xB0
0AE42:  MOVLW  06
0AE44:  ADDWF  xB0,W
0AE46:  MOVWF  01
0AE48:  MOVLW  00
0AE4A:  ADDWFC xB1,W
0AE4C:  MOVWF  03
0AE4E:  MOVF   01,W
0AE50:  ADDLW  E8
0AE52:  MOVWF  FE9
0AE54:  MOVLW  05
0AE56:  ADDWFC 03,W
0AE58:  MOVWF  FEA
0AE5A:  MOVFF  FEF,2A1
0AE5E:  MOVLB  2
....................          CantidadPulsos=CiclosPersonalizados[CicloLibre-1].PulsosVacio; 
0AE60:  MOVLW  01
0AE62:  SUBWF  x4F,W
0AE64:  MULLW  08
0AE66:  MOVF   FF3,W
0AE68:  MOVLB  6
0AE6A:  CLRF   xB1
0AE6C:  MOVWF  xB0
0AE6E:  MOVLW  05
0AE70:  ADDWF  xB0,W
0AE72:  MOVWF  01
0AE74:  MOVLW  00
0AE76:  ADDWFC xB1,W
0AE78:  MOVWF  03
0AE7A:  MOVF   01,W
0AE7C:  ADDLW  E8
0AE7E:  MOVWF  FE9
0AE80:  MOVLW  05
0AE82:  ADDWFC 03,W
0AE84:  MOVWF  FEA
0AE86:  MOVF   FEF,W
0AE88:  CLRF   03
0AE8A:  MOVLB  2
0AE8C:  MOVWF  x61
0AE8E:  MOVFF  03,262
....................          Fugas=OFF; 
0AE92:  MOVLB  1
0AE94:  BCF    x01.5
0AE96:  MOVLB  2
....................       } 
....................    } 
.................... //_--------------------------------------------------------------------------------------------------------------------------------------------------------        
....................  
.................... //_--------------------------------------------------------------------------------------------------------------------------------------------------------       
....................    if(Menu==9){//Menu de Pulsos de Vacio 
0AE98:  MOVF   x59,W
0AE9A:  SUBLW  09
0AE9C:  BTFSS  FD8.2
0AE9E:  BRA    B072
....................       printf("fecha.txt=\"Fecha:%02u/%02u/20%02u    Hora: %02u:%02u:%02u\"",Dia,Mes,Year,Hora,Minuto,Segundo); 
0AEA0:  MOVLW  32
0AEA2:  MOVWF  FF6
0AEA4:  MOVLW  11
0AEA6:  MOVWF  FF7
0AEA8:  MOVLW  00
0AEAA:  MOVWF  FF8
0AEAC:  MOVLW  11
0AEAE:  MOVLB  6
0AEB0:  MOVWF  xB5
0AEB2:  MOVLB  0
0AEB4:  CALL   5994
0AEB8:  MOVFF  29A,6B5
0AEBC:  MOVLW  01
0AEBE:  MOVLB  6
0AEC0:  MOVWF  xB6
0AEC2:  MOVLB  0
0AEC4:  CALL   5A18
0AEC8:  MOVLW  2F
0AECA:  BTFSS  F9E.4
0AECC:  BRA    AECA
0AECE:  MOVWF  FAD
0AED0:  MOVFF  299,6B5
0AED4:  MOVLW  01
0AED6:  MOVLB  6
0AED8:  MOVWF  xB6
0AEDA:  MOVLB  0
0AEDC:  CALL   5A18
0AEE0:  MOVLW  2F
0AEE2:  BTFSS  F9E.4
0AEE4:  BRA    AEE2
0AEE6:  MOVWF  FAD
0AEE8:  MOVLW  32
0AEEA:  BTFSS  F9E.4
0AEEC:  BRA    AEEA
0AEEE:  MOVWF  FAD
0AEF0:  MOVLW  30
0AEF2:  BTFSS  F9E.4
0AEF4:  BRA    AEF2
0AEF6:  MOVWF  FAD
0AEF8:  MOVFF  298,6B5
0AEFC:  MOVLW  01
0AEFE:  MOVLB  6
0AF00:  MOVWF  xB6
0AF02:  MOVLB  0
0AF04:  CALL   5A18
0AF08:  MOVLW  53
0AF0A:  MOVWF  FF6
0AF0C:  MOVLW  11
0AF0E:  MOVWF  FF7
0AF10:  MOVLW  00
0AF12:  MOVWF  FF8
0AF14:  MOVLW  0A
0AF16:  MOVLB  6
0AF18:  MOVWF  xB5
0AF1A:  MOVLB  0
0AF1C:  CALL   5994
0AF20:  MOVFF  29B,6B5
0AF24:  MOVLW  01
0AF26:  MOVLB  6
0AF28:  MOVWF  xB6
0AF2A:  MOVLB  0
0AF2C:  CALL   5A18
0AF30:  MOVLW  3A
0AF32:  BTFSS  F9E.4
0AF34:  BRA    AF32
0AF36:  MOVWF  FAD
0AF38:  MOVFF  29C,6B5
0AF3C:  MOVLW  01
0AF3E:  MOVLB  6
0AF40:  MOVWF  xB6
0AF42:  MOVLB  0
0AF44:  CALL   5A18
0AF48:  MOVLW  3A
0AF4A:  BTFSS  F9E.4
0AF4C:  BRA    AF4A
0AF4E:  MOVWF  FAD
0AF50:  MOVFF  29D,6B5
0AF54:  MOVLW  01
0AF56:  MOVLB  6
0AF58:  MOVWF  xB6
0AF5A:  MOVLB  0
0AF5C:  CALL   5A18
0AF60:  MOVLW  22
0AF62:  BTFSS  F9E.4
0AF64:  BRA    AF62
0AF66:  MOVWF  FAD
....................       SendDataDisplay(); 
0AF68:  CALL   402C
....................          if(Pulsos<4) 
0AF6C:  MOVLB  2
0AF6E:  MOVF   xAE,W
0AF70:  SUBLW  03
0AF72:  BNC   AF78
....................             Pulsos=15; 
0AF74:  MOVLW  0F
0AF76:  MOVWF  xAE
....................          if(Pulsos>15) 
0AF78:  MOVF   xAE,W
0AF7A:  SUBLW  0F
0AF7C:  BC    AF82
....................             Pulsos=4; 
0AF7E:  MOVLW  04
0AF80:  MOVWF  xAE
....................           
....................          if(RX_Buffer[4]==0x11){//Selecciono Regresar 
0AF82:  MOVF   34,W
0AF84:  SUBLW  11
0AF86:  BNZ   B024
....................             Segundos=OFF; 
0AF88:  MOVLB  0
0AF8A:  BCF    xFF.7
....................             Minutos=OFF;             
0AF8C:  BCF    xFF.6
....................             printf("page CicloPersona"); 
0AF8E:  MOVLW  6E
0AF90:  MOVWF  FF6
0AF92:  MOVLW  11
0AF94:  MOVWF  FF7
0AF96:  MOVLW  00
0AF98:  MOVWF  FF8
0AF9A:  CALL   3FFA
....................             SendDataDisplay();   
0AF9E:  CALL   402C
....................             if(!GuardaEEPROM){     
0AFA2:  MOVLB  1
0AFA4:  BTFSC  x00.0
0AFA6:  BRA    B022
....................                CiclosPersonalizados[CicloLibre-1].PulsosVacio=Pulsos; 
0AFA8:  MOVLW  01
0AFAA:  MOVLB  2
0AFAC:  SUBWF  x4F,W
0AFAE:  MULLW  08
0AFB0:  MOVF   FF3,W
0AFB2:  MOVLB  6
0AFB4:  CLRF   xB1
0AFB6:  MOVWF  xB0
0AFB8:  MOVLW  05
0AFBA:  ADDWF  xB0,W
0AFBC:  MOVWF  01
0AFBE:  MOVLW  00
0AFC0:  ADDWFC xB1,W
0AFC2:  MOVWF  03
0AFC4:  MOVF   01,W
0AFC6:  ADDLW  E8
0AFC8:  MOVWF  FE9
0AFCA:  MOVLW  05
0AFCC:  ADDWFC 03,W
0AFCE:  MOVWF  FEA
0AFD0:  MOVFF  2AE,FEF
....................                write_eeprom(105+((CicloLibre-1)*8),Pulsos); 
0AFD4:  MOVLW  01
0AFD6:  MOVLB  2
0AFD8:  SUBWF  x4F,W
0AFDA:  MULLW  08
0AFDC:  MOVF   FF3,W
0AFDE:  ADDLW  69
0AFE0:  MOVLB  6
0AFE2:  MOVWF  xB0
0AFE4:  CLRF   FAA
0AFE6:  MOVFF  6B0,FA9
0AFEA:  MOVFF  2AE,FA8
0AFEE:  BCF    FA6.6
0AFF0:  BCF    FA6.7
0AFF2:  BSF    FA6.2
0AFF4:  MOVF   FF2,W
0AFF6:  MOVWF  00
0AFF8:  BCF    FF2.6
0AFFA:  BCF    FF2.7
0AFFC:  MOVLB  F
0AFFE:  MOVLW  55
0B000:  MOVWF  FA7
0B002:  MOVLW  AA
0B004:  MOVWF  FA7
0B006:  BSF    FA6.1
0B008:  BTFSC  FA6.1
0B00A:  BRA    B008
0B00C:  BCF    FA6.2
0B00E:  MOVF   00,W
0B010:  IORWF  FF2,F
....................                delay_ms(20);             
0B012:  MOVLW  14
0B014:  MOVLB  6
0B016:  MOVWF  xC2
0B018:  MOVLB  0
0B01A:  CALL   1F7A
....................                //NivelSeleccionado=9990*Nivel; 
....................                GuardaEEPROM=ON; 
0B01E:  MOVLB  1
0B020:  BSF    x00.0
0B022:  MOVLB  2
....................             } 
....................          } 
....................           
....................          if(RX_Buffer[4]==0x0d){//Tecla Arriba Oprimida 
0B024:  MOVF   34,W
0B026:  SUBLW  0D
0B028:  BNZ   B030
....................             Pulsos++; 
0B02A:  INCF   xAE,F
....................             RX_Buffer[4]=0x00;             
0B02C:  CLRF   34
....................             RX_Buffer2[4]=0x00;             
0B02E:  CLRF   3F
....................             //BorraBuffer(); 
....................          } 
....................           
....................          if(RX_Buffer[4]==0x0c){//Tecla Abajo Oprimida 
0B030:  MOVF   34,W
0B032:  SUBLW  0C
0B034:  BNZ   B03C
....................             Pulsos--; 
0B036:  DECF   xAE,F
....................             RX_Buffer[4]=0x00; 
0B038:  CLRF   34
....................             RX_Buffer2[4]=0x00;             
0B03A:  CLRF   3F
....................             //BorraBuffer(); 
....................          } 
....................           
....................       printf("tnivel.txt=\"%u\"",Pulsos); 
0B03C:  MOVLW  80
0B03E:  MOVWF  FF6
0B040:  MOVLW  11
0B042:  MOVWF  FF7
0B044:  MOVLW  00
0B046:  MOVWF  FF8
0B048:  MOVLW  0C
0B04A:  MOVLB  6
0B04C:  MOVWF  xB5
0B04E:  MOVLB  0
0B050:  CALL   5994
0B054:  MOVFF  2AE,6B5
0B058:  MOVLW  1B
0B05A:  MOVLB  6
0B05C:  MOVWF  xB6
0B05E:  MOVLB  0
0B060:  CALL   5A18
0B064:  MOVLW  22
0B066:  BTFSS  F9E.4
0B068:  BRA    B066
0B06A:  MOVWF  FAD
....................       SendDataDisplay(); 
0B06C:  CALL   402C
0B070:  MOVLB  2
....................    } 
.................... //_--------------------------------------------------------------------------------------------------------------------------------------------------------       
....................  
.................... //_--------------------------------------------------------------------------------------------------------------------------------------------------------       
....................    if(Menu==10){//Menu de Usuarios 
0B072:  MOVF   x59,W
0B074:  SUBLW  0A
0B076:  BTFSS  FD8.2
0B078:  BRA    B534
....................       printf("fecha.txt=\"Fecha:%02u/%02u/20%02u    Hora: %02u:%02u:%02u\"",Dia,Mes,Year,Hora,Minuto,Segundo); 
0B07A:  MOVLW  90
0B07C:  MOVWF  FF6
0B07E:  MOVLW  11
0B080:  MOVWF  FF7
0B082:  MOVLW  00
0B084:  MOVWF  FF8
0B086:  MOVLW  11
0B088:  MOVLB  6
0B08A:  MOVWF  xB5
0B08C:  MOVLB  0
0B08E:  CALL   5994
0B092:  MOVFF  29A,6B5
0B096:  MOVLW  01
0B098:  MOVLB  6
0B09A:  MOVWF  xB6
0B09C:  MOVLB  0
0B09E:  CALL   5A18
0B0A2:  MOVLW  2F
0B0A4:  BTFSS  F9E.4
0B0A6:  BRA    B0A4
0B0A8:  MOVWF  FAD
0B0AA:  MOVFF  299,6B5
0B0AE:  MOVLW  01
0B0B0:  MOVLB  6
0B0B2:  MOVWF  xB6
0B0B4:  MOVLB  0
0B0B6:  CALL   5A18
0B0BA:  MOVLW  2F
0B0BC:  BTFSS  F9E.4
0B0BE:  BRA    B0BC
0B0C0:  MOVWF  FAD
0B0C2:  MOVLW  32
0B0C4:  BTFSS  F9E.4
0B0C6:  BRA    B0C4
0B0C8:  MOVWF  FAD
0B0CA:  MOVLW  30
0B0CC:  BTFSS  F9E.4
0B0CE:  BRA    B0CC
0B0D0:  MOVWF  FAD
0B0D2:  MOVFF  298,6B5
0B0D6:  MOVLW  01
0B0D8:  MOVLB  6
0B0DA:  MOVWF  xB6
0B0DC:  MOVLB  0
0B0DE:  CALL   5A18
0B0E2:  MOVLW  B1
0B0E4:  MOVWF  FF6
0B0E6:  MOVLW  11
0B0E8:  MOVWF  FF7
0B0EA:  MOVLW  00
0B0EC:  MOVWF  FF8
0B0EE:  MOVLW  0A
0B0F0:  MOVLB  6
0B0F2:  MOVWF  xB5
0B0F4:  MOVLB  0
0B0F6:  CALL   5994
0B0FA:  MOVFF  29B,6B5
0B0FE:  MOVLW  01
0B100:  MOVLB  6
0B102:  MOVWF  xB6
0B104:  MOVLB  0
0B106:  CALL   5A18
0B10A:  MOVLW  3A
0B10C:  BTFSS  F9E.4
0B10E:  BRA    B10C
0B110:  MOVWF  FAD
0B112:  MOVFF  29C,6B5
0B116:  MOVLW  01
0B118:  MOVLB  6
0B11A:  MOVWF  xB6
0B11C:  MOVLB  0
0B11E:  CALL   5A18
0B122:  MOVLW  3A
0B124:  BTFSS  F9E.4
0B126:  BRA    B124
0B128:  MOVWF  FAD
0B12A:  MOVFF  29D,6B5
0B12E:  MOVLW  01
0B130:  MOVLB  6
0B132:  MOVWF  xB6
0B134:  MOVLB  0
0B136:  CALL   5A18
0B13A:  MOVLW  22
0B13C:  BTFSS  F9E.4
0B13E:  BRA    B13C
0B140:  MOVWF  FAD
....................       SendDataDisplay(); 
0B142:  CALL   402C
....................       GuardaEEPROM=OFF; 
0B146:  MOVLB  1
0B148:  BCF    x00.0
....................       if(ingreso) 
0B14A:  BTFSS  x01.4
0B14C:  BRA    B154
....................          TipoClave=2; 
0B14E:  MOVLW  02
0B150:  MOVWF  xF7
....................       else 
0B152:  BRA    B156
....................          TipoClave=0; 
0B154:  CLRF   xF7
....................        
....................       if(RX_Buffer[4]==0x01){//01, Admin 
0B156:  DECFSZ 34,W
0B158:  BRA    B1B0
....................          printf("page Clave"); 
0B15A:  MOVLW  CC
0B15C:  MOVWF  FF6
0B15E:  MOVLW  11
0B160:  MOVWF  FF7
0B162:  MOVLW  00
0B164:  MOVWF  FF8
0B166:  MOVLB  0
0B168:  CALL   3FFA
....................          SendDataDisplay();        
0B16C:  CALL   402C
....................          if(!ingreso){ 
0B170:  MOVLB  1
0B172:  BTFSC  x01.4
0B174:  BRA    B1A8
....................             usuario="Admin"; 
0B176:  MOVLW  02
0B178:  MOVWF  FEA
0B17A:  MOVLW  B6
0B17C:  MOVWF  FE9
0B17E:  MOVFF  FF2,6B0
0B182:  BCF    FF2.6
0B184:  BCF    FF2.7
0B186:  MOVLW  00
0B188:  MOVLB  0
0B18A:  CALL   0144
0B18E:  TBLRD*-
0B190:  TBLRD*+
0B192:  MOVF   FF5,W
0B194:  MOVWF  FEE
0B196:  IORLW  00
0B198:  BNZ   B190
0B19A:  MOVLB  6
0B19C:  BTFSC  xB0.6
0B19E:  BSF    FF2.6
0B1A0:  BTFSC  xB0.7
0B1A2:  BSF    FF2.7
....................             codigoUsuario=0; 
0B1A4:  MOVLB  2
0B1A6:  CLRF   xB0
....................          } 
....................          codigoUsuario2=0; 
0B1A8:  MOVLB  2
0B1AA:  CLRF   x93
....................       }else if(RX_Buffer[4]==0x02){//02, Operador 1 
0B1AC:  BRA    B50C
0B1AE:  MOVLB  1
0B1B0:  MOVF   34,W
0B1B2:  SUBLW  02
0B1B4:  BNZ   B210
....................          printf("page Clave"); 
0B1B6:  MOVLW  D8
0B1B8:  MOVWF  FF6
0B1BA:  MOVLW  11
0B1BC:  MOVWF  FF7
0B1BE:  MOVLW  00
0B1C0:  MOVWF  FF8
0B1C2:  MOVLB  0
0B1C4:  CALL   3FFA
....................          SendDataDisplay();        
0B1C8:  CALL   402C
....................          if(!ingreso){ 
0B1CC:  MOVLB  1
0B1CE:  BTFSC  x01.4
0B1D0:  BRA    B206
....................             usuario="Operador 1"; 
0B1D2:  MOVLW  02
0B1D4:  MOVWF  FEA
0B1D6:  MOVLW  B6
0B1D8:  MOVWF  FE9
0B1DA:  MOVFF  FF2,6B0
0B1DE:  BCF    FF2.6
0B1E0:  BCF    FF2.7
0B1E2:  MOVLW  00
0B1E4:  MOVLB  0
0B1E6:  CALL   016E
0B1EA:  TBLRD*-
0B1EC:  TBLRD*+
0B1EE:  MOVF   FF5,W
0B1F0:  MOVWF  FEE
0B1F2:  IORLW  00
0B1F4:  BNZ   B1EC
0B1F6:  MOVLB  6
0B1F8:  BTFSC  xB0.6
0B1FA:  BSF    FF2.6
0B1FC:  BTFSC  xB0.7
0B1FE:  BSF    FF2.7
....................             codigoUsuario=1; 
0B200:  MOVLW  01
0B202:  MOVLB  2
0B204:  MOVWF  xB0
....................          } 
....................          codigoUsuario2=1; 
0B206:  MOVLW  01
0B208:  MOVLB  2
0B20A:  MOVWF  x93
....................       }else if(RX_Buffer[4]==0x03){//03, Operador 2 
0B20C:  BRA    B50C
0B20E:  MOVLB  1
0B210:  MOVF   34,W
0B212:  SUBLW  03
0B214:  BNZ   B270
....................          printf("page Clave"); 
0B216:  MOVLW  E4
0B218:  MOVWF  FF6
0B21A:  MOVLW  11
0B21C:  MOVWF  FF7
0B21E:  MOVLW  00
0B220:  MOVWF  FF8
0B222:  MOVLB  0
0B224:  CALL   3FFA
....................          SendDataDisplay();        
0B228:  CALL   402C
....................          if(!ingreso){ 
0B22C:  MOVLB  1
0B22E:  BTFSC  x01.4
0B230:  BRA    B266
....................             usuario="Operador 2"; 
0B232:  MOVLW  02
0B234:  MOVWF  FEA
0B236:  MOVLW  B6
0B238:  MOVWF  FE9
0B23A:  MOVFF  FF2,6B0
0B23E:  BCF    FF2.6
0B240:  BCF    FF2.7
0B242:  MOVLW  00
0B244:  MOVLB  0
0B246:  CALL   019E
0B24A:  TBLRD*-
0B24C:  TBLRD*+
0B24E:  MOVF   FF5,W
0B250:  MOVWF  FEE
0B252:  IORLW  00
0B254:  BNZ   B24C
0B256:  MOVLB  6
0B258:  BTFSC  xB0.6
0B25A:  BSF    FF2.6
0B25C:  BTFSC  xB0.7
0B25E:  BSF    FF2.7
....................             codigoUsuario=2; 
0B260:  MOVLW  02
0B262:  MOVLB  2
0B264:  MOVWF  xB0
....................          } 
....................          codigoUsuario2=2; 
0B266:  MOVLW  02
0B268:  MOVLB  2
0B26A:  MOVWF  x93
....................       }else if(RX_Buffer[4]==0x04){//04, Operador 3 
0B26C:  BRA    B50C
0B26E:  MOVLB  1
0B270:  MOVF   34,W
0B272:  SUBLW  04
0B274:  BNZ   B2D0
....................          printf("page Clave"); 
0B276:  MOVLW  F0
0B278:  MOVWF  FF6
0B27A:  MOVLW  11
0B27C:  MOVWF  FF7
0B27E:  MOVLW  00
0B280:  MOVWF  FF8
0B282:  MOVLB  0
0B284:  CALL   3FFA
....................          SendDataDisplay();        
0B288:  CALL   402C
....................          if(!ingreso){ 
0B28C:  MOVLB  1
0B28E:  BTFSC  x01.4
0B290:  BRA    B2C6
....................             usuario="Operador 3"; 
0B292:  MOVLW  02
0B294:  MOVWF  FEA
0B296:  MOVLW  B6
0B298:  MOVWF  FE9
0B29A:  MOVFF  FF2,6B0
0B29E:  BCF    FF2.6
0B2A0:  BCF    FF2.7
0B2A2:  MOVLW  00
0B2A4:  MOVLB  0
0B2A6:  CALL   01CE
0B2AA:  TBLRD*-
0B2AC:  TBLRD*+
0B2AE:  MOVF   FF5,W
0B2B0:  MOVWF  FEE
0B2B2:  IORLW  00
0B2B4:  BNZ   B2AC
0B2B6:  MOVLB  6
0B2B8:  BTFSC  xB0.6
0B2BA:  BSF    FF2.6
0B2BC:  BTFSC  xB0.7
0B2BE:  BSF    FF2.7
....................             codigoUsuario=3; 
0B2C0:  MOVLW  03
0B2C2:  MOVLB  2
0B2C4:  MOVWF  xB0
....................          } 
....................          codigoUsuario2=3; 
0B2C6:  MOVLW  03
0B2C8:  MOVLB  2
0B2CA:  MOVWF  x93
....................       }else if(RX_Buffer[4]==0x05){//05, Operador 4 
0B2CC:  BRA    B50C
0B2CE:  MOVLB  1
0B2D0:  MOVF   34,W
0B2D2:  SUBLW  05
0B2D4:  BNZ   B330
....................          printf("page Clave"); 
0B2D6:  MOVLW  FC
0B2D8:  MOVWF  FF6
0B2DA:  MOVLW  11
0B2DC:  MOVWF  FF7
0B2DE:  MOVLW  00
0B2E0:  MOVWF  FF8
0B2E2:  MOVLB  0
0B2E4:  CALL   3FFA
....................          SendDataDisplay();        
0B2E8:  CALL   402C
....................          if(!ingreso){ 
0B2EC:  MOVLB  1
0B2EE:  BTFSC  x01.4
0B2F0:  BRA    B326
....................             usuario="Operador 4"; 
0B2F2:  MOVLW  02
0B2F4:  MOVWF  FEA
0B2F6:  MOVLW  B6
0B2F8:  MOVWF  FE9
0B2FA:  MOVFF  FF2,6B0
0B2FE:  BCF    FF2.6
0B300:  BCF    FF2.7
0B302:  MOVLW  00
0B304:  MOVLB  0
0B306:  CALL   01FE
0B30A:  TBLRD*-
0B30C:  TBLRD*+
0B30E:  MOVF   FF5,W
0B310:  MOVWF  FEE
0B312:  IORLW  00
0B314:  BNZ   B30C
0B316:  MOVLB  6
0B318:  BTFSC  xB0.6
0B31A:  BSF    FF2.6
0B31C:  BTFSC  xB0.7
0B31E:  BSF    FF2.7
....................             codigoUsuario=4; 
0B320:  MOVLW  04
0B322:  MOVLB  2
0B324:  MOVWF  xB0
....................          } 
....................          codigoUsuario2=4; 
0B326:  MOVLW  04
0B328:  MOVLB  2
0B32A:  MOVWF  x93
....................       }else if(RX_Buffer[4]==0x06){//06, Operador 5 
0B32C:  BRA    B50C
0B32E:  MOVLB  1
0B330:  MOVF   34,W
0B332:  SUBLW  06
0B334:  BNZ   B390
....................          printf("page Clave"); 
0B336:  MOVLW  08
0B338:  MOVWF  FF6
0B33A:  MOVLW  12
0B33C:  MOVWF  FF7
0B33E:  MOVLW  00
0B340:  MOVWF  FF8
0B342:  MOVLB  0
0B344:  CALL   3FFA
....................          SendDataDisplay();        
0B348:  CALL   402C
....................          if(!ingreso){ 
0B34C:  MOVLB  1
0B34E:  BTFSC  x01.4
0B350:  BRA    B386
....................             usuario="Operador 5"; 
0B352:  MOVLW  02
0B354:  MOVWF  FEA
0B356:  MOVLW  B6
0B358:  MOVWF  FE9
0B35A:  MOVFF  FF2,6B0
0B35E:  BCF    FF2.6
0B360:  BCF    FF2.7
0B362:  MOVLW  00
0B364:  MOVLB  0
0B366:  CALL   022E
0B36A:  TBLRD*-
0B36C:  TBLRD*+
0B36E:  MOVF   FF5,W
0B370:  MOVWF  FEE
0B372:  IORLW  00
0B374:  BNZ   B36C
0B376:  MOVLB  6
0B378:  BTFSC  xB0.6
0B37A:  BSF    FF2.6
0B37C:  BTFSC  xB0.7
0B37E:  BSF    FF2.7
....................             codigoUsuario=5; 
0B380:  MOVLW  05
0B382:  MOVLB  2
0B384:  MOVWF  xB0
....................          } 
....................          codigoUsuario2=5; 
0B386:  MOVLW  05
0B388:  MOVLB  2
0B38A:  MOVWF  x93
....................       }else if(RX_Buffer[4]==0x07){//07, Operador 6 
0B38C:  BRA    B50C
0B38E:  MOVLB  1
0B390:  MOVF   34,W
0B392:  SUBLW  07
0B394:  BNZ   B3F0
....................          printf("page Clave"); 
0B396:  MOVLW  14
0B398:  MOVWF  FF6
0B39A:  MOVLW  12
0B39C:  MOVWF  FF7
0B39E:  MOVLW  00
0B3A0:  MOVWF  FF8
0B3A2:  MOVLB  0
0B3A4:  CALL   3FFA
....................          SendDataDisplay();        
0B3A8:  CALL   402C
....................          if(!ingreso){ 
0B3AC:  MOVLB  1
0B3AE:  BTFSC  x01.4
0B3B0:  BRA    B3E6
....................             usuario="Operador 6"; 
0B3B2:  MOVLW  02
0B3B4:  MOVWF  FEA
0B3B6:  MOVLW  B6
0B3B8:  MOVWF  FE9
0B3BA:  MOVFF  FF2,6B0
0B3BE:  BCF    FF2.6
0B3C0:  BCF    FF2.7
0B3C2:  MOVLW  00
0B3C4:  MOVLB  0
0B3C6:  CALL   025E
0B3CA:  TBLRD*-
0B3CC:  TBLRD*+
0B3CE:  MOVF   FF5,W
0B3D0:  MOVWF  FEE
0B3D2:  IORLW  00
0B3D4:  BNZ   B3CC
0B3D6:  MOVLB  6
0B3D8:  BTFSC  xB0.6
0B3DA:  BSF    FF2.6
0B3DC:  BTFSC  xB0.7
0B3DE:  BSF    FF2.7
....................             codigoUsuario=6; 
0B3E0:  MOVLW  06
0B3E2:  MOVLB  2
0B3E4:  MOVWF  xB0
....................          } 
....................          codigoUsuario2=6; 
0B3E6:  MOVLW  06
0B3E8:  MOVLB  2
0B3EA:  MOVWF  x93
....................       }else if(RX_Buffer[4]==0x08){//08, Operador 7 
0B3EC:  BRA    B50C
0B3EE:  MOVLB  1
0B3F0:  MOVF   34,W
0B3F2:  SUBLW  08
0B3F4:  BNZ   B450
....................          printf("page Clave"); 
0B3F6:  MOVLW  20
0B3F8:  MOVWF  FF6
0B3FA:  MOVLW  12
0B3FC:  MOVWF  FF7
0B3FE:  MOVLW  00
0B400:  MOVWF  FF8
0B402:  MOVLB  0
0B404:  CALL   3FFA
....................          SendDataDisplay();        
0B408:  CALL   402C
....................          if(!ingreso){ 
0B40C:  MOVLB  1
0B40E:  BTFSC  x01.4
0B410:  BRA    B446
....................             usuario="Operador 7"; 
0B412:  MOVLW  02
0B414:  MOVWF  FEA
0B416:  MOVLW  B6
0B418:  MOVWF  FE9
0B41A:  MOVFF  FF2,6B0
0B41E:  BCF    FF2.6
0B420:  BCF    FF2.7
0B422:  MOVLW  00
0B424:  MOVLB  0
0B426:  CALL   028E
0B42A:  TBLRD*-
0B42C:  TBLRD*+
0B42E:  MOVF   FF5,W
0B430:  MOVWF  FEE
0B432:  IORLW  00
0B434:  BNZ   B42C
0B436:  MOVLB  6
0B438:  BTFSC  xB0.6
0B43A:  BSF    FF2.6
0B43C:  BTFSC  xB0.7
0B43E:  BSF    FF2.7
....................             codigoUsuario=7; 
0B440:  MOVLW  07
0B442:  MOVLB  2
0B444:  MOVWF  xB0
....................          } 
....................          codigoUsuario2=7; 
0B446:  MOVLW  07
0B448:  MOVLB  2
0B44A:  MOVWF  x93
....................       }else if(RX_Buffer[4]==0x09){//09, Operador 8 
0B44C:  BRA    B50C
0B44E:  MOVLB  1
0B450:  MOVF   34,W
0B452:  SUBLW  09
0B454:  BNZ   B4B0
....................          printf("page Clave"); 
0B456:  MOVLW  2C
0B458:  MOVWF  FF6
0B45A:  MOVLW  12
0B45C:  MOVWF  FF7
0B45E:  MOVLW  00
0B460:  MOVWF  FF8
0B462:  MOVLB  0
0B464:  CALL   3FFA
....................          SendDataDisplay();        
0B468:  CALL   402C
....................          if(!ingreso){ 
0B46C:  MOVLB  1
0B46E:  BTFSC  x01.4
0B470:  BRA    B4A6
....................             usuario="Operador 8"; 
0B472:  MOVLW  02
0B474:  MOVWF  FEA
0B476:  MOVLW  B6
0B478:  MOVWF  FE9
0B47A:  MOVFF  FF2,6B0
0B47E:  BCF    FF2.6
0B480:  BCF    FF2.7
0B482:  MOVLW  00
0B484:  MOVLB  0
0B486:  CALL   02BE
0B48A:  TBLRD*-
0B48C:  TBLRD*+
0B48E:  MOVF   FF5,W
0B490:  MOVWF  FEE
0B492:  IORLW  00
0B494:  BNZ   B48C
0B496:  MOVLB  6
0B498:  BTFSC  xB0.6
0B49A:  BSF    FF2.6
0B49C:  BTFSC  xB0.7
0B49E:  BSF    FF2.7
....................             codigoUsuario=8; 
0B4A0:  MOVLW  08
0B4A2:  MOVLB  2
0B4A4:  MOVWF  xB0
....................          } 
....................          codigoUsuario2=8; 
0B4A6:  MOVLW  08
0B4A8:  MOVLB  2
0B4AA:  MOVWF  x93
....................       }else if(RX_Buffer[4]==0x0a){//0a, Tecnico 
0B4AC:  BRA    B50C
0B4AE:  MOVLB  1
0B4B0:  MOVF   34,W
0B4B2:  SUBLW  0A
0B4B4:  BNZ   B50E
....................          printf("page Clave"); 
0B4B6:  MOVLW  38
0B4B8:  MOVWF  FF6
0B4BA:  MOVLW  12
0B4BC:  MOVWF  FF7
0B4BE:  MOVLW  00
0B4C0:  MOVWF  FF8
0B4C2:  MOVLB  0
0B4C4:  CALL   3FFA
....................          SendDataDisplay();        
0B4C8:  CALL   402C
....................          if(!ingreso){ 
0B4CC:  MOVLB  1
0B4CE:  BTFSC  x01.4
0B4D0:  BRA    B506
....................             usuario="Tecnico"; 
0B4D2:  MOVLW  02
0B4D4:  MOVWF  FEA
0B4D6:  MOVLW  B6
0B4D8:  MOVWF  FE9
0B4DA:  MOVFF  FF2,6B0
0B4DE:  BCF    FF2.6
0B4E0:  BCF    FF2.7
0B4E2:  MOVLW  00
0B4E4:  MOVLB  0
0B4E6:  CALL   02EE
0B4EA:  TBLRD*-
0B4EC:  TBLRD*+
0B4EE:  MOVF   FF5,W
0B4F0:  MOVWF  FEE
0B4F2:  IORLW  00
0B4F4:  BNZ   B4EC
0B4F6:  MOVLB  6
0B4F8:  BTFSC  xB0.6
0B4FA:  BSF    FF2.6
0B4FC:  BTFSC  xB0.7
0B4FE:  BSF    FF2.7
....................             codigoUsuario=9; 
0B500:  MOVLW  09
0B502:  MOVLB  2
0B504:  MOVWF  xB0
....................          } 
....................          codigoUsuario2=9; 
0B506:  MOVLW  09
0B508:  MOVLB  2
0B50A:  MOVWF  x93
0B50C:  MOVLB  1
....................       } 
....................        
....................       if(RX_Buffer[4]==0xaa && ingreso){//aa, Regresar 
0B50E:  MOVF   34,W
0B510:  SUBLW  AA
0B512:  BNZ   B536
0B514:  BTFSS  x01.4
0B516:  BRA    B536
....................          printf("page Ajustes"); 
0B518:  MOVLW  44
0B51A:  MOVWF  FF6
0B51C:  MOVLW  12
0B51E:  MOVWF  FF7
0B520:  MOVLW  00
0B522:  MOVWF  FF8
0B524:  MOVLB  0
0B526:  CALL   3FFA
....................          SendDataDisplay();        
0B52A:  CALL   402C
....................          codigoUsuario2=10; 
0B52E:  MOVLW  0A
0B530:  MOVLB  2
0B532:  MOVWF  x93
0B534:  MOVLB  1
....................       } 
....................    } 
.................... //_--------------------------------------------------------------------------------------------------------------------------------------------------------       
....................  
.................... //_--------------------------------------------------------------------------------------------------------------------------------------------------------       
....................    if(Menu==11){//Menu de Configuraciones 
0B536:  MOVLB  2
0B538:  MOVF   x59,W
0B53A:  SUBLW  0B
0B53C:  BTFSS  FD8.2
0B53E:  BRA    B778
....................       printf("fecha.txt=\"Fecha:%02u/%02u/20%02u    Hora: %02u:%02u:%02u\"",Dia,Mes,Year,Hora,Minuto,Segundo); 
0B540:  MOVLW  52
0B542:  MOVWF  FF6
0B544:  MOVLW  12
0B546:  MOVWF  FF7
0B548:  MOVLW  00
0B54A:  MOVWF  FF8
0B54C:  MOVLW  11
0B54E:  MOVLB  6
0B550:  MOVWF  xB5
0B552:  MOVLB  0
0B554:  CALL   5994
0B558:  MOVFF  29A,6B5
0B55C:  MOVLW  01
0B55E:  MOVLB  6
0B560:  MOVWF  xB6
0B562:  MOVLB  0
0B564:  CALL   5A18
0B568:  MOVLW  2F
0B56A:  BTFSS  F9E.4
0B56C:  BRA    B56A
0B56E:  MOVWF  FAD
0B570:  MOVFF  299,6B5
0B574:  MOVLW  01
0B576:  MOVLB  6
0B578:  MOVWF  xB6
0B57A:  MOVLB  0
0B57C:  CALL   5A18
0B580:  MOVLW  2F
0B582:  BTFSS  F9E.4
0B584:  BRA    B582
0B586:  MOVWF  FAD
0B588:  MOVLW  32
0B58A:  BTFSS  F9E.4
0B58C:  BRA    B58A
0B58E:  MOVWF  FAD
0B590:  MOVLW  30
0B592:  BTFSS  F9E.4
0B594:  BRA    B592
0B596:  MOVWF  FAD
0B598:  MOVFF  298,6B5
0B59C:  MOVLW  01
0B59E:  MOVLB  6
0B5A0:  MOVWF  xB6
0B5A2:  MOVLB  0
0B5A4:  CALL   5A18
0B5A8:  MOVLW  73
0B5AA:  MOVWF  FF6
0B5AC:  MOVLW  12
0B5AE:  MOVWF  FF7
0B5B0:  MOVLW  00
0B5B2:  MOVWF  FF8
0B5B4:  MOVLW  0A
0B5B6:  MOVLB  6
0B5B8:  MOVWF  xB5
0B5BA:  MOVLB  0
0B5BC:  CALL   5994
0B5C0:  MOVFF  29B,6B5
0B5C4:  MOVLW  01
0B5C6:  MOVLB  6
0B5C8:  MOVWF  xB6
0B5CA:  MOVLB  0
0B5CC:  CALL   5A18
0B5D0:  MOVLW  3A
0B5D2:  BTFSS  F9E.4
0B5D4:  BRA    B5D2
0B5D6:  MOVWF  FAD
0B5D8:  MOVFF  29C,6B5
0B5DC:  MOVLW  01
0B5DE:  MOVLB  6
0B5E0:  MOVWF  xB6
0B5E2:  MOVLB  0
0B5E4:  CALL   5A18
0B5E8:  MOVLW  3A
0B5EA:  BTFSS  F9E.4
0B5EC:  BRA    B5EA
0B5EE:  MOVWF  FAD
0B5F0:  MOVFF  29D,6B5
0B5F4:  MOVLW  01
0B5F6:  MOVLB  6
0B5F8:  MOVWF  xB6
0B5FA:  MOVLB  0
0B5FC:  CALL   5A18
0B600:  MOVLW  22
0B602:  BTFSS  F9E.4
0B604:  BRA    B602
0B606:  MOVWF  FAD
....................       SendDataDisplay(); 
0B608:  CALL   402C
....................       GuardaEEPROM=OFF; 
0B60C:  MOVLB  1
0B60E:  BCF    x00.0
....................       printf("tuser.txt=\"%s\"",usuario); 
0B610:  MOVLW  8E
0B612:  MOVWF  FF6
0B614:  MOVLW  12
0B616:  MOVWF  FF7
0B618:  MOVLW  00
0B61A:  MOVWF  FF8
0B61C:  MOVLW  0B
0B61E:  MOVLB  6
0B620:  MOVWF  xB5
0B622:  MOVLB  0
0B624:  CALL   5994
0B628:  MOVLW  02
0B62A:  MOVWF  FEA
0B62C:  MOVLW  B6
0B62E:  MOVWF  FE9
0B630:  CALL   59C6
0B634:  MOVLW  22
0B636:  BTFSS  F9E.4
0B638:  BRA    B636
0B63A:  MOVWF  FAD
....................       SendDataDisplay(); 
0B63C:  CALL   402C
....................       TipoClave=0; 
0B640:  MOVLB  1
0B642:  CLRF   xF7
....................        
....................       if(RX_Buffer[4]==0x01){//01, Ciclos 
0B644:  DECFSZ 34,W
0B646:  BRA    B660
....................          printf("page Ciclos"); 
0B648:  MOVLW  9E
0B64A:  MOVWF  FF6
0B64C:  MOVLW  12
0B64E:  MOVWF  FF7
0B650:  MOVLW  00
0B652:  MOVWF  FF8
0B654:  MOVLB  0
0B656:  CALL   3FFA
....................          SendDataDisplay();      
0B65A:  CALL   402C
0B65E:  MOVLB  1
....................       } 
....................        
....................       if(RX_Buffer[4]==0x02){//02, Test de Componentes 
0B660:  MOVF   34,W
0B662:  SUBLW  02
0B664:  BNZ   B67E
....................          printf("page Test"); 
0B666:  MOVLW  AA
0B668:  MOVWF  FF6
0B66A:  MOVLW  12
0B66C:  MOVWF  FF7
0B66E:  MOVLW  00
0B670:  MOVWF  FF8
0B672:  MOVLB  0
0B674:  CALL   3FFA
....................          SendDataDisplay();      
0B678:  CALL   402C
0B67C:  MOVLB  1
....................       } 
....................        
....................       if(RX_Buffer[4]==0x03){//03, Modificacin de clave Usuarios 
0B67E:  MOVF   34,W
0B680:  SUBLW  03
0B682:  BNZ   B69C
....................          printf("page Usuarios"); 
0B684:  MOVLW  B4
0B686:  MOVWF  FF6
0B688:  MOVLW  12
0B68A:  MOVWF  FF7
0B68C:  MOVLW  00
0B68E:  MOVWF  FF8
0B690:  MOVLB  0
0B692:  CALL   3FFA
....................          SendDataDisplay();      
0B696:  CALL   402C
0B69A:  MOVLB  1
....................       } 
....................        
....................       if(RX_Buffer[4]==0x04){//03, Modificacin de clave Usuarios 
0B69C:  MOVF   34,W
0B69E:  SUBLW  04
0B6A0:  BNZ   B6BA
....................          printf("page Activa"); 
0B6A2:  MOVLW  C2
0B6A4:  MOVWF  FF6
0B6A6:  MOVLW  12
0B6A8:  MOVWF  FF7
0B6AA:  MOVLW  00
0B6AC:  MOVWF  FF8
0B6AE:  MOVLB  0
0B6B0:  CALL   3FFA
....................          SendDataDisplay();      
0B6B4:  CALL   402C
0B6B8:  MOVLB  1
....................       } 
....................        
....................       if(RX_Buffer[4]==0x11 && CodigoUsuario==9){//11, Menu Oculto Tecnico 
0B6BA:  MOVF   34,W
0B6BC:  SUBLW  11
0B6BE:  BNZ   B6EA
0B6C0:  MOVLB  2
0B6C2:  MOVF   xB0,W
0B6C4:  SUBLW  09
0B6C6:  BTFSC  FD8.2
0B6C8:  BRA    B6CE
0B6CA:  MOVLB  1
0B6CC:  BRA    B6EA
....................          printf("page Clave"); 
0B6CE:  MOVLW  CE
0B6D0:  MOVWF  FF6
0B6D2:  MOVLW  12
0B6D4:  MOVWF  FF7
0B6D6:  MOVLW  00
0B6D8:  MOVWF  FF8
0B6DA:  MOVLB  0
0B6DC:  CALL   3FFA
....................          SendDataDisplay();  
0B6E0:  CALL   402C
....................          TipoClave=1; 
0B6E4:  MOVLW  01
0B6E6:  MOVLB  1
0B6E8:  MOVWF  xF7
....................       } 
....................        
....................       if(RX_Buffer[4]==0x05){//05, Hora y Fecha 
0B6EA:  MOVF   34,W
0B6EC:  SUBLW  05
0B6EE:  BNZ   B71C
....................          printf("page Fecha"); 
0B6F0:  MOVLW  DA
0B6F2:  MOVWF  FF6
0B6F4:  MOVLW  12
0B6F6:  MOVWF  FF7
0B6F8:  MOVLW  00
0B6FA:  MOVWF  FF8
0B6FC:  MOVLB  0
0B6FE:  CALL   3FFA
....................          SendDataDisplay();      
0B702:  CALL   402C
....................          DiaTx=Dia; 
0B706:  MOVFF  29A,2A7
....................          MesTx=Mes; 
0B70A:  MOVFF  299,2A6
....................          YearTx=Year; 
0B70E:  MOVFF  298,2A5
....................          HoraTx=Hora; 
0B712:  MOVFF  29B,2A8
....................          MinutoTx=Minuto; 
0B716:  MOVFF  29C,2A9
0B71A:  MOVLB  1
....................       } 
....................        
....................       if(RX_Buffer[4]==0xa0){//a0, Menu Principal 
0B71C:  MOVF   34,W
0B71E:  SUBLW  A0
0B720:  BNZ   B73A
....................          printf("page Menu"); 
0B722:  MOVLW  E6
0B724:  MOVWF  FF6
0B726:  MOVLW  12
0B728:  MOVWF  FF7
0B72A:  MOVLW  00
0B72C:  MOVWF  FF8
0B72E:  MOVLB  0
0B730:  CALL   3FFA
....................          SendDataDisplay();      
0B734:  CALL   402C
0B738:  MOVLB  1
....................       } 
....................        
....................       if(RX_Buffer[4]==0xb0){//b0, Personalizados 
0B73A:  MOVF   34,W
0B73C:  SUBLW  B0
0B73E:  BNZ   B758
....................          printf("page CicloPersona"); 
0B740:  MOVLW  F0
0B742:  MOVWF  FF6
0B744:  MOVLW  12
0B746:  MOVWF  FF7
0B748:  MOVLW  00
0B74A:  MOVWF  FF8
0B74C:  MOVLB  0
0B74E:  CALL   3FFA
....................          SendDataDisplay();      
0B752:  CALL   402C
0B756:  MOVLB  1
....................       } 
....................        
....................       if(RX_Buffer[4]==0xc0){//c0, Configuraciones 
0B758:  MOVF   34,W
0B75A:  SUBLW  C0
0B75C:  BNZ   B776
....................          printf("page Ajustes"); 
0B75E:  MOVLW  02
0B760:  MOVWF  FF6
0B762:  MOVLW  13
0B764:  MOVWF  FF7
0B766:  MOVLW  00
0B768:  MOVWF  FF8
0B76A:  MOVLB  0
0B76C:  CALL   3FFA
....................          SendDataDisplay();      
0B770:  CALL   402C
0B774:  MOVLB  1
0B776:  MOVLB  2
....................       } 
....................    } 
.................... //_--------------------------------------------------------------------------------------------------------------------------------------------------------       
....................  
.................... //_--------------------------------------------------------------------------------------------------------------------------------------------------------       
....................    if(Menu==12){//Menu de Visualizacion de Ciclos Realizados 
0B778:  MOVF   x59,W
0B77A:  SUBLW  0C
0B77C:  BTFSS  FD8.2
0B77E:  GOTO   C31E
....................       //printf("fecha.txt=\"Fecha:%02u/%02u/20%02u    Hora: %02u:%02u\"",Dia,Mes,Year,Hora,Minuto); 
....................       //SendDataDisplay(); 
....................       GuardaEEPROM=OFF; 
0B782:  MOVLB  1
0B784:  BCF    x00.0
....................        
....................       i2c_start();            // Comienzo de la comunicacin 
0B786:  BSF    F94.4
0B788:  MOVLW  05
0B78A:  MOVWF  00
0B78C:  DECFSZ 00,F
0B78E:  BRA    B78C
0B790:  BSF    F94.3
0B792:  MOVLW  06
0B794:  MOVWF  00
0B796:  DECFSZ 00,F
0B798:  BRA    B796
0B79A:  BCF    F8B.4
0B79C:  BCF    F94.4
0B79E:  MOVLW  05
0B7A0:  MOVWF  00
0B7A2:  DECFSZ 00,F
0B7A4:  BRA    B7A2
0B7A6:  BCF    F8B.3
0B7A8:  BCF    F94.3
....................       i2c_write(0xB0);   // Direccin del esclavo en el bus I2C 
0B7AA:  MOVLW  B0
0B7AC:  MOVLB  6
0B7AE:  MOVWF  xC6
0B7B0:  MOVLB  0
0B7B2:  CALL   240E
....................       i2c_write(9);    // Posicin de donde se leer el dato en el esclavo 
0B7B6:  MOVLW  09
0B7B8:  MOVLB  6
0B7BA:  MOVWF  xC6
0B7BC:  MOVLB  0
0B7BE:  CALL   240E
....................       i2c_write(0);    // Posicin de donde se leer el dato en el esclavo 
0B7C2:  MOVLB  6
0B7C4:  CLRF   xC6
0B7C6:  MOVLB  0
0B7C8:  CALL   240E
....................       i2c_start();            // Reinicio 
0B7CC:  BSF    F94.4
0B7CE:  MOVLW  05
0B7D0:  MOVWF  00
0B7D2:  DECFSZ 00,F
0B7D4:  BRA    B7D2
0B7D6:  BSF    F94.3
0B7D8:  MOVLW  06
0B7DA:  MOVWF  00
0B7DC:  DECFSZ 00,F
0B7DE:  BRA    B7DC
0B7E0:  BTFSS  F82.3
0B7E2:  BRA    B7E0
0B7E4:  BCF    F8B.4
0B7E6:  BCF    F94.4
0B7E8:  MOVLW  05
0B7EA:  MOVWF  00
0B7EC:  DECFSZ 00,F
0B7EE:  BRA    B7EC
0B7F0:  BCF    F8B.3
0B7F2:  BCF    F94.3
....................       i2c_write(direccion+1); // Direccin del esclavo en modo lectura 
0B7F4:  MOVLW  01
0B7F6:  ADDWF  xDD,W
0B7F8:  MOVLB  6
0B7FA:  MOVWF  xB0
0B7FC:  MOVWF  xC6
0B7FE:  MOVLB  0
0B800:  CALL   240E
....................       dato=i2c_read(0);       // Lectura del dato 
0B804:  CLRF   00
0B806:  CALL   2484
0B80A:  MOVFF  01,DC
....................       i2c_stop(); 
0B80E:  BCF    F94.4
0B810:  NOP   
0B812:  BSF    F94.3
0B814:  BTFSS  F82.3
0B816:  BRA    B814
0B818:  MOVLW  05
0B81A:  MOVWF  00
0B81C:  DECFSZ 00,F
0B81E:  BRA    B81C
0B820:  BRA    B822
0B822:  NOP   
0B824:  BSF    F94.4
0B826:  MOVLW  05
0B828:  MOVWF  00
0B82A:  DECFSZ 00,F
0B82C:  BRA    B82A
....................        
....................       printf("estado.txt=\"Oprima Exportar para imprimir\""); 
0B82E:  MOVLW  10
0B830:  MOVWF  FF6
0B832:  MOVLW  13
0B834:  MOVWF  FF7
0B836:  MOVLW  00
0B838:  MOVWF  FF8
0B83A:  CALL   3FFA
....................       SendDataDisplay();      
0B83E:  CALL   402C
....................        
....................       if(RX_Buffer[6]==0x01){//01, Ciclos 
0B842:  DECFSZ 36,W
0B844:  BRA    B85A
....................          printf("page Ajustes"); 
0B846:  MOVLW  3C
0B848:  MOVWF  FF6
0B84A:  MOVLW  13
0B84C:  MOVWF  FF7
0B84E:  MOVLW  00
0B850:  MOVWF  FF8
0B852:  CALL   3FFA
....................          SendDataDisplay();      
0B856:  CALL   402C
....................       } 
....................        
....................       if(RX_Buffer[6]==0x02){//02, Exportar 
0B85A:  MOVF   36,W
0B85C:  SUBLW  02
0B85E:  BNZ   B868
....................          RX_Buffer[6]=0x00;   
0B860:  CLRF   36
....................          RX_Buffer2[6]=0x00; 
0B862:  CLRF   41
....................          exportarData(); 
0B864:  GOTO   603A
....................       } 
....................        
....................       if(RX_Buffer[4]>0x00 && RX_Buffer[5]>0x00){ 
0B868:  MOVF   34,F
0B86A:  BTFSC  FD8.2
0B86C:  BRA    BF2A
0B86E:  MOVF   35,F
0B870:  BTFSC  FD8.2
0B872:  BRA    BF2A
....................          cicloVisualizado=RX_Buffer[4]-1; 
0B874:  MOVLW  01
0B876:  SUBWF  34,W
0B878:  MOVLB  2
0B87A:  MOVWF  x9F
....................          cicloVisto=RX_Buffer[5]-1; 
0B87C:  MOVLW  01
0B87E:  SUBWF  35,W
0B880:  MOVWF  xA0
....................          RX_Buffer[4]=0x00; 
0B882:  CLRF   34
....................          RX_Buffer[5]=0x00; 
0B884:  CLRF   35
....................          RX_Buffer2[4]=0x00; 
0B886:  CLRF   3F
....................          RX_Buffer2[5]=0x00; 
0B888:  CLRF   40
....................          diaCiclos=read_ext_eeprom(2+(cicloVisto*320)); 
0B88A:  MOVLB  6
0B88C:  CLRF   xBB
0B88E:  MOVFF  2A0,6BA
0B892:  MOVLW  01
0B894:  MOVWF  xBD
0B896:  MOVLW  40
0B898:  MOVWF  xBC
0B89A:  MOVLB  0
0B89C:  CALL   23EC
0B8A0:  MOVFF  02,03
0B8A4:  MOVF   01,W
0B8A6:  ADDLW  02
0B8A8:  MOVLB  6
0B8AA:  MOVWF  xB0
0B8AC:  MOVLW  00
0B8AE:  ADDWFC 02,W
0B8B0:  MOVWF  xB1
0B8B2:  MOVWF  xB6
0B8B4:  MOVFF  6B0,6B5
0B8B8:  MOVLB  0
0B8BA:  CALL   24EE
0B8BE:  MOVFF  01,317
....................          if(diaCiclos>31) 
0B8C2:  MOVLB  3
0B8C4:  MOVF   x17,W
0B8C6:  SUBLW  1F
0B8C8:  BC    B8CE
....................             diaCiclos=1; 
0B8CA:  MOVLW  01
0B8CC:  MOVWF  x17
....................          mesCiclos=read_ext_eeprom(3+(cicloVisto*320)); 
0B8CE:  MOVLB  6
0B8D0:  CLRF   xBB
0B8D2:  MOVFF  2A0,6BA
0B8D6:  MOVLW  01
0B8D8:  MOVWF  xBD
0B8DA:  MOVLW  40
0B8DC:  MOVWF  xBC
0B8DE:  MOVLB  0
0B8E0:  CALL   23EC
0B8E4:  MOVFF  02,03
0B8E8:  MOVF   01,W
0B8EA:  ADDLW  03
0B8EC:  MOVLB  6
0B8EE:  MOVWF  xB0
0B8F0:  MOVLW  00
0B8F2:  ADDWFC 02,W
0B8F4:  MOVWF  xB1
0B8F6:  MOVWF  xB6
0B8F8:  MOVFF  6B0,6B5
0B8FC:  MOVLB  0
0B8FE:  CALL   24EE
0B902:  MOVFF  01,318
....................          if(mesCiclos>12) 
0B906:  MOVLB  3
0B908:  MOVF   x18,W
0B90A:  SUBLW  0C
0B90C:  BC    B912
....................             mesCiclos=1; 
0B90E:  MOVLW  01
0B910:  MOVWF  x18
....................          yearCiclos=read_ext_eeprom(4+(cicloVisto*320)); 
0B912:  MOVLB  6
0B914:  CLRF   xBB
0B916:  MOVFF  2A0,6BA
0B91A:  MOVLW  01
0B91C:  MOVWF  xBD
0B91E:  MOVLW  40
0B920:  MOVWF  xBC
0B922:  MOVLB  0
0B924:  CALL   23EC
0B928:  MOVFF  02,03
0B92C:  MOVF   01,W
0B92E:  ADDLW  04
0B930:  MOVLB  6
0B932:  MOVWF  xB0
0B934:  MOVLW  00
0B936:  ADDWFC 02,W
0B938:  MOVWF  xB1
0B93A:  MOVWF  xB6
0B93C:  MOVFF  6B0,6B5
0B940:  MOVLB  0
0B942:  CALL   24EE
0B946:  MOVFF  01,319
....................          if(yearCiclos>99) 
0B94A:  MOVLB  3
0B94C:  MOVF   x19,W
0B94E:  SUBLW  63
0B950:  BC    B956
....................             yearCiclos=19; 
0B952:  MOVLW  13
0B954:  MOVWF  x19
....................          cicloCiclos=read_ext_eeprom(1+(cicloVisto*320)); 
0B956:  MOVLB  6
0B958:  CLRF   xBB
0B95A:  MOVFF  2A0,6BA
0B95E:  MOVLW  01
0B960:  MOVWF  xBD
0B962:  MOVLW  40
0B964:  MOVWF  xBC
0B966:  MOVLB  0
0B968:  CALL   23EC
0B96C:  MOVFF  02,03
0B970:  MOVF   01,W
0B972:  ADDLW  01
0B974:  MOVLB  6
0B976:  MOVWF  xB0
0B978:  MOVLW  00
0B97A:  ADDWFC 02,W
0B97C:  MOVWF  xB1
0B97E:  MOVWF  xB6
0B980:  MOVFF  6B0,6B5
0B984:  MOVLB  0
0B986:  CALL   24EE
0B98A:  MOVFF  01,31B
....................          if(cicloCiclos>20) 
0B98E:  MOVLB  3
0B990:  MOVF   x1B,W
0B992:  SUBLW  14
0B994:  BC    B99A
....................             cicloCiclos=1; 
0B996:  MOVLW  01
0B998:  MOVWF  x1B
....................          usuarioCiclos=read_ext_eeprom((cicloVisto*320)); 
0B99A:  MOVLB  6
0B99C:  CLRF   xBB
0B99E:  MOVFF  2A0,6BA
0B9A2:  MOVLW  01
0B9A4:  MOVWF  xBD
0B9A6:  MOVLW  40
0B9A8:  MOVWF  xBC
0B9AA:  MOVLB  0
0B9AC:  CALL   23EC
0B9B0:  MOVFF  02,6B1
0B9B4:  MOVFF  01,6B0
0B9B8:  MOVFF  02,6B6
0B9BC:  MOVFF  01,6B5
0B9C0:  CALL   24EE
0B9C4:  MOVFF  01,31A
....................          if(usuarioCiclos>10) 
0B9C8:  MOVLB  3
0B9CA:  MOVF   x1A,W
0B9CC:  SUBLW  0A
0B9CE:  BC    B9D4
....................             usuarioCiclos=1; 
0B9D0:  MOVLW  01
0B9D2:  MOVWF  x1A
....................          for(i=0;i<7;i++){//Lee Valores para completar la Tabla 
0B9D4:  MOVLB  2
0B9D6:  CLRF   x5C
0B9D8:  MOVF   x5C,W
0B9DA:  SUBLW  06
0B9DC:  BTFSS  FD8.0
0B9DE:  BRA    BF28
....................             horaCiclos[i]=read_ext_eeprom((cicloVisto*320)+11+((cicloVisualizado+i)*9)); 
0B9E0:  CLRF   03
0B9E2:  MOVF   x5C,W
0B9E4:  ADDLW  02
0B9E6:  MOVWF  01
0B9E8:  MOVLW  03
0B9EA:  ADDWFC 03,F
0B9EC:  MOVFF  01,6B0
0B9F0:  MOVLB  6
0B9F2:  MOVFF  03,6B1
0B9F6:  CLRF   xBB
0B9F8:  MOVFF  2A0,6BA
0B9FC:  MOVLW  01
0B9FE:  MOVWF  xBD
0BA00:  MOVLW  40
0BA02:  MOVWF  xBC
0BA04:  MOVLB  0
0BA06:  CALL   23EC
0BA0A:  MOVFF  02,6B3
0BA0E:  MOVFF  01,6B2
0BA12:  MOVLW  0B
0BA14:  MOVLB  6
0BA16:  ADDWF  xB2,F
0BA18:  MOVLW  00
0BA1A:  ADDWFC xB3,F
0BA1C:  MOVLB  2
0BA1E:  MOVF   x5C,W
0BA20:  ADDWF  x9F,W
0BA22:  MULLW  09
0BA24:  MOVF   FF3,W
0BA26:  MOVLB  6
0BA28:  ADDWF  xB2,F
0BA2A:  MOVLW  00
0BA2C:  ADDWFC xB3,F
0BA2E:  MOVFF  6B3,6B6
0BA32:  MOVFF  6B2,6B5
0BA36:  MOVLB  0
0BA38:  CALL   24EE
0BA3C:  MOVFF  6B1,FEA
0BA40:  MOVFF  6B0,FE9
0BA44:  MOVFF  01,FEF
....................             if(horaCiclos[i]>24) 
0BA48:  CLRF   03
0BA4A:  MOVLB  2
0BA4C:  MOVF   x5C,W
0BA4E:  ADDLW  02
0BA50:  MOVWF  FE9
0BA52:  MOVLW  03
0BA54:  ADDWFC 03,W
0BA56:  MOVWF  FEA
0BA58:  MOVF   FEF,W
0BA5A:  SUBLW  18
0BA5C:  BC    BA6E
....................                horaCiclos[i]=0; 
0BA5E:  CLRF   03
0BA60:  MOVF   x5C,W
0BA62:  ADDLW  02
0BA64:  MOVWF  FE9
0BA66:  MOVLW  03
0BA68:  ADDWFC 03,W
0BA6A:  MOVWF  FEA
0BA6C:  CLRF   FEF
....................             minutoCiclos[i]=read_ext_eeprom((cicloVisto*320)+12+((cicloVisualizado+i)*9)); 
0BA6E:  CLRF   03
0BA70:  MOVF   x5C,W
0BA72:  ADDLW  09
0BA74:  MOVWF  01
0BA76:  MOVLW  03
0BA78:  ADDWFC 03,F
0BA7A:  MOVFF  01,6B0
0BA7E:  MOVLB  6
0BA80:  MOVFF  03,6B1
0BA84:  CLRF   xBB
0BA86:  MOVFF  2A0,6BA
0BA8A:  MOVLW  01
0BA8C:  MOVWF  xBD
0BA8E:  MOVLW  40
0BA90:  MOVWF  xBC
0BA92:  MOVLB  0
0BA94:  CALL   23EC
0BA98:  MOVFF  02,6B3
0BA9C:  MOVFF  01,6B2
0BAA0:  MOVLW  0C
0BAA2:  MOVLB  6
0BAA4:  ADDWF  xB2,F
0BAA6:  MOVLW  00
0BAA8:  ADDWFC xB3,F
0BAAA:  MOVLB  2
0BAAC:  MOVF   x5C,W
0BAAE:  ADDWF  x9F,W
0BAB0:  MULLW  09
0BAB2:  MOVF   FF3,W
0BAB4:  MOVLB  6
0BAB6:  ADDWF  xB2,F
0BAB8:  MOVLW  00
0BABA:  ADDWFC xB3,F
0BABC:  MOVFF  6B3,6B6
0BAC0:  MOVFF  6B2,6B5
0BAC4:  MOVLB  0
0BAC6:  CALL   24EE
0BACA:  MOVFF  6B1,FEA
0BACE:  MOVFF  6B0,FE9
0BAD2:  MOVFF  01,FEF
....................             if(minutoCiclos[i]>59) 
0BAD6:  CLRF   03
0BAD8:  MOVLB  2
0BADA:  MOVF   x5C,W
0BADC:  ADDLW  09
0BADE:  MOVWF  FE9
0BAE0:  MOVLW  03
0BAE2:  ADDWFC 03,W
0BAE4:  MOVWF  FEA
0BAE6:  MOVF   FEF,W
0BAE8:  SUBLW  3B
0BAEA:  BC    BAFC
....................                minutoCiclos[i]=0; 
0BAEC:  CLRF   03
0BAEE:  MOVF   x5C,W
0BAF0:  ADDLW  09
0BAF2:  MOVWF  FE9
0BAF4:  MOVLW  03
0BAF6:  ADDWFC 03,W
0BAF8:  MOVWF  FEA
0BAFA:  CLRF   FEF
....................             TCiclos[i]=read_ext_eeprom((cicloVisto*320)+5+((cicloVisualizado+i)*9))+inttofloat(read_ext_eeprom((cicloVisto*320)+6+((cicloVisualizado+i)*9))); 
0BAFC:  MOVF   x5C,W
0BAFE:  MULLW  04
0BB00:  MOVF   FF3,W
0BB02:  CLRF   03
0BB04:  ADDLW  CA
0BB06:  MOVWF  01
0BB08:  MOVLW  02
0BB0A:  ADDWFC 03,F
0BB0C:  MOVFF  01,6B0
0BB10:  MOVLB  6
0BB12:  MOVFF  03,6B1
0BB16:  CLRF   xBB
0BB18:  MOVFF  2A0,6BA
0BB1C:  MOVLW  01
0BB1E:  MOVWF  xBD
0BB20:  MOVLW  40
0BB22:  MOVWF  xBC
0BB24:  MOVLB  0
0BB26:  CALL   23EC
0BB2A:  MOVFF  02,6B3
0BB2E:  MOVFF  01,6B2
0BB32:  MOVLW  05
0BB34:  MOVLB  6
0BB36:  ADDWF  xB2,F
0BB38:  MOVLW  00
0BB3A:  ADDWFC xB3,F
0BB3C:  MOVLB  2
0BB3E:  MOVF   x5C,W
0BB40:  ADDWF  x9F,W
0BB42:  MULLW  09
0BB44:  MOVF   FF3,W
0BB46:  MOVLB  6
0BB48:  ADDWF  xB2,F
0BB4A:  MOVLW  00
0BB4C:  ADDWFC xB3,F
0BB4E:  MOVFF  6B3,6B6
0BB52:  MOVFF  6B2,6B5
0BB56:  MOVLB  0
0BB58:  CALL   24EE
0BB5C:  MOVFF  01,6B2
0BB60:  MOVLB  6
0BB62:  CLRF   xBB
0BB64:  MOVFF  2A0,6BA
0BB68:  MOVLW  01
0BB6A:  MOVWF  xBD
0BB6C:  MOVLW  40
0BB6E:  MOVWF  xBC
0BB70:  MOVLB  0
0BB72:  CALL   23EC
0BB76:  MOVFF  02,6B4
0BB7A:  MOVFF  01,6B3
0BB7E:  MOVLW  06
0BB80:  MOVLB  6
0BB82:  ADDWF  xB3,F
0BB84:  MOVLW  00
0BB86:  ADDWFC xB4,F
0BB88:  MOVLB  2
0BB8A:  MOVF   x5C,W
0BB8C:  ADDWF  x9F,W
0BB8E:  MULLW  09
0BB90:  MOVF   FF3,W
0BB92:  MOVLB  6
0BB94:  ADDWF  xB3,F
0BB96:  MOVLW  00
0BB98:  ADDWFC xB4,F
0BB9A:  MOVFF  6B4,6B6
0BB9E:  MOVFF  6B3,6B5
0BBA2:  MOVLB  0
0BBA4:  CALL   24EE
0BBA8:  MOVFF  01,6B3
0BBAC:  MOVFF  01,6B4
0BBB0:  CALL   2596
0BBB4:  MOVFF  00,6B3
0BBB8:  MOVFF  01,6B4
0BBBC:  MOVFF  02,6B5
0BBC0:  MOVFF  03,6B6
0BBC4:  MOVLB  6
0BBC6:  CLRF   xC3
0BBC8:  MOVFF  6B2,6C2
0BBCC:  MOVLB  0
0BBCE:  CALL   1F44
0BBD2:  MOVFF  FEA,6B8
0BBD6:  MOVFF  FE9,6B7
0BBDA:  BCF    FD8.1
0BBDC:  MOVFF  03,6C5
0BBE0:  MOVFF  02,6C4
0BBE4:  MOVFF  01,6C3
0BBE8:  MOVFF  00,6C2
0BBEC:  MOVFF  6B6,6C9
0BBF0:  MOVFF  6B5,6C8
0BBF4:  MOVFF  6B4,6C7
0BBF8:  MOVFF  6B3,6C6
0BBFC:  CALL   2100
0BC00:  MOVFF  6B8,FEA
0BC04:  MOVFF  6B7,FE9
0BC08:  MOVFF  6B1,FEA
0BC0C:  MOVFF  6B0,FE9
0BC10:  MOVFF  00,FEF
0BC14:  MOVFF  01,FEC
0BC18:  MOVFF  02,FEC
0BC1C:  MOVFF  03,FEC
....................             if(TCiclos[i]>150) 
0BC20:  MOVLB  2
0BC22:  MOVF   x5C,W
0BC24:  MULLW  04
0BC26:  MOVF   FF3,W
0BC28:  CLRF   03
0BC2A:  ADDLW  CA
0BC2C:  MOVWF  FE9
0BC2E:  MOVLW  02
0BC30:  ADDWFC 03,W
0BC32:  MOVWF  FEA
0BC34:  MOVFF  FEF,6B0
0BC38:  MOVFF  FEC,6B1
0BC3C:  MOVFF  FEC,6B2
0BC40:  MOVFF  FEC,6B3
0BC44:  MOVLB  6
0BC46:  CLRF   xB7
0BC48:  CLRF   xB6
0BC4A:  MOVLW  16
0BC4C:  MOVWF  xB5
0BC4E:  MOVLW  86
0BC50:  MOVWF  xB4
0BC52:  MOVFF  6B3,6BB
0BC56:  MOVFF  6B2,6BA
0BC5A:  MOVFF  6B1,6B9
0BC5E:  MOVFF  6B0,6B8
0BC62:  MOVLB  0
0BC64:  CALL   25D6
0BC68:  BNC   BC88
....................                TCiclos[i]=0; 
0BC6A:  MOVLB  2
0BC6C:  MOVF   x5C,W
0BC6E:  MULLW  04
0BC70:  MOVF   FF3,W
0BC72:  CLRF   03
0BC74:  ADDLW  CA
0BC76:  MOVWF  FE9
0BC78:  MOVLW  02
0BC7A:  ADDWFC 03,W
0BC7C:  MOVWF  FEA
0BC7E:  CLRF   FEF
0BC80:  CLRF   FEC
0BC82:  CLRF   FEC
0BC84:  CLRF   FEC
0BC86:  MOVLB  0
....................             PcCiclos[i]=make16(read_ext_eeprom((cicloVisto*320)+7+((cicloVisualizado+i)*9)),read_ext_eeprom((cicloVisto*320)+8+((cicloVisualizado+i)*9))); 
0BC88:  BCF    FD8.0
0BC8A:  MOVLB  2
0BC8C:  RLCF   x5C,W
0BC8E:  CLRF   03
0BC90:  ADDLW  E6
0BC92:  MOVWF  01
0BC94:  MOVLW  02
0BC96:  ADDWFC 03,F
0BC98:  MOVFF  01,6B0
0BC9C:  MOVLB  6
0BC9E:  MOVFF  03,6B1
0BCA2:  CLRF   xBB
0BCA4:  MOVFF  2A0,6BA
0BCA8:  MOVLW  01
0BCAA:  MOVWF  xBD
0BCAC:  MOVLW  40
0BCAE:  MOVWF  xBC
0BCB0:  MOVLB  0
0BCB2:  CALL   23EC
0BCB6:  MOVFF  02,6B3
0BCBA:  MOVFF  01,6B2
0BCBE:  MOVLW  07
0BCC0:  MOVLB  6
0BCC2:  ADDWF  xB2,F
0BCC4:  MOVLW  00
0BCC6:  ADDWFC xB3,F
0BCC8:  MOVLB  2
0BCCA:  MOVF   x5C,W
0BCCC:  ADDWF  x9F,W
0BCCE:  MULLW  09
0BCD0:  MOVF   FF3,W
0BCD2:  MOVLB  6
0BCD4:  ADDWF  xB2,F
0BCD6:  MOVLW  00
0BCD8:  ADDWFC xB3,F
0BCDA:  MOVFF  6B3,6B6
0BCDE:  MOVFF  6B2,6B5
0BCE2:  MOVLB  0
0BCE4:  CALL   24EE
0BCE8:  MOVFF  01,6B2
0BCEC:  MOVLB  6
0BCEE:  CLRF   xBB
0BCF0:  MOVFF  2A0,6BA
0BCF4:  MOVLW  01
0BCF6:  MOVWF  xBD
0BCF8:  MOVLW  40
0BCFA:  MOVWF  xBC
0BCFC:  MOVLB  0
0BCFE:  CALL   23EC
0BD02:  MOVFF  02,6B4
0BD06:  MOVFF  01,6B3
0BD0A:  MOVLW  08
0BD0C:  MOVLB  6
0BD0E:  ADDWF  xB3,F
0BD10:  MOVLW  00
0BD12:  ADDWFC xB4,F
0BD14:  MOVLB  2
0BD16:  MOVF   x5C,W
0BD18:  ADDWF  x9F,W
0BD1A:  MULLW  09
0BD1C:  MOVF   FF3,W
0BD1E:  MOVLB  6
0BD20:  ADDWF  xB3,F
0BD22:  MOVLW  00
0BD24:  ADDWFC xB4,F
0BD26:  MOVFF  6B4,6B6
0BD2A:  MOVFF  6B3,6B5
0BD2E:  MOVLB  0
0BD30:  CALL   24EE
0BD34:  MOVFF  6B1,FEA
0BD38:  MOVFF  6B0,FE9
0BD3C:  MOVFF  6B2,FEC
0BD40:  MOVF   FED,F
0BD42:  MOVFF  01,FEF
....................             if(PcCiclos[i]>400) 
0BD46:  BCF    FD8.0
0BD48:  MOVLB  2
0BD4A:  RLCF   x5C,W
0BD4C:  CLRF   03
0BD4E:  ADDLW  E6
0BD50:  MOVWF  FE9
0BD52:  MOVLW  02
0BD54:  ADDWFC 03,W
0BD56:  MOVWF  FEA
0BD58:  MOVFF  FEC,6B1
0BD5C:  MOVF   FED,F
0BD5E:  MOVFF  FEF,6B0
0BD62:  MOVLB  6
0BD64:  MOVF   xB1,W
0BD66:  SUBLW  00
0BD68:  BC    BD8E
0BD6A:  XORLW  FF
0BD6C:  BNZ   BD74
0BD6E:  MOVF   xB0,W
0BD70:  SUBLW  90
0BD72:  BC    BD8E
....................                PcCiclos[i]=0; 
0BD74:  BCF    FD8.0
0BD76:  MOVLB  2
0BD78:  RLCF   x5C,W
0BD7A:  CLRF   03
0BD7C:  ADDLW  E6
0BD7E:  MOVWF  FE9
0BD80:  MOVLW  02
0BD82:  ADDWFC 03,W
0BD84:  MOVWF  FEA
0BD86:  CLRF   FEC
0BD88:  MOVF   FED,F
0BD8A:  CLRF   FEF
0BD8C:  MOVLB  6
....................             PpcCiclos[i]=make16(read_ext_eeprom((cicloVisto*320)+9+((cicloVisualizado+i)*9)),read_ext_eeprom((cicloVisto*320)+10+((cicloVisualizado+i)*9))); 
0BD8E:  BCF    FD8.0
0BD90:  MOVLB  2
0BD92:  RLCF   x5C,W
0BD94:  CLRF   03
0BD96:  ADDLW  F4
0BD98:  MOVWF  01
0BD9A:  MOVLW  02
0BD9C:  ADDWFC 03,F
0BD9E:  MOVFF  01,6B0
0BDA2:  MOVLB  6
0BDA4:  MOVFF  03,6B1
0BDA8:  CLRF   xBB
0BDAA:  MOVFF  2A0,6BA
0BDAE:  MOVLW  01
0BDB0:  MOVWF  xBD
0BDB2:  MOVLW  40
0BDB4:  MOVWF  xBC
0BDB6:  MOVLB  0
0BDB8:  CALL   23EC
0BDBC:  MOVFF  02,6B3
0BDC0:  MOVFF  01,6B2
0BDC4:  MOVLW  09
0BDC6:  MOVLB  6
0BDC8:  ADDWF  xB2,F
0BDCA:  MOVLW  00
0BDCC:  ADDWFC xB3,F
0BDCE:  MOVLB  2
0BDD0:  MOVF   x5C,W
0BDD2:  ADDWF  x9F,W
0BDD4:  MULLW  09
0BDD6:  MOVF   FF3,W
0BDD8:  MOVLB  6
0BDDA:  ADDWF  xB2,F
0BDDC:  MOVLW  00
0BDDE:  ADDWFC xB3,F
0BDE0:  MOVFF  6B3,6B6
0BDE4:  MOVFF  6B2,6B5
0BDE8:  MOVLB  0
0BDEA:  CALL   24EE
0BDEE:  MOVFF  01,6B2
0BDF2:  MOVLB  6
0BDF4:  CLRF   xBB
0BDF6:  MOVFF  2A0,6BA
0BDFA:  MOVLW  01
0BDFC:  MOVWF  xBD
0BDFE:  MOVLW  40
0BE00:  MOVWF  xBC
0BE02:  MOVLB  0
0BE04:  CALL   23EC
0BE08:  MOVFF  02,6B4
0BE0C:  MOVFF  01,6B3
0BE10:  MOVLW  0A
0BE12:  MOVLB  6
0BE14:  ADDWF  xB3,F
0BE16:  MOVLW  00
0BE18:  ADDWFC xB4,F
0BE1A:  MOVLB  2
0BE1C:  MOVF   x5C,W
0BE1E:  ADDWF  x9F,W
0BE20:  MULLW  09
0BE22:  MOVF   FF3,W
0BE24:  MOVLB  6
0BE26:  ADDWF  xB3,F
0BE28:  MOVLW  00
0BE2A:  ADDWFC xB4,F
0BE2C:  MOVFF  6B4,6B6
0BE30:  MOVFF  6B3,6B5
0BE34:  MOVLB  0
0BE36:  CALL   24EE
0BE3A:  MOVFF  6B1,FEA
0BE3E:  MOVFF  6B0,FE9
0BE42:  MOVFF  6B2,FEC
0BE46:  MOVF   FED,F
0BE48:  MOVFF  01,FEF
....................             if(PpcCiclos[i]>400) 
0BE4C:  BCF    FD8.0
0BE4E:  MOVLB  2
0BE50:  RLCF   x5C,W
0BE52:  CLRF   03
0BE54:  ADDLW  F4
0BE56:  MOVWF  FE9
0BE58:  MOVLW  02
0BE5A:  ADDWFC 03,W
0BE5C:  MOVWF  FEA
0BE5E:  MOVFF  FEC,6B1
0BE62:  MOVF   FED,F
0BE64:  MOVFF  FEF,6B0
0BE68:  MOVLB  6
0BE6A:  MOVF   xB1,W
0BE6C:  SUBLW  00
0BE6E:  BC    BE94
0BE70:  XORLW  FF
0BE72:  BNZ   BE7A
0BE74:  MOVF   xB0,W
0BE76:  SUBLW  90
0BE78:  BC    BE94
....................                PpcCiclos[i]=0; 
0BE7A:  BCF    FD8.0
0BE7C:  MOVLB  2
0BE7E:  RLCF   x5C,W
0BE80:  CLRF   03
0BE82:  ADDLW  F4
0BE84:  MOVWF  FE9
0BE86:  MOVLW  02
0BE88:  ADDWFC 03,W
0BE8A:  MOVWF  FEA
0BE8C:  CLRF   FEC
0BE8E:  MOVF   FED,F
0BE90:  CLRF   FEF
0BE92:  MOVLB  6
....................             ACiclos[i]=read_ext_eeprom((cicloVisto*320)+13+((cicloVisualizado+i)*9)); 
0BE94:  CLRF   03
0BE96:  MOVLB  2
0BE98:  MOVF   x5C,W
0BE9A:  ADDLW  10
0BE9C:  MOVWF  01
0BE9E:  MOVLW  03
0BEA0:  ADDWFC 03,F
0BEA2:  MOVFF  01,6B0
0BEA6:  MOVLB  6
0BEA8:  MOVFF  03,6B1
0BEAC:  CLRF   xBB
0BEAE:  MOVFF  2A0,6BA
0BEB2:  MOVLW  01
0BEB4:  MOVWF  xBD
0BEB6:  MOVLW  40
0BEB8:  MOVWF  xBC
0BEBA:  MOVLB  0
0BEBC:  CALL   23EC
0BEC0:  MOVFF  02,6B3
0BEC4:  MOVFF  01,6B2
0BEC8:  MOVLW  0D
0BECA:  MOVLB  6
0BECC:  ADDWF  xB2,F
0BECE:  MOVLW  00
0BED0:  ADDWFC xB3,F
0BED2:  MOVLB  2
0BED4:  MOVF   x5C,W
0BED6:  ADDWF  x9F,W
0BED8:  MULLW  09
0BEDA:  MOVF   FF3,W
0BEDC:  MOVLB  6
0BEDE:  ADDWF  xB2,F
0BEE0:  MOVLW  00
0BEE2:  ADDWFC xB3,F
0BEE4:  MOVFF  6B3,6B6
0BEE8:  MOVFF  6B2,6B5
0BEEC:  MOVLB  0
0BEEE:  CALL   24EE
0BEF2:  MOVFF  6B1,FEA
0BEF6:  MOVFF  6B0,FE9
0BEFA:  MOVFF  01,FEF
....................             if(ACiclos[i]>20) 
0BEFE:  CLRF   03
0BF00:  MOVLB  2
0BF02:  MOVF   x5C,W
0BF04:  ADDLW  10
0BF06:  MOVWF  FE9
0BF08:  MOVLW  03
0BF0A:  ADDWFC 03,W
0BF0C:  MOVWF  FEA
0BF0E:  MOVF   FEF,W
0BF10:  SUBLW  14
0BF12:  BC    BF24
....................                ACiclos[i]=0; 
0BF14:  CLRF   03
0BF16:  MOVF   x5C,W
0BF18:  ADDLW  10
0BF1A:  MOVWF  FE9
0BF1C:  MOVLW  03
0BF1E:  ADDWFC 03,W
0BF20:  MOVWF  FEA
0BF22:  CLRF   FEF
....................          } 
0BF24:  INCF   x5C,F
0BF26:  BRA    B9D8
0BF28:  MOVLB  0
....................       } 
....................        
....................       //Imprime Valores Estaticos 
....................       printf("fecha.txt=\"%02u/%02u/%02u\"",diaCiclos,mesCiclos,yearCiclos); 
0BF2A:  MOVLW  4A
0BF2C:  MOVWF  FF6
0BF2E:  MOVLW  13
0BF30:  MOVWF  FF7
0BF32:  MOVLW  00
0BF34:  MOVWF  FF8
0BF36:  MOVLW  0B
0BF38:  MOVLB  6
0BF3A:  MOVWF  xB5
0BF3C:  MOVLB  0
0BF3E:  CALL   5994
0BF42:  MOVFF  317,6B5
0BF46:  MOVLW  01
0BF48:  MOVLB  6
0BF4A:  MOVWF  xB6
0BF4C:  MOVLB  0
0BF4E:  CALL   5A18
0BF52:  MOVLW  2F
0BF54:  BTFSS  F9E.4
0BF56:  BRA    BF54
0BF58:  MOVWF  FAD
0BF5A:  MOVFF  318,6B5
0BF5E:  MOVLW  01
0BF60:  MOVLB  6
0BF62:  MOVWF  xB6
0BF64:  MOVLB  0
0BF66:  CALL   5A18
0BF6A:  MOVLW  2F
0BF6C:  BTFSS  F9E.4
0BF6E:  BRA    BF6C
0BF70:  MOVWF  FAD
0BF72:  MOVFF  319,6B5
0BF76:  MOVLW  01
0BF78:  MOVLB  6
0BF7A:  MOVWF  xB6
0BF7C:  MOVLB  0
0BF7E:  CALL   5A18
0BF82:  MOVLW  22
0BF84:  BTFSS  F9E.4
0BF86:  BRA    BF84
0BF88:  MOVWF  FAD
....................       SendDataDisplay(); 
0BF8A:  CALL   402C
....................        
....................       printf("ciclo.txt=\"%02u\"",cicloCiclos); 
0BF8E:  MOVLW  66
0BF90:  MOVWF  FF6
0BF92:  MOVLW  13
0BF94:  MOVWF  FF7
0BF96:  MOVLW  00
0BF98:  MOVWF  FF8
0BF9A:  MOVLW  0B
0BF9C:  MOVLB  6
0BF9E:  MOVWF  xB5
0BFA0:  MOVLB  0
0BFA2:  CALL   5994
0BFA6:  MOVFF  31B,6B5
0BFAA:  MOVLW  01
0BFAC:  MOVLB  6
0BFAE:  MOVWF  xB6
0BFB0:  MOVLB  0
0BFB2:  CALL   5A18
0BFB6:  MOVLW  22
0BFB8:  BTFSS  F9E.4
0BFBA:  BRA    BFB8
0BFBC:  MOVWF  FAD
....................       SendDataDisplay(); 
0BFBE:  CALL   402C
....................        
....................       printf("t0.txt=\"Ciclo %02u\"",cicloVisto+1); 
0BFC2:  MOVLW  01
0BFC4:  MOVLB  2
0BFC6:  ADDWF  xA0,W
0BFC8:  MOVLB  6
0BFCA:  MOVWF  xB0
0BFCC:  MOVLW  78
0BFCE:  MOVWF  FF6
0BFD0:  MOVLW  13
0BFD2:  MOVWF  FF7
0BFD4:  MOVLW  00
0BFD6:  MOVWF  FF8
0BFD8:  MOVLW  0E
0BFDA:  MOVWF  xB5
0BFDC:  MOVLB  0
0BFDE:  CALL   5994
0BFE2:  MOVFF  6B0,6B5
0BFE6:  MOVLW  01
0BFE8:  MOVLB  6
0BFEA:  MOVWF  xB6
0BFEC:  MOVLB  0
0BFEE:  CALL   5A18
0BFF2:  MOVLW  22
0BFF4:  BTFSS  F9E.4
0BFF6:  BRA    BFF4
0BFF8:  MOVWF  FAD
....................       SendDataDisplay(); 
0BFFA:  CALL   402C
....................        
....................       if(usuarioCiclos==0){ 
0BFFE:  MOVLB  3
0C000:  MOVF   x1A,F
0C002:  BNZ   C01E
....................          printf("usuario.txt=\"Admin\""); 
0C004:  MOVLW  8C
0C006:  MOVWF  FF6
0C008:  MOVLW  13
0C00A:  MOVWF  FF7
0C00C:  MOVLW  00
0C00E:  MOVWF  FF8
0C010:  MOVLB  0
0C012:  CALL   3FFA
....................          SendDataDisplay(); 
0C016:  CALL   402C
....................       }else if(usuarioCiclos>0 && usuarioCiclos<9){ 
0C01A:  BRA    C07C
0C01C:  MOVLB  3
0C01E:  MOVF   x1A,F
0C020:  BZ    C060
0C022:  MOVF   x1A,W
0C024:  SUBLW  08
0C026:  BNC   C060
....................          printf("usuario.txt=\"Operador%u\"",usuarioCiclos); 
0C028:  MOVLW  A0
0C02A:  MOVWF  FF6
0C02C:  MOVLW  13
0C02E:  MOVWF  FF7
0C030:  MOVLW  00
0C032:  MOVWF  FF8
0C034:  MOVLW  15
0C036:  MOVLB  6
0C038:  MOVWF  xB5
0C03A:  MOVLB  0
0C03C:  CALL   5994
0C040:  MOVFF  31A,6B5
0C044:  MOVLW  1B
0C046:  MOVLB  6
0C048:  MOVWF  xB6
0C04A:  MOVLB  0
0C04C:  CALL   5A18
0C050:  MOVLW  22
0C052:  BTFSS  F9E.4
0C054:  BRA    C052
0C056:  MOVWF  FAD
....................          SendDataDisplay(); 
0C058:  CALL   402C
....................       }else if(usuarioCiclos==9){ 
0C05C:  BRA    C07C
0C05E:  MOVLB  3
0C060:  MOVF   x1A,W
0C062:  SUBLW  09
0C064:  BNZ   C07C
....................          printf("usuario.txt=\"Tecnico\""); 
0C066:  MOVLW  BA
0C068:  MOVWF  FF6
0C06A:  MOVLW  13
0C06C:  MOVWF  FF7
0C06E:  MOVLW  00
0C070:  MOVWF  FF8
0C072:  MOVLB  0
0C074:  CALL   3FFA
....................          SendDataDisplay(); 
0C078:  CALL   402C
....................       } 
....................        
....................       //Imprime Valores Dinamicos 
....................       for(i=0;i<7;i++){ 
0C07C:  MOVLB  2
0C07E:  CLRF   x5C
0C080:  MOVF   x5C,W
0C082:  SUBLW  06
0C084:  BTFSS  FD8.0
0C086:  BRA    C31E
....................          printf("hora%u.txt=\"%02u.  %02u:%02u\"",i+1,cicloVisualizado+i+1,horaCiclos[i],minutoCiclos[i]); 
0C088:  MOVLW  01
0C08A:  ADDWF  x5C,W
0C08C:  MOVLB  6
0C08E:  MOVWF  xB0
0C090:  MOVLB  2
0C092:  MOVF   x5C,W
0C094:  ADDWF  x9F,W
0C096:  ADDLW  01
0C098:  MOVLB  6
0C09A:  MOVWF  xB1
0C09C:  CLRF   03
0C09E:  MOVLB  2
0C0A0:  MOVF   x5C,W
0C0A2:  ADDLW  02
0C0A4:  MOVWF  FE9
0C0A6:  MOVLW  03
0C0A8:  ADDWFC 03,W
0C0AA:  MOVWF  FEA
0C0AC:  MOVFF  FEF,6B2
0C0B0:  CLRF   03
0C0B2:  MOVF   x5C,W
0C0B4:  ADDLW  09
0C0B6:  MOVWF  FE9
0C0B8:  MOVLW  03
0C0BA:  ADDWFC 03,W
0C0BC:  MOVWF  FEA
0C0BE:  MOVFF  FEF,6B3
0C0C2:  MOVLW  D0
0C0C4:  MOVWF  FF6
0C0C6:  MOVLW  13
0C0C8:  MOVWF  FF7
0C0CA:  MOVLW  00
0C0CC:  MOVWF  FF8
0C0CE:  MOVLW  04
0C0D0:  MOVLB  6
0C0D2:  MOVWF  xB5
0C0D4:  MOVLB  0
0C0D6:  CALL   5994
0C0DA:  MOVFF  6B0,6B5
0C0DE:  MOVLW  1B
0C0E0:  MOVLB  6
0C0E2:  MOVWF  xB6
0C0E4:  MOVLB  0
0C0E6:  CALL   5A18
0C0EA:  MOVLW  D6
0C0EC:  MOVWF  FF6
0C0EE:  MOVLW  13
0C0F0:  MOVWF  FF7
0C0F2:  MOVLW  00
0C0F4:  MOVWF  FF8
0C0F6:  MOVLW  06
0C0F8:  MOVLB  6
0C0FA:  MOVWF  xB5
0C0FC:  MOVLB  0
0C0FE:  CALL   5994
0C102:  MOVFF  6B1,6B5
0C106:  MOVLW  01
0C108:  MOVLB  6
0C10A:  MOVWF  xB6
0C10C:  MOVLB  0
0C10E:  CALL   5A18
0C112:  MOVLW  2E
0C114:  BTFSS  F9E.4
0C116:  BRA    C114
0C118:  MOVWF  FAD
0C11A:  MOVLW  20
0C11C:  BTFSS  F9E.4
0C11E:  BRA    C11C
0C120:  MOVWF  FAD
0C122:  MOVLW  20
0C124:  BTFSS  F9E.4
0C126:  BRA    C124
0C128:  MOVWF  FAD
0C12A:  MOVFF  6B2,6B5
0C12E:  MOVLW  01
0C130:  MOVLB  6
0C132:  MOVWF  xB6
0C134:  MOVLB  0
0C136:  CALL   5A18
0C13A:  MOVLW  3A
0C13C:  BTFSS  F9E.4
0C13E:  BRA    C13C
0C140:  MOVWF  FAD
0C142:  MOVFF  6B3,6B5
0C146:  MOVLW  01
0C148:  MOVLB  6
0C14A:  MOVWF  xB6
0C14C:  MOVLB  0
0C14E:  CALL   5A18
0C152:  MOVLW  22
0C154:  BTFSS  F9E.4
0C156:  BRA    C154
0C158:  MOVWF  FAD
....................          SendDataDisplay(); 
0C15A:  CALL   402C
....................          printf("T%u.txt=\"%3.1fC\"",i+1,TCiclos[i]); 
0C15E:  MOVLW  01
0C160:  MOVLB  2
0C162:  ADDWF  x5C,W
0C164:  MOVLB  6
0C166:  MOVWF  xB0
0C168:  MOVLB  2
0C16A:  MOVF   x5C,W
0C16C:  MULLW  04
0C16E:  MOVF   FF3,W
0C170:  CLRF   03
0C172:  ADDLW  CA
0C174:  MOVWF  FE9
0C176:  MOVLW  02
0C178:  ADDWFC 03,W
0C17A:  MOVWF  FEA
0C17C:  MOVFF  FEF,6B1
0C180:  MOVFF  FEC,6B2
0C184:  MOVFF  FEC,6B3
0C188:  MOVFF  FEC,6B4
0C18C:  MOVLW  54
0C18E:  BTFSS  F9E.4
0C190:  BRA    C18E
0C192:  MOVWF  FAD
0C194:  MOVFF  6B0,6B5
0C198:  MOVLW  1B
0C19A:  MOVLB  6
0C19C:  MOVWF  xB6
0C19E:  MOVLB  0
0C1A0:  CALL   5A18
0C1A4:  MOVLW  F1
0C1A6:  MOVWF  FF6
0C1A8:  MOVLW  13
0C1AA:  MOVWF  FF7
0C1AC:  MOVLW  00
0C1AE:  MOVWF  FF8
0C1B0:  MOVLW  06
0C1B2:  MOVLB  6
0C1B4:  MOVWF  xB5
0C1B6:  MOVLB  0
0C1B8:  CALL   5994
0C1BC:  MOVLW  02
0C1BE:  MOVWF  FE9
0C1C0:  MOVFF  6B4,6B8
0C1C4:  MOVFF  6B3,6B7
0C1C8:  MOVFF  6B2,6B6
0C1CC:  MOVFF  6B1,6B5
0C1D0:  MOVLW  01
0C1D2:  MOVLB  6
0C1D4:  MOVWF  xB9
0C1D6:  MOVLB  0
0C1D8:  CALL   5C7E
0C1DC:  MOVLW  B0
0C1DE:  BTFSS  F9E.4
0C1E0:  BRA    C1DE
0C1E2:  MOVWF  FAD
0C1E4:  MOVLW  43
0C1E6:  BTFSS  F9E.4
0C1E8:  BRA    C1E6
0C1EA:  MOVWF  FAD
0C1EC:  MOVLW  22
0C1EE:  BTFSS  F9E.4
0C1F0:  BRA    C1EE
0C1F2:  MOVWF  FAD
....................          SendDataDisplay(); 
0C1F4:  CALL   402C
....................          printf("Pc%u.txt=\"%03LukPa\"",i+1,PcCiclos[i]); 
0C1F8:  MOVLW  01
0C1FA:  MOVLB  2
0C1FC:  ADDWF  x5C,W
0C1FE:  MOVLB  6
0C200:  MOVWF  xB0
0C202:  BCF    FD8.0
0C204:  MOVLB  2
0C206:  RLCF   x5C,W
0C208:  CLRF   03
0C20A:  ADDLW  E6
0C20C:  MOVWF  FE9
0C20E:  MOVLW  02
0C210:  ADDWFC 03,W
0C212:  MOVWF  FEA
0C214:  MOVFF  FEC,6B2
0C218:  MOVF   FED,F
0C21A:  MOVFF  FEF,6B1
0C21E:  MOVLW  50
0C220:  BTFSS  F9E.4
0C222:  BRA    C220
0C224:  MOVWF  FAD
0C226:  MOVLW  63
0C228:  BTFSS  F9E.4
0C22A:  BRA    C228
0C22C:  MOVWF  FAD
0C22E:  MOVFF  6B0,6B5
0C232:  MOVLW  1B
0C234:  MOVLB  6
0C236:  MOVWF  xB6
0C238:  MOVLB  0
0C23A:  CALL   5A18
0C23E:  MOVLW  04
0C240:  MOVWF  FF6
0C242:  MOVLW  14
0C244:  MOVWF  FF7
0C246:  MOVLW  00
0C248:  MOVWF  FF8
0C24A:  MOVLW  06
0C24C:  MOVLB  6
0C24E:  MOVWF  xB5
0C250:  MOVLB  0
0C252:  CALL   5994
0C256:  MOVLW  0A
0C258:  MOVWF  FE9
0C25A:  MOVFF  6B2,6B5
0C25E:  MOVFF  6B1,6B4
0C262:  CALL   5B10
0C266:  MOVLW  0F
0C268:  MOVWF  FF6
0C26A:  MOVLW  14
0C26C:  MOVWF  FF7
0C26E:  MOVLW  00
0C270:  MOVWF  FF8
0C272:  MOVLW  04
0C274:  MOVLB  6
0C276:  MOVWF  xB5
0C278:  MOVLB  0
0C27A:  CALL   5994
....................          SendDataDisplay(); 
0C27E:  CALL   402C
....................          printf("Ppc%u.txt=\"%03LukPa\"",i+1,PpcCiclos[i]); 
0C282:  MOVLW  01
0C284:  MOVLB  2
0C286:  ADDWF  x5C,W
0C288:  MOVLB  6
0C28A:  MOVWF  xB0
0C28C:  BCF    FD8.0
0C28E:  MOVLB  2
0C290:  RLCF   x5C,W
0C292:  CLRF   03
0C294:  ADDLW  F4
0C296:  MOVWF  FE9
0C298:  MOVLW  02
0C29A:  ADDWFC 03,W
0C29C:  MOVWF  FEA
0C29E:  MOVFF  FEC,6B2
0C2A2:  MOVF   FED,F
0C2A4:  MOVFF  FEF,6B1
0C2A8:  MOVLW  50
0C2AA:  BTFSS  F9E.4
0C2AC:  BRA    C2AA
0C2AE:  MOVWF  FAD
0C2B0:  MOVLW  70
0C2B2:  BTFSS  F9E.4
0C2B4:  BRA    C2B2
0C2B6:  MOVWF  FAD
0C2B8:  MOVLW  63
0C2BA:  BTFSS  F9E.4
0C2BC:  BRA    C2BA
0C2BE:  MOVWF  FAD
0C2C0:  MOVFF  6B0,6B5
0C2C4:  MOVLW  1B
0C2C6:  MOVLB  6
0C2C8:  MOVWF  xB6
0C2CA:  MOVLB  0
0C2CC:  CALL   5A18
0C2D0:  MOVLW  19
0C2D2:  MOVWF  FF6
0C2D4:  MOVLW  14
0C2D6:  MOVWF  FF7
0C2D8:  MOVLW  00
0C2DA:  MOVWF  FF8
0C2DC:  MOVLW  06
0C2DE:  MOVLB  6
0C2E0:  MOVWF  xB5
0C2E2:  MOVLB  0
0C2E4:  CALL   5994
0C2E8:  MOVLW  0A
0C2EA:  MOVWF  FE9
0C2EC:  MOVFF  6B2,6B5
0C2F0:  MOVFF  6B1,6B4
0C2F4:  CALL   5B10
0C2F8:  MOVLW  24
0C2FA:  MOVWF  FF6
0C2FC:  MOVLW  14
0C2FE:  MOVWF  FF7
0C300:  MOVLW  00
0C302:  MOVWF  FF8
0C304:  MOVLW  04
0C306:  MOVLB  6
0C308:  MOVWF  xB5
0C30A:  MOVLB  0
0C30C:  CALL   5994
....................          SendDataDisplay();          
0C310:  CALL   402C
....................          codificaAlarma(); 
0C314:  GOTO   63DE
....................       }   
0C318:  MOVLB  2
0C31A:  INCF   x5C,F
0C31C:  BRA    C080
....................    } 
.................... //_--------------------------------------------------------------------------------------------------------------------------------------------------------       
....................  
.................... //_--------------------------------------------------------------------------------------------------------------------------------------------------------       
....................     if(Menu==13){//Menu de Nivel de Desfogue 
0C31E:  MOVF   x59,W
0C320:  SUBLW  0D
0C322:  BTFSS  FD8.2
0C324:  BRA    C4FC
....................       printf("fecha.txt=\"Fecha:%02u/%02u/20%02u    Hora: %02u:%02u:%02u\"",Dia,Mes,Year,Hora,Minuto,Segundo); 
0C326:  MOVLW  2A
0C328:  MOVWF  FF6
0C32A:  MOVLW  14
0C32C:  MOVWF  FF7
0C32E:  MOVLW  00
0C330:  MOVWF  FF8
0C332:  MOVLW  11
0C334:  MOVLB  6
0C336:  MOVWF  xB5
0C338:  MOVLB  0
0C33A:  CALL   5994
0C33E:  MOVFF  29A,6B5
0C342:  MOVLW  01
0C344:  MOVLB  6
0C346:  MOVWF  xB6
0C348:  MOVLB  0
0C34A:  CALL   5A18
0C34E:  MOVLW  2F
0C350:  BTFSS  F9E.4
0C352:  BRA    C350
0C354:  MOVWF  FAD
0C356:  MOVFF  299,6B5
0C35A:  MOVLW  01
0C35C:  MOVLB  6
0C35E:  MOVWF  xB6
0C360:  MOVLB  0
0C362:  CALL   5A18
0C366:  MOVLW  2F
0C368:  BTFSS  F9E.4
0C36A:  BRA    C368
0C36C:  MOVWF  FAD
0C36E:  MOVLW  32
0C370:  BTFSS  F9E.4
0C372:  BRA    C370
0C374:  MOVWF  FAD
0C376:  MOVLW  30
0C378:  BTFSS  F9E.4
0C37A:  BRA    C378
0C37C:  MOVWF  FAD
0C37E:  MOVFF  298,6B5
0C382:  MOVLW  01
0C384:  MOVLB  6
0C386:  MOVWF  xB6
0C388:  MOVLB  0
0C38A:  CALL   5A18
0C38E:  MOVLW  4B
0C390:  MOVWF  FF6
0C392:  MOVLW  14
0C394:  MOVWF  FF7
0C396:  MOVLW  00
0C398:  MOVWF  FF8
0C39A:  MOVLW  0A
0C39C:  MOVLB  6
0C39E:  MOVWF  xB5
0C3A0:  MOVLB  0
0C3A2:  CALL   5994
0C3A6:  MOVFF  29B,6B5
0C3AA:  MOVLW  01
0C3AC:  MOVLB  6
0C3AE:  MOVWF  xB6
0C3B0:  MOVLB  0
0C3B2:  CALL   5A18
0C3B6:  MOVLW  3A
0C3B8:  BTFSS  F9E.4
0C3BA:  BRA    C3B8
0C3BC:  MOVWF  FAD
0C3BE:  MOVFF  29C,6B5
0C3C2:  MOVLW  01
0C3C4:  MOVLB  6
0C3C6:  MOVWF  xB6
0C3C8:  MOVLB  0
0C3CA:  CALL   5A18
0C3CE:  MOVLW  3A
0C3D0:  BTFSS  F9E.4
0C3D2:  BRA    C3D0
0C3D4:  MOVWF  FAD
0C3D6:  MOVFF  29D,6B5
0C3DA:  MOVLW  01
0C3DC:  MOVLB  6
0C3DE:  MOVWF  xB6
0C3E0:  MOVLB  0
0C3E2:  CALL   5A18
0C3E6:  MOVLW  22
0C3E8:  BTFSS  F9E.4
0C3EA:  BRA    C3E8
0C3EC:  MOVWF  FAD
....................       SendDataDisplay(); 
0C3EE:  CALL   402C
....................          if(NivelDes<1) 
0C3F2:  MOVLB  2
0C3F4:  MOVF   x8D,F
0C3F6:  BNZ   C3FC
....................             NivelDes=6; 
0C3F8:  MOVLW  06
0C3FA:  MOVWF  x8D
....................          if(NivelDes>6) 
0C3FC:  MOVF   x8D,W
0C3FE:  SUBLW  06
0C400:  BC    C406
....................             NivelDes=1; 
0C402:  MOVLW  01
0C404:  MOVWF  x8D
....................           
....................          if(RX_Buffer[4]==0x11){//Selecciono Regresar 
0C406:  MOVF   34,W
0C408:  SUBLW  11
0C40A:  BNZ   C4AE
....................             Segundos=OFF; 
0C40C:  MOVLB  0
0C40E:  BCF    xFF.7
....................             Minutos=OFF;             
0C410:  BCF    xFF.6
....................             tiempo_secado=0; 
0C412:  MOVLB  2
0C414:  CLRF   x6B
....................             printf("page CicloPersona"); 
0C416:  MOVLW  66
0C418:  MOVWF  FF6
0C41A:  MOVLW  14
0C41C:  MOVWF  FF7
0C41E:  MOVLW  00
0C420:  MOVWF  FF8
0C422:  MOVLB  0
0C424:  CALL   3FFA
....................             SendDataDisplay();   
0C428:  CALL   402C
....................             if(!GuardaEEPROM){     
0C42C:  MOVLB  1
0C42E:  BTFSC  x00.0
0C430:  BRA    C4AC
....................                CiclosPersonalizados[CicloLibre-1].NivelDesfogue=NivelDes; 
0C432:  MOVLW  01
0C434:  MOVLB  2
0C436:  SUBWF  x4F,W
0C438:  MULLW  08
0C43A:  MOVF   FF3,W
0C43C:  MOVLB  6
0C43E:  CLRF   xB1
0C440:  MOVWF  xB0
0C442:  MOVLW  07
0C444:  ADDWF  xB0,W
0C446:  MOVWF  01
0C448:  MOVLW  00
0C44A:  ADDWFC xB1,W
0C44C:  MOVWF  03
0C44E:  MOVF   01,W
0C450:  ADDLW  E8
0C452:  MOVWF  FE9
0C454:  MOVLW  05
0C456:  ADDWFC 03,W
0C458:  MOVWF  FEA
0C45A:  MOVFF  28D,FEF
....................                write_eeprom(107+((CicloLibre-1)*8),NivelDes); 
0C45E:  MOVLW  01
0C460:  MOVLB  2
0C462:  SUBWF  x4F,W
0C464:  MULLW  08
0C466:  MOVF   FF3,W
0C468:  ADDLW  6B
0C46A:  MOVLB  6
0C46C:  MOVWF  xB0
0C46E:  CLRF   FAA
0C470:  MOVFF  6B0,FA9
0C474:  MOVFF  28D,FA8
0C478:  BCF    FA6.6
0C47A:  BCF    FA6.7
0C47C:  BSF    FA6.2
0C47E:  MOVF   FF2,W
0C480:  MOVWF  00
0C482:  BCF    FF2.6
0C484:  BCF    FF2.7
0C486:  MOVLB  F
0C488:  MOVLW  55
0C48A:  MOVWF  FA7
0C48C:  MOVLW  AA
0C48E:  MOVWF  FA7
0C490:  BSF    FA6.1
0C492:  BTFSC  FA6.1
0C494:  BRA    C492
0C496:  BCF    FA6.2
0C498:  MOVF   00,W
0C49A:  IORWF  FF2,F
....................                delay_ms(20);             
0C49C:  MOVLW  14
0C49E:  MOVLB  6
0C4A0:  MOVWF  xC2
0C4A2:  MOVLB  0
0C4A4:  CALL   1F7A
....................                GuardaEEPROM=ON; 
0C4A8:  MOVLB  1
0C4AA:  BSF    x00.0
0C4AC:  MOVLB  2
....................             } 
....................          } 
....................           
....................          if(RX_Buffer[4]==0x0d){//Tecla Arriba Oprimida 
0C4AE:  MOVF   34,W
0C4B0:  SUBLW  0D
0C4B2:  BNZ   C4BA
....................             NivelDes++; 
0C4B4:  INCF   x8D,F
....................             RX_Buffer[4]=0x00;             
0C4B6:  CLRF   34
....................             RX_Buffer2[4]=0x00;                        
0C4B8:  CLRF   3F
....................          } 
....................           
....................          if(RX_Buffer[4]==0x0c){//Tecla Abajo Oprimida 
0C4BA:  MOVF   34,W
0C4BC:  SUBLW  0C
0C4BE:  BNZ   C4C6
....................             NivelDes--; 
0C4C0:  DECF   x8D,F
....................             RX_Buffer[4]=0x00; 
0C4C2:  CLRF   34
....................             RX_Buffer2[4]=0x00;                         
0C4C4:  CLRF   3F
....................          } 
....................           
....................       printf("tnivel.txt=\"%u\"",NivelDes); 
0C4C6:  MOVLW  78
0C4C8:  MOVWF  FF6
0C4CA:  MOVLW  14
0C4CC:  MOVWF  FF7
0C4CE:  MOVLW  00
0C4D0:  MOVWF  FF8
0C4D2:  MOVLW  0C
0C4D4:  MOVLB  6
0C4D6:  MOVWF  xB5
0C4D8:  MOVLB  0
0C4DA:  CALL   5994
0C4DE:  MOVFF  28D,6B5
0C4E2:  MOVLW  1B
0C4E4:  MOVLB  6
0C4E6:  MOVWF  xB6
0C4E8:  MOVLB  0
0C4EA:  CALL   5A18
0C4EE:  MOVLW  22
0C4F0:  BTFSS  F9E.4
0C4F2:  BRA    C4F0
0C4F4:  MOVWF  FAD
....................       SendDataDisplay(); 
0C4F6:  CALL   402C
0C4FA:  MOVLB  2
....................    } 
.................... //_--------------------------------------------------------------------------------------------------------------------------------------------------------       
....................  
.................... //_--------------------------------------------------------------------------------------------------------------------------------------------------------       
....................     if(Menu==14){//Menu de Activacion de Ciclos 
0C4FC:  MOVF   x59,W
0C4FE:  SUBLW  0E
0C500:  BTFSS  FD8.2
0C502:  BRA    C72C
....................       printf("fecha.txt=\"Fecha:%02u/%02u/20%02u    Hora: %02u:%02u:%02u\"",Dia,Mes,Year,Hora,Minuto,Segundo); 
0C504:  MOVLW  88
0C506:  MOVWF  FF6
0C508:  MOVLW  14
0C50A:  MOVWF  FF7
0C50C:  MOVLW  00
0C50E:  MOVWF  FF8
0C510:  MOVLW  11
0C512:  MOVLB  6
0C514:  MOVWF  xB5
0C516:  MOVLB  0
0C518:  CALL   5994
0C51C:  MOVFF  29A,6B5
0C520:  MOVLW  01
0C522:  MOVLB  6
0C524:  MOVWF  xB6
0C526:  MOVLB  0
0C528:  CALL   5A18
0C52C:  MOVLW  2F
0C52E:  BTFSS  F9E.4
0C530:  BRA    C52E
0C532:  MOVWF  FAD
0C534:  MOVFF  299,6B5
0C538:  MOVLW  01
0C53A:  MOVLB  6
0C53C:  MOVWF  xB6
0C53E:  MOVLB  0
0C540:  CALL   5A18
0C544:  MOVLW  2F
0C546:  BTFSS  F9E.4
0C548:  BRA    C546
0C54A:  MOVWF  FAD
0C54C:  MOVLW  32
0C54E:  BTFSS  F9E.4
0C550:  BRA    C54E
0C552:  MOVWF  FAD
0C554:  MOVLW  30
0C556:  BTFSS  F9E.4
0C558:  BRA    C556
0C55A:  MOVWF  FAD
0C55C:  MOVFF  298,6B5
0C560:  MOVLW  01
0C562:  MOVLB  6
0C564:  MOVWF  xB6
0C566:  MOVLB  0
0C568:  CALL   5A18
0C56C:  MOVLW  A9
0C56E:  MOVWF  FF6
0C570:  MOVLW  14
0C572:  MOVWF  FF7
0C574:  MOVLW  00
0C576:  MOVWF  FF8
0C578:  MOVLW  0A
0C57A:  MOVLB  6
0C57C:  MOVWF  xB5
0C57E:  MOVLB  0
0C580:  CALL   5994
0C584:  MOVFF  29B,6B5
0C588:  MOVLW  01
0C58A:  MOVLB  6
0C58C:  MOVWF  xB6
0C58E:  MOVLB  0
0C590:  CALL   5A18
0C594:  MOVLW  3A
0C596:  BTFSS  F9E.4
0C598:  BRA    C596
0C59A:  MOVWF  FAD
0C59C:  MOVFF  29C,6B5
0C5A0:  MOVLW  01
0C5A2:  MOVLB  6
0C5A4:  MOVWF  xB6
0C5A6:  MOVLB  0
0C5A8:  CALL   5A18
0C5AC:  MOVLW  3A
0C5AE:  BTFSS  F9E.4
0C5B0:  BRA    C5AE
0C5B2:  MOVWF  FAD
0C5B4:  MOVFF  29D,6B5
0C5B8:  MOVLW  01
0C5BA:  MOVLB  6
0C5BC:  MOVWF  xB6
0C5BE:  MOVLB  0
0C5C0:  CALL   5A18
0C5C4:  MOVLW  22
0C5C6:  BTFSS  F9E.4
0C5C8:  BRA    C5C6
0C5CA:  MOVWF  FAD
....................       SendDataDisplay(); 
0C5CC:  CALL   402C
....................        
....................       if(RX_Buffer[4]==0xaa){ 
0C5D0:  MOVF   34,W
0C5D2:  SUBLW  AA
0C5D4:  BNZ   C65E
....................          for(i=0;i<30;i++){ 
0C5D6:  MOVLB  2
0C5D8:  CLRF   x5C
0C5DA:  MOVF   x5C,W
0C5DC:  SUBLW  1D
0C5DE:  BNC   C644
....................             write_eeprom(50+i,estados[i]); 
0C5E0:  MOVLW  32
0C5E2:  ADDWF  x5C,W
0C5E4:  MOVLB  6
0C5E6:  MOVWF  xB0
0C5E8:  MOVFF  25C,6B1
0C5EC:  MOVLW  03
0C5EE:  MOVWF  xB3
0C5F0:  MOVLW  1C
0C5F2:  MOVWF  xB2
0C5F4:  MOVLB  0
0C5F6:  CALL   23BA
0C5FA:  MOVLW  00
0C5FC:  BTFSC  01.0
0C5FE:  MOVLW  01
0C600:  MOVLB  6
0C602:  MOVWF  xB1
0C604:  CLRF   FAA
0C606:  MOVFF  6B0,FA9
0C60A:  MOVFF  6B1,FA8
0C60E:  BCF    FA6.6
0C610:  BCF    FA6.7
0C612:  BSF    FA6.2
0C614:  MOVF   FF2,W
0C616:  MOVWF  00
0C618:  BCF    FF2.6
0C61A:  BCF    FF2.7
0C61C:  MOVLB  F
0C61E:  MOVLW  55
0C620:  MOVWF  FA7
0C622:  MOVLW  AA
0C624:  MOVWF  FA7
0C626:  BSF    FA6.1
0C628:  BTFSC  FA6.1
0C62A:  BRA    C628
0C62C:  BCF    FA6.2
0C62E:  MOVF   00,W
0C630:  IORWF  FF2,F
....................             delay_ms(10); 
0C632:  MOVLW  0A
0C634:  MOVLB  6
0C636:  MOVWF  xC2
0C638:  MOVLB  0
0C63A:  CALL   1F7A
....................          } 
0C63E:  MOVLB  2
0C640:  INCF   x5C,F
0C642:  BRA    C5DA
....................          printf("page Ajustes"); 
0C644:  MOVLW  C4
0C646:  MOVWF  FF6
0C648:  MOVLW  14
0C64A:  MOVWF  FF7
0C64C:  MOVLW  00
0C64E:  MOVWF  FF8
0C650:  MOVLB  0
0C652:  CALL   3FFA
....................          SendDataDisplay();  
0C656:  CALL   402C
....................          RX_Buffer[4]=0x00; 
0C65A:  CLRF   34
....................          RX_Buffer2[4]=0x00; 
0C65C:  CLRF   3F
....................       } 
....................        
....................       for(i=0;i<30;i++){ 
0C65E:  MOVLB  2
0C660:  CLRF   x5C
0C662:  MOVF   x5C,W
0C664:  SUBLW  1D
0C666:  BNC   C72C
....................          if(RX_Buffer[4]==i+1){ 
0C668:  MOVLW  01
0C66A:  ADDWF  x5C,W
0C66C:  SUBWF  34,W
0C66E:  BNZ   C6A4
....................             estados[i]=!estados[i]; 
0C670:  MOVFF  25C,6B1
0C674:  MOVLW  03
0C676:  MOVLB  6
0C678:  MOVWF  xB3
0C67A:  MOVLW  1C
0C67C:  MOVWF  xB2
0C67E:  MOVLB  0
0C680:  CALL   23BA
0C684:  MOVLW  00
0C686:  BTFSS  01.0
0C688:  MOVLW  01
0C68A:  MOVFF  25C,6B2
0C68E:  MOVLB  6
0C690:  MOVWF  xB3
0C692:  MOVLW  03
0C694:  MOVWF  xB5
0C696:  MOVLW  1C
0C698:  MOVWF  xB4
0C69A:  MOVLB  0
0C69C:  CALL   2378
....................             RX_Buffer[4]=0x00; 
0C6A0:  CLRF   34
....................             RX_Buffer2[4]=0x00; 
0C6A2:  CLRF   3F
....................          } 
....................           
....................          if(estados[i]){ 
0C6A4:  MOVFF  25C,6B1
0C6A8:  MOVLW  03
0C6AA:  MOVLB  6
0C6AC:  MOVWF  xB3
0C6AE:  MOVLW  1C
0C6B0:  MOVWF  xB2
0C6B2:  MOVLB  0
0C6B4:  CALL   23BA
0C6B8:  BTFSS  01.0
0C6BA:  BRA    C6F2
....................             printf("b%u.bco=2016",i); 
0C6BC:  MOVLW  62
0C6BE:  BTFSS  F9E.4
0C6C0:  BRA    C6BE
0C6C2:  MOVWF  FAD
0C6C4:  MOVFF  25C,6B5
0C6C8:  MOVLW  1B
0C6CA:  MOVLB  6
0C6CC:  MOVWF  xB6
0C6CE:  MOVLB  0
0C6D0:  CALL   5A18
0C6D4:  MOVLW  D5
0C6D6:  MOVWF  FF6
0C6D8:  MOVLW  14
0C6DA:  MOVWF  FF7
0C6DC:  MOVLW  00
0C6DE:  MOVWF  FF8
0C6E0:  MOVLW  09
0C6E2:  MOVLB  6
0C6E4:  MOVWF  xB5
0C6E6:  MOVLB  0
0C6E8:  CALL   5994
....................             SendDataDisplay();              
0C6EC:  CALL   402C
....................          }else{ 
0C6F0:  BRA    C726
....................             printf("b%u.bco=63488",i); 
0C6F2:  MOVLW  62
0C6F4:  BTFSS  F9E.4
0C6F6:  BRA    C6F4
0C6F8:  MOVWF  FAD
0C6FA:  MOVFF  25C,6B5
0C6FE:  MOVLW  1B
0C700:  MOVLB  6
0C702:  MOVWF  xB6
0C704:  MOVLB  0
0C706:  CALL   5A18
0C70A:  MOVLW  E3
0C70C:  MOVWF  FF6
0C70E:  MOVLW  14
0C710:  MOVWF  FF7
0C712:  MOVLW  00
0C714:  MOVWF  FF8
0C716:  MOVLW  0A
0C718:  MOVLB  6
0C71A:  MOVWF  xB5
0C71C:  MOVLB  0
0C71E:  CALL   5994
....................             SendDataDisplay();  
0C722:  CALL   402C
....................          } 
....................       } 
0C726:  MOVLB  2
0C728:  INCF   x5C,F
0C72A:  BRA    C662
....................    } 
.................... //_--------------------------------------------------------------------------------------------------------------------------------------------------------       
....................  
.................... //_--------------------------------------------------------------------------------------------------------------------------------------------------------       
....................     if(Menu==15){//Menu de Clave Correcta 
0C72C:  MOVF   x59,W
0C72E:  SUBLW  0F
0C730:  BNZ   C76A
....................       if(!entro){ 
0C732:  MOVLB  1
0C734:  BTFSC  x03.4
0C736:  BRA    C752
....................          delay_ms(2000); 
0C738:  MOVLW  08
0C73A:  MOVLB  6
0C73C:  MOVWF  xB0
0C73E:  MOVLW  FA
0C740:  MOVWF  xC2
0C742:  MOVLB  0
0C744:  CALL   1F7A
0C748:  MOVLB  6
0C74A:  DECFSZ xB0,F
0C74C:  BRA    C73E
....................          entro=ON; 
0C74E:  MOVLB  1
0C750:  BSF    x03.4
....................       } 
....................       printf("page Menu"); 
0C752:  MOVLW  EE
0C754:  MOVWF  FF6
0C756:  MOVLW  14
0C758:  MOVWF  FF7
0C75A:  MOVLW  00
0C75C:  MOVWF  FF8
0C75E:  MOVLB  0
0C760:  CALL   3FFA
....................       SendDataDisplay(); 
0C764:  CALL   402C
0C768:  MOVLB  2
....................    } 
.................... //_--------------------------------------------------------------------------------------------------------------------------------------------------------       
....................  
.................... //_--------------------------------------------------------------------------------------------------------------------------------------------------------       
....................     if(Menu==16){//Menu de Clave InCorrecta 
0C76A:  MOVF   x59,W
0C76C:  SUBLW  10
0C76E:  BNZ   C7A8
....................       if(!entro){ 
0C770:  MOVLB  1
0C772:  BTFSC  x03.4
0C774:  BRA    C790
....................          delay_ms(2000); 
0C776:  MOVLW  08
0C778:  MOVLB  6
0C77A:  MOVWF  xB0
0C77C:  MOVLW  FA
0C77E:  MOVWF  xC2
0C780:  MOVLB  0
0C782:  CALL   1F7A
0C786:  MOVLB  6
0C788:  DECFSZ xB0,F
0C78A:  BRA    C77C
....................          entro=ON; 
0C78C:  MOVLB  1
0C78E:  BSF    x03.4
....................       } 
....................       printf("page Clave"); 
0C790:  MOVLW  F8
0C792:  MOVWF  FF6
0C794:  MOVLW  14
0C796:  MOVWF  FF7
0C798:  MOVLW  00
0C79A:  MOVWF  FF8
0C79C:  MOVLB  0
0C79E:  CALL   3FFA
....................       SendDataDisplay(); 
0C7A2:  CALL   402C
0C7A6:  MOVLB  2
....................    } 
.................... //_--------------------------------------------------------------------------------------------------------------------------------------------------------       
....................  
.................... //_--------------------------------------------------------------------------------------------------------------------------------------------------------     
....................    if(Menu==20){ // Este es el menu de cuando el proceso se inicio. 
0C7A8:  MOVF   x59,W
0C7AA:  SUBLW  14
0C7AC:  BTFSS  FD8.2
0C7AE:  GOTO   DE78
....................     
....................    GuardaDatoEstatico(); 
0C7B2:  MOVLB  0
0C7B4:  GOTO   6A12
....................    guardaCiclo=ON; 
0C7B8:  BSF    xFA.0
....................    if(!Libre){ 
0C7BA:  MOVLB  1
0C7BC:  BTFSC  x01.3
0C7BE:  BRA    C846
....................       printf("t2f.txt=\"%u\"",CicloSeleccionado); 
0C7C0:  MOVLW  04
0C7C2:  MOVWF  FF6
0C7C4:  MOVLW  15
0C7C6:  MOVWF  FF7
0C7C8:  MOVLW  00
0C7CA:  MOVWF  FF8
0C7CC:  MOVLW  09
0C7CE:  MOVLB  6
0C7D0:  MOVWF  xB5
0C7D2:  MOVLB  0
0C7D4:  CALL   5994
0C7D8:  MOVFF  25F,6B5
0C7DC:  MOVLW  1B
0C7DE:  MOVLB  6
0C7E0:  MOVWF  xB6
0C7E2:  MOVLB  0
0C7E4:  CALL   5A18
0C7E8:  MOVLW  22
0C7EA:  BTFSS  F9E.4
0C7EC:  BRA    C7EA
0C7EE:  MOVWF  FAD
....................       SendDataDisplay(); 
0C7F0:  CALL   402C
....................       printf("t3f.txt=\"%s\"",Texto[CicloSeleccionado-1]); 
0C7F4:  MOVLW  01
0C7F6:  MOVLB  2
0C7F8:  SUBWF  x5F,W
0C7FA:  MULLW  14
0C7FC:  MOVF   FF3,W
0C7FE:  CLRF   03
0C800:  MOVLB  6
0C802:  MOVWF  xB0
0C804:  MOVLW  12
0C806:  MOVWF  FF6
0C808:  MOVLW  15
0C80A:  MOVWF  FF7
0C80C:  MOVLW  00
0C80E:  MOVWF  FF8
0C810:  MOVLW  09
0C812:  MOVWF  xB5
0C814:  MOVLB  0
0C816:  CALL   5994
0C81A:  MOVLW  1A
0C81C:  MOVWF  FF6
0C81E:  MOVLW  03
0C820:  MOVWF  FF7
0C822:  MOVLW  00
0C824:  MOVWF  FF8
0C826:  MOVLB  6
0C828:  MOVF   xB0,W
0C82A:  ADDWF  FF6,F
0C82C:  MOVLW  00
0C82E:  ADDWFC FF7,F
0C830:  MOVLB  0
0C832:  CALL   3FFA
0C836:  MOVLW  22
0C838:  BTFSS  F9E.4
0C83A:  BRA    C838
0C83C:  MOVWF  FAD
....................       SendDataDisplay(); 
0C83E:  CALL   402C
....................    }else{ 
0C842:  BRA    C896
0C844:  MOVLB  1
....................       printf("t2f.txt=\"%u\"",CicloLibre+10); 
0C846:  MOVLW  0A
0C848:  MOVLB  2
0C84A:  ADDWF  x4F,W
0C84C:  MOVLB  6
0C84E:  MOVWF  xB0
0C850:  MOVLW  20
0C852:  MOVWF  FF6
0C854:  MOVLW  15
0C856:  MOVWF  FF7
0C858:  MOVLW  00
0C85A:  MOVWF  FF8
0C85C:  MOVLW  09
0C85E:  MOVWF  xB5
0C860:  MOVLB  0
0C862:  CALL   5994
0C866:  MOVFF  6B0,6B5
0C86A:  MOVLW  1B
0C86C:  MOVLB  6
0C86E:  MOVWF  xB6
0C870:  MOVLB  0
0C872:  CALL   5A18
0C876:  MOVLW  22
0C878:  BTFSS  F9E.4
0C87A:  BRA    C878
0C87C:  MOVWF  FAD
....................       SendDataDisplay(); 
0C87E:  CALL   402C
....................       printf("t3f.txt=\"Personalizado\""); 
0C882:  MOVLW  2E
0C884:  MOVWF  FF6
0C886:  MOVLW  15
0C888:  MOVWF  FF7
0C88A:  MOVLW  00
0C88C:  MOVWF  FF8
0C88E:  CALL   3FFA
....................       SendDataDisplay(); 
0C892:  CALL   402C
....................    } 
....................     
....................    if(PresionCamara>Atmosferica+15){ 
0C896:  MOVLW  0F
0C898:  MOVLB  2
0C89A:  ADDWF  xA2,W
0C89C:  MOVF   x79,F
0C89E:  BNZ   C8A6
0C8A0:  SUBWF  x78,W
0C8A2:  BZ    C8B0
0C8A4:  BNC   C8B0
....................       cierraPuertaS(); 
0C8A6:  MOVLB  0
0C8A8:  CALL   5978
....................       cierraPuertaL(); 
0C8AC:  CALL   589E
....................    } 
....................     
....................    if(pulsoSubirS) 
0C8B0:  MOVLB  0
0C8B2:  BTFSS  xFA.5
0C8B4:  BRA    C8BA
....................       cierraPuertaS(); 
0C8B6:  CALL   5978
....................     
....................     
....................        
....................    if(RX_Buffer[4]==0x0a){//Oprimio Subir Puerta 
0C8BA:  MOVF   34,W
0C8BC:  SUBLW  0A
0C8BE:  BNZ   C8C6
....................       //cierraPuertaS(); 
....................       pulsoSubirS=ON; 
0C8C0:  BSF    xFA.5
....................       RX_Buffer[4]=0x00; 
0C8C2:  CLRF   34
....................       RX_Buffer2[4]=0x00;                        
0C8C4:  CLRF   3F
....................    } 
....................     
....................    if(RX_Buffer[4]==0x0b){//Solto Subir Puerta 
0C8C6:  MOVF   34,W
0C8C8:  SUBLW  0B
0C8CA:  BNZ   C8E8
....................       RX_Buffer[4]=0x00;             
0C8CC:  CLRF   34
....................       RX_Buffer2[4]=0x00;            
0C8CE:  CLRF   3F
....................       pulsoSubirS=OFF; 
0C8D0:  BCF    xFA.5
....................       if(!DOORS && !EMPAQUES) 
0C8D2:  BSF    F93.3
0C8D4:  BTFSS  F81.3
0C8D6:  BRA    C8E4
0C8D8:  BSF    F93.1
0C8DA:  BTFSS  F81.1
0C8DC:  BRA    C8E4
....................          abrePuertaS(); 
0C8DE:  CALL   6C02
....................       else 
0C8E2:  BRA    C8E8
....................          cierraPuertaS(); 
0C8E4:  CALL   5978
....................    } 
....................     
....................    if(RX_Buffer[4]==0x0c){//Oprimio Bajar Puerta 
0C8E8:  MOVF   34,W
0C8EA:  SUBLW  0C
0C8EC:  BNZ   C930
....................       pulsoSubirS=OFF; 
0C8EE:  BCF    xFA.5
....................       RX_Buffer[4]=0x00; 
0C8F0:  CLRF   34
....................       RX_Buffer2[4]=0x00;  
0C8F2:  CLRF   3F
....................       if(Temperatura<Tapertura && cerroLimpio) 
0C8F4:  MOVLB  6
0C8F6:  CLRF   xC3
0C8F8:  MOVFF  260,6C2
0C8FC:  MOVLB  0
0C8FE:  CALL   1F44
0C902:  MOVFF  23C,6B7
0C906:  MOVFF  23B,6B6
0C90A:  MOVFF  23A,6B5
0C90E:  MOVFF  239,6B4
0C912:  MOVFF  03,6BB
0C916:  MOVFF  02,6BA
0C91A:  MOVFF  01,6B9
0C91E:  MOVFF  00,6B8
0C922:  CALL   25D6
0C926:  BNC   C930
0C928:  BTFSS  xFA.4
0C92A:  BRA    C930
....................          abrePuertaS(); 
0C92C:  CALL   6C02
....................    }    
....................     
....................    if(RX_Buffer[4]==0x0d){//Solto Bajar Puerta 
0C930:  MOVF   34,W
0C932:  SUBLW  0D
0C934:  BNZ   C93A
....................       RX_Buffer[4]=0x00;             
0C936:  CLRF   34
....................       RX_Buffer2[4]=0x00;                        
0C938:  CLRF   3F
....................    } 
....................        
....................    if(PresionPreCamara>350 || PresionCamara>350){ 
0C93A:  MOVLB  2
0C93C:  MOVF   x7B,W
0C93E:  SUBLW  00
0C940:  BC    C94C
0C942:  XORLW  FF
0C944:  BNZ   C95C
0C946:  MOVF   x7A,W
0C948:  SUBLW  5E
0C94A:  BNC   C95C
0C94C:  MOVF   x79,W
0C94E:  SUBLW  00
0C950:  BC    C960
0C952:  XORLW  FF
0C954:  BNZ   C95C
0C956:  MOVF   x78,W
0C958:  SUBLW  5E
0C95A:  BC    C960
....................       AlarmaPresion=ON; 
0C95C:  MOVLB  1
0C95E:  BSF    x01.0
....................    } 
....................     
....................    if(TiempoCiclo>1800 && !Fugas){//ANALIZAR BIEN ESTA ALARMA 
0C960:  MOVLB  1
0C962:  MOVF   x06,W
0C964:  SUBLW  06
0C966:  BC    C9A0
0C968:  XORLW  FF
0C96A:  BNZ   C972
0C96C:  MOVF   x05,W
0C96E:  SUBLW  08
0C970:  BC    C9A0
0C972:  BTFSC  x01.5
0C974:  BRA    C9A0
....................       if(TiempoCiclo>3600){ 
0C976:  MOVF   x06,W
0C978:  SUBLW  0D
0C97A:  BC    C98A
0C97C:  XORLW  FF
0C97E:  BNZ   C986
0C980:  MOVF   x05,W
0C982:  SUBLW  10
0C984:  BC    C98A
....................          AlarmaTiempoProlongado=ON; 
0C986:  MOVLB  0
0C988:  BSF    xF8.6
....................       } 
....................       if(PresionPrecamara<10){ 
0C98A:  MOVLB  2
0C98C:  MOVF   x7B,F
0C98E:  BNZ   C99C
0C990:  MOVF   x7A,W
0C992:  SUBLW  09
0C994:  BNC   C99C
....................          AlarmaTiempoProlongado=ON; 
0C996:  MOVLB  0
0C998:  BSF    xF8.6
0C99A:  MOVLB  2
....................       } 
....................    }else{ 
0C99C:  BRA    C9A4
0C99E:  MOVLB  1
....................       AlarmaTiempoProlongado=OFF; 
0C9A0:  MOVLB  0
0C9A2:  BCF    xF8.6
....................    } 
....................     
....................    if(Temperatura>Setpoint+4.0 && !Fugas){ 
0C9A4:  MOVLB  6
0C9A6:  CLRF   xC3
0C9A8:  MOVFF  267,6C2
0C9AC:  MOVLB  0
0C9AE:  CALL   1F44
0C9B2:  BCF    FD8.1
0C9B4:  MOVFF  03,6C5
0C9B8:  MOVFF  02,6C4
0C9BC:  MOVFF  01,6C3
0C9C0:  MOVFF  00,6C2
0C9C4:  MOVLB  6
0C9C6:  CLRF   xC9
0C9C8:  CLRF   xC8
0C9CA:  CLRF   xC7
0C9CC:  MOVLW  81
0C9CE:  MOVWF  xC6
0C9D0:  MOVLB  0
0C9D2:  CALL   2100
0C9D6:  MOVFF  03,6B7
0C9DA:  MOVFF  02,6B6
0C9DE:  MOVFF  01,6B5
0C9E2:  MOVFF  00,6B4
0C9E6:  MOVFF  23C,6BB
0C9EA:  MOVFF  23B,6BA
0C9EE:  MOVFF  23A,6B9
0C9F2:  MOVFF  239,6B8
0C9F6:  CALL   25D6
0C9FA:  BNC   CA0A
0C9FC:  MOVLB  1
0C9FE:  BTFSS  x01.5
0CA00:  BRA    CA06
0CA02:  MOVLB  0
0CA04:  BRA    CA0A
....................       AlarmaSobreTemperatura=ON; 
0CA06:  MOVLB  0
0CA08:  BSF    xF8.7
....................    } 
....................     
....................    if(TiempoLlenado>600){ 
0CA0A:  MOVLB  1
0CA0C:  MOVF   x12,W
0CA0E:  SUBLW  01
0CA10:  BC    CA24
0CA12:  XORLW  FF
0CA14:  BNZ   CA1C
0CA16:  MOVF   x11,W
0CA18:  SUBLW  58
0CA1A:  BC    CA24
....................       AlarmaLlenado=ON; 
0CA1C:  MOVLB  0
0CA1E:  BSF    xFA.2
....................    }else{ 
0CA20:  BRA    CA28
0CA22:  MOVLB  1
....................       AlarmaLlenado=OFF; 
0CA24:  MOVLB  0
0CA26:  BCF    xFA.2
....................    } 
....................     
....................    if(!DOORS && !EMPAQUES){       
0CA28:  BSF    F93.3
0CA2A:  BTFSS  F81.3
0CA2C:  BRA    CA46
0CA2E:  BSF    F93.1
0CA30:  BTFSS  F81.1
0CA32:  BRA    CA46
....................       Paso=OFF; 
0CA34:  BCF    xF7.6
....................       //if(!Secando && !Finalizo && !Desfogando){ 
....................       if(!Finalizo){ 
0CA36:  MOVLB  1
0CA38:  BTFSC  x00.7
0CA3A:  BRA    CA40
....................          AlarmaPuertaS=ON; 
0CA3C:  MOVLB  0
0CA3E:  BSF    xF9.1
....................       } 
....................       cerroSucio=OFF; 
0CA40:  MOVLB  0
0CA42:  BCF    xFA.3
....................    }else{ 
0CA44:  BRA    CA4A
....................       AlarmaPuertaS=OFF; 
0CA46:  BCF    xF9.1
....................       cerroSucio=ON; 
0CA48:  BSF    xFA.3
....................    } 
....................     
....................    if(!DOORL && !EMPAQUEL){       
0CA4A:  BSF    F93.4
0CA4C:  BTFSS  F81.4
0CA4E:  BRA    CA68
0CA50:  BSF    F93.2
0CA52:  BTFSS  F81.2
0CA54:  BRA    CA68
....................       Paso=OFF; 
0CA56:  BCF    xF7.6
....................       //if(!Secando && !Finalizo && !Desfogando){ 
....................       if(!Finalizo){ 
0CA58:  MOVLB  1
0CA5A:  BTFSC  x00.7
0CA5C:  BRA    CA62
....................          AlarmaPuertaL=ON; 
0CA5E:  MOVLB  0
0CA60:  BSF    xF9.2
....................       } 
....................       cerroLimpio=OFF; 
0CA62:  MOVLB  0
0CA64:  BCF    xFA.4
....................    }else{ 
0CA66:  BRA    CA6C
....................       AlarmaPuertaL=OFF; 
0CA68:  BCF    xF9.2
....................       cerroLimpio=ON; 
0CA6A:  BSF    xFA.4
....................    } 
....................  
....................    if(!STOP){ 
0CA6C:  BSF    F93.0
0CA6E:  BTFSS  F81.0
0CA70:  BRA    CA74
....................       AlarmaEmergencia=ON; 
0CA72:  BSF    xF9.3
....................    } 
....................     
....................    if(tEmpaqueS>10) 
0CA74:  MOVLB  2
0CA76:  MOVF   x64,F
0CA78:  BNZ   CA80
0CA7A:  MOVF   x63,W
0CA7C:  SUBLW  0A
0CA7E:  BC    CA86
....................       AlarmaEmpaqueS=ON; 
0CA80:  MOVLB  0
0CA82:  BSF    xF9.6
0CA84:  MOVLB  2
....................        
....................    if(tEmpaqueL>10) 
0CA86:  MOVF   x66,F
0CA88:  BNZ   CA90
0CA8A:  MOVF   x65,W
0CA8C:  SUBLW  0A
0CA8E:  BC    CA96
....................       AlarmaEmpaqueL=ON;    
0CA90:  MOVLB  0
0CA92:  BSF    xF9.5
0CA94:  MOVLB  2
....................     
....................    if(AlarmaPuertaS || AlarmaPuertaL || AlarmaTermostato || AlarmaSobreTemperatura || AlarmaTiempoProlongado || AlarmaEmergencia || AlarmaPresion || AlarmaBomba || AlarmaEmpaqueL || AlarmaEmpaqueS 
....................          || AlarmaVacio || AlarmaLlenado){ 
0CA96:  MOVLB  0
0CA98:  BTFSC  xF9.1
0CA9A:  BRA    CAD0
0CA9C:  BTFSC  xF9.2
0CA9E:  BRA    CAD0
0CAA0:  BTFSC  xF9.0
0CAA2:  BRA    CAD0
0CAA4:  BTFSC  xF8.7
0CAA6:  BRA    CAD0
0CAA8:  BTFSC  xF8.6
0CAAA:  BRA    CAD0
0CAAC:  BTFSC  xF9.3
0CAAE:  BRA    CAD0
0CAB0:  MOVLB  1
0CAB2:  BTFSS  x01.0
0CAB4:  BRA    CABA
0CAB6:  MOVLB  0
0CAB8:  BRA    CAD0
0CABA:  MOVLB  0
0CABC:  BTFSC  xF9.7
0CABE:  BRA    CAD0
0CAC0:  BTFSC  xF9.5
0CAC2:  BRA    CAD0
0CAC4:  BTFSC  xF9.6
0CAC6:  BRA    CAD0
0CAC8:  BTFSC  xF9.4
0CACA:  BRA    CAD0
0CACC:  BTFSS  xFA.2
0CACE:  BRA    D0D4
....................       ActivaAlarma(1); 
0CAD0:  MOVLW  01
0CAD2:  MOVLB  6
0CAD4:  MOVWF  xB0
0CAD6:  MOVLB  0
0CAD8:  CALL   5766
....................       if(AlarmaEmergencia){ 
0CADC:  BTFSS  xF9.3
0CADE:  BRA    CBC4
....................          codigoAlarma=1; 
0CAE0:  MOVLW  01
0CAE2:  MOVLB  2
0CAE4:  MOVWF  x91
....................          printf("Funcionamiento.t4f.txt=\" Parada de Emergencia\""); 
0CAE6:  MOVLW  46
0CAE8:  MOVWF  FF6
0CAEA:  MOVLW  15
0CAEC:  MOVWF  FF7
0CAEE:  MOVLW  00
0CAF0:  MOVWF  FF8
0CAF2:  MOVLB  0
0CAF4:  CALL   3FFA
....................          SendDataDisplay(); 
0CAF8:  CALL   402C
....................          printf("Funcionamiento.t5f.txt=\" Cancelado\""); 
0CAFC:  MOVLW  76
0CAFE:  MOVWF  FF6
0CB00:  MOVLW  15
0CB02:  MOVWF  FF7
0CB04:  MOVLW  00
0CB06:  MOVWF  FF8
0CB08:  CALL   3FFA
....................          SendDataDisplay(); 
0CB0C:  CALL   402C
....................          Desfogue=ON; 
0CB10:  BSF    xF8.0
....................          Paso=OFF; 
0CB12:  BCF    xF7.6
....................          suministroVapor=OFF; 
0CB14:  BCF    xF7.5
....................          BombaVacio=OFF; 
0CB16:  BCF    xF7.2
....................          aguaEnfriador=OFF; 
0CB18:  BCF    xF7.1
....................          outVacio=OFF; 
0CB1A:  BCF    xF7.7
....................          if(!EMPAQUES && PresionCamara<Atmosferica+4) 
0CB1C:  BSF    F93.1
0CB1E:  BTFSS  F81.1
0CB20:  BRA    CB40
0CB22:  MOVLW  04
0CB24:  MOVLB  2
0CB26:  ADDWF  xA2,W
0CB28:  MOVF   x79,F
0CB2A:  BTFSC  FD8.2
0CB2C:  BRA    CB32
0CB2E:  MOVLB  0
0CB30:  BRA    CB40
0CB32:  SUBWF  x78,W
0CB34:  BTFSS  FD8.0
0CB36:  BRA    CB3C
0CB38:  MOVLB  0
0CB3A:  BRA    CB40
....................             empaqueSucio=OFF; 
0CB3C:  MOVLB  0
0CB3E:  BCF    xF7.4
....................           
....................          if(!EMPAQUEL && PresionCamara<Atmosferica+4) 
0CB40:  BSF    F93.2
0CB42:  BTFSS  F81.2
0CB44:  BRA    CB64
0CB46:  MOVLW  04
0CB48:  MOVLB  2
0CB4A:  ADDWF  xA2,W
0CB4C:  MOVF   x79,F
0CB4E:  BTFSC  FD8.2
0CB50:  BRA    CB56
0CB52:  MOVLB  0
0CB54:  BRA    CB64
0CB56:  SUBWF  x78,W
0CB58:  BTFSS  FD8.0
0CB5A:  BRA    CB60
0CB5C:  MOVLB  0
0CB5E:  BRA    CB64
....................             empaqueLimpio=OFF; 
0CB60:  MOVLB  0
0CB62:  BCF    xF7.3
....................              
....................          if(PresionCamara<Atmosferica) 
0CB64:  MOVLB  2
0CB66:  MOVF   x79,F
0CB68:  BNZ   CB76
0CB6A:  MOVF   xA2,W
0CB6C:  SUBWF  x78,W
0CB6E:  BC    CB76
....................             Aire=ON; 
0CB70:  MOVLB  0
0CB72:  BSF    xF8.1
....................          else 
0CB74:  BRA    CB7A
....................             Aire=OFF; 
0CB76:  MOVLB  0
0CB78:  BCF    xF8.1
....................          Esterilizando=OFF; 
0CB7A:  BCF    xFD.7
....................          Desfogando=OFF; 
0CB7C:  BCF    xFE.2
....................          DesfogueSuave=OFF; 
0CB7E:  BCF    xFE.3
....................          //IniciaCiclo=OFF; 
....................          Controlando=0; 
0CB80:  MOVLB  2
0CB82:  CLRF   x52
....................          if(codigoAnt!=codigoAlarma){ 
0CB84:  MOVF   x91,W
0CB86:  SUBWF  x92,W
0CB88:  BZ    CB98
....................             codigoAnt=codigoAlarma; 
0CB8A:  MOVFF  291,292
....................             GuardaDatoCiclo(); 
0CB8E:  MOVLB  0
0CB90:  CALL   6CFC
....................             incrementaCiclos(); 
0CB94:  CALL   70A0
....................          } 
....................          if(!flagImprimir){ 
0CB98:  MOVLB  1
0CB9A:  BTFSC  x03.3
0CB9C:  BRA    CBC0
....................             Imprime=20; 
0CB9E:  MOVLW  14
0CBA0:  MOVLB  2
0CBA2:  MOVWF  xAD
....................             Envio_Esclavos(); 
0CBA4:  MOVLB  0
0CBA6:  CALL   4FF2
....................             delay_ms(100); 
0CBAA:  MOVLW  64
0CBAC:  MOVLB  6
0CBAE:  MOVWF  xC2
0CBB0:  MOVLB  0
0CBB2:  CALL   1F7A
....................             Imprime=10; 
0CBB6:  MOVLW  0A
0CBB8:  MOVLB  2
0CBBA:  MOVWF  xAD
....................             flagImprimir=1; 
0CBBC:  MOVLB  1
0CBBE:  BSF    x03.3
....................          } 
....................       }else if(AlarmaPuertaS || AlarmaPuertaL){ 
0CBC0:  BRA    D0CC
0CBC2:  MOVLB  0
0CBC4:  BTFSC  xF9.1
0CBC6:  BRA    CBCC
0CBC8:  BTFSS  xF9.2
0CBCA:  BRA    CC30
....................          codigoAlarma=2; 
0CBCC:  MOVLW  02
0CBCE:  MOVLB  2
0CBD0:  MOVWF  x91
....................          printf("Funcionamiento.t4f.txt=\" Puerta Abierta\""); 
0CBD2:  MOVLW  9A
0CBD4:  MOVWF  FF6
0CBD6:  MOVLW  15
0CBD8:  MOVWF  FF7
0CBDA:  MOVLW  00
0CBDC:  MOVWF  FF8
0CBDE:  MOVLB  0
0CBE0:  CALL   3FFA
....................          SendDataDisplay(); 
0CBE4:  CALL   402C
....................          printf("Funcionamiento.t5f.txt=\" Pausado\""); 
0CBE8:  MOVLW  C4
0CBEA:  MOVWF  FF6
0CBEC:  MOVLW  15
0CBEE:  MOVWF  FF7
0CBF0:  MOVLW  00
0CBF2:  MOVWF  FF8
0CBF4:  CALL   3FFA
....................          SendDataDisplay(); 
0CBF8:  CALL   402C
....................          Paso=OFF; 
0CBFC:  BCF    xF7.6
....................          suministroVapor=OFF; 
0CBFE:  BCF    xF7.5
....................          if(AlarmaEmpaqueL) 
0CC00:  BTFSS  xF9.5
0CC02:  BRA    CC06
....................             empaqueLimpio=OFF; 
0CC04:  BCF    xF7.3
....................          if(AlarmaEmpaqueS) 
0CC06:  BTFSS  xF9.6
0CC08:  BRA    CC0C
....................             empaqueSucio=OFF; 
0CC0A:  BCF    xF7.4
....................          //Suministro_off; 
....................          BombaVacio=OFF; 
0CC0C:  BCF    xF7.2
....................          Aire=OFF; 
0CC0E:  BCF    xF8.1
....................          aguaEnfriador=OFF; 
0CC10:  BCF    xF7.1
....................          outVacio=OFF; 
0CC12:  BCF    xF7.7
....................          IniciaLlenado=OFF; 
0CC14:  BCF    xFD.5
....................          Controlando=0; 
0CC16:  MOVLB  2
0CC18:  CLRF   x52
....................          if(codigoAnt!=codigoAlarma){ 
0CC1A:  MOVF   x91,W
0CC1C:  SUBWF  x92,W
0CC1E:  BZ    CC2C
....................             codigoAnt=codigoAlarma; 
0CC20:  MOVFF  291,292
....................             GuardaDatoCiclo(); 
0CC24:  MOVLB  0
0CC26:  CALL   6CFC
0CC2A:  MOVLB  2
....................          } 
....................       }else if(AlarmaLlenado){ 
0CC2C:  BRA    D0CE
0CC2E:  MOVLB  0
0CC30:  BTFSS  xFA.2
0CC32:  BRA    CCBC
....................          codigoAlarma=9; 
0CC34:  MOVLW  09
0CC36:  MOVLB  2
0CC38:  MOVWF  x91
....................          printf("Funcionamiento.t4f.txt=\" Tiempo Llenado\""); 
0CC3A:  MOVLW  E6
0CC3C:  MOVWF  FF6
0CC3E:  MOVLW  15
0CC40:  MOVWF  FF7
0CC42:  MOVLW  00
0CC44:  MOVWF  FF8
0CC46:  MOVLB  0
0CC48:  CALL   3FFA
....................          SendDataDisplay(); 
0CC4C:  CALL   402C
....................          printf("Funcionamiento.t5f.txt=\" Cancelado\""); 
0CC50:  MOVLW  10
0CC52:  MOVWF  FF6
0CC54:  MOVLW  16
0CC56:  MOVWF  FF7
0CC58:  MOVLW  00
0CC5A:  MOVWF  FF8
0CC5C:  CALL   3FFA
....................          SendDataDisplay(); 
0CC60:  CALL   402C
....................          suministroVapor=OFF; 
0CC64:  BCF    xF7.5
....................          Aire=OFF; 
0CC66:  BCF    xF8.1
....................          Desfogue=OFF; 
0CC68:  BCF    xF8.0
....................          Paso=OFF; 
0CC6A:  BCF    xF7.6
....................          BombaVacio=OFF; 
0CC6C:  BCF    xF7.2
....................          aguaEnfriador=OFF; 
0CC6E:  BCF    xF7.1
....................          outVacio=OFF; 
0CC70:  BCF    xF7.7
....................          IniciaLlenado=OFF; 
0CC72:  BCF    xFD.5
....................          IniciaCiclo=OFF; 
0CC74:  BCF    xFD.6
....................          Esterilizando=OFF; 
0CC76:  BCF    xFD.7
....................          Controlando=0; 
0CC78:  MOVLB  2
0CC7A:  CLRF   x52
....................          if(codigoAnt!=codigoAlarma){ 
0CC7C:  MOVF   x91,W
0CC7E:  SUBWF  x92,W
0CC80:  BZ    CC90
....................             codigoAnt=codigoAlarma; 
0CC82:  MOVFF  291,292
....................             GuardaDatoCiclo(); 
0CC86:  MOVLB  0
0CC88:  CALL   6CFC
....................             incrementaCiclos(); 
0CC8C:  CALL   70A0
....................          } 
....................          if(!flagImprimir){ 
0CC90:  MOVLB  1
0CC92:  BTFSC  x03.3
0CC94:  BRA    CCB8
....................             Imprime=21; 
0CC96:  MOVLW  15
0CC98:  MOVLB  2
0CC9A:  MOVWF  xAD
....................             Envio_Esclavos(); 
0CC9C:  MOVLB  0
0CC9E:  CALL   4FF2
....................             delay_ms(100); 
0CCA2:  MOVLW  64
0CCA4:  MOVLB  6
0CCA6:  MOVWF  xC2
0CCA8:  MOVLB  0
0CCAA:  CALL   1F7A
....................             Imprime=10; 
0CCAE:  MOVLW  0A
0CCB0:  MOVLB  2
0CCB2:  MOVWF  xAD
....................             flagImprimir=1; 
0CCB4:  MOVLB  1
0CCB6:  BSF    x03.3
....................          } 
....................       }else if(AlarmaTermostato){ 
0CCB8:  BRA    D0CC
0CCBA:  MOVLB  0
0CCBC:  BTFSS  xF9.0
0CCBE:  BRA    CD4C
....................          codigoAlarma=3; 
0CCC0:  MOVLW  03
0CCC2:  MOVLB  2
0CCC4:  MOVWF  x91
....................          tiempo_esterilizacion=0;tiempo_secado=0;          
0CCC6:  CLRF   x6A
0CCC8:  CLRF   x6B
....................          printf("Funcionamiento.t4f.txt=\" Termostato\""); 
0CCCA:  MOVLW  34
0CCCC:  MOVWF  FF6
0CCCE:  MOVLW  16
0CCD0:  MOVWF  FF7
0CCD2:  MOVLW  00
0CCD4:  MOVWF  FF8
0CCD6:  MOVLB  0
0CCD8:  CALL   3FFA
....................          SendDataDisplay(); 
0CCDC:  CALL   402C
....................          printf("Funcionamiento.t5f.txt=\" Cancelado\""); 
0CCE0:  MOVLW  5A
0CCE2:  MOVWF  FF6
0CCE4:  MOVLW  16
0CCE6:  MOVWF  FF7
0CCE8:  MOVLW  00
0CCEA:  MOVWF  FF8
0CCEC:  CALL   3FFA
....................          SendDataDisplay(); 
0CCF0:  CALL   402C
....................          suministroVapor=OFF; 
0CCF4:  BCF    xF7.5
....................          Desfogue=ON;                   
0CCF6:  BSF    xF8.0
....................          Paso=OFF; 
0CCF8:  BCF    xF7.6
....................          BombaVacio=OFF; 
0CCFA:  BCF    xF7.2
....................          Aire=OFF; 
0CCFC:  BCF    xF8.1
....................          aguaEnfriador=OFF; 
0CCFE:  BCF    xF7.1
....................          outVacio=OFF; 
0CD00:  BCF    xF7.7
....................          Esterilizando=OFF; 
0CD02:  BCF    xFD.7
....................          Desfogando=OFF; 
0CD04:  BCF    xFE.2
....................          IniciaCiclo=OFF; 
0CD06:  BCF    xFD.6
....................          Controlando=0; 
0CD08:  MOVLB  2
0CD0A:  CLRF   x52
....................          if(codigoAnt!=codigoAlarma){ 
0CD0C:  MOVF   x91,W
0CD0E:  SUBWF  x92,W
0CD10:  BZ    CD20
....................             codigoAnt=codigoAlarma; 
0CD12:  MOVFF  291,292
....................             GuardaDatoCiclo(); 
0CD16:  MOVLB  0
0CD18:  CALL   6CFC
....................             incrementaCiclos(); 
0CD1C:  CALL   70A0
....................          } 
....................          if(!flagImprimir){ 
0CD20:  MOVLB  1
0CD22:  BTFSC  x03.3
0CD24:  BRA    CD48
....................             Imprime=22; 
0CD26:  MOVLW  16
0CD28:  MOVLB  2
0CD2A:  MOVWF  xAD
....................             Envio_Esclavos(); 
0CD2C:  MOVLB  0
0CD2E:  CALL   4FF2
....................             delay_ms(100); 
0CD32:  MOVLW  64
0CD34:  MOVLB  6
0CD36:  MOVWF  xC2
0CD38:  MOVLB  0
0CD3A:  CALL   1F7A
....................             Imprime=10; 
0CD3E:  MOVLW  0A
0CD40:  MOVLB  2
0CD42:  MOVWF  xAD
....................             flagImprimir=1; 
0CD44:  MOVLB  1
0CD46:  BSF    x03.3
....................          } 
....................       }else if(AlarmaSobreTemperatura){                   
0CD48:  BRA    D0CC
0CD4A:  MOVLB  0
0CD4C:  BTFSS  xF8.7
0CD4E:  BRA    CDD6
....................          codigoAlarma=4; 
0CD50:  MOVLW  04
0CD52:  MOVLB  2
0CD54:  MOVWF  x91
....................          tiempo_esterilizacion=0;tiempo_secado=0;          
0CD56:  CLRF   x6A
0CD58:  CLRF   x6B
....................          printf("Funcionamiento.t4f.txt=\" Sobretemperatura\""); 
0CD5A:  MOVLW  7E
0CD5C:  MOVWF  FF6
0CD5E:  MOVLW  16
0CD60:  MOVWF  FF7
0CD62:  MOVLW  00
0CD64:  MOVWF  FF8
0CD66:  MOVLB  0
0CD68:  CALL   3FFA
....................          SendDataDisplay(); 
0CD6C:  CALL   402C
....................          printf("Funcionamiento.t5f.txt=\" Cancelado\""); 
0CD70:  MOVLW  AA
0CD72:  MOVWF  FF6
0CD74:  MOVLW  16
0CD76:  MOVWF  FF7
0CD78:  MOVLW  00
0CD7A:  MOVWF  FF8
0CD7C:  CALL   3FFA
....................          SendDataDisplay();   
0CD80:  CALL   402C
....................          suministroVapor=OFF; 
0CD84:  BCF    xF7.5
....................          Desfogue=ON; 
0CD86:  BSF    xF8.0
....................          Paso=OFF; 
0CD88:  BCF    xF7.6
....................          BombaVacio=OFF; 
0CD8A:  BCF    xF7.2
....................          Aire=OFF; 
0CD8C:  BCF    xF8.1
....................          aguaEnfriador=OFF; 
0CD8E:  BCF    xF7.1
....................          outVacio=OFF; 
0CD90:  BCF    xF7.7
....................          Controlando=0; 
0CD92:  MOVLB  2
0CD94:  CLRF   x52
....................          if(codigoAnt!=codigoAlarma){ 
0CD96:  MOVF   x91,W
0CD98:  SUBWF  x92,W
0CD9A:  BZ    CDAA
....................             codigoAnt=codigoAlarma; 
0CD9C:  MOVFF  291,292
....................             GuardaDatoCiclo(); 
0CDA0:  MOVLB  0
0CDA2:  CALL   6CFC
....................             incrementaCiclos(); 
0CDA6:  CALL   70A0
....................          } 
....................          if(!flagImprimir){ 
0CDAA:  MOVLB  1
0CDAC:  BTFSC  x03.3
0CDAE:  BRA    CDD2
....................             Imprime=23; 
0CDB0:  MOVLW  17
0CDB2:  MOVLB  2
0CDB4:  MOVWF  xAD
....................             Envio_Esclavos(); 
0CDB6:  MOVLB  0
0CDB8:  CALL   4FF2
....................             delay_ms(100); 
0CDBC:  MOVLW  64
0CDBE:  MOVLB  6
0CDC0:  MOVWF  xC2
0CDC2:  MOVLB  0
0CDC4:  CALL   1F7A
....................             Imprime=10; 
0CDC8:  MOVLW  0A
0CDCA:  MOVLB  2
0CDCC:  MOVWF  xAD
....................             flagImprimir=1; 
0CDCE:  MOVLB  1
0CDD0:  BSF    x03.3
....................          } 
....................       }else if(AlarmaTiempoProlongado){ 
0CDD2:  BRA    D0CC
0CDD4:  MOVLB  0
0CDD6:  BTFSS  xF8.6
0CDD8:  BRA    CE56
....................          codigoAlarma=5; 
0CDDA:  MOVLW  05
0CDDC:  MOVLB  2
0CDDE:  MOVWF  x91
....................          printf("Funcionamiento.t4f.txt=\" Tiempo Prolongado\""); 
0CDE0:  MOVLW  CE
0CDE2:  MOVWF  FF6
0CDE4:  MOVLW  16
0CDE6:  MOVWF  FF7
0CDE8:  MOVLW  00
0CDEA:  MOVWF  FF8
0CDEC:  MOVLB  0
0CDEE:  CALL   3FFA
....................          SendDataDisplay(); 
0CDF2:  CALL   402C
....................          printf("Funcionamiento.t5f.txt=\" Cancelado\""); 
0CDF6:  MOVLW  FA
0CDF8:  MOVWF  FF6
0CDFA:  MOVLW  16
0CDFC:  MOVWF  FF7
0CDFE:  MOVLW  00
0CE00:  MOVWF  FF8
0CE02:  CALL   3FFA
....................          SendDataDisplay(); 
0CE06:  CALL   402C
....................          suministroVapor=OFF; 
0CE0A:  BCF    xF7.5
....................          Desfogue=ON; 
0CE0C:  BSF    xF8.0
....................          Paso=OFF; 
0CE0E:  BCF    xF7.6
....................          aguaEnfriador=OFF; 
0CE10:  BCF    xF7.1
....................          outVacio=OFF; 
0CE12:  BCF    xF7.7
....................          Controlando=0; 
0CE14:  MOVLB  2
0CE16:  CLRF   x52
....................          if(codigoAnt!=codigoAlarma){ 
0CE18:  MOVF   x91,W
0CE1A:  SUBWF  x92,W
0CE1C:  BZ    CE2C
....................             codigoAnt=codigoAlarma; 
0CE1E:  MOVFF  291,292
....................             GuardaDatoCiclo(); 
0CE22:  MOVLB  0
0CE24:  CALL   6CFC
....................             incrementaCiclos(); 
0CE28:  CALL   70A0
....................          } 
....................          if(!flagImprimir){ 
0CE2C:  MOVLB  1
0CE2E:  BTFSC  x03.3
0CE30:  BRA    CE54
....................             Imprime=24; 
0CE32:  MOVLW  18
0CE34:  MOVLB  2
0CE36:  MOVWF  xAD
....................             Envio_Esclavos(); 
0CE38:  MOVLB  0
0CE3A:  CALL   4FF2
....................             delay_ms(100); 
0CE3E:  MOVLW  64
0CE40:  MOVLB  6
0CE42:  MOVWF  xC2
0CE44:  MOVLB  0
0CE46:  CALL   1F7A
....................             Imprime=10; 
0CE4A:  MOVLW  0A
0CE4C:  MOVLB  2
0CE4E:  MOVWF  xAD
....................             flagImprimir=1; 
0CE50:  MOVLB  1
0CE52:  BSF    x03.3
....................          } 
....................       }else if(AlarmaPresion){ // Alarma de Error de SobrePresion: Error por exceso de Presion. 
0CE54:  BRA    D0CC
0CE56:  MOVLB  1
0CE58:  BTFSS  x01.0
0CE5A:  BRA    CEFA
....................          codigoAlarma=6; 
0CE5C:  MOVLW  06
0CE5E:  MOVLB  2
0CE60:  MOVWF  x91
....................          printf("Funcionamiento.t4f.txt=\" SobrePresion\""); 
0CE62:  MOVLW  1E
0CE64:  MOVWF  FF6
0CE66:  MOVLW  17
0CE68:  MOVWF  FF7
0CE6A:  MOVLW  00
0CE6C:  MOVWF  FF8
0CE6E:  MOVLB  0
0CE70:  CALL   3FFA
....................          SendDataDisplay(); 
0CE74:  CALL   402C
....................          printf("Funcionamiento.t5f.txt=\" Cancelado\""); 
0CE78:  MOVLW  46
0CE7A:  MOVWF  FF6
0CE7C:  MOVLW  17
0CE7E:  MOVWF  FF7
0CE80:  MOVLW  00
0CE82:  MOVWF  FF8
0CE84:  CALL   3FFA
....................          SendDataDisplay(); 
0CE88:  CALL   402C
....................          Desfogue=ON; 
0CE8C:  BSF    xF8.0
....................          suministroVapor=OFF; 
0CE8E:  BCF    xF7.5
....................          BombaVacio=OFF; 
0CE90:  BCF    xF7.2
....................          Aire=OFF; 
0CE92:  BCF    xF8.1
....................          aguaEnfriador=OFF; 
0CE94:  BCF    xF7.1
....................          outVacio=OFF; 
0CE96:  BCF    xF7.7
....................          if(PresionPreCamara>(Atmosferica+4) && DOORS) 
0CE98:  MOVLW  04
0CE9A:  MOVLB  2
0CE9C:  ADDWF  xA2,W
0CE9E:  MOVF   x7B,F
0CEA0:  BNZ   CEA8
0CEA2:  SUBWF  x7A,W
0CEA4:  BZ    CEB4
0CEA6:  BNC   CEB4
0CEA8:  BSF    F93.3
0CEAA:  BTFSC  F81.3
0CEAC:  BRA    CEB4
....................             Paso=ON; 
0CEAE:  MOVLB  0
0CEB0:  BSF    xF7.6
....................          else 
0CEB2:  BRA    CEB8
....................             Paso=OFF; 
0CEB4:  MOVLB  0
0CEB6:  BCF    xF7.6
....................          Controlando=0; 
0CEB8:  MOVLB  2
0CEBA:  CLRF   x52
....................          if(codigoAnt!=codigoAlarma){ 
0CEBC:  MOVF   x91,W
0CEBE:  SUBWF  x92,W
0CEC0:  BZ    CED0
....................             codigoAnt=codigoAlarma; 
0CEC2:  MOVFF  291,292
....................             GuardaDatoCiclo(); 
0CEC6:  MOVLB  0
0CEC8:  CALL   6CFC
....................             incrementaCiclos(); 
0CECC:  CALL   70A0
....................          } 
....................          if(!flagImprimir){ 
0CED0:  MOVLB  1
0CED2:  BTFSC  x03.3
0CED4:  BRA    CEF8
....................             Imprime=25; 
0CED6:  MOVLW  19
0CED8:  MOVLB  2
0CEDA:  MOVWF  xAD
....................             Envio_Esclavos(); 
0CEDC:  MOVLB  0
0CEDE:  CALL   4FF2
....................             delay_ms(100); 
0CEE2:  MOVLW  64
0CEE4:  MOVLB  6
0CEE6:  MOVWF  xC2
0CEE8:  MOVLB  0
0CEEA:  CALL   1F7A
....................             Imprime=10; 
0CEEE:  MOVLW  0A
0CEF0:  MOVLB  2
0CEF2:  MOVWF  xAD
....................             flagImprimir=1; 
0CEF4:  MOVLB  1
0CEF6:  BSF    x03.3
....................          } 
....................       }else if(AlarmaBomba){ // Alarma de Error de que bomba no ha arrancado. 
0CEF8:  BRA    D0CC
0CEFA:  MOVLB  0
0CEFC:  BTFSS  xF9.7
0CEFE:  BRA    CF80
....................          codigoAlarma=7; 
0CF00:  MOVLW  07
0CF02:  MOVLB  2
0CF04:  MOVWF  x91
....................          printf("Funcionamiento.t4f.txt=\" Error Bomba\""); 
0CF06:  MOVLW  6A
0CF08:  MOVWF  FF6
0CF0A:  MOVLW  17
0CF0C:  MOVWF  FF7
0CF0E:  MOVLW  00
0CF10:  MOVWF  FF8
0CF12:  MOVLB  0
0CF14:  CALL   3FFA
....................          SendDataDisplay(); 
0CF18:  CALL   402C
....................          printf("Funcionamiento.t5f.txt=\" Cancelado\""); 
0CF1C:  MOVLW  90
0CF1E:  MOVWF  FF6
0CF20:  MOVLW  17
0CF22:  MOVWF  FF7
0CF24:  MOVLW  00
0CF26:  MOVWF  FF8
0CF28:  CALL   3FFA
....................          SendDataDisplay(); 
0CF2C:  CALL   402C
....................          Desfogue=ON; 
0CF30:  BSF    xF8.0
....................          suministroVapor=OFF; 
0CF32:  BCF    xF7.5
....................          BombaVacio=OFF; 
0CF34:  BCF    xF7.2
....................          Aire=OFF; 
0CF36:  BCF    xF8.1
....................          aguaEnfriador=OFF; 
0CF38:  BCF    xF7.1
....................          outVacio=OFF; 
0CF3A:  BCF    xF7.7
....................          Controlando=0; 
0CF3C:  MOVLB  2
0CF3E:  CLRF   x52
....................          if(codigoAnt!=codigoAlarma){ 
0CF40:  MOVF   x91,W
0CF42:  SUBWF  x92,W
0CF44:  BZ    CF54
....................             codigoAnt=codigoAlarma; 
0CF46:  MOVFF  291,292
....................             GuardaDatoCiclo(); 
0CF4A:  MOVLB  0
0CF4C:  CALL   6CFC
....................             incrementaCiclos(); 
0CF50:  CALL   70A0
....................          } 
....................          if(!flagImprimir){ 
0CF54:  MOVLB  1
0CF56:  BTFSC  x03.3
0CF58:  BRA    CF7C
....................             Imprime=26; 
0CF5A:  MOVLW  1A
0CF5C:  MOVLB  2
0CF5E:  MOVWF  xAD
....................             Envio_Esclavos(); 
0CF60:  MOVLB  0
0CF62:  CALL   4FF2
....................             delay_ms(100); 
0CF66:  MOVLW  64
0CF68:  MOVLB  6
0CF6A:  MOVWF  xC2
0CF6C:  MOVLB  0
0CF6E:  CALL   1F7A
....................             Imprime=10; 
0CF72:  MOVLW  0A
0CF74:  MOVLB  2
0CF76:  MOVWF  xAD
....................             flagImprimir=1; 
0CF78:  MOVLB  1
0CF7A:  BSF    x03.3
....................          } 
....................       }else if(AlarmaVacio){ // Alarma de Error de que genera el Vacio en el tiempo estipulado. 
0CF7C:  BRA    D0CC
0CF7E:  MOVLB  0
0CF80:  BTFSS  xF9.4
0CF82:  BRA    D004
....................          codigoAlarma=8; 
0CF84:  MOVLW  08
0CF86:  MOVLB  2
0CF88:  MOVWF  x91
....................          printf("Funcionamiento.t4f.txt=\" Error Vacio\""); 
0CF8A:  MOVLW  B4
0CF8C:  MOVWF  FF6
0CF8E:  MOVLW  17
0CF90:  MOVWF  FF7
0CF92:  MOVLW  00
0CF94:  MOVWF  FF8
0CF96:  MOVLB  0
0CF98:  CALL   3FFA
....................          SendDataDisplay(); 
0CF9C:  CALL   402C
....................          printf("Funcionamiento.t5f.txt=\" Cancelado\""); 
0CFA0:  MOVLW  DA
0CFA2:  MOVWF  FF6
0CFA4:  MOVLW  17
0CFA6:  MOVWF  FF7
0CFA8:  MOVLW  00
0CFAA:  MOVWF  FF8
0CFAC:  CALL   3FFA
....................          SendDataDisplay(); 
0CFB0:  CALL   402C
....................          Desfogue=ON; 
0CFB4:  BSF    xF8.0
....................          suministroVapor=OFF; 
0CFB6:  BCF    xF7.5
....................          BombaVacio=OFF; 
0CFB8:  BCF    xF7.2
....................          Aire=OFF; 
0CFBA:  BCF    xF8.1
....................          aguaEnfriador=OFF; 
0CFBC:  BCF    xF7.1
....................          outVacio=OFF; 
0CFBE:  BCF    xF7.7
....................          Controlando=0; 
0CFC0:  MOVLB  2
0CFC2:  CLRF   x52
....................          if(codigoAnt!=codigoAlarma){ 
0CFC4:  MOVF   x91,W
0CFC6:  SUBWF  x92,W
0CFC8:  BZ    CFD8
....................             codigoAnt=codigoAlarma; 
0CFCA:  MOVFF  291,292
....................             GuardaDatoCiclo(); 
0CFCE:  MOVLB  0
0CFD0:  CALL   6CFC
....................             incrementaCiclos(); 
0CFD4:  CALL   70A0
....................          } 
....................           
....................          if(!flagImprimir){ 
0CFD8:  MOVLB  1
0CFDA:  BTFSC  x03.3
0CFDC:  BRA    D000
....................             Imprime=27; 
0CFDE:  MOVLW  1B
0CFE0:  MOVLB  2
0CFE2:  MOVWF  xAD
....................             Envio_Esclavos(); 
0CFE4:  MOVLB  0
0CFE6:  CALL   4FF2
....................             delay_ms(100); 
0CFEA:  MOVLW  64
0CFEC:  MOVLB  6
0CFEE:  MOVWF  xC2
0CFF0:  MOVLB  0
0CFF2:  CALL   1F7A
....................             Imprime=10; 
0CFF6:  MOVLW  0A
0CFF8:  MOVLB  2
0CFFA:  MOVWF  xAD
....................             flagImprimir=1; 
0CFFC:  MOVLB  1
0CFFE:  BSF    x03.3
....................          } 
....................       }else if(AlarmaEmpaqueS || AlarmaEmpaqueL){ // Alarma de Error de que el empaque no se presuriza 
0D000:  BRA    D0CC
0D002:  MOVLB  0
0D004:  BTFSC  xF9.6
0D006:  BRA    D00C
0D008:  BTFSS  xF9.5
0D00A:  BRA    D0CC
....................          codigoAlarma=9; 
0D00C:  MOVLW  09
0D00E:  MOVLB  2
0D010:  MOVWF  x91
....................          printf("Funcionamiento.t4f.txt=\" Error Empaque\""); 
0D012:  MOVLW  FE
0D014:  MOVWF  FF6
0D016:  MOVLW  17
0D018:  MOVWF  FF7
0D01A:  MOVLW  00
0D01C:  MOVWF  FF8
0D01E:  MOVLB  0
0D020:  CALL   3FFA
....................          SendDataDisplay(); 
0D024:  CALL   402C
....................          printf("Funcionamiento.t5f.txt=\" Cancelado\""); 
0D028:  MOVLW  26
0D02A:  MOVWF  FF6
0D02C:  MOVLW  18
0D02E:  MOVWF  FF7
0D030:  MOVLW  00
0D032:  MOVWF  FF8
0D034:  CALL   3FFA
....................          SendDataDisplay(); 
0D038:  CALL   402C
....................          if(AlarmaEmpaqueL && PresionCamara<Atmosferica+4) 
0D03C:  BTFSS  xF9.5
0D03E:  BRA    D05E
0D040:  MOVLW  04
0D042:  MOVLB  2
0D044:  ADDWF  xA2,W
0D046:  MOVF   x79,F
0D048:  BTFSC  FD8.2
0D04A:  BRA    D050
0D04C:  MOVLB  0
0D04E:  BRA    D05E
0D050:  SUBWF  x78,W
0D052:  BTFSS  FD8.0
0D054:  BRA    D05A
0D056:  MOVLB  0
0D058:  BRA    D05E
....................             empaqueLimpio=OFF; 
0D05A:  MOVLB  0
0D05C:  BCF    xF7.3
....................          if(AlarmaEmpaqueS && PresionCamara<Atmosferica+4) 
0D05E:  BTFSS  xF9.6
0D060:  BRA    D080
0D062:  MOVLW  04
0D064:  MOVLB  2
0D066:  ADDWF  xA2,W
0D068:  MOVF   x79,F
0D06A:  BTFSC  FD8.2
0D06C:  BRA    D072
0D06E:  MOVLB  0
0D070:  BRA    D080
0D072:  SUBWF  x78,W
0D074:  BTFSS  FD8.0
0D076:  BRA    D07C
0D078:  MOVLB  0
0D07A:  BRA    D080
....................             empaqueSucio=OFF; 
0D07C:  MOVLB  0
0D07E:  BCF    xF7.4
....................          Desfogue=ON; 
0D080:  BSF    xF8.0
....................          suministroVapor=OFF; 
0D082:  BCF    xF7.5
....................          BombaVacio=OFF; 
0D084:  BCF    xF7.2
....................          Aire=OFF; 
0D086:  BCF    xF8.1
....................          aguaEnfriador=OFF; 
0D088:  BCF    xF7.1
....................          outVacio=OFF; 
0D08A:  BCF    xF7.7
....................          Controlando=0; 
0D08C:  MOVLB  2
0D08E:  CLRF   x52
....................          if(codigoAnt!=codigoAlarma){ 
0D090:  MOVF   x91,W
0D092:  SUBWF  x92,W
0D094:  BZ    D0A4
....................             codigoAnt=codigoAlarma; 
0D096:  MOVFF  291,292
....................             GuardaDatoCiclo(); 
0D09A:  MOVLB  0
0D09C:  CALL   6CFC
....................             incrementaCiclos(); 
0D0A0:  CALL   70A0
....................          } 
....................           
....................          if(!flagImprimir){ 
0D0A4:  MOVLB  1
0D0A6:  BTFSC  x03.3
0D0A8:  BRA    D0CC
....................             Imprime=29; 
0D0AA:  MOVLW  1D
0D0AC:  MOVLB  2
0D0AE:  MOVWF  xAD
....................             Envio_Esclavos(); 
0D0B0:  MOVLB  0
0D0B2:  CALL   4FF2
....................             delay_ms(100); 
0D0B6:  MOVLW  64
0D0B8:  MOVLB  6
0D0BA:  MOVWF  xC2
0D0BC:  MOVLB  0
0D0BE:  CALL   1F7A
....................             Imprime=10; 
0D0C2:  MOVLW  0A
0D0C4:  MOVLB  2
0D0C6:  MOVWF  xAD
....................             flagImprimir=1; 
0D0C8:  MOVLB  1
0D0CA:  BSF    x03.3
0D0CC:  MOVLB  2
....................          } 
....................       } 
....................    }else{ 
0D0CE:  GOTO   DA4C
0D0D2:  MOVLB  0
....................       if(flagImprime){ 
0D0D4:  MOVLB  1
0D0D6:  BTFSS  x04.7
0D0D8:  BRA    D0FC
....................          Imprime=5; 
0D0DA:  MOVLW  05
0D0DC:  MOVLB  2
0D0DE:  MOVWF  xAD
....................          Envio_Esclavos(); 
0D0E0:  MOVLB  0
0D0E2:  CALL   4FF2
....................          delay_ms(100); 
0D0E6:  MOVLW  64
0D0E8:  MOVLB  6
0D0EA:  MOVWF  xC2
0D0EC:  MOVLB  0
0D0EE:  CALL   1F7A
....................          Imprime=10; 
0D0F2:  MOVLW  0A
0D0F4:  MOVLB  2
0D0F6:  MOVWF  xAD
....................          flagImprime=0; 
0D0F8:  MOVLB  1
0D0FA:  BCF    x04.7
....................       } 
....................        
....................       if(!Fugas){//Si selecciono un ciclo diferente al test de fugas 
0D0FC:  BTFSC  x01.5
0D0FE:  GOTO   D87E
....................          EstadoBuzzer=OFF; 
0D102:  BCF    x00.3
....................          IniciaCiclo=ON; 
0D104:  MOVLB  0
0D106:  BSF    xFD.6
....................        
....................       if(!Precalentamiento){  
0D108:  MOVLB  1
0D10A:  BTFSC  x01.6
0D10C:  BRA    D16C
....................          SuministroVapor=ON; 
0D10E:  MOVLB  0
0D110:  BSF    xF7.5
....................          aguaEnfriador=OFF; 
0D112:  BCF    xF7.1
....................          Paso=OFF; 
0D114:  BCF    xF7.6
....................          Desfogue=OFF; 
0D116:  BCF    xF8.0
....................          printf("Funcionamiento.t4f.txt=\" Ninguna\""); 
0D118:  MOVLW  4A
0D11A:  MOVWF  FF6
0D11C:  MOVLW  18
0D11E:  MOVWF  FF7
0D120:  MOVLW  00
0D122:  MOVWF  FF8
0D124:  CALL   3FFA
....................          SendDataDisplay(); 
0D128:  CALL   402C
....................          printf("Funcionamiento.t5f.txt=\" PreCalentando\""); 
0D12C:  MOVLW  6C
0D12E:  MOVWF  FF6
0D130:  MOVLW  18
0D132:  MOVWF  FF7
0D134:  MOVLW  00
0D136:  MOVWF  FF8
0D138:  CALL   3FFA
....................          SendDataDisplay(); 
0D13C:  CALL   402C
....................          ControlaPresion();  
0D140:  CALL   712C
....................          Controlando=0; 
0D144:  MOVLB  2
0D146:  CLRF   x52
....................          IniciaVacio=OFF; 
0D148:  MOVLB  1
0D14A:  BCF    x01.7
....................          IniciaVacio2=OFF; 
0D14C:  BCF    x02.0
....................          codigoAlarma=10; 
0D14E:  MOVLW  0A
0D150:  MOVLB  2
0D152:  MOVWF  x91
....................          if(codigoAnt!=codigoAlarma){ 
0D154:  MOVF   x91,W
0D156:  SUBWF  x92,W
0D158:  BZ    D166
....................             codigoAnt=codigoAlarma; 
0D15A:  MOVFF  291,292
....................             GuardaDatoCiclo(); 
0D15E:  MOVLB  0
0D160:  CALL   6CFC
0D164:  MOVLB  2
....................          } 
....................       }else{ 
0D166:  GOTO   D87A
0D16A:  MOVLB  1
....................          if(!Vacio){ //Si no ha realizado los pulsos de vacio 
0D16C:  BTFSC  x02.1
0D16E:  BRA    D356
....................             codigoAlarma=11; 
0D170:  MOVLW  0B
0D172:  MOVLB  2
0D174:  MOVWF  x91
....................             if(codigoAnt!=codigoAlarma){ 
0D176:  MOVF   x91,W
0D178:  SUBWF  x92,W
0D17A:  BZ    D186
....................                codigoAnt=codigoAlarma; 
0D17C:  MOVFF  291,292
....................                GuardaDatoCiclo();                
0D180:  MOVLB  0
0D182:  CALL   6CFC
....................             } 
....................             if(!flag_vac){//Ciclo inicial para purga de Bomba 
0D186:  MOVLB  1
0D188:  BTFSC  x02.2
0D18A:  BRA    D1C0
....................                flag_vac=ON; 
0D18C:  BSF    x02.2
....................                outVacio=OFF; 
0D18E:  MOVLB  0
0D190:  BCF    xF7.7
....................                Desfogue=OFF; 
0D192:  BCF    xF8.0
....................                Aire=OFF; 
0D194:  BCF    xF8.1
....................                //Paso=OFF; 
....................                aguaEnfriador=ON; 
0D196:  BSF    xF7.1
....................                delay_ms(70); 
0D198:  MOVLW  46
0D19A:  MOVLB  6
0D19C:  MOVWF  xC2
0D19E:  MOVLB  0
0D1A0:  CALL   1F7A
....................                if(ReservorioLleno) 
0D1A4:  MOVLB  1
0D1A6:  BTFSS  x04.0
0D1A8:  BRA    D1B0
....................                   BombaVacio=ON; 
0D1AA:  MOVLB  0
0D1AC:  BSF    xF7.2
....................                else 
0D1AE:  BRA    D1B4
....................                   BombaVacio=OFF; 
0D1B0:  MOVLB  0
0D1B2:  BCF    xF7.2
....................                IniciaVacio2=ON; 
0D1B4:  MOVLB  1
0D1B6:  BSF    x02.0
....................                PulsoPositivo=10; //Prueba para ver rendimiento de bomba de vacio************ 
0D1B8:  MOVLW  0A
0D1BA:  MOVLB  2
0D1BC:  MOVWF  xA3
0D1BE:  MOVLB  1
....................             } 
....................             printf("Funcionamiento.t4f.txt=\" Ninguna\""); 
0D1C0:  MOVLW  94
0D1C2:  MOVWF  FF6
0D1C4:  MOVLW  18
0D1C6:  MOVWF  FF7
0D1C8:  MOVLW  00
0D1CA:  MOVWF  FF8
0D1CC:  MOVLB  0
0D1CE:  CALL   3FFA
....................             SendDataDisplay(); 
0D1D2:  CALL   402C
....................             ControlaPresion(); 
0D1D6:  CALL   712C
....................             IniciaVacio=ON; 
0D1DA:  MOVLB  1
0D1DC:  BSF    x01.7
....................                 
....................             if(PresionCamara>NivelVacio && PulsoPositivo==10){//Pulso Negativo 
0D1DE:  MOVLB  2
0D1E0:  MOVF   x79,F
0D1E2:  BNZ   D1EA
0D1E4:  MOVF   x78,W
0D1E6:  SUBWF  xA1,W
0D1E8:  BC    D262
0D1EA:  MOVF   xA3,W
0D1EC:  SUBLW  0A
0D1EE:  BNZ   D262
....................                flag_vacio=1; 
0D1F0:  MOVLB  1
0D1F2:  BSF    x02.3
....................                if(ReservorioLleno) 
0D1F4:  BTFSS  x04.0
0D1F6:  BRA    D1FE
....................                   BombaVacio=ON; 
0D1F8:  MOVLB  0
0D1FA:  BSF    xF7.2
....................                else 
0D1FC:  BRA    D202
....................                   BombaVacio=OFF; 
0D1FE:  MOVLB  0
0D200:  BCF    xF7.2
....................                outVacio=ON; 
0D202:  BSF    xF7.7
....................                Desfogue=OFF; 
0D204:  BCF    xF8.0
....................                Aire=OFF;                      
0D206:  BCF    xF8.1
....................                Paso=OFF; 
0D208:  BCF    xF7.6
....................                if(PulsosVacio>=2) 
0D20A:  MOVLB  2
0D20C:  MOVF   xA4,W
0D20E:  SUBLW  01
0D210:  BC    D218
....................                   aguaEnfriador=ON; 
0D212:  MOVLB  0
0D214:  BSF    xF7.1
....................                else 
0D216:  BRA    D21C
....................                   aguaEnfriador=OFF; 
0D218:  MOVLB  0
0D21A:  BCF    xF7.1
....................                if(flag_pulso==0){ 
0D21C:  MOVLB  1
0D21E:  BTFSC  x02.4
0D220:  BRA    D22A
....................                   PulsosVacio++; 
0D222:  MOVLB  2
0D224:  INCF   xA4,F
....................                   flag_pulso=1; 
0D226:  MOVLB  1
0D228:  BSF    x02.4
....................                } 
....................                printf("Funcionamiento.t5f.txt=\" Pulso de Vacio %u\"",PulsosVacio); 
0D22A:  MOVLW  B6
0D22C:  MOVWF  FF6
0D22E:  MOVLW  18
0D230:  MOVWF  FF7
0D232:  MOVLW  00
0D234:  MOVWF  FF8
0D236:  MOVLW  28
0D238:  MOVLB  6
0D23A:  MOVWF  xB5
0D23C:  MOVLB  0
0D23E:  CALL   5994
0D242:  MOVFF  2A4,6B5
0D246:  MOVLW  1B
0D248:  MOVLB  6
0D24A:  MOVWF  xB6
0D24C:  MOVLB  0
0D24E:  CALL   5A18
0D252:  MOVLW  22
0D254:  BTFSS  F9E.4
0D256:  BRA    D254
0D258:  MOVWF  FAD
....................                SendDataDisplay(); 
0D25A:  CALL   402C
....................             }else{ 
0D25E:  BRA    D266
0D260:  MOVLB  2
....................                PulsoPositivo=5; 
0D262:  MOVLW  05
0D264:  MOVWF  xA3
....................             } 
....................              
....................             if(PulsosVacio>=CantidadPulsos && PulsoPositivo==5){//Si realiza los pulsos de vacio, continua con el proceso de calentamiento 
0D266:  MOVLB  2
0D268:  MOVF   x62,F
0D26A:  BNZ   D298
0D26C:  MOVF   x61,W
0D26E:  SUBWF  xA4,W
0D270:  BNC   D298
0D272:  MOVF   xA3,W
0D274:  SUBLW  05
0D276:  BNZ   D298
....................                Vacio=ON; 
0D278:  MOVLB  1
0D27A:  BSF    x02.1
....................                outVacio=OFF; 
0D27C:  MOVLB  0
0D27E:  BCF    xF7.7
....................                BombaVacio=OFF; 
0D280:  BCF    xF7.2
....................                outVacio=OFF; 
0D282:  BCF    xF7.7
....................                Desfogue=OFF; 
0D284:  BCF    xF8.0
....................                Aire=OFF;                                  
0D286:  BCF    xF8.1
....................                IniciaVacio=OFF; 
0D288:  MOVLB  1
0D28A:  BCF    x01.7
....................                Paso=ON; 
0D28C:  MOVLB  0
0D28E:  BSF    xF7.6
....................                aguaEnfriador=OFF; 
0D290:  BCF    xF7.1
....................                PulsoPositivo=10; 
0D292:  MOVLW  0A
0D294:  MOVLB  2
0D296:  MOVWF  xA3
....................             } 
....................                
....................             if(PulsoPositivo==5){//Pulso Positivo 
0D298:  MOVF   xA3,W
0D29A:  SUBLW  05
0D29C:  BNZ   D30C
....................                tvacio=0; 
0D29E:  CLRF   x81
0D2A0:  CLRF   x80
....................                flag_pulso=0; 
0D2A2:  MOVLB  1
0D2A4:  BCF    x02.4
....................                printf("Funcionamiento.t5f.txt=\" Pulso Positivo %u\"",PulsosVacio); 
0D2A6:  MOVLW  E2
0D2A8:  MOVWF  FF6
0D2AA:  MOVLW  18
0D2AC:  MOVWF  FF7
0D2AE:  MOVLW  00
0D2B0:  MOVWF  FF8
0D2B2:  MOVLW  28
0D2B4:  MOVLB  6
0D2B6:  MOVWF  xB5
0D2B8:  MOVLB  0
0D2BA:  CALL   5994
0D2BE:  MOVFF  2A4,6B5
0D2C2:  MOVLW  1B
0D2C4:  MOVLB  6
0D2C6:  MOVWF  xB6
0D2C8:  MOVLB  0
0D2CA:  CALL   5A18
0D2CE:  MOVLW  22
0D2D0:  BTFSS  F9E.4
0D2D2:  BRA    D2D0
0D2D4:  MOVWF  FAD
....................                SendDataDisplay(); 
0D2D6:  CALL   402C
....................                if(ReservorioLleno) 
0D2DA:  MOVLB  1
0D2DC:  BTFSS  x04.0
0D2DE:  BRA    D2E6
....................                   BombaVacio=ON; 
0D2E0:  MOVLB  0
0D2E2:  BSF    xF7.2
....................                else 
0D2E4:  BRA    D2EA
....................                   BombaVacio=OFF; 
0D2E6:  MOVLB  0
0D2E8:  BCF    xF7.2
....................                outVacio=OFF; 
0D2EA:  BCF    xF7.7
....................                Desfogue=OFF; 
0D2EC:  BCF    xF8.0
....................                Aire=OFF;                      
0D2EE:  BCF    xF8.1
....................                Paso=ON;      
0D2F0:  BSF    xF7.6
....................                AguaEnfriador=OFF; 
0D2F2:  BCF    xF7.1
....................                if(PresionCamara>=Atmosferica+50){ 
0D2F4:  MOVLW  32
0D2F6:  MOVLB  2
0D2F8:  ADDWF  xA2,W
0D2FA:  MOVF   x79,F
0D2FC:  BNZ   D302
0D2FE:  SUBWF  x78,W
0D300:  BNC   D30C
....................                   Paso=OFF; 
0D302:  MOVLB  0
0D304:  BCF    xF7.6
....................                   PulsoPositivo=10; 
0D306:  MOVLW  0A
0D308:  MOVLB  2
0D30A:  MOVWF  xA3
....................                }   
....................             } 
....................                 
....................             if(tbomba>=120 && PulsosVacio==0){//Si no se ha generado ningun pulso de vacio despues de 120 segundos se genera alarma 
0D30C:  MOVF   x7F,F
0D30E:  BNZ   D316
0D310:  MOVF   x7E,W
0D312:  SUBLW  77
0D314:  BC    D336
0D316:  MOVF   xA4,F
0D318:  BNZ   D336
....................                if(PresionCamara>Atmosferica){ 
0D31A:  MOVF   x79,F
0D31C:  BNZ   D324
0D31E:  MOVF   x78,W
0D320:  SUBWF  xA2,W
0D322:  BC    D32C
....................                   AlarmaBomba=ON; 
0D324:  MOVLB  0
0D326:  BSF    xF9.7
....................                }else{ 
0D328:  BRA    D336
0D32A:  MOVLB  2
....................                   tbomba=0; 
0D32C:  CLRF   x7F
0D32E:  CLRF   x7E
....................                   IniciaVacio2=OFF; 
0D330:  MOVLB  1
0D332:  BCF    x02.0
0D334:  MOVLB  0
....................                } 
....................              } 
....................                 
....................             if(tvacio>=TiempoVacio){//Si excede el tiempo maximo para generar los pulsos de vacio genera alarma             
0D336:  MOVLB  0
0D338:  MOVF   xFC,W
0D33A:  MOVLB  2
0D33C:  SUBWF  x81,W
0D33E:  BNC   D352
0D340:  BNZ   D34C
0D342:  MOVLB  0
0D344:  MOVF   xFB,W
0D346:  MOVLB  2
0D348:  SUBWF  x80,W
0D34A:  BNC   D352
....................                AlarmaVacio=ON; 
0D34C:  MOVLB  0
0D34E:  BSF    xF9.4
0D350:  MOVLB  2
....................             } 
....................          }else{ 
0D352:  BRA    D87A
0D354:  MOVLB  1
....................             IniciaVacio=OFF;         
0D356:  BCF    x01.7
....................             if(Temperatura>=((float)Setpoint-0.3)){ 
0D358:  MOVLB  6
0D35A:  CLRF   xC3
0D35C:  MOVFF  267,6C2
0D360:  MOVLB  0
0D362:  CALL   1F44
0D366:  MOVFF  00,6B0
0D36A:  MOVFF  01,6B1
0D36E:  MOVFF  02,6B2
0D372:  MOVFF  03,6B3
0D376:  BSF    FD8.1
0D378:  MOVFF  03,6C5
0D37C:  MOVFF  02,6C4
0D380:  MOVFF  01,6C3
0D384:  MOVFF  00,6C2
0D388:  MOVLW  9A
0D38A:  MOVLB  6
0D38C:  MOVWF  xC9
0D38E:  MOVLW  99
0D390:  MOVWF  xC8
0D392:  MOVLW  19
0D394:  MOVWF  xC7
0D396:  MOVLW  7D
0D398:  MOVWF  xC6
0D39A:  MOVLB  0
0D39C:  CALL   2100
0D3A0:  MOVFF  03,6B7
0D3A4:  MOVFF  02,6B6
0D3A8:  MOVFF  01,6B5
0D3AC:  MOVFF  00,6B4
0D3B0:  MOVFF  23C,6BB
0D3B4:  MOVFF  23B,6BA
0D3B8:  MOVFF  23A,6B9
0D3BC:  MOVFF  239,6B8
0D3C0:  CALL   25D6
0D3C4:  BC    D3C8
0D3C6:  BNZ   D3CA
....................                Esterilizando=ON; 
0D3C8:  BSF    xFD.7
....................             } 
....................              
....................             if(Temperatura<((float)Setpoint-0.9) && !Desfogando){ 
0D3CA:  MOVLB  6
0D3CC:  CLRF   xC3
0D3CE:  MOVFF  267,6C2
0D3D2:  MOVLB  0
0D3D4:  CALL   1F44
0D3D8:  MOVFF  00,6B0
0D3DC:  MOVFF  01,6B1
0D3E0:  MOVFF  02,6B2
0D3E4:  MOVFF  03,6B3
0D3E8:  BSF    FD8.1
0D3EA:  MOVFF  03,6C5
0D3EE:  MOVFF  02,6C4
0D3F2:  MOVFF  01,6C3
0D3F6:  MOVFF  00,6C2
0D3FA:  MOVLW  66
0D3FC:  MOVLB  6
0D3FE:  MOVWF  xC9
0D400:  MOVWF  xC8
0D402:  MOVWF  xC7
0D404:  MOVLW  7E
0D406:  MOVWF  xC6
0D408:  MOVLB  0
0D40A:  CALL   2100
0D40E:  MOVFF  23C,6B7
0D412:  MOVFF  23B,6B6
0D416:  MOVFF  23A,6B5
0D41A:  MOVFF  239,6B4
0D41E:  MOVFF  03,6BB
0D422:  MOVFF  02,6BA
0D426:  MOVFF  01,6B9
0D42A:  MOVFF  00,6B8
0D42E:  CALL   25D6
0D432:  BNC   D43A
0D434:  BTFSC  xFE.2
0D436:  BRA    D43A
....................                Esterilizando=OFF; 
0D438:  BCF    xFD.7
....................             } 
....................              
....................             if(!Esterilizando){ 
0D43A:  BTFSC  xFD.7
0D43C:  BRA    D49C
....................                codigoAlarma=12; 
0D43E:  MOVLW  0C
0D440:  MOVLB  2
0D442:  MOVWF  x91
....................                if(codigoAnt!=codigoAlarma){ 
0D444:  MOVF   x91,W
0D446:  SUBWF  x92,W
0D448:  BZ    D454
....................                   codigoAnt=codigoAlarma; 
0D44A:  MOVFF  291,292
....................                   GuardaDatoCiclo();                   
0D44E:  MOVLB  0
0D450:  CALL   6CFC
....................                } 
....................                flag_vac=OFF; 
0D454:  MOVLB  1
0D456:  BCF    x02.2
....................                printf("Funcionamiento.t4f.txt=\" Ninguna\""); 
0D458:  MOVLW  0E
0D45A:  MOVWF  FF6
0D45C:  MOVLW  19
0D45E:  MOVWF  FF7
0D460:  MOVLW  00
0D462:  MOVWF  FF8
0D464:  MOVLB  0
0D466:  CALL   3FFA
....................                SendDataDisplay(); 
0D46A:  CALL   402C
....................                printf("Funcionamiento.t5f.txt=\" Calentando\""); 
0D46E:  MOVLW  30
0D470:  MOVWF  FF6
0D472:  MOVLW  19
0D474:  MOVWF  FF7
0D476:  MOVLW  00
0D478:  MOVWF  FF8
0D47A:  CALL   3FFA
....................                SendDataDisplay(); 
0D47E:  CALL   402C
....................                Controlando=1; 
0D482:  MOVLW  01
0D484:  MOVLB  2
0D486:  MOVWF  x52
....................                Controla(); 
0D488:  MOVLB  0
0D48A:  CALL   71FA
....................                Paso=ON; 
0D48E:  BSF    xF7.6
....................                BombaVacio=OFF; 
0D490:  BCF    xF7.2
....................                outVacio=OFF; 
0D492:  BCF    xF7.7
....................                Aire=OFF; 
0D494:  BCF    xF8.1
....................                Desfogue=OFF; 
0D496:  BCF    xF8.0
....................                aguaEnfriador=OFF; 
0D498:  BCF    xF7.1
....................             }else{ 
0D49A:  BRA    D878
....................                TiempoCiclo=0; 
0D49C:  MOVLB  1
0D49E:  CLRF   x06
0D4A0:  CLRF   x05
....................                if(mEst==0 && sEst==0){  
0D4A2:  MOVF   x14,F
0D4A4:  BTFSS  FD8.2
0D4A6:  BRA    D82A
0D4A8:  MOVF   x13,F
0D4AA:  BTFSS  FD8.2
0D4AC:  BRA    D82A
....................                   if(desfoguelento){ 
0D4AE:  BTFSS  x04.2
0D4B0:  BRA    D5F4
....................                      Controlando=0; 
0D4B2:  MOVLB  2
0D4B4:  CLRF   x52
....................                      if(PresionCamara<(Atmosferica+2)){ 
0D4B6:  MOVLW  02
0D4B8:  ADDWF  xA2,W
0D4BA:  MOVF   x79,F
0D4BC:  BNZ   D58A
0D4BE:  SUBWF  x78,W
0D4C0:  BC    D58A
....................                         Secando=OFF; 
0D4C2:  MOVLB  0
0D4C4:  BCF    xFE.0
....................                         DesfogueSuave=OFF; 
0D4C6:  BCF    xFE.3
....................                         BombaVacio=OFF; 
0D4C8:  BCF    xF7.2
....................                         outVacio=OFF; 
0D4CA:  BCF    xF7.7
....................                         Aire=OFF; 
0D4CC:  BCF    xF8.1
....................                         Desfogue=ON; 
0D4CE:  BSF    xF8.0
....................                         Paso=OFF; 
0D4D0:  BCF    xF7.6
....................                         //Suministro_off; 
....................                         aguaEnfriador=OFF; 
0D4D2:  BCF    xF7.1
....................                         if(Temperatura<=Tapertura){ 
0D4D4:  MOVLB  6
0D4D6:  CLRF   xC3
0D4D8:  MOVFF  260,6C2
0D4DC:  MOVLB  0
0D4DE:  CALL   1F44
0D4E2:  MOVFF  23C,6B7
0D4E6:  MOVFF  23B,6B6
0D4EA:  MOVFF  23A,6B5
0D4EE:  MOVFF  239,6B4
0D4F2:  MOVFF  03,6BB
0D4F6:  MOVFF  02,6BA
0D4FA:  MOVFF  01,6B9
0D4FE:  MOVFF  00,6B8
0D502:  CALL   25D6
0D506:  BC    D50A
0D508:  BNZ   D582
....................                            ActivaAlarma(2); 
0D50A:  MOVLW  02
0D50C:  MOVLB  6
0D50E:  MOVWF  xB0
0D510:  MOVLB  0
0D512:  CALL   5766
....................                            printf("Funcionamiento.t4f.txt=\" Ninguna\""); 
0D516:  MOVLW  56
0D518:  MOVWF  FF6
0D51A:  MOVLW  19
0D51C:  MOVWF  FF7
0D51E:  MOVLW  00
0D520:  MOVWF  FF8
0D522:  CALL   3FFA
....................                            SendDataDisplay(); 
0D526:  CALL   402C
....................                            printf("Funcionamiento.t5f.txt=\" Finalizado\""); 
0D52A:  MOVLW  78
0D52C:  MOVWF  FF6
0D52E:  MOVLW  19
0D530:  MOVWF  FF7
0D532:  MOVLW  00
0D534:  MOVWF  FF8
0D536:  CALL   3FFA
....................                            SendDataDisplay(); 
0D53A:  CALL   402C
....................                            Finalizo=ON; 
0D53E:  MOVLB  1
0D540:  BSF    x00.7
....................                            codigoAlarma=14; 
0D542:  MOVLW  0E
0D544:  MOVLB  2
0D546:  MOVWF  x91
....................                            if(codigoAnt!=codigoAlarma){ 
0D548:  MOVF   x91,W
0D54A:  SUBWF  x92,W
0D54C:  BZ    D558
....................                               codigoAnt=codigoAlarma; 
0D54E:  MOVFF  291,292
....................                               GuardaDatoCiclo();                   
0D552:  MOVLB  0
0D554:  CALL   6CFC
....................                            }                           
....................                            if(!flagImprimir){//Imprime Ciclo Finalizado 
0D558:  MOVLB  1
0D55A:  BTFSC  x03.3
0D55C:  BRA    D580
....................                               Imprime=28; 
0D55E:  MOVLW  1C
0D560:  MOVLB  2
0D562:  MOVWF  xAD
....................                               Envio_Esclavos(); 
0D564:  MOVLB  0
0D566:  CALL   4FF2
....................                               delay_ms(100); 
0D56A:  MOVLW  64
0D56C:  MOVLB  6
0D56E:  MOVWF  xC2
0D570:  MOVLB  0
0D572:  CALL   1F7A
....................                               Imprime=10; 
0D576:  MOVLW  0A
0D578:  MOVLB  2
0D57A:  MOVWF  xAD
....................                               flagImprimir=1; 
0D57C:  MOVLB  1
0D57E:  BSF    x03.3
0D580:  MOVLB  0
....................                            } 
....................                         } 
....................                         incrementaCiclos(); 
0D582:  CALL   70A0
....................                      }else if(PresionCamara>(Atmosferica+10)){ 
0D586:  BRA    D5EE
0D588:  MOVLB  2
0D58A:  MOVLW  0A
0D58C:  ADDWF  xA2,W
0D58E:  MOVF   x79,F
0D590:  BNZ   D598
0D592:  SUBWF  x78,W
0D594:  BZ    D5F0
0D596:  BNC   D5F0
....................                         codigoAlarma=13; 
0D598:  MOVLW  0D
0D59A:  MOVWF  x91
....................                         if(codigoAnt!=codigoAlarma){ 
0D59C:  MOVF   x91,W
0D59E:  SUBWF  x92,W
0D5A0:  BZ    D5AC
....................                            codigoAnt=codigoAlarma; 
0D5A2:  MOVFF  291,292
....................                            GuardaDatoCiclo();                   
0D5A6:  MOVLB  0
0D5A8:  CALL   6CFC
....................                         } 
....................                         Desfogando=ON; 
0D5AC:  MOVLB  0
0D5AE:  BSF    xFE.2
....................                         DesfogueSuave=ON; 
0D5B0:  BSF    xFE.3
....................                         printf("Funcionamiento.t4f.txt=\" Ninguna\""); 
0D5B2:  MOVLW  9E
0D5B4:  MOVWF  FF6
0D5B6:  MOVLW  19
0D5B8:  MOVWF  FF7
0D5BA:  MOVLW  00
0D5BC:  MOVWF  FF8
0D5BE:  CALL   3FFA
....................                         SendDataDisplay(); 
0D5C2:  CALL   402C
....................                         printf("Funcionamiento.t5f.txt=\" Despresurizando\""); 
0D5C6:  MOVLW  C0
0D5C8:  MOVWF  FF6
0D5CA:  MOVLW  19
0D5CC:  MOVWF  FF7
0D5CE:  MOVLW  00
0D5D0:  MOVWF  FF8
0D5D2:  CALL   3FFA
....................                         SendDataDisplay(); 
0D5D6:  CALL   402C
....................                         Controlando=0; 
0D5DA:  MOVLB  2
0D5DC:  CLRF   x52
....................                         Desfogue=ON; 
0D5DE:  MOVLB  0
0D5E0:  BSF    xF8.0
....................                         Paso=ON; 
0D5E2:  BSF    xF7.6
....................                         BombaVacio=OFF; 
0D5E4:  BCF    xF7.2
....................                         aguaEnfriador=OFF; 
0D5E6:  BCF    xF7.1
....................                         outVacio=OFF; 
0D5E8:  BCF    xF7.7
....................                         Aire=OFF;  
0D5EA:  BCF    xF8.1
....................                         suministroVapor=OFF; 
0D5EC:  BCF    xF7.5
0D5EE:  MOVLB  2
....................                      } 
....................                   }else{                      
0D5F0:  BRA    D826
0D5F2:  MOVLB  1
....................                      Paso=OFF; 
0D5F4:  MOVLB  0
0D5F6:  BCF    xF7.6
....................                      Controlando=0; 
0D5F8:  MOVLB  2
0D5FA:  CLRF   x52
....................                      Control=0; 
0D5FC:  CLRF   x50
....................                      if(PresionCamara<(Atmosferica+2)){   
0D5FE:  MOVLW  02
0D600:  ADDWF  xA2,W
0D602:  MOVF   x79,F
0D604:  BTFSS  FD8.2
0D606:  BRA    D7B2
0D608:  SUBWF  x78,W
0D60A:  BTFSC  FD8.0
0D60C:  BRA    D7B2
....................                         if(sSec==0 && mSec==0){                           
0D60E:  MOVLB  1
0D610:  MOVF   x15,F
0D612:  BTFSS  FD8.2
0D614:  BRA    D712
0D616:  MOVF   x16,F
0D618:  BTFSS  FD8.2
0D61A:  BRA    D712
....................                            codigoAlarma=15; 
0D61C:  MOVLW  0F
0D61E:  MOVLB  2
0D620:  MOVWF  x91
....................                            if(codigoAnt!=codigoAlarma){ 
0D622:  MOVF   x91,W
0D624:  SUBWF  x92,W
0D626:  BZ    D634
....................                               codigoAnt=codigoAlarma; 
0D628:  MOVFF  291,292
....................                               GuardaDatoCiclo();                   
0D62C:  MOVLB  0
0D62E:  CALL   6CFC
0D632:  MOVLB  2
....................                            } 
....................                            if(!DOORS){ 
0D634:  BSF    F93.3
0D636:  BTFSS  F81.3
0D638:  BRA    D644
....................                               Desfogue=OFF; 
0D63A:  MOVLB  0
0D63C:  BCF    xF8.0
....................                               Paso=OFF; 
0D63E:  BCF    xF7.6
....................                            }else{ 
0D640:  BRA    D64A
0D642:  MOVLB  2
....................                               Desfogue=ON;                               
0D644:  MOVLB  0
0D646:  BSF    xF8.0
....................                               Paso=OFF; 
0D648:  BCF    xF7.6
....................                            }     
....................                            BombaVacio=OFF; 
0D64A:  BCF    xF7.2
....................                            aguaEnfriador=OFF; 
0D64C:  BCF    xF7.1
....................                            outVacio=OFF; 
0D64E:  BCF    xF7.7
....................                            Aire=ON; 
0D650:  BSF    xF8.1
....................                            Desfogue=ON; 
0D652:  BSF    xF8.0
....................                            Paso=OFF; 
0D654:  BCF    xF7.6
....................                            suministroVapor=OFF; 
0D656:  BCF    xF7.5
....................                            Secando=OFF; 
0D658:  BCF    xFE.0
....................                            if(Temperatura<=Tapertura){ 
0D65A:  MOVLB  6
0D65C:  CLRF   xC3
0D65E:  MOVFF  260,6C2
0D662:  MOVLB  0
0D664:  CALL   1F44
0D668:  MOVFF  23C,6B7
0D66C:  MOVFF  23B,6B6
0D670:  MOVFF  23A,6B5
0D674:  MOVFF  239,6B4
0D678:  MOVFF  03,6BB
0D67C:  MOVFF  02,6BA
0D680:  MOVFF  01,6B9
0D684:  MOVFF  00,6B8
0D688:  CALL   25D6
0D68C:  BC    D690
0D68E:  BNZ   D708
....................                               ActivaAlarma(2); 
0D690:  MOVLW  02
0D692:  MOVLB  6
0D694:  MOVWF  xB0
0D696:  MOVLB  0
0D698:  CALL   5766
....................                               printf("Funcionamiento.t4f.txt=\" Ninguna\""); 
0D69C:  MOVLW  EA
0D69E:  MOVWF  FF6
0D6A0:  MOVLW  19
0D6A2:  MOVWF  FF7
0D6A4:  MOVLW  00
0D6A6:  MOVWF  FF8
0D6A8:  CALL   3FFA
....................                               SendDataDisplay(); 
0D6AC:  CALL   402C
....................                               printf("Funcionamiento.t5f.txt=\" Finalizado\""); 
0D6B0:  MOVLW  0C
0D6B2:  MOVWF  FF6
0D6B4:  MOVLW  1A
0D6B6:  MOVWF  FF7
0D6B8:  MOVLW  00
0D6BA:  MOVWF  FF8
0D6BC:  CALL   3FFA
....................                               SendDataDisplay(); 
0D6C0:  CALL   402C
....................                               Finalizo=ON; 
0D6C4:  MOVLB  1
0D6C6:  BSF    x00.7
....................                               codigoAlarma=14; 
0D6C8:  MOVLW  0E
0D6CA:  MOVLB  2
0D6CC:  MOVWF  x91
....................                               if(codigoAnt!=codigoAlarma){ 
0D6CE:  MOVF   x91,W
0D6D0:  SUBWF  x92,W
0D6D2:  BZ    D6DE
....................                                  codigoAnt=codigoAlarma; 
0D6D4:  MOVFF  291,292
....................                                  GuardaDatoCiclo();                   
0D6D8:  MOVLB  0
0D6DA:  CALL   6CFC
....................                               } 
....................                               if(!flagImprimir){//Imprime Ciclo Finalizado 
0D6DE:  MOVLB  1
0D6E0:  BTFSC  x03.3
0D6E2:  BRA    D706
....................                                  Imprime=28; 
0D6E4:  MOVLW  1C
0D6E6:  MOVLB  2
0D6E8:  MOVWF  xAD
....................                                  Envio_Esclavos(); 
0D6EA:  MOVLB  0
0D6EC:  CALL   4FF2
....................                                  delay_ms(100); 
0D6F0:  MOVLW  64
0D6F2:  MOVLB  6
0D6F4:  MOVWF  xC2
0D6F6:  MOVLB  0
0D6F8:  CALL   1F7A
....................                                  Imprime=10; 
0D6FC:  MOVLW  0A
0D6FE:  MOVLB  2
0D700:  MOVWF  xAD
....................                                  flagImprimir=1; 
0D702:  MOVLB  1
0D704:  BSF    x03.3
0D706:  MOVLB  0
....................                               } 
....................                            } 
....................                            incrementaCiclos(); 
0D708:  CALL   70A0
....................                            Secando=OFF; 
0D70C:  BCF    xFE.0
....................                         }else{ 
0D70E:  BRA    D7AE
0D710:  MOVLB  1
....................                            if(Secando){ 
0D712:  MOVLB  0
0D714:  BTFSS  xFE.0
0D716:  BRA    D740
....................                               printf("Funcionamiento.t4f.txt=\" Ninguna\""); 
0D718:  MOVLW  32
0D71A:  MOVWF  FF6
0D71C:  MOVLW  1A
0D71E:  MOVWF  FF7
0D720:  MOVLW  00
0D722:  MOVWF  FF8
0D724:  CALL   3FFA
....................                               SendDataDisplay(); 
0D728:  CALL   402C
....................                               printf("Funcionamiento.t5f.txt=\" Secando\""); 
0D72C:  MOVLW  54
0D72E:  MOVWF  FF6
0D730:  MOVLW  1A
0D732:  MOVWF  FF7
0D734:  MOVLW  00
0D736:  MOVWF  FF8
0D738:  CALL   3FFA
....................                               SendDataDisplay(); 
0D73C:  CALL   402C
....................                            } 
....................                            Paso=OFF; 
0D740:  BCF    xF7.6
....................                            ControlaPresion(); 
0D742:  CALL   712C
....................                            if(PresionCamara>NivelVacio+5){//Si la presin de la camara es mayor al nivel de vacio 
0D746:  MOVLW  05
0D748:  MOVLB  2
0D74A:  ADDWF  xA1,W
0D74C:  MOVF   x79,F
0D74E:  BNZ   D756
0D750:  SUBWF  x78,W
0D752:  BZ    D772
0D754:  BNC   D772
....................                               if(ReservorioLleno) 
0D756:  MOVLB  1
0D758:  BTFSS  x04.0
0D75A:  BRA    D762
....................                                  BombaVacio=ON; 
0D75C:  MOVLB  0
0D75E:  BSF    xF7.2
....................                               else 
0D760:  BRA    D766
....................                                  BombaVacio=ON; 
0D762:  MOVLB  0
0D764:  BSF    xF7.2
....................                               outVacio=ON; 
0D766:  BSF    xF7.7
....................                               aguaEnfriador=ON; 
0D768:  BSF    xF7.1
....................                               Desfogue=OFF; 
0D76A:  BCF    xF8.0
....................                               Aire=OFF; 
0D76C:  BCF    xF8.1
....................                               Paso=OFF; 
0D76E:  BCF    xF7.6
0D770:  MOVLB  2
....................                            } 
....................        
....................                            if(PresionCamara<=NivelVacio){//Si alcanzo el nivel de vacio requerido 
0D772:  MOVF   x79,F
0D774:  BNZ   D7B0
0D776:  MOVF   x78,W
0D778:  SUBWF  xA1,W
0D77A:  BNC   D7B0
....................                               codigoAlarma=15; 
0D77C:  MOVLW  0F
0D77E:  MOVWF  x91
....................                               if(codigoAnt!=codigoAlarma){ 
0D780:  MOVF   x91,W
0D782:  SUBWF  x92,W
0D784:  BZ    D790
....................                                  codigoAnt=codigoAlarma; 
0D786:  MOVFF  291,292
....................                                  GuardaDatoCiclo();                   
0D78A:  MOVLB  0
0D78C:  CALL   6CFC
....................                               } 
....................                               Secando=ON; 
0D790:  MOVLB  0
0D792:  BSF    xFE.0
....................                               if(ReservorioLleno) 
0D794:  MOVLB  1
0D796:  BTFSS  x04.0
0D798:  BRA    D7A0
....................                                  BombaVacio=ON; 
0D79A:  MOVLB  0
0D79C:  BSF    xF7.2
....................                               else 
0D79E:  BRA    D7A4
....................                                  BombaVacio=OFF; 
0D7A0:  MOVLB  0
0D7A2:  BCF    xF7.2
....................                               aguaEnfriador=ON; 
0D7A4:  BSF    xF7.1
....................                               outVacio=ON; 
0D7A6:  BSF    xF7.7
....................                               Desfogue=OFF; 
0D7A8:  BCF    xF8.0
....................                               Aire=ON;                      
0D7AA:  BSF    xF8.1
....................                               Paso=OFF; 
0D7AC:  BCF    xF7.6
0D7AE:  MOVLB  2
....................                            } 
....................                         } 
....................                      }else if(PresionCamara>(Atmosferica+5)){ 
0D7B0:  BRA    D826
0D7B2:  MOVLW  05
0D7B4:  ADDWF  xA2,W
0D7B6:  MOVF   x79,F
0D7B8:  BNZ   D7C0
0D7BA:  SUBWF  x78,W
0D7BC:  BZ    D826
0D7BE:  BNC   D826
....................                         codigoAlarma=13; 
0D7C0:  MOVLW  0D
0D7C2:  MOVWF  x91
....................                         if(codigoAnt!=codigoAlarma){ 
0D7C4:  MOVF   x91,W
0D7C6:  SUBWF  x92,W
0D7C8:  BZ    D7D4
....................                            codigoAnt=codigoAlarma; 
0D7CA:  MOVFF  291,292
....................                            GuardaDatoCiclo();                   
0D7CE:  MOVLB  0
0D7D0:  CALL   6CFC
....................                         } 
....................                         Desfogando=ON; 
0D7D4:  MOVLB  0
0D7D6:  BSF    xFE.2
....................                         printf("Funcionamiento.t4f.txt=\" Ninguna\""); 
0D7D8:  MOVLW  76
0D7DA:  MOVWF  FF6
0D7DC:  MOVLW  1A
0D7DE:  MOVWF  FF7
0D7E0:  MOVLW  00
0D7E2:  MOVWF  FF8
0D7E4:  CALL   3FFA
....................                         SendDataDisplay(); 
0D7E8:  CALL   402C
....................                         printf("Funcionamiento.t5f.txt=\" Despresurizando\""); 
0D7EC:  MOVLW  98
0D7EE:  MOVWF  FF6
0D7F0:  MOVLW  1A
0D7F2:  MOVWF  FF7
0D7F4:  MOVLW  00
0D7F6:  MOVWF  FF8
0D7F8:  CALL   3FFA
....................                         SendDataDisplay(); 
0D7FC:  CALL   402C
....................                         Control=0; 
0D800:  MOVLB  2
0D802:  CLRF   x50
....................                         Controlando=0; 
0D804:  CLRF   x52
....................                         Paso=OFF; 
0D806:  MOVLB  0
0D808:  BCF    xF7.6
....................                         Desfogue=OFF; 
0D80A:  BCF    xF8.0
....................                         if(ReservorioLleno) 
0D80C:  MOVLB  1
0D80E:  BTFSS  x04.0
0D810:  BRA    D818
....................                            BombaVacio=ON; 
0D812:  MOVLB  0
0D814:  BSF    xF7.2
....................                         else 
0D816:  BRA    D81C
....................                            BombaVacio=OFF;    
0D818:  MOVLB  0
0D81A:  BCF    xF7.2
....................                         aguaEnfriador=ON; 
0D81C:  BSF    xF7.1
....................                         outVacio=ON; 
0D81E:  BSF    xF7.7
....................                         Aire=OFF; 
0D820:  BCF    xF8.1
....................                         suministroVapor=OFF; 
0D822:  BCF    xF7.5
0D824:  MOVLB  2
....................                      } 
....................                   } 
....................                }else{ 
0D826:  BRA    D87A
0D828:  MOVLB  1
....................                   codigoAlarma=16; 
0D82A:  MOVLW  10
0D82C:  MOVLB  2
0D82E:  MOVWF  x91
....................                   if(codigoAnt!=codigoAlarma){ 
0D830:  MOVF   x91,W
0D832:  SUBWF  x92,W
0D834:  BZ    D842
....................                      codigoAnt=codigoAlarma; 
0D836:  MOVFF  291,292
....................                      GuardaDatoCiclo();                   
0D83A:  MOVLB  0
0D83C:  CALL   6CFC
0D840:  MOVLB  2
....................                   } 
....................                   printf("Funcionamiento.t4f.txt=\" Ninguna\""); 
0D842:  MOVLW  C2
0D844:  MOVWF  FF6
0D846:  MOVLW  1A
0D848:  MOVWF  FF7
0D84A:  MOVLW  00
0D84C:  MOVWF  FF8
0D84E:  MOVLB  0
0D850:  CALL   3FFA
....................                   SendDataDisplay(); 
0D854:  CALL   402C
....................                   printf("Funcionamiento.t5f.txt=\" Esterilizando\""); 
0D858:  MOVLW  E4
0D85A:  MOVWF  FF6
0D85C:  MOVLW  1A
0D85E:  MOVWF  FF7
0D860:  MOVLW  00
0D862:  MOVWF  FF8
0D864:  CALL   3FFA
....................                   SendDataDisplay(); 
0D868:  CALL   402C
....................                   //Paso_on; 
....................                   Control=1; 
0D86C:  MOVLW  01
0D86E:  MOVLB  2
0D870:  MOVWF  x50
....................                   Controla(); 
0D872:  MOVLB  0
0D874:  CALL   71FA
0D878:  MOVLB  2
....................                } 
....................             } 
....................          } 
....................       }  
....................       }else{ 
0D87A:  BRA    DA4C
0D87C:  MOVLB  1
....................       EstadoBuzzer=OFF; 
0D87E:  BCF    x00.3
....................       IniciaCiclo=ON; 
0D880:  MOVLB  0
0D882:  BSF    xFD.6
....................          if(!flag_vac){ 
0D884:  MOVLB  1
0D886:  BTFSC  x02.2
0D888:  BRA    D8D0
....................             codigoAlarma=11; 
0D88A:  MOVLW  0B
0D88C:  MOVLB  2
0D88E:  MOVWF  x91
....................             if(codigoAnt!=codigoAlarma){ 
0D890:  MOVF   x91,W
0D892:  SUBWF  x92,W
0D894:  BZ    D8A0
....................                codigoAnt=codigoAlarma; 
0D896:  MOVFF  291,292
....................                GuardaDatoCiclo();                
0D89A:  MOVLB  0
0D89C:  CALL   6CFC
....................             } 
....................             flag_vac=ON; 
0D8A0:  MOVLB  1
0D8A2:  BSF    x02.2
....................             if(ReservorioLleno) 
0D8A4:  BTFSS  x04.0
0D8A6:  BRA    D8AE
....................                BombaVacio=ON; 
0D8A8:  MOVLB  0
0D8AA:  BSF    xF7.2
....................             else 
0D8AC:  BRA    D8B2
....................                BombaVacio=OFF; 
0D8AE:  MOVLB  0
0D8B0:  BCF    xF7.2
....................             Desfogue=OFF; 
0D8B2:  BCF    xF8.0
....................             Aire=OFF; 
0D8B4:  BCF    xF8.1
....................             aguaEnfriador=OFF; 
0D8B6:  BCF    xF7.1
....................             Paso=OFF; 
0D8B8:  BCF    xF7.6
....................             suministroVapor=OFF; 
0D8BA:  BCF    xF7.5
....................             delay_ms(70); 
0D8BC:  MOVLW  46
0D8BE:  MOVLB  6
0D8C0:  MOVWF  xC2
0D8C2:  MOVLB  0
0D8C4:  CALL   1F7A
....................             IniciaVacio2=ON; 
0D8C8:  MOVLB  1
0D8CA:  BSF    x02.0
....................             outVacio=ON; 
0D8CC:  MOVLB  0
0D8CE:  BSF    xF7.7
....................          } 
....................           
....................          if(tbomba>=120){ 
0D8D0:  MOVLB  2
0D8D2:  MOVF   x7F,F
0D8D4:  BNZ   D8DC
0D8D6:  MOVF   x7E,W
0D8D8:  SUBLW  77
0D8DA:  BC    D8F8
....................             if(PresionCamara>Atmosferica){ 
0D8DC:  MOVF   x79,F
0D8DE:  BNZ   D8E6
0D8E0:  MOVF   x78,W
0D8E2:  SUBWF  xA2,W
0D8E4:  BC    D8EE
....................                AlarmaBomba=ON; 
0D8E6:  MOVLB  0
0D8E8:  BSF    xF9.7
....................             }else{ 
0D8EA:  BRA    D8F8
0D8EC:  MOVLB  2
....................                tbomba=0; 
0D8EE:  CLRF   x7F
0D8F0:  CLRF   x7E
....................                IniciaVacio2=OFF; 
0D8F2:  MOVLB  1
0D8F4:  BCF    x02.0
0D8F6:  MOVLB  0
....................             } 
....................          } 
....................           
....................          if(tvacio>=TiempoVacio){//Si excede el tiempo maximo para generar los pulsos de vacio genera alarma             
0D8F8:  MOVLB  0
0D8FA:  MOVF   xFC,W
0D8FC:  MOVLB  2
0D8FE:  SUBWF  x81,W
0D900:  BNC   D914
0D902:  BNZ   D90E
0D904:  MOVLB  0
0D906:  MOVF   xFB,W
0D908:  MOVLB  2
0D90A:  SUBWF  x80,W
0D90C:  BNC   D914
....................                AlarmaVacio=ON; 
0D90E:  MOVLB  0
0D910:  BSF    xF9.4
0D912:  MOVLB  2
....................          } 
....................           
....................          if(PresionCamara<17){ 
0D914:  MOVF   x79,F
0D916:  BNZ   D93A
0D918:  MOVF   x78,W
0D91A:  SUBLW  10
0D91C:  BNC   D93A
....................             BombaVacio=OFF; 
0D91E:  MOVLB  0
0D920:  BCF    xF7.2
....................             outVacio=OFF; 
0D922:  BCF    xF7.7
....................             Desfogue=OFF; 
0D924:  BCF    xF8.0
....................             Aire=OFF; 
0D926:  BCF    xF8.1
....................             aguaEnfriador=OFF; 
0D928:  BCF    xF7.1
....................             Paso=OFF; 
0D92A:  BCF    xF7.6
....................             suministroVapor=OFF; 
0D92C:  BCF    xF7.5
....................             Esterilizando=ON; 
0D92E:  BSF    xFD.7
....................             IniciaVacio=OFF; 
0D930:  MOVLB  1
0D932:  BCF    x01.7
....................             tbomba=0; 
0D934:  MOVLB  2
0D936:  CLRF   x7F
0D938:  CLRF   x7E
....................          }  
....................           
....................          if(!Esterilizando){ 
0D93A:  MOVLB  0
0D93C:  BTFSC  xFD.7
0D93E:  BRA    D978
....................             if(ReservorioLleno) 
0D940:  MOVLB  1
0D942:  BTFSS  x04.0
0D944:  BRA    D94C
....................                BombaVacio=ON; 
0D946:  MOVLB  0
0D948:  BSF    xF7.2
....................             else 
0D94A:  BRA    D950
....................                BombaVacio=OFF; 
0D94C:  MOVLB  0
0D94E:  BCF    xF7.2
....................              
....................             printf("Funcionamiento.t4f.txt=\" Ninguna\""); 
0D950:  MOVLW  0C
0D952:  MOVWF  FF6
0D954:  MOVLW  1B
0D956:  MOVWF  FF7
0D958:  MOVLW  00
0D95A:  MOVWF  FF8
0D95C:  CALL   3FFA
....................             SendDataDisplay(); 
0D960:  CALL   402C
....................             printf("Funcionamiento.t5f.txt=\" Vacio\""); 
0D964:  MOVLW  2E
0D966:  MOVWF  FF6
0D968:  MOVLW  1B
0D96A:  MOVWF  FF7
0D96C:  MOVLW  00
0D96E:  MOVWF  FF8
0D970:  CALL   3FFA
....................             SendDataDisplay(); 
0D974:  CALL   402C
....................          } 
....................           
....................          if(mEst==0 && sEst==0){   
0D978:  MOVLB  1
0D97A:  MOVF   x14,F
0D97C:  BNZ   DA4A
0D97E:  MOVF   x13,F
0D980:  BNZ   DA4A
....................             IniciaVacio=OFF; 
0D982:  BCF    x01.7
....................             tbomba=0; 
0D984:  MOVLB  2
0D986:  CLRF   x7F
0D988:  CLRF   x7E
....................             BombaVacio=OFF; 
0D98A:  MOVLB  0
0D98C:  BCF    xF7.2
....................             outVacio=OFF; 
0D98E:  BCF    xF7.7
....................             Desfogue=OFF; 
0D990:  BCF    xF8.0
....................             Aire=ON; 
0D992:  BSF    xF8.1
....................             Paso=OFF; 
0D994:  BCF    xF7.6
....................             suministroVapor=OFF; 
0D996:  BCF    xF7.5
....................             aguaEnfriador=OFF; 
0D998:  BCF    xF7.1
....................             ActivaAlarma(2); 
0D99A:  MOVLW  02
0D99C:  MOVLB  6
0D99E:  MOVWF  xB0
0D9A0:  MOVLB  0
0D9A2:  CALL   5766
....................             if(!Finalizo){ 
0D9A6:  MOVLB  1
0D9A8:  BTFSC  x00.7
0D9AA:  BRA    DA40
....................                Finalizo=ON; 
0D9AC:  BSF    x00.7
....................                if(PresionCamara<=60){ 
0D9AE:  MOVLB  2
0D9B0:  MOVF   x79,F
0D9B2:  BNZ   D9FE
0D9B4:  MOVF   x78,W
0D9B6:  SUBLW  3C
0D9B8:  BNC   D9FE
....................                   printf("Funcionamiento.t4f.txt=\" Ninguna\""); 
0D9BA:  MOVLW  4E
0D9BC:  MOVWF  FF6
0D9BE:  MOVLW  1B
0D9C0:  MOVWF  FF7
0D9C2:  MOVLW  00
0D9C4:  MOVWF  FF8
0D9C6:  MOVLB  0
0D9C8:  CALL   3FFA
....................                   SendDataDisplay(); 
0D9CC:  CALL   402C
....................                   printf("Funcionamiento.t5f.txt=\" Finalizado\""); 
0D9D0:  MOVLW  70
0D9D2:  MOVWF  FF6
0D9D4:  MOVLW  1B
0D9D6:  MOVWF  FF7
0D9D8:  MOVLW  00
0D9DA:  MOVWF  FF8
0D9DC:  CALL   3FFA
....................                   SendDataDisplay(); 
0D9E0:  CALL   402C
....................                   codigoAlarma=14; 
0D9E4:  MOVLW  0E
0D9E6:  MOVLB  2
0D9E8:  MOVWF  x91
....................                   if(codigoAnt!=codigoAlarma){ 
0D9EA:  MOVF   x91,W
0D9EC:  SUBWF  x92,W
0D9EE:  BZ    D9FC
....................                      codigoAnt=codigoAlarma; 
0D9F0:  MOVFF  291,292
....................                      GuardaDatoCiclo();                   
0D9F4:  MOVLB  0
0D9F6:  CALL   6CFC
0D9FA:  MOVLB  2
....................                   } 
....................                }else{ 
0D9FC:  BRA    DA40
....................                   printf("Funcionamiento.t4f.txt=\" Error Ciclo\""); 
0D9FE:  MOVLW  96
0DA00:  MOVWF  FF6
0DA02:  MOVLW  1B
0DA04:  MOVWF  FF7
0DA06:  MOVLW  00
0DA08:  MOVWF  FF8
0DA0A:  MOVLB  0
0DA0C:  CALL   3FFA
....................                   SendDataDisplay(); 
0DA10:  CALL   402C
....................                   printf("Funcionamiento.t5f.txt=\" Finalizado\""); 
0DA14:  MOVLW  BC
0DA16:  MOVWF  FF6
0DA18:  MOVLW  1B
0DA1A:  MOVWF  FF7
0DA1C:  MOVLW  00
0DA1E:  MOVWF  FF8
0DA20:  CALL   3FFA
....................                   SendDataDisplay(); 
0DA24:  CALL   402C
....................                   codigoAlarma=8; 
0DA28:  MOVLW  08
0DA2A:  MOVLB  2
0DA2C:  MOVWF  x91
....................                   if(codigoAnt!=codigoAlarma){ 
0DA2E:  MOVF   x91,W
0DA30:  SUBWF  x92,W
0DA32:  BZ    DA40
....................                      codigoAnt=codigoAlarma; 
0DA34:  MOVFF  291,292
....................                      GuardaDatoCiclo();                   
0DA38:  MOVLB  0
0DA3A:  CALL   6CFC
0DA3E:  MOVLB  2
....................                   } 
....................                } 
....................             } 
....................             incrementaCiclos(); 
0DA40:  MOVLB  0
0DA42:  CALL   70A0
....................             Esterilizando=OFF; 
0DA46:  BCF    xFD.7
0DA48:  MOVLB  1
0DA4A:  MOVLB  2
....................          } 
....................       } 
....................    } 
....................  
....................    if(tguarda>=180){ 
0DA4C:  MOVLB  1
0DA4E:  MOVF   x0E,F
0DA50:  BNZ   DA58
0DA52:  MOVF   x0D,W
0DA54:  SUBLW  B3
0DA56:  BC    DA68
....................       if(!Ciclo) 
0DA58:  MOVLB  0
0DA5A:  BTFSC  xFF.2
0DA5C:  BRA    DA62
....................          GuardaDatoCiclo(); 
0DA5E:  CALL   6CFC
....................       tguarda=0; 
0DA62:  MOVLB  1
0DA64:  CLRF   x0E
0DA66:  CLRF   x0D
....................    } 
....................  
....................    if(Grafica==1){ 
0DA68:  BTFSS  x04.4
0DA6A:  BRA    DBDE
....................       printf("add 12,0,%1.0f",Temperatura*0.66); 
0DA6C:  MOVFF  23C,6C9
0DA70:  MOVFF  23B,6C8
0DA74:  MOVFF  23A,6C7
0DA78:  MOVFF  239,6C6
0DA7C:  MOVLW  C3
0DA7E:  MOVLB  6
0DA80:  MOVWF  xCD
0DA82:  MOVLW  F5
0DA84:  MOVWF  xCC
0DA86:  MOVLW  28
0DA88:  MOVWF  xCB
0DA8A:  MOVLW  7E
0DA8C:  MOVWF  xCA
0DA8E:  MOVLB  0
0DA90:  CALL   406A
0DA94:  MOVFF  00,6B0
0DA98:  MOVFF  01,6B1
0DA9C:  MOVFF  02,6B2
0DAA0:  MOVFF  03,6B3
0DAA4:  MOVLW  E2
0DAA6:  MOVWF  FF6
0DAA8:  MOVLW  1B
0DAAA:  MOVWF  FF7
0DAAC:  MOVLW  00
0DAAE:  MOVWF  FF8
0DAB0:  MOVLW  09
0DAB2:  MOVLB  6
0DAB4:  MOVWF  xB5
0DAB6:  MOVLB  0
0DAB8:  CALL   5994
0DABC:  MOVLW  00
0DABE:  MOVWF  FE9
0DAC0:  MOVFF  6B3,6B8
0DAC4:  MOVFF  6B2,6B7
0DAC8:  MOVFF  6B1,6B6
0DACC:  MOVFF  6B0,6B5
0DAD0:  MOVLB  6
0DAD2:  CLRF   xB9
0DAD4:  MOVLB  0
0DAD6:  CALL   5C7E
....................       SendDataDisplay(); 
0DADA:  CALL   402C
....................       printf("add 12,1,%1.0f",PresionCamara*0.66); 
0DADE:  MOVFF  279,6C3
0DAE2:  MOVFF  278,6C2
0DAE6:  CALL   1F44
0DAEA:  MOVFF  03,6C9
0DAEE:  MOVFF  02,6C8
0DAF2:  MOVFF  01,6C7
0DAF6:  MOVFF  00,6C6
0DAFA:  MOVLW  C3
0DAFC:  MOVLB  6
0DAFE:  MOVWF  xCD
0DB00:  MOVLW  F5
0DB02:  MOVWF  xCC
0DB04:  MOVLW  28
0DB06:  MOVWF  xCB
0DB08:  MOVLW  7E
0DB0A:  MOVWF  xCA
0DB0C:  MOVLB  0
0DB0E:  CALL   406A
0DB12:  MOVFF  00,6B0
0DB16:  MOVFF  01,6B1
0DB1A:  MOVFF  02,6B2
0DB1E:  MOVFF  03,6B3
0DB22:  MOVLW  F2
0DB24:  MOVWF  FF6
0DB26:  MOVLW  1B
0DB28:  MOVWF  FF7
0DB2A:  MOVLW  00
0DB2C:  MOVWF  FF8
0DB2E:  MOVLW  09
0DB30:  MOVLB  6
0DB32:  MOVWF  xB5
0DB34:  MOVLB  0
0DB36:  CALL   5994
0DB3A:  MOVLW  00
0DB3C:  MOVWF  FE9
0DB3E:  MOVFF  6B3,6B8
0DB42:  MOVFF  6B2,6B7
0DB46:  MOVFF  6B1,6B6
0DB4A:  MOVFF  6B0,6B5
0DB4E:  MOVLB  6
0DB50:  CLRF   xB9
0DB52:  MOVLB  0
0DB54:  CALL   5C7E
....................       SendDataDisplay(); 
0DB58:  CALL   402C
....................       printf("add 12,2,%1.0f",PresionPreCamara*0.66); 
0DB5C:  MOVFF  27B,6C3
0DB60:  MOVFF  27A,6C2
0DB64:  CALL   1F44
0DB68:  MOVFF  03,6C9
0DB6C:  MOVFF  02,6C8
0DB70:  MOVFF  01,6C7
0DB74:  MOVFF  00,6C6
0DB78:  MOVLW  C3
0DB7A:  MOVLB  6
0DB7C:  MOVWF  xCD
0DB7E:  MOVLW  F5
0DB80:  MOVWF  xCC
0DB82:  MOVLW  28
0DB84:  MOVWF  xCB
0DB86:  MOVLW  7E
0DB88:  MOVWF  xCA
0DB8A:  MOVLB  0
0DB8C:  CALL   406A
0DB90:  MOVFF  00,6B0
0DB94:  MOVFF  01,6B1
0DB98:  MOVFF  02,6B2
0DB9C:  MOVFF  03,6B3
0DBA0:  MOVLW  02
0DBA2:  MOVWF  FF6
0DBA4:  MOVLW  1C
0DBA6:  MOVWF  FF7
0DBA8:  MOVLW  00
0DBAA:  MOVWF  FF8
0DBAC:  MOVLW  09
0DBAE:  MOVLB  6
0DBB0:  MOVWF  xB5
0DBB2:  MOVLB  0
0DBB4:  CALL   5994
0DBB8:  MOVLW  00
0DBBA:  MOVWF  FE9
0DBBC:  MOVFF  6B3,6B8
0DBC0:  MOVFF  6B2,6B7
0DBC4:  MOVFF  6B1,6B6
0DBC8:  MOVFF  6B0,6B5
0DBCC:  MOVLB  6
0DBCE:  CLRF   xB9
0DBD0:  MOVLB  0
0DBD2:  CALL   5C7E
....................       SendDataDisplay(); 
0DBD6:  CALL   402C
....................       Grafica=0; 
0DBDA:  MOVLB  1
0DBDC:  BCF    x04.4
....................    } 
....................    if(Lectura==1)// Utilizado para visualizar la lectura de la temperatura 
0DBDE:  BTFSS  x04.3
0DBE0:  BRA    DE76
....................    {                       
....................       Lectura=0; 
0DBE2:  BCF    x04.3
....................       //printf("tuser.txt=\"%s\"",usuario); 
....................       //SendDataDisplay(); 
....................       printf("t6f.txt=\"%3.1fC\"",Temperatura); 
0DBE4:  MOVLW  12
0DBE6:  MOVWF  FF6
0DBE8:  MOVLW  1C
0DBEA:  MOVWF  FF7
0DBEC:  MOVLW  00
0DBEE:  MOVWF  FF8
0DBF0:  MOVLW  09
0DBF2:  MOVLB  6
0DBF4:  MOVWF  xB5
0DBF6:  MOVLB  0
0DBF8:  CALL   5994
0DBFC:  MOVLW  02
0DBFE:  MOVWF  FE9
0DC00:  MOVFF  23C,6B8
0DC04:  MOVFF  23B,6B7
0DC08:  MOVFF  23A,6B6
0DC0C:  MOVFF  239,6B5
0DC10:  MOVLW  01
0DC12:  MOVLB  6
0DC14:  MOVWF  xB9
0DC16:  MOVLB  0
0DC18:  CALL   5C7E
0DC1C:  MOVLW  B0
0DC1E:  BTFSS  F9E.4
0DC20:  BRA    DC1E
0DC22:  MOVWF  FAD
0DC24:  MOVLW  43
0DC26:  BTFSS  F9E.4
0DC28:  BRA    DC26
0DC2A:  MOVWF  FAD
0DC2C:  MOVLW  22
0DC2E:  BTFSS  F9E.4
0DC30:  BRA    DC2E
0DC32:  MOVWF  FAD
....................       SendDataDisplay(); 
0DC34:  CALL   402C
....................       printf("Funcionamiento.t7f.txt=\"%03LukPa\"",PresionCamara); 
0DC38:  MOVLW  24
0DC3A:  MOVWF  FF6
0DC3C:  MOVLW  1C
0DC3E:  MOVWF  FF7
0DC40:  MOVLW  00
0DC42:  MOVWF  FF8
0DC44:  MOVLW  18
0DC46:  MOVLB  6
0DC48:  MOVWF  xB5
0DC4A:  MOVLB  0
0DC4C:  CALL   5994
0DC50:  MOVLW  0A
0DC52:  MOVWF  FE9
0DC54:  MOVFF  279,6B5
0DC58:  MOVFF  278,6B4
0DC5C:  CALL   5B10
0DC60:  MOVLW  41
0DC62:  MOVWF  FF6
0DC64:  MOVLW  1C
0DC66:  MOVWF  FF7
0DC68:  MOVLW  00
0DC6A:  MOVWF  FF8
0DC6C:  MOVLW  04
0DC6E:  MOVLB  6
0DC70:  MOVWF  xB5
0DC72:  MOVLB  0
0DC74:  CALL   5994
....................       SendDataDisplay(); 
0DC78:  CALL   402C
....................       printf("Funcionamiento.t12f.txt=\"%03LukPa\"",PresionPreCamara); 
0DC7C:  MOVLW  46
0DC7E:  MOVWF  FF6
0DC80:  MOVLW  1C
0DC82:  MOVWF  FF7
0DC84:  MOVLW  00
0DC86:  MOVWF  FF8
0DC88:  MOVLW  19
0DC8A:  MOVLB  6
0DC8C:  MOVWF  xB5
0DC8E:  MOVLB  0
0DC90:  CALL   5994
0DC94:  MOVLW  0A
0DC96:  MOVWF  FE9
0DC98:  MOVFF  27B,6B5
0DC9C:  MOVFF  27A,6B4
0DCA0:  CALL   5B10
0DCA4:  MOVLW  64
0DCA6:  MOVWF  FF6
0DCA8:  MOVLW  1C
0DCAA:  MOVWF  FF7
0DCAC:  MOVLW  00
0DCAE:  MOVWF  FF8
0DCB0:  MOVLW  04
0DCB2:  MOVLB  6
0DCB4:  MOVWF  xB5
0DCB6:  MOVLB  0
0DCB8:  CALL   5994
....................       SendDataDisplay(); 
0DCBC:  CALL   402C
....................       printf("Funcionamiento.t9f.txt=\"%03uC\"",Setpoint); 
0DCC0:  MOVLW  6A
0DCC2:  MOVWF  FF6
0DCC4:  MOVLW  1C
0DCC6:  MOVWF  FF7
0DCC8:  MOVLW  00
0DCCA:  MOVWF  FF8
0DCCC:  MOVLW  18
0DCCE:  MOVLB  6
0DCD0:  MOVWF  xB5
0DCD2:  MOVLB  0
0DCD4:  CALL   5994
0DCD8:  MOVFF  267,6B5
0DCDC:  MOVLW  03
0DCDE:  MOVLB  6
0DCE0:  MOVWF  xB6
0DCE2:  MOVLB  0
0DCE4:  CALL   5A18
0DCE8:  MOVLW  B0
0DCEA:  BTFSS  F9E.4
0DCEC:  BRA    DCEA
0DCEE:  MOVWF  FAD
0DCF0:  MOVLW  43
0DCF2:  BTFSS  F9E.4
0DCF4:  BRA    DCF2
0DCF6:  MOVWF  FAD
0DCF8:  MOVLW  22
0DCFA:  BTFSS  F9E.4
0DCFC:  BRA    DCFA
0DCFE:  MOVWF  FAD
....................       SendDataDisplay();       
0DD00:  CALL   402C
....................       printf("Funcionamiento.t10f.txt=\"%02u:%02u\"",mEst,sEst); 
0DD04:  MOVLW  8A
0DD06:  MOVWF  FF6
0DD08:  MOVLW  1C
0DD0A:  MOVWF  FF7
0DD0C:  MOVLW  00
0DD0E:  MOVWF  FF8
0DD10:  MOVLW  19
0DD12:  MOVLB  6
0DD14:  MOVWF  xB5
0DD16:  MOVLB  0
0DD18:  CALL   5994
0DD1C:  MOVFF  114,6B5
0DD20:  MOVLW  01
0DD22:  MOVLB  6
0DD24:  MOVWF  xB6
0DD26:  MOVLB  0
0DD28:  CALL   5A18
0DD2C:  MOVLW  3A
0DD2E:  BTFSS  F9E.4
0DD30:  BRA    DD2E
0DD32:  MOVWF  FAD
0DD34:  MOVFF  113,6B5
0DD38:  MOVLW  01
0DD3A:  MOVLB  6
0DD3C:  MOVWF  xB6
0DD3E:  MOVLB  0
0DD40:  CALL   5A18
0DD44:  MOVLW  22
0DD46:  BTFSS  F9E.4
0DD48:  BRA    DD46
0DD4A:  MOVWF  FAD
....................       SendDataDisplay();       
0DD4C:  CALL   402C
....................       printf("Funcionamiento.t11f.txt=\"%02u:%02u\"",mSec,sSec); 
0DD50:  MOVLW  AE
0DD52:  MOVWF  FF6
0DD54:  MOVLW  1C
0DD56:  MOVWF  FF7
0DD58:  MOVLW  00
0DD5A:  MOVWF  FF8
0DD5C:  MOVLW  19
0DD5E:  MOVLB  6
0DD60:  MOVWF  xB5
0DD62:  MOVLB  0
0DD64:  CALL   5994
0DD68:  MOVFF  116,6B5
0DD6C:  MOVLW  01
0DD6E:  MOVLB  6
0DD70:  MOVWF  xB6
0DD72:  MOVLB  0
0DD74:  CALL   5A18
0DD78:  MOVLW  3A
0DD7A:  BTFSS  F9E.4
0DD7C:  BRA    DD7A
0DD7E:  MOVWF  FAD
0DD80:  MOVFF  115,6B5
0DD84:  MOVLW  01
0DD86:  MOVLB  6
0DD88:  MOVWF  xB6
0DD8A:  MOVLB  0
0DD8C:  CALL   5A18
0DD90:  MOVLW  22
0DD92:  BTFSS  F9E.4
0DD94:  BRA    DD92
0DD96:  MOVWF  FAD
....................       SendDataDisplay();       
0DD98:  CALL   402C
....................        
....................       printf("fecha.txt=\"%s Fecha:%02u/%02u/20%02u   Hora: %02u:%02u\"",usuario,Dia,Mes,Year,Hora,Minuto); 
0DD9C:  MOVLW  D2
0DD9E:  MOVWF  FF6
0DDA0:  MOVLW  1C
0DDA2:  MOVWF  FF7
0DDA4:  MOVLW  00
0DDA6:  MOVWF  FF8
0DDA8:  MOVLW  0B
0DDAA:  MOVLB  6
0DDAC:  MOVWF  xB5
0DDAE:  MOVLB  0
0DDB0:  CALL   5994
0DDB4:  MOVLW  02
0DDB6:  MOVWF  FEA
0DDB8:  MOVLW  B6
0DDBA:  MOVWF  FE9
0DDBC:  CALL   59C6
0DDC0:  MOVLW  DF
0DDC2:  MOVWF  FF6
0DDC4:  MOVLW  1C
0DDC6:  MOVWF  FF7
0DDC8:  MOVLW  00
0DDCA:  MOVWF  FF8
0DDCC:  MOVLW  07
0DDCE:  MOVLB  6
0DDD0:  MOVWF  xB5
0DDD2:  MOVLB  0
0DDD4:  CALL   5994
0DDD8:  MOVFF  29A,6B5
0DDDC:  MOVLW  01
0DDDE:  MOVLB  6
0DDE0:  MOVWF  xB6
0DDE2:  MOVLB  0
0DDE4:  CALL   5A18
0DDE8:  MOVLW  2F
0DDEA:  BTFSS  F9E.4
0DDEC:  BRA    DDEA
0DDEE:  MOVWF  FAD
0DDF0:  MOVFF  299,6B5
0DDF4:  MOVLW  01
0DDF6:  MOVLB  6
0DDF8:  MOVWF  xB6
0DDFA:  MOVLB  0
0DDFC:  CALL   5A18
0DE00:  MOVLW  2F
0DE02:  BTFSS  F9E.4
0DE04:  BRA    DE02
0DE06:  MOVWF  FAD
0DE08:  MOVLW  32
0DE0A:  BTFSS  F9E.4
0DE0C:  BRA    DE0A
0DE0E:  MOVWF  FAD
0DE10:  MOVLW  30
0DE12:  BTFSS  F9E.4
0DE14:  BRA    DE12
0DE16:  MOVWF  FAD
0DE18:  MOVFF  298,6B5
0DE1C:  MOVLW  01
0DE1E:  MOVLB  6
0DE20:  MOVWF  xB6
0DE22:  MOVLB  0
0DE24:  CALL   5A18
0DE28:  MOVLW  F6
0DE2A:  MOVWF  FF6
0DE2C:  MOVLW  1C
0DE2E:  MOVWF  FF7
0DE30:  MOVLW  00
0DE32:  MOVWF  FF8
0DE34:  MOVLW  09
0DE36:  MOVLB  6
0DE38:  MOVWF  xB5
0DE3A:  MOVLB  0
0DE3C:  CALL   5994
0DE40:  MOVFF  29B,6B5
0DE44:  MOVLW  01
0DE46:  MOVLB  6
0DE48:  MOVWF  xB6
0DE4A:  MOVLB  0
0DE4C:  CALL   5A18
0DE50:  MOVLW  3A
0DE52:  BTFSS  F9E.4
0DE54:  BRA    DE52
0DE56:  MOVWF  FAD
0DE58:  MOVFF  29C,6B5
0DE5C:  MOVLW  01
0DE5E:  MOVLB  6
0DE60:  MOVWF  xB6
0DE62:  MOVLB  0
0DE64:  CALL   5A18
0DE68:  MOVLW  22
0DE6A:  BTFSS  F9E.4
0DE6C:  BRA    DE6A
0DE6E:  MOVWF  FAD
....................       SendDataDisplay(); 
0DE70:  CALL   402C
0DE74:  MOVLB  1
0DE76:  MOVLB  2
....................    } 
....................  
.................... } 
.................... //_-------------------------------------------------------------------------------------------------------------------------------------------------------- 
....................  
.................... //_-------------------------------------------------------------------------------------------------------------------------------------------------------- 
....................       if(Menu==100){ //Menu de Configuracin de Parametros de Control 
0DE78:  MOVF   x59,W
0DE7A:  SUBLW  64
0DE7C:  BTFSS  FD8.2
0DE7E:  GOTO   ECFA
....................       
....................       if(Opcion2>12) 
0DE82:  MOVF   x69,W
0DE84:  SUBLW  0C
0DE86:  BC    DE8C
....................          Opcion2=1; 
0DE88:  MOVLW  01
0DE8A:  MOVWF  x69
....................       if(Opcion2<1) 
0DE8C:  MOVF   x69,F
0DE8E:  BNZ   DE94
....................          Opcion2=12; 
0DE90:  MOVLW  0C
0DE92:  MOVWF  x69
....................        
....................       if(Opcion2==1){ 
0DE94:  DECFSZ x69,W
0DE96:  BRA    DFD8
....................          printf("Config.t2c.txt=\"Proporcional\""); 
0DE98:  MOVLW  0A
0DE9A:  MOVWF  FF6
0DE9C:  MOVLW  1D
0DE9E:  MOVWF  FF7
0DEA0:  MOVLW  00
0DEA2:  MOVWF  FF8
0DEA4:  MOVLB  0
0DEA6:  CALL   3FFA
....................          SendDataDisplay();       
0DEAA:  CALL   402C
....................          printf("t3c.txt=\"%2.0f\"",Ganancia); 
0DEAE:  MOVLW  28
0DEB0:  MOVWF  FF6
0DEB2:  MOVLW  1D
0DEB4:  MOVWF  FF7
0DEB6:  MOVLW  00
0DEB8:  MOVWF  FF8
0DEBA:  MOVLW  09
0DEBC:  MOVLB  6
0DEBE:  MOVWF  xB5
0DEC0:  MOVLB  0
0DEC2:  CALL   5994
0DEC6:  MOVLW  01
0DEC8:  MOVWF  FE9
0DECA:  MOVFF  220,6B8
0DECE:  MOVFF  21F,6B7
0DED2:  MOVFF  21E,6B6
0DED6:  MOVFF  21D,6B5
0DEDA:  MOVLB  6
0DEDC:  CLRF   xB9
0DEDE:  MOVLB  0
0DEE0:  CALL   5C7E
0DEE4:  MOVLW  22
0DEE6:  BTFSS  F9E.4
0DEE8:  BRA    DEE6
0DEEA:  MOVWF  FAD
....................          SendDataDisplay(); 
0DEEC:  CALL   402C
....................          if(RX_Buffer[4]==0x0a){//Tecla Arriba Oprimida 
0DEF0:  MOVF   34,W
0DEF2:  SUBLW  0A
0DEF4:  BNZ   DF2E
....................                Ganancia+=1.0; 
0DEF6:  BCF    FD8.1
0DEF8:  MOVFF  220,6C5
0DEFC:  MOVFF  21F,6C4
0DF00:  MOVFF  21E,6C3
0DF04:  MOVFF  21D,6C2
0DF08:  MOVLB  6
0DF0A:  CLRF   xC9
0DF0C:  CLRF   xC8
0DF0E:  CLRF   xC7
0DF10:  MOVLW  7F
0DF12:  MOVWF  xC6
0DF14:  MOVLB  0
0DF16:  CALL   2100
0DF1A:  MOVFF  03,220
0DF1E:  MOVFF  02,21F
0DF22:  MOVFF  01,21E
0DF26:  MOVFF  00,21D
....................                RX_Buffer[4]=0x00;   
0DF2A:  CLRF   34
....................                RX_Buffer2[4]=0x00;             
0DF2C:  CLRF   3F
....................                //BorraBuffer(); 
....................          } 
....................              
....................          if(RX_Buffer[4]==0x0b){//Tecla Abajo Oprimida 
0DF2E:  MOVF   34,W
0DF30:  SUBLW  0B
0DF32:  BNZ   DF6C
....................                Ganancia-=1.0; 
0DF34:  BSF    FD8.1
0DF36:  MOVFF  220,6C5
0DF3A:  MOVFF  21F,6C4
0DF3E:  MOVFF  21E,6C3
0DF42:  MOVFF  21D,6C2
0DF46:  MOVLB  6
0DF48:  CLRF   xC9
0DF4A:  CLRF   xC8
0DF4C:  CLRF   xC7
0DF4E:  MOVLW  7F
0DF50:  MOVWF  xC6
0DF52:  MOVLB  0
0DF54:  CALL   2100
0DF58:  MOVFF  03,220
0DF5C:  MOVFF  02,21F
0DF60:  MOVFF  01,21E
0DF64:  MOVFF  00,21D
....................                RX_Buffer[4]=0x00; 
0DF68:  CLRF   34
....................                RX_Buffer2[4]=0x00;             
0DF6A:  CLRF   3F
....................                //BorraBuffer(); 
....................          } 
....................           
....................          if(Ganancia>40) 
0DF6C:  MOVLB  6
0DF6E:  CLRF   xB7
0DF70:  CLRF   xB6
0DF72:  MOVLW  20
0DF74:  MOVWF  xB5
0DF76:  MOVLW  84
0DF78:  MOVWF  xB4
0DF7A:  MOVFF  220,6BB
0DF7E:  MOVFF  21F,6BA
0DF82:  MOVFF  21E,6B9
0DF86:  MOVFF  21D,6B8
0DF8A:  MOVLB  0
0DF8C:  CALL   25D6
0DF90:  BNC   DF9E
....................             Ganancia=1; 
0DF92:  MOVLB  2
0DF94:  CLRF   x20
0DF96:  CLRF   x1F
0DF98:  CLRF   x1E
0DF9A:  MOVLW  7F
0DF9C:  MOVWF  x1D
....................          if(Ganancia<1) 
0DF9E:  MOVFF  220,6B7
0DFA2:  MOVFF  21F,6B6
0DFA6:  MOVFF  21E,6B5
0DFAA:  MOVFF  21D,6B4
0DFAE:  MOVLB  6
0DFB0:  CLRF   xBB
0DFB2:  CLRF   xBA
0DFB4:  CLRF   xB9
0DFB6:  MOVLW  7F
0DFB8:  MOVWF  xB8
0DFBA:  MOVLB  0
0DFBC:  CALL   25D6
0DFC0:  BNC   DFD2
....................             Ganancia=40; 
0DFC2:  MOVLB  2
0DFC4:  CLRF   x20
0DFC6:  CLRF   x1F
0DFC8:  MOVLW  20
0DFCA:  MOVWF  x1E
0DFCC:  MOVLW  84
0DFCE:  MOVWF  x1D
0DFD0:  MOVLB  0
....................       }else if(Opcion2==2){ 
0DFD2:  GOTO   E74E
0DFD6:  MOVLB  2
0DFD8:  MOVF   x69,W
0DFDA:  SUBLW  02
0DFDC:  BTFSS  FD8.2
0DFDE:  BRA    E122
....................          printf("Config.t2c.txt=\"Tciclo\""); 
0DFE0:  MOVLW  38
0DFE2:  MOVWF  FF6
0DFE4:  MOVLW  1D
0DFE6:  MOVWF  FF7
0DFE8:  MOVLW  00
0DFEA:  MOVWF  FF8
0DFEC:  MOVLB  0
0DFEE:  CALL   3FFA
....................          SendDataDisplay();       
0DFF2:  CALL   402C
....................          printf("t3c.txt=\"%2.0f\"",Tciclo); 
0DFF6:  MOVLW  50
0DFF8:  MOVWF  FF6
0DFFA:  MOVLW  1D
0DFFC:  MOVWF  FF7
0DFFE:  MOVLW  00
0E000:  MOVWF  FF8
0E002:  MOVLW  09
0E004:  MOVLB  6
0E006:  MOVWF  xB5
0E008:  MOVLB  0
0E00A:  CALL   5994
0E00E:  MOVLW  01
0E010:  MOVWF  FE9
0E012:  MOVFF  208,6B8
0E016:  MOVFF  207,6B7
0E01A:  MOVFF  206,6B6
0E01E:  MOVFF  205,6B5
0E022:  MOVLB  6
0E024:  CLRF   xB9
0E026:  MOVLB  0
0E028:  CALL   5C7E
0E02C:  MOVLW  22
0E02E:  BTFSS  F9E.4
0E030:  BRA    E02E
0E032:  MOVWF  FAD
....................          SendDataDisplay(); 
0E034:  CALL   402C
....................          if(RX_Buffer[4]==0x0a){//Tecla Arriba Oprimida 
0E038:  MOVF   34,W
0E03A:  SUBLW  0A
0E03C:  BNZ   E076
....................                Tciclo+=1.0; 
0E03E:  BCF    FD8.1
0E040:  MOVFF  208,6C5
0E044:  MOVFF  207,6C4
0E048:  MOVFF  206,6C3
0E04C:  MOVFF  205,6C2
0E050:  MOVLB  6
0E052:  CLRF   xC9
0E054:  CLRF   xC8
0E056:  CLRF   xC7
0E058:  MOVLW  7F
0E05A:  MOVWF  xC6
0E05C:  MOVLB  0
0E05E:  CALL   2100
0E062:  MOVFF  03,208
0E066:  MOVFF  02,207
0E06A:  MOVFF  01,206
0E06E:  MOVFF  00,205
....................                RX_Buffer[4]=0x00;   
0E072:  CLRF   34
....................                RX_Buffer2[4]=0x00;             
0E074:  CLRF   3F
....................                //BorraBuffer(); 
....................          } 
....................              
....................          if(RX_Buffer[4]==0x0b){//Tecla Abajo Oprimida             
0E076:  MOVF   34,W
0E078:  SUBLW  0B
0E07A:  BNZ   E0B4
....................                Tciclo-=1.0; 
0E07C:  BSF    FD8.1
0E07E:  MOVFF  208,6C5
0E082:  MOVFF  207,6C4
0E086:  MOVFF  206,6C3
0E08A:  MOVFF  205,6C2
0E08E:  MOVLB  6
0E090:  CLRF   xC9
0E092:  CLRF   xC8
0E094:  CLRF   xC7
0E096:  MOVLW  7F
0E098:  MOVWF  xC6
0E09A:  MOVLB  0
0E09C:  CALL   2100
0E0A0:  MOVFF  03,208
0E0A4:  MOVFF  02,207
0E0A8:  MOVFF  01,206
0E0AC:  MOVFF  00,205
....................                RX_Buffer[4]=0x00; 
0E0B0:  CLRF   34
....................                RX_Buffer2[4]=0x00;             
0E0B2:  CLRF   3F
....................                //BorraBuffer(); 
....................          } 
....................           
....................          if(Tciclo>20) 
0E0B4:  MOVLB  6
0E0B6:  CLRF   xB7
0E0B8:  CLRF   xB6
0E0BA:  MOVLW  20
0E0BC:  MOVWF  xB5
0E0BE:  MOVLW  83
0E0C0:  MOVWF  xB4
0E0C2:  MOVFF  208,6BB
0E0C6:  MOVFF  207,6BA
0E0CA:  MOVFF  206,6B9
0E0CE:  MOVFF  205,6B8
0E0D2:  MOVLB  0
0E0D4:  CALL   25D6
0E0D8:  BNC   E0E8
....................             Tciclo=5; 
0E0DA:  MOVLB  2
0E0DC:  CLRF   x08
0E0DE:  CLRF   x07
0E0E0:  MOVLW  20
0E0E2:  MOVWF  x06
0E0E4:  MOVLW  81
0E0E6:  MOVWF  x05
....................          if(Tciclo<5) 
0E0E8:  MOVFF  208,6B7
0E0EC:  MOVFF  207,6B6
0E0F0:  MOVFF  206,6B5
0E0F4:  MOVFF  205,6B4
0E0F8:  MOVLB  6
0E0FA:  CLRF   xBB
0E0FC:  CLRF   xBA
0E0FE:  MOVLW  20
0E100:  MOVWF  xB9
0E102:  MOVLW  81
0E104:  MOVWF  xB8
0E106:  MOVLB  0
0E108:  CALL   25D6
0E10C:  BNC   E11E
....................             Tciclo=20; 
0E10E:  MOVLB  2
0E110:  CLRF   x08
0E112:  CLRF   x07
0E114:  MOVLW  20
0E116:  MOVWF  x06
0E118:  MOVLW  83
0E11A:  MOVWF  x05
0E11C:  MOVLB  0
....................       }else if(Opcion2==3){ 
0E11E:  BRA    E74E
0E120:  MOVLB  2
0E122:  MOVF   x69,W
0E124:  SUBLW  03
0E126:  BNZ   E1A0
....................          printf("Config.t2c.txt=\"Ajuste +\""); 
0E128:  MOVLW  60
0E12A:  MOVWF  FF6
0E12C:  MOVLW  1D
0E12E:  MOVWF  FF7
0E130:  MOVLW  00
0E132:  MOVWF  FF8
0E134:  MOVLB  0
0E136:  CALL   3FFA
....................          SendDataDisplay();       
0E13A:  CALL   402C
....................          printf("t3c.txt=\"%u\"",Sensor[0].Ajuste); 
0E13E:  MOVLW  7A
0E140:  MOVWF  FF6
0E142:  MOVLW  1D
0E144:  MOVWF  FF7
0E146:  MOVLW  00
0E148:  MOVWF  FF8
0E14A:  MOVLW  09
0E14C:  MOVLB  6
0E14E:  MOVWF  xB5
0E150:  MOVLB  0
0E152:  CALL   5994
0E156:  MOVFF  33E,6B5
0E15A:  MOVLW  1B
0E15C:  MOVLB  6
0E15E:  MOVWF  xB6
0E160:  MOVLB  0
0E162:  CALL   5A18
0E166:  MOVLW  22
0E168:  BTFSS  F9E.4
0E16A:  BRA    E168
0E16C:  MOVWF  FAD
....................          SendDataDisplay(); 
0E16E:  CALL   402C
....................          if(RX_Buffer[4]==0x0a){//Tecla Arriba Oprimida             
0E172:  MOVF   34,W
0E174:  SUBLW  0A
0E176:  BNZ   E188
....................                if(Sensor[0].Ajuste<40) 
0E178:  MOVLB  3
0E17A:  MOVF   x3E,W
0E17C:  SUBLW  27
0E17E:  BNC   E182
....................                   Sensor[0].Ajuste++; 
0E180:  INCF   x3E,F
....................                RX_Buffer[4]=0x00;   
0E182:  CLRF   34
....................                RX_Buffer2[4]=0x00;             
0E184:  CLRF   3F
0E186:  MOVLB  0
....................                //BorraBuffer();             
....................          } 
....................              
....................          if(RX_Buffer[4]==0x0b){//Tecla Abajo Oprimida             
0E188:  MOVF   34,W
0E18A:  SUBLW  0B
0E18C:  BNZ   E19C
....................                if(Sensor[0].Ajuste>0) 
0E18E:  MOVLB  3
0E190:  MOVF   x3E,F
0E192:  BZ    E196
....................                   Sensor[0].Ajuste--; 
0E194:  DECF   x3E,F
....................                RX_Buffer[4]=0x00; 
0E196:  CLRF   34
....................                RX_Buffer2[4]=0x00;             
0E198:  CLRF   3F
0E19A:  MOVLB  0
....................                //BorraBuffer(); 
....................          } 
....................       }else if(Opcion2==4){ 
0E19C:  BRA    E74E
0E19E:  MOVLB  2
0E1A0:  MOVF   x69,W
0E1A2:  SUBLW  04
0E1A4:  BNZ   E21E
....................          printf("Config.t2c.txt=\"Ajuste -\""); 
0E1A6:  MOVLW  88
0E1A8:  MOVWF  FF6
0E1AA:  MOVLW  1D
0E1AC:  MOVWF  FF7
0E1AE:  MOVLW  00
0E1B0:  MOVWF  FF8
0E1B2:  MOVLB  0
0E1B4:  CALL   3FFA
....................          SendDataDisplay();       
0E1B8:  CALL   402C
....................          printf("t3c.txt=\"%u\"",Sensor[0].Ajusten); 
0E1BC:  MOVLW  A2
0E1BE:  MOVWF  FF6
0E1C0:  MOVLW  1D
0E1C2:  MOVWF  FF7
0E1C4:  MOVLW  00
0E1C6:  MOVWF  FF8
0E1C8:  MOVLW  09
0E1CA:  MOVLB  6
0E1CC:  MOVWF  xB5
0E1CE:  MOVLB  0
0E1D0:  CALL   5994
0E1D4:  MOVFF  33F,6B5
0E1D8:  MOVLW  1B
0E1DA:  MOVLB  6
0E1DC:  MOVWF  xB6
0E1DE:  MOVLB  0
0E1E0:  CALL   5A18
0E1E4:  MOVLW  22
0E1E6:  BTFSS  F9E.4
0E1E8:  BRA    E1E6
0E1EA:  MOVWF  FAD
....................          SendDataDisplay(); 
0E1EC:  CALL   402C
....................          if(RX_Buffer[4]==0x0a){//Tecla Arriba Oprimida             
0E1F0:  MOVF   34,W
0E1F2:  SUBLW  0A
0E1F4:  BNZ   E206
....................                if(Sensor[0].Ajusten<40) 
0E1F6:  MOVLB  3
0E1F8:  MOVF   x3F,W
0E1FA:  SUBLW  27
0E1FC:  BNC   E200
....................                   Sensor[0].Ajusten++; 
0E1FE:  INCF   x3F,F
....................                RX_Buffer[4]=0x00;   
0E200:  CLRF   34
....................                RX_Buffer2[4]=0x00;             
0E202:  CLRF   3F
0E204:  MOVLB  0
....................                //BorraBuffer();             
....................          } 
....................              
....................          if(RX_Buffer[4]==0x0b){//Tecla Abajo Oprimida             
0E206:  MOVF   34,W
0E208:  SUBLW  0B
0E20A:  BNZ   E21A
....................                if(Sensor[0].Ajusten>0) 
0E20C:  MOVLB  3
0E20E:  MOVF   x3F,F
0E210:  BZ    E214
....................                   Sensor[0].Ajusten--; 
0E212:  DECF   x3F,F
....................                RX_Buffer[4]=0x00; 
0E214:  CLRF   34
....................                RX_Buffer2[4]=0x00;             
0E216:  CLRF   3F
0E218:  MOVLB  0
....................                //BorraBuffer(); 
....................          } 
....................       }else if(Opcion2==5){ 
0E21A:  BRA    E74E
0E21C:  MOVLB  2
0E21E:  MOVF   x69,W
0E220:  SUBLW  05
0E222:  BNZ   E29C
....................          printf("Config.t2c.txt=\"Ajuste2 +\""); 
0E224:  MOVLW  B0
0E226:  MOVWF  FF6
0E228:  MOVLW  1D
0E22A:  MOVWF  FF7
0E22C:  MOVLW  00
0E22E:  MOVWF  FF8
0E230:  MOVLB  0
0E232:  CALL   3FFA
....................          SendDataDisplay();       
0E236:  CALL   402C
....................          printf("t3c.txt=\"%u\"",Sensor[1].Ajuste); 
0E23A:  MOVLW  CC
0E23C:  MOVWF  FF6
0E23E:  MOVLW  1D
0E240:  MOVWF  FF7
0E242:  MOVLW  00
0E244:  MOVWF  FF8
0E246:  MOVLW  09
0E248:  MOVLB  6
0E24A:  MOVWF  xB5
0E24C:  MOVLB  0
0E24E:  CALL   5994
0E252:  MOVFF  4A2,6B5
0E256:  MOVLW  1B
0E258:  MOVLB  6
0E25A:  MOVWF  xB6
0E25C:  MOVLB  0
0E25E:  CALL   5A18
0E262:  MOVLW  22
0E264:  BTFSS  F9E.4
0E266:  BRA    E264
0E268:  MOVWF  FAD
....................          SendDataDisplay(); 
0E26A:  CALL   402C
....................          if(RX_Buffer[4]==0x0a){//Tecla Arriba Oprimida 
0E26E:  MOVF   34,W
0E270:  SUBLW  0A
0E272:  BNZ   E284
....................                if(Sensor[1].Ajuste<40) 
0E274:  MOVLB  4
0E276:  MOVF   xA2,W
0E278:  SUBLW  27
0E27A:  BNC   E27E
....................                   Sensor[1].Ajuste++; 
0E27C:  INCF   xA2,F
....................                RX_Buffer[4]=0x00;   
0E27E:  CLRF   34
....................                RX_Buffer2[4]=0x00;             
0E280:  CLRF   3F
0E282:  MOVLB  0
....................                //BorraBuffer(); 
....................          } 
....................              
....................          if(RX_Buffer[4]==0x0b){//Tecla Abajo Oprimida 
0E284:  MOVF   34,W
0E286:  SUBLW  0B
0E288:  BNZ   E298
....................                if(Sensor[1].Ajuste>0) 
0E28A:  MOVLB  4
0E28C:  MOVF   xA2,F
0E28E:  BZ    E292
....................                   Sensor[1].Ajuste--; 
0E290:  DECF   xA2,F
....................                RX_Buffer[4]=0x00; 
0E292:  CLRF   34
....................                RX_Buffer2[4]=0x00;             
0E294:  CLRF   3F
0E296:  MOVLB  0
....................                //BorraBuffer();             
....................          } 
....................       }else if(Opcion2==6){ 
0E298:  BRA    E74E
0E29A:  MOVLB  2
0E29C:  MOVF   x69,W
0E29E:  SUBLW  06
0E2A0:  BNZ   E31A
....................          printf("Config.t2c.txt=\"Ajuste2 -\""); 
0E2A2:  MOVLW  DA
0E2A4:  MOVWF  FF6
0E2A6:  MOVLW  1D
0E2A8:  MOVWF  FF7
0E2AA:  MOVLW  00
0E2AC:  MOVWF  FF8
0E2AE:  MOVLB  0
0E2B0:  CALL   3FFA
....................          SendDataDisplay();       
0E2B4:  CALL   402C
....................          printf("t3c.txt=\"%u\"",Sensor[1].Ajusten); 
0E2B8:  MOVLW  F6
0E2BA:  MOVWF  FF6
0E2BC:  MOVLW  1D
0E2BE:  MOVWF  FF7
0E2C0:  MOVLW  00
0E2C2:  MOVWF  FF8
0E2C4:  MOVLW  09
0E2C6:  MOVLB  6
0E2C8:  MOVWF  xB5
0E2CA:  MOVLB  0
0E2CC:  CALL   5994
0E2D0:  MOVFF  4A3,6B5
0E2D4:  MOVLW  1B
0E2D6:  MOVLB  6
0E2D8:  MOVWF  xB6
0E2DA:  MOVLB  0
0E2DC:  CALL   5A18
0E2E0:  MOVLW  22
0E2E2:  BTFSS  F9E.4
0E2E4:  BRA    E2E2
0E2E6:  MOVWF  FAD
....................          SendDataDisplay(); 
0E2E8:  CALL   402C
....................          if(RX_Buffer[4]==0x0a){//Tecla Arriba Oprimida             
0E2EC:  MOVF   34,W
0E2EE:  SUBLW  0A
0E2F0:  BNZ   E302
....................                if(Sensor[1].Ajusten<40) 
0E2F2:  MOVLB  4
0E2F4:  MOVF   xA3,W
0E2F6:  SUBLW  27
0E2F8:  BNC   E2FC
....................                   Sensor[1].Ajusten++; 
0E2FA:  INCF   xA3,F
....................                RX_Buffer[4]=0x00;   
0E2FC:  CLRF   34
....................                RX_Buffer2[4]=0x00;             
0E2FE:  CLRF   3F
0E300:  MOVLB  0
....................                //BorraBuffer(); 
....................          } 
....................              
....................          if(RX_Buffer[4]==0x0b){//Tecla Abajo Oprimida             
0E302:  MOVF   34,W
0E304:  SUBLW  0B
0E306:  BNZ   E316
....................                if(Sensor[1].Ajusten>0) 
0E308:  MOVLB  4
0E30A:  MOVF   xA3,F
0E30C:  BZ    E310
....................                   Sensor[1].Ajusten--; 
0E30E:  DECF   xA3,F
....................                RX_Buffer[4]=0x00; 
0E310:  CLRF   34
....................                RX_Buffer2[4]=0x00;             
0E312:  CLRF   3F
0E314:  MOVLB  0
....................                //BorraBuffer(); 
....................          } 
....................       }else if(Opcion2==7){ 
0E316:  BRA    E74E
0E318:  MOVLB  2
0E31A:  MOVF   x69,W
0E31C:  SUBLW  07
0E31E:  BNZ   E39A
....................          printf("Config.t2c.txt=\"Media\""); 
0E320:  MOVLW  04
0E322:  MOVWF  FF6
0E324:  MOVLW  1E
0E326:  MOVWF  FF7
0E328:  MOVLW  00
0E32A:  MOVWF  FF8
0E32C:  MOVLB  0
0E32E:  CALL   3FFA
....................          SendDataDisplay();       
0E332:  CALL   402C
....................          printf("t3c.txt=\"%u\"",MediaMovil); 
0E336:  MOVLW  1C
0E338:  MOVWF  FF6
0E33A:  MOVLW  1E
0E33C:  MOVWF  FF7
0E33E:  MOVLW  00
0E340:  MOVWF  FF8
0E342:  MOVLW  09
0E344:  MOVLB  6
0E346:  MOVWF  xB5
0E348:  MOVLB  0
0E34A:  CALL   5994
0E34E:  MOVFF  1F5,6B5
0E352:  MOVLW  1B
0E354:  MOVLB  6
0E356:  MOVWF  xB6
0E358:  MOVLB  0
0E35A:  CALL   5A18
0E35E:  MOVLW  22
0E360:  BTFSS  F9E.4
0E362:  BRA    E360
0E364:  MOVWF  FAD
....................          SendDataDisplay(); 
0E366:  CALL   402C
....................          if(RX_Buffer[4]==0x0a){//Tecla Arriba Oprimida 
0E36A:  MOVF   34,W
0E36C:  SUBLW  0A
0E36E:  BNZ   E380
....................                if(MediaMovil<80) 
0E370:  MOVLB  1
0E372:  MOVF   xF5,W
0E374:  SUBLW  4F
0E376:  BNC   E37A
....................                   MediaMovil++; 
0E378:  INCF   xF5,F
....................                RX_Buffer[4]=0x00;   
0E37A:  CLRF   34
....................                RX_Buffer2[4]=0x00;             
0E37C:  CLRF   3F
0E37E:  MOVLB  0
....................                //BorraBuffer(); 
....................          } 
....................              
....................          if(RX_Buffer[4]==0x0b){//Tecla Abajo Oprimida 
0E380:  MOVF   34,W
0E382:  SUBLW  0B
0E384:  BNZ   E396
....................                if(MediaMovil>10) 
0E386:  MOVLB  1
0E388:  MOVF   xF5,W
0E38A:  SUBLW  0A
0E38C:  BC    E390
....................                   MediaMovil--; 
0E38E:  DECF   xF5,F
....................                RX_Buffer[4]=0x00; 
0E390:  CLRF   34
....................                RX_Buffer2[4]=0x00;             
0E392:  CLRF   3F
0E394:  MOVLB  0
....................                //BorraBuffer();             
....................          } 
....................       }else if(Opcion2==8){ 
0E396:  BRA    E74E
0E398:  MOVLB  2
0E39A:  MOVF   x69,W
0E39C:  SUBLW  08
0E39E:  BTFSS  FD8.2
0E3A0:  BRA    E4CC
....................          printf("Config.t2c.txt=\"RPT100B\""); 
0E3A2:  MOVLW  2A
0E3A4:  MOVWF  FF6
0E3A6:  MOVLW  1E
0E3A8:  MOVWF  FF7
0E3AA:  MOVLW  00
0E3AC:  MOVWF  FF8
0E3AE:  MOVLB  0
0E3B0:  CALL   3FFA
....................          SendDataDisplay();       
0E3B4:  CALL   402C
....................          printf("t3c.txt=\"%2.1f\"",Sensor[0].RPT100); 
0E3B8:  MOVLW  44
0E3BA:  MOVWF  FF6
0E3BC:  MOVLW  1E
0E3BE:  MOVWF  FF7
0E3C0:  MOVLW  00
0E3C2:  MOVWF  FF8
0E3C4:  MOVLW  09
0E3C6:  MOVLB  6
0E3C8:  MOVWF  xB5
0E3CA:  MOVLB  0
0E3CC:  CALL   5994
0E3D0:  MOVLW  01
0E3D2:  MOVWF  FE9
0E3D4:  MOVFF  333,6B8
0E3D8:  MOVFF  332,6B7
0E3DC:  MOVFF  331,6B6
0E3E0:  MOVFF  330,6B5
0E3E4:  MOVLB  6
0E3E6:  MOVWF  xB9
0E3E8:  MOVLB  0
0E3EA:  CALL   5C7E
0E3EE:  MOVLW  22
0E3F0:  BTFSS  F9E.4
0E3F2:  BRA    E3F0
0E3F4:  MOVWF  FAD
....................          SendDataDisplay(); 
0E3F6:  CALL   402C
....................          if(RX_Buffer[4]==0x0a){//Tecla Arriba Oprimida             
0E3FA:  MOVF   34,W
0E3FC:  SUBLW  0A
0E3FE:  BNZ   E462
....................                if(Sensor[0].RPT100<2.0) 
0E400:  MOVFF  333,6B7
0E404:  MOVFF  332,6B6
0E408:  MOVFF  331,6B5
0E40C:  MOVFF  330,6B4
0E410:  MOVLB  6
0E412:  CLRF   xBB
0E414:  CLRF   xBA
0E416:  CLRF   xB9
0E418:  MOVLW  80
0E41A:  MOVWF  xB8
0E41C:  MOVLB  0
0E41E:  CALL   25D6
0E422:  BNC   E45E
....................                   Sensor[0].RPT100+=0.1; 
0E424:  BCF    FD8.1
0E426:  MOVFF  333,6C5
0E42A:  MOVFF  332,6C4
0E42E:  MOVFF  331,6C3
0E432:  MOVFF  330,6C2
0E436:  MOVLW  CD
0E438:  MOVLB  6
0E43A:  MOVWF  xC9
0E43C:  MOVLW  CC
0E43E:  MOVWF  xC8
0E440:  MOVLW  4C
0E442:  MOVWF  xC7
0E444:  MOVLW  7B
0E446:  MOVWF  xC6
0E448:  MOVLB  0
0E44A:  CALL   2100
0E44E:  MOVFF  03,333
0E452:  MOVFF  02,332
0E456:  MOVFF  01,331
0E45A:  MOVFF  00,330
....................                RX_Buffer[4]=0x00;   
0E45E:  CLRF   34
....................                RX_Buffer2[4]=0x00;             
0E460:  CLRF   3F
....................                //BorraBuffer(); 
....................          } 
....................              
....................          if(RX_Buffer[4]==0x0b){//Tecla Abajo Oprimida 
0E462:  MOVF   34,W
0E464:  SUBLW  0B
0E466:  BNZ   E4C8
....................                if(Sensor[0].RPT100>0.0) 
0E468:  MOVLB  6
0E46A:  CLRF   xB7
0E46C:  CLRF   xB6
0E46E:  CLRF   xB5
0E470:  CLRF   xB4
0E472:  MOVFF  333,6BB
0E476:  MOVFF  332,6BA
0E47A:  MOVFF  331,6B9
0E47E:  MOVFF  330,6B8
0E482:  MOVLB  0
0E484:  CALL   25D6
0E488:  BNC   E4C4
....................                   Sensor[0].RPT100-=0.1; 
0E48A:  BSF    FD8.1
0E48C:  MOVFF  333,6C5
0E490:  MOVFF  332,6C4
0E494:  MOVFF  331,6C3
0E498:  MOVFF  330,6C2
0E49C:  MOVLW  CD
0E49E:  MOVLB  6
0E4A0:  MOVWF  xC9
0E4A2:  MOVLW  CC
0E4A4:  MOVWF  xC8
0E4A6:  MOVLW  4C
0E4A8:  MOVWF  xC7
0E4AA:  MOVLW  7B
0E4AC:  MOVWF  xC6
0E4AE:  MOVLB  0
0E4B0:  CALL   2100
0E4B4:  MOVFF  03,333
0E4B8:  MOVFF  02,332
0E4BC:  MOVFF  01,331
0E4C0:  MOVFF  00,330
....................                RX_Buffer[4]=0x00; 
0E4C4:  CLRF   34
....................                RX_Buffer2[4]=0x00;             
0E4C6:  CLRF   3F
....................                //BorraBuffer(); 
....................          } 
....................       }else if(Opcion2==9){ 
0E4C8:  BRA    E74E
0E4CA:  MOVLB  2
0E4CC:  MOVF   x69,W
0E4CE:  SUBLW  09
0E4D0:  BTFSS  FD8.2
0E4D2:  BRA    E5FE
....................          printf("Config.t2c.txt=\"RPT100B 2\""); 
0E4D4:  MOVLW  54
0E4D6:  MOVWF  FF6
0E4D8:  MOVLW  1E
0E4DA:  MOVWF  FF7
0E4DC:  MOVLW  00
0E4DE:  MOVWF  FF8
0E4E0:  MOVLB  0
0E4E2:  CALL   3FFA
....................          SendDataDisplay();       
0E4E6:  CALL   402C
....................          printf("t3c.txt=\"%2.1f\"",Sensor[1].RPT100); 
0E4EA:  MOVLW  70
0E4EC:  MOVWF  FF6
0E4EE:  MOVLW  1E
0E4F0:  MOVWF  FF7
0E4F2:  MOVLW  00
0E4F4:  MOVWF  FF8
0E4F6:  MOVLW  09
0E4F8:  MOVLB  6
0E4FA:  MOVWF  xB5
0E4FC:  MOVLB  0
0E4FE:  CALL   5994
0E502:  MOVLW  01
0E504:  MOVWF  FE9
0E506:  MOVFF  497,6B8
0E50A:  MOVFF  496,6B7
0E50E:  MOVFF  495,6B6
0E512:  MOVFF  494,6B5
0E516:  MOVLB  6
0E518:  MOVWF  xB9
0E51A:  MOVLB  0
0E51C:  CALL   5C7E
0E520:  MOVLW  22
0E522:  BTFSS  F9E.4
0E524:  BRA    E522
0E526:  MOVWF  FAD
....................          SendDataDisplay(); 
0E528:  CALL   402C
....................          if(RX_Buffer[4]==0x0a){//Tecla Arriba Oprimida 
0E52C:  MOVF   34,W
0E52E:  SUBLW  0A
0E530:  BNZ   E594
....................                if(Sensor[1].RPT100<2.0) 
0E532:  MOVFF  497,6B7
0E536:  MOVFF  496,6B6
0E53A:  MOVFF  495,6B5
0E53E:  MOVFF  494,6B4
0E542:  MOVLB  6
0E544:  CLRF   xBB
0E546:  CLRF   xBA
0E548:  CLRF   xB9
0E54A:  MOVLW  80
0E54C:  MOVWF  xB8
0E54E:  MOVLB  0
0E550:  CALL   25D6
0E554:  BNC   E590
....................                   Sensor[1].RPT100+=0.1; 
0E556:  BCF    FD8.1
0E558:  MOVFF  497,6C5
0E55C:  MOVFF  496,6C4
0E560:  MOVFF  495,6C3
0E564:  MOVFF  494,6C2
0E568:  MOVLW  CD
0E56A:  MOVLB  6
0E56C:  MOVWF  xC9
0E56E:  MOVLW  CC
0E570:  MOVWF  xC8
0E572:  MOVLW  4C
0E574:  MOVWF  xC7
0E576:  MOVLW  7B
0E578:  MOVWF  xC6
0E57A:  MOVLB  0
0E57C:  CALL   2100
0E580:  MOVFF  03,497
0E584:  MOVFF  02,496
0E588:  MOVFF  01,495
0E58C:  MOVFF  00,494
....................                RX_Buffer[4]=0x00;   
0E590:  CLRF   34
....................                RX_Buffer2[4]=0x00;             
0E592:  CLRF   3F
....................                //BorraBuffer(); 
....................          } 
....................              
....................          if(RX_Buffer[4]==0x0b){//Tecla Abajo Oprimida 
0E594:  MOVF   34,W
0E596:  SUBLW  0B
0E598:  BNZ   E5FA
....................                if(Sensor[1].RPT100>0.0) 
0E59A:  MOVLB  6
0E59C:  CLRF   xB7
0E59E:  CLRF   xB6
0E5A0:  CLRF   xB5
0E5A2:  CLRF   xB4
0E5A4:  MOVFF  497,6BB
0E5A8:  MOVFF  496,6BA
0E5AC:  MOVFF  495,6B9
0E5B0:  MOVFF  494,6B8
0E5B4:  MOVLB  0
0E5B6:  CALL   25D6
0E5BA:  BNC   E5F6
....................                   Sensor[1].RPT100-=0.1; 
0E5BC:  BSF    FD8.1
0E5BE:  MOVFF  497,6C5
0E5C2:  MOVFF  496,6C4
0E5C6:  MOVFF  495,6C3
0E5CA:  MOVFF  494,6C2
0E5CE:  MOVLW  CD
0E5D0:  MOVLB  6
0E5D2:  MOVWF  xC9
0E5D4:  MOVLW  CC
0E5D6:  MOVWF  xC8
0E5D8:  MOVLW  4C
0E5DA:  MOVWF  xC7
0E5DC:  MOVLW  7B
0E5DE:  MOVWF  xC6
0E5E0:  MOVLB  0
0E5E2:  CALL   2100
0E5E6:  MOVFF  03,497
0E5EA:  MOVFF  02,496
0E5EE:  MOVFF  01,495
0E5F2:  MOVFF  00,494
....................                RX_Buffer[4]=0x00; 
0E5F6:  CLRF   34
....................                RX_Buffer2[4]=0x00;             
0E5F8:  CLRF   3F
....................                //BorraBuffer(); 
....................          } 
....................       }else if(Opcion2==10){ 
0E5FA:  BRA    E74E
0E5FC:  MOVLB  2
0E5FE:  MOVF   x69,W
0E600:  SUBLW  0A
0E602:  BNZ   E652
....................          printf("Config.t2c.txt=\"Ciclos\""); 
0E604:  MOVLW  80
0E606:  MOVWF  FF6
0E608:  MOVLW  1E
0E60A:  MOVWF  FF7
0E60C:  MOVLW  00
0E60E:  MOVWF  FF8
0E610:  MOVLB  0
0E612:  CALL   3FFA
....................          SendDataDisplay();       
0E616:  CALL   402C
....................          printf("t3c.txt=\"%03Lu\"",Ciclos); 
0E61A:  MOVLW  98
0E61C:  MOVWF  FF6
0E61E:  MOVLW  1E
0E620:  MOVWF  FF7
0E622:  MOVLW  00
0E624:  MOVWF  FF8
0E626:  MOVLW  09
0E628:  MOVLB  6
0E62A:  MOVWF  xB5
0E62C:  MOVLB  0
0E62E:  CALL   5994
0E632:  MOVLW  0A
0E634:  MOVWF  FE9
0E636:  MOVFF  27D,6B5
0E63A:  MOVFF  27C,6B4
0E63E:  CALL   5B10
0E642:  MOVLW  22
0E644:  BTFSS  F9E.4
0E646:  BRA    E644
0E648:  MOVWF  FAD
....................          SendDataDisplay(); 
0E64A:  CALL   402C
....................       }else if(Opcion2==11){ 
0E64E:  BRA    E74E
0E650:  MOVLB  2
0E652:  MOVF   x69,W
0E654:  SUBLW  0B
0E656:  BNZ   E6D2
....................          printf("Config.t2c.txt=\"Atmosferica\""); 
0E658:  MOVLW  A8
0E65A:  MOVWF  FF6
0E65C:  MOVLW  1E
0E65E:  MOVWF  FF7
0E660:  MOVLW  00
0E662:  MOVWF  FF8
0E664:  MOVLB  0
0E666:  CALL   3FFA
....................          SendDataDisplay();       
0E66A:  CALL   402C
....................          printf("t3c.txt=\"%03u\"",Atmosferica); 
0E66E:  MOVLW  C6
0E670:  MOVWF  FF6
0E672:  MOVLW  1E
0E674:  MOVWF  FF7
0E676:  MOVLW  00
0E678:  MOVWF  FF8
0E67A:  MOVLW  09
0E67C:  MOVLB  6
0E67E:  MOVWF  xB5
0E680:  MOVLB  0
0E682:  CALL   5994
0E686:  MOVFF  2A2,6B5
0E68A:  MOVLW  03
0E68C:  MOVLB  6
0E68E:  MOVWF  xB6
0E690:  MOVLB  0
0E692:  CALL   5A18
0E696:  MOVLW  22
0E698:  BTFSS  F9E.4
0E69A:  BRA    E698
0E69C:  MOVWF  FAD
....................          SendDataDisplay(); 
0E69E:  CALL   402C
....................          if(RX_Buffer[4]==0x0a){//Tecla Arriba Oprimida 
0E6A2:  MOVF   34,W
0E6A4:  SUBLW  0A
0E6A6:  BNZ   E6B8
....................                if(Atmosferica<100) 
0E6A8:  MOVLB  2
0E6AA:  MOVF   xA2,W
0E6AC:  SUBLW  63
0E6AE:  BNC   E6B2
....................                   ++Atmosferica; 
0E6B0:  INCF   xA2,F
....................                RX_Buffer[4]=0x00;   
0E6B2:  CLRF   34
....................                RX_Buffer2[4]=0x00;             
0E6B4:  CLRF   3F
0E6B6:  MOVLB  0
....................                //BorraBuffer(); 
....................          } 
....................              
....................          if(RX_Buffer[4]==0x0b){//Tecla Abajo Oprimida 
0E6B8:  MOVF   34,W
0E6BA:  SUBLW  0B
0E6BC:  BNZ   E6CE
....................                if(Atmosferica>50) 
0E6BE:  MOVLB  2
0E6C0:  MOVF   xA2,W
0E6C2:  SUBLW  32
0E6C4:  BC    E6C8
....................                   --Atmosferica; 
0E6C6:  DECF   xA2,F
....................                RX_Buffer[4]=0x00; 
0E6C8:  CLRF   34
....................                RX_Buffer2[4]=0x00;             
0E6CA:  CLRF   3F
0E6CC:  MOVLB  0
....................                //BorraBuffer(); 
....................          } 
....................       }else if(Opcion2==12){ 
0E6CE:  BRA    E74E
0E6D0:  MOVLB  2
0E6D2:  MOVF   x69,W
0E6D4:  SUBLW  0C
0E6D6:  BNZ   E74C
....................          printf("Config.t2c.txt=\"T. Apertura\""); 
0E6D8:  MOVLW  D6
0E6DA:  MOVWF  FF6
0E6DC:  MOVLW  1E
0E6DE:  MOVWF  FF7
0E6E0:  MOVLW  00
0E6E2:  MOVWF  FF8
0E6E4:  MOVLB  0
0E6E6:  CALL   3FFA
....................          SendDataDisplay();       
0E6EA:  CALL   402C
....................          printf("t3c.txt=\"%03u\"",Tapertura); 
0E6EE:  MOVLW  F4
0E6F0:  MOVWF  FF6
0E6F2:  MOVLW  1E
0E6F4:  MOVWF  FF7
0E6F6:  MOVLW  00
0E6F8:  MOVWF  FF8
0E6FA:  MOVLW  09
0E6FC:  MOVLB  6
0E6FE:  MOVWF  xB5
0E700:  MOVLB  0
0E702:  CALL   5994
0E706:  MOVFF  260,6B5
0E70A:  MOVLW  03
0E70C:  MOVLB  6
0E70E:  MOVWF  xB6
0E710:  MOVLB  0
0E712:  CALL   5A18
0E716:  MOVLW  22
0E718:  BTFSS  F9E.4
0E71A:  BRA    E718
0E71C:  MOVWF  FAD
....................          SendDataDisplay(); 
0E71E:  CALL   402C
....................          if(RX_Buffer[4]==0x0a){//Tecla Arriba Oprimida 
0E722:  MOVF   34,W
0E724:  SUBLW  0A
0E726:  BNZ   E738
....................                if(Tapertura<100) 
0E728:  MOVLB  2
0E72A:  MOVF   x60,W
0E72C:  SUBLW  63
0E72E:  BNC   E732
....................                   ++Tapertura; 
0E730:  INCF   x60,F
....................                RX_Buffer[4]=0x00;   
0E732:  CLRF   34
....................                RX_Buffer2[4]=0x00;             
0E734:  CLRF   3F
0E736:  MOVLB  0
....................                //BorraBuffer(); 
....................          } 
....................              
....................          if(RX_Buffer[4]==0x0b){//Tecla Abajo Oprimida 
0E738:  MOVF   34,W
0E73A:  SUBLW  0B
0E73C:  BNZ   E74E
....................                if(Tapertura>50) 
0E73E:  MOVLB  2
0E740:  MOVF   x60,W
0E742:  SUBLW  32
0E744:  BC    E748
....................                   --Tapertura; 
0E746:  DECF   x60,F
....................                RX_Buffer[4]=0x00; 
0E748:  CLRF   34
....................                RX_Buffer2[4]=0x00;             
0E74A:  CLRF   3F
0E74C:  MOVLB  0
....................                //BorraBuffer();            
....................          } 
....................       } 
....................        
....................       if(RX_Buffer[4]==0x0c){//Tecla Izquierda Oprimida 
0E74E:  MOVF   34,W
0E750:  SUBLW  0C
0E752:  BNZ   E75E
....................             Opcion2++; 
0E754:  MOVLB  2
0E756:  INCF   x69,F
....................             RX_Buffer[4]=0x00;   
0E758:  CLRF   34
....................             RX_Buffer2[4]=0x00;             
0E75A:  CLRF   3F
0E75C:  MOVLB  0
....................             //BorraBuffer();    
....................       } 
....................           
....................       if(RX_Buffer[4]==0x0d){//Tecla Derecha Oprimida          
0E75E:  MOVF   34,W
0E760:  SUBLW  0D
0E762:  BNZ   E76E
....................             Opcion2--; 
0E764:  MOVLB  2
0E766:  DECF   x69,F
....................             RX_Buffer[4]=0x00; 
0E768:  CLRF   34
....................             RX_Buffer2[4]=0x00;             
0E76A:  CLRF   3F
0E76C:  MOVLB  0
....................             //BorraBuffer(); 
....................       } 
....................        
....................       if(RX_Buffer[4]==0x11){//Tecla Regresar 
0E76E:  MOVF   34,W
0E770:  SUBLW  11
0E772:  BTFSS  FD8.2
0E774:  BRA    EC46
....................          delay_ms(20); 
0E776:  MOVLW  14
0E778:  MOVLB  6
0E77A:  MOVWF  xC2
0E77C:  MOVLB  0
0E77E:  CALL   1F7A
....................          if(RX_Buffer[4]==0x11){ 
0E782:  MOVF   34,W
0E784:  SUBLW  11
0E786:  BTFSS  FD8.2
0E788:  BRA    EC46
....................             if(!GuardaEEPROM){ 
0E78A:  MOVLB  1
0E78C:  BTFSC  x00.0
0E78E:  BRA    EC30
....................                write_eeprom(20,(int8)Ganancia); 
0E790:  MOVFF  220,6C5
0E794:  MOVFF  21F,6C4
0E798:  MOVFF  21E,6C3
0E79C:  MOVFF  21D,6C2
0E7A0:  MOVLB  0
0E7A2:  CALL   4C8A
0E7A6:  MOVFF  01,6B0
0E7AA:  CLRF   FAA
0E7AC:  MOVLW  14
0E7AE:  MOVWF  FA9
0E7B0:  MOVFF  6B0,FA8
0E7B4:  BCF    FA6.6
0E7B6:  BCF    FA6.7
0E7B8:  BSF    FA6.2
0E7BA:  MOVF   FF2,W
0E7BC:  MOVWF  00
0E7BE:  BCF    FF2.6
0E7C0:  BCF    FF2.7
0E7C2:  MOVLB  F
0E7C4:  MOVLW  55
0E7C6:  MOVWF  FA7
0E7C8:  MOVLW  AA
0E7CA:  MOVWF  FA7
0E7CC:  BSF    FA6.1
0E7CE:  BTFSC  FA6.1
0E7D0:  BRA    E7CE
0E7D2:  BCF    FA6.2
0E7D4:  MOVF   00,W
0E7D6:  IORWF  FF2,F
....................                delay_ms(10); 
0E7D8:  MOVLW  0A
0E7DA:  MOVLB  6
0E7DC:  MOVWF  xC2
0E7DE:  MOVLB  0
0E7E0:  CALL   1F7A
....................                write_eeprom(21,Sensor[0].Ajuste); 
0E7E4:  CLRF   FAA
0E7E6:  MOVLW  15
0E7E8:  MOVWF  FA9
0E7EA:  MOVFF  33E,FA8
0E7EE:  BCF    FA6.6
0E7F0:  BCF    FA6.7
0E7F2:  BSF    FA6.2
0E7F4:  MOVF   FF2,W
0E7F6:  MOVWF  00
0E7F8:  BCF    FF2.6
0E7FA:  BCF    FF2.7
0E7FC:  MOVLB  F
0E7FE:  MOVLW  55
0E800:  MOVWF  FA7
0E802:  MOVLW  AA
0E804:  MOVWF  FA7
0E806:  BSF    FA6.1
0E808:  BTFSC  FA6.1
0E80A:  BRA    E808
0E80C:  BCF    FA6.2
0E80E:  MOVF   00,W
0E810:  IORWF  FF2,F
....................                delay_ms(10); 
0E812:  MOVLW  0A
0E814:  MOVLB  6
0E816:  MOVWF  xC2
0E818:  MOVLB  0
0E81A:  CALL   1F7A
....................                write_eeprom(22,Sensor[0].Ajusten); 
0E81E:  CLRF   FAA
0E820:  MOVLW  16
0E822:  MOVWF  FA9
0E824:  MOVFF  33F,FA8
0E828:  BCF    FA6.6
0E82A:  BCF    FA6.7
0E82C:  BSF    FA6.2
0E82E:  MOVF   FF2,W
0E830:  MOVWF  00
0E832:  BCF    FF2.6
0E834:  BCF    FF2.7
0E836:  MOVLB  F
0E838:  MOVLW  55
0E83A:  MOVWF  FA7
0E83C:  MOVLW  AA
0E83E:  MOVWF  FA7
0E840:  BSF    FA6.1
0E842:  BTFSC  FA6.1
0E844:  BRA    E842
0E846:  BCF    FA6.2
0E848:  MOVF   00,W
0E84A:  IORWF  FF2,F
....................                delay_ms(10); 
0E84C:  MOVLW  0A
0E84E:  MOVLB  6
0E850:  MOVWF  xC2
0E852:  MOVLB  0
0E854:  CALL   1F7A
....................                write_eeprom(23,Sensor[1].Ajuste); 
0E858:  CLRF   FAA
0E85A:  MOVLW  17
0E85C:  MOVWF  FA9
0E85E:  MOVFF  4A2,FA8
0E862:  BCF    FA6.6
0E864:  BCF    FA6.7
0E866:  BSF    FA6.2
0E868:  MOVF   FF2,W
0E86A:  MOVWF  00
0E86C:  BCF    FF2.6
0E86E:  BCF    FF2.7
0E870:  MOVLB  F
0E872:  MOVLW  55
0E874:  MOVWF  FA7
0E876:  MOVLW  AA
0E878:  MOVWF  FA7
0E87A:  BSF    FA6.1
0E87C:  BTFSC  FA6.1
0E87E:  BRA    E87C
0E880:  BCF    FA6.2
0E882:  MOVF   00,W
0E884:  IORWF  FF2,F
....................                delay_ms(10); 
0E886:  MOVLW  0A
0E888:  MOVLB  6
0E88A:  MOVWF  xC2
0E88C:  MOVLB  0
0E88E:  CALL   1F7A
....................                write_eeprom(24,Sensor[1].Ajusten); 
0E892:  CLRF   FAA
0E894:  MOVLW  18
0E896:  MOVWF  FA9
0E898:  MOVFF  4A3,FA8
0E89C:  BCF    FA6.6
0E89E:  BCF    FA6.7
0E8A0:  BSF    FA6.2
0E8A2:  MOVF   FF2,W
0E8A4:  MOVWF  00
0E8A6:  BCF    FF2.6
0E8A8:  BCF    FF2.7
0E8AA:  MOVLB  F
0E8AC:  MOVLW  55
0E8AE:  MOVWF  FA7
0E8B0:  MOVLW  AA
0E8B2:  MOVWF  FA7
0E8B4:  BSF    FA6.1
0E8B6:  BTFSC  FA6.1
0E8B8:  BRA    E8B6
0E8BA:  BCF    FA6.2
0E8BC:  MOVF   00,W
0E8BE:  IORWF  FF2,F
....................                delay_ms(10); 
0E8C0:  MOVLW  0A
0E8C2:  MOVLB  6
0E8C4:  MOVWF  xC2
0E8C6:  MOVLB  0
0E8C8:  CALL   1F7A
....................                write_eeprom(25,(int8)MediaMovil); 
0E8CC:  CLRF   FAA
0E8CE:  MOVLW  19
0E8D0:  MOVWF  FA9
0E8D2:  MOVFF  1F5,FA8
0E8D6:  BCF    FA6.6
0E8D8:  BCF    FA6.7
0E8DA:  BSF    FA6.2
0E8DC:  MOVF   FF2,W
0E8DE:  MOVWF  00
0E8E0:  BCF    FF2.6
0E8E2:  BCF    FF2.7
0E8E4:  MOVLB  F
0E8E6:  MOVLW  55
0E8E8:  MOVWF  FA7
0E8EA:  MOVLW  AA
0E8EC:  MOVWF  FA7
0E8EE:  BSF    FA6.1
0E8F0:  BTFSC  FA6.1
0E8F2:  BRA    E8F0
0E8F4:  BCF    FA6.2
0E8F6:  MOVF   00,W
0E8F8:  IORWF  FF2,F
....................                delay_ms(10); 
0E8FA:  MOVLW  0A
0E8FC:  MOVLB  6
0E8FE:  MOVWF  xC2
0E900:  MOVLB  0
0E902:  CALL   1F7A
....................                write_eeprom(26,(int8)Tciclo); 
0E906:  MOVFF  208,6C5
0E90A:  MOVFF  207,6C4
0E90E:  MOVFF  206,6C3
0E912:  MOVFF  205,6C2
0E916:  CALL   4C8A
0E91A:  MOVFF  01,6B0
0E91E:  CLRF   FAA
0E920:  MOVLW  1A
0E922:  MOVWF  FA9
0E924:  MOVFF  6B0,FA8
0E928:  BCF    FA6.6
0E92A:  BCF    FA6.7
0E92C:  BSF    FA6.2
0E92E:  MOVF   FF2,W
0E930:  MOVWF  00
0E932:  BCF    FF2.6
0E934:  BCF    FF2.7
0E936:  MOVLB  F
0E938:  MOVLW  55
0E93A:  MOVWF  FA7
0E93C:  MOVLW  AA
0E93E:  MOVWF  FA7
0E940:  BSF    FA6.1
0E942:  BTFSC  FA6.1
0E944:  BRA    E942
0E946:  BCF    FA6.2
0E948:  MOVF   00,W
0E94A:  IORWF  FF2,F
....................                delay_ms(10); 
0E94C:  MOVLW  0A
0E94E:  MOVLB  6
0E950:  MOVWF  xC2
0E952:  MOVLB  0
0E954:  CALL   1F7A
....................                write_eeprom(28,(int8)Sensor[0].RPT100); 
0E958:  MOVFF  333,6C5
0E95C:  MOVFF  332,6C4
0E960:  MOVFF  331,6C3
0E964:  MOVFF  330,6C2
0E968:  CALL   4C8A
0E96C:  MOVFF  01,6B0
0E970:  CLRF   FAA
0E972:  MOVLW  1C
0E974:  MOVWF  FA9
0E976:  MOVFF  6B0,FA8
0E97A:  BCF    FA6.6
0E97C:  BCF    FA6.7
0E97E:  BSF    FA6.2
0E980:  MOVF   FF2,W
0E982:  MOVWF  00
0E984:  BCF    FF2.6
0E986:  BCF    FF2.7
0E988:  MOVLB  F
0E98A:  MOVLW  55
0E98C:  MOVWF  FA7
0E98E:  MOVLW  AA
0E990:  MOVWF  FA7
0E992:  BSF    FA6.1
0E994:  BTFSC  FA6.1
0E996:  BRA    E994
0E998:  BCF    FA6.2
0E99A:  MOVF   00,W
0E99C:  IORWF  FF2,F
....................                delay_ms(10); 
0E99E:  MOVLW  0A
0E9A0:  MOVLB  6
0E9A2:  MOVWF  xC2
0E9A4:  MOVLB  0
0E9A6:  CALL   1F7A
....................                Temporal=Sensor[0].RPT100-((int8)Sensor[0].RPT100); 
0E9AA:  MOVFF  333,6C5
0E9AE:  MOVFF  332,6C4
0E9B2:  MOVFF  331,6C3
0E9B6:  MOVFF  330,6C2
0E9BA:  CALL   4C8A
0E9BE:  MOVLB  6
0E9C0:  CLRF   xC3
0E9C2:  MOVFF  01,6C2
0E9C6:  MOVLB  0
0E9C8:  CALL   1F44
0E9CC:  BSF    FD8.1
0E9CE:  MOVFF  333,6C5
0E9D2:  MOVFF  332,6C4
0E9D6:  MOVFF  331,6C3
0E9DA:  MOVFF  330,6C2
0E9DE:  MOVFF  03,6C9
0E9E2:  MOVFF  02,6C8
0E9E6:  MOVFF  01,6C7
0E9EA:  MOVFF  00,6C6
0E9EE:  CALL   2100
0E9F2:  MOVFF  03,1BE
0E9F6:  MOVFF  02,1BD
0E9FA:  MOVFF  01,1BC
0E9FE:  MOVFF  00,1BB
....................                Temporal=Temporal*10; 
0EA02:  MOVFF  1BE,6C9
0EA06:  MOVFF  1BD,6C8
0EA0A:  MOVFF  1BC,6C7
0EA0E:  MOVFF  1BB,6C6
0EA12:  MOVLB  6
0EA14:  CLRF   xCD
0EA16:  CLRF   xCC
0EA18:  MOVLW  20
0EA1A:  MOVWF  xCB
0EA1C:  MOVLW  82
0EA1E:  MOVWF  xCA
0EA20:  MOVLB  0
0EA22:  CALL   406A
0EA26:  MOVFF  03,1BE
0EA2A:  MOVFF  02,1BD
0EA2E:  MOVFF  01,1BC
0EA32:  MOVFF  00,1BB
....................                write_eeprom(27,(int8)Temporal); 
0EA36:  MOVFF  1BE,6C5
0EA3A:  MOVFF  1BD,6C4
0EA3E:  MOVFF  1BC,6C3
0EA42:  MOVFF  1BB,6C2
0EA46:  CALL   4C8A
0EA4A:  MOVFF  01,6B0
0EA4E:  CLRF   FAA
0EA50:  MOVLW  1B
0EA52:  MOVWF  FA9
0EA54:  MOVFF  6B0,FA8
0EA58:  BCF    FA6.6
0EA5A:  BCF    FA6.7
0EA5C:  BSF    FA6.2
0EA5E:  MOVF   FF2,W
0EA60:  MOVWF  00
0EA62:  BCF    FF2.6
0EA64:  BCF    FF2.7
0EA66:  MOVLB  F
0EA68:  MOVLW  55
0EA6A:  MOVWF  FA7
0EA6C:  MOVLW  AA
0EA6E:  MOVWF  FA7
0EA70:  BSF    FA6.1
0EA72:  BTFSC  FA6.1
0EA74:  BRA    EA72
0EA76:  BCF    FA6.2
0EA78:  MOVF   00,W
0EA7A:  IORWF  FF2,F
....................                delay_ms(10); 
0EA7C:  MOVLW  0A
0EA7E:  MOVLB  6
0EA80:  MOVWF  xC2
0EA82:  MOVLB  0
0EA84:  CALL   1F7A
....................                write_eeprom(30,(int8)Sensor[1].RPT100); 
0EA88:  MOVFF  497,6C5
0EA8C:  MOVFF  496,6C4
0EA90:  MOVFF  495,6C3
0EA94:  MOVFF  494,6C2
0EA98:  CALL   4C8A
0EA9C:  MOVFF  01,6B0
0EAA0:  CLRF   FAA
0EAA2:  MOVLW  1E
0EAA4:  MOVWF  FA9
0EAA6:  MOVFF  6B0,FA8
0EAAA:  BCF    FA6.6
0EAAC:  BCF    FA6.7
0EAAE:  BSF    FA6.2
0EAB0:  MOVF   FF2,W
0EAB2:  MOVWF  00
0EAB4:  BCF    FF2.6
0EAB6:  BCF    FF2.7
0EAB8:  MOVLB  F
0EABA:  MOVLW  55
0EABC:  MOVWF  FA7
0EABE:  MOVLW  AA
0EAC0:  MOVWF  FA7
0EAC2:  BSF    FA6.1
0EAC4:  BTFSC  FA6.1
0EAC6:  BRA    EAC4
0EAC8:  BCF    FA6.2
0EACA:  MOVF   00,W
0EACC:  IORWF  FF2,F
....................                delay_ms(10); 
0EACE:  MOVLW  0A
0EAD0:  MOVLB  6
0EAD2:  MOVWF  xC2
0EAD4:  MOVLB  0
0EAD6:  CALL   1F7A
....................                Temporal=Sensor[1].RPT100-((int8)Sensor[1].RPT100); 
0EADA:  MOVFF  497,6C5
0EADE:  MOVFF  496,6C4
0EAE2:  MOVFF  495,6C3
0EAE6:  MOVFF  494,6C2
0EAEA:  CALL   4C8A
0EAEE:  MOVLB  6
0EAF0:  CLRF   xC3
0EAF2:  MOVFF  01,6C2
0EAF6:  MOVLB  0
0EAF8:  CALL   1F44
0EAFC:  BSF    FD8.1
0EAFE:  MOVFF  497,6C5
0EB02:  MOVFF  496,6C4
0EB06:  MOVFF  495,6C3
0EB0A:  MOVFF  494,6C2
0EB0E:  MOVFF  03,6C9
0EB12:  MOVFF  02,6C8
0EB16:  MOVFF  01,6C7
0EB1A:  MOVFF  00,6C6
0EB1E:  CALL   2100
0EB22:  MOVFF  03,1BE
0EB26:  MOVFF  02,1BD
0EB2A:  MOVFF  01,1BC
0EB2E:  MOVFF  00,1BB
....................                Temporal=Temporal*10; 
0EB32:  MOVFF  1BE,6C9
0EB36:  MOVFF  1BD,6C8
0EB3A:  MOVFF  1BC,6C7
0EB3E:  MOVFF  1BB,6C6
0EB42:  MOVLB  6
0EB44:  CLRF   xCD
0EB46:  CLRF   xCC
0EB48:  MOVLW  20
0EB4A:  MOVWF  xCB
0EB4C:  MOVLW  82
0EB4E:  MOVWF  xCA
0EB50:  MOVLB  0
0EB52:  CALL   406A
0EB56:  MOVFF  03,1BE
0EB5A:  MOVFF  02,1BD
0EB5E:  MOVFF  01,1BC
0EB62:  MOVFF  00,1BB
....................                write_eeprom(29,(int8)Temporal); 
0EB66:  MOVFF  1BE,6C5
0EB6A:  MOVFF  1BD,6C4
0EB6E:  MOVFF  1BC,6C3
0EB72:  MOVFF  1BB,6C2
0EB76:  CALL   4C8A
0EB7A:  MOVFF  01,6B0
0EB7E:  CLRF   FAA
0EB80:  MOVLW  1D
0EB82:  MOVWF  FA9
0EB84:  MOVFF  6B0,FA8
0EB88:  BCF    FA6.6
0EB8A:  BCF    FA6.7
0EB8C:  BSF    FA6.2
0EB8E:  MOVF   FF2,W
0EB90:  MOVWF  00
0EB92:  BCF    FF2.6
0EB94:  BCF    FF2.7
0EB96:  MOVLB  F
0EB98:  MOVLW  55
0EB9A:  MOVWF  FA7
0EB9C:  MOVLW  AA
0EB9E:  MOVWF  FA7
0EBA0:  BSF    FA6.1
0EBA2:  BTFSC  FA6.1
0EBA4:  BRA    EBA2
0EBA6:  BCF    FA6.2
0EBA8:  MOVF   00,W
0EBAA:  IORWF  FF2,F
....................                delay_ms(10); 
0EBAC:  MOVLW  0A
0EBAE:  MOVLB  6
0EBB0:  MOVWF  xC2
0EBB2:  MOVLB  0
0EBB4:  CALL   1F7A
....................                write_eeprom(31,Atmosferica); 
0EBB8:  CLRF   FAA
0EBBA:  MOVLW  1F
0EBBC:  MOVWF  FA9
0EBBE:  MOVFF  2A2,FA8
0EBC2:  BCF    FA6.6
0EBC4:  BCF    FA6.7
0EBC6:  BSF    FA6.2
0EBC8:  MOVF   FF2,W
0EBCA:  MOVWF  00
0EBCC:  BCF    FF2.6
0EBCE:  BCF    FF2.7
0EBD0:  MOVLB  F
0EBD2:  MOVLW  55
0EBD4:  MOVWF  FA7
0EBD6:  MOVLW  AA
0EBD8:  MOVWF  FA7
0EBDA:  BSF    FA6.1
0EBDC:  BTFSC  FA6.1
0EBDE:  BRA    EBDC
0EBE0:  BCF    FA6.2
0EBE2:  MOVF   00,W
0EBE4:  IORWF  FF2,F
....................                delay_ms(10); 
0EBE6:  MOVLW  0A
0EBE8:  MOVLB  6
0EBEA:  MOVWF  xC2
0EBEC:  MOVLB  0
0EBEE:  CALL   1F7A
....................                write_eeprom(32,Tapertura); 
0EBF2:  CLRF   FAA
0EBF4:  MOVLW  20
0EBF6:  MOVWF  FA9
0EBF8:  MOVFF  260,FA8
0EBFC:  BCF    FA6.6
0EBFE:  BCF    FA6.7
0EC00:  BSF    FA6.2
0EC02:  MOVF   FF2,W
0EC04:  MOVWF  00
0EC06:  BCF    FF2.6
0EC08:  BCF    FF2.7
0EC0A:  MOVLB  F
0EC0C:  MOVLW  55
0EC0E:  MOVWF  FA7
0EC10:  MOVLW  AA
0EC12:  MOVWF  FA7
0EC14:  BSF    FA6.1
0EC16:  BTFSC  FA6.1
0EC18:  BRA    EC16
0EC1A:  BCF    FA6.2
0EC1C:  MOVF   00,W
0EC1E:  IORWF  FF2,F
....................                delay_ms(10); 
0EC20:  MOVLW  0A
0EC22:  MOVLB  6
0EC24:  MOVWF  xC2
0EC26:  MOVLB  0
0EC28:  CALL   1F7A
....................                GuardaEEPROM=ON; 
0EC2C:  MOVLB  1
0EC2E:  BSF    x00.0
....................             } 
....................             printf("page Menu"); 
0EC30:  MOVLW  04
0EC32:  MOVWF  FF6
0EC34:  MOVLW  1F
0EC36:  MOVWF  FF7
0EC38:  MOVLW  00
0EC3A:  MOVWF  FF8
0EC3C:  MOVLB  0
0EC3E:  CALL   3FFA
....................             SendDataDisplay(); 
0EC42:  CALL   402C
....................             //BorraBuffer(); 
....................          } 
....................       } 
....................       printf("fecha.txt=\"Fecha:%02u/%02u/20%02u    Hora: %02u:%02u\"",Dia,Mes,Year,Hora,Minuto); 
0EC46:  MOVLW  0E
0EC48:  MOVWF  FF6
0EC4A:  MOVLW  1F
0EC4C:  MOVWF  FF7
0EC4E:  MOVLW  00
0EC50:  MOVWF  FF8
0EC52:  MOVLW  11
0EC54:  MOVLB  6
0EC56:  MOVWF  xB5
0EC58:  MOVLB  0
0EC5A:  CALL   5994
0EC5E:  MOVFF  29A,6B5
0EC62:  MOVLW  01
0EC64:  MOVLB  6
0EC66:  MOVWF  xB6
0EC68:  MOVLB  0
0EC6A:  CALL   5A18
0EC6E:  MOVLW  2F
0EC70:  BTFSS  F9E.4
0EC72:  BRA    EC70
0EC74:  MOVWF  FAD
0EC76:  MOVFF  299,6B5
0EC7A:  MOVLW  01
0EC7C:  MOVLB  6
0EC7E:  MOVWF  xB6
0EC80:  MOVLB  0
0EC82:  CALL   5A18
0EC86:  MOVLW  2F
0EC88:  BTFSS  F9E.4
0EC8A:  BRA    EC88
0EC8C:  MOVWF  FAD
0EC8E:  MOVLW  32
0EC90:  BTFSS  F9E.4
0EC92:  BRA    EC90
0EC94:  MOVWF  FAD
0EC96:  MOVLW  30
0EC98:  BTFSS  F9E.4
0EC9A:  BRA    EC98
0EC9C:  MOVWF  FAD
0EC9E:  MOVFF  298,6B5
0ECA2:  MOVLW  01
0ECA4:  MOVLB  6
0ECA6:  MOVWF  xB6
0ECA8:  MOVLB  0
0ECAA:  CALL   5A18
0ECAE:  MOVLW  2F
0ECB0:  MOVWF  FF6
0ECB2:  MOVLW  1F
0ECB4:  MOVWF  FF7
0ECB6:  MOVLW  00
0ECB8:  MOVWF  FF8
0ECBA:  MOVLW  0A
0ECBC:  MOVLB  6
0ECBE:  MOVWF  xB5
0ECC0:  MOVLB  0
0ECC2:  CALL   5994
0ECC6:  MOVFF  29B,6B5
0ECCA:  MOVLW  01
0ECCC:  MOVLB  6
0ECCE:  MOVWF  xB6
0ECD0:  MOVLB  0
0ECD2:  CALL   5A18
0ECD6:  MOVLW  3A
0ECD8:  BTFSS  F9E.4
0ECDA:  BRA    ECD8
0ECDC:  MOVWF  FAD
0ECDE:  MOVFF  29C,6B5
0ECE2:  MOVLW  01
0ECE4:  MOVLB  6
0ECE6:  MOVWF  xB6
0ECE8:  MOVLB  0
0ECEA:  CALL   5A18
0ECEE:  MOVLW  22
0ECF0:  BTFSS  F9E.4
0ECF2:  BRA    ECF0
0ECF4:  MOVWF  FAD
....................       SendDataDisplay();  
0ECF6:  CALL   402C
....................     } 
.................... //_--------------------------------------------------------------------------------------------------------------------------------------------------------        
....................  
....................    } 
0ECFA:  MOVLB  0
0ECFC:  GOTO   7E94
.................... } 
0ED00:  SLEEP 

Configuration Fuses:
   Word  1: 0200   HS NOIESO NOFCMEN
   Word  2: 1B1F   BROWNOUT WDT BORV20 NOPUT WDT8192
   Word  3: 0000   NOPBADEN NOLPT1OSC NOMCLR
   Word  4: 00B0   NOSTVREN NODEBUG NOLVP NOXINST BBSIZ4K
   Word  5: C03F   NOPROTECT NOCPD NOCPB
   Word  6: E03F   NOWRT NOWRTD NOWRTC NOWRTB
   Word  7: 403F   NOEBTR NOEBTRB
