CCS PCH C Compiler, Version 4.104, 5967               07-oct.-20 11:10

               Filename: D:\Laboratorio\Autoclave\Autoclaves Vertical\Sin Precamara\2020\Autoclave 62L Avantika #004588377 OP202003\Firmware V4.0.3 200 Ciclos\GLCD_Controller\GLCD_Controller.lst

               ROM used: 57098 bytes (58%)
                         Largest free fragment is 32768
               RAM used: 1055 (32%) at main() level
                         1083 (33%) worst case
               Stack:    5 worst case (4 in main + 1 for interrupts)

*
00000:  GOTO   718E
*
00008:  GOTO   00BA
0000C:  NOP   
0000E:  NOP   
00010:  NOP   
00012:  NOP   
00014:  NOP   
00016:  NOP   
00018:  MOVWF  04
0001A:  MOVFF  FD8,05
0001E:  MOVFF  FE0,06
00022:  MOVLB  0
00024:  MOVFF  FE9,0C
00028:  MOVFF  FEA,07
0002C:  MOVFF  FE1,08
00030:  MOVFF  FE2,09
00034:  MOVFF  FD9,0A
00038:  MOVFF  FDA,0B
0003C:  MOVFF  FF3,12
00040:  MOVFF  FF4,13
00044:  MOVFF  FFA,14
00048:  MOVFF  FFB,15
0004C:  MOVFF  00,0E
00050:  MOVFF  01,0F
00054:  MOVFF  02,10
00058:  MOVFF  03,11
0005C:  BTFSS  FF2.5
0005E:  GOTO   0068
00062:  BTFSC  FF2.2
00064:  GOTO   03A4
00068:  BTFSS  F9D.0
0006A:  GOTO   0074
0006E:  BTFSC  F9E.0
00070:  GOTO   03FC
00074:  MOVFF  0E,00
00078:  MOVFF  0F,01
0007C:  MOVFF  10,02
00080:  MOVFF  11,03
00084:  MOVFF  0C,FE9
00088:  MOVFF  07,FEA
0008C:  BSF    07.7
0008E:  MOVFF  08,FE1
00092:  MOVFF  09,FE2
00096:  MOVFF  0A,FD9
0009A:  MOVFF  0B,FDA
0009E:  MOVFF  12,FF3
000A2:  MOVFF  13,FF4
000A6:  MOVFF  14,FFA
000AA:  MOVFF  15,FFB
000AE:  MOVF   04,W
000B0:  MOVFF  06,FE0
000B4:  MOVFF  05,FD8
000B8:  RETFIE 0
000BA:  MOVWF  17
000BC:  MOVFF  FD8,18
000C0:  MOVFF  FE0,19
000C4:  MOVLB  0
000C6:  MOVFF  FE9,1F
000CA:  MOVFF  FEA,1A
000CE:  MOVFF  FE1,1B
000D2:  MOVFF  FE2,1C
000D6:  MOVFF  FD9,1D
000DA:  MOVFF  FDA,1E
000DE:  MOVFF  FF3,25
000E2:  MOVFF  FF4,26
000E6:  MOVFF  FFA,27
000EA:  MOVFF  FFB,28
000EE:  MOVFF  00,21
000F2:  MOVFF  01,22
000F6:  MOVFF  02,23
000FA:  MOVFF  03,24
000FE:  BTFSS  F9D.5
00100:  GOTO   010A
00104:  BTFSC  F9E.5
00106:  GOTO   0336
0010A:  MOVFF  21,00
0010E:  MOVFF  22,01
00112:  MOVFF  23,02
00116:  MOVFF  24,03
0011A:  MOVFF  1F,FE9
0011E:  MOVFF  1A,FEA
00122:  BSF    1A.7
00124:  MOVFF  1B,FE1
00128:  MOVFF  1C,FE2
0012C:  MOVFF  1D,FD9
00130:  MOVFF  1E,FDA
00134:  MOVFF  25,FF3
00138:  MOVFF  26,FF4
0013C:  MOVFF  27,FFA
00140:  MOVFF  28,FFB
00144:  MOVF   17,W
00146:  MOVFF  19,FE0
0014A:  MOVFF  18,FD8
0014E:  RETFIE 0
.................... //Falta crear menu de ajuste de variables y de norma CFR21 
....................  
.................... #include <18F4685.h> 
.................... //////// Standard Header file for the PIC18F4685 device //////////////// 
.................... #device PIC18F4685 
.................... #list 
....................  
.................... #device adc=10 
.................... #device HIGH_INTS=TRUE //Activamos niveles de prioridad 
.................... #fuses HS,WDT8192,NOPROTECT,NOLVP,NODEBUG,NOSTVREN,NOPUT,NOCPD,NOWRT,NOIESO,NOFCMEN,NOPBADEN,NOWRTC,NOWRTB,NOEBTR,NOEBTRB,NOCPB,NOXINST,NOLPT1OSC,NOMCLR 
.................... #use delay(clock=20000000) 
*
019C2:  MOVLW  04
019C4:  MOVWF  FEA
019C6:  MOVLW  29
019C8:  MOVWF  FE9
019CA:  MOVF   FEF,W
019CC:  BZ    19E8
019CE:  MOVLW  06
019D0:  MOVWF  01
019D2:  CLRF   00
019D4:  DECFSZ 00,F
019D6:  BRA    19D4
019D8:  DECFSZ 01,F
019DA:  BRA    19D2
019DC:  MOVLW  7B
019DE:  MOVWF  00
019E0:  DECFSZ 00,F
019E2:  BRA    19E0
019E4:  DECFSZ FEF,F
019E6:  BRA    19CE
019E8:  RETLW  00
.................... #use i2c(Master,slow,sda=PIN_C4,scl=PIN_C3) 
*
01E18:  MOVLW  08
01E1A:  MOVWF  01
01E1C:  MOVLW  05
01E1E:  MOVWF  00
01E20:  DECFSZ 00,F
01E22:  BRA    1E20
01E24:  BCF    F8B.3
01E26:  BCF    F94.3
01E28:  MOVLW  06
01E2A:  MOVWF  00
01E2C:  DECFSZ 00,F
01E2E:  BRA    1E2C
01E30:  MOVLB  4
01E32:  RLCF   x2A,F
01E34:  BCF    F8B.4
01E36:  BTFSC  FD8.0
01E38:  BSF    F94.4
01E3A:  BTFSS  FD8.0
01E3C:  BCF    F94.4
01E3E:  BSF    F94.3
01E40:  BTFSS  F82.3
01E42:  BRA    1E40
01E44:  DECFSZ 01,F
01E46:  BRA    1E4A
01E48:  BRA    1E4E
01E4A:  MOVLB  0
01E4C:  BRA    1E1C
01E4E:  MOVLW  05
01E50:  MOVWF  00
01E52:  DECFSZ 00,F
01E54:  BRA    1E52
01E56:  BCF    F8B.3
01E58:  BCF    F94.3
01E5A:  NOP   
01E5C:  BSF    F94.4
01E5E:  MOVLW  06
01E60:  MOVWF  00
01E62:  DECFSZ 00,F
01E64:  BRA    1E62
01E66:  MOVLW  06
01E68:  MOVWF  00
01E6A:  DECFSZ 00,F
01E6C:  BRA    1E6A
01E6E:  BSF    F94.3
01E70:  BTFSS  F82.3
01E72:  BRA    1E70
01E74:  CLRF   01
01E76:  MOVLW  06
01E78:  MOVWF  00
01E7A:  DECFSZ 00,F
01E7C:  BRA    1E7A
01E7E:  BTFSC  F82.4
01E80:  BSF    01.0
01E82:  BCF    F8B.3
01E84:  BCF    F94.3
01E86:  BCF    F8B.4
01E88:  BCF    F94.4
01E8A:  MOVLB  0
01E8C:  RETLW  00
01E8E:  MOVLW  08
01E90:  MOVLB  4
01E92:  MOVWF  x1D
01E94:  MOVFF  00,41E
01E98:  BSF    F94.4
01E9A:  MOVLW  06
01E9C:  MOVWF  00
01E9E:  DECFSZ 00,F
01EA0:  BRA    1E9E
01EA2:  BSF    F94.3
01EA4:  BTFSS  F82.3
01EA6:  BRA    1EA4
01EA8:  BTFSC  F82.4
01EAA:  BSF    FD8.0
01EAC:  BTFSS  F82.4
01EAE:  BCF    FD8.0
01EB0:  RLCF   01,F
01EB2:  MOVLW  05
01EB4:  MOVWF  00
01EB6:  DECFSZ 00,F
01EB8:  BRA    1EB6
01EBA:  BCF    F94.3
01EBC:  BCF    F8B.3
01EBE:  DECFSZ x1D,F
01EC0:  BRA    1E98
01EC2:  BSF    F94.4
01EC4:  MOVLW  06
01EC6:  MOVWF  00
01EC8:  DECFSZ 00,F
01ECA:  BRA    1EC8
01ECC:  BCF    F8B.4
01ECE:  MOVF   x1E,W
01ED0:  BTFSS  FD8.2
01ED2:  BCF    F94.4
01ED4:  NOP   
01ED6:  BSF    F94.3
01ED8:  BTFSS  F82.3
01EDA:  BRA    1ED8
01EDC:  MOVLW  05
01EDE:  MOVWF  00
01EE0:  DECFSZ 00,F
01EE2:  BRA    1EE0
01EE4:  BCF    F8B.3
01EE6:  BCF    F94.3
01EE8:  MOVLW  06
01EEA:  MOVWF  00
01EEC:  DECFSZ 00,F
01EEE:  BRA    1EEC
01EF0:  BCF    F8B.4
01EF2:  BCF    F94.4
01EF4:  MOVLB  0
01EF6:  GOTO   1F74 (RETURN)
.................... #use rs232(baud=9600, xmit=PIN_C6, rcv=PIN_C7, bits=8, parity=N) 
*
040A2:  BTFSS  F9E.4
040A4:  BRA    40A2
040A6:  MOVWF  FAD
040A8:  RETLW  00
....................  
.................... #include <stdio.h> 
.................... /////////////////////////////////////////////////////////////////////////// 
.................... ////        (C) Copyright 1996,2003 Custom Computer Services           //// 
.................... //// This source code may only be used by licensed users of the CCS C  //// 
.................... //// compiler.  This source code may only be distributed to other      //// 
.................... //// licensed users of the CCS C compiler.  No other use, reproduction //// 
.................... //// or distribution is permitted without written permission.          //// 
.................... //// Derivative programs created using this software in object code    //// 
.................... //// form are not restricted in any way.                               //// 
.................... /////////////////////////////////////////////////////////////////////////// 
....................  
.................... #ifndef _STDIO 
.................... #define _STDIO 
.................... #include <string.h> 
.................... //////////////////////////////////////////////////////////////////////////// 
.................... ////        (C) Copyright 1996,2008 Custom Computer Services            //// 
.................... //// This source code may only be used by licensed users of the CCS C   //// 
.................... //// compiler.  This source code may only be distributed to other       //// 
.................... //// licensed users of the CCS C compiler.  No other use, reproduction  //// 
.................... //// or distribution is permitted without written permission.           //// 
.................... //// Derivative programs created using this software in object code     //// 
.................... //// form are not restricted in any way.                                //// 
.................... //////////////////////////////////////////////////////////////////////////// 
....................  
.................... #ifndef _STRING 
.................... #define _STRING 
.................... #include <stddef.h> 
.................... /////////////////////////////////////////////////////////////////////////// 
.................... ////        (C) Copyright 1996,2003 Custom Computer Services           //// 
.................... //// This source code may only be used by licensed users of the CCS C  //// 
.................... //// compiler.  This source code may only be distributed to other      //// 
.................... //// licensed users of the CCS C compiler.  No other use, reproduction //// 
.................... //// or distribution is permitted without written permission.          //// 
.................... //// Derivative programs created using this software in object code    //// 
.................... //// form are not restricted in any way.                               //// 
.................... /////////////////////////////////////////////////////////////////////////// 
....................  
.................... #ifndef _STDDEF 
....................  
.................... #define _STDDEF 
....................  
.................... #if sizeof(unsigned int8 *)==1 
.................... #define ptrdiff_t unsigned int8 
.................... #else 
.................... #define ptrdiff_t unsigned int16 
.................... #endif 
....................  
.................... #define size_t unsigned int8 
.................... #define wchar_t char 
.................... #define NULL 0 
....................  
.................... #define offsetof(s,f) (offsetofbit(s,f)/8) 
....................  
.................... #endif 
....................  
.................... #include <ctype.h> 
.................... //////////////////////////////////////////////////////////////////////////// 
.................... ////        (C) Copyright 1996,2003 Custom Computer Services            //// 
.................... //// This source code may only be used by licensed users of the CCS C   //// 
.................... //// compiler.  This source code may only be distributed to other       //// 
.................... //// licensed users of the CCS C compiler.  No other use, reproduction  //// 
.................... //// or distribution is permitted without written permission.           //// 
.................... //// Derivative programs created using this software in object code     //// 
.................... //// form are not restricted in any way.                                //// 
.................... //////////////////////////////////////////////////////////////////////////// 
....................  
.................... #ifndef _CTYPE 
.................... #define _CTYPE 
....................  
.................... #define islower(x)  isamong(x,"abcdefghijklmnopqrstuvwxyz") 
.................... #define isupper(x)  isamong(x,"ABCDEFGHIJKLMNOPQRSTUVWXYZ") 
.................... #define isalnum(x)  isamong(x,"0123456789ABCDEFGHIJKLMNOPQRSTUVWXYZabcdefghijklmnopqrstuvwxyz") 
.................... #define isalpha(x)  isamong(x,"ABCDEFGHIJKLMNOPQRSTUVWXYZabcdefghijklmnopqrstuvwxyz") 
.................... #define isdigit(x)  isamong(x,"0123456789") 
.................... #define isspace(x)  ((x)==' ') 
.................... #define isxdigit(x) isamong(x,"0123456789ABCDEFabcdef") 
.................... #define iscntrl(x)  ((x)<' ') 
.................... #define isprint(x)  ((x)>=' ') 
.................... #define isgraph(x)  ((x)>' ') 
.................... #define ispunct(x)  (((x)>' ')&&!isalnum(x)) 
....................  
.................... #endif 
....................  
....................  
....................  
....................  
....................  
.................... ////////////////////////////////////////////// 
.................... //// Uncomment the following define to    //// 
.................... //// allow some functions to use a        //// 
.................... //// quicker algorithm, but use more ROM  //// 
.................... ////                                      //// 
.................... //// #define FASTER_BUT_MORE_ROM          //// 
.................... ////////////////////////////////////////////// 
....................  
....................  
....................  
.................... /*Copying functions*/ 
.................... /* standard template: 
....................    void *memmove(void *s1, void *s2, size_t n). 
....................    Copies max of n characters safely (not following ending '\0') 
....................    from s2 in s1; if s2 has less than n characters, appends 0 */ 
....................  
.................... char *memmove(void *s1,char *s2,size_t n) 
.................... { 
....................    char *sc1; 
....................    char *sc2; 
....................    sc1=s1; 
....................    sc2=s2; 
....................    if(sc2<sc1 && sc1 <sc2 +n) 
....................       for(sc1+=n,sc2+=n;0<n;--n) 
....................          *--sc1=*--sc2; 
....................    else 
....................       for(;0<n;--n) 
....................          *sc1++=*sc2++; 
....................   return s1; 
....................   } 
....................  
.................... /* Standard template: char *strcpy(char *s1, const char *s2) 
....................    copies the string s2 including the null character to s1. 
....................    This is a compiler built in to handle the different address 
....................    spaces */ 
....................  
.................... #define strcopy strcpy 
....................  
.................... /* standard template: 
....................    char *strncpy(char *s1, const char *s2, size_t n). 
....................    Copies max of n characters (not following ending '\0') 
....................    from s2 in s1; if s2 has less than n characters, appends 0 */ 
....................  
.................... char *strncpy(char *s1, char *s2, size_t n) 
.................... { 
....................   char *s; 
....................  
....................   for (s = s1; n > 0 && *s2 != '\0'; n--) 
....................      *s++ = *s2++; 
....................   for (; n > 0; n--) 
....................      *s++ = '\0'; 
....................  
....................   return(s1); 
.................... } 
.................... /***********************************************************/ 
....................  
.................... /*concatenation functions*/ 
.................... /* standard template: char *strcat(char *s1, const char *s2) 
.................... appends s2 to s1*/ 
....................  
.................... char *strcat(char *s1, char *s2) 
.................... { 
....................    char *s; 
....................  
....................    for (s = s1; *s != '\0'; ++s); 
....................    while(*s2 != '\0') 
....................    { 
....................       *s = *s2; 
....................       ++s; 
....................       ++s2; 
....................    } 
....................  
....................    *s = '\0'; 
....................    return(s1); 
.................... } 
.................... /* standard template: char *strncat(char *s1, char *s2,size_t n) 
.................... appends not more than n characters from s2 to s1*/ 
....................  
.................... char *strncat(char *s1, char *s2, size_t n) 
.................... { 
....................    char *s; 
....................  
....................    for (s = s1; *s != '\0'; ++s); 
....................    while(*s2 != '\0' && 0<n) 
....................    { 
....................       *s = *s2; 
....................       ++s; 
....................       ++s2; 
....................       --n; 
....................    } 
....................  
....................    *s = '\0'; 
....................    return(s1); 
.................... } 
....................  
.................... /***********************************************************/ 
....................  
....................  
.................... /*comparison functions*/ 
.................... /* standard template: signed int memcmp(void *s1, void *s2). 
....................    Compares s1 & s2; returns -1 if s1<s2, 0 if s1=s2, 1 if s1>s2 */ 
....................  
.................... signed int8 memcmp(void * s1,char *s2,size_t n) 
.................... { 
.................... char *su1, *su2; 
.................... for(su1=s1, su2=s2; 0<n; ++su1, ++su2, --n) 
.................... { 
....................    if(*su1!=*su2) 
....................       return ((*su1<*su2)?-1:+1); 
.................... } 
.................... return 0; 
.................... } 
....................  
.................... /* standard template: int strcmp(const char *s1, const char *s2). 
....................    Compares s1 & s2; returns -1 if s1<s2, 0 if s1=s2, 1 if s1>s2 */ 
....................  
.................... signed int8 strcmp(char *s1, char *s2) 
.................... { 
....................    for (; *s1 == *s2; s1++, s2++) 
....................       if (*s1 == '\0') 
....................          return(0); 
....................    return((*s1 < *s2) ? -1: 1); 
.................... } 
.................... /* standard template: int strcoll(const char *s1, const char *s2). 
....................    Compares s1 & s2; returns -1 if s1<s2, 0 if s1=s2, 1 if s1>s2 */ 
....................  
.................... signed int8 strcoll(char *s1, char *s2) 
.................... { 
....................    for (; *s1 == *s2; s1++, s2++) 
....................       if (*s1 == '\0') 
....................          return(0); 
....................    return((*s1 < *s2) ? -1: 1); 
.................... } 
....................  
.................... /* standard template: 
....................    int strncmp(const char *s1, const char *s2, size_t n). 
....................    Compares max of n characters (not following 0) from s1 to s2; 
....................    returns same as strcmp */ 
....................  
.................... signed int8 strncmp(char *s1, char *s2, size_t n) 
.................... { 
....................    for (; n > 0; s1++, s2++, n--) 
....................       if (*s1 != *s2) 
....................          return((*s1 <*s2) ? -1: 1); 
....................       else if (*s1 == '\0') 
....................          return(0); 
....................    return(0); 
.................... } 
.................... /* standard template: 
....................    int strxfrm(const char *s1, const char *s2, size_t n). 
....................    transforms maximum of n characters from s2 and places them into s1*/ 
.................... size_t strxfrm(char *s1, char *s2, size_t n) 
.................... { 
....................   char *s; 
....................   unsigned int8 n1; 
....................   n1=n; 
....................   for (s = s1; n > 0 && *s2 != '\0'; n--) 
....................      *s++ = *s2++; 
....................   for (; n > 0; n--) 
....................      *s++ = '\0'; 
....................  
....................   return(n1); 
.................... } 
....................  
....................  
....................  
....................  
....................  
.................... /***********************************************************/ 
.................... /*Search functions*/ 
.................... /* standard template: void *memchr(const char *s, int c). 
....................    Finds first occurrence of c in n characters of s */ 
....................  
.................... char *memchr(void *s,unsigned int8 c,size_t n) 
.................... { 
....................    char uc; 
....................    char *su; 
....................    uc=c; 
....................    for(su=s;0<n;++su,--n) 
....................       if(*su==uc) 
....................       return su; 
....................    return NULL; 
.................... } 
....................  
.................... /* standard template: char *strchr(const char *s, int c). 
....................    Finds first occurrence of c in s */ 
....................  
.................... char *strchr(char *s, unsigned int8 c) 
.................... { 
....................    for (; *s != c; s++) 
....................       if (*s == '\0') 
....................          return(0); 
....................    return(s); 
.................... } 
.................... /* standard template: 
....................    size_t strcspn(const char *s1, const char *s2). 
....................    Computes length of max initial segment of s1 that 
....................    consists entirely of characters NOT from s2*/ 
....................  
.................... unsigned int8  strcspn(char *s1, char *s2) 
.................... { 
....................    char *sc1, *sc2; 
....................  
....................    for (sc1 = s1; *sc1 != 0; sc1++) 
....................       for (sc2 = s2; *sc2 != 0; sc2++) 
....................          if (*sc1 == *sc2) 
....................             return(sc1 - s1); 
....................    return(sc1 - s1); 
.................... } 
.................... /* standard template: 
....................    char *strpbrk(const char *s1, const char *s2). 
....................    Locates first occurence of any character from s2 in s1; 
....................    returns s1 if s2 is empty string */ 
....................  
.................... char *strpbrk(char *s1, char *s2) 
.................... { 
....................    char *sc1, *sc2; 
....................  
....................    for (sc1 = s1; *sc1 != 0; sc1++) 
....................       for (sc2 = s2; *sc2 != 0; sc2++) 
....................          if (*sc1 == *sc2) 
....................             return(sc1); 
....................    return(0); 
.................... } 
....................  
....................  
.................... /* standard template: char *strrchr(const char *s, int c). 
....................    Finds last occurrence of c in s */ 
....................  
.................... char *strrchr(char *s, unsigned int8 c) 
.................... { 
....................    char *p; 
....................  
....................    for (p = 0; ; s++) 
....................    { 
....................       if (*s == c) 
....................          p = s; 
....................       if (*s == '\0') 
....................          return(p); 
....................    } 
.................... } 
.................... /* computes length of max initial segment of s1 consisting 
....................    entirely of characters from s2 */ 
....................  
.................... unsigned int8  strspn(char *s1, char *s2) 
.................... { 
....................    char *sc1, *sc2; 
....................  
....................    for (sc1 = s1; *sc1 != 0; sc1++) 
....................       for (sc2 = s2; ; sc2++) 
....................     if (*sc2 == '\0') 
....................        return(sc1 - s1); 
....................          else if (*sc1 == *sc2) 
....................             break; 
....................    return(sc1 - s1); 
.................... } 
.................... /* standard template: 
....................    char *strstr(const char *s1, const char *s2); 
....................    Locates first occurence of character sequence s2 in s1; 
....................    returns 0 if s2 is empty string 
....................  
....................    Uncomment #define FASTER_BUT_MORE_ROM at the top of the 
....................    file to use the faster algorithm */ 
.................... char *strstr(char *s1, char *s2) 
.................... { 
....................    char *s, *t; 
....................  
....................    #ifdef FASTER_BUT_MORE_ROM 
....................    if (*s2 == '\0') 
....................          return(s1); 
....................    #endif 
....................  
....................    while (*s1) 
....................    { 
....................       for(s = s1, t = s2; *t && (*s == *t); ++s, ++t); 
....................  
....................       if (*t == '\0') 
....................          return s1; 
....................       ++s1; 
....................       #ifdef FASTER_BUT_MORE_ROM 
....................          while(*s1 != '\0' && *s1 != *s2) 
....................             ++s1; 
....................       #endif 
....................    } 
....................    return 0; 
.................... } 
....................  
.................... /* standard template: char *strtok(char *s1, const char *s2). 
....................  
....................    Finds next token in s1 delimited by a character from separator 
....................    string s2 (which can be different from call to call).  First call 
....................    starts at beginning of s1 searching for first character NOT 
....................    contained in s2; returns 0 if none is found. 
....................    If one is found, it is the start of first token (return value). 
....................    Function then searches from there for a character contained in s2. 
....................    If none is found, current token extends to end of s1, and subsequent 
....................    searches for a token will return 0.  If one is found, it is 
....................    overwritten by '\0', which terminates current token.  Function saves 
....................    pointer to following character from which next search will start. 
....................    Each subsequent call, with 0 as first argument, starts searching 
....................    from saved pointer */ 
....................  
.................... char *strtok(char *s1, char *s2) 
.................... { 
....................    char *beg, *end; 
....................    static char *save; 
....................  
....................    beg = (s1)? s1: save; 
....................    beg += strspn(beg, s2); 
....................    if (*beg == '\0') 
....................    { 
....................       *save = ' '; 
....................       return(0); 
....................    } 
....................    end = strpbrk(beg, s2); 
....................    if (*end != '\0') 
....................    { 
....................       *end = '\0'; 
....................       end++; 
....................    } 
....................    save = end; 
....................    return(beg); 
.................... } 
....................  
.................... /*****************************************************************/ 
.................... /*Miscellaneous functions*/ 
.................... /* standard template 
.................... maps error number in errnum to an error message string 
.................... Returns: Pointer to string 
.................... */ 
.................... #ifdef _ERRNO 
.................... char * strerror(unsigned int8 errnum) 
.................... { 
.................... char s[15]; 
.................... switch( errnum) 
.................... { 
.................... case 0: 
....................    strcpy(s,"no errors"); 
....................    return s; 
.................... case EDOM : 
....................    strcpy(s,"domain error"); 
....................    return s; 
.................... case ERANGE: 
....................    strcpy(s,"range error"); 
....................    return s; 
.................... } 
.................... } 
.................... #ENDIF 
.................... /* standard template: size_t strlen(const char *s). 
....................    Computes length of s1 (preceding terminating 0) */ 
....................  
.................... unsigned int8 strlen(char *s) 
.................... { 
....................    char *sc; 
....................  
....................    for (sc = s; *sc != 0; sc++); 
....................    return(sc - s); 
.................... } 
....................  
.................... /* standard template: size_t stricmp(const char *s1, const char *s2). 
....................    Compares s1 to s2 ignoring case (upper vs. lower) */ 
....................  
.................... signed int8 stricmp(char *s1, char *s2) 
.................... { 
....................  for(; *s1==*s2||(isalpha(*s1)&&isalpha(*s2)&&(*s1==*s2+32||*s2==*s1+32)); 
....................     s1++, s2++) 
....................     if (*s1 == '\0') 
....................        return(0); 
....................  return((*s1 < *s2) ? -1: 1); 
.................... } 
....................  
....................  
.................... /* standard template: char *strlwr(char *s). 
....................    Replaces uppercase letters by lowercase; 
....................    returns pointer to new string s */ 
....................  
.................... char *strlwr(char *s) 
.................... { 
....................    char *p; 
....................  
....................    for (p = s; *p != '\0'; p++) 
....................       if (*p >= 'A' && *p <='Z') 
....................          *p += 'a' - 'A'; 
....................    return(s); 
.................... } 
....................  
....................  
.................... /************************************************************/ 
....................  
....................  
.................... #endif 
....................  
.................... #ifndef getc 
.................... #define getc getch 
.................... #define getchar getch 
.................... #define puts(s) {printf(s); putchar(13); putchar(10);} 
.................... #define putc putchar 
.................... #endif 
.................... /* maps error number to an error message. Writes a sequence of characters to 
.................... stderr stream thus: if s is not null then string pointed to by s follwed by 
.................... a colon (:) and a space and the appropriate error message returned by strerror 
.................... function with argument errno 
....................  
.................... Returns: no value 
.................... */ 
....................  
.................... #ifdef _ERRNO 
.................... void perror(char *s) 
.................... { 
....................   if(s) 
....................   fprintf(STDERR,"%s: ",s); 
....................   fprintf(STDERR,"%s\r\n",strerror(errno)); 
.................... } 
.................... #endif 
.................... #endif 
....................  
.................... #include <string.h> 
.................... //////////////////////////////////////////////////////////////////////////// 
.................... ////        (C) Copyright 1996,2008 Custom Computer Services            //// 
.................... //// This source code may only be used by licensed users of the CCS C   //// 
.................... //// compiler.  This source code may only be distributed to other       //// 
.................... //// licensed users of the CCS C compiler.  No other use, reproduction  //// 
.................... //// or distribution is permitted without written permission.           //// 
.................... //// Derivative programs created using this software in object code     //// 
.................... //// form are not restricted in any way.                                //// 
.................... //////////////////////////////////////////////////////////////////////////// 
....................  
.................... #ifndef _STRING 
.................... #define _STRING 
.................... #include <stddef.h> 
.................... #include <ctype.h> 
....................  
....................  
....................  
.................... ////////////////////////////////////////////// 
.................... //// Uncomment the following define to    //// 
.................... //// allow some functions to use a        //// 
.................... //// quicker algorithm, but use more ROM  //// 
.................... ////                                      //// 
.................... //// #define FASTER_BUT_MORE_ROM          //// 
.................... ////////////////////////////////////////////// 
....................  
....................  
....................  
.................... /*Copying functions*/ 
.................... /* standard template: 
....................    void *memmove(void *s1, void *s2, size_t n). 
....................    Copies max of n characters safely (not following ending '\0') 
....................    from s2 in s1; if s2 has less than n characters, appends 0 */ 
....................  
.................... char *memmove(void *s1,char *s2,size_t n) 
.................... { 
....................    char *sc1; 
....................    char *sc2; 
....................    sc1=s1; 
....................    sc2=s2; 
....................    if(sc2<sc1 && sc1 <sc2 +n) 
....................       for(sc1+=n,sc2+=n;0<n;--n) 
....................          *--sc1=*--sc2; 
....................    else 
....................       for(;0<n;--n) 
....................          *sc1++=*sc2++; 
....................   return s1; 
....................   } 
....................  
.................... /* Standard template: char *strcpy(char *s1, const char *s2) 
....................    copies the string s2 including the null character to s1. 
....................    This is a compiler built in to handle the different address 
....................    spaces */ 
....................  
.................... #define strcopy strcpy 
....................  
.................... /* standard template: 
....................    char *strncpy(char *s1, const char *s2, size_t n). 
....................    Copies max of n characters (not following ending '\0') 
....................    from s2 in s1; if s2 has less than n characters, appends 0 */ 
....................  
.................... char *strncpy(char *s1, char *s2, size_t n) 
.................... { 
....................   char *s; 
....................  
....................   for (s = s1; n > 0 && *s2 != '\0'; n--) 
....................      *s++ = *s2++; 
....................   for (; n > 0; n--) 
....................      *s++ = '\0'; 
....................  
....................   return(s1); 
.................... } 
.................... /***********************************************************/ 
....................  
.................... /*concatenation functions*/ 
.................... /* standard template: char *strcat(char *s1, const char *s2) 
.................... appends s2 to s1*/ 
....................  
.................... char *strcat(char *s1, char *s2) 
.................... { 
....................    char *s; 
....................  
....................    for (s = s1; *s != '\0'; ++s); 
....................    while(*s2 != '\0') 
....................    { 
....................       *s = *s2; 
....................       ++s; 
....................       ++s2; 
....................    } 
....................  
....................    *s = '\0'; 
....................    return(s1); 
.................... } 
.................... /* standard template: char *strncat(char *s1, char *s2,size_t n) 
.................... appends not more than n characters from s2 to s1*/ 
....................  
.................... char *strncat(char *s1, char *s2, size_t n) 
.................... { 
....................    char *s; 
....................  
....................    for (s = s1; *s != '\0'; ++s); 
....................    while(*s2 != '\0' && 0<n) 
....................    { 
....................       *s = *s2; 
....................       ++s; 
....................       ++s2; 
....................       --n; 
....................    } 
....................  
....................    *s = '\0'; 
....................    return(s1); 
.................... } 
....................  
.................... /***********************************************************/ 
....................  
....................  
.................... /*comparison functions*/ 
.................... /* standard template: signed int memcmp(void *s1, void *s2). 
....................    Compares s1 & s2; returns -1 if s1<s2, 0 if s1=s2, 1 if s1>s2 */ 
....................  
.................... signed int8 memcmp(void * s1,char *s2,size_t n) 
.................... { 
.................... char *su1, *su2; 
.................... for(su1=s1, su2=s2; 0<n; ++su1, ++su2, --n) 
.................... { 
....................    if(*su1!=*su2) 
....................       return ((*su1<*su2)?-1:+1); 
.................... } 
.................... return 0; 
.................... } 
....................  
.................... /* standard template: int strcmp(const char *s1, const char *s2). 
....................    Compares s1 & s2; returns -1 if s1<s2, 0 if s1=s2, 1 if s1>s2 */ 
....................  
.................... signed int8 strcmp(char *s1, char *s2) 
.................... { 
....................    for (; *s1 == *s2; s1++, s2++) 
....................       if (*s1 == '\0') 
....................          return(0); 
....................    return((*s1 < *s2) ? -1: 1); 
.................... } 
.................... /* standard template: int strcoll(const char *s1, const char *s2). 
....................    Compares s1 & s2; returns -1 if s1<s2, 0 if s1=s2, 1 if s1>s2 */ 
....................  
.................... signed int8 strcoll(char *s1, char *s2) 
.................... { 
....................    for (; *s1 == *s2; s1++, s2++) 
....................       if (*s1 == '\0') 
....................          return(0); 
....................    return((*s1 < *s2) ? -1: 1); 
.................... } 
....................  
.................... /* standard template: 
....................    int strncmp(const char *s1, const char *s2, size_t n). 
....................    Compares max of n characters (not following 0) from s1 to s2; 
....................    returns same as strcmp */ 
....................  
.................... signed int8 strncmp(char *s1, char *s2, size_t n) 
.................... { 
....................    for (; n > 0; s1++, s2++, n--) 
....................       if (*s1 != *s2) 
....................          return((*s1 <*s2) ? -1: 1); 
....................       else if (*s1 == '\0') 
....................          return(0); 
....................    return(0); 
.................... } 
.................... /* standard template: 
....................    int strxfrm(const char *s1, const char *s2, size_t n). 
....................    transforms maximum of n characters from s2 and places them into s1*/ 
.................... size_t strxfrm(char *s1, char *s2, size_t n) 
.................... { 
....................   char *s; 
....................   unsigned int8 n1; 
....................   n1=n; 
....................   for (s = s1; n > 0 && *s2 != '\0'; n--) 
....................      *s++ = *s2++; 
....................   for (; n > 0; n--) 
....................      *s++ = '\0'; 
....................  
....................   return(n1); 
.................... } 
....................  
....................  
....................  
....................  
....................  
.................... /***********************************************************/ 
.................... /*Search functions*/ 
.................... /* standard template: void *memchr(const char *s, int c). 
....................    Finds first occurrence of c in n characters of s */ 
....................  
.................... char *memchr(void *s,unsigned int8 c,size_t n) 
.................... { 
....................    char uc; 
....................    char *su; 
....................    uc=c; 
....................    for(su=s;0<n;++su,--n) 
....................       if(*su==uc) 
....................       return su; 
....................    return NULL; 
.................... } 
....................  
.................... /* standard template: char *strchr(const char *s, int c). 
....................    Finds first occurrence of c in s */ 
....................  
.................... char *strchr(char *s, unsigned int8 c) 
.................... { 
....................    for (; *s != c; s++) 
....................       if (*s == '\0') 
....................          return(0); 
....................    return(s); 
.................... } 
.................... /* standard template: 
....................    size_t strcspn(const char *s1, const char *s2). 
....................    Computes length of max initial segment of s1 that 
....................    consists entirely of characters NOT from s2*/ 
....................  
.................... unsigned int8  strcspn(char *s1, char *s2) 
.................... { 
....................    char *sc1, *sc2; 
....................  
....................    for (sc1 = s1; *sc1 != 0; sc1++) 
....................       for (sc2 = s2; *sc2 != 0; sc2++) 
....................          if (*sc1 == *sc2) 
....................             return(sc1 - s1); 
....................    return(sc1 - s1); 
.................... } 
.................... /* standard template: 
....................    char *strpbrk(const char *s1, const char *s2). 
....................    Locates first occurence of any character from s2 in s1; 
....................    returns s1 if s2 is empty string */ 
....................  
.................... char *strpbrk(char *s1, char *s2) 
.................... { 
....................    char *sc1, *sc2; 
....................  
....................    for (sc1 = s1; *sc1 != 0; sc1++) 
....................       for (sc2 = s2; *sc2 != 0; sc2++) 
....................          if (*sc1 == *sc2) 
....................             return(sc1); 
....................    return(0); 
.................... } 
....................  
....................  
.................... /* standard template: char *strrchr(const char *s, int c). 
....................    Finds last occurrence of c in s */ 
....................  
.................... char *strrchr(char *s, unsigned int8 c) 
.................... { 
....................    char *p; 
....................  
....................    for (p = 0; ; s++) 
....................    { 
....................       if (*s == c) 
....................          p = s; 
....................       if (*s == '\0') 
....................          return(p); 
....................    } 
.................... } 
.................... /* computes length of max initial segment of s1 consisting 
....................    entirely of characters from s2 */ 
....................  
.................... unsigned int8  strspn(char *s1, char *s2) 
.................... { 
....................    char *sc1, *sc2; 
....................  
....................    for (sc1 = s1; *sc1 != 0; sc1++) 
....................       for (sc2 = s2; ; sc2++) 
....................     if (*sc2 == '\0') 
....................        return(sc1 - s1); 
....................          else if (*sc1 == *sc2) 
....................             break; 
....................    return(sc1 - s1); 
.................... } 
.................... /* standard template: 
....................    char *strstr(const char *s1, const char *s2); 
....................    Locates first occurence of character sequence s2 in s1; 
....................    returns 0 if s2 is empty string 
....................  
....................    Uncomment #define FASTER_BUT_MORE_ROM at the top of the 
....................    file to use the faster algorithm */ 
.................... char *strstr(char *s1, char *s2) 
.................... { 
....................    char *s, *t; 
....................  
....................    #ifdef FASTER_BUT_MORE_ROM 
....................    if (*s2 == '\0') 
....................          return(s1); 
....................    #endif 
....................  
....................    while (*s1) 
....................    { 
....................       for(s = s1, t = s2; *t && (*s == *t); ++s, ++t); 
....................  
....................       if (*t == '\0') 
....................          return s1; 
....................       ++s1; 
....................       #ifdef FASTER_BUT_MORE_ROM 
....................          while(*s1 != '\0' && *s1 != *s2) 
....................             ++s1; 
....................       #endif 
....................    } 
....................    return 0; 
.................... } 
....................  
.................... /* standard template: char *strtok(char *s1, const char *s2). 
....................  
....................    Finds next token in s1 delimited by a character from separator 
....................    string s2 (which can be different from call to call).  First call 
....................    starts at beginning of s1 searching for first character NOT 
....................    contained in s2; returns 0 if none is found. 
....................    If one is found, it is the start of first token (return value). 
....................    Function then searches from there for a character contained in s2. 
....................    If none is found, current token extends to end of s1, and subsequent 
....................    searches for a token will return 0.  If one is found, it is 
....................    overwritten by '\0', which terminates current token.  Function saves 
....................    pointer to following character from which next search will start. 
....................    Each subsequent call, with 0 as first argument, starts searching 
....................    from saved pointer */ 
....................  
.................... char *strtok(char *s1, char *s2) 
.................... { 
....................    char *beg, *end; 
....................    static char *save; 
....................  
....................    beg = (s1)? s1: save; 
....................    beg += strspn(beg, s2); 
....................    if (*beg == '\0') 
....................    { 
....................       *save = ' '; 
....................       return(0); 
....................    } 
....................    end = strpbrk(beg, s2); 
....................    if (*end != '\0') 
....................    { 
....................       *end = '\0'; 
....................       end++; 
....................    } 
....................    save = end; 
....................    return(beg); 
.................... } 
....................  
.................... /*****************************************************************/ 
.................... /*Miscellaneous functions*/ 
.................... /* standard template 
.................... maps error number in errnum to an error message string 
.................... Returns: Pointer to string 
.................... */ 
.................... #ifdef _ERRNO 
.................... char * strerror(unsigned int8 errnum) 
.................... { 
.................... char s[15]; 
.................... switch( errnum) 
.................... { 
.................... case 0: 
....................    strcpy(s,"no errors"); 
....................    return s; 
.................... case EDOM : 
....................    strcpy(s,"domain error"); 
....................    return s; 
.................... case ERANGE: 
....................    strcpy(s,"range error"); 
....................    return s; 
.................... } 
.................... } 
.................... #ENDIF 
.................... /* standard template: size_t strlen(const char *s). 
....................    Computes length of s1 (preceding terminating 0) */ 
....................  
.................... unsigned int8 strlen(char *s) 
.................... { 
....................    char *sc; 
....................  
....................    for (sc = s; *sc != 0; sc++); 
....................    return(sc - s); 
.................... } 
....................  
.................... /* standard template: size_t stricmp(const char *s1, const char *s2). 
....................    Compares s1 to s2 ignoring case (upper vs. lower) */ 
....................  
.................... signed int8 stricmp(char *s1, char *s2) 
.................... { 
....................  for(; *s1==*s2||(isalpha(*s1)&&isalpha(*s2)&&(*s1==*s2+32||*s2==*s1+32)); 
....................     s1++, s2++) 
....................     if (*s1 == '\0') 
....................        return(0); 
....................  return((*s1 < *s2) ? -1: 1); 
.................... } 
....................  
....................  
.................... /* standard template: char *strlwr(char *s). 
....................    Replaces uppercase letters by lowercase; 
....................    returns pointer to new string s */ 
....................  
.................... char *strlwr(char *s) 
.................... { 
....................    char *p; 
....................  
....................    for (p = s; *p != '\0'; p++) 
....................       if (*p >= 'A' && *p <='Z') 
....................          *p += 'a' - 'A'; 
....................    return(s); 
.................... } 
....................  
....................  
.................... /************************************************************/ 
....................  
....................  
.................... #endif 
....................  
.................... #include <stdlib.h> 
.................... /////////////////////////////////////////////////////////////////////////// 
.................... ////        (C) Copyright 1996,2007 Custom Computer Services           //// 
.................... //// This source code may only be used by licensed users of the CCS C  //// 
.................... //// compiler.  This source code may only be distributed to other      //// 
.................... //// licensed users of the CCS C compiler.  No other use, reproduction //// 
.................... //// or distribution is permitted without written permission.          //// 
.................... //// Derivative programs created using this software in object code    //// 
.................... //// form are not restricted in any way.                               //// 
.................... /////////////////////////////////////////////////////////////////////////// 
....................  
.................... #ifndef _STDLIB 
.................... #define _STDLIB 
....................  
.................... //--------------------------------------------------------------------------- 
.................... // Definitions and types 
.................... //--------------------------------------------------------------------------- 
....................  
.................... #ifndef RAND_MAX 
.................... #define RAND_MAX  32767    // The value of which is the maximum value 
....................                            // ... returned by the rand function 
.................... #endif 
....................  
....................  
.................... #IF (sizeof(int16*)>1) 
.................... #DEFINE LONG_POINTERS 1 
.................... #ELSE  
.................... #DEFINE LONG_POINTERS 0 
.................... #ENDIF 
....................  
.................... typedef struct { 
....................    signed int quot; 
....................    signed int rem; 
.................... } div_t; 
....................  
.................... typedef struct { 
....................    signed long quot; 
....................    signed long rem; 
.................... } ldiv_t; 
....................  
.................... #include <stddef.h> 
.................... /////////////////////////////////////////////////////////////////////////// 
.................... ////        (C) Copyright 1996,2003 Custom Computer Services           //// 
.................... //// This source code may only be used by licensed users of the CCS C  //// 
.................... //// compiler.  This source code may only be distributed to other      //// 
.................... //// licensed users of the CCS C compiler.  No other use, reproduction //// 
.................... //// or distribution is permitted without written permission.          //// 
.................... //// Derivative programs created using this software in object code    //// 
.................... //// form are not restricted in any way.                               //// 
.................... /////////////////////////////////////////////////////////////////////////// 
....................  
.................... #ifndef _STDDEF 
....................  
.................... #define _STDDEF 
....................  
.................... #if sizeof(unsigned int8 *)==1 
.................... #define ptrdiff_t unsigned int8 
.................... #else 
.................... #define ptrdiff_t unsigned int16 
.................... #endif 
....................  
.................... #define size_t unsigned int8 
.................... #define wchar_t char 
.................... #define NULL 0 
....................  
.................... #define offsetof(s,f) (offsetofbit(s,f)/8) 
....................  
.................... #endif 
....................  
....................  
.................... //--------------------------------------------------------------------------- 
.................... // String conversion functions 
.................... //--------------------------------------------------------------------------- 
....................  
.................... /* Standard template: signed int  atoi(char * s) 
....................  * converts the initial portion of the string s to a signed int 
....................  * returns the converted value if any, 0 otherwise 
....................  */ 
.................... signed int atoi(char *s); 
....................  
.................... /* Syntax: signed int32  atoi32(char * s) 
....................    converts the initial portion of the string s to a signed int32 
....................    returns the converted value if any, 0 otherwise*/ 
.................... #if (sizeof(long)==4) 
....................  #define atoi32(s) atol(s) 
.................... #else  
....................  signed int32 atoi32(char *s); 
.................... #endif 
....................  
.................... #if defined(__PCD__) 
.................... // The following functions only work on the 24 bit compiler 
.................... // for the 30F, 33F, 24F and 24H parts 
.................... /* Syntax: signed int48  atoi48(char * s) 
....................    converts the initial portion of the string s to a signed int48 
....................    returns the converted value if any, 0 otherwise*/ 
....................     
.................... signed int48 atoi48(char *s); 
....................  
.................... /* Syntax: signed int64  atoi64(char * s) 
....................    converts the initial portion of the string s to a signed int64 
....................    returns the converted value if any, 0 otherwise*/ 
.................... signed int64 atoi64(char *s); 
.................... #endif 
....................  
.................... /* Syntax: char *  itoa(signed int32 num, int8 base, char * s) 
....................    converts the signed int32 to a string and 
....................    returns the converted value if any, 0 otherwise*/ 
.................... char * itoa(signed int32 num, unsigned int base, char * s); 
....................  
.................... /* Standard template: signed int16  atol(char * s) 
....................  * converts the initial portion of the string s to a signed int16 
....................  * returns the converted value if any, 0 otherwise 
....................  */ 
.................... signed long atol(char *s); 
....................  
.................... /* Standard template: int16 strtoul(char * s,char *endptr,signed int base) 
....................  * converts the initial portion of the string s, represented as an 
....................  * integral value of radix base  to a signed long. 
....................  * Returns the converted value if any, 0 otherwise 
....................  * the final string is returned in the endptr, if endptr is not null 
....................  */ 
.................... signed long strtol(char *s,char *endptr, signed int base); 
....................  
.................... /* Standard template: int16 strtoul(char * s,char *endptr,signed int base) 
....................  * converts the initial portion of the string s, represented as an 
....................  * integral value of radix base to a unsigned long. 
....................  * returns the converted value if any, 0 otherwise 
....................  * the final string is returned in the endptr, if endptr is not null 
....................  */ 
.................... unsigned long strtoul(char *s,char *endptr, signed int base); 
....................  
.................... /* Standart template: float strtof(char * s,char *endptr) 
....................                       float48 strtof48(char *s,char *endptr); 
....................                       float64 strtod(char *s,char *endptr); 
....................  * converts the initial portion of the string s to a float32, float48 or float64, 
....................  * returns the converted value if any, 0 otherwise 
....................  * the final string is returned in the endptr, if endptr is not null                    
.................... */ 
.................... float strtof(char *s,char *endptr); 
.................... #if defined(__PCD__) 
.................... float48 strtof48(char *s,char *endptr); 
.................... float64 strtod(char *s,char *endptr); 
.................... #else 
.................... //provided for compatibility 
.................... #define strtof48(s, e) strtof(s, e) 
.................... #define strtod(s, e) strtof(s, e) 
.................... #endif 
....................  
.................... /* Standard template: float32 atof(char * s) 
....................  * converts the initial portion of the string s to a float. 
....................  * returns the converted value if any, 0 otherwise 
....................  */ 
.................... #define atof(s)   strtof(s, 0) 
....................  
.................... #if defined(__PCD__) 
.................... // The following functions only work on the 24 bit compiler 
.................... // for the 30F, 33F, 24F and 24H parts 
....................  
.................... /* Standard template: float48 atof48(char * s) 
....................  * converts the initial portion of the string s to a float. 
....................  * returns the converted value if any, 0 otherwise 
....................  */ 
.................... #define atof48(s) strtof48(s, 0) 
....................  
.................... /* Standard template: float64 atof64(char * s) 
....................  * converts the initial portion of the string s to a float. 
....................  * returns the converted value if any, 0 otherwise 
....................  */ 
.................... #define atof64(s) strtod(s, 0) 
.................... #endif 
....................  
.................... /* Standard template: float32 atoe(char * s) 
....................  * converts the initial portion of the string s to a float. 
....................  * returns the converted value if any, 0 otherwise 
....................  * also handles E format numbers 
....................  */ 
.................... #if !defined(__PCD__) 
.................... float atoe(char * s); 
.................... #endif 
....................  
.................... #if defined(__PCD__) 
.................... float32 atoe(char * s); 
.................... #endif 
....................  
.................... //--------------------------------------------------------------------------- 
.................... // Pseudo-random sequence generation functions 
.................... //--------------------------------------------------------------------------- 
....................  
.................... /* The rand function computes a sequence of pseudo-random integers in 
....................  * the range 0 to RAND_MAX 
....................  * 
....................  * Parameters: 
....................  *       (none) 
....................  * 
....................  * Returns: 
....................  *       The pseudo-random integer 
....................  */ 
.................... unsigned int16 rand(void); 
....................  
.................... /* The srand function uses the argument as a seed for a new sequence of 
....................  * pseudo-random numbers to be returned by subsequent calls to rand. 
....................  * 
....................  * Parameters: 
....................  *       [in] seed: The seed value to start from. You might need to pass 
....................  * 
....................  * Returns: 
....................  *       (none) 
....................  * 
....................  * Remarks 
....................  *          The srand function sets the starting point for generating 
....................  *       a series of pseudorandom integers. To reinitialize the 
....................  *       generator, use 1 as the seed argument. Any other value for 
....................  *       seed sets the generator to a random starting point. rand 
....................  *       retrieves the pseudorandom numbers that are generated. 
....................  *       Calling rand before any call to srand generates the same 
....................  *       sequence as calling srand with seed passed as 1. 
....................  *          Usually, you need to pass a time here from outer source 
....................  *       so that the numbers will be different every time you run. 
....................  */ 
.................... void srand(unsigned int32 seed); 
....................  
.................... //--------------------------------------------------------------------------- 
.................... // Memory management functions 
.................... //--------------------------------------------------------------------------- 
....................  
.................... // Comming soon 
....................  
.................... //--------------------------------------------------------------------------- 
.................... // Communication with the environment 
.................... //--------------------------------------------------------------------------- 
....................  
.................... /* The function returns 0 always 
....................  */ 
.................... signed int8 system(char *string); 
....................  
.................... //--------------------------------------------------------------------------- 
.................... // Searching and sorting utilities 
.................... //--------------------------------------------------------------------------- 
....................  
.................... /* Performs a binary search of a sorted array.. 
....................  * 
....................  * Parameters: 
....................  *       [in] key: Object to search for 
....................  *       [in] base: Pointer to base of search data 
....................  *       [in] num: Number of elements 
....................  *       [in] width: Width of elements 
....................  *       [in] compare: Function that compares two elements 
....................  * 
....................  * Returns: 
....................  *       bsearch returns a pointer to an occurrence of key in the array pointed 
....................  *       to by base. If key is not found, the function returns NULL. If the 
....................  *       array is not in order or contains duplicate records with identical keys, 
....................  *       the result is unpredictable. 
....................  */ 
.................... //void *bsearch(const void *key, const void *base, size_t num, size_t width, 
.................... //              int (*compare)(const void *, const void *)); 
....................  
.................... /* Performs the shell-metzner sort (not the quick sort algorithm). The contents 
....................  * of the array are sorted into ascending order according to a comparison 
....................  * function pointed to by compar. 
....................  * 
....................  * Parameters: 
....................  *       [in] base: Pointer to base of search data 
....................  *       [in] num: Number of elements 
....................  *       [in] width: Width of elements 
....................  *       [in] compare: Function that compares two elements 
....................  * 
....................  * Returns: 
....................  *       (none) 
....................  */ 
.................... //void *qsort(const void *base, size_t num, size_t width, 
.................... //              int (*compare)(const void *, const void *)); 
....................  
.................... //--------------------------------------------------------------------------- 
.................... // Integer arithmetic functions 
.................... //--------------------------------------------------------------------------- 
....................  
.................... #define labs abs 
....................  
.................... div_t div(signed int numer, signed int denom); 
.................... ldiv_t ldiv(signed long numer, signed long denom); 
....................  
.................... //--------------------------------------------------------------------------- 
.................... // Multibyte character functions 
.................... //--------------------------------------------------------------------------- 
....................  
.................... // Not supported 
....................  
.................... //--------------------------------------------------------------------------- 
.................... // Multibyte string functions 
.................... //--------------------------------------------------------------------------- 
....................  
.................... // Not supported 
....................  
....................  
.................... //--------------------------------------------------------------------------- 
.................... // Internal implementation 
.................... //--------------------------------------------------------------------------- 
....................  
.................... #include <stddef.h> 
.................... /////////////////////////////////////////////////////////////////////////// 
.................... ////        (C) Copyright 1996,2003 Custom Computer Services           //// 
.................... //// This source code may only be used by licensed users of the CCS C  //// 
.................... //// compiler.  This source code may only be distributed to other      //// 
.................... //// licensed users of the CCS C compiler.  No other use, reproduction //// 
.................... //// or distribution is permitted without written permission.          //// 
.................... //// Derivative programs created using this software in object code    //// 
.................... //// form are not restricted in any way.                               //// 
.................... /////////////////////////////////////////////////////////////////////////// 
....................  
.................... #ifndef _STDDEF 
....................  
.................... #define _STDDEF 
....................  
.................... #if sizeof(unsigned int8 *)==1 
.................... #define ptrdiff_t unsigned int8 
.................... #else 
.................... #define ptrdiff_t unsigned int16 
.................... #endif 
....................  
.................... #define size_t unsigned int8 
.................... #define wchar_t char 
.................... #define NULL 0 
....................  
.................... #define offsetof(s,f) (offsetofbit(s,f)/8) 
....................  
.................... #endif 
....................  
.................... #include <string.h> 
.................... //////////////////////////////////////////////////////////////////////////// 
.................... ////        (C) Copyright 1996,2008 Custom Computer Services            //// 
.................... //// This source code may only be used by licensed users of the CCS C   //// 
.................... //// compiler.  This source code may only be distributed to other       //// 
.................... //// licensed users of the CCS C compiler.  No other use, reproduction  //// 
.................... //// or distribution is permitted without written permission.           //// 
.................... //// Derivative programs created using this software in object code     //// 
.................... //// form are not restricted in any way.                                //// 
.................... //////////////////////////////////////////////////////////////////////////// 
....................  
.................... #ifndef _STRING 
.................... #define _STRING 
.................... #include <stddef.h> 
.................... #include <ctype.h> 
....................  
....................  
....................  
.................... ////////////////////////////////////////////// 
.................... //// Uncomment the following define to    //// 
.................... //// allow some functions to use a        //// 
.................... //// quicker algorithm, but use more ROM  //// 
.................... ////                                      //// 
.................... //// #define FASTER_BUT_MORE_ROM          //// 
.................... ////////////////////////////////////////////// 
....................  
....................  
....................  
.................... /*Copying functions*/ 
.................... /* standard template: 
....................    void *memmove(void *s1, void *s2, size_t n). 
....................    Copies max of n characters safely (not following ending '\0') 
....................    from s2 in s1; if s2 has less than n characters, appends 0 */ 
....................  
.................... char *memmove(void *s1,char *s2,size_t n) 
.................... { 
....................    char *sc1; 
....................    char *sc2; 
....................    sc1=s1; 
....................    sc2=s2; 
....................    if(sc2<sc1 && sc1 <sc2 +n) 
....................       for(sc1+=n,sc2+=n;0<n;--n) 
....................          *--sc1=*--sc2; 
....................    else 
....................       for(;0<n;--n) 
....................          *sc1++=*sc2++; 
....................   return s1; 
....................   } 
....................  
.................... /* Standard template: char *strcpy(char *s1, const char *s2) 
....................    copies the string s2 including the null character to s1. 
....................    This is a compiler built in to handle the different address 
....................    spaces */ 
....................  
.................... #define strcopy strcpy 
....................  
.................... /* standard template: 
....................    char *strncpy(char *s1, const char *s2, size_t n). 
....................    Copies max of n characters (not following ending '\0') 
....................    from s2 in s1; if s2 has less than n characters, appends 0 */ 
....................  
.................... char *strncpy(char *s1, char *s2, size_t n) 
.................... { 
....................   char *s; 
....................  
....................   for (s = s1; n > 0 && *s2 != '\0'; n--) 
....................      *s++ = *s2++; 
....................   for (; n > 0; n--) 
....................      *s++ = '\0'; 
....................  
....................   return(s1); 
.................... } 
.................... /***********************************************************/ 
....................  
.................... /*concatenation functions*/ 
.................... /* standard template: char *strcat(char *s1, const char *s2) 
.................... appends s2 to s1*/ 
....................  
.................... char *strcat(char *s1, char *s2) 
.................... { 
....................    char *s; 
....................  
....................    for (s = s1; *s != '\0'; ++s); 
....................    while(*s2 != '\0') 
....................    { 
....................       *s = *s2; 
....................       ++s; 
....................       ++s2; 
....................    } 
....................  
....................    *s = '\0'; 
....................    return(s1); 
.................... } 
.................... /* standard template: char *strncat(char *s1, char *s2,size_t n) 
.................... appends not more than n characters from s2 to s1*/ 
....................  
.................... char *strncat(char *s1, char *s2, size_t n) 
.................... { 
....................    char *s; 
....................  
....................    for (s = s1; *s != '\0'; ++s); 
....................    while(*s2 != '\0' && 0<n) 
....................    { 
....................       *s = *s2; 
....................       ++s; 
....................       ++s2; 
....................       --n; 
....................    } 
....................  
....................    *s = '\0'; 
....................    return(s1); 
.................... } 
....................  
.................... /***********************************************************/ 
....................  
....................  
.................... /*comparison functions*/ 
.................... /* standard template: signed int memcmp(void *s1, void *s2). 
....................    Compares s1 & s2; returns -1 if s1<s2, 0 if s1=s2, 1 if s1>s2 */ 
....................  
.................... signed int8 memcmp(void * s1,char *s2,size_t n) 
.................... { 
.................... char *su1, *su2; 
.................... for(su1=s1, su2=s2; 0<n; ++su1, ++su2, --n) 
.................... { 
....................    if(*su1!=*su2) 
....................       return ((*su1<*su2)?-1:+1); 
.................... } 
.................... return 0; 
.................... } 
....................  
.................... /* standard template: int strcmp(const char *s1, const char *s2). 
....................    Compares s1 & s2; returns -1 if s1<s2, 0 if s1=s2, 1 if s1>s2 */ 
....................  
.................... signed int8 strcmp(char *s1, char *s2) 
.................... { 
....................    for (; *s1 == *s2; s1++, s2++) 
....................       if (*s1 == '\0') 
....................          return(0); 
....................    return((*s1 < *s2) ? -1: 1); 
.................... } 
.................... /* standard template: int strcoll(const char *s1, const char *s2). 
....................    Compares s1 & s2; returns -1 if s1<s2, 0 if s1=s2, 1 if s1>s2 */ 
....................  
.................... signed int8 strcoll(char *s1, char *s2) 
.................... { 
....................    for (; *s1 == *s2; s1++, s2++) 
....................       if (*s1 == '\0') 
....................          return(0); 
....................    return((*s1 < *s2) ? -1: 1); 
.................... } 
....................  
.................... /* standard template: 
....................    int strncmp(const char *s1, const char *s2, size_t n). 
....................    Compares max of n characters (not following 0) from s1 to s2; 
....................    returns same as strcmp */ 
....................  
.................... signed int8 strncmp(char *s1, char *s2, size_t n) 
.................... { 
....................    for (; n > 0; s1++, s2++, n--) 
....................       if (*s1 != *s2) 
....................          return((*s1 <*s2) ? -1: 1); 
....................       else if (*s1 == '\0') 
....................          return(0); 
....................    return(0); 
.................... } 
.................... /* standard template: 
....................    int strxfrm(const char *s1, const char *s2, size_t n). 
....................    transforms maximum of n characters from s2 and places them into s1*/ 
.................... size_t strxfrm(char *s1, char *s2, size_t n) 
.................... { 
....................   char *s; 
....................   unsigned int8 n1; 
....................   n1=n; 
....................   for (s = s1; n > 0 && *s2 != '\0'; n--) 
....................      *s++ = *s2++; 
....................   for (; n > 0; n--) 
....................      *s++ = '\0'; 
....................  
....................   return(n1); 
.................... } 
....................  
....................  
....................  
....................  
....................  
.................... /***********************************************************/ 
.................... /*Search functions*/ 
.................... /* standard template: void *memchr(const char *s, int c). 
....................    Finds first occurrence of c in n characters of s */ 
....................  
.................... char *memchr(void *s,unsigned int8 c,size_t n) 
.................... { 
....................    char uc; 
....................    char *su; 
....................    uc=c; 
....................    for(su=s;0<n;++su,--n) 
....................       if(*su==uc) 
....................       return su; 
....................    return NULL; 
.................... } 
....................  
.................... /* standard template: char *strchr(const char *s, int c). 
....................    Finds first occurrence of c in s */ 
....................  
.................... char *strchr(char *s, unsigned int8 c) 
.................... { 
....................    for (; *s != c; s++) 
....................       if (*s == '\0') 
....................          return(0); 
....................    return(s); 
.................... } 
.................... /* standard template: 
....................    size_t strcspn(const char *s1, const char *s2). 
....................    Computes length of max initial segment of s1 that 
....................    consists entirely of characters NOT from s2*/ 
....................  
.................... unsigned int8  strcspn(char *s1, char *s2) 
.................... { 
....................    char *sc1, *sc2; 
....................  
....................    for (sc1 = s1; *sc1 != 0; sc1++) 
....................       for (sc2 = s2; *sc2 != 0; sc2++) 
....................          if (*sc1 == *sc2) 
....................             return(sc1 - s1); 
....................    return(sc1 - s1); 
.................... } 
.................... /* standard template: 
....................    char *strpbrk(const char *s1, const char *s2). 
....................    Locates first occurence of any character from s2 in s1; 
....................    returns s1 if s2 is empty string */ 
....................  
.................... char *strpbrk(char *s1, char *s2) 
.................... { 
....................    char *sc1, *sc2; 
....................  
....................    for (sc1 = s1; *sc1 != 0; sc1++) 
....................       for (sc2 = s2; *sc2 != 0; sc2++) 
....................          if (*sc1 == *sc2) 
....................             return(sc1); 
....................    return(0); 
.................... } 
....................  
....................  
.................... /* standard template: char *strrchr(const char *s, int c). 
....................    Finds last occurrence of c in s */ 
....................  
.................... char *strrchr(char *s, unsigned int8 c) 
.................... { 
....................    char *p; 
....................  
....................    for (p = 0; ; s++) 
....................    { 
....................       if (*s == c) 
....................          p = s; 
....................       if (*s == '\0') 
....................          return(p); 
....................    } 
.................... } 
.................... /* computes length of max initial segment of s1 consisting 
....................    entirely of characters from s2 */ 
....................  
.................... unsigned int8  strspn(char *s1, char *s2) 
.................... { 
....................    char *sc1, *sc2; 
....................  
....................    for (sc1 = s1; *sc1 != 0; sc1++) 
....................       for (sc2 = s2; ; sc2++) 
....................     if (*sc2 == '\0') 
....................        return(sc1 - s1); 
....................          else if (*sc1 == *sc2) 
....................             break; 
....................    return(sc1 - s1); 
.................... } 
.................... /* standard template: 
....................    char *strstr(const char *s1, const char *s2); 
....................    Locates first occurence of character sequence s2 in s1; 
....................    returns 0 if s2 is empty string 
....................  
....................    Uncomment #define FASTER_BUT_MORE_ROM at the top of the 
....................    file to use the faster algorithm */ 
.................... char *strstr(char *s1, char *s2) 
.................... { 
....................    char *s, *t; 
....................  
....................    #ifdef FASTER_BUT_MORE_ROM 
....................    if (*s2 == '\0') 
....................          return(s1); 
....................    #endif 
....................  
....................    while (*s1) 
....................    { 
....................       for(s = s1, t = s2; *t && (*s == *t); ++s, ++t); 
....................  
....................       if (*t == '\0') 
....................          return s1; 
....................       ++s1; 
....................       #ifdef FASTER_BUT_MORE_ROM 
....................          while(*s1 != '\0' && *s1 != *s2) 
....................             ++s1; 
....................       #endif 
....................    } 
....................    return 0; 
.................... } 
....................  
.................... /* standard template: char *strtok(char *s1, const char *s2). 
....................  
....................    Finds next token in s1 delimited by a character from separator 
....................    string s2 (which can be different from call to call).  First call 
....................    starts at beginning of s1 searching for first character NOT 
....................    contained in s2; returns 0 if none is found. 
....................    If one is found, it is the start of first token (return value). 
....................    Function then searches from there for a character contained in s2. 
....................    If none is found, current token extends to end of s1, and subsequent 
....................    searches for a token will return 0.  If one is found, it is 
....................    overwritten by '\0', which terminates current token.  Function saves 
....................    pointer to following character from which next search will start. 
....................    Each subsequent call, with 0 as first argument, starts searching 
....................    from saved pointer */ 
....................  
.................... char *strtok(char *s1, char *s2) 
.................... { 
....................    char *beg, *end; 
....................    static char *save; 
....................  
....................    beg = (s1)? s1: save; 
....................    beg += strspn(beg, s2); 
....................    if (*beg == '\0') 
....................    { 
....................       *save = ' '; 
....................       return(0); 
....................    } 
....................    end = strpbrk(beg, s2); 
....................    if (*end != '\0') 
....................    { 
....................       *end = '\0'; 
....................       end++; 
....................    } 
....................    save = end; 
....................    return(beg); 
.................... } 
....................  
.................... /*****************************************************************/ 
.................... /*Miscellaneous functions*/ 
.................... /* standard template 
.................... maps error number in errnum to an error message string 
.................... Returns: Pointer to string 
.................... */ 
.................... #ifdef _ERRNO 
.................... char * strerror(unsigned int8 errnum) 
.................... { 
.................... char s[15]; 
.................... switch( errnum) 
.................... { 
.................... case 0: 
....................    strcpy(s,"no errors"); 
....................    return s; 
.................... case EDOM : 
....................    strcpy(s,"domain error"); 
....................    return s; 
.................... case ERANGE: 
....................    strcpy(s,"range error"); 
....................    return s; 
.................... } 
.................... } 
.................... #ENDIF 
.................... /* standard template: size_t strlen(const char *s). 
....................    Computes length of s1 (preceding terminating 0) */ 
....................  
.................... unsigned int8 strlen(char *s) 
.................... { 
....................    char *sc; 
....................  
....................    for (sc = s; *sc != 0; sc++); 
....................    return(sc - s); 
.................... } 
....................  
.................... /* standard template: size_t stricmp(const char *s1, const char *s2). 
....................    Compares s1 to s2 ignoring case (upper vs. lower) */ 
....................  
.................... signed int8 stricmp(char *s1, char *s2) 
.................... { 
....................  for(; *s1==*s2||(isalpha(*s1)&&isalpha(*s2)&&(*s1==*s2+32||*s2==*s1+32)); 
....................     s1++, s2++) 
....................     if (*s1 == '\0') 
....................        return(0); 
....................  return((*s1 < *s2) ? -1: 1); 
.................... } 
....................  
....................  
.................... /* standard template: char *strlwr(char *s). 
....................    Replaces uppercase letters by lowercase; 
....................    returns pointer to new string s */ 
....................  
.................... char *strlwr(char *s) 
.................... { 
....................    char *p; 
....................  
....................    for (p = s; *p != '\0'; p++) 
....................       if (*p >= 'A' && *p <='Z') 
....................          *p += 'a' - 'A'; 
....................    return(s); 
.................... } 
....................  
....................  
.................... /************************************************************/ 
....................  
....................  
.................... #endif 
....................  
....................  
.................... div_t div(signed int numer, signed int denom) 
.................... { 
....................    div_t val; 
....................    val.quot = numer / denom; 
....................    val.rem = numer - (denom * val.quot); 
....................    return (val); 
.................... } 
....................  
.................... ldiv_t ldiv(signed long numer, signed long denom) 
.................... { 
....................    ldiv_t val; 
....................  
....................    val.quot = numer / denom; 
....................    val.rem = numer - (denom * val.quot); 
....................    return (val); 
.................... } 
....................  
.................... #if defined(__PCD__) 
.................... float32 atoe(char * s) 
.................... { 
....................    float32 pow10 = 1.0; 
....................    float32 result = 0.0; 
....................    unsigned int8 sign = 0; 
....................    unsigned int8 expsign = 0; 
....................    char c; 
....................    unsigned int8 ptr = 0; 
....................    unsigned int8 i; 
....................    float32 exp = 1.0; 
....................    unsigned int8 expcnt = 0; 
....................  
....................    c = s[ptr++]; 
....................  
....................    if ((c>='0' && c<='9') || c=='+' || c=='-' || c=='.' || c=='E' || c=='e') { 
....................       if(c == '-') { 
....................          sign = 1; 
....................          c = s[ptr++]; 
....................       } 
....................       if(c == '+') 
....................          c = s[ptr++]; 
....................  
....................       while((c >= '0' && c <= '9')) { 
....................          result = 10*result + c - '0'; 
....................          c = s[ptr++]; 
....................       } 
....................  
....................       if (c == '.') { 
....................          c = s[ptr++]; 
....................          while((c >= '0' && c <= '9')) { 
....................              pow10 = pow10*10; 
....................              result += (c - '0')/pow10; 
....................              c = s[ptr++]; 
....................          } 
....................       } 
....................  
....................       // Handling the exponent 
....................       if (c=='e' || c=='E') { 
....................          c = s[ptr++]; 
....................  
....................          if(c == '-') { 
....................             expsign = 1; 
....................             c = s[ptr++]; 
....................          } 
....................          if(c == '+') 
....................             c = s[ptr++]; 
....................  
....................          while((c >= '0' && c <= '9')) { 
....................             expcnt = 10*expcnt + c - '0'; 
....................             c = s[ptr++]; 
....................          } 
....................  
....................          for(i=0;i<expcnt;i++) 
....................             exp*=10; 
....................  
....................          if(expsign==1) 
....................             result/=exp; 
....................          else 
....................             result*=exp; 
....................       } 
....................    } 
....................  
....................    if (sign == 1) 
....................       result = -1*result; 
....................    return(result); 
.................... } 
.................... #endif 
....................  
.................... #if !defined(__PCD__) 
.................... float atoe(char * s) 
.................... { 
....................    float pow10 = 1.0; 
....................    float result = 0.0; 
....................    unsigned int8 sign = 0; 
....................    unsigned int8 expsign = 0; 
....................    char c; 
....................    unsigned int8 ptr = 0; 
....................    unsigned int8 i; 
....................    float exp = 1.0; 
....................    unsigned int8 expcnt = 0; 
....................  
....................    c = s[ptr++]; 
....................  
....................    if ((c>='0' && c<='9') || c=='+' || c=='-' || c=='.' || c=='E' || c=='e') { 
....................       if(c == '-') { 
....................          sign = 1; 
....................          c = s[ptr++]; 
....................       } 
....................       if(c == '+') 
....................          c = s[ptr++]; 
....................  
....................       while((c >= '0' && c <= '9')) { 
....................          result = 10*result + c - '0'; 
....................          c = s[ptr++]; 
....................       } 
....................  
....................       if (c == '.') { 
....................          c = s[ptr++]; 
....................          while((c >= '0' && c <= '9')) { 
....................              pow10 = pow10*10; 
....................              result += (c - '0')/pow10; 
....................              c = s[ptr++]; 
....................          } 
....................       } 
....................  
....................       // Handling the exponent 
....................       if (c=='e' || c=='E') { 
....................          c = s[ptr++]; 
....................  
....................          if(c == '-') { 
....................             expsign = 1; 
....................             c = s[ptr++]; 
....................          } 
....................          if(c == '+') 
....................             c = s[ptr++]; 
....................  
....................          while((c >= '0' && c <= '9')) { 
....................             expcnt = 10*expcnt + c - '0'; 
....................             c = s[ptr++]; 
....................          } 
....................  
....................          for(i=0;i<expcnt;i++) 
....................             exp*=10; 
....................  
....................          if(expsign==1) 
....................             result/=exp; 
....................          else 
....................             result*=exp; 
....................       } 
....................    } 
....................  
....................    if (sign == 1) 
....................       result = -1*result; 
....................    return(result); 
.................... } 
.................... #endif 
....................  
.................... signed int atoi(char *s) 
.................... { 
....................    signed int result; 
....................    unsigned int sign, base, index; 
....................    char c; 
....................  
....................    index = 0; 
....................    sign = 0; 
....................    base = 10; 
....................    result = 0; 
....................  
....................    if (!s) 
....................       return 0; 
....................    // Omit all preceeding alpha characters 
....................    c = s[index++]; 
....................  
....................    // increase index if either positive or negative sign is detected 
....................    if (c == '-') 
....................    { 
....................       sign = 1;         // Set the sign to negative 
....................       c = s[index++]; 
....................    } 
....................    else if (c == '+') 
....................    { 
....................       c = s[index++]; 
....................    } 
....................  
....................    if (c >= '0' && c <= '9') 
....................    { 
....................  
....................       // Check for hexa number 
....................       if (c == '0' && (s[index] == 'x' || s[index] == 'X')) 
....................       { 
....................          base = 16; 
....................          index++; 
....................          c = s[index++]; 
....................       } 
....................  
....................       // The number is a decimal number 
....................       if (base == 10) 
....................       { 
....................          while (c >= '0' && c <= '9') 
....................          { 
....................             result = 10*result + (c - '0'); 
....................             c = s[index++]; 
....................          } 
....................       } 
....................       else if (base == 16)    // The number is a hexa number 
....................       { 
....................          c = toupper(c); 
....................          while ( (c >= '0' && c <= '9') || (c >= 'A' && c<='F')) 
....................          { 
....................             if (c >= '0' && c <= '9') 
....................                result = (result << 4) + (c - '0'); 
....................             else 
....................                result = (result << 4) + (c - 'A' + 10); 
....................  
....................             c = s[index++]; 
....................             c = toupper(c); 
....................          } 
....................       } 
....................    } 
....................  
....................    if (sign == 1 && base == 10) 
....................        result = -result; 
....................  
....................    return(result); 
.................... } 
....................  
.................... signed long atol(char *s) 
.................... { 
....................    signed long result; 
....................    unsigned int sign, base, index; 
....................    char c; 
....................  
....................    index = 0; 
....................    sign = 0; 
....................    base = 10; 
....................    result = 0; 
....................  
....................    if (!s) 
....................       return 0; 
....................    c = s[index++]; 
....................  
....................    // increase index if either positive or negative sign is detected 
....................    if (c == '-') 
....................    { 
....................       sign = 1;         // Set the sign to negative 
....................       c = s[index++]; 
....................    } 
....................    else if (c == '+') 
....................    { 
....................       c = s[index++]; 
....................    } 
....................  
....................    if (c >= '0' && c <= '9') 
....................    { 
....................       if (c == '0' && (s[index] == 'x' || s[index] == 'X')) 
....................       { 
....................          base = 16; 
....................          index++; 
....................          c = s[index++]; 
....................       } 
....................  
....................       // The number is a decimal number 
....................       if (base == 10) 
....................       { 
....................          while (c >= '0' && c <= '9') 
....................          { 
....................             result = 10*result + (c - '0'); 
....................             c = s[index++]; 
....................          } 
....................       } 
....................       else if (base == 16)    // The number is a hexa number 
....................       { 
....................          c = toupper(c); 
....................          while ( (c >= '0' && c <= '9') || (c >= 'A' && c <='F')) 
....................          { 
....................             if (c >= '0' && c <= '9') 
....................                result = (result << 4) + (c - '0'); 
....................             else 
....................                result = (result << 4) + (c - 'A' + 10); 
....................  
....................             c = s[index++];c = toupper(c); 
....................          } 
....................       } 
....................    } 
....................  
....................    if (base == 10 && sign == 1) 
....................       result = -result; 
....................  
....................    return(result); 
.................... } 
....................  
.................... /* A fast routine to multiply by 10 
....................  */ 
.................... signed int32 mult_with10(int32 num) 
.................... { 
....................    return ( (num << 1) + (num << 3) ); 
.................... } 
....................  
.................... #if sizeof(long)==2 
.................... signed int32 atoi32(char *s) 
.................... { 
....................    signed int32 result; 
....................    int8 sign, base, index; 
....................    char c; 
....................  
....................    index = 0; 
....................    sign = 0; 
....................    base = 10; 
....................    result = 0; 
....................  
....................    if (!s) 
....................       return 0; 
....................    c = s[index++]; 
....................  
....................    // increase index if either positive or negative sign is detected 
....................    if (c == '-') 
....................    { 
....................       sign = 1;         // Set the sign to negative 
....................       c = s[index++]; 
....................    } 
....................    else if (c == '+') 
....................    { 
....................       c = s[index++]; 
....................    } 
....................  
....................    if (c >= '0' && c <= '9') 
....................    { 
....................       if (c == '0' && (s[index] == 'x' || s[index] == 'X')) 
....................       { 
....................          base = 16; 
....................          index++; 
....................          c = s[index++]; 
....................       } 
....................  
....................       // The number is a decimal number 
....................       if (base == 10) 
....................       { 
....................          while (c >= '0' && c <= '9') { 
....................             result = (result << 1) + (result << 3);  // result *= 10; 
....................             result += (c - '0'); 
....................             c = s[index++]; 
....................          } 
....................       } 
....................       else if (base == 16)    // The number is a hexa number 
....................       { 
....................          c = toupper(c); 
....................          while ((c >= '0' && c <= '9') || (c >= 'A' && c <='F')) 
....................          { 
....................             if (c >= '0' && c <= '9') 
....................                result = (result << 4) + (c - '0'); 
....................             else 
....................                result = (result << 4) + (c - 'A' + 10); 
....................  
....................             c = s[index++];c = toupper(c); 
....................          } 
....................       } 
....................    } 
....................  
....................    if (base == 10 && sign == 1) 
....................       result = -result; 
....................  
....................    return(result); 
.................... } 
.................... #endif 
....................  
.................... #if defined(__PCD__) 
....................  
.................... signed int48 atoi48(char *s) 
.................... { 
....................    signed int48 result; 
....................    int8 sign, base, index; 
....................    char c; 
....................  
....................    index = 0; 
....................    sign = 0; 
....................    base = 10; 
....................    result = 0; 
....................  
....................    if (!s) 
....................       return 0; 
....................    c = s[index++]; 
....................  
....................    // increase index if either positive or negative sign is detected 
....................    if (c == '-') 
....................    { 
....................       sign = 1;         // Set the sign to negative 
....................       c = s[index++]; 
....................    } 
....................    else if (c == '+') 
....................    { 
....................       c = s[index++]; 
....................    } 
....................  
....................    if (c >= '0' && c <= '9') 
....................    { 
....................       if (c == '0' && (s[index] == 'x' || s[index] == 'X')) 
....................       { 
....................          base = 16; 
....................          index++; 
....................          c = s[index++]; 
....................       } 
....................  
....................       // The number is a decimal number 
....................       if (base == 10) 
....................       { 
....................          while (c >= '0' && c <= '9') { 
....................             result = (result << 1) + (result << 3);  // result *= 10; 
....................             result += (c - '0'); 
....................             c = s[index++]; 
....................          } 
....................       } 
....................       else if (base == 16)    // The number is a hexa number 
....................       { 
....................          c = toupper(c); 
....................          while ((c >= '0' && c <= '9') || (c >= 'A' && c <='F')) 
....................          { 
....................             if (c >= '0' && c <= '9') 
....................                result = (result << 4) + (c - '0'); 
....................             else 
....................                result = (result << 4) + (c - 'A' + 10); 
....................  
....................             c = s[index++];c = toupper(c); 
....................          } 
....................       } 
....................    } 
....................  
....................    if (base == 10 && sign == 1) 
....................       result = -result; 
....................  
....................    return(result); 
.................... } 
....................  
.................... signed int64 atoi64(char *s) 
.................... { 
....................    signed int64 result; 
....................    int8 sign, base, index; 
....................    char c; 
....................  
....................    index = 0; 
....................    sign = 0; 
....................    base = 10; 
....................    result = 0; 
....................  
....................    if (!s) 
....................       return 0; 
....................    c = s[index++]; 
....................  
....................    // increase index if either positive or negative sign is detected 
....................    if (c == '-') 
....................    { 
....................       sign = 1;         // Set the sign to negative 
....................       c = s[index++]; 
....................    } 
....................    else if (c == '+') 
....................    { 
....................       c = s[index++]; 
....................    } 
....................  
....................    if (c >= '0' && c <= '9') 
....................    { 
....................       if (c == '0' && (s[index] == 'x' || s[index] == 'X')) 
....................       { 
....................          base = 16; 
....................          index++; 
....................          c = s[index++]; 
....................       } 
....................  
....................       // The number is a decimal number 
....................       if (base == 10) 
....................       { 
....................          while (c >= '0' && c <= '9') { 
....................             result = (result << 1) + (result << 3);  // result *= 10; 
....................             result += (c - '0'); 
....................             c = s[index++]; 
....................          } 
....................       } 
....................       else if (base == 16)    // The number is a hexa number 
....................       { 
....................          c = toupper(c); 
....................          while ((c >= '0' && c <= '9') || (c >= 'A' && c <='F')) 
....................          { 
....................             if (c >= '0' && c <= '9') 
....................                result = (result << 4) + (c - '0'); 
....................             else 
....................                result = (result << 4) + (c - 'A' + 10); 
....................  
....................             c = s[index++];c = toupper(c); 
....................          } 
....................       } 
....................    } 
....................  
....................    if (base == 10 && sign == 1) 
....................       result = -result; 
....................  
....................    return(result); 
.................... } 
.................... #endif 
....................  
.................... char * itoa(signed int32 num, unsigned int base, char * s) 
.................... { 
....................      unsigned int32 temp=1; 
....................      unsigned int8 i,sign=0,cnt=0; 
....................      char c; 
....................  
....................      if(num<0) { 
....................          sign=1;        // Check for negative number 
....................          num*=-1; 
....................      } 
....................  
....................      while(temp>0) { 
....................          temp=(num/base); 
....................          s[cnt]=(num%base)+'0';    // Conversion 
....................  
....................          if(s[cnt]>0x39) 
....................             s[cnt]+=0x7; 
....................  
....................          cnt++; 
....................          num=temp; 
....................      } 
....................  
....................      if(sign==1) { 
....................          s[cnt]=0x2D;      // Negative sign 
....................          cnt++; 
....................      } 
....................  
....................      for(i = 0;i<(int8)(cnt/2);i++) { 
....................  
....................          c=s[i]; 
....................          s[i]=s[cnt-i-1];        // Reverse the number 
....................          s[cnt-i-1]=c; 
....................      } 
....................      s[cnt]='\0';     // End the string 
....................      return s; 
.................... } 
....................  
.................... float strtof(char *s, char *endptr) 
.................... { 
....................    float pow10 = 1.0; 
....................    float result = 0.0; 
....................    int1 skip = 1, sign = 0, point = 0; 
....................    char c; 
....................    unsigned int8 ptr = 0; 
....................  
....................    if (!s) 
....................       return 0; 
....................  
....................    for(c=s[ptr++]; c!=0; c=s[ptr++]) 
....................    { 
....................       if (skip && !isspace(c)) 
....................       { 
....................          skip = 0; 
....................          if (c == '+') 
....................          { 
....................             sign = 0; 
....................             continue; 
....................          }             
....................          else if (c == '-') 
....................          { 
....................             sign = 1; 
....................             continue; 
....................          } 
....................       } 
....................       if (!skip && (c == '.') && !point) 
....................          point = 1; 
....................       else if (!skip && isdigit(c)) 
....................       { 
....................          c -= '0'; 
....................          if (point) 
....................          { 
....................             pow10 = pow10 * 10.0; 
....................             result += (float)c / pow10;    
....................          } 
....................          else 
....................          { 
....................             result = 10.0 * result + (float)c; 
....................          } 
....................       } 
....................       else if (!skip) 
....................          break; 
....................    } 
....................  
....................    if (sign) 
....................       result = -1*result; 
....................        
....................    if(endptr) 
....................    { 
....................       if (ptr) { 
....................          ptr--; 
....................        #IF LONG_POINTERS  
....................          *((long *)endptr)= s+ptr;  
....................        #ELSE 
....................          *((char *)endptr)=s+ptr; 
....................        #ENDIF 
....................       } 
....................       else 
....................       { 
....................       #IF LONG_POINTERS 
....................       *((long *)endptr)= s;  
....................       #ELSE 
....................       *((char *)endptr)=s; 
....................       #ENDIF 
....................       } 
....................    } 
....................  
....................    return(result); 
.................... } 
....................  
.................... #if defined(__PCD__) 
.................... float48 strtof48(char *s, char *endptr) 
.................... { 
....................    float48 pow10 = 1.0; 
....................    float48 result = 0.0; 
....................    int1 skip = 1, sign = 0, point = 0; 
....................    char c; 
....................    unsigned int8 ptr = 0; 
....................  
....................    if (!s) 
....................       return 0; 
....................  
....................    for(c=s[ptr++]; c!=0; c=s[ptr++]) 
....................    { 
....................       if (skip && !isspace(c)) 
....................       { 
....................          skip = 0; 
....................          if (c == '+') 
....................          { 
....................             sign = 0; 
....................             continue; 
....................          }             
....................          else if (c == '-') 
....................          { 
....................             sign = 1; 
....................             continue; 
....................          } 
....................       } 
....................       if (!skip && (c == '.') && !point) 
....................          point = 1; 
....................       else if (!skip && isdigit(c)) 
....................       { 
....................          c -= '0'; 
....................          if (point) 
....................          { 
....................             pow10 = pow10 * 10.0; 
....................             result += (float48)c / pow10;    
....................          } 
....................          else 
....................          { 
....................             result = 10.0 * result + (float48)c; 
....................          } 
....................       } 
....................       else if (!skip) 
....................          break; 
....................    } 
....................  
....................    if (sign) 
....................       result = -1*result; 
....................        
....................    if(endptr) 
....................    { 
....................       if (ptr) { 
....................          ptr--; 
....................        #IF LONG_POINTERS  
....................          *((long *)endptr)= s+ptr;  
....................        #ELSE 
....................          *((char *)endptr)=s+ptr; 
....................        #ENDIF 
....................       } 
....................       else 
....................       { 
....................       #IF LONG_POINTERS 
....................       *((long *)endptr)= s;  
....................       #ELSE 
....................       *((char *)endptr)=s; 
....................       #ENDIF 
....................       } 
....................    } 
....................  
....................    return(result); 
.................... } 
....................  
.................... float64 strtod(char *s, char *endptr) 
.................... { 
....................    float64 pow10 = 1.0; 
....................    float64 result = 0.0; 
....................    int1 skip = 1, sign = 0, point = 0; 
....................    char c; 
....................    unsigned int8 ptr = 0; 
....................  
....................    if (!s) 
....................       return 0; 
....................  
....................    for(c=s[ptr++]; c!=0; c=s[ptr++]) 
....................    { 
....................       if (skip && !isspace(c)) 
....................       { 
....................          skip = 0; 
....................          if (c == '+') 
....................          { 
....................             sign = 0; 
....................             continue; 
....................          }             
....................          else if (c == '-') 
....................          { 
....................             sign = 1; 
....................             continue; 
....................          } 
....................       } 
....................       if (!skip && (c == '.') && !point) 
....................          point = 1; 
....................       else if (!skip && isdigit(c)) 
....................       { 
....................          c -= '0'; 
....................          if (point) 
....................          { 
....................             pow10 = pow10 * 10.0; 
....................             result += (float64)c / pow10;    
....................          } 
....................          else 
....................          { 
....................             result = 10.0 * result + (float64)c; 
....................          } 
....................       } 
....................       else if (!skip) 
....................          break; 
....................    } 
....................  
....................    if (sign) 
....................       result = -1*result; 
....................        
....................    if(endptr) 
....................    { 
....................       if (ptr) { 
....................          ptr--; 
....................        #IF LONG_POINTERS  
....................          *((long *)endptr)= s+ptr;  
....................        #ELSE 
....................          *((char *)endptr)=s+ptr; 
....................        #ENDIF 
....................       } 
....................       else 
....................       { 
....................       #IF LONG_POINTERS 
....................       *((long *)endptr)= s;  
....................       #ELSE 
....................       *((char *)endptr)=s; 
....................       #ENDIF 
....................       } 
....................    } 
....................  
....................    return(result); 
.................... } 
.................... #endif 
....................  
.................... unsigned long strtoul(char *s, char *endptr, signed int base) 
.................... { 
....................    char *sc,*s1,*sd; 
....................    unsigned long x=0; 
....................    char sign; 
....................    char digits[]="0123456789abcdefghijklmnopqstuvwxyz"; 
....................    for(sc=s;isspace(*sc);++sc); 
....................    sign=*sc=='-'||*sc=='+'?*sc++:'+'; 
....................    if(sign=='-' || base <0 || base ==1|| base >36) // invalid base 
....................    goto StrtoulGO; 
....................  
....................    else if (base) 
....................    { 
....................       if(base==16 && *sc =='0'&&(sc[1]=='x' || sc[1]=='X')) 
....................          sc+=2; 
....................       if(base==8 && *sc =='0') 
....................          sc+=1; 
....................       if(base==2 && *sc =='0'&&sc[1]=='b') 
....................          sc+=2; 
....................  
....................    } 
....................    else if(*sc!='0') // base is 0, find base 
....................       base=10; 
....................    else if (sc[1]=='x' || sc[1]=='X') 
....................       base =16,sc+=2; 
....................    else if(sc[1]=='b') 
....................       base=2,sc+=2; 
....................    else 
....................       base=8; 
....................    for (s1=sc;*sc=='0';++sc);// skip leading zeroes 
....................    sd=memchr(digits,tolower(*sc),base); 
....................    for(; sd!=0; ) 
....................    { 
....................       x=x*base+(int16)(sd-digits); 
....................       ++sc; 
....................       sd=memchr(digits,tolower(*sc),base); 
....................    } 
....................    if(s1==sc) 
....................    { 
....................    StrtoulGO: 
....................       if (endptr) 
....................       { 
....................          #IF LONG_POINTERS 
....................          *((long *)endptr)= s;  
....................          #ELSE 
....................          *((char *)endptr)=s; 
....................          #ENDIF 
....................          } 
....................    return 0; 
....................    } 
....................    if (endptr) 
....................    { 
....................          #IF LONG_POINTERS 
....................          *((long *)endptr)= sc;  
....................          #ELSE 
....................          *((char *)endptr)=sc;  
....................          #ENDIF 
....................    } 
....................    return x; 
.................... } 
....................  
....................  
.................... signed long strtol(char *s,char *endptr, signed int base) 
.................... { 
....................    char *sc,*s1,*sd; 
....................    signed long x=0; 
....................    char sign; 
....................    char digits[]="0123456789abcdefghijklmnopqstuvwxyz"; 
....................    for(sc=s;isspace(*sc);++sc); 
....................    sign=*sc=='-'||*sc=='+'?*sc++:'+'; 
....................    if (base <0 || base ==1|| base >36) // invalid base 
....................    goto StrtolGO; 
....................    else if (base) 
....................    { 
....................       if(base==16 && *sc =='0'&&(sc[1]=='x' || sc[1]=='X')) 
....................          sc+=2; 
....................       if(base==8 && *sc =='0') 
....................          sc+=1; 
....................       if(base==2 && *sc =='0'&&sc[1]=='b') 
....................          sc+=2; 
....................  
....................    } 
....................    else if(*sc!='0') // base is 0, find base 
....................       base=10; 
....................    else if (sc[1]=='x' || sc[1]=='X') 
....................       base =16,sc+=2; 
....................    else if(sc[1]=='b') 
....................       base=2,sc+=2; 
....................    else 
....................       base=8; 
....................    for (s1=sc;*sc=='0';++sc);// skip leading zeroes 
....................  
....................    sd=memchr(digits,tolower(*sc),base); 
....................    for(;sd!=0;) 
....................    { 
....................       x=x*base+(int16)(sd-digits); 
....................       ++sc; 
....................       sd=memchr(digits,tolower(*sc),base); 
....................    } 
....................    if(s1==sc) 
....................    { 
....................    StrtolGO: 
....................       if (endptr) 
....................       { 
....................          #IF LONG_POINTERS 
....................          *((long *)endptr)= s;  
....................          #ELSE 
....................          *((char *)endptr)=s; 
....................          #ENDIF 
....................       } 
....................    return 0; 
....................    } 
....................    if(sign=='-') 
....................       x  =-x; 
....................    if (endptr) 
....................    { 
....................         #IF LONG_POINTERS 
....................          *((long *)endptr)= sc;  
....................         #ELSE 
....................         *((char *)endptr)=sc; 
....................         #ENDIF 
....................    } 
....................    return x; 
.................... } 
....................  
.................... signed int8 system(char *string) 
.................... { 
....................    return 0; 
.................... } 
....................  
.................... int8 mblen(char *s,size_t n) 
.................... { 
....................    return strlen(s); 
.................... } 
....................  
.................... int8 mbtowc(wchar_t *pwc,char *s,size_t n) 
.................... { 
....................    *pwc=*s; 
....................    return 1; 
.................... } 
....................  
.................... int8 wctomb(char *s,wchar_t wchar) 
.................... { 
....................    *s=wchar; 
....................    return 1; 
.................... } 
....................  
.................... size_t mbstowcs(wchar_t *pwcs,char *s,size_t n) 
.................... { 
....................    strncpy(pwcs,s,n); 
....................    return strlen(pwcs); 
.................... } 
....................  
.................... size_t wcstombs(char *s,wchar_t *pwcs,size_t n) 
.................... { 
....................    strncpy(s,pwcs,n); 
....................    return strlen(s); 
.................... } 
....................  
.................... //--------------------------------------------------------------------------- 
.................... // The random number implementation 
.................... //--------------------------------------------------------------------------- 
....................  
.................... unsigned int32 _Randseed; 
....................  
.................... unsigned int16 rand(void) 
.................... { 
....................    _Randseed = _Randseed * 1103515245 + 12345; 
....................    return ((unsigned int16)(_Randseed >> 16) % RAND_MAX); 
.................... } 
....................  
.................... void srand(unsigned int32 seed) 
.................... { 
....................    _Randseed = seed; 
.................... } 
....................  
.................... //--------------------------------------------------------------------------- 
.................... // Searching and sorting utilities implementation 
.................... //--------------------------------------------------------------------------- 
....................  
.................... #if !defined(__PCD__) 
.................... typedef signed int8 (*_Cmpfun)(char * p1,char * p2);  
.................... #else  
.................... typedef signed int16 (*_Cmpfun)(char * p1,char * p2);  
.................... #endif 
....................  
....................  
....................  
.................... void qsort(char * qdata, unsigned int qitems, unsigned int qsize, _Cmpfun cmp) { 
....................    unsigned int m,j,i,l; 
....................    int1 done; 
....................    unsigned int8 t[16]; 
....................  
....................    m = qitems/2; 
....................    while( m > 0 ) { 
....................      for(j=0; j<(qitems-m); ++j) { 
....................         i = j; 
....................         do 
....................         { 
....................            done=1; 
....................            l = i+m; 
....................            if( (*cmp)(qdata+i*qsize, qdata+l*qsize) > 0 ) { 
....................               memcpy(t, qdata+i*qsize, qsize); 
....................               memcpy(qdata+i*qsize, qdata+l*qsize, qsize); 
....................               memcpy(qdata+l*qsize, t, qsize); 
....................               if(m <= i) 
....................                 i -= m; 
....................                 done = 0; 
....................            } 
....................         } while(!done); 
....................      } 
....................      m = m/2; 
....................    } 
.................... } 
....................  
....................  
.................... char *bsearch(char *key, char *base, size_t num, size_t width,_Cmpfun cmp) 
.................... { 
....................    char *p, *q; 
....................    size_t n; 
....................    size_t pivot; 
....................    signed int val; 
....................  
....................    p = base; 
....................    n = num; 
....................  
....................    while (n > 0) 
....................    { 
....................       pivot = n >> 1; 
....................       q = p + width * pivot; 
....................  
....................       val = (*cmp)(key, q); 
....................  
....................       if (val < 0) 
....................          n = pivot; 
....................       else if (val == 0) 
....................          return ((char *)q); 
....................       else { 
....................          p = q + width; 
....................          n -= pivot + 1; 
....................       } 
....................    } 
....................  
....................    return NULL;      // There's no match 
.................... } 
....................  
....................  
.................... #endif 
....................  
.................... #include <DS1302.c> 
.................... ////////////////////////////////////////////////////////////////////////// 
.................... ////                               DS1302.C                           //// 
.................... ////                     Driver for Real Time Clock                   //// 
.................... ////                                                                  //// 
.................... ////  rtc_init()                                   Call after power up//// 
.................... ////                                                                  //// 
.................... ////  rtc_set_datetime(day,mth,year,dow,hour,min)  Set the date/time  //// 
.................... ////                                                                  //// 
.................... ////  rtc_get_date(day,mth,year,dow)               Get the date       //// 
.................... ////                                                                  //// 
.................... ////  rtc_get_time(hr,min,sec)                     Get the time       //// 
.................... ////                                                                  //// 
.................... ////  rtc_write_nvr(address,data)                  Write to NVR       //// 
.................... ////                                                                  //// 
.................... ////  data = rtc_read_nvr(address)                 Read from NVR      //// 
.................... ////                                                                  //// 
.................... ////  get_bcd(data)                              Convert data to BCD  //// 
.................... ////                                                                  //// 
.................... ////  rm_bcd(data)                               Convert data to int  //// 
.................... ////                                                                  //// 
.................... ////////////////////////////////////////////////////////////////////////// 
.................... ////        (C) Copyright 1996,2003 Custom Computer Services          //// 
.................... //// This source code may only be used by licensed users of the CCS C //// 
.................... //// compiler.  This source code may only be distributed to other     //// 
.................... //// licensed users of the CCS C compiler.  No other use, reproduction//// 
.................... //// or distribution is permitted without written permission.         //// 
.................... //// Derivative programs created using this software in object code   //// 
.................... //// form are not restricted in any way.                              //// 
.................... ////////////////////////////////////////////////////////////////////////// 
....................  
.................... //#ifndef RTC_SCLK 
....................  
.................... #define RTC_SCLK PIN_D1 
.................... #define RTC_IO   PIN_D2 
.................... #define RTC_RST  PIN_D3 
....................  
.................... //#endif 
....................  
.................... void write_ds1302_byte(BYTE cmd) { 
....................    BYTE i; 
....................  
....................    for(i=0;i<=7;++i) { 
*
034E4:  MOVLB  4
034E6:  CLRF   x1E
034E8:  MOVF   x1E,W
034EA:  SUBLW  07
034EC:  BNC   3508
....................       output_bit(RTC_IO, shift_right(&cmd,1,0) ); 
034EE:  BCF    FD8.0
034F0:  RRCF   x1D,F
034F2:  BC    34F8
034F4:  BCF    F8C.2
034F6:  BRA    34FA
034F8:  BSF    F8C.2
034FA:  BCF    F95.2
....................       output_high(RTC_SCLK); 
034FC:  BCF    F95.1
034FE:  BSF    F8C.1
....................       output_low(RTC_SCLK); 
03500:  BCF    F95.1
03502:  BCF    F8C.1
....................    } 
03504:  INCF   x1E,F
03506:  BRA    34E8
.................... } 
03508:  MOVLB  0
0350A:  RETLW  00
....................  
.................... void write_ds1302(BYTE cmd, BYTE data) { 
....................  
....................    output_high(RTC_RST); 
0350C:  BCF    F95.3
0350E:  BSF    F8C.3
....................    write_ds1302_byte(cmd); 
03510:  MOVFF  41B,41D
03514:  RCALL  34E4
....................    write_ds1302_byte(data); 
03516:  MOVFF  41C,41D
0351A:  RCALL  34E4
....................    output_low(RTC_RST); 
0351C:  BCF    F95.3
0351E:  BCF    F8C.3
.................... } 
03520:  RETLW  00
....................  
.................... BYTE read_ds1302(BYTE cmd) { 
....................    BYTE i,data; 
....................  
....................    output_high(RTC_RST); 
03522:  BCF    F95.3
03524:  BSF    F8C.3
....................    write_ds1302_byte(cmd); 
03526:  MOVFF  418,41D
0352A:  RCALL  34E4
....................     
....................    input(RTC_IO); 
0352C:  BSF    F95.2
....................    delay_us(10); 
0352E:  MOVLW  10
03530:  MOVWF  00
03532:  DECFSZ 00,F
03534:  BRA    3532
03536:  NOP   
....................           
....................    for(i=0;i<=7;++i) { 
03538:  MOVLB  4
0353A:  CLRF   x19
0353C:  MOVF   x19,W
0353E:  SUBLW  07
03540:  BNC   356C
....................       shift_right(&data,1,input(RTC_IO)); 
03542:  BSF    F95.2
03544:  BTFSC  F83.2
03546:  BRA    354C
03548:  BCF    FD8.0
0354A:  BRA    354E
0354C:  BSF    FD8.0
0354E:  RRCF   x1A,F
....................       output_high(RTC_SCLK); 
03550:  BCF    F95.1
03552:  BSF    F8C.1
....................       delay_us(20); 
03554:  MOVLW  21
03556:  MOVWF  00
03558:  DECFSZ 00,F
0355A:  BRA    3558
....................       output_low(RTC_SCLK); 
0355C:  BCF    F95.1
0355E:  BCF    F8C.1
....................       delay_us(20); 
03560:  MOVLW  21
03562:  MOVWF  00
03564:  DECFSZ 00,F
03566:  BRA    3564
....................    } 
03568:  INCF   x19,F
0356A:  BRA    353C
....................    output_low(RTC_RST); 
0356C:  BCF    F95.3
0356E:  BCF    F8C.3
....................  
....................    return(data); 
03570:  MOVFF  41A,01
.................... } 
03574:  MOVLB  0
03576:  RETLW  00
....................  
.................... void rtc_init() { 
....................    BYTE x; 
....................    output_low(RTC_RST); 
03578:  BCF    F95.3
0357A:  BCF    F8C.3
....................    delay_us(20); 
0357C:  MOVLW  21
0357E:  MOVWF  00
03580:  DECFSZ 00,F
03582:  BRA    3580
....................    output_low(RTC_SCLK); 
03584:  BCF    F95.1
03586:  BCF    F8C.1
....................    write_ds1302(0x8e,0); 
03588:  MOVLW  8E
0358A:  MOVLB  4
0358C:  MOVWF  x1B
0358E:  CLRF   x1C
03590:  MOVLB  0
03592:  RCALL  350C
....................    write_ds1302(0x90,0xa4); 
03594:  MOVLW  90
03596:  MOVLB  4
03598:  MOVWF  x1B
0359A:  MOVLW  A4
0359C:  MOVWF  x1C
0359E:  MOVLB  0
035A0:  RCALL  350C
....................    x=read_ds1302(0x81); 
035A2:  MOVLW  81
035A4:  MOVLB  4
035A6:  MOVWF  x18
035A8:  MOVLB  0
035AA:  RCALL  3522
035AC:  MOVFF  01,414
....................    if((x & 0x80)!=0) 
035B0:  MOVLB  4
035B2:  MOVF   x14,W
035B4:  ANDLW  80
035B6:  BZ    35C4
....................      write_ds1302(0x80,0); 
035B8:  MOVLW  80
035BA:  MOVWF  x1B
035BC:  CLRF   x1C
035BE:  MOVLB  0
035C0:  RCALL  350C
035C2:  MOVLB  4
.................... } 
035C4:  MOVLB  0
035C6:  GOTO   7942 (RETURN)
....................  
.................... byte get_bcd(BYTE data) 
.................... { 
....................    byte nibh; 
....................    byte nibl; 
....................  
....................    nibh=data/10; 
*
05244:  MOVFF  41A,41E
05248:  MOVLW  0A
0524A:  MOVLB  4
0524C:  MOVWF  x1F
0524E:  MOVLB  0
05250:  RCALL  4D5E
05252:  MOVFF  01,41B
....................    nibl=data-(nibh*10); 
05256:  MOVLB  4
05258:  MOVF   x1B,W
0525A:  MULLW  0A
0525C:  MOVF   FF3,W
0525E:  SUBWF  x1A,W
05260:  MOVWF  x1C
....................  
....................    return((nibh<<4)|nibl); 
05262:  SWAPF  x1B,W
05264:  MOVWF  00
05266:  MOVLW  F0
05268:  ANDWF  00,F
0526A:  MOVF   00,W
0526C:  IORWF  x1C,W
0526E:  MOVWF  01
.................... } 
05270:  MOVLB  0
05272:  RETLW  00
....................  
.................... byte rm_bcd(BYTE data) 
.................... { 
....................    byte i; 
....................  
....................    i=data; 
*
04BF8:  MOVFF  419,41A
....................    data=(i>>4)*10; 
04BFC:  MOVLB  4
04BFE:  SWAPF  x1A,W
04C00:  MOVWF  00
04C02:  MOVLW  0F
04C04:  ANDWF  00,F
04C06:  MOVF   00,W
04C08:  MULLW  0A
04C0A:  MOVFF  FF3,419
....................    data=data+(i<<4>>4); 
04C0E:  SWAPF  x1A,W
04C10:  MOVWF  00
04C12:  MOVLW  F0
04C14:  ANDWF  00,F
04C16:  MOVF   00,W
04C18:  SWAPF  00,F
04C1A:  MOVLW  0F
04C1C:  ANDWF  00,F
04C1E:  MOVF   00,W
04C20:  ADDWF  x19,F
....................  
....................    return data; 
04C22:  MOVFF  419,01
.................... } 
04C26:  MOVLB  0
04C28:  RETLW  00
....................  
.................... void rtc_set_datetime(BYTE day, BYTE mth, BYTE year, BYTE dow, BYTE hr, BYTE min) { 
....................  
....................    write_ds1302(0x86,get_bcd(day)); 
*
05274:  MOVFF  414,41A
05278:  RCALL  5244
0527A:  MOVFF  01,41A
0527E:  MOVLW  86
05280:  MOVLB  4
05282:  MOVWF  x1B
05284:  MOVFF  01,41C
05288:  MOVLB  0
0528A:  CALL   350C
....................    write_ds1302(0x88,get_bcd(mth)); 
0528E:  MOVFF  415,41A
05292:  RCALL  5244
05294:  MOVFF  01,41A
05298:  MOVLW  88
0529A:  MOVLB  4
0529C:  MOVWF  x1B
0529E:  MOVFF  01,41C
052A2:  MOVLB  0
052A4:  CALL   350C
....................    write_ds1302(0x8c,get_bcd(year)); 
052A8:  MOVFF  416,41A
052AC:  RCALL  5244
052AE:  MOVFF  01,41A
052B2:  MOVLW  8C
052B4:  MOVLB  4
052B6:  MOVWF  x1B
052B8:  MOVFF  01,41C
052BC:  MOVLB  0
052BE:  CALL   350C
....................    write_ds1302(0x8a,get_bcd(dow)); 
052C2:  MOVFF  417,41A
052C6:  RCALL  5244
052C8:  MOVFF  01,41A
052CC:  MOVLW  8A
052CE:  MOVLB  4
052D0:  MOVWF  x1B
052D2:  MOVFF  01,41C
052D6:  MOVLB  0
052D8:  CALL   350C
....................    write_ds1302(0x84,get_bcd(hr)); 
052DC:  MOVFF  418,41A
052E0:  RCALL  5244
052E2:  MOVFF  01,41A
052E6:  MOVLW  84
052E8:  MOVLB  4
052EA:  MOVWF  x1B
052EC:  MOVFF  01,41C
052F0:  MOVLB  0
052F2:  CALL   350C
....................    write_ds1302(0x82,get_bcd(min)); 
052F6:  MOVFF  419,41A
052FA:  RCALL  5244
052FC:  MOVFF  01,41A
05300:  MOVLW  82
05302:  MOVLB  4
05304:  MOVWF  x1B
05306:  MOVFF  01,41C
0530A:  MOVLB  0
0530C:  CALL   350C
....................    write_ds1302(0x80,get_bcd(0)); 
05310:  MOVLB  4
05312:  CLRF   x1A
05314:  MOVLB  0
05316:  RCALL  5244
05318:  MOVFF  01,41A
0531C:  MOVLW  80
0531E:  MOVLB  4
05320:  MOVWF  x1B
05322:  MOVFF  01,41C
05326:  MOVLB  0
05328:  CALL   350C
.................... } 
0532C:  GOTO   A988 (RETURN)
....................  
.................... void rtc_get_date(BYTE& day, BYTE& mth, BYTE& year, BYTE& dow) { 
....................    day = rm_bcd(read_ds1302(0x87)); 
*
07B9E:  MOVLW  87
07BA0:  MOVLB  4
07BA2:  MOVWF  x18
07BA4:  MOVLB  0
07BA6:  CALL   3522
07BAA:  MOVFF  01,414
07BAE:  MOVFF  01,419
07BB2:  CALL   4BF8
07BB6:  MOVFF  01,376
....................    mth = rm_bcd(read_ds1302(0x89)); 
07BBA:  MOVLW  89
07BBC:  MOVLB  4
07BBE:  MOVWF  x18
07BC0:  MOVLB  0
07BC2:  CALL   3522
07BC6:  MOVFF  01,414
07BCA:  MOVFF  01,419
07BCE:  CALL   4BF8
07BD2:  MOVFF  01,375
....................    year = rm_bcd(read_ds1302(0x8d)); 
07BD6:  MOVLW  8D
07BD8:  MOVLB  4
07BDA:  MOVWF  x18
07BDC:  MOVLB  0
07BDE:  CALL   3522
07BE2:  MOVFF  01,414
07BE6:  MOVFF  01,419
07BEA:  CALL   4BF8
07BEE:  MOVFF  01,374
....................    dow = rm_bcd(read_ds1302(0x8b)); 
07BF2:  MOVLW  8B
07BF4:  MOVLB  4
07BF6:  MOVWF  x18
07BF8:  MOVLB  0
07BFA:  CALL   3522
07BFE:  MOVFF  01,414
07C02:  MOVFF  01,419
07C06:  CALL   4BF8
07C0A:  MOVFF  01,37A
.................... } 
....................  
.................... void rtc_get_time(BYTE& hr, BYTE& min, BYTE& sec) { 
....................    hr = rm_bcd(read_ds1302(0x85)); 
07C0E:  MOVLW  85
07C10:  MOVLB  4
07C12:  MOVWF  x18
07C14:  MOVLB  0
07C16:  CALL   3522
07C1A:  MOVFF  01,414
07C1E:  MOVFF  01,419
07C22:  CALL   4BF8
07C26:  MOVFF  01,377
....................    min = rm_bcd(read_ds1302(0x83)); 
07C2A:  MOVLW  83
07C2C:  MOVLB  4
07C2E:  MOVWF  x18
07C30:  MOVLB  0
07C32:  CALL   3522
07C36:  MOVFF  01,414
07C3A:  MOVFF  01,419
07C3E:  CALL   4BF8
07C42:  MOVFF  01,378
....................    sec = rm_bcd(read_ds1302(0x81)); 
07C46:  MOVLW  81
07C48:  MOVLB  4
07C4A:  MOVWF  x18
07C4C:  MOVLB  0
07C4E:  CALL   3522
07C52:  MOVFF  01,414
07C56:  MOVFF  01,419
07C5A:  CALL   4BF8
07C5E:  MOVFF  01,379
.................... } 
....................  
.................... void rtc_write_nvr(BYTE address, BYTE data) { 
....................    write_ds1302(address|0xc0,data); 
.................... } 
....................  
.................... BYTE rtc_read_nvr(BYTE address) { 
....................     return(read_ds1302(address|0xc1)); 
.................... } 
....................  
.................... #include <24512.c> 
.................... /////////////////////////////////////////////////////////////////////////// 
.................... ////   Library for a 24LC512 serial EEPROM                             //// 
.................... ////                                                                   //// 
.................... ////   init_ext_eeprom();    Call before the other functions are used  //// 
.................... ////                                                                   //// 
.................... ////   write_ext_eeprom(a, d);  Write the byte d to the address a      //// 
.................... ////                                                                   //// 
.................... ////   d = read_ext_eeprom(a);   Read the byte d from the address a    //// 
.................... ////                                                                   //// 
.................... ////   The main program may define eeprom_sda                          //// 
.................... ////   and eeprom_scl to override the defaults below.                  //// 
.................... ////                                                                   //// 
.................... /////////////////////////////////////////////////////////////////////////// 
.................... ////        (C) Copyright 1996,2003 Custom Computer Services           //// 
.................... //// This source code may only be used by licensed users of the CCS C  //// 
.................... //// compiler.  This source code may only be distributed to other      //// 
.................... //// licensed users of the CCS C compiler.  No other use, reproduction //// 
.................... //// or distribution is permitted without written permission.          //// 
.................... //// Derivative programs created using this software in object code    //// 
.................... //// form are not restricted in any way.                               //// 
.................... /////////////////////////////////////////////////////////////////////////// 
....................  
.................... #ifndef EEPROM_SDA 
....................  
.................... #define EEPROM_SDA  PIN_C4 
.................... #define EEPROM_SCL  PIN_C3 
....................  
.................... #endif 
....................  
.................... //#use i2c(master, sda=EEPROM_SDA, scl=EEPROM_SCL) 
....................  
.................... #define EEPROM_ADDRESS long int 
.................... #define EEPROM_SIZE   65535 
....................  
.................... void init_ext_eeprom() 
.................... { 
....................    output_float(EEPROM_SCL); 
....................    output_float(EEPROM_SDA); 
....................  
.................... } 
....................  
.................... void write_ext_eeprom(long int address, BYTE data) 
.................... { 
....................    short int status; 
....................    i2c_start(); 
*
063C0:  BSF    F94.4
063C2:  MOVLW  05
063C4:  MOVWF  00
063C6:  DECFSZ 00,F
063C8:  BRA    63C6
063CA:  BSF    F94.3
063CC:  MOVLW  06
063CE:  MOVWF  00
063D0:  DECFSZ 00,F
063D2:  BRA    63D0
063D4:  BCF    F8B.4
063D6:  BCF    F94.4
063D8:  MOVLW  05
063DA:  MOVWF  00
063DC:  DECFSZ 00,F
063DE:  BRA    63DC
063E0:  BCF    F8B.3
063E2:  BCF    F94.3
....................    i2c_write(0xa0); 
063E4:  MOVLW  A0
063E6:  MOVLB  4
063E8:  MOVWF  x2A
063EA:  MOVLB  0
063EC:  CALL   1E18
....................    i2c_write(address>>8); 
063F0:  MOVFF  41C,41F
063F4:  MOVLB  4
063F6:  CLRF   x20
063F8:  MOVFF  41C,42A
063FC:  MOVLB  0
063FE:  CALL   1E18
....................    i2c_write(address); 
06402:  MOVFF  41B,42A
06406:  CALL   1E18
....................    i2c_write(data); 
0640A:  MOVFF  41D,42A
0640E:  CALL   1E18
....................    i2c_stop(); 
06412:  BCF    F94.4
06414:  NOP   
06416:  BSF    F94.3
06418:  BTFSS  F82.3
0641A:  BRA    6418
0641C:  MOVLW  05
0641E:  MOVWF  00
06420:  DECFSZ 00,F
06422:  BRA    6420
06424:  BRA    6426
06426:  NOP   
06428:  BSF    F94.4
0642A:  MOVLW  05
0642C:  MOVWF  00
0642E:  DECFSZ 00,F
06430:  BRA    642E
....................    i2c_start(); 
06432:  BSF    F94.4
06434:  MOVLW  05
06436:  MOVWF  00
06438:  DECFSZ 00,F
0643A:  BRA    6438
0643C:  BSF    F94.3
0643E:  MOVLW  06
06440:  MOVWF  00
06442:  DECFSZ 00,F
06444:  BRA    6442
06446:  BCF    F8B.4
06448:  BCF    F94.4
0644A:  MOVLW  05
0644C:  MOVWF  00
0644E:  DECFSZ 00,F
06450:  BRA    644E
06452:  BCF    F8B.3
06454:  BCF    F94.3
....................    status=i2c_write(0xa0); 
06456:  MOVLW  A0
06458:  MOVLB  4
0645A:  MOVWF  x2A
0645C:  MOVLB  0
0645E:  CALL   1E18
06462:  MOVF   01,W
06464:  MOVLB  4
06466:  BCF    x1E.0
06468:  BTFSC  01.0
0646A:  BSF    x1E.0
....................    while(status==1) 
....................    { 
0646C:  BTFSS  x1E.0
0646E:  BRA    64AE
....................       i2c_start(); 
06470:  BSF    F94.4
06472:  MOVLW  05
06474:  MOVWF  00
06476:  DECFSZ 00,F
06478:  BRA    6476
0647A:  BSF    F94.3
0647C:  MOVLW  06
0647E:  MOVWF  00
06480:  DECFSZ 00,F
06482:  BRA    6480
06484:  BTFSS  F82.3
06486:  BRA    6484
06488:  BCF    F8B.4
0648A:  BCF    F94.4
0648C:  MOVLW  05
0648E:  MOVWF  00
06490:  DECFSZ 00,F
06492:  BRA    6490
06494:  BCF    F8B.3
06496:  BCF    F94.3
....................       status=i2c_write(0xa0); 
06498:  MOVLW  A0
0649A:  MOVWF  x2A
0649C:  MOVLB  0
0649E:  CALL   1E18
064A2:  MOVF   01,W
064A4:  MOVLB  4
064A6:  BCF    x1E.0
064A8:  BTFSC  01.0
064AA:  BSF    x1E.0
....................    } 
064AC:  BRA    646C
....................    i2c_stop(); 
064AE:  BCF    F94.4
064B0:  NOP   
064B2:  BSF    F94.3
064B4:  BTFSS  F82.3
064B6:  BRA    64B4
064B8:  MOVLW  05
064BA:  MOVWF  00
064BC:  DECFSZ 00,F
064BE:  BRA    64BC
064C0:  BRA    64C2
064C2:  NOP   
064C4:  BSF    F94.4
064C6:  MOVLW  05
064C8:  MOVWF  00
064CA:  DECFSZ 00,F
064CC:  BRA    64CA
.................... } 
064CE:  MOVLB  0
064D0:  RETLW  00
....................  
.................... BYTE read_ext_eeprom(long int address) { 
....................    BYTE data; 
....................    i2c_start(); 
*
01EFA:  BSF    F94.4
01EFC:  MOVLW  05
01EFE:  MOVWF  00
01F00:  DECFSZ 00,F
01F02:  BRA    1F00
01F04:  BSF    F94.3
01F06:  MOVLW  06
01F08:  MOVWF  00
01F0A:  DECFSZ 00,F
01F0C:  BRA    1F0A
01F0E:  BCF    F8B.4
01F10:  BCF    F94.4
01F12:  MOVLW  05
01F14:  MOVWF  00
01F16:  DECFSZ 00,F
01F18:  BRA    1F16
01F1A:  BCF    F8B.3
01F1C:  BCF    F94.3
....................    i2c_write(0xa0); 
01F1E:  MOVLW  A0
01F20:  MOVLB  4
01F22:  MOVWF  x2A
01F24:  MOVLB  0
01F26:  RCALL  1E18
....................    i2c_write(address>>8); 
01F28:  MOVFF  41A,41C
01F2C:  MOVLB  4
01F2E:  CLRF   x1D
01F30:  MOVFF  41A,42A
01F34:  MOVLB  0
01F36:  RCALL  1E18
....................    i2c_write(address); 
01F38:  MOVFF  419,42A
01F3C:  RCALL  1E18
....................    i2c_start(); 
01F3E:  BSF    F94.4
01F40:  MOVLW  05
01F42:  MOVWF  00
01F44:  DECFSZ 00,F
01F46:  BRA    1F44
01F48:  BSF    F94.3
01F4A:  MOVLW  06
01F4C:  MOVWF  00
01F4E:  DECFSZ 00,F
01F50:  BRA    1F4E
01F52:  BTFSS  F82.3
01F54:  BRA    1F52
01F56:  BCF    F8B.4
01F58:  BCF    F94.4
01F5A:  MOVLW  05
01F5C:  MOVWF  00
01F5E:  DECFSZ 00,F
01F60:  BRA    1F5E
01F62:  BCF    F8B.3
01F64:  BCF    F94.3
....................    i2c_write(0xa1); 
01F66:  MOVLW  A1
01F68:  MOVLB  4
01F6A:  MOVWF  x2A
01F6C:  MOVLB  0
01F6E:  RCALL  1E18
....................    data=i2c_read(0); 
01F70:  CLRF   00
01F72:  BRA    1E8E
01F74:  MOVFF  01,41B
....................    i2c_stop(); 
01F78:  BCF    F94.4
01F7A:  NOP   
01F7C:  BSF    F94.3
01F7E:  BTFSS  F82.3
01F80:  BRA    1F7E
01F82:  MOVLW  05
01F84:  MOVWF  00
01F86:  DECFSZ 00,F
01F88:  BRA    1F86
01F8A:  BRA    1F8C
01F8C:  NOP   
01F8E:  BSF    F94.4
01F90:  MOVLW  05
01F92:  MOVWF  00
01F94:  DECFSZ 00,F
01F96:  BRA    1F94
....................    return(data); 
01F98:  MOVLB  4
01F9A:  MOVFF  41B,01
.................... } 
01F9E:  MOVLB  0
01FA0:  RETLW  00
....................  
....................  
.................... #define   UP            !input(PIN_B0) 
.................... #define   DOWN          !input(PIN_B1) 
.................... #define   RIGHT         !input(PIN_B2) 
.................... #define   LEFT          !input(PIN_B3) 
....................  
.................... #define   DOOR          !input(PIN_B6) 
.................... #define   STOP          !input(PIN_B7) 
.................... #define   TERM          !input(PIN_B5) 
....................  
.................... #define   LOW           input(PIN_C1) 
.................... #define   HIG           input(PIN_C0) 
....................  
.................... #define   SSR_on           output_bit(PIN_C2,0) 
.................... #define   SSR_off          output_bit(PIN_C2,1) 
....................  
.................... #define   Buzzer_on        output_bit(PIN_D0,1) 
.................... #define   Buzzer_off       output_bit(PIN_D0,0) 
....................  
.................... #define   Desfogue_on      output_bit(PIN_D4,1) 
.................... #define   Desfogue_off     output_bit(PIN_D4,0) 
....................  
.................... #define   Vent_on          output_bit(PIN_D5,1) 
.................... #define   Vent_off         output_bit(PIN_D5,0) 
....................  
.................... #define   Enfr_on          output_bit(PIN_D6,1) 
.................... #define   Enfr_off         output_bit(PIN_D6,0) 
....................  
.................... #define OFF 0 
.................... #define ON  1 
.................... #define RX_BUFFER_SIZE  10 
.................... char Rx_Buffer[RX_BUFFER_SIZE+1]; 
.................... char Rx_Buffer2[RX_BUFFER_SIZE+1]; 
.................... char RX_Wr_Index=0; 
.................... char RX_Rd_Index=0; 
.................... char RX_Counter=0; 
....................  
.................... #define TX_BUFFER_SIZE  24 
.................... char Tx_Buffer[TX_BUFFER_SIZE+1]; 
.................... char TX_Wr_Index=0; 
.................... char TX_Counter=0; 
.................... //int1 RX_Buffer_Overflow=0; 
....................  
.................... //Comunicacion//------------------------ 
.................... int8 SlaveA0Tx[0X20]; 
.................... int8 dato=0;            //Contendr la informacin a enviar o recibir 
.................... int8 direccion=0;       //Contendr la direccin del esclavo en el bus I2C 
.................... int8 posicion=0;        //Contendr la posicin en el buffer de memoria del esclavo donde se almacenar o de donde se recuperar el dato 
....................  
.................... /* Tabla de Modulos, Primera Fila Ao Regular y el siguiente ao Bisiesto 
.................... E   F   M   A   M   J   J   A   S   O   N   D 
.................... 0   3   3   6   1   4   6   2   5   0   3   5 
.................... 0   3   4   0   2   5   0   3   6   1   4   6 
.................... */ 
.................... int8 Regular[12]={0,3,3,6,1,4,6,2,5,0,3,5}; 
.................... int8 Bisiesto[12]={0,3,4,0,2,5,0,3,6,1,4,6}; 
....................  
.................... //Alarmas//--------------------- 
.................... short AlarmaTiempoProlongado=OFF,AlarmaSobreTemperatura=OFF,AlarmaLlenado=OFF,AlarmaTermostato=OFF,AlarmaPuerta=OFF,AlarmaEmergencia=OFF,AlarmaCiclo=OFF; 
....................  
.................... //Banderas//-------------------- 
.................... short IniciaLlenado=OFF,CalderinLleno=OFF,IniciaCiclo=OFF,Esterilizando=OFF,Secando=OFF,SensadoNivel=OFF,Desfogando=OFF,DesfogueSuave=OFF; 
.................... short EstadoDesfogue=OFF,EstadoAgua=OFF,EstadoSSR=OFF,PruebaEstados=OFF,Ciclo=OFF,flagCalentando=OFF,flagEsterilizando=OFF,disp_Guarda=OFF,guardaCiclo=OFF; 
.................... short flagDesfogando=OFF,Op=OFF,Op2=OFF,Minutos=OFF,Segundos=OFF,GuardaEEPROM=OFF,EstadoPaso=OFF,EstadoBuzzer=OFF,flagAlarma=OFF; 
.................... short flagBuzzer=OFF,flagSilencio=OFF,Finalizo=OFF,AlarmaPresion=OFF,Libre=OFF,purga=OFF,entro=OFF; 
....................  
.................... //Tiempos//--------------------- 
.................... int16 TiempoCiclo=0,TiempoLlenado=0,TiempoSensadoNivel=0,Tp=0,Tc=0; 
.................... signed int  Testerilizacion[5]={0,0,0,0,0};   // Tiempo transcurrido 
.................... signed int  Testerilizacionp[5]={0,0,0,0,0};   // Tiempo transcurrido 
.................... signed int  Tsecado[4]={0,0,0,0};   // Tiempo transcurrido 
.................... signed int  Tsecadop[4]={0,0,0,0};   // Tiempo transcurrido 
....................  
.................... //Control//------------------------ 
.................... float promedio[80]={0.0,0.0,0.0,0.0,0.0,0.0,0.0,0.0,0.0,0.0,0.0,0.0,0.0,0.0,0.0,0.0,0.0,0.0,0.0,0.0,0.0,0.0,0.0,0.0,0.0,0.0,0.0,0.0,0.0,0.0,0.0,0.0,0.0,0.0,0.0,0.0,0.0,0.0,0.0,0.0,0.0,0.0,0.0,0.0,0.0,0.0,0.0,0.0,0.0,0.0,0.0,0.0,0.0,0.0,0.0,0.0,0.0,0.0,0.0,0.0,0.0,0.0,0.0,0.0}; 
.................... float PromPresion[20]={0.0,0.0,0.0,0.0,0.0,0.0,0.0,0.0,0.0,0.0,0.0,0.0,0.0,0.0,0.0,0.0,0.0,0.0,0.0,0.0}; 
.................... float PromPresionp[20]={0.0,0.0,0.0,0.0,0.0,0.0,0.0,0.0,0.0,0.0,0.0,0.0,0.0,0.0,0.0,0.0,0.0,0.0,0.0,0.0}; 
.................... float Gain=141.6,RPT100=0.5,Temporal=0.0; 
.................... float R1=100,R10=6800; 
.................... float X[2]={0.0,0.0}; 
.................... float promediopresion=0.0,Aumento=0.0,promediopresionp=0.0; 
.................... int8 h=0,l=0,Ajuste=0,Ajusten=0,MediaMovil=20,TTrampa=0,PantallaPrincipal=0,TipoClave=0,Modulo=0,Digito=0,cicloVisto=0,cicloVisualizado=0,posicionDato=0,j=0,codigoAlarma=0,codigoAnt=0; 
.................... float V0=0.0,Pt,Tciclo=10.0,Tpulso=0.0,error=0.0,Prom=0.0,Temperature=0.0,tmp=0.0,Ganancia=25.0,Ganancia2=20.0,desvio=1.0,tmp2=0.0; 
.................... float V1=0.0,Presion=0.0,V2=0.0,Presionp=0.0; 
.................... float Temperatura=0.0,K=0.0012858; 
.................... float a=0.0011,b=2.3302,c=-244.0723; 
.................... int8 Integral=0,Derivativo=0,CicloLibre=0; 
....................  
.................... //Varios//-------------------------------- 
.................... short desfoguelento=0,Lectura=0,Grafica=0; 
.................... short disp_Stop=0,flagTC=0,flagImprime=0,flagImprimir=0; 
.................... int8 Control=0,tiemporecta=0,Controlando=0,ActivaImpresion=1,timpresion=2,CalculoImpresion=0,Inicio=1,Dato_Exitoso=0,Dato2=0,z=0; 
.................... int8 Menu=0, MenuAnt=0,MenuAntt=240,i=0,CiclosL=0,CiclosH=0,CicloSeleccionado=0; 
.................... int8 Setpoint=0,Opcion=1,Opcion2=1,tiempo_esterilizacion=0,tiempo_secado=0,tiempoImpresion=0; 
.................... int16 tiempos=0,tiempos2=0,tiempos3=0,tiempoctrl=0,Nivel=0,tinicio=0,PresionCamara=0,PresionPreCamara=0,Ciclos=0,NivelSeleccionado=0,tguarda=0; 
.................... signed int  Contrasena[4]={0,0,0,0};      // Contrasena de 4 digitos 
.................... signed int  Password[4]={0,0,0,0};        // Contrasena Almacenada de 4 digitos 
.................... int8 r=0,t=0,r22=0,t2=0,TiempoControl=0; 
.................... int8 y=0,ConteoBuzzer=0; 
.................... int16 t_exhaust=0,tbuzzer=0,tsilencio=0,tiempoAgua=0; 
.................... int8 Year=18,Mes=9,Dia=13,Hora=0,Minuto=0,Segundo=0,dow=0; 
.................... int8 YearTx=0,MesTx=0,DiaTx=0,HoraTx=0,MinutoTx=0,SegundoTx=0,dowTx=0,SetTime=0,Imprime=0; 
.................... signed int8 G1=0,G2=0,sg1=0,sg2=0; 
.................... int8 iconoGrande[9]={25,16,22,24,23,28,20,46,69}; 
.................... int8 iconoPeque[9]={34,36,18,33,32,38,19,17,68}; 
.................... char const texto[9][20]={"LIQUIDOS A","CAUCHO","INSTRUMENTAL","LIQUIDOS B","LIBRE","TEST","HORA Y FECHA","CLAVE","DATOS"}; 
....................  
.................... float TCiclos[7]; 
.................... int16 PcCiclos[7]; 
.................... int16 PpcCiclos[7]; 
.................... int8 horaCiclos[7]; 
.................... int8 minutoCiclos[7]; 
.................... int8 ACiclos[7]; 
.................... int8 diaCiclos=0,mesCiclos=0,yearCiclos=0,usuarioCiclos=0,cicloCiclos=0; 
....................  
.................... typedef struct{ 
....................    int8 Temperatura; 
....................    int8 MinutoestH; 
....................    int8 MinutoestL; 
....................    int8 Segundoest; 
....................    int8 Minutosec; 
....................    int8 Segundosec; 
....................    int8 PulsosVacio; 
....................    int8 NivelVacio; 
....................    int8 NivelDesfogue; 
....................    int8 Minutoest; 
.................... }Personalizado; 
....................  
.................... Personalizado CiclosPersonalizados[4]; 
....................  
.................... #include "Funciones.h" 
.................... void BorraBuffer(void){ 
.................... RX_Buffer[0]=0; 
*
04D00:  CLRF   30
.................... RX_Buffer[1]=0; 
04D02:  CLRF   31
.................... RX_Buffer[2]=0; 
04D04:  CLRF   32
.................... RX_Buffer[3]=0; 
04D06:  CLRF   33
.................... RX_Buffer[4]=0; 
04D08:  CLRF   34
.................... RX_Buffer[5]=0; 
04D0A:  CLRF   35
.................... RX_Buffer[6]=0; 
04D0C:  CLRF   36
.................... RX_Buffer[7]=0; 
04D0E:  CLRF   37
.................... RX_Buffer[8]=0; 
04D10:  CLRF   38
.................... RX_Buffer[9]=0; 
04D12:  CLRF   39
....................  
.................... RX_Buffer2[0]=0; 
04D14:  CLRF   3B
.................... RX_Buffer2[1]=0; 
04D16:  CLRF   3C
.................... RX_Buffer2[2]=0; 
04D18:  CLRF   3D
.................... RX_Buffer2[3]=0; 
04D1A:  CLRF   3E
.................... RX_Buffer2[4]=0; 
04D1C:  CLRF   3F
.................... RX_Buffer2[5]=0; 
04D1E:  CLRF   40
.................... RX_Buffer2[6]=0; 
04D20:  CLRF   41
.................... RX_Buffer2[7]=0; 
04D22:  CLRF   42
.................... RX_Buffer2[8]=0; 
04D24:  CLRF   43
.................... RX_Buffer2[9]=0; 
04D26:  CLRF   44
....................  
.................... } 
04D28:  GOTO   7CC6 (RETURN)
....................  
.................... char bgetc(void){ 
....................    char c; 
....................    while(RX_Counter==0) 
....................       ; 
....................    c=Rx_Buffer2[RX_Rd_Index]; 
....................    if(++RX_Rd_Index>RX_BUFFER_SIZE) 
....................       RX_Rd_Index=0; 
....................    if(RX_Counter) 
....................       RX_Counter--; 
....................    return c; 
.................... } 
....................  
.................... void bputc(char c){ 
....................    char restart=0; 
....................    while(TX_Counter> (TX_BUFFER_SIZE-1)) 
....................       ; 
....................    if(TX_Counter==0) 
....................       restart=1; 
....................    TX_Buffer[TX_Wr_Index++]=c; 
....................    if(TX_Wr_Index>TX_BUFFER_SIZE) 
....................       TX_Wr_Index=0; 
....................     
....................    TX_Counter++; 
....................     
....................    if(restart==1) 
....................       enable_interrupts(int_tbe); 
.................... } 
....................  
.................... void SendDataDisplay(void){ 
.................... delay_us(10); 
*
040AA:  MOVLW  10
040AC:  MOVWF  00
040AE:  DECFSZ 00,F
040B0:  BRA    40AE
040B2:  NOP   
.................... putc(0xFF); 
040B4:  MOVLW  FF
040B6:  RCALL  40A2
.................... delay_us(10); 
040B8:  MOVLW  10
040BA:  MOVWF  00
040BC:  DECFSZ 00,F
040BE:  BRA    40BC
040C0:  NOP   
.................... putc(0xFF); 
040C2:  MOVLW  FF
040C4:  RCALL  40A2
.................... delay_us(10); 
040C6:  MOVLW  10
040C8:  MOVWF  00
040CA:  DECFSZ 00,F
040CC:  BRA    40CA
040CE:  NOP   
.................... putc(0xFF); 
040D0:  MOVLW  FF
040D2:  RCALL  40A2
.................... delay_us(10); 
040D4:  MOVLW  10
040D6:  MOVWF  00
040D8:  DECFSZ 00,F
040DA:  BRA    40D8
040DC:  NOP   
.................... } 
040DE:  RETLW  00
....................  
.................... short esBisiesto(int8 year) { 
....................      return ((year % 4 == 0 && year % 100 != 0) || year % 400 == 0); 
*
051F2:  MOVLB  4
051F4:  MOVF   x14,W
051F6:  ANDLW  03
051F8:  BNZ   520C
051FA:  MOVFF  414,41E
051FE:  MOVLW  64
05200:  MOVWF  x1F
05202:  MOVLB  0
05204:  RCALL  4D5E
05206:  MOVF   00,F
05208:  BNZ   523A
0520A:  MOVLB  4
0520C:  CLRF   x19
0520E:  MOVFF  414,418
05212:  MOVLW  01
05214:  MOVWF  x1B
05216:  MOVLW  90
05218:  MOVWF  x1A
0521A:  MOVLB  0
0521C:  RCALL  51AC
0521E:  MOVFF  00,415
05222:  MOVLB  4
05224:  MOVFF  03,416
05228:  MOVF   x15,F
0522A:  BNZ   5236
0522C:  MOVF   x16,F
0522E:  BTFSS  FD8.2
05230:  BRA    5236
05232:  MOVLB  0
05234:  BRA    523A
05236:  MOVLW  00
05238:  BRA    523E
0523A:  MOVLW  01
0523C:  MOVLB  4
0523E:  MOVWF  01
.................... } 
05240:  MOVLB  0
05242:  RETLW  00
....................  
.................... void LimitaDia(){ 
....................    if(MesTx>12) 
*
05330:  MOVLB  3
05332:  MOVF   x7C,W
05334:  SUBLW  0C
05336:  BC    533C
....................       MesTx=10; 
05338:  MOVLW  0A
0533A:  MOVWF  x7C
....................    if(DiaTx>31) 
0533C:  MOVF   x7D,W
0533E:  SUBLW  1F
05340:  BC    5346
....................       DiaTx=16; 
05342:  MOVLW  10
05344:  MOVWF  x7D
....................    if(YearTx>99) 
05346:  MOVF   x7B,W
05348:  SUBLW  63
0534A:  BC    5350
....................       YearTx=18;    
0534C:  MOVLW  12
0534E:  MOVWF  x7B
....................    if(HoraTx>24) 
05350:  MOVF   x7E,W
05352:  SUBLW  18
05354:  BC    535A
....................       HoraTx=11;       
05356:  MOVLW  0B
05358:  MOVWF  x7E
....................    if(MinutoTx>59) 
0535A:  MOVF   x7F,W
0535C:  SUBLW  3B
0535E:  BC    5364
....................       MinutoTx=30;       
05360:  MOVLW  1E
05362:  MOVWF  x7F
....................     
....................       if(MesTx==2){ 
05364:  MOVF   x7C,W
05366:  SUBLW  02
05368:  BNZ   5394
....................          if(esBisiesto(YearTx)){ 
0536A:  MOVFF  37B,414
0536E:  MOVLB  0
05370:  RCALL  51F2
05372:  MOVF   01,F
05374:  BZ    5386
....................             if(DiaTx>29){ 
05376:  MOVLB  3
05378:  MOVF   x7D,W
0537A:  SUBLW  1D
0537C:  BC    5382
....................                DiaTx=29; 
0537E:  MOVLW  1D
05380:  MOVWF  x7D
....................                //glcd_fillScreen(OFF); 
....................             } 
....................          }else{ 
05382:  BRA    5392
05384:  MOVLB  0
....................             if(DiaTx>28){ 
05386:  MOVLB  3
05388:  MOVF   x7D,W
0538A:  SUBLW  1C
0538C:  BC    5392
....................                DiaTx=28; 
0538E:  MOVLW  1C
05390:  MOVWF  x7D
....................                //glcd_fillScreen(OFF); 
....................             } 
....................          } 
....................       }else{ 
05392:  BRA    53BE
....................          if(MesTx<=7){ 
05394:  MOVF   x7C,W
05396:  SUBLW  07
05398:  BNC   53AC
....................             if(MesTx % 2 ==0){ 
0539A:  MOVF   x7C,W
0539C:  ANDLW  01
0539E:  BNZ   53AA
....................                if(DiaTx>30){ 
053A0:  MOVF   x7D,W
053A2:  SUBLW  1E
053A4:  BC    53AA
....................                   DiaTx=30;  
053A6:  MOVLW  1E
053A8:  MOVWF  x7D
....................                   //glcd_fillScreen(OFF); 
....................                } 
....................             } 
....................          }else{ 
053AA:  BRA    53BE
....................             if(MesTx % 2 ==1){ 
053AC:  MOVF   x7C,W
053AE:  ANDLW  01
053B0:  SUBLW  01
053B2:  BNZ   53BE
....................                if(DiaTx>30){ 
053B4:  MOVF   x7D,W
053B6:  SUBLW  1E
053B8:  BC    53BE
....................                   DiaTx=30;  
053BA:  MOVLW  1E
053BC:  MOVWF  x7D
....................                   //glcd_fillScreen(OFF); 
....................                } 
....................             } 
....................          } 
....................       } 
.................... } 
053BE:  MOVLB  0
053C0:  GOTO   AC26 (RETURN)
....................  
.................... void ActualizaRecta(){ 
....................    X[y]=Temperature; 
*
06B02:  MOVLB  3
06B04:  MOVF   x6A,W
06B06:  MULLW  04
06B08:  MOVF   FF3,W
06B0A:  CLRF   03
06B0C:  ADDLW  B4
06B0E:  MOVWF  FE9
06B10:  MOVLW  02
06B12:  ADDWFC 03,W
06B14:  MOVWF  FEA
06B16:  MOVFF  2F0,FEF
06B1A:  MOVFF  2F1,FEC
06B1E:  MOVFF  2F2,FEC
06B22:  MOVFF  2F3,FEC
....................    y++; 
06B26:  INCF   x6A,F
....................    if(y>=2) 
06B28:  MOVF   x6A,W
06B2A:  SUBLW  01
06B2C:  BC    6B6A
....................    { 
....................       y=0; 
06B2E:  CLRF   x6A
....................       Aumento=X[1]-X[0]; 
06B30:  BSF    FD8.1
06B32:  MOVFF  2BB,42C
06B36:  MOVFF  2BA,42B
06B3A:  MOVFF  2B9,42A
06B3E:  MOVFF  2B8,429
06B42:  MOVFF  2B7,430
06B46:  MOVFF  2B6,42F
06B4A:  MOVFF  2B5,42E
06B4E:  MOVFF  2B4,42D
06B52:  MOVLB  0
06B54:  CALL   1B7E
06B58:  MOVFF  03,2C3
06B5C:  MOVFF  02,2C2
06B60:  MOVFF  01,2C1
06B64:  MOVFF  00,2C0
06B68:  MOVLB  3
....................    } 
.................... } 
06B6A:  MOVLB  0
06B6C:  RETLW  00
....................  
.................... // Funcion para conversor analogo-digital 
.................... float sensores(int x){ 
.................... float y;set_adc_channel(x);delay_ms(1);y=read_adc();return (y); 
*
040F8:  MOVLB  4
040FA:  RLCF   x15,W
040FC:  MOVWF  00
040FE:  RLCF   00,F
04100:  MOVLW  FC
04102:  ANDWF  00,F
04104:  MOVFF  00,01
04108:  MOVF   FC2,W
0410A:  ANDLW  C3
0410C:  IORWF  00,W
0410E:  MOVWF  FC2
04110:  MOVLW  01
04112:  MOVWF  x29
04114:  MOVLB  0
04116:  CALL   19C2
0411A:  BSF    FC2.1
0411C:  BTFSC  FC2.1
0411E:  BRA    411C
04120:  MOVFF  FC4,42A
04124:  MOVFF  FC3,429
04128:  MOVLB  0
0412A:  CALL   19EA
0412E:  MOVFF  03,419
04132:  MOVFF  02,418
04136:  MOVFF  01,417
0413A:  MOVFF  00,416
0413E:  MOVFF  416,00
04142:  MOVFF  417,01
04146:  MOVFF  418,02
0414A:  MOVFF  419,03
.................... } 
0414E:  RETLW  00
.................... float LeerPT100(int media) 
.................... { 
....................    Prom=0.0; 
*
04246:  MOVLB  2
04248:  CLRF   xEF
0424A:  CLRF   xEE
0424C:  CLRF   xED
0424E:  CLRF   xEC
....................    V0 = sensores(0);   //Lectura de Divisor de Voltaje de PT100 con resistencia de 6.18k (+-2%) 
04250:  MOVLB  4
04252:  CLRF   x15
04254:  MOVLB  0
04256:  RCALL  40F8
04258:  MOVFF  03,2DB
0425C:  MOVFF  02,2DA
04260:  MOVFF  01,2D9
04264:  MOVFF  00,2D8
....................    V0 = V0/105.22; // Se elimina la ganancia 
04268:  MOVFF  2DB,420
0426C:  MOVFF  2DA,41F
04270:  MOVFF  2D9,41E
04274:  MOVFF  2D8,41D
04278:  MOVLW  A4
0427A:  MOVLB  4
0427C:  MOVWF  x24
0427E:  MOVLW  70
04280:  MOVWF  x23
04282:  MOVLW  52
04284:  MOVWF  x22
04286:  MOVLW  85
04288:  MOVWF  x21
0428A:  MOVLB  0
0428C:  CALL   1A20
04290:  MOVFF  03,2DB
04294:  MOVFF  02,2DA
04298:  MOVFF  01,2D9
0429C:  MOVFF  00,2D8
....................    //V0 += 14.82; 
....................    V0 += 14.82; //73.2mV VCC:5.049 
042A0:  BCF    FD8.1
042A2:  MOVFF  2DB,42C
042A6:  MOVFF  2DA,42B
042AA:  MOVFF  2D9,42A
042AE:  MOVFF  2D8,429
042B2:  MOVLW  B8
042B4:  MOVLB  4
042B6:  MOVWF  x30
042B8:  MOVLW  1E
042BA:  MOVWF  x2F
042BC:  MOVLW  6D
042BE:  MOVWF  x2E
042C0:  MOVLW  82
042C2:  MOVWF  x2D
042C4:  MOVLB  0
042C6:  CALL   1B7E
042CA:  MOVFF  03,2DB
042CE:  MOVFF  02,2DA
042D2:  MOVFF  01,2D9
042D6:  MOVFF  00,2D8
....................    Pt=R10/((1023/V0)-1); 
042DA:  MOVLB  4
042DC:  CLRF   x20
042DE:  MOVLW  C0
042E0:  MOVWF  x1F
042E2:  MOVLW  7F
042E4:  MOVWF  x1E
042E6:  MOVLW  88
042E8:  MOVWF  x1D
042EA:  MOVFF  2DB,424
042EE:  MOVFF  2DA,423
042F2:  MOVFF  2D9,422
042F6:  MOVFF  2D8,421
042FA:  MOVLB  0
042FC:  CALL   1A20
04300:  MOVFF  00,415
04304:  MOVFF  01,416
04308:  MOVFF  02,417
0430C:  MOVFF  03,418
04310:  BSF    FD8.1
04312:  MOVFF  03,42C
04316:  MOVFF  02,42B
0431A:  MOVFF  01,42A
0431E:  MOVFF  00,429
04322:  MOVLB  4
04324:  CLRF   x30
04326:  CLRF   x2F
04328:  CLRF   x2E
0432A:  MOVLW  7F
0432C:  MOVWF  x2D
0432E:  MOVLB  0
04330:  CALL   1B7E
04334:  MOVFF  2B3,420
04338:  MOVFF  2B2,41F
0433C:  MOVFF  2B1,41E
04340:  MOVFF  2B0,41D
04344:  MOVFF  03,424
04348:  MOVFF  02,423
0434C:  MOVFF  01,422
04350:  MOVFF  00,421
04354:  CALL   1A20
04358:  MOVFF  03,2DF
0435C:  MOVFF  02,2DE
04360:  MOVFF  01,2DD
04364:  MOVFF  00,2DC
....................              
....................    if(l>(media-1)) 
04368:  MOVLW  01
0436A:  MOVLB  4
0436C:  SUBWF  x14,W
0436E:  MOVLB  2
04370:  SUBWF  xC9,W
04372:  BZ    4378
04374:  BNC   4378
....................    {l=0;} 
04376:  CLRF   xC9
....................    //promedio[l]=Temperature;l++; 
....................    promedio[l]=Pt;l++; 
04378:  MOVLB  4
0437A:  CLRF   x19
0437C:  MOVFF  2C9,418
04380:  CLRF   x1B
04382:  MOVLW  04
04384:  MOVWF  x1A
04386:  MOVLB  0
04388:  CALL   1DF6
0438C:  MOVF   01,W
0438E:  ADDLW  C0
04390:  MOVWF  FE9
04392:  MOVLW  00
04394:  ADDWFC 02,W
04396:  MOVWF  FEA
04398:  MOVFF  2DC,FEF
0439C:  MOVFF  2DD,FEC
043A0:  MOVFF  2DE,FEC
043A4:  MOVFF  2DF,FEC
043A8:  MOVLB  2
043AA:  INCF   xC9,F
....................           
....................    for(h=0;h<media;h++) 
043AC:  CLRF   xC8
043AE:  MOVLB  4
043B0:  MOVF   x14,W
043B2:  MOVLB  2
043B4:  SUBWF  xC8,W
043B6:  BC    4438
....................    { 
....................       Prom+=promedio[h]; 
043B8:  MOVLB  4
043BA:  CLRF   x19
043BC:  MOVFF  2C8,418
043C0:  CLRF   x1B
043C2:  MOVLW  04
043C4:  MOVWF  x1A
043C6:  MOVLB  0
043C8:  CALL   1DF6
043CC:  MOVFF  02,03
043D0:  MOVF   01,W
043D2:  ADDLW  C0
043D4:  MOVWF  FE9
043D6:  MOVLW  00
043D8:  ADDWFC 02,W
043DA:  MOVWF  FEA
043DC:  MOVFF  FEF,00
043E0:  MOVFF  FEC,01
043E4:  MOVFF  FEC,02
043E8:  MOVFF  FEC,03
043EC:  MOVFF  FEA,416
043F0:  MOVFF  FE9,415
043F4:  BCF    FD8.1
043F6:  MOVFF  2EF,42C
043FA:  MOVFF  2EE,42B
043FE:  MOVFF  2ED,42A
04402:  MOVFF  2EC,429
04406:  MOVFF  03,430
0440A:  MOVFF  02,42F
0440E:  MOVFF  01,42E
04412:  MOVFF  00,42D
04416:  CALL   1B7E
0441A:  MOVFF  416,FEA
0441E:  MOVFF  415,FE9
04422:  MOVFF  03,2EF
04426:  MOVFF  02,2EE
0442A:  MOVFF  01,2ED
0442E:  MOVFF  00,2EC
....................    }  
04432:  MOVLB  2
04434:  INCF   xC8,F
04436:  BRA    43AE
....................    Prom=Prom/media;    
04438:  MOVLB  4
0443A:  CLRF   x2A
0443C:  MOVFF  414,429
04440:  MOVLB  0
04442:  CALL   19EA
04446:  MOVFF  2EF,420
0444A:  MOVFF  2EE,41F
0444E:  MOVFF  2ED,41E
04452:  MOVFF  2EC,41D
04456:  MOVFF  03,424
0445A:  MOVFF  02,423
0445E:  MOVFF  01,422
04462:  MOVFF  00,421
04466:  CALL   1A20
0446A:  MOVFF  03,2EF
0446E:  MOVFF  02,2EE
04472:  MOVFF  01,2ED
04476:  MOVFF  00,2EC
....................    //Temperature=(Prom-100.0)/(0.385);  // Ecuacin determinada por linealizacin en Matlab. Revisar este polinomio.   
....................    Temperature=((Prom*Prom)*a)+(Prom*b)+c;  // Ecuacin determinada por linealizacin en Matlab. Revisar este polinomio. 
0447A:  MOVFF  2EF,430
0447E:  MOVFF  2EE,42F
04482:  MOVFF  2ED,42E
04486:  MOVFF  2EC,42D
0448A:  MOVFF  2EF,434
0448E:  MOVFF  2EE,433
04492:  MOVFF  2ED,432
04496:  MOVFF  2EC,431
0449A:  RCALL  4150
0449C:  MOVFF  00,415
044A0:  MOVFF  01,416
044A4:  MOVFF  02,417
044A8:  MOVFF  03,418
044AC:  MOVFF  03,430
044B0:  MOVFF  02,42F
044B4:  MOVFF  01,42E
044B8:  MOVFF  00,42D
044BC:  MOVFF  323,434
044C0:  MOVFF  322,433
044C4:  MOVFF  321,432
044C8:  MOVFF  320,431
044CC:  RCALL  4150
044CE:  MOVFF  00,415
044D2:  MOVFF  01,416
044D6:  MOVFF  02,417
044DA:  MOVFF  03,418
044DE:  MOVFF  2EF,430
044E2:  MOVFF  2EE,42F
044E6:  MOVFF  2ED,42E
044EA:  MOVFF  2EC,42D
044EE:  MOVFF  327,434
044F2:  MOVFF  326,433
044F6:  MOVFF  325,432
044FA:  MOVFF  324,431
044FE:  RCALL  4150
04500:  BCF    FD8.1
04502:  MOVFF  418,42C
04506:  MOVFF  417,42B
0450A:  MOVFF  416,42A
0450E:  MOVFF  415,429
04512:  MOVFF  03,430
04516:  MOVFF  02,42F
0451A:  MOVFF  01,42E
0451E:  MOVFF  00,42D
04522:  CALL   1B7E
04526:  MOVFF  00,415
0452A:  MOVFF  01,416
0452E:  MOVFF  02,417
04532:  MOVFF  03,418
04536:  BCF    FD8.1
04538:  MOVFF  03,42C
0453C:  MOVFF  02,42B
04540:  MOVFF  01,42A
04544:  MOVFF  00,429
04548:  MOVFF  32B,430
0454C:  MOVFF  32A,42F
04550:  MOVFF  329,42E
04554:  MOVFF  328,42D
04558:  CALL   1B7E
0455C:  MOVFF  03,2F3
04560:  MOVFF  02,2F2
04564:  MOVFF  01,2F1
04568:  MOVFF  00,2F0
....................    Temperature+=((float)(Ajuste/10.0)-(float)(Ajusten/10.0)); 
0456C:  MOVLB  4
0456E:  CLRF   x2A
04570:  MOVFF  2CA,429
04574:  MOVLB  0
04576:  CALL   19EA
0457A:  MOVFF  03,420
0457E:  MOVFF  02,41F
04582:  MOVFF  01,41E
04586:  MOVFF  00,41D
0458A:  MOVLB  4
0458C:  CLRF   x24
0458E:  CLRF   x23
04590:  MOVLW  20
04592:  MOVWF  x22
04594:  MOVLW  82
04596:  MOVWF  x21
04598:  MOVLB  0
0459A:  CALL   1A20
0459E:  MOVFF  00,415
045A2:  MOVFF  01,416
045A6:  MOVFF  02,417
045AA:  MOVFF  03,418
045AE:  MOVLB  4
045B0:  CLRF   x2A
045B2:  MOVFF  2CB,429
045B6:  MOVLB  0
045B8:  CALL   19EA
045BC:  MOVFF  03,420
045C0:  MOVFF  02,41F
045C4:  MOVFF  01,41E
045C8:  MOVFF  00,41D
045CC:  MOVLB  4
045CE:  CLRF   x24
045D0:  CLRF   x23
045D2:  MOVLW  20
045D4:  MOVWF  x22
045D6:  MOVLW  82
045D8:  MOVWF  x21
045DA:  MOVLB  0
045DC:  CALL   1A20
045E0:  BSF    FD8.1
045E2:  MOVFF  418,42C
045E6:  MOVFF  417,42B
045EA:  MOVFF  416,42A
045EE:  MOVFF  415,429
045F2:  MOVFF  03,430
045F6:  MOVFF  02,42F
045FA:  MOVFF  01,42E
045FE:  MOVFF  00,42D
04602:  CALL   1B7E
04606:  BCF    FD8.1
04608:  MOVFF  2F3,42C
0460C:  MOVFF  2F2,42B
04610:  MOVFF  2F1,42A
04614:  MOVFF  2F0,429
04618:  MOVFF  03,430
0461C:  MOVFF  02,42F
04620:  MOVFF  01,42E
04624:  MOVFF  00,42D
04628:  CALL   1B7E
0462C:  MOVFF  03,2F3
04630:  MOVFF  02,2F2
04634:  MOVFF  01,2F1
04638:  MOVFF  00,2F0
....................    //Temperature-=39.0; 
....................     
....................    //return Prom; 
....................    return Temperature; 
0463C:  MOVFF  2F0,00
04640:  MOVFF  2F1,01
04644:  MOVFF  2F2,02
04648:  MOVFF  2F3,03
.................... } 
0464C:  RETLW  00
....................  
.................... float Leer_Sensor_Presion_Camara(int media){ 
....................    promediopresion=0.0; 
*
049FC:  MOVLB  2
049FE:  CLRF   xBF
04A00:  CLRF   xBE
04A02:  CLRF   xBD
04A04:  CLRF   xBC
....................    V1 = sensores(2);   //Lectura de Divisor de Voltaje de PT100 con resistencia de 1k (+-10%) 
04A06:  MOVLW  02
04A08:  MOVLB  4
04A0A:  MOVWF  x15
04A0C:  MOVLB  0
04A0E:  CALL   40F8
04A12:  MOVFF  03,30B
04A16:  MOVFF  02,30A
04A1A:  MOVFF  01,309
04A1E:  MOVFF  00,308
....................    //V1 = V1*(5.0/1024.0); 
....................    //Presion=(V1-0.2)/(K); 
....................    Presion=(((V1)/1023)-0.04)/K; 
04A22:  MOVFF  30B,420
04A26:  MOVFF  30A,41F
04A2A:  MOVFF  309,41E
04A2E:  MOVFF  308,41D
04A32:  MOVLB  4
04A34:  CLRF   x24
04A36:  MOVLW  C0
04A38:  MOVWF  x23
04A3A:  MOVLW  7F
04A3C:  MOVWF  x22
04A3E:  MOVLW  88
04A40:  MOVWF  x21
04A42:  MOVLB  0
04A44:  CALL   1A20
04A48:  MOVFF  00,415
04A4C:  MOVFF  01,416
04A50:  MOVFF  02,417
04A54:  MOVFF  03,418
04A58:  BSF    FD8.1
04A5A:  MOVFF  03,42C
04A5E:  MOVFF  02,42B
04A62:  MOVFF  01,42A
04A66:  MOVFF  00,429
04A6A:  MOVLW  0A
04A6C:  MOVLB  4
04A6E:  MOVWF  x30
04A70:  MOVLW  D7
04A72:  MOVWF  x2F
04A74:  MOVLW  23
04A76:  MOVWF  x2E
04A78:  MOVLW  7A
04A7A:  MOVWF  x2D
04A7C:  MOVLB  0
04A7E:  CALL   1B7E
04A82:  MOVFF  00,415
04A86:  MOVFF  01,416
04A8A:  MOVFF  02,417
04A8E:  MOVFF  03,418
04A92:  MOVFF  03,420
04A96:  MOVFF  02,41F
04A9A:  MOVFF  01,41E
04A9E:  MOVFF  00,41D
04AA2:  MOVFF  31F,424
04AA6:  MOVFF  31E,423
04AAA:  MOVFF  31D,422
04AAE:  MOVFF  31C,421
04AB2:  CALL   1A20
04AB6:  MOVFF  03,30F
04ABA:  MOVFF  02,30E
04ABE:  MOVFF  01,30D
04AC2:  MOVFF  00,30C
....................     
....................    if(Presion<0.0) 
04AC6:  MOVFF  30F,41B
04ACA:  MOVFF  30E,41A
04ACE:  MOVFF  30D,419
04AD2:  MOVFF  30C,418
04AD6:  MOVLB  4
04AD8:  CLRF   x1F
04ADA:  CLRF   x1E
04ADC:  CLRF   x1D
04ADE:  CLRF   x1C
04AE0:  MOVLB  0
04AE2:  CALL   1FE2
04AE6:  BNC   4AF2
....................    { 
....................       Presion=0.0; 
04AE8:  MOVLB  3
04AEA:  CLRF   x0F
04AEC:  CLRF   x0E
04AEE:  CLRF   x0D
04AF0:  CLRF   x0C
....................    } 
....................     
....................    if(r>media-1) 
04AF2:  MOVLW  01
04AF4:  MOVLB  4
04AF6:  SUBWF  x14,W
04AF8:  MOVLB  3
04AFA:  SUBWF  x65,W
04AFC:  BZ    4B02
04AFE:  BNC   4B02
....................    {r=0;} 
04B00:  CLRF   x65
....................    PromPresion[r]=Presion;r++; 
04B02:  MOVF   x65,W
04B04:  MULLW  04
04B06:  MOVF   FF3,W
04B08:  CLRF   03
04B0A:  MOVWF  FE9
04B0C:  MOVLW  02
04B0E:  ADDWF  03,W
04B10:  MOVWF  FEA
04B12:  MOVFF  30C,FEF
04B16:  MOVFF  30D,FEC
04B1A:  MOVFF  30E,FEC
04B1E:  MOVFF  30F,FEC
04B22:  INCF   x65,F
....................           
....................    for(t=0;t<=(media-1);t++) 
04B24:  CLRF   x66
04B26:  MOVLW  01
04B28:  MOVLB  4
04B2A:  SUBWF  x14,W
04B2C:  MOVLB  3
04B2E:  SUBWF  x66,W
04B30:  BZ    4B34
04B32:  BC    4BA2
....................    { 
....................       promediopresion+=PromPresion[t]; 
04B34:  MOVF   x66,W
04B36:  MULLW  04
04B38:  MOVF   FF3,W
04B3A:  CLRF   03
04B3C:  MOVWF  FE9
04B3E:  MOVLW  02
04B40:  ADDWF  03,W
04B42:  MOVWF  FEA
04B44:  MOVFF  FEF,00
04B48:  MOVFF  FEC,01
04B4C:  MOVFF  FEC,02
04B50:  MOVFF  FEC,03
04B54:  MOVFF  FEA,416
04B58:  MOVFF  FE9,415
04B5C:  BCF    FD8.1
04B5E:  MOVFF  2BF,42C
04B62:  MOVFF  2BE,42B
04B66:  MOVFF  2BD,42A
04B6A:  MOVFF  2BC,429
04B6E:  MOVFF  03,430
04B72:  MOVFF  02,42F
04B76:  MOVFF  01,42E
04B7A:  MOVFF  00,42D
04B7E:  MOVLB  0
04B80:  CALL   1B7E
04B84:  MOVFF  416,FEA
04B88:  MOVFF  415,FE9
04B8C:  MOVFF  03,2BF
04B90:  MOVFF  02,2BE
04B94:  MOVFF  01,2BD
04B98:  MOVFF  00,2BC
....................    }  
04B9C:  MOVLB  3
04B9E:  INCF   x66,F
04BA0:  BRA    4B26
....................    promediopresion=promediopresion/media;    
04BA2:  MOVLB  4
04BA4:  CLRF   x2A
04BA6:  MOVFF  414,429
04BAA:  MOVLB  0
04BAC:  CALL   19EA
04BB0:  MOVFF  2BF,420
04BB4:  MOVFF  2BE,41F
04BB8:  MOVFF  2BD,41E
04BBC:  MOVFF  2BC,41D
04BC0:  MOVFF  03,424
04BC4:  MOVFF  02,423
04BC8:  MOVFF  01,422
04BCC:  MOVFF  00,421
04BD0:  CALL   1A20
04BD4:  MOVFF  03,2BF
04BD8:  MOVFF  02,2BE
04BDC:  MOVFF  01,2BD
04BE0:  MOVFF  00,2BC
....................     
....................    return promediopresion; 
04BE4:  MOVFF  2BC,00
04BE8:  MOVFF  2BD,01
04BEC:  MOVFF  2BE,02
04BF0:  MOVFF  2BF,03
.................... } 
04BF4:  GOTO   7B7C (RETURN)
....................  
.................... float Leer_Sensor_Presion_PreCamara(int media){ 
....................    promediopresionp=0.0; 
....................    V2 = sensores(3);   //Lectura de Divisor de Voltaje de PT100 con resistencia de 1k (+-10%) 
....................    //V2 = V2*(5.0/1024.0); 
....................    //Presionp=(V2-0.2)/(K); 
....................    Presionp=(((V2)/1023)-0.04)/K; 
....................     
....................    if(Presionp<0.0) 
....................    { 
....................       Presionp=0.0; 
....................    } 
....................     
....................    if(r22>media-1) 
....................    {r22=0;} 
....................    PromPresionp[r22]=Presionp;r22++; 
....................           
....................    for(t2=0;t2<=(media-1);t2++) 
....................    { 
....................       promediopresionp+=PromPresionp[t2]; 
....................    }  
....................    promediopresionp=promediopresionp/media;    
....................     
....................    return promediopresionp; 
.................... } 
....................  
.................... void Controla(){ 
....................    if(Setpoint>80){ 
*
06B6E:  MOVLB  3
06B70:  MOVF   x41,W
06B72:  SUBLW  50
06B74:  BC    6BF8
....................       if(tiemporecta>=Derivativo/2.0){ 
06B76:  MOVLB  4
06B78:  CLRF   x2A
06B7A:  MOVFF  32D,429
06B7E:  MOVLB  0
06B80:  CALL   19EA
06B84:  MOVFF  03,420
06B88:  MOVFF  02,41F
06B8C:  MOVFF  01,41E
06B90:  MOVFF  00,41D
06B94:  MOVLB  4
06B96:  CLRF   x24
06B98:  CLRF   x23
06B9A:  CLRF   x22
06B9C:  MOVLW  80
06B9E:  MOVWF  x21
06BA0:  MOVLB  0
06BA2:  CALL   1A20
06BA6:  MOVFF  00,414
06BAA:  MOVFF  01,415
06BAE:  MOVFF  02,416
06BB2:  MOVFF  03,417
06BB6:  MOVLB  4
06BB8:  CLRF   x2A
06BBA:  MOVFF  331,429
06BBE:  MOVLB  0
06BC0:  CALL   19EA
06BC4:  MOVFF  417,41B
06BC8:  MOVFF  416,41A
06BCC:  MOVFF  415,419
06BD0:  MOVFF  414,418
06BD4:  MOVFF  03,41F
06BD8:  MOVFF  02,41E
06BDC:  MOVFF  01,41D
06BE0:  MOVFF  00,41C
06BE4:  CALL   1FE2
06BE8:  BC    6BEC
06BEA:  BNZ   6BF4
....................          ActualizaRecta(); 
06BEC:  RCALL  6B02
....................          tiemporecta=0; 
06BEE:  MOVLB  3
06BF0:  CLRF   x31
06BF2:  MOVLB  0
....................       }  
....................    }else{ 
06BF4:  BRA    6C76
06BF6:  MOVLB  3
....................       if(tiemporecta>=Derivativo/2.0){ 
06BF8:  MOVLB  4
06BFA:  CLRF   x2A
06BFC:  MOVFF  32D,429
06C00:  MOVLB  0
06C02:  CALL   19EA
06C06:  MOVFF  03,420
06C0A:  MOVFF  02,41F
06C0E:  MOVFF  01,41E
06C12:  MOVFF  00,41D
06C16:  MOVLB  4
06C18:  CLRF   x24
06C1A:  CLRF   x23
06C1C:  CLRF   x22
06C1E:  MOVLW  80
06C20:  MOVWF  x21
06C22:  MOVLB  0
06C24:  CALL   1A20
06C28:  MOVFF  00,414
06C2C:  MOVFF  01,415
06C30:  MOVFF  02,416
06C34:  MOVFF  03,417
06C38:  MOVLB  4
06C3A:  CLRF   x2A
06C3C:  MOVFF  331,429
06C40:  MOVLB  0
06C42:  CALL   19EA
06C46:  MOVFF  417,41B
06C4A:  MOVFF  416,41A
06C4E:  MOVFF  415,419
06C52:  MOVFF  414,418
06C56:  MOVFF  03,41F
06C5A:  MOVFF  02,41E
06C5E:  MOVFF  01,41D
06C62:  MOVFF  00,41C
06C66:  CALL   1FE2
06C6A:  BC    6C6E
06C6C:  BNZ   6C76
....................          ActualizaRecta(); 
06C6E:  RCALL  6B02
....................          tiemporecta=0; 
06C70:  MOVLB  3
06C72:  CLRF   x31
06C74:  MOVLB  0
....................       }  
....................    } 
.................... //-------------------------------Control de Calentamiento------------------------------------------------------------//          
....................    error=desvio+Setpoint-Temperatura;      // Clculo del error ****** 
06C76:  MOVLB  4
06C78:  CLRF   x2A
06C7A:  MOVFF  341,429
06C7E:  MOVLB  0
06C80:  CALL   19EA
06C84:  BCF    FD8.1
06C86:  MOVFF  303,42C
06C8A:  MOVFF  302,42B
06C8E:  MOVFF  301,42A
06C92:  MOVFF  300,429
06C96:  MOVFF  03,430
06C9A:  MOVFF  02,42F
06C9E:  MOVFF  01,42E
06CA2:  MOVFF  00,42D
06CA6:  CALL   1B7E
06CAA:  MOVFF  00,414
06CAE:  MOVFF  01,415
06CB2:  MOVFF  02,416
06CB6:  MOVFF  03,417
06CBA:  BSF    FD8.1
06CBC:  MOVFF  03,42C
06CC0:  MOVFF  02,42B
06CC4:  MOVFF  01,42A
06CC8:  MOVFF  00,429
06CCC:  MOVFF  31B,430
06CD0:  MOVFF  31A,42F
06CD4:  MOVFF  319,42E
06CD8:  MOVFF  318,42D
06CDC:  CALL   1B7E
06CE0:  MOVFF  03,2EB
06CE4:  MOVFF  02,2EA
06CE8:  MOVFF  01,2E9
06CEC:  MOVFF  00,2E8
....................     
....................    if(error>1.0 && error<15 && Aumento<0.3) 
06CF0:  MOVLB  4
06CF2:  CLRF   x1B
06CF4:  CLRF   x1A
06CF6:  CLRF   x19
06CF8:  MOVLW  7F
06CFA:  MOVWF  x18
06CFC:  MOVFF  2EB,41F
06D00:  MOVFF  2EA,41E
06D04:  MOVFF  2E9,41D
06D08:  MOVFF  2E8,41C
06D0C:  MOVLB  0
06D0E:  CALL   1FE2
06D12:  BTFSS  FD8.0
06D14:  BRA    6F3E
06D16:  MOVFF  2EB,41B
06D1A:  MOVFF  2EA,41A
06D1E:  MOVFF  2E9,419
06D22:  MOVFF  2E8,418
06D26:  MOVLB  4
06D28:  CLRF   x1F
06D2A:  CLRF   x1E
06D2C:  MOVLW  70
06D2E:  MOVWF  x1D
06D30:  MOVLW  82
06D32:  MOVWF  x1C
06D34:  MOVLB  0
06D36:  CALL   1FE2
06D3A:  BTFSS  FD8.0
06D3C:  BRA    6F3E
06D3E:  MOVFF  2C3,41B
06D42:  MOVFF  2C2,41A
06D46:  MOVFF  2C1,419
06D4A:  MOVFF  2C0,418
06D4E:  MOVLW  9A
06D50:  MOVLB  4
06D52:  MOVWF  x1F
06D54:  MOVLW  99
06D56:  MOVWF  x1E
06D58:  MOVLW  19
06D5A:  MOVWF  x1D
06D5C:  MOVLW  7D
06D5E:  MOVWF  x1C
06D60:  MOVLB  0
06D62:  CALL   1FE2
06D66:  BTFSS  FD8.0
06D68:  BRA    6F3E
....................    { 
....................       if(Tpulso<4.0) 
06D6A:  MOVFF  2E7,41B
06D6E:  MOVFF  2E6,41A
06D72:  MOVFF  2E5,419
06D76:  MOVFF  2E4,418
06D7A:  MOVLB  4
06D7C:  CLRF   x1F
06D7E:  CLRF   x1E
06D80:  CLRF   x1D
06D82:  MOVLW  81
06D84:  MOVWF  x1C
06D86:  MOVLB  0
06D88:  CALL   1FE2
06D8C:  BTFSS  FD8.0
06D8E:  BRA    6F3A
....................       { 
....................          flagTC=1; 
06D90:  MOVLB  3
06D92:  BSF    x2F.4
....................          if(TiempoControl>=Derivativo) 
06D94:  MOVF   x2D,W
06D96:  SUBWF  x69,W
06D98:  BTFSS  FD8.0
06D9A:  BRA    6F36
....................          { 
....................             TiempoControl=0; 
06D9C:  CLRF   x69
....................             if(Aumento<-0.5){ 
06D9E:  MOVFF  2C3,41B
06DA2:  MOVFF  2C2,41A
06DA6:  MOVFF  2C1,419
06DAA:  MOVFF  2C0,418
06DAE:  MOVLB  4
06DB0:  CLRF   x1F
06DB2:  CLRF   x1E
06DB4:  MOVLW  80
06DB6:  MOVWF  x1D
06DB8:  MOVLW  7E
06DBA:  MOVWF  x1C
06DBC:  MOVLB  0
06DBE:  CALL   1FE2
06DC2:  BNC   6E34
....................                Ganancia+=Integral+0.2; 
06DC4:  MOVLB  4
06DC6:  CLRF   x2A
06DC8:  MOVFF  32C,429
06DCC:  MOVLB  0
06DCE:  CALL   19EA
06DD2:  BCF    FD8.1
06DD4:  MOVFF  03,42C
06DD8:  MOVFF  02,42B
06DDC:  MOVFF  01,42A
06DE0:  MOVFF  00,429
06DE4:  MOVLW  CD
06DE6:  MOVLB  4
06DE8:  MOVWF  x30
06DEA:  MOVLW  CC
06DEC:  MOVWF  x2F
06DEE:  MOVLW  4C
06DF0:  MOVWF  x2E
06DF2:  MOVLW  7C
06DF4:  MOVWF  x2D
06DF6:  MOVLB  0
06DF8:  CALL   1B7E
06DFC:  BCF    FD8.1
06DFE:  MOVFF  2FB,42C
06E02:  MOVFF  2FA,42B
06E06:  MOVFF  2F9,42A
06E0A:  MOVFF  2F8,429
06E0E:  MOVFF  03,430
06E12:  MOVFF  02,42F
06E16:  MOVFF  01,42E
06E1A:  MOVFF  00,42D
06E1E:  CALL   1B7E
06E22:  MOVFF  03,2FB
06E26:  MOVFF  02,2FA
06E2A:  MOVFF  01,2F9
06E2E:  MOVFF  00,2F8
....................             }else{ 
06E32:  BRA    6F34
....................                if(Aumento<-0.1){ 
06E34:  MOVFF  2C3,41B
06E38:  MOVFF  2C2,41A
06E3C:  MOVFF  2C1,419
06E40:  MOVFF  2C0,418
06E44:  MOVLW  CD
06E46:  MOVLB  4
06E48:  MOVWF  x1F
06E4A:  MOVLW  CC
06E4C:  MOVWF  x1E
06E4E:  MOVWF  x1D
06E50:  MOVLW  7B
06E52:  MOVWF  x1C
06E54:  MOVLB  0
06E56:  CALL   1FE2
06E5A:  BNC   6ECC
....................                   Ganancia+=Integral-0.2; 
06E5C:  MOVLB  4
06E5E:  CLRF   x2A
06E60:  MOVFF  32C,429
06E64:  MOVLB  0
06E66:  CALL   19EA
06E6A:  BSF    FD8.1
06E6C:  MOVFF  03,42C
06E70:  MOVFF  02,42B
06E74:  MOVFF  01,42A
06E78:  MOVFF  00,429
06E7C:  MOVLW  CD
06E7E:  MOVLB  4
06E80:  MOVWF  x30
06E82:  MOVLW  CC
06E84:  MOVWF  x2F
06E86:  MOVLW  4C
06E88:  MOVWF  x2E
06E8A:  MOVLW  7C
06E8C:  MOVWF  x2D
06E8E:  MOVLB  0
06E90:  CALL   1B7E
06E94:  BCF    FD8.1
06E96:  MOVFF  2FB,42C
06E9A:  MOVFF  2FA,42B
06E9E:  MOVFF  2F9,42A
06EA2:  MOVFF  2F8,429
06EA6:  MOVFF  03,430
06EAA:  MOVFF  02,42F
06EAE:  MOVFF  01,42E
06EB2:  MOVFF  00,42D
06EB6:  CALL   1B7E
06EBA:  MOVFF  03,2FB
06EBE:  MOVFF  02,2FA
06EC2:  MOVFF  01,2F9
06EC6:  MOVFF  00,2F8
....................                }else{ 
06ECA:  BRA    6F34
....................                   Ganancia+=Integral-0.5; 
06ECC:  MOVLB  4
06ECE:  CLRF   x2A
06ED0:  MOVFF  32C,429
06ED4:  MOVLB  0
06ED6:  CALL   19EA
06EDA:  BSF    FD8.1
06EDC:  MOVFF  03,42C
06EE0:  MOVFF  02,42B
06EE4:  MOVFF  01,42A
06EE8:  MOVFF  00,429
06EEC:  MOVLB  4
06EEE:  CLRF   x30
06EF0:  CLRF   x2F
06EF2:  CLRF   x2E
06EF4:  MOVLW  7E
06EF6:  MOVWF  x2D
06EF8:  MOVLB  0
06EFA:  CALL   1B7E
06EFE:  BCF    FD8.1
06F00:  MOVFF  2FB,42C
06F04:  MOVFF  2FA,42B
06F08:  MOVFF  2F9,42A
06F0C:  MOVFF  2F8,429
06F10:  MOVFF  03,430
06F14:  MOVFF  02,42F
06F18:  MOVFF  01,42E
06F1C:  MOVFF  00,42D
06F20:  CALL   1B7E
06F24:  MOVFF  03,2FB
06F28:  MOVFF  02,2FA
06F2C:  MOVFF  01,2F9
06F30:  MOVFF  00,2F8
06F34:  MOVLB  3
....................                } 
....................             } 
....................          } 
....................       }else{ 
06F36:  BRA    6F3E
06F38:  MOVLB  0
....................          flagTC=0; 
06F3A:  MOVLB  3
06F3C:  BCF    x2F.4
....................       } 
....................    } 
....................     
....................    if(error<-0.3) 
06F3E:  MOVFF  2EB,41B
06F42:  MOVFF  2EA,41A
06F46:  MOVFF  2E9,419
06F4A:  MOVFF  2E8,418
06F4E:  MOVLW  9A
06F50:  MOVLB  4
06F52:  MOVWF  x1F
06F54:  MOVLW  99
06F56:  MOVWF  x1E
06F58:  MOVWF  x1D
06F5A:  MOVLW  7D
06F5C:  MOVWF  x1C
06F5E:  MOVLB  0
06F60:  CALL   1FE2
06F64:  BNC   6F76
....................    { 
....................       Ganancia=Ganancia2; 
06F66:  MOVFF  2FF,2FB
06F6A:  MOVFF  2FE,2FA
06F6E:  MOVFF  2FD,2F9
06F72:  MOVFF  2FC,2F8
....................    } 
....................     
....................    if(Ganancia<1) 
06F76:  MOVFF  2FB,41B
06F7A:  MOVFF  2FA,41A
06F7E:  MOVFF  2F9,419
06F82:  MOVFF  2F8,418
06F86:  MOVLB  4
06F88:  CLRF   x1F
06F8A:  CLRF   x1E
06F8C:  CLRF   x1D
06F8E:  MOVLW  7F
06F90:  MOVWF  x1C
06F92:  MOVLB  0
06F94:  CALL   1FE2
06F98:  BNC   6FA6
....................    { 
....................       Ganancia=1; 
06F9A:  MOVLB  2
06F9C:  CLRF   xFB
06F9E:  CLRF   xFA
06FA0:  CLRF   xF9
06FA2:  MOVLW  7F
06FA4:  MOVWF  xF8
....................    } 
....................     
....................    if(error<0.0)     // Anti Wind_DOWN     
06FA6:  MOVFF  2EB,41B
06FAA:  MOVFF  2EA,41A
06FAE:  MOVFF  2E9,419
06FB2:  MOVFF  2E8,418
06FB6:  MOVLB  4
06FB8:  CLRF   x1F
06FBA:  CLRF   x1E
06FBC:  CLRF   x1D
06FBE:  CLRF   x1C
06FC0:  MOVLB  0
06FC2:  CALL   1FE2
06FC6:  BNC   6FD4
....................    { 
....................       error=0.0; 
06FC8:  MOVLB  2
06FCA:  CLRF   xEB
06FCC:  CLRF   xEA
06FCE:  CLRF   xE9
06FD0:  CLRF   xE8
06FD2:  MOVLB  0
....................    } 
....................    //tmp=(Setpoint-Prom)*Ganancia;  // Control Proporcional. 
....................    tmp=error*Ganancia;  // Control Proporcional. 
06FD4:  MOVFF  2EB,430
06FD8:  MOVFF  2EA,42F
06FDC:  MOVFF  2E9,42E
06FE0:  MOVFF  2E8,42D
06FE4:  MOVFF  2FB,434
06FE8:  MOVFF  2FA,433
06FEC:  MOVFF  2F9,432
06FF0:  MOVFF  2F8,431
06FF4:  CALL   4150
06FF8:  MOVFF  03,2F7
06FFC:  MOVFF  02,2F6
07000:  MOVFF  01,2F5
07004:  MOVFF  00,2F4
....................           
....................    if(tmp>Setpoint)   // Anti Wind-UP       
07008:  MOVLB  4
0700A:  CLRF   x2A
0700C:  MOVFF  341,429
07010:  MOVLB  0
07012:  CALL   19EA
07016:  MOVFF  03,41B
0701A:  MOVFF  02,41A
0701E:  MOVFF  01,419
07022:  MOVFF  00,418
07026:  MOVFF  2F7,41F
0702A:  MOVFF  2F6,41E
0702E:  MOVFF  2F5,41D
07032:  MOVFF  2F4,41C
07036:  CALL   1FE2
0703A:  BNC   705A
....................    { 
....................       tmp=Setpoint; 
0703C:  MOVLB  4
0703E:  CLRF   x2A
07040:  MOVFF  341,429
07044:  MOVLB  0
07046:  CALL   19EA
0704A:  MOVFF  03,2F7
0704E:  MOVFF  02,2F6
07052:  MOVFF  01,2F5
07056:  MOVFF  00,2F4
....................    } 
....................                 
....................    if(tmp<0.0)     // Anti Wind_DOWN     
0705A:  MOVFF  2F7,41B
0705E:  MOVFF  2F6,41A
07062:  MOVFF  2F5,419
07066:  MOVFF  2F4,418
0706A:  MOVLB  4
0706C:  CLRF   x1F
0706E:  CLRF   x1E
07070:  CLRF   x1D
07072:  CLRF   x1C
07074:  MOVLB  0
07076:  CALL   1FE2
0707A:  BNC   7086
....................    { 
....................       tmp=0.0; 
0707C:  MOVLB  2
0707E:  CLRF   xF7
07080:  CLRF   xF6
07082:  CLRF   xF5
07084:  CLRF   xF4
....................    } 
....................     
....................    // Tpulso(t)= Tciclo*(y(t)-ymin)/(ymax - ymin); calculo de ciclo util para control de resistencia.ymax=140.ymin=0; 
....................    // Tpulso es float, hay que pasar ese ciclo a una salida de un puerto usando el TMR1. 
....................    tmp2=(tmp/Setpoint); 
07086:  MOVLB  4
07088:  CLRF   x2A
0708A:  MOVFF  341,429
0708E:  MOVLB  0
07090:  CALL   19EA
07094:  MOVFF  2F7,420
07098:  MOVFF  2F6,41F
0709C:  MOVFF  2F5,41E
070A0:  MOVFF  2F4,41D
070A4:  MOVFF  03,424
070A8:  MOVFF  02,423
070AC:  MOVFF  01,422
070B0:  MOVFF  00,421
070B4:  CALL   1A20
070B8:  MOVFF  03,307
070BC:  MOVFF  02,306
070C0:  MOVFF  01,305
070C4:  MOVFF  00,304
....................    //if(tmp2>0.8) 
....................    //tmp2=0.8; 
....................    Tpulso=tmp2*Tciclo;   
070C8:  MOVFF  307,430
070CC:  MOVFF  306,42F
070D0:  MOVFF  305,42E
070D4:  MOVFF  304,42D
070D8:  MOVFF  2E3,434
070DC:  MOVFF  2E2,433
070E0:  MOVFF  2E1,432
070E4:  MOVFF  2E0,431
070E8:  CALL   4150
070EC:  MOVFF  03,2E7
070F0:  MOVFF  02,2E6
070F4:  MOVFF  01,2E5
070F8:  MOVFF  00,2E4
....................                                        
....................    Tp=(Tpulso/0.005); 
070FC:  MOVFF  2E7,420
07100:  MOVFF  2E6,41F
07104:  MOVFF  2E5,41E
07108:  MOVFF  2E4,41D
0710C:  MOVLW  0A
0710E:  MOVLB  4
07110:  MOVWF  x24
07112:  MOVLW  D7
07114:  MOVWF  x23
07116:  MOVLW  23
07118:  MOVWF  x22
0711A:  MOVLW  77
0711C:  MOVWF  x21
0711E:  MOVLB  0
07120:  CALL   1A20
07124:  MOVFF  03,42C
07128:  MOVFF  02,42B
0712C:  MOVFF  01,42A
07130:  MOVFF  00,429
07134:  CALL   47DE
07138:  MOVFF  02,AB
0713C:  MOVFF  01,AA
....................    Tc=(Tciclo/0.005); 
07140:  MOVFF  2E3,420
07144:  MOVFF  2E2,41F
07148:  MOVFF  2E1,41E
0714C:  MOVFF  2E0,41D
07150:  MOVLW  0A
07152:  MOVLB  4
07154:  MOVWF  x24
07156:  MOVLW  D7
07158:  MOVWF  x23
0715A:  MOVLW  23
0715C:  MOVWF  x22
0715E:  MOVLW  77
07160:  MOVWF  x21
07162:  MOVLB  0
07164:  CALL   1A20
07168:  MOVFF  03,42C
0716C:  MOVFF  02,42B
07170:  MOVFF  01,42A
07174:  MOVFF  00,429
07178:  CALL   47DE
0717C:  MOVFF  02,AD
07180:  MOVFF  01,AC
....................    Controlando=1;    
07184:  MOVLW  01
07186:  MOVLB  3
07188:  MOVWF  x32
.................... //--------------------------------------------------------------------------------------------------------------------//    
.................... } 
0718A:  MOVLB  0
0718C:  RETLW  00
....................  
.................... void Envio_I2C(direccion, posicion, dato){ 
....................  
....................    i2c_start();            // Comienzo comunicacin 
....................    i2c_write(direccion);   // Direccin del esclavo en el bus I2C 
....................    i2c_write(posicion);    // Posicin donde se guardara el dato transmitido 
....................    i2c_write(dato);        // Dato a transmitir 
....................    i2c_stop();             // Fin comunicacin 
....................  } 
....................  
.................... void Lectura_I2C (byte direccion, byte posicion, byte &dato) { 
....................  
....................    i2c_start();            // Comienzo de la comunicacin 
....................    i2c_write(direccion);   // Direccin del esclavo en el bus I2C 
....................    i2c_write(posicion);    // Posicin de donde se leer el dato en el esclavo 
....................    i2c_start();            // Reinicio 
....................    i2c_write(direccion+1); // Direccin del esclavo en modo lectura 
....................    dato=i2c_read(0);       // Lectura del dato 
....................    i2c_stop();             // Fin comunicacin 
.................... } 
....................  
.................... void Carga_Vector(void){ 
....................    SlaveA0Tx[0]=(int8)Temperatura; 
*
0481A:  MOVFF  31B,42C
0481E:  MOVFF  31A,42B
04822:  MOVFF  319,42A
04826:  MOVFF  318,429
0482A:  RCALL  47DE
0482C:  MOVFF  01,64
....................    SlaveA0Tx[1]=(Temperatura-((int8)Temperatura))*10; 
04830:  MOVFF  31B,42C
04834:  MOVFF  31A,42B
04838:  MOVFF  319,42A
0483C:  MOVFF  318,429
04840:  RCALL  47DE
04842:  MOVLB  4
04844:  CLRF   x2A
04846:  MOVFF  01,429
0484A:  MOVLB  0
0484C:  CALL   19EA
04850:  BSF    FD8.1
04852:  MOVFF  31B,42C
04856:  MOVFF  31A,42B
0485A:  MOVFF  319,42A
0485E:  MOVFF  318,429
04862:  MOVFF  03,430
04866:  MOVFF  02,42F
0486A:  MOVFF  01,42E
0486E:  MOVFF  00,42D
04872:  CALL   1B7E
04876:  MOVFF  00,429
0487A:  MOVFF  01,42A
0487E:  MOVFF  02,42B
04882:  MOVFF  03,42C
04886:  MOVFF  03,430
0488A:  MOVFF  02,42F
0488E:  MOVFF  01,42E
04892:  MOVFF  00,42D
04896:  MOVLB  4
04898:  CLRF   x34
0489A:  CLRF   x33
0489C:  MOVLW  20
0489E:  MOVWF  x32
048A0:  MOVLW  82
048A2:  MOVWF  x31
048A4:  MOVLB  0
048A6:  RCALL  4150
048A8:  MOVFF  03,42C
048AC:  MOVFF  02,42B
048B0:  MOVFF  01,42A
048B4:  MOVFF  00,429
048B8:  RCALL  47DE
048BA:  MOVFF  01,65
....................    SlaveA0Tx[2]=make8(PresionCamara,0); 
048BE:  MOVFF  353,66
048C2:  MOVLB  0
....................    SlaveA0Tx[3]=make8(PresionCamara,1); 
048C4:  MOVFF  354,67
048C8:  MOVLB  0
....................    SlaveA0Tx[4]=make8(PresionPreCamara,0); 
048CA:  MOVFF  355,68
048CE:  MOVLB  0
....................    SlaveA0Tx[5]=make8(PresionPreCamara,1); 
048D0:  MOVFF  356,69
048D4:  MOVLB  0
....................    SlaveA0Tx[6]=(int8)Tpulso*10; 
048D6:  MOVFF  2E7,42C
048DA:  MOVFF  2E6,42B
048DE:  MOVFF  2E5,42A
048E2:  MOVFF  2E4,429
048E6:  RCALL  47DE
048E8:  MOVF   01,W
048EA:  MULLW  0A
048EC:  MOVFF  FF3,6A
....................    SlaveA0Tx[7]=HIG; 
048F0:  BSF    F94.0
048F2:  CLRF   x6B
048F4:  BTFSC  F82.0
048F6:  INCF   x6B,F
....................    SlaveA0Tx[8]=LOW; 
048F8:  BSF    F94.1
048FA:  CLRF   x6C
048FC:  BTFSC  F82.1
048FE:  INCF   x6C,F
....................    SlaveA0Tx[9]=TERM; 
04900:  BSF    F93.5
04902:  CLRF   x6D
04904:  BTFSS  F81.5
04906:  INCF   x6D,F
....................    SlaveA0Tx[10]=DOOR; 
04908:  BSF    F93.6
0490A:  CLRF   x6E
0490C:  BTFSS  F81.6
0490E:  INCF   x6E,F
....................    SlaveA0Tx[11]=STOP; 
04910:  BSF    F93.7
04912:  CLRF   x6F
04914:  BTFSS  F81.7
04916:  INCF   x6F,F
....................    SlaveA0Tx[12]=(int8)error; 
04918:  MOVFF  2EB,42C
0491C:  MOVFF  2EA,42B
04920:  MOVFF  2E9,42A
04924:  MOVFF  2E8,429
04928:  RCALL  47DE
0492A:  MOVFF  01,70
....................    SlaveA0Tx[13]=CicloSeleccionado; 
0492E:  MOVFF  340,71
....................    SlaveA0Tx[14]=SetTime; 
04932:  MOVFF  382,72
....................    SlaveA0Tx[15]=Dia; 
04936:  MOVFF  376,73
....................    SlaveA0Tx[16]=Mes; 
0493A:  MOVFF  375,74
....................    SlaveA0Tx[17]=Year; 
0493E:  MOVFF  374,75
....................    SlaveA0Tx[18]=Hora; 
04942:  MOVFF  377,76
....................    SlaveA0Tx[19]=Minuto; 
04946:  MOVFF  378,77
....................    SlaveA0Tx[20]=Segundo; 
0494A:  MOVFF  379,78
....................    SlaveA0Tx[21]=Imprime; 
0494E:  MOVFF  383,79
....................    SlaveA0Tx[22]=0; 
04952:  CLRF   x7A
....................    SlaveA0Tx[23]=make8(Ciclos,0); 
04954:  MOVFF  357,7B
04958:  MOVLB  0
....................    SlaveA0Tx[24]=make8(Ciclos,1); 
0495A:  MOVFF  358,7C
0495E:  MOVLB  0
.................... } 
04960:  GOTO   4966 (RETURN)
....................  
.................... void Lee_Vector(void){ 
....................    /*Dia=txbuf[0]; 
....................    Mess=txbuf[1]; 
....................    Year=txbuf[2]; 
....................    Hora=txbuf[3]; 
....................    Minuto=txbuf[4]; 
....................    Segundo=txbuf[5]; 
....................    dow=txbuf[6];*/ 
.................... } 
....................  
.................... void Envio_Esclavos(void){ 
....................    Carga_Vector(); 
04964:  BRA    481A
....................    for(i=0;i<25;i++) 
04966:  MOVLB  3
04968:  CLRF   x3D
0496A:  MOVF   x3D,W
0496C:  SUBLW  18
0496E:  BNC   49F8
....................    { 
....................       direccion=0xB0; 
04970:  MOVLW  B0
04972:  MOVLB  0
04974:  MOVWF  x85
....................       i2c_start();            // Comienzo comunicacin 
04976:  BSF    F94.4
04978:  MOVLW  05
0497A:  MOVWF  00
0497C:  DECFSZ 00,F
0497E:  BRA    497C
04980:  BSF    F94.3
04982:  MOVLW  06
04984:  MOVWF  00
04986:  DECFSZ 00,F
04988:  BRA    4986
0498A:  BCF    F8B.4
0498C:  BCF    F94.4
0498E:  MOVLW  05
04990:  MOVWF  00
04992:  DECFSZ 00,F
04994:  BRA    4992
04996:  BCF    F8B.3
04998:  BCF    F94.3
....................       i2c_write(direccion);   // Direccin del esclavo en el bus I2C 
0499A:  MOVFF  85,42A
0499E:  CALL   1E18
....................       i2c_write(i);   // Direccin del esclavo en el bus I2C 
049A2:  MOVFF  33D,42A
049A6:  CALL   1E18
....................       i2c_write(0);    // Posicin donde se guardara el dato transmitido 
049AA:  MOVLB  4
049AC:  CLRF   x2A
049AE:  MOVLB  0
049B0:  CALL   1E18
....................       i2c_write(SlaveA0Tx[i]); // Dato a transmitir 
049B4:  CLRF   03
049B6:  MOVLB  3
049B8:  MOVF   x3D,W
049BA:  ADDLW  64
049BC:  MOVWF  FE9
049BE:  MOVLW  00
049C0:  ADDWFC 03,W
049C2:  MOVWF  FEA
049C4:  MOVFF  FEF,429
049C8:  MOVFF  429,42A
049CC:  MOVLB  0
049CE:  CALL   1E18
....................       i2c_stop();  
049D2:  BCF    F94.4
049D4:  NOP   
049D6:  BSF    F94.3
049D8:  BTFSS  F82.3
049DA:  BRA    49D8
049DC:  MOVLW  05
049DE:  MOVWF  00
049E0:  DECFSZ 00,F
049E2:  BRA    49E0
049E4:  BRA    49E6
049E6:  NOP   
049E8:  BSF    F94.4
049EA:  MOVLW  05
049EC:  MOVWF  00
049EE:  DECFSZ 00,F
049F0:  BRA    49EE
....................    }  
049F2:  MOVLB  3
049F4:  INCF   x3D,F
049F6:  BRA    496A
.................... } 
049F8:  MOVLB  0
049FA:  RETLW  00
.................... void Lectura_Esclavos(void){ 
....................    //for(i=0;i<7;i++) 
....................    //{ 
....................    //   direccion=0xA0;                        //Direccin en el bus I2c 
....................    //   posicion=i;                         //Posicin de memoria a leer 
....................    //   Lectura_I2C(direccion, posicion, dato);    //Lectura por I2C 
....................    //   txbuf[i]=(int8)dato; 
....................    //} 
....................    //Lee_Vector(); 
.................... } 
....................  
.................... float inttofloat(int8 decimal){ 
....................    float tmp; 
....................    tmp=decimal; 
*
01FA2:  MOVLB  4
01FA4:  CLRF   x2A
01FA6:  MOVFF  418,429
01FAA:  MOVLB  0
01FAC:  RCALL  19EA
01FAE:  MOVFF  03,41C
01FB2:  MOVFF  02,41B
01FB6:  MOVFF  01,41A
01FBA:  MOVFF  00,419
....................    return tmp/10; 
01FBE:  MOVFF  41C,420
01FC2:  MOVFF  41B,41F
01FC6:  MOVFF  41A,41E
01FCA:  MOVFF  419,41D
01FCE:  MOVLB  4
01FD0:  CLRF   x24
01FD2:  CLRF   x23
01FD4:  MOVLW  20
01FD6:  MOVWF  x22
01FD8:  MOVLW  82
01FDA:  MOVWF  x21
01FDC:  MOVLB  0
01FDE:  RCALL  1A20
.................... } 
01FE0:  RETLW  00
....................  
.................... void LeeEEPROM(){ 
.................... //Lectura EEPROM//-------------------------- 
....................    Testerilizacionp[0]=read_eeprom(0); 
*
0205C:  MOVFF  FF2,414
02060:  BCF    FF2.6
02062:  BCF    FF2.7
02064:  CLRF   FAA
02066:  CLRF   FA9
02068:  BCF    FA6.6
0206A:  BCF    FA6.7
0206C:  BSF    FA6.0
0206E:  MOVF   FA8,W
02070:  MOVLB  4
02072:  BTFSC  x14.6
02074:  BSF    FF2.6
02076:  BTFSC  x14.7
02078:  BSF    FF2.7
0207A:  MOVLB  0
0207C:  MOVWF  xB3
....................    delay_ms(10); 
0207E:  MOVLW  0A
02080:  MOVLB  4
02082:  MOVWF  x29
02084:  MOVLB  0
02086:  RCALL  19C2
....................    Testerilizacionp[1]=read_eeprom(1); 
02088:  MOVFF  FF2,414
0208C:  BCF    FF2.6
0208E:  BCF    FF2.7
02090:  CLRF   FAA
02092:  MOVLW  01
02094:  MOVWF  FA9
02096:  BCF    FA6.6
02098:  BCF    FA6.7
0209A:  BSF    FA6.0
0209C:  MOVF   FA8,W
0209E:  MOVLB  4
020A0:  BTFSC  x14.6
020A2:  BSF    FF2.6
020A4:  BTFSC  x14.7
020A6:  BSF    FF2.7
020A8:  MOVLB  0
020AA:  MOVWF  xB4
....................    delay_ms(10); 
020AC:  MOVLW  0A
020AE:  MOVLB  4
020B0:  MOVWF  x29
020B2:  MOVLB  0
020B4:  RCALL  19C2
....................    Testerilizacionp[2]=read_eeprom(2); 
020B6:  MOVFF  FF2,414
020BA:  BCF    FF2.6
020BC:  BCF    FF2.7
020BE:  CLRF   FAA
020C0:  MOVLW  02
020C2:  MOVWF  FA9
020C4:  BCF    FA6.6
020C6:  BCF    FA6.7
020C8:  BSF    FA6.0
020CA:  MOVF   FA8,W
020CC:  MOVLB  4
020CE:  BTFSC  x14.6
020D0:  BSF    FF2.6
020D2:  BTFSC  x14.7
020D4:  BSF    FF2.7
020D6:  MOVLB  0
020D8:  MOVWF  xB5
....................    delay_ms(10); 
020DA:  MOVLW  0A
020DC:  MOVLB  4
020DE:  MOVWF  x29
020E0:  MOVLB  0
020E2:  RCALL  19C2
....................    Testerilizacionp[3]=read_eeprom(3); 
020E4:  MOVFF  FF2,414
020E8:  BCF    FF2.6
020EA:  BCF    FF2.7
020EC:  CLRF   FAA
020EE:  MOVLW  03
020F0:  MOVWF  FA9
020F2:  BCF    FA6.6
020F4:  BCF    FA6.7
020F6:  BSF    FA6.0
020F8:  MOVF   FA8,W
020FA:  MOVLB  4
020FC:  BTFSC  x14.6
020FE:  BSF    FF2.6
02100:  BTFSC  x14.7
02102:  BSF    FF2.7
02104:  MOVLB  0
02106:  MOVWF  xB6
....................    delay_ms(10); 
02108:  MOVLW  0A
0210A:  MOVLB  4
0210C:  MOVWF  x29
0210E:  MOVLB  0
02110:  RCALL  19C2
....................    Tsecadop[0]=read_eeprom(4); 
02112:  MOVFF  FF2,414
02116:  BCF    FF2.6
02118:  BCF    FF2.7
0211A:  CLRF   FAA
0211C:  MOVLW  04
0211E:  MOVWF  FA9
02120:  BCF    FA6.6
02122:  BCF    FA6.7
02124:  BSF    FA6.0
02126:  MOVF   FA8,W
02128:  MOVLB  4
0212A:  BTFSC  x14.6
0212C:  BSF    FF2.6
0212E:  BTFSC  x14.7
02130:  BSF    FF2.7
02132:  MOVLB  0
02134:  MOVWF  xBC
....................    delay_ms(10); 
02136:  MOVLW  0A
02138:  MOVLB  4
0213A:  MOVWF  x29
0213C:  MOVLB  0
0213E:  RCALL  19C2
....................    Tsecadop[1]=read_eeprom(5); 
02140:  MOVFF  FF2,414
02144:  BCF    FF2.6
02146:  BCF    FF2.7
02148:  CLRF   FAA
0214A:  MOVLW  05
0214C:  MOVWF  FA9
0214E:  BCF    FA6.6
02150:  BCF    FA6.7
02152:  BSF    FA6.0
02154:  MOVF   FA8,W
02156:  MOVLB  4
02158:  BTFSC  x14.6
0215A:  BSF    FF2.6
0215C:  BTFSC  x14.7
0215E:  BSF    FF2.7
02160:  MOVLB  0
02162:  MOVWF  xBD
....................    delay_ms(10); 
02164:  MOVLW  0A
02166:  MOVLB  4
02168:  MOVWF  x29
0216A:  MOVLB  0
0216C:  RCALL  19C2
....................    Tsecadop[2]=read_eeprom(6); 
0216E:  MOVFF  FF2,414
02172:  BCF    FF2.6
02174:  BCF    FF2.7
02176:  CLRF   FAA
02178:  MOVLW  06
0217A:  MOVWF  FA9
0217C:  BCF    FA6.6
0217E:  BCF    FA6.7
02180:  BSF    FA6.0
02182:  MOVF   FA8,W
02184:  MOVLB  4
02186:  BTFSC  x14.6
02188:  BSF    FF2.6
0218A:  BTFSC  x14.7
0218C:  BSF    FF2.7
0218E:  MOVLB  0
02190:  MOVWF  xBE
....................    delay_ms(10); 
02192:  MOVLW  0A
02194:  MOVLB  4
02196:  MOVWF  x29
02198:  MOVLB  0
0219A:  RCALL  19C2
....................    Tsecadop[3]=read_eeprom(7); 
0219C:  MOVFF  FF2,414
021A0:  BCF    FF2.6
021A2:  BCF    FF2.7
021A4:  CLRF   FAA
021A6:  MOVLW  07
021A8:  MOVWF  FA9
021AA:  BCF    FA6.6
021AC:  BCF    FA6.7
021AE:  BSF    FA6.0
021B0:  MOVF   FA8,W
021B2:  MOVLB  4
021B4:  BTFSC  x14.6
021B6:  BSF    FF2.6
021B8:  BTFSC  x14.7
021BA:  BSF    FF2.7
021BC:  MOVLB  0
021BE:  MOVWF  xBF
....................    delay_ms(10); 
021C0:  MOVLW  0A
021C2:  MOVLB  4
021C4:  MOVWF  x29
021C6:  MOVLB  0
021C8:  CALL   19C2
....................    Setpoint=read_eeprom(8); 
021CC:  MOVFF  FF2,414
021D0:  BCF    FF2.6
021D2:  BCF    FF2.7
021D4:  CLRF   FAA
021D6:  MOVLW  08
021D8:  MOVWF  FA9
021DA:  BCF    FA6.6
021DC:  BCF    FA6.7
021DE:  BSF    FA6.0
021E0:  MOVF   FA8,W
021E2:  MOVLB  4
021E4:  BTFSC  x14.6
021E6:  BSF    FF2.6
021E8:  BTFSC  x14.7
021EA:  BSF    FF2.7
021EC:  MOVLB  3
021EE:  MOVWF  x41
....................    delay_ms(10); 
021F0:  MOVLW  0A
021F2:  MOVLB  4
021F4:  MOVWF  x29
021F6:  MOVLB  0
021F8:  CALL   19C2
....................    Nivel=read_eeprom(9); 
021FC:  MOVFF  FF2,414
02200:  BCF    FF2.6
02202:  BCF    FF2.7
02204:  CLRF   FAA
02206:  MOVLW  09
02208:  MOVWF  FA9
0220A:  BCF    FA6.6
0220C:  BCF    FA6.7
0220E:  BSF    FA6.0
02210:  MOVF   FA8,W
02212:  MOVLB  4
02214:  BTFSC  x14.6
02216:  BSF    FF2.6
02218:  BTFSC  x14.7
0221A:  BSF    FF2.7
0221C:  MOVLB  3
0221E:  CLRF   x50
02220:  MOVWF  x4F
....................    delay_ms(10); 
02222:  MOVLW  0A
02224:  MOVLB  4
02226:  MOVWF  x29
02228:  MOVLB  0
0222A:  CALL   19C2
....................    Password[0]=read_eeprom(10); 
0222E:  MOVFF  FF2,414
02232:  BCF    FF2.6
02234:  BCF    FF2.7
02236:  CLRF   FAA
02238:  MOVLW  0A
0223A:  MOVWF  FA9
0223C:  BCF    FA6.6
0223E:  BCF    FA6.7
02240:  BSF    FA6.0
02242:  MOVF   FA8,W
02244:  MOVLB  4
02246:  BTFSC  x14.6
02248:  BSF    FF2.6
0224A:  BTFSC  x14.7
0224C:  BSF    FF2.7
0224E:  MOVLB  3
02250:  MOVWF  x61
....................    delay_ms(10); 
02252:  MOVLW  0A
02254:  MOVLB  4
02256:  MOVWF  x29
02258:  MOVLB  0
0225A:  CALL   19C2
....................    Password[1]=read_eeprom(11); 
0225E:  MOVFF  FF2,414
02262:  BCF    FF2.6
02264:  BCF    FF2.7
02266:  CLRF   FAA
02268:  MOVLW  0B
0226A:  MOVWF  FA9
0226C:  BCF    FA6.6
0226E:  BCF    FA6.7
02270:  BSF    FA6.0
02272:  MOVF   FA8,W
02274:  MOVLB  4
02276:  BTFSC  x14.6
02278:  BSF    FF2.6
0227A:  BTFSC  x14.7
0227C:  BSF    FF2.7
0227E:  MOVLB  3
02280:  MOVWF  x62
....................    delay_ms(10); 
02282:  MOVLW  0A
02284:  MOVLB  4
02286:  MOVWF  x29
02288:  MOVLB  0
0228A:  CALL   19C2
....................    Password[2]=read_eeprom(12); 
0228E:  MOVFF  FF2,414
02292:  BCF    FF2.6
02294:  BCF    FF2.7
02296:  CLRF   FAA
02298:  MOVLW  0C
0229A:  MOVWF  FA9
0229C:  BCF    FA6.6
0229E:  BCF    FA6.7
022A0:  BSF    FA6.0
022A2:  MOVF   FA8,W
022A4:  MOVLB  4
022A6:  BTFSC  x14.6
022A8:  BSF    FF2.6
022AA:  BTFSC  x14.7
022AC:  BSF    FF2.7
022AE:  MOVLB  3
022B0:  MOVWF  x63
....................    delay_ms(10); 
022B2:  MOVLW  0A
022B4:  MOVLB  4
022B6:  MOVWF  x29
022B8:  MOVLB  0
022BA:  CALL   19C2
....................    Password[3]=read_eeprom(13); 
022BE:  MOVFF  FF2,414
022C2:  BCF    FF2.6
022C4:  BCF    FF2.7
022C6:  CLRF   FAA
022C8:  MOVLW  0D
022CA:  MOVWF  FA9
022CC:  BCF    FA6.6
022CE:  BCF    FA6.7
022D0:  BSF    FA6.0
022D2:  MOVF   FA8,W
022D4:  MOVLB  4
022D6:  BTFSC  x14.6
022D8:  BSF    FF2.6
022DA:  BTFSC  x14.7
022DC:  BSF    FF2.7
022DE:  MOVLB  3
022E0:  MOVWF  x64
....................    delay_ms(10); 
022E2:  MOVLW  0A
022E4:  MOVLB  4
022E6:  MOVWF  x29
022E8:  MOVLB  0
022EA:  CALL   19C2
....................    Ganancia=read_eeprom(20); 
022EE:  MOVFF  FF2,414
022F2:  BCF    FF2.6
022F4:  BCF    FF2.7
022F6:  CLRF   FAA
022F8:  MOVLW  14
022FA:  MOVWF  FA9
022FC:  BCF    FA6.6
022FE:  BCF    FA6.7
02300:  BSF    FA6.0
02302:  MOVF   FA8,W
02304:  MOVLB  4
02306:  BTFSC  x14.6
02308:  BSF    FF2.6
0230A:  BTFSC  x14.7
0230C:  BSF    FF2.7
0230E:  CLRF   x2A
02310:  MOVWF  x29
02312:  MOVLB  0
02314:  CALL   19EA
02318:  MOVFF  03,2FB
0231C:  MOVFF  02,2FA
02320:  MOVFF  01,2F9
02324:  MOVFF  00,2F8
....................    delay_ms(10); 
02328:  MOVLW  0A
0232A:  MOVLB  4
0232C:  MOVWF  x29
0232E:  MOVLB  0
02330:  CALL   19C2
....................    Ajuste=read_eeprom(21); 
02334:  MOVFF  FF2,414
02338:  BCF    FF2.6
0233A:  BCF    FF2.7
0233C:  CLRF   FAA
0233E:  MOVLW  15
02340:  MOVWF  FA9
02342:  BCF    FA6.6
02344:  BCF    FA6.7
02346:  BSF    FA6.0
02348:  MOVF   FA8,W
0234A:  MOVLB  4
0234C:  BTFSC  x14.6
0234E:  BSF    FF2.6
02350:  BTFSC  x14.7
02352:  BSF    FF2.7
02354:  MOVLB  2
02356:  MOVWF  xCA
....................    delay_ms(10); 
02358:  MOVLW  0A
0235A:  MOVLB  4
0235C:  MOVWF  x29
0235E:  MOVLB  0
02360:  CALL   19C2
....................    Ajusten=read_eeprom(22); 
02364:  MOVFF  FF2,414
02368:  BCF    FF2.6
0236A:  BCF    FF2.7
0236C:  CLRF   FAA
0236E:  MOVLW  16
02370:  MOVWF  FA9
02372:  BCF    FA6.6
02374:  BCF    FA6.7
02376:  BSF    FA6.0
02378:  MOVF   FA8,W
0237A:  MOVLB  4
0237C:  BTFSC  x14.6
0237E:  BSF    FF2.6
02380:  BTFSC  x14.7
02382:  BSF    FF2.7
02384:  MOVLB  2
02386:  MOVWF  xCB
....................    delay_ms(10); 
02388:  MOVLW  0A
0238A:  MOVLB  4
0238C:  MOVWF  x29
0238E:  MOVLB  0
02390:  CALL   19C2
....................    //Desvio=read_eeprom(23); 
....................    MediaMovil=read_eeprom(24); 
02394:  MOVFF  FF2,414
02398:  BCF    FF2.6
0239A:  BCF    FF2.7
0239C:  CLRF   FAA
0239E:  MOVLW  18
023A0:  MOVWF  FA9
023A2:  BCF    FA6.6
023A4:  BCF    FA6.7
023A6:  BSF    FA6.0
023A8:  MOVF   FA8,W
023AA:  MOVLB  4
023AC:  BTFSC  x14.6
023AE:  BSF    FF2.6
023B0:  BTFSC  x14.7
023B2:  BSF    FF2.7
023B4:  MOVLB  2
023B6:  MOVWF  xCC
....................    delay_ms(10); 
023B8:  MOVLW  0A
023BA:  MOVLB  4
023BC:  MOVWF  x29
023BE:  MOVLB  0
023C0:  CALL   19C2
....................    Tciclo=read_eeprom(25); 
023C4:  MOVFF  FF2,414
023C8:  BCF    FF2.6
023CA:  BCF    FF2.7
023CC:  CLRF   FAA
023CE:  MOVLW  19
023D0:  MOVWF  FA9
023D2:  BCF    FA6.6
023D4:  BCF    FA6.7
023D6:  BSF    FA6.0
023D8:  MOVF   FA8,W
023DA:  MOVLB  4
023DC:  BTFSC  x14.6
023DE:  BSF    FF2.6
023E0:  BTFSC  x14.7
023E2:  BSF    FF2.7
023E4:  CLRF   x2A
023E6:  MOVWF  x29
023E8:  MOVLB  0
023EA:  CALL   19EA
023EE:  MOVFF  03,2E3
023F2:  MOVFF  02,2E2
023F6:  MOVFF  01,2E1
023FA:  MOVFF  00,2E0
....................    delay_ms(10); 
023FE:  MOVLW  0A
02400:  MOVLB  4
02402:  MOVWF  x29
02404:  MOVLB  0
02406:  CALL   19C2
....................    Integral=read_eeprom(26); 
0240A:  MOVFF  FF2,414
0240E:  BCF    FF2.6
02410:  BCF    FF2.7
02412:  CLRF   FAA
02414:  MOVLW  1A
02416:  MOVWF  FA9
02418:  BCF    FA6.6
0241A:  BCF    FA6.7
0241C:  BSF    FA6.0
0241E:  MOVF   FA8,W
02420:  MOVLB  4
02422:  BTFSC  x14.6
02424:  BSF    FF2.6
02426:  BTFSC  x14.7
02428:  BSF    FF2.7
0242A:  MOVLB  3
0242C:  MOVWF  x2C
....................    delay_ms(10); 
0242E:  MOVLW  0A
02430:  MOVLB  4
02432:  MOVWF  x29
02434:  MOVLB  0
02436:  CALL   19C2
....................    Derivativo=read_eeprom(27); 
0243A:  MOVFF  FF2,414
0243E:  BCF    FF2.6
02440:  BCF    FF2.7
02442:  CLRF   FAA
02444:  MOVLW  1B
02446:  MOVWF  FA9
02448:  BCF    FA6.6
0244A:  BCF    FA6.7
0244C:  BSF    FA6.0
0244E:  MOVF   FA8,W
02450:  MOVLB  4
02452:  BTFSC  x14.6
02454:  BSF    FF2.6
02456:  BTFSC  x14.7
02458:  BSF    FF2.7
0245A:  MOVLB  3
0245C:  MOVWF  x2D
....................    delay_ms(10); 
0245E:  MOVLW  0A
02460:  MOVLB  4
02462:  MOVWF  x29
02464:  MOVLB  0
02466:  CALL   19C2
....................    Temporal=read_eeprom(29); 
0246A:  MOVFF  FF2,414
0246E:  BCF    FF2.6
02470:  BCF    FF2.7
02472:  CLRF   FAA
02474:  MOVLW  1D
02476:  MOVWF  FA9
02478:  BCF    FA6.6
0247A:  BCF    FA6.7
0247C:  BSF    FA6.0
0247E:  MOVF   FA8,W
02480:  MOVLB  4
02482:  BTFSC  x14.6
02484:  BSF    FF2.6
02486:  BTFSC  x14.7
02488:  BSF    FF2.7
0248A:  CLRF   x2A
0248C:  MOVWF  x29
0248E:  MOVLB  0
02490:  CALL   19EA
02494:  MOVFF  03,2AB
02498:  MOVFF  02,2AA
0249C:  MOVFF  01,2A9
024A0:  MOVFF  00,2A8
....................    Temporal=Temporal/10.0; 
024A4:  MOVFF  2AB,420
024A8:  MOVFF  2AA,41F
024AC:  MOVFF  2A9,41E
024B0:  MOVFF  2A8,41D
024B4:  MOVLB  4
024B6:  CLRF   x24
024B8:  CLRF   x23
024BA:  MOVLW  20
024BC:  MOVWF  x22
024BE:  MOVLW  82
024C0:  MOVWF  x21
024C2:  MOVLB  0
024C4:  CALL   1A20
024C8:  MOVFF  03,2AB
024CC:  MOVFF  02,2AA
024D0:  MOVFF  01,2A9
024D4:  MOVFF  00,2A8
....................    delay_ms(10); 
024D8:  MOVLW  0A
024DA:  MOVLB  4
024DC:  MOVWF  x29
024DE:  MOVLB  0
024E0:  CALL   19C2
....................    Gain=read_eeprom(28)+Temporal; 
024E4:  MOVFF  FF2,414
024E8:  BCF    FF2.6
024EA:  BCF    FF2.7
024EC:  CLRF   FAA
024EE:  MOVLW  1C
024F0:  MOVWF  FA9
024F2:  BCF    FA6.6
024F4:  BCF    FA6.7
024F6:  BSF    FA6.0
024F8:  MOVF   FA8,W
024FA:  MOVLB  4
024FC:  BTFSC  x14.6
024FE:  BSF    FF2.6
02500:  BTFSC  x14.7
02502:  BSF    FF2.7
02504:  CLRF   x2A
02506:  MOVWF  x29
02508:  MOVLB  0
0250A:  CALL   19EA
0250E:  BCF    FD8.1
02510:  MOVFF  03,42C
02514:  MOVFF  02,42B
02518:  MOVFF  01,42A
0251C:  MOVFF  00,429
02520:  MOVFF  2AB,430
02524:  MOVFF  2AA,42F
02528:  MOVFF  2A9,42E
0252C:  MOVFF  2A8,42D
02530:  CALL   1B7E
02534:  MOVFF  03,2A3
02538:  MOVFF  02,2A2
0253C:  MOVFF  01,2A1
02540:  MOVFF  00,2A0
....................    delay_ms(10); 
02544:  MOVLW  0A
02546:  MOVLB  4
02548:  MOVWF  x29
0254A:  MOVLB  0
0254C:  CALL   19C2
....................    R1=make16(read_eeprom(31),read_eeprom(30)); 
02550:  MOVFF  FF2,414
02554:  BCF    FF2.6
02556:  BCF    FF2.7
02558:  CLRF   FAA
0255A:  MOVLW  1F
0255C:  MOVWF  FA9
0255E:  BCF    FA6.6
02560:  BCF    FA6.7
02562:  BSF    FA6.0
02564:  MOVF   FA8,W
02566:  MOVLB  4
02568:  BTFSC  x14.6
0256A:  BSF    FF2.6
0256C:  BTFSC  x14.7
0256E:  BSF    FF2.7
02570:  MOVWF  x15
02572:  MOVFF  FF2,416
02576:  BCF    FF2.6
02578:  BCF    FF2.7
0257A:  CLRF   FAA
0257C:  MOVLW  1E
0257E:  MOVWF  FA9
02580:  BCF    FA6.6
02582:  BCF    FA6.7
02584:  BSF    FA6.0
02586:  MOVF   FA8,W
02588:  BTFSC  x16.6
0258A:  BSF    FF2.6
0258C:  BTFSC  x16.7
0258E:  BSF    FF2.7
02590:  MOVWF  x17
02592:  MOVFF  415,03
02596:  MOVF   x17,W
02598:  MOVWF  x29
0259A:  MOVFF  03,42A
0259E:  MOVLB  0
025A0:  CALL   19EA
025A4:  MOVFF  03,2AF
025A8:  MOVFF  02,2AE
025AC:  MOVFF  01,2AD
025B0:  MOVFF  00,2AC
....................    delay_ms(10); 
025B4:  MOVLW  0A
025B6:  MOVLB  4
025B8:  MOVWF  x29
025BA:  MOVLB  0
025BC:  CALL   19C2
....................    Temporal=read_eeprom(33); 
025C0:  MOVFF  FF2,414
025C4:  BCF    FF2.6
025C6:  BCF    FF2.7
025C8:  CLRF   FAA
025CA:  MOVLW  21
025CC:  MOVWF  FA9
025CE:  BCF    FA6.6
025D0:  BCF    FA6.7
025D2:  BSF    FA6.0
025D4:  MOVF   FA8,W
025D6:  MOVLB  4
025D8:  BTFSC  x14.6
025DA:  BSF    FF2.6
025DC:  BTFSC  x14.7
025DE:  BSF    FF2.7
025E0:  CLRF   x2A
025E2:  MOVWF  x29
025E4:  MOVLB  0
025E6:  CALL   19EA
025EA:  MOVFF  03,2AB
025EE:  MOVFF  02,2AA
025F2:  MOVFF  01,2A9
025F6:  MOVFF  00,2A8
....................    Temporal=Temporal/10.0; 
025FA:  MOVFF  2AB,420
025FE:  MOVFF  2AA,41F
02602:  MOVFF  2A9,41E
02606:  MOVFF  2A8,41D
0260A:  MOVLB  4
0260C:  CLRF   x24
0260E:  CLRF   x23
02610:  MOVLW  20
02612:  MOVWF  x22
02614:  MOVLW  82
02616:  MOVWF  x21
02618:  MOVLB  0
0261A:  CALL   1A20
0261E:  MOVFF  03,2AB
02622:  MOVFF  02,2AA
02626:  MOVFF  01,2A9
0262A:  MOVFF  00,2A8
....................    delay_ms(10); 
0262E:  MOVLW  0A
02630:  MOVLB  4
02632:  MOVWF  x29
02634:  MOVLB  0
02636:  CALL   19C2
....................    RPT100=read_eeprom(32)+Temporal; 
0263A:  MOVFF  FF2,414
0263E:  BCF    FF2.6
02640:  BCF    FF2.7
02642:  CLRF   FAA
02644:  MOVLW  20
02646:  MOVWF  FA9
02648:  BCF    FA6.6
0264A:  BCF    FA6.7
0264C:  BSF    FA6.0
0264E:  MOVF   FA8,W
02650:  MOVLB  4
02652:  BTFSC  x14.6
02654:  BSF    FF2.6
02656:  BTFSC  x14.7
02658:  BSF    FF2.7
0265A:  CLRF   x2A
0265C:  MOVWF  x29
0265E:  MOVLB  0
02660:  CALL   19EA
02664:  BCF    FD8.1
02666:  MOVFF  03,42C
0266A:  MOVFF  02,42B
0266E:  MOVFF  01,42A
02672:  MOVFF  00,429
02676:  MOVFF  2AB,430
0267A:  MOVFF  2AA,42F
0267E:  MOVFF  2A9,42E
02682:  MOVFF  2A8,42D
02686:  CALL   1B7E
0268A:  MOVFF  03,2A7
0268E:  MOVFF  02,2A6
02692:  MOVFF  01,2A5
02696:  MOVFF  00,2A4
....................    delay_ms(10); 
0269A:  MOVLW  0A
0269C:  MOVLB  4
0269E:  MOVWF  x29
026A0:  MOVLB  0
026A2:  CALL   19C2
....................    CiclosL=read_eeprom(37); 
026A6:  MOVFF  FF2,414
026AA:  BCF    FF2.6
026AC:  BCF    FF2.7
026AE:  CLRF   FAA
026B0:  MOVLW  25
026B2:  MOVWF  FA9
026B4:  BCF    FA6.6
026B6:  BCF    FA6.7
026B8:  BSF    FA6.0
026BA:  MOVF   FA8,W
026BC:  MOVLB  4
026BE:  BTFSC  x14.6
026C0:  BSF    FF2.6
026C2:  BTFSC  x14.7
026C4:  BSF    FF2.7
026C6:  MOVLB  3
026C8:  MOVWF  x3E
....................    delay_ms(10); 
026CA:  MOVLW  0A
026CC:  MOVLB  4
026CE:  MOVWF  x29
026D0:  MOVLB  0
026D2:  CALL   19C2
....................    CiclosH=read_eeprom(38); 
026D6:  MOVFF  FF2,414
026DA:  BCF    FF2.6
026DC:  BCF    FF2.7
026DE:  CLRF   FAA
026E0:  MOVLW  26
026E2:  MOVWF  FA9
026E4:  BCF    FA6.6
026E6:  BCF    FA6.7
026E8:  BSF    FA6.0
026EA:  MOVF   FA8,W
026EC:  MOVLB  4
026EE:  BTFSC  x14.6
026F0:  BSF    FF2.6
026F2:  BTFSC  x14.7
026F4:  BSF    FF2.7
026F6:  MOVLB  3
026F8:  MOVWF  x3F
....................    delay_ms(10); 
026FA:  MOVLW  0A
026FC:  MOVLB  4
026FE:  MOVWF  x29
02700:  MOVLB  0
02702:  CALL   19C2
....................    Ciclos=make16(CiclosH,CiclosL); 
02706:  MOVFF  33F,358
0270A:  MOVFF  33E,357
....................    delay_ms(10); 
0270E:  MOVLW  0A
02710:  MOVLB  4
02712:  MOVWF  x29
02714:  MOVLB  0
02716:  CALL   19C2
....................    TTrampa=read_eeprom(39); 
0271A:  MOVFF  FF2,414
0271E:  BCF    FF2.6
02720:  BCF    FF2.7
02722:  CLRF   FAA
02724:  MOVLW  27
02726:  MOVWF  FA9
02728:  BCF    FA6.6
0272A:  BCF    FA6.7
0272C:  BSF    FA6.0
0272E:  MOVF   FA8,W
02730:  MOVLB  4
02732:  BTFSC  x14.6
02734:  BSF    FF2.6
02736:  BTFSC  x14.7
02738:  BSF    FF2.7
0273A:  MOVLB  2
0273C:  MOVWF  xCD
....................    delay_ms(10); 
0273E:  MOVLW  0A
02740:  MOVLB  4
02742:  MOVWF  x29
02744:  MOVLB  0
02746:  CALL   19C2
....................    ActivaImpresion=read_eeprom(40); 
0274A:  MOVFF  FF2,414
0274E:  BCF    FF2.6
02750:  BCF    FF2.7
02752:  CLRF   FAA
02754:  MOVLW  28
02756:  MOVWF  FA9
02758:  BCF    FA6.6
0275A:  BCF    FA6.7
0275C:  BSF    FA6.0
0275E:  MOVF   FA8,W
02760:  MOVLB  4
02762:  BTFSC  x14.6
02764:  BSF    FF2.6
02766:  BTFSC  x14.7
02768:  BSF    FF2.7
0276A:  MOVLB  3
0276C:  MOVWF  x33
....................    delay_ms(10); 
0276E:  MOVLW  0A
02770:  MOVLB  4
02772:  MOVWF  x29
02774:  MOVLB  0
02776:  CALL   19C2
....................    timpresion=read_eeprom(41); 
0277A:  MOVFF  FF2,414
0277E:  BCF    FF2.6
02780:  BCF    FF2.7
02782:  CLRF   FAA
02784:  MOVLW  29
02786:  MOVWF  FA9
02788:  BCF    FA6.6
0278A:  BCF    FA6.7
0278C:  BSF    FA6.0
0278E:  MOVF   FA8,W
02790:  MOVLB  4
02792:  BTFSC  x14.6
02794:  BSF    FF2.6
02796:  BTFSC  x14.7
02798:  BSF    FF2.7
0279A:  MOVLB  3
0279C:  MOVWF  x34
....................    delay_ms(10); 
0279E:  MOVLW  0A
027A0:  MOVLB  4
027A2:  MOVWF  x29
027A4:  MOVLB  0
027A6:  CALL   19C2
....................    G1=read_eeprom(42); 
027AA:  MOVFF  FF2,414
027AE:  BCF    FF2.6
027B0:  BCF    FF2.7
027B2:  CLRF   FAA
027B4:  MOVLW  2A
027B6:  MOVWF  FA9
027B8:  BCF    FA6.6
027BA:  BCF    FA6.7
027BC:  BSF    FA6.0
027BE:  MOVF   FA8,W
027C0:  MOVLB  4
027C2:  BTFSC  x14.6
027C4:  BSF    FF2.6
027C6:  BTFSC  x14.7
027C8:  BSF    FF2.7
027CA:  MOVLB  3
027CC:  MOVWF  x84
....................    delay_ms(10); 
027CE:  MOVLW  0A
027D0:  MOVLB  4
027D2:  MOVWF  x29
027D4:  MOVLB  0
027D6:  CALL   19C2
....................    G2=read_eeprom(43); 
027DA:  MOVFF  FF2,414
027DE:  BCF    FF2.6
027E0:  BCF    FF2.7
027E2:  CLRF   FAA
027E4:  MOVLW  2B
027E6:  MOVWF  FA9
027E8:  BCF    FA6.6
027EA:  BCF    FA6.7
027EC:  BSF    FA6.0
027EE:  MOVF   FA8,W
027F0:  MOVLB  4
027F2:  BTFSC  x14.6
027F4:  BSF    FF2.6
027F6:  BTFSC  x14.7
027F8:  BSF    FF2.7
027FA:  MOVLB  3
027FC:  MOVWF  x85
....................    delay_ms(10); 
027FE:  MOVLW  0A
02800:  MOVLB  4
02802:  MOVWF  x29
02804:  MOVLB  0
02806:  CALL   19C2
....................    sg1=read_eeprom(44); 
0280A:  MOVFF  FF2,414
0280E:  BCF    FF2.6
02810:  BCF    FF2.7
02812:  CLRF   FAA
02814:  MOVLW  2C
02816:  MOVWF  FA9
02818:  BCF    FA6.6
0281A:  BCF    FA6.7
0281C:  BSF    FA6.0
0281E:  MOVF   FA8,W
02820:  MOVLB  4
02822:  BTFSC  x14.6
02824:  BSF    FF2.6
02826:  BTFSC  x14.7
02828:  BSF    FF2.7
0282A:  MOVLB  3
0282C:  MOVWF  x86
....................    delay_ms(10); 
0282E:  MOVLW  0A
02830:  MOVLB  4
02832:  MOVWF  x29
02834:  MOVLB  0
02836:  CALL   19C2
....................    sg2=read_eeprom(45); 
0283A:  MOVFF  FF2,414
0283E:  BCF    FF2.6
02840:  BCF    FF2.7
02842:  CLRF   FAA
02844:  MOVLW  2D
02846:  MOVWF  FA9
02848:  BCF    FA6.6
0284A:  BCF    FA6.7
0284C:  BSF    FA6.0
0284E:  MOVF   FA8,W
02850:  MOVLB  4
02852:  BTFSC  x14.6
02854:  BSF    FF2.6
02856:  BTFSC  x14.7
02858:  BSF    FF2.7
0285A:  MOVLB  3
0285C:  MOVWF  x87
....................     
....................    for(i=0;i<4;i++){//Lee valores almacenados de ciclos personalizados 
0285E:  CLRF   x3D
02860:  MOVF   x3D,W
02862:  SUBLW  03
02864:  BTFSS  FD8.0
02866:  BRA    2E30
....................       CiclosPersonalizados[i].Temperatura=read_eeprom(100+(i*8));  
02868:  MOVF   x3D,W
0286A:  MULLW  0A
0286C:  MOVF   FF3,W
0286E:  MOVLB  4
02870:  CLRF   x15
02872:  MOVWF  x14
02874:  MOVLW  EC
02876:  ADDWF  x14,W
02878:  MOVWF  FE9
0287A:  MOVLW  03
0287C:  ADDWFC x15,W
0287E:  MOVWF  FEA
02880:  MOVLB  3
02882:  MOVF   x3D,W
02884:  MULLW  08
02886:  MOVF   FF3,W
02888:  ADDLW  64
0288A:  MOVLB  4
0288C:  MOVWF  x16
0288E:  MOVFF  FF2,417
02892:  BCF    FF2.6
02894:  BCF    FF2.7
02896:  CLRF   FAA
02898:  MOVFF  416,FA9
0289C:  BCF    FA6.6
0289E:  BCF    FA6.7
028A0:  BSF    FA6.0
028A2:  MOVF   FA8,W
028A4:  BTFSC  x17.6
028A6:  BSF    FF2.6
028A8:  BTFSC  x17.7
028AA:  BSF    FF2.7
028AC:  MOVWF  FEF
....................       CiclosPersonalizados[i].MinutoestH=read_eeprom(101+(i*8));  
028AE:  MOVLB  3
028B0:  MOVF   x3D,W
028B2:  MULLW  0A
028B4:  MOVF   FF3,W
028B6:  MOVLB  4
028B8:  CLRF   x15
028BA:  MOVWF  x14
028BC:  MOVLW  01
028BE:  ADDWF  x14,W
028C0:  MOVWF  01
028C2:  MOVLW  00
028C4:  ADDWFC x15,W
028C6:  MOVWF  03
028C8:  MOVF   01,W
028CA:  ADDLW  EC
028CC:  MOVWF  FE9
028CE:  MOVLW  03
028D0:  ADDWFC 03,W
028D2:  MOVWF  FEA
028D4:  MOVLB  3
028D6:  MOVF   x3D,W
028D8:  MULLW  08
028DA:  MOVF   FF3,W
028DC:  ADDLW  65
028DE:  MOVLB  4
028E0:  MOVWF  x16
028E2:  MOVFF  FF2,417
028E6:  BCF    FF2.6
028E8:  BCF    FF2.7
028EA:  CLRF   FAA
028EC:  MOVFF  416,FA9
028F0:  BCF    FA6.6
028F2:  BCF    FA6.7
028F4:  BSF    FA6.0
028F6:  MOVF   FA8,W
028F8:  BTFSC  x17.6
028FA:  BSF    FF2.6
028FC:  BTFSC  x17.7
028FE:  BSF    FF2.7
02900:  MOVWF  FEF
....................       CiclosPersonalizados[i].Minutoest=read_eeprom(102+(i*8));  
02902:  MOVLB  3
02904:  MOVF   x3D,W
02906:  MULLW  0A
02908:  MOVF   FF3,W
0290A:  MOVLB  4
0290C:  CLRF   x15
0290E:  MOVWF  x14
02910:  MOVLW  09
02912:  ADDWF  x14,W
02914:  MOVWF  01
02916:  MOVLW  00
02918:  ADDWFC x15,W
0291A:  MOVWF  03
0291C:  MOVF   01,W
0291E:  ADDLW  EC
02920:  MOVWF  FE9
02922:  MOVLW  03
02924:  ADDWFC 03,W
02926:  MOVWF  FEA
02928:  MOVLB  3
0292A:  MOVF   x3D,W
0292C:  MULLW  08
0292E:  MOVF   FF3,W
02930:  ADDLW  66
02932:  MOVLB  4
02934:  MOVWF  x16
02936:  MOVFF  FF2,417
0293A:  BCF    FF2.6
0293C:  BCF    FF2.7
0293E:  CLRF   FAA
02940:  MOVFF  416,FA9
02944:  BCF    FA6.6
02946:  BCF    FA6.7
02948:  BSF    FA6.0
0294A:  MOVF   FA8,W
0294C:  BTFSC  x17.6
0294E:  BSF    FF2.6
02950:  BTFSC  x17.7
02952:  BSF    FF2.7
02954:  MOVWF  FEF
....................       CiclosPersonalizados[i].Segundoest=read_eeprom(103+(i*8));  
02956:  MOVLB  3
02958:  MOVF   x3D,W
0295A:  MULLW  0A
0295C:  MOVF   FF3,W
0295E:  MOVLB  4
02960:  CLRF   x15
02962:  MOVWF  x14
02964:  MOVLW  03
02966:  ADDWF  x14,W
02968:  MOVWF  01
0296A:  MOVLW  00
0296C:  ADDWFC x15,W
0296E:  MOVWF  03
02970:  MOVF   01,W
02972:  ADDLW  EC
02974:  MOVWF  FE9
02976:  MOVLW  03
02978:  ADDWFC 03,W
0297A:  MOVWF  FEA
0297C:  MOVLB  3
0297E:  MOVF   x3D,W
02980:  MULLW  08
02982:  MOVF   FF3,W
02984:  ADDLW  67
02986:  MOVLB  4
02988:  MOVWF  x16
0298A:  MOVFF  FF2,417
0298E:  BCF    FF2.6
02990:  BCF    FF2.7
02992:  CLRF   FAA
02994:  MOVFF  416,FA9
02998:  BCF    FA6.6
0299A:  BCF    FA6.7
0299C:  BSF    FA6.0
0299E:  MOVF   FA8,W
029A0:  BTFSC  x17.6
029A2:  BSF    FF2.6
029A4:  BTFSC  x17.7
029A6:  BSF    FF2.7
029A8:  MOVWF  FEF
....................       CiclosPersonalizados[i].Minutosec=read_eeprom(104+(i*8));  
029AA:  MOVLB  3
029AC:  MOVF   x3D,W
029AE:  MULLW  0A
029B0:  MOVF   FF3,W
029B2:  MOVLB  4
029B4:  CLRF   x15
029B6:  MOVWF  x14
029B8:  MOVLW  04
029BA:  ADDWF  x14,W
029BC:  MOVWF  01
029BE:  MOVLW  00
029C0:  ADDWFC x15,W
029C2:  MOVWF  03
029C4:  MOVF   01,W
029C6:  ADDLW  EC
029C8:  MOVWF  FE9
029CA:  MOVLW  03
029CC:  ADDWFC 03,W
029CE:  MOVWF  FEA
029D0:  MOVLB  3
029D2:  MOVF   x3D,W
029D4:  MULLW  08
029D6:  MOVF   FF3,W
029D8:  ADDLW  68
029DA:  MOVLB  4
029DC:  MOVWF  x16
029DE:  MOVFF  FF2,417
029E2:  BCF    FF2.6
029E4:  BCF    FF2.7
029E6:  CLRF   FAA
029E8:  MOVFF  416,FA9
029EC:  BCF    FA6.6
029EE:  BCF    FA6.7
029F0:  BSF    FA6.0
029F2:  MOVF   FA8,W
029F4:  BTFSC  x17.6
029F6:  BSF    FF2.6
029F8:  BTFSC  x17.7
029FA:  BSF    FF2.7
029FC:  MOVWF  FEF
....................       CiclosPersonalizados[i].Segundosec=read_eeprom(105+(i*8));  
029FE:  MOVLB  3
02A00:  MOVF   x3D,W
02A02:  MULLW  0A
02A04:  MOVF   FF3,W
02A06:  MOVLB  4
02A08:  CLRF   x15
02A0A:  MOVWF  x14
02A0C:  MOVLW  05
02A0E:  ADDWF  x14,W
02A10:  MOVWF  01
02A12:  MOVLW  00
02A14:  ADDWFC x15,W
02A16:  MOVWF  03
02A18:  MOVF   01,W
02A1A:  ADDLW  EC
02A1C:  MOVWF  FE9
02A1E:  MOVLW  03
02A20:  ADDWFC 03,W
02A22:  MOVWF  FEA
02A24:  MOVLB  3
02A26:  MOVF   x3D,W
02A28:  MULLW  08
02A2A:  MOVF   FF3,W
02A2C:  ADDLW  69
02A2E:  MOVLB  4
02A30:  MOVWF  x16
02A32:  MOVFF  FF2,417
02A36:  BCF    FF2.6
02A38:  BCF    FF2.7
02A3A:  CLRF   FAA
02A3C:  MOVFF  416,FA9
02A40:  BCF    FA6.6
02A42:  BCF    FA6.7
02A44:  BSF    FA6.0
02A46:  MOVF   FA8,W
02A48:  BTFSC  x17.6
02A4A:  BSF    FF2.6
02A4C:  BTFSC  x17.7
02A4E:  BSF    FF2.7
02A50:  MOVWF  FEF
....................       CiclosPersonalizados[i].PulsosVacio=read_eeprom(106+(i*8));  
02A52:  MOVLB  3
02A54:  MOVF   x3D,W
02A56:  MULLW  0A
02A58:  MOVF   FF3,W
02A5A:  MOVLB  4
02A5C:  CLRF   x15
02A5E:  MOVWF  x14
02A60:  MOVLW  06
02A62:  ADDWF  x14,W
02A64:  MOVWF  01
02A66:  MOVLW  00
02A68:  ADDWFC x15,W
02A6A:  MOVWF  03
02A6C:  MOVF   01,W
02A6E:  ADDLW  EC
02A70:  MOVWF  FE9
02A72:  MOVLW  03
02A74:  ADDWFC 03,W
02A76:  MOVWF  FEA
02A78:  MOVLB  3
02A7A:  MOVF   x3D,W
02A7C:  MULLW  08
02A7E:  MOVF   FF3,W
02A80:  ADDLW  6A
02A82:  MOVLB  4
02A84:  MOVWF  x16
02A86:  MOVFF  FF2,417
02A8A:  BCF    FF2.6
02A8C:  BCF    FF2.7
02A8E:  CLRF   FAA
02A90:  MOVFF  416,FA9
02A94:  BCF    FA6.6
02A96:  BCF    FA6.7
02A98:  BSF    FA6.0
02A9A:  MOVF   FA8,W
02A9C:  BTFSC  x17.6
02A9E:  BSF    FF2.6
02AA0:  BTFSC  x17.7
02AA2:  BSF    FF2.7
02AA4:  MOVWF  FEF
....................       CiclosPersonalizados[i].NivelDesfogue=read_eeprom(107+(i*8));  
02AA6:  MOVLB  3
02AA8:  MOVF   x3D,W
02AAA:  MULLW  0A
02AAC:  MOVF   FF3,W
02AAE:  MOVLB  4
02AB0:  CLRF   x15
02AB2:  MOVWF  x14
02AB4:  MOVLW  08
02AB6:  ADDWF  x14,W
02AB8:  MOVWF  01
02ABA:  MOVLW  00
02ABC:  ADDWFC x15,W
02ABE:  MOVWF  03
02AC0:  MOVF   01,W
02AC2:  ADDLW  EC
02AC4:  MOVWF  FE9
02AC6:  MOVLW  03
02AC8:  ADDWFC 03,W
02ACA:  MOVWF  FEA
02ACC:  MOVLB  3
02ACE:  MOVF   x3D,W
02AD0:  MULLW  08
02AD2:  MOVF   FF3,W
02AD4:  ADDLW  6B
02AD6:  MOVLB  4
02AD8:  MOVWF  x16
02ADA:  MOVFF  FF2,417
02ADE:  BCF    FF2.6
02AE0:  BCF    FF2.7
02AE2:  CLRF   FAA
02AE4:  MOVFF  416,FA9
02AE8:  BCF    FA6.6
02AEA:  BCF    FA6.7
02AEC:  BSF    FA6.0
02AEE:  MOVF   FA8,W
02AF0:  BTFSC  x17.6
02AF2:  BSF    FF2.6
02AF4:  BTFSC  x17.7
02AF6:  BSF    FF2.7
02AF8:  MOVWF  FEF
....................        
....................       if(CiclosPersonalizados[i].Temperatura>134 || CiclosPersonalizados[i].Temperatura<105) 
02AFA:  MOVLB  3
02AFC:  MOVF   x3D,W
02AFE:  MULLW  0A
02B00:  MOVF   FF3,W
02B02:  MOVLB  4
02B04:  CLRF   x15
02B06:  MOVWF  x14
02B08:  MOVLW  EC
02B0A:  ADDWF  x14,W
02B0C:  MOVWF  FE9
02B0E:  MOVLW  03
02B10:  ADDWFC x15,W
02B12:  MOVWF  FEA
02B14:  MOVF   FEF,W
02B16:  SUBLW  86
02B18:  BNC   2B3A
02B1A:  MOVLB  3
02B1C:  MOVF   x3D,W
02B1E:  MULLW  0A
02B20:  MOVF   FF3,W
02B22:  MOVLB  4
02B24:  CLRF   x15
02B26:  MOVWF  x14
02B28:  MOVLW  EC
02B2A:  ADDWF  x14,W
02B2C:  MOVWF  FE9
02B2E:  MOVLW  03
02B30:  ADDWFC x15,W
02B32:  MOVWF  FEA
02B34:  MOVF   FEF,W
02B36:  SUBLW  68
02B38:  BNC   2B58
....................          CiclosPersonalizados[i].Temperatura=121; 
02B3A:  MOVLB  3
02B3C:  MOVF   x3D,W
02B3E:  MULLW  0A
02B40:  MOVF   FF3,W
02B42:  MOVLB  4
02B44:  CLRF   x15
02B46:  MOVWF  x14
02B48:  MOVLW  EC
02B4A:  ADDWF  x14,W
02B4C:  MOVWF  FE9
02B4E:  MOVLW  03
02B50:  ADDWFC x15,W
02B52:  MOVWF  FEA
02B54:  MOVLW  79
02B56:  MOVWF  FEF
....................       if(CiclosPersonalizados[i].Minutoest>59) 
02B58:  MOVLB  3
02B5A:  MOVF   x3D,W
02B5C:  MULLW  0A
02B5E:  MOVF   FF3,W
02B60:  MOVLB  4
02B62:  CLRF   x15
02B64:  MOVWF  x14
02B66:  MOVLW  09
02B68:  ADDWF  x14,W
02B6A:  MOVWF  01
02B6C:  MOVLW  00
02B6E:  ADDWFC x15,W
02B70:  MOVWF  03
02B72:  MOVF   01,W
02B74:  ADDLW  EC
02B76:  MOVWF  FE9
02B78:  MOVLW  03
02B7A:  ADDWFC 03,W
02B7C:  MOVWF  FEA
02B7E:  MOVF   FEF,W
02B80:  SUBLW  3B
02B82:  BC    2BAC
....................          CiclosPersonalizados[i].Minutoest=0; 
02B84:  MOVLB  3
02B86:  MOVF   x3D,W
02B88:  MULLW  0A
02B8A:  MOVF   FF3,W
02B8C:  MOVLB  4
02B8E:  CLRF   x15
02B90:  MOVWF  x14
02B92:  MOVLW  09
02B94:  ADDWF  x14,W
02B96:  MOVWF  01
02B98:  MOVLW  00
02B9A:  ADDWFC x15,W
02B9C:  MOVWF  03
02B9E:  MOVF   01,W
02BA0:  ADDLW  EC
02BA2:  MOVWF  FE9
02BA4:  MOVLW  03
02BA6:  ADDWFC 03,W
02BA8:  MOVWF  FEA
02BAA:  CLRF   FEF
....................       if(CiclosPersonalizados[i].Segundoest>59) 
02BAC:  MOVLB  3
02BAE:  MOVF   x3D,W
02BB0:  MULLW  0A
02BB2:  MOVF   FF3,W
02BB4:  MOVLB  4
02BB6:  CLRF   x15
02BB8:  MOVWF  x14
02BBA:  MOVLW  03
02BBC:  ADDWF  x14,W
02BBE:  MOVWF  01
02BC0:  MOVLW  00
02BC2:  ADDWFC x15,W
02BC4:  MOVWF  03
02BC6:  MOVF   01,W
02BC8:  ADDLW  EC
02BCA:  MOVWF  FE9
02BCC:  MOVLW  03
02BCE:  ADDWFC 03,W
02BD0:  MOVWF  FEA
02BD2:  MOVF   FEF,W
02BD4:  SUBLW  3B
02BD6:  BC    2C00
....................          CiclosPersonalizados[i].Segundoest=0; 
02BD8:  MOVLB  3
02BDA:  MOVF   x3D,W
02BDC:  MULLW  0A
02BDE:  MOVF   FF3,W
02BE0:  MOVLB  4
02BE2:  CLRF   x15
02BE4:  MOVWF  x14
02BE6:  MOVLW  03
02BE8:  ADDWF  x14,W
02BEA:  MOVWF  01
02BEC:  MOVLW  00
02BEE:  ADDWFC x15,W
02BF0:  MOVWF  03
02BF2:  MOVF   01,W
02BF4:  ADDLW  EC
02BF6:  MOVWF  FE9
02BF8:  MOVLW  03
02BFA:  ADDWFC 03,W
02BFC:  MOVWF  FEA
02BFE:  CLRF   FEF
....................       if(CiclosPersonalizados[i].Minutosec>59) 
02C00:  MOVLB  3
02C02:  MOVF   x3D,W
02C04:  MULLW  0A
02C06:  MOVF   FF3,W
02C08:  MOVLB  4
02C0A:  CLRF   x15
02C0C:  MOVWF  x14
02C0E:  MOVLW  04
02C10:  ADDWF  x14,W
02C12:  MOVWF  01
02C14:  MOVLW  00
02C16:  ADDWFC x15,W
02C18:  MOVWF  03
02C1A:  MOVF   01,W
02C1C:  ADDLW  EC
02C1E:  MOVWF  FE9
02C20:  MOVLW  03
02C22:  ADDWFC 03,W
02C24:  MOVWF  FEA
02C26:  MOVF   FEF,W
02C28:  SUBLW  3B
02C2A:  BC    2C54
....................          CiclosPersonalizados[i].Minutosec=0;    
02C2C:  MOVLB  3
02C2E:  MOVF   x3D,W
02C30:  MULLW  0A
02C32:  MOVF   FF3,W
02C34:  MOVLB  4
02C36:  CLRF   x15
02C38:  MOVWF  x14
02C3A:  MOVLW  04
02C3C:  ADDWF  x14,W
02C3E:  MOVWF  01
02C40:  MOVLW  00
02C42:  ADDWFC x15,W
02C44:  MOVWF  03
02C46:  MOVF   01,W
02C48:  ADDLW  EC
02C4A:  MOVWF  FE9
02C4C:  MOVLW  03
02C4E:  ADDWFC 03,W
02C50:  MOVWF  FEA
02C52:  CLRF   FEF
....................       if(CiclosPersonalizados[i].Segundoest>59) 
02C54:  MOVLB  3
02C56:  MOVF   x3D,W
02C58:  MULLW  0A
02C5A:  MOVF   FF3,W
02C5C:  MOVLB  4
02C5E:  CLRF   x15
02C60:  MOVWF  x14
02C62:  MOVLW  03
02C64:  ADDWF  x14,W
02C66:  MOVWF  01
02C68:  MOVLW  00
02C6A:  ADDWFC x15,W
02C6C:  MOVWF  03
02C6E:  MOVF   01,W
02C70:  ADDLW  EC
02C72:  MOVWF  FE9
02C74:  MOVLW  03
02C76:  ADDWFC 03,W
02C78:  MOVWF  FEA
02C7A:  MOVF   FEF,W
02C7C:  SUBLW  3B
02C7E:  BC    2CA8
....................          CiclosPersonalizados[i].Segundoest=0; 
02C80:  MOVLB  3
02C82:  MOVF   x3D,W
02C84:  MULLW  0A
02C86:  MOVF   FF3,W
02C88:  MOVLB  4
02C8A:  CLRF   x15
02C8C:  MOVWF  x14
02C8E:  MOVLW  03
02C90:  ADDWF  x14,W
02C92:  MOVWF  01
02C94:  MOVLW  00
02C96:  ADDWFC x15,W
02C98:  MOVWF  03
02C9A:  MOVF   01,W
02C9C:  ADDLW  EC
02C9E:  MOVWF  FE9
02CA0:  MOVLW  03
02CA2:  ADDWFC 03,W
02CA4:  MOVWF  FEA
02CA6:  CLRF   FEF
....................       if(CiclosPersonalizados[i].Segundosec>59) 
02CA8:  MOVLB  3
02CAA:  MOVF   x3D,W
02CAC:  MULLW  0A
02CAE:  MOVF   FF3,W
02CB0:  MOVLB  4
02CB2:  CLRF   x15
02CB4:  MOVWF  x14
02CB6:  MOVLW  05
02CB8:  ADDWF  x14,W
02CBA:  MOVWF  01
02CBC:  MOVLW  00
02CBE:  ADDWFC x15,W
02CC0:  MOVWF  03
02CC2:  MOVF   01,W
02CC4:  ADDLW  EC
02CC6:  MOVWF  FE9
02CC8:  MOVLW  03
02CCA:  ADDWFC 03,W
02CCC:  MOVWF  FEA
02CCE:  MOVF   FEF,W
02CD0:  SUBLW  3B
02CD2:  BC    2CFC
....................          CiclosPersonalizados[i].Segundosec=0;       
02CD4:  MOVLB  3
02CD6:  MOVF   x3D,W
02CD8:  MULLW  0A
02CDA:  MOVF   FF3,W
02CDC:  MOVLB  4
02CDE:  CLRF   x15
02CE0:  MOVWF  x14
02CE2:  MOVLW  05
02CE4:  ADDWF  x14,W
02CE6:  MOVWF  01
02CE8:  MOVLW  00
02CEA:  ADDWFC x15,W
02CEC:  MOVWF  03
02CEE:  MOVF   01,W
02CF0:  ADDLW  EC
02CF2:  MOVWF  FE9
02CF4:  MOVLW  03
02CF6:  ADDWFC 03,W
02CF8:  MOVWF  FEA
02CFA:  CLRF   FEF
....................       if(CiclosPersonalizados[i].PulsosVacio>15) 
02CFC:  MOVLB  3
02CFE:  MOVF   x3D,W
02D00:  MULLW  0A
02D02:  MOVF   FF3,W
02D04:  MOVLB  4
02D06:  CLRF   x15
02D08:  MOVWF  x14
02D0A:  MOVLW  06
02D0C:  ADDWF  x14,W
02D0E:  MOVWF  01
02D10:  MOVLW  00
02D12:  ADDWFC x15,W
02D14:  MOVWF  03
02D16:  MOVF   01,W
02D18:  ADDLW  EC
02D1A:  MOVWF  FE9
02D1C:  MOVLW  03
02D1E:  ADDWFC 03,W
02D20:  MOVWF  FEA
02D22:  MOVF   FEF,W
02D24:  SUBLW  0F
02D26:  BC    2D52
....................          CiclosPersonalizados[i].PulsosVacio=4; 
02D28:  MOVLB  3
02D2A:  MOVF   x3D,W
02D2C:  MULLW  0A
02D2E:  MOVF   FF3,W
02D30:  MOVLB  4
02D32:  CLRF   x15
02D34:  MOVWF  x14
02D36:  MOVLW  06
02D38:  ADDWF  x14,W
02D3A:  MOVWF  01
02D3C:  MOVLW  00
02D3E:  ADDWFC x15,W
02D40:  MOVWF  03
02D42:  MOVF   01,W
02D44:  ADDLW  EC
02D46:  MOVWF  FE9
02D48:  MOVLW  03
02D4A:  ADDWFC 03,W
02D4C:  MOVWF  FEA
02D4E:  MOVLW  04
02D50:  MOVWF  FEF
....................       if(CiclosPersonalizados[i].NivelVacio>100 || CiclosPersonalizados[i].NivelVacio<10) 
02D52:  MOVLB  3
02D54:  MOVF   x3D,W
02D56:  MULLW  0A
02D58:  MOVF   FF3,W
02D5A:  MOVLB  4
02D5C:  CLRF   x15
02D5E:  MOVWF  x14
02D60:  MOVLW  07
02D62:  ADDWF  x14,W
02D64:  MOVWF  01
02D66:  MOVLW  00
02D68:  ADDWFC x15,W
02D6A:  MOVWF  03
02D6C:  MOVF   01,W
02D6E:  ADDLW  EC
02D70:  MOVWF  FE9
02D72:  MOVLW  03
02D74:  ADDWFC 03,W
02D76:  MOVWF  FEA
02D78:  MOVF   FEF,W
02D7A:  SUBLW  64
02D7C:  BNC   2DAA
02D7E:  MOVLB  3
02D80:  MOVF   x3D,W
02D82:  MULLW  0A
02D84:  MOVF   FF3,W
02D86:  MOVLB  4
02D88:  CLRF   x15
02D8A:  MOVWF  x14
02D8C:  MOVLW  07
02D8E:  ADDWF  x14,W
02D90:  MOVWF  01
02D92:  MOVLW  00
02D94:  ADDWFC x15,W
02D96:  MOVWF  03
02D98:  MOVF   01,W
02D9A:  ADDLW  EC
02D9C:  MOVWF  FE9
02D9E:  MOVLW  03
02DA0:  ADDWFC 03,W
02DA2:  MOVWF  FEA
02DA4:  MOVF   FEF,W
02DA6:  SUBLW  09
02DA8:  BNC   2DD4
....................          CiclosPersonalizados[i].NivelVacio=25;    
02DAA:  MOVLB  3
02DAC:  MOVF   x3D,W
02DAE:  MULLW  0A
02DB0:  MOVF   FF3,W
02DB2:  MOVLB  4
02DB4:  CLRF   x15
02DB6:  MOVWF  x14
02DB8:  MOVLW  07
02DBA:  ADDWF  x14,W
02DBC:  MOVWF  01
02DBE:  MOVLW  00
02DC0:  ADDWFC x15,W
02DC2:  MOVWF  03
02DC4:  MOVF   01,W
02DC6:  ADDLW  EC
02DC8:  MOVWF  FE9
02DCA:  MOVLW  03
02DCC:  ADDWFC 03,W
02DCE:  MOVWF  FEA
02DD0:  MOVLW  19
02DD2:  MOVWF  FEF
....................       if(CiclosPersonalizados[i].NivelDesfogue>6) 
02DD4:  MOVLB  3
02DD6:  MOVF   x3D,W
02DD8:  MULLW  0A
02DDA:  MOVF   FF3,W
02DDC:  MOVLB  4
02DDE:  CLRF   x15
02DE0:  MOVWF  x14
02DE2:  MOVLW  08
02DE4:  ADDWF  x14,W
02DE6:  MOVWF  01
02DE8:  MOVLW  00
02DEA:  ADDWFC x15,W
02DEC:  MOVWF  03
02DEE:  MOVF   01,W
02DF0:  ADDLW  EC
02DF2:  MOVWF  FE9
02DF4:  MOVLW  03
02DF6:  ADDWFC 03,W
02DF8:  MOVWF  FEA
02DFA:  MOVF   FEF,W
02DFC:  SUBLW  06
02DFE:  BC    2E2A
....................          CiclosPersonalizados[i].NivelDesfogue=6; 
02E00:  MOVLB  3
02E02:  MOVF   x3D,W
02E04:  MULLW  0A
02E06:  MOVF   FF3,W
02E08:  MOVLB  4
02E0A:  CLRF   x15
02E0C:  MOVWF  x14
02E0E:  MOVLW  08
02E10:  ADDWF  x14,W
02E12:  MOVWF  01
02E14:  MOVLW  00
02E16:  ADDWFC x15,W
02E18:  MOVWF  03
02E1A:  MOVF   01,W
02E1C:  ADDLW  EC
02E1E:  MOVWF  FE9
02E20:  MOVLW  03
02E22:  ADDWFC 03,W
02E24:  MOVWF  FEA
02E26:  MOVLW  06
02E28:  MOVWF  FEF
....................    } 
02E2A:  MOVLB  3
02E2C:  INCF   x3D,F
02E2E:  BRA    2860
....................    diaCiclos=read_ext_eeprom(2+(cicloVisto*320)); 
02E30:  MOVLB  4
02E32:  CLRF   x19
02E34:  MOVFF  2D2,418
02E38:  MOVLW  01
02E3A:  MOVWF  x1B
02E3C:  MOVLW  40
02E3E:  MOVWF  x1A
02E40:  MOVLB  0
02E42:  CALL   1DF6
02E46:  MOVFF  02,03
02E4A:  MOVF   01,W
02E4C:  ADDLW  02
02E4E:  MOVLB  4
02E50:  MOVWF  x14
02E52:  MOVLW  00
02E54:  ADDWFC 02,W
02E56:  MOVWF  x15
02E58:  MOVWF  x1A
02E5A:  MOVFF  414,419
02E5E:  MOVLB  0
02E60:  CALL   1EFA
02E64:  MOVFF  01,3E7
....................    if(diaCiclos>31) 
02E68:  MOVLB  3
02E6A:  MOVF   xE7,W
02E6C:  SUBLW  1F
02E6E:  BC    2E74
....................       diaCiclos=1; 
02E70:  MOVLW  01
02E72:  MOVWF  xE7
....................    mesCiclos=read_ext_eeprom(3+(cicloVisto*320)); 
02E74:  MOVLB  4
02E76:  CLRF   x19
02E78:  MOVFF  2D2,418
02E7C:  MOVLW  01
02E7E:  MOVWF  x1B
02E80:  MOVLW  40
02E82:  MOVWF  x1A
02E84:  MOVLB  0
02E86:  CALL   1DF6
02E8A:  MOVFF  02,03
02E8E:  MOVF   01,W
02E90:  ADDLW  03
02E92:  MOVLB  4
02E94:  MOVWF  x14
02E96:  MOVLW  00
02E98:  ADDWFC 02,W
02E9A:  MOVWF  x15
02E9C:  MOVWF  x1A
02E9E:  MOVFF  414,419
02EA2:  MOVLB  0
02EA4:  CALL   1EFA
02EA8:  MOVFF  01,3E8
....................    if(mesCiclos>12) 
02EAC:  MOVLB  3
02EAE:  MOVF   xE8,W
02EB0:  SUBLW  0C
02EB2:  BC    2EB8
....................       mesCiclos=1; 
02EB4:  MOVLW  01
02EB6:  MOVWF  xE8
....................    yearCiclos=read_ext_eeprom(4+(cicloVisto*320)); 
02EB8:  MOVLB  4
02EBA:  CLRF   x19
02EBC:  MOVFF  2D2,418
02EC0:  MOVLW  01
02EC2:  MOVWF  x1B
02EC4:  MOVLW  40
02EC6:  MOVWF  x1A
02EC8:  MOVLB  0
02ECA:  CALL   1DF6
02ECE:  MOVFF  02,03
02ED2:  MOVF   01,W
02ED4:  ADDLW  04
02ED6:  MOVLB  4
02ED8:  MOVWF  x14
02EDA:  MOVLW  00
02EDC:  ADDWFC 02,W
02EDE:  MOVWF  x15
02EE0:  MOVWF  x1A
02EE2:  MOVFF  414,419
02EE6:  MOVLB  0
02EE8:  CALL   1EFA
02EEC:  MOVFF  01,3E9
....................    if(yearCiclos>99) 
02EF0:  MOVLB  3
02EF2:  MOVF   xE9,W
02EF4:  SUBLW  63
02EF6:  BC    2EFC
....................       yearCiclos=19; 
02EF8:  MOVLW  13
02EFA:  MOVWF  xE9
....................    cicloCiclos=read_ext_eeprom(1+(cicloVisto*320)); 
02EFC:  MOVLB  4
02EFE:  CLRF   x19
02F00:  MOVFF  2D2,418
02F04:  MOVLW  01
02F06:  MOVWF  x1B
02F08:  MOVLW  40
02F0A:  MOVWF  x1A
02F0C:  MOVLB  0
02F0E:  CALL   1DF6
02F12:  MOVFF  02,03
02F16:  MOVF   01,W
02F18:  ADDLW  01
02F1A:  MOVLB  4
02F1C:  MOVWF  x14
02F1E:  MOVLW  00
02F20:  ADDWFC 02,W
02F22:  MOVWF  x15
02F24:  MOVWF  x1A
02F26:  MOVFF  414,419
02F2A:  MOVLB  0
02F2C:  CALL   1EFA
02F30:  MOVFF  01,3EB
....................    if(cicloCiclos>20) 
02F34:  MOVLB  3
02F36:  MOVF   xEB,W
02F38:  SUBLW  14
02F3A:  BC    2F40
....................       cicloCiclos=1; 
02F3C:  MOVLW  01
02F3E:  MOVWF  xEB
....................    usuarioCiclos=read_ext_eeprom((cicloVisto*320)); 
02F40:  MOVLB  4
02F42:  CLRF   x19
02F44:  MOVFF  2D2,418
02F48:  MOVLW  01
02F4A:  MOVWF  x1B
02F4C:  MOVLW  40
02F4E:  MOVWF  x1A
02F50:  MOVLB  0
02F52:  CALL   1DF6
02F56:  MOVFF  02,415
02F5A:  MOVFF  01,414
02F5E:  MOVFF  02,41A
02F62:  MOVFF  01,419
02F66:  CALL   1EFA
02F6A:  MOVFF  01,3EA
....................    if(usuarioCiclos>10) 
02F6E:  MOVLB  3
02F70:  MOVF   xEA,W
02F72:  SUBLW  0A
02F74:  BC    2F7A
....................       usuarioCiclos=1; 
02F76:  MOVLW  01
02F78:  MOVWF  xEA
....................    for(i=0;i<7;i++){//Lee Valores para completar la Tabla 
02F7A:  CLRF   x3D
02F7C:  MOVF   x3D,W
02F7E:  SUBLW  06
02F80:  BTFSS  FD8.0
02F82:  BRA    34DE
....................       horaCiclos[i]=read_ext_eeprom((cicloVisto*320)+11+((cicloVisualizado+i)*9)); 
02F84:  CLRF   03
02F86:  MOVF   x3D,W
02F88:  ADDLW  D2
02F8A:  MOVWF  01
02F8C:  MOVLW  03
02F8E:  ADDWFC 03,F
02F90:  MOVFF  01,414
02F94:  MOVLB  4
02F96:  MOVFF  03,415
02F9A:  CLRF   x19
02F9C:  MOVFF  2D2,418
02FA0:  MOVLW  01
02FA2:  MOVWF  x1B
02FA4:  MOVLW  40
02FA6:  MOVWF  x1A
02FA8:  MOVLB  0
02FAA:  CALL   1DF6
02FAE:  MOVFF  02,417
02FB2:  MOVFF  01,416
02FB6:  MOVLW  0B
02FB8:  MOVLB  4
02FBA:  ADDWF  x16,F
02FBC:  MOVLW  00
02FBE:  ADDWFC x17,F
02FC0:  MOVLB  3
02FC2:  MOVF   x3D,W
02FC4:  MOVLB  2
02FC6:  ADDWF  xD3,W
02FC8:  MULLW  09
02FCA:  MOVF   FF3,W
02FCC:  MOVLB  4
02FCE:  ADDWF  x16,F
02FD0:  MOVLW  00
02FD2:  ADDWFC x17,F
02FD4:  MOVFF  417,41A
02FD8:  MOVFF  416,419
02FDC:  MOVLB  0
02FDE:  CALL   1EFA
02FE2:  MOVFF  415,FEA
02FE6:  MOVFF  414,FE9
02FEA:  MOVFF  01,FEF
....................       if(horaCiclos[i]>24) 
02FEE:  CLRF   03
02FF0:  MOVLB  3
02FF2:  MOVF   x3D,W
02FF4:  ADDLW  D2
02FF6:  MOVWF  FE9
02FF8:  MOVLW  03
02FFA:  ADDWFC 03,W
02FFC:  MOVWF  FEA
02FFE:  MOVF   FEF,W
03000:  SUBLW  18
03002:  BC    3014
....................          horaCiclos[i]=0; 
03004:  CLRF   03
03006:  MOVF   x3D,W
03008:  ADDLW  D2
0300A:  MOVWF  FE9
0300C:  MOVLW  03
0300E:  ADDWFC 03,W
03010:  MOVWF  FEA
03012:  CLRF   FEF
....................       minutoCiclos[i]=read_ext_eeprom((cicloVisto*320)+12+((cicloVisualizado+i)*9)); 
03014:  CLRF   03
03016:  MOVF   x3D,W
03018:  ADDLW  D9
0301A:  MOVWF  01
0301C:  MOVLW  03
0301E:  ADDWFC 03,F
03020:  MOVFF  01,414
03024:  MOVLB  4
03026:  MOVFF  03,415
0302A:  CLRF   x19
0302C:  MOVFF  2D2,418
03030:  MOVLW  01
03032:  MOVWF  x1B
03034:  MOVLW  40
03036:  MOVWF  x1A
03038:  MOVLB  0
0303A:  CALL   1DF6
0303E:  MOVFF  02,417
03042:  MOVFF  01,416
03046:  MOVLW  0C
03048:  MOVLB  4
0304A:  ADDWF  x16,F
0304C:  MOVLW  00
0304E:  ADDWFC x17,F
03050:  MOVLB  3
03052:  MOVF   x3D,W
03054:  MOVLB  2
03056:  ADDWF  xD3,W
03058:  MULLW  09
0305A:  MOVF   FF3,W
0305C:  MOVLB  4
0305E:  ADDWF  x16,F
03060:  MOVLW  00
03062:  ADDWFC x17,F
03064:  MOVFF  417,41A
03068:  MOVFF  416,419
0306C:  MOVLB  0
0306E:  CALL   1EFA
03072:  MOVFF  415,FEA
03076:  MOVFF  414,FE9
0307A:  MOVFF  01,FEF
....................       if(minutoCiclos[i]>59) 
0307E:  CLRF   03
03080:  MOVLB  3
03082:  MOVF   x3D,W
03084:  ADDLW  D9
03086:  MOVWF  FE9
03088:  MOVLW  03
0308A:  ADDWFC 03,W
0308C:  MOVWF  FEA
0308E:  MOVF   FEF,W
03090:  SUBLW  3B
03092:  BC    30A4
....................          minutoCiclos[i]=0; 
03094:  CLRF   03
03096:  MOVF   x3D,W
03098:  ADDLW  D9
0309A:  MOVWF  FE9
0309C:  MOVLW  03
0309E:  ADDWFC 03,W
030A0:  MOVWF  FEA
030A2:  CLRF   FEF
....................       TCiclos[i]=read_ext_eeprom((cicloVisto*320)+5+((cicloVisualizado+i)*9))+inttofloat(read_ext_eeprom((cicloVisto*320)+6+((cicloVisualizado+i)*9))); 
030A4:  MOVF   x3D,W
030A6:  MULLW  04
030A8:  MOVF   FF3,W
030AA:  CLRF   03
030AC:  ADDLW  9A
030AE:  MOVWF  01
030B0:  MOVLW  03
030B2:  ADDWFC 03,F
030B4:  MOVFF  01,414
030B8:  MOVLB  4
030BA:  MOVFF  03,415
030BE:  CLRF   x19
030C0:  MOVFF  2D2,418
030C4:  MOVLW  01
030C6:  MOVWF  x1B
030C8:  MOVLW  40
030CA:  MOVWF  x1A
030CC:  MOVLB  0
030CE:  CALL   1DF6
030D2:  MOVFF  02,417
030D6:  MOVFF  01,416
030DA:  MOVLW  05
030DC:  MOVLB  4
030DE:  ADDWF  x16,F
030E0:  MOVLW  00
030E2:  ADDWFC x17,F
030E4:  MOVLB  3
030E6:  MOVF   x3D,W
030E8:  MOVLB  2
030EA:  ADDWF  xD3,W
030EC:  MULLW  09
030EE:  MOVF   FF3,W
030F0:  MOVLB  4
030F2:  ADDWF  x16,F
030F4:  MOVLW  00
030F6:  ADDWFC x17,F
030F8:  MOVFF  417,41A
030FC:  MOVFF  416,419
03100:  MOVLB  0
03102:  CALL   1EFA
03106:  MOVFF  01,416
0310A:  MOVLB  4
0310C:  CLRF   x19
0310E:  MOVFF  2D2,418
03112:  MOVLW  01
03114:  MOVWF  x1B
03116:  MOVLW  40
03118:  MOVWF  x1A
0311A:  MOVLB  0
0311C:  CALL   1DF6
03120:  MOVFF  02,418
03124:  MOVFF  01,417
03128:  MOVLW  06
0312A:  MOVLB  4
0312C:  ADDWF  x17,F
0312E:  MOVLW  00
03130:  ADDWFC x18,F
03132:  MOVLB  3
03134:  MOVF   x3D,W
03136:  MOVLB  2
03138:  ADDWF  xD3,W
0313A:  MULLW  09
0313C:  MOVF   FF3,W
0313E:  MOVLB  4
03140:  ADDWF  x17,F
03142:  MOVLW  00
03144:  ADDWFC x18,F
03146:  MOVFF  418,41A
0314A:  MOVFF  417,419
0314E:  MOVLB  0
03150:  CALL   1EFA
03154:  MOVFF  01,417
03158:  MOVFF  01,418
0315C:  CALL   1FA2
03160:  MOVFF  00,417
03164:  MOVFF  01,418
03168:  MOVFF  02,419
0316C:  MOVFF  03,41A
03170:  MOVLB  4
03172:  CLRF   x2A
03174:  MOVFF  416,429
03178:  MOVLB  0
0317A:  CALL   19EA
0317E:  MOVFF  FEA,41C
03182:  MOVFF  FE9,41B
03186:  BCF    FD8.1
03188:  MOVFF  03,42C
0318C:  MOVFF  02,42B
03190:  MOVFF  01,42A
03194:  MOVFF  00,429
03198:  MOVFF  41A,430
0319C:  MOVFF  419,42F
031A0:  MOVFF  418,42E
031A4:  MOVFF  417,42D
031A8:  CALL   1B7E
031AC:  MOVFF  41C,FEA
031B0:  MOVFF  41B,FE9
031B4:  MOVFF  415,FEA
031B8:  MOVFF  414,FE9
031BC:  MOVFF  00,FEF
031C0:  MOVFF  01,FEC
031C4:  MOVFF  02,FEC
031C8:  MOVFF  03,FEC
....................       if(TCiclos[i]>200) 
031CC:  MOVLB  3
031CE:  MOVF   x3D,W
031D0:  MULLW  04
031D2:  MOVF   FF3,W
031D4:  CLRF   03
031D6:  ADDLW  9A
031D8:  MOVWF  FE9
031DA:  MOVLW  03
031DC:  ADDWFC 03,W
031DE:  MOVWF  FEA
031E0:  MOVFF  FEF,414
031E4:  MOVFF  FEC,415
031E8:  MOVFF  FEC,416
031EC:  MOVFF  FEC,417
031F0:  MOVLB  4
031F2:  CLRF   x1B
031F4:  CLRF   x1A
031F6:  MOVLW  48
031F8:  MOVWF  x19
031FA:  MOVLW  86
031FC:  MOVWF  x18
031FE:  MOVFF  417,41F
03202:  MOVFF  416,41E
03206:  MOVFF  415,41D
0320A:  MOVFF  414,41C
0320E:  MOVLB  0
03210:  CALL   1FE2
03214:  BNC   3234
....................          TCiclos[i]=0; 
03216:  MOVLB  3
03218:  MOVF   x3D,W
0321A:  MULLW  04
0321C:  MOVF   FF3,W
0321E:  CLRF   03
03220:  ADDLW  9A
03222:  MOVWF  FE9
03224:  MOVLW  03
03226:  ADDWFC 03,W
03228:  MOVWF  FEA
0322A:  CLRF   FEF
0322C:  CLRF   FEC
0322E:  CLRF   FEC
03230:  CLRF   FEC
03232:  MOVLB  0
....................       PcCiclos[i]=make16(read_ext_eeprom((cicloVisto*320)+7+((cicloVisualizado+i)*9)),read_ext_eeprom((cicloVisto*320)+8+((cicloVisualizado+i)*9))); 
03234:  BCF    FD8.0
03236:  MOVLB  3
03238:  RLCF   x3D,W
0323A:  CLRF   03
0323C:  ADDLW  B6
0323E:  MOVWF  01
03240:  MOVLW  03
03242:  ADDWFC 03,F
03244:  MOVFF  01,414
03248:  MOVLB  4
0324A:  MOVFF  03,415
0324E:  CLRF   x19
03250:  MOVFF  2D2,418
03254:  MOVLW  01
03256:  MOVWF  x1B
03258:  MOVLW  40
0325A:  MOVWF  x1A
0325C:  MOVLB  0
0325E:  CALL   1DF6
03262:  MOVFF  02,417
03266:  MOVFF  01,416
0326A:  MOVLW  07
0326C:  MOVLB  4
0326E:  ADDWF  x16,F
03270:  MOVLW  00
03272:  ADDWFC x17,F
03274:  MOVLB  3
03276:  MOVF   x3D,W
03278:  MOVLB  2
0327A:  ADDWF  xD3,W
0327C:  MULLW  09
0327E:  MOVF   FF3,W
03280:  MOVLB  4
03282:  ADDWF  x16,F
03284:  MOVLW  00
03286:  ADDWFC x17,F
03288:  MOVFF  417,41A
0328C:  MOVFF  416,419
03290:  MOVLB  0
03292:  CALL   1EFA
03296:  MOVFF  01,416
0329A:  MOVLB  4
0329C:  CLRF   x19
0329E:  MOVFF  2D2,418
032A2:  MOVLW  01
032A4:  MOVWF  x1B
032A6:  MOVLW  40
032A8:  MOVWF  x1A
032AA:  MOVLB  0
032AC:  CALL   1DF6
032B0:  MOVFF  02,418
032B4:  MOVFF  01,417
032B8:  MOVLW  08
032BA:  MOVLB  4
032BC:  ADDWF  x17,F
032BE:  MOVLW  00
032C0:  ADDWFC x18,F
032C2:  MOVLB  3
032C4:  MOVF   x3D,W
032C6:  MOVLB  2
032C8:  ADDWF  xD3,W
032CA:  MULLW  09
032CC:  MOVF   FF3,W
032CE:  MOVLB  4
032D0:  ADDWF  x17,F
032D2:  MOVLW  00
032D4:  ADDWFC x18,F
032D6:  MOVFF  418,41A
032DA:  MOVFF  417,419
032DE:  MOVLB  0
032E0:  CALL   1EFA
032E4:  MOVFF  415,FEA
032E8:  MOVFF  414,FE9
032EC:  MOVFF  416,FEC
032F0:  MOVF   FED,F
032F2:  MOVFF  01,FEF
....................       if(PcCiclos[i]>500) 
032F6:  BCF    FD8.0
032F8:  MOVLB  3
032FA:  RLCF   x3D,W
032FC:  CLRF   03
032FE:  ADDLW  B6
03300:  MOVWF  FE9
03302:  MOVLW  03
03304:  ADDWFC 03,W
03306:  MOVWF  FEA
03308:  MOVFF  FEC,415
0330C:  MOVF   FED,F
0330E:  MOVFF  FEF,414
03312:  MOVLB  4
03314:  MOVF   x15,W
03316:  SUBLW  00
03318:  BC    333E
0331A:  XORLW  FF
0331C:  BNZ   3324
0331E:  MOVF   x14,W
03320:  SUBLW  F4
03322:  BC    333E
....................          PcCiclos[i]=0; 
03324:  BCF    FD8.0
03326:  MOVLB  3
03328:  RLCF   x3D,W
0332A:  CLRF   03
0332C:  ADDLW  B6
0332E:  MOVWF  FE9
03330:  MOVLW  03
03332:  ADDWFC 03,W
03334:  MOVWF  FEA
03336:  CLRF   FEC
03338:  MOVF   FED,F
0333A:  CLRF   FEF
0333C:  MOVLB  4
....................       PpcCiclos[i]=make16(read_ext_eeprom((cicloVisto*320)+9+((cicloVisualizado+i)*9)),read_ext_eeprom((cicloVisto*320)+10+((cicloVisualizado+i)*9))); 
0333E:  BCF    FD8.0
03340:  MOVLB  3
03342:  RLCF   x3D,W
03344:  CLRF   03
03346:  ADDLW  C4
03348:  MOVWF  01
0334A:  MOVLW  03
0334C:  ADDWFC 03,F
0334E:  MOVFF  01,414
03352:  MOVLB  4
03354:  MOVFF  03,415
03358:  CLRF   x19
0335A:  MOVFF  2D2,418
0335E:  MOVLW  01
03360:  MOVWF  x1B
03362:  MOVLW  40
03364:  MOVWF  x1A
03366:  MOVLB  0
03368:  CALL   1DF6
0336C:  MOVFF  02,417
03370:  MOVFF  01,416
03374:  MOVLW  09
03376:  MOVLB  4
03378:  ADDWF  x16,F
0337A:  MOVLW  00
0337C:  ADDWFC x17,F
0337E:  MOVLB  3
03380:  MOVF   x3D,W
03382:  MOVLB  2
03384:  ADDWF  xD3,W
03386:  MULLW  09
03388:  MOVF   FF3,W
0338A:  MOVLB  4
0338C:  ADDWF  x16,F
0338E:  MOVLW  00
03390:  ADDWFC x17,F
03392:  MOVFF  417,41A
03396:  MOVFF  416,419
0339A:  MOVLB  0
0339C:  CALL   1EFA
033A0:  MOVFF  01,416
033A4:  MOVLB  4
033A6:  CLRF   x19
033A8:  MOVFF  2D2,418
033AC:  MOVLW  01
033AE:  MOVWF  x1B
033B0:  MOVLW  40
033B2:  MOVWF  x1A
033B4:  MOVLB  0
033B6:  CALL   1DF6
033BA:  MOVFF  02,418
033BE:  MOVFF  01,417
033C2:  MOVLW  0A
033C4:  MOVLB  4
033C6:  ADDWF  x17,F
033C8:  MOVLW  00
033CA:  ADDWFC x18,F
033CC:  MOVLB  3
033CE:  MOVF   x3D,W
033D0:  MOVLB  2
033D2:  ADDWF  xD3,W
033D4:  MULLW  09
033D6:  MOVF   FF3,W
033D8:  MOVLB  4
033DA:  ADDWF  x17,F
033DC:  MOVLW  00
033DE:  ADDWFC x18,F
033E0:  MOVFF  418,41A
033E4:  MOVFF  417,419
033E8:  MOVLB  0
033EA:  CALL   1EFA
033EE:  MOVFF  415,FEA
033F2:  MOVFF  414,FE9
033F6:  MOVFF  416,FEC
033FA:  MOVF   FED,F
033FC:  MOVFF  01,FEF
....................       if(PpcCiclos[i]>500) 
03400:  BCF    FD8.0
03402:  MOVLB  3
03404:  RLCF   x3D,W
03406:  CLRF   03
03408:  ADDLW  C4
0340A:  MOVWF  FE9
0340C:  MOVLW  03
0340E:  ADDWFC 03,W
03410:  MOVWF  FEA
03412:  MOVFF  FEC,415
03416:  MOVF   FED,F
03418:  MOVFF  FEF,414
0341C:  MOVLB  4
0341E:  MOVF   x15,W
03420:  SUBLW  00
03422:  BC    3448
03424:  XORLW  FF
03426:  BNZ   342E
03428:  MOVF   x14,W
0342A:  SUBLW  F4
0342C:  BC    3448
....................          PpcCiclos[i]=0; 
0342E:  BCF    FD8.0
03430:  MOVLB  3
03432:  RLCF   x3D,W
03434:  CLRF   03
03436:  ADDLW  C4
03438:  MOVWF  FE9
0343A:  MOVLW  03
0343C:  ADDWFC 03,W
0343E:  MOVWF  FEA
03440:  CLRF   FEC
03442:  MOVF   FED,F
03444:  CLRF   FEF
03446:  MOVLB  4
....................       ACiclos[i]=read_ext_eeprom((cicloVisto*320)+13+((cicloVisualizado+i)*9)); 
03448:  CLRF   03
0344A:  MOVLB  3
0344C:  MOVF   x3D,W
0344E:  ADDLW  E0
03450:  MOVWF  01
03452:  MOVLW  03
03454:  ADDWFC 03,F
03456:  MOVFF  01,414
0345A:  MOVLB  4
0345C:  MOVFF  03,415
03460:  CLRF   x19
03462:  MOVFF  2D2,418
03466:  MOVLW  01
03468:  MOVWF  x1B
0346A:  MOVLW  40
0346C:  MOVWF  x1A
0346E:  MOVLB  0
03470:  CALL   1DF6
03474:  MOVFF  02,417
03478:  MOVFF  01,416
0347C:  MOVLW  0D
0347E:  MOVLB  4
03480:  ADDWF  x16,F
03482:  MOVLW  00
03484:  ADDWFC x17,F
03486:  MOVLB  3
03488:  MOVF   x3D,W
0348A:  MOVLB  2
0348C:  ADDWF  xD3,W
0348E:  MULLW  09
03490:  MOVF   FF3,W
03492:  MOVLB  4
03494:  ADDWF  x16,F
03496:  MOVLW  00
03498:  ADDWFC x17,F
0349A:  MOVFF  417,41A
0349E:  MOVFF  416,419
034A2:  MOVLB  0
034A4:  CALL   1EFA
034A8:  MOVFF  415,FEA
034AC:  MOVFF  414,FE9
034B0:  MOVFF  01,FEF
....................       if(ACiclos[i]>30) 
034B4:  CLRF   03
034B6:  MOVLB  3
034B8:  MOVF   x3D,W
034BA:  ADDLW  E0
034BC:  MOVWF  FE9
034BE:  MOVLW  03
034C0:  ADDWFC 03,W
034C2:  MOVWF  FEA
034C4:  MOVF   FEF,W
034C6:  SUBLW  1E
034C8:  BC    34DA
....................          ACiclos[i]=0; 
034CA:  CLRF   03
034CC:  MOVF   x3D,W
034CE:  ADDLW  E0
034D0:  MOVWF  FE9
034D2:  MOVLW  03
034D4:  ADDWFC 03,W
034D6:  MOVWF  FEA
034D8:  CLRF   FEF
....................    } 
034DA:  INCF   x3D,F
034DC:  BRA    2F7C
.................... } 
034DE:  MOVLB  0
034E0:  GOTO   793E (RETURN)
....................  
.................... void LimitaValores(){ 
....................    if(Testerilizacionp[0]>9 || Testerilizacionp[0]<0){ 
*
03618:  BTFSC  xB3.7
0361A:  BRA    3622
0361C:  MOVF   xB3,W
0361E:  SUBLW  09
03620:  BNC   3628
03622:  BTFSC  xB3.7
03624:  BRA    3628
03626:  BRA    3660
....................       Testerilizacionp[0]=0; 
03628:  CLRF   xB3
....................       write_eeprom(0,0); 
0362A:  CLRF   FAA
0362C:  CLRF   FA9
0362E:  CLRF   FA8
03630:  BCF    FA6.6
03632:  BCF    FA6.7
03634:  BSF    FA6.2
03636:  MOVF   FF2,W
03638:  MOVWF  00
0363A:  BCF    FF2.6
0363C:  BCF    FF2.7
0363E:  MOVLB  F
03640:  MOVLW  55
03642:  MOVWF  FA7
03644:  MOVLW  AA
03646:  MOVWF  FA7
03648:  BSF    FA6.1
0364A:  BTFSC  FA6.1
0364C:  BRA    364A
0364E:  BCF    FA6.2
03650:  MOVF   00,W
03652:  IORWF  FF2,F
....................       delay_ms(10); 
03654:  MOVLW  0A
03656:  MOVLB  4
03658:  MOVWF  x29
0365A:  MOVLB  0
0365C:  CALL   19C2
....................    } 
....................    if(Testerilizacionp[1]>9 || Testerilizacionp[1]<0){ 
03660:  BTFSC  xB4.7
03662:  BRA    366A
03664:  MOVF   xB4,W
03666:  SUBLW  09
03668:  BNC   3670
0366A:  BTFSC  xB4.7
0366C:  BRA    3670
0366E:  BRA    36AA
....................       Testerilizacionp[1]=0; 
03670:  CLRF   xB4
....................       write_eeprom(1,0); 
03672:  CLRF   FAA
03674:  MOVLW  01
03676:  MOVWF  FA9
03678:  CLRF   FA8
0367A:  BCF    FA6.6
0367C:  BCF    FA6.7
0367E:  BSF    FA6.2
03680:  MOVF   FF2,W
03682:  MOVWF  00
03684:  BCF    FF2.6
03686:  BCF    FF2.7
03688:  MOVLB  F
0368A:  MOVLW  55
0368C:  MOVWF  FA7
0368E:  MOVLW  AA
03690:  MOVWF  FA7
03692:  BSF    FA6.1
03694:  BTFSC  FA6.1
03696:  BRA    3694
03698:  BCF    FA6.2
0369A:  MOVF   00,W
0369C:  IORWF  FF2,F
....................       delay_ms(10); 
0369E:  MOVLW  0A
036A0:  MOVLB  4
036A2:  MOVWF  x29
036A4:  MOVLB  0
036A6:  CALL   19C2
....................    } 
....................    if(Testerilizacionp[2]>9 || Testerilizacionp[2]<0){ 
036AA:  BTFSC  xB5.7
036AC:  BRA    36B4
036AE:  MOVF   xB5,W
036B0:  SUBLW  09
036B2:  BNC   36BA
036B4:  BTFSC  xB5.7
036B6:  BRA    36BA
036B8:  BRA    36F4
....................       Testerilizacionp[2]=0; 
036BA:  CLRF   xB5
....................       write_eeprom(2,0); 
036BC:  CLRF   FAA
036BE:  MOVLW  02
036C0:  MOVWF  FA9
036C2:  CLRF   FA8
036C4:  BCF    FA6.6
036C6:  BCF    FA6.7
036C8:  BSF    FA6.2
036CA:  MOVF   FF2,W
036CC:  MOVWF  00
036CE:  BCF    FF2.6
036D0:  BCF    FF2.7
036D2:  MOVLB  F
036D4:  MOVLW  55
036D6:  MOVWF  FA7
036D8:  MOVLW  AA
036DA:  MOVWF  FA7
036DC:  BSF    FA6.1
036DE:  BTFSC  FA6.1
036E0:  BRA    36DE
036E2:  BCF    FA6.2
036E4:  MOVF   00,W
036E6:  IORWF  FF2,F
....................       delay_ms(10); 
036E8:  MOVLW  0A
036EA:  MOVLB  4
036EC:  MOVWF  x29
036EE:  MOVLB  0
036F0:  CALL   19C2
....................    } 
....................    if(Testerilizacionp[3]>9 || Testerilizacionp[3]<0){ 
036F4:  BTFSC  xB6.7
036F6:  BRA    36FE
036F8:  MOVF   xB6,W
036FA:  SUBLW  09
036FC:  BNC   3704
036FE:  BTFSC  xB6.7
03700:  BRA    3704
03702:  BRA    373E
....................       Testerilizacionp[3]=0; 
03704:  CLRF   xB6
....................       write_eeprom(3,0); 
03706:  CLRF   FAA
03708:  MOVLW  03
0370A:  MOVWF  FA9
0370C:  CLRF   FA8
0370E:  BCF    FA6.6
03710:  BCF    FA6.7
03712:  BSF    FA6.2
03714:  MOVF   FF2,W
03716:  MOVWF  00
03718:  BCF    FF2.6
0371A:  BCF    FF2.7
0371C:  MOVLB  F
0371E:  MOVLW  55
03720:  MOVWF  FA7
03722:  MOVLW  AA
03724:  MOVWF  FA7
03726:  BSF    FA6.1
03728:  BTFSC  FA6.1
0372A:  BRA    3728
0372C:  BCF    FA6.2
0372E:  MOVF   00,W
03730:  IORWF  FF2,F
....................       delay_ms(10); 
03732:  MOVLW  0A
03734:  MOVLB  4
03736:  MOVWF  x29
03738:  MOVLB  0
0373A:  CALL   19C2
....................    } 
....................    if(Tsecadop[0]>9 || Tsecadop[0]<0){ 
0373E:  BTFSC  xBC.7
03740:  BRA    3748
03742:  MOVF   xBC,W
03744:  SUBLW  09
03746:  BNC   374E
03748:  BTFSC  xBC.7
0374A:  BRA    374E
0374C:  BRA    3788
....................       Tsecadop[0]=0; 
0374E:  CLRF   xBC
....................       write_eeprom(4,0); 
03750:  CLRF   FAA
03752:  MOVLW  04
03754:  MOVWF  FA9
03756:  CLRF   FA8
03758:  BCF    FA6.6
0375A:  BCF    FA6.7
0375C:  BSF    FA6.2
0375E:  MOVF   FF2,W
03760:  MOVWF  00
03762:  BCF    FF2.6
03764:  BCF    FF2.7
03766:  MOVLB  F
03768:  MOVLW  55
0376A:  MOVWF  FA7
0376C:  MOVLW  AA
0376E:  MOVWF  FA7
03770:  BSF    FA6.1
03772:  BTFSC  FA6.1
03774:  BRA    3772
03776:  BCF    FA6.2
03778:  MOVF   00,W
0377A:  IORWF  FF2,F
....................       delay_ms(10); 
0377C:  MOVLW  0A
0377E:  MOVLB  4
03780:  MOVWF  x29
03782:  MOVLB  0
03784:  CALL   19C2
....................    } 
....................    if(Tsecadop[1]>9 || Tsecadop[1]<0){ 
03788:  BTFSC  xBD.7
0378A:  BRA    3792
0378C:  MOVF   xBD,W
0378E:  SUBLW  09
03790:  BNC   3798
03792:  BTFSC  xBD.7
03794:  BRA    3798
03796:  BRA    37D2
....................       Tsecadop[1]=0; 
03798:  CLRF   xBD
....................       write_eeprom(5,0); 
0379A:  CLRF   FAA
0379C:  MOVLW  05
0379E:  MOVWF  FA9
037A0:  CLRF   FA8
037A2:  BCF    FA6.6
037A4:  BCF    FA6.7
037A6:  BSF    FA6.2
037A8:  MOVF   FF2,W
037AA:  MOVWF  00
037AC:  BCF    FF2.6
037AE:  BCF    FF2.7
037B0:  MOVLB  F
037B2:  MOVLW  55
037B4:  MOVWF  FA7
037B6:  MOVLW  AA
037B8:  MOVWF  FA7
037BA:  BSF    FA6.1
037BC:  BTFSC  FA6.1
037BE:  BRA    37BC
037C0:  BCF    FA6.2
037C2:  MOVF   00,W
037C4:  IORWF  FF2,F
....................       delay_ms(10); 
037C6:  MOVLW  0A
037C8:  MOVLB  4
037CA:  MOVWF  x29
037CC:  MOVLB  0
037CE:  CALL   19C2
....................    } 
....................    if(Tsecadop[2]>9 || Tsecadop[2]<0){ 
037D2:  BTFSC  xBE.7
037D4:  BRA    37DC
037D6:  MOVF   xBE,W
037D8:  SUBLW  09
037DA:  BNC   37E2
037DC:  BTFSC  xBE.7
037DE:  BRA    37E2
037E0:  BRA    381C
....................       Tsecadop[2]=0; 
037E2:  CLRF   xBE
....................       write_eeprom(6,0); 
037E4:  CLRF   FAA
037E6:  MOVLW  06
037E8:  MOVWF  FA9
037EA:  CLRF   FA8
037EC:  BCF    FA6.6
037EE:  BCF    FA6.7
037F0:  BSF    FA6.2
037F2:  MOVF   FF2,W
037F4:  MOVWF  00
037F6:  BCF    FF2.6
037F8:  BCF    FF2.7
037FA:  MOVLB  F
037FC:  MOVLW  55
037FE:  MOVWF  FA7
03800:  MOVLW  AA
03802:  MOVWF  FA7
03804:  BSF    FA6.1
03806:  BTFSC  FA6.1
03808:  BRA    3806
0380A:  BCF    FA6.2
0380C:  MOVF   00,W
0380E:  IORWF  FF2,F
....................       delay_ms(10); 
03810:  MOVLW  0A
03812:  MOVLB  4
03814:  MOVWF  x29
03816:  MOVLB  0
03818:  CALL   19C2
....................    } 
....................    if(Tsecadop[3]>9 || Tsecadop[3]<0){ 
0381C:  BTFSC  xBF.7
0381E:  BRA    3826
03820:  MOVF   xBF,W
03822:  SUBLW  09
03824:  BNC   382C
03826:  BTFSC  xBF.7
03828:  BRA    382C
0382A:  BRA    3866
....................       Tsecadop[3]=0; 
0382C:  CLRF   xBF
....................       write_eeprom(7,0); 
0382E:  CLRF   FAA
03830:  MOVLW  07
03832:  MOVWF  FA9
03834:  CLRF   FA8
03836:  BCF    FA6.6
03838:  BCF    FA6.7
0383A:  BSF    FA6.2
0383C:  MOVF   FF2,W
0383E:  MOVWF  00
03840:  BCF    FF2.6
03842:  BCF    FF2.7
03844:  MOVLB  F
03846:  MOVLW  55
03848:  MOVWF  FA7
0384A:  MOVLW  AA
0384C:  MOVWF  FA7
0384E:  BSF    FA6.1
03850:  BTFSC  FA6.1
03852:  BRA    3850
03854:  BCF    FA6.2
03856:  MOVF   00,W
03858:  IORWF  FF2,F
....................       delay_ms(10); 
0385A:  MOVLW  0A
0385C:  MOVLB  4
0385E:  MOVWF  x29
03860:  MOVLB  0
03862:  CALL   19C2
....................    } 
....................    if(Setpoint>134 || Setpoint<60){ 
03866:  MOVLB  3
03868:  MOVF   x41,W
0386A:  SUBLW  86
0386C:  BNC   3874
0386E:  MOVF   x41,W
03870:  SUBLW  3B
03872:  BNC   38B4
....................       Setpoint=134; 
03874:  MOVLW  86
03876:  MOVWF  x41
....................       write_eeprom(8,134); 
03878:  CLRF   FAA
0387A:  MOVLW  08
0387C:  MOVWF  FA9
0387E:  MOVLW  86
03880:  MOVWF  FA8
03882:  BCF    FA6.6
03884:  BCF    FA6.7
03886:  BSF    FA6.2
03888:  MOVF   FF2,W
0388A:  MOVWF  00
0388C:  BCF    FF2.6
0388E:  BCF    FF2.7
03890:  MOVLB  F
03892:  MOVLW  55
03894:  MOVWF  FA7
03896:  MOVLW  AA
03898:  MOVWF  FA7
0389A:  BSF    FA6.1
0389C:  BTFSC  FA6.1
0389E:  BRA    389C
038A0:  BCF    FA6.2
038A2:  MOVF   00,W
038A4:  IORWF  FF2,F
....................       delay_ms(10); 
038A6:  MOVLW  0A
038A8:  MOVLB  4
038AA:  MOVWF  x29
038AC:  MOVLB  0
038AE:  CALL   19C2
038B2:  MOVLB  3
....................    } 
....................    if(Nivel>6 || Nivel<1){ 
038B4:  MOVF   x50,F
038B6:  BNZ   38C6
038B8:  MOVF   x4F,W
038BA:  SUBLW  06
038BC:  BNC   38C6
038BE:  MOVF   x4F,F
038C0:  BNZ   3908
038C2:  MOVF   x50,F
038C4:  BNZ   3908
....................       Nivel=3; 
038C6:  CLRF   x50
038C8:  MOVLW  03
038CA:  MOVWF  x4F
....................       write_eeprom(9,3); 
038CC:  CLRF   FAA
038CE:  MOVLW  09
038D0:  MOVWF  FA9
038D2:  MOVLW  03
038D4:  MOVWF  FA8
038D6:  BCF    FA6.6
038D8:  BCF    FA6.7
038DA:  BSF    FA6.2
038DC:  MOVF   FF2,W
038DE:  MOVWF  00
038E0:  BCF    FF2.6
038E2:  BCF    FF2.7
038E4:  MOVLB  F
038E6:  MOVLW  55
038E8:  MOVWF  FA7
038EA:  MOVLW  AA
038EC:  MOVWF  FA7
038EE:  BSF    FA6.1
038F0:  BTFSC  FA6.1
038F2:  BRA    38F0
038F4:  BCF    FA6.2
038F6:  MOVF   00,W
038F8:  IORWF  FF2,F
....................       delay_ms(10); 
038FA:  MOVLW  0A
038FC:  MOVLB  4
038FE:  MOVWF  x29
03900:  MOVLB  0
03902:  CALL   19C2
03906:  MOVLB  3
....................    } 
....................    if(Password[0]>9 || Password[0]<0){ 
03908:  BTFSC  x61.7
0390A:  BRA    3912
0390C:  MOVF   x61,W
0390E:  SUBLW  09
03910:  BNC   3918
03912:  BTFSC  x61.7
03914:  BRA    3918
03916:  BRA    3954
....................       Password[0]=0; 
03918:  CLRF   x61
....................       write_eeprom(10,0); 
0391A:  CLRF   FAA
0391C:  MOVLW  0A
0391E:  MOVWF  FA9
03920:  CLRF   FA8
03922:  BCF    FA6.6
03924:  BCF    FA6.7
03926:  BSF    FA6.2
03928:  MOVF   FF2,W
0392A:  MOVWF  00
0392C:  BCF    FF2.6
0392E:  BCF    FF2.7
03930:  MOVLB  F
03932:  MOVLW  55
03934:  MOVWF  FA7
03936:  MOVLW  AA
03938:  MOVWF  FA7
0393A:  BSF    FA6.1
0393C:  BTFSC  FA6.1
0393E:  BRA    393C
03940:  BCF    FA6.2
03942:  MOVF   00,W
03944:  IORWF  FF2,F
....................       delay_ms(10); 
03946:  MOVLW  0A
03948:  MOVLB  4
0394A:  MOVWF  x29
0394C:  MOVLB  0
0394E:  CALL   19C2
03952:  MOVLB  3
....................    } 
....................    if(Password[1]>9 || Password[1]<0){ 
03954:  BTFSC  x62.7
03956:  BRA    395E
03958:  MOVF   x62,W
0395A:  SUBLW  09
0395C:  BNC   3964
0395E:  BTFSC  x62.7
03960:  BRA    3964
03962:  BRA    39A0
....................       Password[1]=0; 
03964:  CLRF   x62
....................       write_eeprom(11,0); 
03966:  CLRF   FAA
03968:  MOVLW  0B
0396A:  MOVWF  FA9
0396C:  CLRF   FA8
0396E:  BCF    FA6.6
03970:  BCF    FA6.7
03972:  BSF    FA6.2
03974:  MOVF   FF2,W
03976:  MOVWF  00
03978:  BCF    FF2.6
0397A:  BCF    FF2.7
0397C:  MOVLB  F
0397E:  MOVLW  55
03980:  MOVWF  FA7
03982:  MOVLW  AA
03984:  MOVWF  FA7
03986:  BSF    FA6.1
03988:  BTFSC  FA6.1
0398A:  BRA    3988
0398C:  BCF    FA6.2
0398E:  MOVF   00,W
03990:  IORWF  FF2,F
....................       delay_ms(10); 
03992:  MOVLW  0A
03994:  MOVLB  4
03996:  MOVWF  x29
03998:  MOVLB  0
0399A:  CALL   19C2
0399E:  MOVLB  3
....................    } 
....................    if(Password[2]>9 || Password[2]<0){ 
039A0:  BTFSC  x63.7
039A2:  BRA    39AA
039A4:  MOVF   x63,W
039A6:  SUBLW  09
039A8:  BNC   39B0
039AA:  BTFSC  x63.7
039AC:  BRA    39B0
039AE:  BRA    39EC
....................       Password[2]=0; 
039B0:  CLRF   x63
....................       write_eeprom(12,0); 
039B2:  CLRF   FAA
039B4:  MOVLW  0C
039B6:  MOVWF  FA9
039B8:  CLRF   FA8
039BA:  BCF    FA6.6
039BC:  BCF    FA6.7
039BE:  BSF    FA6.2
039C0:  MOVF   FF2,W
039C2:  MOVWF  00
039C4:  BCF    FF2.6
039C6:  BCF    FF2.7
039C8:  MOVLB  F
039CA:  MOVLW  55
039CC:  MOVWF  FA7
039CE:  MOVLW  AA
039D0:  MOVWF  FA7
039D2:  BSF    FA6.1
039D4:  BTFSC  FA6.1
039D6:  BRA    39D4
039D8:  BCF    FA6.2
039DA:  MOVF   00,W
039DC:  IORWF  FF2,F
....................       delay_ms(10); 
039DE:  MOVLW  0A
039E0:  MOVLB  4
039E2:  MOVWF  x29
039E4:  MOVLB  0
039E6:  CALL   19C2
039EA:  MOVLB  3
....................    } 
....................    if(Password[3]>9 || Password[3]<0){ 
039EC:  BTFSC  x64.7
039EE:  BRA    39F6
039F0:  MOVF   x64,W
039F2:  SUBLW  09
039F4:  BNC   39FC
039F6:  BTFSC  x64.7
039F8:  BRA    39FC
039FA:  BRA    3A36
....................       Password[3]=0; 
039FC:  CLRF   x64
....................       write_eeprom(13,0); 
039FE:  CLRF   FAA
03A00:  MOVLW  0D
03A02:  MOVWF  FA9
03A04:  CLRF   FA8
03A06:  BCF    FA6.6
03A08:  BCF    FA6.7
03A0A:  BSF    FA6.2
03A0C:  MOVF   FF2,W
03A0E:  MOVWF  00
03A10:  BCF    FF2.6
03A12:  BCF    FF2.7
03A14:  MOVLB  F
03A16:  MOVLW  55
03A18:  MOVWF  FA7
03A1A:  MOVLW  AA
03A1C:  MOVWF  FA7
03A1E:  BSF    FA6.1
03A20:  BTFSC  FA6.1
03A22:  BRA    3A20
03A24:  BCF    FA6.2
03A26:  MOVF   00,W
03A28:  IORWF  FF2,F
....................       delay_ms(10); 
03A2A:  MOVLW  0A
03A2C:  MOVLB  4
03A2E:  MOVWF  x29
03A30:  MOVLB  0
03A32:  CALL   19C2
....................    } 
....................    if(Ganancia>12.0 || Ganancia<1){ 
03A36:  MOVLB  4
03A38:  CLRF   x1B
03A3A:  CLRF   x1A
03A3C:  MOVLW  40
03A3E:  MOVWF  x19
03A40:  MOVLW  82
03A42:  MOVWF  x18
03A44:  MOVFF  2FB,41F
03A48:  MOVFF  2FA,41E
03A4C:  MOVFF  2F9,41D
03A50:  MOVFF  2F8,41C
03A54:  MOVLB  0
03A56:  CALL   1FE2
03A5A:  BC    3A80
03A5C:  MOVFF  2FB,41B
03A60:  MOVFF  2FA,41A
03A64:  MOVFF  2F9,419
03A68:  MOVFF  2F8,418
03A6C:  MOVLB  4
03A6E:  CLRF   x1F
03A70:  CLRF   x1E
03A72:  CLRF   x1D
03A74:  MOVLW  7F
03A76:  MOVWF  x1C
03A78:  MOVLB  0
03A7A:  CALL   1FE2
03A7E:  BNC   3AC8
....................       Ganancia=12.0; 
03A80:  MOVLB  2
03A82:  CLRF   xFB
03A84:  CLRF   xFA
03A86:  MOVLW  40
03A88:  MOVWF  xF9
03A8A:  MOVLW  82
03A8C:  MOVWF  xF8
....................       write_eeprom(20,12); 
03A8E:  CLRF   FAA
03A90:  MOVLW  14
03A92:  MOVWF  FA9
03A94:  MOVLW  0C
03A96:  MOVWF  FA8
03A98:  BCF    FA6.6
03A9A:  BCF    FA6.7
03A9C:  BSF    FA6.2
03A9E:  MOVF   FF2,W
03AA0:  MOVWF  00
03AA2:  BCF    FF2.6
03AA4:  BCF    FF2.7
03AA6:  MOVLB  F
03AA8:  MOVLW  55
03AAA:  MOVWF  FA7
03AAC:  MOVLW  AA
03AAE:  MOVWF  FA7
03AB0:  BSF    FA6.1
03AB2:  BTFSC  FA6.1
03AB4:  BRA    3AB2
03AB6:  BCF    FA6.2
03AB8:  MOVF   00,W
03ABA:  IORWF  FF2,F
....................       delay_ms(10); 
03ABC:  MOVLW  0A
03ABE:  MOVLB  4
03AC0:  MOVWF  x29
03AC2:  MOVLB  0
03AC4:  CALL   19C2
....................    } 
....................    if(Ajuste>200){ 
03AC8:  MOVLB  2
03ACA:  MOVF   xCA,W
03ACC:  SUBLW  C8
03ACE:  BC    3B0C
....................       Ajuste=0; 
03AD0:  CLRF   xCA
....................       write_eeprom(21,0); 
03AD2:  CLRF   FAA
03AD4:  MOVLW  15
03AD6:  MOVWF  FA9
03AD8:  CLRF   FA8
03ADA:  BCF    FA6.6
03ADC:  BCF    FA6.7
03ADE:  BSF    FA6.2
03AE0:  MOVF   FF2,W
03AE2:  MOVWF  00
03AE4:  BCF    FF2.6
03AE6:  BCF    FF2.7
03AE8:  MOVLB  F
03AEA:  MOVLW  55
03AEC:  MOVWF  FA7
03AEE:  MOVLW  AA
03AF0:  MOVWF  FA7
03AF2:  BSF    FA6.1
03AF4:  BTFSC  FA6.1
03AF6:  BRA    3AF4
03AF8:  BCF    FA6.2
03AFA:  MOVF   00,W
03AFC:  IORWF  FF2,F
....................       delay_ms(10); 
03AFE:  MOVLW  0A
03B00:  MOVLB  4
03B02:  MOVWF  x29
03B04:  MOVLB  0
03B06:  CALL   19C2
03B0A:  MOVLB  2
....................    } 
....................    if(Ajusten>200){ 
03B0C:  MOVF   xCB,W
03B0E:  SUBLW  C8
03B10:  BC    3B4E
....................       Ajusten=0; 
03B12:  CLRF   xCB
....................       write_eeprom(22,0); 
03B14:  CLRF   FAA
03B16:  MOVLW  16
03B18:  MOVWF  FA9
03B1A:  CLRF   FA8
03B1C:  BCF    FA6.6
03B1E:  BCF    FA6.7
03B20:  BSF    FA6.2
03B22:  MOVF   FF2,W
03B24:  MOVWF  00
03B26:  BCF    FF2.6
03B28:  BCF    FF2.7
03B2A:  MOVLB  F
03B2C:  MOVLW  55
03B2E:  MOVWF  FA7
03B30:  MOVLW  AA
03B32:  MOVWF  FA7
03B34:  BSF    FA6.1
03B36:  BTFSC  FA6.1
03B38:  BRA    3B36
03B3A:  BCF    FA6.2
03B3C:  MOVF   00,W
03B3E:  IORWF  FF2,F
....................       delay_ms(10); 
03B40:  MOVLW  0A
03B42:  MOVLB  4
03B44:  MOVWF  x29
03B46:  MOVLB  0
03B48:  CALL   19C2
03B4C:  MOVLB  2
....................    } 
....................    if(MediaMovil>80 || MediaMovil<10){ 
03B4E:  MOVF   xCC,W
03B50:  SUBLW  50
03B52:  BNC   3B5A
03B54:  MOVF   xCC,W
03B56:  SUBLW  09
03B58:  BNC   3B98
....................       MediaMovil=80; 
03B5A:  MOVLW  50
03B5C:  MOVWF  xCC
....................       write_eeprom(24,80); 
03B5E:  CLRF   FAA
03B60:  MOVLW  18
03B62:  MOVWF  FA9
03B64:  MOVLW  50
03B66:  MOVWF  FA8
03B68:  BCF    FA6.6
03B6A:  BCF    FA6.7
03B6C:  BSF    FA6.2
03B6E:  MOVF   FF2,W
03B70:  MOVWF  00
03B72:  BCF    FF2.6
03B74:  BCF    FF2.7
03B76:  MOVLB  F
03B78:  MOVLW  55
03B7A:  MOVWF  FA7
03B7C:  MOVLW  AA
03B7E:  MOVWF  FA7
03B80:  BSF    FA6.1
03B82:  BTFSC  FA6.1
03B84:  BRA    3B82
03B86:  BCF    FA6.2
03B88:  MOVF   00,W
03B8A:  IORWF  FF2,F
....................       delay_ms(10); 
03B8C:  MOVLW  0A
03B8E:  MOVLB  4
03B90:  MOVWF  x29
03B92:  MOVLB  0
03B94:  CALL   19C2
....................    } 
....................    if(Tciclo>10 || Tciclo<5){ 
03B98:  MOVLB  4
03B9A:  CLRF   x1B
03B9C:  CLRF   x1A
03B9E:  MOVLW  20
03BA0:  MOVWF  x19
03BA2:  MOVLW  82
03BA4:  MOVWF  x18
03BA6:  MOVFF  2E3,41F
03BAA:  MOVFF  2E2,41E
03BAE:  MOVFF  2E1,41D
03BB2:  MOVFF  2E0,41C
03BB6:  MOVLB  0
03BB8:  CALL   1FE2
03BBC:  BC    3BE4
03BBE:  MOVFF  2E3,41B
03BC2:  MOVFF  2E2,41A
03BC6:  MOVFF  2E1,419
03BCA:  MOVFF  2E0,418
03BCE:  MOVLB  4
03BD0:  CLRF   x1F
03BD2:  CLRF   x1E
03BD4:  MOVLW  20
03BD6:  MOVWF  x1D
03BD8:  MOVLW  81
03BDA:  MOVWF  x1C
03BDC:  MOVLB  0
03BDE:  CALL   1FE2
03BE2:  BNC   3C2C
....................       Tciclo=10; 
03BE4:  MOVLB  2
03BE6:  CLRF   xE3
03BE8:  CLRF   xE2
03BEA:  MOVLW  20
03BEC:  MOVWF  xE1
03BEE:  MOVLW  82
03BF0:  MOVWF  xE0
....................       write_eeprom(25,10); 
03BF2:  CLRF   FAA
03BF4:  MOVLW  19
03BF6:  MOVWF  FA9
03BF8:  MOVLW  0A
03BFA:  MOVWF  FA8
03BFC:  BCF    FA6.6
03BFE:  BCF    FA6.7
03C00:  BSF    FA6.2
03C02:  MOVF   FF2,W
03C04:  MOVWF  00
03C06:  BCF    FF2.6
03C08:  BCF    FF2.7
03C0A:  MOVLB  F
03C0C:  MOVLW  55
03C0E:  MOVWF  FA7
03C10:  MOVLW  AA
03C12:  MOVWF  FA7
03C14:  BSF    FA6.1
03C16:  BTFSC  FA6.1
03C18:  BRA    3C16
03C1A:  BCF    FA6.2
03C1C:  MOVF   00,W
03C1E:  IORWF  FF2,F
....................       delay_ms(10); 
03C20:  MOVLW  0A
03C22:  MOVLB  4
03C24:  MOVWF  x29
03C26:  MOVLB  0
03C28:  CALL   19C2
....................    } 
....................    if(Integral>2.0 || Integral<1){ 
03C2C:  MOVLB  4
03C2E:  CLRF   x2A
03C30:  MOVFF  32C,429
03C34:  MOVLB  0
03C36:  CALL   19EA
03C3A:  MOVLB  4
03C3C:  CLRF   x1B
03C3E:  CLRF   x1A
03C40:  CLRF   x19
03C42:  MOVLW  80
03C44:  MOVWF  x18
03C46:  MOVFF  03,41F
03C4A:  MOVFF  02,41E
03C4E:  MOVFF  01,41D
03C52:  MOVFF  00,41C
03C56:  MOVLB  0
03C58:  CALL   1FE2
03C5C:  BC    3C66
03C5E:  MOVLB  3
03C60:  MOVF   x2C,F
03C62:  BNZ   3CA6
03C64:  MOVLB  0
....................       Integral=1.0; 
03C66:  MOVLW  01
03C68:  MOVLB  3
03C6A:  MOVWF  x2C
....................       write_eeprom(26,1); 
03C6C:  CLRF   FAA
03C6E:  MOVLW  1A
03C70:  MOVWF  FA9
03C72:  MOVLW  01
03C74:  MOVWF  FA8
03C76:  BCF    FA6.6
03C78:  BCF    FA6.7
03C7A:  BSF    FA6.2
03C7C:  MOVF   FF2,W
03C7E:  MOVWF  00
03C80:  BCF    FF2.6
03C82:  BCF    FF2.7
03C84:  MOVLB  F
03C86:  MOVLW  55
03C88:  MOVWF  FA7
03C8A:  MOVLW  AA
03C8C:  MOVWF  FA7
03C8E:  BSF    FA6.1
03C90:  BTFSC  FA6.1
03C92:  BRA    3C90
03C94:  BCF    FA6.2
03C96:  MOVF   00,W
03C98:  IORWF  FF2,F
....................       delay_ms(10); 
03C9A:  MOVLW  0A
03C9C:  MOVLB  4
03C9E:  MOVWF  x29
03CA0:  MOVLB  0
03CA2:  CALL   19C2
....................    } 
....................    if(Derivativo>20.0 || Derivativo<5){ 
03CA6:  MOVLB  4
03CA8:  CLRF   x2A
03CAA:  MOVFF  32D,429
03CAE:  MOVLB  0
03CB0:  CALL   19EA
03CB4:  MOVLB  4
03CB6:  CLRF   x1B
03CB8:  CLRF   x1A
03CBA:  MOVLW  20
03CBC:  MOVWF  x19
03CBE:  MOVLW  83
03CC0:  MOVWF  x18
03CC2:  MOVFF  03,41F
03CC6:  MOVFF  02,41E
03CCA:  MOVFF  01,41D
03CCE:  MOVFF  00,41C
03CD2:  MOVLB  0
03CD4:  CALL   1FE2
03CD8:  BC    3CE4
03CDA:  MOVLB  3
03CDC:  MOVF   x2D,W
03CDE:  SUBLW  04
03CE0:  BNC   3D24
03CE2:  MOVLB  0
....................       Derivativo=15.0; 
03CE4:  MOVLW  0F
03CE6:  MOVLB  3
03CE8:  MOVWF  x2D
....................       write_eeprom(27,15); 
03CEA:  CLRF   FAA
03CEC:  MOVLW  1B
03CEE:  MOVWF  FA9
03CF0:  MOVLW  0F
03CF2:  MOVWF  FA8
03CF4:  BCF    FA6.6
03CF6:  BCF    FA6.7
03CF8:  BSF    FA6.2
03CFA:  MOVF   FF2,W
03CFC:  MOVWF  00
03CFE:  BCF    FF2.6
03D00:  BCF    FF2.7
03D02:  MOVLB  F
03D04:  MOVLW  55
03D06:  MOVWF  FA7
03D08:  MOVLW  AA
03D0A:  MOVWF  FA7
03D0C:  BSF    FA6.1
03D0E:  BTFSC  FA6.1
03D10:  BRA    3D0E
03D12:  BCF    FA6.2
03D14:  MOVF   00,W
03D16:  IORWF  FF2,F
....................       delay_ms(10); 
03D18:  MOVLW  0A
03D1A:  MOVLB  4
03D1C:  MOVWF  x29
03D1E:  MOVLB  0
03D20:  CALL   19C2
....................    } 
....................    if(Gain>50){ 
03D24:  MOVLB  4
03D26:  CLRF   x1B
03D28:  CLRF   x1A
03D2A:  MOVLW  48
03D2C:  MOVWF  x19
03D2E:  MOVLW  84
03D30:  MOVWF  x18
03D32:  MOVFF  2A3,41F
03D36:  MOVFF  2A2,41E
03D3A:  MOVFF  2A1,41D
03D3E:  MOVFF  2A0,41C
03D42:  MOVLB  0
03D44:  CALL   1FE2
03D48:  BNC   3DD0
....................       Gain=40.2; 
03D4A:  MOVLW  CD
03D4C:  MOVLB  2
03D4E:  MOVWF  xA3
03D50:  MOVLW  CC
03D52:  MOVWF  xA2
03D54:  MOVLW  20
03D56:  MOVWF  xA1
03D58:  MOVLW  84
03D5A:  MOVWF  xA0
....................       write_eeprom(28,40); 
03D5C:  CLRF   FAA
03D5E:  MOVLW  1C
03D60:  MOVWF  FA9
03D62:  MOVLW  28
03D64:  MOVWF  FA8
03D66:  BCF    FA6.6
03D68:  BCF    FA6.7
03D6A:  BSF    FA6.2
03D6C:  MOVF   FF2,W
03D6E:  MOVWF  00
03D70:  BCF    FF2.6
03D72:  BCF    FF2.7
03D74:  MOVLB  F
03D76:  MOVLW  55
03D78:  MOVWF  FA7
03D7A:  MOVLW  AA
03D7C:  MOVWF  FA7
03D7E:  BSF    FA6.1
03D80:  BTFSC  FA6.1
03D82:  BRA    3D80
03D84:  BCF    FA6.2
03D86:  MOVF   00,W
03D88:  IORWF  FF2,F
....................       delay_ms(10); 
03D8A:  MOVLW  0A
03D8C:  MOVLB  4
03D8E:  MOVWF  x29
03D90:  MOVLB  0
03D92:  CALL   19C2
....................       write_eeprom(29,2); 
03D96:  CLRF   FAA
03D98:  MOVLW  1D
03D9A:  MOVWF  FA9
03D9C:  MOVLW  02
03D9E:  MOVWF  FA8
03DA0:  BCF    FA6.6
03DA2:  BCF    FA6.7
03DA4:  BSF    FA6.2
03DA6:  MOVF   FF2,W
03DA8:  MOVWF  00
03DAA:  BCF    FF2.6
03DAC:  BCF    FF2.7
03DAE:  MOVLB  F
03DB0:  MOVLW  55
03DB2:  MOVWF  FA7
03DB4:  MOVLW  AA
03DB6:  MOVWF  FA7
03DB8:  BSF    FA6.1
03DBA:  BTFSC  FA6.1
03DBC:  BRA    3DBA
03DBE:  BCF    FA6.2
03DC0:  MOVF   00,W
03DC2:  IORWF  FF2,F
....................       delay_ms(10); 
03DC4:  MOVLW  0A
03DC6:  MOVLB  4
03DC8:  MOVWF  x29
03DCA:  MOVLB  0
03DCC:  CALL   19C2
....................    } 
....................    if(R1>6400){ 
03DD0:  MOVLB  4
03DD2:  CLRF   x1B
03DD4:  CLRF   x1A
03DD6:  MOVLW  48
03DD8:  MOVWF  x19
03DDA:  MOVLW  8B
03DDC:  MOVWF  x18
03DDE:  MOVFF  2AF,41F
03DE2:  MOVFF  2AE,41E
03DE6:  MOVFF  2AD,41D
03DEA:  MOVFF  2AC,41C
03DEE:  MOVLB  0
03DF0:  CALL   1FE2
03DF4:  BNC   3E7A
....................       R1=6200; 
03DF6:  MOVLB  2
03DF8:  CLRF   xAF
03DFA:  MOVLW  C0
03DFC:  MOVWF  xAE
03DFE:  MOVLW  41
03E00:  MOVWF  xAD
03E02:  MOVLW  8B
03E04:  MOVWF  xAC
....................       write_eeprom(30,0x38); 
03E06:  CLRF   FAA
03E08:  MOVLW  1E
03E0A:  MOVWF  FA9
03E0C:  MOVLW  38
03E0E:  MOVWF  FA8
03E10:  BCF    FA6.6
03E12:  BCF    FA6.7
03E14:  BSF    FA6.2
03E16:  MOVF   FF2,W
03E18:  MOVWF  00
03E1A:  BCF    FF2.6
03E1C:  BCF    FF2.7
03E1E:  MOVLB  F
03E20:  MOVLW  55
03E22:  MOVWF  FA7
03E24:  MOVLW  AA
03E26:  MOVWF  FA7
03E28:  BSF    FA6.1
03E2A:  BTFSC  FA6.1
03E2C:  BRA    3E2A
03E2E:  BCF    FA6.2
03E30:  MOVF   00,W
03E32:  IORWF  FF2,F
....................       delay_ms(10); 
03E34:  MOVLW  0A
03E36:  MOVLB  4
03E38:  MOVWF  x29
03E3A:  MOVLB  0
03E3C:  CALL   19C2
....................       write_eeprom(31,0x18); 
03E40:  CLRF   FAA
03E42:  MOVLW  1F
03E44:  MOVWF  FA9
03E46:  MOVLW  18
03E48:  MOVWF  FA8
03E4A:  BCF    FA6.6
03E4C:  BCF    FA6.7
03E4E:  BSF    FA6.2
03E50:  MOVF   FF2,W
03E52:  MOVWF  00
03E54:  BCF    FF2.6
03E56:  BCF    FF2.7
03E58:  MOVLB  F
03E5A:  MOVLW  55
03E5C:  MOVWF  FA7
03E5E:  MOVLW  AA
03E60:  MOVWF  FA7
03E62:  BSF    FA6.1
03E64:  BTFSC  FA6.1
03E66:  BRA    3E64
03E68:  BCF    FA6.2
03E6A:  MOVF   00,W
03E6C:  IORWF  FF2,F
....................       delay_ms(10); 
03E6E:  MOVLW  0A
03E70:  MOVLB  4
03E72:  MOVWF  x29
03E74:  MOVLB  0
03E76:  CALL   19C2
....................    } 
....................    if(RPT100>2.0){ 
03E7A:  MOVLB  4
03E7C:  CLRF   x1B
03E7E:  CLRF   x1A
03E80:  CLRF   x19
03E82:  MOVLW  80
03E84:  MOVWF  x18
03E86:  MOVFF  2A7,41F
03E8A:  MOVFF  2A6,41E
03E8E:  MOVFF  2A5,41D
03E92:  MOVFF  2A4,41C
03E96:  MOVLB  0
03E98:  CALL   1FE2
03E9C:  BNC   3F1C
....................       RPT100=0.5; 
03E9E:  MOVLB  2
03EA0:  CLRF   xA7
03EA2:  CLRF   xA6
03EA4:  CLRF   xA5
03EA6:  MOVLW  7E
03EA8:  MOVWF  xA4
....................       write_eeprom(32,0); 
03EAA:  CLRF   FAA
03EAC:  MOVLW  20
03EAE:  MOVWF  FA9
03EB0:  CLRF   FA8
03EB2:  BCF    FA6.6
03EB4:  BCF    FA6.7
03EB6:  BSF    FA6.2
03EB8:  MOVF   FF2,W
03EBA:  MOVWF  00
03EBC:  BCF    FF2.6
03EBE:  BCF    FF2.7
03EC0:  MOVLB  F
03EC2:  MOVLW  55
03EC4:  MOVWF  FA7
03EC6:  MOVLW  AA
03EC8:  MOVWF  FA7
03ECA:  BSF    FA6.1
03ECC:  BTFSC  FA6.1
03ECE:  BRA    3ECC
03ED0:  BCF    FA6.2
03ED2:  MOVF   00,W
03ED4:  IORWF  FF2,F
....................       delay_ms(10); 
03ED6:  MOVLW  0A
03ED8:  MOVLB  4
03EDA:  MOVWF  x29
03EDC:  MOVLB  0
03EDE:  CALL   19C2
....................       write_eeprom(33,5); 
03EE2:  CLRF   FAA
03EE4:  MOVLW  21
03EE6:  MOVWF  FA9
03EE8:  MOVLW  05
03EEA:  MOVWF  FA8
03EEC:  BCF    FA6.6
03EEE:  BCF    FA6.7
03EF0:  BSF    FA6.2
03EF2:  MOVF   FF2,W
03EF4:  MOVWF  00
03EF6:  BCF    FF2.6
03EF8:  BCF    FF2.7
03EFA:  MOVLB  F
03EFC:  MOVLW  55
03EFE:  MOVWF  FA7
03F00:  MOVLW  AA
03F02:  MOVWF  FA7
03F04:  BSF    FA6.1
03F06:  BTFSC  FA6.1
03F08:  BRA    3F06
03F0A:  BCF    FA6.2
03F0C:  MOVF   00,W
03F0E:  IORWF  FF2,F
....................       delay_ms(10); 
03F10:  MOVLW  0A
03F12:  MOVLB  4
03F14:  MOVWF  x29
03F16:  MOVLB  0
03F18:  CALL   19C2
....................    } 
....................    if(Ciclos>60000){ 
03F1C:  MOVLB  3
03F1E:  MOVF   x58,W
03F20:  SUBLW  E9
03F22:  BC    3FA2
03F24:  XORLW  FF
03F26:  BNZ   3F2E
03F28:  MOVF   x57,W
03F2A:  SUBLW  60
03F2C:  BC    3FA2
....................       Ciclos=0; 
03F2E:  CLRF   x58
03F30:  CLRF   x57
....................       write_eeprom(37,0); 
03F32:  CLRF   FAA
03F34:  MOVLW  25
03F36:  MOVWF  FA9
03F38:  CLRF   FA8
03F3A:  BCF    FA6.6
03F3C:  BCF    FA6.7
03F3E:  BSF    FA6.2
03F40:  MOVF   FF2,W
03F42:  MOVWF  00
03F44:  BCF    FF2.6
03F46:  BCF    FF2.7
03F48:  MOVLB  F
03F4A:  MOVLW  55
03F4C:  MOVWF  FA7
03F4E:  MOVLW  AA
03F50:  MOVWF  FA7
03F52:  BSF    FA6.1
03F54:  BTFSC  FA6.1
03F56:  BRA    3F54
03F58:  BCF    FA6.2
03F5A:  MOVF   00,W
03F5C:  IORWF  FF2,F
....................       delay_ms(10); 
03F5E:  MOVLW  0A
03F60:  MOVLB  4
03F62:  MOVWF  x29
03F64:  MOVLB  0
03F66:  CALL   19C2
....................       write_eeprom(38,0); 
03F6A:  CLRF   FAA
03F6C:  MOVLW  26
03F6E:  MOVWF  FA9
03F70:  CLRF   FA8
03F72:  BCF    FA6.6
03F74:  BCF    FA6.7
03F76:  BSF    FA6.2
03F78:  MOVF   FF2,W
03F7A:  MOVWF  00
03F7C:  BCF    FF2.6
03F7E:  BCF    FF2.7
03F80:  MOVLB  F
03F82:  MOVLW  55
03F84:  MOVWF  FA7
03F86:  MOVLW  AA
03F88:  MOVWF  FA7
03F8A:  BSF    FA6.1
03F8C:  BTFSC  FA6.1
03F8E:  BRA    3F8C
03F90:  BCF    FA6.2
03F92:  MOVF   00,W
03F94:  IORWF  FF2,F
....................       delay_ms(10); 
03F96:  MOVLW  0A
03F98:  MOVLB  4
03F9A:  MOVWF  x29
03F9C:  MOVLB  0
03F9E:  CALL   19C2
....................    } 
....................    if(TTrampa>100 || TTrampa<80){ 
03FA2:  MOVLB  2
03FA4:  MOVF   xCD,W
03FA6:  SUBLW  64
03FA8:  BNC   3FB0
03FAA:  MOVF   xCD,W
03FAC:  SUBLW  4F
03FAE:  BNC   3FEE
....................       TTrampa=80; 
03FB0:  MOVLW  50
03FB2:  MOVWF  xCD
....................       write_eeprom(39,80); 
03FB4:  CLRF   FAA
03FB6:  MOVLW  27
03FB8:  MOVWF  FA9
03FBA:  MOVLW  50
03FBC:  MOVWF  FA8
03FBE:  BCF    FA6.6
03FC0:  BCF    FA6.7
03FC2:  BSF    FA6.2
03FC4:  MOVF   FF2,W
03FC6:  MOVWF  00
03FC8:  BCF    FF2.6
03FCA:  BCF    FF2.7
03FCC:  MOVLB  F
03FCE:  MOVLW  55
03FD0:  MOVWF  FA7
03FD2:  MOVLW  AA
03FD4:  MOVWF  FA7
03FD6:  BSF    FA6.1
03FD8:  BTFSC  FA6.1
03FDA:  BRA    3FD8
03FDC:  BCF    FA6.2
03FDE:  MOVF   00,W
03FE0:  IORWF  FF2,F
....................       delay_ms(10); 
03FE2:  MOVLW  0A
03FE4:  MOVLB  4
03FE6:  MOVWF  x29
03FE8:  MOVLB  0
03FEA:  CALL   19C2
....................    } 
....................    ActivaImpresion=1; 
03FEE:  MOVLW  01
03FF0:  MOVLB  3
03FF2:  MOVWF  x33
....................    if(timpresion>30){ 
03FF4:  MOVF   x34,W
03FF6:  SUBLW  1E
03FF8:  BC    403A
....................       timpresion=2; 
03FFA:  MOVLW  02
03FFC:  MOVWF  x34
....................       write_eeprom(41,2); 
03FFE:  CLRF   FAA
04000:  MOVLW  29
04002:  MOVWF  FA9
04004:  MOVLW  02
04006:  MOVWF  FA8
04008:  BCF    FA6.6
0400A:  BCF    FA6.7
0400C:  BSF    FA6.2
0400E:  MOVF   FF2,W
04010:  MOVWF  00
04012:  BCF    FF2.6
04014:  BCF    FF2.7
04016:  MOVLB  F
04018:  MOVLW  55
0401A:  MOVWF  FA7
0401C:  MOVLW  AA
0401E:  MOVWF  FA7
04020:  BSF    FA6.1
04022:  BTFSC  FA6.1
04024:  BRA    4022
04026:  BCF    FA6.2
04028:  MOVF   00,W
0402A:  IORWF  FF2,F
....................       delay_ms(10); 
0402C:  MOVLW  0A
0402E:  MOVLB  4
04030:  MOVWF  x29
04032:  MOVLB  0
04034:  CALL   19C2
04038:  MOVLB  3
....................    } 
....................    if(sg1==10){ 
0403A:  MOVF   x86,W
0403C:  SUBLW  0A
0403E:  BNZ   4056
....................       G1=G1*(-1); 
04040:  MOVFF  384,416
04044:  MOVLW  FF
04046:  MOVLB  4
04048:  MOVWF  x17
0404A:  MOVLB  0
0404C:  CALL   35CA
04050:  MOVFF  01,384
04054:  MOVLB  3
....................    } 
....................    if(sg2==10){ 
04056:  MOVF   x87,W
04058:  SUBLW  0A
0405A:  BNZ   4072
....................       G2=G2*(-1); 
0405C:  MOVFF  385,416
04060:  MOVLW  FF
04062:  MOVLB  4
04064:  MOVWF  x17
04066:  MOVLB  0
04068:  CALL   35CA
0406C:  MOVFF  01,385
04070:  MOVLB  3
....................    } 
.................... } 
04072:  MOVLB  0
04074:  GOTO   7952 (RETURN)
....................  
.................... void LeeDisplay(void){ 
....................    if(Dato_Exitoso==5){ 
*
0464E:  MOVLB  3
04650:  MOVF   x37,W
04652:  SUBLW  05
04654:  BTFSS  FD8.2
04656:  BRA    47CC
....................          RX_Buffer[0]=RX_Buffer2[0]; 
04658:  MOVFF  3B,30
....................          RX_Buffer[1]=RX_Buffer2[1]; 
0465C:  MOVFF  3C,31
....................          RX_Buffer[2]=RX_Buffer2[2]; 
04660:  MOVFF  3D,32
....................          RX_Buffer[3]=RX_Buffer2[3]; 
04664:  MOVFF  3E,33
....................          RX_Buffer[4]=RX_Buffer2[4]; 
04668:  MOVFF  3F,34
....................          RX_Buffer[5]=RX_Buffer2[5]; 
0466C:  MOVFF  40,35
....................          RX_Buffer[6]=RX_Buffer2[6]; 
04670:  MOVFF  41,36
....................          RX_Buffer[7]=RX_Buffer2[7]; 
04674:  MOVFF  42,37
....................          RX_Buffer[8]=RX_Buffer2[8]; 
04678:  MOVFF  43,38
....................          RX_Buffer[9]=RX_Buffer2[9]; 
0467C:  MOVFF  44,39
....................           
....................       if(RX_Buffer[3]==0x01){// Pregunta por la pagina en la que esta el display,01 es Contrasea de Acceso 
04680:  DECFSZ 33,W
04682:  BRA    4692
....................          Menu=0; 
04684:  CLRF   x3A
....................          if(MenuAntt!=Menu) 
04686:  MOVF   x3A,W
04688:  SUBWF  x3C,W
0468A:  BZ    4690
....................             MenuAntt=Menu; 
0468C:  MOVFF  33A,33C
....................       }else if(RX_Buffer[3]==0x02){//02 es Menu Principal con PantallaPriincipal=0, y con PantallaPrincipal=1 es Ciclo Libre 
04690:  BRA    47CA
04692:  MOVF   33,W
04694:  SUBLW  02
04696:  BNZ   46A8
....................          Menu=1; 
04698:  MOVLW  01
0469A:  MOVWF  x3A
....................          if(MenuAntt!=Menu) 
0469C:  MOVF   x3A,W
0469E:  SUBWF  x3C,W
046A0:  BZ    46A6
....................             MenuAntt=Menu; 
046A2:  MOVFF  33A,33C
....................       }else if(RX_Buffer[3]==0x03){//03 es Tiempo Esterilizacion 
046A6:  BRA    47CA
046A8:  MOVF   33,W
046AA:  SUBLW  03
046AC:  BNZ   46BE
....................          Menu=2; 
046AE:  MOVLW  02
046B0:  MOVWF  x3A
....................          if(MenuAntt!=Menu) 
046B2:  MOVF   x3A,W
046B4:  SUBWF  x3C,W
046B6:  BZ    46BC
....................             MenuAntt=Menu; 
046B8:  MOVFF  33A,33C
....................       }else if(RX_Buffer[3]==0x04){//04 es Tiempo de Secado 
046BC:  BRA    47CA
046BE:  MOVF   33,W
046C0:  SUBLW  04
046C2:  BNZ   46D4
....................          Menu=3; 
046C4:  MOVLW  03
046C6:  MOVWF  x3A
....................          if(MenuAntt!=Menu) 
046C8:  MOVF   x3A,W
046CA:  SUBWF  x3C,W
046CC:  BZ    46D2
....................             MenuAntt=Menu; 
046CE:  MOVFF  33A,33C
....................       }else if(RX_Buffer[3]==0x05){//05 es Temperatura 
046D2:  BRA    47CA
046D4:  MOVF   33,W
046D6:  SUBLW  05
046D8:  BNZ   46EA
....................          Menu=4; 
046DA:  MOVLW  04
046DC:  MOVWF  x3A
....................          if(MenuAntt!=Menu) 
046DE:  MOVF   x3A,W
046E0:  SUBWF  x3C,W
046E2:  BZ    46E8
....................             MenuAntt=Menu; 
046E4:  MOVFF  33A,33C
....................       }else if(RX_Buffer[3]==0x06){//06 es Nivel 
046E8:  BRA    47CA
046EA:  MOVF   33,W
046EC:  SUBLW  06
046EE:  BNZ   4700
....................          Menu=5; 
046F0:  MOVLW  05
046F2:  MOVWF  x3A
....................          if(MenuAntt!=Menu) 
046F4:  MOVF   x3A,W
046F6:  SUBWF  x3C,W
046F8:  BZ    46FE
....................             MenuAntt=Menu; 
046FA:  MOVFF  33A,33C
....................       }else if(RX_Buffer[3]==0x07){//07 es Test de Componentes 
046FE:  BRA    47CA
04700:  MOVF   33,W
04702:  SUBLW  07
04704:  BNZ   4716
....................          Menu=6; 
04706:  MOVLW  06
04708:  MOVWF  x3A
....................          if(MenuAntt!=Menu) 
0470A:  MOVF   x3A,W
0470C:  SUBWF  x3C,W
0470E:  BZ    4714
....................             MenuAntt=Menu; 
04710:  MOVFF  33A,33C
....................       }else if(RX_Buffer[3]==0x08){//08 es Fecha y hora 
04714:  BRA    47CA
04716:  MOVF   33,W
04718:  SUBLW  08
0471A:  BNZ   472C
....................          Menu=7; 
0471C:  MOVLW  07
0471E:  MOVWF  x3A
....................          if(MenuAntt!=Menu) 
04720:  MOVF   x3A,W
04722:  SUBWF  x3C,W
04724:  BZ    472A
....................             MenuAntt=Menu; 
04726:  MOVFF  33A,33C
....................       }else if(RX_Buffer[3]==0x09){//09 es Ciclos Personalizados 
0472A:  BRA    47CA
0472C:  MOVF   33,W
0472E:  SUBLW  09
04730:  BNZ   4742
....................          Menu=8; 
04732:  MOVLW  08
04734:  MOVWF  x3A
....................          if(MenuAntt!=Menu) 
04736:  MOVF   x3A,W
04738:  SUBWF  x3C,W
0473A:  BZ    4740
....................             MenuAntt=Menu; 
0473C:  MOVFF  33A,33C
....................       }else if(RX_Buffer[3]==0x0d){//0d es Ciclos 
04740:  BRA    47CA
04742:  MOVF   33,W
04744:  SUBLW  0D
04746:  BNZ   4758
....................          Menu=12; 
04748:  MOVLW  0C
0474A:  MOVWF  x3A
....................          if(MenuAntt!=Menu) 
0474C:  MOVF   x3A,W
0474E:  SUBWF  x3C,W
04750:  BZ    4756
....................             MenuAntt=Menu; 
04752:  MOVFF  33A,33C
....................       }else if(RX_Buffer[3]==0x0f){//0f es Recibe caracteres de contrasea desde display 
04756:  BRA    47CA
04758:  MOVF   33,W
0475A:  SUBLW  0F
0475C:  BNZ   4760
....................           
....................       }else if(RX_Buffer[3]==0x1a){//1a es Menu de Funcionamiento 
0475E:  BRA    47CA
04760:  MOVF   33,W
04762:  SUBLW  1A
04764:  BNZ   4776
....................          Menu=20; 
04766:  MOVLW  14
04768:  MOVWF  x3A
....................          if(MenuAntt!=Menu) 
0476A:  MOVF   x3A,W
0476C:  SUBWF  x3C,W
0476E:  BZ    4774
....................             MenuAntt=Menu; 
04770:  MOVFF  33A,33C
....................       }else if(RX_Buffer[3]==0x1b){//1b es Menu de clave correcta 
04774:  BRA    47CA
04776:  MOVF   33,W
04778:  SUBLW  1B
0477A:  BNZ   478C
....................          Menu=15; 
0477C:  MOVLW  0F
0477E:  MOVWF  x3A
....................          if(MenuAntt!=Menu) 
04780:  MOVF   x3A,W
04782:  SUBWF  x3C,W
04784:  BZ    478A
....................             MenuAntt=Menu; 
04786:  MOVFF  33A,33C
....................       }else if(RX_Buffer[3]==0x1c){//1c es Menu de clave incorrecta 
0478A:  BRA    47CA
0478C:  MOVF   33,W
0478E:  SUBLW  1C
04790:  BNZ   47A2
....................          Menu=16; 
04792:  MOVLW  10
04794:  MOVWF  x3A
....................          if(MenuAntt!=Menu) 
04796:  MOVF   x3A,W
04798:  SUBWF  x3C,W
0479A:  BZ    47A0
....................             MenuAntt=Menu; 
0479C:  MOVFF  33A,33C
....................       }else if(RX_Buffer[3]==0x2c){//2c es Menu de Configuracion de Parametros 
047A0:  BRA    47CA
047A2:  MOVF   33,W
047A4:  SUBLW  2C
047A6:  BNZ   47B8
....................          Menu=100; 
047A8:  MOVLW  64
047AA:  MOVWF  x3A
....................          if(MenuAntt!=Menu) 
047AC:  MOVF   x3A,W
047AE:  SUBWF  x3C,W
047B0:  BZ    47B6
....................             MenuAntt=Menu; 
047B2:  MOVFF  33A,33C
....................       }else if(RX_Buffer[3]==0xcc){//cc es Menu de Bienvenida 
047B6:  BRA    47CA
047B8:  MOVF   33,W
047BA:  SUBLW  CC
047BC:  BNZ   47CA
....................          Menu=240; 
047BE:  MOVLW  F0
047C0:  MOVWF  x3A
....................          if(MenuAntt!=240) 
047C2:  MOVF   x3C,W
047C4:  SUBLW  F0
047C6:  BZ    47CA
....................             reset_cpu(); 
047C8:  RESET
....................       } 
....................    }else{ 
047CA:  BRA    47D8
....................       for(z=0;z<RX_BUFFER_SIZE;z++){ 
047CC:  CLRF   x39
047CE:  MOVF   x39,W
047D0:  SUBLW  09
047D2:  BNC   47D8
....................             //Rx_Buffer[z]=0; 
....................             //Rx_Buffer2[z]=0; 
....................          } 
047D4:  INCF   x39,F
047D6:  BRA    47CE
....................    } 
.................... } 
047D8:  MOVLB  0
047DA:  GOTO   7A7A (RETURN)
....................  
.................... void ConfiguraCiclo(int8 este0,este1,este2,este3,secado0,secado1,secado2,secado3,liquidos,ciclo,temperatura){ 
....................    Testerilizacionp[0]=este0;Testerilizacionp[1]=este1;Testerilizacionp[2]=este2;Testerilizacionp[3]=este3; 
*
05070:  MOVFF  41E,B3
05074:  MOVFF  41F,B4
05078:  MOVFF  420,B5
0507C:  MOVFF  421,B6
....................    Tsecadop[0]=secado0;Tsecadop[1]=secado1;Tsecadop[2]=secado2;Tsecadop[3]=secado3; 
05080:  MOVFF  422,BC
05084:  MOVFF  423,BD
05088:  MOVFF  424,BE
0508C:  MOVFF  425,BF
....................    Setpoint=temperatura;                
05090:  MOVFF  428,341
....................    tiempo_secado=0; 
05094:  MOVLB  3
05096:  CLRF   x45
....................    desfoguelento=liquidos; 
05098:  BCF    x2F.0
0509A:  MOVLB  4
0509C:  BTFSS  x26.0
0509E:  BRA    50A6
050A0:  MOVLB  3
050A2:  BSF    x2F.0
050A4:  MOVLB  4
....................    CicloSeleccionado=ciclo; 
050A6:  MOVFF  427,340
....................    Imprime=15; 
050AA:  MOVLW  0F
050AC:  MOVLB  3
050AE:  MOVWF  x83
....................    Envio_Esclavos(); 
050B0:  MOVLB  0
050B2:  RCALL  4964
....................    delay_ms(100); 
050B4:  MOVLW  64
050B6:  MOVLB  4
050B8:  MOVWF  x29
050BA:  MOVLB  0
050BC:  CALL   19C2
....................    Imprime=10; 
050C0:  MOVLW  0A
050C2:  MOVLB  3
050C4:  MOVWF  x83
....................    Testerilizacion[0]=Testerilizacionp[0];Testerilizacion[1]=Testerilizacionp[1];Testerilizacion[2]=Testerilizacionp[2]; 
050C6:  MOVFF  B3,AE
050CA:  MOVFF  B4,AF
050CE:  MOVFF  B5,B0
....................    Testerilizacion[3]=Testerilizacionp[3];Testerilizacion[4]=Testerilizacionp[4]; 
050D2:  MOVFF  B6,B1
050D6:  MOVFF  B7,B2
....................    Tsecado[0]=Tsecadop[0];Tsecado[1]=Tsecadop[1];Tsecado[2]=Tsecadop[2];Tsecado[3]=Tsecadop[3]; 
050DA:  MOVFF  BC,B8
050DE:  MOVFF  BD,B9
050E2:  MOVFF  BE,BA
050E6:  MOVFF  BF,BB
....................    if(Setpoint<80){ 
050EA:  MOVF   x41,W
050EC:  SUBLW  4F
050EE:  BNC   50FE
....................       Ganancia=1; 
050F0:  MOVLB  2
050F2:  CLRF   xFB
050F4:  CLRF   xFA
050F6:  CLRF   xF9
050F8:  MOVLW  7F
050FA:  MOVWF  xF8
050FC:  MOVLB  3
....................    } 
.................... } 
050FE:  MOVLB  0
05100:  RETLW  00
....................  
.................... void ActivaAlarma(int8 Tipo){ 
....................     
....................    if(tsilencio>12000){ 
*
04C2A:  MOVLB  3
04C2C:  MOVF   x71,W
04C2E:  SUBLW  2D
04C30:  BC    4C44
04C32:  XORLW  FF
04C34:  BNZ   4C3C
04C36:  MOVF   x70,W
04C38:  SUBLW  E0
04C3A:  BC    4C44
....................       tsilencio=0; 
04C3C:  CLRF   x71
04C3E:  CLRF   x70
....................       flagSilencio=OFF; 
04C40:  MOVLB  0
04C42:  BCF    xA3.2
....................    } 
....................     
....................    if(Tipo==1){ // Alarma por Error 
04C44:  MOVLB  4
04C46:  DECFSZ x14,W
04C48:  BRA    4CA0
....................    if(UP || DOWN || RIGHT || LEFT) 
04C4A:  BSF    F93.0
04C4C:  BTFSS  F81.0
04C4E:  BRA    4C62
04C50:  BSF    F93.1
04C52:  BTFSS  F81.1
04C54:  BRA    4C62
04C56:  BSF    F93.2
04C58:  BTFSS  F81.2
04C5A:  BRA    4C62
04C5C:  BSF    F93.3
04C5E:  BTFSC  F81.3
04C60:  BRA    4C66
....................       flagSilencio=ON; 
04C62:  MOVLB  0
04C64:  BSF    xA3.2
....................        
....................       if(!flagSilencio){ 
04C66:  MOVLB  0
04C68:  BTFSC  xA3.2
04C6A:  BRA    4C96
....................          flagAlarma=1; 
04C6C:  BSF    xA3.0
....................          if(tbuzzer>200){ 
04C6E:  MOVLB  3
04C70:  MOVF   x6F,F
04C72:  BNZ   4C7A
04C74:  MOVF   x6E,W
04C76:  SUBLW  C8
04C78:  BC    4C92
....................             tbuzzer=0; 
04C7A:  CLRF   x6F
04C7C:  CLRF   x6E
....................             flagBuzzer=!flagBuzzer; 
04C7E:  MOVLB  0
04C80:  BTG    xA3.1
....................             if(flagBuzzer) 
04C82:  BTFSS  xA3.1
04C84:  BRA    4C8C
....................                Buzzer_on; 
04C86:  BSF    F8C.0
04C88:  BCF    F95.0
....................             else 
04C8A:  BRA    4C90
....................                Buzzer_off; 
04C8C:  BCF    F8C.0
04C8E:  BCF    F95.0
04C90:  MOVLB  3
....................          } 
....................       }else{ 
04C92:  BRA    4C9C
04C94:  MOVLB  0
....................          Buzzer_off; 
04C96:  BCF    F8C.0
04C98:  BCF    F95.0
04C9A:  MOVLB  3
....................       } 
....................    }else if(Tipo==2){ 
04C9C:  BRA    4CFA
04C9E:  MOVLB  4
04CA0:  MOVF   x14,W
04CA2:  SUBLW  02
04CA4:  BNZ   4CFC
....................    if(UP || DOWN || RIGHT || LEFT) 
04CA6:  BSF    F93.0
04CA8:  BTFSS  F81.0
04CAA:  BRA    4CBE
04CAC:  BSF    F93.1
04CAE:  BTFSS  F81.1
04CB0:  BRA    4CBE
04CB2:  BSF    F93.2
04CB4:  BTFSS  F81.2
04CB6:  BRA    4CBE
04CB8:  BSF    F93.3
04CBA:  BTFSC  F81.3
04CBC:  BRA    4CC4
....................       ConteoBuzzer=21; 
04CBE:  MOVLW  15
04CC0:  MOVLB  3
04CC2:  MOVWF  x6B
....................        
....................       flagAlarma=1; 
04CC4:  MOVLB  0
04CC6:  BSF    xA3.0
....................       if(ConteoBuzzer<20){    
04CC8:  MOVLB  3
04CCA:  MOVF   x6B,W
04CCC:  SUBLW  13
04CCE:  BNC   4CF6
....................          if(tbuzzer>100){ 
04CD0:  MOVF   x6F,F
04CD2:  BNZ   4CDA
04CD4:  MOVF   x6E,W
04CD6:  SUBLW  64
04CD8:  BC    4CF4
....................             tbuzzer=0; 
04CDA:  CLRF   x6F
04CDC:  CLRF   x6E
....................             flagBuzzer=!flagBuzzer; 
04CDE:  MOVLB  0
04CE0:  BTG    xA3.1
....................             if(flagBuzzer) 
04CE2:  BTFSS  xA3.1
04CE4:  BRA    4CEC
....................                Buzzer_on; 
04CE6:  BSF    F8C.0
04CE8:  BCF    F95.0
....................             else 
04CEA:  BRA    4CF0
....................                Buzzer_off; 
04CEC:  BCF    F8C.0
04CEE:  BCF    F95.0
....................                 
....................             ConteoBuzzer++;    
04CF0:  MOVLB  3
04CF2:  INCF   x6B,F
....................          } 
....................       }else{ 
04CF4:  BRA    4CFA
....................          Buzzer_off; 
04CF6:  BCF    F8C.0
04CF8:  BCF    F95.0
04CFA:  MOVLB  4
....................       } 
....................    } 
.................... } 
04CFC:  MOVLB  0
04CFE:  RETLW  00
....................  
.................... void CalientaChaqueta(){ 
....................    if(PresionPrecamara<130){ 
....................       SSR_on; 
....................    }else if(PresionPreCamara>150){ 
....................       SSR_off; 
....................    } 
.................... } 
....................  
.................... void ApagaSalidas(){ 
....................    Desfogue_off; 
*
040E0:  BCF    F8C.4
040E2:  BCF    F95.4
....................    Enfr_off; 
040E4:  BCF    F8C.6
040E6:  BCF    F95.6
....................    //Vent_off; 
....................    Buzzer_off; 
040E8:  BCF    F8C.0
040EA:  BCF    F95.0
....................    SSR_off; 
040EC:  BSF    F8B.2
040EE:  BCF    F94.2
....................    Controlando=0; 
040F0:  MOVLB  3
040F2:  CLRF   x32
.................... } 
040F4:  MOVLB  0
040F6:  RETLW  00
....................  
.................... void purgaAire(){ 
....................    if(!purga){ 
....................       for(i=0;i<4;i++){ 
....................          Desfogue_on; 
....................          delay_ms(2000); 
....................          Desfogue_off; 
....................          delay_ms(1000); 
....................       } 
....................       purga=ON; 
....................    } 
.................... } 
....................  
.................... int8 extraeDecima(int8 tiempo){ 
*
053C4:  MOVLB  4
053C6:  CLRF   x1C
053C8:  CLRF   x1D
....................    int8 tmp=0,decima=0; 
....................    tmp=tiempo/10; 
053CA:  MOVFF  41B,41E
053CE:  MOVLW  0A
053D0:  MOVWF  x1F
053D2:  MOVLB  0
053D4:  RCALL  4D5E
053D6:  MOVFF  01,41C
....................    tmp=tmp*10; 
053DA:  MOVLB  4
053DC:  MOVF   x1C,W
053DE:  MULLW  0A
053E0:  MOVFF  FF3,41C
....................    decima=tiempo-tmp; 
053E4:  MOVF   x1C,W
053E6:  SUBWF  x1B,W
053E8:  MOVWF  x1D
....................    return decima; 
053EA:  MOVFF  41D,01
.................... } 
053EE:  MOVLB  0
053F0:  RETLW  00
....................  
.................... void actualizaTabla(){ 
....................    diaCiclos=read_ext_eeprom(2+(cicloVisto*320)); 
053F2:  MOVLB  4
053F4:  CLRF   x19
053F6:  MOVFF  2D2,418
053FA:  MOVLW  01
053FC:  MOVWF  x1B
053FE:  MOVLW  40
05400:  MOVWF  x1A
05402:  MOVLB  0
05404:  CALL   1DF6
05408:  MOVFF  02,03
0540C:  MOVF   01,W
0540E:  ADDLW  02
05410:  MOVLB  4
05412:  MOVWF  x14
05414:  MOVLW  00
05416:  ADDWFC 02,W
05418:  MOVWF  x15
0541A:  MOVWF  x1A
0541C:  MOVFF  414,419
05420:  MOVLB  0
05422:  CALL   1EFA
05426:  MOVFF  01,3E7
....................          if(diaCiclos>31) 
0542A:  MOVLB  3
0542C:  MOVF   xE7,W
0542E:  SUBLW  1F
05430:  BC    5436
....................             diaCiclos=1; 
05432:  MOVLW  01
05434:  MOVWF  xE7
....................          mesCiclos=read_ext_eeprom(3+(cicloVisto*320)); 
05436:  MOVLB  4
05438:  CLRF   x19
0543A:  MOVFF  2D2,418
0543E:  MOVLW  01
05440:  MOVWF  x1B
05442:  MOVLW  40
05444:  MOVWF  x1A
05446:  MOVLB  0
05448:  CALL   1DF6
0544C:  MOVFF  02,03
05450:  MOVF   01,W
05452:  ADDLW  03
05454:  MOVLB  4
05456:  MOVWF  x14
05458:  MOVLW  00
0545A:  ADDWFC 02,W
0545C:  MOVWF  x15
0545E:  MOVWF  x1A
05460:  MOVFF  414,419
05464:  MOVLB  0
05466:  CALL   1EFA
0546A:  MOVFF  01,3E8
....................          if(mesCiclos>12) 
0546E:  MOVLB  3
05470:  MOVF   xE8,W
05472:  SUBLW  0C
05474:  BC    547A
....................             mesCiclos=1; 
05476:  MOVLW  01
05478:  MOVWF  xE8
....................          yearCiclos=read_ext_eeprom(4+(cicloVisto*320)); 
0547A:  MOVLB  4
0547C:  CLRF   x19
0547E:  MOVFF  2D2,418
05482:  MOVLW  01
05484:  MOVWF  x1B
05486:  MOVLW  40
05488:  MOVWF  x1A
0548A:  MOVLB  0
0548C:  CALL   1DF6
05490:  MOVFF  02,03
05494:  MOVF   01,W
05496:  ADDLW  04
05498:  MOVLB  4
0549A:  MOVWF  x14
0549C:  MOVLW  00
0549E:  ADDWFC 02,W
054A0:  MOVWF  x15
054A2:  MOVWF  x1A
054A4:  MOVFF  414,419
054A8:  MOVLB  0
054AA:  CALL   1EFA
054AE:  MOVFF  01,3E9
....................          if(yearCiclos>99) 
054B2:  MOVLB  3
054B4:  MOVF   xE9,W
054B6:  SUBLW  63
054B8:  BC    54BE
....................             yearCiclos=19; 
054BA:  MOVLW  13
054BC:  MOVWF  xE9
....................          cicloCiclos=read_ext_eeprom(1+(cicloVisto*320)); 
054BE:  MOVLB  4
054C0:  CLRF   x19
054C2:  MOVFF  2D2,418
054C6:  MOVLW  01
054C8:  MOVWF  x1B
054CA:  MOVLW  40
054CC:  MOVWF  x1A
054CE:  MOVLB  0
054D0:  CALL   1DF6
054D4:  MOVFF  02,03
054D8:  MOVF   01,W
054DA:  ADDLW  01
054DC:  MOVLB  4
054DE:  MOVWF  x14
054E0:  MOVLW  00
054E2:  ADDWFC 02,W
054E4:  MOVWF  x15
054E6:  MOVWF  x1A
054E8:  MOVFF  414,419
054EC:  MOVLB  0
054EE:  CALL   1EFA
054F2:  MOVFF  01,3EB
....................          if(cicloCiclos>20) 
054F6:  MOVLB  3
054F8:  MOVF   xEB,W
054FA:  SUBLW  14
054FC:  BC    5502
....................             cicloCiclos=1; 
054FE:  MOVLW  01
05500:  MOVWF  xEB
....................          usuarioCiclos=read_ext_eeprom((cicloVisto*320)); 
05502:  MOVLB  4
05504:  CLRF   x19
05506:  MOVFF  2D2,418
0550A:  MOVLW  01
0550C:  MOVWF  x1B
0550E:  MOVLW  40
05510:  MOVWF  x1A
05512:  MOVLB  0
05514:  CALL   1DF6
05518:  MOVFF  02,415
0551C:  MOVFF  01,414
05520:  MOVFF  02,41A
05524:  MOVFF  01,419
05528:  CALL   1EFA
0552C:  MOVFF  01,3EA
....................          if(usuarioCiclos>10) 
05530:  MOVLB  3
05532:  MOVF   xEA,W
05534:  SUBLW  0A
05536:  BC    553C
....................             usuarioCiclos=1; 
05538:  MOVLW  01
0553A:  MOVWF  xEA
....................          for(i=0;i<7;i++){//Lee Valores para completar la Tabla 
0553C:  CLRF   x3D
0553E:  MOVF   x3D,W
05540:  SUBLW  06
05542:  BTFSS  FD8.0
05544:  BRA    5AA0
....................             horaCiclos[i]=read_ext_eeprom((cicloVisto*320)+11+((cicloVisualizado+i)*9)); 
05546:  CLRF   03
05548:  MOVF   x3D,W
0554A:  ADDLW  D2
0554C:  MOVWF  01
0554E:  MOVLW  03
05550:  ADDWFC 03,F
05552:  MOVFF  01,414
05556:  MOVLB  4
05558:  MOVFF  03,415
0555C:  CLRF   x19
0555E:  MOVFF  2D2,418
05562:  MOVLW  01
05564:  MOVWF  x1B
05566:  MOVLW  40
05568:  MOVWF  x1A
0556A:  MOVLB  0
0556C:  CALL   1DF6
05570:  MOVFF  02,417
05574:  MOVFF  01,416
05578:  MOVLW  0B
0557A:  MOVLB  4
0557C:  ADDWF  x16,F
0557E:  MOVLW  00
05580:  ADDWFC x17,F
05582:  MOVLB  3
05584:  MOVF   x3D,W
05586:  MOVLB  2
05588:  ADDWF  xD3,W
0558A:  MULLW  09
0558C:  MOVF   FF3,W
0558E:  MOVLB  4
05590:  ADDWF  x16,F
05592:  MOVLW  00
05594:  ADDWFC x17,F
05596:  MOVFF  417,41A
0559A:  MOVFF  416,419
0559E:  MOVLB  0
055A0:  CALL   1EFA
055A4:  MOVFF  415,FEA
055A8:  MOVFF  414,FE9
055AC:  MOVFF  01,FEF
....................             if(horaCiclos[i]>24) 
055B0:  CLRF   03
055B2:  MOVLB  3
055B4:  MOVF   x3D,W
055B6:  ADDLW  D2
055B8:  MOVWF  FE9
055BA:  MOVLW  03
055BC:  ADDWFC 03,W
055BE:  MOVWF  FEA
055C0:  MOVF   FEF,W
055C2:  SUBLW  18
055C4:  BC    55D6
....................                horaCiclos[i]=0; 
055C6:  CLRF   03
055C8:  MOVF   x3D,W
055CA:  ADDLW  D2
055CC:  MOVWF  FE9
055CE:  MOVLW  03
055D0:  ADDWFC 03,W
055D2:  MOVWF  FEA
055D4:  CLRF   FEF
....................             minutoCiclos[i]=read_ext_eeprom((cicloVisto*320)+12+((cicloVisualizado+i)*9)); 
055D6:  CLRF   03
055D8:  MOVF   x3D,W
055DA:  ADDLW  D9
055DC:  MOVWF  01
055DE:  MOVLW  03
055E0:  ADDWFC 03,F
055E2:  MOVFF  01,414
055E6:  MOVLB  4
055E8:  MOVFF  03,415
055EC:  CLRF   x19
055EE:  MOVFF  2D2,418
055F2:  MOVLW  01
055F4:  MOVWF  x1B
055F6:  MOVLW  40
055F8:  MOVWF  x1A
055FA:  MOVLB  0
055FC:  CALL   1DF6
05600:  MOVFF  02,417
05604:  MOVFF  01,416
05608:  MOVLW  0C
0560A:  MOVLB  4
0560C:  ADDWF  x16,F
0560E:  MOVLW  00
05610:  ADDWFC x17,F
05612:  MOVLB  3
05614:  MOVF   x3D,W
05616:  MOVLB  2
05618:  ADDWF  xD3,W
0561A:  MULLW  09
0561C:  MOVF   FF3,W
0561E:  MOVLB  4
05620:  ADDWF  x16,F
05622:  MOVLW  00
05624:  ADDWFC x17,F
05626:  MOVFF  417,41A
0562A:  MOVFF  416,419
0562E:  MOVLB  0
05630:  CALL   1EFA
05634:  MOVFF  415,FEA
05638:  MOVFF  414,FE9
0563C:  MOVFF  01,FEF
....................             if(minutoCiclos[i]>59) 
05640:  CLRF   03
05642:  MOVLB  3
05644:  MOVF   x3D,W
05646:  ADDLW  D9
05648:  MOVWF  FE9
0564A:  MOVLW  03
0564C:  ADDWFC 03,W
0564E:  MOVWF  FEA
05650:  MOVF   FEF,W
05652:  SUBLW  3B
05654:  BC    5666
....................                minutoCiclos[i]=0; 
05656:  CLRF   03
05658:  MOVF   x3D,W
0565A:  ADDLW  D9
0565C:  MOVWF  FE9
0565E:  MOVLW  03
05660:  ADDWFC 03,W
05662:  MOVWF  FEA
05664:  CLRF   FEF
....................             TCiclos[i]=read_ext_eeprom((cicloVisto*320)+5+((cicloVisualizado+i)*9))+inttofloat(read_ext_eeprom((cicloVisto*320)+6+((cicloVisualizado+i)*9))); 
05666:  MOVF   x3D,W
05668:  MULLW  04
0566A:  MOVF   FF3,W
0566C:  CLRF   03
0566E:  ADDLW  9A
05670:  MOVWF  01
05672:  MOVLW  03
05674:  ADDWFC 03,F
05676:  MOVFF  01,414
0567A:  MOVLB  4
0567C:  MOVFF  03,415
05680:  CLRF   x19
05682:  MOVFF  2D2,418
05686:  MOVLW  01
05688:  MOVWF  x1B
0568A:  MOVLW  40
0568C:  MOVWF  x1A
0568E:  MOVLB  0
05690:  CALL   1DF6
05694:  MOVFF  02,417
05698:  MOVFF  01,416
0569C:  MOVLW  05
0569E:  MOVLB  4
056A0:  ADDWF  x16,F
056A2:  MOVLW  00
056A4:  ADDWFC x17,F
056A6:  MOVLB  3
056A8:  MOVF   x3D,W
056AA:  MOVLB  2
056AC:  ADDWF  xD3,W
056AE:  MULLW  09
056B0:  MOVF   FF3,W
056B2:  MOVLB  4
056B4:  ADDWF  x16,F
056B6:  MOVLW  00
056B8:  ADDWFC x17,F
056BA:  MOVFF  417,41A
056BE:  MOVFF  416,419
056C2:  MOVLB  0
056C4:  CALL   1EFA
056C8:  MOVFF  01,416
056CC:  MOVLB  4
056CE:  CLRF   x19
056D0:  MOVFF  2D2,418
056D4:  MOVLW  01
056D6:  MOVWF  x1B
056D8:  MOVLW  40
056DA:  MOVWF  x1A
056DC:  MOVLB  0
056DE:  CALL   1DF6
056E2:  MOVFF  02,418
056E6:  MOVFF  01,417
056EA:  MOVLW  06
056EC:  MOVLB  4
056EE:  ADDWF  x17,F
056F0:  MOVLW  00
056F2:  ADDWFC x18,F
056F4:  MOVLB  3
056F6:  MOVF   x3D,W
056F8:  MOVLB  2
056FA:  ADDWF  xD3,W
056FC:  MULLW  09
056FE:  MOVF   FF3,W
05700:  MOVLB  4
05702:  ADDWF  x17,F
05704:  MOVLW  00
05706:  ADDWFC x18,F
05708:  MOVFF  418,41A
0570C:  MOVFF  417,419
05710:  MOVLB  0
05712:  CALL   1EFA
05716:  MOVFF  01,417
0571A:  MOVFF  01,418
0571E:  CALL   1FA2
05722:  MOVFF  00,417
05726:  MOVFF  01,418
0572A:  MOVFF  02,419
0572E:  MOVFF  03,41A
05732:  MOVLB  4
05734:  CLRF   x2A
05736:  MOVFF  416,429
0573A:  MOVLB  0
0573C:  CALL   19EA
05740:  MOVFF  FEA,41C
05744:  MOVFF  FE9,41B
05748:  BCF    FD8.1
0574A:  MOVFF  03,42C
0574E:  MOVFF  02,42B
05752:  MOVFF  01,42A
05756:  MOVFF  00,429
0575A:  MOVFF  41A,430
0575E:  MOVFF  419,42F
05762:  MOVFF  418,42E
05766:  MOVFF  417,42D
0576A:  CALL   1B7E
0576E:  MOVFF  41C,FEA
05772:  MOVFF  41B,FE9
05776:  MOVFF  415,FEA
0577A:  MOVFF  414,FE9
0577E:  MOVFF  00,FEF
05782:  MOVFF  01,FEC
05786:  MOVFF  02,FEC
0578A:  MOVFF  03,FEC
....................             if(TCiclos[i]>150) 
0578E:  MOVLB  3
05790:  MOVF   x3D,W
05792:  MULLW  04
05794:  MOVF   FF3,W
05796:  CLRF   03
05798:  ADDLW  9A
0579A:  MOVWF  FE9
0579C:  MOVLW  03
0579E:  ADDWFC 03,W
057A0:  MOVWF  FEA
057A2:  MOVFF  FEF,414
057A6:  MOVFF  FEC,415
057AA:  MOVFF  FEC,416
057AE:  MOVFF  FEC,417
057B2:  MOVLB  4
057B4:  CLRF   x1B
057B6:  CLRF   x1A
057B8:  MOVLW  16
057BA:  MOVWF  x19
057BC:  MOVLW  86
057BE:  MOVWF  x18
057C0:  MOVFF  417,41F
057C4:  MOVFF  416,41E
057C8:  MOVFF  415,41D
057CC:  MOVFF  414,41C
057D0:  MOVLB  0
057D2:  CALL   1FE2
057D6:  BNC   57F6
....................                TCiclos[i]=0; 
057D8:  MOVLB  3
057DA:  MOVF   x3D,W
057DC:  MULLW  04
057DE:  MOVF   FF3,W
057E0:  CLRF   03
057E2:  ADDLW  9A
057E4:  MOVWF  FE9
057E6:  MOVLW  03
057E8:  ADDWFC 03,W
057EA:  MOVWF  FEA
057EC:  CLRF   FEF
057EE:  CLRF   FEC
057F0:  CLRF   FEC
057F2:  CLRF   FEC
057F4:  MOVLB  0
....................             PcCiclos[i]=make16(read_ext_eeprom((cicloVisto*320)+7+((cicloVisualizado+i)*9)),read_ext_eeprom((cicloVisto*320)+8+((cicloVisualizado+i)*9))); 
057F6:  BCF    FD8.0
057F8:  MOVLB  3
057FA:  RLCF   x3D,W
057FC:  CLRF   03
057FE:  ADDLW  B6
05800:  MOVWF  01
05802:  MOVLW  03
05804:  ADDWFC 03,F
05806:  MOVFF  01,414
0580A:  MOVLB  4
0580C:  MOVFF  03,415
05810:  CLRF   x19
05812:  MOVFF  2D2,418
05816:  MOVLW  01
05818:  MOVWF  x1B
0581A:  MOVLW  40
0581C:  MOVWF  x1A
0581E:  MOVLB  0
05820:  CALL   1DF6
05824:  MOVFF  02,417
05828:  MOVFF  01,416
0582C:  MOVLW  07
0582E:  MOVLB  4
05830:  ADDWF  x16,F
05832:  MOVLW  00
05834:  ADDWFC x17,F
05836:  MOVLB  3
05838:  MOVF   x3D,W
0583A:  MOVLB  2
0583C:  ADDWF  xD3,W
0583E:  MULLW  09
05840:  MOVF   FF3,W
05842:  MOVLB  4
05844:  ADDWF  x16,F
05846:  MOVLW  00
05848:  ADDWFC x17,F
0584A:  MOVFF  417,41A
0584E:  MOVFF  416,419
05852:  MOVLB  0
05854:  CALL   1EFA
05858:  MOVFF  01,416
0585C:  MOVLB  4
0585E:  CLRF   x19
05860:  MOVFF  2D2,418
05864:  MOVLW  01
05866:  MOVWF  x1B
05868:  MOVLW  40
0586A:  MOVWF  x1A
0586C:  MOVLB  0
0586E:  CALL   1DF6
05872:  MOVFF  02,418
05876:  MOVFF  01,417
0587A:  MOVLW  08
0587C:  MOVLB  4
0587E:  ADDWF  x17,F
05880:  MOVLW  00
05882:  ADDWFC x18,F
05884:  MOVLB  3
05886:  MOVF   x3D,W
05888:  MOVLB  2
0588A:  ADDWF  xD3,W
0588C:  MULLW  09
0588E:  MOVF   FF3,W
05890:  MOVLB  4
05892:  ADDWF  x17,F
05894:  MOVLW  00
05896:  ADDWFC x18,F
05898:  MOVFF  418,41A
0589C:  MOVFF  417,419
058A0:  MOVLB  0
058A2:  CALL   1EFA
058A6:  MOVFF  415,FEA
058AA:  MOVFF  414,FE9
058AE:  MOVFF  416,FEC
058B2:  MOVF   FED,F
058B4:  MOVFF  01,FEF
....................             if(PcCiclos[i]>400) 
058B8:  BCF    FD8.0
058BA:  MOVLB  3
058BC:  RLCF   x3D,W
058BE:  CLRF   03
058C0:  ADDLW  B6
058C2:  MOVWF  FE9
058C4:  MOVLW  03
058C6:  ADDWFC 03,W
058C8:  MOVWF  FEA
058CA:  MOVFF  FEC,415
058CE:  MOVF   FED,F
058D0:  MOVFF  FEF,414
058D4:  MOVLB  4
058D6:  MOVF   x15,W
058D8:  SUBLW  00
058DA:  BC    5900
058DC:  XORLW  FF
058DE:  BNZ   58E6
058E0:  MOVF   x14,W
058E2:  SUBLW  90
058E4:  BC    5900
....................                PcCiclos[i]=0; 
058E6:  BCF    FD8.0
058E8:  MOVLB  3
058EA:  RLCF   x3D,W
058EC:  CLRF   03
058EE:  ADDLW  B6
058F0:  MOVWF  FE9
058F2:  MOVLW  03
058F4:  ADDWFC 03,W
058F6:  MOVWF  FEA
058F8:  CLRF   FEC
058FA:  MOVF   FED,F
058FC:  CLRF   FEF
058FE:  MOVLB  4
....................             PpcCiclos[i]=make16(read_ext_eeprom((cicloVisto*320)+9+((cicloVisualizado+i)*9)),read_ext_eeprom((cicloVisto*320)+10+((cicloVisualizado+i)*9))); 
05900:  BCF    FD8.0
05902:  MOVLB  3
05904:  RLCF   x3D,W
05906:  CLRF   03
05908:  ADDLW  C4
0590A:  MOVWF  01
0590C:  MOVLW  03
0590E:  ADDWFC 03,F
05910:  MOVFF  01,414
05914:  MOVLB  4
05916:  MOVFF  03,415
0591A:  CLRF   x19
0591C:  MOVFF  2D2,418
05920:  MOVLW  01
05922:  MOVWF  x1B
05924:  MOVLW  40
05926:  MOVWF  x1A
05928:  MOVLB  0
0592A:  CALL   1DF6
0592E:  MOVFF  02,417
05932:  MOVFF  01,416
05936:  MOVLW  09
05938:  MOVLB  4
0593A:  ADDWF  x16,F
0593C:  MOVLW  00
0593E:  ADDWFC x17,F
05940:  MOVLB  3
05942:  MOVF   x3D,W
05944:  MOVLB  2
05946:  ADDWF  xD3,W
05948:  MULLW  09
0594A:  MOVF   FF3,W
0594C:  MOVLB  4
0594E:  ADDWF  x16,F
05950:  MOVLW  00
05952:  ADDWFC x17,F
05954:  MOVFF  417,41A
05958:  MOVFF  416,419
0595C:  MOVLB  0
0595E:  CALL   1EFA
05962:  MOVFF  01,416
05966:  MOVLB  4
05968:  CLRF   x19
0596A:  MOVFF  2D2,418
0596E:  MOVLW  01
05970:  MOVWF  x1B
05972:  MOVLW  40
05974:  MOVWF  x1A
05976:  MOVLB  0
05978:  CALL   1DF6
0597C:  MOVFF  02,418
05980:  MOVFF  01,417
05984:  MOVLW  0A
05986:  MOVLB  4
05988:  ADDWF  x17,F
0598A:  MOVLW  00
0598C:  ADDWFC x18,F
0598E:  MOVLB  3
05990:  MOVF   x3D,W
05992:  MOVLB  2
05994:  ADDWF  xD3,W
05996:  MULLW  09
05998:  MOVF   FF3,W
0599A:  MOVLB  4
0599C:  ADDWF  x17,F
0599E:  MOVLW  00
059A0:  ADDWFC x18,F
059A2:  MOVFF  418,41A
059A6:  MOVFF  417,419
059AA:  MOVLB  0
059AC:  CALL   1EFA
059B0:  MOVFF  415,FEA
059B4:  MOVFF  414,FE9
059B8:  MOVFF  416,FEC
059BC:  MOVF   FED,F
059BE:  MOVFF  01,FEF
....................             if(PpcCiclos[i]>400) 
059C2:  BCF    FD8.0
059C4:  MOVLB  3
059C6:  RLCF   x3D,W
059C8:  CLRF   03
059CA:  ADDLW  C4
059CC:  MOVWF  FE9
059CE:  MOVLW  03
059D0:  ADDWFC 03,W
059D2:  MOVWF  FEA
059D4:  MOVFF  FEC,415
059D8:  MOVF   FED,F
059DA:  MOVFF  FEF,414
059DE:  MOVLB  4
059E0:  MOVF   x15,W
059E2:  SUBLW  00
059E4:  BC    5A0A
059E6:  XORLW  FF
059E8:  BNZ   59F0
059EA:  MOVF   x14,W
059EC:  SUBLW  90
059EE:  BC    5A0A
....................                PpcCiclos[i]=0; 
059F0:  BCF    FD8.0
059F2:  MOVLB  3
059F4:  RLCF   x3D,W
059F6:  CLRF   03
059F8:  ADDLW  C4
059FA:  MOVWF  FE9
059FC:  MOVLW  03
059FE:  ADDWFC 03,W
05A00:  MOVWF  FEA
05A02:  CLRF   FEC
05A04:  MOVF   FED,F
05A06:  CLRF   FEF
05A08:  MOVLB  4
....................             ACiclos[i]=read_ext_eeprom((cicloVisto*320)+13+((cicloVisualizado+i)*9)); 
05A0A:  CLRF   03
05A0C:  MOVLB  3
05A0E:  MOVF   x3D,W
05A10:  ADDLW  E0
05A12:  MOVWF  01
05A14:  MOVLW  03
05A16:  ADDWFC 03,F
05A18:  MOVFF  01,414
05A1C:  MOVLB  4
05A1E:  MOVFF  03,415
05A22:  CLRF   x19
05A24:  MOVFF  2D2,418
05A28:  MOVLW  01
05A2A:  MOVWF  x1B
05A2C:  MOVLW  40
05A2E:  MOVWF  x1A
05A30:  MOVLB  0
05A32:  CALL   1DF6
05A36:  MOVFF  02,417
05A3A:  MOVFF  01,416
05A3E:  MOVLW  0D
05A40:  MOVLB  4
05A42:  ADDWF  x16,F
05A44:  MOVLW  00
05A46:  ADDWFC x17,F
05A48:  MOVLB  3
05A4A:  MOVF   x3D,W
05A4C:  MOVLB  2
05A4E:  ADDWF  xD3,W
05A50:  MULLW  09
05A52:  MOVF   FF3,W
05A54:  MOVLB  4
05A56:  ADDWF  x16,F
05A58:  MOVLW  00
05A5A:  ADDWFC x17,F
05A5C:  MOVFF  417,41A
05A60:  MOVFF  416,419
05A64:  MOVLB  0
05A66:  CALL   1EFA
05A6A:  MOVFF  415,FEA
05A6E:  MOVFF  414,FE9
05A72:  MOVFF  01,FEF
....................             if(ACiclos[i]>30) 
05A76:  CLRF   03
05A78:  MOVLB  3
05A7A:  MOVF   x3D,W
05A7C:  ADDLW  E0
05A7E:  MOVWF  FE9
05A80:  MOVLW  03
05A82:  ADDWFC 03,W
05A84:  MOVWF  FEA
05A86:  MOVF   FEF,W
05A88:  SUBLW  1E
05A8A:  BC    5A9C
....................                ACiclos[i]=0; 
05A8C:  CLRF   03
05A8E:  MOVF   x3D,W
05A90:  ADDLW  E0
05A92:  MOVWF  FE9
05A94:  MOVLW  03
05A96:  ADDWFC 03,W
05A98:  MOVWF  FEA
05A9A:  CLRF   FEF
....................          } 
05A9C:  INCF   x3D,F
05A9E:  BRA    553E
.................... } 
05AA0:  MOVLB  0
05AA2:  RETLW  00
....................  
.................... void GuardaDatoEstatico(){ 
*
064D2:  MOVLB  4
064D4:  CLRF   x15
064D6:  CLRF   x14
064D8:  CLRF   x17
064DA:  CLRF   x16
....................    int16 posCiclo=0,cicloMemoria=0; 
....................    posCiclo=Ciclos/200; 
064DC:  MOVFF  358,419
064E0:  MOVFF  357,418
064E4:  CLRF   x1B
064E6:  MOVLW  C8
064E8:  MOVWF  x1A
064EA:  MOVLB  0
064EC:  CALL   51AC
064F0:  MOVFF  02,415
064F4:  MOVFF  01,414
....................    cicloMemoria=Ciclos-(posCiclo*200); 
064F8:  MOVFF  415,419
064FC:  MOVFF  414,418
06500:  MOVLB  4
06502:  CLRF   x1B
06504:  MOVLW  C8
06506:  MOVWF  x1A
06508:  MOVLB  0
0650A:  CALL   1DF6
0650E:  MOVF   01,W
06510:  MOVLB  3
06512:  SUBWF  x57,W
06514:  MOVLB  4
06516:  MOVWF  x16
06518:  MOVF   02,W
0651A:  MOVLB  3
0651C:  SUBWFB x58,W
0651E:  MOVLB  4
06520:  MOVWF  x17
....................    if(!disp_Guarda){ 
06522:  MOVLB  0
06524:  BTFSC  xA1.6
06526:  BRA    66C0
....................       write_ext_eeprom(cicloMemoria*320,1); 
06528:  MOVFF  417,419
0652C:  MOVFF  416,418
06530:  MOVLW  01
06532:  MOVLB  4
06534:  MOVWF  x1B
06536:  MOVLW  40
06538:  MOVWF  x1A
0653A:  MOVLB  0
0653C:  CALL   1DF6
06540:  MOVFF  02,419
06544:  MOVFF  01,418
06548:  MOVFF  02,41C
0654C:  MOVFF  01,41B
06550:  MOVLW  01
06552:  MOVLB  4
06554:  MOVWF  x1D
06556:  MOVLB  0
06558:  RCALL  63C0
....................       delay_ms(10); 
0655A:  MOVLW  0A
0655C:  MOVLB  4
0655E:  MOVWF  x29
06560:  MOVLB  0
06562:  CALL   19C2
....................       if(!Libre) 
06566:  BTFSC  xA3.5
06568:  BRA    65A4
....................          write_ext_eeprom(1+(cicloMemoria*320),CicloSeleccionado); 
0656A:  MOVFF  417,419
0656E:  MOVFF  416,418
06572:  MOVLW  01
06574:  MOVLB  4
06576:  MOVWF  x1B
06578:  MOVLW  40
0657A:  MOVWF  x1A
0657C:  MOVLB  0
0657E:  CALL   1DF6
06582:  MOVFF  02,03
06586:  MOVF   01,W
06588:  ADDLW  01
0658A:  MOVLB  4
0658C:  MOVWF  x18
0658E:  MOVLW  00
06590:  ADDWFC 02,W
06592:  MOVWF  x19
06594:  MOVWF  x1C
06596:  MOVFF  418,41B
0659A:  MOVFF  340,41D
0659E:  MOVLB  0
065A0:  RCALL  63C0
....................       else 
065A2:  BRA    65E6
....................          write_ext_eeprom(1+(cicloMemoria*320),CicloLibre+4); 
065A4:  MOVFF  417,419
065A8:  MOVFF  416,418
065AC:  MOVLW  01
065AE:  MOVLB  4
065B0:  MOVWF  x1B
065B2:  MOVLW  40
065B4:  MOVWF  x1A
065B6:  MOVLB  0
065B8:  CALL   1DF6
065BC:  MOVFF  02,03
065C0:  MOVF   01,W
065C2:  ADDLW  01
065C4:  MOVLB  4
065C6:  MOVWF  x18
065C8:  MOVLW  00
065CA:  ADDWFC 02,W
065CC:  MOVWF  x19
065CE:  MOVLW  04
065D0:  MOVLB  3
065D2:  ADDWF  x2E,W
065D4:  MOVLB  4
065D6:  MOVWF  x1A
065D8:  MOVFF  419,41C
065DC:  MOVFF  418,41B
065E0:  MOVWF  x1D
065E2:  MOVLB  0
065E4:  RCALL  63C0
....................       delay_ms(10); 
065E6:  MOVLW  0A
065E8:  MOVLB  4
065EA:  MOVWF  x29
065EC:  MOVLB  0
065EE:  CALL   19C2
....................       write_ext_eeprom(2+(cicloMemoria*320),Dia); 
065F2:  MOVFF  417,419
065F6:  MOVFF  416,418
065FA:  MOVLW  01
065FC:  MOVLB  4
065FE:  MOVWF  x1B
06600:  MOVLW  40
06602:  MOVWF  x1A
06604:  MOVLB  0
06606:  CALL   1DF6
0660A:  MOVFF  02,03
0660E:  MOVF   01,W
06610:  ADDLW  02
06612:  MOVLB  4
06614:  MOVWF  x18
06616:  MOVLW  00
06618:  ADDWFC 02,W
0661A:  MOVWF  x19
0661C:  MOVWF  x1C
0661E:  MOVFF  418,41B
06622:  MOVFF  376,41D
06626:  MOVLB  0
06628:  RCALL  63C0
....................       delay_ms(10); 
0662A:  MOVLW  0A
0662C:  MOVLB  4
0662E:  MOVWF  x29
06630:  MOVLB  0
06632:  CALL   19C2
....................       write_ext_eeprom(3+(cicloMemoria*320),Mes); 
06636:  MOVFF  417,419
0663A:  MOVFF  416,418
0663E:  MOVLW  01
06640:  MOVLB  4
06642:  MOVWF  x1B
06644:  MOVLW  40
06646:  MOVWF  x1A
06648:  MOVLB  0
0664A:  CALL   1DF6
0664E:  MOVFF  02,03
06652:  MOVF   01,W
06654:  ADDLW  03
06656:  MOVLB  4
06658:  MOVWF  x18
0665A:  MOVLW  00
0665C:  ADDWFC 02,W
0665E:  MOVWF  x19
06660:  MOVWF  x1C
06662:  MOVFF  418,41B
06666:  MOVFF  375,41D
0666A:  MOVLB  0
0666C:  RCALL  63C0
....................       delay_ms(10); 
0666E:  MOVLW  0A
06670:  MOVLB  4
06672:  MOVWF  x29
06674:  MOVLB  0
06676:  CALL   19C2
....................       write_ext_eeprom(4+(cicloMemoria*320),Year); 
0667A:  MOVFF  417,419
0667E:  MOVFF  416,418
06682:  MOVLW  01
06684:  MOVLB  4
06686:  MOVWF  x1B
06688:  MOVLW  40
0668A:  MOVWF  x1A
0668C:  MOVLB  0
0668E:  CALL   1DF6
06692:  MOVFF  02,03
06696:  MOVF   01,W
06698:  ADDLW  04
0669A:  MOVLB  4
0669C:  MOVWF  x18
0669E:  MOVLW  00
066A0:  ADDWFC 02,W
066A2:  MOVWF  x19
066A4:  MOVWF  x1C
066A6:  MOVFF  418,41B
066AA:  MOVFF  374,41D
066AE:  MOVLB  0
066B0:  RCALL  63C0
....................       delay_ms(10);  
066B2:  MOVLW  0A
066B4:  MOVLB  4
066B6:  MOVWF  x29
066B8:  MOVLB  0
066BA:  CALL   19C2
....................       disp_Guarda=1; 
066BE:  BSF    xA1.6
....................    }    
.................... } 
066C0:  GOTO   C024 (RETURN)
....................  
.................... void GuardaDatoCiclo(){ 
066C4:  MOVLB  4
066C6:  CLRF   x15
066C8:  CLRF   x14
066CA:  CLRF   x17
066CC:  CLRF   x16
....................    int16 posCiclo=0,cicloMemoria=0; 
....................    posCiclo=Ciclos/200; 
066CE:  MOVFF  358,419
066D2:  MOVFF  357,418
066D6:  CLRF   x1B
066D8:  MOVLW  C8
066DA:  MOVWF  x1A
066DC:  MOVLB  0
066DE:  CALL   51AC
066E2:  MOVFF  02,415
066E6:  MOVFF  01,414
....................    if(!Ciclo){ 
066EA:  BTFSC  xA1.3
066EC:  BRA    6A72
....................       cicloMemoria=Ciclos-(posCiclo*200); 
066EE:  MOVFF  415,419
066F2:  MOVFF  414,418
066F6:  MOVLB  4
066F8:  CLRF   x1B
066FA:  MOVLW  C8
066FC:  MOVWF  x1A
066FE:  MOVLB  0
06700:  CALL   1DF6
06704:  MOVF   01,W
06706:  MOVLB  3
06708:  SUBWF  x57,W
0670A:  MOVLB  4
0670C:  MOVWF  x16
0670E:  MOVF   02,W
06710:  MOVLB  3
06712:  SUBWFB x58,W
06714:  MOVLB  4
06716:  MOVWF  x17
....................       write_ext_eeprom(5+(cicloMemoria*320)+(posicionDato*9),(int8)Temperatura); 
06718:  MOVFF  417,419
0671C:  MOVFF  416,418
06720:  MOVLW  01
06722:  MOVWF  x1B
06724:  MOVLW  40
06726:  MOVWF  x1A
06728:  MOVLB  0
0672A:  CALL   1DF6
0672E:  MOVFF  02,03
06732:  MOVF   01,W
06734:  ADDLW  05
06736:  MOVLB  4
06738:  MOVWF  x18
0673A:  MOVLW  00
0673C:  ADDWFC 02,W
0673E:  MOVWF  x19
06740:  MOVLB  2
06742:  MOVF   xD4,W
06744:  MULLW  09
06746:  MOVF   FF3,W
06748:  MOVLB  4
0674A:  ADDWF  x18,F
0674C:  MOVLW  00
0674E:  ADDWFC x19,F
06750:  MOVFF  31B,42C
06754:  MOVFF  31A,42B
06758:  MOVFF  319,42A
0675C:  MOVFF  318,429
06760:  MOVLB  0
06762:  CALL   47DE
06766:  MOVFF  01,41A
0676A:  MOVFF  419,41C
0676E:  MOVFF  418,41B
06772:  MOVFF  01,41D
06776:  RCALL  63C0
....................       delay_ms(10); 
06778:  MOVLW  0A
0677A:  MOVLB  4
0677C:  MOVWF  x29
0677E:  MOVLB  0
06780:  CALL   19C2
....................       write_ext_eeprom(6+(cicloMemoria*320)+(posicionDato*9),extraeDecima(Temperatura)); 
06784:  MOVFF  417,419
06788:  MOVFF  416,418
0678C:  MOVLW  01
0678E:  MOVLB  4
06790:  MOVWF  x1B
06792:  MOVLW  40
06794:  MOVWF  x1A
06796:  MOVLB  0
06798:  CALL   1DF6
0679C:  MOVFF  02,03
067A0:  MOVF   01,W
067A2:  ADDLW  06
067A4:  MOVLB  4
067A6:  MOVWF  x18
067A8:  MOVLW  00
067AA:  ADDWFC 02,W
067AC:  MOVWF  x19
067AE:  MOVLB  2
067B0:  MOVF   xD4,W
067B2:  MULLW  09
067B4:  MOVF   FF3,W
067B6:  MOVLB  4
067B8:  ADDWF  x18,F
067BA:  MOVLW  00
067BC:  ADDWFC x19,F
067BE:  MOVFF  31B,42C
067C2:  MOVFF  31A,42B
067C6:  MOVFF  319,42A
067CA:  MOVFF  318,429
067CE:  MOVLB  0
067D0:  CALL   47DE
067D4:  MOVFF  01,41A
067D8:  MOVFF  01,41B
067DC:  CALL   53C4
067E0:  MOVFF  01,41A
067E4:  MOVFF  419,41C
067E8:  MOVFF  418,41B
067EC:  MOVFF  01,41D
067F0:  RCALL  63C0
....................       delay_ms(10); 
067F2:  MOVLW  0A
067F4:  MOVLB  4
067F6:  MOVWF  x29
067F8:  MOVLB  0
067FA:  CALL   19C2
....................       write_ext_eeprom(7+(cicloMemoria*320)+(posicionDato*9),make8(PresionCamara,1)); 
067FE:  MOVFF  417,419
06802:  MOVFF  416,418
06806:  MOVLW  01
06808:  MOVLB  4
0680A:  MOVWF  x1B
0680C:  MOVLW  40
0680E:  MOVWF  x1A
06810:  MOVLB  0
06812:  CALL   1DF6
06816:  MOVFF  02,03
0681A:  MOVF   01,W
0681C:  ADDLW  07
0681E:  MOVLB  4
06820:  MOVWF  x18
06822:  MOVLW  00
06824:  ADDWFC 02,W
06826:  MOVWF  x19
06828:  MOVLB  2
0682A:  MOVF   xD4,W
0682C:  MULLW  09
0682E:  MOVF   FF3,W
06830:  MOVLB  4
06832:  ADDWF  x18,F
06834:  MOVLW  00
06836:  ADDWFC x19,F
06838:  MOVFF  354,41A
0683C:  MOVFF  419,41C
06840:  MOVFF  418,41B
06844:  MOVFF  354,41D
06848:  MOVLB  0
0684A:  RCALL  63C0
....................       delay_ms(10); 
0684C:  MOVLW  0A
0684E:  MOVLB  4
06850:  MOVWF  x29
06852:  MOVLB  0
06854:  CALL   19C2
....................       write_ext_eeprom(8+(cicloMemoria*320)+(posicionDato*9),make8(PresionCamara,0)); 
06858:  MOVFF  417,419
0685C:  MOVFF  416,418
06860:  MOVLW  01
06862:  MOVLB  4
06864:  MOVWF  x1B
06866:  MOVLW  40
06868:  MOVWF  x1A
0686A:  MOVLB  0
0686C:  CALL   1DF6
06870:  MOVFF  02,03
06874:  MOVF   01,W
06876:  ADDLW  08
06878:  MOVLB  4
0687A:  MOVWF  x18
0687C:  MOVLW  00
0687E:  ADDWFC 02,W
06880:  MOVWF  x19
06882:  MOVLB  2
06884:  MOVF   xD4,W
06886:  MULLW  09
06888:  MOVF   FF3,W
0688A:  MOVLB  4
0688C:  ADDWF  x18,F
0688E:  MOVLW  00
06890:  ADDWFC x19,F
06892:  MOVFF  353,41A
06896:  MOVFF  419,41C
0689A:  MOVFF  418,41B
0689E:  MOVFF  353,41D
068A2:  MOVLB  0
068A4:  RCALL  63C0
....................       delay_ms(10); 
068A6:  MOVLW  0A
068A8:  MOVLB  4
068AA:  MOVWF  x29
068AC:  MOVLB  0
068AE:  CALL   19C2
....................       write_ext_eeprom(9+(cicloMemoria*320)+(posicionDato*9),make8(PresionPreCamara,1)); 
068B2:  MOVFF  417,419
068B6:  MOVFF  416,418
068BA:  MOVLW  01
068BC:  MOVLB  4
068BE:  MOVWF  x1B
068C0:  MOVLW  40
068C2:  MOVWF  x1A
068C4:  MOVLB  0
068C6:  CALL   1DF6
068CA:  MOVFF  02,03
068CE:  MOVF   01,W
068D0:  ADDLW  09
068D2:  MOVLB  4
068D4:  MOVWF  x18
068D6:  MOVLW  00
068D8:  ADDWFC 02,W
068DA:  MOVWF  x19
068DC:  MOVLB  2
068DE:  MOVF   xD4,W
068E0:  MULLW  09
068E2:  MOVF   FF3,W
068E4:  MOVLB  4
068E6:  ADDWF  x18,F
068E8:  MOVLW  00
068EA:  ADDWFC x19,F
068EC:  MOVFF  356,41A
068F0:  MOVFF  419,41C
068F4:  MOVFF  418,41B
068F8:  MOVFF  356,41D
068FC:  MOVLB  0
068FE:  RCALL  63C0
....................       delay_ms(10); 
06900:  MOVLW  0A
06902:  MOVLB  4
06904:  MOVWF  x29
06906:  MOVLB  0
06908:  CALL   19C2
....................       write_ext_eeprom(10+(cicloMemoria*320)+(posicionDato*9),make8(PresionPreCamara,0)); 
0690C:  MOVFF  417,419
06910:  MOVFF  416,418
06914:  MOVLW  01
06916:  MOVLB  4
06918:  MOVWF  x1B
0691A:  MOVLW  40
0691C:  MOVWF  x1A
0691E:  MOVLB  0
06920:  CALL   1DF6
06924:  MOVFF  02,03
06928:  MOVF   01,W
0692A:  ADDLW  0A
0692C:  MOVLB  4
0692E:  MOVWF  x18
06930:  MOVLW  00
06932:  ADDWFC 02,W
06934:  MOVWF  x19
06936:  MOVLB  2
06938:  MOVF   xD4,W
0693A:  MULLW  09
0693C:  MOVF   FF3,W
0693E:  MOVLB  4
06940:  ADDWF  x18,F
06942:  MOVLW  00
06944:  ADDWFC x19,F
06946:  MOVFF  355,41A
0694A:  MOVFF  419,41C
0694E:  MOVFF  418,41B
06952:  MOVFF  355,41D
06956:  MOVLB  0
06958:  RCALL  63C0
....................       delay_ms(10); 
0695A:  MOVLW  0A
0695C:  MOVLB  4
0695E:  MOVWF  x29
06960:  MOVLB  0
06962:  CALL   19C2
....................       write_ext_eeprom(11+(cicloMemoria*320)+(posicionDato*9),Hora); 
06966:  MOVFF  417,419
0696A:  MOVFF  416,418
0696E:  MOVLW  01
06970:  MOVLB  4
06972:  MOVWF  x1B
06974:  MOVLW  40
06976:  MOVWF  x1A
06978:  MOVLB  0
0697A:  CALL   1DF6
0697E:  MOVFF  02,03
06982:  MOVF   01,W
06984:  ADDLW  0B
06986:  MOVLB  4
06988:  MOVWF  x18
0698A:  MOVLW  00
0698C:  ADDWFC 02,W
0698E:  MOVWF  x19
06990:  MOVLB  2
06992:  MOVF   xD4,W
06994:  MULLW  09
06996:  MOVF   FF3,W
06998:  MOVLB  4
0699A:  ADDWF  x18,F
0699C:  MOVLW  00
0699E:  ADDWFC x19,F
069A0:  MOVFF  419,41C
069A4:  MOVFF  418,41B
069A8:  MOVFF  377,41D
069AC:  MOVLB  0
069AE:  RCALL  63C0
....................       delay_ms(10); 
069B0:  MOVLW  0A
069B2:  MOVLB  4
069B4:  MOVWF  x29
069B6:  MOVLB  0
069B8:  CALL   19C2
....................       write_ext_eeprom(12+(cicloMemoria*320)+(posicionDato*9),Minuto); 
069BC:  MOVFF  417,419
069C0:  MOVFF  416,418
069C4:  MOVLW  01
069C6:  MOVLB  4
069C8:  MOVWF  x1B
069CA:  MOVLW  40
069CC:  MOVWF  x1A
069CE:  MOVLB  0
069D0:  CALL   1DF6
069D4:  MOVFF  02,03
069D8:  MOVF   01,W
069DA:  ADDLW  0C
069DC:  MOVLB  4
069DE:  MOVWF  x18
069E0:  MOVLW  00
069E2:  ADDWFC 02,W
069E4:  MOVWF  x19
069E6:  MOVLB  2
069E8:  MOVF   xD4,W
069EA:  MULLW  09
069EC:  MOVF   FF3,W
069EE:  MOVLB  4
069F0:  ADDWF  x18,F
069F2:  MOVLW  00
069F4:  ADDWFC x19,F
069F6:  MOVFF  419,41C
069FA:  MOVFF  418,41B
069FE:  MOVFF  378,41D
06A02:  MOVLB  0
06A04:  RCALL  63C0
....................       delay_ms(10); 
06A06:  MOVLW  0A
06A08:  MOVLB  4
06A0A:  MOVWF  x29
06A0C:  MOVLB  0
06A0E:  CALL   19C2
....................       write_ext_eeprom(13+(cicloMemoria*320)+(posicionDato*9),codigoAlarma); 
06A12:  MOVFF  417,419
06A16:  MOVFF  416,418
06A1A:  MOVLW  01
06A1C:  MOVLB  4
06A1E:  MOVWF  x1B
06A20:  MOVLW  40
06A22:  MOVWF  x1A
06A24:  MOVLB  0
06A26:  CALL   1DF6
06A2A:  MOVFF  02,03
06A2E:  MOVF   01,W
06A30:  ADDLW  0D
06A32:  MOVLB  4
06A34:  MOVWF  x18
06A36:  MOVLW  00
06A38:  ADDWFC 02,W
06A3A:  MOVWF  x19
06A3C:  MOVLB  2
06A3E:  MOVF   xD4,W
06A40:  MULLW  09
06A42:  MOVF   FF3,W
06A44:  MOVLB  4
06A46:  ADDWF  x18,F
06A48:  MOVLW  00
06A4A:  ADDWFC x19,F
06A4C:  MOVFF  419,41C
06A50:  MOVFF  418,41B
06A54:  MOVFF  2D6,41D
06A58:  MOVLB  0
06A5A:  RCALL  63C0
....................       delay_ms(10); 
06A5C:  MOVLW  0A
06A5E:  MOVLB  4
06A60:  MOVWF  x29
06A62:  MOVLB  0
06A64:  CALL   19C2
....................     
....................       if(posicionDato<35) 
06A68:  MOVLB  2
06A6A:  MOVF   xD4,W
06A6C:  SUBLW  22
06A6E:  BNC   6A72
....................          ++posicionDato; 
06A70:  INCF   xD4,F
06A72:  MOVLB  0
....................    } 
.................... } 
06A74:  RETLW  00
....................  
.................... void incrementaCiclos(){ 
....................    if(!Ciclo){ 
06A76:  BTFSC  xA1.3
06A78:  BRA    6B00
....................       Ciclo=ON; 
06A7A:  BSF    xA1.3
....................       Ciclos++; 
06A7C:  MOVLB  3
06A7E:  INCF   x57,F
06A80:  BTFSC  FD8.2
06A82:  INCF   x58,F
....................       CiclosL=make8(Ciclos,0); 
06A84:  MOVFF  357,33E
....................       CiclosH=make8(Ciclos,1); 
06A88:  MOVFF  358,33F
....................       write_eeprom(37,CiclosL); 
06A8C:  CLRF   FAA
06A8E:  MOVLW  25
06A90:  MOVWF  FA9
06A92:  MOVFF  33E,FA8
06A96:  BCF    FA6.6
06A98:  BCF    FA6.7
06A9A:  BSF    FA6.2
06A9C:  MOVF   FF2,W
06A9E:  MOVWF  00
06AA0:  BCF    FF2.6
06AA2:  BCF    FF2.7
06AA4:  MOVLB  F
06AA6:  MOVLW  55
06AA8:  MOVWF  FA7
06AAA:  MOVLW  AA
06AAC:  MOVWF  FA7
06AAE:  BSF    FA6.1
06AB0:  BTFSC  FA6.1
06AB2:  BRA    6AB0
06AB4:  BCF    FA6.2
06AB6:  MOVF   00,W
06AB8:  IORWF  FF2,F
....................       delay_ms(20); 
06ABA:  MOVLW  14
06ABC:  MOVLB  4
06ABE:  MOVWF  x29
06AC0:  MOVLB  0
06AC2:  CALL   19C2
....................       write_eeprom(38,CiclosH); 
06AC6:  CLRF   FAA
06AC8:  MOVLW  26
06ACA:  MOVWF  FA9
06ACC:  MOVFF  33F,FA8
06AD0:  BCF    FA6.6
06AD2:  BCF    FA6.7
06AD4:  BSF    FA6.2
06AD6:  MOVF   FF2,W
06AD8:  MOVWF  00
06ADA:  BCF    FF2.6
06ADC:  BCF    FF2.7
06ADE:  MOVLB  F
06AE0:  MOVLW  55
06AE2:  MOVWF  FA7
06AE4:  MOVLW  AA
06AE6:  MOVWF  FA7
06AE8:  BSF    FA6.1
06AEA:  BTFSC  FA6.1
06AEC:  BRA    6AEA
06AEE:  BCF    FA6.2
06AF0:  MOVF   00,W
06AF2:  IORWF  FF2,F
....................       delay_ms(20); 
06AF4:  MOVLW  14
06AF6:  MOVLB  4
06AF8:  MOVWF  x29
06AFA:  MOVLB  0
06AFC:  CALL   19C2
....................    } 
.................... } 
06B00:  RETLW  00
....................  
.................... void exportarData(){ 
*
05AA4:  MOVLB  4
05AA6:  CLRF   x15
05AA8:  CLRF   x14
05AAA:  CLRF   x16
.................... int16 posicion=0; 
.................... int8 tmp=0; 
.................... posicion=40; 
05AAC:  CLRF   x15
05AAE:  MOVLW  28
05AB0:  MOVWF  x14
.................... direccion=0xB0; 
05AB2:  MOVLW  B0
05AB4:  MOVLB  0
05AB6:  MOVWF  x85
.................... //Buzzer_on; 
.................... //Inicio de Transmision 
.................... i2c_start();            // Comienzo comunicacin 
05AB8:  BSF    F94.4
05ABA:  MOVLW  05
05ABC:  MOVWF  00
05ABE:  DECFSZ 00,F
05AC0:  BRA    5ABE
05AC2:  BSF    F94.3
05AC4:  MOVLW  06
05AC6:  MOVWF  00
05AC8:  DECFSZ 00,F
05ACA:  BRA    5AC8
05ACC:  BCF    F8B.4
05ACE:  BCF    F94.4
05AD0:  MOVLW  05
05AD2:  MOVWF  00
05AD4:  DECFSZ 00,F
05AD6:  BRA    5AD4
05AD8:  BCF    F8B.3
05ADA:  BCF    F94.3
.................... i2c_write(direccion);   // Direccin del esclavo en el bus I2C 
05ADC:  MOVFF  85,42A
05AE0:  CALL   1E18
.................... i2c_write(make8(posicion,0));    // Posicin donde se guardara el dato transmitido 
05AE4:  MOVFF  414,417
05AE8:  MOVFF  414,42A
05AEC:  CALL   1E18
.................... i2c_write(make8(posicion,1));    // Posicin donde se guardara el dato transmitido 
05AF0:  MOVFF  415,417
05AF4:  MOVFF  415,42A
05AF8:  CALL   1E18
.................... i2c_write(0xff);        // Dato a transmitir 
05AFC:  MOVLW  FF
05AFE:  MOVLB  4
05B00:  MOVWF  x2A
05B02:  MOVLB  0
05B04:  CALL   1E18
.................... i2c_stop(); 
05B08:  BCF    F94.4
05B0A:  NOP   
05B0C:  BSF    F94.3
05B0E:  BTFSS  F82.3
05B10:  BRA    5B0E
05B12:  MOVLW  05
05B14:  MOVWF  00
05B16:  DECFSZ 00,F
05B18:  BRA    5B16
05B1A:  BRA    5B1C
05B1C:  NOP   
05B1E:  BSF    F94.4
05B20:  MOVLW  05
05B22:  MOVWF  00
05B24:  DECFSZ 00,F
05B26:  BRA    5B24
.................... ++posicion; 
05B28:  MOVLB  4
05B2A:  INCF   x14,F
05B2C:  BTFSC  FD8.2
05B2E:  INCF   x15,F
.................... i2c_start();            // Comienzo comunicacin 
05B30:  BSF    F94.4
05B32:  MOVLW  05
05B34:  MOVWF  00
05B36:  DECFSZ 00,F
05B38:  BRA    5B36
05B3A:  BSF    F94.3
05B3C:  MOVLW  06
05B3E:  MOVWF  00
05B40:  DECFSZ 00,F
05B42:  BRA    5B40
05B44:  BCF    F8B.4
05B46:  BCF    F94.4
05B48:  MOVLW  05
05B4A:  MOVWF  00
05B4C:  DECFSZ 00,F
05B4E:  BRA    5B4C
05B50:  BCF    F8B.3
05B52:  BCF    F94.3
.................... i2c_write(direccion);   // Direccin del esclavo en el bus I2C 
05B54:  MOVFF  85,42A
05B58:  MOVLB  0
05B5A:  CALL   1E18
.................... i2c_write(make8(posicion,0));    // Posicin donde se guardara el dato transmitido 
05B5E:  MOVFF  414,417
05B62:  MOVFF  414,42A
05B66:  CALL   1E18
.................... i2c_write(make8(posicion,1));    // Posicin donde se guardara el dato transmitido 
05B6A:  MOVFF  415,417
05B6E:  MOVFF  415,42A
05B72:  CALL   1E18
.................... i2c_write(0xff);        // Dato a transmitir 
05B76:  MOVLW  FF
05B78:  MOVLB  4
05B7A:  MOVWF  x2A
05B7C:  MOVLB  0
05B7E:  CALL   1E18
.................... i2c_stop(); 
05B82:  BCF    F94.4
05B84:  NOP   
05B86:  BSF    F94.3
05B88:  BTFSS  F82.3
05B8A:  BRA    5B88
05B8C:  MOVLW  05
05B8E:  MOVWF  00
05B90:  DECFSZ 00,F
05B92:  BRA    5B90
05B94:  BRA    5B96
05B96:  NOP   
05B98:  BSF    F94.4
05B9A:  MOVLW  05
05B9C:  MOVWF  00
05B9E:  DECFSZ 00,F
05BA0:  BRA    5B9E
.................... ++posicion; 
05BA2:  MOVLB  4
05BA4:  INCF   x14,F
05BA6:  BTFSC  FD8.2
05BA8:  INCF   x15,F
.................... //Se envian 2 veces ff para indicar que se inicia la transmision. 
....................  
....................    for(i=0;i<5;i++){ 
05BAA:  MOVLB  3
05BAC:  CLRF   x3D
05BAE:  MOVF   x3D,W
05BB0:  SUBLW  04
05BB2:  BNC   5C6A
....................       tmp=read_ext_eeprom((cicloVisto*320)+i); 
05BB4:  MOVLB  4
05BB6:  CLRF   x19
05BB8:  MOVFF  2D2,418
05BBC:  MOVLW  01
05BBE:  MOVWF  x1B
05BC0:  MOVLW  40
05BC2:  MOVWF  x1A
05BC4:  MOVLB  0
05BC6:  CALL   1DF6
05BCA:  MOVFF  02,418
05BCE:  MOVFF  01,417
05BD2:  MOVLB  3
05BD4:  MOVF   x3D,W
05BD6:  MOVLB  4
05BD8:  ADDWF  x17,F
05BDA:  MOVLW  00
05BDC:  ADDWFC x18,F
05BDE:  MOVFF  418,41A
05BE2:  MOVFF  417,419
05BE6:  MOVLB  0
05BE8:  CALL   1EFA
05BEC:  MOVFF  01,416
....................       //if(tmp>250) 
....................       //   tmp=20; 
....................       i2c_start();            // Comienzo comunicacin 
05BF0:  BSF    F94.4
05BF2:  MOVLW  05
05BF4:  MOVWF  00
05BF6:  DECFSZ 00,F
05BF8:  BRA    5BF6
05BFA:  BSF    F94.3
05BFC:  MOVLW  06
05BFE:  MOVWF  00
05C00:  DECFSZ 00,F
05C02:  BRA    5C00
05C04:  BCF    F8B.4
05C06:  BCF    F94.4
05C08:  MOVLW  05
05C0A:  MOVWF  00
05C0C:  DECFSZ 00,F
05C0E:  BRA    5C0C
05C10:  BCF    F8B.3
05C12:  BCF    F94.3
....................       i2c_write(direccion);   // Direccin del esclavo en el bus I2C 
05C14:  MOVFF  85,42A
05C18:  CALL   1E18
....................       i2c_write(make8(posicion,0));    // Posicin donde se guardara el dato transmitido 
05C1C:  MOVFF  414,417
05C20:  MOVFF  414,42A
05C24:  CALL   1E18
....................       i2c_write(make8(posicion,1));    // Posicin donde se guardara el dato transmitido 
05C28:  MOVFF  415,417
05C2C:  MOVFF  415,42A
05C30:  CALL   1E18
....................       i2c_write(tmp);        // Dato a transmitir 
05C34:  MOVFF  416,42A
05C38:  CALL   1E18
....................       i2c_stop();  
05C3C:  BCF    F94.4
05C3E:  NOP   
05C40:  BSF    F94.3
05C42:  BTFSS  F82.3
05C44:  BRA    5C42
05C46:  MOVLW  05
05C48:  MOVWF  00
05C4A:  DECFSZ 00,F
05C4C:  BRA    5C4A
05C4E:  BRA    5C50
05C50:  NOP   
05C52:  BSF    F94.4
05C54:  MOVLW  05
05C56:  MOVWF  00
05C58:  DECFSZ 00,F
05C5A:  BRA    5C58
....................       ++posicion; 
05C5C:  MOVLB  4
05C5E:  INCF   x14,F
05C60:  BTFSC  FD8.2
05C62:  INCF   x15,F
....................    } 
05C64:  MOVLB  3
05C66:  INCF   x3D,F
05C68:  BRA    5BAE
....................    for(i=0;i<35;i++){//Lee Valores para completar la Tabla 
05C6A:  CLRF   x3D
05C6C:  MOVF   x3D,W
05C6E:  SUBLW  22
05C70:  BNC   5D4A
....................       for(j=5;j<14;j++){//Lee Valores para completar la Tabla 
05C72:  MOVLW  05
05C74:  MOVLB  2
05C76:  MOVWF  xD5
05C78:  MOVF   xD5,W
05C7A:  SUBLW  0D
05C7C:  BNC   5D44
....................          tmp=read_ext_eeprom((cicloVisto*320)+j+(i*9)); 
05C7E:  MOVLB  4
05C80:  CLRF   x19
05C82:  MOVFF  2D2,418
05C86:  MOVLW  01
05C88:  MOVWF  x1B
05C8A:  MOVLW  40
05C8C:  MOVWF  x1A
05C8E:  MOVLB  0
05C90:  CALL   1DF6
05C94:  MOVFF  02,418
05C98:  MOVFF  01,417
05C9C:  MOVLB  2
05C9E:  MOVF   xD5,W
05CA0:  MOVLB  4
05CA2:  ADDWF  x17,F
05CA4:  MOVLW  00
05CA6:  ADDWFC x18,F
05CA8:  MOVLB  3
05CAA:  MOVF   x3D,W
05CAC:  MULLW  09
05CAE:  MOVF   FF3,W
05CB0:  MOVLB  4
05CB2:  ADDWF  x17,F
05CB4:  MOVLW  00
05CB6:  ADDWFC x18,F
05CB8:  MOVFF  418,41A
05CBC:  MOVFF  417,419
05CC0:  MOVLB  0
05CC2:  CALL   1EFA
05CC6:  MOVFF  01,416
....................          //if(tmp>250) 
....................          //   tmp=20; 
....................          i2c_start();            // Comienzo comunicacin 
05CCA:  BSF    F94.4
05CCC:  MOVLW  05
05CCE:  MOVWF  00
05CD0:  DECFSZ 00,F
05CD2:  BRA    5CD0
05CD4:  BSF    F94.3
05CD6:  MOVLW  06
05CD8:  MOVWF  00
05CDA:  DECFSZ 00,F
05CDC:  BRA    5CDA
05CDE:  BCF    F8B.4
05CE0:  BCF    F94.4
05CE2:  MOVLW  05
05CE4:  MOVWF  00
05CE6:  DECFSZ 00,F
05CE8:  BRA    5CE6
05CEA:  BCF    F8B.3
05CEC:  BCF    F94.3
....................          i2c_write(direccion);   // Direccin del esclavo en el bus I2C 
05CEE:  MOVFF  85,42A
05CF2:  CALL   1E18
....................          i2c_write(make8(posicion,0));    // Posicin donde se guardara el dato transmitido 
05CF6:  MOVFF  414,417
05CFA:  MOVFF  414,42A
05CFE:  CALL   1E18
....................          i2c_write(make8(posicion,1));    // Posicin donde se guardara el dato transmitido 
05D02:  MOVFF  415,417
05D06:  MOVFF  415,42A
05D0A:  CALL   1E18
....................          i2c_write(tmp);        // Dato a transmitir 
05D0E:  MOVFF  416,42A
05D12:  CALL   1E18
....................          i2c_stop();  
05D16:  BCF    F94.4
05D18:  NOP   
05D1A:  BSF    F94.3
05D1C:  BTFSS  F82.3
05D1E:  BRA    5D1C
05D20:  MOVLW  05
05D22:  MOVWF  00
05D24:  DECFSZ 00,F
05D26:  BRA    5D24
05D28:  BRA    5D2A
05D2A:  NOP   
05D2C:  BSF    F94.4
05D2E:  MOVLW  05
05D30:  MOVWF  00
05D32:  DECFSZ 00,F
05D34:  BRA    5D32
....................          ++posicion; 
05D36:  MOVLB  4
05D38:  INCF   x14,F
05D3A:  BTFSC  FD8.2
05D3C:  INCF   x15,F
....................       } 
05D3E:  MOVLB  2
05D40:  INCF   xD5,F
05D42:  BRA    5C78
....................    } 
05D44:  MOVLB  3
05D46:  INCF   x3D,F
05D48:  BRA    5C6C
....................  
.................... //Fin de Transmision 
.................... i2c_start();            // Comienzo comunicacin 
05D4A:  BSF    F94.4
05D4C:  MOVLW  05
05D4E:  MOVWF  00
05D50:  DECFSZ 00,F
05D52:  BRA    5D50
05D54:  BSF    F94.3
05D56:  MOVLW  06
05D58:  MOVWF  00
05D5A:  DECFSZ 00,F
05D5C:  BRA    5D5A
05D5E:  BCF    F8B.4
05D60:  BCF    F94.4
05D62:  MOVLW  05
05D64:  MOVWF  00
05D66:  DECFSZ 00,F
05D68:  BRA    5D66
05D6A:  BCF    F8B.3
05D6C:  BCF    F94.3
.................... i2c_write(direccion);   // Direccin del esclavo en el bus I2C 
05D6E:  MOVFF  85,42A
05D72:  MOVLB  0
05D74:  CALL   1E18
.................... i2c_write(make8(posicion,0));    // Posicin donde se guardara el dato transmitido 
05D78:  MOVFF  414,417
05D7C:  MOVFF  414,42A
05D80:  CALL   1E18
.................... i2c_write(make8(posicion,1));    // Posicin donde se guardara el dato transmitido 
05D84:  MOVFF  415,417
05D88:  MOVFF  415,42A
05D8C:  CALL   1E18
.................... i2c_write(0x1f);        // Dato a transmitir 
05D90:  MOVLW  1F
05D92:  MOVLB  4
05D94:  MOVWF  x2A
05D96:  MOVLB  0
05D98:  CALL   1E18
.................... i2c_stop(); 
05D9C:  BCF    F94.4
05D9E:  NOP   
05DA0:  BSF    F94.3
05DA2:  BTFSS  F82.3
05DA4:  BRA    5DA2
05DA6:  MOVLW  05
05DA8:  MOVWF  00
05DAA:  DECFSZ 00,F
05DAC:  BRA    5DAA
05DAE:  BRA    5DB0
05DB0:  NOP   
05DB2:  BSF    F94.4
05DB4:  MOVLW  05
05DB6:  MOVWF  00
05DB8:  DECFSZ 00,F
05DBA:  BRA    5DB8
.................... ++posicion; 
05DBC:  MOVLB  4
05DBE:  INCF   x14,F
05DC0:  BTFSC  FD8.2
05DC2:  INCF   x15,F
.................... i2c_start();            // Comienzo comunicacin 
05DC4:  BSF    F94.4
05DC6:  MOVLW  05
05DC8:  MOVWF  00
05DCA:  DECFSZ 00,F
05DCC:  BRA    5DCA
05DCE:  BSF    F94.3
05DD0:  MOVLW  06
05DD2:  MOVWF  00
05DD4:  DECFSZ 00,F
05DD6:  BRA    5DD4
05DD8:  BCF    F8B.4
05DDA:  BCF    F94.4
05DDC:  MOVLW  05
05DDE:  MOVWF  00
05DE0:  DECFSZ 00,F
05DE2:  BRA    5DE0
05DE4:  BCF    F8B.3
05DE6:  BCF    F94.3
.................... i2c_write(direccion);   // Direccin del esclavo en el bus I2C 
05DE8:  MOVFF  85,42A
05DEC:  MOVLB  0
05DEE:  CALL   1E18
.................... i2c_write(make8(posicion,0));    // Posicin donde se guardara el dato transmitido 
05DF2:  MOVFF  414,417
05DF6:  MOVFF  414,42A
05DFA:  CALL   1E18
.................... i2c_write(make8(posicion,1));    // Posicin donde se guardara el dato transmitido 
05DFE:  MOVFF  415,417
05E02:  MOVFF  415,42A
05E06:  CALL   1E18
.................... i2c_write(0x1f);        // Dato a transmitir 
05E0A:  MOVLW  1F
05E0C:  MOVLB  4
05E0E:  MOVWF  x2A
05E10:  MOVLB  0
05E12:  CALL   1E18
.................... i2c_stop(); 
05E16:  BCF    F94.4
05E18:  NOP   
05E1A:  BSF    F94.3
05E1C:  BTFSS  F82.3
05E1E:  BRA    5E1C
05E20:  MOVLW  05
05E22:  MOVWF  00
05E24:  DECFSZ 00,F
05E26:  BRA    5E24
05E28:  BRA    5E2A
05E2A:  NOP   
05E2C:  BSF    F94.4
05E2E:  MOVLW  05
05E30:  MOVWF  00
05E32:  DECFSZ 00,F
05E34:  BRA    5E32
.................... ++posicion; 
05E36:  MOVLB  4
05E38:  INCF   x14,F
05E3A:  BTFSC  FD8.2
05E3C:  INCF   x15,F
.................... //Se envian 2 veces 1f para indicar que se inicia la transmision. 
.................... delay_ms(200); 
05E3E:  MOVLW  C8
05E40:  MOVWF  x29
05E42:  MOVLB  0
05E44:  CALL   19C2
.................... //Buzzer_off; 
.................... } 
05E48:  GOTO   BBF4 (RETURN)
....................  
.................... void codificaAlarma(){ 
....................    if(ACiclos[i]==0){ 
05E4C:  CLRF   03
05E4E:  MOVLB  3
05E50:  MOVF   x3D,W
05E52:  ADDLW  E0
05E54:  MOVWF  FE9
05E56:  MOVLW  03
05E58:  ADDWFC 03,W
05E5A:  MOVWF  FEA
05E5C:  MOVF   FEF,F
05E5E:  BNZ   5E9E
....................       printf("A%u.txt=\"----\"",i+1); 
05E60:  MOVLW  01
05E62:  ADDWF  x3D,W
05E64:  MOVLB  4
05E66:  MOVWF  x14
05E68:  MOVLW  41
05E6A:  BTFSS  F9E.4
05E6C:  BRA    5E6A
05E6E:  MOVWF  FAD
05E70:  MOVFF  414,419
05E74:  MOVLW  1B
05E76:  MOVWF  x1A
05E78:  MOVLB  0
05E7A:  CALL   4D8A
05E7E:  MOVLW  F9
05E80:  MOVWF  FF6
05E82:  MOVLW  01
05E84:  MOVWF  FF7
05E86:  MOVLW  00
05E88:  MOVWF  FF8
05E8A:  MOVLW  0B
05E8C:  MOVLB  4
05E8E:  MOVWF  x19
05E90:  MOVLB  0
05E92:  CALL   4D2C
....................       SendDataDisplay(); 
05E96:  CALL   40AA
....................    }else if(ACiclos[i]==1){ 
05E9A:  BRA    63B8
05E9C:  MOVLB  3
05E9E:  CLRF   03
05EA0:  MOVF   x3D,W
05EA2:  ADDLW  E0
05EA4:  MOVWF  FE9
05EA6:  MOVLW  03
05EA8:  ADDWFC 03,W
05EAA:  MOVWF  FEA
05EAC:  DECFSZ FEF,W
05EAE:  BRA    5EEE
....................       printf("A%u.txt=\"Parada\"",i+1); 
05EB0:  MOVLW  01
05EB2:  ADDWF  x3D,W
05EB4:  MOVLB  4
05EB6:  MOVWF  x14
05EB8:  MOVLW  41
05EBA:  BTFSS  F9E.4
05EBC:  BRA    5EBA
05EBE:  MOVWF  FAD
05EC0:  MOVFF  414,419
05EC4:  MOVLW  1B
05EC6:  MOVWF  x1A
05EC8:  MOVLB  0
05ECA:  CALL   4D8A
05ECE:  MOVLW  09
05ED0:  MOVWF  FF6
05ED2:  MOVLW  02
05ED4:  MOVWF  FF7
05ED6:  MOVLW  00
05ED8:  MOVWF  FF8
05EDA:  MOVLW  0D
05EDC:  MOVLB  4
05EDE:  MOVWF  x19
05EE0:  MOVLB  0
05EE2:  CALL   4D2C
....................       SendDataDisplay(); 
05EE6:  CALL   40AA
....................    }else if(ACiclos[i]==2){ 
05EEA:  BRA    63B8
05EEC:  MOVLB  3
05EEE:  CLRF   03
05EF0:  MOVF   x3D,W
05EF2:  ADDLW  E0
05EF4:  MOVWF  FE9
05EF6:  MOVLW  03
05EF8:  ADDWFC 03,W
05EFA:  MOVWF  FEA
05EFC:  MOVF   FEF,W
05EFE:  SUBLW  02
05F00:  BNZ   5F40
....................       printf("A%u.txt=\"Puerta\"",i+1); 
05F02:  MOVLW  01
05F04:  ADDWF  x3D,W
05F06:  MOVLB  4
05F08:  MOVWF  x14
05F0A:  MOVLW  41
05F0C:  BTFSS  F9E.4
05F0E:  BRA    5F0C
05F10:  MOVWF  FAD
05F12:  MOVFF  414,419
05F16:  MOVLW  1B
05F18:  MOVWF  x1A
05F1A:  MOVLB  0
05F1C:  CALL   4D8A
05F20:  MOVLW  1B
05F22:  MOVWF  FF6
05F24:  MOVLW  02
05F26:  MOVWF  FF7
05F28:  MOVLW  00
05F2A:  MOVWF  FF8
05F2C:  MOVLW  0D
05F2E:  MOVLB  4
05F30:  MOVWF  x19
05F32:  MOVLB  0
05F34:  CALL   4D2C
....................       SendDataDisplay(); 
05F38:  CALL   40AA
....................    }else if(ACiclos[i]==3){ 
05F3C:  BRA    63B8
05F3E:  MOVLB  3
05F40:  CLRF   03
05F42:  MOVF   x3D,W
05F44:  ADDLW  E0
05F46:  MOVWF  FE9
05F48:  MOVLW  03
05F4A:  ADDWFC 03,W
05F4C:  MOVWF  FEA
05F4E:  MOVF   FEF,W
05F50:  SUBLW  03
05F52:  BNZ   5F92
....................       printf("A%u.txt=\"Termostato\"",i+1); 
05F54:  MOVLW  01
05F56:  ADDWF  x3D,W
05F58:  MOVLB  4
05F5A:  MOVWF  x14
05F5C:  MOVLW  41
05F5E:  BTFSS  F9E.4
05F60:  BRA    5F5E
05F62:  MOVWF  FAD
05F64:  MOVFF  414,419
05F68:  MOVLW  1B
05F6A:  MOVWF  x1A
05F6C:  MOVLB  0
05F6E:  CALL   4D8A
05F72:  MOVLW  2D
05F74:  MOVWF  FF6
05F76:  MOVLW  02
05F78:  MOVWF  FF7
05F7A:  MOVLW  00
05F7C:  MOVWF  FF8
05F7E:  MOVLW  11
05F80:  MOVLB  4
05F82:  MOVWF  x19
05F84:  MOVLB  0
05F86:  CALL   4D2C
....................       SendDataDisplay(); 
05F8A:  CALL   40AA
....................    }else if(ACiclos[i]==4){ 
05F8E:  BRA    63B8
05F90:  MOVLB  3
05F92:  CLRF   03
05F94:  MOVF   x3D,W
05F96:  ADDLW  E0
05F98:  MOVWF  FE9
05F9A:  MOVLW  03
05F9C:  ADDWFC 03,W
05F9E:  MOVWF  FEA
05FA0:  MOVF   FEF,W
05FA2:  SUBLW  04
05FA4:  BNZ   5FE4
....................       printf("A%u.txt=\"SobreT\"",i+1); 
05FA6:  MOVLW  01
05FA8:  ADDWF  x3D,W
05FAA:  MOVLB  4
05FAC:  MOVWF  x14
05FAE:  MOVLW  41
05FB0:  BTFSS  F9E.4
05FB2:  BRA    5FB0
05FB4:  MOVWF  FAD
05FB6:  MOVFF  414,419
05FBA:  MOVLW  1B
05FBC:  MOVWF  x1A
05FBE:  MOVLB  0
05FC0:  CALL   4D8A
05FC4:  MOVLW  43
05FC6:  MOVWF  FF6
05FC8:  MOVLW  02
05FCA:  MOVWF  FF7
05FCC:  MOVLW  00
05FCE:  MOVWF  FF8
05FD0:  MOVLW  0D
05FD2:  MOVLB  4
05FD4:  MOVWF  x19
05FD6:  MOVLB  0
05FD8:  CALL   4D2C
....................       SendDataDisplay(); 
05FDC:  CALL   40AA
....................    }else if(ACiclos[i]==5){ 
05FE0:  BRA    63B8
05FE2:  MOVLB  3
05FE4:  CLRF   03
05FE6:  MOVF   x3D,W
05FE8:  ADDLW  E0
05FEA:  MOVWF  FE9
05FEC:  MOVLW  03
05FEE:  ADDWFC 03,W
05FF0:  MOVWF  FEA
05FF2:  MOVF   FEF,W
05FF4:  SUBLW  05
05FF6:  BNZ   6036
....................       printf("A%u.txt=\"Tiempo\"",i+1); 
05FF8:  MOVLW  01
05FFA:  ADDWF  x3D,W
05FFC:  MOVLB  4
05FFE:  MOVWF  x14
06000:  MOVLW  41
06002:  BTFSS  F9E.4
06004:  BRA    6002
06006:  MOVWF  FAD
06008:  MOVFF  414,419
0600C:  MOVLW  1B
0600E:  MOVWF  x1A
06010:  MOVLB  0
06012:  CALL   4D8A
06016:  MOVLW  55
06018:  MOVWF  FF6
0601A:  MOVLW  02
0601C:  MOVWF  FF7
0601E:  MOVLW  00
06020:  MOVWF  FF8
06022:  MOVLW  0D
06024:  MOVLB  4
06026:  MOVWF  x19
06028:  MOVLB  0
0602A:  CALL   4D2C
....................       SendDataDisplay(); 
0602E:  CALL   40AA
....................    }else if(ACiclos[i]==6){ 
06032:  BRA    63B8
06034:  MOVLB  3
06036:  CLRF   03
06038:  MOVF   x3D,W
0603A:  ADDLW  E0
0603C:  MOVWF  FE9
0603E:  MOVLW  03
06040:  ADDWFC 03,W
06042:  MOVWF  FEA
06044:  MOVF   FEF,W
06046:  SUBLW  06
06048:  BNZ   6088
....................       printf("A%u.txt=\"Presion\"",i+1); 
0604A:  MOVLW  01
0604C:  ADDWF  x3D,W
0604E:  MOVLB  4
06050:  MOVWF  x14
06052:  MOVLW  41
06054:  BTFSS  F9E.4
06056:  BRA    6054
06058:  MOVWF  FAD
0605A:  MOVFF  414,419
0605E:  MOVLW  1B
06060:  MOVWF  x1A
06062:  MOVLB  0
06064:  CALL   4D8A
06068:  MOVLW  67
0606A:  MOVWF  FF6
0606C:  MOVLW  02
0606E:  MOVWF  FF7
06070:  MOVLW  00
06072:  MOVWF  FF8
06074:  MOVLW  0E
06076:  MOVLB  4
06078:  MOVWF  x19
0607A:  MOVLB  0
0607C:  CALL   4D2C
....................       SendDataDisplay(); 
06080:  CALL   40AA
....................    }else if(ACiclos[i]==7){ 
06084:  BRA    63B8
06086:  MOVLB  3
06088:  CLRF   03
0608A:  MOVF   x3D,W
0608C:  ADDLW  E0
0608E:  MOVWF  FE9
06090:  MOVLW  03
06092:  ADDWFC 03,W
06094:  MOVWF  FEA
06096:  MOVF   FEF,W
06098:  SUBLW  07
0609A:  BNZ   60DA
....................       printf("A%u.txt=\"ERR Ciclo\"",i+1); 
0609C:  MOVLW  01
0609E:  ADDWF  x3D,W
060A0:  MOVLB  4
060A2:  MOVWF  x14
060A4:  MOVLW  41
060A6:  BTFSS  F9E.4
060A8:  BRA    60A6
060AA:  MOVWF  FAD
060AC:  MOVFF  414,419
060B0:  MOVLW  1B
060B2:  MOVWF  x1A
060B4:  MOVLB  0
060B6:  CALL   4D8A
060BA:  MOVLW  79
060BC:  MOVWF  FF6
060BE:  MOVLW  02
060C0:  MOVWF  FF7
060C2:  MOVLW  00
060C4:  MOVWF  FF8
060C6:  MOVLW  10
060C8:  MOVLB  4
060CA:  MOVWF  x19
060CC:  MOVLB  0
060CE:  CALL   4D2C
....................       SendDataDisplay(); 
060D2:  CALL   40AA
....................    }else if(ACiclos[i]==8){ 
060D6:  BRA    63B8
060D8:  MOVLB  3
060DA:  CLRF   03
060DC:  MOVF   x3D,W
060DE:  ADDLW  E0
060E0:  MOVWF  FE9
060E2:  MOVLW  03
060E4:  ADDWFC 03,W
060E6:  MOVWF  FEA
060E8:  MOVF   FEF,W
060EA:  SUBLW  08
060EC:  BNZ   612C
....................       printf("A%u.txt=\"Llenado\"",i+1); 
060EE:  MOVLW  01
060F0:  ADDWF  x3D,W
060F2:  MOVLB  4
060F4:  MOVWF  x14
060F6:  MOVLW  41
060F8:  BTFSS  F9E.4
060FA:  BRA    60F8
060FC:  MOVWF  FAD
060FE:  MOVFF  414,419
06102:  MOVLW  1B
06104:  MOVWF  x1A
06106:  MOVLB  0
06108:  CALL   4D8A
0610C:  MOVLW  8D
0610E:  MOVWF  FF6
06110:  MOVLW  02
06112:  MOVWF  FF7
06114:  MOVLW  00
06116:  MOVWF  FF8
06118:  MOVLW  0E
0611A:  MOVLB  4
0611C:  MOVWF  x19
0611E:  MOVLB  0
06120:  CALL   4D2C
....................       SendDataDisplay(); 
06124:  CALL   40AA
....................    }else if(ACiclos[i]==10){ 
06128:  BRA    63B8
0612A:  MOVLB  3
0612C:  CLRF   03
0612E:  MOVF   x3D,W
06130:  ADDLW  E0
06132:  MOVWF  FE9
06134:  MOVLW  03
06136:  ADDWFC 03,W
06138:  MOVWF  FEA
0613A:  MOVF   FEF,W
0613C:  SUBLW  0A
0613E:  BNZ   617E
....................       printf("A%u.txt=\"Llenando\"",i+1); 
06140:  MOVLW  01
06142:  ADDWF  x3D,W
06144:  MOVLB  4
06146:  MOVWF  x14
06148:  MOVLW  41
0614A:  BTFSS  F9E.4
0614C:  BRA    614A
0614E:  MOVWF  FAD
06150:  MOVFF  414,419
06154:  MOVLW  1B
06156:  MOVWF  x1A
06158:  MOVLB  0
0615A:  CALL   4D8A
0615E:  MOVLW  9F
06160:  MOVWF  FF6
06162:  MOVLW  02
06164:  MOVWF  FF7
06166:  MOVLW  00
06168:  MOVWF  FF8
0616A:  MOVLW  0F
0616C:  MOVLB  4
0616E:  MOVWF  x19
06170:  MOVLB  0
06172:  CALL   4D2C
....................       SendDataDisplay(); 
06176:  CALL   40AA
....................    }else if(ACiclos[i]==11){ 
0617A:  BRA    63B8
0617C:  MOVLB  3
0617E:  CLRF   03
06180:  MOVF   x3D,W
06182:  ADDLW  E0
06184:  MOVWF  FE9
06186:  MOVLW  03
06188:  ADDWFC 03,W
0618A:  MOVWF  FEA
0618C:  MOVF   FEF,W
0618E:  SUBLW  0B
06190:  BNZ   61D0
....................       printf("A%u.txt=\"Vacio\"",i+1); 
06192:  MOVLW  01
06194:  ADDWF  x3D,W
06196:  MOVLB  4
06198:  MOVWF  x14
0619A:  MOVLW  41
0619C:  BTFSS  F9E.4
0619E:  BRA    619C
061A0:  MOVWF  FAD
061A2:  MOVFF  414,419
061A6:  MOVLW  1B
061A8:  MOVWF  x1A
061AA:  MOVLB  0
061AC:  CALL   4D8A
061B0:  MOVLW  B3
061B2:  MOVWF  FF6
061B4:  MOVLW  02
061B6:  MOVWF  FF7
061B8:  MOVLW  00
061BA:  MOVWF  FF8
061BC:  MOVLW  0C
061BE:  MOVLB  4
061C0:  MOVWF  x19
061C2:  MOVLB  0
061C4:  CALL   4D2C
....................       SendDataDisplay(); 
061C8:  CALL   40AA
....................    }else if(ACiclos[i]==12){ 
061CC:  BRA    63B8
061CE:  MOVLB  3
061D0:  CLRF   03
061D2:  MOVF   x3D,W
061D4:  ADDLW  E0
061D6:  MOVWF  FE9
061D8:  MOVLW  03
061DA:  ADDWFC 03,W
061DC:  MOVWF  FEA
061DE:  MOVF   FEF,W
061E0:  SUBLW  0C
061E2:  BNZ   6222
....................       printf("A%u.txt=\"Calen\"",i+1); 
061E4:  MOVLW  01
061E6:  ADDWF  x3D,W
061E8:  MOVLB  4
061EA:  MOVWF  x14
061EC:  MOVLW  41
061EE:  BTFSS  F9E.4
061F0:  BRA    61EE
061F2:  MOVWF  FAD
061F4:  MOVFF  414,419
061F8:  MOVLW  1B
061FA:  MOVWF  x1A
061FC:  MOVLB  0
061FE:  CALL   4D8A
06202:  MOVLW  C3
06204:  MOVWF  FF6
06206:  MOVLW  02
06208:  MOVWF  FF7
0620A:  MOVLW  00
0620C:  MOVWF  FF8
0620E:  MOVLW  0C
06210:  MOVLB  4
06212:  MOVWF  x19
06214:  MOVLB  0
06216:  CALL   4D2C
....................       SendDataDisplay(); 
0621A:  CALL   40AA
....................    }else if(ACiclos[i]==13){ 
0621E:  BRA    63B8
06220:  MOVLB  3
06222:  CLRF   03
06224:  MOVF   x3D,W
06226:  ADDLW  E0
06228:  MOVWF  FE9
0622A:  MOVLW  03
0622C:  ADDWFC 03,W
0622E:  MOVWF  FEA
06230:  MOVF   FEF,W
06232:  SUBLW  0D
06234:  BNZ   6274
....................       printf("A%u.txt=\"Desfoga\"",i+1); 
06236:  MOVLW  01
06238:  ADDWF  x3D,W
0623A:  MOVLB  4
0623C:  MOVWF  x14
0623E:  MOVLW  41
06240:  BTFSS  F9E.4
06242:  BRA    6240
06244:  MOVWF  FAD
06246:  MOVFF  414,419
0624A:  MOVLW  1B
0624C:  MOVWF  x1A
0624E:  MOVLB  0
06250:  CALL   4D8A
06254:  MOVLW  D3
06256:  MOVWF  FF6
06258:  MOVLW  02
0625A:  MOVWF  FF7
0625C:  MOVLW  00
0625E:  MOVWF  FF8
06260:  MOVLW  0E
06262:  MOVLB  4
06264:  MOVWF  x19
06266:  MOVLB  0
06268:  CALL   4D2C
....................       SendDataDisplay(); 
0626C:  CALL   40AA
....................    }else if(ACiclos[i]==14){ 
06270:  BRA    63B8
06272:  MOVLB  3
06274:  CLRF   03
06276:  MOVF   x3D,W
06278:  ADDLW  E0
0627A:  MOVWF  FE9
0627C:  MOVLW  03
0627E:  ADDWFC 03,W
06280:  MOVWF  FEA
06282:  MOVF   FEF,W
06284:  SUBLW  0E
06286:  BNZ   62C6
....................       printf("A%u.txt=\"Finalizado\"",i+1); 
06288:  MOVLW  01
0628A:  ADDWF  x3D,W
0628C:  MOVLB  4
0628E:  MOVWF  x14
06290:  MOVLW  41
06292:  BTFSS  F9E.4
06294:  BRA    6292
06296:  MOVWF  FAD
06298:  MOVFF  414,419
0629C:  MOVLW  1B
0629E:  MOVWF  x1A
062A0:  MOVLB  0
062A2:  CALL   4D8A
062A6:  MOVLW  E5
062A8:  MOVWF  FF6
062AA:  MOVLW  02
062AC:  MOVWF  FF7
062AE:  MOVLW  00
062B0:  MOVWF  FF8
062B2:  MOVLW  11
062B4:  MOVLB  4
062B6:  MOVWF  x19
062B8:  MOVLB  0
062BA:  CALL   4D2C
....................       SendDataDisplay(); 
062BE:  CALL   40AA
....................    }else if(ACiclos[i]==15){ 
062C2:  BRA    63B8
062C4:  MOVLB  3
062C6:  CLRF   03
062C8:  MOVF   x3D,W
062CA:  ADDLW  E0
062CC:  MOVWF  FE9
062CE:  MOVLW  03
062D0:  ADDWFC 03,W
062D2:  MOVWF  FEA
062D4:  MOVF   FEF,W
062D6:  SUBLW  0F
062D8:  BNZ   6318
....................       printf("A%u.txt=\"Secando\"",i+1); 
062DA:  MOVLW  01
062DC:  ADDWF  x3D,W
062DE:  MOVLB  4
062E0:  MOVWF  x14
062E2:  MOVLW  41
062E4:  BTFSS  F9E.4
062E6:  BRA    62E4
062E8:  MOVWF  FAD
062EA:  MOVFF  414,419
062EE:  MOVLW  1B
062F0:  MOVWF  x1A
062F2:  MOVLB  0
062F4:  CALL   4D8A
062F8:  MOVLW  FB
062FA:  MOVWF  FF6
062FC:  MOVLW  02
062FE:  MOVWF  FF7
06300:  MOVLW  00
06302:  MOVWF  FF8
06304:  MOVLW  0E
06306:  MOVLB  4
06308:  MOVWF  x19
0630A:  MOVLB  0
0630C:  CALL   4D2C
....................       SendDataDisplay(); 
06310:  CALL   40AA
....................    }else if(ACiclos[i]==16){ 
06314:  BRA    63B8
06316:  MOVLB  3
06318:  CLRF   03
0631A:  MOVF   x3D,W
0631C:  ADDLW  E0
0631E:  MOVWF  FE9
06320:  MOVLW  03
06322:  ADDWFC 03,W
06324:  MOVWF  FEA
06326:  MOVF   FEF,W
06328:  SUBLW  10
0632A:  BNZ   636A
....................       printf("A%u.txt=\"Esterilizando\"",i+1); 
0632C:  MOVLW  01
0632E:  ADDWF  x3D,W
06330:  MOVLB  4
06332:  MOVWF  x14
06334:  MOVLW  41
06336:  BTFSS  F9E.4
06338:  BRA    6336
0633A:  MOVWF  FAD
0633C:  MOVFF  414,419
06340:  MOVLW  1B
06342:  MOVWF  x1A
06344:  MOVLB  0
06346:  CALL   4D8A
0634A:  MOVLW  0D
0634C:  MOVWF  FF6
0634E:  MOVLW  03
06350:  MOVWF  FF7
06352:  MOVLW  00
06354:  MOVWF  FF8
06356:  MOVLW  14
06358:  MOVLB  4
0635A:  MOVWF  x19
0635C:  MOVLB  0
0635E:  CALL   4D2C
....................       SendDataDisplay(); 
06362:  CALL   40AA
....................    }else if(ACiclos[i]==17){ 
06366:  BRA    63B8
06368:  MOVLB  3
0636A:  CLRF   03
0636C:  MOVF   x3D,W
0636E:  ADDLW  E0
06370:  MOVWF  FE9
06372:  MOVLW  03
06374:  ADDWFC 03,W
06376:  MOVWF  FEA
06378:  MOVF   FEF,W
0637A:  SUBLW  11
0637C:  BNZ   63BA
....................       printf("A%u.txt=\"Enfriando\"",i+1); 
0637E:  MOVLW  01
06380:  ADDWF  x3D,W
06382:  MOVLB  4
06384:  MOVWF  x14
06386:  MOVLW  41
06388:  BTFSS  F9E.4
0638A:  BRA    6388
0638C:  MOVWF  FAD
0638E:  MOVFF  414,419
06392:  MOVLW  1B
06394:  MOVWF  x1A
06396:  MOVLB  0
06398:  CALL   4D8A
0639C:  MOVLW  25
0639E:  MOVWF  FF6
063A0:  MOVLW  03
063A2:  MOVWF  FF7
063A4:  MOVLW  00
063A6:  MOVWF  FF8
063A8:  MOVLW  10
063AA:  MOVLB  4
063AC:  MOVWF  x19
063AE:  MOVLB  0
063B0:  CALL   4D2C
....................       SendDataDisplay(); 
063B4:  CALL   40AA
063B8:  MOVLB  3
....................    } 
.................... } 
063BA:  MOVLB  0
063BC:  GOTO   BF96 (RETURN)
....................  
....................  
.................... #int_rda HIGH 
.................... void serial_rx_isr(){ 
....................  
....................    Dato2=fgetc(); 
*
00336:  BTFSS  F9E.5
00338:  BRA    0336
0033A:  MOVFF  FAE,338
0033E:  MOVLB  3
....................    if(Dato2==0x65){//Inicio Comunicacion 
00340:  MOVF   x38,W
00342:  SUBLW  65
00344:  BNZ   034C
....................       Inicio=1; 
00346:  MOVLW  01
00348:  MOVWF  x36
....................       RX_Wr_Index =0; 
0034A:  CLRF   46
....................    } 
....................    //Inicio=1; 
....................    if(Inicio==1){ 
0034C:  DECFSZ x36,W
0034E:  BRA    0364
....................       Rx_Buffer2[RX_Wr_Index] = Dato2; 
00350:  CLRF   03
00352:  MOVF   46,W
00354:  ADDLW  3B
00356:  MOVWF  FE9
00358:  MOVLW  00
0035A:  ADDWFC 03,W
0035C:  MOVWF  FEA
0035E:  MOVFF  338,FEF
....................       RX_Wr_Index++; 
00362:  INCF   46,F
....................    } 
....................    if(RX_Wr_Index >= RX_BUFFER_SIZE){ 
00364:  MOVF   46,W
00366:  SUBLW  09
00368:  BC    036E
....................       RX_Wr_Index =0; 
0036A:  CLRF   46
....................       Inicio=0; 
0036C:  CLRF   x36
....................    } 
....................  
....................    if(RX_Wr_Index==0){ 
0036E:  MOVF   46,F
00370:  BNZ   0392
....................       if(Rx_Buffer2[0]==0x65 && Rx_Buffer2[1]==0xff && Rx_Buffer2[2]==0xff && Rx_Buffer2[8]==0x00 && Rx_Buffer2[9]==0xff ){ 
00372:  MOVF   3B,W
00374:  SUBLW  65
00376:  BNZ   038E
00378:  INCFSZ 3C,W
0037A:  BRA    038E
0037C:  INCFSZ 3D,W
0037E:  BRA    038E
00380:  MOVF   43,F
00382:  BNZ   038E
00384:  INCFSZ 44,W
00386:  BRA    038E
....................          Dato_Exitoso=5; 
00388:  MOVLW  05
0038A:  MOVWF  x37
....................       }else{ 
0038C:  BRA    0392
....................          Dato_Exitoso=10; 
0038E:  MOVLW  0A
00390:  MOVWF  x37
....................       } 
....................    } 
....................    //Dato_Exitoso=5; 
....................    if(Menu==20) 
00392:  MOVF   x3A,W
00394:  SUBLW  14
00396:  BNZ   039C
....................      Buzzer_on; 
00398:  BSF    F8C.0
0039A:  BCF    F95.0
.................... } 
....................  
0039C:  BCF    F9E.5
0039E:  MOVLB  0
003A0:  GOTO   010A
.................... #int_TIMER0 
.................... void temp0s(void){ 
....................    set_timer0(0); 
003A4:  CLRF   FD7
003A6:  CLRF   FD6
....................    t_exhaust++; 
003A8:  MOVLB  3
003AA:  INCF   x6C,F
003AC:  BTFSC  FD8.2
003AE:  INCF   x6D,F
....................    if(DesfogueSuave) 
003B0:  MOVLB  0
003B2:  BTFSS  xA0.6
003B4:  BRA    03F6
....................    { 
....................       if(Nivel<6) 
003B6:  MOVLB  3
003B8:  MOVF   x50,F
003BA:  BNZ   03F0
003BC:  MOVF   x4F,W
003BE:  SUBLW  05
003C0:  BNC   03F0
....................       { 
....................          if(t_exhaust<=NivelSeleccionado) // Si el tiempo es menor o igual al tiempo de control se enciende la resistencia de lo contrario se apaga. 
003C2:  MOVF   x6D,W
003C4:  SUBWF  x5A,W
003C6:  BNC   03D6
003C8:  BNZ   03D0
003CA:  MOVF   x6C,W
003CC:  SUBWF  x59,W
003CE:  BNC   03D6
....................          { 
....................             Desfogue_on; 
003D0:  BSF    F8C.4
003D2:  BCF    F95.4
....................          }else{             
003D4:  BRA    03DA
....................             Desfogue_off; 
003D6:  BCF    F8C.4
003D8:  BCF    F95.4
....................          }    
....................        
....................          if(t_exhaust>=60000) // Si el tiempo de control es mayor al tiempo de ciclo se reinicia tiempo de control 
003DA:  MOVF   x6D,W
003DC:  SUBLW  E9
003DE:  BC    03EE
003E0:  XORLW  FF
003E2:  BNZ   03EA
003E4:  MOVF   x6C,W
003E6:  SUBLW  5F
003E8:  BC    03EE
....................          { 
....................             t_exhaust=0; 
003EA:  CLRF   x6D
003EC:  CLRF   x6C
....................          } // tiempoctrl incrementa una unidad cada Xms, por eso se dividen los tiempos por 0.005. 
....................       } 
....................       else 
003EE:  BRA    03F4
....................       { 
....................          Desfogue_on; 
003F0:  BSF    F8C.4
003F2:  BCF    F95.4
003F4:  MOVLB  0
....................       } 
....................    }   
.................... } 
....................  
003F6:  BCF    FF2.2
003F8:  GOTO   0074
.................... #int_TIMER1 
.................... void temp1s(void){ 
....................    set_timer1(40536); // Se repite cada 5ms 
003FC:  MOVLW  9E
003FE:  MOVWF  FCF
00400:  MOVLW  58
00402:  MOVWF  FCE
....................    tiempos++; 
00404:  MOVLB  3
00406:  INCF   x47,F
00408:  BTFSC  FD8.2
0040A:  INCF   x48,F
....................    tiempos2++; 
0040C:  INCF   x49,F
0040E:  BTFSC  FD8.2
00410:  INCF   x4A,F
....................    tiempos3++; 
00412:  INCF   x4B,F
00414:  BTFSC  FD8.2
00416:  INCF   x4C,F
....................    tiempoctrl++; 
00418:  INCF   x4D,F
0041A:  BTFSC  FD8.2
0041C:  INCF   x4E,F
....................     
....................    if(flagAlarma) 
0041E:  MOVLB  0
00420:  BTFSS  xA3.0
00422:  BRA    042E
....................       tbuzzer++; 
00424:  MOVLB  3
00426:  INCF   x6E,F
00428:  BTFSC  FD8.2
0042A:  INCF   x6F,F
0042C:  MOVLB  0
....................        
....................    if(flagSilencio)    
0042E:  BTFSS  xA3.2
00430:  BRA    043A
....................       tsilencio++; 
00432:  MOVLB  3
00434:  INCF   x70,F
00436:  BTFSC  FD8.2
00438:  INCF   x71,F
....................     
....................    if(Controlando==1){ 
0043A:  MOVLB  3
0043C:  DECFSZ x32,W
0043E:  BRA    047C
....................       if(tiempoctrl<Tp) // Si el tiempo es menor o igual al tiempo de control se enciende la resistencia de lo contrario se apaga. 
00440:  MOVF   x4E,W
00442:  MOVLB  0
00444:  SUBWF  xAB,W
00446:  BNC   0460
00448:  BNZ   045A
0044A:  MOVF   xAA,W
0044C:  MOVLB  3
0044E:  SUBWF  x4D,W
00450:  BTFSS  FD8.0
00452:  BRA    0458
00454:  MOVLB  0
00456:  BRA    0460
00458:  MOVLB  0
....................       { 
....................          SSR_on; 
0045A:  BCF    F8B.2
0045C:  BCF    F94.2
....................       } 
....................       else          
0045E:  BRA    0464
....................       { 
....................          SSR_off; 
00460:  BSF    F8B.2
00462:  BCF    F94.2
....................       } 
....................              
....................       if(tiempoctrl>=Tc) // Si el tiempo de control es mayor al tiempo de ciclo se reinicia tiempo de control 
00464:  MOVF   xAD,W
00466:  MOVLB  3
00468:  SUBWF  x4E,W
0046A:  BNC   047C
0046C:  BNZ   0478
0046E:  MOVLB  0
00470:  MOVF   xAC,W
00472:  MOVLB  3
00474:  SUBWF  x4D,W
00476:  BNC   047C
....................       { 
....................          tiempoctrl=0; 
00478:  CLRF   x4E
0047A:  CLRF   x4D
....................       } // tiempoctrl incrementa una unidad cada 5ms, por eso se dividen los tiempos por 0.005. 
....................    } 
....................     
....................    if(tiempos>=200)  // 12000 para que incremente cada minuto, 200para que incremente cada segundo. 
0047C:  MOVF   x48,F
0047E:  BNZ   0488
00480:  MOVF   x47,W
00482:  SUBLW  C7
00484:  BTFSC  FD8.0
00486:  BRA    05AE
....................    { 
....................       if(flagTC) 
00488:  BTFSS  x2F.4
0048A:  BRA    048E
....................          TiempoControl++; 
0048C:  INCF   x69,F
....................        
....................       tiemporecta++; 
0048E:  INCF   x31,F
....................        
....................       if(IniciaCiclo && tiempoImpresion<CalculoImpresion){ 
00490:  MOVLB  0
00492:  BTFSS  xA0.1
00494:  BRA    04A8
00496:  MOVLB  3
00498:  MOVF   x35,W
0049A:  SUBWF  x46,W
0049C:  BTFSS  FD8.0
0049E:  BRA    04A4
004A0:  MOVLB  0
004A2:  BRA    04A8
....................          tiempoImpresion++; 
004A4:  INCF   x46,F
....................       }else if(tiempoImpresion>=CalculoImpresion){ 
004A6:  BRA    04B4
004A8:  MOVLB  3
004AA:  MOVF   x35,W
004AC:  SUBWF  x46,W
004AE:  BNC   04B4
....................          flagImprime=1; 
004B0:  BSF    x2F.5
....................          tiempoImpresion=0; 
004B2:  CLRF   x46
....................       } 
....................        
....................       if(IniciaCiclo && !Esterilizando){ 
004B4:  MOVLB  0
004B6:  BTFSS  xA0.1
004B8:  BRA    04CE
004BA:  BTFSC  xA0.2
004BC:  BRA    04CE
....................          TiempoCiclo++; 
004BE:  INCF   xA4,F
004C0:  BTFSC  FD8.2
004C2:  INCF   xA5,F
....................          tiempoAgua++; 
004C4:  MOVLB  3
004C6:  INCF   x72,F
004C8:  BTFSC  FD8.2
004CA:  INCF   x73,F
004CC:  MOVLB  0
....................       } 
....................        
....................       if(IniciaLlenado && !CalderinLleno){ 
004CE:  BTFSS  x9F.7
004D0:  BRA    04DC
004D2:  BTFSC  xA0.0
004D4:  BRA    04DC
....................          TiempoLlenado++; 
004D6:  INCF   xA6,F
004D8:  BTFSC  FD8.2
004DA:  INCF   xA7,F
....................       } 
....................        
....................       if(guardaCiclo) 
004DC:  BTFSS  xA1.7
004DE:  BRA    04EA
....................          tguarda++;  
004E0:  MOVLB  3
004E2:  INCF   x5B,F
004E4:  BTFSC  FD8.2
004E6:  INCF   x5C,F
004E8:  MOVLB  0
....................           
....................       if(SensadoNivel){ 
004EA:  BTFSS  xA0.4
004EC:  BRA    04F4
....................          TiempoSensadoNivel++; 
004EE:  INCF   xA8,F
004F0:  BTFSC  FD8.2
004F2:  INCF   xA9,F
....................       } 
....................        
....................       tiempos=0;Lectura=1;tinicio++; 
004F4:  MOVLB  3
004F6:  CLRF   x48
004F8:  CLRF   x47
004FA:  BSF    x2F.1
004FC:  INCF   x51,F
004FE:  BTFSC  FD8.2
00500:  INCF   x52,F
....................     
....................       if(Esterilizando && !Desfogando){                
00502:  MOVLB  0
00504:  BTFSS  xA0.2
00506:  BRA    055A
00508:  BTFSC  xA0.5
0050A:  BRA    055A
....................          if(Testerilizacion[0]>0){ 
0050C:  BTFSC  xAE.7
0050E:  BRA    051A
00510:  MOVF   xAE,W
00512:  SUBLW  00
00514:  BC    051A
....................             Testerilizacion[0]--; 
00516:  DECF   xAE,F
....................          }else if(Testerilizacion[1]>0){ 
00518:  BRA    055A
0051A:  BTFSC  xAF.7
0051C:  BRA    052C
0051E:  MOVF   xAF,W
00520:  SUBLW  00
00522:  BC    052C
....................             Testerilizacion[1]--; 
00524:  DECF   xAF,F
....................             Testerilizacion[0]=9; 
00526:  MOVLW  09
00528:  MOVWF  xAE
....................          }else if(Testerilizacion[2]>0){ 
0052A:  BRA    055A
0052C:  BTFSC  xB0.7
0052E:  BRA    0542
00530:  MOVF   xB0,W
00532:  SUBLW  00
00534:  BC    0542
....................             Testerilizacion[2]--; 
00536:  DECF   xB0,F
....................             Testerilizacion[1]=5; 
00538:  MOVLW  05
0053A:  MOVWF  xAF
....................             Testerilizacion[0]=9; 
0053C:  MOVLW  09
0053E:  MOVWF  xAE
....................          }else if(Testerilizacion[3]>0){ 
00540:  BRA    055A
00542:  BTFSC  xB1.7
00544:  BRA    055A
00546:  MOVF   xB1,W
00548:  SUBLW  00
0054A:  BC    055A
....................             Testerilizacion[3]--; 
0054C:  DECF   xB1,F
....................             Testerilizacion[2]=9; 
0054E:  MOVLW  09
00550:  MOVWF  xB0
....................             Testerilizacion[1]=5; 
00552:  MOVLW  05
00554:  MOVWF  xAF
....................             Testerilizacion[0]=9; 
00556:  MOVLW  09
00558:  MOVWF  xAE
....................          } 
....................       } 
....................        
....................       if(Secando){ 
0055A:  BTFSS  xA0.3
0055C:  BRA    05AC
....................          if(Tsecado[0]>0){ 
0055E:  BTFSC  xB8.7
00560:  BRA    056C
00562:  MOVF   xB8,W
00564:  SUBLW  00
00566:  BC    056C
....................             Tsecado[0]--; 
00568:  DECF   xB8,F
....................          }else if(Tsecado[1]>0){ 
0056A:  BRA    05AC
0056C:  BTFSC  xB9.7
0056E:  BRA    057E
00570:  MOVF   xB9,W
00572:  SUBLW  00
00574:  BC    057E
....................             Tsecado[1]--; 
00576:  DECF   xB9,F
....................             Tsecado[0]=9; 
00578:  MOVLW  09
0057A:  MOVWF  xB8
....................          }else if(Tsecado[2]>0){ 
0057C:  BRA    05AC
0057E:  BTFSC  xBA.7
00580:  BRA    0594
00582:  MOVF   xBA,W
00584:  SUBLW  00
00586:  BC    0594
....................             Tsecado[2]--; 
00588:  DECF   xBA,F
....................             Tsecado[1]=5; 
0058A:  MOVLW  05
0058C:  MOVWF  xB9
....................             Tsecado[0]=9; 
0058E:  MOVLW  09
00590:  MOVWF  xB8
....................          }else if(Tsecado[3]>0){ 
00592:  BRA    05AC
00594:  BTFSC  xBB.7
00596:  BRA    05AC
00598:  MOVF   xBB,W
0059A:  SUBLW  00
0059C:  BC    05AC
....................             Tsecado[3]--; 
0059E:  DECF   xBB,F
....................             Tsecado[2]=9; 
005A0:  MOVLW  09
005A2:  MOVWF  xBA
....................             Tsecado[1]=5; 
005A4:  MOVLW  05
005A6:  MOVWF  xB9
....................             Tsecado[0]=9; 
005A8:  MOVLW  09
005AA:  MOVWF  xB8
005AC:  MOVLB  3
....................          } 
....................       } 
....................    } 
.................... } 
....................  
005AE:  BCF    F9E.0
005B0:  MOVLB  0
005B2:  GOTO   0074
.................... void main() 
.................... { 
*
0718E:  CLRF   FF8
07190:  BCF    FF1.2
07192:  BCF    F9F.0
07194:  BSF    F9F.5
07196:  BSF    FD0.7
07198:  BSF    07.7
0719A:  CLRF   FEA
0719C:  CLRF   FE9
0719E:  BSF    FB8.3
071A0:  MOVLW  08
071A2:  MOVWF  FAF
071A4:  MOVLW  02
071A6:  MOVWF  FB0
071A8:  MOVLW  A6
071AA:  MOVWF  FAC
071AC:  MOVLW  90
071AE:  MOVWF  FAB
071B0:  CLRF   46
071B2:  CLRF   47
071B4:  CLRF   48
071B6:  CLRF   x62
071B8:  CLRF   x63
071BA:  CLRF   x84
071BC:  CLRF   x85
071BE:  CLRF   x86
071C0:  BCF    x9F.0
071C2:  BCF    x9F.1
071C4:  BCF    x9F.2
071C6:  BCF    x9F.3
071C8:  BCF    x9F.4
071CA:  BCF    x9F.5
071CC:  BCF    x9F.6
071CE:  BCF    x9F.7
071D0:  BCF    xA0.0
071D2:  BCF    xA0.1
071D4:  BCF    xA0.2
071D6:  BCF    xA0.3
071D8:  BCF    xA0.4
071DA:  BCF    xA0.5
071DC:  BCF    xA0.6
071DE:  BCF    xA0.7
071E0:  BCF    xA1.0
071E2:  BCF    xA1.1
071E4:  BCF    xA1.2
071E6:  BCF    xA1.3
071E8:  BCF    xA1.4
071EA:  BCF    xA1.5
071EC:  BCF    xA1.6
071EE:  BCF    xA1.7
071F0:  BCF    xA2.0
071F2:  BCF    xA2.1
071F4:  BCF    xA2.2
071F6:  BCF    xA2.3
071F8:  BCF    xA2.4
071FA:  BCF    xA2.5
071FC:  BCF    xA2.6
071FE:  BCF    xA2.7
07200:  BCF    xA3.0
07202:  BCF    xA3.1
07204:  BCF    xA3.2
07206:  BCF    xA3.3
07208:  BCF    xA3.4
0720A:  BCF    xA3.5
0720C:  BCF    xA3.6
0720E:  BCF    xA3.7
07210:  CLRF   xA5
07212:  CLRF   xA4
07214:  CLRF   xA7
07216:  CLRF   xA6
07218:  CLRF   xA9
0721A:  CLRF   xA8
0721C:  CLRF   xAB
0721E:  CLRF   xAA
07220:  CLRF   xAD
07222:  CLRF   xAC
07224:  MOVLW  9A
07226:  MOVLB  2
07228:  MOVWF  xA3
0722A:  MOVLW  99
0722C:  MOVWF  xA2
0722E:  MOVLW  0D
07230:  MOVWF  xA1
07232:  MOVLW  86
07234:  MOVWF  xA0
07236:  CLRF   xA7
07238:  CLRF   xA6
0723A:  CLRF   xA5
0723C:  MOVLW  7E
0723E:  MOVWF  xA4
07240:  CLRF   xAB
07242:  CLRF   xAA
07244:  CLRF   xA9
07246:  CLRF   xA8
07248:  CLRF   xAF
0724A:  CLRF   xAE
0724C:  MOVLW  48
0724E:  MOVWF  xAD
07250:  MOVLW  85
07252:  MOVWF  xAC
07254:  CLRF   xB3
07256:  MOVLW  80
07258:  MOVWF  xB2
0725A:  MOVLW  54
0725C:  MOVWF  xB1
0725E:  MOVLW  8B
07260:  MOVWF  xB0
07262:  CLRF   xBF
07264:  CLRF   xBE
07266:  CLRF   xBD
07268:  CLRF   xBC
0726A:  CLRF   xC3
0726C:  CLRF   xC2
0726E:  CLRF   xC1
07270:  CLRF   xC0
07272:  CLRF   xC7
07274:  CLRF   xC6
07276:  CLRF   xC5
07278:  CLRF   xC4
0727A:  CLRF   xC8
0727C:  CLRF   xC9
0727E:  CLRF   xCA
07280:  CLRF   xCB
07282:  MOVLW  14
07284:  MOVWF  xCC
07286:  CLRF   xCD
07288:  CLRF   xCE
0728A:  CLRF   xCF
0728C:  CLRF   xD0
0728E:  CLRF   xD1
07290:  CLRF   xD2
07292:  CLRF   xD3
07294:  CLRF   xD4
07296:  CLRF   xD5
07298:  CLRF   xD6
0729A:  CLRF   xD7
0729C:  CLRF   xDB
0729E:  CLRF   xDA
072A0:  CLRF   xD9
072A2:  CLRF   xD8
072A4:  CLRF   xE3
072A6:  CLRF   xE2
072A8:  MOVLW  20
072AA:  MOVWF  xE1
072AC:  MOVLW  82
072AE:  MOVWF  xE0
072B0:  CLRF   xE7
072B2:  CLRF   xE6
072B4:  CLRF   xE5
072B6:  CLRF   xE4
072B8:  CLRF   xEB
072BA:  CLRF   xEA
072BC:  CLRF   xE9
072BE:  CLRF   xE8
072C0:  CLRF   xEF
072C2:  CLRF   xEE
072C4:  CLRF   xED
072C6:  CLRF   xEC
072C8:  CLRF   xF3
072CA:  CLRF   xF2
072CC:  CLRF   xF1
072CE:  CLRF   xF0
072D0:  CLRF   xF7
072D2:  CLRF   xF6
072D4:  CLRF   xF5
072D6:  CLRF   xF4
072D8:  CLRF   xFB
072DA:  CLRF   xFA
072DC:  MOVLW  48
072DE:  MOVWF  xF9
072E0:  MOVLW  83
072E2:  MOVWF  xF8
072E4:  CLRF   xFF
072E6:  CLRF   xFE
072E8:  MOVLW  20
072EA:  MOVWF  xFD
072EC:  MOVLW  83
072EE:  MOVWF  xFC
072F0:  MOVLB  3
072F2:  CLRF   x03
072F4:  CLRF   x02
072F6:  CLRF   x01
072F8:  MOVLW  7F
072FA:  MOVWF  x00
072FC:  CLRF   x07
072FE:  CLRF   x06
07300:  CLRF   x05
07302:  CLRF   x04
07304:  CLRF   x0B
07306:  CLRF   x0A
07308:  CLRF   x09
0730A:  CLRF   x08
0730C:  CLRF   x0F
0730E:  CLRF   x0E
07310:  CLRF   x0D
07312:  CLRF   x0C
07314:  CLRF   x13
07316:  CLRF   x12
07318:  CLRF   x11
0731A:  CLRF   x10
0731C:  CLRF   x17
0731E:  CLRF   x16
07320:  CLRF   x15
07322:  CLRF   x14
07324:  CLRF   x1B
07326:  CLRF   x1A
07328:  CLRF   x19
0732A:  CLRF   x18
0732C:  MOVLW  4A
0732E:  MOVWF  x1F
07330:  MOVLW  88
07332:  MOVWF  x1E
07334:  MOVLW  28
07336:  MOVWF  x1D
07338:  MOVLW  75
0733A:  MOVWF  x1C
0733C:  MOVLW  E0
0733E:  MOVWF  x23
07340:  MOVLW  2D
07342:  MOVWF  x22
07344:  MOVLW  10
07346:  MOVWF  x21
07348:  MOVLW  75
0734A:  MOVWF  x20
0734C:  MOVLW  FF
0734E:  MOVWF  x27
07350:  MOVLW  21
07352:  MOVWF  x26
07354:  MOVLW  15
07356:  MOVWF  x25
07358:  MOVLW  80
0735A:  MOVWF  x24
0735C:  MOVLW  82
0735E:  MOVWF  x2B
07360:  MOVLW  12
07362:  MOVWF  x2A
07364:  MOVLW  F4
07366:  MOVWF  x29
07368:  MOVLW  86
0736A:  MOVWF  x28
0736C:  CLRF   x2C
0736E:  CLRF   x2D
07370:  CLRF   x2E
07372:  BCF    x2F.0
07374:  BCF    x2F.1
07376:  BCF    x2F.2
07378:  BCF    x2F.3
0737A:  BCF    x2F.4
0737C:  BCF    x2F.5
0737E:  BCF    x2F.6
07380:  CLRF   x30
07382:  CLRF   x31
07384:  CLRF   x32
07386:  MOVLW  01
07388:  MOVWF  x33
0738A:  MOVLW  02
0738C:  MOVWF  x34
0738E:  CLRF   x35
07390:  MOVLW  01
07392:  MOVWF  x36
07394:  CLRF   x37
07396:  CLRF   x38
07398:  CLRF   x39
0739A:  CLRF   x3A
0739C:  CLRF   x3B
0739E:  MOVLW  F0
073A0:  MOVWF  x3C
073A2:  CLRF   x3D
073A4:  CLRF   x3E
073A6:  CLRF   x3F
073A8:  CLRF   x40
073AA:  CLRF   x41
073AC:  MOVLW  01
073AE:  MOVWF  x42
073B0:  MOVWF  x43
073B2:  CLRF   x44
073B4:  CLRF   x45
073B6:  CLRF   x46
073B8:  CLRF   x48
073BA:  CLRF   x47
073BC:  CLRF   x4A
073BE:  CLRF   x49
073C0:  CLRF   x4C
073C2:  CLRF   x4B
073C4:  CLRF   x4E
073C6:  CLRF   x4D
073C8:  CLRF   x50
073CA:  CLRF   x4F
073CC:  CLRF   x52
073CE:  CLRF   x51
073D0:  CLRF   x54
073D2:  CLRF   x53
073D4:  CLRF   x56
073D6:  CLRF   x55
073D8:  CLRF   x58
073DA:  CLRF   x57
073DC:  CLRF   x5A
073DE:  CLRF   x59
073E0:  CLRF   x5C
073E2:  CLRF   x5B
073E4:  CLRF   x65
073E6:  CLRF   x66
073E8:  CLRF   x67
073EA:  CLRF   x68
073EC:  CLRF   x69
073EE:  CLRF   x6A
073F0:  CLRF   x6B
073F2:  CLRF   x6D
073F4:  CLRF   x6C
073F6:  CLRF   x6F
073F8:  CLRF   x6E
073FA:  CLRF   x71
073FC:  CLRF   x70
073FE:  CLRF   x73
07400:  CLRF   x72
07402:  MOVLW  12
07404:  MOVWF  x74
07406:  MOVLW  09
07408:  MOVWF  x75
0740A:  MOVLW  0D
0740C:  MOVWF  x76
0740E:  CLRF   x77
07410:  CLRF   x78
07412:  CLRF   x79
07414:  CLRF   x7A
07416:  CLRF   x7B
07418:  CLRF   x7C
0741A:  CLRF   x7D
0741C:  CLRF   x7E
0741E:  CLRF   x7F
07420:  CLRF   x80
07422:  CLRF   x81
07424:  CLRF   x82
07426:  CLRF   x83
07428:  CLRF   x84
0742A:  CLRF   x85
0742C:  CLRF   x86
0742E:  CLRF   x87
07430:  CLRF   xE7
07432:  CLRF   xE8
07434:  CLRF   xE9
07436:  CLRF   xEA
07438:  CLRF   xEB
0743A:  MOVF   FC1,W
0743C:  ANDLW  C0
0743E:  IORLW  0F
07440:  MOVWF  FC1
07442:  MOVLW  07
07444:  MOVWF  FB4
07446:  CLRF   2A
07448:  CLRF   2B
0744A:  MOVLB  0
0744C:  CLRF   x87
0744E:  MOVLW  03
07450:  MOVWF  x88
07452:  MOVWF  x89
07454:  MOVLW  06
07456:  MOVWF  x8A
07458:  MOVLW  01
0745A:  MOVWF  x8B
0745C:  MOVLW  04
0745E:  MOVWF  x8C
07460:  MOVLW  06
07462:  MOVWF  x8D
07464:  MOVLW  02
07466:  MOVWF  x8E
07468:  MOVLW  05
0746A:  MOVWF  x8F
0746C:  CLRF   x90
0746E:  MOVLW  03
07470:  MOVWF  x91
07472:  MOVLW  05
07474:  MOVWF  x92
07476:  CLRF   x93
07478:  MOVLW  03
0747A:  MOVWF  x94
0747C:  MOVLW  04
0747E:  MOVWF  x95
07480:  CLRF   x96
07482:  MOVLW  02
07484:  MOVWF  x97
07486:  MOVLW  05
07488:  MOVWF  x98
0748A:  CLRF   x99
0748C:  MOVLW  03
0748E:  MOVWF  x9A
07490:  MOVLW  06
07492:  MOVWF  x9B
07494:  MOVLW  01
07496:  MOVWF  x9C
07498:  MOVLW  04
0749A:  MOVWF  x9D
0749C:  MOVLW  06
0749E:  MOVWF  x9E
074A0:  CLRF   xAE
074A2:  CLRF   xAF
074A4:  CLRF   xB0
074A6:  CLRF   xB1
074A8:  CLRF   xB2
074AA:  CLRF   xB3
074AC:  CLRF   xB4
074AE:  CLRF   xB5
074B0:  CLRF   xB6
074B2:  CLRF   xB7
074B4:  CLRF   xB8
074B6:  CLRF   xB9
074B8:  CLRF   xBA
074BA:  CLRF   xBB
074BC:  CLRF   xBC
074BE:  CLRF   xBD
074C0:  CLRF   xBE
074C2:  CLRF   xBF
074C4:  CLRF   xC0
074C6:  CLRF   xC1
074C8:  CLRF   xC2
074CA:  CLRF   xC3
074CC:  CLRF   xC4
074CE:  CLRF   xC5
074D0:  CLRF   xC6
074D2:  CLRF   xC7
074D4:  CLRF   xC8
074D6:  CLRF   xC9
074D8:  CLRF   xCA
074DA:  CLRF   xCB
074DC:  CLRF   xCC
074DE:  CLRF   xCD
074E0:  CLRF   xCE
074E2:  CLRF   xCF
074E4:  CLRF   xD0
074E6:  CLRF   xD1
074E8:  CLRF   xD2
074EA:  CLRF   xD3
074EC:  CLRF   xD4
074EE:  CLRF   xD5
074F0:  CLRF   xD6
074F2:  CLRF   xD7
074F4:  CLRF   xD8
074F6:  CLRF   xD9
074F8:  CLRF   xDA
074FA:  CLRF   xDB
074FC:  CLRF   xDC
074FE:  CLRF   xDD
07500:  CLRF   xDE
07502:  CLRF   xDF
07504:  CLRF   xE0
07506:  CLRF   xE1
07508:  CLRF   xE2
0750A:  CLRF   xE3
0750C:  CLRF   xE4
0750E:  CLRF   xE5
07510:  CLRF   xE6
07512:  CLRF   xE7
07514:  CLRF   xE8
07516:  CLRF   xE9
07518:  CLRF   xEA
0751A:  CLRF   xEB
0751C:  CLRF   xEC
0751E:  CLRF   xED
07520:  CLRF   xEE
07522:  CLRF   xEF
07524:  CLRF   xF0
07526:  CLRF   xF1
07528:  CLRF   xF2
0752A:  CLRF   xF3
0752C:  CLRF   xF4
0752E:  CLRF   xF5
07530:  CLRF   xF6
07532:  CLRF   xF7
07534:  CLRF   xF8
07536:  CLRF   xF9
07538:  CLRF   xFA
0753A:  CLRF   xFB
0753C:  CLRF   xFC
0753E:  CLRF   xFD
07540:  CLRF   xFE
07542:  CLRF   xFF
07544:  MOVLB  1
07546:  CLRF   x00
07548:  CLRF   x01
0754A:  CLRF   x02
0754C:  CLRF   x03
0754E:  CLRF   x04
07550:  CLRF   x05
07552:  CLRF   x06
07554:  CLRF   x07
07556:  CLRF   x08
07558:  CLRF   x09
0755A:  CLRF   x0A
0755C:  CLRF   x0B
0755E:  CLRF   x0C
07560:  CLRF   x0D
07562:  CLRF   x0E
07564:  CLRF   x0F
07566:  CLRF   x10
07568:  CLRF   x11
0756A:  CLRF   x12
0756C:  CLRF   x13
0756E:  CLRF   x14
07570:  CLRF   x15
07572:  CLRF   x16
07574:  CLRF   x17
07576:  CLRF   x18
07578:  CLRF   x19
0757A:  CLRF   x1A
0757C:  CLRF   x1B
0757E:  CLRF   x1C
07580:  CLRF   x1D
07582:  CLRF   x1E
07584:  CLRF   x1F
07586:  CLRF   x20
07588:  CLRF   x21
0758A:  CLRF   x22
0758C:  CLRF   x23
0758E:  CLRF   x24
07590:  CLRF   x25
07592:  CLRF   x26
07594:  CLRF   x27
07596:  CLRF   x28
07598:  CLRF   x29
0759A:  CLRF   x2A
0759C:  CLRF   x2B
0759E:  CLRF   x2C
075A0:  CLRF   x2D
075A2:  CLRF   x2E
075A4:  CLRF   x2F
075A6:  CLRF   x30
075A8:  CLRF   x31
075AA:  CLRF   x32
075AC:  CLRF   x33
075AE:  CLRF   x34
075B0:  CLRF   x35
075B2:  CLRF   x36
075B4:  CLRF   x37
075B6:  CLRF   x38
075B8:  CLRF   x39
075BA:  CLRF   x3A
075BC:  CLRF   x3B
075BE:  CLRF   x3C
075C0:  CLRF   x3D
075C2:  CLRF   x3E
075C4:  CLRF   x3F
075C6:  CLRF   x40
075C8:  CLRF   x41
075CA:  CLRF   x42
075CC:  CLRF   x43
075CE:  CLRF   x44
075D0:  CLRF   x45
075D2:  CLRF   x46
075D4:  CLRF   x47
075D6:  CLRF   x48
075D8:  CLRF   x49
075DA:  CLRF   x4A
075DC:  CLRF   x4B
075DE:  CLRF   x4C
075E0:  CLRF   x4D
075E2:  CLRF   x4E
075E4:  CLRF   x4F
075E6:  CLRF   x50
075E8:  CLRF   x51
075EA:  CLRF   x52
075EC:  CLRF   x53
075EE:  CLRF   x54
075F0:  CLRF   x55
075F2:  CLRF   x56
075F4:  CLRF   x57
075F6:  CLRF   x58
075F8:  CLRF   x59
075FA:  CLRF   x5A
075FC:  CLRF   x5B
075FE:  CLRF   x5C
07600:  CLRF   x5D
07602:  CLRF   x5E
07604:  CLRF   x5F
07606:  CLRF   x60
07608:  CLRF   x61
0760A:  CLRF   x62
0760C:  CLRF   x63
0760E:  CLRF   x64
07610:  CLRF   x65
07612:  CLRF   x66
07614:  CLRF   x67
07616:  CLRF   x68
07618:  CLRF   x69
0761A:  CLRF   x6A
0761C:  CLRF   x6B
0761E:  CLRF   x6C
07620:  CLRF   x6D
07622:  CLRF   x6E
07624:  CLRF   x6F
07626:  CLRF   x70
07628:  CLRF   x71
0762A:  CLRF   x72
0762C:  CLRF   x73
0762E:  CLRF   x74
07630:  CLRF   x75
07632:  CLRF   x76
07634:  CLRF   x77
07636:  CLRF   x78
07638:  CLRF   x79
0763A:  CLRF   x7A
0763C:  CLRF   x7B
0763E:  CLRF   x7C
07640:  CLRF   x7D
07642:  CLRF   x7E
07644:  CLRF   x7F
07646:  CLRF   x80
07648:  CLRF   x81
0764A:  CLRF   x82
0764C:  CLRF   x83
0764E:  CLRF   x84
07650:  CLRF   x85
07652:  CLRF   x86
07654:  CLRF   x87
07656:  CLRF   x88
07658:  CLRF   x89
0765A:  CLRF   x8A
0765C:  CLRF   x8B
0765E:  CLRF   x8C
07660:  CLRF   x8D
07662:  CLRF   x8E
07664:  CLRF   x8F
07666:  CLRF   x90
07668:  CLRF   x91
0766A:  CLRF   x92
0766C:  CLRF   x93
0766E:  CLRF   x94
07670:  CLRF   x95
07672:  CLRF   x96
07674:  CLRF   x97
07676:  CLRF   x98
07678:  CLRF   x99
0767A:  CLRF   x9A
0767C:  CLRF   x9B
0767E:  CLRF   x9C
07680:  CLRF   x9D
07682:  CLRF   x9E
07684:  CLRF   x9F
07686:  CLRF   xA0
07688:  CLRF   xA1
0768A:  CLRF   xA2
0768C:  CLRF   xA3
0768E:  CLRF   xA4
07690:  CLRF   xA5
07692:  CLRF   xA6
07694:  CLRF   xA7
07696:  CLRF   xA8
07698:  CLRF   xA9
0769A:  CLRF   xAA
0769C:  CLRF   xAB
0769E:  CLRF   xAC
076A0:  CLRF   xAD
076A2:  CLRF   xAE
076A4:  CLRF   xAF
076A6:  CLRF   xB0
076A8:  CLRF   xB1
076AA:  CLRF   xB2
076AC:  CLRF   xB3
076AE:  CLRF   xB4
076B0:  CLRF   xB5
076B2:  CLRF   xB6
076B4:  CLRF   xB7
076B6:  CLRF   xB8
076B8:  CLRF   xB9
076BA:  CLRF   xBA
076BC:  CLRF   xBB
076BE:  CLRF   xBC
076C0:  CLRF   xBD
076C2:  CLRF   xBE
076C4:  CLRF   xBF
076C6:  CLRF   xC0
076C8:  CLRF   xC1
076CA:  CLRF   xC2
076CC:  CLRF   xC3
076CE:  CLRF   xC4
076D0:  CLRF   xC5
076D2:  CLRF   xC6
076D4:  CLRF   xC7
076D6:  CLRF   xC8
076D8:  CLRF   xC9
076DA:  CLRF   xCA
076DC:  CLRF   xCB
076DE:  CLRF   xCC
076E0:  CLRF   xCD
076E2:  CLRF   xCE
076E4:  CLRF   xCF
076E6:  CLRF   xD0
076E8:  CLRF   xD1
076EA:  CLRF   xD2
076EC:  CLRF   xD3
076EE:  CLRF   xD4
076F0:  CLRF   xD5
076F2:  CLRF   xD6
076F4:  CLRF   xD7
076F6:  CLRF   xD8
076F8:  CLRF   xD9
076FA:  CLRF   xDA
076FC:  CLRF   xDB
076FE:  CLRF   xDC
07700:  CLRF   xDD
07702:  CLRF   xDE
07704:  CLRF   xDF
07706:  CLRF   xE0
07708:  CLRF   xE1
0770A:  CLRF   xE2
0770C:  CLRF   xE3
0770E:  CLRF   xE4
07710:  CLRF   xE5
07712:  CLRF   xE6
07714:  CLRF   xE7
07716:  CLRF   xE8
07718:  CLRF   xE9
0771A:  CLRF   xEA
0771C:  CLRF   xEB
0771E:  CLRF   xEC
07720:  CLRF   xED
07722:  CLRF   xEE
07724:  CLRF   xEF
07726:  CLRF   xF0
07728:  CLRF   xF1
0772A:  CLRF   xF2
0772C:  CLRF   xF3
0772E:  CLRF   xF4
07730:  CLRF   xF5
07732:  CLRF   xF6
07734:  CLRF   xF7
07736:  CLRF   xF8
07738:  CLRF   xF9
0773A:  CLRF   xFA
0773C:  CLRF   xFB
0773E:  CLRF   xFC
07740:  CLRF   xFD
07742:  CLRF   xFE
07744:  CLRF   xFF
07746:  MOVLB  2
07748:  CLRF   x00
0774A:  CLRF   x01
0774C:  CLRF   x02
0774E:  CLRF   x03
07750:  CLRF   x04
07752:  CLRF   x05
07754:  CLRF   x06
07756:  CLRF   x07
07758:  CLRF   x08
0775A:  CLRF   x09
0775C:  CLRF   x0A
0775E:  CLRF   x0B
07760:  CLRF   x0C
07762:  CLRF   x0D
07764:  CLRF   x0E
07766:  CLRF   x0F
07768:  CLRF   x10
0776A:  CLRF   x11
0776C:  CLRF   x12
0776E:  CLRF   x13
07770:  CLRF   x14
07772:  CLRF   x15
07774:  CLRF   x16
07776:  CLRF   x17
07778:  CLRF   x18
0777A:  CLRF   x19
0777C:  CLRF   x1A
0777E:  CLRF   x1B
07780:  CLRF   x1C
07782:  CLRF   x1D
07784:  CLRF   x1E
07786:  CLRF   x1F
07788:  CLRF   x20
0778A:  CLRF   x21
0778C:  CLRF   x22
0778E:  CLRF   x23
07790:  CLRF   x24
07792:  CLRF   x25
07794:  CLRF   x26
07796:  CLRF   x27
07798:  CLRF   x28
0779A:  CLRF   x29
0779C:  CLRF   x2A
0779E:  CLRF   x2B
077A0:  CLRF   x2C
077A2:  CLRF   x2D
077A4:  CLRF   x2E
077A6:  CLRF   x2F
077A8:  CLRF   x30
077AA:  CLRF   x31
077AC:  CLRF   x32
077AE:  CLRF   x33
077B0:  CLRF   x34
077B2:  CLRF   x35
077B4:  CLRF   x36
077B6:  CLRF   x37
077B8:  CLRF   x38
077BA:  CLRF   x39
077BC:  CLRF   x3A
077BE:  CLRF   x3B
077C0:  CLRF   x3C
077C2:  CLRF   x3D
077C4:  CLRF   x3E
077C6:  CLRF   x3F
077C8:  CLRF   x40
077CA:  CLRF   x41
077CC:  CLRF   x42
077CE:  CLRF   x43
077D0:  CLRF   x44
077D2:  CLRF   x45
077D4:  CLRF   x46
077D6:  CLRF   x47
077D8:  CLRF   x48
077DA:  CLRF   x49
077DC:  CLRF   x4A
077DE:  CLRF   x4B
077E0:  CLRF   x4C
077E2:  CLRF   x4D
077E4:  CLRF   x4E
077E6:  CLRF   x4F
077E8:  CLRF   x50
077EA:  CLRF   x51
077EC:  CLRF   x52
077EE:  CLRF   x53
077F0:  CLRF   x54
077F2:  CLRF   x55
077F4:  CLRF   x56
077F6:  CLRF   x57
077F8:  CLRF   x58
077FA:  CLRF   x59
077FC:  CLRF   x5A
077FE:  CLRF   x5B
07800:  CLRF   x5C
07802:  CLRF   x5D
07804:  CLRF   x5E
07806:  CLRF   x5F
07808:  CLRF   x60
0780A:  CLRF   x61
0780C:  CLRF   x62
0780E:  CLRF   x63
07810:  CLRF   x64
07812:  CLRF   x65
07814:  CLRF   x66
07816:  CLRF   x67
07818:  CLRF   x68
0781A:  CLRF   x69
0781C:  CLRF   x6A
0781E:  CLRF   x6B
07820:  CLRF   x6C
07822:  CLRF   x6D
07824:  CLRF   x6E
07826:  CLRF   x6F
07828:  CLRF   x70
0782A:  CLRF   x71
0782C:  CLRF   x72
0782E:  CLRF   x73
07830:  CLRF   x74
07832:  CLRF   x75
07834:  CLRF   x76
07836:  CLRF   x77
07838:  CLRF   x78
0783A:  CLRF   x79
0783C:  CLRF   x7A
0783E:  CLRF   x7B
07840:  CLRF   x7C
07842:  CLRF   x7D
07844:  CLRF   x7E
07846:  CLRF   x7F
07848:  CLRF   x80
0784A:  CLRF   x81
0784C:  CLRF   x82
0784E:  CLRF   x83
07850:  CLRF   x84
07852:  CLRF   x85
07854:  CLRF   x86
07856:  CLRF   x87
07858:  CLRF   x88
0785A:  CLRF   x89
0785C:  CLRF   x8A
0785E:  CLRF   x8B
07860:  CLRF   x8C
07862:  CLRF   x8D
07864:  CLRF   x8E
07866:  CLRF   x8F
07868:  CLRF   x90
0786A:  CLRF   x91
0786C:  CLRF   x92
0786E:  CLRF   x93
07870:  CLRF   x94
07872:  CLRF   x95
07874:  CLRF   x96
07876:  CLRF   x97
07878:  CLRF   x98
0787A:  CLRF   x99
0787C:  CLRF   x9A
0787E:  CLRF   x9B
07880:  CLRF   x9C
07882:  CLRF   x9D
07884:  CLRF   x9E
07886:  CLRF   x9F
07888:  CLRF   xB4
0788A:  CLRF   xB5
0788C:  CLRF   xB6
0788E:  CLRF   xB7
07890:  CLRF   xB8
07892:  CLRF   xB9
07894:  CLRF   xBA
07896:  CLRF   xBB
07898:  MOVLB  3
0789A:  CLRF   x5D
0789C:  CLRF   x5E
0789E:  CLRF   x5F
078A0:  CLRF   x60
078A2:  CLRF   x61
078A4:  CLRF   x62
078A6:  CLRF   x63
078A8:  CLRF   x64
078AA:  MOVLW  19
078AC:  MOVWF  x88
078AE:  MOVLW  10
078B0:  MOVWF  x89
078B2:  MOVLW  16
078B4:  MOVWF  x8A
078B6:  MOVLW  18
078B8:  MOVWF  x8B
078BA:  MOVLW  17
078BC:  MOVWF  x8C
078BE:  MOVLW  1C
078C0:  MOVWF  x8D
078C2:  MOVLW  14
078C4:  MOVWF  x8E
078C6:  MOVLW  2E
078C8:  MOVWF  x8F
078CA:  MOVLW  45
078CC:  MOVWF  x90
078CE:  MOVLW  22
078D0:  MOVWF  x91
078D2:  MOVLW  24
078D4:  MOVWF  x92
078D6:  MOVLW  12
078D8:  MOVWF  x93
078DA:  MOVLW  21
078DC:  MOVWF  x94
078DE:  MOVLW  20
078E0:  MOVWF  x95
078E2:  MOVLW  26
078E4:  MOVWF  x96
078E6:  MOVLW  13
078E8:  MOVWF  x97
078EA:  MOVLW  11
078EC:  MOVWF  x98
078EE:  MOVLW  44
078F0:  MOVWF  x99
....................     
....................    for (posicion=0;posicion<0x10;posicion++){ 
078F2:  MOVLB  0
078F4:  CLRF   x86
078F6:  MOVF   x86,W
078F8:  SUBLW  0F
078FA:  BNC   7910
....................       SlaveA0Tx[posicion] = 0x00; 
078FC:  CLRF   03
078FE:  MOVF   x86,W
07900:  ADDLW  64
07902:  MOVWF  FE9
07904:  MOVLW  00
07906:  ADDWFC 03,W
07908:  MOVWF  FEA
0790A:  CLRF   FEF
....................    } 
0790C:  INCF   x86,F
0790E:  BRA    78F6
....................    setup_timer_0(RTCC_8_BIT|RTCC_DIV_1); 
07910:  MOVLW  C8
07912:  MOVWF  FD5
....................    enable_interrupts(INT_TIMER0); 
07914:  BSF    FF2.5
....................    setup_timer_1(T1_INTERNAL|T1_DIV_BY_1); 
07916:  MOVLW  85
07918:  MOVWF  FCD
....................    enable_interrupts(INT_TIMER1); 
0791A:  BSF    F9D.0
....................    setup_adc_ports(AN0_TO_AN3); 
0791C:  MOVF   FC1,W
0791E:  ANDLW  C0
07920:  IORLW  0B
07922:  MOVWF  FC1
....................    setup_adc(ADC_CLOCK_DIV_32 ); 
07924:  MOVF   FC0,W
07926:  ANDLW  C0
07928:  IORLW  02
0792A:  MOVWF  FC0
0792C:  BSF    FC0.7
0792E:  BSF    FC2.0
....................    port_b_pullups(true); 
07930:  BCF    FF1.7
....................    enable_interrupts(int_rda); 
07932:  BSF    F9D.5
....................    setup_wdt(WDT_ON); 
07934:  BSF    FD1.0
....................    enable_interrupts(global); 
07936:  MOVLW  C0
07938:  IORWF  FF2,F
....................    LeeEEPROM(); 
0793A:  GOTO   205C
....................    rtc_init(); 
0793E:  GOTO   3578
....................    delay_ms(1); 
07942:  MOVLW  01
07944:  MOVLB  4
07946:  MOVWF  x29
07948:  MOVLB  0
0794A:  CALL   19C2
....................    LimitaValores(); 
0794E:  GOTO   3618
....................    CalculoImpresion=timpresion*60; 
07952:  MOVLB  3
07954:  MOVF   x34,W
07956:  MULLW  3C
07958:  MOVFF  FF3,335
....................    printf("page Bienvenida"); 
0795C:  MOVLW  B6
0795E:  MOVWF  FF6
07960:  MOVLW  05
07962:  MOVWF  FF7
07964:  MOVLW  00
07966:  MOVWF  FF8
07968:  MOVLB  0
0796A:  CALL   4078
....................    SendDataDisplay(); 
0796E:  CALL   40AA
....................    printf("bkcmd=0"); 
07972:  MOVLW  C6
07974:  MOVWF  FF6
07976:  MOVLW  05
07978:  MOVWF  FF7
0797A:  MOVLW  00
0797C:  MOVWF  FF8
0797E:  CALL   4078
....................    SendDataDisplay(); 
07982:  CALL   40AA
....................    delay_ms(1500); 
07986:  MOVLW  06
07988:  MOVLB  4
0798A:  MOVWF  x14
0798C:  MOVLW  FA
0798E:  MOVWF  x29
07990:  MOVLB  0
07992:  CALL   19C2
07996:  MOVLB  4
07998:  DECFSZ x14,F
0799A:  BRA    798C
....................    printf("page Clave"); 
0799C:  MOVLW  CE
0799E:  MOVWF  FF6
079A0:  MOVLW  05
079A2:  MOVWF  FF7
079A4:  MOVLW  00
079A6:  MOVWF  FF8
079A8:  MOVLB  0
079AA:  CALL   4078
....................    SendDataDisplay(); 
079AE:  CALL   40AA
....................    ApagaSalidas(); 
079B2:  CALL   40E0
....................    ActivaImpresion=1; 
079B6:  MOVLW  01
079B8:  MOVLB  3
079BA:  MOVWF  x33
....................     
....................    for(i=0;i<MediaMovil;i++){ 
079BC:  CLRF   x3D
079BE:  MOVLB  2
079C0:  MOVF   xCC,W
079C2:  MOVLB  3
079C4:  SUBWF  x3D,W
079C6:  BC    79E8
....................       Temperatura=LeerPT100(MediaMovil); 
079C8:  MOVFF  2CC,414
079CC:  MOVLB  0
079CE:  CALL   4246
079D2:  MOVFF  03,31B
079D6:  MOVFF  02,31A
079DA:  MOVFF  01,319
079DE:  MOVFF  00,318
....................    } 
079E2:  MOVLB  3
079E4:  INCF   x3D,F
079E6:  BRA    79BE
....................     
....................    if(UP && DOWN && RIGHT && LEFT)//Si oprime boton de Toma. 
079E8:  BSF    F93.0
079EA:  BTFSC  F81.0
079EC:  BRA    7A74
079EE:  BSF    F93.1
079F0:  BTFSC  F81.1
079F2:  BRA    7A74
079F4:  BSF    F93.2
079F6:  BTFSC  F81.2
079F8:  BRA    7A74
079FA:  BSF    F93.3
079FC:  BTFSC  F81.3
079FE:  BRA    7A74
....................    { 
....................       write_eeprom(37,0); 
07A00:  CLRF   FAA
07A02:  MOVLW  25
07A04:  MOVWF  FA9
07A06:  CLRF   FA8
07A08:  BCF    FA6.6
07A0A:  BCF    FA6.7
07A0C:  BSF    FA6.2
07A0E:  MOVF   FF2,W
07A10:  MOVWF  00
07A12:  BCF    FF2.6
07A14:  BCF    FF2.7
07A16:  MOVLB  F
07A18:  MOVLW  55
07A1A:  MOVWF  FA7
07A1C:  MOVLW  AA
07A1E:  MOVWF  FA7
07A20:  BSF    FA6.1
07A22:  BTFSC  FA6.1
07A24:  BRA    7A22
07A26:  BCF    FA6.2
07A28:  MOVF   00,W
07A2A:  IORWF  FF2,F
....................       delay_ms(20); 
07A2C:  MOVLW  14
07A2E:  MOVLB  4
07A30:  MOVWF  x29
07A32:  MOVLB  0
07A34:  CALL   19C2
....................       write_eeprom(38,0); 
07A38:  CLRF   FAA
07A3A:  MOVLW  26
07A3C:  MOVWF  FA9
07A3E:  CLRF   FA8
07A40:  BCF    FA6.6
07A42:  BCF    FA6.7
07A44:  BSF    FA6.2
07A46:  MOVF   FF2,W
07A48:  MOVWF  00
07A4A:  BCF    FF2.6
07A4C:  BCF    FF2.7
07A4E:  MOVLB  F
07A50:  MOVLW  55
07A52:  MOVWF  FA7
07A54:  MOVLW  AA
07A56:  MOVWF  FA7
07A58:  BSF    FA6.1
07A5A:  BTFSC  FA6.1
07A5C:  BRA    7A5A
07A5E:  BCF    FA6.2
07A60:  MOVF   00,W
07A62:  IORWF  FF2,F
....................       delay_ms(20); 
07A64:  MOVLW  14
07A66:  MOVLB  4
07A68:  MOVWF  x29
07A6A:  MOVLB  0
07A6C:  CALL   19C2
....................       reset_cpu(); 
07A70:  RESET
07A72:  MOVLB  3
....................    } 
....................     
....................    while(true) 
....................    { 
....................       LeeDisplay(); 
07A74:  MOVLB  0
07A76:  GOTO   464E
....................       Envio_Esclavos(); 
07A7A:  CALL   4964
....................       delay_ms(1); 
07A7E:  MOVLW  01
07A80:  MOVLB  4
07A82:  MOVWF  x29
07A84:  MOVLB  0
07A86:  CALL   19C2
....................       //Lectura_Esclavos(); 
....................       restart_wdt(); 
07A8A:  CLRWDT
....................        
....................       if(!Esterilizando || Desfogando){ 
07A8C:  BTFSS  xA0.2
07A8E:  BRA    7A94
07A90:  BTFSS  xA0.5
07A92:  BRA    7A9E
....................          CalculoImpresion=180; 
07A94:  MOVLW  B4
07A96:  MOVLB  3
07A98:  MOVWF  x35
....................       }else{ 
07A9A:  BRA    7AA4
07A9C:  MOVLB  0
....................          CalculoImpresion=60; 
07A9E:  MOVLW  3C
07AA0:  MOVLB  3
07AA2:  MOVWF  x35
....................       } 
....................        
....................       if(!PruebaEstados){ 
07AA4:  MOVLB  0
07AA6:  BTFSC  xA1.2
07AA8:  BRA    7B00
....................          if(Temperatura>60) 
07AAA:  MOVLB  4
07AAC:  CLRF   x1B
07AAE:  CLRF   x1A
07AB0:  MOVLW  70
07AB2:  MOVWF  x19
07AB4:  MOVLW  84
07AB6:  MOVWF  x18
07AB8:  MOVFF  31B,41F
07ABC:  MOVFF  31A,41E
07AC0:  MOVFF  319,41D
07AC4:  MOVFF  318,41C
07AC8:  MOVLB  0
07ACA:  CALL   1FE2
07ACE:  BNC   7AD6
....................             Vent_on; 
07AD0:  BSF    F8C.5
07AD2:  BCF    F95.5
....................          else if(Temperatura<55) 
07AD4:  BRA    7B00
07AD6:  MOVFF  31B,41B
07ADA:  MOVFF  31A,41A
07ADE:  MOVFF  319,419
07AE2:  MOVFF  318,418
07AE6:  MOVLB  4
07AE8:  CLRF   x1F
07AEA:  CLRF   x1E
07AEC:  MOVLW  5C
07AEE:  MOVWF  x1D
07AF0:  MOVLW  84
07AF2:  MOVWF  x1C
07AF4:  MOVLB  0
07AF6:  CALL   1FE2
07AFA:  BNC   7B00
....................             Vent_off; 
07AFC:  BCF    F8C.5
07AFE:  BCF    F95.5
....................       } 
....................        
....................       // Monitoreo Nivel de Agua//-------------------------------------- 
....................             if(!LOW){//Si no sensa agua en el nivel alto y no se ha llenado el calderin          
07B00:  BSF    F94.1
07B02:  BTFSC  F82.1
07B04:  BRA    7B2A
....................                TiempoSensadoNivel=0; 
07B06:  CLRF   xA9
07B08:  CLRF   xA8
....................                Controlando=0;    
07B0A:  MOVLB  3
07B0C:  CLRF   x32
....................                if(tiempoAgua<300){ 
07B0E:  MOVF   x73,W
07B10:  SUBLW  01
07B12:  BNC   7B20
07B14:  BNZ   7B1C
07B16:  MOVF   x72,W
07B18:  SUBLW  2B
07B1A:  BNC   7B20
....................                   CalderinLleno=OFF; 
07B1C:  MOVLB  0
07B1E:  BCF    xA0.0
....................                } 
....................                SensadoNivel=OFF; 
07B20:  MOVLB  0
07B22:  BCF    xA0.4
....................                TiempoSensadoNivel=0; 
07B24:  CLRF   xA9
07B26:  CLRF   xA8
....................             } else{ 
07B28:  BRA    7B3C
....................                SensadoNivel=ON; 
07B2A:  BSF    xA0.4
....................                if(TiempoSensadoNivel>2){ 
07B2C:  MOVF   xA9,F
07B2E:  BNZ   7B36
07B30:  MOVF   xA8,W
07B32:  SUBLW  02
07B34:  BC    7B3C
....................                   SensadoNivel=OFF; 
07B36:  BCF    xA0.4
....................                   CalderinLleno=ON; 
07B38:  BSF    xA0.0
....................                   IniciaLlenado=OFF;                   
07B3A:  BCF    x9F.7
....................                } 
....................             } 
.................... // Tiempo de Grafica//-------------------------------------- 
....................       if(tiempos2>=6400){ 
07B3C:  MOVLB  3
07B3E:  MOVF   x4A,W
07B40:  SUBLW  18
07B42:  BC    7B4A
....................          Grafica=1; 
07B44:  BSF    x2F.2
....................          tiempos2=0; 
07B46:  CLRF   x4A
07B48:  CLRF   x49
....................       } 
....................  
.................... // Tiempo de Muestreo//-------------------------------------- 
....................       if(tiempos3>=20){ 
07B4A:  MOVF   x4C,F
07B4C:  BNZ   7B56
07B4E:  MOVF   x4B,W
07B50:  SUBLW  13
07B52:  BTFSC  FD8.0
07B54:  BRA    7C68
....................          Temperatura=LeerPt100(MediaMovil); 
07B56:  MOVFF  2CC,414
07B5A:  MOVLB  0
07B5C:  CALL   4246
07B60:  MOVFF  03,31B
07B64:  MOVFF  02,31A
07B68:  MOVFF  01,319
07B6C:  MOVFF  00,318
....................          PresionCamara=Leer_Sensor_Presion_Camara(10); 
07B70:  MOVLW  0A
07B72:  MOVLB  4
07B74:  MOVWF  x14
07B76:  MOVLB  0
07B78:  GOTO   49FC
07B7C:  MOVFF  03,42C
07B80:  MOVFF  02,42B
07B84:  MOVFF  01,42A
07B88:  MOVFF  00,429
07B8C:  CALL   47DE
07B90:  MOVFF  02,354
07B94:  MOVFF  01,353
....................          //PresionPreCamara=Leer_Sensor_Presion_PreCamara(10); 
....................          PresionPreCamara=0; 
07B98:  MOVLB  3
07B9A:  CLRF   x56
07B9C:  CLRF   x55
....................          rtc_get_date(Dia,Mes,Year,dow); 
....................          rtc_get_time(Hora,Minuto,Segundo); 
....................          tiempos3=0; 
*
07C62:  MOVLB  3
07C64:  CLRF   x4C
07C66:  CLRF   x4B
....................       } 
....................        
.................... // Monitoreo Parada Emergencia//--------------------------------------       
....................       if(!STOP && !IniciaCiclo && !PruebaEstados){ 
07C68:  BSF    F93.7
07C6A:  BTFSS  F81.7
07C6C:  BRA    7CCE
07C6E:  MOVLB  0
07C70:  BTFSS  xA0.1
07C72:  BRA    7C78
07C74:  MOVLB  3
07C76:  BRA    7CCE
07C78:  BTFSS  xA1.2
07C7A:  BRA    7C80
07C7C:  MOVLB  3
07C7E:  BRA    7CCE
....................          if(!disp_Stop){ 
07C80:  MOVLB  3
07C82:  BTFSC  x2F.3
07C84:  BRA    7CA4
....................             disp_Stop=1;Menu=255; 
07C86:  BSF    x2F.3
07C88:  MOVLW  FF
07C8A:  MOVWF  x3A
....................             printf("page Emergencia"); 
07C8C:  MOVLW  DA
07C8E:  MOVWF  FF6
07C90:  MOVLW  05
07C92:  MOVWF  FF7
07C94:  MOVLW  00
07C96:  MOVWF  FF8
07C98:  MOVLB  0
07C9A:  CALL   4078
....................             SendDataDisplay(); 
07C9E:  CALL   40AA
07CA2:  MOVLB  3
....................          } 
....................          Controlando=0; 
07CA4:  CLRF   x32
....................          Desfogue_on; 
07CA6:  BSF    F8C.4
07CA8:  BCF    F95.4
....................          SSR_off; 
07CAA:  BSF    F8B.2
07CAC:  BCF    F94.2
....................          Enfr_on; 
07CAE:  BSF    F8C.6
07CB0:  BCF    F95.6
....................          DesfogueSuave=OFF; 
07CB2:  MOVLB  0
07CB4:  BCF    xA0.6
....................          ActivaAlarma(1); 
07CB6:  MOVLW  01
07CB8:  MOVLB  4
07CBA:  MOVWF  x14
07CBC:  MOVLB  0
07CBE:  CALL   4C2A
....................          BorraBuffer(); 
07CC2:  GOTO   4D00
....................          Vent_on; 
07CC6:  BSF    F8C.5
07CC8:  BCF    F95.5
....................       }else{ 
07CCA:  BRA    7CD4
07CCC:  MOVLB  3
....................          if(disp_Stop){ 
07CCE:  BTFSS  x2F.3
07CD0:  BRA    7CD4
....................             reset_cpu(); 
07CD2:  RESET
....................          } 
....................       }            
....................    //Buzzer_off;    
.................... //_-------------------------------------------------------------------------------------------------------------------------------------------------------- 
....................    if(Menu==240){ //Menu de Bienvenida. 
07CD4:  MOVLB  3
07CD6:  MOVF   x3A,W
07CD8:  SUBLW  F0
07CDA:  BNZ   7D24
....................       printf("bkcmd=0"); 
07CDC:  MOVLW  EA
07CDE:  MOVWF  FF6
07CE0:  MOVLW  05
07CE2:  MOVWF  FF7
07CE4:  MOVLW  00
07CE6:  MOVWF  FF8
07CE8:  MOVLB  0
07CEA:  CALL   4078
....................       SendDataDisplay(); 
07CEE:  CALL   40AA
....................       delay_ms(1500); 
07CF2:  MOVLW  06
07CF4:  MOVLB  4
07CF6:  MOVWF  x14
07CF8:  MOVLW  FA
07CFA:  MOVWF  x29
07CFC:  MOVLB  0
07CFE:  CALL   19C2
07D02:  MOVLB  4
07D04:  DECFSZ x14,F
07D06:  BRA    7CF8
....................       printf("page Clave"); 
07D08:  MOVLW  F2
07D0A:  MOVWF  FF6
07D0C:  MOVLW  05
07D0E:  MOVWF  FF7
07D10:  MOVLW  00
07D12:  MOVWF  FF8
07D14:  MOVLB  0
07D16:  CALL   4078
....................       SendDataDisplay(); 
07D1A:  CALL   40AA
....................       ApagaSalidas(); 
07D1E:  CALL   40E0
07D22:  MOVLB  3
....................    } 
.................... //_-------------------------------------------------------------------------------------------------------------------------------------------------------- 
....................  
.................... //_-------------------------------------------------------------------------------------------------------------------------------------------------------- 
....................     if(Menu==0){ //Menu de Contrasea de acceso. 
07D24:  MOVF   x3A,F
07D26:  BTFSS  FD8.2
07D28:  GOTO   87A2
....................       ApagaSalidas(); 
07D2C:  MOVLB  0
07D2E:  CALL   40E0
....................       entro=OFF; 
07D32:  BCF    xA3.7
....................       if(Digito==1){ 
07D34:  MOVLB  2
07D36:  DECFSZ xD1,W
07D38:  BRA    7D84
....................          printf("t0.txt=\"%u\"",Contrasena[0]); 
07D3A:  MOVLW  FE
07D3C:  MOVWF  FF6
07D3E:  MOVLW  05
07D40:  MOVWF  FF7
07D42:  MOVLW  00
07D44:  MOVWF  FF8
07D46:  MOVLW  08
07D48:  MOVLB  4
07D4A:  MOVWF  x19
07D4C:  MOVLB  0
07D4E:  CALL   4D2C
07D52:  MOVFF  35D,419
07D56:  MOVLW  1B
07D58:  MOVLB  4
07D5A:  MOVWF  x1A
07D5C:  MOVLB  0
07D5E:  CALL   4D8A
07D62:  MOVLW  22
07D64:  BTFSS  F9E.4
07D66:  BRA    7D64
07D68:  MOVWF  FAD
....................          SendDataDisplay(); 
07D6A:  CALL   40AA
....................          printf("va0.val=1"); 
07D6E:  MOVLW  0A
07D70:  MOVWF  FF6
07D72:  MOVLW  06
07D74:  MOVWF  FF7
07D76:  MOVLW  00
07D78:  MOVWF  FF8
07D7A:  CALL   4078
....................          SendDataDisplay(); 
07D7E:  CALL   40AA
07D82:  MOVLB  2
....................       } 
....................        
....................       if(Digito==2){ 
07D84:  MOVF   xD1,W
07D86:  SUBLW  02
07D88:  BNZ   7DE4
....................          printf("t0.txt=\"%u%u\"",Contrasena[0],Contrasena[1]); 
07D8A:  MOVLW  14
07D8C:  MOVWF  FF6
07D8E:  MOVLW  06
07D90:  MOVWF  FF7
07D92:  MOVLW  00
07D94:  MOVWF  FF8
07D96:  MOVLW  08
07D98:  MOVLB  4
07D9A:  MOVWF  x19
07D9C:  MOVLB  0
07D9E:  CALL   4D2C
07DA2:  MOVFF  35D,419
07DA6:  MOVLW  1B
07DA8:  MOVLB  4
07DAA:  MOVWF  x1A
07DAC:  MOVLB  0
07DAE:  CALL   4D8A
07DB2:  MOVFF  35E,419
07DB6:  MOVLW  1B
07DB8:  MOVLB  4
07DBA:  MOVWF  x1A
07DBC:  MOVLB  0
07DBE:  CALL   4D8A
07DC2:  MOVLW  22
07DC4:  BTFSS  F9E.4
07DC6:  BRA    7DC4
07DC8:  MOVWF  FAD
....................          SendDataDisplay(); 
07DCA:  CALL   40AA
....................          printf("va0.val=2"); 
07DCE:  MOVLW  22
07DD0:  MOVWF  FF6
07DD2:  MOVLW  06
07DD4:  MOVWF  FF7
07DD6:  MOVLW  00
07DD8:  MOVWF  FF8
07DDA:  CALL   4078
....................          SendDataDisplay(); 
07DDE:  CALL   40AA
07DE2:  MOVLB  2
....................       } 
....................        
....................       if(Digito==3){ 
07DE4:  MOVF   xD1,W
07DE6:  SUBLW  03
07DE8:  BNZ   7E54
....................          printf("t0.txt=\"%u%u%u\"",Contrasena[0],Contrasena[1],Contrasena[2]); 
07DEA:  MOVLW  2C
07DEC:  MOVWF  FF6
07DEE:  MOVLW  06
07DF0:  MOVWF  FF7
07DF2:  MOVLW  00
07DF4:  MOVWF  FF8
07DF6:  MOVLW  08
07DF8:  MOVLB  4
07DFA:  MOVWF  x19
07DFC:  MOVLB  0
07DFE:  CALL   4D2C
07E02:  MOVFF  35D,419
07E06:  MOVLW  1B
07E08:  MOVLB  4
07E0A:  MOVWF  x1A
07E0C:  MOVLB  0
07E0E:  CALL   4D8A
07E12:  MOVFF  35E,419
07E16:  MOVLW  1B
07E18:  MOVLB  4
07E1A:  MOVWF  x1A
07E1C:  MOVLB  0
07E1E:  CALL   4D8A
07E22:  MOVFF  35F,419
07E26:  MOVLW  1B
07E28:  MOVLB  4
07E2A:  MOVWF  x1A
07E2C:  MOVLB  0
07E2E:  CALL   4D8A
07E32:  MOVLW  22
07E34:  BTFSS  F9E.4
07E36:  BRA    7E34
07E38:  MOVWF  FAD
....................          SendDataDisplay(); 
07E3A:  CALL   40AA
....................          printf("va0.val=3"); 
07E3E:  MOVLW  3C
07E40:  MOVWF  FF6
07E42:  MOVLW  06
07E44:  MOVWF  FF7
07E46:  MOVLW  00
07E48:  MOVWF  FF8
07E4A:  CALL   4078
....................          SendDataDisplay(); 
07E4E:  CALL   40AA
07E52:  MOVLB  2
....................       } 
....................        
....................       if(Digito==4){ 
07E54:  MOVF   xD1,W
07E56:  SUBLW  04
07E58:  BNZ   7ED4
....................          printf("t0.txt=\"%u%u%u%u\"",Contrasena[0],Contrasena[1],Contrasena[2],Contrasena[3]); 
07E5A:  MOVLW  46
07E5C:  MOVWF  FF6
07E5E:  MOVLW  06
07E60:  MOVWF  FF7
07E62:  MOVLW  00
07E64:  MOVWF  FF8
07E66:  MOVLW  08
07E68:  MOVLB  4
07E6A:  MOVWF  x19
07E6C:  MOVLB  0
07E6E:  CALL   4D2C
07E72:  MOVFF  35D,419
07E76:  MOVLW  1B
07E78:  MOVLB  4
07E7A:  MOVWF  x1A
07E7C:  MOVLB  0
07E7E:  CALL   4D8A
07E82:  MOVFF  35E,419
07E86:  MOVLW  1B
07E88:  MOVLB  4
07E8A:  MOVWF  x1A
07E8C:  MOVLB  0
07E8E:  CALL   4D8A
07E92:  MOVFF  35F,419
07E96:  MOVLW  1B
07E98:  MOVLB  4
07E9A:  MOVWF  x1A
07E9C:  MOVLB  0
07E9E:  CALL   4D8A
07EA2:  MOVFF  360,419
07EA6:  MOVLW  1B
07EA8:  MOVLB  4
07EAA:  MOVWF  x1A
07EAC:  MOVLB  0
07EAE:  CALL   4D8A
07EB2:  MOVLW  22
07EB4:  BTFSS  F9E.4
07EB6:  BRA    7EB4
07EB8:  MOVWF  FAD
....................          SendDataDisplay(); 
07EBA:  CALL   40AA
....................          printf("va0.val=4"); 
07EBE:  MOVLW  58
07EC0:  MOVWF  FF6
07EC2:  MOVLW  06
07EC4:  MOVWF  FF7
07EC6:  MOVLW  00
07EC8:  MOVWF  FF8
07ECA:  CALL   4078
....................          SendDataDisplay(); 
07ECE:  CALL   40AA
07ED2:  MOVLB  2
....................       } 
....................        
....................       if(UP){ 
07ED4:  BSF    F93.0
07ED6:  BTFSC  F81.0
07ED8:  BRA    7F22
....................          delay_ms(100); 
07EDA:  MOVLW  64
07EDC:  MOVLB  4
07EDE:  MOVWF  x29
07EE0:  MOVLB  0
07EE2:  CALL   19C2
....................          if(UP){ 
07EE6:  BSF    F93.0
07EE8:  BTFSC  F81.0
07EEA:  BRA    7F24
....................          if(Digito==0) 
07EEC:  MOVLB  2
07EEE:  MOVF   xD1,F
07EF0:  BNZ   7EF6
....................             Digito=1; 
07EF2:  MOVLW  01
07EF4:  MOVWF  xD1
....................             if(Contrasena[Digito-1]<9) 
07EF6:  MOVLW  01
07EF8:  SUBWF  xD1,W
07EFA:  CLRF   03
07EFC:  ADDLW  5D
07EFE:  MOVWF  FE9
07F00:  MOVLW  03
07F02:  ADDWFC 03,W
07F04:  MOVWF  FEA
07F06:  BTFSC  FEF.7
07F08:  BRA    7F10
07F0A:  MOVF   FEF,W
07F0C:  SUBLW  08
07F0E:  BNC   7F22
....................                Contrasena[Digito-1]++; 
07F10:  MOVLW  01
07F12:  SUBWF  xD1,W
07F14:  CLRF   03
07F16:  ADDLW  5D
07F18:  MOVWF  FE9
07F1A:  MOVLW  03
07F1C:  ADDWFC 03,W
07F1E:  MOVWF  FEA
07F20:  INCF   FEF,F
07F22:  MOVLB  0
....................          } 
....................       } 
....................        
....................       if(DOWN){ 
07F24:  BSF    F93.1
07F26:  BTFSC  F81.1
07F28:  BRA    7F74
....................          delay_ms(100); 
07F2A:  MOVLW  64
07F2C:  MOVLB  4
07F2E:  MOVWF  x29
07F30:  MOVLB  0
07F32:  CALL   19C2
....................          if(Digito==0) 
07F36:  MOVLB  2
07F38:  MOVF   xD1,F
07F3A:  BNZ   7F40
....................             Digito=1; 
07F3C:  MOVLW  01
07F3E:  MOVWF  xD1
....................          if(DOWN){ 
07F40:  BSF    F93.1
07F42:  BTFSC  F81.1
07F44:  BRA    7F72
....................             if(Contrasena[Digito-1]>0) 
07F46:  MOVLW  01
07F48:  SUBWF  xD1,W
07F4A:  CLRF   03
07F4C:  ADDLW  5D
07F4E:  MOVWF  FE9
07F50:  MOVLW  03
07F52:  ADDWFC 03,W
07F54:  MOVWF  FEA
07F56:  BTFSC  FEF.7
07F58:  BRA    7F72
07F5A:  MOVF   FEF,W
07F5C:  SUBLW  00
07F5E:  BC    7F72
....................                Contrasena[Digito-1]--; 
07F60:  MOVLW  01
07F62:  SUBWF  xD1,W
07F64:  CLRF   03
07F66:  ADDLW  5D
07F68:  MOVWF  FE9
07F6A:  MOVLW  03
07F6C:  ADDWFC 03,W
07F6E:  MOVWF  FEA
07F70:  DECF   FEF,F
07F72:  MOVLB  0
....................          } 
....................       } 
....................        
....................       if(RIGHT){ 
07F74:  BSF    F93.2
07F76:  BTFSC  F81.2
07F78:  BRA    7F92
....................          delay_ms(100); 
07F7A:  MOVLW  64
07F7C:  MOVLB  4
07F7E:  MOVWF  x29
07F80:  MOVLB  0
07F82:  CALL   19C2
....................          if(RIGHT){ 
07F86:  BSF    F93.2
07F88:  BTFSC  F81.2
07F8A:  BRA    7F92
....................             Digito++; 
07F8C:  MOVLB  2
07F8E:  INCF   xD1,F
07F90:  MOVLB  0
....................          } 
....................       } 
....................        
....................       if(Digito>4){ 
07F92:  MOVLB  2
07F94:  MOVF   xD1,W
07F96:  SUBLW  04
07F98:  BTFSC  FD8.0
07F9A:  BRA    82EC
....................       Digito=0; 
07F9C:  CLRF   xD1
....................       printf("t0.txt=\"\""); 
07F9E:  MOVLW  62
07FA0:  MOVWF  FF6
07FA2:  MOVLW  06
07FA4:  MOVWF  FF7
07FA6:  MOVLW  00
07FA8:  MOVWF  FF8
07FAA:  MOVLB  0
07FAC:  CALL   4078
....................       SendDataDisplay(); 
07FB0:  CALL   40AA
....................          if(TipoClave==0){ 
07FB4:  MOVLB  2
07FB6:  MOVF   xCF,F
07FB8:  BTFSS  FD8.2
07FBA:  BRA    810A
....................             if(Contrasena[0]==3&&Contrasena[1]==8&&Contrasena[2]==9&&Contrasena[3]==2){ // Si Ingresa clave para reset general del sistema. 
07FBC:  MOVLB  3
07FBE:  MOVF   x5D,W
07FC0:  SUBLW  03
07FC2:  BTFSS  FD8.2
07FC4:  BRA    80BE
07FC6:  MOVF   x5E,W
07FC8:  SUBLW  08
07FCA:  BTFSS  FD8.2
07FCC:  BRA    80BE
07FCE:  MOVF   x5F,W
07FD0:  SUBLW  09
07FD2:  BNZ   80BE
07FD4:  MOVF   x60,W
07FD6:  SUBLW  02
07FD8:  BNZ   80BE
....................                write_eeprom(10,0);delay_ms(20);write_eeprom(11,0);delay_ms(20);// Reestablece a contrasea de Fabrica y reinicia Programa. 
07FDA:  CLRF   FAA
07FDC:  MOVLW  0A
07FDE:  MOVWF  FA9
07FE0:  CLRF   FA8
07FE2:  BCF    FA6.6
07FE4:  BCF    FA6.7
07FE6:  BSF    FA6.2
07FE8:  MOVF   FF2,W
07FEA:  MOVWF  00
07FEC:  BCF    FF2.6
07FEE:  BCF    FF2.7
07FF0:  MOVLB  F
07FF2:  MOVLW  55
07FF4:  MOVWF  FA7
07FF6:  MOVLW  AA
07FF8:  MOVWF  FA7
07FFA:  BSF    FA6.1
07FFC:  BTFSC  FA6.1
07FFE:  BRA    7FFC
08000:  BCF    FA6.2
08002:  MOVF   00,W
08004:  IORWF  FF2,F
08006:  MOVLW  14
08008:  MOVLB  4
0800A:  MOVWF  x29
0800C:  MOVLB  0
0800E:  CALL   19C2
08012:  CLRF   FAA
08014:  MOVLW  0B
08016:  MOVWF  FA9
08018:  CLRF   FA8
0801A:  BCF    FA6.6
0801C:  BCF    FA6.7
0801E:  BSF    FA6.2
08020:  MOVF   FF2,W
08022:  MOVWF  00
08024:  BCF    FF2.6
08026:  BCF    FF2.7
08028:  MOVLB  F
0802A:  MOVLW  55
0802C:  MOVWF  FA7
0802E:  MOVLW  AA
08030:  MOVWF  FA7
08032:  BSF    FA6.1
08034:  BTFSC  FA6.1
08036:  BRA    8034
08038:  BCF    FA6.2
0803A:  MOVF   00,W
0803C:  IORWF  FF2,F
0803E:  MOVLW  14
08040:  MOVLB  4
08042:  MOVWF  x29
08044:  MOVLB  0
08046:  CALL   19C2
....................                write_eeprom(12,0);delay_ms(20);write_eeprom(13,0);delay_ms(20); 
0804A:  CLRF   FAA
0804C:  MOVLW  0C
0804E:  MOVWF  FA9
08050:  CLRF   FA8
08052:  BCF    FA6.6
08054:  BCF    FA6.7
08056:  BSF    FA6.2
08058:  MOVF   FF2,W
0805A:  MOVWF  00
0805C:  BCF    FF2.6
0805E:  BCF    FF2.7
08060:  MOVLB  F
08062:  MOVLW  55
08064:  MOVWF  FA7
08066:  MOVLW  AA
08068:  MOVWF  FA7
0806A:  BSF    FA6.1
0806C:  BTFSC  FA6.1
0806E:  BRA    806C
08070:  BCF    FA6.2
08072:  MOVF   00,W
08074:  IORWF  FF2,F
08076:  MOVLW  14
08078:  MOVLB  4
0807A:  MOVWF  x29
0807C:  MOVLB  0
0807E:  CALL   19C2
08082:  CLRF   FAA
08084:  MOVLW  0D
08086:  MOVWF  FA9
08088:  CLRF   FA8
0808A:  BCF    FA6.6
0808C:  BCF    FA6.7
0808E:  BSF    FA6.2
08090:  MOVF   FF2,W
08092:  MOVWF  00
08094:  BCF    FF2.6
08096:  BCF    FF2.7
08098:  MOVLB  F
0809A:  MOVLW  55
0809C:  MOVWF  FA7
0809E:  MOVLW  AA
080A0:  MOVWF  FA7
080A2:  BSF    FA6.1
080A4:  BTFSC  FA6.1
080A6:  BRA    80A4
080A8:  BCF    FA6.2
080AA:  MOVF   00,W
080AC:  IORWF  FF2,F
080AE:  MOVLW  14
080B0:  MOVLB  4
080B2:  MOVWF  x29
080B4:  MOVLB  0
080B6:  CALL   19C2
....................                reset_cpu(); 
080BA:  RESET
080BC:  MOVLB  3
....................             } 
....................              
....................             if((Contrasena[0]==Password[0])&&(Contrasena[1]==Password[1])&&(Contrasena[2]==Password[2])&&(Contrasena[3]==Password[3])){ 
080BE:  MOVF   x61,W
080C0:  SUBWF  x5D,W
080C2:  BNZ   80F0
080C4:  MOVF   x62,W
080C6:  SUBWF  x5E,W
080C8:  BNZ   80F0
080CA:  MOVF   x63,W
080CC:  SUBWF  x5F,W
080CE:  BNZ   80F0
080D0:  MOVF   x64,W
080D2:  SUBWF  x60,W
080D4:  BNZ   80F0
....................                //BorraBuffer(); 
....................                printf("page ClaveCorrecta"); 
080D6:  MOVLW  6C
080D8:  MOVWF  FF6
080DA:  MOVLW  06
080DC:  MOVWF  FF7
080DE:  MOVLW  00
080E0:  MOVWF  FF8
080E2:  MOVLB  0
080E4:  CALL   4078
....................                SendDataDisplay(); 
080E8:  CALL   40AA
....................             }else{ 
080EC:  BRA    8106
080EE:  MOVLB  3
....................                //BorraBuffer(); 
....................                printf("page ClaveBad"); 
080F0:  MOVLW  80
080F2:  MOVWF  FF6
080F4:  MOVLW  06
080F6:  MOVWF  FF7
080F8:  MOVLW  00
080FA:  MOVWF  FF8
080FC:  MOVLB  0
080FE:  CALL   4078
....................                SendDataDisplay(); 
08102:  CALL   40AA
....................             }  
....................          }else if(TipoClave==1){ 
08106:  BRA    82EA
08108:  MOVLB  2
0810A:  DECFSZ xCF,W
0810C:  BRA    815C
....................             if(Contrasena[0]==4&&Contrasena[1]==4&&Contrasena[2]==4&&Contrasena[3]==4){ // Si Ingresa clave de Servicio Tecnico 
0810E:  MOVLB  3
08110:  MOVF   x5D,W
08112:  SUBLW  04
08114:  BNZ   8142
08116:  MOVF   x5E,W
08118:  SUBLW  04
0811A:  BNZ   8142
0811C:  MOVF   x5F,W
0811E:  SUBLW  04
08120:  BNZ   8142
08122:  MOVF   x60,W
08124:  SUBLW  04
08126:  BNZ   8142
....................                printf("page Config"); 
08128:  MOVLW  8E
0812A:  MOVWF  FF6
0812C:  MOVLW  06
0812E:  MOVWF  FF7
08130:  MOVLW  00
08132:  MOVWF  FF8
08134:  MOVLB  0
08136:  CALL   4078
....................                SendDataDisplay(); 
0813A:  CALL   40AA
....................             }else{ 
0813E:  BRA    8158
08140:  MOVLB  3
....................                printf("page MenuPrincipal"); 
08142:  MOVLW  9A
08144:  MOVWF  FF6
08146:  MOVLW  06
08148:  MOVWF  FF7
0814A:  MOVLW  00
0814C:  MOVWF  FF8
0814E:  MOVLB  0
08150:  CALL   4078
....................                SendDataDisplay(); 
08154:  CALL   40AA
....................             } 
....................          }else if(TipoClave==2){ 
08158:  BRA    82EA
0815A:  MOVLB  2
0815C:  MOVF   xCF,W
0815E:  SUBLW  02
08160:  BNZ   81CA
....................             if((Contrasena[0]==Password[0])&&(Contrasena[1]==Password[1])&&(Contrasena[2]==Password[2])&&(Contrasena[3]==Password[3])){ 
08162:  MOVLB  3
08164:  MOVF   x61,W
08166:  SUBWF  x5D,W
08168:  BNZ   81B0
0816A:  MOVF   x62,W
0816C:  SUBWF  x5E,W
0816E:  BNZ   81B0
08170:  MOVF   x63,W
08172:  SUBWF  x5F,W
08174:  BNZ   81B0
08176:  MOVF   x64,W
08178:  SUBWF  x60,W
0817A:  BNZ   81B0
....................                printf("page Clave"); 
0817C:  MOVLW  AE
0817E:  MOVWF  FF6
08180:  MOVLW  06
08182:  MOVWF  FF7
08184:  MOVLW  00
08186:  MOVWF  FF8
08188:  MOVLB  0
0818A:  CALL   4078
....................                SendDataDisplay(); 
0818E:  CALL   40AA
....................                printf("titulo.txt=\"Clave Nueva\""); 
08192:  MOVLW  BA
08194:  MOVWF  FF6
08196:  MOVLW  06
08198:  MOVWF  FF7
0819A:  MOVLW  00
0819C:  MOVWF  FF8
0819E:  CALL   4078
....................                SendDataDisplay(); 
081A2:  CALL   40AA
....................                TipoClave=3; 
081A6:  MOVLW  03
081A8:  MOVLB  2
081AA:  MOVWF  xCF
....................             }else{ 
081AC:  BRA    81C8
081AE:  MOVLB  3
....................                printf("page MenuPrincipal"); 
081B0:  MOVLW  D4
081B2:  MOVWF  FF6
081B4:  MOVLW  06
081B6:  MOVWF  FF7
081B8:  MOVLW  00
081BA:  MOVWF  FF8
081BC:  MOVLB  0
081BE:  CALL   4078
....................                SendDataDisplay(); 
081C2:  CALL   40AA
081C6:  MOVLB  2
....................             }  
....................          }else if(TipoClave==3){ 
081C8:  BRA    82EC
081CA:  MOVF   xCF,W
081CC:  SUBLW  03
081CE:  BTFSS  FD8.2
081D0:  BRA    82EC
....................             printf("titulo.txt=\"Clave Nueva\""); 
081D2:  MOVLW  E8
081D4:  MOVWF  FF6
081D6:  MOVLW  06
081D8:  MOVWF  FF7
081DA:  MOVLW  00
081DC:  MOVWF  FF8
081DE:  MOVLB  0
081E0:  CALL   4078
....................             SendDataDisplay(); 
081E4:  CALL   40AA
....................             printf("page MenuPrincipal"); 
081E8:  MOVLW  02
081EA:  MOVWF  FF6
081EC:  MOVLW  07
081EE:  MOVWF  FF7
081F0:  MOVLW  00
081F2:  MOVWF  FF8
081F4:  CALL   4078
....................             SendDataDisplay(); 
081F8:  CALL   40AA
....................             if(!GuardaEEPROM){ 
081FC:  BTFSC  xA2.5
081FE:  BRA    82EA
....................                write_eeprom(10,Contrasena[0]);delay_ms(20);write_eeprom(11,Contrasena[1]);delay_ms(20); 
08200:  CLRF   FAA
08202:  MOVLW  0A
08204:  MOVWF  FA9
08206:  MOVFF  35D,FA8
0820A:  BCF    FA6.6
0820C:  BCF    FA6.7
0820E:  BSF    FA6.2
08210:  MOVF   FF2,W
08212:  MOVWF  00
08214:  BCF    FF2.6
08216:  BCF    FF2.7
08218:  MOVLB  F
0821A:  MOVLW  55
0821C:  MOVWF  FA7
0821E:  MOVLW  AA
08220:  MOVWF  FA7
08222:  BSF    FA6.1
08224:  BTFSC  FA6.1
08226:  BRA    8224
08228:  BCF    FA6.2
0822A:  MOVF   00,W
0822C:  IORWF  FF2,F
0822E:  MOVLW  14
08230:  MOVLB  4
08232:  MOVWF  x29
08234:  MOVLB  0
08236:  CALL   19C2
0823A:  CLRF   FAA
0823C:  MOVLW  0B
0823E:  MOVWF  FA9
08240:  MOVFF  35E,FA8
08244:  BCF    FA6.6
08246:  BCF    FA6.7
08248:  BSF    FA6.2
0824A:  MOVF   FF2,W
0824C:  MOVWF  00
0824E:  BCF    FF2.6
08250:  BCF    FF2.7
08252:  MOVLB  F
08254:  MOVLW  55
08256:  MOVWF  FA7
08258:  MOVLW  AA
0825A:  MOVWF  FA7
0825C:  BSF    FA6.1
0825E:  BTFSC  FA6.1
08260:  BRA    825E
08262:  BCF    FA6.2
08264:  MOVF   00,W
08266:  IORWF  FF2,F
08268:  MOVLW  14
0826A:  MOVLB  4
0826C:  MOVWF  x29
0826E:  MOVLB  0
08270:  CALL   19C2
....................                write_eeprom(12,Contrasena[2]);delay_ms(20);write_eeprom(13,Contrasena[3]);delay_ms(20); 
08274:  CLRF   FAA
08276:  MOVLW  0C
08278:  MOVWF  FA9
0827A:  MOVFF  35F,FA8
0827E:  BCF    FA6.6
08280:  BCF    FA6.7
08282:  BSF    FA6.2
08284:  MOVF   FF2,W
08286:  MOVWF  00
08288:  BCF    FF2.6
0828A:  BCF    FF2.7
0828C:  MOVLB  F
0828E:  MOVLW  55
08290:  MOVWF  FA7
08292:  MOVLW  AA
08294:  MOVWF  FA7
08296:  BSF    FA6.1
08298:  BTFSC  FA6.1
0829A:  BRA    8298
0829C:  BCF    FA6.2
0829E:  MOVF   00,W
082A0:  IORWF  FF2,F
082A2:  MOVLW  14
082A4:  MOVLB  4
082A6:  MOVWF  x29
082A8:  MOVLB  0
082AA:  CALL   19C2
082AE:  CLRF   FAA
082B0:  MOVLW  0D
082B2:  MOVWF  FA9
082B4:  MOVFF  360,FA8
082B8:  BCF    FA6.6
082BA:  BCF    FA6.7
082BC:  BSF    FA6.2
082BE:  MOVF   FF2,W
082C0:  MOVWF  00
082C2:  BCF    FF2.6
082C4:  BCF    FF2.7
082C6:  MOVLB  F
082C8:  MOVLW  55
082CA:  MOVWF  FA7
082CC:  MOVLW  AA
082CE:  MOVWF  FA7
082D0:  BSF    FA6.1
082D2:  BTFSC  FA6.1
082D4:  BRA    82D2
082D6:  BCF    FA6.2
082D8:  MOVF   00,W
082DA:  IORWF  FF2,F
082DC:  MOVLW  14
082DE:  MOVLB  4
082E0:  MOVWF  x29
082E2:  MOVLB  0
082E4:  CALL   19C2
....................                GuardaEEPROM=ON; 
082E8:  BSF    xA2.5
082EA:  MOVLB  2
....................             } 
....................          } 
....................       } 
....................        
....................       if(RX_Buffer[4]==0x11){//11 
082EC:  MOVF   34,W
082EE:  SUBLW  11
082F0:  BNZ   8310
....................          if(TipoClave!=0){ 
082F2:  MOVF   xCF,F
082F4:  BZ    8310
....................             printf("page MenuPrincipal"); 
082F6:  MOVLW  16
082F8:  MOVWF  FF6
082FA:  MOVLW  07
082FC:  MOVWF  FF7
082FE:  MOVLW  00
08300:  MOVWF  FF8
08302:  MOVLB  0
08304:  CALL   4078
....................             SendDataDisplay(); 
08308:  CALL   40AA
....................             PantallaPrincipal=0; 
0830C:  MOVLB  2
0830E:  CLRF   xCE
....................          } 
....................       } 
....................        
....................       if(TipoClave==3){ 
08310:  MOVF   xCF,W
08312:  SUBLW  03
08314:  BNZ   8342
....................          printf("titulo.txt=\"Clave Nueva\""); 
08316:  MOVLW  2A
08318:  MOVWF  FF6
0831A:  MOVLW  07
0831C:  MOVWF  FF7
0831E:  MOVLW  00
08320:  MOVWF  FF8
08322:  MOVLB  0
08324:  CALL   4078
....................          SendDataDisplay(); 
08328:  CALL   40AA
....................          printf("doevents"); 
0832C:  MOVLW  44
0832E:  MOVWF  FF6
08330:  MOVLW  07
08332:  MOVWF  FF7
08334:  MOVLW  00
08336:  MOVWF  FF8
08338:  CALL   4078
....................          SendDataDisplay(); 
0833C:  CALL   40AA
08340:  MOVLB  2
....................       } 
....................        
....................       if(TipoClave==2){ 
08342:  MOVF   xCF,W
08344:  SUBLW  02
08346:  BNZ   8374
....................          printf("titulo.txt=\"Clave Actual\""); 
08348:  MOVLW  4E
0834A:  MOVWF  FF6
0834C:  MOVLW  07
0834E:  MOVWF  FF7
08350:  MOVLW  00
08352:  MOVWF  FF8
08354:  MOVLB  0
08356:  CALL   4078
....................          SendDataDisplay(); 
0835A:  CALL   40AA
....................          printf("doevents"); 
0835E:  MOVLW  68
08360:  MOVWF  FF6
08362:  MOVLW  07
08364:  MOVWF  FF7
08366:  MOVLW  00
08368:  MOVWF  FF8
0836A:  CALL   4078
....................          SendDataDisplay(); 
0836E:  CALL   40AA
08372:  MOVLB  2
....................       } 
....................        
....................       if(TipoClave==1){ 
08374:  DECFSZ xCF,W
08376:  BRA    83A4
....................          printf("titulo.txt=\"Clave Tecnico\""); 
08378:  MOVLW  72
0837A:  MOVWF  FF6
0837C:  MOVLW  07
0837E:  MOVWF  FF7
08380:  MOVLW  00
08382:  MOVWF  FF8
08384:  MOVLB  0
08386:  CALL   4078
....................          SendDataDisplay(); 
0838A:  CALL   40AA
....................          printf("doevents"); 
0838E:  MOVLW  8E
08390:  MOVWF  FF6
08392:  MOVLW  07
08394:  MOVWF  FF7
08396:  MOVLW  00
08398:  MOVWF  FF8
0839A:  CALL   4078
....................          SendDataDisplay(); 
0839E:  CALL   40AA
083A2:  MOVLB  2
....................       } 
....................        
....................       if(TipoClave==0){ 
083A4:  MOVF   xCF,F
083A6:  BNZ   83C0
....................          printf("titulo.txt=\"Ingrese Contrasea\""); 
083A8:  MOVLW  98
083AA:  MOVWF  FF6
083AC:  MOVLW  07
083AE:  MOVWF  FF7
083B0:  MOVLW  00
083B2:  MOVWF  FF8
083B4:  MOVLB  0
083B6:  CALL   4078
....................          SendDataDisplay(); 
083BA:  CALL   40AA
083BE:  MOVLB  2
....................       } 
....................       if(RX_Buffer[3]==0x0f){//0f, recibe caracteres ingresados desde el Display 
083C0:  MOVF   33,W
083C2:  SUBLW  0F
083C4:  BTFSS  FD8.2
083C6:  BRA    87A0
....................          if(TipoClave==0){ 
083C8:  MOVF   xCF,F
083CA:  BTFSS  FD8.2
083CC:  BRA    855C
....................             if(RX_Buffer[4]==0x33&&RX_Buffer[5]==0x38&&RX_Buffer[6]==0x39&&RX_Buffer[7]==0x32){ // Si Ingresa clave para reset general del sistema. 
083CE:  MOVF   34,W
083D0:  SUBLW  33
083D2:  BTFSS  FD8.2
083D4:  BRA    84CE
083D6:  MOVF   35,W
083D8:  SUBLW  38
083DA:  BTFSS  FD8.2
083DC:  BRA    84CE
083DE:  MOVF   36,W
083E0:  SUBLW  39
083E2:  BNZ   84CE
083E4:  MOVF   37,W
083E6:  SUBLW  32
083E8:  BNZ   84CE
....................                write_eeprom(10,0);delay_ms(20);write_eeprom(11,0);delay_ms(20);// Reestablece a contrasea de Fabrica y reinicia Programa. 
083EA:  CLRF   FAA
083EC:  MOVLW  0A
083EE:  MOVWF  FA9
083F0:  CLRF   FA8
083F2:  BCF    FA6.6
083F4:  BCF    FA6.7
083F6:  BSF    FA6.2
083F8:  MOVF   FF2,W
083FA:  MOVWF  00
083FC:  BCF    FF2.6
083FE:  BCF    FF2.7
08400:  MOVLB  F
08402:  MOVLW  55
08404:  MOVWF  FA7
08406:  MOVLW  AA
08408:  MOVWF  FA7
0840A:  BSF    FA6.1
0840C:  BTFSC  FA6.1
0840E:  BRA    840C
08410:  BCF    FA6.2
08412:  MOVF   00,W
08414:  IORWF  FF2,F
08416:  MOVLW  14
08418:  MOVLB  4
0841A:  MOVWF  x29
0841C:  MOVLB  0
0841E:  CALL   19C2
08422:  CLRF   FAA
08424:  MOVLW  0B
08426:  MOVWF  FA9
08428:  CLRF   FA8
0842A:  BCF    FA6.6
0842C:  BCF    FA6.7
0842E:  BSF    FA6.2
08430:  MOVF   FF2,W
08432:  MOVWF  00
08434:  BCF    FF2.6
08436:  BCF    FF2.7
08438:  MOVLB  F
0843A:  MOVLW  55
0843C:  MOVWF  FA7
0843E:  MOVLW  AA
08440:  MOVWF  FA7
08442:  BSF    FA6.1
08444:  BTFSC  FA6.1
08446:  BRA    8444
08448:  BCF    FA6.2
0844A:  MOVF   00,W
0844C:  IORWF  FF2,F
0844E:  MOVLW  14
08450:  MOVLB  4
08452:  MOVWF  x29
08454:  MOVLB  0
08456:  CALL   19C2
....................                write_eeprom(12,0);delay_ms(20);write_eeprom(13,0);delay_ms(20); 
0845A:  CLRF   FAA
0845C:  MOVLW  0C
0845E:  MOVWF  FA9
08460:  CLRF   FA8
08462:  BCF    FA6.6
08464:  BCF    FA6.7
08466:  BSF    FA6.2
08468:  MOVF   FF2,W
0846A:  MOVWF  00
0846C:  BCF    FF2.6
0846E:  BCF    FF2.7
08470:  MOVLB  F
08472:  MOVLW  55
08474:  MOVWF  FA7
08476:  MOVLW  AA
08478:  MOVWF  FA7
0847A:  BSF    FA6.1
0847C:  BTFSC  FA6.1
0847E:  BRA    847C
08480:  BCF    FA6.2
08482:  MOVF   00,W
08484:  IORWF  FF2,F
08486:  MOVLW  14
08488:  MOVLB  4
0848A:  MOVWF  x29
0848C:  MOVLB  0
0848E:  CALL   19C2
08492:  CLRF   FAA
08494:  MOVLW  0D
08496:  MOVWF  FA9
08498:  CLRF   FA8
0849A:  BCF    FA6.6
0849C:  BCF    FA6.7
0849E:  BSF    FA6.2
084A0:  MOVF   FF2,W
084A2:  MOVWF  00
084A4:  BCF    FF2.6
084A6:  BCF    FF2.7
084A8:  MOVLB  F
084AA:  MOVLW  55
084AC:  MOVWF  FA7
084AE:  MOVLW  AA
084B0:  MOVWF  FA7
084B2:  BSF    FA6.1
084B4:  BTFSC  FA6.1
084B6:  BRA    84B4
084B8:  BCF    FA6.2
084BA:  MOVF   00,W
084BC:  IORWF  FF2,F
084BE:  MOVLW  14
084C0:  MOVLB  4
084C2:  MOVWF  x29
084C4:  MOVLB  0
084C6:  CALL   19C2
....................                reset_cpu(); 
084CA:  RESET
084CC:  MOVLB  2
....................             } 
....................             if(RX_Buffer[4]>=0x30 && RX_Buffer[5]>=0x30 && RX_Buffer[6]>=0x30 && RX_Buffer[7]>=0x30 
....................             && RX_Buffer[4]<=0x39 && RX_Buffer[5]<=0x39 && RX_Buffer[6]<=0x39 && RX_Buffer[7]<=0x39){ 
084CE:  MOVF   34,W
084D0:  SUBLW  2F
084D2:  BC    855A
084D4:  MOVF   35,W
084D6:  SUBLW  2F
084D8:  BC    855A
084DA:  MOVF   36,W
084DC:  SUBLW  2F
084DE:  BC    855A
084E0:  MOVF   37,W
084E2:  SUBLW  2F
084E4:  BC    855A
084E6:  MOVF   34,W
084E8:  SUBLW  39
084EA:  BNC   855A
084EC:  MOVF   35,W
084EE:  SUBLW  39
084F0:  BNC   855A
084F2:  MOVF   36,W
084F4:  SUBLW  39
084F6:  BNC   855A
084F8:  MOVF   37,W
084FA:  SUBLW  39
084FC:  BNC   855A
....................             if((RX_Buffer[4]==Password[0]+0x30)&&(RX_Buffer[5]==Password[1]+0x30)&&(RX_Buffer[6]==Password[2]+0x30)&&(RX_Buffer[7]==Password[3]+0x30)){ 
084FE:  MOVLW  30
08500:  MOVLB  3
08502:  ADDWF  x61,W
08504:  SUBWF  34,W
08506:  BNZ   853E
08508:  MOVLW  30
0850A:  ADDWF  x62,W
0850C:  SUBWF  35,W
0850E:  BNZ   853E
08510:  MOVLW  30
08512:  ADDWF  x63,W
08514:  SUBWF  36,W
08516:  BNZ   853E
08518:  MOVLW  30
0851A:  ADDWF  x64,W
0851C:  SUBWF  37,W
0851E:  BNZ   853E
....................                   printf("page ClaveCorrecta"); 
08520:  MOVLW  B8
08522:  MOVWF  FF6
08524:  MOVLW  07
08526:  MOVWF  FF7
08528:  MOVLW  00
0852A:  MOVWF  FF8
0852C:  MOVLB  0
0852E:  CALL   4078
....................                   //printf("page MenuPrincipal"); 
....................                   SendDataDisplay(); 
08532:  CALL   40AA
....................                   RX_Buffer[3]=0x00;RX_Buffer2[3]=0x00;   
08536:  CLRF   33
08538:  CLRF   3E
....................                }else{ 
0853A:  BRA    8558
0853C:  MOVLB  3
....................                   printf("page ClaveBad"); 
0853E:  MOVLW  CC
08540:  MOVWF  FF6
08542:  MOVLW  07
08544:  MOVWF  FF7
08546:  MOVLW  00
08548:  MOVWF  FF8
0854A:  MOVLB  0
0854C:  CALL   4078
....................                   SendDataDisplay(); 
08550:  CALL   40AA
....................                   RX_Buffer[3]=0x00;RX_Buffer2[3]=0x00;   
08554:  CLRF   33
08556:  CLRF   3E
08558:  MOVLB  2
....................                }  
....................             } 
....................          }else if(TipoClave==1){ 
0855A:  BRA    87A0
0855C:  DECFSZ xCF,W
0855E:  BRA    85AC
....................             if(RX_Buffer[4]==0x34&&RX_Buffer[5]==0x34&&RX_Buffer[6]==0x34&&RX_Buffer[7]==0x34){ // Si Ingresa clave de Servicio Tecnico 
08560:  MOVF   34,W
08562:  SUBLW  34
08564:  BNZ   8592
08566:  MOVF   35,W
08568:  SUBLW  34
0856A:  BNZ   8592
0856C:  MOVF   36,W
0856E:  SUBLW  34
08570:  BNZ   8592
08572:  MOVF   37,W
08574:  SUBLW  34
08576:  BNZ   8592
....................                printf("page Config"); 
08578:  MOVLW  DA
0857A:  MOVWF  FF6
0857C:  MOVLW  07
0857E:  MOVWF  FF7
08580:  MOVLW  00
08582:  MOVWF  FF8
08584:  MOVLB  0
08586:  CALL   4078
....................                SendDataDisplay(); 
0858A:  CALL   40AA
....................             }else{ 
0858E:  BRA    85A8
08590:  MOVLB  2
....................                printf("page MenuPrincipal"); 
08592:  MOVLW  E6
08594:  MOVWF  FF6
08596:  MOVLW  07
08598:  MOVWF  FF7
0859A:  MOVLW  00
0859C:  MOVWF  FF8
0859E:  MOVLB  0
085A0:  CALL   4078
....................                SendDataDisplay(); 
085A4:  CALL   40AA
....................             } 
....................          }else if(TipoClave==2){ 
085A8:  BRA    879E
085AA:  MOVLB  2
085AC:  MOVF   xCF,W
085AE:  SUBLW  02
085B0:  BNZ   865A
....................             if(RX_Buffer[4]>=0x30 && RX_Buffer[5]>=0x30 && RX_Buffer[6]>=0x30 && RX_Buffer[7]>=0x30 
....................             && RX_Buffer[4]<=0x39 && RX_Buffer[5]<=0x39 && RX_Buffer[6]<=0x39 && RX_Buffer[7]<=0x39){ 
085B2:  MOVF   34,W
085B4:  SUBLW  2F
085B6:  BC    8658
085B8:  MOVF   35,W
085BA:  SUBLW  2F
085BC:  BC    8658
085BE:  MOVF   36,W
085C0:  SUBLW  2F
085C2:  BC    8658
085C4:  MOVF   37,W
085C6:  SUBLW  2F
085C8:  BC    8658
085CA:  MOVF   34,W
085CC:  SUBLW  39
085CE:  BNC   8658
085D0:  MOVF   35,W
085D2:  SUBLW  39
085D4:  BNC   8658
085D6:  MOVF   36,W
085D8:  SUBLW  39
085DA:  BNC   8658
085DC:  MOVF   37,W
085DE:  SUBLW  39
085E0:  BNC   8658
....................             if((RX_Buffer[4]==Password[0]+0x30)&&(RX_Buffer[5]==Password[1]+0x30)&&(RX_Buffer[6]==Password[2]+0x30)&&(RX_Buffer[7]==Password[3]+0x30)){ 
085E2:  MOVLW  30
085E4:  MOVLB  3
085E6:  ADDWF  x61,W
085E8:  SUBWF  34,W
085EA:  BNZ   863C
085EC:  MOVLW  30
085EE:  ADDWF  x62,W
085F0:  SUBWF  35,W
085F2:  BNZ   863C
085F4:  MOVLW  30
085F6:  ADDWF  x63,W
085F8:  SUBWF  36,W
085FA:  BNZ   863C
085FC:  MOVLW  30
085FE:  ADDWF  x64,W
08600:  SUBWF  37,W
08602:  BNZ   863C
....................                printf("page Clave"); 
08604:  MOVLW  FA
08606:  MOVWF  FF6
08608:  MOVLW  07
0860A:  MOVWF  FF7
0860C:  MOVLW  00
0860E:  MOVWF  FF8
08610:  MOVLB  0
08612:  CALL   4078
....................                SendDataDisplay(); 
08616:  CALL   40AA
....................                printf("titulo.txt=\"Clave Nueva\""); 
0861A:  MOVLW  06
0861C:  MOVWF  FF6
0861E:  MOVLW  08
08620:  MOVWF  FF7
08622:  MOVLW  00
08624:  MOVWF  FF8
08626:  CALL   4078
....................                SendDataDisplay(); 
0862A:  CALL   40AA
....................                TipoClave=3; 
0862E:  MOVLW  03
08630:  MOVLB  2
08632:  MOVWF  xCF
....................                RX_Buffer[3]=0x00; 
08634:  CLRF   33
....................                RX_Buffer2[3]=0x00; 
08636:  CLRF   3E
....................             }else{ 
08638:  BRA    8658
0863A:  MOVLB  3
....................                printf("page MenuPrincipal"); 
0863C:  MOVLW  20
0863E:  MOVWF  FF6
08640:  MOVLW  08
08642:  MOVWF  FF7
08644:  MOVLW  00
08646:  MOVWF  FF8
08648:  MOVLB  0
0864A:  CALL   4078
....................                SendDataDisplay(); 
0864E:  CALL   40AA
....................                RX_Buffer[3]=0x00; 
08652:  CLRF   33
....................                RX_Buffer2[3]=0x00; 
08654:  CLRF   3E
08656:  MOVLB  2
....................             }  
....................             } 
....................          }else if(TipoClave==3){ 
08658:  BRA    87A0
0865A:  MOVF   xCF,W
0865C:  SUBLW  03
0865E:  BTFSS  FD8.2
08660:  BRA    87A0
....................             printf("titulo.txt=\"Clave Nueva\""); 
08662:  MOVLW  34
08664:  MOVWF  FF6
08666:  MOVLW  08
08668:  MOVWF  FF7
0866A:  MOVLW  00
0866C:  MOVWF  FF8
0866E:  MOVLB  0
08670:  CALL   4078
....................             SendDataDisplay(); 
08674:  CALL   40AA
....................             printf("page MenuPrincipal"); 
08678:  MOVLW  4E
0867A:  MOVWF  FF6
0867C:  MOVLW  08
0867E:  MOVWF  FF7
08680:  MOVLW  00
08682:  MOVWF  FF8
08684:  CALL   4078
....................             SendDataDisplay(); 
08688:  CALL   40AA
....................             if(!GuardaEEPROM){ 
0868C:  BTFSC  xA2.5
0868E:  BRA    879A
....................                write_eeprom(10,RX_Buffer[4]-0x30);delay_ms(20);write_eeprom(11,RX_Buffer[5]-0x30);delay_ms(20); 
08690:  MOVLW  30
08692:  SUBWF  34,W
08694:  MOVLB  4
08696:  MOVWF  x14
08698:  CLRF   FAA
0869A:  MOVLW  0A
0869C:  MOVWF  FA9
0869E:  MOVFF  414,FA8
086A2:  BCF    FA6.6
086A4:  BCF    FA6.7
086A6:  BSF    FA6.2
086A8:  MOVF   FF2,W
086AA:  MOVWF  00
086AC:  BCF    FF2.6
086AE:  BCF    FF2.7
086B0:  MOVLB  F
086B2:  MOVLW  55
086B4:  MOVWF  FA7
086B6:  MOVLW  AA
086B8:  MOVWF  FA7
086BA:  BSF    FA6.1
086BC:  BTFSC  FA6.1
086BE:  BRA    86BC
086C0:  BCF    FA6.2
086C2:  MOVF   00,W
086C4:  IORWF  FF2,F
086C6:  MOVLW  14
086C8:  MOVLB  4
086CA:  MOVWF  x29
086CC:  MOVLB  0
086CE:  CALL   19C2
086D2:  MOVLW  30
086D4:  SUBWF  35,W
086D6:  MOVLB  4
086D8:  MOVWF  x14
086DA:  CLRF   FAA
086DC:  MOVLW  0B
086DE:  MOVWF  FA9
086E0:  MOVFF  414,FA8
086E4:  BCF    FA6.6
086E6:  BCF    FA6.7
086E8:  BSF    FA6.2
086EA:  MOVF   FF2,W
086EC:  MOVWF  00
086EE:  BCF    FF2.6
086F0:  BCF    FF2.7
086F2:  MOVLB  F
086F4:  MOVLW  55
086F6:  MOVWF  FA7
086F8:  MOVLW  AA
086FA:  MOVWF  FA7
086FC:  BSF    FA6.1
086FE:  BTFSC  FA6.1
08700:  BRA    86FE
08702:  BCF    FA6.2
08704:  MOVF   00,W
08706:  IORWF  FF2,F
08708:  MOVLW  14
0870A:  MOVLB  4
0870C:  MOVWF  x29
0870E:  MOVLB  0
08710:  CALL   19C2
....................                write_eeprom(12,RX_Buffer[6]-0x30);delay_ms(20);write_eeprom(13,RX_Buffer[7]-0x30);delay_ms(20); 
08714:  MOVLW  30
08716:  SUBWF  36,W
08718:  MOVLB  4
0871A:  MOVWF  x14
0871C:  CLRF   FAA
0871E:  MOVLW  0C
08720:  MOVWF  FA9
08722:  MOVFF  414,FA8
08726:  BCF    FA6.6
08728:  BCF    FA6.7
0872A:  BSF    FA6.2
0872C:  MOVF   FF2,W
0872E:  MOVWF  00
08730:  BCF    FF2.6
08732:  BCF    FF2.7
08734:  MOVLB  F
08736:  MOVLW  55
08738:  MOVWF  FA7
0873A:  MOVLW  AA
0873C:  MOVWF  FA7
0873E:  BSF    FA6.1
08740:  BTFSC  FA6.1
08742:  BRA    8740
08744:  BCF    FA6.2
08746:  MOVF   00,W
08748:  IORWF  FF2,F
0874A:  MOVLW  14
0874C:  MOVLB  4
0874E:  MOVWF  x29
08750:  MOVLB  0
08752:  CALL   19C2
08756:  MOVLW  30
08758:  SUBWF  37,W
0875A:  MOVLB  4
0875C:  MOVWF  x14
0875E:  CLRF   FAA
08760:  MOVLW  0D
08762:  MOVWF  FA9
08764:  MOVFF  414,FA8
08768:  BCF    FA6.6
0876A:  BCF    FA6.7
0876C:  BSF    FA6.2
0876E:  MOVF   FF2,W
08770:  MOVWF  00
08772:  BCF    FF2.6
08774:  BCF    FF2.7
08776:  MOVLB  F
08778:  MOVLW  55
0877A:  MOVWF  FA7
0877C:  MOVLW  AA
0877E:  MOVWF  FA7
08780:  BSF    FA6.1
08782:  BTFSC  FA6.1
08784:  BRA    8782
08786:  BCF    FA6.2
08788:  MOVF   00,W
0878A:  IORWF  FF2,F
0878C:  MOVLW  14
0878E:  MOVLB  4
08790:  MOVWF  x29
08792:  MOVLB  0
08794:  CALL   19C2
....................                GuardaEEPROM=ON; 
08798:  BSF    xA2.5
....................             } 
....................             RX_Buffer[3]=0x00; 
0879A:  CLRF   33
....................             RX_Buffer2[3]=0x00; 
0879C:  CLRF   3E
0879E:  MOVLB  2
087A0:  MOVLB  3
....................          } 
....................       } 
....................     } 
.................... //_--------------------------------------------------------------------------------------------------------------------------------------------------------        
....................  
.................... //_-------------------------------------------------------------------------------------------------------------------------------------------------------- 
....................    if(Menu==1){ //Menu Principal. 
087A2:  DECFSZ x3A,W
087A4:  GOTO   9188
....................       printf("fecha.txt=\"T:%3.1fC Fecha:%02u/%02u/20%02u Hora: %02u:%02u:%02u\"",Temperatura,Dia,Mes,Year,Hora,Minuto,Segundo); 
087A8:  MOVLW  62
087AA:  MOVWF  FF6
087AC:  MOVLW  08
087AE:  MOVWF  FF7
087B0:  MOVLW  00
087B2:  MOVWF  FF8
087B4:  MOVLW  0D
087B6:  MOVLB  4
087B8:  MOVWF  x19
087BA:  MOVLB  0
087BC:  CALL   4D2C
087C0:  MOVLW  02
087C2:  MOVWF  FE9
087C4:  MOVFF  31B,41C
087C8:  MOVFF  31A,41B
087CC:  MOVFF  319,41A
087D0:  MOVFF  318,419
087D4:  MOVLW  01
087D6:  MOVLB  4
087D8:  MOVWF  x1D
087DA:  MOVLB  0
087DC:  CALL   4ECC
087E0:  MOVLW  74
087E2:  MOVWF  FF6
087E4:  MOVLW  08
087E6:  MOVWF  FF7
087E8:  MOVLW  00
087EA:  MOVWF  FF8
087EC:  MOVLW  09
087EE:  MOVLB  4
087F0:  MOVWF  x19
087F2:  MOVLB  0
087F4:  CALL   4D2C
087F8:  MOVFF  376,419
087FC:  MOVLW  01
087FE:  MOVLB  4
08800:  MOVWF  x1A
08802:  MOVLB  0
08804:  CALL   4D8A
08808:  MOVLW  2F
0880A:  BTFSS  F9E.4
0880C:  BRA    880A
0880E:  MOVWF  FAD
08810:  MOVFF  375,419
08814:  MOVLW  01
08816:  MOVLB  4
08818:  MOVWF  x1A
0881A:  MOVLB  0
0881C:  CALL   4D8A
08820:  MOVLW  2F
08822:  BTFSS  F9E.4
08824:  BRA    8822
08826:  MOVWF  FAD
08828:  MOVLW  32
0882A:  BTFSS  F9E.4
0882C:  BRA    882A
0882E:  MOVWF  FAD
08830:  MOVLW  30
08832:  BTFSS  F9E.4
08834:  BRA    8832
08836:  MOVWF  FAD
08838:  MOVFF  374,419
0883C:  MOVLW  01
0883E:  MOVLB  4
08840:  MOVWF  x1A
08842:  MOVLB  0
08844:  CALL   4D8A
08848:  MOVLW  8D
0884A:  MOVWF  FF6
0884C:  MOVLW  08
0884E:  MOVWF  FF7
08850:  MOVLW  00
08852:  MOVWF  FF8
08854:  MOVLW  07
08856:  MOVLB  4
08858:  MOVWF  x19
0885A:  MOVLB  0
0885C:  CALL   4D2C
08860:  MOVFF  377,419
08864:  MOVLW  01
08866:  MOVLB  4
08868:  MOVWF  x1A
0886A:  MOVLB  0
0886C:  CALL   4D8A
08870:  MOVLW  3A
08872:  BTFSS  F9E.4
08874:  BRA    8872
08876:  MOVWF  FAD
08878:  MOVFF  378,419
0887C:  MOVLW  01
0887E:  MOVLB  4
08880:  MOVWF  x1A
08882:  MOVLB  0
08884:  CALL   4D8A
08888:  MOVLW  3A
0888A:  BTFSS  F9E.4
0888C:  BRA    888A
0888E:  MOVWF  FAD
08890:  MOVFF  379,419
08894:  MOVLW  01
08896:  MOVLB  4
08898:  MOVWF  x1A
0889A:  MOVLB  0
0889C:  CALL   4D8A
088A0:  MOVLW  22
088A2:  BTFSS  F9E.4
088A4:  BRA    88A2
088A6:  MOVWF  FAD
....................       SendDataDisplay(); 
088A8:  CALL   40AA
....................       GuardaEEPROM=OFF; 
088AC:  BCF    xA2.5
....................       PruebaEstados=OFF; 
088AE:  BCF    xA1.2
....................       if(RX_Buffer[3]==0x0f || UP){//0f, recibe caracteres ingresados desde el Display 
088B0:  MOVF   33,W
088B2:  SUBLW  0F
088B4:  BZ    88BC
088B6:  BSF    F93.0
088B8:  BTFSC  F81.0
088BA:  BRA    8B40
....................          delay_ms(5); 
088BC:  MOVLW  05
088BE:  MOVLB  4
088C0:  MOVWF  x29
088C2:  MOVLB  0
088C4:  CALL   19C2
....................          if(RX_Buffer[3]==0x0f || UP){ 
088C8:  MOVF   33,W
088CA:  SUBLW  0F
088CC:  BZ    88D4
088CE:  BSF    F93.0
088D0:  BTFSC  F81.0
088D2:  BRA    8B3A
....................          if(PantallaPrincipal==0){//Si esta en menu principal 
088D4:  MOVLB  2
088D6:  MOVF   xCE,F
088D8:  BTFSS  FD8.2
088DA:  BRA    8B3E
....................             if(RX_Buffer[4]==0x37){//Ajustes y pasa a solicitud de password de tecnico 
088DC:  MOVF   34,W
088DE:  SUBLW  37
088E0:  BNZ   890E
....................                printf("page Clave"); 
088E2:  MOVLW  A4
088E4:  MOVWF  FF6
088E6:  MOVLW  08
088E8:  MOVWF  FF7
088EA:  MOVLW  00
088EC:  MOVWF  FF8
088EE:  MOVLB  0
088F0:  CALL   4078
....................                SendDataDisplay();  
088F4:  CALL   40AA
....................                Op=OFF; 
088F8:  BCF    xA2.1
....................                Op2=OFF; 
088FA:  BCF    xA2.2
....................                MenuAnt=Menu; 
088FC:  MOVFF  33A,33B
....................                TipoClave=1; 
08900:  MOVLW  01
08902:  MOVLB  2
08904:  MOVWF  xCF
....................                RX_Buffer[3]=0x00; 
08906:  CLRF   33
....................                RX_Buffer2[3]=0x00; 
08908:  CLRF   3E
....................                Opcion=0; 
0890A:  MOVLB  3
0890C:  CLRF   x42
....................             }  
....................             if(Opcion==9){// Datos Ciclo 
0890E:  MOVLB  3
08910:  MOVF   x42,W
08912:  SUBLW  09
08914:  BNZ   8940
....................                printf("page Ciclos"); 
08916:  MOVLW  B0
08918:  MOVWF  FF6
0891A:  MOVLW  08
0891C:  MOVWF  FF7
0891E:  MOVLW  00
08920:  MOVWF  FF8
08922:  MOVLB  0
08924:  CALL   4078
....................                SendDataDisplay();  
08928:  CALL   40AA
....................                Op=OFF; 
0892C:  BCF    xA2.1
....................                Op2=OFF; 
0892E:  BCF    xA2.2
....................                MenuAnt=Menu; 
08930:  MOVFF  33A,33B
....................                RX_Buffer[3]=0x00; 
08934:  CLRF   33
....................                RX_Buffer2[3]=0x00; 
08936:  CLRF   3E
....................                Opcion=1; 
08938:  MOVLW  01
0893A:  MOVLB  3
0893C:  MOVWF  x42
....................             }else if(Opcion==8){// Cambio de Clave 
0893E:  BRA    8B3C
08940:  MOVF   x42,W
08942:  SUBLW  08
08944:  BNZ   8974
....................                printf("page Clave"); 
08946:  MOVLW  BC
08948:  MOVWF  FF6
0894A:  MOVLW  08
0894C:  MOVWF  FF7
0894E:  MOVLW  00
08950:  MOVWF  FF8
08952:  MOVLB  0
08954:  CALL   4078
....................                SendDataDisplay();  
08958:  CALL   40AA
....................                Op=OFF; 
0895C:  BCF    xA2.1
....................                Op2=OFF; 
0895E:  BCF    xA2.2
....................                MenuAnt=Menu; 
08960:  MOVFF  33A,33B
....................                TipoClave=2; 
08964:  MOVLW  02
08966:  MOVLB  2
08968:  MOVWF  xCF
....................                RX_Buffer[3]=0x00; 
0896A:  CLRF   33
....................                RX_Buffer2[3]=0x00; 
0896C:  CLRF   3E
....................                Opcion=0; 
0896E:  MOVLB  3
08970:  CLRF   x42
....................             }else if(Opcion==7){//Hora y Fecha 
08972:  BRA    8B3C
08974:  MOVF   x42,W
08976:  SUBLW  07
08978:  BNZ   89B6
....................                printf("page Fecha"); 
0897A:  MOVLW  C8
0897C:  MOVWF  FF6
0897E:  MOVLW  08
08980:  MOVWF  FF7
08982:  MOVLW  00
08984:  MOVWF  FF8
08986:  MOVLB  0
08988:  CALL   4078
....................                SendDataDisplay();      
0898C:  CALL   40AA
....................                PantallaPrincipal=0; 
08990:  MOVLB  2
08992:  CLRF   xCE
....................                MenuAnt=Menu; 
08994:  MOVFF  33A,33B
....................                Op=OFF; 
08998:  MOVLB  0
0899A:  BCF    xA2.1
....................                Op2=OFF; 
0899C:  BCF    xA2.2
....................                DiaTx=Dia; 
0899E:  MOVFF  376,37D
....................                MesTx=Mes; 
089A2:  MOVFF  375,37C
....................                YearTx=Year; 
089A6:  MOVFF  374,37B
....................                HoraTx=Hora; 
089AA:  MOVFF  377,37E
....................                MinutoTx=Minuto; 
089AE:  MOVFF  378,37F
....................             }else if(Opcion==6){//Test 
089B2:  BRA    8B3A
089B4:  MOVLB  3
089B6:  MOVF   x42,W
089B8:  SUBLW  06
089BA:  BNZ   89E4
....................                printf("page Test"); 
089BC:  MOVLW  D4
089BE:  MOVWF  FF6
089C0:  MOVLW  08
089C2:  MOVWF  FF7
089C4:  MOVLW  00
089C6:  MOVWF  FF8
089C8:  MOVLB  0
089CA:  CALL   4078
....................                SendDataDisplay();      
089CE:  CALL   40AA
....................                PantallaPrincipal=0; 
089D2:  MOVLB  2
089D4:  CLRF   xCE
....................                MenuAnt=Menu; 
089D6:  MOVFF  33A,33B
....................                Op=OFF; 
089DA:  MOVLB  0
089DC:  BCF    xA2.1
....................                Op2=OFF; 
089DE:  BCF    xA2.2
....................             }else if(Opcion==5){//Ciclo Personalizado 
089E0:  BRA    8B3A
089E2:  MOVLB  3
089E4:  MOVF   x42,W
089E6:  SUBLW  05
089E8:  BNZ   8A0C
....................                printf("page CicloPersona"); 
089EA:  MOVLW  DE
089EC:  MOVWF  FF6
089EE:  MOVLW  08
089F0:  MOVWF  FF7
089F2:  MOVLW  00
089F4:  MOVWF  FF8
089F6:  MOVLB  0
089F8:  CALL   4078
....................                SendDataDisplay();  
089FC:  CALL   40AA
....................                MenuAnt=Menu; 
08A00:  MOVFF  33A,33B
....................                Op=OFF; 
08A04:  BCF    xA2.1
....................                Op2=OFF; 
08A06:  BCF    xA2.2
....................             }else if(Opcion==4){//LiquidosB 
08A08:  BRA    8B3A
08A0A:  MOVLB  3
08A0C:  MOVF   x42,W
08A0E:  SUBLW  04
08A10:  BNZ   8A5A
....................                printf("page Nivel"); 
08A12:  MOVLW  F0
08A14:  MOVWF  FF6
08A16:  MOVLW  08
08A18:  MOVWF  FF7
08A1A:  MOVLW  00
08A1C:  MOVWF  FF8
08A1E:  MOVLB  0
08A20:  CALL   4078
....................                SendDataDisplay();        
08A24:  CALL   40AA
....................                ConfiguraCiclo(0,0,0,3,0,0,0,0,1,4,121); 
08A28:  MOVLB  4
08A2A:  CLRF   x1E
08A2C:  CLRF   x1F
08A2E:  CLRF   x20
08A30:  MOVLW  03
08A32:  MOVWF  x21
08A34:  CLRF   x22
08A36:  CLRF   x23
08A38:  CLRF   x24
08A3A:  CLRF   x25
08A3C:  MOVLW  01
08A3E:  MOVWF  x26
08A40:  MOVLW  04
08A42:  MOVWF  x27
08A44:  MOVLW  79
08A46:  MOVWF  x28
08A48:  MOVLB  0
08A4A:  CALL   5070
....................                Op=OFF; 
08A4E:  BCF    xA2.1
....................                Op2=OFF; 
08A50:  BCF    xA2.2
....................                MenuAnt=2; 
08A52:  MOVLW  02
08A54:  MOVLB  3
08A56:  MOVWF  x3B
....................             }else if(Opcion==1){//LiquidosA 
08A58:  BRA    8B3C
08A5A:  DECFSZ x42,W
08A5C:  BRA    8AA4
....................                printf("page Nivel"); 
08A5E:  MOVLW  FC
08A60:  MOVWF  FF6
08A62:  MOVLW  08
08A64:  MOVWF  FF7
08A66:  MOVLW  00
08A68:  MOVWF  FF8
08A6A:  MOVLB  0
08A6C:  CALL   4078
....................                SendDataDisplay();        
08A70:  CALL   40AA
....................                ConfiguraCiclo(0,0,5,1,0,0,0,0,1,1,121); 
08A74:  MOVLB  4
08A76:  CLRF   x1E
08A78:  CLRF   x1F
08A7A:  MOVLW  05
08A7C:  MOVWF  x20
08A7E:  MOVLW  01
08A80:  MOVWF  x21
08A82:  CLRF   x22
08A84:  CLRF   x23
08A86:  CLRF   x24
08A88:  CLRF   x25
08A8A:  MOVWF  x26
08A8C:  MOVWF  x27
08A8E:  MOVLW  79
08A90:  MOVWF  x28
08A92:  MOVLB  0
08A94:  CALL   5070
....................                Op=OFF; 
08A98:  BCF    xA2.1
....................                Op2=OFF; 
08A9A:  BCF    xA2.2
....................                MenuAnt=2; 
08A9C:  MOVLW  02
08A9E:  MOVLB  3
08AA0:  MOVWF  x3B
....................             }else if(Opcion==3){//Instrumental 
08AA2:  BRA    8B3C
08AA4:  MOVF   x42,W
08AA6:  SUBLW  03
08AA8:  BNZ   8AEE
....................                printf("page Funcionamiento"); 
08AAA:  MOVLW  08
08AAC:  MOVWF  FF6
08AAE:  MOVLW  09
08AB0:  MOVWF  FF7
08AB2:  MOVLW  00
08AB4:  MOVWF  FF8
08AB6:  MOVLB  0
08AB8:  CALL   4078
....................                SendDataDisplay();        
08ABC:  CALL   40AA
....................                ConfiguraCiclo(0,0,0,3,0,0,0,3,0,3,121); 
08AC0:  MOVLB  4
08AC2:  CLRF   x1E
08AC4:  CLRF   x1F
08AC6:  CLRF   x20
08AC8:  MOVLW  03
08ACA:  MOVWF  x21
08ACC:  CLRF   x22
08ACE:  CLRF   x23
08AD0:  CLRF   x24
08AD2:  MOVWF  x25
08AD4:  CLRF   x26
08AD6:  MOVWF  x27
08AD8:  MOVLW  79
08ADA:  MOVWF  x28
08ADC:  MOVLB  0
08ADE:  CALL   5070
....................                Op=OFF; 
08AE2:  BCF    xA2.1
....................                Op2=OFF; 
08AE4:  BCF    xA2.2
....................                MenuAnt=Menu; 
08AE6:  MOVFF  33A,33B
....................                //if(Temperatura>60)TTrampa=TTrampa+5; 
....................             }else if(Opcion==2){//Caucho 
08AEA:  BRA    8B3A
08AEC:  MOVLB  3
08AEE:  MOVF   x42,W
08AF0:  SUBLW  02
08AF2:  BNZ   8B3C
....................                printf("page Funcionamiento"); 
08AF4:  MOVLW  1C
08AF6:  MOVWF  FF6
08AF8:  MOVLW  09
08AFA:  MOVWF  FF7
08AFC:  MOVLW  00
08AFE:  MOVWF  FF8
08B00:  MOVLB  0
08B02:  CALL   4078
....................                SendDataDisplay();        
08B06:  CALL   40AA
....................                ConfiguraCiclo(0,0,5,1,0,0,3,0,0,2,121); 
08B0A:  MOVLB  4
08B0C:  CLRF   x1E
08B0E:  CLRF   x1F
08B10:  MOVLW  05
08B12:  MOVWF  x20
08B14:  MOVLW  01
08B16:  MOVWF  x21
08B18:  CLRF   x22
08B1A:  CLRF   x23
08B1C:  MOVLW  03
08B1E:  MOVWF  x24
08B20:  CLRF   x25
08B22:  CLRF   x26
08B24:  MOVLW  02
08B26:  MOVWF  x27
08B28:  MOVLW  79
08B2A:  MOVWF  x28
08B2C:  MOVLB  0
08B2E:  CALL   5070
....................                Op=OFF; 
08B32:  BCF    xA2.1
....................                Op2=OFF; 
08B34:  BCF    xA2.2
....................                MenuAnt=Menu; 
08B36:  MOVFF  33A,33B
08B3A:  MOVLB  3
08B3C:  MOVLB  2
....................                //if(Temperatura>60)TTrampa=TTrampa+5; 
....................             } 
....................          } 
....................          } 
....................       }else if(PantallaPrincipal==0){ 
08B3E:  BRA    913A
08B40:  MOVLB  2
08B42:  MOVF   xCE,F
08B44:  BTFSS  FD8.2
08B46:  BRA    913A
....................          if(Opcion>sizeof(iconoGrande)) 
08B48:  MOVLB  3
08B4A:  MOVF   x42,W
08B4C:  SUBLW  09
08B4E:  BC    8B54
....................             Opcion=1; 
08B50:  MOVLW  01
08B52:  MOVWF  x42
....................              
....................          if(Opcion<1) 
08B54:  MOVF   x42,F
08B56:  BNZ   8B5C
....................             Opcion=sizeof(iconoGrande); 
08B58:  MOVLW  09
08B5A:  MOVWF  x42
....................           
....................          if(Opcion==1){ 
08B5C:  DECFSZ x42,W
08B5E:  BRA    8D0C
....................             printf("bc.pic=%u",iconoGrande[Opcion-1]); 
08B60:  MOVLW  01
08B62:  SUBWF  x42,W
08B64:  CLRF   03
08B66:  ADDLW  88
08B68:  MOVWF  FE9
08B6A:  MOVLW  03
08B6C:  ADDWFC 03,W
08B6E:  MOVWF  FEA
08B70:  MOVFF  FEF,414
08B74:  MOVLW  30
08B76:  MOVWF  FF6
08B78:  MOVLW  09
08B7A:  MOVWF  FF7
08B7C:  MOVLW  00
08B7E:  MOVWF  FF8
08B80:  MOVLW  07
08B82:  MOVLB  4
08B84:  MOVWF  x19
08B86:  MOVLB  0
08B88:  CALL   4D2C
08B8C:  MOVFF  414,419
08B90:  MOVLW  1B
08B92:  MOVLB  4
08B94:  MOVWF  x1A
08B96:  MOVLB  0
08B98:  CALL   4D8A
....................             SendDataDisplay(); 
08B9C:  CALL   40AA
....................             printf("bd.pic=%u",iconoPeque[Opcion]); 
08BA0:  CLRF   03
08BA2:  MOVLB  3
08BA4:  MOVF   x42,W
08BA6:  ADDLW  91
08BA8:  MOVWF  FE9
08BAA:  MOVLW  03
08BAC:  ADDWFC 03,W
08BAE:  MOVWF  FEA
08BB0:  MOVFF  FEF,414
08BB4:  MOVLW  3A
08BB6:  MOVWF  FF6
08BB8:  MOVLW  09
08BBA:  MOVWF  FF7
08BBC:  MOVLW  00
08BBE:  MOVWF  FF8
08BC0:  MOVLW  07
08BC2:  MOVLB  4
08BC4:  MOVWF  x19
08BC6:  MOVLB  0
08BC8:  CALL   4D2C
08BCC:  MOVFF  414,419
08BD0:  MOVLW  1B
08BD2:  MOVLB  4
08BD4:  MOVWF  x1A
08BD6:  MOVLB  0
08BD8:  CALL   4D8A
....................             SendDataDisplay(); 
08BDC:  CALL   40AA
....................             printf("bi.pic=%u",iconoPeque[sizeof(iconoGrande)-1]); 
08BE0:  MOVLW  44
08BE2:  MOVWF  FF6
08BE4:  MOVLW  09
08BE6:  MOVWF  FF7
08BE8:  MOVLW  00
08BEA:  MOVWF  FF8
08BEC:  MOVLW  07
08BEE:  MOVLB  4
08BF0:  MOVWF  x19
08BF2:  MOVLB  0
08BF4:  CALL   4D2C
08BF8:  MOVFF  399,419
08BFC:  MOVLW  1B
08BFE:  MOVLB  4
08C00:  MOVWF  x1A
08C02:  MOVLB  0
08C04:  CALL   4D8A
....................             SendDataDisplay(); 
08C08:  CALL   40AA
....................             printf("bc.pic2=%u",iconoGrande[Opcion-1]); 
08C0C:  MOVLW  01
08C0E:  MOVLB  3
08C10:  SUBWF  x42,W
08C12:  CLRF   03
08C14:  ADDLW  88
08C16:  MOVWF  FE9
08C18:  MOVLW  03
08C1A:  ADDWFC 03,W
08C1C:  MOVWF  FEA
08C1E:  MOVFF  FEF,414
08C22:  MOVLW  4E
08C24:  MOVWF  FF6
08C26:  MOVLW  09
08C28:  MOVWF  FF7
08C2A:  MOVLW  00
08C2C:  MOVWF  FF8
08C2E:  MOVLW  08
08C30:  MOVLB  4
08C32:  MOVWF  x19
08C34:  MOVLB  0
08C36:  CALL   4D2C
08C3A:  MOVFF  414,419
08C3E:  MOVLW  1B
08C40:  MOVLB  4
08C42:  MOVWF  x1A
08C44:  MOVLB  0
08C46:  CALL   4D8A
....................             SendDataDisplay(); 
08C4A:  CALL   40AA
....................             printf("bd.pic2=%u",iconoPeque[Opcion]); 
08C4E:  CLRF   03
08C50:  MOVLB  3
08C52:  MOVF   x42,W
08C54:  ADDLW  91
08C56:  MOVWF  FE9
08C58:  MOVLW  03
08C5A:  ADDWFC 03,W
08C5C:  MOVWF  FEA
08C5E:  MOVFF  FEF,414
08C62:  MOVLW  5A
08C64:  MOVWF  FF6
08C66:  MOVLW  09
08C68:  MOVWF  FF7
08C6A:  MOVLW  00
08C6C:  MOVWF  FF8
08C6E:  MOVLW  08
08C70:  MOVLB  4
08C72:  MOVWF  x19
08C74:  MOVLB  0
08C76:  CALL   4D2C
08C7A:  MOVFF  414,419
08C7E:  MOVLW  1B
08C80:  MOVLB  4
08C82:  MOVWF  x1A
08C84:  MOVLB  0
08C86:  CALL   4D8A
....................             SendDataDisplay(); 
08C8A:  CALL   40AA
....................             printf("bi.pic2=%u",iconoPeque[sizeof(iconoGrande)-1]); 
08C8E:  MOVLW  66
08C90:  MOVWF  FF6
08C92:  MOVLW  09
08C94:  MOVWF  FF7
08C96:  MOVLW  00
08C98:  MOVWF  FF8
08C9A:  MOVLW  08
08C9C:  MOVLB  4
08C9E:  MOVWF  x19
08CA0:  MOVLB  0
08CA2:  CALL   4D2C
08CA6:  MOVFF  399,419
08CAA:  MOVLW  1B
08CAC:  MOVLB  4
08CAE:  MOVWF  x1A
08CB0:  MOVLB  0
08CB2:  CALL   4D8A
....................             SendDataDisplay(); 
08CB6:  CALL   40AA
....................             printf("textop.txt=\"%s\"",texto[Opcion-1]); 
08CBA:  MOVLW  01
08CBC:  MOVLB  3
08CBE:  SUBWF  x42,W
08CC0:  MULLW  14
08CC2:  MOVF   FF3,W
08CC4:  CLRF   03
08CC6:  MOVLB  4
08CC8:  MOVWF  x14
08CCA:  MOVLW  72
08CCC:  MOVWF  FF6
08CCE:  MOVLW  09
08CD0:  MOVWF  FF7
08CD2:  MOVLW  00
08CD4:  MOVWF  FF8
08CD6:  MOVLW  0C
08CD8:  MOVWF  x19
08CDA:  MOVLB  0
08CDC:  CALL   4D2C
08CE0:  MOVLW  50
08CE2:  MOVWF  FF6
08CE4:  MOVLW  01
08CE6:  MOVWF  FF7
08CE8:  MOVLW  00
08CEA:  MOVWF  FF8
08CEC:  MOVLB  4
08CEE:  MOVF   x14,W
08CF0:  ADDWF  FF6,F
08CF2:  MOVLW  00
08CF4:  ADDWFC FF7,F
08CF6:  MOVLB  0
08CF8:  CALL   4078
08CFC:  MOVLW  22
08CFE:  BTFSS  F9E.4
08D00:  BRA    8CFE
08D02:  MOVWF  FAD
....................             SendDataDisplay(); 
08D04:  CALL   40AA
....................          }else if(Opcion==sizeof(iconoGrande)){ 
08D08:  BRA    9098
08D0A:  MOVLB  3
08D0C:  MOVF   x42,W
08D0E:  SUBLW  09
08D10:  BTFSS  FD8.2
08D12:  BRA    8EC4
....................             printf("bc.pic=%u",iconoGrande[Opcion-1]); 
08D14:  MOVLW  01
08D16:  SUBWF  x42,W
08D18:  CLRF   03
08D1A:  ADDLW  88
08D1C:  MOVWF  FE9
08D1E:  MOVLW  03
08D20:  ADDWFC 03,W
08D22:  MOVWF  FEA
08D24:  MOVFF  FEF,414
08D28:  MOVLW  82
08D2A:  MOVWF  FF6
08D2C:  MOVLW  09
08D2E:  MOVWF  FF7
08D30:  MOVLW  00
08D32:  MOVWF  FF8
08D34:  MOVLW  07
08D36:  MOVLB  4
08D38:  MOVWF  x19
08D3A:  MOVLB  0
08D3C:  CALL   4D2C
08D40:  MOVFF  414,419
08D44:  MOVLW  1B
08D46:  MOVLB  4
08D48:  MOVWF  x1A
08D4A:  MOVLB  0
08D4C:  CALL   4D8A
....................             SendDataDisplay(); 
08D50:  CALL   40AA
....................             printf("bd.pic=%u",iconoPeque[0]); 
08D54:  MOVLW  8C
08D56:  MOVWF  FF6
08D58:  MOVLW  09
08D5A:  MOVWF  FF7
08D5C:  MOVLW  00
08D5E:  MOVWF  FF8
08D60:  MOVLW  07
08D62:  MOVLB  4
08D64:  MOVWF  x19
08D66:  MOVLB  0
08D68:  CALL   4D2C
08D6C:  MOVFF  391,419
08D70:  MOVLW  1B
08D72:  MOVLB  4
08D74:  MOVWF  x1A
08D76:  MOVLB  0
08D78:  CALL   4D8A
....................             SendDataDisplay(); 
08D7C:  CALL   40AA
....................             printf("bi.pic=%u",iconoPeque[Opcion-2]); 
08D80:  MOVLW  02
08D82:  MOVLB  3
08D84:  SUBWF  x42,W
08D86:  CLRF   03
08D88:  ADDLW  91
08D8A:  MOVWF  FE9
08D8C:  MOVLW  03
08D8E:  ADDWFC 03,W
08D90:  MOVWF  FEA
08D92:  MOVFF  FEF,414
08D96:  MOVLW  96
08D98:  MOVWF  FF6
08D9A:  MOVLW  09
08D9C:  MOVWF  FF7
08D9E:  MOVLW  00
08DA0:  MOVWF  FF8
08DA2:  MOVLW  07
08DA4:  MOVLB  4
08DA6:  MOVWF  x19
08DA8:  MOVLB  0
08DAA:  CALL   4D2C
08DAE:  MOVFF  414,419
08DB2:  MOVLW  1B
08DB4:  MOVLB  4
08DB6:  MOVWF  x1A
08DB8:  MOVLB  0
08DBA:  CALL   4D8A
....................             SendDataDisplay(); 
08DBE:  CALL   40AA
....................             printf("bc.pic2=%u",iconoGrande[Opcion-1]); 
08DC2:  MOVLW  01
08DC4:  MOVLB  3
08DC6:  SUBWF  x42,W
08DC8:  CLRF   03
08DCA:  ADDLW  88
08DCC:  MOVWF  FE9
08DCE:  MOVLW  03
08DD0:  ADDWFC 03,W
08DD2:  MOVWF  FEA
08DD4:  MOVFF  FEF,414
08DD8:  MOVLW  A0
08DDA:  MOVWF  FF6
08DDC:  MOVLW  09
08DDE:  MOVWF  FF7
08DE0:  MOVLW  00
08DE2:  MOVWF  FF8
08DE4:  MOVLW  08
08DE6:  MOVLB  4
08DE8:  MOVWF  x19
08DEA:  MOVLB  0
08DEC:  CALL   4D2C
08DF0:  MOVFF  414,419
08DF4:  MOVLW  1B
08DF6:  MOVLB  4
08DF8:  MOVWF  x1A
08DFA:  MOVLB  0
08DFC:  CALL   4D8A
....................             SendDataDisplay(); 
08E00:  CALL   40AA
....................             printf("bd.pic2=%u",iconoPeque[0]); 
08E04:  MOVLW  AC
08E06:  MOVWF  FF6
08E08:  MOVLW  09
08E0A:  MOVWF  FF7
08E0C:  MOVLW  00
08E0E:  MOVWF  FF8
08E10:  MOVLW  08
08E12:  MOVLB  4
08E14:  MOVWF  x19
08E16:  MOVLB  0
08E18:  CALL   4D2C
08E1C:  MOVFF  391,419
08E20:  MOVLW  1B
08E22:  MOVLB  4
08E24:  MOVWF  x1A
08E26:  MOVLB  0
08E28:  CALL   4D8A
....................             SendDataDisplay(); 
08E2C:  CALL   40AA
....................             printf("bi.pic2=%u",iconoPeque[Opcion-2]); 
08E30:  MOVLW  02
08E32:  MOVLB  3
08E34:  SUBWF  x42,W
08E36:  CLRF   03
08E38:  ADDLW  91
08E3A:  MOVWF  FE9
08E3C:  MOVLW  03
08E3E:  ADDWFC 03,W
08E40:  MOVWF  FEA
08E42:  MOVFF  FEF,414
08E46:  MOVLW  B8
08E48:  MOVWF  FF6
08E4A:  MOVLW  09
08E4C:  MOVWF  FF7
08E4E:  MOVLW  00
08E50:  MOVWF  FF8
08E52:  MOVLW  08
08E54:  MOVLB  4
08E56:  MOVWF  x19
08E58:  MOVLB  0
08E5A:  CALL   4D2C
08E5E:  MOVFF  414,419
08E62:  MOVLW  1B
08E64:  MOVLB  4
08E66:  MOVWF  x1A
08E68:  MOVLB  0
08E6A:  CALL   4D8A
....................             SendDataDisplay(); 
08E6E:  CALL   40AA
....................             printf("textop.txt=\"%s\"",texto[Opcion-1]); 
08E72:  MOVLW  01
08E74:  MOVLB  3
08E76:  SUBWF  x42,W
08E78:  MULLW  14
08E7A:  MOVF   FF3,W
08E7C:  CLRF   03
08E7E:  MOVLB  4
08E80:  MOVWF  x14
08E82:  MOVLW  C4
08E84:  MOVWF  FF6
08E86:  MOVLW  09
08E88:  MOVWF  FF7
08E8A:  MOVLW  00
08E8C:  MOVWF  FF8
08E8E:  MOVLW  0C
08E90:  MOVWF  x19
08E92:  MOVLB  0
08E94:  CALL   4D2C
08E98:  MOVLW  50
08E9A:  MOVWF  FF6
08E9C:  MOVLW  01
08E9E:  MOVWF  FF7
08EA0:  MOVLW  00
08EA2:  MOVWF  FF8
08EA4:  MOVLB  4
08EA6:  MOVF   x14,W
08EA8:  ADDWF  FF6,F
08EAA:  MOVLW  00
08EAC:  ADDWFC FF7,F
08EAE:  MOVLB  0
08EB0:  CALL   4078
08EB4:  MOVLW  22
08EB6:  BTFSS  F9E.4
08EB8:  BRA    8EB6
08EBA:  MOVWF  FAD
....................             SendDataDisplay(); 
08EBC:  CALL   40AA
....................          }else{ 
08EC0:  BRA    9098
08EC2:  MOVLB  3
....................             printf("bc.pic=%u",iconoGrande[Opcion-1]); 
08EC4:  MOVLW  01
08EC6:  SUBWF  x42,W
08EC8:  CLRF   03
08ECA:  ADDLW  88
08ECC:  MOVWF  FE9
08ECE:  MOVLW  03
08ED0:  ADDWFC 03,W
08ED2:  MOVWF  FEA
08ED4:  MOVFF  FEF,414
08ED8:  MOVLW  D4
08EDA:  MOVWF  FF6
08EDC:  MOVLW  09
08EDE:  MOVWF  FF7
08EE0:  MOVLW  00
08EE2:  MOVWF  FF8
08EE4:  MOVLW  07
08EE6:  MOVLB  4
08EE8:  MOVWF  x19
08EEA:  MOVLB  0
08EEC:  CALL   4D2C
08EF0:  MOVFF  414,419
08EF4:  MOVLW  1B
08EF6:  MOVLB  4
08EF8:  MOVWF  x1A
08EFA:  MOVLB  0
08EFC:  CALL   4D8A
....................             SendDataDisplay(); 
08F00:  CALL   40AA
....................             printf("bd.pic=%u",iconoPeque[Opcion]); 
08F04:  CLRF   03
08F06:  MOVLB  3
08F08:  MOVF   x42,W
08F0A:  ADDLW  91
08F0C:  MOVWF  FE9
08F0E:  MOVLW  03
08F10:  ADDWFC 03,W
08F12:  MOVWF  FEA
08F14:  MOVFF  FEF,414
08F18:  MOVLW  DE
08F1A:  MOVWF  FF6
08F1C:  MOVLW  09
08F1E:  MOVWF  FF7
08F20:  MOVLW  00
08F22:  MOVWF  FF8
08F24:  MOVLW  07
08F26:  MOVLB  4
08F28:  MOVWF  x19
08F2A:  MOVLB  0
08F2C:  CALL   4D2C
08F30:  MOVFF  414,419
08F34:  MOVLW  1B
08F36:  MOVLB  4
08F38:  MOVWF  x1A
08F3A:  MOVLB  0
08F3C:  CALL   4D8A
....................             SendDataDisplay(); 
08F40:  CALL   40AA
....................             printf("bi.pic=%u",iconoPeque[Opcion-2]); 
08F44:  MOVLW  02
08F46:  MOVLB  3
08F48:  SUBWF  x42,W
08F4A:  CLRF   03
08F4C:  ADDLW  91
08F4E:  MOVWF  FE9
08F50:  MOVLW  03
08F52:  ADDWFC 03,W
08F54:  MOVWF  FEA
08F56:  MOVFF  FEF,414
08F5A:  MOVLW  E8
08F5C:  MOVWF  FF6
08F5E:  MOVLW  09
08F60:  MOVWF  FF7
08F62:  MOVLW  00
08F64:  MOVWF  FF8
08F66:  MOVLW  07
08F68:  MOVLB  4
08F6A:  MOVWF  x19
08F6C:  MOVLB  0
08F6E:  CALL   4D2C
08F72:  MOVFF  414,419
08F76:  MOVLW  1B
08F78:  MOVLB  4
08F7A:  MOVWF  x1A
08F7C:  MOVLB  0
08F7E:  CALL   4D8A
....................             SendDataDisplay(); 
08F82:  CALL   40AA
....................             printf("bc.pic2=%u",iconoGrande[Opcion-1]); 
08F86:  MOVLW  01
08F88:  MOVLB  3
08F8A:  SUBWF  x42,W
08F8C:  CLRF   03
08F8E:  ADDLW  88
08F90:  MOVWF  FE9
08F92:  MOVLW  03
08F94:  ADDWFC 03,W
08F96:  MOVWF  FEA
08F98:  MOVFF  FEF,414
08F9C:  MOVLW  F2
08F9E:  MOVWF  FF6
08FA0:  MOVLW  09
08FA2:  MOVWF  FF7
08FA4:  MOVLW  00
08FA6:  MOVWF  FF8
08FA8:  MOVLW  08
08FAA:  MOVLB  4
08FAC:  MOVWF  x19
08FAE:  MOVLB  0
08FB0:  CALL   4D2C
08FB4:  MOVFF  414,419
08FB8:  MOVLW  1B
08FBA:  MOVLB  4
08FBC:  MOVWF  x1A
08FBE:  MOVLB  0
08FC0:  CALL   4D8A
....................             SendDataDisplay(); 
08FC4:  CALL   40AA
....................             printf("bd.pic2=%u",iconoPeque[Opcion]); 
08FC8:  CLRF   03
08FCA:  MOVLB  3
08FCC:  MOVF   x42,W
08FCE:  ADDLW  91
08FD0:  MOVWF  FE9
08FD2:  MOVLW  03
08FD4:  ADDWFC 03,W
08FD6:  MOVWF  FEA
08FD8:  MOVFF  FEF,414
08FDC:  MOVLW  FE
08FDE:  MOVWF  FF6
08FE0:  MOVLW  09
08FE2:  MOVWF  FF7
08FE4:  MOVLW  00
08FE6:  MOVWF  FF8
08FE8:  MOVLW  08
08FEA:  MOVLB  4
08FEC:  MOVWF  x19
08FEE:  MOVLB  0
08FF0:  CALL   4D2C
08FF4:  MOVFF  414,419
08FF8:  MOVLW  1B
08FFA:  MOVLB  4
08FFC:  MOVWF  x1A
08FFE:  MOVLB  0
09000:  CALL   4D8A
....................             SendDataDisplay(); 
09004:  CALL   40AA
....................             printf("bi.pic2=%u",iconoPeque[Opcion-2]); 
09008:  MOVLW  02
0900A:  MOVLB  3
0900C:  SUBWF  x42,W
0900E:  CLRF   03
09010:  ADDLW  91
09012:  MOVWF  FE9
09014:  MOVLW  03
09016:  ADDWFC 03,W
09018:  MOVWF  FEA
0901A:  MOVFF  FEF,414
0901E:  MOVLW  0A
09020:  MOVWF  FF6
09022:  MOVLW  0A
09024:  MOVWF  FF7
09026:  MOVLW  00
09028:  MOVWF  FF8
0902A:  MOVLW  08
0902C:  MOVLB  4
0902E:  MOVWF  x19
09030:  MOVLB  0
09032:  CALL   4D2C
09036:  MOVFF  414,419
0903A:  MOVLW  1B
0903C:  MOVLB  4
0903E:  MOVWF  x1A
09040:  MOVLB  0
09042:  CALL   4D8A
....................             SendDataDisplay(); 
09046:  CALL   40AA
....................             printf("textop.txt=\"%s\"",texto[Opcion-1]); 
0904A:  MOVLW  01
0904C:  MOVLB  3
0904E:  SUBWF  x42,W
09050:  MULLW  14
09052:  MOVF   FF3,W
09054:  CLRF   03
09056:  MOVLB  4
09058:  MOVWF  x14
0905A:  MOVLW  16
0905C:  MOVWF  FF6
0905E:  MOVLW  0A
09060:  MOVWF  FF7
09062:  MOVLW  00
09064:  MOVWF  FF8
09066:  MOVLW  0C
09068:  MOVWF  x19
0906A:  MOVLB  0
0906C:  CALL   4D2C
09070:  MOVLW  50
09072:  MOVWF  FF6
09074:  MOVLW  01
09076:  MOVWF  FF7
09078:  MOVLW  00
0907A:  MOVWF  FF8
0907C:  MOVLB  4
0907E:  MOVF   x14,W
09080:  ADDWF  FF6,F
09082:  MOVLW  00
09084:  ADDWFC FF7,F
09086:  MOVLB  0
09088:  CALL   4078
0908C:  MOVLW  22
0908E:  BTFSS  F9E.4
09090:  BRA    908E
09092:  MOVWF  FAD
....................             SendDataDisplay(); 
09094:  CALL   40AA
....................          } 
....................           
....................          printf("ttitulo.txt=\"SELECCIONE SU CICLO\""); 
09098:  MOVLW  26
0909A:  MOVWF  FF6
0909C:  MOVLW  0A
0909E:  MOVWF  FF7
090A0:  MOVLW  00
090A2:  MOVWF  FF8
090A4:  CALL   4078
....................          SendDataDisplay(); 
090A8:  CALL   40AA
....................           
....................          if(RIGHT){ 
090AC:  BSF    F93.2
090AE:  BTFSC  F81.2
090B0:  BRA    90CA
....................             delay_ms(20); 
090B2:  MOVLW  14
090B4:  MOVLB  4
090B6:  MOVWF  x29
090B8:  MOVLB  0
090BA:  CALL   19C2
....................             if(RIGHT){ 
090BE:  BSF    F93.2
090C0:  BTFSC  F81.2
090C2:  BRA    90CA
....................                Opcion++; 
090C4:  MOVLB  3
090C6:  INCF   x42,F
090C8:  MOVLB  0
....................             } 
....................          } 
....................           
....................          if(LEFT){ 
090CA:  BSF    F93.3
090CC:  BTFSC  F81.3
090CE:  BRA    90E8
....................             delay_ms(20); 
090D0:  MOVLW  14
090D2:  MOVLB  4
090D4:  MOVWF  x29
090D6:  MOVLB  0
090D8:  CALL   19C2
....................             if(LEFT){ 
090DC:  BSF    F93.3
090DE:  BTFSC  F81.3
090E0:  BRA    90E8
....................                Opcion--; 
090E2:  MOVLB  3
090E4:  DECF   x42,F
090E6:  MOVLB  0
....................             } 
....................          } 
....................           
....................          if(RX_Buffer[4]==0x0d && !Op){//Tecla Derecha Oprimida 
090E8:  MOVF   34,W
090EA:  SUBLW  0D
090EC:  BNZ   90FC
090EE:  BTFSC  xA2.1
090F0:  BRA    90FC
....................             Opcion++; 
090F2:  MOVLB  3
090F4:  INCF   x42,F
....................             RX_Buffer[4]=0x00; 
090F6:  CLRF   34
....................             Op=ON; 
090F8:  MOVLB  0
090FA:  BSF    xA2.1
....................             //BorraBuffer(); 
....................          } 
....................           
....................          if(RX_Buffer[4]==0x0c && Op){//Tecla Derecha Oprimida 
090FC:  MOVF   34,W
090FE:  SUBLW  0C
09100:  BNZ   9110
09102:  BTFSS  xA2.1
09104:  BRA    9110
....................             Opcion++; 
09106:  MOVLB  3
09108:  INCF   x42,F
....................             RX_Buffer[4]=0x00; 
0910A:  CLRF   34
....................             Op=OFF; 
0910C:  MOVLB  0
0910E:  BCF    xA2.1
....................             //BorraBuffer(); 
....................          } 
....................           
....................          if(RX_Buffer[4]==0x0e && !Op2){//Tecla Izquierda Oprimida 
09110:  MOVF   34,W
09112:  SUBLW  0E
09114:  BNZ   9124
09116:  BTFSC  xA2.2
09118:  BRA    9124
....................             Opcion--; 
0911A:  MOVLB  3
0911C:  DECF   x42,F
....................             RX_Buffer[4]=0x00; 
0911E:  CLRF   34
....................             Op2=ON; 
09120:  MOVLB  0
09122:  BSF    xA2.2
....................             //BorraBuffer(); 
....................          } 
....................           
....................          if(RX_Buffer[4]==0x0f && Op2){//Tecla Izquierda Oprimida 
09124:  MOVF   34,W
09126:  SUBLW  0F
09128:  BNZ   9138
0912A:  BTFSS  xA2.2
0912C:  BRA    9138
....................             Opcion--; 
0912E:  MOVLB  3
09130:  DECF   x42,F
....................             RX_Buffer[4]=0x00; 
09132:  CLRF   34
....................             Op2=OFF; 
09134:  MOVLB  0
09136:  BCF    xA2.2
09138:  MOVLB  2
....................             //BorraBuffer(); 
....................          } 
....................           
....................       } 
....................          if(RIGHT && LEFT){ 
0913A:  BSF    F93.2
0913C:  BTFSC  F81.2
0913E:  BRA    918C
09140:  BSF    F93.3
09142:  BTFSC  F81.3
09144:  BRA    918C
....................             delay_ms(20); 
09146:  MOVLW  14
09148:  MOVLB  4
0914A:  MOVWF  x29
0914C:  MOVLB  0
0914E:  CALL   19C2
....................             if(RIGHT && LEFT){ 
09152:  BSF    F93.2
09154:  BTFSC  F81.2
09156:  BRA    918A
09158:  BSF    F93.3
0915A:  BTFSC  F81.3
0915C:  BRA    918A
....................                printf("page Clave"); 
0915E:  MOVLW  48
09160:  MOVWF  FF6
09162:  MOVLW  0A
09164:  MOVWF  FF7
09166:  MOVLW  00
09168:  MOVWF  FF8
0916A:  CALL   4078
....................                SendDataDisplay();  
0916E:  CALL   40AA
....................                Op=OFF; 
09172:  BCF    xA2.1
....................                Op2=OFF; 
09174:  BCF    xA2.2
....................                MenuAnt=Menu; 
09176:  MOVFF  33A,33B
....................                TipoClave=1; 
0917A:  MOVLW  01
0917C:  MOVLB  2
0917E:  MOVWF  xCF
....................                RX_Buffer[3]=0x00; 
09180:  CLRF   33
....................                RX_Buffer2[3]=0x00; 
09182:  CLRF   3E
....................                Opcion=0; 
09184:  MOVLB  3
09186:  CLRF   x42
09188:  MOVLB  0
0918A:  MOVLB  2
....................             } 
....................          } 
....................    } 
.................... //_--------------------------------------------------------------------------------------------------------------------------------------------------------        
....................  
.................... //_-------------------------------------------------------------------------------------------------------------------------------------------------------- 
....................     if(Menu==2){ //Menu de Tiempo Esterilizacion      
0918C:  MOVLB  3
0918E:  MOVF   x3A,W
09190:  SUBLW  02
09192:  BTFSS  FD8.2
09194:  BRA    96BE
....................       printf("fecha.txt=\"T:%3.1fC Fecha:%02u/%02u/20%02u Hora: %02u:%02u:%02u\"",Temperatura,Dia,Mes,Year,Hora,Minuto,Segundo); 
09196:  MOVLW  54
09198:  MOVWF  FF6
0919A:  MOVLW  0A
0919C:  MOVWF  FF7
0919E:  MOVLW  00
091A0:  MOVWF  FF8
091A2:  MOVLW  0D
091A4:  MOVLB  4
091A6:  MOVWF  x19
091A8:  MOVLB  0
091AA:  CALL   4D2C
091AE:  MOVLW  02
091B0:  MOVWF  FE9
091B2:  MOVFF  31B,41C
091B6:  MOVFF  31A,41B
091BA:  MOVFF  319,41A
091BE:  MOVFF  318,419
091C2:  MOVLW  01
091C4:  MOVLB  4
091C6:  MOVWF  x1D
091C8:  MOVLB  0
091CA:  CALL   4ECC
091CE:  MOVLW  66
091D0:  MOVWF  FF6
091D2:  MOVLW  0A
091D4:  MOVWF  FF7
091D6:  MOVLW  00
091D8:  MOVWF  FF8
091DA:  MOVLW  09
091DC:  MOVLB  4
091DE:  MOVWF  x19
091E0:  MOVLB  0
091E2:  CALL   4D2C
091E6:  MOVFF  376,419
091EA:  MOVLW  01
091EC:  MOVLB  4
091EE:  MOVWF  x1A
091F0:  MOVLB  0
091F2:  CALL   4D8A
091F6:  MOVLW  2F
091F8:  BTFSS  F9E.4
091FA:  BRA    91F8
091FC:  MOVWF  FAD
091FE:  MOVFF  375,419
09202:  MOVLW  01
09204:  MOVLB  4
09206:  MOVWF  x1A
09208:  MOVLB  0
0920A:  CALL   4D8A
0920E:  MOVLW  2F
09210:  BTFSS  F9E.4
09212:  BRA    9210
09214:  MOVWF  FAD
09216:  MOVLW  32
09218:  BTFSS  F9E.4
0921A:  BRA    9218
0921C:  MOVWF  FAD
0921E:  MOVLW  30
09220:  BTFSS  F9E.4
09222:  BRA    9220
09224:  MOVWF  FAD
09226:  MOVFF  374,419
0922A:  MOVLW  01
0922C:  MOVLB  4
0922E:  MOVWF  x1A
09230:  MOVLB  0
09232:  CALL   4D8A
09236:  MOVLW  7F
09238:  MOVWF  FF6
0923A:  MOVLW  0A
0923C:  MOVWF  FF7
0923E:  MOVLW  00
09240:  MOVWF  FF8
09242:  MOVLW  07
09244:  MOVLB  4
09246:  MOVWF  x19
09248:  MOVLB  0
0924A:  CALL   4D2C
0924E:  MOVFF  377,419
09252:  MOVLW  01
09254:  MOVLB  4
09256:  MOVWF  x1A
09258:  MOVLB  0
0925A:  CALL   4D8A
0925E:  MOVLW  3A
09260:  BTFSS  F9E.4
09262:  BRA    9260
09264:  MOVWF  FAD
09266:  MOVFF  378,419
0926A:  MOVLW  01
0926C:  MOVLB  4
0926E:  MOVWF  x1A
09270:  MOVLB  0
09272:  CALL   4D8A
09276:  MOVLW  3A
09278:  BTFSS  F9E.4
0927A:  BRA    9278
0927C:  MOVWF  FAD
0927E:  MOVFF  379,419
09282:  MOVLW  01
09284:  MOVLB  4
09286:  MOVWF  x1A
09288:  MOVLB  0
0928A:  CALL   4D8A
0928E:  MOVLW  22
09290:  BTFSS  F9E.4
09292:  BRA    9290
09294:  MOVWF  FAD
....................       SendDataDisplay(); 
09296:  CALL   40AA
....................          if(RX_Buffer[4]==0x0a){//Selecciono Minutos 
0929A:  MOVF   34,W
0929C:  SUBLW  0A
0929E:  BNZ   92A4
....................             Minutos=ON; 
092A0:  BSF    xA2.3
....................             Segundos=OFF; 
092A2:  BCF    xA2.4
....................          } 
....................           
....................          if(RX_Buffer[4]==0x0b){//Selecciono Segundos 
092A4:  MOVF   34,W
092A6:  SUBLW  0B
092A8:  BNZ   92AE
....................             Segundos=ON; 
092AA:  BSF    xA2.4
....................             Minutos=OFF; 
092AC:  BCF    xA2.3
....................          }            
....................           
....................          if(RX_Buffer[4]==0x11 || LEFT){//Selecciono Regresar 
092AE:  MOVF   34,W
092B0:  SUBLW  11
092B2:  BZ    92BA
092B4:  BSF    F93.3
092B6:  BTFSC  F81.3
092B8:  BRA    9444
....................             delay_ms(100); 
092BA:  MOVLW  64
092BC:  MOVLB  4
092BE:  MOVWF  x29
092C0:  MOVLB  0
092C2:  CALL   19C2
....................             if(RX_Buffer[4]==0x11 || LEFT){ 
092C6:  MOVF   34,W
092C8:  SUBLW  11
092CA:  BZ    92D2
092CC:  BSF    F93.3
092CE:  BTFSC  F81.3
092D0:  BRA    9444
....................                Segundos=OFF; 
092D2:  BCF    xA2.4
....................                Minutos=OFF; 
092D4:  BCF    xA2.3
....................                printf("page CicloPersona"); 
092D6:  MOVLW  96
092D8:  MOVWF  FF6
092DA:  MOVLW  0A
092DC:  MOVWF  FF7
092DE:  MOVLW  00
092E0:  MOVWF  FF8
092E2:  CALL   4078
....................                SendDataDisplay();   
092E6:  CALL   40AA
....................                PantallaPrincipal=1; 
092EA:  MOVLW  01
092EC:  MOVLB  2
092EE:  MOVWF  xCE
....................                Op=OFF; 
092F0:  MOVLB  0
092F2:  BCF    xA2.1
....................                Op2=OFF; 
092F4:  BCF    xA2.2
....................                if(!GuardaEEPROM){ 
092F6:  BTFSC  xA2.5
092F8:  BRA    9444
....................                   CiclosPersonalizados[CicloLibre-1].Minutoest=Testerilizacionp[2]+(Testerilizacionp[3]*10); 
092FA:  MOVLW  01
092FC:  MOVLB  3
092FE:  SUBWF  x2E,W
09300:  MULLW  0A
09302:  MOVF   FF3,W
09304:  MOVLB  4
09306:  CLRF   x15
09308:  MOVWF  x14
0930A:  MOVLW  09
0930C:  ADDWF  x14,W
0930E:  MOVWF  01
09310:  MOVLW  00
09312:  ADDWFC x15,W
09314:  MOVWF  03
09316:  MOVF   01,W
09318:  ADDLW  EC
0931A:  MOVWF  FE9
0931C:  MOVLW  03
0931E:  ADDWFC 03,W
09320:  MOVWF  FEA
09322:  MOVFF  B6,416
09326:  MOVLW  0A
09328:  MOVWF  x17
0932A:  MOVLB  0
0932C:  CALL   35CA
09330:  MOVF   01,W
09332:  ADDWF  xB5,W
09334:  MOVWF  FEF
....................                   CiclosPersonalizados[CicloLibre-1].Segundoest=Testerilizacionp[0]+(Testerilizacionp[1]*10); 
09336:  MOVLW  01
09338:  MOVLB  3
0933A:  SUBWF  x2E,W
0933C:  MULLW  0A
0933E:  MOVF   FF3,W
09340:  MOVLB  4
09342:  CLRF   x15
09344:  MOVWF  x14
09346:  MOVLW  03
09348:  ADDWF  x14,W
0934A:  MOVWF  01
0934C:  MOVLW  00
0934E:  ADDWFC x15,W
09350:  MOVWF  03
09352:  MOVF   01,W
09354:  ADDLW  EC
09356:  MOVWF  FE9
09358:  MOVLW  03
0935A:  ADDWFC 03,W
0935C:  MOVWF  FEA
0935E:  MOVFF  B4,416
09362:  MOVLW  0A
09364:  MOVWF  x17
09366:  MOVLB  0
09368:  CALL   35CA
0936C:  MOVF   01,W
0936E:  ADDWF  xB3,W
09370:  MOVWF  FEF
....................                   write_eeprom(102+((CicloLibre-1)*8),Testerilizacionp[2]+(Testerilizacionp[3]*10)); 
09372:  MOVLW  01
09374:  MOVLB  3
09376:  SUBWF  x2E,W
09378:  MULLW  08
0937A:  MOVF   FF3,W
0937C:  ADDLW  66
0937E:  MOVLB  4
09380:  MOVWF  x14
09382:  MOVFF  B6,416
09386:  MOVLW  0A
09388:  MOVWF  x17
0938A:  MOVLB  0
0938C:  CALL   35CA
09390:  MOVF   01,W
09392:  ADDWF  xB5,W
09394:  MOVLB  4
09396:  MOVWF  x15
09398:  CLRF   FAA
0939A:  MOVFF  414,FA9
0939E:  MOVFF  415,FA8
093A2:  BCF    FA6.6
093A4:  BCF    FA6.7
093A6:  BSF    FA6.2
093A8:  MOVF   FF2,W
093AA:  MOVWF  00
093AC:  BCF    FF2.6
093AE:  BCF    FF2.7
093B0:  MOVLB  F
093B2:  MOVLW  55
093B4:  MOVWF  FA7
093B6:  MOVLW  AA
093B8:  MOVWF  FA7
093BA:  BSF    FA6.1
093BC:  BTFSC  FA6.1
093BE:  BRA    93BC
093C0:  BCF    FA6.2
093C2:  MOVF   00,W
093C4:  IORWF  FF2,F
....................                   delay_ms(10); 
093C6:  MOVLW  0A
093C8:  MOVLB  4
093CA:  MOVWF  x29
093CC:  MOVLB  0
093CE:  CALL   19C2
....................                   write_eeprom(103+((CicloLibre-1)*8),Testerilizacionp[0]+(Testerilizacionp[1]*10)); 
093D2:  MOVLW  01
093D4:  MOVLB  3
093D6:  SUBWF  x2E,W
093D8:  MULLW  08
093DA:  MOVF   FF3,W
093DC:  ADDLW  67
093DE:  MOVLB  4
093E0:  MOVWF  x14
093E2:  MOVFF  B4,416
093E6:  MOVLW  0A
093E8:  MOVWF  x17
093EA:  MOVLB  0
093EC:  CALL   35CA
093F0:  MOVF   01,W
093F2:  ADDWF  xB3,W
093F4:  MOVLB  4
093F6:  MOVWF  x15
093F8:  CLRF   FAA
093FA:  MOVFF  414,FA9
093FE:  MOVFF  415,FA8
09402:  BCF    FA6.6
09404:  BCF    FA6.7
09406:  BSF    FA6.2
09408:  MOVF   FF2,W
0940A:  MOVWF  00
0940C:  BCF    FF2.6
0940E:  BCF    FF2.7
09410:  MOVLB  F
09412:  MOVLW  55
09414:  MOVWF  FA7
09416:  MOVLW  AA
09418:  MOVWF  FA7
0941A:  BSF    FA6.1
0941C:  BTFSC  FA6.1
0941E:  BRA    941C
09420:  BCF    FA6.2
09422:  MOVF   00,W
09424:  IORWF  FF2,F
....................                   delay_ms(10); 
09426:  MOVLW  0A
09428:  MOVLB  4
0942A:  MOVWF  x29
0942C:  MOVLB  0
0942E:  CALL   19C2
....................                   Testerilizacion[0]=Testerilizacionp[0]; 
09432:  MOVFF  B3,AE
....................                   Testerilizacion[1]=Testerilizacionp[1]; 
09436:  MOVFF  B4,AF
....................                   Testerilizacion[2]=Testerilizacionp[2]; 
0943A:  MOVFF  B5,B0
....................                   Testerilizacion[3]=Testerilizacionp[3];                   
0943E:  MOVFF  B6,B1
....................                   GuardaEEPROM=ON; 
09442:  BSF    xA2.5
....................                } 
....................             } 
....................          } 
....................           
....................          if(RIGHT){ 
09444:  BSF    F93.2
09446:  BTFSC  F81.2
09448:  BRA    94BE
....................             delay_ms(100); 
0944A:  MOVLW  64
0944C:  MOVLB  4
0944E:  MOVWF  x29
09450:  MOVLB  0
09452:  CALL   19C2
....................             if(RIGHT){ 
09456:  BSF    F93.2
09458:  BTFSC  F81.2
0945A:  BRA    94BE
....................                if(!Segundos){ 
0945C:  BTFSC  xA2.4
0945E:  BRA    948E
....................                   Segundos=ON; 
09460:  BSF    xA2.4
....................                   Minutos=OFF; 
09462:  BCF    xA2.3
....................                   printf("tsecest.pco=65535"); 
09464:  MOVLW  A8
09466:  MOVWF  FF6
09468:  MOVLW  0A
0946A:  MOVWF  FF7
0946C:  MOVLW  00
0946E:  MOVWF  FF8
09470:  CALL   4078
....................                   SendDataDisplay();   
09474:  CALL   40AA
....................                   printf("tminest.pco=0"); 
09478:  MOVLW  BA
0947A:  MOVWF  FF6
0947C:  MOVLW  0A
0947E:  MOVWF  FF7
09480:  MOVLW  00
09482:  MOVWF  FF8
09484:  CALL   4078
....................                   SendDataDisplay();   
09488:  CALL   40AA
....................                }else if(!Minutos){ 
0948C:  BRA    94BE
0948E:  BTFSC  xA2.3
09490:  BRA    94BE
....................                   Segundos=OFF; 
09492:  BCF    xA2.4
....................                   Minutos=ON; 
09494:  BSF    xA2.3
....................                   printf("tsecest.pco=0"); 
09496:  MOVLW  C8
09498:  MOVWF  FF6
0949A:  MOVLW  0A
0949C:  MOVWF  FF7
0949E:  MOVLW  00
094A0:  MOVWF  FF8
094A2:  CALL   4078
....................                   SendDataDisplay();   
094A6:  CALL   40AA
....................                   printf("tminest.pco=65535"); 
094AA:  MOVLW  D6
094AC:  MOVWF  FF6
094AE:  MOVLW  0A
094B0:  MOVWF  FF7
094B2:  MOVLW  00
094B4:  MOVWF  FF8
094B6:  CALL   4078
....................                   SendDataDisplay();   
094BA:  CALL   40AA
....................                } 
....................             } 
....................          } 
....................           
....................          if(UP){ 
094BE:  BSF    F93.0
094C0:  BTFSC  F81.0
094C2:  BRA    950A
....................             delay_ms(100); 
094C4:  MOVLW  64
094C6:  MOVLB  4
094C8:  MOVWF  x29
094CA:  MOVLB  0
094CC:  CALL   19C2
....................             if(UP){ 
094D0:  BSF    F93.0
094D2:  BTFSC  F81.0
094D4:  BRA    950A
....................                if(Segundos){ 
094D6:  BTFSS  xA2.4
094D8:  BRA    94EA
....................                   Testerilizacionp[0]++; 
094DA:  INCF   xB3,F
....................                   if(Testerilizacionp[0]>9){ 
094DC:  BTFSC  xB3.7
094DE:  BRA    94EA
094E0:  MOVF   xB3,W
094E2:  SUBLW  09
094E4:  BC    94EA
....................                      Testerilizacionp[1]++; 
094E6:  INCF   xB4,F
....................                      Testerilizacionp[0]=0; 
094E8:  CLRF   xB3
....................                   } 
....................                } 
....................                if(Minutos){ 
094EA:  BTFSS  xA2.3
094EC:  BRA    950A
....................                   Testerilizacionp[2]++; 
094EE:  INCF   xB5,F
....................                   if(Testerilizacionp[2]>9){ 
094F0:  BTFSC  xB5.7
094F2:  BRA    94FE
094F4:  MOVF   xB5,W
094F6:  SUBLW  09
094F8:  BC    94FE
....................                      Testerilizacionp[3]++; 
094FA:  INCF   xB6,F
....................                      Testerilizacionp[2]=0; 
094FC:  CLRF   xB5
....................                   } 
....................                   if(Testerilizacionp[3]>9){                      
094FE:  BTFSC  xB6.7
09500:  BRA    950A
09502:  MOVF   xB6,W
09504:  SUBLW  09
09506:  BC    950A
....................                      Testerilizacionp[3]=0; 
09508:  CLRF   xB6
....................                   } 
....................                }     
....................             } 
....................          } 
....................           
....................          if(DOWN){ 
0950A:  BSF    F93.1
0950C:  BTFSC  F81.1
0950E:  BRA    954E
....................             delay_ms(100); 
09510:  MOVLW  64
09512:  MOVLB  4
09514:  MOVWF  x29
09516:  MOVLB  0
09518:  CALL   19C2
....................             if(DOWN){ 
0951C:  BSF    F93.1
0951E:  BTFSC  F81.1
09520:  BRA    954E
....................                if(Segundos){ 
09522:  BTFSS  xA2.4
09524:  BRA    9534
....................                   Testerilizacionp[0]--; 
09526:  DECF   xB3,F
....................                   if(Testerilizacionp[0]<0){ 
09528:  BTFSC  xB3.7
0952A:  BRA    952E
0952C:  BRA    9534
....................                      Testerilizacionp[1]--; 
0952E:  DECF   xB4,F
....................                      Testerilizacionp[0]=9; 
09530:  MOVLW  09
09532:  MOVWF  xB3
....................                   } 
....................                } 
....................                if(Minutos){ 
09534:  BTFSS  xA2.3
09536:  BRA    954E
....................                   Testerilizacionp[2]--; 
09538:  DECF   xB5,F
....................                   if(Testerilizacionp[2]<0){ 
0953A:  BTFSS  xB5.7
0953C:  BRA    9544
....................                      Testerilizacionp[3]--; 
0953E:  DECF   xB6,F
....................                      Testerilizacionp[2]=9; 
09540:  MOVLW  09
09542:  MOVWF  xB5
....................                   } 
....................                   if(Testerilizacionp[3]<0){ 
09544:  BTFSC  xB6.7
09546:  BRA    954A
09548:  BRA    954E
....................                      Testerilizacionp[3]=9; 
0954A:  MOVLW  09
0954C:  MOVWF  xB6
....................                   } 
....................                }     
....................             } 
....................          } 
....................           
....................          if(RX_Buffer[4]==0x0c || RX_Buffer[4]==0x0d){//Tecla Derecha Oprimida 
0954E:  MOVF   34,W
09550:  SUBLW  0C
09552:  BZ    955A
09554:  MOVF   34,W
09556:  SUBLW  0D
09558:  BNZ   9592
....................             if(Segundos){ 
0955A:  BTFSS  xA2.4
0955C:  BRA    956E
....................                Testerilizacionp[0]++; 
0955E:  INCF   xB3,F
....................                if(Testerilizacionp[0]>9){ 
09560:  BTFSC  xB3.7
09562:  BRA    956E
09564:  MOVF   xB3,W
09566:  SUBLW  09
09568:  BC    956E
....................                   Testerilizacionp[1]++; 
0956A:  INCF   xB4,F
....................                   Testerilizacionp[0]=0; 
0956C:  CLRF   xB3
....................                } 
....................             } 
....................             if(Minutos){ 
0956E:  BTFSS  xA2.3
09570:  BRA    958E
....................                Testerilizacionp[2]++; 
09572:  INCF   xB5,F
....................                if(Testerilizacionp[2]>9){ 
09574:  BTFSC  xB5.7
09576:  BRA    9582
09578:  MOVF   xB5,W
0957A:  SUBLW  09
0957C:  BC    9582
....................                   Testerilizacionp[3]++; 
0957E:  INCF   xB6,F
....................                   Testerilizacionp[2]=0; 
09580:  CLRF   xB5
....................                } 
....................                if(Testerilizacionp[3]>9){                   
09582:  BTFSC  xB6.7
09584:  BRA    958E
09586:  MOVF   xB6,W
09588:  SUBLW  09
0958A:  BC    958E
....................                   Testerilizacionp[3]=0; 
0958C:  CLRF   xB6
....................                } 
....................             } 
....................             RX_Buffer[4]=0x00;   
0958E:  CLRF   34
....................             RX_Buffer2[4]=0x00; 
09590:  CLRF   3F
....................          } 
....................           
....................          if(RX_Buffer[4]==0x0f || RX_Buffer[4]==0x0e){//Tecla Izquierda Oprimida 
09592:  MOVF   34,W
09594:  SUBLW  0F
09596:  BZ    959E
09598:  MOVF   34,W
0959A:  SUBLW  0E
0959C:  BNZ   95D0
....................              
....................             if(Segundos){ 
0959E:  BTFSS  xA2.4
095A0:  BRA    95B0
....................                Testerilizacionp[0]--; 
095A2:  DECF   xB3,F
....................                if(Testerilizacionp[0]<0){ 
095A4:  BTFSC  xB3.7
095A6:  BRA    95AA
095A8:  BRA    95B0
....................                   Testerilizacionp[1]--; 
095AA:  DECF   xB4,F
....................                   Testerilizacionp[0]=9; 
095AC:  MOVLW  09
095AE:  MOVWF  xB3
....................                } 
....................             } 
....................             if(Minutos){ 
095B0:  BTFSS  xA2.3
095B2:  BRA    95CC
....................                Testerilizacionp[2]--; 
095B4:  DECF   xB5,F
....................                if(Testerilizacionp[2]<0){ 
095B6:  BTFSC  xB5.7
095B8:  BRA    95BC
095BA:  BRA    95C2
....................                   Testerilizacionp[3]--; 
095BC:  DECF   xB6,F
....................                   Testerilizacionp[2]=9; 
095BE:  MOVLW  09
095C0:  MOVWF  xB5
....................                } 
....................                if(Testerilizacionp[3]<0){ 
095C2:  BTFSC  xB6.7
095C4:  BRA    95C8
095C6:  BRA    95CC
....................                   Testerilizacionp[3]=9; 
095C8:  MOVLW  09
095CA:  MOVWF  xB6
....................                } 
....................             } 
....................             RX_Buffer[4]=0x00;   
095CC:  CLRF   34
....................             RX_Buffer2[4]=0x00; 
095CE:  CLRF   3F
....................          } 
....................           
....................          if(Testerilizacionp[0]<0) 
095D0:  BTFSC  xB3.7
095D2:  BRA    95D6
095D4:  BRA    95DA
....................             Testerilizacionp[0]=9;             
095D6:  MOVLW  09
095D8:  MOVWF  xB3
....................          if(Testerilizacionp[1]<0) 
095DA:  BTFSC  xB4.7
095DC:  BRA    95E0
095DE:  BRA    95E4
....................             Testerilizacionp[1]=5;             
095E0:  MOVLW  05
095E2:  MOVWF  xB4
....................          if(Testerilizacionp[2]<0) 
095E4:  BTFSC  xB5.7
095E6:  BRA    95EA
095E8:  BRA    95EE
....................             Testerilizacionp[2]=9;             
095EA:  MOVLW  09
095EC:  MOVWF  xB5
....................          if(Testerilizacionp[3]<0) 
095EE:  BTFSC  xB6.7
095F0:  BRA    95F4
095F2:  BRA    95F8
....................             Testerilizacionp[3]=9;             
095F4:  MOVLW  09
095F6:  MOVWF  xB6
....................           
....................          if(Testerilizacionp[0]>9) 
095F8:  BTFSC  xB3.7
095FA:  BRA    9604
095FC:  MOVF   xB3,W
095FE:  SUBLW  09
09600:  BC    9604
....................             Testerilizacionp[0]=0;             
09602:  CLRF   xB3
....................          if(Testerilizacionp[1]>5) 
09604:  BTFSC  xB4.7
09606:  BRA    9610
09608:  MOVF   xB4,W
0960A:  SUBLW  05
0960C:  BC    9610
....................             Testerilizacionp[1]=0;             
0960E:  CLRF   xB4
....................          if(Testerilizacionp[2]>9) 
09610:  BTFSC  xB5.7
09612:  BRA    961C
09614:  MOVF   xB5,W
09616:  SUBLW  09
09618:  BC    961C
....................             Testerilizacionp[2]=0;             
0961A:  CLRF   xB5
....................          if(Testerilizacionp[3]>9) 
0961C:  BTFSC  xB6.7
0961E:  BRA    9628
09620:  MOVF   xB6,W
09622:  SUBLW  09
09624:  BC    9628
....................             Testerilizacionp[3]=0;  
09626:  CLRF   xB6
....................              
....................          printf("tminest.txt=\"%02u\"",((Testerilizacionp[3]*10)+Testerilizacionp[2])); 
09628:  MOVFF  B6,416
0962C:  MOVLW  0A
0962E:  MOVLB  4
09630:  MOVWF  x17
09632:  MOVLB  0
09634:  CALL   35CA
09638:  MOVF   xB5,W
0963A:  ADDWF  01,W
0963C:  MOVLB  4
0963E:  MOVWF  x14
09640:  MOVLW  E8
09642:  MOVWF  FF6
09644:  MOVLW  0A
09646:  MOVWF  FF7
09648:  MOVLW  00
0964A:  MOVWF  FF8
0964C:  MOVLW  0D
0964E:  MOVWF  x19
09650:  MOVLB  0
09652:  CALL   4D2C
09656:  MOVFF  414,419
0965A:  MOVLW  01
0965C:  MOVLB  4
0965E:  MOVWF  x1A
09660:  MOVLB  0
09662:  CALL   4D8A
09666:  MOVLW  22
09668:  BTFSS  F9E.4
0966A:  BRA    9668
0966C:  MOVWF  FAD
....................          SendDataDisplay(); 
0966E:  CALL   40AA
....................          printf("tsecest.txt=\"%02u\"",((Testerilizacionp[1]*10)+Testerilizacionp[0])); 
09672:  MOVFF  B4,416
09676:  MOVLW  0A
09678:  MOVLB  4
0967A:  MOVWF  x17
0967C:  MOVLB  0
0967E:  CALL   35CA
09682:  MOVF   xB3,W
09684:  ADDWF  01,W
09686:  MOVLB  4
09688:  MOVWF  x14
0968A:  MOVLW  FC
0968C:  MOVWF  FF6
0968E:  MOVLW  0A
09690:  MOVWF  FF7
09692:  MOVLW  00
09694:  MOVWF  FF8
09696:  MOVLW  0D
09698:  MOVWF  x19
0969A:  MOVLB  0
0969C:  CALL   4D2C
096A0:  MOVFF  414,419
096A4:  MOVLW  01
096A6:  MOVLB  4
096A8:  MOVWF  x1A
096AA:  MOVLB  0
096AC:  CALL   4D8A
096B0:  MOVLW  22
096B2:  BTFSS  F9E.4
096B4:  BRA    96B2
096B6:  MOVWF  FAD
....................          SendDataDisplay(); 
096B8:  CALL   40AA
096BC:  MOVLB  3
....................     } 
.................... //_--------------------------------------------------------------------------------------------------------------------------------------------------------        
....................  
.................... //_-------------------------------------------------------------------------------------------------------------------------------------------------------- 
....................     if(Menu==3){ //Menu de Tiempo de Secado 
096BE:  MOVF   x3A,W
096C0:  SUBLW  03
096C2:  BTFSS  FD8.2
096C4:  BRA    9BBE
....................       printf("fecha.txt=\"T:%3.1fC Fecha:%02u/%02u/20%02u Hora: %02u:%02u:%02u\"",Temperatura,Dia,Mes,Year,Hora,Minuto,Segundo); 
096C6:  MOVLW  10
096C8:  MOVWF  FF6
096CA:  MOVLW  0B
096CC:  MOVWF  FF7
096CE:  MOVLW  00
096D0:  MOVWF  FF8
096D2:  MOVLW  0D
096D4:  MOVLB  4
096D6:  MOVWF  x19
096D8:  MOVLB  0
096DA:  CALL   4D2C
096DE:  MOVLW  02
096E0:  MOVWF  FE9
096E2:  MOVFF  31B,41C
096E6:  MOVFF  31A,41B
096EA:  MOVFF  319,41A
096EE:  MOVFF  318,419
096F2:  MOVLW  01
096F4:  MOVLB  4
096F6:  MOVWF  x1D
096F8:  MOVLB  0
096FA:  CALL   4ECC
096FE:  MOVLW  22
09700:  MOVWF  FF6
09702:  MOVLW  0B
09704:  MOVWF  FF7
09706:  MOVLW  00
09708:  MOVWF  FF8
0970A:  MOVLW  09
0970C:  MOVLB  4
0970E:  MOVWF  x19
09710:  MOVLB  0
09712:  CALL   4D2C
09716:  MOVFF  376,419
0971A:  MOVLW  01
0971C:  MOVLB  4
0971E:  MOVWF  x1A
09720:  MOVLB  0
09722:  CALL   4D8A
09726:  MOVLW  2F
09728:  BTFSS  F9E.4
0972A:  BRA    9728
0972C:  MOVWF  FAD
0972E:  MOVFF  375,419
09732:  MOVLW  01
09734:  MOVLB  4
09736:  MOVWF  x1A
09738:  MOVLB  0
0973A:  CALL   4D8A
0973E:  MOVLW  2F
09740:  BTFSS  F9E.4
09742:  BRA    9740
09744:  MOVWF  FAD
09746:  MOVLW  32
09748:  BTFSS  F9E.4
0974A:  BRA    9748
0974C:  MOVWF  FAD
0974E:  MOVLW  30
09750:  BTFSS  F9E.4
09752:  BRA    9750
09754:  MOVWF  FAD
09756:  MOVFF  374,419
0975A:  MOVLW  01
0975C:  MOVLB  4
0975E:  MOVWF  x1A
09760:  MOVLB  0
09762:  CALL   4D8A
09766:  MOVLW  3B
09768:  MOVWF  FF6
0976A:  MOVLW  0B
0976C:  MOVWF  FF7
0976E:  MOVLW  00
09770:  MOVWF  FF8
09772:  MOVLW  07
09774:  MOVLB  4
09776:  MOVWF  x19
09778:  MOVLB  0
0977A:  CALL   4D2C
0977E:  MOVFF  377,419
09782:  MOVLW  01
09784:  MOVLB  4
09786:  MOVWF  x1A
09788:  MOVLB  0
0978A:  CALL   4D8A
0978E:  MOVLW  3A
09790:  BTFSS  F9E.4
09792:  BRA    9790
09794:  MOVWF  FAD
09796:  MOVFF  378,419
0979A:  MOVLW  01
0979C:  MOVLB  4
0979E:  MOVWF  x1A
097A0:  MOVLB  0
097A2:  CALL   4D8A
097A6:  MOVLW  3A
097A8:  BTFSS  F9E.4
097AA:  BRA    97A8
097AC:  MOVWF  FAD
097AE:  MOVFF  379,419
097B2:  MOVLW  01
097B4:  MOVLB  4
097B6:  MOVWF  x1A
097B8:  MOVLB  0
097BA:  CALL   4D8A
097BE:  MOVLW  22
097C0:  BTFSS  F9E.4
097C2:  BRA    97C0
097C4:  MOVWF  FAD
....................       SendDataDisplay();             
097C6:  CALL   40AA
....................              
....................          if(RX_Buffer[4]==0x0a){//Selecciono Minutos 
097CA:  MOVF   34,W
097CC:  SUBLW  0A
097CE:  BNZ   97D4
....................             Minutos=ON; 
097D0:  BSF    xA2.3
....................             Segundos=OFF; 
097D2:  BCF    xA2.4
....................          } 
....................           
....................          if(RX_Buffer[4]==0x0b){//Selecciono Segundos 
097D4:  MOVF   34,W
097D6:  SUBLW  0B
097D8:  BNZ   97DE
....................             Segundos=ON; 
097DA:  BSF    xA2.4
....................             Minutos=OFF; 
097DC:  BCF    xA2.3
....................          } 
....................           
....................          if(RX_Buffer[4]==0x11 || LEFT){//Selecciono Regresar 
097DE:  MOVF   34,W
097E0:  SUBLW  11
097E2:  BZ    97EA
097E4:  BSF    F93.3
097E6:  BTFSC  F81.3
097E8:  BRA    9954
....................             Segundos=OFF; 
097EA:  BCF    xA2.4
....................             Minutos=OFF; 
097EC:  BCF    xA2.3
....................             printf("page CicloPersona"); 
097EE:  MOVLW  52
097F0:  MOVWF  FF6
097F2:  MOVLW  0B
097F4:  MOVWF  FF7
097F6:  MOVLW  00
097F8:  MOVWF  FF8
097FA:  CALL   4078
....................             SendDataDisplay();   
097FE:  CALL   40AA
....................             //PantallaPrincipal=1; 
....................             Op=OFF; 
09802:  BCF    xA2.1
....................             Op2=OFF; 
09804:  BCF    xA2.2
....................             if(!GuardaEEPROM){ 
09806:  BTFSC  xA2.5
09808:  BRA    9954
....................                CiclosPersonalizados[CicloLibre-1].Minutosec=Tsecadop[2]+(Tsecadop[3]*10); 
0980A:  MOVLW  01
0980C:  MOVLB  3
0980E:  SUBWF  x2E,W
09810:  MULLW  0A
09812:  MOVF   FF3,W
09814:  MOVLB  4
09816:  CLRF   x15
09818:  MOVWF  x14
0981A:  MOVLW  04
0981C:  ADDWF  x14,W
0981E:  MOVWF  01
09820:  MOVLW  00
09822:  ADDWFC x15,W
09824:  MOVWF  03
09826:  MOVF   01,W
09828:  ADDLW  EC
0982A:  MOVWF  FE9
0982C:  MOVLW  03
0982E:  ADDWFC 03,W
09830:  MOVWF  FEA
09832:  MOVFF  BF,416
09836:  MOVLW  0A
09838:  MOVWF  x17
0983A:  MOVLB  0
0983C:  CALL   35CA
09840:  MOVF   01,W
09842:  ADDWF  xBE,W
09844:  MOVWF  FEF
....................                CiclosPersonalizados[CicloLibre-1].Segundosec=Tsecadop[0]+(Tsecadop[1]*10); 
09846:  MOVLW  01
09848:  MOVLB  3
0984A:  SUBWF  x2E,W
0984C:  MULLW  0A
0984E:  MOVF   FF3,W
09850:  MOVLB  4
09852:  CLRF   x15
09854:  MOVWF  x14
09856:  MOVLW  05
09858:  ADDWF  x14,W
0985A:  MOVWF  01
0985C:  MOVLW  00
0985E:  ADDWFC x15,W
09860:  MOVWF  03
09862:  MOVF   01,W
09864:  ADDLW  EC
09866:  MOVWF  FE9
09868:  MOVLW  03
0986A:  ADDWFC 03,W
0986C:  MOVWF  FEA
0986E:  MOVFF  BD,416
09872:  MOVLW  0A
09874:  MOVWF  x17
09876:  MOVLB  0
09878:  CALL   35CA
0987C:  MOVF   01,W
0987E:  ADDWF  xBC,W
09880:  MOVWF  FEF
....................                write_eeprom(104+((CicloLibre-1)*8),Tsecadop[2]+(Tsecadop[3]*10)); 
09882:  MOVLW  01
09884:  MOVLB  3
09886:  SUBWF  x2E,W
09888:  MULLW  08
0988A:  MOVF   FF3,W
0988C:  ADDLW  68
0988E:  MOVLB  4
09890:  MOVWF  x14
09892:  MOVFF  BF,416
09896:  MOVLW  0A
09898:  MOVWF  x17
0989A:  MOVLB  0
0989C:  CALL   35CA
098A0:  MOVF   01,W
098A2:  ADDWF  xBE,W
098A4:  MOVLB  4
098A6:  MOVWF  x15
098A8:  CLRF   FAA
098AA:  MOVFF  414,FA9
098AE:  MOVFF  415,FA8
098B2:  BCF    FA6.6
098B4:  BCF    FA6.7
098B6:  BSF    FA6.2
098B8:  MOVF   FF2,W
098BA:  MOVWF  00
098BC:  BCF    FF2.6
098BE:  BCF    FF2.7
098C0:  MOVLB  F
098C2:  MOVLW  55
098C4:  MOVWF  FA7
098C6:  MOVLW  AA
098C8:  MOVWF  FA7
098CA:  BSF    FA6.1
098CC:  BTFSC  FA6.1
098CE:  BRA    98CC
098D0:  BCF    FA6.2
098D2:  MOVF   00,W
098D4:  IORWF  FF2,F
....................                delay_ms(10); 
098D6:  MOVLW  0A
098D8:  MOVLB  4
098DA:  MOVWF  x29
098DC:  MOVLB  0
098DE:  CALL   19C2
....................                write_eeprom(105+((CicloLibre-1)*8),Tsecadop[0]+(Tsecadop[1]*10)); 
098E2:  MOVLW  01
098E4:  MOVLB  3
098E6:  SUBWF  x2E,W
098E8:  MULLW  08
098EA:  MOVF   FF3,W
098EC:  ADDLW  69
098EE:  MOVLB  4
098F0:  MOVWF  x14
098F2:  MOVFF  BD,416
098F6:  MOVLW  0A
098F8:  MOVWF  x17
098FA:  MOVLB  0
098FC:  CALL   35CA
09900:  MOVF   01,W
09902:  ADDWF  xBC,W
09904:  MOVLB  4
09906:  MOVWF  x15
09908:  CLRF   FAA
0990A:  MOVFF  414,FA9
0990E:  MOVFF  415,FA8
09912:  BCF    FA6.6
09914:  BCF    FA6.7
09916:  BSF    FA6.2
09918:  MOVF   FF2,W
0991A:  MOVWF  00
0991C:  BCF    FF2.6
0991E:  BCF    FF2.7
09920:  MOVLB  F
09922:  MOVLW  55
09924:  MOVWF  FA7
09926:  MOVLW  AA
09928:  MOVWF  FA7
0992A:  BSF    FA6.1
0992C:  BTFSC  FA6.1
0992E:  BRA    992C
09930:  BCF    FA6.2
09932:  MOVF   00,W
09934:  IORWF  FF2,F
....................                delay_ms(10); 
09936:  MOVLW  0A
09938:  MOVLB  4
0993A:  MOVWF  x29
0993C:  MOVLB  0
0993E:  CALL   19C2
....................                Tsecado[0]=Tsecadop[0]; 
09942:  MOVFF  BC,B8
....................                Tsecado[1]=Tsecadop[1]; 
09946:  MOVFF  BD,B9
....................                Tsecado[2]=Tsecadop[2]; 
0994A:  MOVFF  BE,BA
....................                Tsecado[3]=Tsecadop[3]; 
0994E:  MOVFF  BF,BB
....................                GuardaEEPROM=ON; 
09952:  BSF    xA2.5
....................             } 
....................          } 
....................           
....................          if(RIGHT){ 
09954:  BSF    F93.2
09956:  BTFSC  F81.2
09958:  BRA    99CE
....................             delay_ms(100); 
0995A:  MOVLW  64
0995C:  MOVLB  4
0995E:  MOVWF  x29
09960:  MOVLB  0
09962:  CALL   19C2
....................             if(RIGHT){ 
09966:  BSF    F93.2
09968:  BTFSC  F81.2
0996A:  BRA    99CE
....................                if(!Segundos){ 
0996C:  BTFSC  xA2.4
0996E:  BRA    999E
....................                   Segundos=ON; 
09970:  BSF    xA2.4
....................                   Minutos=OFF; 
09972:  BCF    xA2.3
....................                   printf("tminsec.pco=0"); 
09974:  MOVLW  64
09976:  MOVWF  FF6
09978:  MOVLW  0B
0997A:  MOVWF  FF7
0997C:  MOVLW  00
0997E:  MOVWF  FF8
09980:  CALL   4078
....................                   SendDataDisplay();                    
09984:  CALL   40AA
....................                   printf("tsecsec.pco=65535"); 
09988:  MOVLW  72
0998A:  MOVWF  FF6
0998C:  MOVLW  0B
0998E:  MOVWF  FF7
09990:  MOVLW  00
09992:  MOVWF  FF8
09994:  CALL   4078
....................                   SendDataDisplay();   
09998:  CALL   40AA
....................                }else if(!Minutos){ 
0999C:  BRA    99CE
0999E:  BTFSC  xA2.3
099A0:  BRA    99CE
....................                   Segundos=OFF; 
099A2:  BCF    xA2.4
....................                   Minutos=ON; 
099A4:  BSF    xA2.3
....................                   printf("tminsec.pco=65535"); 
099A6:  MOVLW  84
099A8:  MOVWF  FF6
099AA:  MOVLW  0B
099AC:  MOVWF  FF7
099AE:  MOVLW  00
099B0:  MOVWF  FF8
099B2:  CALL   4078
....................                   SendDataDisplay();   
099B6:  CALL   40AA
....................                   printf("tsecsec.pco=0"); 
099BA:  MOVLW  96
099BC:  MOVWF  FF6
099BE:  MOVLW  0B
099C0:  MOVWF  FF7
099C2:  MOVLW  00
099C4:  MOVWF  FF8
099C6:  CALL   4078
....................                   SendDataDisplay();   
099CA:  CALL   40AA
....................                } 
....................             } 
....................          } 
....................           
....................          if(UP){ 
099CE:  BSF    F93.0
099D0:  BTFSC  F81.0
099D2:  BRA    9A0E
....................             delay_ms(100); 
099D4:  MOVLW  64
099D6:  MOVLB  4
099D8:  MOVWF  x29
099DA:  MOVLB  0
099DC:  CALL   19C2
....................             if(UP){ 
099E0:  BSF    F93.0
099E2:  BTFSC  F81.0
099E4:  BRA    9A0E
....................                if(Segundos){ 
099E6:  BTFSS  xA2.4
099E8:  BRA    99FA
....................                   Tsecadop[0]++; 
099EA:  INCF   xBC,F
....................                   if(Tsecadop[0]>9){ 
099EC:  BTFSC  xBC.7
099EE:  BRA    99FA
099F0:  MOVF   xBC,W
099F2:  SUBLW  09
099F4:  BC    99FA
....................                      Tsecadop[1]++; 
099F6:  INCF   xBD,F
....................                      Tsecadop[0]=0; 
099F8:  CLRF   xBC
....................                   } 
....................                } 
....................                if(Minutos){ 
099FA:  BTFSS  xA2.3
099FC:  BRA    9A0E
....................                   Tsecado[2]++; 
099FE:  INCF   xBA,F
....................                   if(Tsecadop[2]>9){ 
09A00:  BTFSC  xBE.7
09A02:  BRA    9A0E
09A04:  MOVF   xBE,W
09A06:  SUBLW  09
09A08:  BC    9A0E
....................                      Tsecadop[3]++; 
09A0A:  INCF   xBF,F
....................                      Tsecadop[2]=0; 
09A0C:  CLRF   xBE
....................                   } 
....................                }   
....................             } 
....................          } 
....................           
....................          if(DOWN){ 
09A0E:  BSF    F93.1
09A10:  BTFSC  F81.1
09A12:  BRA    9A56
....................             delay_ms(100); 
09A14:  MOVLW  64
09A16:  MOVLB  4
09A18:  MOVWF  x29
09A1A:  MOVLB  0
09A1C:  CALL   19C2
....................             if(DOWN){ 
09A20:  BSF    F93.1
09A22:  BTFSC  F81.1
09A24:  BRA    9A56
....................                if(Segundos){ 
09A26:  BTFSS  xA2.4
09A28:  BRA    9A44
....................                   Tsecadop[0]--; 
09A2A:  DECF   xBC,F
....................                   if(Tsecadop[0]<0){ 
09A2C:  BTFSS  xBC.7
09A2E:  BRA    9A36
....................                      Tsecadop[1]--; 
09A30:  DECF   xBD,F
....................                      Tsecadop[0]=9; 
09A32:  MOVLW  09
09A34:  MOVWF  xBC
....................                   } 
....................                   if(Tsecadop[1]<0){ 
09A36:  BTFSC  xBD.7
09A38:  BRA    9A3C
09A3A:  BRA    9A44
....................                      Tsecadop[1]=5; 
09A3C:  MOVLW  05
09A3E:  MOVWF  xBD
....................                      Tsecadop[0]=9; 
09A40:  MOVLW  09
09A42:  MOVWF  xBC
....................                   } 
....................                } 
....................                if(Minutos){ 
09A44:  BTFSS  xA2.3
09A46:  BRA    9A56
....................                   Tsecadop[2]--; 
09A48:  DECF   xBE,F
....................                   if(Tsecadop[2]<0){ 
09A4A:  BTFSC  xBE.7
09A4C:  BRA    9A50
09A4E:  BRA    9A56
....................                      Tsecadop[3]--; 
09A50:  DECF   xBF,F
....................                      Tsecadop[2]=9; 
09A52:  MOVLW  09
09A54:  MOVWF  xBE
....................                   } 
....................                }   
....................             } 
....................          } 
....................           
....................          if(RX_Buffer[4]==0x0c || RX_Buffer[4]==0x0d){//Tecla Derecha Oprimida 
09A56:  MOVF   34,W
09A58:  SUBLW  0C
09A5A:  BZ    9A62
09A5C:  MOVF   34,W
09A5E:  SUBLW  0D
09A60:  BNZ   9A8E
....................             if(Segundos){ 
09A62:  BTFSS  xA2.4
09A64:  BRA    9A76
....................                Tsecadop[0]++; 
09A66:  INCF   xBC,F
....................                if(Tsecadop[0]>9){ 
09A68:  BTFSC  xBC.7
09A6A:  BRA    9A76
09A6C:  MOVF   xBC,W
09A6E:  SUBLW  09
09A70:  BC    9A76
....................                   Tsecadop[1]++; 
09A72:  INCF   xBD,F
....................                   Tsecadop[0]=0; 
09A74:  CLRF   xBC
....................                } 
....................             } 
....................             if(Minutos){ 
09A76:  BTFSS  xA2.3
09A78:  BRA    9A8A
....................                Tsecadop[2]++; 
09A7A:  INCF   xBE,F
....................                if(Tsecadop[2]>9){ 
09A7C:  BTFSC  xBE.7
09A7E:  BRA    9A8A
09A80:  MOVF   xBE,W
09A82:  SUBLW  09
09A84:  BC    9A8A
....................                   Tsecadop[3]++; 
09A86:  INCF   xBF,F
....................                   Tsecadop[2]=0; 
09A88:  CLRF   xBE
....................                } 
....................             } 
....................             RX_Buffer[4]=0x00;   
09A8A:  CLRF   34
....................             RX_Buffer2[4]=0x00;  
09A8C:  CLRF   3F
....................          } 
....................           
....................          if(RX_Buffer[4]==0x0f || RX_Buffer[4]==0x0e){//Tecla Izquierda Oprimida 
09A8E:  MOVF   34,W
09A90:  SUBLW  0F
09A92:  BZ    9A9A
09A94:  MOVF   34,W
09A96:  SUBLW  0E
09A98:  BNZ   9AD0
....................             if(Segundos){ 
09A9A:  BTFSS  xA2.4
09A9C:  BRA    9ABA
....................                Tsecadop[0]--; 
09A9E:  DECF   xBC,F
....................                if(Tsecadop[0]<0){ 
09AA0:  BTFSC  xBC.7
09AA2:  BRA    9AA6
09AA4:  BRA    9AAC
....................                   Tsecadop[1]--; 
09AA6:  DECF   xBD,F
....................                   Tsecadop[0]=9; 
09AA8:  MOVLW  09
09AAA:  MOVWF  xBC
....................                } 
....................                if(Tsecadop[1]<0){ 
09AAC:  BTFSC  xBD.7
09AAE:  BRA    9AB2
09AB0:  BRA    9ABA
....................                   Tsecadop[1]=5; 
09AB2:  MOVLW  05
09AB4:  MOVWF  xBD
....................                   Tsecadop[0]=9; 
09AB6:  MOVLW  09
09AB8:  MOVWF  xBC
....................                } 
....................             } 
....................             if(Minutos){ 
09ABA:  BTFSS  xA2.3
09ABC:  BRA    9ACC
....................                Tsecadop[2]--; 
09ABE:  DECF   xBE,F
....................                if(Tsecadop[2]<0){ 
09AC0:  BTFSC  xBE.7
09AC2:  BRA    9AC6
09AC4:  BRA    9ACC
....................                   Tsecadop[3]--; 
09AC6:  DECF   xBF,F
....................                   Tsecadop[2]=9; 
09AC8:  MOVLW  09
09ACA:  MOVWF  xBE
....................                } 
....................             } 
....................             RX_Buffer[4]=0x00;   
09ACC:  CLRF   34
....................             RX_Buffer2[4]=0x00;             
09ACE:  CLRF   3F
....................          } 
....................        
....................          if(Tsecadop[0]<0) 
09AD0:  BTFSC  xBC.7
09AD2:  BRA    9AD6
09AD4:  BRA    9ADA
....................             Tsecadop[0]=9;             
09AD6:  MOVLW  09
09AD8:  MOVWF  xBC
....................          if(Tsecadop[1]<0) 
09ADA:  BTFSC  xBD.7
09ADC:  BRA    9AE0
09ADE:  BRA    9AE4
....................             Tsecadop[1]=5;             
09AE0:  MOVLW  05
09AE2:  MOVWF  xBD
....................          if(Tsecadop[2]<0) 
09AE4:  BTFSC  xBE.7
09AE6:  BRA    9AEA
09AE8:  BRA    9AEE
....................             Tsecadop[2]=9;             
09AEA:  MOVLW  09
09AEC:  MOVWF  xBE
....................          if(Tsecadop[3]<0) 
09AEE:  BTFSC  xBF.7
09AF0:  BRA    9AF4
09AF2:  BRA    9AF8
....................             Tsecadop[3]=9;             
09AF4:  MOVLW  09
09AF6:  MOVWF  xBF
....................           
....................          if(Tsecadop[0]>9) 
09AF8:  BTFSC  xBC.7
09AFA:  BRA    9B04
09AFC:  MOVF   xBC,W
09AFE:  SUBLW  09
09B00:  BC    9B04
....................             Tsecadop[0]=0;             
09B02:  CLRF   xBC
....................          if(Tsecadop[1]>5) 
09B04:  BTFSC  xBD.7
09B06:  BRA    9B10
09B08:  MOVF   xBD,W
09B0A:  SUBLW  05
09B0C:  BC    9B10
....................             Tsecadop[1]=0;             
09B0E:  CLRF   xBD
....................          if(Tsecadop[2]>9) 
09B10:  BTFSC  xBE.7
09B12:  BRA    9B1C
09B14:  MOVF   xBE,W
09B16:  SUBLW  09
09B18:  BC    9B1C
....................             Tsecadop[2]=0;             
09B1A:  CLRF   xBE
....................          if(Tsecadop[3]>9) 
09B1C:  BTFSC  xBF.7
09B1E:  BRA    9B28
09B20:  MOVF   xBF,W
09B22:  SUBLW  09
09B24:  BC    9B28
....................             Tsecadop[3]=0; 
09B26:  CLRF   xBF
....................              
....................       printf("tminsec.txt=\"%02u\"",((Tsecadop[3]*10)+Tsecadop[2])); 
09B28:  MOVFF  BF,416
09B2C:  MOVLW  0A
09B2E:  MOVLB  4
09B30:  MOVWF  x17
09B32:  MOVLB  0
09B34:  CALL   35CA
09B38:  MOVF   xBE,W
09B3A:  ADDWF  01,W
09B3C:  MOVLB  4
09B3E:  MOVWF  x14
09B40:  MOVLW  A4
09B42:  MOVWF  FF6
09B44:  MOVLW  0B
09B46:  MOVWF  FF7
09B48:  MOVLW  00
09B4A:  MOVWF  FF8
09B4C:  MOVLW  0D
09B4E:  MOVWF  x19
09B50:  MOVLB  0
09B52:  CALL   4D2C
09B56:  MOVFF  414,419
09B5A:  MOVLW  01
09B5C:  MOVLB  4
09B5E:  MOVWF  x1A
09B60:  MOVLB  0
09B62:  CALL   4D8A
09B66:  MOVLW  22
09B68:  BTFSS  F9E.4
09B6A:  BRA    9B68
09B6C:  MOVWF  FAD
....................       SendDataDisplay(); 
09B6E:  CALL   40AA
....................       printf("tsecsec.txt=\"%02u\"",((Tsecadop[1]*10)+Tsecadop[0])); 
09B72:  MOVFF  BD,416
09B76:  MOVLW  0A
09B78:  MOVLB  4
09B7A:  MOVWF  x17
09B7C:  MOVLB  0
09B7E:  CALL   35CA
09B82:  MOVF   xBC,W
09B84:  ADDWF  01,W
09B86:  MOVLB  4
09B88:  MOVWF  x14
09B8A:  MOVLW  B8
09B8C:  MOVWF  FF6
09B8E:  MOVLW  0B
09B90:  MOVWF  FF7
09B92:  MOVLW  00
09B94:  MOVWF  FF8
09B96:  MOVLW  0D
09B98:  MOVWF  x19
09B9A:  MOVLB  0
09B9C:  CALL   4D2C
09BA0:  MOVFF  414,419
09BA4:  MOVLW  01
09BA6:  MOVLB  4
09BA8:  MOVWF  x1A
09BAA:  MOVLB  0
09BAC:  CALL   4D8A
09BB0:  MOVLW  22
09BB2:  BTFSS  F9E.4
09BB4:  BRA    9BB2
09BB6:  MOVWF  FAD
....................       SendDataDisplay(); 
09BB8:  CALL   40AA
09BBC:  MOVLB  3
....................     } 
.................... //_--------------------------------------------------------------------------------------------------------------------------------------------------------        
....................  
.................... //_-------------------------------------------------------------------------------------------------------------------------------------------------------- 
....................     if(Menu==4){ //Menu de Temperatura 
09BBE:  MOVF   x3A,W
09BC0:  SUBLW  04
09BC2:  BTFSS  FD8.2
09BC4:  BRA    9E16
....................       printf("fecha.txt=\"T:%3.1fC Fecha:%02u/%02u/20%02u Hora: %02u:%02u:%02u\"",Temperatura,Dia,Mes,Year,Hora,Minuto,Segundo); 
09BC6:  MOVLW  CC
09BC8:  MOVWF  FF6
09BCA:  MOVLW  0B
09BCC:  MOVWF  FF7
09BCE:  MOVLW  00
09BD0:  MOVWF  FF8
09BD2:  MOVLW  0D
09BD4:  MOVLB  4
09BD6:  MOVWF  x19
09BD8:  MOVLB  0
09BDA:  CALL   4D2C
09BDE:  MOVLW  02
09BE0:  MOVWF  FE9
09BE2:  MOVFF  31B,41C
09BE6:  MOVFF  31A,41B
09BEA:  MOVFF  319,41A
09BEE:  MOVFF  318,419
09BF2:  MOVLW  01
09BF4:  MOVLB  4
09BF6:  MOVWF  x1D
09BF8:  MOVLB  0
09BFA:  CALL   4ECC
09BFE:  MOVLW  DE
09C00:  MOVWF  FF6
09C02:  MOVLW  0B
09C04:  MOVWF  FF7
09C06:  MOVLW  00
09C08:  MOVWF  FF8
09C0A:  MOVLW  09
09C0C:  MOVLB  4
09C0E:  MOVWF  x19
09C10:  MOVLB  0
09C12:  CALL   4D2C
09C16:  MOVFF  376,419
09C1A:  MOVLW  01
09C1C:  MOVLB  4
09C1E:  MOVWF  x1A
09C20:  MOVLB  0
09C22:  CALL   4D8A
09C26:  MOVLW  2F
09C28:  BTFSS  F9E.4
09C2A:  BRA    9C28
09C2C:  MOVWF  FAD
09C2E:  MOVFF  375,419
09C32:  MOVLW  01
09C34:  MOVLB  4
09C36:  MOVWF  x1A
09C38:  MOVLB  0
09C3A:  CALL   4D8A
09C3E:  MOVLW  2F
09C40:  BTFSS  F9E.4
09C42:  BRA    9C40
09C44:  MOVWF  FAD
09C46:  MOVLW  32
09C48:  BTFSS  F9E.4
09C4A:  BRA    9C48
09C4C:  MOVWF  FAD
09C4E:  MOVLW  30
09C50:  BTFSS  F9E.4
09C52:  BRA    9C50
09C54:  MOVWF  FAD
09C56:  MOVFF  374,419
09C5A:  MOVLW  01
09C5C:  MOVLB  4
09C5E:  MOVWF  x1A
09C60:  MOVLB  0
09C62:  CALL   4D8A
09C66:  MOVLW  F7
09C68:  MOVWF  FF6
09C6A:  MOVLW  0B
09C6C:  MOVWF  FF7
09C6E:  MOVLW  00
09C70:  MOVWF  FF8
09C72:  MOVLW  07
09C74:  MOVLB  4
09C76:  MOVWF  x19
09C78:  MOVLB  0
09C7A:  CALL   4D2C
09C7E:  MOVFF  377,419
09C82:  MOVLW  01
09C84:  MOVLB  4
09C86:  MOVWF  x1A
09C88:  MOVLB  0
09C8A:  CALL   4D8A
09C8E:  MOVLW  3A
09C90:  BTFSS  F9E.4
09C92:  BRA    9C90
09C94:  MOVWF  FAD
09C96:  MOVFF  378,419
09C9A:  MOVLW  01
09C9C:  MOVLB  4
09C9E:  MOVWF  x1A
09CA0:  MOVLB  0
09CA2:  CALL   4D8A
09CA6:  MOVLW  3A
09CA8:  BTFSS  F9E.4
09CAA:  BRA    9CA8
09CAC:  MOVWF  FAD
09CAE:  MOVFF  379,419
09CB2:  MOVLW  01
09CB4:  MOVLB  4
09CB6:  MOVWF  x1A
09CB8:  MOVLB  0
09CBA:  CALL   4D8A
09CBE:  MOVLW  22
09CC0:  BTFSS  F9E.4
09CC2:  BRA    9CC0
09CC4:  MOVWF  FAD
....................       SendDataDisplay(); 
09CC6:  CALL   40AA
....................          if(Setpoint<60) 
09CCA:  MOVLB  3
09CCC:  MOVF   x41,W
09CCE:  SUBLW  3B
09CD0:  BNC   9CD6
....................             Setpoint=137; 
09CD2:  MOVLW  89
09CD4:  MOVWF  x41
....................          if(Setpoint>137) 
09CD6:  MOVF   x41,W
09CD8:  SUBLW  89
09CDA:  BC    9CE0
....................             Setpoint=60; 
09CDC:  MOVLW  3C
09CDE:  MOVWF  x41
....................           
....................          if(RX_Buffer[4]==0x11 || LEFT){//Selecciono Regresar 
09CE0:  MOVF   34,W
09CE2:  SUBLW  11
09CE4:  BZ    9CEC
09CE6:  BSF    F93.3
09CE8:  BTFSC  F81.3
09CEA:  BRA    9D84
....................             Segundos=OFF; 
09CEC:  MOVLB  0
09CEE:  BCF    xA2.4
....................             Minutos=OFF; 
09CF0:  BCF    xA2.3
....................             printf("page CicloPersona"); 
09CF2:  MOVLW  0E
09CF4:  MOVWF  FF6
09CF6:  MOVLW  0C
09CF8:  MOVWF  FF7
09CFA:  MOVLW  00
09CFC:  MOVWF  FF8
09CFE:  CALL   4078
....................             SendDataDisplay();   
09D02:  CALL   40AA
....................             PantallaPrincipal=1; 
09D06:  MOVLW  01
09D08:  MOVLB  2
09D0A:  MOVWF  xCE
....................             Op=OFF; 
09D0C:  MOVLB  0
09D0E:  BCF    xA2.1
....................             Op2=OFF; 
09D10:  BCF    xA2.2
....................             if(!GuardaEEPROM){ 
09D12:  BTFSC  xA2.5
09D14:  BRA    9D82
....................                CiclosPersonalizados[CicloLibre-1].Temperatura=Setpoint; 
09D16:  MOVLW  01
09D18:  MOVLB  3
09D1A:  SUBWF  x2E,W
09D1C:  MULLW  0A
09D1E:  MOVF   FF3,W
09D20:  MOVLB  4
09D22:  CLRF   x15
09D24:  MOVWF  x14
09D26:  MOVLW  EC
09D28:  ADDWF  x14,W
09D2A:  MOVWF  FE9
09D2C:  MOVLW  03
09D2E:  ADDWFC x15,W
09D30:  MOVWF  FEA
09D32:  MOVFF  341,FEF
....................                write_eeprom(100+((CicloLibre-1)*8),Setpoint); 
09D36:  MOVLW  01
09D38:  MOVLB  3
09D3A:  SUBWF  x2E,W
09D3C:  MULLW  08
09D3E:  MOVF   FF3,W
09D40:  ADDLW  64
09D42:  MOVLB  4
09D44:  MOVWF  x14
09D46:  CLRF   FAA
09D48:  MOVFF  414,FA9
09D4C:  MOVFF  341,FA8
09D50:  BCF    FA6.6
09D52:  BCF    FA6.7
09D54:  BSF    FA6.2
09D56:  MOVF   FF2,W
09D58:  MOVWF  00
09D5A:  BCF    FF2.6
09D5C:  BCF    FF2.7
09D5E:  MOVLB  F
09D60:  MOVLW  55
09D62:  MOVWF  FA7
09D64:  MOVLW  AA
09D66:  MOVWF  FA7
09D68:  BSF    FA6.1
09D6A:  BTFSC  FA6.1
09D6C:  BRA    9D6A
09D6E:  BCF    FA6.2
09D70:  MOVF   00,W
09D72:  IORWF  FF2,F
....................                delay_ms(10); 
09D74:  MOVLW  0A
09D76:  MOVLB  4
09D78:  MOVWF  x29
09D7A:  MOVLB  0
09D7C:  CALL   19C2
....................                GuardaEEPROM=ON; 
09D80:  BSF    xA2.5
09D82:  MOVLB  3
....................             } 
....................          } 
....................           
....................          if(UP){ 
09D84:  BSF    F93.0
09D86:  BTFSC  F81.0
09D88:  BRA    9DA0
....................             delay_ms(100); 
09D8A:  MOVLW  64
09D8C:  MOVLB  4
09D8E:  MOVWF  x29
09D90:  MOVLB  0
09D92:  CALL   19C2
....................             if(UP){ 
09D96:  BSF    F93.0
09D98:  BTFSC  F81.0
09D9A:  BRA    9DA2
....................                Setpoint++; 
09D9C:  MOVLB  3
09D9E:  INCF   x41,F
09DA0:  MOVLB  0
....................             } 
....................          } 
....................           
....................          if(DOWN){ 
09DA2:  BSF    F93.1
09DA4:  BTFSC  F81.1
09DA6:  BRA    9DC0
....................             delay_ms(100); 
09DA8:  MOVLW  64
09DAA:  MOVLB  4
09DAC:  MOVWF  x29
09DAE:  MOVLB  0
09DB0:  CALL   19C2
....................             if(DOWN){ 
09DB4:  BSF    F93.1
09DB6:  BTFSC  F81.1
09DB8:  BRA    9DC0
....................                Setpoint--; 
09DBA:  MOVLB  3
09DBC:  DECF   x41,F
09DBE:  MOVLB  0
....................             } 
....................          } 
....................           
....................          if(RX_Buffer[4]==0x0d){//Tecla Arriba Oprimida 
09DC0:  MOVF   34,W
09DC2:  SUBLW  0D
09DC4:  BNZ   9DD0
....................             Setpoint++; 
09DC6:  MOVLB  3
09DC8:  INCF   x41,F
....................             RX_Buffer[4]=0x00;   
09DCA:  CLRF   34
....................             RX_Buffer2[4]=0x00;             
09DCC:  CLRF   3F
09DCE:  MOVLB  0
....................             //BorraBuffer(); 
....................          } 
....................           
....................          if(RX_Buffer[4]==0x0c){//Tecla Abajo Oprimida 
09DD0:  MOVF   34,W
09DD2:  SUBLW  0C
09DD4:  BNZ   9DE0
....................             Setpoint--; 
09DD6:  MOVLB  3
09DD8:  DECF   x41,F
....................             RX_Buffer[4]=0x00; 
09DDA:  CLRF   34
....................             RX_Buffer2[4]=0x00;             
09DDC:  CLRF   3F
09DDE:  MOVLB  0
....................             //BorraBuffer(); 
....................          } 
....................           
....................       printf("tsettem.txt=\"%03u\"",Setpoint); 
09DE0:  MOVLW  20
09DE2:  MOVWF  FF6
09DE4:  MOVLW  0C
09DE6:  MOVWF  FF7
09DE8:  MOVLW  00
09DEA:  MOVWF  FF8
09DEC:  MOVLW  0D
09DEE:  MOVLB  4
09DF0:  MOVWF  x19
09DF2:  MOVLB  0
09DF4:  CALL   4D2C
09DF8:  MOVFF  341,419
09DFC:  MOVLW  03
09DFE:  MOVLB  4
09E00:  MOVWF  x1A
09E02:  MOVLB  0
09E04:  CALL   4D8A
09E08:  MOVLW  22
09E0A:  BTFSS  F9E.4
09E0C:  BRA    9E0A
09E0E:  MOVWF  FAD
....................       SendDataDisplay(); 
09E10:  CALL   40AA
09E14:  MOVLB  3
....................     } 
.................... //_--------------------------------------------------------------------------------------------------------------------------------------------------------        
....................  
.................... //_--------------------------------------------------------------------------------------------------------------------------------------------------------       
....................    if(Menu==5){//Menu de Nivel 
09E16:  MOVF   x3A,W
09E18:  SUBLW  05
09E1A:  BTFSS  FD8.2
09E1C:  BRA    A0EA
....................       printf("fecha.txt=\"T:%3.1fC Fecha:%02u/%02u/20%02u Hora: %02u:%02u:%02u\"",Temperatura,Dia,Mes,Year,Hora,Minuto,Segundo); 
09E1E:  MOVLW  34
09E20:  MOVWF  FF6
09E22:  MOVLW  0C
09E24:  MOVWF  FF7
09E26:  MOVLW  00
09E28:  MOVWF  FF8
09E2A:  MOVLW  0D
09E2C:  MOVLB  4
09E2E:  MOVWF  x19
09E30:  MOVLB  0
09E32:  CALL   4D2C
09E36:  MOVLW  02
09E38:  MOVWF  FE9
09E3A:  MOVFF  31B,41C
09E3E:  MOVFF  31A,41B
09E42:  MOVFF  319,41A
09E46:  MOVFF  318,419
09E4A:  MOVLW  01
09E4C:  MOVLB  4
09E4E:  MOVWF  x1D
09E50:  MOVLB  0
09E52:  CALL   4ECC
09E56:  MOVLW  46
09E58:  MOVWF  FF6
09E5A:  MOVLW  0C
09E5C:  MOVWF  FF7
09E5E:  MOVLW  00
09E60:  MOVWF  FF8
09E62:  MOVLW  09
09E64:  MOVLB  4
09E66:  MOVWF  x19
09E68:  MOVLB  0
09E6A:  CALL   4D2C
09E6E:  MOVFF  376,419
09E72:  MOVLW  01
09E74:  MOVLB  4
09E76:  MOVWF  x1A
09E78:  MOVLB  0
09E7A:  CALL   4D8A
09E7E:  MOVLW  2F
09E80:  BTFSS  F9E.4
09E82:  BRA    9E80
09E84:  MOVWF  FAD
09E86:  MOVFF  375,419
09E8A:  MOVLW  01
09E8C:  MOVLB  4
09E8E:  MOVWF  x1A
09E90:  MOVLB  0
09E92:  CALL   4D8A
09E96:  MOVLW  2F
09E98:  BTFSS  F9E.4
09E9A:  BRA    9E98
09E9C:  MOVWF  FAD
09E9E:  MOVLW  32
09EA0:  BTFSS  F9E.4
09EA2:  BRA    9EA0
09EA4:  MOVWF  FAD
09EA6:  MOVLW  30
09EA8:  BTFSS  F9E.4
09EAA:  BRA    9EA8
09EAC:  MOVWF  FAD
09EAE:  MOVFF  374,419
09EB2:  MOVLW  01
09EB4:  MOVLB  4
09EB6:  MOVWF  x1A
09EB8:  MOVLB  0
09EBA:  CALL   4D8A
09EBE:  MOVLW  5F
09EC0:  MOVWF  FF6
09EC2:  MOVLW  0C
09EC4:  MOVWF  FF7
09EC6:  MOVLW  00
09EC8:  MOVWF  FF8
09ECA:  MOVLW  07
09ECC:  MOVLB  4
09ECE:  MOVWF  x19
09ED0:  MOVLB  0
09ED2:  CALL   4D2C
09ED6:  MOVFF  377,419
09EDA:  MOVLW  01
09EDC:  MOVLB  4
09EDE:  MOVWF  x1A
09EE0:  MOVLB  0
09EE2:  CALL   4D8A
09EE6:  MOVLW  3A
09EE8:  BTFSS  F9E.4
09EEA:  BRA    9EE8
09EEC:  MOVWF  FAD
09EEE:  MOVFF  378,419
09EF2:  MOVLW  01
09EF4:  MOVLB  4
09EF6:  MOVWF  x1A
09EF8:  MOVLB  0
09EFA:  CALL   4D8A
09EFE:  MOVLW  3A
09F00:  BTFSS  F9E.4
09F02:  BRA    9F00
09F04:  MOVWF  FAD
09F06:  MOVFF  379,419
09F0A:  MOVLW  01
09F0C:  MOVLB  4
09F0E:  MOVWF  x1A
09F10:  MOVLB  0
09F12:  CALL   4D8A
09F16:  MOVLW  22
09F18:  BTFSS  F9E.4
09F1A:  BRA    9F18
09F1C:  MOVWF  FAD
....................       SendDataDisplay(); 
09F1E:  CALL   40AA
....................          if(Nivel<1) 
09F22:  MOVLB  3
09F24:  MOVF   x4F,F
09F26:  BNZ   9F32
09F28:  MOVF   x50,F
09F2A:  BNZ   9F32
....................             Nivel=6; 
09F2C:  CLRF   x50
09F2E:  MOVLW  06
09F30:  MOVWF  x4F
....................          if(Nivel>6) 
09F32:  MOVF   x50,F
09F34:  BNZ   9F3C
09F36:  MOVF   x4F,W
09F38:  SUBLW  06
09F3A:  BC    9F42
....................             Nivel=1; 
09F3C:  CLRF   x50
09F3E:  MOVLW  01
09F40:  MOVWF  x4F
....................           
....................          if(RX_Buffer[4]==0x11 || LEFT){//Selecciono Regresar 
09F42:  MOVF   34,W
09F44:  SUBLW  11
09F46:  BZ    9F4E
09F48:  BSF    F93.3
09F4A:  BTFSC  F81.3
09F4C:  BRA    A044
....................             Segundos=OFF; 
09F4E:  MOVLB  0
09F50:  BCF    xA2.4
....................             Minutos=OFF;             
09F52:  BCF    xA2.3
....................             tiempo_secado=0; 
09F54:  MOVLB  3
09F56:  CLRF   x45
....................              
....................             if(!GuardaEEPROM){     
09F58:  MOVLB  0
09F5A:  BTFSC  xA2.5
09F5C:  BRA    9FF6
....................                CiclosPersonalizados[CicloLibre-1].NivelDesfogue=Nivel; 
09F5E:  MOVLW  01
09F60:  MOVLB  3
09F62:  SUBWF  x2E,W
09F64:  MULLW  0A
09F66:  MOVF   FF3,W
09F68:  MOVLB  4
09F6A:  CLRF   x15
09F6C:  MOVWF  x14
09F6E:  MOVLW  08
09F70:  ADDWF  x14,W
09F72:  MOVWF  01
09F74:  MOVLW  00
09F76:  ADDWFC x15,W
09F78:  MOVWF  03
09F7A:  MOVF   01,W
09F7C:  ADDLW  EC
09F7E:  MOVWF  FE9
09F80:  MOVLW  03
09F82:  ADDWFC 03,W
09F84:  MOVWF  FEA
09F86:  MOVFF  34F,FEF
....................                write_eeprom(107+((CicloLibre-1)*8),Nivel); 
09F8A:  MOVLW  01
09F8C:  MOVLB  3
09F8E:  SUBWF  x2E,W
09F90:  MULLW  08
09F92:  MOVF   FF3,W
09F94:  ADDLW  6B
09F96:  MOVLB  4
09F98:  MOVWF  x14
09F9A:  CLRF   FAA
09F9C:  MOVFF  414,FA9
09FA0:  MOVFF  34F,FA8
09FA4:  BCF    FA6.6
09FA6:  BCF    FA6.7
09FA8:  BSF    FA6.2
09FAA:  MOVF   FF2,W
09FAC:  MOVWF  00
09FAE:  BCF    FF2.6
09FB0:  BCF    FF2.7
09FB2:  MOVLB  F
09FB4:  MOVLW  55
09FB6:  MOVWF  FA7
09FB8:  MOVLW  AA
09FBA:  MOVWF  FA7
09FBC:  BSF    FA6.1
09FBE:  BTFSC  FA6.1
09FC0:  BRA    9FBE
09FC2:  BCF    FA6.2
09FC4:  MOVF   00,W
09FC6:  IORWF  FF2,F
....................                delay_ms(20);             
09FC8:  MOVLW  14
09FCA:  MOVLB  4
09FCC:  MOVWF  x29
09FCE:  MOVLB  0
09FD0:  CALL   19C2
....................                NivelSeleccionado=4995*Nivel; 
09FD4:  MOVLW  13
09FD6:  MOVLB  4
09FD8:  MOVWF  x19
09FDA:  MOVLW  83
09FDC:  MOVWF  x18
09FDE:  MOVFF  350,41B
09FE2:  MOVFF  34F,41A
09FE6:  MOVLB  0
09FE8:  CALL   1DF6
09FEC:  MOVFF  02,35A
09FF0:  MOVFF  01,359
....................                GuardaEEPROM=ON; 
09FF4:  BSF    xA2.5
....................             } 
....................              
....................             if(Nivel<6) 
09FF6:  MOVLB  3
09FF8:  MOVF   x50,F
09FFA:  BNZ   A006
09FFC:  MOVF   x4F,W
09FFE:  SUBLW  05
0A000:  BNC   A006
....................                desfoguelento=1; 
0A002:  BSF    x2F.0
....................             else             
0A004:  BRA    A008
....................                desfoguelento=0; 
0A006:  BCF    x2F.0
....................  
....................             if(MenuAnt==1){ 
0A008:  DECFSZ x3B,W
0A00A:  BRA    A026
....................                //Buzzer_on; 
....................                printf("page CicloPersona"); 
0A00C:  MOVLW  76
0A00E:  MOVWF  FF6
0A010:  MOVLW  0C
0A012:  MOVWF  FF7
0A014:  MOVLW  00
0A016:  MOVWF  FF8
0A018:  MOVLB  0
0A01A:  CALL   4078
....................                SendDataDisplay();  
0A01E:  CALL   40AA
....................                //PantallaPrincipal=1; 
....................             }else if(MenuAnt==2){ 
0A022:  BRA    A042
0A024:  MOVLB  3
0A026:  MOVF   x3B,W
0A028:  SUBLW  02
0A02A:  BNZ   A044
....................                printf("page Funcionamiento"); 
0A02C:  MOVLW  88
0A02E:  MOVWF  FF6
0A030:  MOVLW  0C
0A032:  MOVWF  FF7
0A034:  MOVLW  00
0A036:  MOVWF  FF8
0A038:  MOVLB  0
0A03A:  CALL   4078
....................                SendDataDisplay();  
0A03E:  CALL   40AA
0A042:  MOVLB  3
....................                //if(Temperatura>60)TTrampa=TTrampa+5; 
....................             } 
....................          } 
....................           
....................          if(UP){ 
0A044:  BSF    F93.0
0A046:  BTFSC  F81.0
0A048:  BRA    A064
....................             delay_ms(100); 
0A04A:  MOVLW  64
0A04C:  MOVLB  4
0A04E:  MOVWF  x29
0A050:  MOVLB  0
0A052:  CALL   19C2
....................             if(UP){ 
0A056:  BSF    F93.0
0A058:  BTFSC  F81.0
0A05A:  BRA    A066
....................                Nivel++; 
0A05C:  MOVLB  3
0A05E:  INCF   x4F,F
0A060:  BTFSC  FD8.2
0A062:  INCF   x50,F
0A064:  MOVLB  0
....................             } 
....................          } 
....................           
....................          if(DOWN){ 
0A066:  BSF    F93.1
0A068:  BTFSC  F81.1
0A06A:  BRA    A08A
....................             delay_ms(100); 
0A06C:  MOVLW  64
0A06E:  MOVLB  4
0A070:  MOVWF  x29
0A072:  MOVLB  0
0A074:  CALL   19C2
....................             if(DOWN){ 
0A078:  BSF    F93.1
0A07A:  BTFSC  F81.1
0A07C:  BRA    A08A
....................                Nivel--; 
0A07E:  MOVLB  3
0A080:  MOVF   x4F,W
0A082:  BTFSC  FD8.2
0A084:  DECF   x50,F
0A086:  DECF   x4F,F
0A088:  MOVLB  0
....................             } 
....................          } 
....................           
....................          if(RX_Buffer[4]==0x0d){//Tecla Arriba Oprimida 
0A08A:  MOVF   34,W
0A08C:  SUBLW  0D
0A08E:  BNZ   A09E
....................             Nivel++; 
0A090:  MOVLB  3
0A092:  INCF   x4F,F
0A094:  BTFSC  FD8.2
0A096:  INCF   x50,F
....................             RX_Buffer[4]=0x00;             
0A098:  CLRF   34
....................             RX_Buffer2[4]=0x00;             
0A09A:  CLRF   3F
0A09C:  MOVLB  0
....................             //BorraBuffer(); 
....................          } 
....................           
....................          if(RX_Buffer[4]==0x0c){//Tecla Abajo Oprimida 
0A09E:  MOVF   34,W
0A0A0:  SUBLW  0C
0A0A2:  BNZ   A0B4
....................             Nivel--; 
0A0A4:  MOVLB  3
0A0A6:  MOVF   x4F,W
0A0A8:  BTFSC  FD8.2
0A0AA:  DECF   x50,F
0A0AC:  DECF   x4F,F
....................             RX_Buffer[4]=0x00; 
0A0AE:  CLRF   34
....................             RX_Buffer2[4]=0x00;             
0A0B0:  CLRF   3F
0A0B2:  MOVLB  0
....................             //BorraBuffer(); 
....................          } 
....................           
....................       printf("tnivel.txt=\"%Lu\"",Nivel); 
0A0B4:  MOVLW  9C
0A0B6:  MOVWF  FF6
0A0B8:  MOVLW  0C
0A0BA:  MOVWF  FF7
0A0BC:  MOVLW  00
0A0BE:  MOVWF  FF8
0A0C0:  MOVLW  0C
0A0C2:  MOVLB  4
0A0C4:  MOVWF  x19
0A0C6:  MOVLB  0
0A0C8:  CALL   4D2C
0A0CC:  MOVLW  10
0A0CE:  MOVWF  FE9
0A0D0:  MOVFF  350,419
0A0D4:  MOVFF  34F,418
0A0D8:  CALL   5102
0A0DC:  MOVLW  22
0A0DE:  BTFSS  F9E.4
0A0E0:  BRA    A0DE
0A0E2:  MOVWF  FAD
....................       SendDataDisplay(); 
0A0E4:  CALL   40AA
0A0E8:  MOVLB  3
....................    } 
.................... //_--------------------------------------------------------------------------------------------------------------------------------------------------------       
....................  
.................... //_--------------------------------------------------------------------------------------------------------------------------------------------------------       
....................       if(Menu==6){ // Menu de Prueba de Componentes 
0A0EA:  MOVF   x3A,W
0A0EC:  SUBLW  06
0A0EE:  BTFSS  FD8.2
0A0F0:  BRA    A7FA
....................          PruebaEstados=ON; 
0A0F2:  MOVLB  0
0A0F4:  BSF    xA1.2
....................           
....................          if(RX_Buffer[4]==0x02)//Oprimio EV Desfogue 
0A0F6:  MOVF   34,W
0A0F8:  SUBLW  02
0A0FA:  BNZ   A102
....................          { 
....................             EstadoDesfogue=!EstadoDesfogue; 
0A0FC:  BTG    xA0.7
....................             RX_Buffer[4]=0x00; 
0A0FE:  CLRF   34
....................             RX_Buffer2[4]=0x00; 
0A100:  CLRF   3F
....................          } 
....................           
....................          if(EstadoDesfogue){ 
0A102:  BTFSS  xA0.7
0A104:  BRA    A120
....................             printf("b1.bco=2016"); 
0A106:  MOVLW  AE
0A108:  MOVWF  FF6
0A10A:  MOVLW  0C
0A10C:  MOVWF  FF7
0A10E:  MOVLW  00
0A110:  MOVWF  FF8
0A112:  CALL   4078
....................             SendDataDisplay();  
0A116:  CALL   40AA
....................             Desfogue_on; 
0A11A:  BSF    F8C.4
0A11C:  BCF    F95.4
....................          } 
....................          else{ 
0A11E:  BRA    A138
....................             printf("b1.bco=63488"); 
0A120:  MOVLW  BA
0A122:  MOVWF  FF6
0A124:  MOVLW  0C
0A126:  MOVWF  FF7
0A128:  MOVLW  00
0A12A:  MOVWF  FF8
0A12C:  CALL   4078
....................             SendDataDisplay();  
0A130:  CALL   40AA
....................             Desfogue_off; 
0A134:  BCF    F8C.4
0A136:  BCF    F95.4
....................          } 
....................           
....................          if(RX_Buffer[4]==0x01)//Oprimio EV Agua 
0A138:  DECFSZ 34,W
0A13A:  BRA    A142
....................          { 
....................             EstadoAgua=!EstadoAgua; 
0A13C:  BTG    xA1.0
....................             RX_Buffer[4]=0x00; 
0A13E:  CLRF   34
....................             RX_Buffer2[4]=0x00; 
0A140:  CLRF   3F
....................          } 
....................           
....................          if(EstadoAgua){ 
0A142:  BTFSS  xA1.0
0A144:  BRA    A160
....................             printf("b0.bco=2016"); 
0A146:  MOVLW  C8
0A148:  MOVWF  FF6
0A14A:  MOVLW  0C
0A14C:  MOVWF  FF7
0A14E:  MOVLW  00
0A150:  MOVWF  FF8
0A152:  CALL   4078
....................             SendDataDisplay();  
0A156:  CALL   40AA
....................             Vent_on; 
0A15A:  BSF    F8C.5
0A15C:  BCF    F95.5
....................          } 
....................          else{ 
0A15E:  BRA    A178
....................             printf("b0.bco=63488"); 
0A160:  MOVLW  D4
0A162:  MOVWF  FF6
0A164:  MOVLW  0C
0A166:  MOVWF  FF7
0A168:  MOVLW  00
0A16A:  MOVWF  FF8
0A16C:  CALL   4078
....................             SendDataDisplay();  
0A170:  CALL   40AA
....................             Vent_off; 
0A174:  BCF    F8C.5
0A176:  BCF    F95.5
....................          } 
....................           
....................          if(RX_Buffer[4]==0x03)//Oprimio EV Paso 
0A178:  MOVF   34,W
0A17A:  SUBLW  03
0A17C:  BNZ   A184
....................          { 
....................             EstadoPaso=!EstadoPaso; 
0A17E:  BTG    xA2.6
....................             RX_Buffer[4]=0x00; 
0A180:  CLRF   34
....................             RX_Buffer2[4]=0x00; 
0A182:  CLRF   3F
....................          } 
....................           
....................          if(EstadoPaso){ 
0A184:  BTFSS  xA2.6
0A186:  BRA    A1A2
....................             printf("b2.bco=2016"); 
0A188:  MOVLW  E2
0A18A:  MOVWF  FF6
0A18C:  MOVLW  0C
0A18E:  MOVWF  FF7
0A190:  MOVLW  00
0A192:  MOVWF  FF8
0A194:  CALL   4078
....................             SendDataDisplay();  
0A198:  CALL   40AA
....................             Enfr_on; 
0A19C:  BSF    F8C.6
0A19E:  BCF    F95.6
....................          } 
....................          else{ 
0A1A0:  BRA    A1BA
....................             printf("b2.bco=63488"); 
0A1A2:  MOVLW  EE
0A1A4:  MOVWF  FF6
0A1A6:  MOVLW  0C
0A1A8:  MOVWF  FF7
0A1AA:  MOVLW  00
0A1AC:  MOVWF  FF8
0A1AE:  CALL   4078
....................             SendDataDisplay();  
0A1B2:  CALL   40AA
....................             Enfr_off; 
0A1B6:  BCF    F8C.6
0A1B8:  BCF    F95.6
....................          } 
....................          
....................          /* 
....................          if(RX_Buffer[4]==0x05)//Oprimio Bloqueo 
....................          { 
....................             EstadoBloqueo=!EstadoBloqueo; 
....................             RX_Buffer[4]=0x00; 
....................             RX_Buffer2[4]=0x00; 
....................          } 
....................           
....................          if(EstadoBloqueo){ 
....................             printf("b4.bco=2016"); 
....................             SendDataDisplay();  
....................              
....................          } 
....................          else{ 
....................             printf("b4.bco=63488"); 
....................             SendDataDisplay();  
....................              
....................          } 
....................          */ 
....................           
....................          if(RX_Buffer[4]==0x04)//Oprimio SSR1 
0A1BA:  MOVF   34,W
0A1BC:  SUBLW  04
0A1BE:  BNZ   A1C6
....................          { 
....................             EstadoSSR=!EstadoSSR; 
0A1C0:  BTG    xA1.1
....................             RX_Buffer[4]=0x00; 
0A1C2:  CLRF   34
....................             RX_Buffer2[4]=0x00; 
0A1C4:  CLRF   3F
....................          } 
....................           
....................          if(EstadoSSR){ 
0A1C6:  BTFSS  xA1.1
0A1C8:  BRA    A1E4
....................             printf("b3.bco=2016"); 
0A1CA:  MOVLW  FC
0A1CC:  MOVWF  FF6
0A1CE:  MOVLW  0C
0A1D0:  MOVWF  FF7
0A1D2:  MOVLW  00
0A1D4:  MOVWF  FF8
0A1D6:  CALL   4078
....................             SendDataDisplay();  
0A1DA:  CALL   40AA
....................             SSR_on; 
0A1DE:  BCF    F8B.2
0A1E0:  BCF    F94.2
....................          } 
....................          else{ 
0A1E2:  BRA    A1FC
....................             printf("b3.bco=63488"); 
0A1E4:  MOVLW  08
0A1E6:  MOVWF  FF6
0A1E8:  MOVLW  0D
0A1EA:  MOVWF  FF7
0A1EC:  MOVLW  00
0A1EE:  MOVWF  FF8
0A1F0:  CALL   4078
....................             SendDataDisplay();  
0A1F4:  CALL   40AA
....................             SSR_off; 
0A1F8:  BSF    F8B.2
0A1FA:  BCF    F94.2
....................          } 
....................           
....................          if(DOOR){ 
0A1FC:  BSF    F93.6
0A1FE:  BTFSC  F81.6
0A200:  BRA    A218
....................             printf("b8.bco=2016"); 
0A202:  MOVLW  16
0A204:  MOVWF  FF6
0A206:  MOVLW  0D
0A208:  MOVWF  FF7
0A20A:  MOVLW  00
0A20C:  MOVWF  FF8
0A20E:  CALL   4078
....................             SendDataDisplay();  
0A212:  CALL   40AA
....................          }else{ 
0A216:  BRA    A22C
....................             printf("b8.bco=63488"); 
0A218:  MOVLW  22
0A21A:  MOVWF  FF6
0A21C:  MOVLW  0D
0A21E:  MOVWF  FF7
0A220:  MOVLW  00
0A222:  MOVWF  FF8
0A224:  CALL   4078
....................             SendDataDisplay();  
0A228:  CALL   40AA
....................          } 
....................           
....................          if(TERM){ 
0A22C:  BSF    F93.5
0A22E:  BTFSC  F81.5
0A230:  BRA    A248
....................             printf("b9.bco=2016"); 
0A232:  MOVLW  30
0A234:  MOVWF  FF6
0A236:  MOVLW  0D
0A238:  MOVWF  FF7
0A23A:  MOVLW  00
0A23C:  MOVWF  FF8
0A23E:  CALL   4078
....................             SendDataDisplay();  
0A242:  CALL   40AA
....................          }else{ 
0A246:  BRA    A25C
....................             printf("b9.bco=63488"); 
0A248:  MOVLW  3C
0A24A:  MOVWF  FF6
0A24C:  MOVLW  0D
0A24E:  MOVWF  FF7
0A250:  MOVLW  00
0A252:  MOVWF  FF8
0A254:  CALL   4078
....................             SendDataDisplay();  
0A258:  CALL   40AA
....................          } 
....................           
....................          if(STOP){ 
0A25C:  BSF    F93.7
0A25E:  BTFSC  F81.7
0A260:  BRA    A278
....................             printf("b10.bco=2016"); 
0A262:  MOVLW  4A
0A264:  MOVWF  FF6
0A266:  MOVLW  0D
0A268:  MOVWF  FF7
0A26A:  MOVLW  00
0A26C:  MOVWF  FF8
0A26E:  CALL   4078
....................             SendDataDisplay();  
0A272:  CALL   40AA
....................          }else{ 
0A276:  BRA    A28C
....................             printf("b10.bco=63488"); 
0A278:  MOVLW  58
0A27A:  MOVWF  FF6
0A27C:  MOVLW  0D
0A27E:  MOVWF  FF7
0A280:  MOVLW  00
0A282:  MOVWF  FF8
0A284:  CALL   4078
....................             SendDataDisplay();  
0A288:  CALL   40AA
....................          } 
....................           
....................          /*if(PRES){ 
....................             printf("b11.bco=2016"); 
....................             SendDataDisplay();  
....................          }else{ 
....................             printf("b11.bco=63488"); 
....................             SendDataDisplay();  
....................          }*/ 
....................           
....................          if(RX_Buffer[4]==0x13)//Oprimio Buzzer 
0A28C:  MOVF   34,W
0A28E:  SUBLW  13
0A290:  BNZ   A298
....................          { 
....................             EstadoBuzzer=!EstadoBuzzer; 
0A292:  BTG    xA2.7
....................             RX_Buffer[4]=0x00; 
0A294:  CLRF   34
....................             RX_Buffer2[4]=0x00; 
0A296:  CLRF   3F
....................          } 
....................           
....................          if(EstadoBuzzer){ 
0A298:  BTFSS  xA2.7
0A29A:  BRA    A2B6
....................             printf("b12.bco=2016"); 
0A29C:  MOVLW  66
0A29E:  MOVWF  FF6
0A2A0:  MOVLW  0D
0A2A2:  MOVWF  FF7
0A2A4:  MOVLW  00
0A2A6:  MOVWF  FF8
0A2A8:  CALL   4078
....................             SendDataDisplay();  
0A2AC:  CALL   40AA
....................             Buzzer_on; 
0A2B0:  BSF    F8C.0
0A2B2:  BCF    F95.0
....................          } 
....................          else{ 
0A2B4:  BRA    A2CE
....................             printf("b12.bco=63488"); 
0A2B6:  MOVLW  74
0A2B8:  MOVWF  FF6
0A2BA:  MOVLW  0D
0A2BC:  MOVWF  FF7
0A2BE:  MOVLW  00
0A2C0:  MOVWF  FF8
0A2C2:  CALL   4078
....................             SendDataDisplay();  
0A2C6:  CALL   40AA
....................             Buzzer_off; 
0A2CA:  BCF    F8C.0
0A2CC:  BCF    F95.0
....................          } 
....................           
....................          if(HIG){ 
0A2CE:  BSF    F94.0
0A2D0:  BTFSS  F82.0
0A2D2:  BRA    A2EA
....................             printf("b16.bco=2016"); 
0A2D4:  MOVLW  82
0A2D6:  MOVWF  FF6
0A2D8:  MOVLW  0D
0A2DA:  MOVWF  FF7
0A2DC:  MOVLW  00
0A2DE:  MOVWF  FF8
0A2E0:  CALL   4078
....................             SendDataDisplay();  
0A2E4:  CALL   40AA
....................          }else{ 
0A2E8:  BRA    A2FE
....................             printf("b16.bco=63488"); 
0A2EA:  MOVLW  90
0A2EC:  MOVWF  FF6
0A2EE:  MOVLW  0D
0A2F0:  MOVWF  FF7
0A2F2:  MOVLW  00
0A2F4:  MOVWF  FF8
0A2F6:  CALL   4078
....................             SendDataDisplay();  
0A2FA:  CALL   40AA
....................          } 
....................           
....................          if(LOW){ 
0A2FE:  BSF    F94.1
0A300:  BTFSS  F82.1
0A302:  BRA    A31A
....................             printf("b17.bco=2016"); 
0A304:  MOVLW  9E
0A306:  MOVWF  FF6
0A308:  MOVLW  0D
0A30A:  MOVWF  FF7
0A30C:  MOVLW  00
0A30E:  MOVWF  FF8
0A310:  CALL   4078
....................             SendDataDisplay();  
0A314:  CALL   40AA
....................          }else{ 
0A318:  BRA    A32E
....................             printf("b17.bco=63488"); 
0A31A:  MOVLW  AC
0A31C:  MOVWF  FF6
0A31E:  MOVLW  0D
0A320:  MOVWF  FF7
0A322:  MOVLW  00
0A324:  MOVWF  FF8
0A326:  CALL   4078
....................             SendDataDisplay();  
0A32A:  CALL   40AA
....................          } 
....................           
....................          printf("b13.txt=\"ADC0:%3.0f\"",sensores(0));          
0A32E:  MOVLB  4
0A330:  CLRF   x15
0A332:  MOVLB  0
0A334:  CALL   40F8
0A338:  MOVFF  00,414
0A33C:  MOVFF  01,415
0A340:  MOVFF  02,416
0A344:  MOVFF  03,417
0A348:  MOVLW  BA
0A34A:  MOVWF  FF6
0A34C:  MOVLW  0D
0A34E:  MOVWF  FF7
0A350:  MOVLW  00
0A352:  MOVWF  FF8
0A354:  MOVLW  0E
0A356:  MOVLB  4
0A358:  MOVWF  x19
0A35A:  MOVLB  0
0A35C:  CALL   4D2C
0A360:  MOVLW  02
0A362:  MOVWF  FE9
0A364:  MOVFF  417,41C
0A368:  MOVFF  416,41B
0A36C:  MOVFF  415,41A
0A370:  MOVFF  414,419
0A374:  MOVLB  4
0A376:  CLRF   x1D
0A378:  MOVLB  0
0A37A:  CALL   4ECC
0A37E:  MOVLW  22
0A380:  BTFSS  F9E.4
0A382:  BRA    A380
0A384:  MOVWF  FAD
....................          SendDataDisplay(); 
0A386:  CALL   40AA
....................          printf("b14.txt=\"ADC1:%3.0f\"",sensores(1));          
0A38A:  MOVLW  01
0A38C:  MOVLB  4
0A38E:  MOVWF  x15
0A390:  MOVLB  0
0A392:  CALL   40F8
0A396:  MOVFF  00,414
0A39A:  MOVFF  01,415
0A39E:  MOVFF  02,416
0A3A2:  MOVFF  03,417
0A3A6:  MOVLW  D0
0A3A8:  MOVWF  FF6
0A3AA:  MOVLW  0D
0A3AC:  MOVWF  FF7
0A3AE:  MOVLW  00
0A3B0:  MOVWF  FF8
0A3B2:  MOVLW  0E
0A3B4:  MOVLB  4
0A3B6:  MOVWF  x19
0A3B8:  MOVLB  0
0A3BA:  CALL   4D2C
0A3BE:  MOVLW  02
0A3C0:  MOVWF  FE9
0A3C2:  MOVFF  417,41C
0A3C6:  MOVFF  416,41B
0A3CA:  MOVFF  415,41A
0A3CE:  MOVFF  414,419
0A3D2:  MOVLB  4
0A3D4:  CLRF   x1D
0A3D6:  MOVLB  0
0A3D8:  CALL   4ECC
0A3DC:  MOVLW  22
0A3DE:  BTFSS  F9E.4
0A3E0:  BRA    A3DE
0A3E2:  MOVWF  FAD
....................          SendDataDisplay(); 
0A3E4:  CALL   40AA
....................          printf("b15.txt=\"A2:%3.0f %03Lu\"",sensores(2),PresionCamara); 
0A3E8:  MOVLW  02
0A3EA:  MOVLB  4
0A3EC:  MOVWF  x15
0A3EE:  MOVLB  0
0A3F0:  CALL   40F8
0A3F4:  MOVFF  00,414
0A3F8:  MOVFF  01,415
0A3FC:  MOVFF  02,416
0A400:  MOVFF  03,417
0A404:  MOVLW  E6
0A406:  MOVWF  FF6
0A408:  MOVLW  0D
0A40A:  MOVWF  FF7
0A40C:  MOVLW  00
0A40E:  MOVWF  FF8
0A410:  MOVLW  0C
0A412:  MOVLB  4
0A414:  MOVWF  x19
0A416:  MOVLB  0
0A418:  CALL   4D2C
0A41C:  MOVLW  02
0A41E:  MOVWF  FE9
0A420:  MOVFF  417,41C
0A424:  MOVFF  416,41B
0A428:  MOVFF  415,41A
0A42C:  MOVFF  414,419
0A430:  MOVLB  4
0A432:  CLRF   x1D
0A434:  MOVLB  0
0A436:  CALL   4ECC
0A43A:  MOVLW  20
0A43C:  BTFSS  F9E.4
0A43E:  BRA    A43C
0A440:  MOVWF  FAD
0A442:  MOVLW  0A
0A444:  MOVWF  FE9
0A446:  MOVFF  354,419
0A44A:  MOVFF  353,418
0A44E:  CALL   5102
0A452:  MOVLW  22
0A454:  BTFSS  F9E.4
0A456:  BRA    A454
0A458:  MOVWF  FAD
....................          SendDataDisplay(); 
0A45A:  CALL   40AA
....................          printf("b18.txt=\"A3:%3.0f %03Lu\"",sensores(3),PresionPreCamara); 
0A45E:  MOVLW  03
0A460:  MOVLB  4
0A462:  MOVWF  x15
0A464:  MOVLB  0
0A466:  CALL   40F8
0A46A:  MOVFF  00,414
0A46E:  MOVFF  01,415
0A472:  MOVFF  02,416
0A476:  MOVFF  03,417
0A47A:  MOVLW  00
0A47C:  MOVWF  FF6
0A47E:  MOVLW  0E
0A480:  MOVWF  FF7
0A482:  MOVLW  00
0A484:  MOVWF  FF8
0A486:  MOVLW  0C
0A488:  MOVLB  4
0A48A:  MOVWF  x19
0A48C:  MOVLB  0
0A48E:  CALL   4D2C
0A492:  MOVLW  02
0A494:  MOVWF  FE9
0A496:  MOVFF  417,41C
0A49A:  MOVFF  416,41B
0A49E:  MOVFF  415,41A
0A4A2:  MOVFF  414,419
0A4A6:  MOVLB  4
0A4A8:  CLRF   x1D
0A4AA:  MOVLB  0
0A4AC:  CALL   4ECC
0A4B0:  MOVLW  20
0A4B2:  BTFSS  F9E.4
0A4B4:  BRA    A4B2
0A4B6:  MOVWF  FAD
0A4B8:  MOVLW  0A
0A4BA:  MOVWF  FE9
0A4BC:  MOVFF  356,419
0A4C0:  MOVFF  355,418
0A4C4:  CALL   5102
0A4C8:  MOVLW  22
0A4CA:  BTFSS  F9E.4
0A4CC:  BRA    A4CA
0A4CE:  MOVWF  FAD
....................          SendDataDisplay(); 
0A4D0:  CALL   40AA
....................          printf("b20.txt=\"T1:%3.1f\"",Temperatura); 
0A4D4:  MOVLW  1A
0A4D6:  MOVWF  FF6
0A4D8:  MOVLW  0E
0A4DA:  MOVWF  FF7
0A4DC:  MOVLW  00
0A4DE:  MOVWF  FF8
0A4E0:  MOVLW  0C
0A4E2:  MOVLB  4
0A4E4:  MOVWF  x19
0A4E6:  MOVLB  0
0A4E8:  CALL   4D2C
0A4EC:  MOVLW  02
0A4EE:  MOVWF  FE9
0A4F0:  MOVFF  31B,41C
0A4F4:  MOVFF  31A,41B
0A4F8:  MOVFF  319,41A
0A4FC:  MOVFF  318,419
0A500:  MOVLW  01
0A502:  MOVLB  4
0A504:  MOVWF  x1D
0A506:  MOVLB  0
0A508:  CALL   4ECC
0A50C:  MOVLW  22
0A50E:  BTFSS  F9E.4
0A510:  BRA    A50E
0A512:  MOVWF  FAD
....................          SendDataDisplay(); 
0A514:  CALL   40AA
....................           
....................          if(RX_Buffer[4]==0x21 || LEFT){//Oprimio salir 
0A518:  MOVF   34,W
0A51A:  SUBLW  21
0A51C:  BZ    A524
0A51E:  BSF    F93.3
0A520:  BTFSC  F81.3
0A522:  BRA    A568
....................             delay_ms(100); 
0A524:  MOVLW  64
0A526:  MOVLB  4
0A528:  MOVWF  x29
0A52A:  MOVLB  0
0A52C:  CALL   19C2
....................             if(RX_Buffer[4]==0x21 || LEFT){ 
0A530:  MOVF   34,W
0A532:  SUBLW  21
0A534:  BZ    A53C
0A536:  BSF    F93.3
0A538:  BTFSC  F81.3
0A53A:  BRA    A568
....................                printf("page MenuPrincipal"); 
0A53C:  MOVLW  2E
0A53E:  MOVWF  FF6
0A540:  MOVLW  0E
0A542:  MOVWF  FF7
0A544:  MOVLW  00
0A546:  MOVWF  FF8
0A548:  CALL   4078
....................                SendDataDisplay(); 
0A54C:  CALL   40AA
....................                PantallaPrincipal=0; 
0A550:  MOVLB  2
0A552:  CLRF   xCE
....................                PruebaEstados=OFF;Desfogue_off;Vent_off;SSR_off; 
0A554:  MOVLB  0
0A556:  BCF    xA1.2
0A558:  BCF    F8C.4
0A55A:  BCF    F95.4
0A55C:  BCF    F8C.5
0A55E:  BCF    F95.5
0A560:  BSF    F8B.2
0A562:  BCF    F94.2
....................                ApagaSalidas(); 
0A564:  CALL   40E0
....................                // Falta apagar Todo 
....................             } 
....................          } 
....................           
....................          if(UP){ 
0A568:  BSF    F93.0
0A56A:  BTFSC  F81.0
0A56C:  BRA    A6B0
....................             delay_ms(100); 
0A56E:  MOVLW  64
0A570:  MOVLB  4
0A572:  MOVWF  x29
0A574:  MOVLB  0
0A576:  CALL   19C2
....................             if(UP){ 
0A57A:  BSF    F93.0
0A57C:  BTFSC  F81.0
0A57E:  BRA    A6B0
....................                G1=41-sensores(2); 
0A580:  MOVLW  02
0A582:  MOVLB  4
0A584:  MOVWF  x15
0A586:  MOVLB  0
0A588:  CALL   40F8
0A58C:  MOVFF  FEA,415
0A590:  MOVFF  FE9,414
0A594:  BSF    FD8.1
0A596:  MOVLB  4
0A598:  CLRF   x2C
0A59A:  CLRF   x2B
0A59C:  MOVLW  24
0A59E:  MOVWF  x2A
0A5A0:  MOVLW  84
0A5A2:  MOVWF  x29
0A5A4:  MOVFF  03,430
0A5A8:  MOVFF  02,42F
0A5AC:  MOVFF  01,42E
0A5B0:  MOVFF  00,42D
0A5B4:  MOVLB  0
0A5B6:  CALL   1B7E
0A5BA:  MOVFF  415,FEA
0A5BE:  MOVFF  414,FE9
0A5C2:  MOVFF  03,42C
0A5C6:  MOVFF  02,42B
0A5CA:  MOVFF  01,42A
0A5CE:  MOVFF  00,429
0A5D2:  CALL   47DE
0A5D6:  MOVFF  01,384
....................                if(G1<0) 
0A5DA:  MOVLB  3
0A5DC:  BTFSC  x84.7
0A5DE:  BRA    A5E2
0A5E0:  BRA    A5E8
....................                   sg1=10; 
0A5E2:  MOVLW  0A
0A5E4:  MOVWF  x86
....................                else 
0A5E6:  BRA    A5EC
....................                   sg1=5; 
0A5E8:  MOVLW  05
0A5EA:  MOVWF  x86
....................                    
....................                write_eeprom(42,(int8)G1); 
0A5EC:  CLRF   FAA
0A5EE:  MOVLW  2A
0A5F0:  MOVWF  FA9
0A5F2:  MOVFF  384,FA8
0A5F6:  BCF    FA6.6
0A5F8:  BCF    FA6.7
0A5FA:  BSF    FA6.2
0A5FC:  MOVF   FF2,W
0A5FE:  MOVWF  00
0A600:  BCF    FF2.6
0A602:  BCF    FF2.7
0A604:  MOVLB  F
0A606:  MOVLW  55
0A608:  MOVWF  FA7
0A60A:  MOVLW  AA
0A60C:  MOVWF  FA7
0A60E:  BSF    FA6.1
0A610:  BTFSC  FA6.1
0A612:  BRA    A610
0A614:  BCF    FA6.2
0A616:  MOVF   00,W
0A618:  IORWF  FF2,F
....................                delay_ms(10); 
0A61A:  MOVLW  0A
0A61C:  MOVLB  4
0A61E:  MOVWF  x29
0A620:  MOVLB  0
0A622:  CALL   19C2
....................                write_eeprom(44,(int8)sg1); 
0A626:  CLRF   FAA
0A628:  MOVLW  2C
0A62A:  MOVWF  FA9
0A62C:  MOVFF  386,FA8
0A630:  BCF    FA6.6
0A632:  BCF    FA6.7
0A634:  BSF    FA6.2
0A636:  MOVF   FF2,W
0A638:  MOVWF  00
0A63A:  BCF    FF2.6
0A63C:  BCF    FF2.7
0A63E:  MOVLB  F
0A640:  MOVLW  55
0A642:  MOVWF  FA7
0A644:  MOVLW  AA
0A646:  MOVWF  FA7
0A648:  BSF    FA6.1
0A64A:  BTFSC  FA6.1
0A64C:  BRA    A64A
0A64E:  BCF    FA6.2
0A650:  MOVF   00,W
0A652:  IORWF  FF2,F
....................                delay_ms(10); 
0A654:  MOVLW  0A
0A656:  MOVLB  4
0A658:  MOVWF  x29
0A65A:  MOVLB  0
0A65C:  CALL   19C2
....................                Buzzer_on; 
0A660:  BSF    F8C.0
0A662:  BCF    F95.0
....................                delay_ms(1000); 
0A664:  MOVLW  04
0A666:  MOVLB  4
0A668:  MOVWF  x14
0A66A:  MOVLW  FA
0A66C:  MOVWF  x29
0A66E:  MOVLB  0
0A670:  CALL   19C2
0A674:  MOVLB  4
0A676:  DECFSZ x14,F
0A678:  BRA    A66A
....................                Buzzer_off; 
0A67A:  BCF    F8C.0
0A67C:  BCF    F95.0
....................                delay_ms(1000); 
0A67E:  MOVLW  04
0A680:  MOVWF  x14
0A682:  MOVLW  FA
0A684:  MOVWF  x29
0A686:  MOVLB  0
0A688:  CALL   19C2
0A68C:  MOVLB  4
0A68E:  DECFSZ x14,F
0A690:  BRA    A682
....................                Buzzer_on; 
0A692:  BSF    F8C.0
0A694:  BCF    F95.0
....................                delay_ms(1000); 
0A696:  MOVLW  04
0A698:  MOVWF  x14
0A69A:  MOVLW  FA
0A69C:  MOVWF  x29
0A69E:  MOVLB  0
0A6A0:  CALL   19C2
0A6A4:  MOVLB  4
0A6A6:  DECFSZ x14,F
0A6A8:  BRA    A69A
....................                Buzzer_off; 
0A6AA:  BCF    F8C.0
0A6AC:  BCF    F95.0
0A6AE:  MOVLB  0
....................             } 
....................          } 
....................           
....................          if(DOWN){ 
0A6B0:  BSF    F93.1
0A6B2:  BTFSC  F81.1
0A6B4:  BRA    A7F8
....................             delay_ms(100); 
0A6B6:  MOVLW  64
0A6B8:  MOVLB  4
0A6BA:  MOVWF  x29
0A6BC:  MOVLB  0
0A6BE:  CALL   19C2
....................             if(DOWN){ 
0A6C2:  BSF    F93.1
0A6C4:  BTFSC  F81.1
0A6C6:  BRA    A7F8
....................                G2=41-sensores(3); 
0A6C8:  MOVLW  03
0A6CA:  MOVLB  4
0A6CC:  MOVWF  x15
0A6CE:  MOVLB  0
0A6D0:  CALL   40F8
0A6D4:  MOVFF  FEA,415
0A6D8:  MOVFF  FE9,414
0A6DC:  BSF    FD8.1
0A6DE:  MOVLB  4
0A6E0:  CLRF   x2C
0A6E2:  CLRF   x2B
0A6E4:  MOVLW  24
0A6E6:  MOVWF  x2A
0A6E8:  MOVLW  84
0A6EA:  MOVWF  x29
0A6EC:  MOVFF  03,430
0A6F0:  MOVFF  02,42F
0A6F4:  MOVFF  01,42E
0A6F8:  MOVFF  00,42D
0A6FC:  MOVLB  0
0A6FE:  CALL   1B7E
0A702:  MOVFF  415,FEA
0A706:  MOVFF  414,FE9
0A70A:  MOVFF  03,42C
0A70E:  MOVFF  02,42B
0A712:  MOVFF  01,42A
0A716:  MOVFF  00,429
0A71A:  CALL   47DE
0A71E:  MOVFF  01,385
....................                if(G2<0) 
0A722:  MOVLB  3
0A724:  BTFSC  x85.7
0A726:  BRA    A72A
0A728:  BRA    A730
....................                   sg2=10; 
0A72A:  MOVLW  0A
0A72C:  MOVWF  x87
....................                else 
0A72E:  BRA    A734
....................                   sg2=5; 
0A730:  MOVLW  05
0A732:  MOVWF  x87
....................                    
....................                write_eeprom(43,(int8)G2); 
0A734:  CLRF   FAA
0A736:  MOVLW  2B
0A738:  MOVWF  FA9
0A73A:  MOVFF  385,FA8
0A73E:  BCF    FA6.6
0A740:  BCF    FA6.7
0A742:  BSF    FA6.2
0A744:  MOVF   FF2,W
0A746:  MOVWF  00
0A748:  BCF    FF2.6
0A74A:  BCF    FF2.7
0A74C:  MOVLB  F
0A74E:  MOVLW  55
0A750:  MOVWF  FA7
0A752:  MOVLW  AA
0A754:  MOVWF  FA7
0A756:  BSF    FA6.1
0A758:  BTFSC  FA6.1
0A75A:  BRA    A758
0A75C:  BCF    FA6.2
0A75E:  MOVF   00,W
0A760:  IORWF  FF2,F
....................                delay_ms(10); 
0A762:  MOVLW  0A
0A764:  MOVLB  4
0A766:  MOVWF  x29
0A768:  MOVLB  0
0A76A:  CALL   19C2
....................                write_eeprom(45,(int8)sg2); 
0A76E:  CLRF   FAA
0A770:  MOVLW  2D
0A772:  MOVWF  FA9
0A774:  MOVFF  387,FA8
0A778:  BCF    FA6.6
0A77A:  BCF    FA6.7
0A77C:  BSF    FA6.2
0A77E:  MOVF   FF2,W
0A780:  MOVWF  00
0A782:  BCF    FF2.6
0A784:  BCF    FF2.7
0A786:  MOVLB  F
0A788:  MOVLW  55
0A78A:  MOVWF  FA7
0A78C:  MOVLW  AA
0A78E:  MOVWF  FA7
0A790:  BSF    FA6.1
0A792:  BTFSC  FA6.1
0A794:  BRA    A792
0A796:  BCF    FA6.2
0A798:  MOVF   00,W
0A79A:  IORWF  FF2,F
....................                delay_ms(10); 
0A79C:  MOVLW  0A
0A79E:  MOVLB  4
0A7A0:  MOVWF  x29
0A7A2:  MOVLB  0
0A7A4:  CALL   19C2
....................                Buzzer_on; 
0A7A8:  BSF    F8C.0
0A7AA:  BCF    F95.0
....................                delay_ms(1000); 
0A7AC:  MOVLW  04
0A7AE:  MOVLB  4
0A7B0:  MOVWF  x14
0A7B2:  MOVLW  FA
0A7B4:  MOVWF  x29
0A7B6:  MOVLB  0
0A7B8:  CALL   19C2
0A7BC:  MOVLB  4
0A7BE:  DECFSZ x14,F
0A7C0:  BRA    A7B2
....................                Buzzer_off; 
0A7C2:  BCF    F8C.0
0A7C4:  BCF    F95.0
....................                delay_ms(1000); 
0A7C6:  MOVLW  04
0A7C8:  MOVWF  x14
0A7CA:  MOVLW  FA
0A7CC:  MOVWF  x29
0A7CE:  MOVLB  0
0A7D0:  CALL   19C2
0A7D4:  MOVLB  4
0A7D6:  DECFSZ x14,F
0A7D8:  BRA    A7CA
....................                Buzzer_on; 
0A7DA:  BSF    F8C.0
0A7DC:  BCF    F95.0
....................                delay_ms(1000); 
0A7DE:  MOVLW  04
0A7E0:  MOVWF  x14
0A7E2:  MOVLW  FA
0A7E4:  MOVWF  x29
0A7E6:  MOVLB  0
0A7E8:  CALL   19C2
0A7EC:  MOVLB  4
0A7EE:  DECFSZ x14,F
0A7F0:  BRA    A7E2
....................                Buzzer_off; 
0A7F2:  BCF    F8C.0
0A7F4:  BCF    F95.0
0A7F6:  MOVLB  0
0A7F8:  MOVLB  3
....................             } 
....................          } 
....................      } 
.................... //_--------------------------------------------------------------------------------------------------------------------------------------------------------     
....................  
.................... //_--------------------------------------------------------------------------------------------------------------------------------------------------------       
....................       if(Menu==7){ //Menu de Configuracin de Fecha y Hora 
0A7FA:  MOVF   x3A,W
0A7FC:  SUBLW  07
0A7FE:  BTFSS  FD8.2
0A800:  BRA    AC28
....................        
....................          if(RX_Buffer[4]==0x0a){//Selecciono Hora 
0A802:  MOVF   34,W
0A804:  SUBLW  0A
0A806:  BNZ   A80C
....................             Opcion=4; 
0A808:  MOVLW  04
0A80A:  MOVWF  x42
....................          } 
....................           
....................          if(RX_Buffer[4]==0x0b){//Selecciono Minuto 
0A80C:  MOVF   34,W
0A80E:  SUBLW  0B
0A810:  BNZ   A816
....................             Opcion=5; 
0A812:  MOVLW  05
0A814:  MOVWF  x42
....................          } 
....................           
....................          if(RX_Buffer[4]==0x0c){//Selecciono Dia 
0A816:  MOVF   34,W
0A818:  SUBLW  0C
0A81A:  BNZ   A820
....................             Opcion=1; 
0A81C:  MOVLW  01
0A81E:  MOVWF  x42
....................          } 
....................           
....................          if(RX_Buffer[4]==0x0d){//Selecciono Hora 
0A820:  MOVF   34,W
0A822:  SUBLW  0D
0A824:  BNZ   A82A
....................             Opcion=2; 
0A826:  MOVLW  02
0A828:  MOVWF  x42
....................          } 
....................           
....................          if(RX_Buffer[4]==0x0e){//Selecciono Year 
0A82A:  MOVF   34,W
0A82C:  SUBLW  0E
0A82E:  BNZ   A834
....................             Opcion=3; 
0A830:  MOVLW  03
0A832:  MOVWF  x42
....................          } 
....................           
....................          if(RIGHT){ 
0A834:  BSF    F93.2
0A836:  BTFSC  F81.2
0A838:  BRA    A850
....................             delay_ms(200); 
0A83A:  MOVLW  C8
0A83C:  MOVLB  4
0A83E:  MOVWF  x29
0A840:  MOVLB  0
0A842:  CALL   19C2
....................             if(RIGHT){ 
0A846:  BSF    F93.2
0A848:  BTFSC  F81.2
0A84A:  BRA    A852
....................                Opcion++; 
0A84C:  MOVLB  3
0A84E:  INCF   x42,F
0A850:  MOVLB  0
....................             } 
....................          } 
....................          if(Opcion>5) 
0A852:  MOVLB  3
0A854:  MOVF   x42,W
0A856:  SUBLW  05
0A858:  BC    A85E
....................             Opcion=1; 
0A85A:  MOVLW  01
0A85C:  MOVWF  x42
....................          if(Opcion<1) 
0A85E:  MOVF   x42,F
0A860:  BNZ   A866
....................             Opcion=5; 
0A862:  MOVLW  05
0A864:  MOVWF  x42
....................              
....................          if(RX_Buffer[4]==0x11 || LEFT){//Selecciono Regresar 
0A866:  MOVF   34,W
0A868:  SUBLW  11
0A86A:  BZ    A872
0A86C:  BSF    F93.3
0A86E:  BTFSC  F81.3
0A870:  BRA    A98A
....................             printf("page MenuPrincipal"); 
0A872:  MOVLW  42
0A874:  MOVWF  FF6
0A876:  MOVLW  0E
0A878:  MOVWF  FF7
0A87A:  MOVLW  00
0A87C:  MOVWF  FF8
0A87E:  MOVLB  0
0A880:  CALL   4078
....................             SendDataDisplay();   
0A884:  CALL   40AA
....................             PantallaPrincipal=0; 
0A888:  MOVLB  2
0A88A:  CLRF   xCE
....................             Op=OFF; 
0A88C:  MOVLB  0
0A88E:  BCF    xA2.1
....................             Op2=OFF; 
0A890:  BCF    xA2.2
....................              
....................             if(esBisiesto(YearTx)) 
0A892:  MOVFF  37B,414
0A896:  CALL   51F2
0A89A:  MOVF   01,F
0A89C:  BZ    A8B8
....................                Modulo=Bisiesto[MesTx]; 
0A89E:  CLRF   03
0A8A0:  MOVLB  3
0A8A2:  MOVF   x7C,W
0A8A4:  ADDLW  93
0A8A6:  MOVWF  FE9
0A8A8:  MOVLW  00
0A8AA:  ADDWFC 03,W
0A8AC:  MOVWF  FEA
0A8AE:  MOVFF  FEF,2D0
0A8B2:  MOVLB  2
....................             else 
0A8B4:  BRA    A8CE
0A8B6:  MOVLB  0
....................                Modulo=Regular[MesTx]; 
0A8B8:  CLRF   03
0A8BA:  MOVLB  3
0A8BC:  MOVF   x7C,W
0A8BE:  ADDLW  87
0A8C0:  MOVWF  FE9
0A8C2:  MOVLW  00
0A8C4:  ADDWFC 03,W
0A8C6:  MOVWF  FEA
0A8C8:  MOVFF  FEF,2D0
0A8CC:  MOVLB  2
....................           
....................             dowTx=((YearTx-1)%7+((YearTx-1)/4-3*((YearTx-1)/100+1)/4)%7+Modulo+DiaTx%7)%7; 
0A8CE:  MOVLW  01
0A8D0:  MOVLB  3
0A8D2:  SUBWF  x7B,W
0A8D4:  MOVLB  4
0A8D6:  MOVWF  x15
0A8D8:  MOVWF  x1E
0A8DA:  MOVLW  07
0A8DC:  MOVWF  x1F
0A8DE:  MOVLB  0
0A8E0:  CALL   4D5E
0A8E4:  MOVFF  00,414
0A8E8:  MOVLW  01
0A8EA:  MOVLB  3
0A8EC:  SUBWF  x7B,W
0A8EE:  MOVWF  00
0A8F0:  RRCF   00,W
0A8F2:  MOVLB  4
0A8F4:  MOVWF  x15
0A8F6:  RRCF   x15,F
0A8F8:  MOVLW  3F
0A8FA:  ANDWF  x15,F
0A8FC:  MOVLW  01
0A8FE:  MOVLB  3
0A900:  SUBWF  x7B,W
0A902:  MOVLB  4
0A904:  MOVWF  x17
0A906:  MOVWF  x1E
0A908:  MOVLW  64
0A90A:  MOVWF  x1F
0A90C:  MOVLB  0
0A90E:  CALL   4D5E
0A912:  MOVLW  01
0A914:  ADDWF  01,W
0A916:  MULLW  03
0A918:  MOVFF  FF3,00
0A91C:  RRCF   00,F
0A91E:  RRCF   00,F
0A920:  MOVLW  3F
0A922:  ANDWF  00,F
0A924:  MOVF   00,W
0A926:  MOVLB  4
0A928:  SUBWF  x15,W
0A92A:  MOVWF  x16
0A92C:  MOVWF  x1E
0A92E:  MOVLW  07
0A930:  MOVWF  x1F
0A932:  MOVLB  0
0A934:  CALL   4D5E
0A938:  MOVF   00,W
0A93A:  MOVLB  4
0A93C:  ADDWF  x14,W
0A93E:  MOVLB  2
0A940:  ADDWF  xD0,W
0A942:  MOVLB  4
0A944:  MOVWF  x14
0A946:  MOVFF  37D,41E
0A94A:  MOVLW  07
0A94C:  MOVWF  x1F
0A94E:  MOVLB  0
0A950:  CALL   4D5E
0A954:  MOVF   00,W
0A956:  MOVLB  4
0A958:  ADDWF  x14,W
0A95A:  MOVWF  x15
0A95C:  MOVWF  x1E
0A95E:  MOVLW  07
0A960:  MOVWF  x1F
0A962:  MOVLB  0
0A964:  CALL   4D5E
0A968:  MOVFF  00,381
....................             rtc_set_datetime(DiaTx,MesTx,YearTx,dowTx,HoraTx,MinutoTx); 
0A96C:  MOVFF  37D,414
0A970:  MOVFF  37C,415
0A974:  MOVFF  37B,416
0A978:  MOVFF  381,417
0A97C:  MOVFF  37E,418
0A980:  MOVFF  37F,419
0A984:  GOTO   5274
0A988:  MOVLB  3
....................          } 
....................           
....................          if((RX_Buffer[4]==0x2a)|| UP){//Tecla Arriba Oprimida 
0A98A:  MOVF   34,W
0A98C:  SUBLW  2A
0A98E:  BZ    A996
0A990:  BSF    F93.0
0A992:  BTFSC  F81.0
0A994:  BRA    AA94
....................             delay_ms(200); 
0A996:  MOVLW  C8
0A998:  MOVLB  4
0A99A:  MOVWF  x29
0A99C:  MOVLB  0
0A99E:  CALL   19C2
....................             if((RX_Buffer[4]==0x2a)|| UP){    
0A9A2:  MOVF   34,W
0A9A4:  SUBLW  2A
0A9A6:  BZ    A9AE
0A9A8:  BSF    F93.0
0A9AA:  BTFSC  F81.0
0A9AC:  BRA    AA96
....................                if(Opcion==1){ 
0A9AE:  MOVLB  3
0A9B0:  DECFSZ x42,W
0A9B2:  BRA    AA40
....................                   if(MesTx==2){ 
0A9B4:  MOVF   x7C,W
0A9B6:  SUBLW  02
0A9B8:  BNZ   A9EE
....................                      if(esBisiesto(YearTx)){ 
0A9BA:  MOVFF  37B,414
0A9BE:  MOVLB  0
0A9C0:  CALL   51F2
0A9C4:  MOVF   01,F
0A9C6:  BZ    A9DC
....................                         if(DiaTx<29) 
0A9C8:  MOVLB  3
0A9CA:  MOVF   x7D,W
0A9CC:  SUBLW  1C
0A9CE:  BNC   A9D4
....................                            DiaTx++; 
0A9D0:  INCF   x7D,F
....................                         else 
0A9D2:  BRA    A9D8
....................                            DiaTx=1;    
0A9D4:  MOVLW  01
0A9D6:  MOVWF  x7D
....................                      }else{ 
0A9D8:  BRA    A9EC
0A9DA:  MOVLB  0
....................                         if(DiaTx<28) 
0A9DC:  MOVLB  3
0A9DE:  MOVF   x7D,W
0A9E0:  SUBLW  1B
0A9E2:  BNC   A9E8
....................                            DiaTx++; 
0A9E4:  INCF   x7D,F
....................                         else 
0A9E6:  BRA    A9EC
....................                            DiaTx=1;    
0A9E8:  MOVLW  01
0A9EA:  MOVWF  x7D
....................                      } 
....................                   }else{ 
0A9EC:  BRA    AA3E
....................                      if(MesTx<=7){ 
0A9EE:  MOVF   x7C,W
0A9F0:  SUBLW  07
0A9F2:  BNC   AA1A
....................                         if(MesTx % 2 ==0){ 
0A9F4:  MOVF   x7C,W
0A9F6:  ANDLW  01
0A9F8:  BNZ   AA0A
....................                            if(DiaTx<30) 
0A9FA:  MOVF   x7D,W
0A9FC:  SUBLW  1D
0A9FE:  BNC   AA04
....................                               DiaTx++;     
0AA00:  INCF   x7D,F
....................                            else 
0AA02:  BRA    AA08
....................                               DiaTx=1;    
0AA04:  MOVLW  01
0AA06:  MOVWF  x7D
....................                         }else{ 
0AA08:  BRA    AA18
....................                            if(DiaTx<31) 
0AA0A:  MOVF   x7D,W
0AA0C:  SUBLW  1E
0AA0E:  BNC   AA14
....................                               DiaTx++;     
0AA10:  INCF   x7D,F
....................                            else 
0AA12:  BRA    AA18
....................                               DiaTx=1;    
0AA14:  MOVLW  01
0AA16:  MOVWF  x7D
....................                         }     
....................                      }else{ 
0AA18:  BRA    AA3E
....................                         if(MesTx % 2 ==0){ 
0AA1A:  MOVF   x7C,W
0AA1C:  ANDLW  01
0AA1E:  BNZ   AA30
....................                            if(DiaTx<31) 
0AA20:  MOVF   x7D,W
0AA22:  SUBLW  1E
0AA24:  BNC   AA2A
....................                               DiaTx++;   
0AA26:  INCF   x7D,F
....................                            else 
0AA28:  BRA    AA2E
....................                               DiaTx=1; 
0AA2A:  MOVLW  01
0AA2C:  MOVWF  x7D
....................                         }else{ 
0AA2E:  BRA    AA3E
....................                            if(DiaTx<30) 
0AA30:  MOVF   x7D,W
0AA32:  SUBLW  1D
0AA34:  BNC   AA3A
....................                               DiaTx++;     
0AA36:  INCF   x7D,F
....................                            else 
0AA38:  BRA    AA3E
....................                               DiaTx=1; 
0AA3A:  MOVLW  01
0AA3C:  MOVWF  x7D
....................                         }     
....................                      } 
....................                   } 
....................                }else if(Opcion==2){ 
0AA3E:  BRA    AA90
0AA40:  MOVF   x42,W
0AA42:  SUBLW  02
0AA44:  BNZ   AA56
....................                   if(MesTx<12) 
0AA46:  MOVF   x7C,W
0AA48:  SUBLW  0B
0AA4A:  BNC   AA50
....................                      MesTx++; 
0AA4C:  INCF   x7C,F
....................                   else 
0AA4E:  BRA    AA54
....................                      MesTx=1; 
0AA50:  MOVLW  01
0AA52:  MOVWF  x7C
....................                }else if(Opcion==3){ 
0AA54:  BRA    AA90
0AA56:  MOVF   x42,W
0AA58:  SUBLW  03
0AA5A:  BNZ   AA6A
....................                   if(YearTx<99) 
0AA5C:  MOVF   x7B,W
0AA5E:  SUBLW  62
0AA60:  BNC   AA66
....................                      YearTx++; 
0AA62:  INCF   x7B,F
....................                   else  
0AA64:  BRA    AA68
....................                      YearTx=0; 
0AA66:  CLRF   x7B
....................                }else if(Opcion==4){ 
0AA68:  BRA    AA90
0AA6A:  MOVF   x42,W
0AA6C:  SUBLW  04
0AA6E:  BNZ   AA7E
....................                   if(HoraTx<24) 
0AA70:  MOVF   x7E,W
0AA72:  SUBLW  17
0AA74:  BNC   AA7A
....................                      HoraTx++; 
0AA76:  INCF   x7E,F
....................                   else 
0AA78:  BRA    AA7C
....................                      HoraTx=0; 
0AA7A:  CLRF   x7E
....................                }else if(Opcion==5){ 
0AA7C:  BRA    AA90
0AA7E:  MOVF   x42,W
0AA80:  SUBLW  05
0AA82:  BNZ   AA90
....................                   if(MinutoTx<59) 
0AA84:  MOVF   x7F,W
0AA86:  SUBLW  3A
0AA88:  BNC   AA8E
....................                      MinutoTx++; 
0AA8A:  INCF   x7F,F
....................                   else 
0AA8C:  BRA    AA90
....................                      MinutoTx=0; 
0AA8E:  CLRF   x7F
....................                } 
....................                RX_Buffer[4]=0x00; 
0AA90:  CLRF   34
....................                RX_Buffer2[4]=0x00; 
0AA92:  CLRF   3F
0AA94:  MOVLB  0
....................             } 
....................          } 
....................           
....................          if(RX_Buffer[4]==0x2b || DOWN){//Tecla Abajo Oprimida 
0AA96:  MOVF   34,W
0AA98:  SUBLW  2B
0AA9A:  BZ    AAA2
0AA9C:  BSF    F93.1
0AA9E:  BTFSC  F81.1
0AAA0:  BRA    AB1E
....................             delay_ms(200); 
0AAA2:  MOVLW  C8
0AAA4:  MOVLB  4
0AAA6:  MOVWF  x29
0AAA8:  MOVLB  0
0AAAA:  CALL   19C2
....................             if(RX_Buffer[4]==0x2b || DOWN){    
0AAAE:  MOVF   34,W
0AAB0:  SUBLW  2B
0AAB2:  BZ    AABA
0AAB4:  BSF    F93.1
0AAB6:  BTFSC  F81.1
0AAB8:  BRA    AB1E
....................                if(Opcion==1){ 
0AABA:  MOVLB  3
0AABC:  DECFSZ x42,W
0AABE:  BRA    AAC8
....................                   if(DiaTx>0) 
0AAC0:  MOVF   x7D,F
0AAC2:  BZ    AAC6
....................                      DiaTx--; 
0AAC4:  DECF   x7D,F
....................                }else if(Opcion==2){ 
0AAC6:  BRA    AB18
0AAC8:  MOVF   x42,W
0AACA:  SUBLW  02
0AACC:  BNZ   AADE
....................                   if(MesTx>1) 
0AACE:  MOVF   x7C,W
0AAD0:  SUBLW  01
0AAD2:  BC    AAD8
....................                      MesTx--; 
0AAD4:  DECF   x7C,F
....................                   else 
0AAD6:  BRA    AADC
....................                      MesTx=12; 
0AAD8:  MOVLW  0C
0AADA:  MOVWF  x7C
....................                }else if(Opcion==3){ 
0AADC:  BRA    AB18
0AADE:  MOVF   x42,W
0AAE0:  SUBLW  03
0AAE2:  BNZ   AAF2
....................                   if(YearTx>0) 
0AAE4:  MOVF   x7B,F
0AAE6:  BZ    AAEC
....................                      YearTx--; 
0AAE8:  DECF   x7B,F
....................                   else 
0AAEA:  BRA    AAF0
....................                      YearTx=99; 
0AAEC:  MOVLW  63
0AAEE:  MOVWF  x7B
....................                }else if(Opcion==4){ 
0AAF0:  BRA    AB18
0AAF2:  MOVF   x42,W
0AAF4:  SUBLW  04
0AAF6:  BNZ   AB06
....................                   if(HoraTx>0) 
0AAF8:  MOVF   x7E,F
0AAFA:  BZ    AB00
....................                      HoraTx--; 
0AAFC:  DECF   x7E,F
....................                   else 
0AAFE:  BRA    AB04
....................                      HoraTx=23; 
0AB00:  MOVLW  17
0AB02:  MOVWF  x7E
....................                }else if(Opcion==5){ 
0AB04:  BRA    AB18
0AB06:  MOVF   x42,W
0AB08:  SUBLW  05
0AB0A:  BNZ   AB18
....................                   if(MinutoTx>0) 
0AB0C:  MOVF   x7F,F
0AB0E:  BZ    AB14
....................                      MinutoTx--; 
0AB10:  DECF   x7F,F
....................                   else 
0AB12:  BRA    AB18
....................                      MinutoTx=59; 
0AB14:  MOVLW  3B
0AB16:  MOVWF  x7F
....................                } 
....................                RX_Buffer[4]=0x00; 
0AB18:  CLRF   34
....................                RX_Buffer2[4]=0x00; 
0AB1A:  CLRF   3F
0AB1C:  MOVLB  0
....................             } 
....................          } 
....................        
....................       printf("thora.txt=\"%02u\"",HoraTx); 
0AB1E:  MOVLW  56
0AB20:  MOVWF  FF6
0AB22:  MOVLW  0E
0AB24:  MOVWF  FF7
0AB26:  MOVLW  00
0AB28:  MOVWF  FF8
0AB2A:  MOVLW  0B
0AB2C:  MOVLB  4
0AB2E:  MOVWF  x19
0AB30:  MOVLB  0
0AB32:  CALL   4D2C
0AB36:  MOVFF  37E,419
0AB3A:  MOVLW  01
0AB3C:  MOVLB  4
0AB3E:  MOVWF  x1A
0AB40:  MOVLB  0
0AB42:  CALL   4D8A
0AB46:  MOVLW  22
0AB48:  BTFSS  F9E.4
0AB4A:  BRA    AB48
0AB4C:  MOVWF  FAD
....................       SendDataDisplay(); 
0AB4E:  CALL   40AA
....................       printf("tminutos.txt=\"%02u\"",MinutoTx); 
0AB52:  MOVLW  68
0AB54:  MOVWF  FF6
0AB56:  MOVLW  0E
0AB58:  MOVWF  FF7
0AB5A:  MOVLW  00
0AB5C:  MOVWF  FF8
0AB5E:  MOVLW  0E
0AB60:  MOVLB  4
0AB62:  MOVWF  x19
0AB64:  MOVLB  0
0AB66:  CALL   4D2C
0AB6A:  MOVFF  37F,419
0AB6E:  MOVLW  01
0AB70:  MOVLB  4
0AB72:  MOVWF  x1A
0AB74:  MOVLB  0
0AB76:  CALL   4D8A
0AB7A:  MOVLW  22
0AB7C:  BTFSS  F9E.4
0AB7E:  BRA    AB7C
0AB80:  MOVWF  FAD
....................       SendDataDisplay(); 
0AB82:  CALL   40AA
....................       printf("tdia.txt=\"%02u\"",DiaTx); 
0AB86:  MOVLW  7C
0AB88:  MOVWF  FF6
0AB8A:  MOVLW  0E
0AB8C:  MOVWF  FF7
0AB8E:  MOVLW  00
0AB90:  MOVWF  FF8
0AB92:  MOVLW  0A
0AB94:  MOVLB  4
0AB96:  MOVWF  x19
0AB98:  MOVLB  0
0AB9A:  CALL   4D2C
0AB9E:  MOVFF  37D,419
0ABA2:  MOVLW  01
0ABA4:  MOVLB  4
0ABA6:  MOVWF  x1A
0ABA8:  MOVLB  0
0ABAA:  CALL   4D8A
0ABAE:  MOVLW  22
0ABB0:  BTFSS  F9E.4
0ABB2:  BRA    ABB0
0ABB4:  MOVWF  FAD
....................       SendDataDisplay(); 
0ABB6:  CALL   40AA
....................       printf("tmes.txt=\"%02u\"",MesTx); 
0ABBA:  MOVLW  8C
0ABBC:  MOVWF  FF6
0ABBE:  MOVLW  0E
0ABC0:  MOVWF  FF7
0ABC2:  MOVLW  00
0ABC4:  MOVWF  FF8
0ABC6:  MOVLW  0A
0ABC8:  MOVLB  4
0ABCA:  MOVWF  x19
0ABCC:  MOVLB  0
0ABCE:  CALL   4D2C
0ABD2:  MOVFF  37C,419
0ABD6:  MOVLW  01
0ABD8:  MOVLB  4
0ABDA:  MOVWF  x1A
0ABDC:  MOVLB  0
0ABDE:  CALL   4D8A
0ABE2:  MOVLW  22
0ABE4:  BTFSS  F9E.4
0ABE6:  BRA    ABE4
0ABE8:  MOVWF  FAD
....................       SendDataDisplay(); 
0ABEA:  CALL   40AA
....................       printf("tyear.txt=\"%02u\"",YearTx); 
0ABEE:  MOVLW  9C
0ABF0:  MOVWF  FF6
0ABF2:  MOVLW  0E
0ABF4:  MOVWF  FF7
0ABF6:  MOVLW  00
0ABF8:  MOVWF  FF8
0ABFA:  MOVLW  0B
0ABFC:  MOVLB  4
0ABFE:  MOVWF  x19
0AC00:  MOVLB  0
0AC02:  CALL   4D2C
0AC06:  MOVFF  37B,419
0AC0A:  MOVLW  01
0AC0C:  MOVLB  4
0AC0E:  MOVWF  x1A
0AC10:  MOVLB  0
0AC12:  CALL   4D8A
0AC16:  MOVLW  22
0AC18:  BTFSS  F9E.4
0AC1A:  BRA    AC18
0AC1C:  MOVWF  FAD
....................       SendDataDisplay(); 
0AC1E:  CALL   40AA
....................       LimitaDia();   
0AC22:  GOTO   5330
0AC26:  MOVLB  3
....................     } 
.................... //_--------------------------------------------------------------------------------------------------------------------------------------------------------        
....................  
.................... //_-------------------------------------------------------------------------------------------------------------------------------------------------------- 
....................    if(Menu==8){ //Menu Ciclos Personalizados 
0AC28:  MOVF   x3A,W
0AC2A:  SUBLW  08
0AC2C:  BTFSS  FD8.2
0AC2E:  GOTO   BA8A
....................       printf("fecha.txt=\"T:%3.1fC Fecha:%02u/%02u/20%02u Hora: %02u:%02u:%02u\"",Temperatura,Dia,Mes,Year,Hora,Minuto,Segundo); 
0AC32:  MOVLW  AE
0AC34:  MOVWF  FF6
0AC36:  MOVLW  0E
0AC38:  MOVWF  FF7
0AC3A:  MOVLW  00
0AC3C:  MOVWF  FF8
0AC3E:  MOVLW  0D
0AC40:  MOVLB  4
0AC42:  MOVWF  x19
0AC44:  MOVLB  0
0AC46:  CALL   4D2C
0AC4A:  MOVLW  02
0AC4C:  MOVWF  FE9
0AC4E:  MOVFF  31B,41C
0AC52:  MOVFF  31A,41B
0AC56:  MOVFF  319,41A
0AC5A:  MOVFF  318,419
0AC5E:  MOVLW  01
0AC60:  MOVLB  4
0AC62:  MOVWF  x1D
0AC64:  MOVLB  0
0AC66:  CALL   4ECC
0AC6A:  MOVLW  C0
0AC6C:  MOVWF  FF6
0AC6E:  MOVLW  0E
0AC70:  MOVWF  FF7
0AC72:  MOVLW  00
0AC74:  MOVWF  FF8
0AC76:  MOVLW  09
0AC78:  MOVLB  4
0AC7A:  MOVWF  x19
0AC7C:  MOVLB  0
0AC7E:  CALL   4D2C
0AC82:  MOVFF  376,419
0AC86:  MOVLW  01
0AC88:  MOVLB  4
0AC8A:  MOVWF  x1A
0AC8C:  MOVLB  0
0AC8E:  CALL   4D8A
0AC92:  MOVLW  2F
0AC94:  BTFSS  F9E.4
0AC96:  BRA    AC94
0AC98:  MOVWF  FAD
0AC9A:  MOVFF  375,419
0AC9E:  MOVLW  01
0ACA0:  MOVLB  4
0ACA2:  MOVWF  x1A
0ACA4:  MOVLB  0
0ACA6:  CALL   4D8A
0ACAA:  MOVLW  2F
0ACAC:  BTFSS  F9E.4
0ACAE:  BRA    ACAC
0ACB0:  MOVWF  FAD
0ACB2:  MOVLW  32
0ACB4:  BTFSS  F9E.4
0ACB6:  BRA    ACB4
0ACB8:  MOVWF  FAD
0ACBA:  MOVLW  30
0ACBC:  BTFSS  F9E.4
0ACBE:  BRA    ACBC
0ACC0:  MOVWF  FAD
0ACC2:  MOVFF  374,419
0ACC6:  MOVLW  01
0ACC8:  MOVLB  4
0ACCA:  MOVWF  x1A
0ACCC:  MOVLB  0
0ACCE:  CALL   4D8A
0ACD2:  MOVLW  D9
0ACD4:  MOVWF  FF6
0ACD6:  MOVLW  0E
0ACD8:  MOVWF  FF7
0ACDA:  MOVLW  00
0ACDC:  MOVWF  FF8
0ACDE:  MOVLW  07
0ACE0:  MOVLB  4
0ACE2:  MOVWF  x19
0ACE4:  MOVLB  0
0ACE6:  CALL   4D2C
0ACEA:  MOVFF  377,419
0ACEE:  MOVLW  01
0ACF0:  MOVLB  4
0ACF2:  MOVWF  x1A
0ACF4:  MOVLB  0
0ACF6:  CALL   4D8A
0ACFA:  MOVLW  3A
0ACFC:  BTFSS  F9E.4
0ACFE:  BRA    ACFC
0AD00:  MOVWF  FAD
0AD02:  MOVFF  378,419
0AD06:  MOVLW  01
0AD08:  MOVLB  4
0AD0A:  MOVWF  x1A
0AD0C:  MOVLB  0
0AD0E:  CALL   4D8A
0AD12:  MOVLW  3A
0AD14:  BTFSS  F9E.4
0AD16:  BRA    AD14
0AD18:  MOVWF  FAD
0AD1A:  MOVFF  379,419
0AD1E:  MOVLW  01
0AD20:  MOVLB  4
0AD22:  MOVWF  x1A
0AD24:  MOVLB  0
0AD26:  CALL   4D8A
0AD2A:  MOVLW  22
0AD2C:  BTFSS  F9E.4
0AD2E:  BRA    AD2C
0AD30:  MOVWF  FAD
....................       SendDataDisplay(); 
0AD32:  CALL   40AA
....................       GuardaEEPROM=OFF; 
0AD36:  BCF    xA2.5
....................        
....................       if(RX_Buffer[4]>0x00 && RX_Buffer[4]<0x04){//Personalizados 
0AD38:  MOVF   34,F
0AD3A:  BTFSC  FD8.2
0AD3C:  BRA    AF6A
0AD3E:  MOVF   34,W
0AD40:  SUBLW  03
0AD42:  BTFSS  FD8.0
0AD44:  BRA    AF6A
....................          printf("ciclo.txt=\"CICLO P%02u\"",RX_Buffer[4]+0x04); 
0AD46:  MOVLW  04
0AD48:  ADDWF  34,W
0AD4A:  MOVLB  4
0AD4C:  MOVWF  x14
0AD4E:  MOVLW  F0
0AD50:  MOVWF  FF6
0AD52:  MOVLW  0E
0AD54:  MOVWF  FF7
0AD56:  MOVLW  00
0AD58:  MOVWF  FF8
0AD5A:  MOVLW  12
0AD5C:  MOVWF  x19
0AD5E:  MOVLB  0
0AD60:  CALL   4D2C
0AD64:  MOVFF  414,419
0AD68:  MOVLW  01
0AD6A:  MOVLB  4
0AD6C:  MOVWF  x1A
0AD6E:  MOVLB  0
0AD70:  CALL   4D8A
0AD74:  MOVLW  22
0AD76:  BTFSS  F9E.4
0AD78:  BRA    AD76
0AD7A:  MOVWF  FAD
....................          SendDataDisplay();           
0AD7C:  CALL   40AA
....................          printf("temp.txt=\"%u\"",CiclosPersonalizados[RX_Buffer[4]-1].Temperatura); 
0AD80:  MOVLW  01
0AD82:  SUBWF  34,W
0AD84:  MULLW  0A
0AD86:  MOVF   FF3,W
0AD88:  MOVLB  4
0AD8A:  CLRF   x15
0AD8C:  MOVWF  x14
0AD8E:  MOVLW  EC
0AD90:  ADDWF  x14,W
0AD92:  MOVWF  FE9
0AD94:  MOVLW  03
0AD96:  ADDWFC x15,W
0AD98:  MOVWF  FEA
0AD9A:  MOVFF  FEF,414
0AD9E:  MOVLW  08
0ADA0:  MOVWF  FF6
0ADA2:  MOVLW  0F
0ADA4:  MOVWF  FF7
0ADA6:  MOVLW  00
0ADA8:  MOVWF  FF8
0ADAA:  MOVLW  0A
0ADAC:  MOVWF  x19
0ADAE:  MOVLB  0
0ADB0:  CALL   4D2C
0ADB4:  MOVFF  414,419
0ADB8:  MOVLW  1B
0ADBA:  MOVLB  4
0ADBC:  MOVWF  x1A
0ADBE:  MOVLB  0
0ADC0:  CALL   4D8A
0ADC4:  MOVLW  22
0ADC6:  BTFSS  F9E.4
0ADC8:  BRA    ADC6
0ADCA:  MOVWF  FAD
....................          SendDataDisplay(); 
0ADCC:  CALL   40AA
....................          printf("test.txt=\"%02u:%02u\"",CiclosPersonalizados[RX_Buffer[4]-1].Minutoest,CiclosPersonalizados[RX_Buffer[4]-1].Segundoest); 
0ADD0:  MOVLW  01
0ADD2:  SUBWF  34,W
0ADD4:  MULLW  0A
0ADD6:  MOVF   FF3,W
0ADD8:  MOVLB  4
0ADDA:  CLRF   x15
0ADDC:  MOVWF  x14
0ADDE:  MOVLW  09
0ADE0:  ADDWF  x14,W
0ADE2:  MOVWF  01
0ADE4:  MOVLW  00
0ADE6:  ADDWFC x15,W
0ADE8:  MOVWF  03
0ADEA:  MOVF   01,W
0ADEC:  ADDLW  EC
0ADEE:  MOVWF  FE9
0ADF0:  MOVLW  03
0ADF2:  ADDWFC 03,W
0ADF4:  MOVWF  FEA
0ADF6:  MOVFF  FEF,414
0ADFA:  MOVLW  01
0ADFC:  SUBWF  34,W
0ADFE:  MULLW  0A
0AE00:  MOVF   FF3,W
0AE02:  CLRF   x16
0AE04:  MOVWF  x15
0AE06:  MOVLW  03
0AE08:  ADDWF  x15,W
0AE0A:  MOVWF  01
0AE0C:  MOVLW  00
0AE0E:  ADDWFC x16,W
0AE10:  MOVWF  03
0AE12:  MOVF   01,W
0AE14:  ADDLW  EC
0AE16:  MOVWF  FE9
0AE18:  MOVLW  03
0AE1A:  ADDWFC 03,W
0AE1C:  MOVWF  FEA
0AE1E:  MOVFF  FEF,415
0AE22:  MOVLW  16
0AE24:  MOVWF  FF6
0AE26:  MOVLW  0F
0AE28:  MOVWF  FF7
0AE2A:  MOVLW  00
0AE2C:  MOVWF  FF8
0AE2E:  MOVLW  0A
0AE30:  MOVWF  x19
0AE32:  MOVLB  0
0AE34:  CALL   4D2C
0AE38:  MOVFF  414,419
0AE3C:  MOVLW  01
0AE3E:  MOVLB  4
0AE40:  MOVWF  x1A
0AE42:  MOVLB  0
0AE44:  CALL   4D8A
0AE48:  MOVLW  3A
0AE4A:  BTFSS  F9E.4
0AE4C:  BRA    AE4A
0AE4E:  MOVWF  FAD
0AE50:  MOVFF  415,419
0AE54:  MOVLW  01
0AE56:  MOVLB  4
0AE58:  MOVWF  x1A
0AE5A:  MOVLB  0
0AE5C:  CALL   4D8A
0AE60:  MOVLW  22
0AE62:  BTFSS  F9E.4
0AE64:  BRA    AE62
0AE66:  MOVWF  FAD
....................          SendDataDisplay(); 
0AE68:  CALL   40AA
....................          printf("tsec.txt=\"%02u:%02u\"",CiclosPersonalizados[RX_Buffer[4]-1].Minutosec,CiclosPersonalizados[RX_Buffer[4]-1].Segundosec); 
0AE6C:  MOVLW  01
0AE6E:  SUBWF  34,W
0AE70:  MULLW  0A
0AE72:  MOVF   FF3,W
0AE74:  MOVLB  4
0AE76:  CLRF   x15
0AE78:  MOVWF  x14
0AE7A:  MOVLW  04
0AE7C:  ADDWF  x14,W
0AE7E:  MOVWF  01
0AE80:  MOVLW  00
0AE82:  ADDWFC x15,W
0AE84:  MOVWF  03
0AE86:  MOVF   01,W
0AE88:  ADDLW  EC
0AE8A:  MOVWF  FE9
0AE8C:  MOVLW  03
0AE8E:  ADDWFC 03,W
0AE90:  MOVWF  FEA
0AE92:  MOVFF  FEF,414
0AE96:  MOVLW  01
0AE98:  SUBWF  34,W
0AE9A:  MULLW  0A
0AE9C:  MOVF   FF3,W
0AE9E:  CLRF   x16
0AEA0:  MOVWF  x15
0AEA2:  MOVLW  05
0AEA4:  ADDWF  x15,W
0AEA6:  MOVWF  01
0AEA8:  MOVLW  00
0AEAA:  ADDWFC x16,W
0AEAC:  MOVWF  03
0AEAE:  MOVF   01,W
0AEB0:  ADDLW  EC
0AEB2:  MOVWF  FE9
0AEB4:  MOVLW  03
0AEB6:  ADDWFC 03,W
0AEB8:  MOVWF  FEA
0AEBA:  MOVFF  FEF,415
0AEBE:  MOVLW  2C
0AEC0:  MOVWF  FF6
0AEC2:  MOVLW  0F
0AEC4:  MOVWF  FF7
0AEC6:  MOVLW  00
0AEC8:  MOVWF  FF8
0AECA:  MOVLW  0A
0AECC:  MOVWF  x19
0AECE:  MOVLB  0
0AED0:  CALL   4D2C
0AED4:  MOVFF  414,419
0AED8:  MOVLW  01
0AEDA:  MOVLB  4
0AEDC:  MOVWF  x1A
0AEDE:  MOVLB  0
0AEE0:  CALL   4D8A
0AEE4:  MOVLW  3A
0AEE6:  BTFSS  F9E.4
0AEE8:  BRA    AEE6
0AEEA:  MOVWF  FAD
0AEEC:  MOVFF  415,419
0AEF0:  MOVLW  01
0AEF2:  MOVLB  4
0AEF4:  MOVWF  x1A
0AEF6:  MOVLB  0
0AEF8:  CALL   4D8A
0AEFC:  MOVLW  22
0AEFE:  BTFSS  F9E.4
0AF00:  BRA    AEFE
0AF02:  MOVWF  FAD
....................          SendDataDisplay(); 
0AF04:  CALL   40AA
....................          printf("desfogue.txt=\"%u\"",CiclosPersonalizados[RX_Buffer[4]-1].NivelDesfogue); 
0AF08:  MOVLW  01
0AF0A:  SUBWF  34,W
0AF0C:  MULLW  0A
0AF0E:  MOVF   FF3,W
0AF10:  MOVLB  4
0AF12:  CLRF   x15
0AF14:  MOVWF  x14
0AF16:  MOVLW  08
0AF18:  ADDWF  x14,W
0AF1A:  MOVWF  01
0AF1C:  MOVLW  00
0AF1E:  ADDWFC x15,W
0AF20:  MOVWF  03
0AF22:  MOVF   01,W
0AF24:  ADDLW  EC
0AF26:  MOVWF  FE9
0AF28:  MOVLW  03
0AF2A:  ADDWFC 03,W
0AF2C:  MOVWF  FEA
0AF2E:  MOVFF  FEF,414
0AF32:  MOVLW  42
0AF34:  MOVWF  FF6
0AF36:  MOVLW  0F
0AF38:  MOVWF  FF7
0AF3A:  MOVLW  00
0AF3C:  MOVWF  FF8
0AF3E:  MOVLW  0E
0AF40:  MOVWF  x19
0AF42:  MOVLB  0
0AF44:  CALL   4D2C
0AF48:  MOVFF  414,419
0AF4C:  MOVLW  1B
0AF4E:  MOVLB  4
0AF50:  MOVWF  x1A
0AF52:  MOVLB  0
0AF54:  CALL   4D8A
0AF58:  MOVLW  22
0AF5A:  BTFSS  F9E.4
0AF5C:  BRA    AF5A
0AF5E:  MOVWF  FAD
....................          SendDataDisplay(); 
0AF60:  CALL   40AA
....................          CicloLibre=RX_Buffer[4]; 
0AF64:  MOVFF  34,32E
....................       }else if(CicloLibre==0x00){ 
0AF68:  BRA    B216
0AF6A:  MOVLB  3
0AF6C:  MOVF   x2E,F
0AF6E:  BNZ   AFDA
....................          printf("ciclo.txt=\"CICLO P--\""); 
0AF70:  MOVLW  54
0AF72:  MOVWF  FF6
0AF74:  MOVLW  0F
0AF76:  MOVWF  FF7
0AF78:  MOVLW  00
0AF7A:  MOVWF  FF8
0AF7C:  MOVLB  0
0AF7E:  CALL   4078
....................          SendDataDisplay();           
0AF82:  CALL   40AA
....................          printf("temp.txt=\"--\""); 
0AF86:  MOVLW  6A
0AF88:  MOVWF  FF6
0AF8A:  MOVLW  0F
0AF8C:  MOVWF  FF7
0AF8E:  MOVLW  00
0AF90:  MOVWF  FF8
0AF92:  CALL   4078
....................          SendDataDisplay(); 
0AF96:  CALL   40AA
....................          printf("test.txt=\"--:--\""); 
0AF9A:  MOVLW  78
0AF9C:  MOVWF  FF6
0AF9E:  MOVLW  0F
0AFA0:  MOVWF  FF7
0AFA2:  MOVLW  00
0AFA4:  MOVWF  FF8
0AFA6:  CALL   4078
....................          SendDataDisplay(); 
0AFAA:  CALL   40AA
....................          printf("tsec.txt=\"--:--\""); 
0AFAE:  MOVLW  8A
0AFB0:  MOVWF  FF6
0AFB2:  MOVLW  0F
0AFB4:  MOVWF  FF7
0AFB6:  MOVLW  00
0AFB8:  MOVWF  FF8
0AFBA:  CALL   4078
....................          SendDataDisplay(); 
0AFBE:  CALL   40AA
....................          printf("desfogue.txt=\"--\""); 
0AFC2:  MOVLW  9C
0AFC4:  MOVWF  FF6
0AFC6:  MOVLW  0F
0AFC8:  MOVWF  FF7
0AFCA:  MOVLW  00
0AFCC:  MOVWF  FF8
0AFCE:  CALL   4078
....................          SendDataDisplay(); 
0AFD2:  CALL   40AA
....................       }else if(CicloLibre>0 && CicloLibre<4){ 
0AFD6:  BRA    B216
0AFD8:  MOVLB  3
0AFDA:  MOVF   x2E,F
0AFDC:  BTFSC  FD8.2
0AFDE:  BRA    B218
0AFE0:  MOVF   x2E,W
0AFE2:  SUBLW  03
0AFE4:  BTFSS  FD8.0
0AFE6:  BRA    B218
....................          printf("ciclo.txt=\"CICLO P%02u\"",CicloLibre+0x04); 
0AFE8:  MOVLW  04
0AFEA:  ADDWF  x2E,W
0AFEC:  MOVLB  4
0AFEE:  MOVWF  x14
0AFF0:  MOVLW  AE
0AFF2:  MOVWF  FF6
0AFF4:  MOVLW  0F
0AFF6:  MOVWF  FF7
0AFF8:  MOVLW  00
0AFFA:  MOVWF  FF8
0AFFC:  MOVLW  12
0AFFE:  MOVWF  x19
0B000:  MOVLB  0
0B002:  CALL   4D2C
0B006:  MOVFF  414,419
0B00A:  MOVLW  01
0B00C:  MOVLB  4
0B00E:  MOVWF  x1A
0B010:  MOVLB  0
0B012:  CALL   4D8A
0B016:  MOVLW  22
0B018:  BTFSS  F9E.4
0B01A:  BRA    B018
0B01C:  MOVWF  FAD
....................          SendDataDisplay();           
0B01E:  CALL   40AA
....................          printf("temp.txt=\"%u\"",CiclosPersonalizados[CicloLibre-1].Temperatura); 
0B022:  MOVLW  01
0B024:  MOVLB  3
0B026:  SUBWF  x2E,W
0B028:  MULLW  0A
0B02A:  MOVF   FF3,W
0B02C:  MOVLB  4
0B02E:  CLRF   x15
0B030:  MOVWF  x14
0B032:  MOVLW  EC
0B034:  ADDWF  x14,W
0B036:  MOVWF  FE9
0B038:  MOVLW  03
0B03A:  ADDWFC x15,W
0B03C:  MOVWF  FEA
0B03E:  MOVFF  FEF,414
0B042:  MOVLW  C6
0B044:  MOVWF  FF6
0B046:  MOVLW  0F
0B048:  MOVWF  FF7
0B04A:  MOVLW  00
0B04C:  MOVWF  FF8
0B04E:  MOVLW  0A
0B050:  MOVWF  x19
0B052:  MOVLB  0
0B054:  CALL   4D2C
0B058:  MOVFF  414,419
0B05C:  MOVLW  1B
0B05E:  MOVLB  4
0B060:  MOVWF  x1A
0B062:  MOVLB  0
0B064:  CALL   4D8A
0B068:  MOVLW  22
0B06A:  BTFSS  F9E.4
0B06C:  BRA    B06A
0B06E:  MOVWF  FAD
....................          SendDataDisplay(); 
0B070:  CALL   40AA
....................          printf("test.txt=\"%02u:%02u\"",CiclosPersonalizados[CicloLibre-1].Minutoest,CiclosPersonalizados[CicloLibre-1].Segundoest); 
0B074:  MOVLW  01
0B076:  MOVLB  3
0B078:  SUBWF  x2E,W
0B07A:  MULLW  0A
0B07C:  MOVF   FF3,W
0B07E:  MOVLB  4
0B080:  CLRF   x15
0B082:  MOVWF  x14
0B084:  MOVLW  09
0B086:  ADDWF  x14,W
0B088:  MOVWF  01
0B08A:  MOVLW  00
0B08C:  ADDWFC x15,W
0B08E:  MOVWF  03
0B090:  MOVF   01,W
0B092:  ADDLW  EC
0B094:  MOVWF  FE9
0B096:  MOVLW  03
0B098:  ADDWFC 03,W
0B09A:  MOVWF  FEA
0B09C:  MOVFF  FEF,414
0B0A0:  MOVLW  01
0B0A2:  MOVLB  3
0B0A4:  SUBWF  x2E,W
0B0A6:  MULLW  0A
0B0A8:  MOVF   FF3,W
0B0AA:  MOVLB  4
0B0AC:  CLRF   x16
0B0AE:  MOVWF  x15
0B0B0:  MOVLW  03
0B0B2:  ADDWF  x15,W
0B0B4:  MOVWF  01
0B0B6:  MOVLW  00
0B0B8:  ADDWFC x16,W
0B0BA:  MOVWF  03
0B0BC:  MOVF   01,W
0B0BE:  ADDLW  EC
0B0C0:  MOVWF  FE9
0B0C2:  MOVLW  03
0B0C4:  ADDWFC 03,W
0B0C6:  MOVWF  FEA
0B0C8:  MOVFF  FEF,415
0B0CC:  MOVLW  D4
0B0CE:  MOVWF  FF6
0B0D0:  MOVLW  0F
0B0D2:  MOVWF  FF7
0B0D4:  MOVLW  00
0B0D6:  MOVWF  FF8
0B0D8:  MOVLW  0A
0B0DA:  MOVWF  x19
0B0DC:  MOVLB  0
0B0DE:  CALL   4D2C
0B0E2:  MOVFF  414,419
0B0E6:  MOVLW  01
0B0E8:  MOVLB  4
0B0EA:  MOVWF  x1A
0B0EC:  MOVLB  0
0B0EE:  CALL   4D8A
0B0F2:  MOVLW  3A
0B0F4:  BTFSS  F9E.4
0B0F6:  BRA    B0F4
0B0F8:  MOVWF  FAD
0B0FA:  MOVFF  415,419
0B0FE:  MOVLW  01
0B100:  MOVLB  4
0B102:  MOVWF  x1A
0B104:  MOVLB  0
0B106:  CALL   4D8A
0B10A:  MOVLW  22
0B10C:  BTFSS  F9E.4
0B10E:  BRA    B10C
0B110:  MOVWF  FAD
....................          SendDataDisplay(); 
0B112:  CALL   40AA
....................          printf("tsec.txt=\"%02u:%02u\"",CiclosPersonalizados[CicloLibre-1].Minutosec,CiclosPersonalizados[CicloLibre-1].Segundosec); 
0B116:  MOVLW  01
0B118:  MOVLB  3
0B11A:  SUBWF  x2E,W
0B11C:  MULLW  0A
0B11E:  MOVF   FF3,W
0B120:  MOVLB  4
0B122:  CLRF   x15
0B124:  MOVWF  x14
0B126:  MOVLW  04
0B128:  ADDWF  x14,W
0B12A:  MOVWF  01
0B12C:  MOVLW  00
0B12E:  ADDWFC x15,W
0B130:  MOVWF  03
0B132:  MOVF   01,W
0B134:  ADDLW  EC
0B136:  MOVWF  FE9
0B138:  MOVLW  03
0B13A:  ADDWFC 03,W
0B13C:  MOVWF  FEA
0B13E:  MOVFF  FEF,414
0B142:  MOVLW  01
0B144:  MOVLB  3
0B146:  SUBWF  x2E,W
0B148:  MULLW  0A
0B14A:  MOVF   FF3,W
0B14C:  MOVLB  4
0B14E:  CLRF   x16
0B150:  MOVWF  x15
0B152:  MOVLW  05
0B154:  ADDWF  x15,W
0B156:  MOVWF  01
0B158:  MOVLW  00
0B15A:  ADDWFC x16,W
0B15C:  MOVWF  03
0B15E:  MOVF   01,W
0B160:  ADDLW  EC
0B162:  MOVWF  FE9
0B164:  MOVLW  03
0B166:  ADDWFC 03,W
0B168:  MOVWF  FEA
0B16A:  MOVFF  FEF,415
0B16E:  MOVLW  EA
0B170:  MOVWF  FF6
0B172:  MOVLW  0F
0B174:  MOVWF  FF7
0B176:  MOVLW  00
0B178:  MOVWF  FF8
0B17A:  MOVLW  0A
0B17C:  MOVWF  x19
0B17E:  MOVLB  0
0B180:  CALL   4D2C
0B184:  MOVFF  414,419
0B188:  MOVLW  01
0B18A:  MOVLB  4
0B18C:  MOVWF  x1A
0B18E:  MOVLB  0
0B190:  CALL   4D8A
0B194:  MOVLW  3A
0B196:  BTFSS  F9E.4
0B198:  BRA    B196
0B19A:  MOVWF  FAD
0B19C:  MOVFF  415,419
0B1A0:  MOVLW  01
0B1A2:  MOVLB  4
0B1A4:  MOVWF  x1A
0B1A6:  MOVLB  0
0B1A8:  CALL   4D8A
0B1AC:  MOVLW  22
0B1AE:  BTFSS  F9E.4
0B1B0:  BRA    B1AE
0B1B2:  MOVWF  FAD
....................          SendDataDisplay(); 
0B1B4:  CALL   40AA
....................          printf("desfogue.txt=\"%u\"",CiclosPersonalizados[CicloLibre-1].NivelDesfogue); 
0B1B8:  MOVLW  01
0B1BA:  MOVLB  3
0B1BC:  SUBWF  x2E,W
0B1BE:  MULLW  0A
0B1C0:  MOVF   FF3,W
0B1C2:  MOVLB  4
0B1C4:  CLRF   x15
0B1C6:  MOVWF  x14
0B1C8:  MOVLW  08
0B1CA:  ADDWF  x14,W
0B1CC:  MOVWF  01
0B1CE:  MOVLW  00
0B1D0:  ADDWFC x15,W
0B1D2:  MOVWF  03
0B1D4:  MOVF   01,W
0B1D6:  ADDLW  EC
0B1D8:  MOVWF  FE9
0B1DA:  MOVLW  03
0B1DC:  ADDWFC 03,W
0B1DE:  MOVWF  FEA
0B1E0:  MOVFF  FEF,414
0B1E4:  MOVLW  00
0B1E6:  MOVWF  FF6
0B1E8:  MOVLW  10
0B1EA:  MOVWF  FF7
0B1EC:  MOVLW  00
0B1EE:  MOVWF  FF8
0B1F0:  MOVLW  0E
0B1F2:  MOVWF  x19
0B1F4:  MOVLB  0
0B1F6:  CALL   4D2C
0B1FA:  MOVFF  414,419
0B1FE:  MOVLW  1B
0B200:  MOVLB  4
0B202:  MOVWF  x1A
0B204:  MOVLB  0
0B206:  CALL   4D8A
0B20A:  MOVLW  22
0B20C:  BTFSS  F9E.4
0B20E:  BRA    B20C
0B210:  MOVWF  FAD
....................          SendDataDisplay(); 
0B212:  CALL   40AA
0B216:  MOVLB  3
....................       } 
....................        
....................       if(RIGHT){ 
0B218:  BSF    F93.2
0B21A:  BTFSC  F81.2
0B21C:  BRA    B234
....................          delay_ms(100); 
0B21E:  MOVLW  64
0B220:  MOVLB  4
0B222:  MOVWF  x29
0B224:  MOVLB  0
0B226:  CALL   19C2
....................          if(RIGHT){ 
0B22A:  BSF    F93.2
0B22C:  BTFSC  F81.2
0B22E:  BRA    B236
....................             CicloLibre++; 
0B230:  MOVLB  3
0B232:  INCF   x2E,F
0B234:  MOVLB  0
....................          } 
....................       }       
....................        
....................       if(CicloLibre<1) 
0B236:  MOVLB  3
0B238:  MOVF   x2E,F
0B23A:  BNZ   B240
....................          CicloLibre=1; 
0B23C:  MOVLW  01
0B23E:  MOVWF  x2E
....................       if(CicloLibre>4) 
0B240:  MOVF   x2E,W
0B242:  SUBLW  04
0B244:  BC    B24A
....................          CicloLibre=4; 
0B246:  MOVLW  04
0B248:  MOVWF  x2E
....................        
....................       if(RX_Buffer[4]==0xa0 || LEFT){//a0, Menu Principal 
0B24A:  MOVF   34,W
0B24C:  SUBLW  A0
0B24E:  BZ    B256
0B250:  BSF    F93.3
0B252:  BTFSC  F81.3
0B254:  BRA    B28E
....................          delay_ms(100); 
0B256:  MOVLW  64
0B258:  MOVLB  4
0B25A:  MOVWF  x29
0B25C:  MOVLB  0
0B25E:  CALL   19C2
....................          if(RX_Buffer[4]==0xa0 || LEFT){ 
0B262:  MOVF   34,W
0B264:  SUBLW  A0
0B266:  BZ    B26E
0B268:  BSF    F93.3
0B26A:  BTFSC  F81.3
0B26C:  BRA    B28C
....................             printf("page MenuPrincipal"); 
0B26E:  MOVLW  12
0B270:  MOVWF  FF6
0B272:  MOVLW  10
0B274:  MOVWF  FF7
0B276:  MOVLW  00
0B278:  MOVWF  FF8
0B27A:  CALL   4078
....................             SendDataDisplay();      
0B27E:  CALL   40AA
....................             PantallaPrincipal=0; 
0B282:  MOVLB  2
0B284:  CLRF   xCE
....................             Op=OFF; 
0B286:  MOVLB  0
0B288:  BCF    xA2.1
....................             Op2=OFF; 
0B28A:  BCF    xA2.2
0B28C:  MOVLB  3
....................          } 
....................       } 
....................        
....................       if(RX_Buffer[4]==0x20 && CicloLibre>0){//20, Temperatura 
0B28E:  MOVF   34,W
0B290:  SUBLW  20
0B292:  BNZ   B2D0
0B294:  MOVF   x2E,F
0B296:  BZ    B2D0
....................             printf("page Temperatura"); 
0B298:  MOVLW  26
0B29A:  MOVWF  FF6
0B29C:  MOVLW  10
0B29E:  MOVWF  FF7
0B2A0:  MOVLW  00
0B2A2:  MOVWF  FF8
0B2A4:  MOVLB  0
0B2A6:  CALL   4078
....................             SendDataDisplay();      
0B2AA:  CALL   40AA
....................             Setpoint=CiclosPersonalizados[CicloLibre-1].Temperatura; 
0B2AE:  MOVLW  01
0B2B0:  MOVLB  3
0B2B2:  SUBWF  x2E,W
0B2B4:  MULLW  0A
0B2B6:  MOVF   FF3,W
0B2B8:  MOVLB  4
0B2BA:  CLRF   x15
0B2BC:  MOVWF  x14
0B2BE:  MOVLW  EC
0B2C0:  ADDWF  x14,W
0B2C2:  MOVWF  FE9
0B2C4:  MOVLW  03
0B2C6:  ADDWFC x15,W
0B2C8:  MOVWF  FEA
0B2CA:  MOVFF  FEF,341
0B2CE:  MOVLB  3
....................       } 
....................        
....................       if(RX_Buffer[4]==0x30 && CicloLibre>0){//30, Test 
0B2D0:  MOVF   34,W
0B2D2:  SUBLW  30
0B2D4:  BTFSS  FD8.2
0B2D6:  BRA    B3F2
0B2D8:  MOVF   x2E,F
0B2DA:  BTFSC  FD8.2
0B2DC:  BRA    B3F2
....................             printf("page TiempoEst"); 
0B2DE:  MOVLW  38
0B2E0:  MOVWF  FF6
0B2E2:  MOVLW  10
0B2E4:  MOVWF  FF7
0B2E6:  MOVLW  00
0B2E8:  MOVWF  FF8
0B2EA:  MOVLB  0
0B2EC:  CALL   4078
....................             SendDataDisplay();      
0B2F0:  CALL   40AA
....................             Testerilizacionp[3]=CiclosPersonalizados[CicloLibre-1].Minutoest/10; 
0B2F4:  MOVLW  01
0B2F6:  MOVLB  3
0B2F8:  SUBWF  x2E,W
0B2FA:  MULLW  0A
0B2FC:  MOVF   FF3,W
0B2FE:  MOVLB  4
0B300:  CLRF   x15
0B302:  MOVWF  x14
0B304:  MOVLW  09
0B306:  ADDWF  x14,W
0B308:  MOVWF  01
0B30A:  MOVLW  00
0B30C:  ADDWFC x15,W
0B30E:  MOVWF  03
0B310:  MOVF   01,W
0B312:  ADDLW  EC
0B314:  MOVWF  FE9
0B316:  MOVLW  03
0B318:  ADDWFC 03,W
0B31A:  MOVWF  FEA
0B31C:  MOVFF  FEF,41E
0B320:  MOVLW  0A
0B322:  MOVWF  x1F
0B324:  MOVLB  0
0B326:  CALL   4D5E
0B32A:  MOVFF  01,B6
....................             Testerilizacionp[2]=CiclosPersonalizados[CicloLibre-1].Minutoest-(Testerilizacionp[3]*10); 
0B32E:  MOVLW  01
0B330:  MOVLB  3
0B332:  SUBWF  x2E,W
0B334:  MULLW  0A
0B336:  MOVF   FF3,W
0B338:  MOVLB  4
0B33A:  CLRF   x15
0B33C:  MOVWF  x14
0B33E:  MOVLW  09
0B340:  ADDWF  x14,W
0B342:  MOVWF  01
0B344:  MOVLW  00
0B346:  ADDWFC x15,W
0B348:  MOVWF  03
0B34A:  MOVF   01,W
0B34C:  ADDLW  EC
0B34E:  MOVWF  FE9
0B350:  MOVLW  03
0B352:  ADDWFC 03,W
0B354:  MOVWF  FEA
0B356:  MOVFF  FEF,414
0B35A:  MOVFF  B6,416
0B35E:  MOVLW  0A
0B360:  MOVWF  x17
0B362:  MOVLB  0
0B364:  CALL   35CA
0B368:  MOVF   01,W
0B36A:  MOVLB  4
0B36C:  SUBWF  x14,W
0B36E:  MOVLB  0
0B370:  MOVWF  xB5
....................             Testerilizacionp[1]=CiclosPersonalizados[CicloLibre-1].Segundoest/10; 
0B372:  MOVLW  01
0B374:  MOVLB  3
0B376:  SUBWF  x2E,W
0B378:  MULLW  0A
0B37A:  MOVF   FF3,W
0B37C:  MOVLB  4
0B37E:  CLRF   x15
0B380:  MOVWF  x14
0B382:  MOVLW  03
0B384:  ADDWF  x14,W
0B386:  MOVWF  01
0B388:  MOVLW  00
0B38A:  ADDWFC x15,W
0B38C:  MOVWF  03
0B38E:  MOVF   01,W
0B390:  ADDLW  EC
0B392:  MOVWF  FE9
0B394:  MOVLW  03
0B396:  ADDWFC 03,W
0B398:  MOVWF  FEA
0B39A:  MOVFF  FEF,41E
0B39E:  MOVLW  0A
0B3A0:  MOVWF  x1F
0B3A2:  MOVLB  0
0B3A4:  CALL   4D5E
0B3A8:  MOVFF  01,B4
....................             Testerilizacionp[0]=CiclosPersonalizados[CicloLibre-1].Segundoest-(Testerilizacionp[1]*10); 
0B3AC:  MOVLW  01
0B3AE:  MOVLB  3
0B3B0:  SUBWF  x2E,W
0B3B2:  MULLW  0A
0B3B4:  MOVF   FF3,W
0B3B6:  MOVLB  4
0B3B8:  CLRF   x15
0B3BA:  MOVWF  x14
0B3BC:  MOVLW  03
0B3BE:  ADDWF  x14,W
0B3C0:  MOVWF  01
0B3C2:  MOVLW  00
0B3C4:  ADDWFC x15,W
0B3C6:  MOVWF  03
0B3C8:  MOVF   01,W
0B3CA:  ADDLW  EC
0B3CC:  MOVWF  FE9
0B3CE:  MOVLW  03
0B3D0:  ADDWFC 03,W
0B3D2:  MOVWF  FEA
0B3D4:  MOVFF  FEF,414
0B3D8:  MOVFF  B4,416
0B3DC:  MOVLW  0A
0B3DE:  MOVWF  x17
0B3E0:  MOVLB  0
0B3E2:  CALL   35CA
0B3E6:  MOVF   01,W
0B3E8:  MOVLB  4
0B3EA:  SUBWF  x14,W
0B3EC:  MOVLB  0
0B3EE:  MOVWF  xB3
0B3F0:  MOVLB  3
....................       } 
....................        
....................       if(RX_Buffer[4]==0x40 && CicloLibre>0){//30, Test 
0B3F2:  MOVF   34,W
0B3F4:  SUBLW  40
0B3F6:  BTFSS  FD8.2
0B3F8:  BRA    B514
0B3FA:  MOVF   x2E,F
0B3FC:  BTFSC  FD8.2
0B3FE:  BRA    B514
....................             printf("page TiempoSec"); 
0B400:  MOVLW  48
0B402:  MOVWF  FF6
0B404:  MOVLW  10
0B406:  MOVWF  FF7
0B408:  MOVLW  00
0B40A:  MOVWF  FF8
0B40C:  MOVLB  0
0B40E:  CALL   4078
....................             SendDataDisplay();      
0B412:  CALL   40AA
....................             Tsecadop[3]=CiclosPersonalizados[CicloLibre-1].Minutosec/10; 
0B416:  MOVLW  01
0B418:  MOVLB  3
0B41A:  SUBWF  x2E,W
0B41C:  MULLW  0A
0B41E:  MOVF   FF3,W
0B420:  MOVLB  4
0B422:  CLRF   x15
0B424:  MOVWF  x14
0B426:  MOVLW  04
0B428:  ADDWF  x14,W
0B42A:  MOVWF  01
0B42C:  MOVLW  00
0B42E:  ADDWFC x15,W
0B430:  MOVWF  03
0B432:  MOVF   01,W
0B434:  ADDLW  EC
0B436:  MOVWF  FE9
0B438:  MOVLW  03
0B43A:  ADDWFC 03,W
0B43C:  MOVWF  FEA
0B43E:  MOVFF  FEF,41E
0B442:  MOVLW  0A
0B444:  MOVWF  x1F
0B446:  MOVLB  0
0B448:  CALL   4D5E
0B44C:  MOVFF  01,BF
....................             Tsecadop[2]=CiclosPersonalizados[CicloLibre-1].Minutosec-(Tsecadop[3]*10); 
0B450:  MOVLW  01
0B452:  MOVLB  3
0B454:  SUBWF  x2E,W
0B456:  MULLW  0A
0B458:  MOVF   FF3,W
0B45A:  MOVLB  4
0B45C:  CLRF   x15
0B45E:  MOVWF  x14
0B460:  MOVLW  04
0B462:  ADDWF  x14,W
0B464:  MOVWF  01
0B466:  MOVLW  00
0B468:  ADDWFC x15,W
0B46A:  MOVWF  03
0B46C:  MOVF   01,W
0B46E:  ADDLW  EC
0B470:  MOVWF  FE9
0B472:  MOVLW  03
0B474:  ADDWFC 03,W
0B476:  MOVWF  FEA
0B478:  MOVFF  FEF,414
0B47C:  MOVFF  BF,416
0B480:  MOVLW  0A
0B482:  MOVWF  x17
0B484:  MOVLB  0
0B486:  CALL   35CA
0B48A:  MOVF   01,W
0B48C:  MOVLB  4
0B48E:  SUBWF  x14,W
0B490:  MOVLB  0
0B492:  MOVWF  xBE
....................             Tsecadop[1]=CiclosPersonalizados[CicloLibre-1].Segundosec/10; 
0B494:  MOVLW  01
0B496:  MOVLB  3
0B498:  SUBWF  x2E,W
0B49A:  MULLW  0A
0B49C:  MOVF   FF3,W
0B49E:  MOVLB  4
0B4A0:  CLRF   x15
0B4A2:  MOVWF  x14
0B4A4:  MOVLW  05
0B4A6:  ADDWF  x14,W
0B4A8:  MOVWF  01
0B4AA:  MOVLW  00
0B4AC:  ADDWFC x15,W
0B4AE:  MOVWF  03
0B4B0:  MOVF   01,W
0B4B2:  ADDLW  EC
0B4B4:  MOVWF  FE9
0B4B6:  MOVLW  03
0B4B8:  ADDWFC 03,W
0B4BA:  MOVWF  FEA
0B4BC:  MOVFF  FEF,41E
0B4C0:  MOVLW  0A
0B4C2:  MOVWF  x1F
0B4C4:  MOVLB  0
0B4C6:  CALL   4D5E
0B4CA:  MOVFF  01,BD
....................             Tsecadop[0]=CiclosPersonalizados[CicloLibre-1].Segundosec-(Tsecadop[1]*10); 
0B4CE:  MOVLW  01
0B4D0:  MOVLB  3
0B4D2:  SUBWF  x2E,W
0B4D4:  MULLW  0A
0B4D6:  MOVF   FF3,W
0B4D8:  MOVLB  4
0B4DA:  CLRF   x15
0B4DC:  MOVWF  x14
0B4DE:  MOVLW  05
0B4E0:  ADDWF  x14,W
0B4E2:  MOVWF  01
0B4E4:  MOVLW  00
0B4E6:  ADDWFC x15,W
0B4E8:  MOVWF  03
0B4EA:  MOVF   01,W
0B4EC:  ADDLW  EC
0B4EE:  MOVWF  FE9
0B4F0:  MOVLW  03
0B4F2:  ADDWFC 03,W
0B4F4:  MOVWF  FEA
0B4F6:  MOVFF  FEF,414
0B4FA:  MOVFF  BD,416
0B4FE:  MOVLW  0A
0B500:  MOVWF  x17
0B502:  MOVLB  0
0B504:  CALL   35CA
0B508:  MOVF   01,W
0B50A:  MOVLB  4
0B50C:  SUBWF  x14,W
0B50E:  MOVLB  0
0B510:  MOVWF  xBC
0B512:  MOVLB  3
....................       } 
....................        
....................       if(RX_Buffer[4]==0x80 && CicloLibre>0){//80, NivelDesfogue          
0B514:  MOVF   34,W
0B516:  SUBLW  80
0B518:  BNZ   B568
0B51A:  MOVF   x2E,F
0B51C:  BZ    B568
....................             printf("page Nivel"); 
0B51E:  MOVLW  58
0B520:  MOVWF  FF6
0B522:  MOVLW  10
0B524:  MOVWF  FF7
0B526:  MOVLW  00
0B528:  MOVWF  FF8
0B52A:  MOVLB  0
0B52C:  CALL   4078
....................             SendDataDisplay();      
0B530:  CALL   40AA
....................             Nivel=CiclosPersonalizados[CicloLibre-1].NivelDesfogue;          
0B534:  MOVLW  01
0B536:  MOVLB  3
0B538:  SUBWF  x2E,W
0B53A:  MULLW  0A
0B53C:  MOVF   FF3,W
0B53E:  MOVLB  4
0B540:  CLRF   x15
0B542:  MOVWF  x14
0B544:  MOVLW  08
0B546:  ADDWF  x14,W
0B548:  MOVWF  01
0B54A:  MOVLW  00
0B54C:  ADDWFC x15,W
0B54E:  MOVWF  03
0B550:  MOVF   01,W
0B552:  ADDLW  EC
0B554:  MOVWF  FE9
0B556:  MOVLW  03
0B558:  ADDWFC 03,W
0B55A:  MOVWF  FEA
0B55C:  MOVF   FEF,W
0B55E:  CLRF   03
0B560:  MOVLB  3
0B562:  MOVWF  x4F
0B564:  MOVFF  03,350
....................       } 
....................        
....................       if((RX_Buffer[4]==0x70 || UP)&& CicloLibre>0){//70, Iniciar Ciclo 
0B568:  MOVF   34,W
0B56A:  SUBLW  70
0B56C:  BZ    B574
0B56E:  BSF    F93.0
0B570:  BTFSC  F81.0
0B572:  BRA    BA8A
0B574:  MOVF   x2E,F
0B576:  BTFSC  FD8.2
0B578:  BRA    BA8A
....................          delay_ms(100); 
0B57A:  MOVLW  64
0B57C:  MOVLB  4
0B57E:  MOVWF  x29
0B580:  MOVLB  0
0B582:  CALL   19C2
....................          if((RX_Buffer[4]==0x70 || UP)&& CicloLibre>0){ 
0B586:  MOVF   34,W
0B588:  SUBLW  70
0B58A:  BZ    B592
0B58C:  BSF    F93.0
0B58E:  BTFSC  F81.0
0B590:  BRA    BA88
0B592:  MOVLB  3
0B594:  MOVF   x2E,F
0B596:  BTFSS  FD8.2
0B598:  BRA    B59E
0B59A:  MOVLB  0
0B59C:  BRA    BA88
....................             printf("page Funcionamiento"); 
0B59E:  MOVLW  64
0B5A0:  MOVWF  FF6
0B5A2:  MOVLW  10
0B5A4:  MOVWF  FF7
0B5A6:  MOVLW  00
0B5A8:  MOVWF  FF8
0B5AA:  MOVLB  0
0B5AC:  CALL   4078
....................             SendDataDisplay();        
0B5B0:  CALL   40AA
....................             Libre=ON; 
0B5B4:  BSF    xA3.5
....................             if(CiclosPersonalizados[CicloLibre-1].NivelDesfogue>5){ 
0B5B6:  MOVLW  01
0B5B8:  MOVLB  3
0B5BA:  SUBWF  x2E,W
0B5BC:  MULLW  0A
0B5BE:  MOVF   FF3,W
0B5C0:  MOVLB  4
0B5C2:  CLRF   x15
0B5C4:  MOVWF  x14
0B5C6:  MOVLW  08
0B5C8:  ADDWF  x14,W
0B5CA:  MOVWF  01
0B5CC:  MOVLW  00
0B5CE:  ADDWFC x15,W
0B5D0:  MOVWF  03
0B5D2:  MOVF   01,W
0B5D4:  ADDLW  EC
0B5D6:  MOVWF  FE9
0B5D8:  MOVLW  03
0B5DA:  ADDWFC 03,W
0B5DC:  MOVWF  FEA
0B5DE:  MOVF   FEF,W
0B5E0:  SUBLW  05
0B5E2:  BTFSC  FD8.0
0B5E4:  BRA    B814
....................                ConfiguraCiclo(extraeDecima(CiclosPersonalizados[CicloLibre-1].Segundoest), 
....................                            CiclosPersonalizados[CicloLibre-1].Segundoest/10, 
....................                            extraeDecima(CiclosPersonalizados[CicloLibre-1].Minutoest), 
....................                            CiclosPersonalizados[CicloLibre-1].Minutoest/10, 
....................                            extraeDecima(CiclosPersonalizados[CicloLibre-1].Segundosec), 
....................                            CiclosPersonalizados[CicloLibre-1].Segundosec/10, 
....................                            extraeDecima(CiclosPersonalizados[CicloLibre-1].Minutosec), 
....................                            CiclosPersonalizados[CicloLibre-1].Minutosec/10,0,CicloLibre+4,CiclosPersonalizados[CicloLibre-1].Temperatura);             
0B5E6:  MOVLW  01
0B5E8:  MOVLB  3
0B5EA:  SUBWF  x2E,W
0B5EC:  MULLW  0A
0B5EE:  MOVF   FF3,W
0B5F0:  MOVLB  4
0B5F2:  CLRF   x15
0B5F4:  MOVWF  x14
0B5F6:  MOVLW  03
0B5F8:  ADDWF  x14,W
0B5FA:  MOVWF  01
0B5FC:  MOVLW  00
0B5FE:  ADDWFC x15,W
0B600:  MOVWF  03
0B602:  MOVF   01,W
0B604:  ADDLW  EC
0B606:  MOVWF  FE9
0B608:  MOVLW  03
0B60A:  ADDWFC 03,W
0B60C:  MOVWF  FEA
0B60E:  MOVFF  FEF,414
0B612:  MOVFF  414,41B
0B616:  MOVLB  0
0B618:  CALL   53C4
0B61C:  MOVFF  01,414
0B620:  MOVLW  01
0B622:  MOVLB  3
0B624:  SUBWF  x2E,W
0B626:  MULLW  0A
0B628:  MOVF   FF3,W
0B62A:  MOVLB  4
0B62C:  CLRF   x16
0B62E:  MOVWF  x15
0B630:  MOVLW  03
0B632:  ADDWF  x15,W
0B634:  MOVWF  01
0B636:  MOVLW  00
0B638:  ADDWFC x16,W
0B63A:  MOVWF  03
0B63C:  MOVF   01,W
0B63E:  ADDLW  EC
0B640:  MOVWF  FE9
0B642:  MOVLW  03
0B644:  ADDWFC 03,W
0B646:  MOVWF  FEA
0B648:  MOVFF  FEF,41E
0B64C:  MOVLW  0A
0B64E:  MOVWF  x1F
0B650:  MOVLB  0
0B652:  CALL   4D5E
0B656:  MOVFF  01,415
0B65A:  MOVLW  01
0B65C:  MOVLB  3
0B65E:  SUBWF  x2E,W
0B660:  MULLW  0A
0B662:  MOVF   FF3,W
0B664:  MOVLB  4
0B666:  CLRF   x17
0B668:  MOVWF  x16
0B66A:  MOVLW  09
0B66C:  ADDWF  x16,W
0B66E:  MOVWF  01
0B670:  MOVLW  00
0B672:  ADDWFC x17,W
0B674:  MOVWF  03
0B676:  MOVF   01,W
0B678:  ADDLW  EC
0B67A:  MOVWF  FE9
0B67C:  MOVLW  03
0B67E:  ADDWFC 03,W
0B680:  MOVWF  FEA
0B682:  MOVFF  FEF,416
0B686:  MOVFF  416,41B
0B68A:  MOVLB  0
0B68C:  CALL   53C4
0B690:  MOVFF  01,416
0B694:  MOVLW  01
0B696:  MOVLB  3
0B698:  SUBWF  x2E,W
0B69A:  MULLW  0A
0B69C:  MOVF   FF3,W
0B69E:  MOVLB  4
0B6A0:  CLRF   x18
0B6A2:  MOVWF  x17
0B6A4:  MOVLW  09
0B6A6:  ADDWF  x17,W
0B6A8:  MOVWF  01
0B6AA:  MOVLW  00
0B6AC:  ADDWFC x18,W
0B6AE:  MOVWF  03
0B6B0:  MOVF   01,W
0B6B2:  ADDLW  EC
0B6B4:  MOVWF  FE9
0B6B6:  MOVLW  03
0B6B8:  ADDWFC 03,W
0B6BA:  MOVWF  FEA
0B6BC:  MOVFF  FEF,41E
0B6C0:  MOVLW  0A
0B6C2:  MOVWF  x1F
0B6C4:  MOVLB  0
0B6C6:  CALL   4D5E
0B6CA:  MOVFF  01,417
0B6CE:  MOVLW  01
0B6D0:  MOVLB  3
0B6D2:  SUBWF  x2E,W
0B6D4:  MULLW  0A
0B6D6:  MOVF   FF3,W
0B6D8:  MOVLB  4
0B6DA:  CLRF   x19
0B6DC:  MOVWF  x18
0B6DE:  MOVLW  05
0B6E0:  ADDWF  x18,W
0B6E2:  MOVWF  01
0B6E4:  MOVLW  00
0B6E6:  ADDWFC x19,W
0B6E8:  MOVWF  03
0B6EA:  MOVF   01,W
0B6EC:  ADDLW  EC
0B6EE:  MOVWF  FE9
0B6F0:  MOVLW  03
0B6F2:  ADDWFC 03,W
0B6F4:  MOVWF  FEA
0B6F6:  MOVFF  FEF,418
0B6FA:  MOVFF  418,41B
0B6FE:  MOVLB  0
0B700:  CALL   53C4
0B704:  MOVFF  01,418
0B708:  MOVLW  01
0B70A:  MOVLB  3
0B70C:  SUBWF  x2E,W
0B70E:  MULLW  0A
0B710:  MOVF   FF3,W
0B712:  MOVLB  4
0B714:  CLRF   x1A
0B716:  MOVWF  x19
0B718:  MOVLW  05
0B71A:  ADDWF  x19,W
0B71C:  MOVWF  01
0B71E:  MOVLW  00
0B720:  ADDWFC x1A,W
0B722:  MOVWF  03
0B724:  MOVF   01,W
0B726:  ADDLW  EC
0B728:  MOVWF  FE9
0B72A:  MOVLW  03
0B72C:  ADDWFC 03,W
0B72E:  MOVWF  FEA
0B730:  MOVFF  FEF,41E
0B734:  MOVLW  0A
0B736:  MOVWF  x1F
0B738:  MOVLB  0
0B73A:  CALL   4D5E
0B73E:  MOVFF  01,419
0B742:  MOVLW  01
0B744:  MOVLB  3
0B746:  SUBWF  x2E,W
0B748:  MULLW  0A
0B74A:  MOVF   FF3,W
0B74C:  MOVLB  4
0B74E:  CLRF   x1B
0B750:  MOVWF  x1A
0B752:  MOVLW  04
0B754:  ADDWF  x1A,W
0B756:  MOVWF  01
0B758:  MOVLW  00
0B75A:  ADDWFC x1B,W
0B75C:  MOVWF  03
0B75E:  MOVF   01,W
0B760:  ADDLW  EC
0B762:  MOVWF  FE9
0B764:  MOVLW  03
0B766:  ADDWFC 03,W
0B768:  MOVWF  FEA
0B76A:  MOVFF  FEF,41A
0B76E:  MOVFF  41A,41B
0B772:  MOVLB  0
0B774:  CALL   53C4
0B778:  MOVFF  01,41A
0B77C:  MOVLW  01
0B77E:  MOVLB  3
0B780:  SUBWF  x2E,W
0B782:  MULLW  0A
0B784:  MOVF   FF3,W
0B786:  MOVLB  4
0B788:  CLRF   x1C
0B78A:  MOVWF  x1B
0B78C:  MOVLW  04
0B78E:  ADDWF  x1B,W
0B790:  MOVWF  01
0B792:  MOVLW  00
0B794:  ADDWFC x1C,W
0B796:  MOVWF  03
0B798:  MOVF   01,W
0B79A:  ADDLW  EC
0B79C:  MOVWF  FE9
0B79E:  MOVLW  03
0B7A0:  ADDWFC 03,W
0B7A2:  MOVWF  FEA
0B7A4:  MOVFF  FEF,41E
0B7A8:  MOVLW  0A
0B7AA:  MOVWF  x1F
0B7AC:  MOVLB  0
0B7AE:  CALL   4D5E
0B7B2:  MOVFF  01,41B
0B7B6:  MOVLW  04
0B7B8:  MOVLB  3
0B7BA:  ADDWF  x2E,W
0B7BC:  MOVLB  4
0B7BE:  MOVWF  x1C
0B7C0:  MOVLW  01
0B7C2:  MOVLB  3
0B7C4:  SUBWF  x2E,W
0B7C6:  MULLW  0A
0B7C8:  MOVF   FF3,W
0B7CA:  MOVLB  4
0B7CC:  CLRF   x1E
0B7CE:  MOVWF  x1D
0B7D0:  MOVLW  EC
0B7D2:  ADDWF  x1D,W
0B7D4:  MOVWF  FE9
0B7D6:  MOVLW  03
0B7D8:  ADDWFC x1E,W
0B7DA:  MOVWF  FEA
0B7DC:  MOVFF  FEF,41D
0B7E0:  MOVFF  414,41E
0B7E4:  MOVFF  415,41F
0B7E8:  MOVFF  416,420
0B7EC:  MOVFF  417,421
0B7F0:  MOVFF  418,422
0B7F4:  MOVFF  419,423
0B7F8:  MOVFF  41A,424
0B7FC:  MOVFF  01,425
0B800:  CLRF   x26
0B802:  MOVFF  41C,427
0B806:  MOVFF  41D,428
0B80A:  MOVLB  0
0B80C:  CALL   5070
....................             }else{ 
0B810:  BRA    BA88
0B812:  MOVLB  4
....................                ConfiguraCiclo(extraeDecima(CiclosPersonalizados[CicloLibre-1].Segundoest), 
....................                            CiclosPersonalizados[CicloLibre-1].Segundoest/10, 
....................                            extraeDecima(CiclosPersonalizados[CicloLibre-1].Minutoest), 
....................                            CiclosPersonalizados[CicloLibre-1].Minutoest/10, 
....................                            extraeDecima(CiclosPersonalizados[CicloLibre-1].Segundosec), 
....................                            CiclosPersonalizados[CicloLibre-1].Segundosec/10, 
....................                            extraeDecima(CiclosPersonalizados[CicloLibre-1].Minutosec), 
....................                            CiclosPersonalizados[CicloLibre-1].Minutosec/10,1,CicloLibre+4,CiclosPersonalizados[CicloLibre-1].Temperatura);             
0B814:  MOVLW  01
0B816:  MOVLB  3
0B818:  SUBWF  x2E,W
0B81A:  MULLW  0A
0B81C:  MOVF   FF3,W
0B81E:  MOVLB  4
0B820:  CLRF   x15
0B822:  MOVWF  x14
0B824:  MOVLW  03
0B826:  ADDWF  x14,W
0B828:  MOVWF  01
0B82A:  MOVLW  00
0B82C:  ADDWFC x15,W
0B82E:  MOVWF  03
0B830:  MOVF   01,W
0B832:  ADDLW  EC
0B834:  MOVWF  FE9
0B836:  MOVLW  03
0B838:  ADDWFC 03,W
0B83A:  MOVWF  FEA
0B83C:  MOVFF  FEF,414
0B840:  MOVFF  414,41B
0B844:  MOVLB  0
0B846:  CALL   53C4
0B84A:  MOVFF  01,414
0B84E:  MOVLW  01
0B850:  MOVLB  3
0B852:  SUBWF  x2E,W
0B854:  MULLW  0A
0B856:  MOVF   FF3,W
0B858:  MOVLB  4
0B85A:  CLRF   x16
0B85C:  MOVWF  x15
0B85E:  MOVLW  03
0B860:  ADDWF  x15,W
0B862:  MOVWF  01
0B864:  MOVLW  00
0B866:  ADDWFC x16,W
0B868:  MOVWF  03
0B86A:  MOVF   01,W
0B86C:  ADDLW  EC
0B86E:  MOVWF  FE9
0B870:  MOVLW  03
0B872:  ADDWFC 03,W
0B874:  MOVWF  FEA
0B876:  MOVFF  FEF,41E
0B87A:  MOVLW  0A
0B87C:  MOVWF  x1F
0B87E:  MOVLB  0
0B880:  CALL   4D5E
0B884:  MOVFF  01,415
0B888:  MOVLW  01
0B88A:  MOVLB  3
0B88C:  SUBWF  x2E,W
0B88E:  MULLW  0A
0B890:  MOVF   FF3,W
0B892:  MOVLB  4
0B894:  CLRF   x17
0B896:  MOVWF  x16
0B898:  MOVLW  09
0B89A:  ADDWF  x16,W
0B89C:  MOVWF  01
0B89E:  MOVLW  00
0B8A0:  ADDWFC x17,W
0B8A2:  MOVWF  03
0B8A4:  MOVF   01,W
0B8A6:  ADDLW  EC
0B8A8:  MOVWF  FE9
0B8AA:  MOVLW  03
0B8AC:  ADDWFC 03,W
0B8AE:  MOVWF  FEA
0B8B0:  MOVFF  FEF,416
0B8B4:  MOVFF  416,41B
0B8B8:  MOVLB  0
0B8BA:  CALL   53C4
0B8BE:  MOVFF  01,416
0B8C2:  MOVLW  01
0B8C4:  MOVLB  3
0B8C6:  SUBWF  x2E,W
0B8C8:  MULLW  0A
0B8CA:  MOVF   FF3,W
0B8CC:  MOVLB  4
0B8CE:  CLRF   x18
0B8D0:  MOVWF  x17
0B8D2:  MOVLW  09
0B8D4:  ADDWF  x17,W
0B8D6:  MOVWF  01
0B8D8:  MOVLW  00
0B8DA:  ADDWFC x18,W
0B8DC:  MOVWF  03
0B8DE:  MOVF   01,W
0B8E0:  ADDLW  EC
0B8E2:  MOVWF  FE9
0B8E4:  MOVLW  03
0B8E6:  ADDWFC 03,W
0B8E8:  MOVWF  FEA
0B8EA:  MOVFF  FEF,41E
0B8EE:  MOVLW  0A
0B8F0:  MOVWF  x1F
0B8F2:  MOVLB  0
0B8F4:  CALL   4D5E
0B8F8:  MOVFF  01,417
0B8FC:  MOVLW  01
0B8FE:  MOVLB  3
0B900:  SUBWF  x2E,W
0B902:  MULLW  0A
0B904:  MOVF   FF3,W
0B906:  MOVLB  4
0B908:  CLRF   x19
0B90A:  MOVWF  x18
0B90C:  MOVLW  05
0B90E:  ADDWF  x18,W
0B910:  MOVWF  01
0B912:  MOVLW  00
0B914:  ADDWFC x19,W
0B916:  MOVWF  03
0B918:  MOVF   01,W
0B91A:  ADDLW  EC
0B91C:  MOVWF  FE9
0B91E:  MOVLW  03
0B920:  ADDWFC 03,W
0B922:  MOVWF  FEA
0B924:  MOVFF  FEF,418
0B928:  MOVFF  418,41B
0B92C:  MOVLB  0
0B92E:  CALL   53C4
0B932:  MOVFF  01,418
0B936:  MOVLW  01
0B938:  MOVLB  3
0B93A:  SUBWF  x2E,W
0B93C:  MULLW  0A
0B93E:  MOVF   FF3,W
0B940:  MOVLB  4
0B942:  CLRF   x1A
0B944:  MOVWF  x19
0B946:  MOVLW  05
0B948:  ADDWF  x19,W
0B94A:  MOVWF  01
0B94C:  MOVLW  00
0B94E:  ADDWFC x1A,W
0B950:  MOVWF  03
0B952:  MOVF   01,W
0B954:  ADDLW  EC
0B956:  MOVWF  FE9
0B958:  MOVLW  03
0B95A:  ADDWFC 03,W
0B95C:  MOVWF  FEA
0B95E:  MOVFF  FEF,41E
0B962:  MOVLW  0A
0B964:  MOVWF  x1F
0B966:  MOVLB  0
0B968:  CALL   4D5E
0B96C:  MOVFF  01,419
0B970:  MOVLW  01
0B972:  MOVLB  3
0B974:  SUBWF  x2E,W
0B976:  MULLW  0A
0B978:  MOVF   FF3,W
0B97A:  MOVLB  4
0B97C:  CLRF   x1B
0B97E:  MOVWF  x1A
0B980:  MOVLW  04
0B982:  ADDWF  x1A,W
0B984:  MOVWF  01
0B986:  MOVLW  00
0B988:  ADDWFC x1B,W
0B98A:  MOVWF  03
0B98C:  MOVF   01,W
0B98E:  ADDLW  EC
0B990:  MOVWF  FE9
0B992:  MOVLW  03
0B994:  ADDWFC 03,W
0B996:  MOVWF  FEA
0B998:  MOVFF  FEF,41A
0B99C:  MOVFF  41A,41B
0B9A0:  MOVLB  0
0B9A2:  CALL   53C4
0B9A6:  MOVFF  01,41A
0B9AA:  MOVLW  01
0B9AC:  MOVLB  3
0B9AE:  SUBWF  x2E,W
0B9B0:  MULLW  0A
0B9B2:  MOVF   FF3,W
0B9B4:  MOVLB  4
0B9B6:  CLRF   x1C
0B9B8:  MOVWF  x1B
0B9BA:  MOVLW  04
0B9BC:  ADDWF  x1B,W
0B9BE:  MOVWF  01
0B9C0:  MOVLW  00
0B9C2:  ADDWFC x1C,W
0B9C4:  MOVWF  03
0B9C6:  MOVF   01,W
0B9C8:  ADDLW  EC
0B9CA:  MOVWF  FE9
0B9CC:  MOVLW  03
0B9CE:  ADDWFC 03,W
0B9D0:  MOVWF  FEA
0B9D2:  MOVFF  FEF,41E
0B9D6:  MOVLW  0A
0B9D8:  MOVWF  x1F
0B9DA:  MOVLB  0
0B9DC:  CALL   4D5E
0B9E0:  MOVFF  01,41B
0B9E4:  MOVLW  04
0B9E6:  MOVLB  3
0B9E8:  ADDWF  x2E,W
0B9EA:  MOVLB  4
0B9EC:  MOVWF  x1C
0B9EE:  MOVLW  01
0B9F0:  MOVLB  3
0B9F2:  SUBWF  x2E,W
0B9F4:  MULLW  0A
0B9F6:  MOVF   FF3,W
0B9F8:  MOVLB  4
0B9FA:  CLRF   x1E
0B9FC:  MOVWF  x1D
0B9FE:  MOVLW  EC
0BA00:  ADDWF  x1D,W
0BA02:  MOVWF  FE9
0BA04:  MOVLW  03
0BA06:  ADDWFC x1E,W
0BA08:  MOVWF  FEA
0BA0A:  MOVFF  FEF,41D
0BA0E:  MOVFF  414,41E
0BA12:  MOVFF  415,41F
0BA16:  MOVFF  416,420
0BA1A:  MOVFF  417,421
0BA1E:  MOVFF  418,422
0BA22:  MOVFF  419,423
0BA26:  MOVFF  41A,424
0BA2A:  MOVFF  01,425
0BA2E:  MOVLW  01
0BA30:  MOVWF  x26
0BA32:  MOVFF  41C,427
0BA36:  MOVFF  41D,428
0BA3A:  MOVLB  0
0BA3C:  CALL   5070
....................                NivelSeleccionado=4995*CiclosPersonalizados[CicloLibre-1].NivelDesfogue; 
0BA40:  MOVLW  01
0BA42:  MOVLB  3
0BA44:  SUBWF  x2E,W
0BA46:  MULLW  0A
0BA48:  MOVF   FF3,W
0BA4A:  MOVLB  4
0BA4C:  CLRF   x15
0BA4E:  MOVWF  x14
0BA50:  MOVLW  08
0BA52:  ADDWF  x14,W
0BA54:  MOVWF  01
0BA56:  MOVLW  00
0BA58:  ADDWFC x15,W
0BA5A:  MOVWF  03
0BA5C:  MOVF   01,W
0BA5E:  ADDLW  EC
0BA60:  MOVWF  FE9
0BA62:  MOVLW  03
0BA64:  ADDWFC 03,W
0BA66:  MOVWF  FEA
0BA68:  MOVFF  FEF,414
0BA6C:  MOVLW  13
0BA6E:  MOVWF  x19
0BA70:  MOVLW  83
0BA72:  MOVWF  x18
0BA74:  CLRF   x1B
0BA76:  MOVFF  414,41A
0BA7A:  MOVLB  0
0BA7C:  CALL   1DF6
0BA80:  MOVFF  02,35A
0BA84:  MOVFF  01,359
0BA88:  MOVLB  3
....................             } 
....................          } 
....................       } 
....................    } 
.................... //_--------------------------------------------------------------------------------------------------------------------------------------------------------        
....................  
.................... //_--------------------------------------------------------------------------------------------------------------------------------------------------------       
....................    if(Menu==12){//Menu de Visualizacion de Ciclos Realizados 
0BA8A:  MOVF   x3A,W
0BA8C:  SUBLW  0C
0BA8E:  BTFSS  FD8.2
0BA90:  BRA    BF9C
....................       //printf("fecha.txt=\"Fecha:%02u/%02u/20%02u    Hora: %02u:%02u\"",Dia,Mes,Year,Hora,Minuto); 
....................       //SendDataDisplay(); 
....................       GuardaEEPROM=OFF; 
0BA92:  MOVLB  0
0BA94:  BCF    xA2.5
....................       /*  
....................       i2c_start();            // Comienzo de la comunicacin 
....................       i2c_write(0xA0);   // Direccin del esclavo en el bus I2C 
....................       i2c_write(9);    // Posicin de donde se leer el dato en el esclavo 
....................       i2c_write(0);    // Posicin de donde se leer el dato en el esclavo 
....................       i2c_start();            // Reinicio 
....................       i2c_write(direccion+1); // Direccin del esclavo en modo lectura 
....................       dato=i2c_read(0);       // Lectura del dato 
....................       i2c_stop(); 
....................       */       
....................        
....................       if(RX_Buffer[6]==0x01){//01, Ciclos 
0BA96:  DECFSZ 36,W
0BA98:  BRA    BAAE
....................          printf("page MenuPrincipal"); 
0BA9A:  MOVLW  78
0BA9C:  MOVWF  FF6
0BA9E:  MOVLW  10
0BAA0:  MOVWF  FF7
0BAA2:  MOVLW  00
0BAA4:  MOVWF  FF8
0BAA6:  CALL   4078
....................          SendDataDisplay();      
0BAAA:  CALL   40AA
....................       } 
....................        
....................       if(RX_Buffer[6]==0x02){//02, Izquierda 
0BAAE:  MOVF   36,W
0BAB0:  SUBLW  02
0BAB2:  BNZ   BAF6
....................          RX_Buffer[6]=0x00;   
0BAB4:  CLRF   36
....................          RX_Buffer2[6]=0x00; 
0BAB6:  CLRF   41
....................          if(cicloVisto>0) 
0BAB8:  MOVLB  2
0BABA:  MOVF   xD2,F
0BABC:  BZ    BAC0
....................             cicloVisto--; 
0BABE:  DECF   xD2,F
....................          printf("h0.val=%u",cicloVisto+1); 
0BAC0:  MOVLW  01
0BAC2:  ADDWF  xD2,W
0BAC4:  MOVLB  4
0BAC6:  MOVWF  x14
0BAC8:  MOVLW  8C
0BACA:  MOVWF  FF6
0BACC:  MOVLW  10
0BACE:  MOVWF  FF7
0BAD0:  MOVLW  00
0BAD2:  MOVWF  FF8
0BAD4:  MOVLW  07
0BAD6:  MOVWF  x19
0BAD8:  MOVLB  0
0BADA:  CALL   4D2C
0BADE:  MOVFF  414,419
0BAE2:  MOVLW  1B
0BAE4:  MOVLB  4
0BAE6:  MOVWF  x1A
0BAE8:  MOVLB  0
0BAEA:  CALL   4D8A
....................          SendDataDisplay();      
0BAEE:  CALL   40AA
....................          actualizaTabla(); 
0BAF2:  CALL   53F2
....................       } 
....................        
....................       if(RX_Buffer[6]==0x03){//03, Arriba 
0BAF6:  MOVF   36,W
0BAF8:  SUBLW  03
0BAFA:  BNZ   BB40
....................          RX_Buffer[6]=0x00;   
0BAFC:  CLRF   36
....................          RX_Buffer2[6]=0x00; 
0BAFE:  CLRF   41
....................          if(cicloVisualizado<28) 
0BB00:  MOVLB  2
0BB02:  MOVF   xD3,W
0BB04:  SUBLW  1B
0BB06:  BNC   BB0A
....................             cicloVisualizado++; 
0BB08:  INCF   xD3,F
....................          printf("h1.val=%u",cicloVisualizado+1); 
0BB0A:  MOVLW  01
0BB0C:  ADDWF  xD3,W
0BB0E:  MOVLB  4
0BB10:  MOVWF  x14
0BB12:  MOVLW  96
0BB14:  MOVWF  FF6
0BB16:  MOVLW  10
0BB18:  MOVWF  FF7
0BB1A:  MOVLW  00
0BB1C:  MOVWF  FF8
0BB1E:  MOVLW  07
0BB20:  MOVWF  x19
0BB22:  MOVLB  0
0BB24:  CALL   4D2C
0BB28:  MOVFF  414,419
0BB2C:  MOVLW  1B
0BB2E:  MOVLB  4
0BB30:  MOVWF  x1A
0BB32:  MOVLB  0
0BB34:  CALL   4D8A
....................          SendDataDisplay();     
0BB38:  CALL   40AA
....................          actualizaTabla(); 
0BB3C:  CALL   53F2
....................          //exportarData(); 
....................       } 
....................        
....................       if(RX_Buffer[6]==0x04){//04, Abajo 
0BB40:  MOVF   36,W
0BB42:  SUBLW  04
0BB44:  BNZ   BB88
....................          RX_Buffer[6]=0x00;   
0BB46:  CLRF   36
....................          RX_Buffer2[6]=0x00; 
0BB48:  CLRF   41
....................          if(cicloVisualizado>0) 
0BB4A:  MOVLB  2
0BB4C:  MOVF   xD3,F
0BB4E:  BZ    BB52
....................             cicloVisualizado--; 
0BB50:  DECF   xD3,F
....................          printf("h1.val=%u",cicloVisualizado+1); 
0BB52:  MOVLW  01
0BB54:  ADDWF  xD3,W
0BB56:  MOVLB  4
0BB58:  MOVWF  x14
0BB5A:  MOVLW  A0
0BB5C:  MOVWF  FF6
0BB5E:  MOVLW  10
0BB60:  MOVWF  FF7
0BB62:  MOVLW  00
0BB64:  MOVWF  FF8
0BB66:  MOVLW  07
0BB68:  MOVWF  x19
0BB6A:  MOVLB  0
0BB6C:  CALL   4D2C
0BB70:  MOVFF  414,419
0BB74:  MOVLW  1B
0BB76:  MOVLB  4
0BB78:  MOVWF  x1A
0BB7A:  MOVLB  0
0BB7C:  CALL   4D8A
....................          SendDataDisplay();   
0BB80:  CALL   40AA
....................          actualizaTabla(); 
0BB84:  CALL   53F2
....................          //exportarData(); 
....................       } 
....................        
....................       if(RX_Buffer[6]==0x05){//05, Derecha 
0BB88:  MOVF   36,W
0BB8A:  SUBLW  05
0BB8C:  BNZ   BBD2
....................          RX_Buffer[6]=0x00;   
0BB8E:  CLRF   36
....................          RX_Buffer2[6]=0x00; 
0BB90:  CLRF   41
....................          if(cicloVisto<200) 
0BB92:  MOVLB  2
0BB94:  MOVF   xD2,W
0BB96:  SUBLW  C7
0BB98:  BNC   BB9C
....................             cicloVisto++; 
0BB9A:  INCF   xD2,F
....................          printf("h0.val=%u",cicloVisto+1); 
0BB9C:  MOVLW  01
0BB9E:  ADDWF  xD2,W
0BBA0:  MOVLB  4
0BBA2:  MOVWF  x14
0BBA4:  MOVLW  AA
0BBA6:  MOVWF  FF6
0BBA8:  MOVLW  10
0BBAA:  MOVWF  FF7
0BBAC:  MOVLW  00
0BBAE:  MOVWF  FF8
0BBB0:  MOVLW  07
0BBB2:  MOVWF  x19
0BBB4:  MOVLB  0
0BBB6:  CALL   4D2C
0BBBA:  MOVFF  414,419
0BBBE:  MOVLW  1B
0BBC0:  MOVLB  4
0BBC2:  MOVWF  x1A
0BBC4:  MOVLB  0
0BBC6:  CALL   4D8A
....................          SendDataDisplay();   
0BBCA:  CALL   40AA
....................          actualizaTabla(); 
0BBCE:  CALL   53F2
....................          //exportarData(); 
....................       } 
....................        
....................       if(RX_Buffer[6]==0x06){//06, Imprime 
0BBD2:  MOVF   36,W
0BBD4:  SUBLW  06
0BBD6:  BNZ   BBF4
....................          RX_Buffer[6]=0x00;   
0BBD8:  CLRF   36
....................          RX_Buffer2[6]=0x00; 
0BBDA:  CLRF   41
....................          printf("t0.txt=\"!IMPRIMIENDO!\""); 
0BBDC:  MOVLW  B4
0BBDE:  MOVWF  FF6
0BBE0:  MOVLW  10
0BBE2:  MOVWF  FF7
0BBE4:  MOVLW  00
0BBE6:  MOVWF  FF8
0BBE8:  CALL   4078
....................          SendDataDisplay();  
0BBEC:  CALL   40AA
....................          exportarData(); 
0BBF0:  GOTO   5AA4
....................       } 
....................        
....................       if(RX_Buffer[4]>0x00 || RX_Buffer[5]>0x00){ 
0BBF4:  MOVF   34,F
0BBF6:  BNZ   BBFC
0BBF8:  MOVF   35,F
0BBFA:  BZ    BC18
....................          cicloVisualizado=RX_Buffer[4]-1; 
0BBFC:  MOVLW  01
0BBFE:  SUBWF  34,W
0BC00:  MOVLB  2
0BC02:  MOVWF  xD3
....................          cicloVisto=RX_Buffer[5]-1; 
0BC04:  MOVLW  01
0BC06:  SUBWF  35,W
0BC08:  MOVWF  xD2
....................          RX_Buffer[4]=0x00; 
0BC0A:  CLRF   34
....................          RX_Buffer[5]=0x00; 
0BC0C:  CLRF   35
....................          RX_Buffer2[4]=0x00; 
0BC0E:  CLRF   3F
....................          RX_Buffer2[5]=0x00; 
0BC10:  CLRF   40
....................          actualizaTabla(); 
0BC12:  MOVLB  0
0BC14:  CALL   53F2
....................       } 
....................        
....................       //Imprime Valores Estaticos 
....................       printf("fecha.txt=\"%02u/%02u/%02u\"",diaCiclos,mesCiclos,yearCiclos); 
0BC18:  MOVLW  CC
0BC1A:  MOVWF  FF6
0BC1C:  MOVLW  10
0BC1E:  MOVWF  FF7
0BC20:  MOVLW  00
0BC22:  MOVWF  FF8
0BC24:  MOVLW  0B
0BC26:  MOVLB  4
0BC28:  MOVWF  x19
0BC2A:  MOVLB  0
0BC2C:  CALL   4D2C
0BC30:  MOVFF  3E7,419
0BC34:  MOVLW  01
0BC36:  MOVLB  4
0BC38:  MOVWF  x1A
0BC3A:  MOVLB  0
0BC3C:  CALL   4D8A
0BC40:  MOVLW  2F
0BC42:  BTFSS  F9E.4
0BC44:  BRA    BC42
0BC46:  MOVWF  FAD
0BC48:  MOVFF  3E8,419
0BC4C:  MOVLW  01
0BC4E:  MOVLB  4
0BC50:  MOVWF  x1A
0BC52:  MOVLB  0
0BC54:  CALL   4D8A
0BC58:  MOVLW  2F
0BC5A:  BTFSS  F9E.4
0BC5C:  BRA    BC5A
0BC5E:  MOVWF  FAD
0BC60:  MOVFF  3E9,419
0BC64:  MOVLW  01
0BC66:  MOVLB  4
0BC68:  MOVWF  x1A
0BC6A:  MOVLB  0
0BC6C:  CALL   4D8A
0BC70:  MOVLW  22
0BC72:  BTFSS  F9E.4
0BC74:  BRA    BC72
0BC76:  MOVWF  FAD
....................       SendDataDisplay(); 
0BC78:  CALL   40AA
....................        
....................       printf("ciclo.txt=\"%02u\"",cicloCiclos); 
0BC7C:  MOVLW  E8
0BC7E:  MOVWF  FF6
0BC80:  MOVLW  10
0BC82:  MOVWF  FF7
0BC84:  MOVLW  00
0BC86:  MOVWF  FF8
0BC88:  MOVLW  0B
0BC8A:  MOVLB  4
0BC8C:  MOVWF  x19
0BC8E:  MOVLB  0
0BC90:  CALL   4D2C
0BC94:  MOVFF  3EB,419
0BC98:  MOVLW  01
0BC9A:  MOVLB  4
0BC9C:  MOVWF  x1A
0BC9E:  MOVLB  0
0BCA0:  CALL   4D8A
0BCA4:  MOVLW  22
0BCA6:  BTFSS  F9E.4
0BCA8:  BRA    BCA6
0BCAA:  MOVWF  FAD
....................       SendDataDisplay(); 
0BCAC:  CALL   40AA
....................        
....................       printf("t0.txt=\"Ciclo %02u\"",cicloVisto); 
0BCB0:  MOVLW  FA
0BCB2:  MOVWF  FF6
0BCB4:  MOVLW  10
0BCB6:  MOVWF  FF7
0BCB8:  MOVLW  00
0BCBA:  MOVWF  FF8
0BCBC:  MOVLW  0E
0BCBE:  MOVLB  4
0BCC0:  MOVWF  x19
0BCC2:  MOVLB  0
0BCC4:  CALL   4D2C
0BCC8:  MOVFF  2D2,419
0BCCC:  MOVLW  01
0BCCE:  MOVLB  4
0BCD0:  MOVWF  x1A
0BCD2:  MOVLB  0
0BCD4:  CALL   4D8A
0BCD8:  MOVLW  22
0BCDA:  BTFSS  F9E.4
0BCDC:  BRA    BCDA
0BCDE:  MOVWF  FAD
....................       SendDataDisplay(); 
0BCE0:  CALL   40AA
....................        
....................       printf("usuario.txt=\"---\""); 
0BCE4:  MOVLW  0E
0BCE6:  MOVWF  FF6
0BCE8:  MOVLW  11
0BCEA:  MOVWF  FF7
0BCEC:  MOVLW  00
0BCEE:  MOVWF  FF8
0BCF0:  CALL   4078
....................       SendDataDisplay(); 
0BCF4:  CALL   40AA
....................        
....................       //Imprime Valores Dinamicos 
....................       for(i=0;i<7;i++){ 
0BCF8:  MOVLB  3
0BCFA:  CLRF   x3D
0BCFC:  MOVF   x3D,W
0BCFE:  SUBLW  06
0BD00:  BTFSS  FD8.0
0BD02:  BRA    BF9C
....................          printf("hora%u.txt=\"%02u.  %02u:%02u\"",i+1,cicloVisualizado+i+1,horaCiclos[i],minutoCiclos[i]); 
0BD04:  MOVLW  01
0BD06:  ADDWF  x3D,W
0BD08:  MOVLB  4
0BD0A:  MOVWF  x14
0BD0C:  MOVLB  3
0BD0E:  MOVF   x3D,W
0BD10:  MOVLB  2
0BD12:  ADDWF  xD3,W
0BD14:  ADDLW  01
0BD16:  MOVLB  4
0BD18:  MOVWF  x15
0BD1A:  CLRF   03
0BD1C:  MOVLB  3
0BD1E:  MOVF   x3D,W
0BD20:  ADDLW  D2
0BD22:  MOVWF  FE9
0BD24:  MOVLW  03
0BD26:  ADDWFC 03,W
0BD28:  MOVWF  FEA
0BD2A:  MOVFF  FEF,416
0BD2E:  CLRF   03
0BD30:  MOVF   x3D,W
0BD32:  ADDLW  D9
0BD34:  MOVWF  FE9
0BD36:  MOVLW  03
0BD38:  ADDWFC 03,W
0BD3A:  MOVWF  FEA
0BD3C:  MOVFF  FEF,417
0BD40:  MOVLW  20
0BD42:  MOVWF  FF6
0BD44:  MOVLW  11
0BD46:  MOVWF  FF7
0BD48:  MOVLW  00
0BD4A:  MOVWF  FF8
0BD4C:  MOVLW  04
0BD4E:  MOVLB  4
0BD50:  MOVWF  x19
0BD52:  MOVLB  0
0BD54:  CALL   4D2C
0BD58:  MOVFF  414,419
0BD5C:  MOVLW  1B
0BD5E:  MOVLB  4
0BD60:  MOVWF  x1A
0BD62:  MOVLB  0
0BD64:  CALL   4D8A
0BD68:  MOVLW  26
0BD6A:  MOVWF  FF6
0BD6C:  MOVLW  11
0BD6E:  MOVWF  FF7
0BD70:  MOVLW  00
0BD72:  MOVWF  FF8
0BD74:  MOVLW  06
0BD76:  MOVLB  4
0BD78:  MOVWF  x19
0BD7A:  MOVLB  0
0BD7C:  CALL   4D2C
0BD80:  MOVFF  415,419
0BD84:  MOVLW  01
0BD86:  MOVLB  4
0BD88:  MOVWF  x1A
0BD8A:  MOVLB  0
0BD8C:  CALL   4D8A
0BD90:  MOVLW  2E
0BD92:  BTFSS  F9E.4
0BD94:  BRA    BD92
0BD96:  MOVWF  FAD
0BD98:  MOVLW  20
0BD9A:  BTFSS  F9E.4
0BD9C:  BRA    BD9A
0BD9E:  MOVWF  FAD
0BDA0:  MOVLW  20
0BDA2:  BTFSS  F9E.4
0BDA4:  BRA    BDA2
0BDA6:  MOVWF  FAD
0BDA8:  MOVFF  416,419
0BDAC:  MOVLW  01
0BDAE:  MOVLB  4
0BDB0:  MOVWF  x1A
0BDB2:  MOVLB  0
0BDB4:  CALL   4D8A
0BDB8:  MOVLW  3A
0BDBA:  BTFSS  F9E.4
0BDBC:  BRA    BDBA
0BDBE:  MOVWF  FAD
0BDC0:  MOVFF  417,419
0BDC4:  MOVLW  01
0BDC6:  MOVLB  4
0BDC8:  MOVWF  x1A
0BDCA:  MOVLB  0
0BDCC:  CALL   4D8A
0BDD0:  MOVLW  22
0BDD2:  BTFSS  F9E.4
0BDD4:  BRA    BDD2
0BDD6:  MOVWF  FAD
....................          SendDataDisplay(); 
0BDD8:  CALL   40AA
....................          printf("T%u.txt=\"%3.1fC\"",i+1,TCiclos[i]); 
0BDDC:  MOVLW  01
0BDDE:  MOVLB  3
0BDE0:  ADDWF  x3D,W
0BDE2:  MOVLB  4
0BDE4:  MOVWF  x14
0BDE6:  MOVLB  3
0BDE8:  MOVF   x3D,W
0BDEA:  MULLW  04
0BDEC:  MOVF   FF3,W
0BDEE:  CLRF   03
0BDF0:  ADDLW  9A
0BDF2:  MOVWF  FE9
0BDF4:  MOVLW  03
0BDF6:  ADDWFC 03,W
0BDF8:  MOVWF  FEA
0BDFA:  MOVFF  FEF,415
0BDFE:  MOVFF  FEC,416
0BE02:  MOVFF  FEC,417
0BE06:  MOVFF  FEC,418
0BE0A:  MOVLW  54
0BE0C:  BTFSS  F9E.4
0BE0E:  BRA    BE0C
0BE10:  MOVWF  FAD
0BE12:  MOVFF  414,419
0BE16:  MOVLW  1B
0BE18:  MOVLB  4
0BE1A:  MOVWF  x1A
0BE1C:  MOVLB  0
0BE1E:  CALL   4D8A
0BE22:  MOVLW  41
0BE24:  MOVWF  FF6
0BE26:  MOVLW  11
0BE28:  MOVWF  FF7
0BE2A:  MOVLW  00
0BE2C:  MOVWF  FF8
0BE2E:  MOVLW  06
0BE30:  MOVLB  4
0BE32:  MOVWF  x19
0BE34:  MOVLB  0
0BE36:  CALL   4D2C
0BE3A:  MOVLW  02
0BE3C:  MOVWF  FE9
0BE3E:  MOVFF  418,41C
0BE42:  MOVFF  417,41B
0BE46:  MOVFF  416,41A
0BE4A:  MOVFF  415,419
0BE4E:  MOVLW  01
0BE50:  MOVLB  4
0BE52:  MOVWF  x1D
0BE54:  MOVLB  0
0BE56:  CALL   4ECC
0BE5A:  MOVLW  B0
0BE5C:  BTFSS  F9E.4
0BE5E:  BRA    BE5C
0BE60:  MOVWF  FAD
0BE62:  MOVLW  43
0BE64:  BTFSS  F9E.4
0BE66:  BRA    BE64
0BE68:  MOVWF  FAD
0BE6A:  MOVLW  22
0BE6C:  BTFSS  F9E.4
0BE6E:  BRA    BE6C
0BE70:  MOVWF  FAD
....................          SendDataDisplay(); 
0BE72:  CALL   40AA
....................          printf("Pc%u.txt=\"%03LukPa\"",i+1,PcCiclos[i]); 
0BE76:  MOVLW  01
0BE78:  MOVLB  3
0BE7A:  ADDWF  x3D,W
0BE7C:  MOVLB  4
0BE7E:  MOVWF  x14
0BE80:  BCF    FD8.0
0BE82:  MOVLB  3
0BE84:  RLCF   x3D,W
0BE86:  CLRF   03
0BE88:  ADDLW  B6
0BE8A:  MOVWF  FE9
0BE8C:  MOVLW  03
0BE8E:  ADDWFC 03,W
0BE90:  MOVWF  FEA
0BE92:  MOVFF  FEC,416
0BE96:  MOVF   FED,F
0BE98:  MOVFF  FEF,415
0BE9C:  MOVLW  50
0BE9E:  BTFSS  F9E.4
0BEA0:  BRA    BE9E
0BEA2:  MOVWF  FAD
0BEA4:  MOVLW  63
0BEA6:  BTFSS  F9E.4
0BEA8:  BRA    BEA6
0BEAA:  MOVWF  FAD
0BEAC:  MOVFF  414,419
0BEB0:  MOVLW  1B
0BEB2:  MOVLB  4
0BEB4:  MOVWF  x1A
0BEB6:  MOVLB  0
0BEB8:  CALL   4D8A
0BEBC:  MOVLW  54
0BEBE:  MOVWF  FF6
0BEC0:  MOVLW  11
0BEC2:  MOVWF  FF7
0BEC4:  MOVLW  00
0BEC6:  MOVWF  FF8
0BEC8:  MOVLW  06
0BECA:  MOVLB  4
0BECC:  MOVWF  x19
0BECE:  MOVLB  0
0BED0:  CALL   4D2C
0BED4:  MOVLW  0A
0BED6:  MOVWF  FE9
0BED8:  MOVFF  416,419
0BEDC:  MOVFF  415,418
0BEE0:  CALL   5102
0BEE4:  MOVLW  5F
0BEE6:  MOVWF  FF6
0BEE8:  MOVLW  11
0BEEA:  MOVWF  FF7
0BEEC:  MOVLW  00
0BEEE:  MOVWF  FF8
0BEF0:  MOVLW  04
0BEF2:  MOVLB  4
0BEF4:  MOVWF  x19
0BEF6:  MOVLB  0
0BEF8:  CALL   4D2C
....................          SendDataDisplay(); 
0BEFC:  CALL   40AA
....................          printf("Ppc%u.txt=\"%03LukPa\"",i+1,PpcCiclos[i]); 
0BF00:  MOVLW  01
0BF02:  MOVLB  3
0BF04:  ADDWF  x3D,W
0BF06:  MOVLB  4
0BF08:  MOVWF  x14
0BF0A:  BCF    FD8.0
0BF0C:  MOVLB  3
0BF0E:  RLCF   x3D,W
0BF10:  CLRF   03
0BF12:  ADDLW  C4
0BF14:  MOVWF  FE9
0BF16:  MOVLW  03
0BF18:  ADDWFC 03,W
0BF1A:  MOVWF  FEA
0BF1C:  MOVFF  FEC,416
0BF20:  MOVF   FED,F
0BF22:  MOVFF  FEF,415
0BF26:  MOVLW  50
0BF28:  BTFSS  F9E.4
0BF2A:  BRA    BF28
0BF2C:  MOVWF  FAD
0BF2E:  MOVLW  70
0BF30:  BTFSS  F9E.4
0BF32:  BRA    BF30
0BF34:  MOVWF  FAD
0BF36:  MOVLW  63
0BF38:  BTFSS  F9E.4
0BF3A:  BRA    BF38
0BF3C:  MOVWF  FAD
0BF3E:  MOVFF  414,419
0BF42:  MOVLW  1B
0BF44:  MOVLB  4
0BF46:  MOVWF  x1A
0BF48:  MOVLB  0
0BF4A:  CALL   4D8A
0BF4E:  MOVLW  69
0BF50:  MOVWF  FF6
0BF52:  MOVLW  11
0BF54:  MOVWF  FF7
0BF56:  MOVLW  00
0BF58:  MOVWF  FF8
0BF5A:  MOVLW  06
0BF5C:  MOVLB  4
0BF5E:  MOVWF  x19
0BF60:  MOVLB  0
0BF62:  CALL   4D2C
0BF66:  MOVLW  0A
0BF68:  MOVWF  FE9
0BF6A:  MOVFF  416,419
0BF6E:  MOVFF  415,418
0BF72:  CALL   5102
0BF76:  MOVLW  74
0BF78:  MOVWF  FF6
0BF7A:  MOVLW  11
0BF7C:  MOVWF  FF7
0BF7E:  MOVLW  00
0BF80:  MOVWF  FF8
0BF82:  MOVLW  04
0BF84:  MOVLB  4
0BF86:  MOVWF  x19
0BF88:  MOVLB  0
0BF8A:  CALL   4D2C
....................          SendDataDisplay();          
0BF8E:  CALL   40AA
....................          codificaAlarma(); 
0BF92:  GOTO   5E4C
....................       }   
0BF96:  MOVLB  3
0BF98:  INCF   x3D,F
0BF9A:  BRA    BCFC
....................    } 
.................... //_--------------------------------------------------------------------------------------------------------------------------------------------------------       
....................  
.................... //_--------------------------------------------------------------------------------------------------------------------------------------------------------       
....................     if(Menu==15){//Menu de Clave Correcta 
0BF9C:  MOVF   x3A,W
0BF9E:  SUBLW  0F
0BFA0:  BNZ   BFD8
....................       if(!entro){ 
0BFA2:  MOVLB  0
0BFA4:  BTFSC  xA3.7
0BFA6:  BRA    BFC2
....................          delay_ms(2000); 
0BFA8:  MOVLW  08
0BFAA:  MOVLB  4
0BFAC:  MOVWF  x14
0BFAE:  MOVLW  FA
0BFB0:  MOVWF  x29
0BFB2:  MOVLB  0
0BFB4:  CALL   19C2
0BFB8:  MOVLB  4
0BFBA:  DECFSZ x14,F
0BFBC:  BRA    BFAE
....................          entro=ON; 
0BFBE:  MOVLB  0
0BFC0:  BSF    xA3.7
....................       } 
....................       printf("page MenuPrincipal"); 
0BFC2:  MOVLW  7A
0BFC4:  MOVWF  FF6
0BFC6:  MOVLW  11
0BFC8:  MOVWF  FF7
0BFCA:  MOVLW  00
0BFCC:  MOVWF  FF8
0BFCE:  CALL   4078
....................       SendDataDisplay(); 
0BFD2:  CALL   40AA
0BFD6:  MOVLB  3
....................    } 
.................... //_--------------------------------------------------------------------------------------------------------------------------------------------------------       
....................  
.................... //_--------------------------------------------------------------------------------------------------------------------------------------------------------       
....................     if(Menu==16){//Menu de Clave InCorrecta 
0BFD8:  MOVF   x3A,W
0BFDA:  SUBLW  10
0BFDC:  BNZ   C014
....................       if(!entro){ 
0BFDE:  MOVLB  0
0BFE0:  BTFSC  xA3.7
0BFE2:  BRA    BFFE
....................          delay_ms(2000); 
0BFE4:  MOVLW  08
0BFE6:  MOVLB  4
0BFE8:  MOVWF  x14
0BFEA:  MOVLW  FA
0BFEC:  MOVWF  x29
0BFEE:  MOVLB  0
0BFF0:  CALL   19C2
0BFF4:  MOVLB  4
0BFF6:  DECFSZ x14,F
0BFF8:  BRA    BFEA
....................          entro=ON; 
0BFFA:  MOVLB  0
0BFFC:  BSF    xA3.7
....................       } 
....................       printf("page Clave"); 
0BFFE:  MOVLW  8E
0C000:  MOVWF  FF6
0C002:  MOVLW  11
0C004:  MOVWF  FF7
0C006:  MOVLW  00
0C008:  MOVWF  FF8
0C00A:  CALL   4078
....................       SendDataDisplay(); 
0C00E:  CALL   40AA
0C012:  MOVLB  3
....................    } 
.................... //_--------------------------------------------------------------------------------------------------------------------------------------------------------       
....................  
.................... //_--------------------------------------------------------------------------------------------------------------------------------------------------------     
....................    if(Menu==20){ // Este es el menu de cuando el proceso se inicio. 
0C014:  MOVF   x3A,W
0C016:  SUBLW  14
0C018:  BTFSS  FD8.2
0C01A:  GOTO   D0D8
....................    //Lectura_Esclavos(); 
....................    GuardaDatoEstatico(); 
0C01E:  MOVLB  0
0C020:  GOTO   64D2
....................    guardaCiclo=ON; 
0C024:  BSF    xA1.7
....................    if(!Libre){ 
0C026:  BTFSC  xA3.5
0C028:  BRA    C0AE
....................       printf("t2f.txt=\"%u\"",CicloSeleccionado); 
0C02A:  MOVLW  9A
0C02C:  MOVWF  FF6
0C02E:  MOVLW  11
0C030:  MOVWF  FF7
0C032:  MOVLW  00
0C034:  MOVWF  FF8
0C036:  MOVLW  09
0C038:  MOVLB  4
0C03A:  MOVWF  x19
0C03C:  MOVLB  0
0C03E:  CALL   4D2C
0C042:  MOVFF  340,419
0C046:  MOVLW  1B
0C048:  MOVLB  4
0C04A:  MOVWF  x1A
0C04C:  MOVLB  0
0C04E:  CALL   4D8A
0C052:  MOVLW  22
0C054:  BTFSS  F9E.4
0C056:  BRA    C054
0C058:  MOVWF  FAD
....................       SendDataDisplay(); 
0C05A:  CALL   40AA
....................       printf("t3f.txt=\"%s\"",texto[CicloSeleccionado-1]); 
0C05E:  MOVLW  01
0C060:  MOVLB  3
0C062:  SUBWF  x40,W
0C064:  MULLW  14
0C066:  MOVF   FF3,W
0C068:  CLRF   03
0C06A:  MOVLB  4
0C06C:  MOVWF  x14
0C06E:  MOVLW  A8
0C070:  MOVWF  FF6
0C072:  MOVLW  11
0C074:  MOVWF  FF7
0C076:  MOVLW  00
0C078:  MOVWF  FF8
0C07A:  MOVLW  09
0C07C:  MOVWF  x19
0C07E:  MOVLB  0
0C080:  CALL   4D2C
0C084:  MOVLW  50
0C086:  MOVWF  FF6
0C088:  MOVLW  01
0C08A:  MOVWF  FF7
0C08C:  MOVLW  00
0C08E:  MOVWF  FF8
0C090:  MOVLB  4
0C092:  MOVF   x14,W
0C094:  ADDWF  FF6,F
0C096:  MOVLW  00
0C098:  ADDWFC FF7,F
0C09A:  MOVLB  0
0C09C:  CALL   4078
0C0A0:  MOVLW  22
0C0A2:  BTFSS  F9E.4
0C0A4:  BRA    C0A2
0C0A6:  MOVWF  FAD
....................       SendDataDisplay(); 
0C0A8:  CALL   40AA
....................    }else{ 
0C0AC:  BRA    C0FE
....................       printf("t2f.txt=\"%u\"",CicloLibre+4); 
0C0AE:  MOVLW  04
0C0B0:  MOVLB  3
0C0B2:  ADDWF  x2E,W
0C0B4:  MOVLB  4
0C0B6:  MOVWF  x14
0C0B8:  MOVLW  B6
0C0BA:  MOVWF  FF6
0C0BC:  MOVLW  11
0C0BE:  MOVWF  FF7
0C0C0:  MOVLW  00
0C0C2:  MOVWF  FF8
0C0C4:  MOVLW  09
0C0C6:  MOVWF  x19
0C0C8:  MOVLB  0
0C0CA:  CALL   4D2C
0C0CE:  MOVFF  414,419
0C0D2:  MOVLW  1B
0C0D4:  MOVLB  4
0C0D6:  MOVWF  x1A
0C0D8:  MOVLB  0
0C0DA:  CALL   4D8A
0C0DE:  MOVLW  22
0C0E0:  BTFSS  F9E.4
0C0E2:  BRA    C0E0
0C0E4:  MOVWF  FAD
....................       SendDataDisplay(); 
0C0E6:  CALL   40AA
....................       printf("t3f.txt=\"Personalizado\""); 
0C0EA:  MOVLW  C4
0C0EC:  MOVWF  FF6
0C0EE:  MOVLW  11
0C0F0:  MOVWF  FF7
0C0F2:  MOVLW  00
0C0F4:  MOVWF  FF8
0C0F6:  CALL   4078
....................       SendDataDisplay(); 
0C0FA:  CALL   40AA
....................    } 
....................     
....................    if(RIGHT){ 
0C0FE:  BSF    F93.2
0C100:  BTFSC  F81.2
0C102:  BRA    C11A
....................       //glcd_init(ON); 
....................       delay_ms(1000); 
0C104:  MOVLW  04
0C106:  MOVLB  4
0C108:  MOVWF  x14
0C10A:  MOVLW  FA
0C10C:  MOVWF  x29
0C10E:  MOVLB  0
0C110:  CALL   19C2
0C114:  MOVLB  4
0C116:  DECFSZ x14,F
0C118:  BRA    C10A
....................       /*flagCalentando=OFF; 
....................       flagDesfogando=OFF; 
....................       flagEsterilizando=OFF;*/ 
....................    } 
....................     
....................    if(PresionCamara>275){ 
0C11A:  MOVLB  3
0C11C:  MOVF   x54,W
0C11E:  SUBLW  00
0C120:  BC    C130
0C122:  XORLW  FF
0C124:  BNZ   C12C
0C126:  MOVF   x53,W
0C128:  SUBLW  13
0C12A:  BC    C130
....................       AlarmaPresion=ON; 
0C12C:  MOVLB  0
0C12E:  BSF    xA3.4
....................    } 
....................     
....................    if(Temperatura>105 && PresionCamara<10 && !Desfogando){ 
0C130:  MOVLB  4
0C132:  CLRF   x1B
0C134:  CLRF   x1A
0C136:  MOVLW  52
0C138:  MOVWF  x19
0C13A:  MOVLW  85
0C13C:  MOVWF  x18
0C13E:  MOVFF  31B,41F
0C142:  MOVFF  31A,41E
0C146:  MOVFF  319,41D
0C14A:  MOVFF  318,41C
0C14E:  MOVLB  0
0C150:  CALL   1FE2
0C154:  BNC   C176
0C156:  MOVLB  3
0C158:  MOVF   x54,F
0C15A:  BTFSC  FD8.2
0C15C:  BRA    C162
0C15E:  MOVLB  0
0C160:  BRA    C176
0C162:  MOVF   x53,W
0C164:  SUBLW  09
0C166:  BTFSC  FD8.0
0C168:  BRA    C16E
0C16A:  MOVLB  0
0C16C:  BRA    C176
0C16E:  MOVLB  0
0C170:  BTFSC  xA0.5
0C172:  BRA    C176
....................       AlarmaCiclo=ON; 
0C174:  BSF    x9F.6
....................    } 
....................     
....................    if(TiempoCiclo>3000){ 
0C176:  MOVF   xA5,W
0C178:  SUBLW  0A
0C17A:  BC    C1AE
0C17C:  XORLW  FF
0C17E:  BNZ   C186
0C180:  MOVF   xA4,W
0C182:  SUBLW  B8
0C184:  BC    C1AE
....................       if(TiempoCiclo>5000) 
0C186:  MOVF   xA5,W
0C188:  SUBLW  12
0C18A:  BC    C198
0C18C:  XORLW  FF
0C18E:  BNZ   C196
0C190:  MOVF   xA4,W
0C192:  SUBLW  88
0C194:  BC    C198
....................          AlarmaTiempoProlongado=ON; 
0C196:  BSF    x9F.0
....................       if(PresionCamara<10){ 
0C198:  MOVLB  3
0C19A:  MOVF   x54,F
0C19C:  BNZ   C1AA
0C19E:  MOVF   x53,W
0C1A0:  SUBLW  09
0C1A2:  BNC   C1AA
....................          AlarmaTiempoProlongado=ON; 
0C1A4:  MOVLB  0
0C1A6:  BSF    x9F.0
0C1A8:  MOVLB  3
....................       } 
....................    }else{ 
0C1AA:  BRA    C1B2
0C1AC:  MOVLB  0
....................       AlarmaTiempoProlongado=OFF; 
0C1AE:  BCF    x9F.0
0C1B0:  MOVLB  3
....................    } 
....................     
....................    if(Setpoint>80){ 
0C1B2:  MOVF   x41,W
0C1B4:  SUBLW  50
0C1B6:  BC    C218
....................       if(Temperatura>Setpoint+3.0){ 
0C1B8:  MOVLB  4
0C1BA:  CLRF   x2A
0C1BC:  MOVFF  341,429
0C1C0:  MOVLB  0
0C1C2:  CALL   19EA
0C1C6:  BCF    FD8.1
0C1C8:  MOVFF  03,42C
0C1CC:  MOVFF  02,42B
0C1D0:  MOVFF  01,42A
0C1D4:  MOVFF  00,429
0C1D8:  MOVLB  4
0C1DA:  CLRF   x30
0C1DC:  CLRF   x2F
0C1DE:  MOVLW  40
0C1E0:  MOVWF  x2E
0C1E2:  MOVLW  80
0C1E4:  MOVWF  x2D
0C1E6:  MOVLB  0
0C1E8:  CALL   1B7E
0C1EC:  MOVFF  03,41B
0C1F0:  MOVFF  02,41A
0C1F4:  MOVFF  01,419
0C1F8:  MOVFF  00,418
0C1FC:  MOVFF  31B,41F
0C200:  MOVFF  31A,41E
0C204:  MOVFF  319,41D
0C208:  MOVFF  318,41C
0C20C:  CALL   1FE2
0C210:  BNC   C214
....................          AlarmaSobreTemperatura=ON; 
0C212:  BSF    x9F.1
....................       } 
....................    }else{ 
0C214:  BRA    C274
0C216:  MOVLB  3
....................       if(Temperatura>Setpoint+5.0){ 
0C218:  MOVLB  4
0C21A:  CLRF   x2A
0C21C:  MOVFF  341,429
0C220:  MOVLB  0
0C222:  CALL   19EA
0C226:  BCF    FD8.1
0C228:  MOVFF  03,42C
0C22C:  MOVFF  02,42B
0C230:  MOVFF  01,42A
0C234:  MOVFF  00,429
0C238:  MOVLB  4
0C23A:  CLRF   x30
0C23C:  CLRF   x2F
0C23E:  MOVLW  20
0C240:  MOVWF  x2E
0C242:  MOVLW  81
0C244:  MOVWF  x2D
0C246:  MOVLB  0
0C248:  CALL   1B7E
0C24C:  MOVFF  03,41B
0C250:  MOVFF  02,41A
0C254:  MOVFF  01,419
0C258:  MOVFF  00,418
0C25C:  MOVFF  31B,41F
0C260:  MOVFF  31A,41E
0C264:  MOVFF  319,41D
0C268:  MOVFF  318,41C
0C26C:  CALL   1FE2
0C270:  BNC   C274
....................          AlarmaSobreTemperatura=ON; 
0C272:  BSF    x9F.1
....................       } 
....................    } 
....................     
....................    if(TiempoLlenado>600){ 
0C274:  MOVF   xA7,W
0C276:  SUBLW  01
0C278:  BC    C288
0C27A:  XORLW  FF
0C27C:  BNZ   C284
0C27E:  MOVF   xA6,W
0C280:  SUBLW  58
0C282:  BC    C288
....................       AlarmaLlenado=ON; 
0C284:  BSF    x9F.2
....................    }else{ 
0C286:  BRA    C28A
....................       AlarmaLlenado=OFF; 
0C288:  BCF    x9F.2
....................    } 
....................     
....................    if(!TERM){ 
0C28A:  BSF    F93.5
0C28C:  BTFSS  F81.5
0C28E:  BRA    C2B0
....................       delay_ms(1000); 
0C290:  MOVLW  04
0C292:  MOVLB  4
0C294:  MOVWF  x14
0C296:  MOVLW  FA
0C298:  MOVWF  x29
0C29A:  MOVLB  0
0C29C:  CALL   19C2
0C2A0:  MOVLB  4
0C2A2:  DECFSZ x14,F
0C2A4:  BRA    C296
....................       if(!TERM){ 
0C2A6:  BSF    F93.5
0C2A8:  BTFSS  F81.5
0C2AA:  BRA    C2B2
....................          AlarmaTermostato=ON; 
0C2AC:  MOVLB  0
0C2AE:  BSF    x9F.3
0C2B0:  MOVLB  4
....................       } 
....................    } 
....................     
....................    if(!DOOR){ 
0C2B2:  BSF    F93.6
0C2B4:  BTFSS  F81.6
0C2B6:  BRA    C2D0
....................       //Desfogue_off; 
....................       //Solenoide_off; 
....................       if(CalderinLleno && !Secando && !Finalizo && !Desfogando){ 
0C2B8:  MOVLB  0
0C2BA:  BTFSS  xA0.0
0C2BC:  BRA    C2CC
0C2BE:  BTFSC  xA0.3
0C2C0:  BRA    C2CC
0C2C2:  BTFSC  xA3.3
0C2C4:  BRA    C2CC
0C2C6:  BTFSC  xA0.5
0C2C8:  BRA    C2CC
....................          AlarmaPuerta=ON; 
0C2CA:  BSF    x9F.4
....................       } 
....................    }else{ 
0C2CC:  BRA    C2D4
0C2CE:  MOVLB  4
....................       AlarmaPuerta=OFF; 
0C2D0:  MOVLB  0
0C2D2:  BCF    x9F.4
....................    } 
....................  
....................    if(!STOP){ 
0C2D4:  BSF    F93.7
0C2D6:  BTFSS  F81.7
0C2D8:  BRA    C2DC
....................       AlarmaEmergencia=ON; 
0C2DA:  BSF    x9F.5
....................    } 
....................     
....................    if(AlarmaPuerta || AlarmaTermostato || AlarmaLlenado || AlarmaSobreTemperatura || AlarmaTiempoProlongado || AlarmaEmergencia || AlarmaPresion 
....................    || AlarmaCiclo){ 
0C2DC:  BTFSC  x9F.4
0C2DE:  BRA    C2FC
0C2E0:  BTFSC  x9F.3
0C2E2:  BRA    C2FC
0C2E4:  BTFSC  x9F.2
0C2E6:  BRA    C2FC
0C2E8:  BTFSC  x9F.1
0C2EA:  BRA    C2FC
0C2EC:  BTFSC  x9F.0
0C2EE:  BRA    C2FC
0C2F0:  BTFSC  x9F.5
0C2F2:  BRA    C2FC
0C2F4:  BTFSC  xA3.4
0C2F6:  BRA    C2FC
0C2F8:  BTFSS  x9F.6
0C2FA:  BRA    C744
....................       ActivaAlarma(1); 
0C2FC:  MOVLW  01
0C2FE:  MOVLB  4
0C300:  MOVWF  x14
0C302:  MOVLB  0
0C304:  CALL   4C2A
....................       if(AlarmaEmergencia){ 
0C308:  BTFSS  x9F.5
0C30A:  BRA    C396
....................          codigoAlarma=1; 
0C30C:  MOVLW  01
0C30E:  MOVLB  2
0C310:  MOVWF  xD6
....................          printf("Funcionamiento.t4f.txt=\" Parada de Emergencia\""); 
0C312:  MOVLW  DC
0C314:  MOVWF  FF6
0C316:  MOVLW  11
0C318:  MOVWF  FF7
0C31A:  MOVLW  00
0C31C:  MOVWF  FF8
0C31E:  MOVLB  0
0C320:  CALL   4078
....................          SendDataDisplay(); 
0C324:  CALL   40AA
....................          printf("Funcionamiento.t5f.txt=\" Cancelado\""); 
0C328:  MOVLW  0C
0C32A:  MOVWF  FF6
0C32C:  MOVLW  12
0C32E:  MOVWF  FF7
0C330:  MOVLW  00
0C332:  MOVWF  FF8
0C334:  CALL   4078
....................          SendDataDisplay(); 
0C338:  CALL   40AA
....................          Desfogue_on; 
0C33C:  BSF    F8C.4
0C33E:  BCF    F95.4
....................          SSR_off; 
0C340:  BSF    F8B.2
0C342:  BCF    F94.2
....................          Enfr_on; 
0C344:  BSF    F8C.6
0C346:  BCF    F95.6
....................          Vent_on; 
0C348:  BSF    F8C.5
0C34A:  BCF    F95.5
....................          Esterilizando=OFF; 
0C34C:  BCF    xA0.2
....................          Desfogando=OFF; 
0C34E:  BCF    xA0.5
....................          DesfogueSuave=OFF; 
0C350:  BCF    xA0.6
....................          Esterilizando=OFF; 
0C352:  BCF    xA0.2
....................          //IniciaCiclo=OFF; 
....................          Controlando=0; 
0C354:  MOVLB  3
0C356:  CLRF   x32
....................          if(codigoAnt!=codigoAlarma){ 
0C358:  MOVLB  2
0C35A:  MOVF   xD6,W
0C35C:  SUBWF  xD7,W
0C35E:  BZ    C36E
....................             codigoAnt=codigoAlarma; 
0C360:  MOVFF  2D6,2D7
....................             GuardaDatoCiclo(); 
0C364:  MOVLB  0
0C366:  CALL   66C4
....................             incrementaCiclos(); 
0C36A:  CALL   6A76
....................          } 
....................          if(!flagImprimir){ 
0C36E:  MOVLB  3
0C370:  BTFSC  x2F.6
0C372:  BRA    C392
....................             Imprime=20; 
0C374:  MOVLW  14
0C376:  MOVWF  x83
....................             Envio_Esclavos(); 
0C378:  MOVLB  0
0C37A:  CALL   4964
....................             delay_ms(100); 
0C37E:  MOVLW  64
0C380:  MOVLB  4
0C382:  MOVWF  x29
0C384:  MOVLB  0
0C386:  CALL   19C2
....................             Imprime=10; 
0C38A:  MOVLW  0A
0C38C:  MOVLB  3
0C38E:  MOVWF  x83
....................             flagImprimir=1; 
0C390:  BSF    x2F.6
....................          } 
....................       }else if(AlarmaPuerta){ 
0C392:  BRA    C73E
0C394:  MOVLB  0
0C396:  BTFSS  x9F.4
0C398:  BRA    C3F2
....................          codigoAlarma=2; 
0C39A:  MOVLW  02
0C39C:  MOVLB  2
0C39E:  MOVWF  xD6
....................             printf("Funcionamiento.t4f.txt=\" Puerta Abierta\""); 
0C3A0:  MOVLW  30
0C3A2:  MOVWF  FF6
0C3A4:  MOVLW  12
0C3A6:  MOVWF  FF7
0C3A8:  MOVLW  00
0C3AA:  MOVWF  FF8
0C3AC:  MOVLB  0
0C3AE:  CALL   4078
....................             SendDataDisplay(); 
0C3B2:  CALL   40AA
....................             printf("Funcionamiento.t5f.txt=\" Pausado\""); 
0C3B6:  MOVLW  5A
0C3B8:  MOVWF  FF6
0C3BA:  MOVLW  12
0C3BC:  MOVWF  FF7
0C3BE:  MOVLW  00
0C3C0:  MOVWF  FF8
0C3C2:  CALL   4078
....................             SendDataDisplay(); 
0C3C6:  CALL   40AA
....................             SSR_off; 
0C3CA:  BSF    F8B.2
0C3CC:  BCF    F94.2
....................             Enfr_off; 
0C3CE:  BCF    F8C.6
0C3D0:  BCF    F95.6
....................             IniciaLlenado=OFF; 
0C3D2:  BCF    x9F.7
....................             //IniciaCiclo=OFF; 
....................             Esterilizando=OFF; 
0C3D4:  BCF    xA0.2
....................             Controlando=0; 
0C3D6:  MOVLB  3
0C3D8:  CLRF   x32
....................             if(codigoAnt!=codigoAlarma){ 
0C3DA:  MOVLB  2
0C3DC:  MOVF   xD6,W
0C3DE:  SUBWF  xD7,W
0C3E0:  BZ    C3EE
....................                codigoAnt=codigoAlarma; 
0C3E2:  MOVFF  2D6,2D7
....................                GuardaDatoCiclo(); 
0C3E6:  MOVLB  0
0C3E8:  CALL   66C4
0C3EC:  MOVLB  2
....................                //incrementaCiclos(); 
....................             } 
....................       }else if(AlarmaLlenado){ 
0C3EE:  BRA    C740
0C3F0:  MOVLB  0
0C3F2:  BTFSS  x9F.2
0C3F4:  BRA    C47A
....................          codigoAlarma=8; 
0C3F6:  MOVLW  08
0C3F8:  MOVLB  2
0C3FA:  MOVWF  xD6
....................             printf("Funcionamiento.t4f.txt=\" Tiempo Llenado\""); 
0C3FC:  MOVLW  7C
0C3FE:  MOVWF  FF6
0C400:  MOVLW  12
0C402:  MOVWF  FF7
0C404:  MOVLW  00
0C406:  MOVWF  FF8
0C408:  MOVLB  0
0C40A:  CALL   4078
....................             SendDataDisplay(); 
0C40E:  CALL   40AA
....................             printf("Funcionamiento.t5f.txt=\" Cancelado\""); 
0C412:  MOVLW  A6
0C414:  MOVWF  FF6
0C416:  MOVLW  12
0C418:  MOVWF  FF7
0C41A:  MOVLW  00
0C41C:  MOVWF  FF8
0C41E:  CALL   4078
....................             SendDataDisplay(); 
0C422:  CALL   40AA
....................             Desfogue_off; 
0C426:  BCF    F8C.4
0C428:  BCF    F95.4
....................             SSR_off; 
0C42A:  BSF    F8B.2
0C42C:  BCF    F94.2
....................             Enfr_off; 
0C42E:  BCF    F8C.6
0C430:  BCF    F95.6
....................             IniciaLlenado=OFF; 
0C432:  BCF    x9F.7
....................             IniciaCiclo=OFF; 
0C434:  BCF    xA0.1
....................             Esterilizando=OFF; 
0C436:  BCF    xA0.2
....................             Controlando=0; 
0C438:  MOVLB  3
0C43A:  CLRF   x32
....................             if(codigoAnt!=codigoAlarma){ 
0C43C:  MOVLB  2
0C43E:  MOVF   xD6,W
0C440:  SUBWF  xD7,W
0C442:  BZ    C452
....................             codigoAnt=codigoAlarma; 
0C444:  MOVFF  2D6,2D7
....................             GuardaDatoCiclo(); 
0C448:  MOVLB  0
0C44A:  CALL   66C4
....................             incrementaCiclos(); 
0C44E:  CALL   6A76
....................          } 
....................             if(!flagImprimir){ 
0C452:  MOVLB  3
0C454:  BTFSC  x2F.6
0C456:  BRA    C476
....................                Imprime=21; 
0C458:  MOVLW  15
0C45A:  MOVWF  x83
....................                Envio_Esclavos(); 
0C45C:  MOVLB  0
0C45E:  CALL   4964
....................                delay_ms(100); 
0C462:  MOVLW  64
0C464:  MOVLB  4
0C466:  MOVWF  x29
0C468:  MOVLB  0
0C46A:  CALL   19C2
....................                Imprime=10; 
0C46E:  MOVLW  0A
0C470:  MOVLB  3
0C472:  MOVWF  x83
....................                flagImprimir=1; 
0C474:  BSF    x2F.6
....................             } 
....................       }else if(AlarmaTermostato){ // Alarma de Termostato 
0C476:  BRA    C73E
0C478:  MOVLB  0
0C47A:  BTFSS  x9F.3
0C47C:  BRA    C50C
....................          codigoAlarma=3; 
0C47E:  MOVLW  03
0C480:  MOVLB  2
0C482:  MOVWF  xD6
....................             tiempo_esterilizacion=0;tiempo_secado=0;          
0C484:  MOVLB  3
0C486:  CLRF   x44
0C488:  CLRF   x45
....................             printf("Funcionamiento.t4f.txt=\" Termostato\""); 
0C48A:  MOVLW  CA
0C48C:  MOVWF  FF6
0C48E:  MOVLW  12
0C490:  MOVWF  FF7
0C492:  MOVLW  00
0C494:  MOVWF  FF8
0C496:  MOVLB  0
0C498:  CALL   4078
....................             SendDataDisplay(); 
0C49C:  CALL   40AA
....................             printf("Funcionamiento.t5f.txt=\" Cancelado\""); 
0C4A0:  MOVLW  F0
0C4A2:  MOVWF  FF6
0C4A4:  MOVLW  12
0C4A6:  MOVWF  FF7
0C4A8:  MOVLW  00
0C4AA:  MOVWF  FF8
0C4AC:  CALL   4078
....................             SendDataDisplay(); 
0C4B0:  CALL   40AA
....................             Desfogue_on;             
0C4B4:  BSF    F8C.4
0C4B6:  BCF    F95.4
....................             SSR_off; 
0C4B8:  BSF    F8B.2
0C4BA:  BCF    F94.2
....................             Enfr_on; 
0C4BC:  BSF    F8C.6
0C4BE:  BCF    F95.6
....................             Esterilizando=OFF; 
0C4C0:  BCF    xA0.2
....................             Desfogando=OFF; 
0C4C2:  BCF    xA0.5
....................             IniciaCiclo=OFF; 
0C4C4:  BCF    xA0.1
....................             Controlando=0; 
0C4C6:  MOVLB  3
0C4C8:  CLRF   x32
....................             Vent_on; 
0C4CA:  BSF    F8C.5
0C4CC:  BCF    F95.5
....................             if(codigoAnt!=codigoAlarma){ 
0C4CE:  MOVLB  2
0C4D0:  MOVF   xD6,W
0C4D2:  SUBWF  xD7,W
0C4D4:  BZ    C4E4
....................             codigoAnt=codigoAlarma; 
0C4D6:  MOVFF  2D6,2D7
....................             GuardaDatoCiclo(); 
0C4DA:  MOVLB  0
0C4DC:  CALL   66C4
....................             incrementaCiclos(); 
0C4E0:  CALL   6A76
....................          } 
....................             if(!flagImprimir){ 
0C4E4:  MOVLB  3
0C4E6:  BTFSC  x2F.6
0C4E8:  BRA    C508
....................                Imprime=22; 
0C4EA:  MOVLW  16
0C4EC:  MOVWF  x83
....................                Envio_Esclavos(); 
0C4EE:  MOVLB  0
0C4F0:  CALL   4964
....................                delay_ms(100); 
0C4F4:  MOVLW  64
0C4F6:  MOVLB  4
0C4F8:  MOVWF  x29
0C4FA:  MOVLB  0
0C4FC:  CALL   19C2
....................                Imprime=10; 
0C500:  MOVLW  0A
0C502:  MOVLB  3
0C504:  MOVWF  x83
....................                flagImprimir=1; 
0C506:  BSF    x2F.6
....................             } 
....................       }else if(AlarmaSobreTemperatura){ // Alarma de Sobre Temperatura 
0C508:  BRA    C73E
0C50A:  MOVLB  0
0C50C:  BTFSS  x9F.1
0C50E:  BRA    C5A0
....................          codigoAlarma=4; 
0C510:  MOVLW  04
0C512:  MOVLB  2
0C514:  MOVWF  xD6
....................          tiempo_esterilizacion=0;tiempo_secado=0;          
0C516:  MOVLB  3
0C518:  CLRF   x44
0C51A:  CLRF   x45
....................          printf("Funcionamiento.t4f.txt=\" Sobretemperatura\""); 
0C51C:  MOVLW  14
0C51E:  MOVWF  FF6
0C520:  MOVLW  13
0C522:  MOVWF  FF7
0C524:  MOVLW  00
0C526:  MOVWF  FF8
0C528:  MOVLB  0
0C52A:  CALL   4078
....................          SendDataDisplay(); 
0C52E:  CALL   40AA
....................          printf("Funcionamiento.t5f.txt=\" Cancelado\""); 
0C532:  MOVLW  40
0C534:  MOVWF  FF6
0C536:  MOVLW  13
0C538:  MOVWF  FF7
0C53A:  MOVLW  00
0C53C:  MOVWF  FF8
0C53E:  CALL   4078
....................          SendDataDisplay();   
0C542:  CALL   40AA
....................          Desfogue_on; 
0C546:  BSF    F8C.4
0C548:  BCF    F95.4
....................          SSR_off; 
0C54A:  BSF    F8B.2
0C54C:  BCF    F94.2
....................          Enfr_on; 
0C54E:  BSF    F8C.6
0C550:  BCF    F95.6
....................          Controlando=0; 
0C552:  MOVLB  3
0C554:  CLRF   x32
....................          IniciaLlenado=OFF; 
0C556:  MOVLB  0
0C558:  BCF    x9F.7
....................          IniciaCiclo=OFF; 
0C55A:  BCF    xA0.1
....................          Esterilizando=OFF; 
0C55C:  BCF    xA0.2
....................          Vent_on; 
0C55E:  BSF    F8C.5
0C560:  BCF    F95.5
....................          if(codigoAnt!=codigoAlarma){ 
0C562:  MOVLB  2
0C564:  MOVF   xD6,W
0C566:  SUBWF  xD7,W
0C568:  BZ    C578
....................             codigoAnt=codigoAlarma; 
0C56A:  MOVFF  2D6,2D7
....................             GuardaDatoCiclo(); 
0C56E:  MOVLB  0
0C570:  CALL   66C4
....................             incrementaCiclos(); 
0C574:  CALL   6A76
....................          } 
....................          if(!flagImprimir){ 
0C578:  MOVLB  3
0C57A:  BTFSC  x2F.6
0C57C:  BRA    C59C
....................             Imprime=23; 
0C57E:  MOVLW  17
0C580:  MOVWF  x83
....................             Envio_Esclavos(); 
0C582:  MOVLB  0
0C584:  CALL   4964
....................             delay_ms(100); 
0C588:  MOVLW  64
0C58A:  MOVLB  4
0C58C:  MOVWF  x29
0C58E:  MOVLB  0
0C590:  CALL   19C2
....................             Imprime=10; 
0C594:  MOVLW  0A
0C596:  MOVLB  3
0C598:  MOVWF  x83
....................             flagImprimir=1; 
0C59A:  BSF    x2F.6
....................          } 
....................       }else if(AlarmaTiempoProlongado){ // Alarma de Error de Tiempo: Error por exceso de tiempo de calentamiento. 
0C59C:  BRA    C73E
0C59E:  MOVLB  0
0C5A0:  BTFSS  x9F.0
0C5A2:  BRA    C62E
....................          codigoAlarma=5; 
0C5A4:  MOVLW  05
0C5A6:  MOVLB  2
0C5A8:  MOVWF  xD6
....................          printf("Funcionamiento.t4f.txt=\" Tiempo Prolongado\""); 
0C5AA:  MOVLW  64
0C5AC:  MOVWF  FF6
0C5AE:  MOVLW  13
0C5B0:  MOVWF  FF7
0C5B2:  MOVLW  00
0C5B4:  MOVWF  FF8
0C5B6:  MOVLB  0
0C5B8:  CALL   4078
....................          SendDataDisplay(); 
0C5BC:  CALL   40AA
....................          printf("Funcionamiento.t5f.txt=\" Cancelado\""); 
0C5C0:  MOVLW  90
0C5C2:  MOVWF  FF6
0C5C4:  MOVLW  13
0C5C6:  MOVWF  FF7
0C5C8:  MOVLW  00
0C5CA:  MOVWF  FF8
0C5CC:  CALL   4078
....................          SendDataDisplay(); 
0C5D0:  CALL   40AA
....................          Desfogue_on; 
0C5D4:  BSF    F8C.4
0C5D6:  BCF    F95.4
....................          SSR_off; 
0C5D8:  BSF    F8B.2
0C5DA:  BCF    F94.2
....................          Enfr_on; 
0C5DC:  BSF    F8C.6
0C5DE:  BCF    F95.6
....................          Controlando=0; 
0C5E0:  MOVLB  3
0C5E2:  CLRF   x32
....................          IniciaLlenado=OFF; 
0C5E4:  MOVLB  0
0C5E6:  BCF    x9F.7
....................          IniciaCiclo=OFF; 
0C5E8:  BCF    xA0.1
....................          Esterilizando=OFF; 
0C5EA:  BCF    xA0.2
....................          Vent_on; 
0C5EC:  BSF    F8C.5
0C5EE:  BCF    F95.5
....................          if(codigoAnt!=codigoAlarma){ 
0C5F0:  MOVLB  2
0C5F2:  MOVF   xD6,W
0C5F4:  SUBWF  xD7,W
0C5F6:  BZ    C606
....................             codigoAnt=codigoAlarma; 
0C5F8:  MOVFF  2D6,2D7
....................             GuardaDatoCiclo(); 
0C5FC:  MOVLB  0
0C5FE:  CALL   66C4
....................             incrementaCiclos(); 
0C602:  CALL   6A76
....................          } 
....................          if(!flagImprimir){ 
0C606:  MOVLB  3
0C608:  BTFSC  x2F.6
0C60A:  BRA    C62A
....................             Imprime=24; 
0C60C:  MOVLW  18
0C60E:  MOVWF  x83
....................             Envio_Esclavos(); 
0C610:  MOVLB  0
0C612:  CALL   4964
....................             delay_ms(100); 
0C616:  MOVLW  64
0C618:  MOVLB  4
0C61A:  MOVWF  x29
0C61C:  MOVLB  0
0C61E:  CALL   19C2
....................             Imprime=10; 
0C622:  MOVLW  0A
0C624:  MOVLB  3
0C626:  MOVWF  x83
....................             flagImprimir=1; 
0C628:  BSF    x2F.6
....................          } 
....................       }else if(AlarmaPresion){ // Alarma de Error de SobrePresion: Error por exceso de Presion. 
0C62A:  BRA    C73E
0C62C:  MOVLB  0
0C62E:  BTFSS  xA3.4
0C630:  BRA    C6BA
....................          codigoAlarma=6; 
0C632:  MOVLW  06
0C634:  MOVLB  2
0C636:  MOVWF  xD6
....................          printf("Funcionamiento.t4f.txt=\" SobrePresin\""); 
0C638:  MOVLW  B4
0C63A:  MOVWF  FF6
0C63C:  MOVLW  13
0C63E:  MOVWF  FF7
0C640:  MOVLW  00
0C642:  MOVWF  FF8
0C644:  MOVLB  0
0C646:  CALL   4078
....................          SendDataDisplay(); 
0C64A:  CALL   40AA
....................          printf("Funcionamiento.t5f.txt=\" Cancelado\""); 
0C64E:  MOVLW  DC
0C650:  MOVWF  FF6
0C652:  MOVLW  13
0C654:  MOVWF  FF7
0C656:  MOVLW  00
0C658:  MOVWF  FF8
0C65A:  CALL   4078
....................          SendDataDisplay(); 
0C65E:  CALL   40AA
....................          Desfogue_on; 
0C662:  BSF    F8C.4
0C664:  BCF    F95.4
....................          SSR_off; 
0C666:  BSF    F8B.2
0C668:  BCF    F94.2
....................          IniciaLlenado=OFF; 
0C66A:  BCF    x9F.7
....................          IniciaCiclo=OFF; 
0C66C:  BCF    xA0.1
....................          Esterilizando=OFF; 
0C66E:  BCF    xA0.2
....................          Vent_on; 
0C670:  BSF    F8C.5
0C672:  BCF    F95.5
....................          Enfr_on; 
0C674:  BSF    F8C.6
0C676:  BCF    F95.6
....................          Controlando=0; 
0C678:  MOVLB  3
0C67A:  CLRF   x32
....................          if(codigoAnt!=codigoAlarma){ 
0C67C:  MOVLB  2
0C67E:  MOVF   xD6,W
0C680:  SUBWF  xD7,W
0C682:  BZ    C692
....................             codigoAnt=codigoAlarma; 
0C684:  MOVFF  2D6,2D7
....................             GuardaDatoCiclo(); 
0C688:  MOVLB  0
0C68A:  CALL   66C4
....................             incrementaCiclos(); 
0C68E:  CALL   6A76
....................          } 
....................          if(!flagImprimir){ 
0C692:  MOVLB  3
0C694:  BTFSC  x2F.6
0C696:  BRA    C6B6
....................             Imprime=25; 
0C698:  MOVLW  19
0C69A:  MOVWF  x83
....................             Envio_Esclavos(); 
0C69C:  MOVLB  0
0C69E:  CALL   4964
....................             delay_ms(100); 
0C6A2:  MOVLW  64
0C6A4:  MOVLB  4
0C6A6:  MOVWF  x29
0C6A8:  MOVLB  0
0C6AA:  CALL   19C2
....................             Imprime=10; 
0C6AE:  MOVLW  0A
0C6B0:  MOVLB  3
0C6B2:  MOVWF  x83
....................             flagImprimir=1; 
0C6B4:  BSF    x2F.6
....................          } 
....................       }else if(AlarmaCiclo){ // Alarma de Error de SobrePresion: Error por exceso de Presion. 
0C6B6:  BRA    C73E
0C6B8:  MOVLB  0
0C6BA:  BTFSS  x9F.6
0C6BC:  BRA    C73E
....................          codigoAlarma=7; 
0C6BE:  MOVLW  07
0C6C0:  MOVLB  2
0C6C2:  MOVWF  xD6
....................          printf("Funcionamiento.t4f.txt=\" Error Ciclo\""); 
0C6C4:  MOVLW  00
0C6C6:  MOVWF  FF6
0C6C8:  MOVLW  14
0C6CA:  MOVWF  FF7
0C6CC:  MOVLW  00
0C6CE:  MOVWF  FF8
0C6D0:  MOVLB  0
0C6D2:  CALL   4078
....................          SendDataDisplay(); 
0C6D6:  CALL   40AA
....................          printf("Funcionamiento.t5f.txt=\" Cancelado\""); 
0C6DA:  MOVLW  26
0C6DC:  MOVWF  FF6
0C6DE:  MOVLW  14
0C6E0:  MOVWF  FF7
0C6E2:  MOVLW  00
0C6E4:  MOVWF  FF8
0C6E6:  CALL   4078
....................          SendDataDisplay(); 
0C6EA:  CALL   40AA
....................          Desfogue_on; 
0C6EE:  BSF    F8C.4
0C6F0:  BCF    F95.4
....................          SSR_off; 
0C6F2:  BSF    F8B.2
0C6F4:  BCF    F94.2
....................          IniciaLlenado=OFF; 
0C6F6:  BCF    x9F.7
....................          IniciaCiclo=OFF; 
0C6F8:  BCF    xA0.1
....................          Esterilizando=OFF; 
0C6FA:  BCF    xA0.2
....................          Controlando=0; 
0C6FC:  MOVLB  3
0C6FE:  CLRF   x32
....................          Vent_on; 
0C700:  BSF    F8C.5
0C702:  BCF    F95.5
....................          if(codigoAnt!=codigoAlarma){ 
0C704:  MOVLB  2
0C706:  MOVF   xD6,W
0C708:  SUBWF  xD7,W
0C70A:  BZ    C71A
....................             codigoAnt=codigoAlarma; 
0C70C:  MOVFF  2D6,2D7
....................             GuardaDatoCiclo(); 
0C710:  MOVLB  0
0C712:  CALL   66C4
....................             incrementaCiclos(); 
0C716:  CALL   6A76
....................          } 
....................          if(!flagImprimir){ 
0C71A:  MOVLB  3
0C71C:  BTFSC  x2F.6
0C71E:  BRA    C73E
....................             Imprime=26; 
0C720:  MOVLW  1A
0C722:  MOVWF  x83
....................             Envio_Esclavos(); 
0C724:  MOVLB  0
0C726:  CALL   4964
....................             delay_ms(100); 
0C72A:  MOVLW  64
0C72C:  MOVLB  4
0C72E:  MOVWF  x29
0C730:  MOVLB  0
0C732:  CALL   19C2
....................             Imprime=10; 
0C736:  MOVLW  0A
0C738:  MOVLB  3
0C73A:  MOVWF  x83
....................             flagImprimir=1; 
0C73C:  BSF    x2F.6
0C73E:  MOVLB  2
....................          } 
....................       } 
....................    } 
....................    else{   
0C740:  BRA    CD9A
0C742:  MOVLB  0
....................       Buzzer_off; 
0C744:  BCF    F8C.0
0C746:  BCF    F95.0
....................       IniciaCiclo=ON; 
0C748:  BSF    xA0.1
....................       if(flagImprime){ 
0C74A:  MOVLB  3
0C74C:  BTFSS  x2F.5
0C74E:  BRA    C76E
....................          Imprime=5; 
0C750:  MOVLW  05
0C752:  MOVWF  x83
....................          Envio_Esclavos(); 
0C754:  MOVLB  0
0C756:  CALL   4964
....................          delay_ms(100); 
0C75A:  MOVLW  64
0C75C:  MOVLB  4
0C75E:  MOVWF  x29
0C760:  MOVLB  0
0C762:  CALL   19C2
....................          Imprime=10; 
0C766:  MOVLW  0A
0C768:  MOVLB  3
0C76A:  MOVWF  x83
....................          flagImprime=0; 
0C76C:  BCF    x2F.5
....................       } 
....................          if(!CalderinLleno){ 
0C76E:  MOVLB  0
0C770:  BTFSC  xA0.0
0C772:  BRA    C7CC
....................             printf("Funcionamiento.t4f.txt=\" Aplique Agua\""); 
0C774:  MOVLW  4A
0C776:  MOVWF  FF6
0C778:  MOVLW  14
0C77A:  MOVWF  FF7
0C77C:  MOVLW  00
0C77E:  MOVWF  FF8
0C780:  CALL   4078
....................             SendDataDisplay(); 
0C784:  CALL   40AA
....................             printf("Funcionamiento.t5f.txt=\" Nivel Bajo\""); 
0C788:  MOVLW  72
0C78A:  MOVWF  FF6
0C78C:  MOVLW  14
0C78E:  MOVWF  FF7
0C790:  MOVLW  00
0C792:  MOVWF  FF8
0C794:  CALL   4078
....................             SendDataDisplay(); 
0C798:  CALL   40AA
....................             Control=0; 
0C79C:  MOVLB  3
0C79E:  CLRF   x30
....................             IniciaLlenado=ON; 
0C7A0:  MOVLB  0
0C7A2:  BSF    x9F.7
....................             Controlando=0; 
0C7A4:  MOVLB  3
0C7A6:  CLRF   x32
....................             Desfogue_on; 
0C7A8:  BSF    F8C.4
0C7AA:  BCF    F95.4
....................             //AguaIn_on; 
....................             Enfr_off; 
0C7AC:  BCF    F8C.6
0C7AE:  BCF    F95.6
....................             codigoAlarma=10; 
0C7B0:  MOVLW  0A
0C7B2:  MOVLB  2
0C7B4:  MOVWF  xD6
....................             if(codigoAnt!=codigoAlarma){ 
0C7B6:  MOVF   xD6,W
0C7B8:  SUBWF  xD7,W
0C7BA:  BZ    C7C8
....................                codigoAnt=codigoAlarma; 
0C7BC:  MOVFF  2D6,2D7
....................                GuardaDatoCiclo(); 
0C7C0:  MOVLB  0
0C7C2:  CALL   66C4
0C7C6:  MOVLB  2
....................             } 
....................          } 
....................          else{ 
0C7C8:  BRA    CD9A
0C7CA:  MOVLB  0
....................             //AguaIn_off; 
....................             if(Temperatura>=((float)Setpoint-0.3)){ 
0C7CC:  MOVLB  4
0C7CE:  CLRF   x2A
0C7D0:  MOVFF  341,429
0C7D4:  MOVLB  0
0C7D6:  CALL   19EA
0C7DA:  MOVFF  00,414
0C7DE:  MOVFF  01,415
0C7E2:  MOVFF  02,416
0C7E6:  MOVFF  03,417
0C7EA:  BSF    FD8.1
0C7EC:  MOVFF  03,42C
0C7F0:  MOVFF  02,42B
0C7F4:  MOVFF  01,42A
0C7F8:  MOVFF  00,429
0C7FC:  MOVLW  9A
0C7FE:  MOVLB  4
0C800:  MOVWF  x30
0C802:  MOVLW  99
0C804:  MOVWF  x2F
0C806:  MOVLW  19
0C808:  MOVWF  x2E
0C80A:  MOVLW  7D
0C80C:  MOVWF  x2D
0C80E:  MOVLB  0
0C810:  CALL   1B7E
0C814:  MOVFF  03,41B
0C818:  MOVFF  02,41A
0C81C:  MOVFF  01,419
0C820:  MOVFF  00,418
0C824:  MOVFF  31B,41F
0C828:  MOVFF  31A,41E
0C82C:  MOVFF  319,41D
0C830:  MOVFF  318,41C
0C834:  CALL   1FE2
0C838:  BC    C83C
0C83A:  BNZ   C83E
....................                Esterilizando=ON; 
0C83C:  BSF    xA0.2
....................             } 
....................              
....................             if(Temperatura<((float)Setpoint-0.9) && !Desfogando && !Finalizo){ 
0C83E:  MOVLB  4
0C840:  CLRF   x2A
0C842:  MOVFF  341,429
0C846:  MOVLB  0
0C848:  CALL   19EA
0C84C:  MOVFF  00,414
0C850:  MOVFF  01,415
0C854:  MOVFF  02,416
0C858:  MOVFF  03,417
0C85C:  BSF    FD8.1
0C85E:  MOVFF  03,42C
0C862:  MOVFF  02,42B
0C866:  MOVFF  01,42A
0C86A:  MOVFF  00,429
0C86E:  MOVLW  66
0C870:  MOVLB  4
0C872:  MOVWF  x30
0C874:  MOVWF  x2F
0C876:  MOVWF  x2E
0C878:  MOVLW  7E
0C87A:  MOVWF  x2D
0C87C:  MOVLB  0
0C87E:  CALL   1B7E
0C882:  MOVFF  31B,41B
0C886:  MOVFF  31A,41A
0C88A:  MOVFF  319,419
0C88E:  MOVFF  318,418
0C892:  MOVFF  03,41F
0C896:  MOVFF  02,41E
0C89A:  MOVFF  01,41D
0C89E:  MOVFF  00,41C
0C8A2:  CALL   1FE2
0C8A6:  BNC   C8B2
0C8A8:  BTFSC  xA0.5
0C8AA:  BRA    C8B2
0C8AC:  BTFSC  xA3.3
0C8AE:  BRA    C8B2
....................                Esterilizando=OFF; 
0C8B0:  BCF    xA0.2
....................             } 
....................              
....................             if(!Esterilizando){ 
0C8B2:  BTFSC  xA0.2
0C8B4:  BRA    C964
....................                codigoAlarma=12; 
0C8B6:  MOVLW  0C
0C8B8:  MOVLB  2
0C8BA:  MOVWF  xD6
....................                if(codigoAnt!=codigoAlarma){ 
0C8BC:  MOVF   xD6,W
0C8BE:  SUBWF  xD7,W
0C8C0:  BZ    C8CE
....................                   codigoAnt=codigoAlarma; 
0C8C2:  MOVFF  2D6,2D7
....................                   GuardaDatoCiclo();                   
0C8C6:  MOVLB  0
0C8C8:  CALL   66C4
0C8CC:  MOVLB  2
....................                } 
....................                printf("Funcionamiento.t4f.txt=\" Ninguna\""); 
0C8CE:  MOVLW  98
0C8D0:  MOVWF  FF6
0C8D2:  MOVLW  14
0C8D4:  MOVWF  FF7
0C8D6:  MOVLW  00
0C8D8:  MOVWF  FF8
0C8DA:  MOVLB  0
0C8DC:  CALL   4078
....................                SendDataDisplay(); 
0C8E0:  CALL   40AA
....................                printf("Funcionamiento.t5f.txt=\" Calentando\""); 
0C8E4:  MOVLW  BA
0C8E6:  MOVWF  FF6
0C8E8:  MOVLW  14
0C8EA:  MOVWF  FF7
0C8EC:  MOVLW  00
0C8EE:  MOVWF  FF8
0C8F0:  CALL   4078
....................                SendDataDisplay(); 
0C8F4:  CALL   40AA
....................                Control=1; 
0C8F8:  MOVLW  01
0C8FA:  MOVLB  3
0C8FC:  MOVWF  x30
....................                Controla(); 
0C8FE:  MOVLB  0
0C900:  CALL   6B6E
....................                if(Temperatura<=TTrampa){ 
0C904:  MOVLB  4
0C906:  CLRF   x2A
0C908:  MOVFF  2CD,429
0C90C:  MOVLB  0
0C90E:  CALL   19EA
0C912:  MOVFF  31B,41B
0C916:  MOVFF  31A,41A
0C91A:  MOVFF  319,419
0C91E:  MOVFF  318,418
0C922:  MOVFF  03,41F
0C926:  MOVFF  02,41E
0C92A:  MOVFF  01,41D
0C92E:  MOVFF  00,41C
0C932:  CALL   1FE2
0C936:  BC    C93A
0C938:  BNZ   C956
....................                   Desfogue_on; 
0C93A:  BSF    F8C.4
0C93C:  BCF    F95.4
....................                   if(Setpoint>TTrampa) 
0C93E:  MOVLB  3
0C940:  MOVF   x41,W
0C942:  MOVLB  2
0C944:  SUBWF  xCD,W
0C946:  BC    C94E
....................                      Enfr_on; 
0C948:  BSF    F8C.6
0C94A:  BCF    F95.6
....................                   else 
0C94C:  BRA    C952
....................                      Enfr_off; 
0C94E:  BCF    F8C.6
0C950:  BCF    F95.6
....................                }else{ 
0C952:  BRA    C960
0C954:  MOVLB  0
....................                   Desfogue_off; 
0C956:  BCF    F8C.4
0C958:  BCF    F95.4
....................                   Enfr_off; 
0C95A:  BCF    F8C.6
0C95C:  BCF    F95.6
0C95E:  MOVLB  2
....................                } 
....................             }else{ 
0C960:  BRA    CD9A
0C962:  MOVLB  0
....................                TiempoCiclo=0; 
0C964:  CLRF   xA5
0C966:  CLRF   xA4
....................                if((Testerilizacion[0]==0)&&(Testerilizacion[1]==0)&& 
....................                (Testerilizacion[2]==0)&&(Testerilizacion[3]==0)){  
0C968:  MOVF   xAE,F
0C96A:  BTFSS  FD8.2
0C96C:  BRA    CD4A
0C96E:  MOVF   xAF,F
0C970:  BTFSS  FD8.2
0C972:  BRA    CD4A
0C974:  MOVF   xB0,F
0C976:  BTFSS  FD8.2
0C978:  BRA    CD4A
0C97A:  MOVF   xB1,F
0C97C:  BTFSS  FD8.2
0C97E:  BRA    CD4A
....................                   if(desfoguelento){ 
0C980:  MOVLB  3
0C982:  BTFSS  x2F.0
0C984:  BRA    CB3A
....................                      Controlando=0; 
0C986:  CLRF   x32
....................                      if(PresionCamara<=25){ 
0C988:  MOVF   x54,F
0C98A:  BTFSS  FD8.2
0C98C:  BRA    CAE0
0C98E:  MOVF   x53,W
0C990:  SUBLW  19
0C992:  BTFSS  FD8.0
0C994:  BRA    CAE0
....................                         Secando=OFF; 
0C996:  MOVLB  0
0C998:  BCF    xA0.3
....................                         DesfogueSuave=OFF; 
0C99A:  BCF    xA0.6
....................                         //Paso_off; 
....................                         if(!DOOR){ 
0C99C:  BSF    F93.6
0C99E:  BTFSS  F81.6
0C9A0:  BRA    C9A8
....................                            Desfogue_off;                             
0C9A2:  BCF    F8C.4
0C9A4:  BCF    F95.4
....................                         }else{ 
0C9A6:  BRA    C9AC
....................                            Desfogue_on;                            
0C9A8:  BSF    F8C.4
0C9AA:  BCF    F95.4
....................                         } 
....................                         if(PresionCamara<2){ 
0C9AC:  MOVLB  3
0C9AE:  MOVF   x54,F
0C9B0:  BTFSS  FD8.2
0C9B2:  BRA    CADA
0C9B4:  MOVF   x53,W
0C9B6:  SUBLW  01
0C9B8:  BTFSS  FD8.0
0C9BA:  BRA    CADA
....................                            if(Temperatura<=90){ 
0C9BC:  MOVFF  31B,41B
0C9C0:  MOVFF  31A,41A
0C9C4:  MOVFF  319,419
0C9C8:  MOVFF  318,418
0C9CC:  MOVLB  4
0C9CE:  CLRF   x1F
0C9D0:  CLRF   x1E
0C9D2:  MOVLW  34
0C9D4:  MOVWF  x1D
0C9D6:  MOVLW  85
0C9D8:  MOVWF  x1C
0C9DA:  MOVLB  0
0C9DC:  CALL   1FE2
0C9E0:  BC    C9E4
0C9E2:  BNZ   CA1A
....................                               ActivaAlarma(2); 
0C9E4:  MOVLW  02
0C9E6:  MOVLB  4
0C9E8:  MOVWF  x14
0C9EA:  MOVLB  0
0C9EC:  CALL   4C2A
....................                               printf("Funcionamiento.t4f.txt=\" Ninguna\""); 
0C9F0:  MOVLW  E0
0C9F2:  MOVWF  FF6
0C9F4:  MOVLW  14
0C9F6:  MOVWF  FF7
0C9F8:  MOVLW  00
0C9FA:  MOVWF  FF8
0C9FC:  CALL   4078
....................                               SendDataDisplay(); 
0CA00:  CALL   40AA
....................                               printf("Funcionamiento.t5f.txt=\" Finalizado\""); 
0CA04:  MOVLW  02
0CA06:  MOVWF  FF6
0CA08:  MOVLW  15
0CA0A:  MOVWF  FF7
0CA0C:  MOVLW  00
0CA0E:  MOVWF  FF8
0CA10:  CALL   4078
....................                               SendDataDisplay(); 
0CA14:  CALL   40AA
....................                               Finalizo=ON; 
0CA18:  BSF    xA3.3
....................                            } 
....................                            codigoAlarma=14; 
0CA1A:  MOVLW  0E
0CA1C:  MOVLB  2
0CA1E:  MOVWF  xD6
....................                            if(codigoAnt!=codigoAlarma){ 
0CA20:  MOVF   xD6,W
0CA22:  SUBWF  xD7,W
0CA24:  BZ    CA30
....................                               codigoAnt=codigoAlarma; 
0CA26:  MOVFF  2D6,2D7
....................                               GuardaDatoCiclo();                   
0CA2A:  MOVLB  0
0CA2C:  CALL   66C4
....................                            } 
....................                            if(!Ciclo){ 
0CA30:  MOVLB  0
0CA32:  BTFSC  xA1.3
0CA34:  BRA    CADC
....................                               Ciclo=ON; 
0CA36:  BSF    xA1.3
....................                               Ciclos++; 
0CA38:  MOVLB  3
0CA3A:  INCF   x57,F
0CA3C:  BTFSC  FD8.2
0CA3E:  INCF   x58,F
....................                               CiclosL=make8(Ciclos,0); 
0CA40:  MOVFF  357,33E
....................                               CiclosH=make8(Ciclos,1); 
0CA44:  MOVFF  358,33F
....................                               write_eeprom(37,CiclosL); 
0CA48:  CLRF   FAA
0CA4A:  MOVLW  25
0CA4C:  MOVWF  FA9
0CA4E:  MOVFF  33E,FA8
0CA52:  BCF    FA6.6
0CA54:  BCF    FA6.7
0CA56:  BSF    FA6.2
0CA58:  MOVF   FF2,W
0CA5A:  MOVWF  00
0CA5C:  BCF    FF2.6
0CA5E:  BCF    FF2.7
0CA60:  MOVLB  F
0CA62:  MOVLW  55
0CA64:  MOVWF  FA7
0CA66:  MOVLW  AA
0CA68:  MOVWF  FA7
0CA6A:  BSF    FA6.1
0CA6C:  BTFSC  FA6.1
0CA6E:  BRA    CA6C
0CA70:  BCF    FA6.2
0CA72:  MOVF   00,W
0CA74:  IORWF  FF2,F
....................                               delay_ms(20); 
0CA76:  MOVLW  14
0CA78:  MOVLB  4
0CA7A:  MOVWF  x29
0CA7C:  MOVLB  0
0CA7E:  CALL   19C2
....................                               write_eeprom(38,CiclosH); 
0CA82:  CLRF   FAA
0CA84:  MOVLW  26
0CA86:  MOVWF  FA9
0CA88:  MOVFF  33F,FA8
0CA8C:  BCF    FA6.6
0CA8E:  BCF    FA6.7
0CA90:  BSF    FA6.2
0CA92:  MOVF   FF2,W
0CA94:  MOVWF  00
0CA96:  BCF    FF2.6
0CA98:  BCF    FF2.7
0CA9A:  MOVLB  F
0CA9C:  MOVLW  55
0CA9E:  MOVWF  FA7
0CAA0:  MOVLW  AA
0CAA2:  MOVWF  FA7
0CAA4:  BSF    FA6.1
0CAA6:  BTFSC  FA6.1
0CAA8:  BRA    CAA6
0CAAA:  BCF    FA6.2
0CAAC:  MOVF   00,W
0CAAE:  IORWF  FF2,F
....................                               delay_ms(20); 
0CAB0:  MOVLW  14
0CAB2:  MOVLB  4
0CAB4:  MOVWF  x29
0CAB6:  MOVLB  0
0CAB8:  CALL   19C2
....................                               Imprime=28; 
0CABC:  MOVLW  1C
0CABE:  MOVLB  3
0CAC0:  MOVWF  x83
....................                               Envio_Esclavos(); 
0CAC2:  MOVLB  0
0CAC4:  CALL   4964
....................                               delay_ms(100); 
0CAC8:  MOVLW  64
0CACA:  MOVLB  4
0CACC:  MOVWF  x29
0CACE:  MOVLB  0
0CAD0:  CALL   19C2
....................                               Imprime=10; 
0CAD4:  MOVLW  0A
0CAD6:  MOVLB  3
0CAD8:  MOVWF  x83
0CADA:  MOVLB  0
....................                            } 
....................                         } 
....................                      }else{ 
0CADC:  BRA    CB36
0CADE:  MOVLB  3
....................                         codigoAlarma=13; 
0CAE0:  MOVLW  0D
0CAE2:  MOVLB  2
0CAE4:  MOVWF  xD6
....................                         if(codigoAnt!=codigoAlarma){ 
0CAE6:  MOVF   xD6,W
0CAE8:  SUBWF  xD7,W
0CAEA:  BZ    CAF6
....................                            codigoAnt=codigoAlarma; 
0CAEC:  MOVFF  2D6,2D7
....................                            GuardaDatoCiclo();                   
0CAF0:  MOVLB  0
0CAF2:  CALL   66C4
....................                         } 
....................                         Desfogando=ON; 
0CAF6:  MOVLB  0
0CAF8:  BSF    xA0.5
....................                         DesfogueSuave=ON; 
0CAFA:  BSF    xA0.6
....................                         printf("Funcionamiento.t4f.txt=\" Ninguna\""); 
0CAFC:  MOVLW  28
0CAFE:  MOVWF  FF6
0CB00:  MOVLW  15
0CB02:  MOVWF  FF7
0CB04:  MOVLW  00
0CB06:  MOVWF  FF8
0CB08:  CALL   4078
....................                         SendDataDisplay(); 
0CB0C:  CALL   40AA
....................                         printf("Funcionamiento.t5f.txt=\" Despresurizando\""); 
0CB10:  MOVLW  4A
0CB12:  MOVWF  FF6
0CB14:  MOVLW  15
0CB16:  MOVWF  FF7
0CB18:  MOVLW  00
0CB1A:  MOVWF  FF8
0CB1C:  CALL   4078
....................                         SendDataDisplay(); 
0CB20:  CALL   40AA
....................                         Control=0; 
0CB24:  MOVLB  3
0CB26:  CLRF   x30
....................                         SSR_off; 
0CB28:  BSF    F8B.2
0CB2A:  BCF    F94.2
....................                         Vent_on; 
0CB2C:  BSF    F8C.5
0CB2E:  BCF    F95.5
....................                         Enfr_on; 
0CB30:  BSF    F8C.6
0CB32:  BCF    F95.6
0CB34:  MOVLB  0
....................                      } 
....................                   }else{ 
0CB36:  BRA    CD48
0CB38:  MOVLB  3
....................                      //SSR_off; 
....................                      Controlando=0; 
0CB3A:  CLRF   x32
....................                      Control=0; 
0CB3C:  CLRF   x30
....................                      if(PresionCamara<2){                         
0CB3E:  MOVF   x54,F
0CB40:  BTFSS  FD8.2
0CB42:  BRA    CCEE
0CB44:  MOVF   x53,W
0CB46:  SUBLW  01
0CB48:  BTFSS  FD8.0
0CB4A:  BRA    CCEE
....................                         if((Tsecado[0]==0)&&(Tsecado[1]==0)&&(Tsecado[2]==0)&&(Tsecado[3]==0)){ 
0CB4C:  MOVLB  0
0CB4E:  MOVF   xB8,F
0CB50:  BTFSS  FD8.2
0CB52:  BRA    CCA0
0CB54:  MOVF   xB9,F
0CB56:  BTFSS  FD8.2
0CB58:  BRA    CCA0
0CB5A:  MOVF   xBA,F
0CB5C:  BTFSS  FD8.2
0CB5E:  BRA    CCA0
0CB60:  MOVF   xBB,F
0CB62:  BTFSS  FD8.2
0CB64:  BRA    CCA0
....................                            if(!DOOR){ 
0CB66:  BSF    F93.6
0CB68:  BTFSS  F81.6
0CB6A:  BRA    CB72
....................                               Desfogue_off; 
0CB6C:  BCF    F8C.4
0CB6E:  BCF    F95.4
....................                            }else{ 
0CB70:  BRA    CB76
....................                               Desfogue_on;                                
0CB72:  BSF    F8C.4
0CB74:  BCF    F95.4
....................                            } 
....................                            SSR_off; 
0CB76:  BSF    F8B.2
0CB78:  BCF    F94.2
....................                            Secando=OFF; 
0CB7A:  BCF    xA0.3
....................                            if(Temperatura<=90){ 
0CB7C:  MOVFF  31B,41B
0CB80:  MOVFF  31A,41A
0CB84:  MOVFF  319,419
0CB88:  MOVFF  318,418
0CB8C:  MOVLB  4
0CB8E:  CLRF   x1F
0CB90:  CLRF   x1E
0CB92:  MOVLW  34
0CB94:  MOVWF  x1D
0CB96:  MOVLW  85
0CB98:  MOVWF  x1C
0CB9A:  MOVLB  0
0CB9C:  CALL   1FE2
0CBA0:  BC    CBA4
0CBA2:  BNZ   CBDA
....................                               ActivaAlarma(2); 
0CBA4:  MOVLW  02
0CBA6:  MOVLB  4
0CBA8:  MOVWF  x14
0CBAA:  MOVLB  0
0CBAC:  CALL   4C2A
....................                               printf("Funcionamiento.t4f.txt=\" Ninguna\""); 
0CBB0:  MOVLW  74
0CBB2:  MOVWF  FF6
0CBB4:  MOVLW  15
0CBB6:  MOVWF  FF7
0CBB8:  MOVLW  00
0CBBA:  MOVWF  FF8
0CBBC:  CALL   4078
....................                               SendDataDisplay(); 
0CBC0:  CALL   40AA
....................                               printf("Funcionamiento.t5f.txt=\" Finalizado\""); 
0CBC4:  MOVLW  96
0CBC6:  MOVWF  FF6
0CBC8:  MOVLW  15
0CBCA:  MOVWF  FF7
0CBCC:  MOVLW  00
0CBCE:  MOVWF  FF8
0CBD0:  CALL   4078
....................                               SendDataDisplay(); 
0CBD4:  CALL   40AA
....................                               Finalizo=ON; 
0CBD8:  BSF    xA3.3
....................                            } 
....................                            codigoAlarma=14; 
0CBDA:  MOVLW  0E
0CBDC:  MOVLB  2
0CBDE:  MOVWF  xD6
....................                            if(codigoAnt!=codigoAlarma){ 
0CBE0:  MOVF   xD6,W
0CBE2:  SUBWF  xD7,W
0CBE4:  BZ    CBF0
....................                               codigoAnt=codigoAlarma; 
0CBE6:  MOVFF  2D6,2D7
....................                               GuardaDatoCiclo();                   
0CBEA:  MOVLB  0
0CBEC:  CALL   66C4
....................                            } 
....................                            if(!Ciclo){ 
0CBF0:  MOVLB  0
0CBF2:  BTFSC  xA1.3
0CBF4:  BRA    CC9C
....................                                  Ciclo=ON; 
0CBF6:  BSF    xA1.3
....................                                  Ciclos++; 
0CBF8:  MOVLB  3
0CBFA:  INCF   x57,F
0CBFC:  BTFSC  FD8.2
0CBFE:  INCF   x58,F
....................                                  CiclosL=make8(Ciclos,0); 
0CC00:  MOVFF  357,33E
....................                                  CiclosH=make8(Ciclos,1); 
0CC04:  MOVFF  358,33F
....................                                  write_eeprom(37,CiclosL); 
0CC08:  CLRF   FAA
0CC0A:  MOVLW  25
0CC0C:  MOVWF  FA9
0CC0E:  MOVFF  33E,FA8
0CC12:  BCF    FA6.6
0CC14:  BCF    FA6.7
0CC16:  BSF    FA6.2
0CC18:  MOVF   FF2,W
0CC1A:  MOVWF  00
0CC1C:  BCF    FF2.6
0CC1E:  BCF    FF2.7
0CC20:  MOVLB  F
0CC22:  MOVLW  55
0CC24:  MOVWF  FA7
0CC26:  MOVLW  AA
0CC28:  MOVWF  FA7
0CC2A:  BSF    FA6.1
0CC2C:  BTFSC  FA6.1
0CC2E:  BRA    CC2C
0CC30:  BCF    FA6.2
0CC32:  MOVF   00,W
0CC34:  IORWF  FF2,F
....................                                  delay_ms(20); 
0CC36:  MOVLW  14
0CC38:  MOVLB  4
0CC3A:  MOVWF  x29
0CC3C:  MOVLB  0
0CC3E:  CALL   19C2
....................                                  write_eeprom(38,CiclosH); 
0CC42:  CLRF   FAA
0CC44:  MOVLW  26
0CC46:  MOVWF  FA9
0CC48:  MOVFF  33F,FA8
0CC4C:  BCF    FA6.6
0CC4E:  BCF    FA6.7
0CC50:  BSF    FA6.2
0CC52:  MOVF   FF2,W
0CC54:  MOVWF  00
0CC56:  BCF    FF2.6
0CC58:  BCF    FF2.7
0CC5A:  MOVLB  F
0CC5C:  MOVLW  55
0CC5E:  MOVWF  FA7
0CC60:  MOVLW  AA
0CC62:  MOVWF  FA7
0CC64:  BSF    FA6.1
0CC66:  BTFSC  FA6.1
0CC68:  BRA    CC66
0CC6A:  BCF    FA6.2
0CC6C:  MOVF   00,W
0CC6E:  IORWF  FF2,F
....................                                  delay_ms(20); 
0CC70:  MOVLW  14
0CC72:  MOVLB  4
0CC74:  MOVWF  x29
0CC76:  MOVLB  0
0CC78:  CALL   19C2
....................                                  Imprime=28; 
0CC7C:  MOVLW  1C
0CC7E:  MOVLB  3
0CC80:  MOVWF  x83
....................                                  Envio_Esclavos(); 
0CC82:  MOVLB  0
0CC84:  CALL   4964
....................                                  delay_ms(100); 
0CC88:  MOVLW  64
0CC8A:  MOVLB  4
0CC8C:  MOVWF  x29
0CC8E:  MOVLB  0
0CC90:  CALL   19C2
....................                                  Imprime=10; 
0CC94:  MOVLW  0A
0CC96:  MOVLB  3
0CC98:  MOVWF  x83
0CC9A:  MOVLB  0
....................                               } 
....................                            Secando=OFF; 
0CC9C:  BCF    xA0.3
....................                         }else{ 
0CC9E:  BRA    CCEA
....................                            codigoAlarma=15; 
0CCA0:  MOVLW  0F
0CCA2:  MOVLB  2
0CCA4:  MOVWF  xD6
....................                            if(codigoAnt!=codigoAlarma){ 
0CCA6:  MOVF   xD6,W
0CCA8:  SUBWF  xD7,W
0CCAA:  BZ    CCB6
....................                               codigoAnt=codigoAlarma; 
0CCAC:  MOVFF  2D6,2D7
....................                               GuardaDatoCiclo();                   
0CCB0:  MOVLB  0
0CCB2:  CALL   66C4
....................                            } 
....................                            Secando=ON; 
0CCB6:  MOVLB  0
0CCB8:  BSF    xA0.3
....................                            printf("Funcionamiento.t4f.txt=\" Ninguna\""); 
0CCBA:  MOVLW  BC
0CCBC:  MOVWF  FF6
0CCBE:  MOVLW  15
0CCC0:  MOVWF  FF7
0CCC2:  MOVLW  00
0CCC4:  MOVWF  FF8
0CCC6:  CALL   4078
....................                            SendDataDisplay(); 
0CCCA:  CALL   40AA
....................                            printf("Funcionamiento.t5f.txt=\" Secando\""); 
0CCCE:  MOVLW  DE
0CCD0:  MOVWF  FF6
0CCD2:  MOVLW  15
0CCD4:  MOVWF  FF7
0CCD6:  MOVLW  00
0CCD8:  MOVWF  FF8
0CCDA:  CALL   4078
....................                            SendDataDisplay(); 
0CCDE:  CALL   40AA
....................                            Enfr_on; 
0CCE2:  BSF    F8C.6
0CCE4:  BCF    F95.6
....................                            SSR_off; 
0CCE6:  BSF    F8B.2
0CCE8:  BCF    F94.2
....................                            //CalientaChaqueta(); 
....................                         } 
....................                      }else{ 
0CCEA:  BRA    CD48
0CCEC:  MOVLB  3
....................                         codigoAlarma=13; 
0CCEE:  MOVLW  0D
0CCF0:  MOVLB  2
0CCF2:  MOVWF  xD6
....................                         if(codigoAnt!=codigoAlarma){ 
0CCF4:  MOVF   xD6,W
0CCF6:  SUBWF  xD7,W
0CCF8:  BZ    CD04
....................                            codigoAnt=codigoAlarma; 
0CCFA:  MOVFF  2D6,2D7
....................                            GuardaDatoCiclo();                   
0CCFE:  MOVLB  0
0CD00:  CALL   66C4
....................                         } 
....................                         Desfogando=ON; 
0CD04:  MOVLB  0
0CD06:  BSF    xA0.5
....................                         printf("Funcionamiento.t4f.txt=\" Ninguna\""); 
0CD08:  MOVLW  00
0CD0A:  MOVWF  FF6
0CD0C:  MOVLW  16
0CD0E:  MOVWF  FF7
0CD10:  MOVLW  00
0CD12:  MOVWF  FF8
0CD14:  CALL   4078
....................                         SendDataDisplay(); 
0CD18:  CALL   40AA
....................                         printf("Funcionamiento.t5f.txt=\" Despresurizando\""); 
0CD1C:  MOVLW  22
0CD1E:  MOVWF  FF6
0CD20:  MOVLW  16
0CD22:  MOVWF  FF7
0CD24:  MOVLW  00
0CD26:  MOVWF  FF8
0CD28:  CALL   4078
....................                         SendDataDisplay(); 
0CD2C:  CALL   40AA
....................                         Control=0; 
0CD30:  MOVLB  3
0CD32:  CLRF   x30
....................                         SSR_off; 
0CD34:  BSF    F8B.2
0CD36:  BCF    F94.2
....................                         Controlando=0; 
0CD38:  CLRF   x32
....................                         Enfr_on; 
0CD3A:  BSF    F8C.6
0CD3C:  BCF    F95.6
....................                         Desfogue_on; 
0CD3E:  BSF    F8C.4
0CD40:  BCF    F95.4
....................                         Vent_on; 
0CD42:  BSF    F8C.5
0CD44:  BCF    F95.5
0CD46:  MOVLB  0
....................                      } 
....................                   } 
....................                    
....................                }else{ 
0CD48:  BRA    CD98
....................                   printf("Funcionamiento.t4f.txt=\" Ninguna\""); 
0CD4A:  MOVLW  4C
0CD4C:  MOVWF  FF6
0CD4E:  MOVLW  16
0CD50:  MOVWF  FF7
0CD52:  MOVLW  00
0CD54:  MOVWF  FF8
0CD56:  CALL   4078
....................                   SendDataDisplay(); 
0CD5A:  CALL   40AA
....................                   printf("Funcionamiento.t5f.txt=\" Esterilizando\""); 
0CD5E:  MOVLW  6E
0CD60:  MOVWF  FF6
0CD62:  MOVLW  16
0CD64:  MOVWF  FF7
0CD66:  MOVLW  00
0CD68:  MOVWF  FF8
0CD6A:  CALL   4078
....................                   SendDataDisplay(); 
0CD6E:  CALL   40AA
....................                   Enfr_off;                   
0CD72:  BCF    F8C.6
0CD74:  BCF    F95.6
....................                   Control=1; 
0CD76:  MOVLW  01
0CD78:  MOVLB  3
0CD7A:  MOVWF  x30
....................                   Controla(); 
0CD7C:  MOVLB  0
0CD7E:  CALL   6B6E
....................                   codigoAlarma=16; 
0CD82:  MOVLW  10
0CD84:  MOVLB  2
0CD86:  MOVWF  xD6
....................                   if(codigoAnt!=codigoAlarma){ 
0CD88:  MOVF   xD6,W
0CD8A:  SUBWF  xD7,W
0CD8C:  BZ    CD9A
....................                      codigoAnt=codigoAlarma; 
0CD8E:  MOVFF  2D6,2D7
....................                      GuardaDatoCiclo();                   
0CD92:  MOVLB  0
0CD94:  CALL   66C4
0CD98:  MOVLB  2
....................                   } 
....................                } 
....................             } 
....................          } 
....................    } 
....................     
....................    if(tguarda>=180){ 
0CD9A:  MOVLB  3
0CD9C:  MOVF   x5C,F
0CD9E:  BNZ   CDA6
0CDA0:  MOVF   x5B,W
0CDA2:  SUBLW  B3
0CDA4:  BC    CDB6
....................       if(!Ciclo){ 
0CDA6:  MOVLB  0
0CDA8:  BTFSC  xA1.3
0CDAA:  BRA    CDB8
....................          GuardaDatoCiclo(); 
0CDAC:  CALL   66C4
....................          tguarda=0; 
0CDB0:  MOVLB  3
0CDB2:  CLRF   x5C
0CDB4:  CLRF   x5B
0CDB6:  MOVLB  0
....................       } 
....................    } 
....................     
....................    if(Grafica==1){ 
0CDB8:  MOVLB  3
0CDBA:  BTFSS  x2F.2
0CDBC:  BRA    CDFC
....................       printf("add 14,0,%1.0f",Temperatura); 
0CDBE:  MOVLW  96
0CDC0:  MOVWF  FF6
0CDC2:  MOVLW  16
0CDC4:  MOVWF  FF7
0CDC6:  MOVLW  00
0CDC8:  MOVWF  FF8
0CDCA:  MOVLW  09
0CDCC:  MOVLB  4
0CDCE:  MOVWF  x19
0CDD0:  MOVLB  0
0CDD2:  CALL   4D2C
0CDD6:  MOVLW  00
0CDD8:  MOVWF  FE9
0CDDA:  MOVFF  31B,41C
0CDDE:  MOVFF  31A,41B
0CDE2:  MOVFF  319,41A
0CDE6:  MOVFF  318,419
0CDEA:  MOVLB  4
0CDEC:  CLRF   x1D
0CDEE:  MOVLB  0
0CDF0:  CALL   4ECC
....................       SendDataDisplay(); 
0CDF4:  CALL   40AA
....................       Grafica=0; 
0CDF8:  MOVLB  3
0CDFA:  BCF    x2F.2
....................    } 
....................    if(Lectura==1)// Utilizado para visualizar la lectura de la temperatura 
0CDFC:  BTFSS  x2F.1
0CDFE:  BRA    D0D8
....................    {                             
....................       Lectura=0; 
0CE00:  BCF    x2F.1
....................       printf("t6f.txt=\"%3.1fC\"",Temperatura); 
0CE02:  MOVLW  A6
0CE04:  MOVWF  FF6
0CE06:  MOVLW  16
0CE08:  MOVWF  FF7
0CE0A:  MOVLW  00
0CE0C:  MOVWF  FF8
0CE0E:  MOVLW  09
0CE10:  MOVLB  4
0CE12:  MOVWF  x19
0CE14:  MOVLB  0
0CE16:  CALL   4D2C
0CE1A:  MOVLW  02
0CE1C:  MOVWF  FE9
0CE1E:  MOVFF  31B,41C
0CE22:  MOVFF  31A,41B
0CE26:  MOVFF  319,41A
0CE2A:  MOVFF  318,419
0CE2E:  MOVLW  01
0CE30:  MOVLB  4
0CE32:  MOVWF  x1D
0CE34:  MOVLB  0
0CE36:  CALL   4ECC
0CE3A:  MOVLW  B0
0CE3C:  BTFSS  F9E.4
0CE3E:  BRA    CE3C
0CE40:  MOVWF  FAD
0CE42:  MOVLW  43
0CE44:  BTFSS  F9E.4
0CE46:  BRA    CE44
0CE48:  MOVWF  FAD
0CE4A:  MOVLW  22
0CE4C:  BTFSS  F9E.4
0CE4E:  BRA    CE4C
0CE50:  MOVWF  FAD
....................       SendDataDisplay(); 
0CE52:  CALL   40AA
....................       printf("Funcionamiento.t7f.txt=\"%03LukPa\"",PresionCamara); 
0CE56:  MOVLW  B8
0CE58:  MOVWF  FF6
0CE5A:  MOVLW  16
0CE5C:  MOVWF  FF7
0CE5E:  MOVLW  00
0CE60:  MOVWF  FF8
0CE62:  MOVLW  18
0CE64:  MOVLB  4
0CE66:  MOVWF  x19
0CE68:  MOVLB  0
0CE6A:  CALL   4D2C
0CE6E:  MOVLW  0A
0CE70:  MOVWF  FE9
0CE72:  MOVFF  354,419
0CE76:  MOVFF  353,418
0CE7A:  CALL   5102
0CE7E:  MOVLW  D5
0CE80:  MOVWF  FF6
0CE82:  MOVLW  16
0CE84:  MOVWF  FF7
0CE86:  MOVLW  00
0CE88:  MOVWF  FF8
0CE8A:  MOVLW  04
0CE8C:  MOVLB  4
0CE8E:  MOVWF  x19
0CE90:  MOVLB  0
0CE92:  CALL   4D2C
....................       SendDataDisplay(); 
0CE96:  CALL   40AA
....................       //printf("Funcionamiento.t12f.txt=\"%03LukPa\"",PresionPreCamara); 
....................       printf("Funcionamiento.t12f.txt=\"000kPa\""); 
0CE9A:  MOVLW  DA
0CE9C:  MOVWF  FF6
0CE9E:  MOVLW  16
0CEA0:  MOVWF  FF7
0CEA2:  MOVLW  00
0CEA4:  MOVWF  FF8
0CEA6:  CALL   4078
....................       SendDataDisplay(); 
0CEAA:  CALL   40AA
....................       printf("Funcionamiento.t9f.txt=\"%03u\"",Setpoint); 
0CEAE:  MOVLW  FC
0CEB0:  MOVWF  FF6
0CEB2:  MOVLW  16
0CEB4:  MOVWF  FF7
0CEB6:  MOVLW  00
0CEB8:  MOVWF  FF8
0CEBA:  MOVLW  18
0CEBC:  MOVLB  4
0CEBE:  MOVWF  x19
0CEC0:  MOVLB  0
0CEC2:  CALL   4D2C
0CEC6:  MOVFF  341,419
0CECA:  MOVLW  03
0CECC:  MOVLB  4
0CECE:  MOVWF  x1A
0CED0:  MOVLB  0
0CED2:  CALL   4D8A
0CED6:  MOVLW  22
0CED8:  BTFSS  F9E.4
0CEDA:  BRA    CED8
0CEDC:  MOVWF  FAD
....................       SendDataDisplay();       
0CEDE:  CALL   40AA
....................       printf("Funcionamiento.t10f.txt=\"%02u\"",((Testerilizacion[3]*10)+Testerilizacion[2])); 
0CEE2:  MOVFF  B1,416
0CEE6:  MOVLW  0A
0CEE8:  MOVLB  4
0CEEA:  MOVWF  x17
0CEEC:  MOVLB  0
0CEEE:  CALL   35CA
0CEF2:  MOVF   xB0,W
0CEF4:  ADDWF  01,W
0CEF6:  MOVLB  4
0CEF8:  MOVWF  x14
0CEFA:  MOVLW  1A
0CEFC:  MOVWF  FF6
0CEFE:  MOVLW  17
0CF00:  MOVWF  FF7
0CF02:  MOVLW  00
0CF04:  MOVWF  FF8
0CF06:  MOVLW  19
0CF08:  MOVWF  x19
0CF0A:  MOVLB  0
0CF0C:  CALL   4D2C
0CF10:  MOVFF  414,419
0CF14:  MOVLW  01
0CF16:  MOVLB  4
0CF18:  MOVWF  x1A
0CF1A:  MOVLB  0
0CF1C:  CALL   4D8A
0CF20:  MOVLW  22
0CF22:  BTFSS  F9E.4
0CF24:  BRA    CF22
0CF26:  MOVWF  FAD
....................       SendDataDisplay();       
0CF28:  CALL   40AA
....................       printf("Funcionamiento.t13f.txt=\"%02u\"",((Testerilizacion[1]*10)+Testerilizacion[0])); 
0CF2C:  MOVFF  AF,416
0CF30:  MOVLW  0A
0CF32:  MOVLB  4
0CF34:  MOVWF  x17
0CF36:  MOVLB  0
0CF38:  CALL   35CA
0CF3C:  MOVF   xAE,W
0CF3E:  ADDWF  01,W
0CF40:  MOVLB  4
0CF42:  MOVWF  x14
0CF44:  MOVLW  3A
0CF46:  MOVWF  FF6
0CF48:  MOVLW  17
0CF4A:  MOVWF  FF7
0CF4C:  MOVLW  00
0CF4E:  MOVWF  FF8
0CF50:  MOVLW  19
0CF52:  MOVWF  x19
0CF54:  MOVLB  0
0CF56:  CALL   4D2C
0CF5A:  MOVFF  414,419
0CF5E:  MOVLW  01
0CF60:  MOVLB  4
0CF62:  MOVWF  x1A
0CF64:  MOVLB  0
0CF66:  CALL   4D8A
0CF6A:  MOVLW  22
0CF6C:  BTFSS  F9E.4
0CF6E:  BRA    CF6C
0CF70:  MOVWF  FAD
....................       SendDataDisplay();       
0CF72:  CALL   40AA
....................       printf("Funcionamiento.t11f.txt=\"%02u\"",((Tsecado[3]*10)+Tsecado[2])); 
0CF76:  MOVFF  BB,416
0CF7A:  MOVLW  0A
0CF7C:  MOVLB  4
0CF7E:  MOVWF  x17
0CF80:  MOVLB  0
0CF82:  CALL   35CA
0CF86:  MOVF   xBA,W
0CF88:  ADDWF  01,W
0CF8A:  MOVLB  4
0CF8C:  MOVWF  x14
0CF8E:  MOVLW  5A
0CF90:  MOVWF  FF6
0CF92:  MOVLW  17
0CF94:  MOVWF  FF7
0CF96:  MOVLW  00
0CF98:  MOVWF  FF8
0CF9A:  MOVLW  19
0CF9C:  MOVWF  x19
0CF9E:  MOVLB  0
0CFA0:  CALL   4D2C
0CFA4:  MOVFF  414,419
0CFA8:  MOVLW  01
0CFAA:  MOVLB  4
0CFAC:  MOVWF  x1A
0CFAE:  MOVLB  0
0CFB0:  CALL   4D8A
0CFB4:  MOVLW  22
0CFB6:  BTFSS  F9E.4
0CFB8:  BRA    CFB6
0CFBA:  MOVWF  FAD
....................       SendDataDisplay();       
0CFBC:  CALL   40AA
....................       printf("Funcionamiento.t16f.txt=\"%02u\"",((Tsecado[1]*10)+Tsecado[0])); 
0CFC0:  MOVFF  B9,416
0CFC4:  MOVLW  0A
0CFC6:  MOVLB  4
0CFC8:  MOVWF  x17
0CFCA:  MOVLB  0
0CFCC:  CALL   35CA
0CFD0:  MOVF   xB8,W
0CFD2:  ADDWF  01,W
0CFD4:  MOVLB  4
0CFD6:  MOVWF  x14
0CFD8:  MOVLW  7A
0CFDA:  MOVWF  FF6
0CFDC:  MOVLW  17
0CFDE:  MOVWF  FF7
0CFE0:  MOVLW  00
0CFE2:  MOVWF  FF8
0CFE4:  MOVLW  19
0CFE6:  MOVWF  x19
0CFE8:  MOVLB  0
0CFEA:  CALL   4D2C
0CFEE:  MOVFF  414,419
0CFF2:  MOVLW  01
0CFF4:  MOVLB  4
0CFF6:  MOVWF  x1A
0CFF8:  MOVLB  0
0CFFA:  CALL   4D8A
0CFFE:  MOVLW  22
0D000:  BTFSS  F9E.4
0D002:  BRA    D000
0D004:  MOVWF  FAD
....................       SendDataDisplay();       
0D006:  CALL   40AA
....................        
....................       printf("fecha.txt=\"Fecha:%02u/%02u/20%02u Hora: %02u:%02u:%02u\"",Dia,Mes,Year,Hora,Minuto,Segundo); 
0D00A:  MOVLW  9A
0D00C:  MOVWF  FF6
0D00E:  MOVLW  17
0D010:  MOVWF  FF7
0D012:  MOVLW  00
0D014:  MOVWF  FF8
0D016:  MOVLW  11
0D018:  MOVLB  4
0D01A:  MOVWF  x19
0D01C:  MOVLB  0
0D01E:  CALL   4D2C
0D022:  MOVFF  376,419
0D026:  MOVLW  01
0D028:  MOVLB  4
0D02A:  MOVWF  x1A
0D02C:  MOVLB  0
0D02E:  CALL   4D8A
0D032:  MOVLW  2F
0D034:  BTFSS  F9E.4
0D036:  BRA    D034
0D038:  MOVWF  FAD
0D03A:  MOVFF  375,419
0D03E:  MOVLW  01
0D040:  MOVLB  4
0D042:  MOVWF  x1A
0D044:  MOVLB  0
0D046:  CALL   4D8A
0D04A:  MOVLW  2F
0D04C:  BTFSS  F9E.4
0D04E:  BRA    D04C
0D050:  MOVWF  FAD
0D052:  MOVLW  32
0D054:  BTFSS  F9E.4
0D056:  BRA    D054
0D058:  MOVWF  FAD
0D05A:  MOVLW  30
0D05C:  BTFSS  F9E.4
0D05E:  BRA    D05C
0D060:  MOVWF  FAD
0D062:  MOVFF  374,419
0D066:  MOVLW  01
0D068:  MOVLB  4
0D06A:  MOVWF  x1A
0D06C:  MOVLB  0
0D06E:  CALL   4D8A
0D072:  MOVLW  BB
0D074:  MOVWF  FF6
0D076:  MOVLW  17
0D078:  MOVWF  FF7
0D07A:  MOVLW  00
0D07C:  MOVWF  FF8
0D07E:  MOVLW  07
0D080:  MOVLB  4
0D082:  MOVWF  x19
0D084:  MOVLB  0
0D086:  CALL   4D2C
0D08A:  MOVFF  377,419
0D08E:  MOVLW  01
0D090:  MOVLB  4
0D092:  MOVWF  x1A
0D094:  MOVLB  0
0D096:  CALL   4D8A
0D09A:  MOVLW  3A
0D09C:  BTFSS  F9E.4
0D09E:  BRA    D09C
0D0A0:  MOVWF  FAD
0D0A2:  MOVFF  378,419
0D0A6:  MOVLW  01
0D0A8:  MOVLB  4
0D0AA:  MOVWF  x1A
0D0AC:  MOVLB  0
0D0AE:  CALL   4D8A
0D0B2:  MOVLW  3A
0D0B4:  BTFSS  F9E.4
0D0B6:  BRA    D0B4
0D0B8:  MOVWF  FAD
0D0BA:  MOVFF  379,419
0D0BE:  MOVLW  01
0D0C0:  MOVLB  4
0D0C2:  MOVWF  x1A
0D0C4:  MOVLB  0
0D0C6:  CALL   4D8A
0D0CA:  MOVLW  22
0D0CC:  BTFSS  F9E.4
0D0CE:  BRA    D0CC
0D0D0:  MOVWF  FAD
....................       SendDataDisplay(); 
0D0D2:  CALL   40AA
0D0D6:  MOVLB  3
....................    } 
.................... } 
.................... //_-------------------------------------------------------------------------------------------------------------------------------------------------------- 
....................  
.................... //_-------------------------------------------------------------------------------------------------------------------------------------------------------- 
....................       if(Menu==100){ //Menu de Configuracin de Parametros de Control 
0D0D8:  MOVF   x3A,W
0D0DA:  SUBLW  64
0D0DC:  BTFSS  FD8.2
0D0DE:  GOTO   DF08
....................       
....................       if(Opcion2>10) 
0D0E2:  MOVF   x43,W
0D0E4:  SUBLW  0A
0D0E6:  BC    D0EC
....................          Opcion2=1; 
0D0E8:  MOVLW  01
0D0EA:  MOVWF  x43
....................       if(Opcion2<1) 
0D0EC:  MOVF   x43,F
0D0EE:  BNZ   D0F4
....................          Opcion2=10; 
0D0F0:  MOVLW  0A
0D0F2:  MOVWF  x43
....................        
....................       if(Opcion2==1){ 
0D0F4:  DECFSZ x43,W
0D0F6:  BRA    D274
....................          printf("Config.t2c.txt=\"Proporcional\""); 
0D0F8:  MOVLW  D2
0D0FA:  MOVWF  FF6
0D0FC:  MOVLW  17
0D0FE:  MOVWF  FF7
0D100:  MOVLW  00
0D102:  MOVWF  FF8
0D104:  MOVLB  0
0D106:  CALL   4078
....................          SendDataDisplay();       
0D10A:  CALL   40AA
....................          printf("t3c.txt=\"%2.0f\"",Ganancia); 
0D10E:  MOVLW  F0
0D110:  MOVWF  FF6
0D112:  MOVLW  17
0D114:  MOVWF  FF7
0D116:  MOVLW  00
0D118:  MOVWF  FF8
0D11A:  MOVLW  09
0D11C:  MOVLB  4
0D11E:  MOVWF  x19
0D120:  MOVLB  0
0D122:  CALL   4D2C
0D126:  MOVLW  01
0D128:  MOVWF  FE9
0D12A:  MOVFF  2FB,41C
0D12E:  MOVFF  2FA,41B
0D132:  MOVFF  2F9,41A
0D136:  MOVFF  2F8,419
0D13A:  MOVLB  4
0D13C:  CLRF   x1D
0D13E:  MOVLB  0
0D140:  CALL   4ECC
0D144:  MOVLW  22
0D146:  BTFSS  F9E.4
0D148:  BRA    D146
0D14A:  MOVWF  FAD
....................          SendDataDisplay(); 
0D14C:  CALL   40AA
....................          if(RX_Buffer[4]==0x0a || UP){//Tecla Arriba Oprimida 
0D150:  MOVF   34,W
0D152:  SUBLW  0A
0D154:  BZ    D15C
0D156:  BSF    F93.0
0D158:  BTFSC  F81.0
0D15A:  BRA    D1AC
....................             delay_ms(20); 
0D15C:  MOVLW  14
0D15E:  MOVLB  4
0D160:  MOVWF  x29
0D162:  MOVLB  0
0D164:  CALL   19C2
....................             if(RX_Buffer[4]==0x0a || UP){ 
0D168:  MOVF   34,W
0D16A:  SUBLW  0A
0D16C:  BZ    D174
0D16E:  BSF    F93.0
0D170:  BTFSC  F81.0
0D172:  BRA    D1AC
....................                Ganancia+=1.0; 
0D174:  BCF    FD8.1
0D176:  MOVFF  2FB,42C
0D17A:  MOVFF  2FA,42B
0D17E:  MOVFF  2F9,42A
0D182:  MOVFF  2F8,429
0D186:  MOVLB  4
0D188:  CLRF   x30
0D18A:  CLRF   x2F
0D18C:  CLRF   x2E
0D18E:  MOVLW  7F
0D190:  MOVWF  x2D
0D192:  MOVLB  0
0D194:  CALL   1B7E
0D198:  MOVFF  03,2FB
0D19C:  MOVFF  02,2FA
0D1A0:  MOVFF  01,2F9
0D1A4:  MOVFF  00,2F8
....................                RX_Buffer[4]=0x00;   
0D1A8:  CLRF   34
....................                RX_Buffer2[4]=0x00;             
0D1AA:  CLRF   3F
....................                //BorraBuffer(); 
....................             } 
....................          } 
....................              
....................          if(RX_Buffer[4]==0x0b || DOWN){//Tecla Abajo Oprimida 
0D1AC:  MOVF   34,W
0D1AE:  SUBLW  0B
0D1B0:  BZ    D1B8
0D1B2:  BSF    F93.1
0D1B4:  BTFSC  F81.1
0D1B6:  BRA    D208
....................             delay_ms(20); 
0D1B8:  MOVLW  14
0D1BA:  MOVLB  4
0D1BC:  MOVWF  x29
0D1BE:  MOVLB  0
0D1C0:  CALL   19C2
....................             if(RX_Buffer[4]==0x0b || DOWN){ 
0D1C4:  MOVF   34,W
0D1C6:  SUBLW  0B
0D1C8:  BZ    D1D0
0D1CA:  BSF    F93.1
0D1CC:  BTFSC  F81.1
0D1CE:  BRA    D208
....................                Ganancia-=1.0; 
0D1D0:  BSF    FD8.1
0D1D2:  MOVFF  2FB,42C
0D1D6:  MOVFF  2FA,42B
0D1DA:  MOVFF  2F9,42A
0D1DE:  MOVFF  2F8,429
0D1E2:  MOVLB  4
0D1E4:  CLRF   x30
0D1E6:  CLRF   x2F
0D1E8:  CLRF   x2E
0D1EA:  MOVLW  7F
0D1EC:  MOVWF  x2D
0D1EE:  MOVLB  0
0D1F0:  CALL   1B7E
0D1F4:  MOVFF  03,2FB
0D1F8:  MOVFF  02,2FA
0D1FC:  MOVFF  01,2F9
0D200:  MOVFF  00,2F8
....................                RX_Buffer[4]=0x00; 
0D204:  CLRF   34
....................                RX_Buffer2[4]=0x00;             
0D206:  CLRF   3F
....................                //BorraBuffer(); 
....................             } 
....................          } 
....................           
....................          if(Ganancia>40) 
0D208:  MOVLB  4
0D20A:  CLRF   x1B
0D20C:  CLRF   x1A
0D20E:  MOVLW  20
0D210:  MOVWF  x19
0D212:  MOVLW  84
0D214:  MOVWF  x18
0D216:  MOVFF  2FB,41F
0D21A:  MOVFF  2FA,41E
0D21E:  MOVFF  2F9,41D
0D222:  MOVFF  2F8,41C
0D226:  MOVLB  0
0D228:  CALL   1FE2
0D22C:  BNC   D23A
....................             Ganancia=1; 
0D22E:  MOVLB  2
0D230:  CLRF   xFB
0D232:  CLRF   xFA
0D234:  CLRF   xF9
0D236:  MOVLW  7F
0D238:  MOVWF  xF8
....................          if(Ganancia<1) 
0D23A:  MOVFF  2FB,41B
0D23E:  MOVFF  2FA,41A
0D242:  MOVFF  2F9,419
0D246:  MOVFF  2F8,418
0D24A:  MOVLB  4
0D24C:  CLRF   x1F
0D24E:  CLRF   x1E
0D250:  CLRF   x1D
0D252:  MOVLW  7F
0D254:  MOVWF  x1C
0D256:  MOVLB  0
0D258:  CALL   1FE2
0D25C:  BNC   D26E
....................             Ganancia=40; 
0D25E:  MOVLB  2
0D260:  CLRF   xFB
0D262:  CLRF   xFA
0D264:  MOVLW  20
0D266:  MOVWF  xF9
0D268:  MOVLW  84
0D26A:  MOVWF  xF8
0D26C:  MOVLB  0
....................       }else if(Opcion2==2){ 
0D26E:  GOTO   DA2A
0D272:  MOVLB  3
0D274:  MOVF   x43,W
0D276:  SUBLW  02
0D278:  BNZ   D338
....................          printf("Config.t2c.txt=\"Derivativo\""); 
0D27A:  MOVLW  00
0D27C:  MOVWF  FF6
0D27E:  MOVLW  18
0D280:  MOVWF  FF7
0D282:  MOVLW  00
0D284:  MOVWF  FF8
0D286:  MOVLB  0
0D288:  CALL   4078
....................          SendDataDisplay();       
0D28C:  CALL   40AA
....................          printf("t3c.txt=\"%u\"",Derivativo); 
0D290:  MOVLW  1C
0D292:  MOVWF  FF6
0D294:  MOVLW  18
0D296:  MOVWF  FF7
0D298:  MOVLW  00
0D29A:  MOVWF  FF8
0D29C:  MOVLW  09
0D29E:  MOVLB  4
0D2A0:  MOVWF  x19
0D2A2:  MOVLB  0
0D2A4:  CALL   4D2C
0D2A8:  MOVFF  32D,419
0D2AC:  MOVLW  1B
0D2AE:  MOVLB  4
0D2B0:  MOVWF  x1A
0D2B2:  MOVLB  0
0D2B4:  CALL   4D8A
0D2B8:  MOVLW  22
0D2BA:  BTFSS  F9E.4
0D2BC:  BRA    D2BA
0D2BE:  MOVWF  FAD
....................          SendDataDisplay(); 
0D2C0:  CALL   40AA
....................          if(RX_Buffer[4]==0x0a || UP){//Tecla Arriba Oprimida 
0D2C4:  MOVF   34,W
0D2C6:  SUBLW  0A
0D2C8:  BZ    D2D0
0D2CA:  BSF    F93.0
0D2CC:  BTFSC  F81.0
0D2CE:  BRA    D2F2
....................             delay_ms(20); 
0D2D0:  MOVLW  14
0D2D2:  MOVLB  4
0D2D4:  MOVWF  x29
0D2D6:  MOVLB  0
0D2D8:  CALL   19C2
....................             if(RX_Buffer[4]==0x0a || UP){ 
0D2DC:  MOVF   34,W
0D2DE:  SUBLW  0A
0D2E0:  BZ    D2E8
0D2E2:  BSF    F93.0
0D2E4:  BTFSC  F81.0
0D2E6:  BRA    D2F2
....................                Derivativo++; 
0D2E8:  MOVLB  3
0D2EA:  INCF   x2D,F
....................                RX_Buffer[4]=0x00;   
0D2EC:  CLRF   34
....................                RX_Buffer2[4]=0x00;             
0D2EE:  CLRF   3F
0D2F0:  MOVLB  0
....................                //BorraBuffer(); 
....................             } 
....................          } 
....................              
....................          if(RX_Buffer[4]==0x0b || DOWN){//Tecla Abajo Oprimida 
0D2F2:  MOVF   34,W
0D2F4:  SUBLW  0B
0D2F6:  BZ    D2FE
0D2F8:  BSF    F93.1
0D2FA:  BTFSC  F81.1
0D2FC:  BRA    D320
....................             delay_ms(20); 
0D2FE:  MOVLW  14
0D300:  MOVLB  4
0D302:  MOVWF  x29
0D304:  MOVLB  0
0D306:  CALL   19C2
....................             if(RX_Buffer[4]==0x0b || DOWN){ 
0D30A:  MOVF   34,W
0D30C:  SUBLW  0B
0D30E:  BZ    D316
0D310:  BSF    F93.1
0D312:  BTFSC  F81.1
0D314:  BRA    D320
....................                Derivativo--; 
0D316:  MOVLB  3
0D318:  DECF   x2D,F
....................                RX_Buffer[4]=0x00; 
0D31A:  CLRF   34
....................                RX_Buffer2[4]=0x00;             
0D31C:  CLRF   3F
0D31E:  MOVLB  0
....................                //BorraBuffer(); 
....................             } 
....................          } 
....................           
....................           
....................          if(Derivativo>40) 
0D320:  MOVLB  3
0D322:  MOVF   x2D,W
0D324:  SUBLW  28
0D326:  BC    D32C
....................             Derivativo=1; 
0D328:  MOVLW  01
0D32A:  MOVWF  x2D
....................          if(Derivativo<1) 
0D32C:  MOVF   x2D,F
0D32E:  BNZ   D334
....................             Derivativo=40; 
0D330:  MOVLW  28
0D332:  MOVWF  x2D
....................       }else if(Opcion2==3){ 
0D334:  GOTO   DA2C
0D338:  MOVF   x43,W
0D33A:  SUBLW  03
0D33C:  BNZ   D3FA
....................          printf("Config.t2c.txt=\"Integral\""); 
0D33E:  MOVLW  2A
0D340:  MOVWF  FF6
0D342:  MOVLW  18
0D344:  MOVWF  FF7
0D346:  MOVLW  00
0D348:  MOVWF  FF8
0D34A:  MOVLB  0
0D34C:  CALL   4078
....................          SendDataDisplay();       
0D350:  CALL   40AA
....................          printf("t3c.txt=\"%u\"",Integral); 
0D354:  MOVLW  44
0D356:  MOVWF  FF6
0D358:  MOVLW  18
0D35A:  MOVWF  FF7
0D35C:  MOVLW  00
0D35E:  MOVWF  FF8
0D360:  MOVLW  09
0D362:  MOVLB  4
0D364:  MOVWF  x19
0D366:  MOVLB  0
0D368:  CALL   4D2C
0D36C:  MOVFF  32C,419
0D370:  MOVLW  1B
0D372:  MOVLB  4
0D374:  MOVWF  x1A
0D376:  MOVLB  0
0D378:  CALL   4D8A
0D37C:  MOVLW  22
0D37E:  BTFSS  F9E.4
0D380:  BRA    D37E
0D382:  MOVWF  FAD
....................          SendDataDisplay(); 
0D384:  CALL   40AA
....................          if(RX_Buffer[4]==0x0a || UP){//Tecla Arriba Oprimida 
0D388:  MOVF   34,W
0D38A:  SUBLW  0A
0D38C:  BZ    D394
0D38E:  BSF    F93.0
0D390:  BTFSC  F81.0
0D392:  BRA    D3B6
....................             delay_ms(20); 
0D394:  MOVLW  14
0D396:  MOVLB  4
0D398:  MOVWF  x29
0D39A:  MOVLB  0
0D39C:  CALL   19C2
....................             if(RX_Buffer[4]==0x0a || UP){ 
0D3A0:  MOVF   34,W
0D3A2:  SUBLW  0A
0D3A4:  BZ    D3AC
0D3A6:  BSF    F93.0
0D3A8:  BTFSC  F81.0
0D3AA:  BRA    D3B6
....................                Integral++; 
0D3AC:  MOVLB  3
0D3AE:  INCF   x2C,F
....................                RX_Buffer[4]=0x00;   
0D3B0:  CLRF   34
....................                RX_Buffer2[4]=0x00;             
0D3B2:  CLRF   3F
0D3B4:  MOVLB  0
....................                //BorraBuffer(); 
....................             } 
....................          } 
....................              
....................          if(RX_Buffer[4]==0x0b || DOWN){//Tecla Abajo Oprimida 
0D3B6:  MOVF   34,W
0D3B8:  SUBLW  0B
0D3BA:  BZ    D3C2
0D3BC:  BSF    F93.1
0D3BE:  BTFSC  F81.1
0D3C0:  BRA    D3E4
....................             delay_ms(20); 
0D3C2:  MOVLW  14
0D3C4:  MOVLB  4
0D3C6:  MOVWF  x29
0D3C8:  MOVLB  0
0D3CA:  CALL   19C2
....................             if(RX_Buffer[4]==0x0b || DOWN){ 
0D3CE:  MOVF   34,W
0D3D0:  SUBLW  0B
0D3D2:  BZ    D3DA
0D3D4:  BSF    F93.1
0D3D6:  BTFSC  F81.1
0D3D8:  BRA    D3E4
....................                Integral--; 
0D3DA:  MOVLB  3
0D3DC:  DECF   x2C,F
....................                RX_Buffer[4]=0x00; 
0D3DE:  CLRF   34
....................                RX_Buffer2[4]=0x00;             
0D3E0:  CLRF   3F
0D3E2:  MOVLB  0
....................                //BorraBuffer(); 
....................             } 
....................          } 
....................           
....................          if(Integral>40) 
0D3E4:  MOVLB  3
0D3E6:  MOVF   x2C,W
0D3E8:  SUBLW  28
0D3EA:  BC    D3F0
....................             Integral=1; 
0D3EC:  MOVLW  01
0D3EE:  MOVWF  x2C
....................          if(Integral<1) 
0D3F0:  MOVF   x2C,F
0D3F2:  BNZ   D3F8
....................             Integral=40; 
0D3F4:  MOVLW  28
0D3F6:  MOVWF  x2C
....................       }else if(Opcion2==4){ 
0D3F8:  BRA    DA2C
0D3FA:  MOVF   x43,W
0D3FC:  SUBLW  04
0D3FE:  BTFSS  FD8.2
0D400:  BRA    D580
....................          printf("Config.t2c.txt=\"Tciclo\""); 
0D402:  MOVLW  52
0D404:  MOVWF  FF6
0D406:  MOVLW  18
0D408:  MOVWF  FF7
0D40A:  MOVLW  00
0D40C:  MOVWF  FF8
0D40E:  MOVLB  0
0D410:  CALL   4078
....................          SendDataDisplay();       
0D414:  CALL   40AA
....................          printf("t3c.txt=\"%2.0f\"",Tciclo); 
0D418:  MOVLW  6A
0D41A:  MOVWF  FF6
0D41C:  MOVLW  18
0D41E:  MOVWF  FF7
0D420:  MOVLW  00
0D422:  MOVWF  FF8
0D424:  MOVLW  09
0D426:  MOVLB  4
0D428:  MOVWF  x19
0D42A:  MOVLB  0
0D42C:  CALL   4D2C
0D430:  MOVLW  01
0D432:  MOVWF  FE9
0D434:  MOVFF  2E3,41C
0D438:  MOVFF  2E2,41B
0D43C:  MOVFF  2E1,41A
0D440:  MOVFF  2E0,419
0D444:  MOVLB  4
0D446:  CLRF   x1D
0D448:  MOVLB  0
0D44A:  CALL   4ECC
0D44E:  MOVLW  22
0D450:  BTFSS  F9E.4
0D452:  BRA    D450
0D454:  MOVWF  FAD
....................          SendDataDisplay(); 
0D456:  CALL   40AA
....................          if(RX_Buffer[4]==0x0a || UP){//Tecla Arriba Oprimida 
0D45A:  MOVF   34,W
0D45C:  SUBLW  0A
0D45E:  BZ    D466
0D460:  BSF    F93.0
0D462:  BTFSC  F81.0
0D464:  BRA    D4B6
....................             delay_ms(20); 
0D466:  MOVLW  14
0D468:  MOVLB  4
0D46A:  MOVWF  x29
0D46C:  MOVLB  0
0D46E:  CALL   19C2
....................             if(RX_Buffer[4]==0x0a || UP){ 
0D472:  MOVF   34,W
0D474:  SUBLW  0A
0D476:  BZ    D47E
0D478:  BSF    F93.0
0D47A:  BTFSC  F81.0
0D47C:  BRA    D4B6
....................                Tciclo+=1.0; 
0D47E:  BCF    FD8.1
0D480:  MOVFF  2E3,42C
0D484:  MOVFF  2E2,42B
0D488:  MOVFF  2E1,42A
0D48C:  MOVFF  2E0,429
0D490:  MOVLB  4
0D492:  CLRF   x30
0D494:  CLRF   x2F
0D496:  CLRF   x2E
0D498:  MOVLW  7F
0D49A:  MOVWF  x2D
0D49C:  MOVLB  0
0D49E:  CALL   1B7E
0D4A2:  MOVFF  03,2E3
0D4A6:  MOVFF  02,2E2
0D4AA:  MOVFF  01,2E1
0D4AE:  MOVFF  00,2E0
....................                RX_Buffer[4]=0x00;   
0D4B2:  CLRF   34
....................                RX_Buffer2[4]=0x00;             
0D4B4:  CLRF   3F
....................                //BorraBuffer(); 
....................             } 
....................          } 
....................              
....................          if(RX_Buffer[4]==0x0b || DOWN){//Tecla Abajo Oprimida 
0D4B6:  MOVF   34,W
0D4B8:  SUBLW  0B
0D4BA:  BZ    D4C2
0D4BC:  BSF    F93.1
0D4BE:  BTFSC  F81.1
0D4C0:  BRA    D512
....................             delay_ms(20); 
0D4C2:  MOVLW  14
0D4C4:  MOVLB  4
0D4C6:  MOVWF  x29
0D4C8:  MOVLB  0
0D4CA:  CALL   19C2
....................             if(RX_Buffer[4]==0x0b || DOWN){ 
0D4CE:  MOVF   34,W
0D4D0:  SUBLW  0B
0D4D2:  BZ    D4DA
0D4D4:  BSF    F93.1
0D4D6:  BTFSC  F81.1
0D4D8:  BRA    D512
....................                Tciclo-=1.0; 
0D4DA:  BSF    FD8.1
0D4DC:  MOVFF  2E3,42C
0D4E0:  MOVFF  2E2,42B
0D4E4:  MOVFF  2E1,42A
0D4E8:  MOVFF  2E0,429
0D4EC:  MOVLB  4
0D4EE:  CLRF   x30
0D4F0:  CLRF   x2F
0D4F2:  CLRF   x2E
0D4F4:  MOVLW  7F
0D4F6:  MOVWF  x2D
0D4F8:  MOVLB  0
0D4FA:  CALL   1B7E
0D4FE:  MOVFF  03,2E3
0D502:  MOVFF  02,2E2
0D506:  MOVFF  01,2E1
0D50A:  MOVFF  00,2E0
....................                RX_Buffer[4]=0x00; 
0D50E:  CLRF   34
....................                RX_Buffer2[4]=0x00;             
0D510:  CLRF   3F
....................                //BorraBuffer(); 
....................             } 
....................          } 
....................           
....................          if(Tciclo>20) 
0D512:  MOVLB  4
0D514:  CLRF   x1B
0D516:  CLRF   x1A
0D518:  MOVLW  20
0D51A:  MOVWF  x19
0D51C:  MOVLW  83
0D51E:  MOVWF  x18
0D520:  MOVFF  2E3,41F
0D524:  MOVFF  2E2,41E
0D528:  MOVFF  2E1,41D
0D52C:  MOVFF  2E0,41C
0D530:  MOVLB  0
0D532:  CALL   1FE2
0D536:  BNC   D546
....................             Tciclo=5; 
0D538:  MOVLB  2
0D53A:  CLRF   xE3
0D53C:  CLRF   xE2
0D53E:  MOVLW  20
0D540:  MOVWF  xE1
0D542:  MOVLW  81
0D544:  MOVWF  xE0
....................          if(Tciclo<5) 
0D546:  MOVFF  2E3,41B
0D54A:  MOVFF  2E2,41A
0D54E:  MOVFF  2E1,419
0D552:  MOVFF  2E0,418
0D556:  MOVLB  4
0D558:  CLRF   x1F
0D55A:  CLRF   x1E
0D55C:  MOVLW  20
0D55E:  MOVWF  x1D
0D560:  MOVLW  81
0D562:  MOVWF  x1C
0D564:  MOVLB  0
0D566:  CALL   1FE2
0D56A:  BNC   D57C
....................             Tciclo=20; 
0D56C:  MOVLB  2
0D56E:  CLRF   xE3
0D570:  CLRF   xE2
0D572:  MOVLW  20
0D574:  MOVWF  xE1
0D576:  MOVLW  83
0D578:  MOVWF  xE0
0D57A:  MOVLB  0
....................       }else if(Opcion2==5){ 
0D57C:  BRA    DA2A
0D57E:  MOVLB  3
0D580:  MOVF   x43,W
0D582:  SUBLW  05
0D584:  BNZ   D63A
....................          printf("Config.t2c.txt=\"Ajuste +\""); 
0D586:  MOVLW  7A
0D588:  MOVWF  FF6
0D58A:  MOVLW  18
0D58C:  MOVWF  FF7
0D58E:  MOVLW  00
0D590:  MOVWF  FF8
0D592:  MOVLB  0
0D594:  CALL   4078
....................          SendDataDisplay();       
0D598:  CALL   40AA
....................          printf("t3c.txt=\"%u\"",Ajuste); 
0D59C:  MOVLW  94
0D59E:  MOVWF  FF6
0D5A0:  MOVLW  18
0D5A2:  MOVWF  FF7
0D5A4:  MOVLW  00
0D5A6:  MOVWF  FF8
0D5A8:  MOVLW  09
0D5AA:  MOVLB  4
0D5AC:  MOVWF  x19
0D5AE:  MOVLB  0
0D5B0:  CALL   4D2C
0D5B4:  MOVFF  2CA,419
0D5B8:  MOVLW  1B
0D5BA:  MOVLB  4
0D5BC:  MOVWF  x1A
0D5BE:  MOVLB  0
0D5C0:  CALL   4D8A
0D5C4:  MOVLW  22
0D5C6:  BTFSS  F9E.4
0D5C8:  BRA    D5C6
0D5CA:  MOVWF  FAD
....................          SendDataDisplay(); 
0D5CC:  CALL   40AA
....................          if(RX_Buffer[4]==0x0a || UP){//Tecla Arriba Oprimida 
0D5D0:  MOVF   34,W
0D5D2:  SUBLW  0A
0D5D4:  BZ    D5DC
0D5D6:  BSF    F93.0
0D5D8:  BTFSC  F81.0
0D5DA:  BRA    D604
....................             delay_ms(20); 
0D5DC:  MOVLW  14
0D5DE:  MOVLB  4
0D5E0:  MOVWF  x29
0D5E2:  MOVLB  0
0D5E4:  CALL   19C2
....................             if(RX_Buffer[4]==0x0a || UP){ 
0D5E8:  MOVF   34,W
0D5EA:  SUBLW  0A
0D5EC:  BZ    D5F4
0D5EE:  BSF    F93.0
0D5F0:  BTFSC  F81.0
0D5F2:  BRA    D604
....................                if(Ajuste<40) 
0D5F4:  MOVLB  2
0D5F6:  MOVF   xCA,W
0D5F8:  SUBLW  27
0D5FA:  BNC   D5FE
....................                   Ajuste++; 
0D5FC:  INCF   xCA,F
....................                RX_Buffer[4]=0x00;   
0D5FE:  CLRF   34
....................                RX_Buffer2[4]=0x00;             
0D600:  CLRF   3F
0D602:  MOVLB  0
....................                //BorraBuffer(); 
....................             } 
....................          } 
....................              
....................          if(RX_Buffer[4]==0x0b || DOWN){//Tecla Abajo Oprimida 
0D604:  MOVF   34,W
0D606:  SUBLW  0B
0D608:  BZ    D610
0D60A:  BSF    F93.1
0D60C:  BTFSC  F81.1
0D60E:  BRA    D636
....................             delay_ms(20); 
0D610:  MOVLW  14
0D612:  MOVLB  4
0D614:  MOVWF  x29
0D616:  MOVLB  0
0D618:  CALL   19C2
....................             if(RX_Buffer[4]==0x0b || DOWN){ 
0D61C:  MOVF   34,W
0D61E:  SUBLW  0B
0D620:  BZ    D628
0D622:  BSF    F93.1
0D624:  BTFSC  F81.1
0D626:  BRA    D636
....................                if(Ajuste>0) 
0D628:  MOVLB  2
0D62A:  MOVF   xCA,F
0D62C:  BZ    D630
....................                   Ajuste--; 
0D62E:  DECF   xCA,F
....................                RX_Buffer[4]=0x00; 
0D630:  CLRF   34
....................                RX_Buffer2[4]=0x00;             
0D632:  CLRF   3F
0D634:  MOVLB  0
....................                //BorraBuffer(); 
....................             } 
....................          } 
....................       }else if(Opcion2==6){ 
0D636:  BRA    DA2A
0D638:  MOVLB  3
0D63A:  MOVF   x43,W
0D63C:  SUBLW  06
0D63E:  BNZ   D6F4
....................          printf("Config.t2c.txt=\"Ajuste -\""); 
0D640:  MOVLW  A2
0D642:  MOVWF  FF6
0D644:  MOVLW  18
0D646:  MOVWF  FF7
0D648:  MOVLW  00
0D64A:  MOVWF  FF8
0D64C:  MOVLB  0
0D64E:  CALL   4078
....................          SendDataDisplay();       
0D652:  CALL   40AA
....................          printf("t3c.txt=\"%u\"",Ajusten); 
0D656:  MOVLW  BC
0D658:  MOVWF  FF6
0D65A:  MOVLW  18
0D65C:  MOVWF  FF7
0D65E:  MOVLW  00
0D660:  MOVWF  FF8
0D662:  MOVLW  09
0D664:  MOVLB  4
0D666:  MOVWF  x19
0D668:  MOVLB  0
0D66A:  CALL   4D2C
0D66E:  MOVFF  2CB,419
0D672:  MOVLW  1B
0D674:  MOVLB  4
0D676:  MOVWF  x1A
0D678:  MOVLB  0
0D67A:  CALL   4D8A
0D67E:  MOVLW  22
0D680:  BTFSS  F9E.4
0D682:  BRA    D680
0D684:  MOVWF  FAD
....................          SendDataDisplay(); 
0D686:  CALL   40AA
....................          if(RX_Buffer[4]==0x0a || UP){//Tecla Arriba Oprimida 
0D68A:  MOVF   34,W
0D68C:  SUBLW  0A
0D68E:  BZ    D696
0D690:  BSF    F93.0
0D692:  BTFSC  F81.0
0D694:  BRA    D6BE
....................             delay_ms(20); 
0D696:  MOVLW  14
0D698:  MOVLB  4
0D69A:  MOVWF  x29
0D69C:  MOVLB  0
0D69E:  CALL   19C2
....................             if(RX_Buffer[4]==0x0a || UP){ 
0D6A2:  MOVF   34,W
0D6A4:  SUBLW  0A
0D6A6:  BZ    D6AE
0D6A8:  BSF    F93.0
0D6AA:  BTFSC  F81.0
0D6AC:  BRA    D6BE
....................                if(Ajusten<40) 
0D6AE:  MOVLB  2
0D6B0:  MOVF   xCB,W
0D6B2:  SUBLW  27
0D6B4:  BNC   D6B8
....................                   Ajusten++; 
0D6B6:  INCF   xCB,F
....................                RX_Buffer[4]=0x00;   
0D6B8:  CLRF   34
....................                RX_Buffer2[4]=0x00;             
0D6BA:  CLRF   3F
0D6BC:  MOVLB  0
....................                //BorraBuffer(); 
....................             } 
....................          } 
....................              
....................          if(RX_Buffer[4]==0x0b || DOWN){//Tecla Abajo Oprimida 
0D6BE:  MOVF   34,W
0D6C0:  SUBLW  0B
0D6C2:  BZ    D6CA
0D6C4:  BSF    F93.1
0D6C6:  BTFSC  F81.1
0D6C8:  BRA    D6F0
....................             delay_ms(20); 
0D6CA:  MOVLW  14
0D6CC:  MOVLB  4
0D6CE:  MOVWF  x29
0D6D0:  MOVLB  0
0D6D2:  CALL   19C2
....................             if(RX_Buffer[4]==0x0b || DOWN){ 
0D6D6:  MOVF   34,W
0D6D8:  SUBLW  0B
0D6DA:  BZ    D6E2
0D6DC:  BSF    F93.1
0D6DE:  BTFSC  F81.1
0D6E0:  BRA    D6F0
....................                if(Ajusten>0) 
0D6E2:  MOVLB  2
0D6E4:  MOVF   xCB,F
0D6E6:  BZ    D6EA
....................                   Ajusten--; 
0D6E8:  DECF   xCB,F
....................                RX_Buffer[4]=0x00; 
0D6EA:  CLRF   34
....................                RX_Buffer2[4]=0x00;             
0D6EC:  CLRF   3F
0D6EE:  MOVLB  0
....................                //BorraBuffer(); 
....................             } 
....................          } 
....................       }else if(Opcion2==7){ 
0D6F0:  BRA    DA2A
0D6F2:  MOVLB  3
0D6F4:  MOVF   x43,W
0D6F6:  SUBLW  07
0D6F8:  BNZ   D7B0
....................          printf("Config.t2c.txt=\"Media\""); 
0D6FA:  MOVLW  CA
0D6FC:  MOVWF  FF6
0D6FE:  MOVLW  18
0D700:  MOVWF  FF7
0D702:  MOVLW  00
0D704:  MOVWF  FF8
0D706:  MOVLB  0
0D708:  CALL   4078
....................          SendDataDisplay();       
0D70C:  CALL   40AA
....................          printf("t3c.txt=\"%u\"",MediaMovil); 
0D710:  MOVLW  E2
0D712:  MOVWF  FF6
0D714:  MOVLW  18
0D716:  MOVWF  FF7
0D718:  MOVLW  00
0D71A:  MOVWF  FF8
0D71C:  MOVLW  09
0D71E:  MOVLB  4
0D720:  MOVWF  x19
0D722:  MOVLB  0
0D724:  CALL   4D2C
0D728:  MOVFF  2CC,419
0D72C:  MOVLW  1B
0D72E:  MOVLB  4
0D730:  MOVWF  x1A
0D732:  MOVLB  0
0D734:  CALL   4D8A
0D738:  MOVLW  22
0D73A:  BTFSS  F9E.4
0D73C:  BRA    D73A
0D73E:  MOVWF  FAD
....................          SendDataDisplay(); 
0D740:  CALL   40AA
....................          if(RX_Buffer[4]==0x0a || UP){//Tecla Arriba Oprimida 
0D744:  MOVF   34,W
0D746:  SUBLW  0A
0D748:  BZ    D750
0D74A:  BSF    F93.0
0D74C:  BTFSC  F81.0
0D74E:  BRA    D778
....................             delay_ms(20); 
0D750:  MOVLW  14
0D752:  MOVLB  4
0D754:  MOVWF  x29
0D756:  MOVLB  0
0D758:  CALL   19C2
....................             if(RX_Buffer[4]==0x0a || UP){ 
0D75C:  MOVF   34,W
0D75E:  SUBLW  0A
0D760:  BZ    D768
0D762:  BSF    F93.0
0D764:  BTFSC  F81.0
0D766:  BRA    D778
....................                if(MediaMovil<80) 
0D768:  MOVLB  2
0D76A:  MOVF   xCC,W
0D76C:  SUBLW  4F
0D76E:  BNC   D772
....................                   MediaMovil++; 
0D770:  INCF   xCC,F
....................                RX_Buffer[4]=0x00;   
0D772:  CLRF   34
....................                RX_Buffer2[4]=0x00;             
0D774:  CLRF   3F
0D776:  MOVLB  0
....................                //BorraBuffer(); 
....................             } 
....................          } 
....................              
....................          if(RX_Buffer[4]==0x0b || DOWN){//Tecla Abajo Oprimida 
0D778:  MOVF   34,W
0D77A:  SUBLW  0B
0D77C:  BZ    D784
0D77E:  BSF    F93.1
0D780:  BTFSC  F81.1
0D782:  BRA    D7AC
....................             delay_ms(20); 
0D784:  MOVLW  14
0D786:  MOVLB  4
0D788:  MOVWF  x29
0D78A:  MOVLB  0
0D78C:  CALL   19C2
....................             if(RX_Buffer[4]==0x0b || DOWN){ 
0D790:  MOVF   34,W
0D792:  SUBLW  0B
0D794:  BZ    D79C
0D796:  BSF    F93.1
0D798:  BTFSC  F81.1
0D79A:  BRA    D7AC
....................                if(MediaMovil>10) 
0D79C:  MOVLB  2
0D79E:  MOVF   xCC,W
0D7A0:  SUBLW  0A
0D7A2:  BC    D7A6
....................                   MediaMovil--; 
0D7A4:  DECF   xCC,F
....................                RX_Buffer[4]=0x00; 
0D7A6:  CLRF   34
....................                RX_Buffer2[4]=0x00;             
0D7A8:  CLRF   3F
0D7AA:  MOVLB  0
....................                //BorraBuffer(); 
....................             } 
....................          } 
....................       }else if(Opcion2==8){ 
0D7AC:  BRA    DA2A
0D7AE:  MOVLB  3
0D7B0:  MOVF   x43,W
0D7B2:  SUBLW  08
0D7B4:  BTFSS  FD8.2
0D7B6:  BRA    D91E
....................          printf("Config.t2c.txt=\"RPT100B\""); 
0D7B8:  MOVLW  F0
0D7BA:  MOVWF  FF6
0D7BC:  MOVLW  18
0D7BE:  MOVWF  FF7
0D7C0:  MOVLW  00
0D7C2:  MOVWF  FF8
0D7C4:  MOVLB  0
0D7C6:  CALL   4078
....................          SendDataDisplay();       
0D7CA:  CALL   40AA
....................          printf("t3c.txt=\"%2.1f\"",RPT100); 
0D7CE:  MOVLW  0A
0D7D0:  MOVWF  FF6
0D7D2:  MOVLW  19
0D7D4:  MOVWF  FF7
0D7D6:  MOVLW  00
0D7D8:  MOVWF  FF8
0D7DA:  MOVLW  09
0D7DC:  MOVLB  4
0D7DE:  MOVWF  x19
0D7E0:  MOVLB  0
0D7E2:  CALL   4D2C
0D7E6:  MOVLW  01
0D7E8:  MOVWF  FE9
0D7EA:  MOVFF  2A7,41C
0D7EE:  MOVFF  2A6,41B
0D7F2:  MOVFF  2A5,41A
0D7F6:  MOVFF  2A4,419
0D7FA:  MOVLB  4
0D7FC:  MOVWF  x1D
0D7FE:  MOVLB  0
0D800:  CALL   4ECC
0D804:  MOVLW  22
0D806:  BTFSS  F9E.4
0D808:  BRA    D806
0D80A:  MOVWF  FAD
....................          SendDataDisplay(); 
0D80C:  CALL   40AA
....................          if(RX_Buffer[4]==0x0a || UP){//Tecla Arriba Oprimida 
0D810:  MOVF   34,W
0D812:  SUBLW  0A
0D814:  BZ    D81C
0D816:  BSF    F93.0
0D818:  BTFSC  F81.0
0D81A:  BRA    D896
....................             delay_ms(20); 
0D81C:  MOVLW  14
0D81E:  MOVLB  4
0D820:  MOVWF  x29
0D822:  MOVLB  0
0D824:  CALL   19C2
....................             if(RX_Buffer[4]==0x0a || UP){ 
0D828:  MOVF   34,W
0D82A:  SUBLW  0A
0D82C:  BZ    D834
0D82E:  BSF    F93.0
0D830:  BTFSC  F81.0
0D832:  BRA    D896
....................                if(RPT100<2.0) 
0D834:  MOVFF  2A7,41B
0D838:  MOVFF  2A6,41A
0D83C:  MOVFF  2A5,419
0D840:  MOVFF  2A4,418
0D844:  MOVLB  4
0D846:  CLRF   x1F
0D848:  CLRF   x1E
0D84A:  CLRF   x1D
0D84C:  MOVLW  80
0D84E:  MOVWF  x1C
0D850:  MOVLB  0
0D852:  CALL   1FE2
0D856:  BNC   D892
....................                   RPT100+=0.1; 
0D858:  BCF    FD8.1
0D85A:  MOVFF  2A7,42C
0D85E:  MOVFF  2A6,42B
0D862:  MOVFF  2A5,42A
0D866:  MOVFF  2A4,429
0D86A:  MOVLW  CD
0D86C:  MOVLB  4
0D86E:  MOVWF  x30
0D870:  MOVLW  CC
0D872:  MOVWF  x2F
0D874:  MOVLW  4C
0D876:  MOVWF  x2E
0D878:  MOVLW  7B
0D87A:  MOVWF  x2D
0D87C:  MOVLB  0
0D87E:  CALL   1B7E
0D882:  MOVFF  03,2A7
0D886:  MOVFF  02,2A6
0D88A:  MOVFF  01,2A5
0D88E:  MOVFF  00,2A4
....................                RX_Buffer[4]=0x00;   
0D892:  CLRF   34
....................                RX_Buffer2[4]=0x00;             
0D894:  CLRF   3F
....................                //BorraBuffer(); 
....................             } 
....................          } 
....................              
....................          if(RX_Buffer[4]==0x0b || DOWN){//Tecla Abajo Oprimida 
0D896:  MOVF   34,W
0D898:  SUBLW  0B
0D89A:  BZ    D8A2
0D89C:  BSF    F93.1
0D89E:  BTFSC  F81.1
0D8A0:  BRA    D91A
....................             delay_ms(20); 
0D8A2:  MOVLW  14
0D8A4:  MOVLB  4
0D8A6:  MOVWF  x29
0D8A8:  MOVLB  0
0D8AA:  CALL   19C2
....................             if(RX_Buffer[4]==0x0b || DOWN){ 
0D8AE:  MOVF   34,W
0D8B0:  SUBLW  0B
0D8B2:  BZ    D8BA
0D8B4:  BSF    F93.1
0D8B6:  BTFSC  F81.1
0D8B8:  BRA    D91A
....................                if(RPT100>0.0) 
0D8BA:  MOVLB  4
0D8BC:  CLRF   x1B
0D8BE:  CLRF   x1A
0D8C0:  CLRF   x19
0D8C2:  CLRF   x18
0D8C4:  MOVFF  2A7,41F
0D8C8:  MOVFF  2A6,41E
0D8CC:  MOVFF  2A5,41D
0D8D0:  MOVFF  2A4,41C
0D8D4:  MOVLB  0
0D8D6:  CALL   1FE2
0D8DA:  BNC   D916
....................                   RPT100-=0.1; 
0D8DC:  BSF    FD8.1
0D8DE:  MOVFF  2A7,42C
0D8E2:  MOVFF  2A6,42B
0D8E6:  MOVFF  2A5,42A
0D8EA:  MOVFF  2A4,429
0D8EE:  MOVLW  CD
0D8F0:  MOVLB  4
0D8F2:  MOVWF  x30
0D8F4:  MOVLW  CC
0D8F6:  MOVWF  x2F
0D8F8:  MOVLW  4C
0D8FA:  MOVWF  x2E
0D8FC:  MOVLW  7B
0D8FE:  MOVWF  x2D
0D900:  MOVLB  0
0D902:  CALL   1B7E
0D906:  MOVFF  03,2A7
0D90A:  MOVFF  02,2A6
0D90E:  MOVFF  01,2A5
0D912:  MOVFF  00,2A4
....................                RX_Buffer[4]=0x00; 
0D916:  CLRF   34
....................                RX_Buffer2[4]=0x00;             
0D918:  CLRF   3F
....................                //BorraBuffer(); 
....................             } 
....................          } 
....................       }else if(Opcion2==9){ 
0D91A:  BRA    DA2A
0D91C:  MOVLB  3
0D91E:  MOVF   x43,W
0D920:  SUBLW  09
0D922:  BNZ   D9DA
....................          printf("Config.t2c.txt=\"TTrampa\""); 
0D924:  MOVLW  1A
0D926:  MOVWF  FF6
0D928:  MOVLW  19
0D92A:  MOVWF  FF7
0D92C:  MOVLW  00
0D92E:  MOVWF  FF8
0D930:  MOVLB  0
0D932:  CALL   4078
....................          SendDataDisplay();       
0D936:  CALL   40AA
....................          printf("t3c.txt=\"%02u\"",TTrampa); 
0D93A:  MOVLW  34
0D93C:  MOVWF  FF6
0D93E:  MOVLW  19
0D940:  MOVWF  FF7
0D942:  MOVLW  00
0D944:  MOVWF  FF8
0D946:  MOVLW  09
0D948:  MOVLB  4
0D94A:  MOVWF  x19
0D94C:  MOVLB  0
0D94E:  CALL   4D2C
0D952:  MOVFF  2CD,419
0D956:  MOVLW  01
0D958:  MOVLB  4
0D95A:  MOVWF  x1A
0D95C:  MOVLB  0
0D95E:  CALL   4D8A
0D962:  MOVLW  22
0D964:  BTFSS  F9E.4
0D966:  BRA    D964
0D968:  MOVWF  FAD
....................          SendDataDisplay(); 
0D96A:  CALL   40AA
....................          if(RX_Buffer[4]==0x0a || UP){//Tecla Arriba Oprimida 
0D96E:  MOVF   34,W
0D970:  SUBLW  0A
0D972:  BZ    D97A
0D974:  BSF    F93.0
0D976:  BTFSC  F81.0
0D978:  BRA    D9A2
....................             delay_ms(20); 
0D97A:  MOVLW  14
0D97C:  MOVLB  4
0D97E:  MOVWF  x29
0D980:  MOVLB  0
0D982:  CALL   19C2
....................             if(RX_Buffer[4]==0x0a || UP){ 
0D986:  MOVF   34,W
0D988:  SUBLW  0A
0D98A:  BZ    D992
0D98C:  BSF    F93.0
0D98E:  BTFSC  F81.0
0D990:  BRA    D9A2
....................                if(TTrampa<100) 
0D992:  MOVLB  2
0D994:  MOVF   xCD,W
0D996:  SUBLW  63
0D998:  BNC   D99C
....................                   TTrampa++; 
0D99A:  INCF   xCD,F
....................                RX_Buffer[4]=0x00;   
0D99C:  CLRF   34
....................                RX_Buffer2[4]=0x00;             
0D99E:  CLRF   3F
0D9A0:  MOVLB  0
....................                //BorraBuffer(); 
....................             } 
....................          } 
....................              
....................          if(RX_Buffer[4]==0x0b || DOWN){//Tecla Abajo Oprimida 
0D9A2:  MOVF   34,W
0D9A4:  SUBLW  0B
0D9A6:  BZ    D9AE
0D9A8:  BSF    F93.1
0D9AA:  BTFSC  F81.1
0D9AC:  BRA    D9D6
....................             delay_ms(20); 
0D9AE:  MOVLW  14
0D9B0:  MOVLB  4
0D9B2:  MOVWF  x29
0D9B4:  MOVLB  0
0D9B6:  CALL   19C2
....................             if(RX_Buffer[4]==0x0b || DOWN){ 
0D9BA:  MOVF   34,W
0D9BC:  SUBLW  0B
0D9BE:  BZ    D9C6
0D9C0:  BSF    F93.1
0D9C2:  BTFSC  F81.1
0D9C4:  BRA    D9D6
....................                if(TTrampa>50) 
0D9C6:  MOVLB  2
0D9C8:  MOVF   xCD,W
0D9CA:  SUBLW  32
0D9CC:  BC    D9D0
....................                   TTrampa--; 
0D9CE:  DECF   xCD,F
....................                RX_Buffer[4]=0x00; 
0D9D0:  CLRF   34
....................                RX_Buffer2[4]=0x00;             
0D9D2:  CLRF   3F
0D9D4:  MOVLB  0
....................                //BorraBuffer(); 
....................             } 
....................          } 
....................       }else if(Opcion2==10){ 
0D9D6:  BRA    DA2A
0D9D8:  MOVLB  3
0D9DA:  MOVF   x43,W
0D9DC:  SUBLW  0A
0D9DE:  BNZ   DA2C
....................          printf("Config.t2c.txt=\"Ciclos\""); 
0D9E0:  MOVLW  44
0D9E2:  MOVWF  FF6
0D9E4:  MOVLW  19
0D9E6:  MOVWF  FF7
0D9E8:  MOVLW  00
0D9EA:  MOVWF  FF8
0D9EC:  MOVLB  0
0D9EE:  CALL   4078
....................          SendDataDisplay();       
0D9F2:  CALL   40AA
....................          printf("t3c.txt=\"%05Lu\"",Ciclos); 
0D9F6:  MOVLW  5C
0D9F8:  MOVWF  FF6
0D9FA:  MOVLW  19
0D9FC:  MOVWF  FF7
0D9FE:  MOVLW  00
0DA00:  MOVWF  FF8
0DA02:  MOVLW  09
0DA04:  MOVLB  4
0DA06:  MOVWF  x19
0DA08:  MOVLB  0
0DA0A:  CALL   4D2C
0DA0E:  MOVLW  08
0DA10:  MOVWF  FE9
0DA12:  MOVFF  358,419
0DA16:  MOVFF  357,418
0DA1A:  CALL   5102
0DA1E:  MOVLW  22
0DA20:  BTFSS  F9E.4
0DA22:  BRA    DA20
0DA24:  MOVWF  FAD
....................          SendDataDisplay(); 
0DA26:  CALL   40AA
0DA2A:  MOVLB  3
....................       } 
....................        
....................       if(RX_Buffer[4]==0x0c || LEFT){//Tecla Izquierda Oprimida 
0DA2C:  MOVF   34,W
0DA2E:  SUBLW  0C
0DA30:  BZ    DA38
0DA32:  BSF    F93.3
0DA34:  BTFSC  F81.3
0DA36:  BRA    DA58
....................          delay_ms(20); 
0DA38:  MOVLW  14
0DA3A:  MOVLB  4
0DA3C:  MOVWF  x29
0DA3E:  MOVLB  0
0DA40:  CALL   19C2
....................          if(RX_Buffer[4]==0x0c || LEFT){ 
0DA44:  MOVF   34,W
0DA46:  SUBLW  0C
0DA48:  BZ    DA50
0DA4A:  BSF    F93.3
0DA4C:  BTFSC  F81.3
0DA4E:  BRA    DA5A
....................             Opcion2++; 
0DA50:  MOVLB  3
0DA52:  INCF   x43,F
....................             RX_Buffer[4]=0x00;   
0DA54:  CLRF   34
....................             RX_Buffer2[4]=0x00;             
0DA56:  CLRF   3F
0DA58:  MOVLB  0
....................             //BorraBuffer(); 
....................          } 
....................       } 
....................           
....................       if(RX_Buffer[4]==0x0d || RIGHT){//Tecla Derecha Oprimida 
0DA5A:  MOVF   34,W
0DA5C:  SUBLW  0D
0DA5E:  BZ    DA66
0DA60:  BSF    F93.2
0DA62:  BTFSC  F81.2
0DA64:  BRA    DA88
....................          delay_ms(20); 
0DA66:  MOVLW  14
0DA68:  MOVLB  4
0DA6A:  MOVWF  x29
0DA6C:  MOVLB  0
0DA6E:  CALL   19C2
....................          if(RX_Buffer[4]==0x0d || RIGHT){ 
0DA72:  MOVF   34,W
0DA74:  SUBLW  0D
0DA76:  BZ    DA7E
0DA78:  BSF    F93.2
0DA7A:  BTFSC  F81.2
0DA7C:  BRA    DA88
....................             Opcion2--; 
0DA7E:  MOVLB  3
0DA80:  DECF   x43,F
....................             RX_Buffer[4]=0x00; 
0DA82:  CLRF   34
....................             RX_Buffer2[4]=0x00;             
0DA84:  CLRF   3F
0DA86:  MOVLB  0
....................             //BorraBuffer(); 
....................          } 
....................       } 
....................        
....................       if(RX_Buffer[4]==0x11 || (RIGHT && LEFT)){//Tecla Regresar 
0DA88:  MOVF   34,W
0DA8A:  SUBLW  11
0DA8C:  BZ    DA9A
0DA8E:  BSF    F93.2
0DA90:  BTFSC  F81.2
0DA92:  BRA    DE02
0DA94:  BSF    F93.3
0DA96:  BTFSC  F81.3
0DA98:  BRA    DE02
....................          delay_ms(20); 
0DA9A:  MOVLW  14
0DA9C:  MOVLB  4
0DA9E:  MOVWF  x29
0DAA0:  MOVLB  0
0DAA2:  CALL   19C2
....................          if(RX_Buffer[4]==0x11 || (RIGHT && LEFT)){ 
0DAA6:  MOVF   34,W
0DAA8:  SUBLW  11
0DAAA:  BZ    DAB8
0DAAC:  BSF    F93.2
0DAAE:  BTFSC  F81.2
0DAB0:  BRA    DE02
0DAB2:  BSF    F93.3
0DAB4:  BTFSC  F81.3
0DAB6:  BRA    DE02
....................             if(!GuardaEEPROM){ 
0DAB8:  BTFSC  xA2.5
0DABA:  BRA    DDEE
....................                write_eeprom(20,(int8)Ganancia); 
0DABC:  MOVFF  2FB,42C
0DAC0:  MOVFF  2FA,42B
0DAC4:  MOVFF  2F9,42A
0DAC8:  MOVFF  2F8,429
0DACC:  CALL   47DE
0DAD0:  MOVFF  01,414
0DAD4:  CLRF   FAA
0DAD6:  MOVLW  14
0DAD8:  MOVWF  FA9
0DADA:  MOVFF  414,FA8
0DADE:  BCF    FA6.6
0DAE0:  BCF    FA6.7
0DAE2:  BSF    FA6.2
0DAE4:  MOVF   FF2,W
0DAE6:  MOVWF  00
0DAE8:  BCF    FF2.6
0DAEA:  BCF    FF2.7
0DAEC:  MOVLB  F
0DAEE:  MOVLW  55
0DAF0:  MOVWF  FA7
0DAF2:  MOVLW  AA
0DAF4:  MOVWF  FA7
0DAF6:  BSF    FA6.1
0DAF8:  BTFSC  FA6.1
0DAFA:  BRA    DAF8
0DAFC:  BCF    FA6.2
0DAFE:  MOVF   00,W
0DB00:  IORWF  FF2,F
....................                delay_ms(10); 
0DB02:  MOVLW  0A
0DB04:  MOVLB  4
0DB06:  MOVWF  x29
0DB08:  MOVLB  0
0DB0A:  CALL   19C2
....................                write_eeprom(26,(int8)Integral); 
0DB0E:  CLRF   FAA
0DB10:  MOVLW  1A
0DB12:  MOVWF  FA9
0DB14:  MOVFF  32C,FA8
0DB18:  BCF    FA6.6
0DB1A:  BCF    FA6.7
0DB1C:  BSF    FA6.2
0DB1E:  MOVF   FF2,W
0DB20:  MOVWF  00
0DB22:  BCF    FF2.6
0DB24:  BCF    FF2.7
0DB26:  MOVLB  F
0DB28:  MOVLW  55
0DB2A:  MOVWF  FA7
0DB2C:  MOVLW  AA
0DB2E:  MOVWF  FA7
0DB30:  BSF    FA6.1
0DB32:  BTFSC  FA6.1
0DB34:  BRA    DB32
0DB36:  BCF    FA6.2
0DB38:  MOVF   00,W
0DB3A:  IORWF  FF2,F
....................                delay_ms(10); 
0DB3C:  MOVLW  0A
0DB3E:  MOVLB  4
0DB40:  MOVWF  x29
0DB42:  MOVLB  0
0DB44:  CALL   19C2
....................                write_eeprom(27,(int8)Derivativo); 
0DB48:  CLRF   FAA
0DB4A:  MOVLW  1B
0DB4C:  MOVWF  FA9
0DB4E:  MOVFF  32D,FA8
0DB52:  BCF    FA6.6
0DB54:  BCF    FA6.7
0DB56:  BSF    FA6.2
0DB58:  MOVF   FF2,W
0DB5A:  MOVWF  00
0DB5C:  BCF    FF2.6
0DB5E:  BCF    FF2.7
0DB60:  MOVLB  F
0DB62:  MOVLW  55
0DB64:  MOVWF  FA7
0DB66:  MOVLW  AA
0DB68:  MOVWF  FA7
0DB6A:  BSF    FA6.1
0DB6C:  BTFSC  FA6.1
0DB6E:  BRA    DB6C
0DB70:  BCF    FA6.2
0DB72:  MOVF   00,W
0DB74:  IORWF  FF2,F
....................                delay_ms(10); 
0DB76:  MOVLW  0A
0DB78:  MOVLB  4
0DB7A:  MOVWF  x29
0DB7C:  MOVLB  0
0DB7E:  CALL   19C2
....................                write_eeprom(25,(int8)Tciclo); 
0DB82:  MOVFF  2E3,42C
0DB86:  MOVFF  2E2,42B
0DB8A:  MOVFF  2E1,42A
0DB8E:  MOVFF  2E0,429
0DB92:  CALL   47DE
0DB96:  MOVFF  01,414
0DB9A:  CLRF   FAA
0DB9C:  MOVLW  19
0DB9E:  MOVWF  FA9
0DBA0:  MOVFF  414,FA8
0DBA4:  BCF    FA6.6
0DBA6:  BCF    FA6.7
0DBA8:  BSF    FA6.2
0DBAA:  MOVF   FF2,W
0DBAC:  MOVWF  00
0DBAE:  BCF    FF2.6
0DBB0:  BCF    FF2.7
0DBB2:  MOVLB  F
0DBB4:  MOVLW  55
0DBB6:  MOVWF  FA7
0DBB8:  MOVLW  AA
0DBBA:  MOVWF  FA7
0DBBC:  BSF    FA6.1
0DBBE:  BTFSC  FA6.1
0DBC0:  BRA    DBBE
0DBC2:  BCF    FA6.2
0DBC4:  MOVF   00,W
0DBC6:  IORWF  FF2,F
....................                delay_ms(10); 
0DBC8:  MOVLW  0A
0DBCA:  MOVLB  4
0DBCC:  MOVWF  x29
0DBCE:  MOVLB  0
0DBD0:  CALL   19C2
....................                write_eeprom(21,Ajuste); 
0DBD4:  CLRF   FAA
0DBD6:  MOVLW  15
0DBD8:  MOVWF  FA9
0DBDA:  MOVFF  2CA,FA8
0DBDE:  BCF    FA6.6
0DBE0:  BCF    FA6.7
0DBE2:  BSF    FA6.2
0DBE4:  MOVF   FF2,W
0DBE6:  MOVWF  00
0DBE8:  BCF    FF2.6
0DBEA:  BCF    FF2.7
0DBEC:  MOVLB  F
0DBEE:  MOVLW  55
0DBF0:  MOVWF  FA7
0DBF2:  MOVLW  AA
0DBF4:  MOVWF  FA7
0DBF6:  BSF    FA6.1
0DBF8:  BTFSC  FA6.1
0DBFA:  BRA    DBF8
0DBFC:  BCF    FA6.2
0DBFE:  MOVF   00,W
0DC00:  IORWF  FF2,F
....................                delay_ms(10); 
0DC02:  MOVLW  0A
0DC04:  MOVLB  4
0DC06:  MOVWF  x29
0DC08:  MOVLB  0
0DC0A:  CALL   19C2
....................                write_eeprom(22,Ajusten); 
0DC0E:  CLRF   FAA
0DC10:  MOVLW  16
0DC12:  MOVWF  FA9
0DC14:  MOVFF  2CB,FA8
0DC18:  BCF    FA6.6
0DC1A:  BCF    FA6.7
0DC1C:  BSF    FA6.2
0DC1E:  MOVF   FF2,W
0DC20:  MOVWF  00
0DC22:  BCF    FF2.6
0DC24:  BCF    FF2.7
0DC26:  MOVLB  F
0DC28:  MOVLW  55
0DC2A:  MOVWF  FA7
0DC2C:  MOVLW  AA
0DC2E:  MOVWF  FA7
0DC30:  BSF    FA6.1
0DC32:  BTFSC  FA6.1
0DC34:  BRA    DC32
0DC36:  BCF    FA6.2
0DC38:  MOVF   00,W
0DC3A:  IORWF  FF2,F
....................                delay_ms(10); 
0DC3C:  MOVLW  0A
0DC3E:  MOVLB  4
0DC40:  MOVWF  x29
0DC42:  MOVLB  0
0DC44:  CALL   19C2
....................                write_eeprom(24,(int8)MediaMovil); 
0DC48:  CLRF   FAA
0DC4A:  MOVLW  18
0DC4C:  MOVWF  FA9
0DC4E:  MOVFF  2CC,FA8
0DC52:  BCF    FA6.6
0DC54:  BCF    FA6.7
0DC56:  BSF    FA6.2
0DC58:  MOVF   FF2,W
0DC5A:  MOVWF  00
0DC5C:  BCF    FF2.6
0DC5E:  BCF    FF2.7
0DC60:  MOVLB  F
0DC62:  MOVLW  55
0DC64:  MOVWF  FA7
0DC66:  MOVLW  AA
0DC68:  MOVWF  FA7
0DC6A:  BSF    FA6.1
0DC6C:  BTFSC  FA6.1
0DC6E:  BRA    DC6C
0DC70:  BCF    FA6.2
0DC72:  MOVF   00,W
0DC74:  IORWF  FF2,F
....................                delay_ms(10); 
0DC76:  MOVLW  0A
0DC78:  MOVLB  4
0DC7A:  MOVWF  x29
0DC7C:  MOVLB  0
0DC7E:  CALL   19C2
....................                write_eeprom(32,(int8)RPT100); 
0DC82:  MOVFF  2A7,42C
0DC86:  MOVFF  2A6,42B
0DC8A:  MOVFF  2A5,42A
0DC8E:  MOVFF  2A4,429
0DC92:  CALL   47DE
0DC96:  MOVFF  01,414
0DC9A:  CLRF   FAA
0DC9C:  MOVLW  20
0DC9E:  MOVWF  FA9
0DCA0:  MOVFF  414,FA8
0DCA4:  BCF    FA6.6
0DCA6:  BCF    FA6.7
0DCA8:  BSF    FA6.2
0DCAA:  MOVF   FF2,W
0DCAC:  MOVWF  00
0DCAE:  BCF    FF2.6
0DCB0:  BCF    FF2.7
0DCB2:  MOVLB  F
0DCB4:  MOVLW  55
0DCB6:  MOVWF  FA7
0DCB8:  MOVLW  AA
0DCBA:  MOVWF  FA7
0DCBC:  BSF    FA6.1
0DCBE:  BTFSC  FA6.1
0DCC0:  BRA    DCBE
0DCC2:  BCF    FA6.2
0DCC4:  MOVF   00,W
0DCC6:  IORWF  FF2,F
....................                delay_ms(10); 
0DCC8:  MOVLW  0A
0DCCA:  MOVLB  4
0DCCC:  MOVWF  x29
0DCCE:  MOVLB  0
0DCD0:  CALL   19C2
....................                Temporal=RPT100-((int8)RPT100); 
0DCD4:  MOVFF  2A7,42C
0DCD8:  MOVFF  2A6,42B
0DCDC:  MOVFF  2A5,42A
0DCE0:  MOVFF  2A4,429
0DCE4:  CALL   47DE
0DCE8:  MOVLB  4
0DCEA:  CLRF   x2A
0DCEC:  MOVFF  01,429
0DCF0:  MOVLB  0
0DCF2:  CALL   19EA
0DCF6:  BSF    FD8.1
0DCF8:  MOVFF  2A7,42C
0DCFC:  MOVFF  2A6,42B
0DD00:  MOVFF  2A5,42A
0DD04:  MOVFF  2A4,429
0DD08:  MOVFF  03,430
0DD0C:  MOVFF  02,42F
0DD10:  MOVFF  01,42E
0DD14:  MOVFF  00,42D
0DD18:  CALL   1B7E
0DD1C:  MOVFF  03,2AB
0DD20:  MOVFF  02,2AA
0DD24:  MOVFF  01,2A9
0DD28:  MOVFF  00,2A8
....................                Temporal=Temporal*10; 
0DD2C:  MOVFF  2AB,430
0DD30:  MOVFF  2AA,42F
0DD34:  MOVFF  2A9,42E
0DD38:  MOVFF  2A8,42D
0DD3C:  MOVLB  4
0DD3E:  CLRF   x34
0DD40:  CLRF   x33
0DD42:  MOVLW  20
0DD44:  MOVWF  x32
0DD46:  MOVLW  82
0DD48:  MOVWF  x31
0DD4A:  MOVLB  0
0DD4C:  CALL   4150
0DD50:  MOVFF  03,2AB
0DD54:  MOVFF  02,2AA
0DD58:  MOVFF  01,2A9
0DD5C:  MOVFF  00,2A8
....................                write_eeprom(33,(int8)Temporal); 
0DD60:  MOVFF  2AB,42C
0DD64:  MOVFF  2AA,42B
0DD68:  MOVFF  2A9,42A
0DD6C:  MOVFF  2A8,429
0DD70:  CALL   47DE
0DD74:  MOVFF  01,414
0DD78:  CLRF   FAA
0DD7A:  MOVLW  21
0DD7C:  MOVWF  FA9
0DD7E:  MOVFF  414,FA8
0DD82:  BCF    FA6.6
0DD84:  BCF    FA6.7
0DD86:  BSF    FA6.2
0DD88:  MOVF   FF2,W
0DD8A:  MOVWF  00
0DD8C:  BCF    FF2.6
0DD8E:  BCF    FF2.7
0DD90:  MOVLB  F
0DD92:  MOVLW  55
0DD94:  MOVWF  FA7
0DD96:  MOVLW  AA
0DD98:  MOVWF  FA7
0DD9A:  BSF    FA6.1
0DD9C:  BTFSC  FA6.1
0DD9E:  BRA    DD9C
0DDA0:  BCF    FA6.2
0DDA2:  MOVF   00,W
0DDA4:  IORWF  FF2,F
....................                delay_ms(10); 
0DDA6:  MOVLW  0A
0DDA8:  MOVLB  4
0DDAA:  MOVWF  x29
0DDAC:  MOVLB  0
0DDAE:  CALL   19C2
....................                write_eeprom(39,TTrampa); 
0DDB2:  CLRF   FAA
0DDB4:  MOVLW  27
0DDB6:  MOVWF  FA9
0DDB8:  MOVFF  2CD,FA8
0DDBC:  BCF    FA6.6
0DDBE:  BCF    FA6.7
0DDC0:  BSF    FA6.2
0DDC2:  MOVF   FF2,W
0DDC4:  MOVWF  00
0DDC6:  BCF    FF2.6
0DDC8:  BCF    FF2.7
0DDCA:  MOVLB  F
0DDCC:  MOVLW  55
0DDCE:  MOVWF  FA7
0DDD0:  MOVLW  AA
0DDD2:  MOVWF  FA7
0DDD4:  BSF    FA6.1
0DDD6:  BTFSC  FA6.1
0DDD8:  BRA    DDD6
0DDDA:  BCF    FA6.2
0DDDC:  MOVF   00,W
0DDDE:  IORWF  FF2,F
....................                delay_ms(10); 
0DDE0:  MOVLW  0A
0DDE2:  MOVLB  4
0DDE4:  MOVWF  x29
0DDE6:  MOVLB  0
0DDE8:  CALL   19C2
....................                GuardaEEPROM=ON; 
0DDEC:  BSF    xA2.5
....................             } 
....................             printf("page MenuPrincipal"); 
0DDEE:  MOVLW  6C
0DDF0:  MOVWF  FF6
0DDF2:  MOVLW  19
0DDF4:  MOVWF  FF7
0DDF6:  MOVLW  00
0DDF8:  MOVWF  FF8
0DDFA:  CALL   4078
....................             SendDataDisplay(); 
0DDFE:  CALL   40AA
....................             //BorraBuffer(); 
....................          } 
....................       } 
....................       printf("fecha.txt=\"T:%3.1fC Fecha:%02u/%02u/20%02u Hora: %02u:%02u:%02u\"",Temperatura,Dia,Mes,Year,Hora,Minuto,Segundo); 
0DE02:  MOVLW  80
0DE04:  MOVWF  FF6
0DE06:  MOVLW  19
0DE08:  MOVWF  FF7
0DE0A:  MOVLW  00
0DE0C:  MOVWF  FF8
0DE0E:  MOVLW  0D
0DE10:  MOVLB  4
0DE12:  MOVWF  x19
0DE14:  MOVLB  0
0DE16:  CALL   4D2C
0DE1A:  MOVLW  02
0DE1C:  MOVWF  FE9
0DE1E:  MOVFF  31B,41C
0DE22:  MOVFF  31A,41B
0DE26:  MOVFF  319,41A
0DE2A:  MOVFF  318,419
0DE2E:  MOVLW  01
0DE30:  MOVLB  4
0DE32:  MOVWF  x1D
0DE34:  MOVLB  0
0DE36:  CALL   4ECC
0DE3A:  MOVLW  92
0DE3C:  MOVWF  FF6
0DE3E:  MOVLW  19
0DE40:  MOVWF  FF7
0DE42:  MOVLW  00
0DE44:  MOVWF  FF8
0DE46:  MOVLW  09
0DE48:  MOVLB  4
0DE4A:  MOVWF  x19
0DE4C:  MOVLB  0
0DE4E:  CALL   4D2C
0DE52:  MOVFF  376,419
0DE56:  MOVLW  01
0DE58:  MOVLB  4
0DE5A:  MOVWF  x1A
0DE5C:  MOVLB  0
0DE5E:  CALL   4D8A
0DE62:  MOVLW  2F
0DE64:  BTFSS  F9E.4
0DE66:  BRA    DE64
0DE68:  MOVWF  FAD
0DE6A:  MOVFF  375,419
0DE6E:  MOVLW  01
0DE70:  MOVLB  4
0DE72:  MOVWF  x1A
0DE74:  MOVLB  0
0DE76:  CALL   4D8A
0DE7A:  MOVLW  2F
0DE7C:  BTFSS  F9E.4
0DE7E:  BRA    DE7C
0DE80:  MOVWF  FAD
0DE82:  MOVLW  32
0DE84:  BTFSS  F9E.4
0DE86:  BRA    DE84
0DE88:  MOVWF  FAD
0DE8A:  MOVLW  30
0DE8C:  BTFSS  F9E.4
0DE8E:  BRA    DE8C
0DE90:  MOVWF  FAD
0DE92:  MOVFF  374,419
0DE96:  MOVLW  01
0DE98:  MOVLB  4
0DE9A:  MOVWF  x1A
0DE9C:  MOVLB  0
0DE9E:  CALL   4D8A
0DEA2:  MOVLW  AB
0DEA4:  MOVWF  FF6
0DEA6:  MOVLW  19
0DEA8:  MOVWF  FF7
0DEAA:  MOVLW  00
0DEAC:  MOVWF  FF8
0DEAE:  MOVLW  07
0DEB0:  MOVLB  4
0DEB2:  MOVWF  x19
0DEB4:  MOVLB  0
0DEB6:  CALL   4D2C
0DEBA:  MOVFF  377,419
0DEBE:  MOVLW  01
0DEC0:  MOVLB  4
0DEC2:  MOVWF  x1A
0DEC4:  MOVLB  0
0DEC6:  CALL   4D8A
0DECA:  MOVLW  3A
0DECC:  BTFSS  F9E.4
0DECE:  BRA    DECC
0DED0:  MOVWF  FAD
0DED2:  MOVFF  378,419
0DED6:  MOVLW  01
0DED8:  MOVLB  4
0DEDA:  MOVWF  x1A
0DEDC:  MOVLB  0
0DEDE:  CALL   4D8A
0DEE2:  MOVLW  3A
0DEE4:  BTFSS  F9E.4
0DEE6:  BRA    DEE4
0DEE8:  MOVWF  FAD
0DEEA:  MOVFF  379,419
0DEEE:  MOVLW  01
0DEF0:  MOVLB  4
0DEF2:  MOVWF  x1A
0DEF4:  MOVLB  0
0DEF6:  CALL   4D8A
0DEFA:  MOVLW  22
0DEFC:  BTFSS  F9E.4
0DEFE:  BRA    DEFC
0DF00:  MOVWF  FAD
....................       SendDataDisplay();  
0DF02:  CALL   40AA
0DF06:  MOVLB  3
....................     } 
.................... //_--------------------------------------------------------------------------------------------------------------------------------------------------------        
....................  
....................    } 
0DF08:  GOTO   7A74
.................... } 
0DF0C:  SLEEP 

Configuration Fuses:
   Word  1: 0200   HS NOIESO NOFCMEN
   Word  2: 1B1F   BROWNOUT WDT BORV20 NOPUT WDT8192
   Word  3: 0000   NOPBADEN NOLPT1OSC NOMCLR
   Word  4: 00B0   NOSTVREN NODEBUG NOLVP NOXINST BBSIZ4K
   Word  5: C03F   NOPROTECT NOCPD NOCPB
   Word  6: E03F   NOWRT NOWRTD NOWRTC NOWRTB
   Word  7: 403F   NOEBTR NOEBTRB
