CCS PCH C Compiler, Version 4.104, 5967               16-oct.-19 08:12

               Filename: H:\JP\JP\Laboratorio\Autoclave\Autoclave Horizontal\Con Precamara\2019\Autoclave 680L-V3.1 VM #004587960\Firmware V4.0\GLCD_Controller_EditadoVM\GLCD_Controller.lst

               ROM used: 60066 bytes (61%)
                         Largest free fragment is 32768
               RAM used: 1581 (48%) at main() level
                         1612 (48%) worst case
               Stack:    4 worst case (3 in main + 1 for interrupts)

*
00000:  GOTO   6F5C
*
00008:  GOTO   00AE
0000C:  NOP   
0000E:  NOP   
00010:  NOP   
00012:  NOP   
00014:  NOP   
00016:  NOP   
00018:  MOVWF  04
0001A:  MOVFF  FD8,05
0001E:  MOVFF  FE0,06
00022:  MOVLB  0
00024:  MOVFF  FE9,0C
00028:  MOVFF  FEA,07
0002C:  MOVFF  FE1,08
00030:  MOVFF  FE2,09
00034:  MOVFF  FD9,0A
00038:  MOVFF  FDA,0B
0003C:  MOVFF  FF3,12
00040:  MOVFF  FF4,13
00044:  MOVFF  FFA,14
00048:  MOVFF  FFB,15
0004C:  MOVFF  00,0E
00050:  MOVFF  01,0F
00054:  MOVFF  02,10
00058:  MOVFF  03,11
0005C:  BTFSS  F9D.0
0005E:  GOTO   0068
00062:  BTFSC  F9E.0
00064:  GOTO   059C
00068:  MOVFF  0E,00
0006C:  MOVFF  0F,01
00070:  MOVFF  10,02
00074:  MOVFF  11,03
00078:  MOVFF  0C,FE9
0007C:  MOVFF  07,FEA
00080:  BSF    07.7
00082:  MOVFF  08,FE1
00086:  MOVFF  09,FE2
0008A:  MOVFF  0A,FD9
0008E:  MOVFF  0B,FDA
00092:  MOVFF  12,FF3
00096:  MOVFF  13,FF4
0009A:  MOVFF  14,FFA
0009E:  MOVFF  15,FFB
000A2:  MOVF   04,W
000A4:  MOVFF  06,FE0
000A8:  MOVFF  05,FD8
000AC:  RETFIE 0
000AE:  MOVWF  17
000B0:  MOVFF  FD8,18
000B4:  MOVFF  FE0,19
000B8:  MOVLB  0
000BA:  MOVFF  FE9,1F
000BE:  MOVFF  FEA,1A
000C2:  MOVFF  FE1,1B
000C6:  MOVFF  FE2,1C
000CA:  MOVFF  FD9,1D
000CE:  MOVFF  FDA,1E
000D2:  MOVFF  FF3,25
000D6:  MOVFF  FF4,26
000DA:  MOVFF  FFA,27
000DE:  MOVFF  FFB,28
000E2:  MOVFF  00,21
000E6:  MOVFF  01,22
000EA:  MOVFF  02,23
000EE:  MOVFF  03,24
000F2:  BTFSS  F9D.5
000F4:  GOTO   00FE
000F8:  BTFSC  F9E.5
000FA:  GOTO   052E
000FE:  MOVFF  21,00
00102:  MOVFF  22,01
00106:  MOVFF  23,02
0010A:  MOVFF  24,03
0010E:  MOVFF  1F,FE9
00112:  MOVFF  1A,FEA
00116:  BSF    1A.7
00118:  MOVFF  1B,FE1
0011C:  MOVFF  1C,FE2
00120:  MOVFF  1D,FD9
00124:  MOVFF  1E,FDA
00128:  MOVFF  25,FF3
0012C:  MOVFF  26,FF4
00130:  MOVFF  27,FFA
00134:  MOVFF  28,FFB
00138:  MOVF   17,W
0013A:  MOVFF  19,FE0
0013E:  MOVFF  18,FD8
00142:  RETFIE 0
.................... //Falta crear menu de ajuste de variables y de norma CFR21 
....................  
.................... #include <18F4685.h> 
.................... //////// Standard Header file for the PIC18F4685 device //////////////// 
.................... #device PIC18F4685 
.................... #list 
....................  
.................... #device adc=10 
.................... #device HIGH_INTS=TRUE //Activamos niveles de prioridad 
.................... #fuses HS,WDT8192,NOPROTECT,NOLVP,NODEBUG,NOSTVREN,NOPUT,NOCPD,NOWRT,NOIESO,NOFCMEN,NOPBADEN,NOWRTC,NOWRTB,NOEBTR,NOEBTRB,NOCPB,NOXINST,NOLPT1OSC,NOMCLR 
.................... #use delay(clock=20000000) 
*
01F36:  MOVLW  06
01F38:  MOVWF  FEA
01F3A:  MOVLW  37
01F3C:  MOVWF  FE9
01F3E:  MOVF   FEF,W
01F40:  BZ    1F5C
01F42:  MOVLW  06
01F44:  MOVWF  01
01F46:  CLRF   00
01F48:  DECFSZ 00,F
01F4A:  BRA    1F48
01F4C:  DECFSZ 01,F
01F4E:  BRA    1F46
01F50:  MOVLW  7B
01F52:  MOVWF  00
01F54:  DECFSZ 00,F
01F56:  BRA    1F54
01F58:  DECFSZ FEF,F
01F5A:  BRA    1F42
01F5C:  RETLW  00
.................... #use i2c(Master,slow,sda=PIN_C4,scl=PIN_C3) 
.................... #use rs232(baud=9600, xmit=PIN_C6, rcv=PIN_C7, bits=8, parity=N) 
*
03EDC:  BTFSS  F9E.4
03EDE:  BRA    3EDC
03EE0:  MOVWF  FAD
03EE2:  RETLW  00
.................... #include <stdio.h> 
.................... /////////////////////////////////////////////////////////////////////////// 
.................... ////        (C) Copyright 1996,2003 Custom Computer Services           //// 
.................... //// This source code may only be used by licensed users of the CCS C  //// 
.................... //// compiler.  This source code may only be distributed to other      //// 
.................... //// licensed users of the CCS C compiler.  No other use, reproduction //// 
.................... //// or distribution is permitted without written permission.          //// 
.................... //// Derivative programs created using this software in object code    //// 
.................... //// form are not restricted in any way.                               //// 
.................... /////////////////////////////////////////////////////////////////////////// 
....................  
.................... #ifndef _STDIO 
.................... #define _STDIO 
.................... #include <string.h> 
.................... //////////////////////////////////////////////////////////////////////////// 
.................... ////        (C) Copyright 1996,2008 Custom Computer Services            //// 
.................... //// This source code may only be used by licensed users of the CCS C   //// 
.................... //// compiler.  This source code may only be distributed to other       //// 
.................... //// licensed users of the CCS C compiler.  No other use, reproduction  //// 
.................... //// or distribution is permitted without written permission.           //// 
.................... //// Derivative programs created using this software in object code     //// 
.................... //// form are not restricted in any way.                                //// 
.................... //////////////////////////////////////////////////////////////////////////// 
....................  
.................... #ifndef _STRING 
.................... #define _STRING 
.................... #include <stddef.h> 
.................... /////////////////////////////////////////////////////////////////////////// 
.................... ////        (C) Copyright 1996,2003 Custom Computer Services           //// 
.................... //// This source code may only be used by licensed users of the CCS C  //// 
.................... //// compiler.  This source code may only be distributed to other      //// 
.................... //// licensed users of the CCS C compiler.  No other use, reproduction //// 
.................... //// or distribution is permitted without written permission.          //// 
.................... //// Derivative programs created using this software in object code    //// 
.................... //// form are not restricted in any way.                               //// 
.................... /////////////////////////////////////////////////////////////////////////// 
....................  
.................... #ifndef _STDDEF 
....................  
.................... #define _STDDEF 
....................  
.................... #if sizeof(unsigned int8 *)==1 
.................... #define ptrdiff_t unsigned int8 
.................... #else 
.................... #define ptrdiff_t unsigned int16 
.................... #endif 
....................  
.................... #define size_t unsigned int8 
.................... #define wchar_t char 
.................... #define NULL 0 
....................  
.................... #define offsetof(s,f) (offsetofbit(s,f)/8) 
....................  
.................... #endif 
....................  
.................... #include <ctype.h> 
.................... //////////////////////////////////////////////////////////////////////////// 
.................... ////        (C) Copyright 1996,2003 Custom Computer Services            //// 
.................... //// This source code may only be used by licensed users of the CCS C   //// 
.................... //// compiler.  This source code may only be distributed to other       //// 
.................... //// licensed users of the CCS C compiler.  No other use, reproduction  //// 
.................... //// or distribution is permitted without written permission.           //// 
.................... //// Derivative programs created using this software in object code     //// 
.................... //// form are not restricted in any way.                                //// 
.................... //////////////////////////////////////////////////////////////////////////// 
....................  
.................... #ifndef _CTYPE 
.................... #define _CTYPE 
....................  
.................... #define islower(x)  isamong(x,"abcdefghijklmnopqrstuvwxyz") 
.................... #define isupper(x)  isamong(x,"ABCDEFGHIJKLMNOPQRSTUVWXYZ") 
.................... #define isalnum(x)  isamong(x,"0123456789ABCDEFGHIJKLMNOPQRSTUVWXYZabcdefghijklmnopqrstuvwxyz") 
.................... #define isalpha(x)  isamong(x,"ABCDEFGHIJKLMNOPQRSTUVWXYZabcdefghijklmnopqrstuvwxyz") 
.................... #define isdigit(x)  isamong(x,"0123456789") 
.................... #define isspace(x)  ((x)==' ') 
.................... #define isxdigit(x) isamong(x,"0123456789ABCDEFabcdef") 
.................... #define iscntrl(x)  ((x)<' ') 
.................... #define isprint(x)  ((x)>=' ') 
.................... #define isgraph(x)  ((x)>' ') 
.................... #define ispunct(x)  (((x)>' ')&&!isalnum(x)) 
....................  
.................... #endif 
....................  
....................  
....................  
....................  
....................  
.................... ////////////////////////////////////////////// 
.................... //// Uncomment the following define to    //// 
.................... //// allow some functions to use a        //// 
.................... //// quicker algorithm, but use more ROM  //// 
.................... ////                                      //// 
.................... //// #define FASTER_BUT_MORE_ROM          //// 
.................... ////////////////////////////////////////////// 
....................  
....................  
....................  
.................... /*Copying functions*/ 
.................... /* standard template: 
....................    void *memmove(void *s1, void *s2, size_t n). 
....................    Copies max of n characters safely (not following ending '\0') 
....................    from s2 in s1; if s2 has less than n characters, appends 0 */ 
....................  
.................... char *memmove(void *s1,char *s2,size_t n) 
.................... { 
....................    char *sc1; 
....................    char *sc2; 
....................    sc1=s1; 
....................    sc2=s2; 
....................    if(sc2<sc1 && sc1 <sc2 +n) 
....................       for(sc1+=n,sc2+=n;0<n;--n) 
....................          *--sc1=*--sc2; 
....................    else 
....................       for(;0<n;--n) 
....................          *sc1++=*sc2++; 
....................   return s1; 
....................   } 
....................  
.................... /* Standard template: char *strcpy(char *s1, const char *s2) 
....................    copies the string s2 including the null character to s1. 
....................    This is a compiler built in to handle the different address 
....................    spaces */ 
....................  
.................... #define strcopy strcpy 
....................  
.................... /* standard template: 
....................    char *strncpy(char *s1, const char *s2, size_t n). 
....................    Copies max of n characters (not following ending '\0') 
....................    from s2 in s1; if s2 has less than n characters, appends 0 */ 
....................  
.................... char *strncpy(char *s1, char *s2, size_t n) 
.................... { 
....................   char *s; 
....................  
....................   for (s = s1; n > 0 && *s2 != '\0'; n--) 
....................      *s++ = *s2++; 
....................   for (; n > 0; n--) 
....................      *s++ = '\0'; 
....................  
....................   return(s1); 
.................... } 
.................... /***********************************************************/ 
....................  
.................... /*concatenation functions*/ 
.................... /* standard template: char *strcat(char *s1, const char *s2) 
.................... appends s2 to s1*/ 
....................  
.................... char *strcat(char *s1, char *s2) 
.................... { 
....................    char *s; 
....................  
....................    for (s = s1; *s != '\0'; ++s); 
....................    while(*s2 != '\0') 
....................    { 
....................       *s = *s2; 
....................       ++s; 
....................       ++s2; 
....................    } 
....................  
....................    *s = '\0'; 
....................    return(s1); 
.................... } 
.................... /* standard template: char *strncat(char *s1, char *s2,size_t n) 
.................... appends not more than n characters from s2 to s1*/ 
....................  
.................... char *strncat(char *s1, char *s2, size_t n) 
.................... { 
....................    char *s; 
....................  
....................    for (s = s1; *s != '\0'; ++s); 
....................    while(*s2 != '\0' && 0<n) 
....................    { 
....................       *s = *s2; 
....................       ++s; 
....................       ++s2; 
....................       --n; 
....................    } 
....................  
....................    *s = '\0'; 
....................    return(s1); 
.................... } 
....................  
.................... /***********************************************************/ 
....................  
....................  
.................... /*comparison functions*/ 
.................... /* standard template: signed int memcmp(void *s1, void *s2). 
....................    Compares s1 & s2; returns -1 if s1<s2, 0 if s1=s2, 1 if s1>s2 */ 
....................  
.................... signed int8 memcmp(void * s1,char *s2,size_t n) 
.................... { 
.................... char *su1, *su2; 
.................... for(su1=s1, su2=s2; 0<n; ++su1, ++su2, --n) 
.................... { 
....................    if(*su1!=*su2) 
....................       return ((*su1<*su2)?-1:+1); 
.................... } 
.................... return 0; 
.................... } 
....................  
.................... /* standard template: int strcmp(const char *s1, const char *s2). 
....................    Compares s1 & s2; returns -1 if s1<s2, 0 if s1=s2, 1 if s1>s2 */ 
....................  
.................... signed int8 strcmp(char *s1, char *s2) 
.................... { 
....................    for (; *s1 == *s2; s1++, s2++) 
....................       if (*s1 == '\0') 
....................          return(0); 
....................    return((*s1 < *s2) ? -1: 1); 
.................... } 
.................... /* standard template: int strcoll(const char *s1, const char *s2). 
....................    Compares s1 & s2; returns -1 if s1<s2, 0 if s1=s2, 1 if s1>s2 */ 
....................  
.................... signed int8 strcoll(char *s1, char *s2) 
.................... { 
....................    for (; *s1 == *s2; s1++, s2++) 
....................       if (*s1 == '\0') 
....................          return(0); 
....................    return((*s1 < *s2) ? -1: 1); 
.................... } 
....................  
.................... /* standard template: 
....................    int strncmp(const char *s1, const char *s2, size_t n). 
....................    Compares max of n characters (not following 0) from s1 to s2; 
....................    returns same as strcmp */ 
....................  
.................... signed int8 strncmp(char *s1, char *s2, size_t n) 
.................... { 
....................    for (; n > 0; s1++, s2++, n--) 
....................       if (*s1 != *s2) 
....................          return((*s1 <*s2) ? -1: 1); 
....................       else if (*s1 == '\0') 
....................          return(0); 
....................    return(0); 
.................... } 
.................... /* standard template: 
....................    int strxfrm(const char *s1, const char *s2, size_t n). 
....................    transforms maximum of n characters from s2 and places them into s1*/ 
.................... size_t strxfrm(char *s1, char *s2, size_t n) 
.................... { 
....................   char *s; 
....................   unsigned int8 n1; 
....................   n1=n; 
....................   for (s = s1; n > 0 && *s2 != '\0'; n--) 
....................      *s++ = *s2++; 
....................   for (; n > 0; n--) 
....................      *s++ = '\0'; 
....................  
....................   return(n1); 
.................... } 
....................  
....................  
....................  
....................  
....................  
.................... /***********************************************************/ 
.................... /*Search functions*/ 
.................... /* standard template: void *memchr(const char *s, int c). 
....................    Finds first occurrence of c in n characters of s */ 
....................  
.................... char *memchr(void *s,unsigned int8 c,size_t n) 
.................... { 
....................    char uc; 
....................    char *su; 
....................    uc=c; 
....................    for(su=s;0<n;++su,--n) 
....................       if(*su==uc) 
....................       return su; 
....................    return NULL; 
.................... } 
....................  
.................... /* standard template: char *strchr(const char *s, int c). 
....................    Finds first occurrence of c in s */ 
....................  
.................... char *strchr(char *s, unsigned int8 c) 
.................... { 
....................    for (; *s != c; s++) 
....................       if (*s == '\0') 
....................          return(0); 
....................    return(s); 
.................... } 
.................... /* standard template: 
....................    size_t strcspn(const char *s1, const char *s2). 
....................    Computes length of max initial segment of s1 that 
....................    consists entirely of characters NOT from s2*/ 
....................  
.................... unsigned int8  strcspn(char *s1, char *s2) 
.................... { 
....................    char *sc1, *sc2; 
....................  
....................    for (sc1 = s1; *sc1 != 0; sc1++) 
....................       for (sc2 = s2; *sc2 != 0; sc2++) 
....................          if (*sc1 == *sc2) 
....................             return(sc1 - s1); 
....................    return(sc1 - s1); 
.................... } 
.................... /* standard template: 
....................    char *strpbrk(const char *s1, const char *s2). 
....................    Locates first occurence of any character from s2 in s1; 
....................    returns s1 if s2 is empty string */ 
....................  
.................... char *strpbrk(char *s1, char *s2) 
.................... { 
....................    char *sc1, *sc2; 
....................  
....................    for (sc1 = s1; *sc1 != 0; sc1++) 
....................       for (sc2 = s2; *sc2 != 0; sc2++) 
....................          if (*sc1 == *sc2) 
....................             return(sc1); 
....................    return(0); 
.................... } 
....................  
....................  
.................... /* standard template: char *strrchr(const char *s, int c). 
....................    Finds last occurrence of c in s */ 
....................  
.................... char *strrchr(char *s, unsigned int8 c) 
.................... { 
....................    char *p; 
....................  
....................    for (p = 0; ; s++) 
....................    { 
....................       if (*s == c) 
....................          p = s; 
....................       if (*s == '\0') 
....................          return(p); 
....................    } 
.................... } 
.................... /* computes length of max initial segment of s1 consisting 
....................    entirely of characters from s2 */ 
....................  
.................... unsigned int8  strspn(char *s1, char *s2) 
.................... { 
....................    char *sc1, *sc2; 
....................  
....................    for (sc1 = s1; *sc1 != 0; sc1++) 
....................       for (sc2 = s2; ; sc2++) 
....................     if (*sc2 == '\0') 
....................        return(sc1 - s1); 
....................          else if (*sc1 == *sc2) 
....................             break; 
....................    return(sc1 - s1); 
.................... } 
.................... /* standard template: 
....................    char *strstr(const char *s1, const char *s2); 
....................    Locates first occurence of character sequence s2 in s1; 
....................    returns 0 if s2 is empty string 
....................  
....................    Uncomment #define FASTER_BUT_MORE_ROM at the top of the 
....................    file to use the faster algorithm */ 
.................... char *strstr(char *s1, char *s2) 
.................... { 
....................    char *s, *t; 
....................  
....................    #ifdef FASTER_BUT_MORE_ROM 
....................    if (*s2 == '\0') 
....................          return(s1); 
....................    #endif 
....................  
....................    while (*s1) 
....................    { 
....................       for(s = s1, t = s2; *t && (*s == *t); ++s, ++t); 
....................  
....................       if (*t == '\0') 
....................          return s1; 
....................       ++s1; 
....................       #ifdef FASTER_BUT_MORE_ROM 
....................          while(*s1 != '\0' && *s1 != *s2) 
....................             ++s1; 
....................       #endif 
....................    } 
....................    return 0; 
.................... } 
....................  
.................... /* standard template: char *strtok(char *s1, const char *s2). 
....................  
....................    Finds next token in s1 delimited by a character from separator 
....................    string s2 (which can be different from call to call).  First call 
....................    starts at beginning of s1 searching for first character NOT 
....................    contained in s2; returns 0 if none is found. 
....................    If one is found, it is the start of first token (return value). 
....................    Function then searches from there for a character contained in s2. 
....................    If none is found, current token extends to end of s1, and subsequent 
....................    searches for a token will return 0.  If one is found, it is 
....................    overwritten by '\0', which terminates current token.  Function saves 
....................    pointer to following character from which next search will start. 
....................    Each subsequent call, with 0 as first argument, starts searching 
....................    from saved pointer */ 
....................  
.................... char *strtok(char *s1, char *s2) 
.................... { 
....................    char *beg, *end; 
....................    static char *save; 
....................  
....................    beg = (s1)? s1: save; 
....................    beg += strspn(beg, s2); 
....................    if (*beg == '\0') 
....................    { 
....................       *save = ' '; 
....................       return(0); 
....................    } 
....................    end = strpbrk(beg, s2); 
....................    if (*end != '\0') 
....................    { 
....................       *end = '\0'; 
....................       end++; 
....................    } 
....................    save = end; 
....................    return(beg); 
.................... } 
....................  
.................... /*****************************************************************/ 
.................... /*Miscellaneous functions*/ 
.................... /* standard template 
.................... maps error number in errnum to an error message string 
.................... Returns: Pointer to string 
.................... */ 
.................... #ifdef _ERRNO 
.................... char * strerror(unsigned int8 errnum) 
.................... { 
.................... char s[15]; 
.................... switch( errnum) 
.................... { 
.................... case 0: 
....................    strcpy(s,"no errors"); 
....................    return s; 
.................... case EDOM : 
....................    strcpy(s,"domain error"); 
....................    return s; 
.................... case ERANGE: 
....................    strcpy(s,"range error"); 
....................    return s; 
.................... } 
.................... } 
.................... #ENDIF 
.................... /* standard template: size_t strlen(const char *s). 
....................    Computes length of s1 (preceding terminating 0) */ 
....................  
.................... unsigned int8 strlen(char *s) 
.................... { 
....................    char *sc; 
....................  
....................    for (sc = s; *sc != 0; sc++); 
....................    return(sc - s); 
.................... } 
....................  
.................... /* standard template: size_t stricmp(const char *s1, const char *s2). 
....................    Compares s1 to s2 ignoring case (upper vs. lower) */ 
....................  
.................... signed int8 stricmp(char *s1, char *s2) 
.................... { 
....................  for(; *s1==*s2||(isalpha(*s1)&&isalpha(*s2)&&(*s1==*s2+32||*s2==*s1+32)); 
....................     s1++, s2++) 
....................     if (*s1 == '\0') 
....................        return(0); 
....................  return((*s1 < *s2) ? -1: 1); 
.................... } 
....................  
....................  
.................... /* standard template: char *strlwr(char *s). 
....................    Replaces uppercase letters by lowercase; 
....................    returns pointer to new string s */ 
....................  
.................... char *strlwr(char *s) 
.................... { 
....................    char *p; 
....................  
....................    for (p = s; *p != '\0'; p++) 
....................       if (*p >= 'A' && *p <='Z') 
....................          *p += 'a' - 'A'; 
....................    return(s); 
.................... } 
....................  
....................  
.................... /************************************************************/ 
....................  
....................  
.................... #endif 
....................  
.................... #ifndef getc 
.................... #define getc getch 
.................... #define getchar getch 
.................... #define puts(s) {printf(s); putchar(13); putchar(10);} 
.................... #define putc putchar 
.................... #endif 
.................... /* maps error number to an error message. Writes a sequence of characters to 
.................... stderr stream thus: if s is not null then string pointed to by s follwed by 
.................... a colon (:) and a space and the appropriate error message returned by strerror 
.................... function with argument errno 
....................  
.................... Returns: no value 
.................... */ 
....................  
.................... #ifdef _ERRNO 
.................... void perror(char *s) 
.................... { 
....................   if(s) 
....................   fprintf(STDERR,"%s: ",s); 
....................   fprintf(STDERR,"%s\r\n",strerror(errno)); 
.................... } 
.................... #endif 
.................... #endif 
....................  
.................... #include <string.h> 
.................... //////////////////////////////////////////////////////////////////////////// 
.................... ////        (C) Copyright 1996,2008 Custom Computer Services            //// 
.................... //// This source code may only be used by licensed users of the CCS C   //// 
.................... //// compiler.  This source code may only be distributed to other       //// 
.................... //// licensed users of the CCS C compiler.  No other use, reproduction  //// 
.................... //// or distribution is permitted without written permission.           //// 
.................... //// Derivative programs created using this software in object code     //// 
.................... //// form are not restricted in any way.                                //// 
.................... //////////////////////////////////////////////////////////////////////////// 
....................  
.................... #ifndef _STRING 
.................... #define _STRING 
.................... #include <stddef.h> 
.................... #include <ctype.h> 
....................  
....................  
....................  
.................... ////////////////////////////////////////////// 
.................... //// Uncomment the following define to    //// 
.................... //// allow some functions to use a        //// 
.................... //// quicker algorithm, but use more ROM  //// 
.................... ////                                      //// 
.................... //// #define FASTER_BUT_MORE_ROM          //// 
.................... ////////////////////////////////////////////// 
....................  
....................  
....................  
.................... /*Copying functions*/ 
.................... /* standard template: 
....................    void *memmove(void *s1, void *s2, size_t n). 
....................    Copies max of n characters safely (not following ending '\0') 
....................    from s2 in s1; if s2 has less than n characters, appends 0 */ 
....................  
.................... char *memmove(void *s1,char *s2,size_t n) 
.................... { 
....................    char *sc1; 
....................    char *sc2; 
....................    sc1=s1; 
....................    sc2=s2; 
....................    if(sc2<sc1 && sc1 <sc2 +n) 
....................       for(sc1+=n,sc2+=n;0<n;--n) 
....................          *--sc1=*--sc2; 
....................    else 
....................       for(;0<n;--n) 
....................          *sc1++=*sc2++; 
....................   return s1; 
....................   } 
....................  
.................... /* Standard template: char *strcpy(char *s1, const char *s2) 
....................    copies the string s2 including the null character to s1. 
....................    This is a compiler built in to handle the different address 
....................    spaces */ 
....................  
.................... #define strcopy strcpy 
....................  
.................... /* standard template: 
....................    char *strncpy(char *s1, const char *s2, size_t n). 
....................    Copies max of n characters (not following ending '\0') 
....................    from s2 in s1; if s2 has less than n characters, appends 0 */ 
....................  
.................... char *strncpy(char *s1, char *s2, size_t n) 
.................... { 
....................   char *s; 
....................  
....................   for (s = s1; n > 0 && *s2 != '\0'; n--) 
....................      *s++ = *s2++; 
....................   for (; n > 0; n--) 
....................      *s++ = '\0'; 
....................  
....................   return(s1); 
.................... } 
.................... /***********************************************************/ 
....................  
.................... /*concatenation functions*/ 
.................... /* standard template: char *strcat(char *s1, const char *s2) 
.................... appends s2 to s1*/ 
....................  
.................... char *strcat(char *s1, char *s2) 
.................... { 
....................    char *s; 
....................  
....................    for (s = s1; *s != '\0'; ++s); 
....................    while(*s2 != '\0') 
....................    { 
....................       *s = *s2; 
....................       ++s; 
....................       ++s2; 
....................    } 
....................  
....................    *s = '\0'; 
....................    return(s1); 
.................... } 
.................... /* standard template: char *strncat(char *s1, char *s2,size_t n) 
.................... appends not more than n characters from s2 to s1*/ 
....................  
.................... char *strncat(char *s1, char *s2, size_t n) 
.................... { 
....................    char *s; 
....................  
....................    for (s = s1; *s != '\0'; ++s); 
....................    while(*s2 != '\0' && 0<n) 
....................    { 
....................       *s = *s2; 
....................       ++s; 
....................       ++s2; 
....................       --n; 
....................    } 
....................  
....................    *s = '\0'; 
....................    return(s1); 
.................... } 
....................  
.................... /***********************************************************/ 
....................  
....................  
.................... /*comparison functions*/ 
.................... /* standard template: signed int memcmp(void *s1, void *s2). 
....................    Compares s1 & s2; returns -1 if s1<s2, 0 if s1=s2, 1 if s1>s2 */ 
....................  
.................... signed int8 memcmp(void * s1,char *s2,size_t n) 
.................... { 
.................... char *su1, *su2; 
.................... for(su1=s1, su2=s2; 0<n; ++su1, ++su2, --n) 
.................... { 
....................    if(*su1!=*su2) 
....................       return ((*su1<*su2)?-1:+1); 
.................... } 
.................... return 0; 
.................... } 
....................  
.................... /* standard template: int strcmp(const char *s1, const char *s2). 
....................    Compares s1 & s2; returns -1 if s1<s2, 0 if s1=s2, 1 if s1>s2 */ 
....................  
.................... signed int8 strcmp(char *s1, char *s2) 
.................... { 
....................    for (; *s1 == *s2; s1++, s2++) 
....................       if (*s1 == '\0') 
....................          return(0); 
....................    return((*s1 < *s2) ? -1: 1); 
.................... } 
.................... /* standard template: int strcoll(const char *s1, const char *s2). 
....................    Compares s1 & s2; returns -1 if s1<s2, 0 if s1=s2, 1 if s1>s2 */ 
....................  
.................... signed int8 strcoll(char *s1, char *s2) 
.................... { 
....................    for (; *s1 == *s2; s1++, s2++) 
....................       if (*s1 == '\0') 
....................          return(0); 
....................    return((*s1 < *s2) ? -1: 1); 
.................... } 
....................  
.................... /* standard template: 
....................    int strncmp(const char *s1, const char *s2, size_t n). 
....................    Compares max of n characters (not following 0) from s1 to s2; 
....................    returns same as strcmp */ 
....................  
.................... signed int8 strncmp(char *s1, char *s2, size_t n) 
.................... { 
....................    for (; n > 0; s1++, s2++, n--) 
....................       if (*s1 != *s2) 
....................          return((*s1 <*s2) ? -1: 1); 
....................       else if (*s1 == '\0') 
....................          return(0); 
....................    return(0); 
.................... } 
.................... /* standard template: 
....................    int strxfrm(const char *s1, const char *s2, size_t n). 
....................    transforms maximum of n characters from s2 and places them into s1*/ 
.................... size_t strxfrm(char *s1, char *s2, size_t n) 
.................... { 
....................   char *s; 
....................   unsigned int8 n1; 
....................   n1=n; 
....................   for (s = s1; n > 0 && *s2 != '\0'; n--) 
....................      *s++ = *s2++; 
....................   for (; n > 0; n--) 
....................      *s++ = '\0'; 
....................  
....................   return(n1); 
.................... } 
....................  
....................  
....................  
....................  
....................  
.................... /***********************************************************/ 
.................... /*Search functions*/ 
.................... /* standard template: void *memchr(const char *s, int c). 
....................    Finds first occurrence of c in n characters of s */ 
....................  
.................... char *memchr(void *s,unsigned int8 c,size_t n) 
.................... { 
....................    char uc; 
....................    char *su; 
....................    uc=c; 
....................    for(su=s;0<n;++su,--n) 
....................       if(*su==uc) 
....................       return su; 
....................    return NULL; 
.................... } 
....................  
.................... /* standard template: char *strchr(const char *s, int c). 
....................    Finds first occurrence of c in s */ 
....................  
.................... char *strchr(char *s, unsigned int8 c) 
.................... { 
....................    for (; *s != c; s++) 
....................       if (*s == '\0') 
....................          return(0); 
....................    return(s); 
.................... } 
.................... /* standard template: 
....................    size_t strcspn(const char *s1, const char *s2). 
....................    Computes length of max initial segment of s1 that 
....................    consists entirely of characters NOT from s2*/ 
....................  
.................... unsigned int8  strcspn(char *s1, char *s2) 
.................... { 
....................    char *sc1, *sc2; 
....................  
....................    for (sc1 = s1; *sc1 != 0; sc1++) 
....................       for (sc2 = s2; *sc2 != 0; sc2++) 
....................          if (*sc1 == *sc2) 
....................             return(sc1 - s1); 
....................    return(sc1 - s1); 
.................... } 
.................... /* standard template: 
....................    char *strpbrk(const char *s1, const char *s2). 
....................    Locates first occurence of any character from s2 in s1; 
....................    returns s1 if s2 is empty string */ 
....................  
.................... char *strpbrk(char *s1, char *s2) 
.................... { 
....................    char *sc1, *sc2; 
....................  
....................    for (sc1 = s1; *sc1 != 0; sc1++) 
....................       for (sc2 = s2; *sc2 != 0; sc2++) 
....................          if (*sc1 == *sc2) 
....................             return(sc1); 
....................    return(0); 
.................... } 
....................  
....................  
.................... /* standard template: char *strrchr(const char *s, int c). 
....................    Finds last occurrence of c in s */ 
....................  
.................... char *strrchr(char *s, unsigned int8 c) 
.................... { 
....................    char *p; 
....................  
....................    for (p = 0; ; s++) 
....................    { 
....................       if (*s == c) 
....................          p = s; 
....................       if (*s == '\0') 
....................          return(p); 
....................    } 
.................... } 
.................... /* computes length of max initial segment of s1 consisting 
....................    entirely of characters from s2 */ 
....................  
.................... unsigned int8  strspn(char *s1, char *s2) 
.................... { 
....................    char *sc1, *sc2; 
....................  
....................    for (sc1 = s1; *sc1 != 0; sc1++) 
....................       for (sc2 = s2; ; sc2++) 
....................     if (*sc2 == '\0') 
....................        return(sc1 - s1); 
....................          else if (*sc1 == *sc2) 
....................             break; 
....................    return(sc1 - s1); 
.................... } 
.................... /* standard template: 
....................    char *strstr(const char *s1, const char *s2); 
....................    Locates first occurence of character sequence s2 in s1; 
....................    returns 0 if s2 is empty string 
....................  
....................    Uncomment #define FASTER_BUT_MORE_ROM at the top of the 
....................    file to use the faster algorithm */ 
.................... char *strstr(char *s1, char *s2) 
.................... { 
....................    char *s, *t; 
....................  
....................    #ifdef FASTER_BUT_MORE_ROM 
....................    if (*s2 == '\0') 
....................          return(s1); 
....................    #endif 
....................  
....................    while (*s1) 
....................    { 
....................       for(s = s1, t = s2; *t && (*s == *t); ++s, ++t); 
....................  
....................       if (*t == '\0') 
....................          return s1; 
....................       ++s1; 
....................       #ifdef FASTER_BUT_MORE_ROM 
....................          while(*s1 != '\0' && *s1 != *s2) 
....................             ++s1; 
....................       #endif 
....................    } 
....................    return 0; 
.................... } 
....................  
.................... /* standard template: char *strtok(char *s1, const char *s2). 
....................  
....................    Finds next token in s1 delimited by a character from separator 
....................    string s2 (which can be different from call to call).  First call 
....................    starts at beginning of s1 searching for first character NOT 
....................    contained in s2; returns 0 if none is found. 
....................    If one is found, it is the start of first token (return value). 
....................    Function then searches from there for a character contained in s2. 
....................    If none is found, current token extends to end of s1, and subsequent 
....................    searches for a token will return 0.  If one is found, it is 
....................    overwritten by '\0', which terminates current token.  Function saves 
....................    pointer to following character from which next search will start. 
....................    Each subsequent call, with 0 as first argument, starts searching 
....................    from saved pointer */ 
....................  
.................... char *strtok(char *s1, char *s2) 
.................... { 
....................    char *beg, *end; 
....................    static char *save; 
....................  
....................    beg = (s1)? s1: save; 
....................    beg += strspn(beg, s2); 
....................    if (*beg == '\0') 
....................    { 
....................       *save = ' '; 
....................       return(0); 
....................    } 
....................    end = strpbrk(beg, s2); 
....................    if (*end != '\0') 
....................    { 
....................       *end = '\0'; 
....................       end++; 
....................    } 
....................    save = end; 
....................    return(beg); 
.................... } 
....................  
.................... /*****************************************************************/ 
.................... /*Miscellaneous functions*/ 
.................... /* standard template 
.................... maps error number in errnum to an error message string 
.................... Returns: Pointer to string 
.................... */ 
.................... #ifdef _ERRNO 
.................... char * strerror(unsigned int8 errnum) 
.................... { 
.................... char s[15]; 
.................... switch( errnum) 
.................... { 
.................... case 0: 
....................    strcpy(s,"no errors"); 
....................    return s; 
.................... case EDOM : 
....................    strcpy(s,"domain error"); 
....................    return s; 
.................... case ERANGE: 
....................    strcpy(s,"range error"); 
....................    return s; 
.................... } 
.................... } 
.................... #ENDIF 
.................... /* standard template: size_t strlen(const char *s). 
....................    Computes length of s1 (preceding terminating 0) */ 
....................  
.................... unsigned int8 strlen(char *s) 
.................... { 
....................    char *sc; 
....................  
....................    for (sc = s; *sc != 0; sc++); 
....................    return(sc - s); 
.................... } 
....................  
.................... /* standard template: size_t stricmp(const char *s1, const char *s2). 
....................    Compares s1 to s2 ignoring case (upper vs. lower) */ 
....................  
.................... signed int8 stricmp(char *s1, char *s2) 
.................... { 
....................  for(; *s1==*s2||(isalpha(*s1)&&isalpha(*s2)&&(*s1==*s2+32||*s2==*s1+32)); 
....................     s1++, s2++) 
....................     if (*s1 == '\0') 
....................        return(0); 
....................  return((*s1 < *s2) ? -1: 1); 
.................... } 
....................  
....................  
.................... /* standard template: char *strlwr(char *s). 
....................    Replaces uppercase letters by lowercase; 
....................    returns pointer to new string s */ 
....................  
.................... char *strlwr(char *s) 
.................... { 
....................    char *p; 
....................  
....................    for (p = s; *p != '\0'; p++) 
....................       if (*p >= 'A' && *p <='Z') 
....................          *p += 'a' - 'A'; 
....................    return(s); 
.................... } 
....................  
....................  
.................... /************************************************************/ 
....................  
....................  
.................... #endif 
....................  
.................... #include <stdlib.h> 
.................... /////////////////////////////////////////////////////////////////////////// 
.................... ////        (C) Copyright 1996,2007 Custom Computer Services           //// 
.................... //// This source code may only be used by licensed users of the CCS C  //// 
.................... //// compiler.  This source code may only be distributed to other      //// 
.................... //// licensed users of the CCS C compiler.  No other use, reproduction //// 
.................... //// or distribution is permitted without written permission.          //// 
.................... //// Derivative programs created using this software in object code    //// 
.................... //// form are not restricted in any way.                               //// 
.................... /////////////////////////////////////////////////////////////////////////// 
....................  
.................... #ifndef _STDLIB 
.................... #define _STDLIB 
....................  
.................... //--------------------------------------------------------------------------- 
.................... // Definitions and types 
.................... //--------------------------------------------------------------------------- 
....................  
.................... #ifndef RAND_MAX 
.................... #define RAND_MAX  32767    // The value of which is the maximum value 
....................                            // ... returned by the rand function 
.................... #endif 
....................  
....................  
.................... #IF (sizeof(int16*)>1) 
.................... #DEFINE LONG_POINTERS 1 
.................... #ELSE  
.................... #DEFINE LONG_POINTERS 0 
.................... #ENDIF 
....................  
.................... typedef struct { 
....................    signed int quot; 
....................    signed int rem; 
.................... } div_t; 
....................  
.................... typedef struct { 
....................    signed long quot; 
....................    signed long rem; 
.................... } ldiv_t; 
....................  
.................... #include <stddef.h> 
.................... /////////////////////////////////////////////////////////////////////////// 
.................... ////        (C) Copyright 1996,2003 Custom Computer Services           //// 
.................... //// This source code may only be used by licensed users of the CCS C  //// 
.................... //// compiler.  This source code may only be distributed to other      //// 
.................... //// licensed users of the CCS C compiler.  No other use, reproduction //// 
.................... //// or distribution is permitted without written permission.          //// 
.................... //// Derivative programs created using this software in object code    //// 
.................... //// form are not restricted in any way.                               //// 
.................... /////////////////////////////////////////////////////////////////////////// 
....................  
.................... #ifndef _STDDEF 
....................  
.................... #define _STDDEF 
....................  
.................... #if sizeof(unsigned int8 *)==1 
.................... #define ptrdiff_t unsigned int8 
.................... #else 
.................... #define ptrdiff_t unsigned int16 
.................... #endif 
....................  
.................... #define size_t unsigned int8 
.................... #define wchar_t char 
.................... #define NULL 0 
....................  
.................... #define offsetof(s,f) (offsetofbit(s,f)/8) 
....................  
.................... #endif 
....................  
....................  
.................... //--------------------------------------------------------------------------- 
.................... // String conversion functions 
.................... //--------------------------------------------------------------------------- 
....................  
.................... /* Standard template: signed int  atoi(char * s) 
....................  * converts the initial portion of the string s to a signed int 
....................  * returns the converted value if any, 0 otherwise 
....................  */ 
.................... signed int atoi(char *s); 
....................  
.................... /* Syntax: signed int32  atoi32(char * s) 
....................    converts the initial portion of the string s to a signed int32 
....................    returns the converted value if any, 0 otherwise*/ 
.................... #if (sizeof(long)==4) 
....................  #define atoi32(s) atol(s) 
.................... #else  
....................  signed int32 atoi32(char *s); 
.................... #endif 
....................  
.................... #if defined(__PCD__) 
.................... // The following functions only work on the 24 bit compiler 
.................... // for the 30F, 33F, 24F and 24H parts 
.................... /* Syntax: signed int48  atoi48(char * s) 
....................    converts the initial portion of the string s to a signed int48 
....................    returns the converted value if any, 0 otherwise*/ 
....................     
.................... signed int48 atoi48(char *s); 
....................  
.................... /* Syntax: signed int64  atoi64(char * s) 
....................    converts the initial portion of the string s to a signed int64 
....................    returns the converted value if any, 0 otherwise*/ 
.................... signed int64 atoi64(char *s); 
.................... #endif 
....................  
.................... /* Syntax: char *  itoa(signed int32 num, int8 base, char * s) 
....................    converts the signed int32 to a string and 
....................    returns the converted value if any, 0 otherwise*/ 
.................... char * itoa(signed int32 num, unsigned int base, char * s); 
....................  
.................... /* Standard template: signed int16  atol(char * s) 
....................  * converts the initial portion of the string s to a signed int16 
....................  * returns the converted value if any, 0 otherwise 
....................  */ 
.................... signed long atol(char *s); 
....................  
.................... /* Standard template: int16 strtoul(char * s,char *endptr,signed int base) 
....................  * converts the initial portion of the string s, represented as an 
....................  * integral value of radix base  to a signed long. 
....................  * Returns the converted value if any, 0 otherwise 
....................  * the final string is returned in the endptr, if endptr is not null 
....................  */ 
.................... signed long strtol(char *s,char *endptr, signed int base); 
....................  
.................... /* Standard template: int16 strtoul(char * s,char *endptr,signed int base) 
....................  * converts the initial portion of the string s, represented as an 
....................  * integral value of radix base to a unsigned long. 
....................  * returns the converted value if any, 0 otherwise 
....................  * the final string is returned in the endptr, if endptr is not null 
....................  */ 
.................... unsigned long strtoul(char *s,char *endptr, signed int base); 
....................  
.................... /* Standart template: float strtof(char * s,char *endptr) 
....................                       float48 strtof48(char *s,char *endptr); 
....................                       float64 strtod(char *s,char *endptr); 
....................  * converts the initial portion of the string s to a float32, float48 or float64, 
....................  * returns the converted value if any, 0 otherwise 
....................  * the final string is returned in the endptr, if endptr is not null                    
.................... */ 
.................... float strtof(char *s,char *endptr); 
.................... #if defined(__PCD__) 
.................... float48 strtof48(char *s,char *endptr); 
.................... float64 strtod(char *s,char *endptr); 
.................... #else 
.................... //provided for compatibility 
.................... #define strtof48(s, e) strtof(s, e) 
.................... #define strtod(s, e) strtof(s, e) 
.................... #endif 
....................  
.................... /* Standard template: float32 atof(char * s) 
....................  * converts the initial portion of the string s to a float. 
....................  * returns the converted value if any, 0 otherwise 
....................  */ 
.................... #define atof(s)   strtof(s, 0) 
....................  
.................... #if defined(__PCD__) 
.................... // The following functions only work on the 24 bit compiler 
.................... // for the 30F, 33F, 24F and 24H parts 
....................  
.................... /* Standard template: float48 atof48(char * s) 
....................  * converts the initial portion of the string s to a float. 
....................  * returns the converted value if any, 0 otherwise 
....................  */ 
.................... #define atof48(s) strtof48(s, 0) 
....................  
.................... /* Standard template: float64 atof64(char * s) 
....................  * converts the initial portion of the string s to a float. 
....................  * returns the converted value if any, 0 otherwise 
....................  */ 
.................... #define atof64(s) strtod(s, 0) 
.................... #endif 
....................  
.................... /* Standard template: float32 atoe(char * s) 
....................  * converts the initial portion of the string s to a float. 
....................  * returns the converted value if any, 0 otherwise 
....................  * also handles E format numbers 
....................  */ 
.................... #if !defined(__PCD__) 
.................... float atoe(char * s); 
.................... #endif 
....................  
.................... #if defined(__PCD__) 
.................... float32 atoe(char * s); 
.................... #endif 
....................  
.................... //--------------------------------------------------------------------------- 
.................... // Pseudo-random sequence generation functions 
.................... //--------------------------------------------------------------------------- 
....................  
.................... /* The rand function computes a sequence of pseudo-random integers in 
....................  * the range 0 to RAND_MAX 
....................  * 
....................  * Parameters: 
....................  *       (none) 
....................  * 
....................  * Returns: 
....................  *       The pseudo-random integer 
....................  */ 
.................... unsigned int16 rand(void); 
....................  
.................... /* The srand function uses the argument as a seed for a new sequence of 
....................  * pseudo-random numbers to be returned by subsequent calls to rand. 
....................  * 
....................  * Parameters: 
....................  *       [in] seed: The seed value to start from. You might need to pass 
....................  * 
....................  * Returns: 
....................  *       (none) 
....................  * 
....................  * Remarks 
....................  *          The srand function sets the starting point for generating 
....................  *       a series of pseudorandom integers. To reinitialize the 
....................  *       generator, use 1 as the seed argument. Any other value for 
....................  *       seed sets the generator to a random starting point. rand 
....................  *       retrieves the pseudorandom numbers that are generated. 
....................  *       Calling rand before any call to srand generates the same 
....................  *       sequence as calling srand with seed passed as 1. 
....................  *          Usually, you need to pass a time here from outer source 
....................  *       so that the numbers will be different every time you run. 
....................  */ 
.................... void srand(unsigned int32 seed); 
....................  
.................... //--------------------------------------------------------------------------- 
.................... // Memory management functions 
.................... //--------------------------------------------------------------------------- 
....................  
.................... // Comming soon 
....................  
.................... //--------------------------------------------------------------------------- 
.................... // Communication with the environment 
.................... //--------------------------------------------------------------------------- 
....................  
.................... /* The function returns 0 always 
....................  */ 
.................... signed int8 system(char *string); 
....................  
.................... //--------------------------------------------------------------------------- 
.................... // Searching and sorting utilities 
.................... //--------------------------------------------------------------------------- 
....................  
.................... /* Performs a binary search of a sorted array.. 
....................  * 
....................  * Parameters: 
....................  *       [in] key: Object to search for 
....................  *       [in] base: Pointer to base of search data 
....................  *       [in] num: Number of elements 
....................  *       [in] width: Width of elements 
....................  *       [in] compare: Function that compares two elements 
....................  * 
....................  * Returns: 
....................  *       bsearch returns a pointer to an occurrence of key in the array pointed 
....................  *       to by base. If key is not found, the function returns NULL. If the 
....................  *       array is not in order or contains duplicate records with identical keys, 
....................  *       the result is unpredictable. 
....................  */ 
.................... //void *bsearch(const void *key, const void *base, size_t num, size_t width, 
.................... //              int (*compare)(const void *, const void *)); 
....................  
.................... /* Performs the shell-metzner sort (not the quick sort algorithm). The contents 
....................  * of the array are sorted into ascending order according to a comparison 
....................  * function pointed to by compar. 
....................  * 
....................  * Parameters: 
....................  *       [in] base: Pointer to base of search data 
....................  *       [in] num: Number of elements 
....................  *       [in] width: Width of elements 
....................  *       [in] compare: Function that compares two elements 
....................  * 
....................  * Returns: 
....................  *       (none) 
....................  */ 
.................... //void *qsort(const void *base, size_t num, size_t width, 
.................... //              int (*compare)(const void *, const void *)); 
....................  
.................... //--------------------------------------------------------------------------- 
.................... // Integer arithmetic functions 
.................... //--------------------------------------------------------------------------- 
....................  
.................... #define labs abs 
....................  
.................... div_t div(signed int numer, signed int denom); 
.................... ldiv_t ldiv(signed long numer, signed long denom); 
....................  
.................... //--------------------------------------------------------------------------- 
.................... // Multibyte character functions 
.................... //--------------------------------------------------------------------------- 
....................  
.................... // Not supported 
....................  
.................... //--------------------------------------------------------------------------- 
.................... // Multibyte string functions 
.................... //--------------------------------------------------------------------------- 
....................  
.................... // Not supported 
....................  
....................  
.................... //--------------------------------------------------------------------------- 
.................... // Internal implementation 
.................... //--------------------------------------------------------------------------- 
....................  
.................... #include <stddef.h> 
.................... /////////////////////////////////////////////////////////////////////////// 
.................... ////        (C) Copyright 1996,2003 Custom Computer Services           //// 
.................... //// This source code may only be used by licensed users of the CCS C  //// 
.................... //// compiler.  This source code may only be distributed to other      //// 
.................... //// licensed users of the CCS C compiler.  No other use, reproduction //// 
.................... //// or distribution is permitted without written permission.          //// 
.................... //// Derivative programs created using this software in object code    //// 
.................... //// form are not restricted in any way.                               //// 
.................... /////////////////////////////////////////////////////////////////////////// 
....................  
.................... #ifndef _STDDEF 
....................  
.................... #define _STDDEF 
....................  
.................... #if sizeof(unsigned int8 *)==1 
.................... #define ptrdiff_t unsigned int8 
.................... #else 
.................... #define ptrdiff_t unsigned int16 
.................... #endif 
....................  
.................... #define size_t unsigned int8 
.................... #define wchar_t char 
.................... #define NULL 0 
....................  
.................... #define offsetof(s,f) (offsetofbit(s,f)/8) 
....................  
.................... #endif 
....................  
.................... #include <string.h> 
.................... //////////////////////////////////////////////////////////////////////////// 
.................... ////        (C) Copyright 1996,2008 Custom Computer Services            //// 
.................... //// This source code may only be used by licensed users of the CCS C   //// 
.................... //// compiler.  This source code may only be distributed to other       //// 
.................... //// licensed users of the CCS C compiler.  No other use, reproduction  //// 
.................... //// or distribution is permitted without written permission.           //// 
.................... //// Derivative programs created using this software in object code     //// 
.................... //// form are not restricted in any way.                                //// 
.................... //////////////////////////////////////////////////////////////////////////// 
....................  
.................... #ifndef _STRING 
.................... #define _STRING 
.................... #include <stddef.h> 
.................... #include <ctype.h> 
....................  
....................  
....................  
.................... ////////////////////////////////////////////// 
.................... //// Uncomment the following define to    //// 
.................... //// allow some functions to use a        //// 
.................... //// quicker algorithm, but use more ROM  //// 
.................... ////                                      //// 
.................... //// #define FASTER_BUT_MORE_ROM          //// 
.................... ////////////////////////////////////////////// 
....................  
....................  
....................  
.................... /*Copying functions*/ 
.................... /* standard template: 
....................    void *memmove(void *s1, void *s2, size_t n). 
....................    Copies max of n characters safely (not following ending '\0') 
....................    from s2 in s1; if s2 has less than n characters, appends 0 */ 
....................  
.................... char *memmove(void *s1,char *s2,size_t n) 
.................... { 
....................    char *sc1; 
....................    char *sc2; 
....................    sc1=s1; 
....................    sc2=s2; 
....................    if(sc2<sc1 && sc1 <sc2 +n) 
....................       for(sc1+=n,sc2+=n;0<n;--n) 
....................          *--sc1=*--sc2; 
....................    else 
....................       for(;0<n;--n) 
....................          *sc1++=*sc2++; 
....................   return s1; 
....................   } 
....................  
.................... /* Standard template: char *strcpy(char *s1, const char *s2) 
....................    copies the string s2 including the null character to s1. 
....................    This is a compiler built in to handle the different address 
....................    spaces */ 
....................  
.................... #define strcopy strcpy 
....................  
.................... /* standard template: 
....................    char *strncpy(char *s1, const char *s2, size_t n). 
....................    Copies max of n characters (not following ending '\0') 
....................    from s2 in s1; if s2 has less than n characters, appends 0 */ 
....................  
.................... char *strncpy(char *s1, char *s2, size_t n) 
.................... { 
....................   char *s; 
....................  
....................   for (s = s1; n > 0 && *s2 != '\0'; n--) 
....................      *s++ = *s2++; 
....................   for (; n > 0; n--) 
....................      *s++ = '\0'; 
....................  
....................   return(s1); 
.................... } 
.................... /***********************************************************/ 
....................  
.................... /*concatenation functions*/ 
.................... /* standard template: char *strcat(char *s1, const char *s2) 
.................... appends s2 to s1*/ 
....................  
.................... char *strcat(char *s1, char *s2) 
.................... { 
....................    char *s; 
....................  
....................    for (s = s1; *s != '\0'; ++s); 
....................    while(*s2 != '\0') 
....................    { 
....................       *s = *s2; 
....................       ++s; 
....................       ++s2; 
....................    } 
....................  
....................    *s = '\0'; 
....................    return(s1); 
.................... } 
.................... /* standard template: char *strncat(char *s1, char *s2,size_t n) 
.................... appends not more than n characters from s2 to s1*/ 
....................  
.................... char *strncat(char *s1, char *s2, size_t n) 
.................... { 
....................    char *s; 
....................  
....................    for (s = s1; *s != '\0'; ++s); 
....................    while(*s2 != '\0' && 0<n) 
....................    { 
....................       *s = *s2; 
....................       ++s; 
....................       ++s2; 
....................       --n; 
....................    } 
....................  
....................    *s = '\0'; 
....................    return(s1); 
.................... } 
....................  
.................... /***********************************************************/ 
....................  
....................  
.................... /*comparison functions*/ 
.................... /* standard template: signed int memcmp(void *s1, void *s2). 
....................    Compares s1 & s2; returns -1 if s1<s2, 0 if s1=s2, 1 if s1>s2 */ 
....................  
.................... signed int8 memcmp(void * s1,char *s2,size_t n) 
.................... { 
.................... char *su1, *su2; 
.................... for(su1=s1, su2=s2; 0<n; ++su1, ++su2, --n) 
.................... { 
....................    if(*su1!=*su2) 
....................       return ((*su1<*su2)?-1:+1); 
.................... } 
.................... return 0; 
.................... } 
....................  
.................... /* standard template: int strcmp(const char *s1, const char *s2). 
....................    Compares s1 & s2; returns -1 if s1<s2, 0 if s1=s2, 1 if s1>s2 */ 
....................  
.................... signed int8 strcmp(char *s1, char *s2) 
.................... { 
....................    for (; *s1 == *s2; s1++, s2++) 
....................       if (*s1 == '\0') 
....................          return(0); 
....................    return((*s1 < *s2) ? -1: 1); 
.................... } 
.................... /* standard template: int strcoll(const char *s1, const char *s2). 
....................    Compares s1 & s2; returns -1 if s1<s2, 0 if s1=s2, 1 if s1>s2 */ 
....................  
.................... signed int8 strcoll(char *s1, char *s2) 
.................... { 
....................    for (; *s1 == *s2; s1++, s2++) 
....................       if (*s1 == '\0') 
....................          return(0); 
....................    return((*s1 < *s2) ? -1: 1); 
.................... } 
....................  
.................... /* standard template: 
....................    int strncmp(const char *s1, const char *s2, size_t n). 
....................    Compares max of n characters (not following 0) from s1 to s2; 
....................    returns same as strcmp */ 
....................  
.................... signed int8 strncmp(char *s1, char *s2, size_t n) 
.................... { 
....................    for (; n > 0; s1++, s2++, n--) 
....................       if (*s1 != *s2) 
....................          return((*s1 <*s2) ? -1: 1); 
....................       else if (*s1 == '\0') 
....................          return(0); 
....................    return(0); 
.................... } 
.................... /* standard template: 
....................    int strxfrm(const char *s1, const char *s2, size_t n). 
....................    transforms maximum of n characters from s2 and places them into s1*/ 
.................... size_t strxfrm(char *s1, char *s2, size_t n) 
.................... { 
....................   char *s; 
....................   unsigned int8 n1; 
....................   n1=n; 
....................   for (s = s1; n > 0 && *s2 != '\0'; n--) 
....................      *s++ = *s2++; 
....................   for (; n > 0; n--) 
....................      *s++ = '\0'; 
....................  
....................   return(n1); 
.................... } 
....................  
....................  
....................  
....................  
....................  
.................... /***********************************************************/ 
.................... /*Search functions*/ 
.................... /* standard template: void *memchr(const char *s, int c). 
....................    Finds first occurrence of c in n characters of s */ 
....................  
.................... char *memchr(void *s,unsigned int8 c,size_t n) 
.................... { 
....................    char uc; 
....................    char *su; 
....................    uc=c; 
....................    for(su=s;0<n;++su,--n) 
....................       if(*su==uc) 
....................       return su; 
....................    return NULL; 
.................... } 
....................  
.................... /* standard template: char *strchr(const char *s, int c). 
....................    Finds first occurrence of c in s */ 
....................  
.................... char *strchr(char *s, unsigned int8 c) 
.................... { 
....................    for (; *s != c; s++) 
....................       if (*s == '\0') 
....................          return(0); 
....................    return(s); 
.................... } 
.................... /* standard template: 
....................    size_t strcspn(const char *s1, const char *s2). 
....................    Computes length of max initial segment of s1 that 
....................    consists entirely of characters NOT from s2*/ 
....................  
.................... unsigned int8  strcspn(char *s1, char *s2) 
.................... { 
....................    char *sc1, *sc2; 
....................  
....................    for (sc1 = s1; *sc1 != 0; sc1++) 
....................       for (sc2 = s2; *sc2 != 0; sc2++) 
....................          if (*sc1 == *sc2) 
....................             return(sc1 - s1); 
....................    return(sc1 - s1); 
.................... } 
.................... /* standard template: 
....................    char *strpbrk(const char *s1, const char *s2). 
....................    Locates first occurence of any character from s2 in s1; 
....................    returns s1 if s2 is empty string */ 
....................  
.................... char *strpbrk(char *s1, char *s2) 
.................... { 
....................    char *sc1, *sc2; 
....................  
....................    for (sc1 = s1; *sc1 != 0; sc1++) 
....................       for (sc2 = s2; *sc2 != 0; sc2++) 
....................          if (*sc1 == *sc2) 
....................             return(sc1); 
....................    return(0); 
.................... } 
....................  
....................  
.................... /* standard template: char *strrchr(const char *s, int c). 
....................    Finds last occurrence of c in s */ 
....................  
.................... char *strrchr(char *s, unsigned int8 c) 
.................... { 
....................    char *p; 
....................  
....................    for (p = 0; ; s++) 
....................    { 
....................       if (*s == c) 
....................          p = s; 
....................       if (*s == '\0') 
....................          return(p); 
....................    } 
.................... } 
.................... /* computes length of max initial segment of s1 consisting 
....................    entirely of characters from s2 */ 
....................  
.................... unsigned int8  strspn(char *s1, char *s2) 
.................... { 
....................    char *sc1, *sc2; 
....................  
....................    for (sc1 = s1; *sc1 != 0; sc1++) 
....................       for (sc2 = s2; ; sc2++) 
....................     if (*sc2 == '\0') 
....................        return(sc1 - s1); 
....................          else if (*sc1 == *sc2) 
....................             break; 
....................    return(sc1 - s1); 
.................... } 
.................... /* standard template: 
....................    char *strstr(const char *s1, const char *s2); 
....................    Locates first occurence of character sequence s2 in s1; 
....................    returns 0 if s2 is empty string 
....................  
....................    Uncomment #define FASTER_BUT_MORE_ROM at the top of the 
....................    file to use the faster algorithm */ 
.................... char *strstr(char *s1, char *s2) 
.................... { 
....................    char *s, *t; 
....................  
....................    #ifdef FASTER_BUT_MORE_ROM 
....................    if (*s2 == '\0') 
....................          return(s1); 
....................    #endif 
....................  
....................    while (*s1) 
....................    { 
....................       for(s = s1, t = s2; *t && (*s == *t); ++s, ++t); 
....................  
....................       if (*t == '\0') 
....................          return s1; 
....................       ++s1; 
....................       #ifdef FASTER_BUT_MORE_ROM 
....................          while(*s1 != '\0' && *s1 != *s2) 
....................             ++s1; 
....................       #endif 
....................    } 
....................    return 0; 
.................... } 
....................  
.................... /* standard template: char *strtok(char *s1, const char *s2). 
....................  
....................    Finds next token in s1 delimited by a character from separator 
....................    string s2 (which can be different from call to call).  First call 
....................    starts at beginning of s1 searching for first character NOT 
....................    contained in s2; returns 0 if none is found. 
....................    If one is found, it is the start of first token (return value). 
....................    Function then searches from there for a character contained in s2. 
....................    If none is found, current token extends to end of s1, and subsequent 
....................    searches for a token will return 0.  If one is found, it is 
....................    overwritten by '\0', which terminates current token.  Function saves 
....................    pointer to following character from which next search will start. 
....................    Each subsequent call, with 0 as first argument, starts searching 
....................    from saved pointer */ 
....................  
.................... char *strtok(char *s1, char *s2) 
.................... { 
....................    char *beg, *end; 
....................    static char *save; 
....................  
....................    beg = (s1)? s1: save; 
....................    beg += strspn(beg, s2); 
....................    if (*beg == '\0') 
....................    { 
....................       *save = ' '; 
....................       return(0); 
....................    } 
....................    end = strpbrk(beg, s2); 
....................    if (*end != '\0') 
....................    { 
....................       *end = '\0'; 
....................       end++; 
....................    } 
....................    save = end; 
....................    return(beg); 
.................... } 
....................  
.................... /*****************************************************************/ 
.................... /*Miscellaneous functions*/ 
.................... /* standard template 
.................... maps error number in errnum to an error message string 
.................... Returns: Pointer to string 
.................... */ 
.................... #ifdef _ERRNO 
.................... char * strerror(unsigned int8 errnum) 
.................... { 
.................... char s[15]; 
.................... switch( errnum) 
.................... { 
.................... case 0: 
....................    strcpy(s,"no errors"); 
....................    return s; 
.................... case EDOM : 
....................    strcpy(s,"domain error"); 
....................    return s; 
.................... case ERANGE: 
....................    strcpy(s,"range error"); 
....................    return s; 
.................... } 
.................... } 
.................... #ENDIF 
.................... /* standard template: size_t strlen(const char *s). 
....................    Computes length of s1 (preceding terminating 0) */ 
....................  
.................... unsigned int8 strlen(char *s) 
.................... { 
....................    char *sc; 
....................  
....................    for (sc = s; *sc != 0; sc++); 
....................    return(sc - s); 
.................... } 
....................  
.................... /* standard template: size_t stricmp(const char *s1, const char *s2). 
....................    Compares s1 to s2 ignoring case (upper vs. lower) */ 
....................  
.................... signed int8 stricmp(char *s1, char *s2) 
.................... { 
....................  for(; *s1==*s2||(isalpha(*s1)&&isalpha(*s2)&&(*s1==*s2+32||*s2==*s1+32)); 
....................     s1++, s2++) 
....................     if (*s1 == '\0') 
....................        return(0); 
....................  return((*s1 < *s2) ? -1: 1); 
.................... } 
....................  
....................  
.................... /* standard template: char *strlwr(char *s). 
....................    Replaces uppercase letters by lowercase; 
....................    returns pointer to new string s */ 
....................  
.................... char *strlwr(char *s) 
.................... { 
....................    char *p; 
....................  
....................    for (p = s; *p != '\0'; p++) 
....................       if (*p >= 'A' && *p <='Z') 
....................          *p += 'a' - 'A'; 
....................    return(s); 
.................... } 
....................  
....................  
.................... /************************************************************/ 
....................  
....................  
.................... #endif 
....................  
....................  
.................... div_t div(signed int numer, signed int denom) 
.................... { 
....................    div_t val; 
....................    val.quot = numer / denom; 
....................    val.rem = numer - (denom * val.quot); 
....................    return (val); 
.................... } 
....................  
.................... ldiv_t ldiv(signed long numer, signed long denom) 
.................... { 
....................    ldiv_t val; 
....................  
....................    val.quot = numer / denom; 
....................    val.rem = numer - (denom * val.quot); 
....................    return (val); 
.................... } 
....................  
.................... #if defined(__PCD__) 
.................... float32 atoe(char * s) 
.................... { 
....................    float32 pow10 = 1.0; 
....................    float32 result = 0.0; 
....................    unsigned int8 sign = 0; 
....................    unsigned int8 expsign = 0; 
....................    char c; 
....................    unsigned int8 ptr = 0; 
....................    unsigned int8 i; 
....................    float32 exp = 1.0; 
....................    unsigned int8 expcnt = 0; 
....................  
....................    c = s[ptr++]; 
....................  
....................    if ((c>='0' && c<='9') || c=='+' || c=='-' || c=='.' || c=='E' || c=='e') { 
....................       if(c == '-') { 
....................          sign = 1; 
....................          c = s[ptr++]; 
....................       } 
....................       if(c == '+') 
....................          c = s[ptr++]; 
....................  
....................       while((c >= '0' && c <= '9')) { 
....................          result = 10*result + c - '0'; 
....................          c = s[ptr++]; 
....................       } 
....................  
....................       if (c == '.') { 
....................          c = s[ptr++]; 
....................          while((c >= '0' && c <= '9')) { 
....................              pow10 = pow10*10; 
....................              result += (c - '0')/pow10; 
....................              c = s[ptr++]; 
....................          } 
....................       } 
....................  
....................       // Handling the exponent 
....................       if (c=='e' || c=='E') { 
....................          c = s[ptr++]; 
....................  
....................          if(c == '-') { 
....................             expsign = 1; 
....................             c = s[ptr++]; 
....................          } 
....................          if(c == '+') 
....................             c = s[ptr++]; 
....................  
....................          while((c >= '0' && c <= '9')) { 
....................             expcnt = 10*expcnt + c - '0'; 
....................             c = s[ptr++]; 
....................          } 
....................  
....................          for(i=0;i<expcnt;i++) 
....................             exp*=10; 
....................  
....................          if(expsign==1) 
....................             result/=exp; 
....................          else 
....................             result*=exp; 
....................       } 
....................    } 
....................  
....................    if (sign == 1) 
....................       result = -1*result; 
....................    return(result); 
.................... } 
.................... #endif 
....................  
.................... #if !defined(__PCD__) 
.................... float atoe(char * s) 
.................... { 
....................    float pow10 = 1.0; 
....................    float result = 0.0; 
....................    unsigned int8 sign = 0; 
....................    unsigned int8 expsign = 0; 
....................    char c; 
....................    unsigned int8 ptr = 0; 
....................    unsigned int8 i; 
....................    float exp = 1.0; 
....................    unsigned int8 expcnt = 0; 
....................  
....................    c = s[ptr++]; 
....................  
....................    if ((c>='0' && c<='9') || c=='+' || c=='-' || c=='.' || c=='E' || c=='e') { 
....................       if(c == '-') { 
....................          sign = 1; 
....................          c = s[ptr++]; 
....................       } 
....................       if(c == '+') 
....................          c = s[ptr++]; 
....................  
....................       while((c >= '0' && c <= '9')) { 
....................          result = 10*result + c - '0'; 
....................          c = s[ptr++]; 
....................       } 
....................  
....................       if (c == '.') { 
....................          c = s[ptr++]; 
....................          while((c >= '0' && c <= '9')) { 
....................              pow10 = pow10*10; 
....................              result += (c - '0')/pow10; 
....................              c = s[ptr++]; 
....................          } 
....................       } 
....................  
....................       // Handling the exponent 
....................       if (c=='e' || c=='E') { 
....................          c = s[ptr++]; 
....................  
....................          if(c == '-') { 
....................             expsign = 1; 
....................             c = s[ptr++]; 
....................          } 
....................          if(c == '+') 
....................             c = s[ptr++]; 
....................  
....................          while((c >= '0' && c <= '9')) { 
....................             expcnt = 10*expcnt + c - '0'; 
....................             c = s[ptr++]; 
....................          } 
....................  
....................          for(i=0;i<expcnt;i++) 
....................             exp*=10; 
....................  
....................          if(expsign==1) 
....................             result/=exp; 
....................          else 
....................             result*=exp; 
....................       } 
....................    } 
....................  
....................    if (sign == 1) 
....................       result = -1*result; 
....................    return(result); 
.................... } 
.................... #endif 
....................  
.................... signed int atoi(char *s) 
.................... { 
....................    signed int result; 
....................    unsigned int sign, base, index; 
....................    char c; 
....................  
....................    index = 0; 
....................    sign = 0; 
....................    base = 10; 
....................    result = 0; 
....................  
....................    if (!s) 
....................       return 0; 
....................    // Omit all preceeding alpha characters 
....................    c = s[index++]; 
....................  
....................    // increase index if either positive or negative sign is detected 
....................    if (c == '-') 
....................    { 
....................       sign = 1;         // Set the sign to negative 
....................       c = s[index++]; 
....................    } 
....................    else if (c == '+') 
....................    { 
....................       c = s[index++]; 
....................    } 
....................  
....................    if (c >= '0' && c <= '9') 
....................    { 
....................  
....................       // Check for hexa number 
....................       if (c == '0' && (s[index] == 'x' || s[index] == 'X')) 
....................       { 
....................          base = 16; 
....................          index++; 
....................          c = s[index++]; 
....................       } 
....................  
....................       // The number is a decimal number 
....................       if (base == 10) 
....................       { 
....................          while (c >= '0' && c <= '9') 
....................          { 
....................             result = 10*result + (c - '0'); 
....................             c = s[index++]; 
....................          } 
....................       } 
....................       else if (base == 16)    // The number is a hexa number 
....................       { 
....................          c = toupper(c); 
....................          while ( (c >= '0' && c <= '9') || (c >= 'A' && c<='F')) 
....................          { 
....................             if (c >= '0' && c <= '9') 
....................                result = (result << 4) + (c - '0'); 
....................             else 
....................                result = (result << 4) + (c - 'A' + 10); 
....................  
....................             c = s[index++]; 
....................             c = toupper(c); 
....................          } 
....................       } 
....................    } 
....................  
....................    if (sign == 1 && base == 10) 
....................        result = -result; 
....................  
....................    return(result); 
.................... } 
....................  
.................... signed long atol(char *s) 
.................... { 
....................    signed long result; 
....................    unsigned int sign, base, index; 
....................    char c; 
....................  
....................    index = 0; 
....................    sign = 0; 
....................    base = 10; 
....................    result = 0; 
....................  
....................    if (!s) 
....................       return 0; 
....................    c = s[index++]; 
....................  
....................    // increase index if either positive or negative sign is detected 
....................    if (c == '-') 
....................    { 
....................       sign = 1;         // Set the sign to negative 
....................       c = s[index++]; 
....................    } 
....................    else if (c == '+') 
....................    { 
....................       c = s[index++]; 
....................    } 
....................  
....................    if (c >= '0' && c <= '9') 
....................    { 
....................       if (c == '0' && (s[index] == 'x' || s[index] == 'X')) 
....................       { 
....................          base = 16; 
....................          index++; 
....................          c = s[index++]; 
....................       } 
....................  
....................       // The number is a decimal number 
....................       if (base == 10) 
....................       { 
....................          while (c >= '0' && c <= '9') 
....................          { 
....................             result = 10*result + (c - '0'); 
....................             c = s[index++]; 
....................          } 
....................       } 
....................       else if (base == 16)    // The number is a hexa number 
....................       { 
....................          c = toupper(c); 
....................          while ( (c >= '0' && c <= '9') || (c >= 'A' && c <='F')) 
....................          { 
....................             if (c >= '0' && c <= '9') 
....................                result = (result << 4) + (c - '0'); 
....................             else 
....................                result = (result << 4) + (c - 'A' + 10); 
....................  
....................             c = s[index++];c = toupper(c); 
....................          } 
....................       } 
....................    } 
....................  
....................    if (base == 10 && sign == 1) 
....................       result = -result; 
....................  
....................    return(result); 
.................... } 
....................  
.................... /* A fast routine to multiply by 10 
....................  */ 
.................... signed int32 mult_with10(int32 num) 
.................... { 
....................    return ( (num << 1) + (num << 3) ); 
.................... } 
....................  
.................... #if sizeof(long)==2 
.................... signed int32 atoi32(char *s) 
.................... { 
....................    signed int32 result; 
....................    int8 sign, base, index; 
....................    char c; 
....................  
....................    index = 0; 
....................    sign = 0; 
....................    base = 10; 
....................    result = 0; 
....................  
....................    if (!s) 
....................       return 0; 
....................    c = s[index++]; 
....................  
....................    // increase index if either positive or negative sign is detected 
....................    if (c == '-') 
....................    { 
....................       sign = 1;         // Set the sign to negative 
....................       c = s[index++]; 
....................    } 
....................    else if (c == '+') 
....................    { 
....................       c = s[index++]; 
....................    } 
....................  
....................    if (c >= '0' && c <= '9') 
....................    { 
....................       if (c == '0' && (s[index] == 'x' || s[index] == 'X')) 
....................       { 
....................          base = 16; 
....................          index++; 
....................          c = s[index++]; 
....................       } 
....................  
....................       // The number is a decimal number 
....................       if (base == 10) 
....................       { 
....................          while (c >= '0' && c <= '9') { 
....................             result = (result << 1) + (result << 3);  // result *= 10; 
....................             result += (c - '0'); 
....................             c = s[index++]; 
....................          } 
....................       } 
....................       else if (base == 16)    // The number is a hexa number 
....................       { 
....................          c = toupper(c); 
....................          while ((c >= '0' && c <= '9') || (c >= 'A' && c <='F')) 
....................          { 
....................             if (c >= '0' && c <= '9') 
....................                result = (result << 4) + (c - '0'); 
....................             else 
....................                result = (result << 4) + (c - 'A' + 10); 
....................  
....................             c = s[index++];c = toupper(c); 
....................          } 
....................       } 
....................    } 
....................  
....................    if (base == 10 && sign == 1) 
....................       result = -result; 
....................  
....................    return(result); 
.................... } 
.................... #endif 
....................  
.................... #if defined(__PCD__) 
....................  
.................... signed int48 atoi48(char *s) 
.................... { 
....................    signed int48 result; 
....................    int8 sign, base, index; 
....................    char c; 
....................  
....................    index = 0; 
....................    sign = 0; 
....................    base = 10; 
....................    result = 0; 
....................  
....................    if (!s) 
....................       return 0; 
....................    c = s[index++]; 
....................  
....................    // increase index if either positive or negative sign is detected 
....................    if (c == '-') 
....................    { 
....................       sign = 1;         // Set the sign to negative 
....................       c = s[index++]; 
....................    } 
....................    else if (c == '+') 
....................    { 
....................       c = s[index++]; 
....................    } 
....................  
....................    if (c >= '0' && c <= '9') 
....................    { 
....................       if (c == '0' && (s[index] == 'x' || s[index] == 'X')) 
....................       { 
....................          base = 16; 
....................          index++; 
....................          c = s[index++]; 
....................       } 
....................  
....................       // The number is a decimal number 
....................       if (base == 10) 
....................       { 
....................          while (c >= '0' && c <= '9') { 
....................             result = (result << 1) + (result << 3);  // result *= 10; 
....................             result += (c - '0'); 
....................             c = s[index++]; 
....................          } 
....................       } 
....................       else if (base == 16)    // The number is a hexa number 
....................       { 
....................          c = toupper(c); 
....................          while ((c >= '0' && c <= '9') || (c >= 'A' && c <='F')) 
....................          { 
....................             if (c >= '0' && c <= '9') 
....................                result = (result << 4) + (c - '0'); 
....................             else 
....................                result = (result << 4) + (c - 'A' + 10); 
....................  
....................             c = s[index++];c = toupper(c); 
....................          } 
....................       } 
....................    } 
....................  
....................    if (base == 10 && sign == 1) 
....................       result = -result; 
....................  
....................    return(result); 
.................... } 
....................  
.................... signed int64 atoi64(char *s) 
.................... { 
....................    signed int64 result; 
....................    int8 sign, base, index; 
....................    char c; 
....................  
....................    index = 0; 
....................    sign = 0; 
....................    base = 10; 
....................    result = 0; 
....................  
....................    if (!s) 
....................       return 0; 
....................    c = s[index++]; 
....................  
....................    // increase index if either positive or negative sign is detected 
....................    if (c == '-') 
....................    { 
....................       sign = 1;         // Set the sign to negative 
....................       c = s[index++]; 
....................    } 
....................    else if (c == '+') 
....................    { 
....................       c = s[index++]; 
....................    } 
....................  
....................    if (c >= '0' && c <= '9') 
....................    { 
....................       if (c == '0' && (s[index] == 'x' || s[index] == 'X')) 
....................       { 
....................          base = 16; 
....................          index++; 
....................          c = s[index++]; 
....................       } 
....................  
....................       // The number is a decimal number 
....................       if (base == 10) 
....................       { 
....................          while (c >= '0' && c <= '9') { 
....................             result = (result << 1) + (result << 3);  // result *= 10; 
....................             result += (c - '0'); 
....................             c = s[index++]; 
....................          } 
....................       } 
....................       else if (base == 16)    // The number is a hexa number 
....................       { 
....................          c = toupper(c); 
....................          while ((c >= '0' && c <= '9') || (c >= 'A' && c <='F')) 
....................          { 
....................             if (c >= '0' && c <= '9') 
....................                result = (result << 4) + (c - '0'); 
....................             else 
....................                result = (result << 4) + (c - 'A' + 10); 
....................  
....................             c = s[index++];c = toupper(c); 
....................          } 
....................       } 
....................    } 
....................  
....................    if (base == 10 && sign == 1) 
....................       result = -result; 
....................  
....................    return(result); 
.................... } 
.................... #endif 
....................  
.................... char * itoa(signed int32 num, unsigned int base, char * s) 
.................... { 
....................      unsigned int32 temp=1; 
....................      unsigned int8 i,sign=0,cnt=0; 
....................      char c; 
....................  
....................      if(num<0) { 
....................          sign=1;        // Check for negative number 
....................          num*=-1; 
....................      } 
....................  
....................      while(temp>0) { 
....................          temp=(num/base); 
....................          s[cnt]=(num%base)+'0';    // Conversion 
....................  
....................          if(s[cnt]>0x39) 
....................             s[cnt]+=0x7; 
....................  
....................          cnt++; 
....................          num=temp; 
....................      } 
....................  
....................      if(sign==1) { 
....................          s[cnt]=0x2D;      // Negative sign 
....................          cnt++; 
....................      } 
....................  
....................      for(i = 0;i<(int8)(cnt/2);i++) { 
....................  
....................          c=s[i]; 
....................          s[i]=s[cnt-i-1];        // Reverse the number 
....................          s[cnt-i-1]=c; 
....................      } 
....................      s[cnt]='\0';     // End the string 
....................      return s; 
.................... } 
....................  
.................... float strtof(char *s, char *endptr) 
.................... { 
....................    float pow10 = 1.0; 
....................    float result = 0.0; 
....................    int1 skip = 1, sign = 0, point = 0; 
....................    char c; 
....................    unsigned int8 ptr = 0; 
....................  
....................    if (!s) 
....................       return 0; 
....................  
....................    for(c=s[ptr++]; c!=0; c=s[ptr++]) 
....................    { 
....................       if (skip && !isspace(c)) 
....................       { 
....................          skip = 0; 
....................          if (c == '+') 
....................          { 
....................             sign = 0; 
....................             continue; 
....................          }             
....................          else if (c == '-') 
....................          { 
....................             sign = 1; 
....................             continue; 
....................          } 
....................       } 
....................       if (!skip && (c == '.') && !point) 
....................          point = 1; 
....................       else if (!skip && isdigit(c)) 
....................       { 
....................          c -= '0'; 
....................          if (point) 
....................          { 
....................             pow10 = pow10 * 10.0; 
....................             result += (float)c / pow10;    
....................          } 
....................          else 
....................          { 
....................             result = 10.0 * result + (float)c; 
....................          } 
....................       } 
....................       else if (!skip) 
....................          break; 
....................    } 
....................  
....................    if (sign) 
....................       result = -1*result; 
....................        
....................    if(endptr) 
....................    { 
....................       if (ptr) { 
....................          ptr--; 
....................        #IF LONG_POINTERS  
....................          *((long *)endptr)= s+ptr;  
....................        #ELSE 
....................          *((char *)endptr)=s+ptr; 
....................        #ENDIF 
....................       } 
....................       else 
....................       { 
....................       #IF LONG_POINTERS 
....................       *((long *)endptr)= s;  
....................       #ELSE 
....................       *((char *)endptr)=s; 
....................       #ENDIF 
....................       } 
....................    } 
....................  
....................    return(result); 
.................... } 
....................  
.................... #if defined(__PCD__) 
.................... float48 strtof48(char *s, char *endptr) 
.................... { 
....................    float48 pow10 = 1.0; 
....................    float48 result = 0.0; 
....................    int1 skip = 1, sign = 0, point = 0; 
....................    char c; 
....................    unsigned int8 ptr = 0; 
....................  
....................    if (!s) 
....................       return 0; 
....................  
....................    for(c=s[ptr++]; c!=0; c=s[ptr++]) 
....................    { 
....................       if (skip && !isspace(c)) 
....................       { 
....................          skip = 0; 
....................          if (c == '+') 
....................          { 
....................             sign = 0; 
....................             continue; 
....................          }             
....................          else if (c == '-') 
....................          { 
....................             sign = 1; 
....................             continue; 
....................          } 
....................       } 
....................       if (!skip && (c == '.') && !point) 
....................          point = 1; 
....................       else if (!skip && isdigit(c)) 
....................       { 
....................          c -= '0'; 
....................          if (point) 
....................          { 
....................             pow10 = pow10 * 10.0; 
....................             result += (float48)c / pow10;    
....................          } 
....................          else 
....................          { 
....................             result = 10.0 * result + (float48)c; 
....................          } 
....................       } 
....................       else if (!skip) 
....................          break; 
....................    } 
....................  
....................    if (sign) 
....................       result = -1*result; 
....................        
....................    if(endptr) 
....................    { 
....................       if (ptr) { 
....................          ptr--; 
....................        #IF LONG_POINTERS  
....................          *((long *)endptr)= s+ptr;  
....................        #ELSE 
....................          *((char *)endptr)=s+ptr; 
....................        #ENDIF 
....................       } 
....................       else 
....................       { 
....................       #IF LONG_POINTERS 
....................       *((long *)endptr)= s;  
....................       #ELSE 
....................       *((char *)endptr)=s; 
....................       #ENDIF 
....................       } 
....................    } 
....................  
....................    return(result); 
.................... } 
....................  
.................... float64 strtod(char *s, char *endptr) 
.................... { 
....................    float64 pow10 = 1.0; 
....................    float64 result = 0.0; 
....................    int1 skip = 1, sign = 0, point = 0; 
....................    char c; 
....................    unsigned int8 ptr = 0; 
....................  
....................    if (!s) 
....................       return 0; 
....................  
....................    for(c=s[ptr++]; c!=0; c=s[ptr++]) 
....................    { 
....................       if (skip && !isspace(c)) 
....................       { 
....................          skip = 0; 
....................          if (c == '+') 
....................          { 
....................             sign = 0; 
....................             continue; 
....................          }             
....................          else if (c == '-') 
....................          { 
....................             sign = 1; 
....................             continue; 
....................          } 
....................       } 
....................       if (!skip && (c == '.') && !point) 
....................          point = 1; 
....................       else if (!skip && isdigit(c)) 
....................       { 
....................          c -= '0'; 
....................          if (point) 
....................          { 
....................             pow10 = pow10 * 10.0; 
....................             result += (float64)c / pow10;    
....................          } 
....................          else 
....................          { 
....................             result = 10.0 * result + (float64)c; 
....................          } 
....................       } 
....................       else if (!skip) 
....................          break; 
....................    } 
....................  
....................    if (sign) 
....................       result = -1*result; 
....................        
....................    if(endptr) 
....................    { 
....................       if (ptr) { 
....................          ptr--; 
....................        #IF LONG_POINTERS  
....................          *((long *)endptr)= s+ptr;  
....................        #ELSE 
....................          *((char *)endptr)=s+ptr; 
....................        #ENDIF 
....................       } 
....................       else 
....................       { 
....................       #IF LONG_POINTERS 
....................       *((long *)endptr)= s;  
....................       #ELSE 
....................       *((char *)endptr)=s; 
....................       #ENDIF 
....................       } 
....................    } 
....................  
....................    return(result); 
.................... } 
.................... #endif 
....................  
.................... unsigned long strtoul(char *s, char *endptr, signed int base) 
.................... { 
....................    char *sc,*s1,*sd; 
....................    unsigned long x=0; 
....................    char sign; 
....................    char digits[]="0123456789abcdefghijklmnopqstuvwxyz"; 
....................    for(sc=s;isspace(*sc);++sc); 
....................    sign=*sc=='-'||*sc=='+'?*sc++:'+'; 
....................    if(sign=='-' || base <0 || base ==1|| base >36) // invalid base 
....................    goto StrtoulGO; 
....................  
....................    else if (base) 
....................    { 
....................       if(base==16 && *sc =='0'&&(sc[1]=='x' || sc[1]=='X')) 
....................          sc+=2; 
....................       if(base==8 && *sc =='0') 
....................          sc+=1; 
....................       if(base==2 && *sc =='0'&&sc[1]=='b') 
....................          sc+=2; 
....................  
....................    } 
....................    else if(*sc!='0') // base is 0, find base 
....................       base=10; 
....................    else if (sc[1]=='x' || sc[1]=='X') 
....................       base =16,sc+=2; 
....................    else if(sc[1]=='b') 
....................       base=2,sc+=2; 
....................    else 
....................       base=8; 
....................    for (s1=sc;*sc=='0';++sc);// skip leading zeroes 
....................    sd=memchr(digits,tolower(*sc),base); 
....................    for(; sd!=0; ) 
....................    { 
....................       x=x*base+(int16)(sd-digits); 
....................       ++sc; 
....................       sd=memchr(digits,tolower(*sc),base); 
....................    } 
....................    if(s1==sc) 
....................    { 
....................    StrtoulGO: 
....................       if (endptr) 
....................       { 
....................          #IF LONG_POINTERS 
....................          *((long *)endptr)= s;  
....................          #ELSE 
....................          *((char *)endptr)=s; 
....................          #ENDIF 
....................          } 
....................    return 0; 
....................    } 
....................    if (endptr) 
....................    { 
....................          #IF LONG_POINTERS 
....................          *((long *)endptr)= sc;  
....................          #ELSE 
....................          *((char *)endptr)=sc;  
....................          #ENDIF 
....................    } 
....................    return x; 
.................... } 
....................  
....................  
.................... signed long strtol(char *s,char *endptr, signed int base) 
.................... { 
....................    char *sc,*s1,*sd; 
....................    signed long x=0; 
....................    char sign; 
....................    char digits[]="0123456789abcdefghijklmnopqstuvwxyz"; 
....................    for(sc=s;isspace(*sc);++sc); 
....................    sign=*sc=='-'||*sc=='+'?*sc++:'+'; 
....................    if (base <0 || base ==1|| base >36) // invalid base 
....................    goto StrtolGO; 
....................    else if (base) 
....................    { 
....................       if(base==16 && *sc =='0'&&(sc[1]=='x' || sc[1]=='X')) 
....................          sc+=2; 
....................       if(base==8 && *sc =='0') 
....................          sc+=1; 
....................       if(base==2 && *sc =='0'&&sc[1]=='b') 
....................          sc+=2; 
....................  
....................    } 
....................    else if(*sc!='0') // base is 0, find base 
....................       base=10; 
....................    else if (sc[1]=='x' || sc[1]=='X') 
....................       base =16,sc+=2; 
....................    else if(sc[1]=='b') 
....................       base=2,sc+=2; 
....................    else 
....................       base=8; 
....................    for (s1=sc;*sc=='0';++sc);// skip leading zeroes 
....................  
....................    sd=memchr(digits,tolower(*sc),base); 
....................    for(;sd!=0;) 
....................    { 
....................       x=x*base+(int16)(sd-digits); 
....................       ++sc; 
....................       sd=memchr(digits,tolower(*sc),base); 
....................    } 
....................    if(s1==sc) 
....................    { 
....................    StrtolGO: 
....................       if (endptr) 
....................       { 
....................          #IF LONG_POINTERS 
....................          *((long *)endptr)= s;  
....................          #ELSE 
....................          *((char *)endptr)=s; 
....................          #ENDIF 
....................       } 
....................    return 0; 
....................    } 
....................    if(sign=='-') 
....................       x  =-x; 
....................    if (endptr) 
....................    { 
....................         #IF LONG_POINTERS 
....................          *((long *)endptr)= sc;  
....................         #ELSE 
....................         *((char *)endptr)=sc; 
....................         #ENDIF 
....................    } 
....................    return x; 
.................... } 
....................  
.................... signed int8 system(char *string) 
.................... { 
....................    return 0; 
.................... } 
....................  
.................... int8 mblen(char *s,size_t n) 
.................... { 
....................    return strlen(s); 
.................... } 
....................  
.................... int8 mbtowc(wchar_t *pwc,char *s,size_t n) 
.................... { 
....................    *pwc=*s; 
....................    return 1; 
.................... } 
....................  
.................... int8 wctomb(char *s,wchar_t wchar) 
.................... { 
....................    *s=wchar; 
....................    return 1; 
.................... } 
....................  
.................... size_t mbstowcs(wchar_t *pwcs,char *s,size_t n) 
.................... { 
....................    strncpy(pwcs,s,n); 
....................    return strlen(pwcs); 
.................... } 
....................  
.................... size_t wcstombs(char *s,wchar_t *pwcs,size_t n) 
.................... { 
....................    strncpy(s,pwcs,n); 
....................    return strlen(s); 
.................... } 
....................  
.................... //--------------------------------------------------------------------------- 
.................... // The random number implementation 
.................... //--------------------------------------------------------------------------- 
....................  
.................... unsigned int32 _Randseed; 
....................  
.................... unsigned int16 rand(void) 
.................... { 
....................    _Randseed = _Randseed * 1103515245 + 12345; 
....................    return ((unsigned int16)(_Randseed >> 16) % RAND_MAX); 
.................... } 
....................  
.................... void srand(unsigned int32 seed) 
.................... { 
....................    _Randseed = seed; 
.................... } 
....................  
.................... //--------------------------------------------------------------------------- 
.................... // Searching and sorting utilities implementation 
.................... //--------------------------------------------------------------------------- 
....................  
.................... #if !defined(__PCD__) 
.................... typedef signed int8 (*_Cmpfun)(char * p1,char * p2);  
.................... #else  
.................... typedef signed int16 (*_Cmpfun)(char * p1,char * p2);  
.................... #endif 
....................  
....................  
....................  
.................... void qsort(char * qdata, unsigned int qitems, unsigned int qsize, _Cmpfun cmp) { 
....................    unsigned int m,j,i,l; 
....................    int1 done; 
....................    unsigned int8 t[16]; 
....................  
....................    m = qitems/2; 
....................    while( m > 0 ) { 
....................      for(j=0; j<(qitems-m); ++j) { 
....................         i = j; 
....................         do 
....................         { 
....................            done=1; 
....................            l = i+m; 
....................            if( (*cmp)(qdata+i*qsize, qdata+l*qsize) > 0 ) { 
....................               memcpy(t, qdata+i*qsize, qsize); 
....................               memcpy(qdata+i*qsize, qdata+l*qsize, qsize); 
....................               memcpy(qdata+l*qsize, t, qsize); 
....................               if(m <= i) 
....................                 i -= m; 
....................                 done = 0; 
....................            } 
....................         } while(!done); 
....................      } 
....................      m = m/2; 
....................    } 
.................... } 
....................  
....................  
.................... char *bsearch(char *key, char *base, size_t num, size_t width,_Cmpfun cmp) 
.................... { 
....................    char *p, *q; 
....................    size_t n; 
....................    size_t pivot; 
....................    signed int val; 
....................  
....................    p = base; 
....................    n = num; 
....................  
....................    while (n > 0) 
....................    { 
....................       pivot = n >> 1; 
....................       q = p + width * pivot; 
....................  
....................       val = (*cmp)(key, q); 
....................  
....................       if (val < 0) 
....................          n = pivot; 
....................       else if (val == 0) 
....................          return ((char *)q); 
....................       else { 
....................          p = q + width; 
....................          n -= pivot + 1; 
....................       } 
....................    } 
....................  
....................    return NULL;      // There's no match 
.................... } 
....................  
....................  
.................... #endif 
....................  
.................... #include <DS1302.c> 
.................... ////////////////////////////////////////////////////////////////////////// 
.................... ////                               DS1302.C                           //// 
.................... ////                     Driver for Real Time Clock                   //// 
.................... ////                                                                  //// 
.................... ////  rtc_init()                                   Call after power up//// 
.................... ////                                                                  //// 
.................... ////  rtc_set_datetime(day,mth,year,dow,hour,min)  Set the date/time  //// 
.................... ////                                                                  //// 
.................... ////  rtc_get_date(day,mth,year,dow)               Get the date       //// 
.................... ////                                                                  //// 
.................... ////  rtc_get_time(hr,min,sec)                     Get the time       //// 
.................... ////                                                                  //// 
.................... ////  rtc_write_nvr(address,data)                  Write to NVR       //// 
.................... ////                                                                  //// 
.................... ////  data = rtc_read_nvr(address)                 Read from NVR      //// 
.................... ////                                                                  //// 
.................... ////  get_bcd(data)                              Convert data to BCD  //// 
.................... ////                                                                  //// 
.................... ////  rm_bcd(data)                               Convert data to int  //// 
.................... ////                                                                  //// 
.................... ////////////////////////////////////////////////////////////////////////// 
.................... ////        (C) Copyright 1996,2003 Custom Computer Services          //// 
.................... //// This source code may only be used by licensed users of the CCS C //// 
.................... //// compiler.  This source code may only be distributed to other     //// 
.................... //// licensed users of the CCS C compiler.  No other use, reproduction//// 
.................... //// or distribution is permitted without written permission.         //// 
.................... //// Derivative programs created using this software in object code   //// 
.................... //// form are not restricted in any way.                              //// 
.................... ////////////////////////////////////////////////////////////////////////// 
....................  
.................... //#ifndef RTC_SCLK 
....................  
.................... #define RTC_SCLK PIN_E1 
.................... #define RTC_IO   PIN_E2 
.................... #define RTC_RST  PIN_C0 
....................  
.................... //#endif 
....................  
.................... void write_ds1302_byte(BYTE cmd) { 
....................    BYTE i; 
....................  
....................    for(i=0;i<=7;++i) { 
*
038BE:  MOVLB  6
038C0:  CLRF   x2C
038C2:  MOVF   x2C,W
038C4:  SUBLW  07
038C6:  BNC   38E2
....................       output_bit(RTC_IO, shift_right(&cmd,1,0) ); 
038C8:  BCF    FD8.0
038CA:  RRCF   x2B,F
038CC:  BC    38D2
038CE:  BCF    F8D.2
038D0:  BRA    38D4
038D2:  BSF    F8D.2
038D4:  BCF    F96.2
....................       output_high(RTC_SCLK); 
038D6:  BCF    F96.1
038D8:  BSF    F8D.1
....................       output_low(RTC_SCLK); 
038DA:  BCF    F96.1
038DC:  BCF    F8D.1
....................    } 
038DE:  INCF   x2C,F
038E0:  BRA    38C2
.................... } 
038E2:  MOVLB  0
038E4:  RETLW  00
....................  
.................... void write_ds1302(BYTE cmd, BYTE data) { 
....................  
....................    output_high(RTC_RST); 
038E6:  BCF    F94.0
038E8:  BSF    F8B.0
....................    write_ds1302_byte(cmd); 
038EA:  MOVFF  629,62B
038EE:  RCALL  38BE
....................    write_ds1302_byte(data); 
038F0:  MOVFF  62A,62B
038F4:  RCALL  38BE
....................    output_low(RTC_RST); 
038F6:  BCF    F94.0
038F8:  BCF    F8B.0
.................... } 
038FA:  RETLW  00
....................  
.................... BYTE read_ds1302(BYTE cmd) { 
....................    BYTE i,data; 
....................  
....................    output_high(RTC_RST); 
038FC:  BCF    F94.0
038FE:  BSF    F8B.0
....................    write_ds1302_byte(cmd); 
03900:  MOVFF  626,62B
03904:  RCALL  38BE
....................     
....................    input(RTC_IO); 
03906:  BSF    F96.2
....................    delay_us(10); 
03908:  MOVLW  10
0390A:  MOVWF  00
0390C:  DECFSZ 00,F
0390E:  BRA    390C
03910:  NOP   
....................           
....................    for(i=0;i<=7;++i) { 
03912:  MOVLB  6
03914:  CLRF   x27
03916:  MOVF   x27,W
03918:  SUBLW  07
0391A:  BNC   3946
....................       shift_right(&data,1,input(RTC_IO)); 
0391C:  BSF    F96.2
0391E:  BTFSC  F84.2
03920:  BRA    3926
03922:  BCF    FD8.0
03924:  BRA    3928
03926:  BSF    FD8.0
03928:  RRCF   x28,F
....................       output_high(RTC_SCLK); 
0392A:  BCF    F96.1
0392C:  BSF    F8D.1
....................       delay_us(20); 
0392E:  MOVLW  21
03930:  MOVWF  00
03932:  DECFSZ 00,F
03934:  BRA    3932
....................       output_low(RTC_SCLK); 
03936:  BCF    F96.1
03938:  BCF    F8D.1
....................       delay_us(20); 
0393A:  MOVLW  21
0393C:  MOVWF  00
0393E:  DECFSZ 00,F
03940:  BRA    393E
....................    } 
03942:  INCF   x27,F
03944:  BRA    3916
....................    output_low(RTC_RST); 
03946:  BCF    F94.0
03948:  BCF    F8B.0
....................  
....................    return(data); 
0394A:  MOVFF  628,01
.................... } 
0394E:  MOVLB  0
03950:  RETLW  00
....................  
.................... void rtc_init() { 
....................    BYTE x; 
....................    output_low(RTC_RST); 
03952:  BCF    F94.0
03954:  BCF    F8B.0
....................    delay_us(20); 
03956:  MOVLW  21
03958:  MOVWF  00
0395A:  DECFSZ 00,F
0395C:  BRA    395A
....................    output_low(RTC_SCLK); 
0395E:  BCF    F96.1
03960:  BCF    F8D.1
....................    write_ds1302(0x8e,0); 
03962:  MOVLW  8E
03964:  MOVLB  6
03966:  MOVWF  x29
03968:  CLRF   x2A
0396A:  MOVLB  0
0396C:  RCALL  38E6
....................    write_ds1302(0x90,0xa4); 
0396E:  MOVLW  90
03970:  MOVLB  6
03972:  MOVWF  x29
03974:  MOVLW  A4
03976:  MOVWF  x2A
03978:  MOVLB  0
0397A:  RCALL  38E6
....................    x=read_ds1302(0x81); 
0397C:  MOVLW  81
0397E:  MOVLB  6
03980:  MOVWF  x26
03982:  MOVLB  0
03984:  RCALL  38FC
03986:  MOVFF  01,622
....................    if((x & 0x80)!=0) 
0398A:  MOVLB  6
0398C:  MOVF   x22,W
0398E:  ANDLW  80
03990:  BZ    399E
....................      write_ds1302(0x80,0); 
03992:  MOVLW  80
03994:  MOVWF  x29
03996:  CLRF   x2A
03998:  MOVLB  0
0399A:  RCALL  38E6
0399C:  MOVLB  6
.................... } 
0399E:  MOVLB  0
039A0:  GOTO   7436 (RETURN)
....................  
.................... byte get_bcd(BYTE data) 
.................... { 
....................    byte nibh; 
....................    byte nibl; 
....................  
....................    nibh=data/10; 
*
05946:  MOVFF  628,62B
0594A:  MOVLW  0A
0594C:  MOVLB  6
0594E:  MOVWF  x2C
05950:  MOVLB  0
05952:  RCALL  5494
05954:  MOVFF  01,629
....................    nibl=data-(nibh*10); 
05958:  MOVLB  6
0595A:  MOVF   x29,W
0595C:  MULLW  0A
0595E:  MOVF   FF3,W
05960:  SUBWF  x28,W
05962:  MOVWF  x2A
....................  
....................    return((nibh<<4)|nibl); 
05964:  SWAPF  x29,W
05966:  MOVWF  00
05968:  MOVLW  F0
0596A:  ANDWF  00,F
0596C:  MOVF   00,W
0596E:  IORWF  x2A,W
05970:  MOVWF  01
.................... } 
05972:  MOVLB  0
05974:  RETLW  00
....................  
.................... byte rm_bcd(BYTE data) 
.................... { 
....................    byte i; 
....................  
....................    i=data; 
*
04C96:  MOVFF  627,628
....................    data=(i>>4)*10; 
04C9A:  MOVLB  6
04C9C:  SWAPF  x28,W
04C9E:  MOVWF  00
04CA0:  MOVLW  0F
04CA2:  ANDWF  00,F
04CA4:  MOVF   00,W
04CA6:  MULLW  0A
04CA8:  MOVFF  FF3,627
....................    data=data+(i<<4>>4); 
04CAC:  SWAPF  x28,W
04CAE:  MOVWF  00
04CB0:  MOVLW  F0
04CB2:  ANDWF  00,F
04CB4:  MOVF   00,W
04CB6:  SWAPF  00,F
04CB8:  MOVLW  0F
04CBA:  ANDWF  00,F
04CBC:  MOVF   00,W
04CBE:  ADDWF  x27,F
....................  
....................    return data; 
04CC0:  MOVFF  627,01
.................... } 
04CC4:  MOVLB  0
04CC6:  RETLW  00
....................  
.................... void rtc_set_datetime(BYTE day, BYTE mth, BYTE year, BYTE dow, BYTE hr, BYTE min) { 
....................  
....................    write_ds1302(0x86,get_bcd(day)); 
*
05976:  MOVFF  622,628
0597A:  RCALL  5946
0597C:  MOVFF  01,628
05980:  MOVLW  86
05982:  MOVLB  6
05984:  MOVWF  x29
05986:  MOVFF  01,62A
0598A:  MOVLB  0
0598C:  CALL   38E6
....................    write_ds1302(0x88,get_bcd(mth)); 
05990:  MOVFF  623,628
05994:  RCALL  5946
05996:  MOVFF  01,628
0599A:  MOVLW  88
0599C:  MOVLB  6
0599E:  MOVWF  x29
059A0:  MOVFF  01,62A
059A4:  MOVLB  0
059A6:  CALL   38E6
....................    write_ds1302(0x8c,get_bcd(year)); 
059AA:  MOVFF  624,628
059AE:  RCALL  5946
059B0:  MOVFF  01,628
059B4:  MOVLW  8C
059B6:  MOVLB  6
059B8:  MOVWF  x29
059BA:  MOVFF  01,62A
059BE:  MOVLB  0
059C0:  CALL   38E6
....................    write_ds1302(0x8a,get_bcd(dow)); 
059C4:  MOVFF  625,628
059C8:  RCALL  5946
059CA:  MOVFF  01,628
059CE:  MOVLW  8A
059D0:  MOVLB  6
059D2:  MOVWF  x29
059D4:  MOVFF  01,62A
059D8:  MOVLB  0
059DA:  CALL   38E6
....................    write_ds1302(0x84,get_bcd(hr)); 
059DE:  MOVFF  626,628
059E2:  RCALL  5946
059E4:  MOVFF  01,628
059E8:  MOVLW  84
059EA:  MOVLB  6
059EC:  MOVWF  x29
059EE:  MOVFF  01,62A
059F2:  MOVLB  0
059F4:  CALL   38E6
....................    write_ds1302(0x82,get_bcd(min)); 
059F8:  MOVFF  627,628
059FC:  RCALL  5946
059FE:  MOVFF  01,628
05A02:  MOVLW  82
05A04:  MOVLB  6
05A06:  MOVWF  x29
05A08:  MOVFF  01,62A
05A0C:  MOVLB  0
05A0E:  CALL   38E6
....................    write_ds1302(0x80,get_bcd(0)); 
05A12:  MOVLB  6
05A14:  CLRF   x28
05A16:  MOVLB  0
05A18:  RCALL  5946
05A1A:  MOVFF  01,628
05A1E:  MOVLW  80
05A20:  MOVLB  6
05A22:  MOVWF  x29
05A24:  MOVFF  01,62A
05A28:  MOVLB  0
05A2A:  CALL   38E6
.................... } 
05A2E:  GOTO   9DFE (RETURN)
....................  
.................... void rtc_get_date(BYTE& day, BYTE& mth, BYTE& year, BYTE& dow) { 
....................    day = rm_bcd(read_ds1302(0x87)); 
*
07580:  MOVLW  87
07582:  MOVLB  6
07584:  MOVWF  x26
07586:  MOVLB  0
07588:  CALL   38FC
0758C:  MOVFF  01,622
07590:  MOVFF  01,627
07594:  CALL   4C96
07598:  MOVFF  01,20B
....................    mth = rm_bcd(read_ds1302(0x89)); 
0759C:  MOVLW  89
0759E:  MOVLB  6
075A0:  MOVWF  x26
075A2:  MOVLB  0
075A4:  CALL   38FC
075A8:  MOVFF  01,622
075AC:  MOVFF  01,627
075B0:  CALL   4C96
075B4:  MOVFF  01,20A
....................    year = rm_bcd(read_ds1302(0x8d)); 
075B8:  MOVLW  8D
075BA:  MOVLB  6
075BC:  MOVWF  x26
075BE:  MOVLB  0
075C0:  CALL   38FC
075C4:  MOVFF  01,622
075C8:  MOVFF  01,627
075CC:  CALL   4C96
075D0:  MOVFF  01,209
....................    dow = rm_bcd(read_ds1302(0x8b)); 
075D4:  MOVLW  8B
075D6:  MOVLB  6
075D8:  MOVWF  x26
075DA:  MOVLB  0
075DC:  CALL   38FC
075E0:  MOVFF  01,622
075E4:  MOVFF  01,627
075E8:  CALL   4C96
075EC:  MOVFF  01,20F
.................... } 
....................  
.................... void rtc_get_time(BYTE& hr, BYTE& min, BYTE& sec) { 
....................    hr = rm_bcd(read_ds1302(0x85)); 
075F0:  MOVLW  85
075F2:  MOVLB  6
075F4:  MOVWF  x26
075F6:  MOVLB  0
075F8:  CALL   38FC
075FC:  MOVFF  01,622
07600:  MOVFF  01,627
07604:  CALL   4C96
07608:  MOVFF  01,20C
....................    min = rm_bcd(read_ds1302(0x83)); 
0760C:  MOVLW  83
0760E:  MOVLB  6
07610:  MOVWF  x26
07612:  MOVLB  0
07614:  CALL   38FC
07618:  MOVFF  01,622
0761C:  MOVFF  01,627
07620:  CALL   4C96
07624:  MOVFF  01,20D
....................    sec = rm_bcd(read_ds1302(0x81)); 
07628:  MOVLW  81
0762A:  MOVLB  6
0762C:  MOVWF  x26
0762E:  MOVLB  0
07630:  CALL   38FC
07634:  MOVFF  01,622
07638:  MOVFF  01,627
0763C:  CALL   4C96
07640:  MOVFF  01,20E
.................... } 
....................  
.................... void rtc_write_nvr(BYTE address, BYTE data) { 
....................    write_ds1302(address|0xc0,data); 
.................... } 
....................  
.................... BYTE rtc_read_nvr(BYTE address) { 
....................     return(read_ds1302(address|0xc1)); 
.................... } 
....................  
.................... #include <24512.c> 
.................... /////////////////////////////////////////////////////////////////////////// 
.................... ////   Library for a 24LC512 serial EEPROM                             //// 
.................... ////                                                                   //// 
.................... ////   init_ext_eeprom();    Call before the other functions are used  //// 
.................... ////                                                                   //// 
.................... ////   write_ext_eeprom(a, d);  Write the byte d to the address a      //// 
.................... ////                                                                   //// 
.................... ////   d = read_ext_eeprom(a);   Read the byte d from the address a    //// 
.................... ////                                                                   //// 
.................... ////   The main program may define eeprom_sda                          //// 
.................... ////   and eeprom_scl to override the defaults below.                  //// 
.................... ////                                                                   //// 
.................... /////////////////////////////////////////////////////////////////////////// 
.................... ////        (C) Copyright 1996,2003 Custom Computer Services           //// 
.................... //// This source code may only be used by licensed users of the CCS C  //// 
.................... //// compiler.  This source code may only be distributed to other      //// 
.................... //// licensed users of the CCS C compiler.  No other use, reproduction //// 
.................... //// or distribution is permitted without written permission.          //// 
.................... //// Derivative programs created using this software in object code    //// 
.................... //// form are not restricted in any way.                               //// 
.................... /////////////////////////////////////////////////////////////////////////// 
....................  
.................... #ifndef EEPROM_SDA 
....................  
.................... #define EEPROM_SDA  PIN_C4 
.................... #define EEPROM_SCL  PIN_C3 
....................  
.................... #endif 
....................  
.................... #use i2c(master, sda=EEPROM_SDA, scl=EEPROM_SCL) 
*
023CA:  MOVLW  08
023CC:  MOVWF  01
023CE:  MOVLW  05
023D0:  MOVWF  00
023D2:  DECFSZ 00,F
023D4:  BRA    23D2
023D6:  BCF    F8B.3
023D8:  BCF    F94.3
023DA:  MOVLW  06
023DC:  MOVWF  00
023DE:  DECFSZ 00,F
023E0:  BRA    23DE
023E2:  MOVLB  6
023E4:  RLCF   x2F,F
023E6:  BCF    F8B.4
023E8:  BTFSC  FD8.0
023EA:  BSF    F94.4
023EC:  BTFSS  FD8.0
023EE:  BCF    F94.4
023F0:  BSF    F94.3
023F2:  BTFSS  F82.3
023F4:  BRA    23F2
023F6:  DECFSZ 01,F
023F8:  BRA    23FC
023FA:  BRA    2400
023FC:  MOVLB  0
023FE:  BRA    23CE
02400:  MOVLW  05
02402:  MOVWF  00
02404:  DECFSZ 00,F
02406:  BRA    2404
02408:  BCF    F8B.3
0240A:  BCF    F94.3
0240C:  NOP   
0240E:  BSF    F94.4
02410:  MOVLW  06
02412:  MOVWF  00
02414:  DECFSZ 00,F
02416:  BRA    2414
02418:  MOVLW  06
0241A:  MOVWF  00
0241C:  DECFSZ 00,F
0241E:  BRA    241C
02420:  BSF    F94.3
02422:  BTFSS  F82.3
02424:  BRA    2422
02426:  CLRF   01
02428:  MOVLW  06
0242A:  MOVWF  00
0242C:  DECFSZ 00,F
0242E:  BRA    242C
02430:  BTFSC  F82.4
02432:  BSF    01.0
02434:  BCF    F8B.3
02436:  BCF    F94.3
02438:  BCF    F8B.4
0243A:  BCF    F94.4
0243C:  MOVLB  0
0243E:  RETLW  00
02440:  MOVLW  08
02442:  MOVLB  6
02444:  MOVWF  x2B
02446:  MOVFF  00,62C
0244A:  BSF    F94.4
0244C:  MOVLW  06
0244E:  MOVWF  00
02450:  DECFSZ 00,F
02452:  BRA    2450
02454:  BSF    F94.3
02456:  BTFSS  F82.3
02458:  BRA    2456
0245A:  BTFSC  F82.4
0245C:  BSF    FD8.0
0245E:  BTFSS  F82.4
02460:  BCF    FD8.0
02462:  RLCF   01,F
02464:  MOVLW  05
02466:  MOVWF  00
02468:  DECFSZ 00,F
0246A:  BRA    2468
0246C:  BCF    F94.3
0246E:  BCF    F8B.3
02470:  DECFSZ x2B,F
02472:  BRA    244A
02474:  BSF    F94.4
02476:  MOVLW  06
02478:  MOVWF  00
0247A:  DECFSZ 00,F
0247C:  BRA    247A
0247E:  BCF    F8B.4
02480:  MOVF   x2C,W
02482:  BTFSS  FD8.2
02484:  BCF    F94.4
02486:  NOP   
02488:  BSF    F94.3
0248A:  BTFSS  F82.3
0248C:  BRA    248A
0248E:  MOVLW  05
02490:  MOVWF  00
02492:  DECFSZ 00,F
02494:  BRA    2492
02496:  BCF    F8B.3
02498:  BCF    F94.3
0249A:  MOVLW  06
0249C:  MOVWF  00
0249E:  DECFSZ 00,F
024A0:  BRA    249E
024A2:  BCF    F8B.4
024A4:  BCF    F94.4
024A6:  MOVLB  0
024A8:  RETLW  00
....................  
.................... #define EEPROM_ADDRESS long int 
.................... #define EEPROM_SIZE   65535 
....................  
.................... void init_ext_eeprom() 
.................... { 
....................    output_float(EEPROM_SCL); 
....................    output_float(EEPROM_SDA); 
....................  
.................... } 
....................  
.................... void write_ext_eeprom(long int address, BYTE data) 
.................... { 
....................    short int status; 
....................    i2c_start(); 
*
06396:  BSF    F94.4
06398:  MOVLW  05
0639A:  MOVWF  00
0639C:  DECFSZ 00,F
0639E:  BRA    639C
063A0:  BSF    F94.3
063A2:  MOVLW  06
063A4:  MOVWF  00
063A6:  DECFSZ 00,F
063A8:  BRA    63A6
063AA:  BCF    F8B.4
063AC:  BCF    F94.4
063AE:  MOVLW  05
063B0:  MOVWF  00
063B2:  DECFSZ 00,F
063B4:  BRA    63B2
063B6:  BCF    F8B.3
063B8:  BCF    F94.3
....................    i2c_write(0xa0); 
063BA:  MOVLW  A0
063BC:  MOVLB  6
063BE:  MOVWF  x2F
063C0:  MOVLB  0
063C2:  CALL   23CA
....................    i2c_write(address>>8); 
063C6:  MOVFF  62A,62D
063CA:  MOVLB  6
063CC:  CLRF   x2E
063CE:  MOVFF  62A,62F
063D2:  MOVLB  0
063D4:  CALL   23CA
....................    i2c_write(address); 
063D8:  MOVFF  629,62F
063DC:  CALL   23CA
....................    i2c_write(data); 
063E0:  MOVFF  62B,62F
063E4:  CALL   23CA
....................    i2c_stop(); 
063E8:  BCF    F94.4
063EA:  NOP   
063EC:  BSF    F94.3
063EE:  BTFSS  F82.3
063F0:  BRA    63EE
063F2:  MOVLW  05
063F4:  MOVWF  00
063F6:  DECFSZ 00,F
063F8:  BRA    63F6
063FA:  BRA    63FC
063FC:  NOP   
063FE:  BSF    F94.4
06400:  MOVLW  05
06402:  MOVWF  00
06404:  DECFSZ 00,F
06406:  BRA    6404
....................    i2c_start(); 
06408:  BSF    F94.4
0640A:  MOVLW  05
0640C:  MOVWF  00
0640E:  DECFSZ 00,F
06410:  BRA    640E
06412:  BSF    F94.3
06414:  MOVLW  06
06416:  MOVWF  00
06418:  DECFSZ 00,F
0641A:  BRA    6418
0641C:  BCF    F8B.4
0641E:  BCF    F94.4
06420:  MOVLW  05
06422:  MOVWF  00
06424:  DECFSZ 00,F
06426:  BRA    6424
06428:  BCF    F8B.3
0642A:  BCF    F94.3
....................    status=i2c_write(0xa0); 
0642C:  MOVLW  A0
0642E:  MOVLB  6
06430:  MOVWF  x2F
06432:  MOVLB  0
06434:  CALL   23CA
06438:  MOVF   01,W
0643A:  MOVLB  6
0643C:  BCF    x2C.0
0643E:  BTFSC  01.0
06440:  BSF    x2C.0
....................    while(status==1) 
....................    { 
06442:  BTFSS  x2C.0
06444:  BRA    6484
....................       i2c_start(); 
06446:  BSF    F94.4
06448:  MOVLW  05
0644A:  MOVWF  00
0644C:  DECFSZ 00,F
0644E:  BRA    644C
06450:  BSF    F94.3
06452:  MOVLW  06
06454:  MOVWF  00
06456:  DECFSZ 00,F
06458:  BRA    6456
0645A:  BTFSS  F82.3
0645C:  BRA    645A
0645E:  BCF    F8B.4
06460:  BCF    F94.4
06462:  MOVLW  05
06464:  MOVWF  00
06466:  DECFSZ 00,F
06468:  BRA    6466
0646A:  BCF    F8B.3
0646C:  BCF    F94.3
....................       status=i2c_write(0xa0); 
0646E:  MOVLW  A0
06470:  MOVWF  x2F
06472:  MOVLB  0
06474:  CALL   23CA
06478:  MOVF   01,W
0647A:  MOVLB  6
0647C:  BCF    x2C.0
0647E:  BTFSC  01.0
06480:  BSF    x2C.0
....................    } 
06482:  BRA    6442
....................    i2c_stop(); 
06484:  BCF    F94.4
06486:  NOP   
06488:  BSF    F94.3
0648A:  BTFSS  F82.3
0648C:  BRA    648A
0648E:  MOVLW  05
06490:  MOVWF  00
06492:  DECFSZ 00,F
06494:  BRA    6492
06496:  BRA    6498
06498:  NOP   
0649A:  BSF    F94.4
0649C:  MOVLW  05
0649E:  MOVWF  00
064A0:  DECFSZ 00,F
064A2:  BRA    64A0
.................... } 
064A4:  MOVLB  0
064A6:  RETLW  00
....................  
.................... BYTE read_ext_eeprom(long int address) { 
....................    BYTE data; 
....................    i2c_start(); 
*
024AA:  BSF    F94.4
024AC:  MOVLW  05
024AE:  MOVWF  00
024B0:  DECFSZ 00,F
024B2:  BRA    24B0
024B4:  BSF    F94.3
024B6:  MOVLW  06
024B8:  MOVWF  00
024BA:  DECFSZ 00,F
024BC:  BRA    24BA
024BE:  BCF    F8B.4
024C0:  BCF    F94.4
024C2:  MOVLW  05
024C4:  MOVWF  00
024C6:  DECFSZ 00,F
024C8:  BRA    24C6
024CA:  BCF    F8B.3
024CC:  BCF    F94.3
....................    i2c_write(0xa0); 
024CE:  MOVLW  A0
024D0:  MOVLB  6
024D2:  MOVWF  x2F
024D4:  MOVLB  0
024D6:  RCALL  23CA
....................    i2c_write(address>>8); 
024D8:  MOVFF  628,62A
024DC:  MOVLB  6
024DE:  CLRF   x2B
024E0:  MOVFF  628,62F
024E4:  MOVLB  0
024E6:  RCALL  23CA
....................    i2c_write(address); 
024E8:  MOVFF  627,62F
024EC:  RCALL  23CA
....................    i2c_start(); 
024EE:  BSF    F94.4
024F0:  MOVLW  05
024F2:  MOVWF  00
024F4:  DECFSZ 00,F
024F6:  BRA    24F4
024F8:  BSF    F94.3
024FA:  MOVLW  06
024FC:  MOVWF  00
024FE:  DECFSZ 00,F
02500:  BRA    24FE
02502:  BTFSS  F82.3
02504:  BRA    2502
02506:  BCF    F8B.4
02508:  BCF    F94.4
0250A:  MOVLW  05
0250C:  MOVWF  00
0250E:  DECFSZ 00,F
02510:  BRA    250E
02512:  BCF    F8B.3
02514:  BCF    F94.3
....................    i2c_write(0xa1); 
02516:  MOVLW  A1
02518:  MOVLB  6
0251A:  MOVWF  x2F
0251C:  MOVLB  0
0251E:  RCALL  23CA
....................    data=i2c_read(0); 
02520:  CLRF   00
02522:  RCALL  2440
02524:  MOVFF  01,629
....................    i2c_stop(); 
02528:  BCF    F94.4
0252A:  NOP   
0252C:  BSF    F94.3
0252E:  BTFSS  F82.3
02530:  BRA    252E
02532:  MOVLW  05
02534:  MOVWF  00
02536:  DECFSZ 00,F
02538:  BRA    2536
0253A:  BRA    253C
0253C:  NOP   
0253E:  BSF    F94.4
02540:  MOVLW  05
02542:  MOVWF  00
02544:  DECFSZ 00,F
02546:  BRA    2544
....................    return(data); 
02548:  MOVLB  6
0254A:  MOVFF  629,01
.................... } 
0254E:  MOVLB  0
02550:  RETLW  00
....................  
....................  
.................... #define   UP            !input(PIN_B6) 
.................... #define   DOWN          !input(PIN_B5) 
.................... #define   RIGHT         !input(PIN_B4) 
.................... #define   LEFT          !input(PIN_B3) 
....................  
.................... #define   DOOR          !input(PIN_B1) 
.................... #define   STOP          !input(PIN_B2) 
.................... #define   TERM          !input(PIN_B3) 
.................... #define   PRES          !input(PIN_A4) 
....................  
.................... #define   LOW           input(PIN_B0) 
....................  
.................... #define   Buzzer_on        output_bit(PIN_C5,1) 
.................... #define   Buzzer_off       output_bit(PIN_C5,0) 
....................  
.................... #define   Suministro_on    output_bit(PIN_D0,1) 
.................... #define   Suministro_off   output_bit(PIN_D0,0) 
....................  
.................... #define   Paso_on          output_bit(PIN_D1,1) 
.................... #define   Paso_off         output_bit(PIN_D1,0) 
....................  
.................... #define   Vacio_on         output_bit(PIN_D2,1) 
.................... #define   Vacio_off        output_bit(PIN_D2,0) 
....................  
.................... #define   Desfogue_on      output_bit(PIN_D3,1) 
.................... #define   Desfogue_off     output_bit(PIN_D3,0) 
....................  
.................... #define   Aire_on          output_bit(PIN_D4,1) 
.................... #define   Aire_off         output_bit(PIN_D4,0) 
....................  
.................... #define   BombaVacio_on    output_bit(PIN_D5,1) 
.................... #define   BombaVacio_off   output_bit(PIN_D5,0) 
....................  
.................... #define   Agua_on          output_bit(PIN_D6,1) 
.................... #define   Agua_off         output_bit(PIN_D6,0) 
....................  
.................... #define   Agua2_on         output_bit(PIN_D7,1) 
.................... #define   Agua2_off        output_bit(PIN_D7,0) 
....................  
.................... #define OFF 0 
.................... #define ON  1 
.................... #define RX_BUFFER_SIZE  10 
.................... char Rx_Buffer[RX_BUFFER_SIZE+1]; 
.................... char Rx_Buffer2[RX_BUFFER_SIZE+1]; 
.................... char RX_Wr_Index=0; 
....................  
.................... //Comunicacion//------------------------ 
.................... //byte txbuf[0X20]; 
.................... byte SlaveA0Tx[0X20]; 
.................... byte dato=0;            //Contendr la informacin a enviar o recibir 
.................... byte direccion=0;       //Contendr la direccin del esclavo en el bus I2C 
.................... byte posicion=0;        //Contendr la posicin en el buffer de memoria del esclavo donde se almacenar o de donde se recuperar el dato 
.................... //byte ByteConfig1=0,ByteConfig2=0,ByteConfig3=0; 
....................  
.................... /* Tabla de Modulos, Primera Fila Ao Regular y el siguiente ao Bisiesto 
.................... E   F   M   A   M   J   J   A   S   O   N   D 
.................... 0   3   3   6   1   4   6   2   5   0   3   5 
.................... 0   3   4   0   2   5   0   3   6   1   4   6 
.................... */ 
.................... int8 Regular[12]={0,3,3,6,1,4,6,2,5,0,3,5}; 
.................... int8 Bisiesto[12]={0,3,4,0,2,5,0,3,6,1,4,6}; 
....................  
.................... //Alarmas//--------------------- 
.................... short AlarmaTiempoProlongado=OFF,AlarmaSobreTemperatura=OFF,AlarmaTermostato=OFF,AlarmaPuerta=OFF,AlarmaEmergencia=OFF,AlarmaVacio=OFF; 
.................... short AlarmaBomba=OFF,guardaCiclo=OFF,Cilindro=OFF; 
.................... int16 TiempoVacio=600; 
....................  
.................... //Banderas//-------------------- 
.................... short IniciaLlenado=OFF,IniciaCiclo=OFF,Esterilizando=OFF,Secando=OFF,SensadoNivel=OFF,Desfogando=OFF,DesfogueSuave=OFF,CalderinLleno=OFF; 
.................... short EstadoDesfogue=OFF,EstadoSuministro=OFF,EstadoAire=OFF,PruebaEstados=OFF,disp_Guarda=OFF,Ciclo=OFF,EstadoAgua2=OFF; 
.................... short Op=OFF,Op2=OFF,Minutos=OFF,Segundos=OFF,GuardaEEPROM=OFF,EstadoPaso=OFF,EstadoVacio=OFF,EstadoBuzzer=OFF,flagAlarma=OFF; 
.................... short flagBuzzer=OFF,flagSilencio=OFF,Finalizo=OFF,AlarmaPresion=OFF,EstadoACierre=OFF,EstadoBomba=OFF,Libre=OFF,ingreso=OFF,Fugas=OFF; 
.................... short PreCalentamiento=OFF,IniciaVacio=OFF,IniciaVacio2=OFF,Vacio=OFF,flag_vac=OFF,flag_vacio=OFF,flag_pulso=OFF,EstadoAireBomba=OFF; 
....................  
.................... //Tiempos//--------------------- 
.................... int16 TiempoCiclo=0,TiempoSensadoNivel=0,Tp=0,Tc=0,tguarda=0; 
.................... signed int  Testerilizacion[4]={0,0,0,0};   // Tiempo transcurrido 
.................... signed int  Testerilizacionp[4]={0,0,0,0};   // Tiempo transcurrido 
.................... signed int  Tsecado[4]={0,0,0,0};   // Tiempo transcurrido 
.................... signed int  Tsecadop[4]={0,0,0,0};   // Tiempo transcurrido 
....................  
.................... //Control//------------------------ 
.................... float PromPresion[20]={0.0,0.0,0.0,0.0,0.0,0.0,0.0,0.0,0.0,0.0,0.0,0.0,0.0,0.0,0.0,0.0,0.0,0.0,0.0,0.0}; 
.................... float PromPresionp[20]={0.0,0.0,0.0,0.0,0.0,0.0,0.0,0.0,0.0,0.0,0.0,0.0,0.0,0.0,0.0,0.0,0.0,0.0,0.0,0.0}; 
.................... float Temporal=0.0; 
.................... //float K=0.006429; 
.................... float R7=3000,R8=3100,R9=3100,R10=3100,AN=0,BN=0; 
.................... float X[2]={0.0,0.0}; 
.................... float promediopresion=0.0,promediopresionp=0.0; 
.................... int8 h=0,l=0,MediaMovil=20,PantallaPrincipal=0,TipoClave=0,Modulo=0; 
.................... float V0=0.0,Pt,Tciclo=10.0,Tpulso=0.0,error=0.0,Prom=0.0,Temperature=0.0,tmp=0.0,Ganancia=25.0,Ganancia2=20.0,desvio=1.0; 
.................... float V1=0.0,Presion=0.0,V2=0.0,Presionp=0.0; 
.................... float Temperatura=0.0,Temperatura2=0.0; 
.................... float a=0.0011,b=2.3302,c=-244.0723; 
....................  
.................... //Varios//-------------------------------- 
.................... short desfoguelento=0,Lectura=0,Grafica=0; 
.................... short disp_Stop=0,flagTC=0,flagImprime=0; 
.................... int8 Control=0,tiemporecta=0,Controlando=0,timpresion=2,CalculoImpresion=0,Inicio=1,Dato_Exitoso=0,Dato2=0; 
.................... int8 Menu=0, MenuAnt=0,MenuAntt=240,i=0,CiclosL=0,CiclosH=0,CicloSeleccionado=0,Tapertura=0; 
.................... int16 CantidadPulsos=4; 
.................... int8 Setpoint=0,Opcion=1,Opcion2=1,tiempo_esterilizacion=0,tiempo_secado=0,tiempoImpresion=0; 
.................... int16 tiempos=0,tiempos2=0,tiempos3=0,tiempoctrl=0,Nivel=0,tinicio=0,PresionCamara=0,PresionPreCamara=0,Ciclos=0,tbomba=0,tvacio=0; 
.................... signed int  Password[4]={0,0,0,0};        // Contrasena Almacenada de 4 digitos 
.................... int8 r=0,t=0,r22=0,t2=0,TiempoControl=0,NivelDes=0; 
.................... int8 y=0,ConteoBuzzer=0,posicionDato=0,codigoAlarma=0,codigoAnt=0,codigoUsuario2=0; 
.................... int16 tbuzzer=0,tsilencio=0; 
.................... int8 Year=18,Mes=9,Dia=13,Hora=0,Minuto=0,Segundo=0,dow=0,cicloVisualizado=0,cicloVisto=0,NivelVacio=25,Atmosferica=75,PulsoPositivo=10,PulsosVacio=0; 
.................... int8 YearTx=0,MesTx=0,DiaTx=0,HoraTx=0,MinutoTx=0,SegundoTx=0,dowTx=0,SetTime=0,Imprime=0,CicloLibre=0,Pulsos=0,j=0,codigoUsuario=0,codigoUsuarioant=0; 
.................... signed int8 G1=0,G2=0,sg1=0,sg2=0; 
.................... const char Texto[12][20]={"CALENTAMIENTO","NO ENVUELTOS 134","NO ENVUELTOS 121","ENVUELTOS 134","ENVUELTOS 121","ENVUELTO DOBLE 1", 
.................... "ENVUELTO DOBLE 2","PRION","BOWIE & DICK","TEST DE FUGAS","TEST DE COMPONENTES","HORA Y FECHA"}; 
.................... char usuario[20]; 
.................... float TCiclos[7]; 
.................... int16 PcCiclos[7]; 
.................... int16 PpcCiclos[7]; 
.................... int8 horaCiclos[7]; 
.................... int8 minutoCiclos[7]; 
.................... int8 ACiclos[7]; 
.................... int8 diaCiclos=0,mesCiclos=0,yearCiclos=0,usuarioCiclos=0,cicloCiclos=0; 
.................... short estados[30]={0,0,0,0,0,0,0,0,0,0,0,0,0,0,0,0,0,0,0,0,0,0,0,0,0,0,0,0,0,0}; 
....................  
.................... typedef struct{ 
....................    int8 Password[4]; 
.................... }Claves; 
....................  
.................... typedef struct{ 
....................    int8 Temperatura; 
....................    int8 Minutoest; 
....................    int8 Segundoest; 
....................    int8 Minutosec; 
....................    int8 Segundosec; 
....................    int8 PulsosVacio; 
....................    int8 NivelVacio; 
....................    int8 NivelDesfogue; 
.................... }Personalizado; 
....................  
.................... typedef struct{ 
....................    float BN; 
....................    float AN; 
....................    float V0; 
....................    float Pt; 
....................    float RPT100; 
....................    int8 l; 
....................    int8 h; 
....................    float Prom; 
....................    float Temperature; 
....................    int8 Ajuste; 
....................    int8 Ajusten; 
....................    float promedio[80]; 
....................    float Gain; 
.................... }SensorPT100; 
....................  
.................... SensorPT100 Sensor[2]; 
.................... Personalizado CiclosPersonalizados[20]; 
.................... Claves Clave[10]; 
....................  
.................... #include "Funciones.h" 
....................  
.................... void BorraBuffer(void){ 
.................... RX_Buffer[0]=0; 
*
05410:  CLRF   30
.................... RX_Buffer[1]=0; 
05412:  CLRF   31
.................... RX_Buffer[2]=0; 
05414:  CLRF   32
.................... RX_Buffer[3]=0; 
05416:  CLRF   33
.................... RX_Buffer[4]=0; 
05418:  CLRF   34
.................... RX_Buffer[5]=0; 
0541A:  CLRF   35
.................... RX_Buffer[6]=0; 
0541C:  CLRF   36
.................... RX_Buffer[7]=0; 
0541E:  CLRF   37
.................... RX_Buffer[8]=0; 
05420:  CLRF   38
.................... RX_Buffer[9]=0; 
05422:  CLRF   39
....................  
.................... RX_Buffer2[0]=0; 
05424:  CLRF   3B
.................... RX_Buffer2[1]=0; 
05426:  CLRF   3C
.................... RX_Buffer2[2]=0; 
05428:  CLRF   3D
.................... RX_Buffer2[3]=0; 
0542A:  CLRF   3E
.................... RX_Buffer2[4]=0; 
0542C:  CLRF   3F
.................... RX_Buffer2[5]=0; 
0542E:  CLRF   40
.................... RX_Buffer2[6]=0; 
05430:  CLRF   41
.................... RX_Buffer2[7]=0; 
05432:  CLRF   42
.................... RX_Buffer2[8]=0; 
05434:  CLRF   43
.................... RX_Buffer2[9]=0; 
05436:  CLRF   44
.................... } 
05438:  GOTO   7850 (RETURN)
....................  
.................... void SendDataDisplay(void){ 
.................... delay_us(10); 
*
03EE4:  MOVLW  10
03EE6:  MOVWF  00
03EE8:  DECFSZ 00,F
03EEA:  BRA    3EE8
03EEC:  NOP   
.................... putc(0xFF); 
03EEE:  MOVLW  FF
03EF0:  RCALL  3EDC
.................... delay_us(10); 
03EF2:  MOVLW  10
03EF4:  MOVWF  00
03EF6:  DECFSZ 00,F
03EF8:  BRA    3EF6
03EFA:  NOP   
.................... putc(0xFF); 
03EFC:  MOVLW  FF
03EFE:  RCALL  3EDC
.................... delay_us(10); 
03F00:  MOVLW  10
03F02:  MOVWF  00
03F04:  DECFSZ 00,F
03F06:  BRA    3F04
03F08:  NOP   
.................... putc(0xFF); 
03F0A:  MOVLW  FF
03F0C:  RCALL  3EDC
.................... delay_us(10); 
03F0E:  MOVLW  10
03F10:  MOVWF  00
03F12:  DECFSZ 00,F
03F14:  BRA    3F12
03F16:  NOP   
.................... } 
03F18:  RETLW  00
....................  
.................... short esBisiesto(int8 year) { 
....................      return ((year % 4 == 0 && year % 100 != 0) || year % 400 == 0); 
*
058F4:  MOVLB  6
058F6:  MOVF   x22,W
058F8:  ANDLW  03
058FA:  BNZ   590E
058FC:  MOVFF  622,62B
05900:  MOVLW  64
05902:  MOVWF  x2C
05904:  MOVLB  0
05906:  RCALL  5494
05908:  MOVF   00,F
0590A:  BNZ   593C
0590C:  MOVLB  6
0590E:  CLRF   x27
05910:  MOVFF  622,626
05914:  MOVLW  01
05916:  MOVWF  x29
05918:  MOVLW  90
0591A:  MOVWF  x28
0591C:  MOVLB  0
0591E:  RCALL  58AE
05920:  MOVFF  00,623
05924:  MOVLB  6
05926:  MOVFF  03,624
0592A:  MOVF   x23,F
0592C:  BNZ   5938
0592E:  MOVF   x24,F
05930:  BTFSS  FD8.2
05932:  BRA    5938
05934:  MOVLB  0
05936:  BRA    593C
05938:  MOVLW  00
0593A:  BRA    5940
0593C:  MOVLW  01
0593E:  MOVLB  6
05940:  MOVWF  01
.................... } 
05942:  MOVLB  0
05944:  RETLW  00
....................  
.................... void LimitaDia(){ 
....................    if(MesTx>12) 
*
05A32:  MOVLB  2
05A34:  MOVF   x17,W
05A36:  SUBLW  0C
05A38:  BC    5A3E
....................       MesTx=10; 
05A3A:  MOVLW  0A
05A3C:  MOVWF  x17
....................    if(DiaTx>31) 
05A3E:  MOVF   x18,W
05A40:  SUBLW  1F
05A42:  BC    5A48
....................       DiaTx=16; 
05A44:  MOVLW  10
05A46:  MOVWF  x18
....................    if(YearTx>99) 
05A48:  MOVF   x16,W
05A4A:  SUBLW  63
05A4C:  BC    5A52
....................       YearTx=18;    
05A4E:  MOVLW  12
05A50:  MOVWF  x16
....................    if(HoraTx>24) 
05A52:  MOVF   x19,W
05A54:  SUBLW  18
05A56:  BC    5A5C
....................       HoraTx=11;       
05A58:  MOVLW  0B
05A5A:  MOVWF  x19
....................    if(MinutoTx>59) 
05A5C:  MOVF   x1A,W
05A5E:  SUBLW  3B
05A60:  BC    5A66
....................       MinutoTx=30;       
05A62:  MOVLW  1E
05A64:  MOVWF  x1A
....................     
....................       if(MesTx==2){ 
05A66:  MOVF   x17,W
05A68:  SUBLW  02
05A6A:  BNZ   5A96
....................          if(esBisiesto(YearTx)){ 
05A6C:  MOVFF  216,622
05A70:  MOVLB  0
05A72:  RCALL  58F4
05A74:  MOVF   01,F
05A76:  BZ    5A88
....................             if(DiaTx>29){ 
05A78:  MOVLB  2
05A7A:  MOVF   x18,W
05A7C:  SUBLW  1D
05A7E:  BC    5A84
....................                DiaTx=29; 
05A80:  MOVLW  1D
05A82:  MOVWF  x18
....................                //glcd_fillScreen(OFF); 
....................             } 
....................          }else{ 
05A84:  BRA    5A94
05A86:  MOVLB  0
....................             if(DiaTx>28){ 
05A88:  MOVLB  2
05A8A:  MOVF   x18,W
05A8C:  SUBLW  1C
05A8E:  BC    5A94
....................                DiaTx=28; 
05A90:  MOVLW  1C
05A92:  MOVWF  x18
....................                //glcd_fillScreen(OFF); 
....................             } 
....................          } 
....................       }else{ 
05A94:  BRA    5AC0
....................          if(MesTx<=7){ 
05A96:  MOVF   x17,W
05A98:  SUBLW  07
05A9A:  BNC   5AAE
....................             if(MesTx % 2 ==0){ 
05A9C:  MOVF   x17,W
05A9E:  ANDLW  01
05AA0:  BNZ   5AAC
....................                if(DiaTx>30){ 
05AA2:  MOVF   x18,W
05AA4:  SUBLW  1E
05AA6:  BC    5AAC
....................                   DiaTx=30;  
05AA8:  MOVLW  1E
05AAA:  MOVWF  x18
....................                   //glcd_fillScreen(OFF); 
....................                } 
....................             } 
....................          }else{ 
05AAC:  BRA    5AC0
....................             if(MesTx % 2 ==1){ 
05AAE:  MOVF   x17,W
05AB0:  ANDLW  01
05AB2:  SUBLW  01
05AB4:  BNZ   5AC0
....................                if(DiaTx>30){ 
05AB6:  MOVF   x18,W
05AB8:  SUBLW  1E
05ABA:  BC    5AC0
....................                   DiaTx=30;  
05ABC:  MOVLW  1E
05ABE:  MOVWF  x18
....................                   //glcd_fillScreen(OFF); 
....................                } 
....................             } 
....................          } 
....................       } 
.................... } 
05AC0:  MOVLB  0
05AC2:  GOTO   A082 (RETURN)
....................  
.................... // Funcion para conversor analogo-digital 
.................... float sensores(int x){ 
.................... float y;set_adc_channel(x);delay_ms(1);y=read_adc();return (y); 
*
04038:  MOVLB  6
0403A:  RLCF   x32,W
0403C:  MOVWF  00
0403E:  RLCF   00,F
04040:  MOVLW  FC
04042:  ANDWF  00,F
04044:  MOVFF  00,01
04048:  MOVF   FC2,W
0404A:  ANDLW  C3
0404C:  IORWF  00,W
0404E:  MOVWF  FC2
04050:  MOVLW  01
04052:  MOVWF  x37
04054:  MOVLB  0
04056:  CALL   1F36
0405A:  BSF    FC2.1
0405C:  BTFSC  FC2.1
0405E:  BRA    405C
04060:  MOVFF  FC4,638
04064:  MOVFF  FC3,637
04068:  MOVLB  0
0406A:  CALL   1F00
0406E:  MOVFF  03,636
04072:  MOVFF  02,635
04076:  MOVFF  01,634
0407A:  MOVFF  00,633
0407E:  MOVFF  633,00
04082:  MOVFF  634,01
04086:  MOVFF  635,02
0408A:  MOVFF  636,03
.................... } 
0408E:  RETLW  00
....................  
.................... float LeerPT100(int8 canal,int media) 
.................... { 
04090:  MOVLW  99
04092:  MOVLB  6
04094:  MOVWF  x27
04096:  MOVLW  11
04098:  MOVWF  x26
0409A:  MOVLW  BD
0409C:  MOVWF  x25
0409E:  MOVLW  73
040A0:  MOVWF  x24
040A2:  MOVLW  DA
040A4:  MOVWF  x2B
040A6:  MOVLW  72
040A8:  MOVWF  x2A
040AA:  MOVLW  1E
040AC:  MOVWF  x29
040AE:  MOVLW  7D
040B0:  MOVWF  x28
040B2:  MOVLW  CB
040B4:  MOVWF  x2F
040B6:  MOVLW  A1
040B8:  MOVWF  x2E
040BA:  MOVLW  11
040BC:  MOVWF  x2D
040BE:  MOVLW  85
040C0:  MOVWF  x2C
....................    float pa=-0.00036062,pb=0.30947,pc=72.816; 
....................    if(PresionCamara<140){ 
040C2:  MOVLB  1
040C4:  MOVF   xEC,F
040C6:  BTFSS  FD8.2
040C8:  GOTO   4B88
040CC:  MOVF   xEB,W
040CE:  SUBLW  8B
040D0:  BTFSS  FD8.0
040D2:  GOTO   4B88
....................       Prom=0.0; 
040D6:  CLRF   x8E
040D8:  CLRF   x8D
040DA:  CLRF   x8C
040DC:  CLRF   x8B
....................       Sensor[canal].V0 = sensores(canal);   //Lectura de Divisor de Voltaje de PT100 con resistencia de 6.18k (+-2%) 
040DE:  MOVLB  6
040E0:  CLRF   x37
040E2:  MOVFF  622,636
040E6:  MOVLW  01
040E8:  MOVWF  x39
040EA:  MOVLW  64
040EC:  MOVWF  x38
040EE:  MOVLB  0
040F0:  CALL   23A8
040F4:  MOVFF  01,630
040F8:  MOVLW  08
040FA:  MOVLB  6
040FC:  ADDWF  01,W
040FE:  MOVWF  01
04100:  MOVLW  00
04102:  ADDWFC 02,W
04104:  MOVWF  03
04106:  MOVF   01,W
04108:  ADDLW  92
0410A:  MOVWF  01
0410C:  MOVLW  02
0410E:  ADDWFC 03,F
04110:  MOVFF  01,630
04114:  MOVFF  03,631
04118:  MOVFF  622,632
0411C:  MOVLB  0
0411E:  RCALL  4038
04120:  MOVFF  631,FEA
04124:  MOVFF  630,FE9
04128:  MOVFF  00,FEF
0412C:  MOVFF  01,FEC
04130:  MOVFF  02,FEC
04134:  MOVFF  03,FEC
....................       Sensor[canal].V0 = Sensor[canal].V0/Sensor[canal].Gain; // Se elimina la ganancia 
04138:  MOVLB  6
0413A:  CLRF   x37
0413C:  MOVFF  622,636
04140:  MOVLW  01
04142:  MOVWF  x39
04144:  MOVLW  64
04146:  MOVWF  x38
04148:  MOVLB  0
0414A:  CALL   23A8
0414E:  MOVFF  01,630
04152:  MOVLW  08
04154:  MOVLB  6
04156:  ADDWF  01,W
04158:  MOVWF  01
0415A:  MOVLW  00
0415C:  ADDWFC 02,W
0415E:  MOVWF  03
04160:  MOVF   01,W
04162:  ADDLW  92
04164:  MOVWF  01
04166:  MOVLW  02
04168:  ADDWFC 03,F
0416A:  MOVFF  01,630
0416E:  MOVFF  03,631
04172:  CLRF   x37
04174:  MOVFF  622,636
04178:  MOVLW  01
0417A:  MOVWF  x39
0417C:  MOVLW  64
0417E:  MOVWF  x38
04180:  MOVLB  0
04182:  CALL   23A8
04186:  MOVFF  01,632
0418A:  MOVLW  08
0418C:  MOVLB  6
0418E:  ADDWF  01,W
04190:  MOVWF  01
04192:  MOVLW  00
04194:  ADDWFC 02,W
04196:  MOVWF  03
04198:  MOVF   01,W
0419A:  ADDLW  92
0419C:  MOVWF  FE9
0419E:  MOVLW  02
041A0:  ADDWFC 03,W
041A2:  MOVWF  FEA
041A4:  MOVFF  FEF,632
041A8:  MOVFF  FEC,633
041AC:  MOVFF  FEC,634
041B0:  MOVFF  FEC,635
041B4:  CLRF   x37
041B6:  MOVFF  622,636
041BA:  MOVLW  01
041BC:  MOVWF  x39
041BE:  MOVLW  64
041C0:  MOVWF  x38
041C2:  MOVLB  0
041C4:  CALL   23A8
041C8:  MOVFF  02,637
041CC:  MOVFF  01,636
041D0:  MOVLW  60
041D2:  MOVLB  6
041D4:  ADDWF  01,W
041D6:  MOVWF  01
041D8:  MOVLW  01
041DA:  ADDWFC 02,W
041DC:  MOVWF  03
041DE:  MOVF   01,W
041E0:  ADDLW  92
041E2:  MOVWF  FE9
041E4:  MOVLW  02
041E6:  ADDWFC 03,W
041E8:  MOVWF  FEA
041EA:  MOVFF  FEF,00
041EE:  MOVFF  FEC,01
041F2:  MOVFF  FEC,02
041F6:  MOVFF  FEC,03
041FA:  MOVFF  635,63B
041FE:  MOVFF  634,63A
04202:  MOVFF  633,639
04206:  MOVFF  632,638
0420A:  MOVFF  03,63F
0420E:  MOVFF  02,63E
04212:  MOVFF  01,63D
04216:  MOVFF  00,63C
0421A:  MOVLB  0
0421C:  CALL   1F5E
04220:  MOVFF  631,FEA
04224:  MOVFF  630,FE9
04228:  MOVFF  00,FEF
0422C:  MOVFF  01,FEC
04230:  MOVFF  02,FEC
04234:  MOVFF  03,FEC
....................       Sensor[canal].BN=(Sensor[canal].V0*(R8+R9))+(1023*R9); 
04238:  MOVLB  6
0423A:  CLRF   x37
0423C:  MOVFF  622,636
04240:  MOVLW  01
04242:  MOVWF  x39
04244:  MOVLW  64
04246:  MOVWF  x38
04248:  MOVLB  0
0424A:  CALL   23A8
0424E:  MOVFF  01,630
04252:  MOVLW  92
04254:  MOVLB  6
04256:  ADDWF  01,W
04258:  MOVWF  01
0425A:  MOVLW  02
0425C:  ADDWFC 02,W
0425E:  MOVWF  03
04260:  MOVFF  01,630
04264:  MOVWF  x31
04266:  CLRF   x37
04268:  MOVFF  622,636
0426C:  MOVLW  01
0426E:  MOVWF  x39
04270:  MOVLW  64
04272:  MOVWF  x38
04274:  MOVLB  0
04276:  CALL   23A8
0427A:  MOVFF  01,632
0427E:  MOVLW  08
04280:  MOVLB  6
04282:  ADDWF  01,W
04284:  MOVWF  01
04286:  MOVLW  00
04288:  ADDWFC 02,W
0428A:  MOVWF  03
0428C:  MOVF   01,W
0428E:  ADDLW  92
04290:  MOVWF  FE9
04292:  MOVLW  02
04294:  ADDWFC 03,W
04296:  MOVWF  FEA
04298:  MOVFF  FEF,632
0429C:  MOVFF  FEC,633
042A0:  MOVFF  FEC,634
042A4:  MOVFF  FEC,635
042A8:  MOVFF  FEA,637
042AC:  MOVFF  FE9,636
042B0:  BCF    FD8.1
042B2:  MOVFF  150,63D
042B6:  MOVFF  14F,63C
042BA:  MOVFF  14E,63B
042BE:  MOVFF  14D,63A
042C2:  MOVFF  154,641
042C6:  MOVFF  153,640
042CA:  MOVFF  152,63F
042CE:  MOVFF  151,63E
042D2:  MOVLB  0
042D4:  CALL   20BC
042D8:  MOVFF  637,FEA
042DC:  MOVFF  636,FE9
042E0:  MOVFF  635,63B
042E4:  MOVFF  634,63A
042E8:  MOVFF  633,639
042EC:  MOVFF  632,638
042F0:  MOVFF  03,63F
042F4:  MOVFF  02,63E
042F8:  MOVFF  01,63D
042FC:  MOVFF  00,63C
04300:  RCALL  3F42
04302:  MOVFF  00,632
04306:  MOVFF  01,633
0430A:  MOVFF  02,634
0430E:  MOVFF  03,635
04312:  MOVLB  6
04314:  CLRF   x3B
04316:  MOVLW  C0
04318:  MOVWF  x3A
0431A:  MOVLW  7F
0431C:  MOVWF  x39
0431E:  MOVLW  88
04320:  MOVWF  x38
04322:  MOVFF  154,63F
04326:  MOVFF  153,63E
0432A:  MOVFF  152,63D
0432E:  MOVFF  151,63C
04332:  MOVLB  0
04334:  RCALL  3F42
04336:  MOVFF  FEA,639
0433A:  MOVFF  FE9,638
0433E:  BCF    FD8.1
04340:  MOVFF  635,63D
04344:  MOVFF  634,63C
04348:  MOVFF  633,63B
0434C:  MOVFF  632,63A
04350:  MOVFF  03,641
04354:  MOVFF  02,640
04358:  MOVFF  01,63F
0435C:  MOVFF  00,63E
04360:  CALL   20BC
04364:  MOVFF  639,FEA
04368:  MOVFF  638,FE9
0436C:  MOVFF  631,FEA
04370:  MOVFF  630,FE9
04374:  MOVFF  00,FEF
04378:  MOVFF  01,FEC
0437C:  MOVFF  02,FEC
04380:  MOVFF  03,FEC
....................       Sensor[canal].Pt=(R10/((AN/Sensor[canal].BN)-1))-R7; 
04384:  MOVLB  6
04386:  CLRF   x37
04388:  MOVFF  622,636
0438C:  MOVLW  01
0438E:  MOVWF  x39
04390:  MOVLW  64
04392:  MOVWF  x38
04394:  MOVLB  0
04396:  CALL   23A8
0439A:  MOVFF  01,630
0439E:  MOVLW  0C
043A0:  MOVLB  6
043A2:  ADDWF  01,W
043A4:  MOVWF  01
043A6:  MOVLW  00
043A8:  ADDWFC 02,W
043AA:  MOVWF  03
043AC:  MOVF   01,W
043AE:  ADDLW  92
043B0:  MOVWF  01
043B2:  MOVLW  02
043B4:  ADDWFC 03,F
043B6:  MOVFF  01,630
043BA:  MOVFF  03,631
043BE:  CLRF   x37
043C0:  MOVFF  622,636
043C4:  MOVLW  01
043C6:  MOVWF  x39
043C8:  MOVLW  64
043CA:  MOVWF  x38
043CC:  MOVLB  0
043CE:  CALL   23A8
043D2:  MOVFF  02,633
043D6:  MOVFF  01,632
043DA:  MOVLW  92
043DC:  MOVLB  6
043DE:  ADDWF  01,W
043E0:  MOVWF  FE9
043E2:  MOVLW  02
043E4:  ADDWFC 02,W
043E6:  MOVWF  FEA
043E8:  MOVFF  FEF,00
043EC:  MOVFF  FEC,01
043F0:  MOVFF  FEC,02
043F4:  MOVFF  FEC,03
043F8:  MOVFF  15C,63B
043FC:  MOVFF  15B,63A
04400:  MOVFF  15A,639
04404:  MOVFF  159,638
04408:  MOVFF  03,63F
0440C:  MOVFF  02,63E
04410:  MOVFF  01,63D
04414:  MOVFF  00,63C
04418:  MOVLB  0
0441A:  CALL   1F5E
0441E:  MOVFF  00,632
04422:  MOVFF  01,633
04426:  MOVFF  02,634
0442A:  MOVFF  03,635
0442E:  MOVFF  FEA,637
04432:  MOVFF  FE9,636
04436:  BSF    FD8.1
04438:  MOVFF  03,63D
0443C:  MOVFF  02,63C
04440:  MOVFF  01,63B
04444:  MOVFF  00,63A
04448:  MOVLB  6
0444A:  CLRF   x41
0444C:  CLRF   x40
0444E:  CLRF   x3F
04450:  MOVLW  7F
04452:  MOVWF  x3E
04454:  MOVLB  0
04456:  CALL   20BC
0445A:  MOVFF  637,FEA
0445E:  MOVFF  636,FE9
04462:  MOVFF  158,63B
04466:  MOVFF  157,63A
0446A:  MOVFF  156,639
0446E:  MOVFF  155,638
04472:  MOVFF  03,63F
04476:  MOVFF  02,63E
0447A:  MOVFF  01,63D
0447E:  MOVFF  00,63C
04482:  CALL   1F5E
04486:  MOVFF  00,632
0448A:  MOVFF  01,633
0448E:  MOVFF  02,634
04492:  MOVFF  03,635
04496:  MOVFF  FEA,639
0449A:  MOVFF  FE9,638
0449E:  BSF    FD8.1
044A0:  MOVFF  03,63D
044A4:  MOVFF  02,63C
044A8:  MOVFF  01,63B
044AC:  MOVFF  00,63A
044B0:  MOVFF  14C,641
044B4:  MOVFF  14B,640
044B8:  MOVFF  14A,63F
044BC:  MOVFF  149,63E
044C0:  CALL   20BC
044C4:  MOVFF  639,FEA
044C8:  MOVFF  638,FE9
044CC:  MOVFF  631,FEA
044D0:  MOVFF  630,FE9
044D4:  MOVFF  00,FEF
044D8:  MOVFF  01,FEC
044DC:  MOVFF  02,FEC
044E0:  MOVFF  03,FEC
....................       Sensor[canal].Pt=Sensor[canal].Pt-Sensor[canal].RPT100; //Ajuste de impedancia de cableado de PT100    
044E4:  MOVLB  6
044E6:  CLRF   x37
044E8:  MOVFF  622,636
044EC:  MOVLW  01
044EE:  MOVWF  x39
044F0:  MOVLW  64
044F2:  MOVWF  x38
044F4:  MOVLB  0
044F6:  CALL   23A8
044FA:  MOVFF  01,630
044FE:  MOVLW  0C
04500:  MOVLB  6
04502:  ADDWF  01,W
04504:  MOVWF  01
04506:  MOVLW  00
04508:  ADDWFC 02,W
0450A:  MOVWF  03
0450C:  MOVF   01,W
0450E:  ADDLW  92
04510:  MOVWF  01
04512:  MOVLW  02
04514:  ADDWFC 03,F
04516:  MOVFF  01,630
0451A:  MOVFF  03,631
0451E:  CLRF   x37
04520:  MOVFF  622,636
04524:  MOVLW  01
04526:  MOVWF  x39
04528:  MOVLW  64
0452A:  MOVWF  x38
0452C:  MOVLB  0
0452E:  CALL   23A8
04532:  MOVFF  01,632
04536:  MOVLW  0C
04538:  MOVLB  6
0453A:  ADDWF  01,W
0453C:  MOVWF  01
0453E:  MOVLW  00
04540:  ADDWFC 02,W
04542:  MOVWF  03
04544:  MOVF   01,W
04546:  ADDLW  92
04548:  MOVWF  FE9
0454A:  MOVLW  02
0454C:  ADDWFC 03,W
0454E:  MOVWF  FEA
04550:  MOVFF  FEF,632
04554:  MOVFF  FEC,633
04558:  MOVFF  FEC,634
0455C:  MOVFF  FEC,635
04560:  CLRF   x37
04562:  MOVFF  622,636
04566:  MOVLW  01
04568:  MOVWF  x39
0456A:  MOVLW  64
0456C:  MOVWF  x38
0456E:  MOVLB  0
04570:  CALL   23A8
04574:  MOVFF  02,637
04578:  MOVFF  01,636
0457C:  MOVLW  10
0457E:  MOVLB  6
04580:  ADDWF  01,W
04582:  MOVWF  01
04584:  MOVLW  00
04586:  ADDWFC 02,W
04588:  MOVWF  03
0458A:  MOVF   01,W
0458C:  ADDLW  92
0458E:  MOVWF  FE9
04590:  MOVLW  02
04592:  ADDWFC 03,W
04594:  MOVWF  FEA
04596:  MOVFF  FEF,00
0459A:  MOVFF  FEC,01
0459E:  MOVFF  FEC,02
045A2:  MOVFF  FEC,03
045A6:  MOVFF  FEA,637
045AA:  MOVFF  FE9,636
045AE:  BSF    FD8.1
045B0:  MOVFF  635,63D
045B4:  MOVFF  634,63C
045B8:  MOVFF  633,63B
045BC:  MOVFF  632,63A
045C0:  MOVFF  03,641
045C4:  MOVFF  02,640
045C8:  MOVFF  01,63F
045CC:  MOVFF  00,63E
045D0:  MOVLB  0
045D2:  CALL   20BC
045D6:  MOVFF  637,FEA
045DA:  MOVFF  636,FE9
045DE:  MOVFF  631,FEA
045E2:  MOVFF  630,FE9
045E6:  MOVFF  00,FEF
045EA:  MOVFF  01,FEC
045EE:  MOVFF  02,FEC
045F2:  MOVFF  03,FEC
....................                 
....................       if(Sensor[canal].l>(media-1)) 
045F6:  MOVLB  6
045F8:  CLRF   x37
045FA:  MOVFF  622,636
045FE:  MOVLW  01
04600:  MOVWF  x39
04602:  MOVLW  64
04604:  MOVWF  x38
04606:  MOVLB  0
04608:  CALL   23A8
0460C:  MOVFF  02,631
04610:  MOVFF  01,630
04614:  MOVLW  14
04616:  MOVLB  6
04618:  ADDWF  01,W
0461A:  MOVWF  01
0461C:  MOVLW  00
0461E:  ADDWFC 02,W
04620:  MOVWF  03
04622:  MOVF   01,W
04624:  ADDLW  92
04626:  MOVWF  FE9
04628:  MOVLW  02
0462A:  ADDWFC 03,W
0462C:  MOVWF  FEA
0462E:  MOVFF  FEF,630
04632:  MOVLW  01
04634:  SUBWF  x23,W
04636:  SUBWF  x30,W
04638:  BZ    4670
0463A:  BNC   4670
....................       {Sensor[canal].l=0;} 
0463C:  CLRF   x37
0463E:  MOVFF  622,636
04642:  MOVLW  01
04644:  MOVWF  x39
04646:  MOVLW  64
04648:  MOVWF  x38
0464A:  MOVLB  0
0464C:  CALL   23A8
04650:  MOVFF  01,630
04654:  MOVLW  14
04656:  MOVLB  6
04658:  ADDWF  01,W
0465A:  MOVWF  01
0465C:  MOVLW  00
0465E:  ADDWFC 02,W
04660:  MOVWF  03
04662:  MOVF   01,W
04664:  ADDLW  92
04666:  MOVWF  FE9
04668:  MOVLW  02
0466A:  ADDWFC 03,W
0466C:  MOVWF  FEA
0466E:  CLRF   FEF
....................        
....................       Sensor[canal].promedio[Sensor[canal].l]=Sensor[canal].Pt;Sensor[canal].l++; 
04670:  CLRF   x37
04672:  MOVFF  622,636
04676:  MOVLW  01
04678:  MOVWF  x39
0467A:  MOVLW  64
0467C:  MOVWF  x38
0467E:  MOVLB  0
04680:  CALL   23A8
04684:  MOVFF  02,631
04688:  MOVFF  01,630
0468C:  MOVLW  20
0468E:  MOVLB  6
04690:  ADDWF  x30,F
04692:  MOVLW  00
04694:  ADDWFC x31,F
04696:  CLRF   x37
04698:  MOVFF  622,636
0469C:  MOVLW  01
0469E:  MOVWF  x39
046A0:  MOVLW  64
046A2:  MOVWF  x38
046A4:  MOVLB  0
046A6:  CALL   23A8
046AA:  MOVFF  02,633
046AE:  MOVFF  01,632
046B2:  MOVLW  14
046B4:  MOVLB  6
046B6:  ADDWF  01,W
046B8:  MOVWF  01
046BA:  MOVLW  00
046BC:  ADDWFC 02,W
046BE:  MOVWF  03
046C0:  MOVF   01,W
046C2:  ADDLW  92
046C4:  MOVWF  FE9
046C6:  MOVLW  02
046C8:  ADDWFC 03,W
046CA:  MOVWF  FEA
046CC:  CLRF   x37
046CE:  MOVFF  FEF,636
046D2:  CLRF   x39
046D4:  MOVLW  04
046D6:  MOVWF  x38
046D8:  MOVLB  0
046DA:  CALL   23A8
046DE:  MOVFF  02,03
046E2:  MOVF   01,W
046E4:  MOVLB  6
046E6:  ADDWF  x30,W
046E8:  MOVWF  01
046EA:  MOVF   x31,W
046EC:  ADDWFC 03,F
046EE:  MOVF   01,W
046F0:  ADDLW  92
046F2:  MOVWF  01
046F4:  MOVLW  02
046F6:  ADDWFC 03,F
046F8:  MOVFF  01,630
046FC:  MOVFF  03,631
04700:  CLRF   x37
04702:  MOVFF  622,636
04706:  MOVLW  01
04708:  MOVWF  x39
0470A:  MOVLW  64
0470C:  MOVWF  x38
0470E:  MOVLB  0
04710:  CALL   23A8
04714:  MOVFF  02,633
04718:  MOVFF  01,632
0471C:  MOVLW  0C
0471E:  MOVLB  6
04720:  ADDWF  01,W
04722:  MOVWF  01
04724:  MOVLW  00
04726:  ADDWFC 02,W
04728:  MOVWF  03
0472A:  MOVF   01,W
0472C:  ADDLW  92
0472E:  MOVWF  FE9
04730:  MOVLW  02
04732:  ADDWFC 03,W
04734:  MOVWF  FEA
04736:  MOVFF  FEF,00
0473A:  MOVFF  FEC,01
0473E:  MOVFF  FEC,02
04742:  MOVFF  FEC,03
04746:  MOVFF  631,FEA
0474A:  MOVFF  630,FE9
0474E:  MOVFF  00,FEF
04752:  MOVFF  01,FEC
04756:  MOVFF  02,FEC
0475A:  MOVFF  03,FEC
0475E:  CLRF   x37
04760:  MOVFF  622,636
04764:  MOVLW  01
04766:  MOVWF  x39
04768:  MOVLW  64
0476A:  MOVWF  x38
0476C:  MOVLB  0
0476E:  CALL   23A8
04772:  MOVFF  01,630
04776:  MOVLW  14
04778:  MOVLB  6
0477A:  ADDWF  01,W
0477C:  MOVWF  01
0477E:  MOVLW  00
04780:  ADDWFC 02,W
04782:  MOVWF  03
04784:  MOVF   01,W
04786:  ADDLW  92
04788:  MOVWF  FE9
0478A:  MOVLW  02
0478C:  ADDWFC 03,W
0478E:  MOVWF  FEA
04790:  INCF   FEF,F
....................              
....................       for(Sensor[canal].h=0;Sensor[canal].h<media;Sensor[canal].h++) 
04792:  CLRF   x37
04794:  MOVFF  622,636
04798:  MOVLW  01
0479A:  MOVWF  x39
0479C:  MOVLW  64
0479E:  MOVWF  x38
047A0:  MOVLB  0
047A2:  CALL   23A8
047A6:  MOVFF  02,631
047AA:  MOVFF  01,630
047AE:  MOVLW  15
047B0:  MOVLB  6
047B2:  ADDWF  01,W
047B4:  MOVWF  01
047B6:  MOVLW  00
047B8:  ADDWFC 02,W
047BA:  MOVWF  03
047BC:  MOVF   01,W
047BE:  ADDLW  92
047C0:  MOVWF  FE9
047C2:  MOVLW  02
047C4:  ADDWFC 03,W
047C6:  MOVWF  FEA
047C8:  CLRF   FEF
047CA:  CLRF   x37
047CC:  MOVFF  622,636
047D0:  MOVLW  01
047D2:  MOVWF  x39
047D4:  MOVLW  64
047D6:  MOVWF  x38
047D8:  MOVLB  0
047DA:  CALL   23A8
047DE:  MOVFF  02,631
047E2:  MOVFF  01,630
047E6:  MOVLW  15
047E8:  MOVLB  6
047EA:  ADDWF  01,W
047EC:  MOVWF  01
047EE:  MOVLW  00
047F0:  ADDWFC 02,W
047F2:  MOVWF  03
047F4:  MOVF   01,W
047F6:  ADDLW  92
047F8:  MOVWF  FE9
047FA:  MOVLW  02
047FC:  ADDWFC 03,W
047FE:  MOVWF  FEA
04800:  MOVF   x23,W
04802:  SUBWF  FEF,W
04804:  BTFSC  FD8.0
04806:  BRA    4926
....................       { 
....................          Prom+=Sensor[canal].promedio[Sensor[canal].h]; 
04808:  CLRF   x37
0480A:  MOVFF  622,636
0480E:  MOVLW  01
04810:  MOVWF  x39
04812:  MOVLW  64
04814:  MOVWF  x38
04816:  MOVLB  0
04818:  CALL   23A8
0481C:  MOVFF  02,631
04820:  MOVFF  01,630
04824:  MOVLW  20
04826:  MOVLB  6
04828:  ADDWF  x30,F
0482A:  MOVLW  00
0482C:  ADDWFC x31,F
0482E:  CLRF   x37
04830:  MOVFF  622,636
04834:  MOVLW  01
04836:  MOVWF  x39
04838:  MOVLW  64
0483A:  MOVWF  x38
0483C:  MOVLB  0
0483E:  CALL   23A8
04842:  MOVFF  02,633
04846:  MOVFF  01,632
0484A:  MOVLW  15
0484C:  MOVLB  6
0484E:  ADDWF  01,W
04850:  MOVWF  01
04852:  MOVLW  00
04854:  ADDWFC 02,W
04856:  MOVWF  03
04858:  MOVF   01,W
0485A:  ADDLW  92
0485C:  MOVWF  FE9
0485E:  MOVLW  02
04860:  ADDWFC 03,W
04862:  MOVWF  FEA
04864:  CLRF   x37
04866:  MOVFF  FEF,636
0486A:  CLRF   x39
0486C:  MOVLW  04
0486E:  MOVWF  x38
04870:  MOVLB  0
04872:  CALL   23A8
04876:  MOVFF  02,03
0487A:  MOVF   01,W
0487C:  MOVLB  6
0487E:  ADDWF  x30,W
04880:  MOVWF  01
04882:  MOVF   x31,W
04884:  ADDWFC 03,F
04886:  MOVF   01,W
04888:  ADDLW  92
0488A:  MOVWF  FE9
0488C:  MOVLW  02
0488E:  ADDWFC 03,W
04890:  MOVWF  FEA
04892:  MOVFF  FEF,00
04896:  MOVFF  FEC,01
0489A:  MOVFF  FEC,02
0489E:  MOVFF  FEC,03
048A2:  MOVFF  FEA,631
048A6:  MOVFF  FE9,630
048AA:  BCF    FD8.1
048AC:  MOVFF  18E,63D
048B0:  MOVFF  18D,63C
048B4:  MOVFF  18C,63B
048B8:  MOVFF  18B,63A
048BC:  MOVFF  03,641
048C0:  MOVFF  02,640
048C4:  MOVFF  01,63F
048C8:  MOVFF  00,63E
048CC:  MOVLB  0
048CE:  CALL   20BC
048D2:  MOVFF  631,FEA
048D6:  MOVFF  630,FE9
048DA:  MOVFF  03,18E
048DE:  MOVFF  02,18D
048E2:  MOVFF  01,18C
048E6:  MOVFF  00,18B
....................       }  
048EA:  MOVLB  6
048EC:  CLRF   x37
048EE:  MOVFF  622,636
048F2:  MOVLW  01
048F4:  MOVWF  x39
048F6:  MOVLW  64
048F8:  MOVWF  x38
048FA:  MOVLB  0
048FC:  CALL   23A8
04900:  MOVFF  02,631
04904:  MOVFF  01,630
04908:  MOVLW  15
0490A:  MOVLB  6
0490C:  ADDWF  01,W
0490E:  MOVWF  01
04910:  MOVLW  00
04912:  ADDWFC 02,W
04914:  MOVWF  03
04916:  MOVF   01,W
04918:  ADDLW  92
0491A:  MOVWF  FE9
0491C:  MOVLW  02
0491E:  ADDWFC 03,W
04920:  MOVWF  FEA
04922:  INCF   FEF,F
04924:  BRA    47CA
....................       Prom=Prom/media;    
04926:  CLRF   x38
04928:  MOVFF  623,637
0492C:  MOVLB  0
0492E:  CALL   1F00
04932:  MOVFF  18E,63B
04936:  MOVFF  18D,63A
0493A:  MOVFF  18C,639
0493E:  MOVFF  18B,638
04942:  MOVFF  03,63F
04946:  MOVFF  02,63E
0494A:  MOVFF  01,63D
0494E:  MOVFF  00,63C
04952:  CALL   1F5E
04956:  MOVFF  03,18E
0495A:  MOVFF  02,18D
0495E:  MOVFF  01,18C
04962:  MOVFF  00,18B
....................       //Temperature=(Prom-100.0)/(0.385);  // Ecuacin determinada por linealizacin en Matlab. Revisar este polinomio.   
....................       Temperature=((Prom*Prom)*a)+(Prom*b)+c;  // Ecuacin determinada por linealizacin en Matlab. Revisar este polinomio. 
04966:  MOVFF  18E,63B
0496A:  MOVFF  18D,63A
0496E:  MOVFF  18C,639
04972:  MOVFF  18B,638
04976:  MOVFF  18E,63F
0497A:  MOVFF  18D,63E
0497E:  MOVFF  18C,63D
04982:  MOVFF  18B,63C
04986:  CALL   3F42
0498A:  MOVFF  00,630
0498E:  MOVFF  01,631
04992:  MOVFF  02,632
04996:  MOVFF  03,633
0499A:  MOVFF  03,63B
0499E:  MOVFF  02,63A
049A2:  MOVFF  01,639
049A6:  MOVFF  00,638
049AA:  MOVFF  1BE,63F
049AE:  MOVFF  1BD,63E
049B2:  MOVFF  1BC,63D
049B6:  MOVFF  1BB,63C
049BA:  CALL   3F42
049BE:  MOVFF  00,630
049C2:  MOVFF  01,631
049C6:  MOVFF  02,632
049CA:  MOVFF  03,633
049CE:  MOVFF  18E,63B
049D2:  MOVFF  18D,63A
049D6:  MOVFF  18C,639
049DA:  MOVFF  18B,638
049DE:  MOVFF  1C2,63F
049E2:  MOVFF  1C1,63E
049E6:  MOVFF  1C0,63D
049EA:  MOVFF  1BF,63C
049EE:  CALL   3F42
049F2:  BCF    FD8.1
049F4:  MOVFF  633,63D
049F8:  MOVFF  632,63C
049FC:  MOVFF  631,63B
04A00:  MOVFF  630,63A
04A04:  MOVFF  03,641
04A08:  MOVFF  02,640
04A0C:  MOVFF  01,63F
04A10:  MOVFF  00,63E
04A14:  CALL   20BC
04A18:  MOVFF  00,630
04A1C:  MOVFF  01,631
04A20:  MOVFF  02,632
04A24:  MOVFF  03,633
04A28:  BCF    FD8.1
04A2A:  MOVFF  03,63D
04A2E:  MOVFF  02,63C
04A32:  MOVFF  01,63B
04A36:  MOVFF  00,63A
04A3A:  MOVFF  1C6,641
04A3E:  MOVFF  1C5,640
04A42:  MOVFF  1C4,63F
04A46:  MOVFF  1C3,63E
04A4A:  CALL   20BC
04A4E:  MOVFF  03,192
04A52:  MOVFF  02,191
04A56:  MOVFF  01,190
04A5A:  MOVFF  00,18F
....................       Temperature+=((float)Sensor[canal].Ajuste-(float)Sensor[canal].Ajusten); 
04A5E:  MOVLB  6
04A60:  CLRF   x37
04A62:  MOVFF  622,636
04A66:  MOVLW  01
04A68:  MOVWF  x39
04A6A:  MOVLW  64
04A6C:  MOVWF  x38
04A6E:  MOVLB  0
04A70:  CALL   23A8
04A74:  MOVFF  02,631
04A78:  MOVFF  01,630
04A7C:  MOVLW  1E
04A7E:  MOVLB  6
04A80:  ADDWF  01,W
04A82:  MOVWF  01
04A84:  MOVLW  00
04A86:  ADDWFC 02,W
04A88:  MOVWF  03
04A8A:  MOVF   01,W
04A8C:  ADDLW  92
04A8E:  MOVWF  FE9
04A90:  MOVLW  02
04A92:  ADDWFC 03,W
04A94:  MOVWF  FEA
04A96:  MOVF   FEF,W
04A98:  CLRF   x38
04A9A:  MOVWF  x37
04A9C:  MOVLB  0
04A9E:  CALL   1F00
04AA2:  MOVFF  00,630
04AA6:  MOVFF  01,631
04AAA:  MOVFF  02,632
04AAE:  MOVFF  03,633
04AB2:  MOVLB  6
04AB4:  CLRF   x37
04AB6:  MOVFF  622,636
04ABA:  MOVLW  01
04ABC:  MOVWF  x39
04ABE:  MOVLW  64
04AC0:  MOVWF  x38
04AC2:  MOVLB  0
04AC4:  CALL   23A8
04AC8:  MOVFF  02,635
04ACC:  MOVFF  01,634
04AD0:  MOVLW  1F
04AD2:  MOVLB  6
04AD4:  ADDWF  01,W
04AD6:  MOVWF  01
04AD8:  MOVLW  00
04ADA:  ADDWFC 02,W
04ADC:  MOVWF  03
04ADE:  MOVF   01,W
04AE0:  ADDLW  92
04AE2:  MOVWF  FE9
04AE4:  MOVLW  02
04AE6:  ADDWFC 03,W
04AE8:  MOVWF  FEA
04AEA:  MOVF   FEF,W
04AEC:  CLRF   x38
04AEE:  MOVWF  x37
04AF0:  MOVLB  0
04AF2:  CALL   1F00
04AF6:  MOVFF  FEA,635
04AFA:  MOVFF  FE9,634
04AFE:  BSF    FD8.1
04B00:  MOVFF  633,63D
04B04:  MOVFF  632,63C
04B08:  MOVFF  631,63B
04B0C:  MOVFF  630,63A
04B10:  MOVFF  03,641
04B14:  MOVFF  02,640
04B18:  MOVFF  01,63F
04B1C:  MOVFF  00,63E
04B20:  CALL   20BC
04B24:  MOVFF  635,FEA
04B28:  MOVFF  634,FE9
04B2C:  MOVFF  FEA,631
04B30:  MOVFF  FE9,630
04B34:  BCF    FD8.1
04B36:  MOVFF  192,63D
04B3A:  MOVFF  191,63C
04B3E:  MOVFF  190,63B
04B42:  MOVFF  18F,63A
04B46:  MOVFF  03,641
04B4A:  MOVFF  02,640
04B4E:  MOVFF  01,63F
04B52:  MOVFF  00,63E
04B56:  CALL   20BC
04B5A:  MOVFF  631,FEA
04B5E:  MOVFF  630,FE9
04B62:  MOVFF  03,192
04B66:  MOVFF  02,191
04B6A:  MOVFF  01,190
04B6E:  MOVFF  00,18F
....................        
....................       return Temperature; 
04B72:  MOVFF  18F,00
04B76:  MOVFF  190,01
04B7A:  MOVFF  191,02
04B7E:  MOVFF  192,03
04B82:  BRA    4C94
....................    }else{ 
04B84:  BRA    4C94
04B86:  MOVLB  1
....................       Temperature=(PresionCamara*PresionCamara*pa)+(PresionCamara*pb)+pc; 
04B88:  MOVFF  1EC,637
04B8C:  MOVFF  1EB,636
04B90:  MOVFF  1EC,639
04B94:  MOVFF  1EB,638
04B98:  MOVLB  0
04B9A:  CALL   23A8
04B9E:  MOVFF  02,631
04BA2:  MOVFF  01,630
04BA6:  MOVFF  02,638
04BAA:  MOVFF  01,637
04BAE:  CALL   1F00
04BB2:  MOVFF  03,63B
04BB6:  MOVFF  02,63A
04BBA:  MOVFF  01,639
04BBE:  MOVFF  00,638
04BC2:  MOVFF  627,63F
04BC6:  MOVFF  626,63E
04BCA:  MOVFF  625,63D
04BCE:  MOVFF  624,63C
04BD2:  CALL   3F42
04BD6:  MOVFF  00,630
04BDA:  MOVFF  01,631
04BDE:  MOVFF  02,632
04BE2:  MOVFF  03,633
04BE6:  MOVFF  1EC,638
04BEA:  MOVFF  1EB,637
04BEE:  CALL   1F00
04BF2:  MOVFF  03,63B
04BF6:  MOVFF  02,63A
04BFA:  MOVFF  01,639
04BFE:  MOVFF  00,638
04C02:  MOVFF  62B,63F
04C06:  MOVFF  62A,63E
04C0A:  MOVFF  629,63D
04C0E:  MOVFF  628,63C
04C12:  CALL   3F42
04C16:  BCF    FD8.1
04C18:  MOVFF  633,63D
04C1C:  MOVFF  632,63C
04C20:  MOVFF  631,63B
04C24:  MOVFF  630,63A
04C28:  MOVFF  03,641
04C2C:  MOVFF  02,640
04C30:  MOVFF  01,63F
04C34:  MOVFF  00,63E
04C38:  CALL   20BC
04C3C:  MOVFF  00,630
04C40:  MOVFF  01,631
04C44:  MOVFF  02,632
04C48:  MOVFF  03,633
04C4C:  BCF    FD8.1
04C4E:  MOVFF  03,63D
04C52:  MOVFF  02,63C
04C56:  MOVFF  01,63B
04C5A:  MOVFF  00,63A
04C5E:  MOVFF  62F,641
04C62:  MOVFF  62E,640
04C66:  MOVFF  62D,63F
04C6A:  MOVFF  62C,63E
04C6E:  CALL   20BC
04C72:  MOVFF  03,192
04C76:  MOVFF  02,191
04C7A:  MOVFF  01,190
04C7E:  MOVFF  00,18F
....................       return Temperature; 
04C82:  MOVFF  18F,00
04C86:  MOVFF  190,01
04C8A:  MOVFF  191,02
04C8E:  MOVFF  192,03
04C92:  BRA    4C94
....................    } 
.................... } 
04C94:  RETLW  00
....................  
.................... float Leer_Sensor_Presion_Camara(int media){ 
....................    promediopresion=0.0; 
*
04EE4:  MOVLB  1
04EE6:  CLRF   x6C
04EE8:  CLRF   x6B
04EEA:  CLRF   x6A
04EEC:  CLRF   x69
....................    V1 = sensores(2); 
04EEE:  MOVLW  02
04EF0:  MOVLB  6
04EF2:  MOVWF  x32
04EF4:  MOVLB  0
04EF6:  CALL   4038
04EFA:  MOVFF  03,1A6
04EFE:  MOVFF  02,1A5
04F02:  MOVFF  01,1A4
04F06:  MOVFF  00,1A3
....................    Presion=(0.06364*V1)-12.5; //R=240, V=5; Sensor de Presion Absoluta de 0-50PSIA 
04F0A:  MOVLW  B0
04F0C:  MOVLB  6
04F0E:  MOVWF  x3B
04F10:  MOVLW  55
04F12:  MOVWF  x3A
04F14:  MOVLW  02
04F16:  MOVWF  x39
04F18:  MOVLW  7B
04F1A:  MOVWF  x38
04F1C:  MOVFF  1A6,63F
04F20:  MOVFF  1A5,63E
04F24:  MOVFF  1A4,63D
04F28:  MOVFF  1A3,63C
04F2C:  MOVLB  0
04F2E:  CALL   3F42
04F32:  MOVFF  00,623
04F36:  MOVFF  01,624
04F3A:  MOVFF  02,625
04F3E:  MOVFF  03,626
04F42:  BSF    FD8.1
04F44:  MOVFF  03,63D
04F48:  MOVFF  02,63C
04F4C:  MOVFF  01,63B
04F50:  MOVFF  00,63A
04F54:  MOVLB  6
04F56:  CLRF   x41
04F58:  CLRF   x40
04F5A:  MOVLW  48
04F5C:  MOVWF  x3F
04F5E:  MOVLW  82
04F60:  MOVWF  x3E
04F62:  MOVLB  0
04F64:  CALL   20BC
04F68:  MOVFF  03,1AA
04F6C:  MOVFF  02,1A9
04F70:  MOVFF  01,1A8
04F74:  MOVFF  00,1A7
....................    Presion=Presion*6.89476; 
04F78:  MOVFF  1AA,63B
04F7C:  MOVFF  1A9,63A
04F80:  MOVFF  1A8,639
04F84:  MOVFF  1A7,638
04F88:  MOVLW  E0
04F8A:  MOVLB  6
04F8C:  MOVWF  x3F
04F8E:  MOVLW  A1
04F90:  MOVWF  x3E
04F92:  MOVLW  5C
04F94:  MOVWF  x3D
04F96:  MOVLW  81
04F98:  MOVWF  x3C
04F9A:  MOVLB  0
04F9C:  CALL   3F42
04FA0:  MOVFF  03,1AA
04FA4:  MOVFF  02,1A9
04FA8:  MOVFF  01,1A8
04FAC:  MOVFF  00,1A7
....................     
....................    if(Presion<0.0) 
04FB0:  MOVFF  1AA,629
04FB4:  MOVFF  1A9,628
04FB8:  MOVFF  1A8,627
04FBC:  MOVFF  1A7,626
04FC0:  MOVLB  6
04FC2:  CLRF   x2D
04FC4:  CLRF   x2C
04FC6:  CLRF   x2B
04FC8:  CLRF   x2A
04FCA:  MOVLB  0
04FCC:  CALL   2592
04FD0:  BNC   4FDC
....................       Presion=0.0; 
04FD2:  MOVLB  1
04FD4:  CLRF   xAA
04FD6:  CLRF   xA9
04FD8:  CLRF   xA8
04FDA:  CLRF   xA7
....................     
....................    if(r>media-1) 
04FDC:  MOVLW  01
04FDE:  MOVLB  6
04FE0:  SUBWF  x22,W
04FE2:  MOVLB  1
04FE4:  SUBWF  xF9,W
04FE6:  BZ    4FEC
04FE8:  BNC   4FEC
....................       r=0; 
04FEA:  CLRF   xF9
....................    PromPresion[r]=Presion;r++; 
04FEC:  MOVF   xF9,W
04FEE:  MULLW  04
04FF0:  MOVF   FF3,W
04FF2:  CLRF   03
04FF4:  ADDLW  A5
04FF6:  MOVWF  FE9
04FF8:  MOVLW  00
04FFA:  ADDWFC 03,W
04FFC:  MOVWF  FEA
04FFE:  MOVFF  1A7,FEF
05002:  MOVFF  1A8,FEC
05006:  MOVFF  1A9,FEC
0500A:  MOVFF  1AA,FEC
0500E:  INCF   xF9,F
....................           
....................    for(t=0;t<=(media-1);t++){ 
05010:  CLRF   xFA
05012:  MOVLW  01
05014:  MOVLB  6
05016:  SUBWF  x22,W
05018:  MOVLB  1
0501A:  SUBWF  xFA,W
0501C:  BZ    5020
0501E:  BC    5090
....................       promediopresion+=PromPresion[t]; 
05020:  MOVF   xFA,W
05022:  MULLW  04
05024:  MOVF   FF3,W
05026:  CLRF   03
05028:  ADDLW  A5
0502A:  MOVWF  FE9
0502C:  MOVLW  00
0502E:  ADDWFC 03,W
05030:  MOVWF  FEA
05032:  MOVFF  FEF,00
05036:  MOVFF  FEC,01
0503A:  MOVFF  FEC,02
0503E:  MOVFF  FEC,03
05042:  MOVFF  FEA,624
05046:  MOVFF  FE9,623
0504A:  BCF    FD8.1
0504C:  MOVFF  16C,63D
05050:  MOVFF  16B,63C
05054:  MOVFF  16A,63B
05058:  MOVFF  169,63A
0505C:  MOVFF  03,641
05060:  MOVFF  02,640
05064:  MOVFF  01,63F
05068:  MOVFF  00,63E
0506C:  MOVLB  0
0506E:  CALL   20BC
05072:  MOVFF  624,FEA
05076:  MOVFF  623,FE9
0507A:  MOVFF  03,16C
0507E:  MOVFF  02,16B
05082:  MOVFF  01,16A
05086:  MOVFF  00,169
....................    } 
0508A:  MOVLB  1
0508C:  INCF   xFA,F
0508E:  BRA    5012
....................     
....................    promediopresion=promediopresion/media;    
05090:  MOVLB  6
05092:  CLRF   x38
05094:  MOVFF  622,637
05098:  MOVLB  0
0509A:  CALL   1F00
0509E:  MOVFF  16C,63B
050A2:  MOVFF  16B,63A
050A6:  MOVFF  16A,639
050AA:  MOVFF  169,638
050AE:  MOVFF  03,63F
050B2:  MOVFF  02,63E
050B6:  MOVFF  01,63D
050BA:  MOVFF  00,63C
050BE:  CALL   1F5E
050C2:  MOVFF  03,16C
050C6:  MOVFF  02,16B
050CA:  MOVFF  01,16A
050CE:  MOVFF  00,169
....................     
....................    return promediopresion;    
050D2:  MOVFF  169,00
050D6:  MOVFF  16A,01
050DA:  MOVFF  16B,02
050DE:  MOVFF  16C,03
.................... } 
050E2:  GOTO   7786 (RETURN)
....................  
.................... float Leer_Sensor_Presion_PreCamara(int media){ 
....................    promediopresionp=0.0; 
*
05122:  MOVLB  1
05124:  CLRF   x70
05126:  CLRF   x6F
05128:  CLRF   x6E
0512A:  CLRF   x6D
....................    V2 = sensores(3); 
0512C:  MOVLW  03
0512E:  MOVLB  6
05130:  MOVWF  x32
05132:  MOVLB  0
05134:  CALL   4038
05138:  MOVFF  03,1AE
0513C:  MOVFF  02,1AD
05140:  MOVFF  01,1AC
05144:  MOVFF  00,1AB
....................    //Presionp=(0.073842*V2)-14.504; //R=240, V=5; Sensor de Presion Manometrica de 0-58PSIG 
....................    if(V2<1010){ 
05148:  MOVFF  1AE,629
0514C:  MOVFF  1AD,628
05150:  MOVFF  1AC,627
05154:  MOVFF  1AB,626
05158:  MOVLB  6
0515A:  CLRF   x2D
0515C:  MOVLW  80
0515E:  MOVWF  x2C
05160:  MOVLW  7C
05162:  MOVWF  x2B
05164:  MOVLW  88
05166:  MOVWF  x2A
05168:  MOVLB  0
0516A:  CALL   2592
0516E:  BNC   5218
....................       Presionp=(0.06364*V2)-12.5; //R=240, V=5; Sensor de Presion Manometrica de 0-50PSIA 
05170:  MOVLW  B0
05172:  MOVLB  6
05174:  MOVWF  x3B
05176:  MOVLW  55
05178:  MOVWF  x3A
0517A:  MOVLW  02
0517C:  MOVWF  x39
0517E:  MOVLW  7B
05180:  MOVWF  x38
05182:  MOVFF  1AE,63F
05186:  MOVFF  1AD,63E
0518A:  MOVFF  1AC,63D
0518E:  MOVFF  1AB,63C
05192:  MOVLB  0
05194:  CALL   3F42
05198:  MOVFF  00,623
0519C:  MOVFF  01,624
051A0:  MOVFF  02,625
051A4:  MOVFF  03,626
051A8:  BSF    FD8.1
051AA:  MOVFF  03,63D
051AE:  MOVFF  02,63C
051B2:  MOVFF  01,63B
051B6:  MOVFF  00,63A
051BA:  MOVLB  6
051BC:  CLRF   x41
051BE:  CLRF   x40
051C0:  MOVLW  48
051C2:  MOVWF  x3F
051C4:  MOVLW  82
051C6:  MOVWF  x3E
051C8:  MOVLB  0
051CA:  CALL   20BC
051CE:  MOVFF  03,1B2
051D2:  MOVFF  02,1B1
051D6:  MOVFF  01,1B0
051DA:  MOVFF  00,1AF
....................       Presionp=Presionp*6.89476; 
051DE:  MOVFF  1B2,63B
051E2:  MOVFF  1B1,63A
051E6:  MOVFF  1B0,639
051EA:  MOVFF  1AF,638
051EE:  MOVLW  E0
051F0:  MOVLB  6
051F2:  MOVWF  x3F
051F4:  MOVLW  A1
051F6:  MOVWF  x3E
051F8:  MOVLW  5C
051FA:  MOVWF  x3D
051FC:  MOVLW  81
051FE:  MOVWF  x3C
05200:  MOVLB  0
05202:  CALL   3F42
05206:  MOVFF  03,1B2
0520A:  MOVFF  02,1B1
0520E:  MOVFF  01,1B0
05212:  MOVFF  00,1AF
....................    }else{ 
05216:  BRA    5222
....................       Presionp=0.0; 
05218:  MOVLB  1
0521A:  CLRF   xB2
0521C:  CLRF   xB1
0521E:  CLRF   xB0
05220:  CLRF   xAF
....................    } 
....................     
....................    if(Presionp<0.0) 
05222:  MOVFF  1B2,629
05226:  MOVFF  1B1,628
0522A:  MOVFF  1B0,627
0522E:  MOVFF  1AF,626
05232:  MOVLB  6
05234:  CLRF   x2D
05236:  CLRF   x2C
05238:  CLRF   x2B
0523A:  CLRF   x2A
0523C:  MOVLB  0
0523E:  CALL   2592
05242:  BNC   524E
....................       Presionp=0.0; 
05244:  MOVLB  1
05246:  CLRF   xB2
05248:  CLRF   xB1
0524A:  CLRF   xB0
0524C:  CLRF   xAF
....................     
....................    if(r22>media-1) 
0524E:  MOVLW  01
05250:  MOVLB  6
05252:  SUBWF  x22,W
05254:  MOVLB  1
05256:  SUBWF  xFB,W
05258:  BZ    525E
0525A:  BNC   525E
....................       r22=0; 
0525C:  CLRF   xFB
....................    PromPresionp[r22]=Presionp;r22++; 
0525E:  MOVF   xFB,W
05260:  MULLW  04
05262:  MOVF   FF3,W
05264:  CLRF   03
05266:  ADDLW  F5
05268:  MOVWF  FE9
0526A:  MOVLW  00
0526C:  ADDWFC 03,W
0526E:  MOVWF  FEA
05270:  MOVFF  1AF,FEF
05274:  MOVFF  1B0,FEC
05278:  MOVFF  1B1,FEC
0527C:  MOVFF  1B2,FEC
05280:  INCF   xFB,F
....................           
....................    for(t2=0;t2<=(media-1);t2++){ 
05282:  CLRF   xFC
05284:  MOVLW  01
05286:  MOVLB  6
05288:  SUBWF  x22,W
0528A:  MOVLB  1
0528C:  SUBWF  xFC,W
0528E:  BZ    5292
05290:  BC    5302
....................       promediopresionp+=PromPresionp[t2]; 
05292:  MOVF   xFC,W
05294:  MULLW  04
05296:  MOVF   FF3,W
05298:  CLRF   03
0529A:  ADDLW  F5
0529C:  MOVWF  FE9
0529E:  MOVLW  00
052A0:  ADDWFC 03,W
052A2:  MOVWF  FEA
052A4:  MOVFF  FEF,00
052A8:  MOVFF  FEC,01
052AC:  MOVFF  FEC,02
052B0:  MOVFF  FEC,03
052B4:  MOVFF  FEA,624
052B8:  MOVFF  FE9,623
052BC:  BCF    FD8.1
052BE:  MOVFF  170,63D
052C2:  MOVFF  16F,63C
052C6:  MOVFF  16E,63B
052CA:  MOVFF  16D,63A
052CE:  MOVFF  03,641
052D2:  MOVFF  02,640
052D6:  MOVFF  01,63F
052DA:  MOVFF  00,63E
052DE:  MOVLB  0
052E0:  CALL   20BC
052E4:  MOVFF  624,FEA
052E8:  MOVFF  623,FE9
052EC:  MOVFF  03,170
052F0:  MOVFF  02,16F
052F4:  MOVFF  01,16E
052F8:  MOVFF  00,16D
....................    } 
052FC:  MOVLB  1
052FE:  INCF   xFC,F
05300:  BRA    5284
....................     
....................    promediopresionp=promediopresionp/media;    
05302:  MOVLB  6
05304:  CLRF   x38
05306:  MOVFF  622,637
0530A:  MOVLB  0
0530C:  CALL   1F00
05310:  MOVFF  170,63B
05314:  MOVFF  16F,63A
05318:  MOVFF  16E,639
0531C:  MOVFF  16D,638
05320:  MOVFF  03,63F
05324:  MOVFF  02,63E
05328:  MOVFF  01,63D
0532C:  MOVFF  00,63C
05330:  CALL   1F5E
05334:  MOVFF  03,170
05338:  MOVFF  02,16F
0533C:  MOVFF  01,16E
05340:  MOVFF  00,16D
....................     
....................    return promediopresionp; 
05344:  MOVFF  16D,00
05348:  MOVFF  16E,01
0534C:  MOVFF  16F,02
05350:  MOVFF  170,03
....................     
....................    /////////////////************** 
....................    /*promediopresionp=0.0; 
....................    V2 = sensores(3);   //Lectura de Divisor de Voltaje de PT100 con resistencia de 1k (+-10%) 
....................    V2 = V2*(5.0/1024.0); 
....................    Presionp=(V2-0.2)/(K); 
....................     
....................    if(Presionp<0.0) 
....................    { 
....................       Presionp=0.0; 
....................    } 
....................     
....................    if(r22>media-1) 
....................    {r22=0;} 
....................    PromPresionp[r22]=Presionp;r22++; 
....................           
....................    for(t2=0;t2<=(media-1);t2++) 
....................    { 
....................       promediopresionp+=PromPresionp[t2]; 
....................    }  
....................    promediopresionp=promediopresionp/media;    
....................     
....................    return promediopresionp;*/ 
.................... } 
05354:  GOTO   77AE (RETURN)
....................  
.................... void Controla(){ 
.................... //-------------------------------Control de Calentamiento------------------------------------------------------------//          
....................    //error=desvio+Setpoint-Temperatura;      // Clculo del error ****** 
....................     
....................    if(error<-0.3)    
*
06BB8:  MOVFF  18A,629
06BBC:  MOVFF  189,628
06BC0:  MOVFF  188,627
06BC4:  MOVFF  187,626
06BC8:  MOVLW  9A
06BCA:  MOVLB  6
06BCC:  MOVWF  x2D
06BCE:  MOVLW  99
06BD0:  MOVWF  x2C
06BD2:  MOVWF  x2B
06BD4:  MOVLW  7D
06BD6:  MOVWF  x2A
06BD8:  MOVLB  0
06BDA:  CALL   2592
06BDE:  BNC   6BF0
....................       Ganancia=Ganancia2;    
06BE0:  MOVFF  19E,19A
06BE4:  MOVFF  19D,199
06BE8:  MOVFF  19C,198
06BEC:  MOVFF  19B,197
....................     
....................    if(Ganancia<1)    
06BF0:  MOVFF  19A,629
06BF4:  MOVFF  199,628
06BF8:  MOVFF  198,627
06BFC:  MOVFF  197,626
06C00:  MOVLB  6
06C02:  CLRF   x2D
06C04:  CLRF   x2C
06C06:  CLRF   x2B
06C08:  MOVLW  7F
06C0A:  MOVWF  x2A
06C0C:  MOVLB  0
06C0E:  CALL   2592
06C12:  BNC   6C20
....................       Ganancia=1; 
06C14:  MOVLB  1
06C16:  CLRF   x9A
06C18:  CLRF   x99
06C1A:  CLRF   x98
06C1C:  MOVLW  7F
06C1E:  MOVWF  x97
....................     
....................    if(error<0.0)     // Anti Wind_DOWN     
06C20:  MOVFF  18A,629
06C24:  MOVFF  189,628
06C28:  MOVFF  188,627
06C2C:  MOVFF  187,626
06C30:  MOVLB  6
06C32:  CLRF   x2D
06C34:  CLRF   x2C
06C36:  CLRF   x2B
06C38:  CLRF   x2A
06C3A:  MOVLB  0
06C3C:  CALL   2592
06C40:  BNC   6C4E
....................       error=0.0;      
06C42:  MOVLB  1
06C44:  CLRF   x8A
06C46:  CLRF   x89
06C48:  CLRF   x88
06C4A:  CLRF   x87
06C4C:  MOVLB  0
....................        
....................    tmp=error*Ganancia;  // Control Proporcional. 
06C4E:  MOVFF  18A,63B
06C52:  MOVFF  189,63A
06C56:  MOVFF  188,639
06C5A:  MOVFF  187,638
06C5E:  MOVFF  19A,63F
06C62:  MOVFF  199,63E
06C66:  MOVFF  198,63D
06C6A:  MOVFF  197,63C
06C6E:  CALL   3F42
06C72:  MOVFF  03,196
06C76:  MOVFF  02,195
06C7A:  MOVFF  01,194
06C7E:  MOVFF  00,193
....................           
....................    if(tmp>Setpoint)   // Anti Wind-UP          
06C82:  MOVLB  6
06C84:  CLRF   x38
06C86:  MOVFF  1D9,637
06C8A:  MOVLB  0
06C8C:  CALL   1F00
06C90:  MOVFF  03,629
06C94:  MOVFF  02,628
06C98:  MOVFF  01,627
06C9C:  MOVFF  00,626
06CA0:  MOVFF  196,62D
06CA4:  MOVFF  195,62C
06CA8:  MOVFF  194,62B
06CAC:  MOVFF  193,62A
06CB0:  CALL   2592
06CB4:  BNC   6CD4
....................       tmp=Setpoint;    
06CB6:  MOVLB  6
06CB8:  CLRF   x38
06CBA:  MOVFF  1D9,637
06CBE:  MOVLB  0
06CC0:  CALL   1F00
06CC4:  MOVFF  03,196
06CC8:  MOVFF  02,195
06CCC:  MOVFF  01,194
06CD0:  MOVFF  00,193
....................                 
....................    if(tmp<0.0)     // Anti Wind_DOWN       
06CD4:  MOVFF  196,629
06CD8:  MOVFF  195,628
06CDC:  MOVFF  194,627
06CE0:  MOVFF  193,626
06CE4:  MOVLB  6
06CE6:  CLRF   x2D
06CE8:  CLRF   x2C
06CEA:  CLRF   x2B
06CEC:  CLRF   x2A
06CEE:  MOVLB  0
06CF0:  CALL   2592
06CF4:  BNC   6D00
....................       tmp=0.0;    
06CF6:  MOVLB  1
06CF8:  CLRF   x96
06CFA:  CLRF   x95
06CFC:  CLRF   x94
06CFE:  CLRF   x93
....................     
....................    // Tpulso(t)= Tciclo*(y(t)-ymin)/(ymax - ymin); calculo de ciclo util para control de resistencia.ymax=140.ymin=0; 
....................    // Tpulso es float, hay que pasar ese ciclo a una salida de un puerto usando el TMR1. 
....................    Tpulso=(tmp/Setpoint)*Tciclo;   
06D00:  MOVLB  6
06D02:  CLRF   x38
06D04:  MOVFF  1D9,637
06D08:  MOVLB  0
06D0A:  CALL   1F00
06D0E:  MOVFF  196,63B
06D12:  MOVFF  195,63A
06D16:  MOVFF  194,639
06D1A:  MOVFF  193,638
06D1E:  MOVFF  03,63F
06D22:  MOVFF  02,63E
06D26:  MOVFF  01,63D
06D2A:  MOVFF  00,63C
06D2E:  CALL   1F5E
06D32:  MOVFF  00,622
06D36:  MOVFF  01,623
06D3A:  MOVFF  02,624
06D3E:  MOVFF  03,625
06D42:  MOVFF  03,63B
06D46:  MOVFF  02,63A
06D4A:  MOVFF  01,639
06D4E:  MOVFF  00,638
06D52:  MOVFF  182,63F
06D56:  MOVFF  181,63E
06D5A:  MOVFF  180,63D
06D5E:  MOVFF  17F,63C
06D62:  CALL   3F42
06D66:  MOVFF  03,186
06D6A:  MOVFF  02,185
06D6E:  MOVFF  01,184
06D72:  MOVFF  00,183
....................     
....................    if(Tpulso<(Tciclo/5)) 
06D76:  MOVFF  182,63B
06D7A:  MOVFF  181,63A
06D7E:  MOVFF  180,639
06D82:  MOVFF  17F,638
06D86:  MOVLB  6
06D88:  CLRF   x3F
06D8A:  CLRF   x3E
06D8C:  MOVLW  20
06D8E:  MOVWF  x3D
06D90:  MOVLW  81
06D92:  MOVWF  x3C
06D94:  MOVLB  0
06D96:  CALL   1F5E
06D9A:  MOVFF  186,629
06D9E:  MOVFF  185,628
06DA2:  MOVFF  184,627
06DA6:  MOVFF  183,626
06DAA:  MOVFF  03,62D
06DAE:  MOVFF  02,62C
06DB2:  MOVFF  01,62B
06DB6:  MOVFF  00,62A
06DBA:  CALL   2592
06DBE:  BNC   6DCC
....................       Tpulso=0; 
06DC0:  MOVLB  1
06DC2:  CLRF   x86
06DC4:  CLRF   x85
06DC6:  CLRF   x84
06DC8:  CLRF   x83
06DCA:  MOVLB  0
....................     
....................    if(Tpulso>(Tciclo-2)) 
06DCC:  BSF    FD8.1
06DCE:  MOVFF  182,63D
06DD2:  MOVFF  181,63C
06DD6:  MOVFF  180,63B
06DDA:  MOVFF  17F,63A
06DDE:  MOVLB  6
06DE0:  CLRF   x41
06DE2:  CLRF   x40
06DE4:  CLRF   x3F
06DE6:  MOVLW  80
06DE8:  MOVWF  x3E
06DEA:  MOVLB  0
06DEC:  CALL   20BC
06DF0:  MOVFF  03,629
06DF4:  MOVFF  02,628
06DF8:  MOVFF  01,627
06DFC:  MOVFF  00,626
06E00:  MOVFF  186,62D
06E04:  MOVFF  185,62C
06E08:  MOVFF  184,62B
06E0C:  MOVFF  183,62A
06E10:  CALL   2592
06E14:  BNC   6E26
....................       Tpulso=Tciclo; 
06E16:  MOVFF  182,186
06E1A:  MOVFF  181,185
06E1E:  MOVFF  180,184
06E22:  MOVFF  17F,183
....................     
....................    Tp=(Tpulso/0.005); 
06E26:  MOVFF  186,63B
06E2A:  MOVFF  185,63A
06E2E:  MOVFF  184,639
06E32:  MOVFF  183,638
06E36:  MOVLW  0A
06E38:  MOVLB  6
06E3A:  MOVWF  x3F
06E3C:  MOVLW  D7
06E3E:  MOVWF  x3E
06E40:  MOVLW  23
06E42:  MOVWF  x3D
06E44:  MOVLW  77
06E46:  MOVWF  x3C
06E48:  MOVLB  0
06E4A:  CALL   1F5E
06E4E:  MOVFF  03,637
06E52:  MOVFF  02,636
06E56:  MOVFF  01,635
06E5A:  MOVFF  00,634
06E5E:  CALL   50E6
06E62:  MOVFF  02,90
06E66:  MOVFF  01,8F
....................    Tc=(Tciclo/0.005); 
06E6A:  MOVFF  182,63B
06E6E:  MOVFF  181,63A
06E72:  MOVFF  180,639
06E76:  MOVFF  17F,638
06E7A:  MOVLW  0A
06E7C:  MOVLB  6
06E7E:  MOVWF  x3F
06E80:  MOVLW  D7
06E82:  MOVWF  x3E
06E84:  MOVLW  23
06E86:  MOVWF  x3D
06E88:  MOVLW  77
06E8A:  MOVWF  x3C
06E8C:  MOVLB  0
06E8E:  CALL   1F5E
06E92:  MOVFF  03,637
06E96:  MOVFF  02,636
06E9A:  MOVFF  01,635
06E9E:  MOVFF  00,634
06EA2:  CALL   50E6
06EA6:  MOVFF  02,92
06EAA:  MOVFF  01,91
....................    Controlando=1;    
06EAE:  MOVLW  01
06EB0:  MOVLB  1
06EB2:  MOVWF  xC9
....................    if(Temperatura>Setpoint+0.1){ 
06EB4:  MOVLB  6
06EB6:  CLRF   x38
06EB8:  MOVFF  1D9,637
06EBC:  MOVLB  0
06EBE:  CALL   1F00
06EC2:  BCF    FD8.1
06EC4:  MOVFF  03,63D
06EC8:  MOVFF  02,63C
06ECC:  MOVFF  01,63B
06ED0:  MOVFF  00,63A
06ED4:  MOVLW  CD
06ED6:  MOVLB  6
06ED8:  MOVWF  x41
06EDA:  MOVLW  CC
06EDC:  MOVWF  x40
06EDE:  MOVLW  4C
06EE0:  MOVWF  x3F
06EE2:  MOVLW  7B
06EE4:  MOVWF  x3E
06EE6:  MOVLB  0
06EE8:  CALL   20BC
06EEC:  MOVFF  03,629
06EF0:  MOVFF  02,628
06EF4:  MOVFF  01,627
06EF8:  MOVFF  00,626
06EFC:  MOVFF  1B6,62D
06F00:  MOVFF  1B5,62C
06F04:  MOVFF  1B4,62B
06F08:  MOVFF  1B3,62A
06F0C:  CALL   2592
06F10:  BNC   6F1C
....................       Suministro_off; 
06F12:  BCF    F8C.0
06F14:  BCF    F95.0
....................       Paso_off; 
06F16:  BCF    F8C.1
06F18:  BCF    F95.1
....................    }else if(Temperatura<=Setpoint){ 
06F1A:  BRA    6F5A
06F1C:  MOVLB  6
06F1E:  CLRF   x38
06F20:  MOVFF  1D9,637
06F24:  MOVLB  0
06F26:  CALL   1F00
06F2A:  MOVFF  1B6,629
06F2E:  MOVFF  1B5,628
06F32:  MOVFF  1B4,627
06F36:  MOVFF  1B3,626
06F3A:  MOVFF  03,62D
06F3E:  MOVFF  02,62C
06F42:  MOVFF  01,62B
06F46:  MOVFF  00,62A
06F4A:  CALL   2592
06F4E:  BC    6F52
06F50:  BNZ   6F5A
....................       Suministro_on; 
06F52:  BSF    F8C.0
06F54:  BCF    F95.0
....................       Paso_on; 
06F56:  BSF    F8C.1
06F58:  BCF    F95.1
....................    } 
.................... //--------------------------------------------------------------------------------------------------------------------//    
.................... } 
06F5A:  RETLW  00
....................  
.................... void Envio_I2C(direccion, posicion, dato){ 
....................  
....................    i2c_start();            // Comienzo comunicacin 
....................    i2c_write(direccion);   // Direccin del esclavo en el bus I2C 
....................    i2c_write(posicion);    // Posicin donde se guardara el dato transmitido 
....................    i2c_write(dato);        // Dato a transmitir 
....................    i2c_stop();             // Fin comunicacin 
....................  } 
....................  
.................... void Lectura_I2C (byte direccion, byte posicion, byte &dato) { 
....................  
....................    i2c_start();            // Comienzo de la comunicacin 
....................    i2c_write(direccion);   // Direccin del esclavo en el bus I2C 
....................    i2c_write(posicion);    // Posicin de donde se leer el dato en el esclavo 
....................    i2c_start();            // Reinicio 
....................    i2c_write(direccion+1); // Direccin del esclavo en modo lectura 
....................    dato=i2c_read(0);       // Lectura del dato 
....................    i2c_stop();             // Fin comunicacin 
.................... } 
....................  
.................... void Carga_Vector(void){ 
....................    SlaveA0Tx[0]=(int8)Temperatura; 
....................    SlaveA0Tx[1]=(Temperatura-((int8)Temperatura))*10; 
....................    SlaveA0Tx[2]=make8((int16)PresionCamara,0); 
....................    SlaveA0Tx[3]=make8((int16)PresionCamara,1); 
....................    SlaveA0Tx[4]=make8((int16)PresionPreCamara,0); 
....................    SlaveA0Tx[5]=make8((int16)PresionPreCamara,1); 
....................    SlaveA0Tx[6]=(int8)Tpulso*10; 
....................    //SlaveA0Tx[7]=HIG; 
....................    SlaveA0Tx[8]=LOW; 
....................    SlaveA0Tx[9]=TERM; 
....................    SlaveA0Tx[10]=DOOR; 
....................    SlaveA0Tx[11]=STOP; 
....................    SlaveA0Tx[12]=(int8)error; 
....................    SlaveA0Tx[13]=CicloSeleccionado; 
....................    SlaveA0Tx[14]=SetTime; 
....................    SlaveA0Tx[15]=DiaTx; 
....................    SlaveA0Tx[16]=MesTx; 
....................    SlaveA0Tx[17]=YearTx; 
....................    SlaveA0Tx[18]=HoraTx; 
....................    SlaveA0Tx[19]=MinutoTx; 
....................    SlaveA0Tx[20]=SegundoTx; 
....................    SlaveA0Tx[21]=Imprime; 
.................... } 
....................  
.................... void Lee_Vector(void){ 
....................    /*Dia=txbuf[0]; 
....................    Mess=txbuf[1]; 
....................    Year=txbuf[2]; 
....................    Hora=txbuf[3]; 
....................    Minuto=txbuf[4]; 
....................    Segundo=txbuf[5]; 
....................    dow=txbuf[6];*/ 
.................... } 
....................  
.................... void Envio_Esclavos(void){ 
....................    //Carga_Vector(); 
....................    //for(i=0;i<22;i++) 
....................    //{ 
....................       //direccion=0xB0; 
....................       //Envio_I2C(direccion,i,SlaveA0Tx[i]); 
....................    //}  
.................... } 
.................... void Lectura_Esclavos(void){ 
....................    //for(i=0;i<7;i++) 
....................    //{ 
....................    //   direccion=0xA0;                        //Direccin en el bus I2c 
....................    //   posicion=i;                         //Posicin de memoria a leer 
....................    //   Lectura_I2C(direccion, posicion, dato);    //Lectura por I2C 
....................    //   txbuf[i]=(int8)dato; 
....................    //} 
....................    //Lee_Vector(); 
.................... } 
....................  
.................... int8 extraeDecimal(float data){ 
*
06696:  MOVLB  6
06698:  CLRF   x2F
0669A:  CLRF   x2E
0669C:  CLRF   x2D
0669E:  CLRF   x2C
066A0:  CLRF   x33
066A2:  CLRF   x32
066A4:  CLRF   x31
066A6:  CLRF   x30
....................    float entero=0; 
....................    float tmp=0.0; 
....................     
....................    entero=(int8)data; 
066A8:  MOVFF  62B,637
066AC:  MOVFF  62A,636
066B0:  MOVFF  629,635
066B4:  MOVFF  628,634
066B8:  MOVLB  0
066BA:  CALL   50E6
066BE:  MOVLB  6
066C0:  CLRF   x38
066C2:  MOVFF  01,637
066C6:  MOVLB  0
066C8:  CALL   1F00
066CC:  MOVFF  03,62F
066D0:  MOVFF  02,62E
066D4:  MOVFF  01,62D
066D8:  MOVFF  00,62C
....................    tmp=(data-entero)*10; 
066DC:  BSF    FD8.1
066DE:  MOVFF  62B,63D
066E2:  MOVFF  62A,63C
066E6:  MOVFF  629,63B
066EA:  MOVFF  628,63A
066EE:  MOVFF  62F,641
066F2:  MOVFF  62E,640
066F6:  MOVFF  62D,63F
066FA:  MOVFF  62C,63E
066FE:  CALL   20BC
06702:  MOVFF  00,634
06706:  MOVFF  01,635
0670A:  MOVFF  02,636
0670E:  MOVFF  03,637
06712:  MOVFF  03,63B
06716:  MOVFF  02,63A
0671A:  MOVFF  01,639
0671E:  MOVFF  00,638
06722:  MOVLB  6
06724:  CLRF   x3F
06726:  CLRF   x3E
06728:  MOVLW  20
0672A:  MOVWF  x3D
0672C:  MOVLW  82
0672E:  MOVWF  x3C
06730:  MOVLB  0
06732:  CALL   3F42
06736:  MOVFF  03,633
0673A:  MOVFF  02,632
0673E:  MOVFF  01,631
06742:  MOVFF  00,630
....................    return (int8)tmp; 
06746:  MOVFF  633,637
0674A:  MOVFF  632,636
0674E:  MOVFF  631,635
06752:  MOVFF  630,634
06756:  CALL   50E6
0675A:  MOVF   01,W
.................... } 
0675C:  GOTO   686E (RETURN)
....................  
.................... float inttofloat(int8 decimal){ 
....................    float tmp; 
....................    tmp=decimal; 
*
02552:  MOVLB  6
02554:  CLRF   x38
02556:  MOVFF  626,637
0255A:  MOVLB  0
0255C:  RCALL  1F00
0255E:  MOVFF  03,62A
02562:  MOVFF  02,629
02566:  MOVFF  01,628
0256A:  MOVFF  00,627
....................    return tmp/10; 
0256E:  MOVFF  62A,63B
02572:  MOVFF  629,63A
02576:  MOVFF  628,639
0257A:  MOVFF  627,638
0257E:  MOVLB  6
02580:  CLRF   x3F
02582:  CLRF   x3E
02584:  MOVLW  20
02586:  MOVWF  x3D
02588:  MOVLW  82
0258A:  MOVWF  x3C
0258C:  MOVLB  0
0258E:  RCALL  1F5E
.................... } 
02590:  RETLW  00
....................  
.................... void LeeEEPROM(){ 
.................... //Lectura EEPROM//-------------------------- 
....................    Ganancia=read_eeprom(20); 
*
0260C:  MOVFF  FF2,622
02610:  BCF    FF2.6
02612:  BCF    FF2.7
02614:  CLRF   FAA
02616:  MOVLW  14
02618:  MOVWF  FA9
0261A:  BCF    FA6.6
0261C:  BCF    FA6.7
0261E:  BSF    FA6.0
02620:  MOVF   FA8,W
02622:  MOVLB  6
02624:  BTFSC  x22.6
02626:  BSF    FF2.6
02628:  BTFSC  x22.7
0262A:  BSF    FF2.7
0262C:  CLRF   x38
0262E:  MOVWF  x37
02630:  MOVLB  0
02632:  RCALL  1F00
02634:  MOVFF  03,19A
02638:  MOVFF  02,199
0263C:  MOVFF  01,198
02640:  MOVFF  00,197
....................    delay_ms(10); 
02644:  MOVLW  0A
02646:  MOVLB  6
02648:  MOVWF  x37
0264A:  MOVLB  0
0264C:  RCALL  1F36
....................    Sensor[0].Ajuste=read_eeprom(21); 
0264E:  MOVFF  FF2,622
02652:  BCF    FF2.6
02654:  BCF    FF2.7
02656:  CLRF   FAA
02658:  MOVLW  15
0265A:  MOVWF  FA9
0265C:  BCF    FA6.6
0265E:  BCF    FA6.7
02660:  BSF    FA6.0
02662:  MOVF   FA8,W
02664:  MOVLB  6
02666:  BTFSC  x22.6
02668:  BSF    FF2.6
0266A:  BTFSC  x22.7
0266C:  BSF    FF2.7
0266E:  MOVLB  2
02670:  MOVWF  xB0
....................    delay_ms(10); 
02672:  MOVLW  0A
02674:  MOVLB  6
02676:  MOVWF  x37
02678:  MOVLB  0
0267A:  RCALL  1F36
....................    Sensor[0].Ajusten=read_eeprom(22); 
0267C:  MOVFF  FF2,622
02680:  BCF    FF2.6
02682:  BCF    FF2.7
02684:  CLRF   FAA
02686:  MOVLW  16
02688:  MOVWF  FA9
0268A:  BCF    FA6.6
0268C:  BCF    FA6.7
0268E:  BSF    FA6.0
02690:  MOVF   FA8,W
02692:  MOVLB  6
02694:  BTFSC  x22.6
02696:  BSF    FF2.6
02698:  BTFSC  x22.7
0269A:  BSF    FF2.7
0269C:  MOVLB  2
0269E:  MOVWF  xB1
....................    delay_ms(10); 
026A0:  MOVLW  0A
026A2:  MOVLB  6
026A4:  MOVWF  x37
026A6:  MOVLB  0
026A8:  RCALL  1F36
....................    Sensor[1].Ajuste=read_eeprom(23); 
026AA:  MOVFF  FF2,622
026AE:  BCF    FF2.6
026B0:  BCF    FF2.7
026B2:  CLRF   FAA
026B4:  MOVLW  17
026B6:  MOVWF  FA9
026B8:  BCF    FA6.6
026BA:  BCF    FA6.7
026BC:  BSF    FA6.0
026BE:  MOVF   FA8,W
026C0:  MOVLB  6
026C2:  BTFSC  x22.6
026C4:  BSF    FF2.6
026C6:  BTFSC  x22.7
026C8:  BSF    FF2.7
026CA:  MOVLB  4
026CC:  MOVWF  x14
....................    delay_ms(10); 
026CE:  MOVLW  0A
026D0:  MOVLB  6
026D2:  MOVWF  x37
026D4:  MOVLB  0
026D6:  RCALL  1F36
....................    Sensor[1].Ajusten=read_eeprom(24); 
026D8:  MOVFF  FF2,622
026DC:  BCF    FF2.6
026DE:  BCF    FF2.7
026E0:  CLRF   FAA
026E2:  MOVLW  18
026E4:  MOVWF  FA9
026E6:  BCF    FA6.6
026E8:  BCF    FA6.7
026EA:  BSF    FA6.0
026EC:  MOVF   FA8,W
026EE:  MOVLB  6
026F0:  BTFSC  x22.6
026F2:  BSF    FF2.6
026F4:  BTFSC  x22.7
026F6:  BSF    FF2.7
026F8:  MOVLB  4
026FA:  MOVWF  x15
....................    delay_ms(10);    
026FC:  MOVLW  0A
026FE:  MOVLB  6
02700:  MOVWF  x37
02702:  MOVLB  0
02704:  RCALL  1F36
....................    MediaMovil=read_eeprom(25); 
02706:  MOVFF  FF2,622
0270A:  BCF    FF2.6
0270C:  BCF    FF2.7
0270E:  CLRF   FAA
02710:  MOVLW  19
02712:  MOVWF  FA9
02714:  BCF    FA6.6
02716:  BCF    FA6.7
02718:  BSF    FA6.0
0271A:  MOVF   FA8,W
0271C:  MOVLB  6
0271E:  BTFSC  x22.6
02720:  BSF    FF2.6
02722:  BTFSC  x22.7
02724:  BSF    FF2.7
02726:  MOVLB  1
02728:  MOVWF  x73
....................    delay_ms(10); 
0272A:  MOVLW  0A
0272C:  MOVLB  6
0272E:  MOVWF  x37
02730:  MOVLB  0
02732:  RCALL  1F36
....................    Tciclo=read_eeprom(26); 
02734:  MOVFF  FF2,622
02738:  BCF    FF2.6
0273A:  BCF    FF2.7
0273C:  CLRF   FAA
0273E:  MOVLW  1A
02740:  MOVWF  FA9
02742:  BCF    FA6.6
02744:  BCF    FA6.7
02746:  BSF    FA6.0
02748:  MOVF   FA8,W
0274A:  MOVLB  6
0274C:  BTFSC  x22.6
0274E:  BSF    FF2.6
02750:  BTFSC  x22.7
02752:  BSF    FF2.7
02754:  CLRF   x38
02756:  MOVWF  x37
02758:  MOVLB  0
0275A:  CALL   1F00
0275E:  MOVFF  03,182
02762:  MOVFF  02,181
02766:  MOVFF  01,180
0276A:  MOVFF  00,17F
....................    delay_ms(10); 
0276E:  MOVLW  0A
02770:  MOVLB  6
02772:  MOVWF  x37
02774:  MOVLB  0
02776:  CALL   1F36
....................    Temporal=read_eeprom(27); 
0277A:  MOVFF  FF2,622
0277E:  BCF    FF2.6
02780:  BCF    FF2.7
02782:  CLRF   FAA
02784:  MOVLW  1B
02786:  MOVWF  FA9
02788:  BCF    FA6.6
0278A:  BCF    FA6.7
0278C:  BSF    FA6.0
0278E:  MOVF   FA8,W
02790:  MOVLB  6
02792:  BTFSC  x22.6
02794:  BSF    FF2.6
02796:  BTFSC  x22.7
02798:  BSF    FF2.7
0279A:  CLRF   x38
0279C:  MOVWF  x37
0279E:  MOVLB  0
027A0:  CALL   1F00
027A4:  MOVFF  03,148
027A8:  MOVFF  02,147
027AC:  MOVFF  01,146
027B0:  MOVFF  00,145
....................    Temporal=Temporal/10.0; 
027B4:  MOVFF  148,63B
027B8:  MOVFF  147,63A
027BC:  MOVFF  146,639
027C0:  MOVFF  145,638
027C4:  MOVLB  6
027C6:  CLRF   x3F
027C8:  CLRF   x3E
027CA:  MOVLW  20
027CC:  MOVWF  x3D
027CE:  MOVLW  82
027D0:  MOVWF  x3C
027D2:  MOVLB  0
027D4:  CALL   1F5E
027D8:  MOVFF  03,148
027DC:  MOVFF  02,147
027E0:  MOVFF  01,146
027E4:  MOVFF  00,145
....................    delay_ms(10); 
027E8:  MOVLW  0A
027EA:  MOVLB  6
027EC:  MOVWF  x37
027EE:  MOVLB  0
027F0:  CALL   1F36
....................    Sensor[0].RPT100=read_eeprom(28)+Temporal; 
027F4:  MOVFF  FF2,622
027F8:  BCF    FF2.6
027FA:  BCF    FF2.7
027FC:  CLRF   FAA
027FE:  MOVLW  1C
02800:  MOVWF  FA9
02802:  BCF    FA6.6
02804:  BCF    FA6.7
02806:  BSF    FA6.0
02808:  MOVF   FA8,W
0280A:  MOVLB  6
0280C:  BTFSC  x22.6
0280E:  BSF    FF2.6
02810:  BTFSC  x22.7
02812:  BSF    FF2.7
02814:  CLRF   x38
02816:  MOVWF  x37
02818:  MOVLB  0
0281A:  CALL   1F00
0281E:  BCF    FD8.1
02820:  MOVFF  03,63D
02824:  MOVFF  02,63C
02828:  MOVFF  01,63B
0282C:  MOVFF  00,63A
02830:  MOVFF  148,641
02834:  MOVFF  147,640
02838:  MOVFF  146,63F
0283C:  MOVFF  145,63E
02840:  RCALL  20BC
02842:  MOVFF  03,2A5
02846:  MOVFF  02,2A4
0284A:  MOVFF  01,2A3
0284E:  MOVFF  00,2A2
....................    delay_ms(10); 
02852:  MOVLW  0A
02854:  MOVLB  6
02856:  MOVWF  x37
02858:  MOVLB  0
0285A:  CALL   1F36
....................    Temporal=read_eeprom(29); 
0285E:  MOVFF  FF2,622
02862:  BCF    FF2.6
02864:  BCF    FF2.7
02866:  CLRF   FAA
02868:  MOVLW  1D
0286A:  MOVWF  FA9
0286C:  BCF    FA6.6
0286E:  BCF    FA6.7
02870:  BSF    FA6.0
02872:  MOVF   FA8,W
02874:  MOVLB  6
02876:  BTFSC  x22.6
02878:  BSF    FF2.6
0287A:  BTFSC  x22.7
0287C:  BSF    FF2.7
0287E:  CLRF   x38
02880:  MOVWF  x37
02882:  MOVLB  0
02884:  CALL   1F00
02888:  MOVFF  03,148
0288C:  MOVFF  02,147
02890:  MOVFF  01,146
02894:  MOVFF  00,145
....................    Temporal=Temporal/10.0; 
02898:  MOVFF  148,63B
0289C:  MOVFF  147,63A
028A0:  MOVFF  146,639
028A4:  MOVFF  145,638
028A8:  MOVLB  6
028AA:  CLRF   x3F
028AC:  CLRF   x3E
028AE:  MOVLW  20
028B0:  MOVWF  x3D
028B2:  MOVLW  82
028B4:  MOVWF  x3C
028B6:  MOVLB  0
028B8:  CALL   1F5E
028BC:  MOVFF  03,148
028C0:  MOVFF  02,147
028C4:  MOVFF  01,146
028C8:  MOVFF  00,145
....................    delay_ms(10); 
028CC:  MOVLW  0A
028CE:  MOVLB  6
028D0:  MOVWF  x37
028D2:  MOVLB  0
028D4:  CALL   1F36
....................    Sensor[1].RPT100=read_eeprom(30)+Temporal; 
028D8:  MOVFF  FF2,622
028DC:  BCF    FF2.6
028DE:  BCF    FF2.7
028E0:  CLRF   FAA
028E2:  MOVLW  1E
028E4:  MOVWF  FA9
028E6:  BCF    FA6.6
028E8:  BCF    FA6.7
028EA:  BSF    FA6.0
028EC:  MOVF   FA8,W
028EE:  MOVLB  6
028F0:  BTFSC  x22.6
028F2:  BSF    FF2.6
028F4:  BTFSC  x22.7
028F6:  BSF    FF2.7
028F8:  CLRF   x38
028FA:  MOVWF  x37
028FC:  MOVLB  0
028FE:  CALL   1F00
02902:  BCF    FD8.1
02904:  MOVFF  03,63D
02908:  MOVFF  02,63C
0290C:  MOVFF  01,63B
02910:  MOVFF  00,63A
02914:  MOVFF  148,641
02918:  MOVFF  147,640
0291C:  MOVFF  146,63F
02920:  MOVFF  145,63E
02924:  CALL   20BC
02928:  MOVFF  03,409
0292C:  MOVFF  02,408
02930:  MOVFF  01,407
02934:  MOVFF  00,406
....................    delay_ms(10); 
02938:  MOVLW  0A
0293A:  MOVLB  6
0293C:  MOVWF  x37
0293E:  MOVLB  0
02940:  CALL   1F36
....................    Atmosferica=read_eeprom(31); 
02944:  MOVFF  FF2,622
02948:  BCF    FF2.6
0294A:  BCF    FF2.7
0294C:  CLRF   FAA
0294E:  MOVLW  1F
02950:  MOVWF  FA9
02952:  BCF    FA6.6
02954:  BCF    FA6.7
02956:  BSF    FA6.0
02958:  MOVF   FA8,W
0295A:  MOVLB  6
0295C:  BTFSC  x22.6
0295E:  BSF    FF2.6
02960:  BTFSC  x22.7
02962:  BSF    FF2.7
02964:  MOVLB  2
02966:  MOVWF  x13
....................    delay_ms(10); 
02968:  MOVLW  0A
0296A:  MOVLB  6
0296C:  MOVWF  x37
0296E:  MOVLB  0
02970:  CALL   1F36
....................    Tapertura=read_eeprom(32); 
02974:  MOVFF  FF2,622
02978:  BCF    FF2.6
0297A:  BCF    FF2.7
0297C:  CLRF   FAA
0297E:  MOVLW  20
02980:  MOVWF  FA9
02982:  BCF    FA6.6
02984:  BCF    FA6.7
02986:  BSF    FA6.0
02988:  MOVF   FA8,W
0298A:  MOVLB  6
0298C:  BTFSC  x22.6
0298E:  BSF    FF2.6
02990:  BTFSC  x22.7
02992:  BSF    FF2.7
02994:  MOVLB  1
02996:  MOVWF  xD6
....................    delay_ms(10); 
02998:  MOVLW  0A
0299A:  MOVLB  6
0299C:  MOVWF  x37
0299E:  MOVLB  0
029A0:  CALL   1F36
....................    CiclosL=read_eeprom(37); 
029A4:  MOVFF  FF2,622
029A8:  BCF    FF2.6
029AA:  BCF    FF2.7
029AC:  CLRF   FAA
029AE:  MOVLW  25
029B0:  MOVWF  FA9
029B2:  BCF    FA6.6
029B4:  BCF    FA6.7
029B6:  BSF    FA6.0
029B8:  MOVF   FA8,W
029BA:  MOVLB  6
029BC:  BTFSC  x22.6
029BE:  BSF    FF2.6
029C0:  BTFSC  x22.7
029C2:  BSF    FF2.7
029C4:  MOVLB  1
029C6:  MOVWF  xD3
....................    delay_ms(10); 
029C8:  MOVLW  0A
029CA:  MOVLB  6
029CC:  MOVWF  x37
029CE:  MOVLB  0
029D0:  CALL   1F36
....................    CiclosH=read_eeprom(38); 
029D4:  MOVFF  FF2,622
029D8:  BCF    FF2.6
029DA:  BCF    FF2.7
029DC:  CLRF   FAA
029DE:  MOVLW  26
029E0:  MOVWF  FA9
029E2:  BCF    FA6.6
029E4:  BCF    FA6.7
029E6:  BSF    FA6.0
029E8:  MOVF   FA8,W
029EA:  MOVLB  6
029EC:  BTFSC  x22.6
029EE:  BSF    FF2.6
029F0:  BTFSC  x22.7
029F2:  BSF    FF2.7
029F4:  MOVLB  1
029F6:  MOVWF  xD4
....................    delay_ms(10); 
029F8:  MOVLW  0A
029FA:  MOVLB  6
029FC:  MOVWF  x37
029FE:  MOVLB  0
02A00:  CALL   1F36
....................    Ciclos=make16(CiclosH,CiclosL); 
02A04:  MOVFF  1D4,1F0
02A08:  MOVFF  1D3,1EF
....................    delay_ms(10); 
02A0C:  MOVLW  0A
02A0E:  MOVLB  6
02A10:  MOVWF  x37
02A12:  MOVLB  0
02A14:  CALL   1F36
....................    G1=read_eeprom(42); 
02A18:  MOVFF  FF2,622
02A1C:  BCF    FF2.6
02A1E:  BCF    FF2.7
02A20:  CLRF   FAA
02A22:  MOVLW  2A
02A24:  MOVWF  FA9
02A26:  BCF    FA6.6
02A28:  BCF    FA6.7
02A2A:  BSF    FA6.0
02A2C:  MOVF   FA8,W
02A2E:  MOVLB  6
02A30:  BTFSC  x22.6
02A32:  BSF    FF2.6
02A34:  BTFSC  x22.7
02A36:  BSF    FF2.7
02A38:  MOVLB  2
02A3A:  MOVWF  x24
....................    delay_ms(10); 
02A3C:  MOVLW  0A
02A3E:  MOVLB  6
02A40:  MOVWF  x37
02A42:  MOVLB  0
02A44:  CALL   1F36
....................    G2=read_eeprom(43); 
02A48:  MOVFF  FF2,622
02A4C:  BCF    FF2.6
02A4E:  BCF    FF2.7
02A50:  CLRF   FAA
02A52:  MOVLW  2B
02A54:  MOVWF  FA9
02A56:  BCF    FA6.6
02A58:  BCF    FA6.7
02A5A:  BSF    FA6.0
02A5C:  MOVF   FA8,W
02A5E:  MOVLB  6
02A60:  BTFSC  x22.6
02A62:  BSF    FF2.6
02A64:  BTFSC  x22.7
02A66:  BSF    FF2.7
02A68:  MOVLB  2
02A6A:  MOVWF  x25
....................    delay_ms(10); 
02A6C:  MOVLW  0A
02A6E:  MOVLB  6
02A70:  MOVWF  x37
02A72:  MOVLB  0
02A74:  CALL   1F36
....................    sg1=read_eeprom(44); 
02A78:  MOVFF  FF2,622
02A7C:  BCF    FF2.6
02A7E:  BCF    FF2.7
02A80:  CLRF   FAA
02A82:  MOVLW  2C
02A84:  MOVWF  FA9
02A86:  BCF    FA6.6
02A88:  BCF    FA6.7
02A8A:  BSF    FA6.0
02A8C:  MOVF   FA8,W
02A8E:  MOVLB  6
02A90:  BTFSC  x22.6
02A92:  BSF    FF2.6
02A94:  BTFSC  x22.7
02A96:  BSF    FF2.7
02A98:  MOVLB  2
02A9A:  MOVWF  x26
....................    delay_ms(10); 
02A9C:  MOVLW  0A
02A9E:  MOVLB  6
02AA0:  MOVWF  x37
02AA2:  MOVLB  0
02AA4:  CALL   1F36
....................    sg2=read_eeprom(45); 
02AA8:  MOVFF  FF2,622
02AAC:  BCF    FF2.6
02AAE:  BCF    FF2.7
02AB0:  CLRF   FAA
02AB2:  MOVLW  2D
02AB4:  MOVWF  FA9
02AB6:  BCF    FA6.6
02AB8:  BCF    FA6.7
02ABA:  BSF    FA6.0
02ABC:  MOVF   FA8,W
02ABE:  MOVLB  6
02AC0:  BTFSC  x22.6
02AC2:  BSF    FF2.6
02AC4:  BTFSC  x22.7
02AC6:  BSF    FF2.7
02AC8:  MOVLB  2
02ACA:  MOVWF  x27
....................     
....................    for(i=0;i<30;i++){ 
02ACC:  MOVLB  1
02ACE:  CLRF   xD2
02AD0:  MOVF   xD2,W
02AD2:  SUBLW  1D
02AD4:  BNC   2B4A
....................       estados[i]=read_eeprom(i+50); 
02AD6:  MOVLW  32
02AD8:  ADDWF  xD2,W
02ADA:  MOVLB  6
02ADC:  MOVWF  x22
02ADE:  MOVFF  FF2,623
02AE2:  BCF    FF2.6
02AE4:  BCF    FF2.7
02AE6:  CLRF   FAA
02AE8:  MOVFF  622,FA9
02AEC:  BCF    FA6.6
02AEE:  BCF    FA6.7
02AF0:  BSF    FA6.0
02AF2:  MOVF   FA8,W
02AF4:  BTFSC  x23.6
02AF6:  BSF    FF2.6
02AF8:  BTFSC  x23.7
02AFA:  BSF    FF2.7
02AFC:  MOVFF  1D2,624
02B00:  MOVWF  x25
02B02:  MOVLW  02
02B04:  MOVWF  x27
02B06:  MOVLW  8E
02B08:  MOVWF  x26
02B0A:  MOVLB  0
02B0C:  RCALL  2334
....................       if(estados[i]>1) 
02B0E:  MOVFF  1D2,623
02B12:  MOVLW  02
02B14:  MOVLB  6
02B16:  MOVWF  x25
02B18:  MOVLW  8E
02B1A:  MOVWF  x24
02B1C:  MOVLB  0
02B1E:  RCALL  2376
02B20:  MOVLW  00
02B22:  BTFSC  01.0
02B24:  MOVLW  01
02B26:  ANDLW  01
02B28:  SUBLW  01
02B2A:  BC    2B44
....................          estados[i]=1; 
02B2C:  MOVFF  1D2,624
02B30:  MOVLW  01
02B32:  MOVLB  6
02B34:  MOVWF  x25
02B36:  MOVLW  02
02B38:  MOVWF  x27
02B3A:  MOVLW  8E
02B3C:  MOVWF  x26
02B3E:  MOVLB  0
02B40:  CALL   2334
....................    } 
02B44:  MOVLB  1
02B46:  INCF   xD2,F
02B48:  BRA    2AD0
....................     
....................    for(i=0;i<20;i++){//Lee valores almacenados de ciclos personalizados 
02B4A:  CLRF   xD2
02B4C:  MOVF   xD2,W
02B4E:  SUBLW  13
02B50:  BTFSS  FD8.0
02B52:  BRA    3120
....................       CiclosPersonalizados[i].Temperatura=read_eeprom(100+(i*8));  
02B54:  MOVF   xD2,W
02B56:  MULLW  08
02B58:  MOVF   FF3,W
02B5A:  MOVLB  6
02B5C:  CLRF   x23
02B5E:  MOVWF  x22
02B60:  MOVLW  5A
02B62:  ADDWF  x22,W
02B64:  MOVWF  FE9
02B66:  MOVLW  05
02B68:  ADDWFC x23,W
02B6A:  MOVWF  FEA
02B6C:  MOVLB  1
02B6E:  MOVF   xD2,W
02B70:  MULLW  08
02B72:  MOVF   FF3,W
02B74:  ADDLW  64
02B76:  MOVLB  6
02B78:  MOVWF  x24
02B7A:  MOVFF  FF2,625
02B7E:  BCF    FF2.6
02B80:  BCF    FF2.7
02B82:  CLRF   FAA
02B84:  MOVFF  624,FA9
02B88:  BCF    FA6.6
02B8A:  BCF    FA6.7
02B8C:  BSF    FA6.0
02B8E:  MOVF   FA8,W
02B90:  BTFSC  x25.6
02B92:  BSF    FF2.6
02B94:  BTFSC  x25.7
02B96:  BSF    FF2.7
02B98:  MOVWF  FEF
....................       CiclosPersonalizados[i].Minutoest=read_eeprom(101+(i*8));  
02B9A:  MOVLB  1
02B9C:  MOVF   xD2,W
02B9E:  MULLW  08
02BA0:  MOVF   FF3,W
02BA2:  MOVLB  6
02BA4:  CLRF   x23
02BA6:  MOVWF  x22
02BA8:  MOVLW  01
02BAA:  ADDWF  x22,W
02BAC:  MOVWF  01
02BAE:  MOVLW  00
02BB0:  ADDWFC x23,W
02BB2:  MOVWF  03
02BB4:  MOVF   01,W
02BB6:  ADDLW  5A
02BB8:  MOVWF  FE9
02BBA:  MOVLW  05
02BBC:  ADDWFC 03,W
02BBE:  MOVWF  FEA
02BC0:  MOVLB  1
02BC2:  MOVF   xD2,W
02BC4:  MULLW  08
02BC6:  MOVF   FF3,W
02BC8:  ADDLW  65
02BCA:  MOVLB  6
02BCC:  MOVWF  x24
02BCE:  MOVFF  FF2,625
02BD2:  BCF    FF2.6
02BD4:  BCF    FF2.7
02BD6:  CLRF   FAA
02BD8:  MOVFF  624,FA9
02BDC:  BCF    FA6.6
02BDE:  BCF    FA6.7
02BE0:  BSF    FA6.0
02BE2:  MOVF   FA8,W
02BE4:  BTFSC  x25.6
02BE6:  BSF    FF2.6
02BE8:  BTFSC  x25.7
02BEA:  BSF    FF2.7
02BEC:  MOVWF  FEF
....................       CiclosPersonalizados[i].Segundoest=read_eeprom(102+(i*8));  
02BEE:  MOVLB  1
02BF0:  MOVF   xD2,W
02BF2:  MULLW  08
02BF4:  MOVF   FF3,W
02BF6:  MOVLB  6
02BF8:  CLRF   x23
02BFA:  MOVWF  x22
02BFC:  MOVLW  02
02BFE:  ADDWF  x22,W
02C00:  MOVWF  01
02C02:  MOVLW  00
02C04:  ADDWFC x23,W
02C06:  MOVWF  03
02C08:  MOVF   01,W
02C0A:  ADDLW  5A
02C0C:  MOVWF  FE9
02C0E:  MOVLW  05
02C10:  ADDWFC 03,W
02C12:  MOVWF  FEA
02C14:  MOVLB  1
02C16:  MOVF   xD2,W
02C18:  MULLW  08
02C1A:  MOVF   FF3,W
02C1C:  ADDLW  66
02C1E:  MOVLB  6
02C20:  MOVWF  x24
02C22:  MOVFF  FF2,625
02C26:  BCF    FF2.6
02C28:  BCF    FF2.7
02C2A:  CLRF   FAA
02C2C:  MOVFF  624,FA9
02C30:  BCF    FA6.6
02C32:  BCF    FA6.7
02C34:  BSF    FA6.0
02C36:  MOVF   FA8,W
02C38:  BTFSC  x25.6
02C3A:  BSF    FF2.6
02C3C:  BTFSC  x25.7
02C3E:  BSF    FF2.7
02C40:  MOVWF  FEF
....................       CiclosPersonalizados[i].Minutosec=read_eeprom(103+(i*8));  
02C42:  MOVLB  1
02C44:  MOVF   xD2,W
02C46:  MULLW  08
02C48:  MOVF   FF3,W
02C4A:  MOVLB  6
02C4C:  CLRF   x23
02C4E:  MOVWF  x22
02C50:  MOVLW  03
02C52:  ADDWF  x22,W
02C54:  MOVWF  01
02C56:  MOVLW  00
02C58:  ADDWFC x23,W
02C5A:  MOVWF  03
02C5C:  MOVF   01,W
02C5E:  ADDLW  5A
02C60:  MOVWF  FE9
02C62:  MOVLW  05
02C64:  ADDWFC 03,W
02C66:  MOVWF  FEA
02C68:  MOVLB  1
02C6A:  MOVF   xD2,W
02C6C:  MULLW  08
02C6E:  MOVF   FF3,W
02C70:  ADDLW  67
02C72:  MOVLB  6
02C74:  MOVWF  x24
02C76:  MOVFF  FF2,625
02C7A:  BCF    FF2.6
02C7C:  BCF    FF2.7
02C7E:  CLRF   FAA
02C80:  MOVFF  624,FA9
02C84:  BCF    FA6.6
02C86:  BCF    FA6.7
02C88:  BSF    FA6.0
02C8A:  MOVF   FA8,W
02C8C:  BTFSC  x25.6
02C8E:  BSF    FF2.6
02C90:  BTFSC  x25.7
02C92:  BSF    FF2.7
02C94:  MOVWF  FEF
....................       CiclosPersonalizados[i].Segundosec=read_eeprom(104+(i*8));  
02C96:  MOVLB  1
02C98:  MOVF   xD2,W
02C9A:  MULLW  08
02C9C:  MOVF   FF3,W
02C9E:  MOVLB  6
02CA0:  CLRF   x23
02CA2:  MOVWF  x22
02CA4:  MOVLW  04
02CA6:  ADDWF  x22,W
02CA8:  MOVWF  01
02CAA:  MOVLW  00
02CAC:  ADDWFC x23,W
02CAE:  MOVWF  03
02CB0:  MOVF   01,W
02CB2:  ADDLW  5A
02CB4:  MOVWF  FE9
02CB6:  MOVLW  05
02CB8:  ADDWFC 03,W
02CBA:  MOVWF  FEA
02CBC:  MOVLB  1
02CBE:  MOVF   xD2,W
02CC0:  MULLW  08
02CC2:  MOVF   FF3,W
02CC4:  ADDLW  68
02CC6:  MOVLB  6
02CC8:  MOVWF  x24
02CCA:  MOVFF  FF2,625
02CCE:  BCF    FF2.6
02CD0:  BCF    FF2.7
02CD2:  CLRF   FAA
02CD4:  MOVFF  624,FA9
02CD8:  BCF    FA6.6
02CDA:  BCF    FA6.7
02CDC:  BSF    FA6.0
02CDE:  MOVF   FA8,W
02CE0:  BTFSC  x25.6
02CE2:  BSF    FF2.6
02CE4:  BTFSC  x25.7
02CE6:  BSF    FF2.7
02CE8:  MOVWF  FEF
....................       CiclosPersonalizados[i].PulsosVacio=read_eeprom(105+(i*8));  
02CEA:  MOVLB  1
02CEC:  MOVF   xD2,W
02CEE:  MULLW  08
02CF0:  MOVF   FF3,W
02CF2:  MOVLB  6
02CF4:  CLRF   x23
02CF6:  MOVWF  x22
02CF8:  MOVLW  05
02CFA:  ADDWF  x22,W
02CFC:  MOVWF  01
02CFE:  MOVLW  00
02D00:  ADDWFC x23,W
02D02:  MOVWF  03
02D04:  MOVF   01,W
02D06:  ADDLW  5A
02D08:  MOVWF  FE9
02D0A:  MOVLW  05
02D0C:  ADDWFC 03,W
02D0E:  MOVWF  FEA
02D10:  MOVLB  1
02D12:  MOVF   xD2,W
02D14:  MULLW  08
02D16:  MOVF   FF3,W
02D18:  ADDLW  69
02D1A:  MOVLB  6
02D1C:  MOVWF  x24
02D1E:  MOVFF  FF2,625
02D22:  BCF    FF2.6
02D24:  BCF    FF2.7
02D26:  CLRF   FAA
02D28:  MOVFF  624,FA9
02D2C:  BCF    FA6.6
02D2E:  BCF    FA6.7
02D30:  BSF    FA6.0
02D32:  MOVF   FA8,W
02D34:  BTFSC  x25.6
02D36:  BSF    FF2.6
02D38:  BTFSC  x25.7
02D3A:  BSF    FF2.7
02D3C:  MOVWF  FEF
....................       CiclosPersonalizados[i].NivelVacio=read_eeprom(106+(i*8));  
02D3E:  MOVLB  1
02D40:  MOVF   xD2,W
02D42:  MULLW  08
02D44:  MOVF   FF3,W
02D46:  MOVLB  6
02D48:  CLRF   x23
02D4A:  MOVWF  x22
02D4C:  MOVLW  06
02D4E:  ADDWF  x22,W
02D50:  MOVWF  01
02D52:  MOVLW  00
02D54:  ADDWFC x23,W
02D56:  MOVWF  03
02D58:  MOVF   01,W
02D5A:  ADDLW  5A
02D5C:  MOVWF  FE9
02D5E:  MOVLW  05
02D60:  ADDWFC 03,W
02D62:  MOVWF  FEA
02D64:  MOVLB  1
02D66:  MOVF   xD2,W
02D68:  MULLW  08
02D6A:  MOVF   FF3,W
02D6C:  ADDLW  6A
02D6E:  MOVLB  6
02D70:  MOVWF  x24
02D72:  MOVFF  FF2,625
02D76:  BCF    FF2.6
02D78:  BCF    FF2.7
02D7A:  CLRF   FAA
02D7C:  MOVFF  624,FA9
02D80:  BCF    FA6.6
02D82:  BCF    FA6.7
02D84:  BSF    FA6.0
02D86:  MOVF   FA8,W
02D88:  BTFSC  x25.6
02D8A:  BSF    FF2.6
02D8C:  BTFSC  x25.7
02D8E:  BSF    FF2.7
02D90:  MOVWF  FEF
....................       CiclosPersonalizados[i].NivelDesfogue=read_eeprom(107+(i*8));  
02D92:  MOVLB  1
02D94:  MOVF   xD2,W
02D96:  MULLW  08
02D98:  MOVF   FF3,W
02D9A:  MOVLB  6
02D9C:  CLRF   x23
02D9E:  MOVWF  x22
02DA0:  MOVLW  07
02DA2:  ADDWF  x22,W
02DA4:  MOVWF  01
02DA6:  MOVLW  00
02DA8:  ADDWFC x23,W
02DAA:  MOVWF  03
02DAC:  MOVF   01,W
02DAE:  ADDLW  5A
02DB0:  MOVWF  FE9
02DB2:  MOVLW  05
02DB4:  ADDWFC 03,W
02DB6:  MOVWF  FEA
02DB8:  MOVLB  1
02DBA:  MOVF   xD2,W
02DBC:  MULLW  08
02DBE:  MOVF   FF3,W
02DC0:  ADDLW  6B
02DC2:  MOVLB  6
02DC4:  MOVWF  x24
02DC6:  MOVFF  FF2,625
02DCA:  BCF    FF2.6
02DCC:  BCF    FF2.7
02DCE:  CLRF   FAA
02DD0:  MOVFF  624,FA9
02DD4:  BCF    FA6.6
02DD6:  BCF    FA6.7
02DD8:  BSF    FA6.0
02DDA:  MOVF   FA8,W
02DDC:  BTFSC  x25.6
02DDE:  BSF    FF2.6
02DE0:  BTFSC  x25.7
02DE2:  BSF    FF2.7
02DE4:  MOVWF  FEF
....................        
....................       if(CiclosPersonalizados[i].Temperatura>134 || CiclosPersonalizados[i].Temperatura<105) 
02DE6:  MOVLB  1
02DE8:  MOVF   xD2,W
02DEA:  MULLW  08
02DEC:  MOVF   FF3,W
02DEE:  MOVLB  6
02DF0:  CLRF   x23
02DF2:  MOVWF  x22
02DF4:  MOVLW  5A
02DF6:  ADDWF  x22,W
02DF8:  MOVWF  FE9
02DFA:  MOVLW  05
02DFC:  ADDWFC x23,W
02DFE:  MOVWF  FEA
02E00:  MOVF   FEF,W
02E02:  SUBLW  86
02E04:  BNC   2E26
02E06:  MOVLB  1
02E08:  MOVF   xD2,W
02E0A:  MULLW  08
02E0C:  MOVF   FF3,W
02E0E:  MOVLB  6
02E10:  CLRF   x23
02E12:  MOVWF  x22
02E14:  MOVLW  5A
02E16:  ADDWF  x22,W
02E18:  MOVWF  FE9
02E1A:  MOVLW  05
02E1C:  ADDWFC x23,W
02E1E:  MOVWF  FEA
02E20:  MOVF   FEF,W
02E22:  SUBLW  68
02E24:  BNC   2E44
....................          CiclosPersonalizados[i].Temperatura=121; 
02E26:  MOVLB  1
02E28:  MOVF   xD2,W
02E2A:  MULLW  08
02E2C:  MOVF   FF3,W
02E2E:  MOVLB  6
02E30:  CLRF   x23
02E32:  MOVWF  x22
02E34:  MOVLW  5A
02E36:  ADDWF  x22,W
02E38:  MOVWF  FE9
02E3A:  MOVLW  05
02E3C:  ADDWFC x23,W
02E3E:  MOVWF  FEA
02E40:  MOVLW  79
02E42:  MOVWF  FEF
....................       if(CiclosPersonalizados[i].Minutoest>59) 
02E44:  MOVLB  1
02E46:  MOVF   xD2,W
02E48:  MULLW  08
02E4A:  MOVF   FF3,W
02E4C:  MOVLB  6
02E4E:  CLRF   x23
02E50:  MOVWF  x22
02E52:  MOVLW  01
02E54:  ADDWF  x22,W
02E56:  MOVWF  01
02E58:  MOVLW  00
02E5A:  ADDWFC x23,W
02E5C:  MOVWF  03
02E5E:  MOVF   01,W
02E60:  ADDLW  5A
02E62:  MOVWF  FE9
02E64:  MOVLW  05
02E66:  ADDWFC 03,W
02E68:  MOVWF  FEA
02E6A:  MOVF   FEF,W
02E6C:  SUBLW  3B
02E6E:  BC    2E9A
....................          CiclosPersonalizados[i].Minutoest=3; 
02E70:  MOVLB  1
02E72:  MOVF   xD2,W
02E74:  MULLW  08
02E76:  MOVF   FF3,W
02E78:  MOVLB  6
02E7A:  CLRF   x23
02E7C:  MOVWF  x22
02E7E:  MOVLW  01
02E80:  ADDWF  x22,W
02E82:  MOVWF  01
02E84:  MOVLW  00
02E86:  ADDWFC x23,W
02E88:  MOVWF  03
02E8A:  MOVF   01,W
02E8C:  ADDLW  5A
02E8E:  MOVWF  FE9
02E90:  MOVLW  05
02E92:  ADDWFC 03,W
02E94:  MOVWF  FEA
02E96:  MOVLW  03
02E98:  MOVWF  FEF
....................       if(CiclosPersonalizados[i].Minutosec>59) 
02E9A:  MOVLB  1
02E9C:  MOVF   xD2,W
02E9E:  MULLW  08
02EA0:  MOVF   FF3,W
02EA2:  MOVLB  6
02EA4:  CLRF   x23
02EA6:  MOVWF  x22
02EA8:  MOVLW  03
02EAA:  ADDWF  x22,W
02EAC:  MOVWF  01
02EAE:  MOVLW  00
02EB0:  ADDWFC x23,W
02EB2:  MOVWF  03
02EB4:  MOVF   01,W
02EB6:  ADDLW  5A
02EB8:  MOVWF  FE9
02EBA:  MOVLW  05
02EBC:  ADDWFC 03,W
02EBE:  MOVWF  FEA
02EC0:  MOVF   FEF,W
02EC2:  SUBLW  3B
02EC4:  BC    2EEE
....................          CiclosPersonalizados[i].Minutosec=0;    
02EC6:  MOVLB  1
02EC8:  MOVF   xD2,W
02ECA:  MULLW  08
02ECC:  MOVF   FF3,W
02ECE:  MOVLB  6
02ED0:  CLRF   x23
02ED2:  MOVWF  x22
02ED4:  MOVLW  03
02ED6:  ADDWF  x22,W
02ED8:  MOVWF  01
02EDA:  MOVLW  00
02EDC:  ADDWFC x23,W
02EDE:  MOVWF  03
02EE0:  MOVF   01,W
02EE2:  ADDLW  5A
02EE4:  MOVWF  FE9
02EE6:  MOVLW  05
02EE8:  ADDWFC 03,W
02EEA:  MOVWF  FEA
02EEC:  CLRF   FEF
....................       if(CiclosPersonalizados[i].Segundoest>59) 
02EEE:  MOVLB  1
02EF0:  MOVF   xD2,W
02EF2:  MULLW  08
02EF4:  MOVF   FF3,W
02EF6:  MOVLB  6
02EF8:  CLRF   x23
02EFA:  MOVWF  x22
02EFC:  MOVLW  02
02EFE:  ADDWF  x22,W
02F00:  MOVWF  01
02F02:  MOVLW  00
02F04:  ADDWFC x23,W
02F06:  MOVWF  03
02F08:  MOVF   01,W
02F0A:  ADDLW  5A
02F0C:  MOVWF  FE9
02F0E:  MOVLW  05
02F10:  ADDWFC 03,W
02F12:  MOVWF  FEA
02F14:  MOVF   FEF,W
02F16:  SUBLW  3B
02F18:  BC    2F42
....................          CiclosPersonalizados[i].Segundoest=0; 
02F1A:  MOVLB  1
02F1C:  MOVF   xD2,W
02F1E:  MULLW  08
02F20:  MOVF   FF3,W
02F22:  MOVLB  6
02F24:  CLRF   x23
02F26:  MOVWF  x22
02F28:  MOVLW  02
02F2A:  ADDWF  x22,W
02F2C:  MOVWF  01
02F2E:  MOVLW  00
02F30:  ADDWFC x23,W
02F32:  MOVWF  03
02F34:  MOVF   01,W
02F36:  ADDLW  5A
02F38:  MOVWF  FE9
02F3A:  MOVLW  05
02F3C:  ADDWFC 03,W
02F3E:  MOVWF  FEA
02F40:  CLRF   FEF
....................       if(CiclosPersonalizados[i].Segundosec>59) 
02F42:  MOVLB  1
02F44:  MOVF   xD2,W
02F46:  MULLW  08
02F48:  MOVF   FF3,W
02F4A:  MOVLB  6
02F4C:  CLRF   x23
02F4E:  MOVWF  x22
02F50:  MOVLW  04
02F52:  ADDWF  x22,W
02F54:  MOVWF  01
02F56:  MOVLW  00
02F58:  ADDWFC x23,W
02F5A:  MOVWF  03
02F5C:  MOVF   01,W
02F5E:  ADDLW  5A
02F60:  MOVWF  FE9
02F62:  MOVLW  05
02F64:  ADDWFC 03,W
02F66:  MOVWF  FEA
02F68:  MOVF   FEF,W
02F6A:  SUBLW  3B
02F6C:  BC    2F96
....................          CiclosPersonalizados[i].Segundosec=0;       
02F6E:  MOVLB  1
02F70:  MOVF   xD2,W
02F72:  MULLW  08
02F74:  MOVF   FF3,W
02F76:  MOVLB  6
02F78:  CLRF   x23
02F7A:  MOVWF  x22
02F7C:  MOVLW  04
02F7E:  ADDWF  x22,W
02F80:  MOVWF  01
02F82:  MOVLW  00
02F84:  ADDWFC x23,W
02F86:  MOVWF  03
02F88:  MOVF   01,W
02F8A:  ADDLW  5A
02F8C:  MOVWF  FE9
02F8E:  MOVLW  05
02F90:  ADDWFC 03,W
02F92:  MOVWF  FEA
02F94:  CLRF   FEF
....................       if(CiclosPersonalizados[i].PulsosVacio>15) 
02F96:  MOVLB  1
02F98:  MOVF   xD2,W
02F9A:  MULLW  08
02F9C:  MOVF   FF3,W
02F9E:  MOVLB  6
02FA0:  CLRF   x23
02FA2:  MOVWF  x22
02FA4:  MOVLW  05
02FA6:  ADDWF  x22,W
02FA8:  MOVWF  01
02FAA:  MOVLW  00
02FAC:  ADDWFC x23,W
02FAE:  MOVWF  03
02FB0:  MOVF   01,W
02FB2:  ADDLW  5A
02FB4:  MOVWF  FE9
02FB6:  MOVLW  05
02FB8:  ADDWFC 03,W
02FBA:  MOVWF  FEA
02FBC:  MOVF   FEF,W
02FBE:  SUBLW  0F
02FC0:  BC    2FEC
....................          CiclosPersonalizados[i].PulsosVacio=7; 
02FC2:  MOVLB  1
02FC4:  MOVF   xD2,W
02FC6:  MULLW  08
02FC8:  MOVF   FF3,W
02FCA:  MOVLB  6
02FCC:  CLRF   x23
02FCE:  MOVWF  x22
02FD0:  MOVLW  05
02FD2:  ADDWF  x22,W
02FD4:  MOVWF  01
02FD6:  MOVLW  00
02FD8:  ADDWFC x23,W
02FDA:  MOVWF  03
02FDC:  MOVF   01,W
02FDE:  ADDLW  5A
02FE0:  MOVWF  FE9
02FE2:  MOVLW  05
02FE4:  ADDWFC 03,W
02FE6:  MOVWF  FEA
02FE8:  MOVLW  07
02FEA:  MOVWF  FEF
....................       if(CiclosPersonalizados[i].PulsosVacio<7) 
02FEC:  MOVLB  1
02FEE:  MOVF   xD2,W
02FF0:  MULLW  08
02FF2:  MOVF   FF3,W
02FF4:  MOVLB  6
02FF6:  CLRF   x23
02FF8:  MOVWF  x22
02FFA:  MOVLW  05
02FFC:  ADDWF  x22,W
02FFE:  MOVWF  01
03000:  MOVLW  00
03002:  ADDWFC x23,W
03004:  MOVWF  03
03006:  MOVF   01,W
03008:  ADDLW  5A
0300A:  MOVWF  FE9
0300C:  MOVLW  05
0300E:  ADDWFC 03,W
03010:  MOVWF  FEA
03012:  MOVF   FEF,W
03014:  SUBLW  06
03016:  BNC   3042
....................          CiclosPersonalizados[i].PulsosVacio=7; 
03018:  MOVLB  1
0301A:  MOVF   xD2,W
0301C:  MULLW  08
0301E:  MOVF   FF3,W
03020:  MOVLB  6
03022:  CLRF   x23
03024:  MOVWF  x22
03026:  MOVLW  05
03028:  ADDWF  x22,W
0302A:  MOVWF  01
0302C:  MOVLW  00
0302E:  ADDWFC x23,W
03030:  MOVWF  03
03032:  MOVF   01,W
03034:  ADDLW  5A
03036:  MOVWF  FE9
03038:  MOVLW  05
0303A:  ADDWFC 03,W
0303C:  MOVWF  FEA
0303E:  MOVLW  07
03040:  MOVWF  FEF
....................       if(CiclosPersonalizados[i].NivelVacio>100 || CiclosPersonalizados[i].NivelVacio<25) 
03042:  MOVLB  1
03044:  MOVF   xD2,W
03046:  MULLW  08
03048:  MOVF   FF3,W
0304A:  MOVLB  6
0304C:  CLRF   x23
0304E:  MOVWF  x22
03050:  MOVLW  06
03052:  ADDWF  x22,W
03054:  MOVWF  01
03056:  MOVLW  00
03058:  ADDWFC x23,W
0305A:  MOVWF  03
0305C:  MOVF   01,W
0305E:  ADDLW  5A
03060:  MOVWF  FE9
03062:  MOVLW  05
03064:  ADDWFC 03,W
03066:  MOVWF  FEA
03068:  MOVF   FEF,W
0306A:  SUBLW  64
0306C:  BNC   309A
0306E:  MOVLB  1
03070:  MOVF   xD2,W
03072:  MULLW  08
03074:  MOVF   FF3,W
03076:  MOVLB  6
03078:  CLRF   x23
0307A:  MOVWF  x22
0307C:  MOVLW  06
0307E:  ADDWF  x22,W
03080:  MOVWF  01
03082:  MOVLW  00
03084:  ADDWFC x23,W
03086:  MOVWF  03
03088:  MOVF   01,W
0308A:  ADDLW  5A
0308C:  MOVWF  FE9
0308E:  MOVLW  05
03090:  ADDWFC 03,W
03092:  MOVWF  FEA
03094:  MOVF   FEF,W
03096:  SUBLW  18
03098:  BNC   30C4
....................          CiclosPersonalizados[i].NivelVacio=25;    
0309A:  MOVLB  1
0309C:  MOVF   xD2,W
0309E:  MULLW  08
030A0:  MOVF   FF3,W
030A2:  MOVLB  6
030A4:  CLRF   x23
030A6:  MOVWF  x22
030A8:  MOVLW  06
030AA:  ADDWF  x22,W
030AC:  MOVWF  01
030AE:  MOVLW  00
030B0:  ADDWFC x23,W
030B2:  MOVWF  03
030B4:  MOVF   01,W
030B6:  ADDLW  5A
030B8:  MOVWF  FE9
030BA:  MOVLW  05
030BC:  ADDWFC 03,W
030BE:  MOVWF  FEA
030C0:  MOVLW  19
030C2:  MOVWF  FEF
....................       if(CiclosPersonalizados[i].NivelDesfogue>6) 
030C4:  MOVLB  1
030C6:  MOVF   xD2,W
030C8:  MULLW  08
030CA:  MOVF   FF3,W
030CC:  MOVLB  6
030CE:  CLRF   x23
030D0:  MOVWF  x22
030D2:  MOVLW  07
030D4:  ADDWF  x22,W
030D6:  MOVWF  01
030D8:  MOVLW  00
030DA:  ADDWFC x23,W
030DC:  MOVWF  03
030DE:  MOVF   01,W
030E0:  ADDLW  5A
030E2:  MOVWF  FE9
030E4:  MOVLW  05
030E6:  ADDWFC 03,W
030E8:  MOVWF  FEA
030EA:  MOVF   FEF,W
030EC:  SUBLW  06
030EE:  BC    311A
....................          CiclosPersonalizados[i].NivelDesfogue=6; 
030F0:  MOVLB  1
030F2:  MOVF   xD2,W
030F4:  MULLW  08
030F6:  MOVF   FF3,W
030F8:  MOVLB  6
030FA:  CLRF   x23
030FC:  MOVWF  x22
030FE:  MOVLW  07
03100:  ADDWF  x22,W
03102:  MOVWF  01
03104:  MOVLW  00
03106:  ADDWFC x23,W
03108:  MOVWF  03
0310A:  MOVF   01,W
0310C:  ADDLW  5A
0310E:  MOVWF  FE9
03110:  MOVLW  05
03112:  ADDWFC 03,W
03114:  MOVWF  FEA
03116:  MOVLW  06
03118:  MOVWF  FEF
....................    } 
0311A:  MOVLB  1
0311C:  INCF   xD2,F
0311E:  BRA    2B4C
....................     
....................    for(i=0;i<10;i++){//Lee contraseas de usuarios 
03120:  CLRF   xD2
03122:  MOVF   xD2,W
03124:  SUBLW  09
03126:  BNC   3208
....................       for(j=0;j<4;j++){ 
03128:  MOVLB  2
0312A:  CLRF   x21
0312C:  MOVF   x21,W
0312E:  SUBLW  03
03130:  BNC   3202
....................          Clave[i].Password[j]=read_eeprom((300+j)+(i*4)); 
03132:  MOVLB  1
03134:  MOVF   xD2,W
03136:  MULLW  04
03138:  MOVF   FF3,W
0313A:  MOVLB  6
0313C:  CLRF   x23
0313E:  MOVWF  x22
03140:  CLRF   03
03142:  MOVLB  2
03144:  MOVF   x21,W
03146:  MOVLB  6
03148:  ADDWF  x22,W
0314A:  MOVWF  01
0314C:  MOVF   x23,W
0314E:  ADDWFC 03,F
03150:  MOVF   01,W
03152:  ADDLW  FA
03154:  MOVWF  FE9
03156:  MOVLW  05
03158:  ADDWFC 03,W
0315A:  MOVWF  FEA
0315C:  MOVLW  2C
0315E:  MOVLB  2
03160:  ADDWF  x21,W
03162:  MOVLB  6
03164:  MOVWF  x24
03166:  MOVLW  01
03168:  MOVWF  x25
0316A:  BTFSC  FD8.0
0316C:  INCF   x25,F
0316E:  MOVLB  1
03170:  MOVF   xD2,W
03172:  MULLW  04
03174:  MOVF   FF3,W
03176:  MOVLB  6
03178:  ADDWF  x24,F
0317A:  MOVLW  00
0317C:  ADDWFC x25,F
0317E:  MOVFF  FF2,626
03182:  BCF    FF2.6
03184:  BCF    FF2.7
03186:  MOVFF  625,FAA
0318A:  MOVFF  624,FA9
0318E:  BCF    FA6.6
03190:  BCF    FA6.7
03192:  BSF    FA6.0
03194:  MOVF   FA8,W
03196:  BTFSC  x26.6
03198:  BSF    FF2.6
0319A:  BTFSC  x26.7
0319C:  BSF    FF2.7
0319E:  MOVWF  FEF
....................          if(Clave[i].Password[j]>9) 
031A0:  MOVLB  1
031A2:  MOVF   xD2,W
031A4:  MULLW  04
031A6:  MOVF   FF3,W
031A8:  MOVLB  6
031AA:  CLRF   x23
031AC:  MOVWF  x22
031AE:  CLRF   03
031B0:  MOVLB  2
031B2:  MOVF   x21,W
031B4:  MOVLB  6
031B6:  ADDWF  x22,W
031B8:  MOVWF  01
031BA:  MOVF   x23,W
031BC:  ADDWFC 03,F
031BE:  MOVF   01,W
031C0:  ADDLW  FA
031C2:  MOVWF  FE9
031C4:  MOVLW  05
031C6:  ADDWFC 03,W
031C8:  MOVWF  FEA
031CA:  MOVF   FEF,W
031CC:  SUBLW  09
031CE:  BC    31FC
....................             Clave[i].Password[j]=0; 
031D0:  MOVLB  1
031D2:  MOVF   xD2,W
031D4:  MULLW  04
031D6:  MOVF   FF3,W
031D8:  MOVLB  6
031DA:  CLRF   x23
031DC:  MOVWF  x22
031DE:  CLRF   03
031E0:  MOVLB  2
031E2:  MOVF   x21,W
031E4:  MOVLB  6
031E6:  ADDWF  x22,W
031E8:  MOVWF  01
031EA:  MOVF   x23,W
031EC:  ADDWFC 03,F
031EE:  MOVF   01,W
031F0:  ADDLW  FA
031F2:  MOVWF  FE9
031F4:  MOVLW  05
031F6:  ADDWFC 03,W
031F8:  MOVWF  FEA
031FA:  CLRF   FEF
....................       } 
031FC:  MOVLB  2
031FE:  INCF   x21,F
03200:  BRA    312C
....................    } 
03202:  MOVLB  1
03204:  INCF   xD2,F
03206:  BRA    3122
....................     
....................    diaCiclos=read_ext_eeprom(2+(cicloVisto*320)); 
03208:  MOVLB  6
0320A:  CLRF   x37
0320C:  MOVFF  211,636
03210:  MOVLW  01
03212:  MOVWF  x39
03214:  MOVLW  40
03216:  MOVWF  x38
03218:  MOVLB  0
0321A:  CALL   23A8
0321E:  MOVFF  02,03
03222:  MOVF   01,W
03224:  ADDLW  02
03226:  MOVLB  6
03228:  MOVWF  x22
0322A:  MOVLW  00
0322C:  ADDWFC 02,W
0322E:  MOVWF  x23
03230:  MOVWF  x28
03232:  MOVFF  622,627
03236:  MOVLB  0
03238:  CALL   24AA
0323C:  MOVFF  01,289
....................    if(diaCiclos>31) 
03240:  MOVLB  2
03242:  MOVF   x89,W
03244:  SUBLW  1F
03246:  BC    324C
....................       diaCiclos=1; 
03248:  MOVLW  01
0324A:  MOVWF  x89
....................    mesCiclos=read_ext_eeprom(3+(cicloVisto*320)); 
0324C:  MOVLB  6
0324E:  CLRF   x37
03250:  MOVFF  211,636
03254:  MOVLW  01
03256:  MOVWF  x39
03258:  MOVLW  40
0325A:  MOVWF  x38
0325C:  MOVLB  0
0325E:  CALL   23A8
03262:  MOVFF  02,03
03266:  MOVF   01,W
03268:  ADDLW  03
0326A:  MOVLB  6
0326C:  MOVWF  x22
0326E:  MOVLW  00
03270:  ADDWFC 02,W
03272:  MOVWF  x23
03274:  MOVWF  x28
03276:  MOVFF  622,627
0327A:  MOVLB  0
0327C:  CALL   24AA
03280:  MOVFF  01,28A
....................    if(mesCiclos>12) 
03284:  MOVLB  2
03286:  MOVF   x8A,W
03288:  SUBLW  0C
0328A:  BC    3290
....................       mesCiclos=1; 
0328C:  MOVLW  01
0328E:  MOVWF  x8A
....................    yearCiclos=read_ext_eeprom(4+(cicloVisto*320)); 
03290:  MOVLB  6
03292:  CLRF   x37
03294:  MOVFF  211,636
03298:  MOVLW  01
0329A:  MOVWF  x39
0329C:  MOVLW  40
0329E:  MOVWF  x38
032A0:  MOVLB  0
032A2:  CALL   23A8
032A6:  MOVFF  02,03
032AA:  MOVF   01,W
032AC:  ADDLW  04
032AE:  MOVLB  6
032B0:  MOVWF  x22
032B2:  MOVLW  00
032B4:  ADDWFC 02,W
032B6:  MOVWF  x23
032B8:  MOVWF  x28
032BA:  MOVFF  622,627
032BE:  MOVLB  0
032C0:  CALL   24AA
032C4:  MOVFF  01,28B
....................    if(yearCiclos>99) 
032C8:  MOVLB  2
032CA:  MOVF   x8B,W
032CC:  SUBLW  63
032CE:  BC    32D4
....................       yearCiclos=19; 
032D0:  MOVLW  13
032D2:  MOVWF  x8B
....................    cicloCiclos=read_ext_eeprom(1+(cicloVisto*320)); 
032D4:  MOVLB  6
032D6:  CLRF   x37
032D8:  MOVFF  211,636
032DC:  MOVLW  01
032DE:  MOVWF  x39
032E0:  MOVLW  40
032E2:  MOVWF  x38
032E4:  MOVLB  0
032E6:  CALL   23A8
032EA:  MOVFF  02,03
032EE:  MOVF   01,W
032F0:  ADDLW  01
032F2:  MOVLB  6
032F4:  MOVWF  x22
032F6:  MOVLW  00
032F8:  ADDWFC 02,W
032FA:  MOVWF  x23
032FC:  MOVWF  x28
032FE:  MOVFF  622,627
03302:  MOVLB  0
03304:  CALL   24AA
03308:  MOVFF  01,28D
....................    if(cicloCiclos>20) 
0330C:  MOVLB  2
0330E:  MOVF   x8D,W
03310:  SUBLW  14
03312:  BC    3318
....................       cicloCiclos=1; 
03314:  MOVLW  01
03316:  MOVWF  x8D
....................    usuarioCiclos=read_ext_eeprom((cicloVisto*320)); 
03318:  MOVLB  6
0331A:  CLRF   x37
0331C:  MOVFF  211,636
03320:  MOVLW  01
03322:  MOVWF  x39
03324:  MOVLW  40
03326:  MOVWF  x38
03328:  MOVLB  0
0332A:  CALL   23A8
0332E:  MOVFF  02,623
03332:  MOVFF  01,622
03336:  MOVFF  02,628
0333A:  MOVFF  01,627
0333E:  CALL   24AA
03342:  MOVFF  01,28C
....................    if(usuarioCiclos>10) 
03346:  MOVLB  2
03348:  MOVF   x8C,W
0334A:  SUBLW  0A
0334C:  BC    3352
....................       usuarioCiclos=1; 
0334E:  MOVLW  01
03350:  MOVWF  x8C
....................    for(i=0;i<7;i++){//Lee Valores para completar la Tabla 
03352:  MOVLB  1
03354:  CLRF   xD2
03356:  MOVF   xD2,W
03358:  SUBLW  06
0335A:  BTFSS  FD8.0
0335C:  BRA    38B8
....................       horaCiclos[i]=read_ext_eeprom((cicloVisto*320)+11+((cicloVisualizado+i)*9)); 
0335E:  CLRF   03
03360:  MOVF   xD2,W
03362:  ADDLW  74
03364:  MOVWF  01
03366:  MOVLW  02
03368:  ADDWFC 03,F
0336A:  MOVFF  01,622
0336E:  MOVLB  6
03370:  MOVFF  03,623
03374:  CLRF   x37
03376:  MOVFF  211,636
0337A:  MOVLW  01
0337C:  MOVWF  x39
0337E:  MOVLW  40
03380:  MOVWF  x38
03382:  MOVLB  0
03384:  CALL   23A8
03388:  MOVFF  02,625
0338C:  MOVFF  01,624
03390:  MOVLW  0B
03392:  MOVLB  6
03394:  ADDWF  x24,F
03396:  MOVLW  00
03398:  ADDWFC x25,F
0339A:  MOVLB  1
0339C:  MOVF   xD2,W
0339E:  MOVLB  2
033A0:  ADDWF  x10,W
033A2:  MULLW  09
033A4:  MOVF   FF3,W
033A6:  MOVLB  6
033A8:  ADDWF  x24,F
033AA:  MOVLW  00
033AC:  ADDWFC x25,F
033AE:  MOVFF  625,628
033B2:  MOVFF  624,627
033B6:  MOVLB  0
033B8:  CALL   24AA
033BC:  MOVFF  623,FEA
033C0:  MOVFF  622,FE9
033C4:  MOVFF  01,FEF
....................       if(horaCiclos[i]>24) 
033C8:  CLRF   03
033CA:  MOVLB  1
033CC:  MOVF   xD2,W
033CE:  ADDLW  74
033D0:  MOVWF  FE9
033D2:  MOVLW  02
033D4:  ADDWFC 03,W
033D6:  MOVWF  FEA
033D8:  MOVF   FEF,W
033DA:  SUBLW  18
033DC:  BC    33EE
....................          horaCiclos[i]=0; 
033DE:  CLRF   03
033E0:  MOVF   xD2,W
033E2:  ADDLW  74
033E4:  MOVWF  FE9
033E6:  MOVLW  02
033E8:  ADDWFC 03,W
033EA:  MOVWF  FEA
033EC:  CLRF   FEF
....................       minutoCiclos[i]=read_ext_eeprom((cicloVisto*320)+12+((cicloVisualizado+i)*9)); 
033EE:  CLRF   03
033F0:  MOVF   xD2,W
033F2:  ADDLW  7B
033F4:  MOVWF  01
033F6:  MOVLW  02
033F8:  ADDWFC 03,F
033FA:  MOVFF  01,622
033FE:  MOVLB  6
03400:  MOVFF  03,623
03404:  CLRF   x37
03406:  MOVFF  211,636
0340A:  MOVLW  01
0340C:  MOVWF  x39
0340E:  MOVLW  40
03410:  MOVWF  x38
03412:  MOVLB  0
03414:  CALL   23A8
03418:  MOVFF  02,625
0341C:  MOVFF  01,624
03420:  MOVLW  0C
03422:  MOVLB  6
03424:  ADDWF  x24,F
03426:  MOVLW  00
03428:  ADDWFC x25,F
0342A:  MOVLB  1
0342C:  MOVF   xD2,W
0342E:  MOVLB  2
03430:  ADDWF  x10,W
03432:  MULLW  09
03434:  MOVF   FF3,W
03436:  MOVLB  6
03438:  ADDWF  x24,F
0343A:  MOVLW  00
0343C:  ADDWFC x25,F
0343E:  MOVFF  625,628
03442:  MOVFF  624,627
03446:  MOVLB  0
03448:  CALL   24AA
0344C:  MOVFF  623,FEA
03450:  MOVFF  622,FE9
03454:  MOVFF  01,FEF
....................       if(minutoCiclos[i]>59) 
03458:  CLRF   03
0345A:  MOVLB  1
0345C:  MOVF   xD2,W
0345E:  ADDLW  7B
03460:  MOVWF  FE9
03462:  MOVLW  02
03464:  ADDWFC 03,W
03466:  MOVWF  FEA
03468:  MOVF   FEF,W
0346A:  SUBLW  3B
0346C:  BC    347E
....................          minutoCiclos[i]=0; 
0346E:  CLRF   03
03470:  MOVF   xD2,W
03472:  ADDLW  7B
03474:  MOVWF  FE9
03476:  MOVLW  02
03478:  ADDWFC 03,W
0347A:  MOVWF  FEA
0347C:  CLRF   FEF
....................       TCiclos[i]=read_ext_eeprom((cicloVisto*320)+5+((cicloVisualizado+i)*9))+inttofloat(read_ext_eeprom((cicloVisto*320)+6+((cicloVisualizado+i)*9))); 
0347E:  MOVF   xD2,W
03480:  MULLW  04
03482:  MOVF   FF3,W
03484:  CLRF   03
03486:  ADDLW  3C
03488:  MOVWF  01
0348A:  MOVLW  02
0348C:  ADDWFC 03,F
0348E:  MOVFF  01,622
03492:  MOVLB  6
03494:  MOVFF  03,623
03498:  CLRF   x37
0349A:  MOVFF  211,636
0349E:  MOVLW  01
034A0:  MOVWF  x39
034A2:  MOVLW  40
034A4:  MOVWF  x38
034A6:  MOVLB  0
034A8:  CALL   23A8
034AC:  MOVFF  02,625
034B0:  MOVFF  01,624
034B4:  MOVLW  05
034B6:  MOVLB  6
034B8:  ADDWF  x24,F
034BA:  MOVLW  00
034BC:  ADDWFC x25,F
034BE:  MOVLB  1
034C0:  MOVF   xD2,W
034C2:  MOVLB  2
034C4:  ADDWF  x10,W
034C6:  MULLW  09
034C8:  MOVF   FF3,W
034CA:  MOVLB  6
034CC:  ADDWF  x24,F
034CE:  MOVLW  00
034D0:  ADDWFC x25,F
034D2:  MOVFF  625,628
034D6:  MOVFF  624,627
034DA:  MOVLB  0
034DC:  CALL   24AA
034E0:  MOVFF  01,624
034E4:  MOVLB  6
034E6:  CLRF   x37
034E8:  MOVFF  211,636
034EC:  MOVLW  01
034EE:  MOVWF  x39
034F0:  MOVLW  40
034F2:  MOVWF  x38
034F4:  MOVLB  0
034F6:  CALL   23A8
034FA:  MOVFF  02,626
034FE:  MOVFF  01,625
03502:  MOVLW  06
03504:  MOVLB  6
03506:  ADDWF  x25,F
03508:  MOVLW  00
0350A:  ADDWFC x26,F
0350C:  MOVLB  1
0350E:  MOVF   xD2,W
03510:  MOVLB  2
03512:  ADDWF  x10,W
03514:  MULLW  09
03516:  MOVF   FF3,W
03518:  MOVLB  6
0351A:  ADDWF  x25,F
0351C:  MOVLW  00
0351E:  ADDWFC x26,F
03520:  MOVFF  626,628
03524:  MOVFF  625,627
03528:  MOVLB  0
0352A:  CALL   24AA
0352E:  MOVFF  01,625
03532:  MOVFF  01,626
03536:  CALL   2552
0353A:  MOVFF  00,625
0353E:  MOVFF  01,626
03542:  MOVFF  02,627
03546:  MOVFF  03,628
0354A:  MOVLB  6
0354C:  CLRF   x38
0354E:  MOVFF  624,637
03552:  MOVLB  0
03554:  CALL   1F00
03558:  MOVFF  FEA,62A
0355C:  MOVFF  FE9,629
03560:  BCF    FD8.1
03562:  MOVFF  03,63D
03566:  MOVFF  02,63C
0356A:  MOVFF  01,63B
0356E:  MOVFF  00,63A
03572:  MOVFF  628,641
03576:  MOVFF  627,640
0357A:  MOVFF  626,63F
0357E:  MOVFF  625,63E
03582:  CALL   20BC
03586:  MOVFF  62A,FEA
0358A:  MOVFF  629,FE9
0358E:  MOVFF  623,FEA
03592:  MOVFF  622,FE9
03596:  MOVFF  00,FEF
0359A:  MOVFF  01,FEC
0359E:  MOVFF  02,FEC
035A2:  MOVFF  03,FEC
....................       if(TCiclos[i]>200) 
035A6:  MOVLB  1
035A8:  MOVF   xD2,W
035AA:  MULLW  04
035AC:  MOVF   FF3,W
035AE:  CLRF   03
035B0:  ADDLW  3C
035B2:  MOVWF  FE9
035B4:  MOVLW  02
035B6:  ADDWFC 03,W
035B8:  MOVWF  FEA
035BA:  MOVFF  FEF,622
035BE:  MOVFF  FEC,623
035C2:  MOVFF  FEC,624
035C6:  MOVFF  FEC,625
035CA:  MOVLB  6
035CC:  CLRF   x29
035CE:  CLRF   x28
035D0:  MOVLW  48
035D2:  MOVWF  x27
035D4:  MOVLW  86
035D6:  MOVWF  x26
035D8:  MOVFF  625,62D
035DC:  MOVFF  624,62C
035E0:  MOVFF  623,62B
035E4:  MOVFF  622,62A
035E8:  MOVLB  0
035EA:  CALL   2592
035EE:  BNC   360E
....................          TCiclos[i]=0; 
035F0:  MOVLB  1
035F2:  MOVF   xD2,W
035F4:  MULLW  04
035F6:  MOVF   FF3,W
035F8:  CLRF   03
035FA:  ADDLW  3C
035FC:  MOVWF  FE9
035FE:  MOVLW  02
03600:  ADDWFC 03,W
03602:  MOVWF  FEA
03604:  CLRF   FEF
03606:  CLRF   FEC
03608:  CLRF   FEC
0360A:  CLRF   FEC
0360C:  MOVLB  0
....................       PcCiclos[i]=make16(read_ext_eeprom((cicloVisto*320)+7+((cicloVisualizado+i)*9)),read_ext_eeprom((cicloVisto*320)+8+((cicloVisualizado+i)*9))); 
0360E:  BCF    FD8.0
03610:  MOVLB  1
03612:  RLCF   xD2,W
03614:  CLRF   03
03616:  ADDLW  58
03618:  MOVWF  01
0361A:  MOVLW  02
0361C:  ADDWFC 03,F
0361E:  MOVFF  01,622
03622:  MOVLB  6
03624:  MOVFF  03,623
03628:  CLRF   x37
0362A:  MOVFF  211,636
0362E:  MOVLW  01
03630:  MOVWF  x39
03632:  MOVLW  40
03634:  MOVWF  x38
03636:  MOVLB  0
03638:  CALL   23A8
0363C:  MOVFF  02,625
03640:  MOVFF  01,624
03644:  MOVLW  07
03646:  MOVLB  6
03648:  ADDWF  x24,F
0364A:  MOVLW  00
0364C:  ADDWFC x25,F
0364E:  MOVLB  1
03650:  MOVF   xD2,W
03652:  MOVLB  2
03654:  ADDWF  x10,W
03656:  MULLW  09
03658:  MOVF   FF3,W
0365A:  MOVLB  6
0365C:  ADDWF  x24,F
0365E:  MOVLW  00
03660:  ADDWFC x25,F
03662:  MOVFF  625,628
03666:  MOVFF  624,627
0366A:  MOVLB  0
0366C:  CALL   24AA
03670:  MOVFF  01,624
03674:  MOVLB  6
03676:  CLRF   x37
03678:  MOVFF  211,636
0367C:  MOVLW  01
0367E:  MOVWF  x39
03680:  MOVLW  40
03682:  MOVWF  x38
03684:  MOVLB  0
03686:  CALL   23A8
0368A:  MOVFF  02,626
0368E:  MOVFF  01,625
03692:  MOVLW  08
03694:  MOVLB  6
03696:  ADDWF  x25,F
03698:  MOVLW  00
0369A:  ADDWFC x26,F
0369C:  MOVLB  1
0369E:  MOVF   xD2,W
036A0:  MOVLB  2
036A2:  ADDWF  x10,W
036A4:  MULLW  09
036A6:  MOVF   FF3,W
036A8:  MOVLB  6
036AA:  ADDWF  x25,F
036AC:  MOVLW  00
036AE:  ADDWFC x26,F
036B0:  MOVFF  626,628
036B4:  MOVFF  625,627
036B8:  MOVLB  0
036BA:  CALL   24AA
036BE:  MOVFF  623,FEA
036C2:  MOVFF  622,FE9
036C6:  MOVFF  624,FEC
036CA:  MOVF   FED,F
036CC:  MOVFF  01,FEF
....................       if(PcCiclos[i]>500) 
036D0:  BCF    FD8.0
036D2:  MOVLB  1
036D4:  RLCF   xD2,W
036D6:  CLRF   03
036D8:  ADDLW  58
036DA:  MOVWF  FE9
036DC:  MOVLW  02
036DE:  ADDWFC 03,W
036E0:  MOVWF  FEA
036E2:  MOVFF  FEC,623
036E6:  MOVF   FED,F
036E8:  MOVFF  FEF,622
036EC:  MOVLB  6
036EE:  MOVF   x23,W
036F0:  SUBLW  00
036F2:  BC    3718
036F4:  XORLW  FF
036F6:  BNZ   36FE
036F8:  MOVF   x22,W
036FA:  SUBLW  F4
036FC:  BC    3718
....................          PcCiclos[i]=0; 
036FE:  BCF    FD8.0
03700:  MOVLB  1
03702:  RLCF   xD2,W
03704:  CLRF   03
03706:  ADDLW  58
03708:  MOVWF  FE9
0370A:  MOVLW  02
0370C:  ADDWFC 03,W
0370E:  MOVWF  FEA
03710:  CLRF   FEC
03712:  MOVF   FED,F
03714:  CLRF   FEF
03716:  MOVLB  6
....................       PpcCiclos[i]=make16(read_ext_eeprom((cicloVisto*320)+9+((cicloVisualizado+i)*9)),read_ext_eeprom((cicloVisto*320)+10+((cicloVisualizado+i)*9))); 
03718:  BCF    FD8.0
0371A:  MOVLB  1
0371C:  RLCF   xD2,W
0371E:  CLRF   03
03720:  ADDLW  66
03722:  MOVWF  01
03724:  MOVLW  02
03726:  ADDWFC 03,F
03728:  MOVFF  01,622
0372C:  MOVLB  6
0372E:  MOVFF  03,623
03732:  CLRF   x37
03734:  MOVFF  211,636
03738:  MOVLW  01
0373A:  MOVWF  x39
0373C:  MOVLW  40
0373E:  MOVWF  x38
03740:  MOVLB  0
03742:  CALL   23A8
03746:  MOVFF  02,625
0374A:  MOVFF  01,624
0374E:  MOVLW  09
03750:  MOVLB  6
03752:  ADDWF  x24,F
03754:  MOVLW  00
03756:  ADDWFC x25,F
03758:  MOVLB  1
0375A:  MOVF   xD2,W
0375C:  MOVLB  2
0375E:  ADDWF  x10,W
03760:  MULLW  09
03762:  MOVF   FF3,W
03764:  MOVLB  6
03766:  ADDWF  x24,F
03768:  MOVLW  00
0376A:  ADDWFC x25,F
0376C:  MOVFF  625,628
03770:  MOVFF  624,627
03774:  MOVLB  0
03776:  CALL   24AA
0377A:  MOVFF  01,624
0377E:  MOVLB  6
03780:  CLRF   x37
03782:  MOVFF  211,636
03786:  MOVLW  01
03788:  MOVWF  x39
0378A:  MOVLW  40
0378C:  MOVWF  x38
0378E:  MOVLB  0
03790:  CALL   23A8
03794:  MOVFF  02,626
03798:  MOVFF  01,625
0379C:  MOVLW  0A
0379E:  MOVLB  6
037A0:  ADDWF  x25,F
037A2:  MOVLW  00
037A4:  ADDWFC x26,F
037A6:  MOVLB  1
037A8:  MOVF   xD2,W
037AA:  MOVLB  2
037AC:  ADDWF  x10,W
037AE:  MULLW  09
037B0:  MOVF   FF3,W
037B2:  MOVLB  6
037B4:  ADDWF  x25,F
037B6:  MOVLW  00
037B8:  ADDWFC x26,F
037BA:  MOVFF  626,628
037BE:  MOVFF  625,627
037C2:  MOVLB  0
037C4:  CALL   24AA
037C8:  MOVFF  623,FEA
037CC:  MOVFF  622,FE9
037D0:  MOVFF  624,FEC
037D4:  MOVF   FED,F
037D6:  MOVFF  01,FEF
....................       if(PpcCiclos[i]>500) 
037DA:  BCF    FD8.0
037DC:  MOVLB  1
037DE:  RLCF   xD2,W
037E0:  CLRF   03
037E2:  ADDLW  66
037E4:  MOVWF  FE9
037E6:  MOVLW  02
037E8:  ADDWFC 03,W
037EA:  MOVWF  FEA
037EC:  MOVFF  FEC,623
037F0:  MOVF   FED,F
037F2:  MOVFF  FEF,622
037F6:  MOVLB  6
037F8:  MOVF   x23,W
037FA:  SUBLW  00
037FC:  BC    3822
037FE:  XORLW  FF
03800:  BNZ   3808
03802:  MOVF   x22,W
03804:  SUBLW  F4
03806:  BC    3822
....................          PpcCiclos[i]=0; 
03808:  BCF    FD8.0
0380A:  MOVLB  1
0380C:  RLCF   xD2,W
0380E:  CLRF   03
03810:  ADDLW  66
03812:  MOVWF  FE9
03814:  MOVLW  02
03816:  ADDWFC 03,W
03818:  MOVWF  FEA
0381A:  CLRF   FEC
0381C:  MOVF   FED,F
0381E:  CLRF   FEF
03820:  MOVLB  6
....................       ACiclos[i]=read_ext_eeprom((cicloVisto*320)+13+((cicloVisualizado+i)*9)); 
03822:  CLRF   03
03824:  MOVLB  1
03826:  MOVF   xD2,W
03828:  ADDLW  82
0382A:  MOVWF  01
0382C:  MOVLW  02
0382E:  ADDWFC 03,F
03830:  MOVFF  01,622
03834:  MOVLB  6
03836:  MOVFF  03,623
0383A:  CLRF   x37
0383C:  MOVFF  211,636
03840:  MOVLW  01
03842:  MOVWF  x39
03844:  MOVLW  40
03846:  MOVWF  x38
03848:  MOVLB  0
0384A:  CALL   23A8
0384E:  MOVFF  02,625
03852:  MOVFF  01,624
03856:  MOVLW  0D
03858:  MOVLB  6
0385A:  ADDWF  x24,F
0385C:  MOVLW  00
0385E:  ADDWFC x25,F
03860:  MOVLB  1
03862:  MOVF   xD2,W
03864:  MOVLB  2
03866:  ADDWF  x10,W
03868:  MULLW  09
0386A:  MOVF   FF3,W
0386C:  MOVLB  6
0386E:  ADDWF  x24,F
03870:  MOVLW  00
03872:  ADDWFC x25,F
03874:  MOVFF  625,628
03878:  MOVFF  624,627
0387C:  MOVLB  0
0387E:  CALL   24AA
03882:  MOVFF  623,FEA
03886:  MOVFF  622,FE9
0388A:  MOVFF  01,FEF
....................       if(ACiclos[i]>10) 
0388E:  CLRF   03
03890:  MOVLB  1
03892:  MOVF   xD2,W
03894:  ADDLW  82
03896:  MOVWF  FE9
03898:  MOVLW  02
0389A:  ADDWFC 03,W
0389C:  MOVWF  FEA
0389E:  MOVF   FEF,W
038A0:  SUBLW  0A
038A2:  BC    38B4
....................          ACiclos[i]=0; 
038A4:  CLRF   03
038A6:  MOVF   xD2,W
038A8:  ADDLW  82
038AA:  MOVWF  FE9
038AC:  MOVLW  02
038AE:  ADDWFC 03,W
038B0:  MOVWF  FEA
038B2:  CLRF   FEF
....................    } 
038B4:  INCF   xD2,F
038B6:  BRA    3356
.................... } 
038B8:  MOVLB  0
038BA:  GOTO   7432 (RETURN)
....................  
.................... void LimitaValores(){ 
....................    if(Ganancia>20.0){ 
*
039F2:  MOVLB  6
039F4:  CLRF   x29
039F6:  CLRF   x28
039F8:  MOVLW  20
039FA:  MOVWF  x27
039FC:  MOVLW  83
039FE:  MOVWF  x26
03A00:  MOVFF  19A,62D
03A04:  MOVFF  199,62C
03A08:  MOVFF  198,62B
03A0C:  MOVFF  197,62A
03A10:  MOVLB  0
03A12:  CALL   2592
03A16:  BNC   3A60
....................       Ganancia=15.0; 
03A18:  MOVLB  1
03A1A:  CLRF   x9A
03A1C:  CLRF   x99
03A1E:  MOVLW  70
03A20:  MOVWF  x98
03A22:  MOVLW  82
03A24:  MOVWF  x97
....................       write_eeprom(20,15); 
03A26:  CLRF   FAA
03A28:  MOVLW  14
03A2A:  MOVWF  FA9
03A2C:  MOVLW  0F
03A2E:  MOVWF  FA8
03A30:  BCF    FA6.6
03A32:  BCF    FA6.7
03A34:  BSF    FA6.2
03A36:  MOVF   FF2,W
03A38:  MOVWF  00
03A3A:  BCF    FF2.6
03A3C:  BCF    FF2.7
03A3E:  MOVLB  F
03A40:  MOVLW  55
03A42:  MOVWF  FA7
03A44:  MOVLW  AA
03A46:  MOVWF  FA7
03A48:  BSF    FA6.1
03A4A:  BTFSC  FA6.1
03A4C:  BRA    3A4A
03A4E:  BCF    FA6.2
03A50:  MOVF   00,W
03A52:  IORWF  FF2,F
....................       delay_ms(10); 
03A54:  MOVLW  0A
03A56:  MOVLB  6
03A58:  MOVWF  x37
03A5A:  MOVLB  0
03A5C:  CALL   1F36
....................    } 
....................    if(Sensor[0].Ajuste>50){ 
03A60:  MOVLB  2
03A62:  MOVF   xB0,W
03A64:  SUBLW  32
03A66:  BC    3AA8
....................       Sensor[0].Ajuste=11; 
03A68:  MOVLW  0B
03A6A:  MOVWF  xB0
....................       write_eeprom(21,11); 
03A6C:  CLRF   FAA
03A6E:  MOVLW  15
03A70:  MOVWF  FA9
03A72:  MOVLW  0B
03A74:  MOVWF  FA8
03A76:  BCF    FA6.6
03A78:  BCF    FA6.7
03A7A:  BSF    FA6.2
03A7C:  MOVF   FF2,W
03A7E:  MOVWF  00
03A80:  BCF    FF2.6
03A82:  BCF    FF2.7
03A84:  MOVLB  F
03A86:  MOVLW  55
03A88:  MOVWF  FA7
03A8A:  MOVLW  AA
03A8C:  MOVWF  FA7
03A8E:  BSF    FA6.1
03A90:  BTFSC  FA6.1
03A92:  BRA    3A90
03A94:  BCF    FA6.2
03A96:  MOVF   00,W
03A98:  IORWF  FF2,F
....................       delay_ms(10); 
03A9A:  MOVLW  0A
03A9C:  MOVLB  6
03A9E:  MOVWF  x37
03AA0:  MOVLB  0
03AA2:  CALL   1F36
03AA6:  MOVLB  2
....................    } 
....................    if(Sensor[0].Ajusten>50){ 
03AA8:  MOVF   xB1,W
03AAA:  SUBLW  32
03AAC:  BC    3AE8
....................       Sensor[0].Ajusten=0; 
03AAE:  CLRF   xB1
....................       write_eeprom(22,0); 
03AB0:  CLRF   FAA
03AB2:  MOVLW  16
03AB4:  MOVWF  FA9
03AB6:  CLRF   FA8
03AB8:  BCF    FA6.6
03ABA:  BCF    FA6.7
03ABC:  BSF    FA6.2
03ABE:  MOVF   FF2,W
03AC0:  MOVWF  00
03AC2:  BCF    FF2.6
03AC4:  BCF    FF2.7
03AC6:  MOVLB  F
03AC8:  MOVLW  55
03ACA:  MOVWF  FA7
03ACC:  MOVLW  AA
03ACE:  MOVWF  FA7
03AD0:  BSF    FA6.1
03AD2:  BTFSC  FA6.1
03AD4:  BRA    3AD2
03AD6:  BCF    FA6.2
03AD8:  MOVF   00,W
03ADA:  IORWF  FF2,F
....................       delay_ms(10); 
03ADC:  MOVLW  0A
03ADE:  MOVLB  6
03AE0:  MOVWF  x37
03AE2:  MOVLB  0
03AE4:  CALL   1F36
....................    } 
....................    if(Sensor[1].Ajuste>50){ 
03AE8:  MOVLB  4
03AEA:  MOVF   x14,W
03AEC:  SUBLW  32
03AEE:  BC    3B2C
....................       Sensor[1].Ajuste=0; 
03AF0:  CLRF   x14
....................       write_eeprom(23,0); 
03AF2:  CLRF   FAA
03AF4:  MOVLW  17
03AF6:  MOVWF  FA9
03AF8:  CLRF   FA8
03AFA:  BCF    FA6.6
03AFC:  BCF    FA6.7
03AFE:  BSF    FA6.2
03B00:  MOVF   FF2,W
03B02:  MOVWF  00
03B04:  BCF    FF2.6
03B06:  BCF    FF2.7
03B08:  MOVLB  F
03B0A:  MOVLW  55
03B0C:  MOVWF  FA7
03B0E:  MOVLW  AA
03B10:  MOVWF  FA7
03B12:  BSF    FA6.1
03B14:  BTFSC  FA6.1
03B16:  BRA    3B14
03B18:  BCF    FA6.2
03B1A:  MOVF   00,W
03B1C:  IORWF  FF2,F
....................       delay_ms(10); 
03B1E:  MOVLW  0A
03B20:  MOVLB  6
03B22:  MOVWF  x37
03B24:  MOVLB  0
03B26:  CALL   1F36
03B2A:  MOVLB  4
....................    } 
....................    if(Sensor[1].Ajusten>50){ 
03B2C:  MOVF   x15,W
03B2E:  SUBLW  32
03B30:  BC    3B6C
....................       Sensor[1].Ajusten=0; 
03B32:  CLRF   x15
....................       write_eeprom(24,0); 
03B34:  CLRF   FAA
03B36:  MOVLW  18
03B38:  MOVWF  FA9
03B3A:  CLRF   FA8
03B3C:  BCF    FA6.6
03B3E:  BCF    FA6.7
03B40:  BSF    FA6.2
03B42:  MOVF   FF2,W
03B44:  MOVWF  00
03B46:  BCF    FF2.6
03B48:  BCF    FF2.7
03B4A:  MOVLB  F
03B4C:  MOVLW  55
03B4E:  MOVWF  FA7
03B50:  MOVLW  AA
03B52:  MOVWF  FA7
03B54:  BSF    FA6.1
03B56:  BTFSC  FA6.1
03B58:  BRA    3B56
03B5A:  BCF    FA6.2
03B5C:  MOVF   00,W
03B5E:  IORWF  FF2,F
....................       delay_ms(10); 
03B60:  MOVLW  0A
03B62:  MOVLB  6
03B64:  MOVWF  x37
03B66:  MOVLB  0
03B68:  CALL   1F36
....................    } 
....................    if(MediaMovil>80){ 
03B6C:  MOVLB  1
03B6E:  MOVF   x73,W
03B70:  SUBLW  50
03B72:  BC    3BB2
....................       MediaMovil=40; 
03B74:  MOVLW  28
03B76:  MOVWF  x73
....................       write_eeprom(25,40); 
03B78:  CLRF   FAA
03B7A:  MOVLW  19
03B7C:  MOVWF  FA9
03B7E:  MOVLW  28
03B80:  MOVWF  FA8
03B82:  BCF    FA6.6
03B84:  BCF    FA6.7
03B86:  BSF    FA6.2
03B88:  MOVF   FF2,W
03B8A:  MOVWF  00
03B8C:  BCF    FF2.6
03B8E:  BCF    FF2.7
03B90:  MOVLB  F
03B92:  MOVLW  55
03B94:  MOVWF  FA7
03B96:  MOVLW  AA
03B98:  MOVWF  FA7
03B9A:  BSF    FA6.1
03B9C:  BTFSC  FA6.1
03B9E:  BRA    3B9C
03BA0:  BCF    FA6.2
03BA2:  MOVF   00,W
03BA4:  IORWF  FF2,F
....................       delay_ms(10); 
03BA6:  MOVLW  0A
03BA8:  MOVLB  6
03BAA:  MOVWF  x37
03BAC:  MOVLB  0
03BAE:  CALL   1F36
....................    } 
....................    if(Tciclo>10){ 
03BB2:  MOVLB  6
03BB4:  CLRF   x29
03BB6:  CLRF   x28
03BB8:  MOVLW  20
03BBA:  MOVWF  x27
03BBC:  MOVLW  82
03BBE:  MOVWF  x26
03BC0:  MOVFF  182,62D
03BC4:  MOVFF  181,62C
03BC8:  MOVFF  180,62B
03BCC:  MOVFF  17F,62A
03BD0:  MOVLB  0
03BD2:  CALL   2592
03BD6:  BNC   3C20
....................       Tciclo=10; 
03BD8:  MOVLB  1
03BDA:  CLRF   x82
03BDC:  CLRF   x81
03BDE:  MOVLW  20
03BE0:  MOVWF  x80
03BE2:  MOVLW  82
03BE4:  MOVWF  x7F
....................       write_eeprom(26,10); 
03BE6:  CLRF   FAA
03BE8:  MOVLW  1A
03BEA:  MOVWF  FA9
03BEC:  MOVLW  0A
03BEE:  MOVWF  FA8
03BF0:  BCF    FA6.6
03BF2:  BCF    FA6.7
03BF4:  BSF    FA6.2
03BF6:  MOVF   FF2,W
03BF8:  MOVWF  00
03BFA:  BCF    FF2.6
03BFC:  BCF    FF2.7
03BFE:  MOVLB  F
03C00:  MOVLW  55
03C02:  MOVWF  FA7
03C04:  MOVLW  AA
03C06:  MOVWF  FA7
03C08:  BSF    FA6.1
03C0A:  BTFSC  FA6.1
03C0C:  BRA    3C0A
03C0E:  BCF    FA6.2
03C10:  MOVF   00,W
03C12:  IORWF  FF2,F
....................       delay_ms(10); 
03C14:  MOVLW  0A
03C16:  MOVLB  6
03C18:  MOVWF  x37
03C1A:  MOVLB  0
03C1C:  CALL   1F36
....................    } 
....................    if(Sensor[0].RPT100>2.0){ 
03C20:  MOVLB  6
03C22:  CLRF   x29
03C24:  CLRF   x28
03C26:  CLRF   x27
03C28:  MOVLW  80
03C2A:  MOVWF  x26
03C2C:  MOVFF  2A5,62D
03C30:  MOVFF  2A4,62C
03C34:  MOVFF  2A3,62B
03C38:  MOVFF  2A2,62A
03C3C:  MOVLB  0
03C3E:  CALL   2592
03C42:  BNC   3CC2
....................       Sensor[0].RPT100=0.5; 
03C44:  MOVLB  2
03C46:  CLRF   xA5
03C48:  CLRF   xA4
03C4A:  CLRF   xA3
03C4C:  MOVLW  7E
03C4E:  MOVWF  xA2
....................       write_eeprom(28,0); 
03C50:  CLRF   FAA
03C52:  MOVLW  1C
03C54:  MOVWF  FA9
03C56:  CLRF   FA8
03C58:  BCF    FA6.6
03C5A:  BCF    FA6.7
03C5C:  BSF    FA6.2
03C5E:  MOVF   FF2,W
03C60:  MOVWF  00
03C62:  BCF    FF2.6
03C64:  BCF    FF2.7
03C66:  MOVLB  F
03C68:  MOVLW  55
03C6A:  MOVWF  FA7
03C6C:  MOVLW  AA
03C6E:  MOVWF  FA7
03C70:  BSF    FA6.1
03C72:  BTFSC  FA6.1
03C74:  BRA    3C72
03C76:  BCF    FA6.2
03C78:  MOVF   00,W
03C7A:  IORWF  FF2,F
....................       delay_ms(10); 
03C7C:  MOVLW  0A
03C7E:  MOVLB  6
03C80:  MOVWF  x37
03C82:  MOVLB  0
03C84:  CALL   1F36
....................       write_eeprom(27,5); 
03C88:  CLRF   FAA
03C8A:  MOVLW  1B
03C8C:  MOVWF  FA9
03C8E:  MOVLW  05
03C90:  MOVWF  FA8
03C92:  BCF    FA6.6
03C94:  BCF    FA6.7
03C96:  BSF    FA6.2
03C98:  MOVF   FF2,W
03C9A:  MOVWF  00
03C9C:  BCF    FF2.6
03C9E:  BCF    FF2.7
03CA0:  MOVLB  F
03CA2:  MOVLW  55
03CA4:  MOVWF  FA7
03CA6:  MOVLW  AA
03CA8:  MOVWF  FA7
03CAA:  BSF    FA6.1
03CAC:  BTFSC  FA6.1
03CAE:  BRA    3CAC
03CB0:  BCF    FA6.2
03CB2:  MOVF   00,W
03CB4:  IORWF  FF2,F
....................       delay_ms(10); 
03CB6:  MOVLW  0A
03CB8:  MOVLB  6
03CBA:  MOVWF  x37
03CBC:  MOVLB  0
03CBE:  CALL   1F36
....................    } 
....................    if(Sensor[1].RPT100>2.0){ 
03CC2:  MOVLB  6
03CC4:  CLRF   x29
03CC6:  CLRF   x28
03CC8:  CLRF   x27
03CCA:  MOVLW  80
03CCC:  MOVWF  x26
03CCE:  MOVFF  409,62D
03CD2:  MOVFF  408,62C
03CD6:  MOVFF  407,62B
03CDA:  MOVFF  406,62A
03CDE:  MOVLB  0
03CE0:  CALL   2592
03CE4:  BNC   3D64
....................       Sensor[1].RPT100=0.5; 
03CE6:  MOVLB  4
03CE8:  CLRF   x09
03CEA:  CLRF   x08
03CEC:  CLRF   x07
03CEE:  MOVLW  7E
03CF0:  MOVWF  x06
....................       write_eeprom(30,0); 
03CF2:  CLRF   FAA
03CF4:  MOVLW  1E
03CF6:  MOVWF  FA9
03CF8:  CLRF   FA8
03CFA:  BCF    FA6.6
03CFC:  BCF    FA6.7
03CFE:  BSF    FA6.2
03D00:  MOVF   FF2,W
03D02:  MOVWF  00
03D04:  BCF    FF2.6
03D06:  BCF    FF2.7
03D08:  MOVLB  F
03D0A:  MOVLW  55
03D0C:  MOVWF  FA7
03D0E:  MOVLW  AA
03D10:  MOVWF  FA7
03D12:  BSF    FA6.1
03D14:  BTFSC  FA6.1
03D16:  BRA    3D14
03D18:  BCF    FA6.2
03D1A:  MOVF   00,W
03D1C:  IORWF  FF2,F
....................       delay_ms(10); 
03D1E:  MOVLW  0A
03D20:  MOVLB  6
03D22:  MOVWF  x37
03D24:  MOVLB  0
03D26:  CALL   1F36
....................       write_eeprom(29,5); 
03D2A:  CLRF   FAA
03D2C:  MOVLW  1D
03D2E:  MOVWF  FA9
03D30:  MOVLW  05
03D32:  MOVWF  FA8
03D34:  BCF    FA6.6
03D36:  BCF    FA6.7
03D38:  BSF    FA6.2
03D3A:  MOVF   FF2,W
03D3C:  MOVWF  00
03D3E:  BCF    FF2.6
03D40:  BCF    FF2.7
03D42:  MOVLB  F
03D44:  MOVLW  55
03D46:  MOVWF  FA7
03D48:  MOVLW  AA
03D4A:  MOVWF  FA7
03D4C:  BSF    FA6.1
03D4E:  BTFSC  FA6.1
03D50:  BRA    3D4E
03D52:  BCF    FA6.2
03D54:  MOVF   00,W
03D56:  IORWF  FF2,F
....................       delay_ms(10); 
03D58:  MOVLW  0A
03D5A:  MOVLB  6
03D5C:  MOVWF  x37
03D5E:  MOVLB  0
03D60:  CALL   1F36
....................    } 
....................    if(Atmosferica>100){ 
03D64:  MOVLB  2
03D66:  MOVF   x13,W
03D68:  SUBLW  64
03D6A:  BC    3DAA
....................       Atmosferica=69; 
03D6C:  MOVLW  45
03D6E:  MOVWF  x13
....................       write_eeprom(31,69); 
03D70:  CLRF   FAA
03D72:  MOVLW  1F
03D74:  MOVWF  FA9
03D76:  MOVLW  45
03D78:  MOVWF  FA8
03D7A:  BCF    FA6.6
03D7C:  BCF    FA6.7
03D7E:  BSF    FA6.2
03D80:  MOVF   FF2,W
03D82:  MOVWF  00
03D84:  BCF    FF2.6
03D86:  BCF    FF2.7
03D88:  MOVLB  F
03D8A:  MOVLW  55
03D8C:  MOVWF  FA7
03D8E:  MOVLW  AA
03D90:  MOVWF  FA7
03D92:  BSF    FA6.1
03D94:  BTFSC  FA6.1
03D96:  BRA    3D94
03D98:  BCF    FA6.2
03D9A:  MOVF   00,W
03D9C:  IORWF  FF2,F
....................       delay_ms(10); 
03D9E:  MOVLW  0A
03DA0:  MOVLB  6
03DA2:  MOVWF  x37
03DA4:  MOVLB  0
03DA6:  CALL   1F36
....................    } 
....................    if(Tapertura>100){ 
03DAA:  MOVLB  1
03DAC:  MOVF   xD6,W
03DAE:  SUBLW  64
03DB0:  BC    3DF2
....................       Tapertura=85; 
03DB2:  MOVLW  55
03DB4:  MOVWF  xD6
....................       write_eeprom(32,85); 
03DB6:  CLRF   FAA
03DB8:  MOVLW  20
03DBA:  MOVWF  FA9
03DBC:  MOVLW  55
03DBE:  MOVWF  FA8
03DC0:  BCF    FA6.6
03DC2:  BCF    FA6.7
03DC4:  BSF    FA6.2
03DC6:  MOVF   FF2,W
03DC8:  MOVWF  00
03DCA:  BCF    FF2.6
03DCC:  BCF    FF2.7
03DCE:  MOVLB  F
03DD0:  MOVLW  55
03DD2:  MOVWF  FA7
03DD4:  MOVLW  AA
03DD6:  MOVWF  FA7
03DD8:  BSF    FA6.1
03DDA:  BTFSC  FA6.1
03DDC:  BRA    3DDA
03DDE:  BCF    FA6.2
03DE0:  MOVF   00,W
03DE2:  IORWF  FF2,F
....................       delay_ms(10); 
03DE4:  MOVLW  0A
03DE6:  MOVLB  6
03DE8:  MOVWF  x37
03DEA:  MOVLB  0
03DEC:  CALL   1F36
03DF0:  MOVLB  1
....................    } 
....................    if(Ciclos>60000){ 
03DF2:  MOVF   xF0,W
03DF4:  SUBLW  E9
03DF6:  BC    3E76
03DF8:  XORLW  FF
03DFA:  BNZ   3E02
03DFC:  MOVF   xEF,W
03DFE:  SUBLW  60
03E00:  BC    3E76
....................       Ciclos=0; 
03E02:  CLRF   xF0
03E04:  CLRF   xEF
....................       write_eeprom(37,0); 
03E06:  CLRF   FAA
03E08:  MOVLW  25
03E0A:  MOVWF  FA9
03E0C:  CLRF   FA8
03E0E:  BCF    FA6.6
03E10:  BCF    FA6.7
03E12:  BSF    FA6.2
03E14:  MOVF   FF2,W
03E16:  MOVWF  00
03E18:  BCF    FF2.6
03E1A:  BCF    FF2.7
03E1C:  MOVLB  F
03E1E:  MOVLW  55
03E20:  MOVWF  FA7
03E22:  MOVLW  AA
03E24:  MOVWF  FA7
03E26:  BSF    FA6.1
03E28:  BTFSC  FA6.1
03E2A:  BRA    3E28
03E2C:  BCF    FA6.2
03E2E:  MOVF   00,W
03E30:  IORWF  FF2,F
....................       delay_ms(10); 
03E32:  MOVLW  0A
03E34:  MOVLB  6
03E36:  MOVWF  x37
03E38:  MOVLB  0
03E3A:  CALL   1F36
....................       write_eeprom(38,0); 
03E3E:  CLRF   FAA
03E40:  MOVLW  26
03E42:  MOVWF  FA9
03E44:  CLRF   FA8
03E46:  BCF    FA6.6
03E48:  BCF    FA6.7
03E4A:  BSF    FA6.2
03E4C:  MOVF   FF2,W
03E4E:  MOVWF  00
03E50:  BCF    FF2.6
03E52:  BCF    FF2.7
03E54:  MOVLB  F
03E56:  MOVLW  55
03E58:  MOVWF  FA7
03E5A:  MOVLW  AA
03E5C:  MOVWF  FA7
03E5E:  BSF    FA6.1
03E60:  BTFSC  FA6.1
03E62:  BRA    3E60
03E64:  BCF    FA6.2
03E66:  MOVF   00,W
03E68:  IORWF  FF2,F
....................       delay_ms(10); 
03E6A:  MOVLW  0A
03E6C:  MOVLB  6
03E6E:  MOVWF  x37
03E70:  MOVLB  0
03E72:  CALL   1F36
....................    } 
....................    if(sg1==10){ 
03E76:  MOVLB  2
03E78:  MOVF   x26,W
03E7A:  SUBLW  0A
03E7C:  BNZ   3E92
....................       G1=G1*(-1); 
03E7E:  MOVFF  224,629
03E82:  MOVLW  FF
03E84:  MOVLB  6
03E86:  MOVWF  x2A
03E88:  MOVLB  0
03E8A:  RCALL  39A4
03E8C:  MOVFF  01,224
03E90:  MOVLB  2
....................    } 
....................    if(sg2==10){ 
03E92:  MOVF   x27,W
03E94:  SUBLW  0A
03E96:  BNZ   3EAC
....................       G2=G2*(-1); 
03E98:  MOVFF  225,629
03E9C:  MOVLW  FF
03E9E:  MOVLB  6
03EA0:  MOVWF  x2A
03EA2:  MOVLB  0
03EA4:  RCALL  39A4
03EA6:  MOVFF  01,225
03EAA:  MOVLB  2
....................    } 
.................... } 
03EAC:  MOVLB  0
03EAE:  GOTO   7446 (RETURN)
....................  
.................... void LeeDisplay(void){ 
....................    if(Dato_Exitoso==5){ 
*
04CC8:  MOVLB  1
04CCA:  MOVF   xCD,W
04CCC:  SUBLW  05
04CCE:  BTFSS  FD8.2
04CD0:  BRA    4EB2
....................          RX_Buffer[0]=RX_Buffer2[0]; 
04CD2:  MOVFF  3B,30
....................          RX_Buffer[1]=RX_Buffer2[1]; 
04CD6:  MOVFF  3C,31
....................          RX_Buffer[2]=RX_Buffer2[2]; 
04CDA:  MOVFF  3D,32
....................          RX_Buffer[3]=RX_Buffer2[3]; 
04CDE:  MOVFF  3E,33
....................          RX_Buffer[4]=RX_Buffer2[4]; 
04CE2:  MOVFF  3F,34
....................          RX_Buffer[5]=RX_Buffer2[5]; 
04CE6:  MOVFF  40,35
....................          RX_Buffer[6]=RX_Buffer2[6]; 
04CEA:  MOVFF  41,36
....................          RX_Buffer[7]=RX_Buffer2[7]; 
04CEE:  MOVFF  42,37
....................          RX_Buffer[8]=RX_Buffer2[8]; 
04CF2:  MOVFF  43,38
....................          RX_Buffer[9]=RX_Buffer2[9]; 
04CF6:  MOVFF  44,39
....................           
....................       if(RX_Buffer[3]==0x01){// Pregunta por la pagina en la que esta el display,01 es Contrasea de Acceso 
04CFA:  DECFSZ 33,W
04CFC:  BRA    4D0C
....................          Menu=0; 
04CFE:  CLRF   xCF
....................          if(MenuAntt!=Menu) 
04D00:  MOVF   xCF,W
04D02:  SUBWF  xD1,W
04D04:  BZ    4D0A
....................             MenuAntt=Menu; 
04D06:  MOVFF  1CF,1D1
....................       }else if(RX_Buffer[3]==0x02){//02 es Ciclos Fijos 
04D0A:  BRA    4EB2
04D0C:  MOVF   33,W
04D0E:  SUBLW  02
04D10:  BNZ   4D22
....................          Menu=1; 
04D12:  MOVLW  01
04D14:  MOVWF  xCF
....................          if(MenuAntt!=Menu) 
04D16:  MOVF   xCF,W
04D18:  SUBWF  xD1,W
04D1A:  BZ    4D20
....................             MenuAntt=Menu; 
04D1C:  MOVFF  1CF,1D1
....................       }else if(RX_Buffer[3]==0x03){//03 es Tiempo Esterilizacion 
04D20:  BRA    4EB2
04D22:  MOVF   33,W
04D24:  SUBLW  03
04D26:  BNZ   4D38
....................          Menu=2; 
04D28:  MOVLW  02
04D2A:  MOVWF  xCF
....................          if(MenuAntt!=Menu) 
04D2C:  MOVF   xCF,W
04D2E:  SUBWF  xD1,W
04D30:  BZ    4D36
....................             MenuAntt=Menu; 
04D32:  MOVFF  1CF,1D1
....................       }else if(RX_Buffer[3]==0x04){//04 es Tiempo de Secado 
04D36:  BRA    4EB2
04D38:  MOVF   33,W
04D3A:  SUBLW  04
04D3C:  BNZ   4D4E
....................          Menu=3; 
04D3E:  MOVLW  03
04D40:  MOVWF  xCF
....................          if(MenuAntt!=Menu) 
04D42:  MOVF   xCF,W
04D44:  SUBWF  xD1,W
04D46:  BZ    4D4C
....................             MenuAntt=Menu; 
04D48:  MOVFF  1CF,1D1
....................       }else if(RX_Buffer[3]==0x05){//05 es Temperatura 
04D4C:  BRA    4EB2
04D4E:  MOVF   33,W
04D50:  SUBLW  05
04D52:  BNZ   4D64
....................          Menu=4; 
04D54:  MOVLW  04
04D56:  MOVWF  xCF
....................          if(MenuAntt!=Menu) 
04D58:  MOVF   xCF,W
04D5A:  SUBWF  xD1,W
04D5C:  BZ    4D62
....................             MenuAntt=Menu; 
04D5E:  MOVFF  1CF,1D1
....................       }else if(RX_Buffer[3]==0x06){//06 es Nivel de Vacio 
04D62:  BRA    4EB2
04D64:  MOVF   33,W
04D66:  SUBLW  06
04D68:  BNZ   4D7A
....................          Menu=5; 
04D6A:  MOVLW  05
04D6C:  MOVWF  xCF
....................          if(MenuAntt!=Menu) 
04D6E:  MOVF   xCF,W
04D70:  SUBWF  xD1,W
04D72:  BZ    4D78
....................             MenuAntt=Menu; 
04D74:  MOVFF  1CF,1D1
....................       }else if(RX_Buffer[3]==0x07){//07 es Test de Componentes 
04D78:  BRA    4EB2
04D7A:  MOVF   33,W
04D7C:  SUBLW  07
04D7E:  BNZ   4D90
....................          Menu=6; 
04D80:  MOVLW  06
04D82:  MOVWF  xCF
....................          if(MenuAntt!=Menu) 
04D84:  MOVF   xCF,W
04D86:  SUBWF  xD1,W
04D88:  BZ    4D8E
....................             MenuAntt=Menu; 
04D8A:  MOVFF  1CF,1D1
....................       }else if(RX_Buffer[3]==0x08){//08 es Fecha y hora 
04D8E:  BRA    4EB2
04D90:  MOVF   33,W
04D92:  SUBLW  08
04D94:  BNZ   4DA6
....................          Menu=7; 
04D96:  MOVLW  07
04D98:  MOVWF  xCF
....................          if(MenuAntt!=Menu) 
04D9A:  MOVF   xCF,W
04D9C:  SUBWF  xD1,W
04D9E:  BZ    4DA4
....................             MenuAntt=Menu; 
04DA0:  MOVFF  1CF,1D1
....................       }else if(RX_Buffer[3]==0x09){//09 es Ciclos Personalizados 
04DA4:  BRA    4EB2
04DA6:  MOVF   33,W
04DA8:  SUBLW  09
04DAA:  BNZ   4DBC
....................          Menu=8; 
04DAC:  MOVLW  08
04DAE:  MOVWF  xCF
....................          if(MenuAntt!=Menu) 
04DB0:  MOVF   xCF,W
04DB2:  SUBWF  xD1,W
04DB4:  BZ    4DBA
....................             MenuAntt=Menu; 
04DB6:  MOVFF  1CF,1D1
....................       }else if(RX_Buffer[3]==0x0a){//0a es Pulsos de Vacio 
04DBA:  BRA    4EB2
04DBC:  MOVF   33,W
04DBE:  SUBLW  0A
04DC0:  BNZ   4DD2
....................          Menu=9; 
04DC2:  MOVLW  09
04DC4:  MOVWF  xCF
....................          if(MenuAntt!=Menu) 
04DC6:  MOVF   xCF,W
04DC8:  SUBWF  xD1,W
04DCA:  BZ    4DD0
....................             MenuAntt=Menu; 
04DCC:  MOVFF  1CF,1D1
....................       }else if(RX_Buffer[3]==0x0b){//0b es Usuarios 
04DD0:  BRA    4EB2
04DD2:  MOVF   33,W
04DD4:  SUBLW  0B
04DD6:  BNZ   4DE8
....................          Menu=10; 
04DD8:  MOVLW  0A
04DDA:  MOVWF  xCF
....................          if(MenuAntt!=Menu) 
04DDC:  MOVF   xCF,W
04DDE:  SUBWF  xD1,W
04DE0:  BZ    4DE6
....................             MenuAntt=Menu; 
04DE2:  MOVFF  1CF,1D1
....................       }else if(RX_Buffer[3]==0x0c){//0c es Configuraciones 
04DE6:  BRA    4EB2
04DE8:  MOVF   33,W
04DEA:  SUBLW  0C
04DEC:  BNZ   4DFE
....................          Menu=11; 
04DEE:  MOVLW  0B
04DF0:  MOVWF  xCF
....................          if(MenuAntt!=Menu) 
04DF2:  MOVF   xCF,W
04DF4:  SUBWF  xD1,W
04DF6:  BZ    4DFC
....................             MenuAntt=Menu; 
04DF8:  MOVFF  1CF,1D1
....................       }else if(RX_Buffer[3]==0x0d){//0d es Ciclos 
04DFC:  BRA    4EB2
04DFE:  MOVF   33,W
04E00:  SUBLW  0D
04E02:  BNZ   4E14
....................          Menu=12; 
04E04:  MOVLW  0C
04E06:  MOVWF  xCF
....................          if(MenuAntt!=Menu) 
04E08:  MOVF   xCF,W
04E0A:  SUBWF  xD1,W
04E0C:  BZ    4E12
....................             MenuAntt=Menu; 
04E0E:  MOVFF  1CF,1D1
....................       }else if(RX_Buffer[3]==0x0e){//0d es Activacion de Ciclos 
04E12:  BRA    4EB2
04E14:  MOVF   33,W
04E16:  SUBLW  0E
04E18:  BNZ   4E2A
....................          Menu=14; 
04E1A:  MOVLW  0E
04E1C:  MOVWF  xCF
....................          if(MenuAntt!=Menu) 
04E1E:  MOVF   xCF,W
04E20:  SUBWF  xD1,W
04E22:  BZ    4E28
....................             MenuAntt=Menu; 
04E24:  MOVFF  1CF,1D1
....................       }else if(RX_Buffer[3]==0x10){//10 es Nivel de Desfogue 
04E28:  BRA    4EB2
04E2A:  MOVF   33,W
04E2C:  SUBLW  10
04E2E:  BNZ   4E40
....................          Menu=13; 
04E30:  MOVLW  0D
04E32:  MOVWF  xCF
....................          if(MenuAntt!=Menu) 
04E34:  MOVF   xCF,W
04E36:  SUBWF  xD1,W
04E38:  BZ    4E3E
....................             MenuAntt=Menu; 
04E3A:  MOVFF  1CF,1D1
....................       }else if(RX_Buffer[3]==0x0f){//0f es Recibe caracteres de contrasea desde display 
04E3E:  BRA    4EB2
04E40:  MOVF   33,W
04E42:  SUBLW  0F
04E44:  BNZ   4E48
....................           
....................       }else if(RX_Buffer[3]==0x1a){//1a es Menu de Funcionamiento 
04E46:  BRA    4EB2
04E48:  MOVF   33,W
04E4A:  SUBLW  1A
04E4C:  BNZ   4E5E
....................          Menu=20; 
04E4E:  MOVLW  14
04E50:  MOVWF  xCF
....................          if(MenuAntt!=Menu) 
04E52:  MOVF   xCF,W
04E54:  SUBWF  xD1,W
04E56:  BZ    4E5C
....................             MenuAntt=Menu; 
04E58:  MOVFF  1CF,1D1
....................       }else if(RX_Buffer[3]==0x1b){//1b es Menu de clave correcta 
04E5C:  BRA    4EB2
04E5E:  MOVF   33,W
04E60:  SUBLW  1B
04E62:  BNZ   4E74
....................          Menu=15; 
04E64:  MOVLW  0F
04E66:  MOVWF  xCF
....................          if(MenuAntt!=Menu) 
04E68:  MOVF   xCF,W
04E6A:  SUBWF  xD1,W
04E6C:  BZ    4E72
....................             MenuAntt=Menu; 
04E6E:  MOVFF  1CF,1D1
....................       }else if(RX_Buffer[3]==0x1c){//1c es Menu de clave incorrecta 
04E72:  BRA    4EB2
04E74:  MOVF   33,W
04E76:  SUBLW  1C
04E78:  BNZ   4E8A
....................          Menu=16; 
04E7A:  MOVLW  10
04E7C:  MOVWF  xCF
....................          if(MenuAntt!=Menu) 
04E7E:  MOVF   xCF,W
04E80:  SUBWF  xD1,W
04E82:  BZ    4E88
....................             MenuAntt=Menu; 
04E84:  MOVFF  1CF,1D1
....................       }else if(RX_Buffer[3]==0x2c){//2c es Menu de Configuracion de Parametros 
04E88:  BRA    4EB2
04E8A:  MOVF   33,W
04E8C:  SUBLW  2C
04E8E:  BNZ   4EA0
....................          Menu=100; 
04E90:  MOVLW  64
04E92:  MOVWF  xCF
....................          if(MenuAntt!=Menu) 
04E94:  MOVF   xCF,W
04E96:  SUBWF  xD1,W
04E98:  BZ    4E9E
....................             MenuAntt=Menu; 
04E9A:  MOVFF  1CF,1D1
....................       }else if(RX_Buffer[3]==0xcc){//cc es Menu de Bienvenida 
04E9E:  BRA    4EB2
04EA0:  MOVF   33,W
04EA2:  SUBLW  CC
04EA4:  BNZ   4EB2
....................          Menu=240; 
04EA6:  MOVLW  F0
04EA8:  MOVWF  xCF
....................          if(MenuAntt!=240) 
04EAA:  MOVF   xD1,W
04EAC:  SUBLW  F0
04EAE:  BZ    4EB2
....................             reset_cpu(); 
04EB0:  RESET
....................       } 
....................    } 
.................... } 
04EB2:  MOVLB  0
04EB4:  GOTO   7648 (RETURN)
....................  
.................... void ConfiguraCiclo(int8 este0,este1,este2,este3,secado0,secado1,secado2,secado3,liquidos,ciclo,temperatura){ 
....................    Testerilizacionp[0]=este0;Testerilizacionp[1]=este1;Testerilizacionp[2]=este2;Testerilizacionp[3]=este3; 
*
0553E:  MOVFF  62C,99
05542:  MOVFF  62D,9A
05546:  MOVFF  62E,9B
0554A:  MOVFF  62F,9C
....................    Tsecadop[0]=secado0;Tsecadop[1]=secado1;Tsecadop[2]=secado2;Tsecadop[3]=secado3; 
0554E:  MOVFF  630,A1
05552:  MOVFF  631,A2
05556:  MOVFF  632,A3
0555A:  MOVFF  633,A4
....................    Setpoint=temperatura;                
0555E:  MOVFF  636,1D9
....................    tiempo_secado=0; 
05562:  MOVLB  1
05564:  CLRF   xDD
....................    if(Tsecadop[3]==0 && Tsecadop[2]==0){ 
05566:  MOVLB  0
05568:  MOVF   xA4,F
0556A:  BNZ   5574
0556C:  MOVF   xA3,F
0556E:  BNZ   5574
....................       desfoguelento=1; 
05570:  BSF    x8A.2
....................    }else{ 
05572:  BRA    5576
....................       desfoguelento=0; 
05574:  BCF    x8A.2
....................    } 
....................    CicloSeleccionado=ciclo;   
05576:  MOVFF  635,1D5
....................    Testerilizacion[0]=Testerilizacionp[0];Testerilizacion[1]=Testerilizacionp[1];Testerilizacion[2]=Testerilizacionp[2];Testerilizacion[3]=Testerilizacionp[3]; 
0557A:  MOVFF  99,95
0557E:  MOVFF  9A,96
05582:  MOVFF  9B,97
05586:  MOVFF  9C,98
....................    Tsecado[0]=Tsecadop[0];Tsecado[1]=Tsecadop[1];Tsecado[2]=Tsecadop[2];Tsecado[3]=Tsecadop[3]; 
0558A:  MOVFF  A1,9D
0558E:  MOVFF  A2,9E
05592:  MOVFF  A3,9F
05596:  MOVFF  A4,A0
.................... } 
0559A:  RETLW  00
....................  
.................... void ActivaAlarma(int8 Tipo){ 
....................     
....................    if(tsilencio>12000){ 
*
05358:  MOVLB  2
0535A:  MOVF   x08,W
0535C:  SUBLW  2D
0535E:  BC    5372
05360:  XORLW  FF
05362:  BNZ   536A
05364:  MOVF   x07,W
05366:  SUBLW  E0
05368:  BC    5372
....................       tsilencio=0; 
0536A:  CLRF   x08
0536C:  CLRF   x07
....................       flagSilencio=OFF; 
0536E:  MOVLB  0
05370:  BCF    x88.2
....................    } 
....................     
....................    if(Tipo==1){ // Alarma por Error 
05372:  MOVLB  6
05374:  DECFSZ x22,W
05376:  BRA    53CE
....................    if(UP || DOWN || RIGHT || LEFT) 
05378:  BSF    F93.6
0537A:  BTFSS  F81.6
0537C:  BRA    5390
0537E:  BSF    F93.5
05380:  BTFSS  F81.5
05382:  BRA    5390
05384:  BSF    F93.4
05386:  BTFSS  F81.4
05388:  BRA    5390
0538A:  BSF    F93.3
0538C:  BTFSC  F81.3
0538E:  BRA    5394
....................       flagSilencio=ON; 
05390:  MOVLB  0
05392:  BSF    x88.2
....................        
....................       if(!flagSilencio){ 
05394:  MOVLB  0
05396:  BTFSC  x88.2
05398:  BRA    53C4
....................          flagAlarma=1; 
0539A:  BSF    x88.0
....................          if(tbuzzer>200){ 
0539C:  MOVLB  2
0539E:  MOVF   x06,F
053A0:  BNZ   53A8
053A2:  MOVF   x05,W
053A4:  SUBLW  C8
053A6:  BC    53C0
....................             tbuzzer=0; 
053A8:  CLRF   x06
053AA:  CLRF   x05
....................             flagBuzzer=!flagBuzzer; 
053AC:  MOVLB  0
053AE:  BTG    x88.1
....................             if(flagBuzzer) 
053B0:  BTFSS  x88.1
053B2:  BRA    53BA
....................                Buzzer_on; 
053B4:  BSF    F8B.5
053B6:  BCF    F94.5
....................             else 
053B8:  BRA    53BE
....................                Buzzer_off; 
053BA:  BCF    F8B.5
053BC:  BCF    F94.5
053BE:  MOVLB  2
....................          } 
....................       }else{ 
053C0:  BRA    53CA
053C2:  MOVLB  0
....................          Buzzer_off; 
053C4:  BCF    F8B.5
053C6:  BCF    F94.5
053C8:  MOVLB  2
....................       } 
....................    }else if(Tipo==2){  
053CA:  BRA    540A
053CC:  MOVLB  6
053CE:  MOVF   x22,W
053D0:  SUBLW  02
053D2:  BNZ   540C
....................       flagAlarma=1; 
053D4:  MOVLB  0
053D6:  BSF    x88.0
....................       if(ConteoBuzzer<20){    
053D8:  MOVLB  2
053DA:  MOVF   x00,W
053DC:  SUBLW  13
053DE:  BNC   5406
....................          if(tbuzzer>100){ 
053E0:  MOVF   x06,F
053E2:  BNZ   53EA
053E4:  MOVF   x05,W
053E6:  SUBLW  64
053E8:  BC    5404
....................             tbuzzer=0; 
053EA:  CLRF   x06
053EC:  CLRF   x05
....................             flagBuzzer=!flagBuzzer; 
053EE:  MOVLB  0
053F0:  BTG    x88.1
....................             if(flagBuzzer) 
053F2:  BTFSS  x88.1
053F4:  BRA    53FC
....................                Buzzer_on; 
053F6:  BSF    F8B.5
053F8:  BCF    F94.5
....................             else 
053FA:  BRA    5400
....................                Buzzer_off; 
053FC:  BCF    F8B.5
053FE:  BCF    F94.5
....................                 
....................             ConteoBuzzer++;    
05400:  MOVLB  2
05402:  INCF   x00,F
....................          } 
....................       }else{ 
05404:  BRA    540A
....................          Buzzer_off; 
05406:  BCF    F8B.5
05408:  BCF    F94.5
0540A:  MOVLB  6
....................       } 
....................    } 
.................... } 
0540C:  MOVLB  0
0540E:  RETLW  00
....................  
.................... void ApagaSalidas(){ 
....................    Desfogue_off; 
*
03F1A:  BCF    F8C.3
03F1C:  BCF    F95.3
....................    Paso_off; 
03F1E:  BCF    F8C.1
03F20:  BCF    F95.1
....................    Vacio_off; 
03F22:  BCF    F8C.2
03F24:  BCF    F95.2
....................    Aire_off; 
03F26:  BCF    F8C.4
03F28:  BCF    F95.4
....................    Suministro_off; 
03F2A:  BCF    F8C.0
03F2C:  BCF    F95.0
....................    BombaVacio_off; 
03F2E:  BCF    F8C.5
03F30:  BCF    F95.5
....................    Buzzer_off; 
03F32:  BCF    F8B.5
03F34:  BCF    F94.5
....................    Agua_off; 
03F36:  BCF    F8C.6
03F38:  BCF    F95.6
....................    Controlando=0; 
03F3A:  MOVLB  1
03F3C:  CLRF   xC9
.................... } 
03F3E:  MOVLB  0
03F40:  RETLW  00
....................  
.................... void ControlaPresion(){ 
....................    if(PresionPrecamara>=130){ 
*
06B90:  MOVLB  1
06B92:  MOVF   xEE,F
06B94:  BNZ   6B9C
06B96:  MOVF   xED,W
06B98:  SUBLW  81
06B9A:  BC    6BA6
....................       Suministro_off; 
06B9C:  BCF    F8C.0
06B9E:  BCF    F95.0
....................       Precalentamiento=ON; 
06BA0:  MOVLB  0
06BA2:  BSF    x89.2
06BA4:  MOVLB  1
....................    } 
....................    if(PresionPrecamara<120) 
06BA6:  MOVF   xEE,F
06BA8:  BNZ   6BB4
06BAA:  MOVF   xED,W
06BAC:  SUBLW  77
06BAE:  BNC   6BB4
....................       Suministro_on; 
06BB0:  BSF    F8C.0
06BB2:  BCF    F95.0
.................... } 
06BB4:  MOVLB  0
06BB6:  RETLW  00
....................  
.................... void GuardaDatoEstatico(){ 
*
064A8:  MOVLB  6
064AA:  CLRF   x23
064AC:  CLRF   x22
064AE:  CLRF   x25
064B0:  CLRF   x24
....................    int16 posCiclo=0,cicloMemoria=0; 
....................    posCiclo=Ciclos/200; 
064B2:  MOVFF  1F0,627
064B6:  MOVFF  1EF,626
064BA:  CLRF   x29
064BC:  MOVLW  C8
064BE:  MOVWF  x28
064C0:  MOVLB  0
064C2:  CALL   58AE
064C6:  MOVFF  02,623
064CA:  MOVFF  01,622
....................    cicloMemoria=Ciclos-(posCiclo*200); 
064CE:  MOVFF  623,637
064D2:  MOVFF  622,636
064D6:  MOVLB  6
064D8:  CLRF   x39
064DA:  MOVLW  C8
064DC:  MOVWF  x38
064DE:  MOVLB  0
064E0:  CALL   23A8
064E4:  MOVF   01,W
064E6:  MOVLB  1
064E8:  SUBWF  xEF,W
064EA:  MOVLB  6
064EC:  MOVWF  x24
064EE:  MOVF   02,W
064F0:  MOVLB  1
064F2:  SUBWFB xF0,W
064F4:  MOVLB  6
064F6:  MOVWF  x25
....................    if(!disp_Guarda){ 
064F8:  MOVLB  0
064FA:  BTFSC  x86.5
064FC:  BRA    6692
....................       write_ext_eeprom(cicloMemoria*320,codigoUsuario); 
064FE:  MOVFF  625,637
06502:  MOVFF  624,636
06506:  MOVLW  01
06508:  MOVLB  6
0650A:  MOVWF  x39
0650C:  MOVLW  40
0650E:  MOVWF  x38
06510:  MOVLB  0
06512:  CALL   23A8
06516:  MOVFF  02,627
0651A:  MOVFF  01,626
0651E:  MOVFF  02,62A
06522:  MOVFF  01,629
06526:  MOVFF  222,62B
0652A:  RCALL  6396
....................       delay_ms(10); 
0652C:  MOVLW  0A
0652E:  MOVLB  6
06530:  MOVWF  x37
06532:  MOVLB  0
06534:  CALL   1F36
....................       if(!Libre) 
06538:  BTFSC  x88.7
0653A:  BRA    6576
....................          write_ext_eeprom(1+(cicloMemoria*320),CicloSeleccionado); 
0653C:  MOVFF  625,637
06540:  MOVFF  624,636
06544:  MOVLW  01
06546:  MOVLB  6
06548:  MOVWF  x39
0654A:  MOVLW  40
0654C:  MOVWF  x38
0654E:  MOVLB  0
06550:  CALL   23A8
06554:  MOVFF  02,03
06558:  MOVF   01,W
0655A:  ADDLW  01
0655C:  MOVLB  6
0655E:  MOVWF  x26
06560:  MOVLW  00
06562:  ADDWFC 02,W
06564:  MOVWF  x27
06566:  MOVWF  x2A
06568:  MOVFF  626,629
0656C:  MOVFF  1D5,62B
06570:  MOVLB  0
06572:  RCALL  6396
....................       else 
06574:  BRA    65B8
....................          write_ext_eeprom(1+(cicloMemoria*320),CicloLibre+10); 
06576:  MOVFF  625,637
0657A:  MOVFF  624,636
0657E:  MOVLW  01
06580:  MOVLB  6
06582:  MOVWF  x39
06584:  MOVLW  40
06586:  MOVWF  x38
06588:  MOVLB  0
0658A:  CALL   23A8
0658E:  MOVFF  02,03
06592:  MOVF   01,W
06594:  ADDLW  01
06596:  MOVLB  6
06598:  MOVWF  x26
0659A:  MOVLW  00
0659C:  ADDWFC 02,W
0659E:  MOVWF  x27
065A0:  MOVLW  0A
065A2:  MOVLB  2
065A4:  ADDWF  x1F,W
065A6:  MOVLB  6
065A8:  MOVWF  x28
065AA:  MOVFF  627,62A
065AE:  MOVFF  626,629
065B2:  MOVWF  x2B
065B4:  MOVLB  0
065B6:  RCALL  6396
....................       delay_ms(10); 
065B8:  MOVLW  0A
065BA:  MOVLB  6
065BC:  MOVWF  x37
065BE:  MOVLB  0
065C0:  CALL   1F36
....................       write_ext_eeprom(2+(cicloMemoria*320),Dia); 
065C4:  MOVFF  625,637
065C8:  MOVFF  624,636
065CC:  MOVLW  01
065CE:  MOVLB  6
065D0:  MOVWF  x39
065D2:  MOVLW  40
065D4:  MOVWF  x38
065D6:  MOVLB  0
065D8:  CALL   23A8
065DC:  MOVFF  02,03
065E0:  MOVF   01,W
065E2:  ADDLW  02
065E4:  MOVLB  6
065E6:  MOVWF  x26
065E8:  MOVLW  00
065EA:  ADDWFC 02,W
065EC:  MOVWF  x27
065EE:  MOVWF  x2A
065F0:  MOVFF  626,629
065F4:  MOVFF  20B,62B
065F8:  MOVLB  0
065FA:  RCALL  6396
....................       delay_ms(10); 
065FC:  MOVLW  0A
065FE:  MOVLB  6
06600:  MOVWF  x37
06602:  MOVLB  0
06604:  CALL   1F36
....................       write_ext_eeprom(3+(cicloMemoria*320),Mes); 
06608:  MOVFF  625,637
0660C:  MOVFF  624,636
06610:  MOVLW  01
06612:  MOVLB  6
06614:  MOVWF  x39
06616:  MOVLW  40
06618:  MOVWF  x38
0661A:  MOVLB  0
0661C:  CALL   23A8
06620:  MOVFF  02,03
06624:  MOVF   01,W
06626:  ADDLW  03
06628:  MOVLB  6
0662A:  MOVWF  x26
0662C:  MOVLW  00
0662E:  ADDWFC 02,W
06630:  MOVWF  x27
06632:  MOVWF  x2A
06634:  MOVFF  626,629
06638:  MOVFF  20A,62B
0663C:  MOVLB  0
0663E:  RCALL  6396
....................       delay_ms(10); 
06640:  MOVLW  0A
06642:  MOVLB  6
06644:  MOVWF  x37
06646:  MOVLB  0
06648:  CALL   1F36
....................       write_ext_eeprom(4+(cicloMemoria*320),Year); 
0664C:  MOVFF  625,637
06650:  MOVFF  624,636
06654:  MOVLW  01
06656:  MOVLB  6
06658:  MOVWF  x39
0665A:  MOVLW  40
0665C:  MOVWF  x38
0665E:  MOVLB  0
06660:  CALL   23A8
06664:  MOVFF  02,03
06668:  MOVF   01,W
0666A:  ADDLW  04
0666C:  MOVLB  6
0666E:  MOVWF  x26
06670:  MOVLW  00
06672:  ADDWFC 02,W
06674:  MOVWF  x27
06676:  MOVWF  x2A
06678:  MOVFF  626,629
0667C:  MOVFF  209,62B
06680:  MOVLB  0
06682:  RCALL  6396
....................       delay_ms(10);  
06684:  MOVLW  0A
06686:  MOVLB  6
06688:  MOVWF  x37
0668A:  MOVLB  0
0668C:  CALL   1F36
....................       disp_Guarda=1; 
06690:  BSF    x86.5
....................    }    
.................... } 
06692:  GOTO   C804 (RETURN)
....................  
.................... void GuardaDatoCiclo(){ 
*
06760:  MOVLB  6
06762:  CLRF   x23
06764:  CLRF   x22
06766:  CLRF   x25
06768:  CLRF   x24
....................    int16 posCiclo=0,cicloMemoria=0; 
....................    posCiclo=Ciclos/200; 
0676A:  MOVFF  1F0,627
0676E:  MOVFF  1EF,626
06772:  CLRF   x29
06774:  MOVLW  C8
06776:  MOVWF  x28
06778:  MOVLB  0
0677A:  CALL   58AE
0677E:  MOVFF  02,623
06782:  MOVFF  01,622
....................    if(!Ciclo){ 
06786:  BTFSC  x86.6
06788:  BRA    6B00
....................       cicloMemoria=Ciclos-(posCiclo*200); 
0678A:  MOVFF  623,637
0678E:  MOVFF  622,636
06792:  MOVLB  6
06794:  CLRF   x39
06796:  MOVLW  C8
06798:  MOVWF  x38
0679A:  MOVLB  0
0679C:  CALL   23A8
067A0:  MOVF   01,W
067A2:  MOVLB  1
067A4:  SUBWF  xEF,W
067A6:  MOVLB  6
067A8:  MOVWF  x24
067AA:  MOVF   02,W
067AC:  MOVLB  1
067AE:  SUBWFB xF0,W
067B0:  MOVLB  6
067B2:  MOVWF  x25
....................       write_ext_eeprom(5+(cicloMemoria*320)+(posicionDato*9),(int8)Temperatura); 
067B4:  MOVFF  625,637
067B8:  MOVFF  624,636
067BC:  MOVLW  01
067BE:  MOVWF  x39
067C0:  MOVLW  40
067C2:  MOVWF  x38
067C4:  MOVLB  0
067C6:  CALL   23A8
067CA:  MOVFF  02,03
067CE:  MOVF   01,W
067D0:  ADDLW  05
067D2:  MOVLB  6
067D4:  MOVWF  x26
067D6:  MOVLW  00
067D8:  ADDWFC 02,W
067DA:  MOVWF  x27
067DC:  MOVLB  2
067DE:  MOVF   x01,W
067E0:  MULLW  09
067E2:  MOVF   FF3,W
067E4:  MOVLB  6
067E6:  ADDWF  x26,F
067E8:  MOVLW  00
067EA:  ADDWFC x27,F
067EC:  MOVFF  1B6,637
067F0:  MOVFF  1B5,636
067F4:  MOVFF  1B4,635
067F8:  MOVFF  1B3,634
067FC:  MOVLB  0
067FE:  CALL   50E6
06802:  MOVFF  01,628
06806:  MOVFF  627,62A
0680A:  MOVFF  626,629
0680E:  MOVFF  01,62B
06812:  RCALL  6396
....................       delay_ms(10); 
06814:  MOVLW  0A
06816:  MOVLB  6
06818:  MOVWF  x37
0681A:  MOVLB  0
0681C:  CALL   1F36
....................       write_ext_eeprom(6+(cicloMemoria*320)+(posicionDato*9),extraeDecimal(Temperatura)); 
06820:  MOVFF  625,637
06824:  MOVFF  624,636
06828:  MOVLW  01
0682A:  MOVLB  6
0682C:  MOVWF  x39
0682E:  MOVLW  40
06830:  MOVWF  x38
06832:  MOVLB  0
06834:  CALL   23A8
06838:  MOVFF  02,03
0683C:  MOVF   01,W
0683E:  ADDLW  06
06840:  MOVLB  6
06842:  MOVWF  x26
06844:  MOVLW  00
06846:  ADDWFC 02,W
06848:  MOVWF  x27
0684A:  MOVLB  2
0684C:  MOVF   x01,W
0684E:  MULLW  09
06850:  MOVF   FF3,W
06852:  MOVLB  6
06854:  ADDWF  x26,F
06856:  MOVLW  00
06858:  ADDWFC x27,F
0685A:  MOVFF  1B6,62B
0685E:  MOVFF  1B5,62A
06862:  MOVFF  1B4,629
06866:  MOVFF  1B3,628
0686A:  MOVLB  0
0686C:  BRA    6696
0686E:  MOVFF  01,628
06872:  MOVFF  627,62A
06876:  MOVFF  626,629
0687A:  MOVFF  01,62B
0687E:  RCALL  6396
....................       delay_ms(10); 
06880:  MOVLW  0A
06882:  MOVLB  6
06884:  MOVWF  x37
06886:  MOVLB  0
06888:  CALL   1F36
....................       write_ext_eeprom(7+(cicloMemoria*320)+(posicionDato*9),make8(PresionCamara,1)); 
0688C:  MOVFF  625,637
06890:  MOVFF  624,636
06894:  MOVLW  01
06896:  MOVLB  6
06898:  MOVWF  x39
0689A:  MOVLW  40
0689C:  MOVWF  x38
0689E:  MOVLB  0
068A0:  CALL   23A8
068A4:  MOVFF  02,03
068A8:  MOVF   01,W
068AA:  ADDLW  07
068AC:  MOVLB  6
068AE:  MOVWF  x26
068B0:  MOVLW  00
068B2:  ADDWFC 02,W
068B4:  MOVWF  x27
068B6:  MOVLB  2
068B8:  MOVF   x01,W
068BA:  MULLW  09
068BC:  MOVF   FF3,W
068BE:  MOVLB  6
068C0:  ADDWF  x26,F
068C2:  MOVLW  00
068C4:  ADDWFC x27,F
068C6:  MOVFF  1EC,628
068CA:  MOVFF  627,62A
068CE:  MOVFF  626,629
068D2:  MOVFF  1EC,62B
068D6:  MOVLB  0
068D8:  RCALL  6396
....................       delay_ms(10); 
068DA:  MOVLW  0A
068DC:  MOVLB  6
068DE:  MOVWF  x37
068E0:  MOVLB  0
068E2:  CALL   1F36
....................       write_ext_eeprom(8+(cicloMemoria*320)+(posicionDato*9),make8(PresionCamara,0)); 
068E6:  MOVFF  625,637
068EA:  MOVFF  624,636
068EE:  MOVLW  01
068F0:  MOVLB  6
068F2:  MOVWF  x39
068F4:  MOVLW  40
068F6:  MOVWF  x38
068F8:  MOVLB  0
068FA:  CALL   23A8
068FE:  MOVFF  02,03
06902:  MOVF   01,W
06904:  ADDLW  08
06906:  MOVLB  6
06908:  MOVWF  x26
0690A:  MOVLW  00
0690C:  ADDWFC 02,W
0690E:  MOVWF  x27
06910:  MOVLB  2
06912:  MOVF   x01,W
06914:  MULLW  09
06916:  MOVF   FF3,W
06918:  MOVLB  6
0691A:  ADDWF  x26,F
0691C:  MOVLW  00
0691E:  ADDWFC x27,F
06920:  MOVFF  1EB,628
06924:  MOVFF  627,62A
06928:  MOVFF  626,629
0692C:  MOVFF  1EB,62B
06930:  MOVLB  0
06932:  RCALL  6396
....................       delay_ms(10); 
06934:  MOVLW  0A
06936:  MOVLB  6
06938:  MOVWF  x37
0693A:  MOVLB  0
0693C:  CALL   1F36
....................       write_ext_eeprom(9+(cicloMemoria*320)+(posicionDato*9),make8(PresionPreCamara,1)); 
06940:  MOVFF  625,637
06944:  MOVFF  624,636
06948:  MOVLW  01
0694A:  MOVLB  6
0694C:  MOVWF  x39
0694E:  MOVLW  40
06950:  MOVWF  x38
06952:  MOVLB  0
06954:  CALL   23A8
06958:  MOVFF  02,03
0695C:  MOVF   01,W
0695E:  ADDLW  09
06960:  MOVLB  6
06962:  MOVWF  x26
06964:  MOVLW  00
06966:  ADDWFC 02,W
06968:  MOVWF  x27
0696A:  MOVLB  2
0696C:  MOVF   x01,W
0696E:  MULLW  09
06970:  MOVF   FF3,W
06972:  MOVLB  6
06974:  ADDWF  x26,F
06976:  MOVLW  00
06978:  ADDWFC x27,F
0697A:  MOVFF  1EE,628
0697E:  MOVFF  627,62A
06982:  MOVFF  626,629
06986:  MOVFF  1EE,62B
0698A:  MOVLB  0
0698C:  RCALL  6396
....................       delay_ms(10); 
0698E:  MOVLW  0A
06990:  MOVLB  6
06992:  MOVWF  x37
06994:  MOVLB  0
06996:  CALL   1F36
....................       write_ext_eeprom(10+(cicloMemoria*320)+(posicionDato*9),make8(PresionPreCamara,0)); 
0699A:  MOVFF  625,637
0699E:  MOVFF  624,636
069A2:  MOVLW  01
069A4:  MOVLB  6
069A6:  MOVWF  x39
069A8:  MOVLW  40
069AA:  MOVWF  x38
069AC:  MOVLB  0
069AE:  CALL   23A8
069B2:  MOVFF  02,03
069B6:  MOVF   01,W
069B8:  ADDLW  0A
069BA:  MOVLB  6
069BC:  MOVWF  x26
069BE:  MOVLW  00
069C0:  ADDWFC 02,W
069C2:  MOVWF  x27
069C4:  MOVLB  2
069C6:  MOVF   x01,W
069C8:  MULLW  09
069CA:  MOVF   FF3,W
069CC:  MOVLB  6
069CE:  ADDWF  x26,F
069D0:  MOVLW  00
069D2:  ADDWFC x27,F
069D4:  MOVFF  1ED,628
069D8:  MOVFF  627,62A
069DC:  MOVFF  626,629
069E0:  MOVFF  1ED,62B
069E4:  MOVLB  0
069E6:  RCALL  6396
....................       delay_ms(10); 
069E8:  MOVLW  0A
069EA:  MOVLB  6
069EC:  MOVWF  x37
069EE:  MOVLB  0
069F0:  CALL   1F36
....................       write_ext_eeprom(11+(cicloMemoria*320)+(posicionDato*9),Hora); 
069F4:  MOVFF  625,637
069F8:  MOVFF  624,636
069FC:  MOVLW  01
069FE:  MOVLB  6
06A00:  MOVWF  x39
06A02:  MOVLW  40
06A04:  MOVWF  x38
06A06:  MOVLB  0
06A08:  CALL   23A8
06A0C:  MOVFF  02,03
06A10:  MOVF   01,W
06A12:  ADDLW  0B
06A14:  MOVLB  6
06A16:  MOVWF  x26
06A18:  MOVLW  00
06A1A:  ADDWFC 02,W
06A1C:  MOVWF  x27
06A1E:  MOVLB  2
06A20:  MOVF   x01,W
06A22:  MULLW  09
06A24:  MOVF   FF3,W
06A26:  MOVLB  6
06A28:  ADDWF  x26,F
06A2A:  MOVLW  00
06A2C:  ADDWFC x27,F
06A2E:  MOVFF  627,62A
06A32:  MOVFF  626,629
06A36:  MOVFF  20C,62B
06A3A:  MOVLB  0
06A3C:  RCALL  6396
....................       delay_ms(10); 
06A3E:  MOVLW  0A
06A40:  MOVLB  6
06A42:  MOVWF  x37
06A44:  MOVLB  0
06A46:  CALL   1F36
....................       write_ext_eeprom(12+(cicloMemoria*320)+(posicionDato*9),Minuto); 
06A4A:  MOVFF  625,637
06A4E:  MOVFF  624,636
06A52:  MOVLW  01
06A54:  MOVLB  6
06A56:  MOVWF  x39
06A58:  MOVLW  40
06A5A:  MOVWF  x38
06A5C:  MOVLB  0
06A5E:  CALL   23A8
06A62:  MOVFF  02,03
06A66:  MOVF   01,W
06A68:  ADDLW  0C
06A6A:  MOVLB  6
06A6C:  MOVWF  x26
06A6E:  MOVLW  00
06A70:  ADDWFC 02,W
06A72:  MOVWF  x27
06A74:  MOVLB  2
06A76:  MOVF   x01,W
06A78:  MULLW  09
06A7A:  MOVF   FF3,W
06A7C:  MOVLB  6
06A7E:  ADDWF  x26,F
06A80:  MOVLW  00
06A82:  ADDWFC x27,F
06A84:  MOVFF  627,62A
06A88:  MOVFF  626,629
06A8C:  MOVFF  20D,62B
06A90:  MOVLB  0
06A92:  RCALL  6396
....................       delay_ms(10); 
06A94:  MOVLW  0A
06A96:  MOVLB  6
06A98:  MOVWF  x37
06A9A:  MOVLB  0
06A9C:  CALL   1F36
....................       write_ext_eeprom(13+(cicloMemoria*320)+(posicionDato*9),codigoAlarma); 
06AA0:  MOVFF  625,637
06AA4:  MOVFF  624,636
06AA8:  MOVLW  01
06AAA:  MOVLB  6
06AAC:  MOVWF  x39
06AAE:  MOVLW  40
06AB0:  MOVWF  x38
06AB2:  MOVLB  0
06AB4:  CALL   23A8
06AB8:  MOVFF  02,03
06ABC:  MOVF   01,W
06ABE:  ADDLW  0D
06AC0:  MOVLB  6
06AC2:  MOVWF  x26
06AC4:  MOVLW  00
06AC6:  ADDWFC 02,W
06AC8:  MOVWF  x27
06ACA:  MOVLB  2
06ACC:  MOVF   x01,W
06ACE:  MULLW  09
06AD0:  MOVF   FF3,W
06AD2:  MOVLB  6
06AD4:  ADDWF  x26,F
06AD6:  MOVLW  00
06AD8:  ADDWFC x27,F
06ADA:  MOVFF  627,62A
06ADE:  MOVFF  626,629
06AE2:  MOVFF  202,62B
06AE6:  MOVLB  0
06AE8:  RCALL  6396
....................       delay_ms(10); 
06AEA:  MOVLW  0A
06AEC:  MOVLB  6
06AEE:  MOVWF  x37
06AF0:  MOVLB  0
06AF2:  CALL   1F36
....................     
....................       if(posicionDato<35) 
06AF6:  MOVLB  2
06AF8:  MOVF   x01,W
06AFA:  SUBLW  22
06AFC:  BNC   6B00
....................          ++posicionDato; 
06AFE:  INCF   x01,F
06B00:  MOVLB  0
....................    } 
.................... } 
06B02:  RETLW  00
....................  
.................... void incrementaCiclos(){ 
....................    if(!Ciclo){ 
06B04:  BTFSC  x86.6
06B06:  BRA    6B8E
....................       Ciclo=ON; 
06B08:  BSF    x86.6
....................       Ciclos++; 
06B0A:  MOVLB  1
06B0C:  INCF   xEF,F
06B0E:  BTFSC  FD8.2
06B10:  INCF   xF0,F
....................       CiclosL=make8(Ciclos,0); 
06B12:  MOVFF  1EF,1D3
....................       CiclosH=make8(Ciclos,1); 
06B16:  MOVFF  1F0,1D4
....................       write_eeprom(37,CiclosL); 
06B1A:  CLRF   FAA
06B1C:  MOVLW  25
06B1E:  MOVWF  FA9
06B20:  MOVFF  1D3,FA8
06B24:  BCF    FA6.6
06B26:  BCF    FA6.7
06B28:  BSF    FA6.2
06B2A:  MOVF   FF2,W
06B2C:  MOVWF  00
06B2E:  BCF    FF2.6
06B30:  BCF    FF2.7
06B32:  MOVLB  F
06B34:  MOVLW  55
06B36:  MOVWF  FA7
06B38:  MOVLW  AA
06B3A:  MOVWF  FA7
06B3C:  BSF    FA6.1
06B3E:  BTFSC  FA6.1
06B40:  BRA    6B3E
06B42:  BCF    FA6.2
06B44:  MOVF   00,W
06B46:  IORWF  FF2,F
....................       delay_ms(20); 
06B48:  MOVLW  14
06B4A:  MOVLB  6
06B4C:  MOVWF  x37
06B4E:  MOVLB  0
06B50:  CALL   1F36
....................       write_eeprom(38,CiclosH); 
06B54:  CLRF   FAA
06B56:  MOVLW  26
06B58:  MOVWF  FA9
06B5A:  MOVFF  1D4,FA8
06B5E:  BCF    FA6.6
06B60:  BCF    FA6.7
06B62:  BSF    FA6.2
06B64:  MOVF   FF2,W
06B66:  MOVWF  00
06B68:  BCF    FF2.6
06B6A:  BCF    FF2.7
06B6C:  MOVLB  F
06B6E:  MOVLW  55
06B70:  MOVWF  FA7
06B72:  MOVLW  AA
06B74:  MOVWF  FA7
06B76:  BSF    FA6.1
06B78:  BTFSC  FA6.1
06B7A:  BRA    6B78
06B7C:  BCF    FA6.2
06B7E:  MOVF   00,W
06B80:  IORWF  FF2,F
....................       delay_ms(20); 
06B82:  MOVLW  14
06B84:  MOVLB  6
06B86:  MOVWF  x37
06B88:  MOVLB  0
06B8A:  CALL   1F36
....................    } 
.................... } 
06B8E:  RETLW  00
....................  
.................... void exportarData(){ 
*
05AC6:  MOVLB  6
05AC8:  CLRF   x23
05ACA:  CLRF   x22
05ACC:  CLRF   x24
.................... int16 posicion=0; 
.................... int8 tmp=0; 
.................... posicion=0; 
05ACE:  CLRF   x23
05AD0:  CLRF   x22
.................... direccion=0xB0; 
05AD2:  MOVLW  B0
05AD4:  MOVLB  0
05AD6:  MOVWF  x68
.................... Buzzer_on; 
05AD8:  BSF    F8B.5
05ADA:  BCF    F94.5
.................... //Inicio de Transmision 
.................... i2c_start();            // Comienzo comunicacin 
05ADC:  BSF    F94.4
05ADE:  MOVLW  05
05AE0:  MOVWF  00
05AE2:  DECFSZ 00,F
05AE4:  BRA    5AE2
05AE6:  BSF    F94.3
05AE8:  MOVLW  06
05AEA:  MOVWF  00
05AEC:  DECFSZ 00,F
05AEE:  BRA    5AEC
05AF0:  BCF    F8B.4
05AF2:  BCF    F94.4
05AF4:  MOVLW  05
05AF6:  MOVWF  00
05AF8:  DECFSZ 00,F
05AFA:  BRA    5AF8
05AFC:  BCF    F8B.3
05AFE:  BCF    F94.3
.................... i2c_write(direccion);   // Direccin del esclavo en el bus I2C 
05B00:  MOVFF  68,62F
05B04:  CALL   23CA
.................... i2c_write(make8(posicion,0));    // Posicin donde se guardara el dato transmitido 
05B08:  MOVFF  622,625
05B0C:  MOVFF  622,62F
05B10:  CALL   23CA
.................... i2c_write(make8(posicion,1));    // Posicin donde se guardara el dato transmitido 
05B14:  MOVFF  623,625
05B18:  MOVFF  623,62F
05B1C:  CALL   23CA
.................... i2c_write(0xff);        // Dato a transmitir 
05B20:  MOVLW  FF
05B22:  MOVLB  6
05B24:  MOVWF  x2F
05B26:  MOVLB  0
05B28:  CALL   23CA
.................... i2c_stop(); 
05B2C:  BCF    F94.4
05B2E:  NOP   
05B30:  BSF    F94.3
05B32:  BTFSS  F82.3
05B34:  BRA    5B32
05B36:  MOVLW  05
05B38:  MOVWF  00
05B3A:  DECFSZ 00,F
05B3C:  BRA    5B3A
05B3E:  BRA    5B40
05B40:  NOP   
05B42:  BSF    F94.4
05B44:  MOVLW  05
05B46:  MOVWF  00
05B48:  DECFSZ 00,F
05B4A:  BRA    5B48
.................... ++posicion; 
05B4C:  MOVLB  6
05B4E:  INCF   x22,F
05B50:  BTFSC  FD8.2
05B52:  INCF   x23,F
.................... i2c_start();            // Comienzo comunicacin 
05B54:  BSF    F94.4
05B56:  MOVLW  05
05B58:  MOVWF  00
05B5A:  DECFSZ 00,F
05B5C:  BRA    5B5A
05B5E:  BSF    F94.3
05B60:  MOVLW  06
05B62:  MOVWF  00
05B64:  DECFSZ 00,F
05B66:  BRA    5B64
05B68:  BCF    F8B.4
05B6A:  BCF    F94.4
05B6C:  MOVLW  05
05B6E:  MOVWF  00
05B70:  DECFSZ 00,F
05B72:  BRA    5B70
05B74:  BCF    F8B.3
05B76:  BCF    F94.3
.................... i2c_write(direccion);   // Direccin del esclavo en el bus I2C 
05B78:  MOVFF  68,62F
05B7C:  MOVLB  0
05B7E:  CALL   23CA
.................... i2c_write(make8(posicion,0));    // Posicin donde se guardara el dato transmitido 
05B82:  MOVFF  622,625
05B86:  MOVFF  622,62F
05B8A:  CALL   23CA
.................... i2c_write(make8(posicion,1));    // Posicin donde se guardara el dato transmitido 
05B8E:  MOVFF  623,625
05B92:  MOVFF  623,62F
05B96:  CALL   23CA
.................... i2c_write(0xff);        // Dato a transmitir 
05B9A:  MOVLW  FF
05B9C:  MOVLB  6
05B9E:  MOVWF  x2F
05BA0:  MOVLB  0
05BA2:  CALL   23CA
.................... i2c_stop(); 
05BA6:  BCF    F94.4
05BA8:  NOP   
05BAA:  BSF    F94.3
05BAC:  BTFSS  F82.3
05BAE:  BRA    5BAC
05BB0:  MOVLW  05
05BB2:  MOVWF  00
05BB4:  DECFSZ 00,F
05BB6:  BRA    5BB4
05BB8:  BRA    5BBA
05BBA:  NOP   
05BBC:  BSF    F94.4
05BBE:  MOVLW  05
05BC0:  MOVWF  00
05BC2:  DECFSZ 00,F
05BC4:  BRA    5BC2
.................... ++posicion; 
05BC6:  MOVLB  6
05BC8:  INCF   x22,F
05BCA:  BTFSC  FD8.2
05BCC:  INCF   x23,F
.................... //Se envian 2 veces ff para indicar que se inicia la transmision. 
....................  
....................    for(i=0;i<5;i++){ 
05BCE:  MOVLB  1
05BD0:  CLRF   xD2
05BD2:  MOVF   xD2,W
05BD4:  SUBLW  04
05BD6:  BNC   5C8E
....................       tmp=read_ext_eeprom((cicloVisto*320)+i); 
05BD8:  MOVLB  6
05BDA:  CLRF   x37
05BDC:  MOVFF  211,636
05BE0:  MOVLW  01
05BE2:  MOVWF  x39
05BE4:  MOVLW  40
05BE6:  MOVWF  x38
05BE8:  MOVLB  0
05BEA:  CALL   23A8
05BEE:  MOVFF  02,626
05BF2:  MOVFF  01,625
05BF6:  MOVLB  1
05BF8:  MOVF   xD2,W
05BFA:  MOVLB  6
05BFC:  ADDWF  x25,F
05BFE:  MOVLW  00
05C00:  ADDWFC x26,F
05C02:  MOVFF  626,628
05C06:  MOVFF  625,627
05C0A:  MOVLB  0
05C0C:  CALL   24AA
05C10:  MOVFF  01,624
....................       //if(tmp>250) 
....................       //   tmp=20; 
....................       i2c_start();            // Comienzo comunicacin 
05C14:  BSF    F94.4
05C16:  MOVLW  05
05C18:  MOVWF  00
05C1A:  DECFSZ 00,F
05C1C:  BRA    5C1A
05C1E:  BSF    F94.3
05C20:  MOVLW  06
05C22:  MOVWF  00
05C24:  DECFSZ 00,F
05C26:  BRA    5C24
05C28:  BCF    F8B.4
05C2A:  BCF    F94.4
05C2C:  MOVLW  05
05C2E:  MOVWF  00
05C30:  DECFSZ 00,F
05C32:  BRA    5C30
05C34:  BCF    F8B.3
05C36:  BCF    F94.3
....................       i2c_write(direccion);   // Direccin del esclavo en el bus I2C 
05C38:  MOVFF  68,62F
05C3C:  CALL   23CA
....................       i2c_write(make8(posicion,0));    // Posicin donde se guardara el dato transmitido 
05C40:  MOVFF  622,625
05C44:  MOVFF  622,62F
05C48:  CALL   23CA
....................       i2c_write(make8(posicion,1));    // Posicin donde se guardara el dato transmitido 
05C4C:  MOVFF  623,625
05C50:  MOVFF  623,62F
05C54:  CALL   23CA
....................       i2c_write(tmp);        // Dato a transmitir 
05C58:  MOVFF  624,62F
05C5C:  CALL   23CA
....................       i2c_stop();  
05C60:  BCF    F94.4
05C62:  NOP   
05C64:  BSF    F94.3
05C66:  BTFSS  F82.3
05C68:  BRA    5C66
05C6A:  MOVLW  05
05C6C:  MOVWF  00
05C6E:  DECFSZ 00,F
05C70:  BRA    5C6E
05C72:  BRA    5C74
05C74:  NOP   
05C76:  BSF    F94.4
05C78:  MOVLW  05
05C7A:  MOVWF  00
05C7C:  DECFSZ 00,F
05C7E:  BRA    5C7C
....................       ++posicion; 
05C80:  MOVLB  6
05C82:  INCF   x22,F
05C84:  BTFSC  FD8.2
05C86:  INCF   x23,F
....................    } 
05C88:  MOVLB  1
05C8A:  INCF   xD2,F
05C8C:  BRA    5BD2
....................    for(i=0;i<35;i++){//Lee Valores para completar la Tabla 
05C8E:  CLRF   xD2
05C90:  MOVF   xD2,W
05C92:  SUBLW  22
05C94:  BNC   5D6E
....................       for(j=5;j<14;j++){//Lee Valores para completar la Tabla 
05C96:  MOVLW  05
05C98:  MOVLB  2
05C9A:  MOVWF  x21
05C9C:  MOVF   x21,W
05C9E:  SUBLW  0D
05CA0:  BNC   5D68
....................          tmp=read_ext_eeprom((cicloVisto*320)+j+(i*9)); 
05CA2:  MOVLB  6
05CA4:  CLRF   x37
05CA6:  MOVFF  211,636
05CAA:  MOVLW  01
05CAC:  MOVWF  x39
05CAE:  MOVLW  40
05CB0:  MOVWF  x38
05CB2:  MOVLB  0
05CB4:  CALL   23A8
05CB8:  MOVFF  02,626
05CBC:  MOVFF  01,625
05CC0:  MOVLB  2
05CC2:  MOVF   x21,W
05CC4:  MOVLB  6
05CC6:  ADDWF  x25,F
05CC8:  MOVLW  00
05CCA:  ADDWFC x26,F
05CCC:  MOVLB  1
05CCE:  MOVF   xD2,W
05CD0:  MULLW  09
05CD2:  MOVF   FF3,W
05CD4:  MOVLB  6
05CD6:  ADDWF  x25,F
05CD8:  MOVLW  00
05CDA:  ADDWFC x26,F
05CDC:  MOVFF  626,628
05CE0:  MOVFF  625,627
05CE4:  MOVLB  0
05CE6:  CALL   24AA
05CEA:  MOVFF  01,624
....................          //if(tmp>250) 
....................          //   tmp=20; 
....................          i2c_start();            // Comienzo comunicacin 
05CEE:  BSF    F94.4
05CF0:  MOVLW  05
05CF2:  MOVWF  00
05CF4:  DECFSZ 00,F
05CF6:  BRA    5CF4
05CF8:  BSF    F94.3
05CFA:  MOVLW  06
05CFC:  MOVWF  00
05CFE:  DECFSZ 00,F
05D00:  BRA    5CFE
05D02:  BCF    F8B.4
05D04:  BCF    F94.4
05D06:  MOVLW  05
05D08:  MOVWF  00
05D0A:  DECFSZ 00,F
05D0C:  BRA    5D0A
05D0E:  BCF    F8B.3
05D10:  BCF    F94.3
....................          i2c_write(direccion);   // Direccin del esclavo en el bus I2C 
05D12:  MOVFF  68,62F
05D16:  CALL   23CA
....................          i2c_write(make8(posicion,0));    // Posicin donde se guardara el dato transmitido 
05D1A:  MOVFF  622,625
05D1E:  MOVFF  622,62F
05D22:  CALL   23CA
....................          i2c_write(make8(posicion,1));    // Posicin donde se guardara el dato transmitido 
05D26:  MOVFF  623,625
05D2A:  MOVFF  623,62F
05D2E:  CALL   23CA
....................          i2c_write(tmp);        // Dato a transmitir 
05D32:  MOVFF  624,62F
05D36:  CALL   23CA
....................          i2c_stop();  
05D3A:  BCF    F94.4
05D3C:  NOP   
05D3E:  BSF    F94.3
05D40:  BTFSS  F82.3
05D42:  BRA    5D40
05D44:  MOVLW  05
05D46:  MOVWF  00
05D48:  DECFSZ 00,F
05D4A:  BRA    5D48
05D4C:  BRA    5D4E
05D4E:  NOP   
05D50:  BSF    F94.4
05D52:  MOVLW  05
05D54:  MOVWF  00
05D56:  DECFSZ 00,F
05D58:  BRA    5D56
....................          ++posicion; 
05D5A:  MOVLB  6
05D5C:  INCF   x22,F
05D5E:  BTFSC  FD8.2
05D60:  INCF   x23,F
....................       } 
05D62:  MOVLB  2
05D64:  INCF   x21,F
05D66:  BRA    5C9C
....................    } 
05D68:  MOVLB  1
05D6A:  INCF   xD2,F
05D6C:  BRA    5C90
....................  
.................... //Fin de Transmision 
.................... i2c_start();            // Comienzo comunicacin 
05D6E:  BSF    F94.4
05D70:  MOVLW  05
05D72:  MOVWF  00
05D74:  DECFSZ 00,F
05D76:  BRA    5D74
05D78:  BSF    F94.3
05D7A:  MOVLW  06
05D7C:  MOVWF  00
05D7E:  DECFSZ 00,F
05D80:  BRA    5D7E
05D82:  BCF    F8B.4
05D84:  BCF    F94.4
05D86:  MOVLW  05
05D88:  MOVWF  00
05D8A:  DECFSZ 00,F
05D8C:  BRA    5D8A
05D8E:  BCF    F8B.3
05D90:  BCF    F94.3
.................... i2c_write(direccion);   // Direccin del esclavo en el bus I2C 
05D92:  MOVFF  68,62F
05D96:  MOVLB  0
05D98:  CALL   23CA
.................... i2c_write(make8(posicion,0));    // Posicin donde se guardara el dato transmitido 
05D9C:  MOVFF  622,625
05DA0:  MOVFF  622,62F
05DA4:  CALL   23CA
.................... i2c_write(make8(posicion,1));    // Posicin donde se guardara el dato transmitido 
05DA8:  MOVFF  623,625
05DAC:  MOVFF  623,62F
05DB0:  CALL   23CA
.................... i2c_write(0x1f);        // Dato a transmitir 
05DB4:  MOVLW  1F
05DB6:  MOVLB  6
05DB8:  MOVWF  x2F
05DBA:  MOVLB  0
05DBC:  CALL   23CA
.................... i2c_stop(); 
05DC0:  BCF    F94.4
05DC2:  NOP   
05DC4:  BSF    F94.3
05DC6:  BTFSS  F82.3
05DC8:  BRA    5DC6
05DCA:  MOVLW  05
05DCC:  MOVWF  00
05DCE:  DECFSZ 00,F
05DD0:  BRA    5DCE
05DD2:  BRA    5DD4
05DD4:  NOP   
05DD6:  BSF    F94.4
05DD8:  MOVLW  05
05DDA:  MOVWF  00
05DDC:  DECFSZ 00,F
05DDE:  BRA    5DDC
.................... ++posicion; 
05DE0:  MOVLB  6
05DE2:  INCF   x22,F
05DE4:  BTFSC  FD8.2
05DE6:  INCF   x23,F
.................... i2c_start();            // Comienzo comunicacin 
05DE8:  BSF    F94.4
05DEA:  MOVLW  05
05DEC:  MOVWF  00
05DEE:  DECFSZ 00,F
05DF0:  BRA    5DEE
05DF2:  BSF    F94.3
05DF4:  MOVLW  06
05DF6:  MOVWF  00
05DF8:  DECFSZ 00,F
05DFA:  BRA    5DF8
05DFC:  BCF    F8B.4
05DFE:  BCF    F94.4
05E00:  MOVLW  05
05E02:  MOVWF  00
05E04:  DECFSZ 00,F
05E06:  BRA    5E04
05E08:  BCF    F8B.3
05E0A:  BCF    F94.3
.................... i2c_write(direccion);   // Direccin del esclavo en el bus I2C 
05E0C:  MOVFF  68,62F
05E10:  MOVLB  0
05E12:  CALL   23CA
.................... i2c_write(make8(posicion,0));    // Posicin donde se guardara el dato transmitido 
05E16:  MOVFF  622,625
05E1A:  MOVFF  622,62F
05E1E:  CALL   23CA
.................... i2c_write(make8(posicion,1));    // Posicin donde se guardara el dato transmitido 
05E22:  MOVFF  623,625
05E26:  MOVFF  623,62F
05E2A:  CALL   23CA
.................... i2c_write(0x1f);        // Dato a transmitir 
05E2E:  MOVLW  1F
05E30:  MOVLB  6
05E32:  MOVWF  x2F
05E34:  MOVLB  0
05E36:  CALL   23CA
.................... i2c_stop(); 
05E3A:  BCF    F94.4
05E3C:  NOP   
05E3E:  BSF    F94.3
05E40:  BTFSS  F82.3
05E42:  BRA    5E40
05E44:  MOVLW  05
05E46:  MOVWF  00
05E48:  DECFSZ 00,F
05E4A:  BRA    5E48
05E4C:  BRA    5E4E
05E4E:  NOP   
05E50:  BSF    F94.4
05E52:  MOVLW  05
05E54:  MOVWF  00
05E56:  DECFSZ 00,F
05E58:  BRA    5E56
.................... ++posicion; 
05E5A:  MOVLB  6
05E5C:  INCF   x22,F
05E5E:  BTFSC  FD8.2
05E60:  INCF   x23,F
.................... //Se envian 2 veces 1f para indicar que se inicia la transmision. 
.................... delay_ms(200); 
05E62:  MOVLW  C8
05E64:  MOVWF  x37
05E66:  MOVLB  0
05E68:  CALL   1F36
.................... Buzzer_off; 
05E6C:  BCF    F8B.5
05E6E:  BCF    F94.5
.................... } 
05E70:  GOTO   B8B8 (RETURN)
....................  
.................... void codificaAlarma(){ 
....................    if(ACiclos[i]==0){ 
05E74:  CLRF   03
05E76:  MOVLB  1
05E78:  MOVF   xD2,W
05E7A:  ADDLW  82
05E7C:  MOVWF  FE9
05E7E:  MOVLW  02
05E80:  ADDWFC 03,W
05E82:  MOVWF  FEA
05E84:  MOVF   FEF,F
05E86:  BNZ   5EC6
....................       printf("A%u.txt=\"----\"",i+1); 
05E88:  MOVLW  01
05E8A:  ADDWF  xD2,W
05E8C:  MOVLB  6
05E8E:  MOVWF  x22
05E90:  MOVLW  41
05E92:  BTFSS  F9E.4
05E94:  BRA    5E92
05E96:  MOVWF  FAD
05E98:  MOVFF  622,627
05E9C:  MOVLW  1B
05E9E:  MOVWF  x28
05EA0:  MOVLB  0
05EA2:  CALL   54C0
05EA6:  MOVLW  07
05EA8:  MOVWF  FF6
05EAA:  MOVLW  04
05EAC:  MOVWF  FF7
05EAE:  MOVLW  00
05EB0:  MOVWF  FF8
05EB2:  MOVLW  0B
05EB4:  MOVLB  6
05EB6:  MOVWF  x27
05EB8:  MOVLB  0
05EBA:  CALL   543C
....................       SendDataDisplay(); 
05EBE:  CALL   3EE4
....................    }else if(ACiclos[i]==1){ 
05EC2:  BRA    638E
05EC4:  MOVLB  1
05EC6:  CLRF   03
05EC8:  MOVF   xD2,W
05ECA:  ADDLW  82
05ECC:  MOVWF  FE9
05ECE:  MOVLW  02
05ED0:  ADDWFC 03,W
05ED2:  MOVWF  FEA
05ED4:  DECFSZ FEF,W
05ED6:  BRA    5F16
....................       printf("A%u.txt=\"Parada\"",i+1); 
05ED8:  MOVLW  01
05EDA:  ADDWF  xD2,W
05EDC:  MOVLB  6
05EDE:  MOVWF  x22
05EE0:  MOVLW  41
05EE2:  BTFSS  F9E.4
05EE4:  BRA    5EE2
05EE6:  MOVWF  FAD
05EE8:  MOVFF  622,627
05EEC:  MOVLW  1B
05EEE:  MOVWF  x28
05EF0:  MOVLB  0
05EF2:  CALL   54C0
05EF6:  MOVLW  17
05EF8:  MOVWF  FF6
05EFA:  MOVLW  04
05EFC:  MOVWF  FF7
05EFE:  MOVLW  00
05F00:  MOVWF  FF8
05F02:  MOVLW  0D
05F04:  MOVLB  6
05F06:  MOVWF  x27
05F08:  MOVLB  0
05F0A:  CALL   543C
....................       SendDataDisplay(); 
05F0E:  CALL   3EE4
....................    }else if(ACiclos[i]==2){ 
05F12:  BRA    638E
05F14:  MOVLB  1
05F16:  CLRF   03
05F18:  MOVF   xD2,W
05F1A:  ADDLW  82
05F1C:  MOVWF  FE9
05F1E:  MOVLW  02
05F20:  ADDWFC 03,W
05F22:  MOVWF  FEA
05F24:  MOVF   FEF,W
05F26:  SUBLW  02
05F28:  BNZ   5F68
....................       printf("A%u.txt=\"Puerta\"",i+1); 
05F2A:  MOVLW  01
05F2C:  ADDWF  xD2,W
05F2E:  MOVLB  6
05F30:  MOVWF  x22
05F32:  MOVLW  41
05F34:  BTFSS  F9E.4
05F36:  BRA    5F34
05F38:  MOVWF  FAD
05F3A:  MOVFF  622,627
05F3E:  MOVLW  1B
05F40:  MOVWF  x28
05F42:  MOVLB  0
05F44:  CALL   54C0
05F48:  MOVLW  29
05F4A:  MOVWF  FF6
05F4C:  MOVLW  04
05F4E:  MOVWF  FF7
05F50:  MOVLW  00
05F52:  MOVWF  FF8
05F54:  MOVLW  0D
05F56:  MOVLB  6
05F58:  MOVWF  x27
05F5A:  MOVLB  0
05F5C:  CALL   543C
....................       SendDataDisplay(); 
05F60:  CALL   3EE4
....................    }else if(ACiclos[i]==3){ 
05F64:  BRA    638E
05F66:  MOVLB  1
05F68:  CLRF   03
05F6A:  MOVF   xD2,W
05F6C:  ADDLW  82
05F6E:  MOVWF  FE9
05F70:  MOVLW  02
05F72:  ADDWFC 03,W
05F74:  MOVWF  FEA
05F76:  MOVF   FEF,W
05F78:  SUBLW  03
05F7A:  BNZ   5FBA
....................       printf("A%u.txt=\"Termostato\"",i+1); 
05F7C:  MOVLW  01
05F7E:  ADDWF  xD2,W
05F80:  MOVLB  6
05F82:  MOVWF  x22
05F84:  MOVLW  41
05F86:  BTFSS  F9E.4
05F88:  BRA    5F86
05F8A:  MOVWF  FAD
05F8C:  MOVFF  622,627
05F90:  MOVLW  1B
05F92:  MOVWF  x28
05F94:  MOVLB  0
05F96:  CALL   54C0
05F9A:  MOVLW  3B
05F9C:  MOVWF  FF6
05F9E:  MOVLW  04
05FA0:  MOVWF  FF7
05FA2:  MOVLW  00
05FA4:  MOVWF  FF8
05FA6:  MOVLW  11
05FA8:  MOVLB  6
05FAA:  MOVWF  x27
05FAC:  MOVLB  0
05FAE:  CALL   543C
....................       SendDataDisplay(); 
05FB2:  CALL   3EE4
....................    }else if(ACiclos[i]==4){ 
05FB6:  BRA    638E
05FB8:  MOVLB  1
05FBA:  CLRF   03
05FBC:  MOVF   xD2,W
05FBE:  ADDLW  82
05FC0:  MOVWF  FE9
05FC2:  MOVLW  02
05FC4:  ADDWFC 03,W
05FC6:  MOVWF  FEA
05FC8:  MOVF   FEF,W
05FCA:  SUBLW  04
05FCC:  BNZ   600C
....................       printf("A%u.txt=\"SobreT\"",i+1); 
05FCE:  MOVLW  01
05FD0:  ADDWF  xD2,W
05FD2:  MOVLB  6
05FD4:  MOVWF  x22
05FD6:  MOVLW  41
05FD8:  BTFSS  F9E.4
05FDA:  BRA    5FD8
05FDC:  MOVWF  FAD
05FDE:  MOVFF  622,627
05FE2:  MOVLW  1B
05FE4:  MOVWF  x28
05FE6:  MOVLB  0
05FE8:  CALL   54C0
05FEC:  MOVLW  51
05FEE:  MOVWF  FF6
05FF0:  MOVLW  04
05FF2:  MOVWF  FF7
05FF4:  MOVLW  00
05FF6:  MOVWF  FF8
05FF8:  MOVLW  0D
05FFA:  MOVLB  6
05FFC:  MOVWF  x27
05FFE:  MOVLB  0
06000:  CALL   543C
....................       SendDataDisplay(); 
06004:  CALL   3EE4
....................    }else if(ACiclos[i]==5){ 
06008:  BRA    638E
0600A:  MOVLB  1
0600C:  CLRF   03
0600E:  MOVF   xD2,W
06010:  ADDLW  82
06012:  MOVWF  FE9
06014:  MOVLW  02
06016:  ADDWFC 03,W
06018:  MOVWF  FEA
0601A:  MOVF   FEF,W
0601C:  SUBLW  05
0601E:  BNZ   605E
....................       printf("A%u.txt=\"Tiempo\"",i+1); 
06020:  MOVLW  01
06022:  ADDWF  xD2,W
06024:  MOVLB  6
06026:  MOVWF  x22
06028:  MOVLW  41
0602A:  BTFSS  F9E.4
0602C:  BRA    602A
0602E:  MOVWF  FAD
06030:  MOVFF  622,627
06034:  MOVLW  1B
06036:  MOVWF  x28
06038:  MOVLB  0
0603A:  CALL   54C0
0603E:  MOVLW  63
06040:  MOVWF  FF6
06042:  MOVLW  04
06044:  MOVWF  FF7
06046:  MOVLW  00
06048:  MOVWF  FF8
0604A:  MOVLW  0D
0604C:  MOVLB  6
0604E:  MOVWF  x27
06050:  MOVLB  0
06052:  CALL   543C
....................       SendDataDisplay(); 
06056:  CALL   3EE4
....................    }else if(ACiclos[i]==6){ 
0605A:  BRA    638E
0605C:  MOVLB  1
0605E:  CLRF   03
06060:  MOVF   xD2,W
06062:  ADDLW  82
06064:  MOVWF  FE9
06066:  MOVLW  02
06068:  ADDWFC 03,W
0606A:  MOVWF  FEA
0606C:  MOVF   FEF,W
0606E:  SUBLW  06
06070:  BNZ   60B0
....................       printf("A%u.txt=\"Presion\"",i+1); 
06072:  MOVLW  01
06074:  ADDWF  xD2,W
06076:  MOVLB  6
06078:  MOVWF  x22
0607A:  MOVLW  41
0607C:  BTFSS  F9E.4
0607E:  BRA    607C
06080:  MOVWF  FAD
06082:  MOVFF  622,627
06086:  MOVLW  1B
06088:  MOVWF  x28
0608A:  MOVLB  0
0608C:  CALL   54C0
06090:  MOVLW  75
06092:  MOVWF  FF6
06094:  MOVLW  04
06096:  MOVWF  FF7
06098:  MOVLW  00
0609A:  MOVWF  FF8
0609C:  MOVLW  0E
0609E:  MOVLB  6
060A0:  MOVWF  x27
060A2:  MOVLB  0
060A4:  CALL   543C
....................       SendDataDisplay(); 
060A8:  CALL   3EE4
....................    }else if(ACiclos[i]==7){ 
060AC:  BRA    638E
060AE:  MOVLB  1
060B0:  CLRF   03
060B2:  MOVF   xD2,W
060B4:  ADDLW  82
060B6:  MOVWF  FE9
060B8:  MOVLW  02
060BA:  ADDWFC 03,W
060BC:  MOVWF  FEA
060BE:  MOVF   FEF,W
060C0:  SUBLW  07
060C2:  BNZ   6102
....................       printf("A%u.txt=\"Bomba\"",i+1); 
060C4:  MOVLW  01
060C6:  ADDWF  xD2,W
060C8:  MOVLB  6
060CA:  MOVWF  x22
060CC:  MOVLW  41
060CE:  BTFSS  F9E.4
060D0:  BRA    60CE
060D2:  MOVWF  FAD
060D4:  MOVFF  622,627
060D8:  MOVLW  1B
060DA:  MOVWF  x28
060DC:  MOVLB  0
060DE:  CALL   54C0
060E2:  MOVLW  87
060E4:  MOVWF  FF6
060E6:  MOVLW  04
060E8:  MOVWF  FF7
060EA:  MOVLW  00
060EC:  MOVWF  FF8
060EE:  MOVLW  0C
060F0:  MOVLB  6
060F2:  MOVWF  x27
060F4:  MOVLB  0
060F6:  CALL   543C
....................       SendDataDisplay(); 
060FA:  CALL   3EE4
....................    }else if(ACiclos[i]==8){ 
060FE:  BRA    638E
06100:  MOVLB  1
06102:  CLRF   03
06104:  MOVF   xD2,W
06106:  ADDLW  82
06108:  MOVWF  FE9
0610A:  MOVLW  02
0610C:  ADDWFC 03,W
0610E:  MOVWF  FEA
06110:  MOVF   FEF,W
06112:  SUBLW  08
06114:  BNZ   6154
....................       printf("A%u.txt=\"ErrorVacio\"",i+1); 
06116:  MOVLW  01
06118:  ADDWF  xD2,W
0611A:  MOVLB  6
0611C:  MOVWF  x22
0611E:  MOVLW  41
06120:  BTFSS  F9E.4
06122:  BRA    6120
06124:  MOVWF  FAD
06126:  MOVFF  622,627
0612A:  MOVLW  1B
0612C:  MOVWF  x28
0612E:  MOVLB  0
06130:  CALL   54C0
06134:  MOVLW  97
06136:  MOVWF  FF6
06138:  MOVLW  04
0613A:  MOVWF  FF7
0613C:  MOVLW  00
0613E:  MOVWF  FF8
06140:  MOVLW  11
06142:  MOVLB  6
06144:  MOVWF  x27
06146:  MOVLB  0
06148:  CALL   543C
....................       SendDataDisplay(); 
0614C:  CALL   3EE4
....................    }else if(ACiclos[i]==10){ 
06150:  BRA    638E
06152:  MOVLB  1
06154:  CLRF   03
06156:  MOVF   xD2,W
06158:  ADDLW  82
0615A:  MOVWF  FE9
0615C:  MOVLW  02
0615E:  ADDWFC 03,W
06160:  MOVWF  FEA
06162:  MOVF   FEF,W
06164:  SUBLW  0A
06166:  BNZ   61A6
....................       printf("A%u.txt=\"PreCale\"",i+1); 
06168:  MOVLW  01
0616A:  ADDWF  xD2,W
0616C:  MOVLB  6
0616E:  MOVWF  x22
06170:  MOVLW  41
06172:  BTFSS  F9E.4
06174:  BRA    6172
06176:  MOVWF  FAD
06178:  MOVFF  622,627
0617C:  MOVLW  1B
0617E:  MOVWF  x28
06180:  MOVLB  0
06182:  CALL   54C0
06186:  MOVLW  AD
06188:  MOVWF  FF6
0618A:  MOVLW  04
0618C:  MOVWF  FF7
0618E:  MOVLW  00
06190:  MOVWF  FF8
06192:  MOVLW  0E
06194:  MOVLB  6
06196:  MOVWF  x27
06198:  MOVLB  0
0619A:  CALL   543C
....................       SendDataDisplay(); 
0619E:  CALL   3EE4
....................    }else if(ACiclos[i]==11){ 
061A2:  BRA    638E
061A4:  MOVLB  1
061A6:  CLRF   03
061A8:  MOVF   xD2,W
061AA:  ADDLW  82
061AC:  MOVWF  FE9
061AE:  MOVLW  02
061B0:  ADDWFC 03,W
061B2:  MOVWF  FEA
061B4:  MOVF   FEF,W
061B6:  SUBLW  0B
061B8:  BNZ   61F8
....................       printf("A%u.txt=\"Vacio\"",i+1); 
061BA:  MOVLW  01
061BC:  ADDWF  xD2,W
061BE:  MOVLB  6
061C0:  MOVWF  x22
061C2:  MOVLW  41
061C4:  BTFSS  F9E.4
061C6:  BRA    61C4
061C8:  MOVWF  FAD
061CA:  MOVFF  622,627
061CE:  MOVLW  1B
061D0:  MOVWF  x28
061D2:  MOVLB  0
061D4:  CALL   54C0
061D8:  MOVLW  BF
061DA:  MOVWF  FF6
061DC:  MOVLW  04
061DE:  MOVWF  FF7
061E0:  MOVLW  00
061E2:  MOVWF  FF8
061E4:  MOVLW  0C
061E6:  MOVLB  6
061E8:  MOVWF  x27
061EA:  MOVLB  0
061EC:  CALL   543C
....................       SendDataDisplay(); 
061F0:  CALL   3EE4
....................    }else if(ACiclos[i]==12){ 
061F4:  BRA    638E
061F6:  MOVLB  1
061F8:  CLRF   03
061FA:  MOVF   xD2,W
061FC:  ADDLW  82
061FE:  MOVWF  FE9
06200:  MOVLW  02
06202:  ADDWFC 03,W
06204:  MOVWF  FEA
06206:  MOVF   FEF,W
06208:  SUBLW  0C
0620A:  BNZ   624A
....................       printf("A%u.txt=\"Calen\"",i+1); 
0620C:  MOVLW  01
0620E:  ADDWF  xD2,W
06210:  MOVLB  6
06212:  MOVWF  x22
06214:  MOVLW  41
06216:  BTFSS  F9E.4
06218:  BRA    6216
0621A:  MOVWF  FAD
0621C:  MOVFF  622,627
06220:  MOVLW  1B
06222:  MOVWF  x28
06224:  MOVLB  0
06226:  CALL   54C0
0622A:  MOVLW  CF
0622C:  MOVWF  FF6
0622E:  MOVLW  04
06230:  MOVWF  FF7
06232:  MOVLW  00
06234:  MOVWF  FF8
06236:  MOVLW  0C
06238:  MOVLB  6
0623A:  MOVWF  x27
0623C:  MOVLB  0
0623E:  CALL   543C
....................       SendDataDisplay(); 
06242:  CALL   3EE4
....................    }else if(ACiclos[i]==13){ 
06246:  BRA    638E
06248:  MOVLB  1
0624A:  CLRF   03
0624C:  MOVF   xD2,W
0624E:  ADDLW  82
06250:  MOVWF  FE9
06252:  MOVLW  02
06254:  ADDWFC 03,W
06256:  MOVWF  FEA
06258:  MOVF   FEF,W
0625A:  SUBLW  0D
0625C:  BNZ   629C
....................       printf("A%u.txt=\"Desfoga\"",i+1); 
0625E:  MOVLW  01
06260:  ADDWF  xD2,W
06262:  MOVLB  6
06264:  MOVWF  x22
06266:  MOVLW  41
06268:  BTFSS  F9E.4
0626A:  BRA    6268
0626C:  MOVWF  FAD
0626E:  MOVFF  622,627
06272:  MOVLW  1B
06274:  MOVWF  x28
06276:  MOVLB  0
06278:  CALL   54C0
0627C:  MOVLW  DF
0627E:  MOVWF  FF6
06280:  MOVLW  04
06282:  MOVWF  FF7
06284:  MOVLW  00
06286:  MOVWF  FF8
06288:  MOVLW  0E
0628A:  MOVLB  6
0628C:  MOVWF  x27
0628E:  MOVLB  0
06290:  CALL   543C
....................       SendDataDisplay(); 
06294:  CALL   3EE4
....................    }else if(ACiclos[i]==14){ 
06298:  BRA    638E
0629A:  MOVLB  1
0629C:  CLRF   03
0629E:  MOVF   xD2,W
062A0:  ADDLW  82
062A2:  MOVWF  FE9
062A4:  MOVLW  02
062A6:  ADDWFC 03,W
062A8:  MOVWF  FEA
062AA:  MOVF   FEF,W
062AC:  SUBLW  0E
062AE:  BNZ   62EE
....................       printf("A%u.txt=\"Finalizado\"",i+1); 
062B0:  MOVLW  01
062B2:  ADDWF  xD2,W
062B4:  MOVLB  6
062B6:  MOVWF  x22
062B8:  MOVLW  41
062BA:  BTFSS  F9E.4
062BC:  BRA    62BA
062BE:  MOVWF  FAD
062C0:  MOVFF  622,627
062C4:  MOVLW  1B
062C6:  MOVWF  x28
062C8:  MOVLB  0
062CA:  CALL   54C0
062CE:  MOVLW  F1
062D0:  MOVWF  FF6
062D2:  MOVLW  04
062D4:  MOVWF  FF7
062D6:  MOVLW  00
062D8:  MOVWF  FF8
062DA:  MOVLW  11
062DC:  MOVLB  6
062DE:  MOVWF  x27
062E0:  MOVLB  0
062E2:  CALL   543C
....................       SendDataDisplay(); 
062E6:  CALL   3EE4
....................    }else if(ACiclos[i]==15){ 
062EA:  BRA    638E
062EC:  MOVLB  1
062EE:  CLRF   03
062F0:  MOVF   xD2,W
062F2:  ADDLW  82
062F4:  MOVWF  FE9
062F6:  MOVLW  02
062F8:  ADDWFC 03,W
062FA:  MOVWF  FEA
062FC:  MOVF   FEF,W
062FE:  SUBLW  0F
06300:  BNZ   6340
....................       printf("A%u.txt=\"Secando\"",i+1); 
06302:  MOVLW  01
06304:  ADDWF  xD2,W
06306:  MOVLB  6
06308:  MOVWF  x22
0630A:  MOVLW  41
0630C:  BTFSS  F9E.4
0630E:  BRA    630C
06310:  MOVWF  FAD
06312:  MOVFF  622,627
06316:  MOVLW  1B
06318:  MOVWF  x28
0631A:  MOVLB  0
0631C:  CALL   54C0
06320:  MOVLW  07
06322:  MOVWF  FF6
06324:  MOVLW  05
06326:  MOVWF  FF7
06328:  MOVLW  00
0632A:  MOVWF  FF8
0632C:  MOVLW  0E
0632E:  MOVLB  6
06330:  MOVWF  x27
06332:  MOVLB  0
06334:  CALL   543C
....................       SendDataDisplay(); 
06338:  CALL   3EE4
....................    }else if(ACiclos[i]==16){ 
0633C:  BRA    638E
0633E:  MOVLB  1
06340:  CLRF   03
06342:  MOVF   xD2,W
06344:  ADDLW  82
06346:  MOVWF  FE9
06348:  MOVLW  02
0634A:  ADDWFC 03,W
0634C:  MOVWF  FEA
0634E:  MOVF   FEF,W
06350:  SUBLW  10
06352:  BNZ   6390
....................       printf("A%u.txt=\"Esterilizando\"",i+1); 
06354:  MOVLW  01
06356:  ADDWF  xD2,W
06358:  MOVLB  6
0635A:  MOVWF  x22
0635C:  MOVLW  41
0635E:  BTFSS  F9E.4
06360:  BRA    635E
06362:  MOVWF  FAD
06364:  MOVFF  622,627
06368:  MOVLW  1B
0636A:  MOVWF  x28
0636C:  MOVLB  0
0636E:  CALL   54C0
06372:  MOVLW  19
06374:  MOVWF  FF6
06376:  MOVLW  05
06378:  MOVWF  FF7
0637A:  MOVLW  00
0637C:  MOVWF  FF8
0637E:  MOVLW  14
06380:  MOVLB  6
06382:  MOVWF  x27
06384:  MOVLB  0
06386:  CALL   543C
....................       SendDataDisplay(); 
0638A:  CALL   3EE4
0638E:  MOVLB  1
....................    } 
.................... } 
06390:  MOVLB  0
06392:  GOTO   C37C (RETURN)
....................  
.................... void sistemaBloqueo(short activa){ 
....................    if(activa && DOOR){ 
*
04EB8:  MOVLB  6
04EBA:  MOVF   x22,F
04EBC:  BZ    4ED4
04EBE:  BSF    F93.1
04EC0:  BTFSC  F81.1
04EC2:  BRA    4ED4
....................       output_bit(PIN_C1,1); 
04EC4:  BSF    F8B.1
04EC6:  BCF    F94.1
....................       output_bit(PIN_C2,0); 
04EC8:  BCF    F8B.2
04ECA:  BCF    F94.2
....................       Cilindro=ON; 
04ECC:  MOVLB  0
04ECE:  BSF    x83.0
....................    }else if(!activa){ 
04ED0:  BRA    4EE0
04ED2:  MOVLB  6
04ED4:  MOVF   x22,F
04ED6:  BNZ   4EE0
....................       output_bit(PIN_C1,0); 
04ED8:  BCF    F8B.1
04EDA:  BCF    F94.1
....................       output_bit(PIN_C2,1); 
04EDC:  BSF    F8B.2
04EDE:  BCF    F94.2
04EE0:  MOVLB  0
....................    } 
.................... } 
04EE2:  RETLW  00
....................  
....................  
.................... #int_rda HIGH 
.................... void serial_rx_isr(){ 
....................    Dato2=fgetc(); 
*
0052E:  BTFSS  F9E.5
00530:  BRA    052E
00532:  MOVFF  FAE,1CE
00536:  MOVLB  1
....................    if(Dato2==0x65){//Inicio Comunicacion 
00538:  MOVF   xCE,W
0053A:  SUBLW  65
0053C:  BNZ   0544
....................       Inicio=1; 
0053E:  MOVLW  01
00540:  MOVWF  xCC
....................       RX_Wr_Index =0; 
00542:  CLRF   46
....................    } 
....................     
....................    if(Inicio==1){ 
00544:  DECFSZ xCC,W
00546:  BRA    055C
....................       Rx_Buffer2[RX_Wr_Index] = Dato2; 
00548:  CLRF   03
0054A:  MOVF   46,W
0054C:  ADDLW  3B
0054E:  MOVWF  FE9
00550:  MOVLW  00
00552:  ADDWFC 03,W
00554:  MOVWF  FEA
00556:  MOVFF  1CE,FEF
....................       RX_Wr_Index++; 
0055A:  INCF   46,F
....................    } 
....................    if(RX_Wr_Index >= RX_BUFFER_SIZE){ 
0055C:  MOVF   46,W
0055E:  SUBLW  09
00560:  BC    0566
....................       RX_Wr_Index =0; 
00562:  CLRF   46
....................       Inicio=0; 
00564:  CLRF   xCC
....................    } 
....................  
....................    if(RX_Wr_Index==0){ 
00566:  MOVF   46,F
00568:  BNZ   058A
....................       if(Rx_Buffer2[0]==0x65 && Rx_Buffer2[1]==0xff && Rx_Buffer2[2]==0xff && Rx_Buffer2[8]==0x00 && Rx_Buffer2[9]==0xff ){ 
0056A:  MOVF   3B,W
0056C:  SUBLW  65
0056E:  BNZ   0586
00570:  INCFSZ 3C,W
00572:  BRA    0586
00574:  INCFSZ 3D,W
00576:  BRA    0586
00578:  MOVF   43,F
0057A:  BNZ   0586
0057C:  INCFSZ 44,W
0057E:  BRA    0586
....................          Dato_Exitoso=5; 
00580:  MOVLW  05
00582:  MOVWF  xCD
....................       }else{ 
00584:  BRA    058A
....................          Dato_Exitoso=10; 
00586:  MOVLW  0A
00588:  MOVWF  xCD
....................       } 
....................    } 
....................     
....................    if(Menu==20) 
0058A:  MOVF   xCF,W
0058C:  SUBLW  14
0058E:  BNZ   0594
....................      Buzzer_on; 
00590:  BSF    F8B.5
00592:  BCF    F94.5
.................... } 
....................  
00594:  BCF    F9E.5
00596:  MOVLB  0
00598:  GOTO   00FE
.................... #int_TIMER1 
.................... void temp1s(void){ 
....................    set_timer1(40536); // Se repite cada 5ms 
0059C:  MOVLW  9E
0059E:  MOVWF  FCF
005A0:  MOVLW  58
005A2:  MOVWF  FCE
....................    tiempos++; 
005A4:  MOVLB  1
005A6:  INCF   xDF,F
005A8:  BTFSC  FD8.2
005AA:  INCF   xE0,F
....................    tiempos2++; 
005AC:  INCF   xE1,F
005AE:  BTFSC  FD8.2
005B0:  INCF   xE2,F
....................    tiempos3++; 
005B2:  INCF   xE3,F
005B4:  BTFSC  FD8.2
005B6:  INCF   xE4,F
....................    tiempoctrl++; 
005B8:  INCF   xE5,F
005BA:  BTFSC  FD8.2
005BC:  INCF   xE6,F
....................     
....................    if(flagAlarma) 
005BE:  MOVLB  0
005C0:  BTFSS  x88.0
005C2:  BRA    05CE
....................       tbuzzer++; 
005C4:  MOVLB  2
005C6:  INCF   x05,F
005C8:  BTFSC  FD8.2
005CA:  INCF   x06,F
005CC:  MOVLB  0
....................        
....................    if(flagSilencio)    
005CE:  BTFSS  x88.2
005D0:  BRA    05DA
....................       tsilencio++; 
005D2:  MOVLB  2
005D4:  INCF   x07,F
005D6:  BTFSC  FD8.2
005D8:  INCF   x08,F
....................  
....................    if(tiempos>=200){  // 12000 para que incremente cada minuto, 200para que incremente cada segundo. 
005DA:  MOVLB  1
005DC:  MOVF   xE0,F
005DE:  BNZ   05E8
005E0:  MOVF   xDF,W
005E2:  SUBLW  C7
005E4:  BTFSC  FD8.0
005E6:  BRA    0720
....................       if(flagTC) 
005E8:  MOVLB  0
005EA:  BTFSS  x8A.6
005EC:  BRA    05F2
....................          TiempoControl++; 
005EE:  MOVLB  1
005F0:  INCF   xFD,F
....................        
....................       tiemporecta++; 
005F2:  MOVLB  1
005F4:  INCF   xC8,F
....................        
....................       if(IniciaCiclo && tiempoImpresion<CalculoImpresion){ 
005F6:  MOVLB  0
005F8:  BTFSS  x83.2
005FA:  BRA    060E
005FC:  MOVLB  1
005FE:  MOVF   xCB,W
00600:  SUBWF  xDE,W
00602:  BTFSS  FD8.0
00604:  BRA    060A
00606:  MOVLB  0
00608:  BRA    060E
....................          tiempoImpresion++; 
0060A:  INCF   xDE,F
....................       }else if(tiempoImpresion>=CalculoImpresion){ 
0060C:  BRA    061E
0060E:  MOVLB  1
00610:  MOVF   xCB,W
00612:  SUBWF  xDE,W
00614:  BNC   061E
....................          flagImprime=1; 
00616:  MOVLB  0
00618:  BSF    x8A.7
....................          tiempoImpresion=0; 
0061A:  MOVLB  1
0061C:  CLRF   xDE
....................       } 
....................        
....................       if(guardaCiclo) 
0061E:  MOVLB  0
00620:  BTFSS  x82.7
00622:  BRA    062A
....................          tguarda++; 
00624:  INCF   x93,F
00626:  BTFSC  FD8.2
00628:  INCF   x94,F
....................        
....................       if(IniciaCiclo && !Esterilizando && DOOR) 
0062A:  BTFSS  x83.2
0062C:  BRA    063E
0062E:  BTFSC  x83.3
00630:  BRA    063E
00632:  BSF    F93.1
00634:  BTFSC  F81.1
00636:  BRA    063E
....................          TiempoCiclo++; 
00638:  INCF   x8B,F
0063A:  BTFSC  FD8.2
0063C:  INCF   x8C,F
....................        
....................       if(SensadoNivel) 
0063E:  BTFSS  x83.5
00640:  BRA    0648
....................          TiempoSensadoNivel++; 
00642:  INCF   x8D,F
00644:  BTFSC  FD8.2
00646:  INCF   x8E,F
....................        
....................       if(IniciaVacio) 
00648:  BTFSS  x89.3
0064A:  BRA    0656
....................          tvacio++;          
0064C:  MOVLB  1
0064E:  INCF   xF3,F
00650:  BTFSC  FD8.2
00652:  INCF   xF4,F
00654:  MOVLB  0
....................        
....................       if(IniciaVacio2) 
00656:  BTFSS  x89.4
00658:  BRA    0662
....................          tbomba++; 
0065A:  MOVLB  1
0065C:  INCF   xF1,F
0065E:  BTFSC  FD8.2
00660:  INCF   xF2,F
....................       
....................       tiempos=0;Lectura=1;tinicio++; 
00662:  MOVLB  1
00664:  CLRF   xE0
00666:  CLRF   xDF
00668:  MOVLB  0
0066A:  BSF    x8A.3
0066C:  MOVLB  1
0066E:  INCF   xE9,F
00670:  BTFSC  FD8.2
00672:  INCF   xEA,F
....................     
....................       if(Esterilizando && !Desfogando){                
00674:  MOVLB  0
00676:  BTFSS  x83.3
00678:  BRA    06CC
0067A:  BTFSC  x83.6
0067C:  BRA    06CC
....................          if(Testerilizacion[0]>0){ 
0067E:  BTFSC  x95.7
00680:  BRA    068C
00682:  MOVF   x95,W
00684:  SUBLW  00
00686:  BC    068C
....................             Testerilizacion[0]--; 
00688:  DECF   x95,F
....................          }else if(Testerilizacion[1]>0){ 
0068A:  BRA    06CC
0068C:  BTFSC  x96.7
0068E:  BRA    069E
00690:  MOVF   x96,W
00692:  SUBLW  00
00694:  BC    069E
....................             Testerilizacion[1]--; 
00696:  DECF   x96,F
....................             Testerilizacion[0]=9; 
00698:  MOVLW  09
0069A:  MOVWF  x95
....................          }else if(Testerilizacion[2]>0){ 
0069C:  BRA    06CC
0069E:  BTFSC  x97.7
006A0:  BRA    06B4
006A2:  MOVF   x97,W
006A4:  SUBLW  00
006A6:  BC    06B4
....................             Testerilizacion[2]--; 
006A8:  DECF   x97,F
....................             Testerilizacion[1]=5; 
006AA:  MOVLW  05
006AC:  MOVWF  x96
....................             Testerilizacion[0]=9; 
006AE:  MOVLW  09
006B0:  MOVWF  x95
....................          }else if(Testerilizacion[3]>0){ 
006B2:  BRA    06CC
006B4:  BTFSC  x98.7
006B6:  BRA    06CC
006B8:  MOVF   x98,W
006BA:  SUBLW  00
006BC:  BC    06CC
....................             Testerilizacion[3]--; 
006BE:  DECF   x98,F
....................             Testerilizacion[2]=9; 
006C0:  MOVLW  09
006C2:  MOVWF  x97
....................             Testerilizacion[1]=5; 
006C4:  MOVLW  05
006C6:  MOVWF  x96
....................             Testerilizacion[0]=9; 
006C8:  MOVLW  09
006CA:  MOVWF  x95
....................          } 
....................       } 
....................        
....................       if(Secando){ 
006CC:  BTFSS  x83.4
006CE:  BRA    071E
....................          if(Tsecado[0]>0){ 
006D0:  BTFSC  x9D.7
006D2:  BRA    06DE
006D4:  MOVF   x9D,W
006D6:  SUBLW  00
006D8:  BC    06DE
....................             Tsecado[0]--; 
006DA:  DECF   x9D,F
....................          }else if(Tsecado[1]>0){ 
006DC:  BRA    071E
006DE:  BTFSC  x9E.7
006E0:  BRA    06F0
006E2:  MOVF   x9E,W
006E4:  SUBLW  00
006E6:  BC    06F0
....................             Tsecado[1]--; 
006E8:  DECF   x9E,F
....................             Tsecado[0]=9; 
006EA:  MOVLW  09
006EC:  MOVWF  x9D
....................          }else if(Tsecado[2]>0){ 
006EE:  BRA    071E
006F0:  BTFSC  x9F.7
006F2:  BRA    0706
006F4:  MOVF   x9F,W
006F6:  SUBLW  00
006F8:  BC    0706
....................             Tsecado[2]--; 
006FA:  DECF   x9F,F
....................             Tsecado[1]=5; 
006FC:  MOVLW  05
006FE:  MOVWF  x9E
....................             Tsecado[0]=9; 
00700:  MOVLW  09
00702:  MOVWF  x9D
....................          }else if(Tsecado[3]>0){ 
00704:  BRA    071E
00706:  BTFSC  xA0.7
00708:  BRA    071E
0070A:  MOVF   xA0,W
0070C:  SUBLW  00
0070E:  BC    071E
....................             Tsecado[3]--; 
00710:  DECF   xA0,F
....................             Tsecado[2]=9; 
00712:  MOVLW  09
00714:  MOVWF  x9F
....................             Tsecado[1]=5; 
00716:  MOVLW  05
00718:  MOVWF  x9E
....................             Tsecado[0]=9; 
0071A:  MOVLW  09
0071C:  MOVWF  x9D
0071E:  MOVLB  1
....................          } 
....................       } 
....................    } 
.................... } 
....................  
00720:  BCF    F9E.0
00722:  MOVLB  0
00724:  GOTO   0068
.................... void main() 
.................... { 
*
06F5C:  CLRF   FF8
06F5E:  BCF    F9F.0
06F60:  BSF    F9F.5
06F62:  BSF    FD0.7
06F64:  BSF    07.7
06F66:  CLRF   FEA
06F68:  CLRF   FE9
06F6A:  BSF    FB8.3
06F6C:  MOVLW  08
06F6E:  MOVWF  FAF
06F70:  MOVLW  02
06F72:  MOVWF  FB0
06F74:  MOVLW  A6
06F76:  MOVWF  FAC
06F78:  MOVLW  90
06F7A:  MOVWF  FAB
06F7C:  CLRF   46
06F7E:  CLRF   x67
06F80:  CLRF   x68
06F82:  CLRF   x69
06F84:  BCF    x82.0
06F86:  BCF    x82.1
06F88:  BCF    x82.2
06F8A:  BCF    x82.3
06F8C:  BCF    x82.4
06F8E:  BCF    x82.5
06F90:  BCF    x82.6
06F92:  BCF    x82.7
06F94:  BCF    x83.0
06F96:  MOVLW  02
06F98:  MOVWF  x85
06F9A:  MOVLW  58
06F9C:  MOVWF  x84
06F9E:  BCF    x83.1
06FA0:  BCF    x83.2
06FA2:  BCF    x83.3
06FA4:  BCF    x83.4
06FA6:  BCF    x83.5
06FA8:  BCF    x83.6
06FAA:  BCF    x83.7
06FAC:  BCF    x86.0
06FAE:  BCF    x86.1
06FB0:  BCF    x86.2
06FB2:  BCF    x86.3
06FB4:  BCF    x86.4
06FB6:  BCF    x86.5
06FB8:  BCF    x86.6
06FBA:  BCF    x86.7
06FBC:  BCF    x87.0
06FBE:  BCF    x87.1
06FC0:  BCF    x87.2
06FC2:  BCF    x87.3
06FC4:  BCF    x87.4
06FC6:  BCF    x87.5
06FC8:  BCF    x87.6
06FCA:  BCF    x87.7
06FCC:  BCF    x88.0
06FCE:  BCF    x88.1
06FD0:  BCF    x88.2
06FD2:  BCF    x88.3
06FD4:  BCF    x88.4
06FD6:  BCF    x88.5
06FD8:  BCF    x88.6
06FDA:  BCF    x88.7
06FDC:  BCF    x89.0
06FDE:  BCF    x89.1
06FE0:  BCF    x89.2
06FE2:  BCF    x89.3
06FE4:  BCF    x89.4
06FE6:  BCF    x89.5
06FE8:  BCF    x89.6
06FEA:  BCF    x89.7
06FEC:  BCF    x8A.0
06FEE:  BCF    x8A.1
06FF0:  CLRF   x8C
06FF2:  CLRF   x8B
06FF4:  CLRF   x8E
06FF6:  CLRF   x8D
06FF8:  CLRF   x90
06FFA:  CLRF   x8F
06FFC:  CLRF   x92
06FFE:  CLRF   x91
07000:  CLRF   x94
07002:  CLRF   x93
07004:  MOVLB  1
07006:  CLRF   x48
07008:  CLRF   x47
0700A:  CLRF   x46
0700C:  CLRF   x45
0700E:  CLRF   x4C
07010:  MOVLW  80
07012:  MOVWF  x4B
07014:  MOVLW  3B
07016:  MOVWF  x4A
07018:  MOVLW  8A
0701A:  MOVWF  x49
0701C:  CLRF   x50
0701E:  MOVLW  C0
07020:  MOVWF  x4F
07022:  MOVLW  41
07024:  MOVWF  x4E
07026:  MOVLW  8A
07028:  MOVWF  x4D
0702A:  CLRF   x54
0702C:  MOVLW  C0
0702E:  MOVWF  x53
07030:  MOVLW  41
07032:  MOVWF  x52
07034:  MOVLW  8A
07036:  MOVWF  x51
07038:  CLRF   x58
0703A:  MOVLW  C0
0703C:  MOVWF  x57
0703E:  MOVLW  41
07040:  MOVWF  x56
07042:  MOVLW  8A
07044:  MOVWF  x55
07046:  CLRF   x5C
07048:  CLRF   x5B
0704A:  CLRF   x5A
0704C:  CLRF   x59
0704E:  CLRF   x60
07050:  CLRF   x5F
07052:  CLRF   x5E
07054:  CLRF   x5D
07056:  CLRF   x6C
07058:  CLRF   x6B
0705A:  CLRF   x6A
0705C:  CLRF   x69
0705E:  CLRF   x70
07060:  CLRF   x6F
07062:  CLRF   x6E
07064:  CLRF   x6D
07066:  CLRF   x71
07068:  CLRF   x72
0706A:  MOVLW  14
0706C:  MOVWF  x73
0706E:  CLRF   x74
07070:  CLRF   x75
07072:  CLRF   x76
07074:  CLRF   x7A
07076:  CLRF   x79
07078:  CLRF   x78
0707A:  CLRF   x77
0707C:  CLRF   x82
0707E:  CLRF   x81
07080:  MOVLW  20
07082:  MOVWF  x80
07084:  MOVLW  82
07086:  MOVWF  x7F
07088:  CLRF   x86
0708A:  CLRF   x85
0708C:  CLRF   x84
0708E:  CLRF   x83
07090:  CLRF   x8A
07092:  CLRF   x89
07094:  CLRF   x88
07096:  CLRF   x87
07098:  CLRF   x8E
0709A:  CLRF   x8D
0709C:  CLRF   x8C
0709E:  CLRF   x8B
070A0:  CLRF   x92
070A2:  CLRF   x91
070A4:  CLRF   x90
070A6:  CLRF   x8F
070A8:  CLRF   x96
070AA:  CLRF   x95
070AC:  CLRF   x94
070AE:  CLRF   x93
070B0:  CLRF   x9A
070B2:  CLRF   x99
070B4:  MOVLW  48
070B6:  MOVWF  x98
070B8:  MOVLW  83
070BA:  MOVWF  x97
070BC:  CLRF   x9E
070BE:  CLRF   x9D
070C0:  MOVLW  20
070C2:  MOVWF  x9C
070C4:  MOVLW  83
070C6:  MOVWF  x9B
070C8:  CLRF   xA2
070CA:  CLRF   xA1
070CC:  CLRF   xA0
070CE:  MOVLW  7F
070D0:  MOVWF  x9F
070D2:  CLRF   xA6
070D4:  CLRF   xA5
070D6:  CLRF   xA4
070D8:  CLRF   xA3
070DA:  CLRF   xAA
070DC:  CLRF   xA9
070DE:  CLRF   xA8
070E0:  CLRF   xA7
070E2:  CLRF   xAE
070E4:  CLRF   xAD
070E6:  CLRF   xAC
070E8:  CLRF   xAB
070EA:  CLRF   xB2
070EC:  CLRF   xB1
070EE:  CLRF   xB0
070F0:  CLRF   xAF
070F2:  CLRF   xB6
070F4:  CLRF   xB5
070F6:  CLRF   xB4
070F8:  CLRF   xB3
070FA:  CLRF   xBA
070FC:  CLRF   xB9
070FE:  CLRF   xB8
07100:  CLRF   xB7
07102:  MOVLW  E0
07104:  MOVWF  xBE
07106:  MOVLW  2D
07108:  MOVWF  xBD
0710A:  MOVLW  10
0710C:  MOVWF  xBC
0710E:  MOVLW  75
07110:  MOVWF  xBB
07112:  MOVLW  FF
07114:  MOVWF  xC2
07116:  MOVLW  21
07118:  MOVWF  xC1
0711A:  MOVLW  15
0711C:  MOVWF  xC0
0711E:  MOVLW  80
07120:  MOVWF  xBF
07122:  MOVLW  82
07124:  MOVWF  xC6
07126:  MOVLW  12
07128:  MOVWF  xC5
0712A:  MOVLW  F4
0712C:  MOVWF  xC4
0712E:  MOVLW  86
07130:  MOVWF  xC3
07132:  MOVLB  0
07134:  BCF    x8A.2
07136:  BCF    x8A.3
07138:  BCF    x8A.4
0713A:  BCF    x8A.5
0713C:  BCF    x8A.6
0713E:  BCF    x8A.7
07140:  MOVLB  1
07142:  CLRF   xC7
07144:  CLRF   xC8
07146:  CLRF   xC9
07148:  MOVLW  02
0714A:  MOVWF  xCA
0714C:  CLRF   xCB
0714E:  MOVLW  01
07150:  MOVWF  xCC
07152:  CLRF   xCD
07154:  CLRF   xCE
07156:  CLRF   xCF
07158:  CLRF   xD0
0715A:  MOVLW  F0
0715C:  MOVWF  xD1
0715E:  CLRF   xD2
07160:  CLRF   xD3
07162:  CLRF   xD4
07164:  CLRF   xD5
07166:  CLRF   xD6
07168:  CLRF   xD8
0716A:  MOVLW  04
0716C:  MOVWF  xD7
0716E:  CLRF   xD9
07170:  MOVLW  01
07172:  MOVWF  xDA
07174:  MOVWF  xDB
07176:  CLRF   xDC
07178:  CLRF   xDD
0717A:  CLRF   xDE
0717C:  CLRF   xE0
0717E:  CLRF   xDF
07180:  CLRF   xE2
07182:  CLRF   xE1
07184:  CLRF   xE4
07186:  CLRF   xE3
07188:  CLRF   xE6
0718A:  CLRF   xE5
0718C:  CLRF   xE8
0718E:  CLRF   xE7
07190:  CLRF   xEA
07192:  CLRF   xE9
07194:  CLRF   xEC
07196:  CLRF   xEB
07198:  CLRF   xEE
0719A:  CLRF   xED
0719C:  CLRF   xF0
0719E:  CLRF   xEF
071A0:  CLRF   xF2
071A2:  CLRF   xF1
071A4:  CLRF   xF4
071A6:  CLRF   xF3
071A8:  CLRF   xF9
071AA:  CLRF   xFA
071AC:  CLRF   xFB
071AE:  CLRF   xFC
071B0:  CLRF   xFD
071B2:  CLRF   xFE
071B4:  CLRF   xFF
071B6:  MOVLB  2
071B8:  CLRF   x00
071BA:  CLRF   x01
071BC:  CLRF   x02
071BE:  CLRF   x03
071C0:  CLRF   x04
071C2:  CLRF   x06
071C4:  CLRF   x05
071C6:  CLRF   x08
071C8:  CLRF   x07
071CA:  MOVLW  12
071CC:  MOVWF  x09
071CE:  MOVLW  09
071D0:  MOVWF  x0A
071D2:  MOVLW  0D
071D4:  MOVWF  x0B
071D6:  CLRF   x0C
071D8:  CLRF   x0D
071DA:  CLRF   x0E
071DC:  CLRF   x0F
071DE:  CLRF   x10
071E0:  CLRF   x11
071E2:  MOVLW  19
071E4:  MOVWF  x12
071E6:  MOVLW  4B
071E8:  MOVWF  x13
071EA:  MOVLW  0A
071EC:  MOVWF  x14
071EE:  CLRF   x15
071F0:  CLRF   x16
071F2:  CLRF   x17
071F4:  CLRF   x18
071F6:  CLRF   x19
071F8:  CLRF   x1A
071FA:  CLRF   x1B
071FC:  CLRF   x1C
071FE:  CLRF   x1D
07200:  CLRF   x1E
07202:  CLRF   x1F
07204:  CLRF   x20
07206:  CLRF   x21
07208:  CLRF   x22
0720A:  CLRF   x23
0720C:  CLRF   x24
0720E:  CLRF   x25
07210:  CLRF   x26
07212:  CLRF   x27
07214:  CLRF   x89
07216:  CLRF   x8A
07218:  CLRF   x8B
0721A:  CLRF   x8C
0721C:  CLRF   x8D
0721E:  MOVF   FC1,W
07220:  ANDLW  C0
07222:  IORLW  0F
07224:  MOVWF  FC1
07226:  MOVLW  07
07228:  MOVWF  FB4
0722A:  CLRF   2A
0722C:  CLRF   2B
0722E:  MOVLB  0
07230:  CLRF   x6A
07232:  MOVLW  03
07234:  MOVWF  x6B
07236:  MOVWF  x6C
07238:  MOVLW  06
0723A:  MOVWF  x6D
0723C:  MOVLW  01
0723E:  MOVWF  x6E
07240:  MOVLW  04
07242:  MOVWF  x6F
07244:  MOVLW  06
07246:  MOVWF  x70
07248:  MOVLW  02
0724A:  MOVWF  x71
0724C:  MOVLW  05
0724E:  MOVWF  x72
07250:  CLRF   x73
07252:  MOVLW  03
07254:  MOVWF  x74
07256:  MOVLW  05
07258:  MOVWF  x75
0725A:  CLRF   x76
0725C:  MOVLW  03
0725E:  MOVWF  x77
07260:  MOVLW  04
07262:  MOVWF  x78
07264:  CLRF   x79
07266:  MOVLW  02
07268:  MOVWF  x7A
0726A:  MOVLW  05
0726C:  MOVWF  x7B
0726E:  CLRF   x7C
07270:  MOVLW  03
07272:  MOVWF  x7D
07274:  MOVLW  06
07276:  MOVWF  x7E
07278:  MOVLW  01
0727A:  MOVWF  x7F
0727C:  MOVLW  04
0727E:  MOVWF  x80
07280:  MOVLW  06
07282:  MOVWF  x81
07284:  CLRF   x95
07286:  CLRF   x96
07288:  CLRF   x97
0728A:  CLRF   x98
0728C:  CLRF   x99
0728E:  CLRF   x9A
07290:  CLRF   x9B
07292:  CLRF   x9C
07294:  CLRF   x9D
07296:  CLRF   x9E
07298:  CLRF   x9F
0729A:  CLRF   xA0
0729C:  CLRF   xA1
0729E:  CLRF   xA2
072A0:  CLRF   xA3
072A2:  CLRF   xA4
072A4:  CLRF   xA5
072A6:  CLRF   xA6
072A8:  CLRF   xA7
072AA:  CLRF   xA8
072AC:  CLRF   xA9
072AE:  CLRF   xAA
072B0:  CLRF   xAB
072B2:  CLRF   xAC
072B4:  CLRF   xAD
072B6:  CLRF   xAE
072B8:  CLRF   xAF
072BA:  CLRF   xB0
072BC:  CLRF   xB1
072BE:  CLRF   xB2
072C0:  CLRF   xB3
072C2:  CLRF   xB4
072C4:  CLRF   xB5
072C6:  CLRF   xB6
072C8:  CLRF   xB7
072CA:  CLRF   xB8
072CC:  CLRF   xB9
072CE:  CLRF   xBA
072D0:  CLRF   xBB
072D2:  CLRF   xBC
072D4:  CLRF   xBD
072D6:  CLRF   xBE
072D8:  CLRF   xBF
072DA:  CLRF   xC0
072DC:  CLRF   xC1
072DE:  CLRF   xC2
072E0:  CLRF   xC3
072E2:  CLRF   xC4
072E4:  CLRF   xC5
072E6:  CLRF   xC6
072E8:  CLRF   xC7
072EA:  CLRF   xC8
072EC:  CLRF   xC9
072EE:  CLRF   xCA
072F0:  CLRF   xCB
072F2:  CLRF   xCC
072F4:  CLRF   xCD
072F6:  CLRF   xCE
072F8:  CLRF   xCF
072FA:  CLRF   xD0
072FC:  CLRF   xD1
072FE:  CLRF   xD2
07300:  CLRF   xD3
07302:  CLRF   xD4
07304:  CLRF   xD5
07306:  CLRF   xD6
07308:  CLRF   xD7
0730A:  CLRF   xD8
0730C:  CLRF   xD9
0730E:  CLRF   xDA
07310:  CLRF   xDB
07312:  CLRF   xDC
07314:  CLRF   xDD
07316:  CLRF   xDE
07318:  CLRF   xDF
0731A:  CLRF   xE0
0731C:  CLRF   xE1
0731E:  CLRF   xE2
07320:  CLRF   xE3
07322:  CLRF   xE4
07324:  CLRF   xE5
07326:  CLRF   xE6
07328:  CLRF   xE7
0732A:  CLRF   xE8
0732C:  CLRF   xE9
0732E:  CLRF   xEA
07330:  CLRF   xEB
07332:  CLRF   xEC
07334:  CLRF   xED
07336:  CLRF   xEE
07338:  CLRF   xEF
0733A:  CLRF   xF0
0733C:  CLRF   xF1
0733E:  CLRF   xF2
07340:  CLRF   xF3
07342:  CLRF   xF4
07344:  CLRF   xF5
07346:  CLRF   xF6
07348:  CLRF   xF7
0734A:  CLRF   xF8
0734C:  CLRF   xF9
0734E:  CLRF   xFA
07350:  CLRF   xFB
07352:  CLRF   xFC
07354:  CLRF   xFD
07356:  CLRF   xFE
07358:  CLRF   xFF
0735A:  MOVLB  1
0735C:  CLRF   x00
0735E:  CLRF   x01
07360:  CLRF   x02
07362:  CLRF   x03
07364:  CLRF   x04
07366:  CLRF   x05
07368:  CLRF   x06
0736A:  CLRF   x07
0736C:  CLRF   x08
0736E:  CLRF   x09
07370:  CLRF   x0A
07372:  CLRF   x0B
07374:  CLRF   x0C
07376:  CLRF   x0D
07378:  CLRF   x0E
0737A:  CLRF   x0F
0737C:  CLRF   x10
0737E:  CLRF   x11
07380:  CLRF   x12
07382:  CLRF   x13
07384:  CLRF   x14
07386:  CLRF   x15
07388:  CLRF   x16
0738A:  CLRF   x17
0738C:  CLRF   x18
0738E:  CLRF   x19
07390:  CLRF   x1A
07392:  CLRF   x1B
07394:  CLRF   x1C
07396:  CLRF   x1D
07398:  CLRF   x1E
0739A:  CLRF   x1F
0739C:  CLRF   x20
0739E:  CLRF   x21
073A0:  CLRF   x22
073A2:  CLRF   x23
073A4:  CLRF   x24
073A6:  CLRF   x25
073A8:  CLRF   x26
073AA:  CLRF   x27
073AC:  CLRF   x28
073AE:  CLRF   x29
073B0:  CLRF   x2A
073B2:  CLRF   x2B
073B4:  CLRF   x2C
073B6:  CLRF   x2D
073B8:  CLRF   x2E
073BA:  CLRF   x2F
073BC:  CLRF   x30
073BE:  CLRF   x31
073C0:  CLRF   x32
073C2:  CLRF   x33
073C4:  CLRF   x34
073C6:  CLRF   x35
073C8:  CLRF   x36
073CA:  CLRF   x37
073CC:  CLRF   x38
073CE:  CLRF   x39
073D0:  CLRF   x3A
073D2:  CLRF   x3B
073D4:  CLRF   x3C
073D6:  CLRF   x3D
073D8:  CLRF   x3E
073DA:  CLRF   x3F
073DC:  CLRF   x40
073DE:  CLRF   x41
073E0:  CLRF   x42
073E2:  CLRF   x43
073E4:  CLRF   x44
073E6:  CLRF   x61
073E8:  CLRF   x62
073EA:  CLRF   x63
073EC:  CLRF   x64
073EE:  CLRF   x65
073F0:  CLRF   x66
073F2:  CLRF   x67
073F4:  CLRF   x68
073F6:  CLRF   xF5
073F8:  CLRF   xF6
073FA:  CLRF   xF7
073FC:  CLRF   xF8
073FE:  MOVLB  2
07400:  CLRF   x8E
07402:  CLRF   x8F
07404:  CLRF   x90
07406:  CLRF   x91
....................    setup_timer_1(T1_INTERNAL|T1_DIV_BY_1); 
07408:  MOVLW  85
0740A:  MOVWF  FCD
....................    enable_interrupts(INT_TIMER1); 
0740C:  BSF    F9D.0
....................    setup_adc_ports(AN0_TO_AN3); 
0740E:  MOVF   FC1,W
07410:  ANDLW  C0
07412:  IORLW  0B
07414:  MOVWF  FC1
....................    setup_adc(ADC_CLOCK_DIV_64); 
07416:  MOVF   FC0,W
07418:  ANDLW  C0
0741A:  IORLW  06
0741C:  MOVWF  FC0
0741E:  BSF    FC0.7
07420:  BSF    FC2.0
....................    port_b_pullups(true); 
07422:  BCF    FF1.7
....................    enable_interrupts(int_rda); 
07424:  BSF    F9D.5
....................    setup_wdt(WDT_ON); 
07426:  BSF    FD1.0
....................    enable_interrupts(global); 
07428:  MOVLW  C0
0742A:  IORWF  FF2,F
....................    LeeEEPROM(); 
0742C:  MOVLB  0
0742E:  GOTO   260C
....................    rtc_init(); 
07432:  GOTO   3952
....................    delay_ms(1); 
07436:  MOVLW  01
07438:  MOVLB  6
0743A:  MOVWF  x37
0743C:  MOVLB  0
0743E:  CALL   1F36
....................    LimitaValores(); 
07442:  GOTO   39F2
....................    CalculoImpresion=timpresion*60; 
07446:  MOVLB  1
07448:  MOVF   xCA,W
0744A:  MULLW  3C
0744C:  MOVFF  FF3,1CB
....................    printf("page Bienvenida"); 
07450:  MOVLW  28
07452:  MOVWF  FF6
07454:  MOVLW  07
07456:  MOVWF  FF7
07458:  MOVLW  00
0745A:  MOVWF  FF8
0745C:  MOVLB  0
0745E:  CALL   3EB2
....................    SendDataDisplay(); 
07462:  CALL   3EE4
....................    printf("bkcmd=0"); 
07466:  MOVLW  38
07468:  MOVWF  FF6
0746A:  MOVLW  07
0746C:  MOVWF  FF7
0746E:  MOVLW  00
07470:  MOVWF  FF8
07472:  CALL   3EB2
....................    SendDataDisplay(); 
07476:  CALL   3EE4
....................    delay_ms(3500);  
0747A:  MOVLW  0E
0747C:  MOVLB  6
0747E:  MOVWF  x22
07480:  MOVLW  FA
07482:  MOVWF  x37
07484:  MOVLB  0
07486:  CALL   1F36
0748A:  MOVLB  6
0748C:  DECFSZ x22,F
0748E:  BRA    7480
....................    printf("page Usuarios"); 
07490:  MOVLW  40
07492:  MOVWF  FF6
07494:  MOVLW  07
07496:  MOVWF  FF7
07498:  MOVLW  00
0749A:  MOVWF  FF8
0749C:  MOVLB  0
0749E:  CALL   3EB2
....................    SendDataDisplay(); 
074A2:  CALL   3EE4
....................    ApagaSalidas(); 
074A6:  CALL   3F1A
....................    AN=1023*(R8+R9); 
074AA:  BCF    FD8.1
074AC:  MOVFF  150,63D
074B0:  MOVFF  14F,63C
074B4:  MOVFF  14E,63B
074B8:  MOVFF  14D,63A
074BC:  MOVFF  154,641
074C0:  MOVFF  153,640
074C4:  MOVFF  152,63F
074C8:  MOVFF  151,63E
074CC:  CALL   20BC
074D0:  MOVLB  6
074D2:  CLRF   x3B
074D4:  MOVLW  C0
074D6:  MOVWF  x3A
074D8:  MOVLW  7F
074DA:  MOVWF  x39
074DC:  MOVLW  88
074DE:  MOVWF  x38
074E0:  MOVFF  03,63F
074E4:  MOVFF  02,63E
074E8:  MOVFF  01,63D
074EC:  MOVFF  00,63C
074F0:  MOVLB  0
074F2:  CALL   3F42
074F6:  MOVFF  03,15C
074FA:  MOVFF  02,15B
074FE:  MOVFF  01,15A
07502:  MOVFF  00,159
....................    //TiempoVacio=CantidadPulsos*360;  
....................    TiempoVacio=360;  
07506:  MOVLW  01
07508:  MOVWF  x85
0750A:  MOVLW  68
0750C:  MOVWF  x84
....................    Sensor[0].Gain=152.53; 
0750E:  MOVLW  AE
07510:  MOVLB  3
07512:  MOVWF  xF5
07514:  MOVLW  87
07516:  MOVWF  xF4
07518:  MOVLW  18
0751A:  MOVWF  xF3
0751C:  MOVLW  86
0751E:  MOVWF  xF2
....................    Sensor[1].Gain=151.61; 
07520:  MOVLW  29
07522:  MOVLB  5
07524:  MOVWF  x59
07526:  MOVLW  9C
07528:  MOVWF  x58
0752A:  MOVLW  17
0752C:  MOVWF  x57
0752E:  MOVLW  86
07530:  MOVWF  x56
....................     
....................    for(i=0;i<MediaMovil;i++){ 
07532:  MOVLB  1
07534:  CLRF   xD2
07536:  MOVF   x73,W
07538:  SUBWF  xD2,W
0753A:  BC    7580
....................       Temperatura=LeerPT100(1,MediaMovil); 
0753C:  MOVLW  01
0753E:  MOVLB  6
07540:  MOVWF  x22
07542:  MOVFF  173,623
07546:  MOVLB  0
07548:  CALL   4090
0754C:  MOVFF  03,1B6
07550:  MOVFF  02,1B5
07554:  MOVFF  01,1B4
07558:  MOVFF  00,1B3
....................       Temperatura2=LeerPT100(0,MediaMovil); 
0755C:  MOVLB  6
0755E:  CLRF   x22
07560:  MOVFF  173,623
07564:  MOVLB  0
07566:  CALL   4090
0756A:  MOVFF  03,1BA
0756E:  MOVFF  02,1B9
07572:  MOVFF  01,1B8
07576:  MOVFF  00,1B7
....................    } 
0757A:  MOVLB  1
0757C:  INCF   xD2,F
0757E:  BRA    7536
....................     
....................    while(true) 
....................    { 
....................       rtc_get_date(Dia,Mes,Year,dow); 
....................       rtc_get_time(Hora,Minuto,Segundo); 
....................       LeeDisplay(); 
*
07644:  GOTO   4CC8
....................       //Envio_Esclavos(); 
....................       delay_ms(1); 
07648:  MOVLW  01
0764A:  MOVLB  6
0764C:  MOVWF  x37
0764E:  MOVLB  0
07650:  CALL   1F36
....................       //Lectura_Esclavos(); 
....................       restart_wdt(); 
07654:  CLRWDT
....................        
....................       if(!PruebaEstados){ 
07656:  BTFSC  x86.4
07658:  BRA    76B0
....................          if(Temperatura2>40) 
0765A:  MOVLB  6
0765C:  CLRF   x29
0765E:  CLRF   x28
07660:  MOVLW  20
07662:  MOVWF  x27
07664:  MOVLW  84
07666:  MOVWF  x26
07668:  MOVFF  1BA,62D
0766C:  MOVFF  1B9,62C
07670:  MOVFF  1B8,62B
07674:  MOVFF  1B7,62A
07678:  MOVLB  0
0767A:  CALL   2592
0767E:  BNC   7686
....................             Agua2_on; 
07680:  BSF    F8C.7
07682:  BCF    F95.7
....................          else if(Temperatura2<38) 
07684:  BRA    76B0
07686:  MOVFF  1BA,629
0768A:  MOVFF  1B9,628
0768E:  MOVFF  1B8,627
07692:  MOVFF  1B7,626
07696:  MOVLB  6
07698:  CLRF   x2D
0769A:  CLRF   x2C
0769C:  MOVLW  18
0769E:  MOVWF  x2B
076A0:  MOVLW  84
076A2:  MOVWF  x2A
076A4:  MOVLB  0
076A6:  CALL   2592
076AA:  BNC   76B0
....................             Agua2_off; 
076AC:  BCF    F8C.7
076AE:  BCF    F95.7
....................       } 
....................        
....................       if(!PruebaEstados){ 
076B0:  BTFSC  x86.4
076B2:  BRA    76EE
....................          if(PresionCamara<=Atmosferica+3 && (!IniciaCiclo || Finalizo)){ 
076B4:  MOVLW  03
076B6:  MOVLB  2
076B8:  ADDWF  x13,W
076BA:  MOVLB  1
076BC:  MOVF   xEC,F
076BE:  BNZ   76E2
076C0:  SUBWF  xEB,W
076C2:  BZ    76C6
076C4:  BC    76E2
076C6:  MOVLB  0
076C8:  BTFSS  x83.2
076CA:  BRA    76D4
076CC:  BTFSC  x88.3
076CE:  BRA    76D4
076D0:  MOVLB  1
076D2:  BRA    76E2
....................             sistemaBloqueo(0); 
076D4:  MOVLB  6
076D6:  CLRF   x22
076D8:  MOVLB  0
076DA:  CALL   4EB8
....................          }else{ 
076DE:  BRA    76EE
076E0:  MOVLB  1
....................             sistemaBloqueo(1); 
076E2:  MOVLW  01
076E4:  MOVLB  6
076E6:  MOVWF  x22
076E8:  MOVLB  0
076EA:  CALL   4EB8
....................          } 
....................       } 
....................        
.................... // Monitoreo Nivel de Agua//-------------------------------------- 
....................             if(!LOW){//Si no sensa agua en el reservorio del agua para la bomba 
076EE:  BSF    F93.0
076F0:  BTFSC  F81.0
076F2:  BRA    7704
....................                TiempoSensadoNivel=0; 
076F4:  CLRF   x8E
076F6:  CLRF   x8D
....................                Controlando=0;    
076F8:  MOVLB  1
076FA:  CLRF   xC9
....................                CalderinLleno=OFF; 
076FC:  MOVLB  0
076FE:  BCF    x86.0
....................                SensadoNivel=OFF; 
07700:  BCF    x83.5
....................             } else{ 
07702:  BRA    7716
....................                SensadoNivel=ON; 
07704:  BSF    x83.5
....................                if(TiempoSensadoNivel>3){ 
07706:  MOVF   x8E,F
07708:  BNZ   7710
0770A:  MOVF   x8D,W
0770C:  SUBLW  03
0770E:  BC    7716
....................                   SensadoNivel=OFF; 
07710:  BCF    x83.5
....................                   CalderinLleno=ON; 
07712:  BSF    x86.0
....................                   IniciaLlenado=OFF;                   
07714:  BCF    x83.1
....................                }                                  
....................             } 
....................        
.................... // Tiempo de Grafica//-------------------------------------- 
....................       if(tiempos2>=2000){ 
07716:  MOVLB  1
07718:  MOVF   xE2,W
0771A:  SUBLW  06
0771C:  BC    7732
0771E:  XORLW  FF
07720:  BNZ   7728
07722:  MOVF   xE1,W
07724:  SUBLW  CF
07726:  BC    7732
....................          Grafica=1; 
07728:  MOVLB  0
0772A:  BSF    x8A.4
....................          tiempos2=0; 
0772C:  MOVLB  1
0772E:  CLRF   xE2
07730:  CLRF   xE1
....................       } 
....................  
.................... // Tiempo de Muestreo//-------------------------------------- 
....................       if(tiempos3>=20){ 
07732:  MOVF   xE4,F
07734:  BNZ   773C
07736:  MOVF   xE3,W
07738:  SUBLW  13
0773A:  BC    77D0
....................          Temperatura=LeerPt100(1,MediaMovil); 
0773C:  MOVLW  01
0773E:  MOVLB  6
07740:  MOVWF  x22
07742:  MOVFF  173,623
07746:  MOVLB  0
07748:  CALL   4090
0774C:  MOVFF  03,1B6
07750:  MOVFF  02,1B5
07754:  MOVFF  01,1B4
07758:  MOVFF  00,1B3
....................          Temperatura2=LeerPt100(0,MediaMovil); 
0775C:  MOVLB  6
0775E:  CLRF   x22
07760:  MOVFF  173,623
07764:  MOVLB  0
07766:  CALL   4090
0776A:  MOVFF  03,1BA
0776E:  MOVFF  02,1B9
07772:  MOVFF  01,1B8
07776:  MOVFF  00,1B7
....................          PresionCamara=Leer_Sensor_Presion_Camara(10); 
0777A:  MOVLW  0A
0777C:  MOVLB  6
0777E:  MOVWF  x22
07780:  MOVLB  0
07782:  GOTO   4EE4
07786:  MOVFF  03,637
0778A:  MOVFF  02,636
0778E:  MOVFF  01,635
07792:  MOVFF  00,634
07796:  CALL   50E6
0779A:  MOVFF  02,1EC
0779E:  MOVFF  01,1EB
....................          PresionPreCamara=Leer_Sensor_Presion_PreCamara(10); 
077A2:  MOVLW  0A
077A4:  MOVLB  6
077A6:  MOVWF  x22
077A8:  MOVLB  0
077AA:  GOTO   5122
077AE:  MOVFF  03,637
077B2:  MOVFF  02,636
077B6:  MOVFF  01,635
077BA:  MOVFF  00,634
077BE:  CALL   50E6
077C2:  MOVFF  02,1EE
077C6:  MOVFF  01,1ED
....................          tiempos3=0; 
077CA:  MOVLB  1
077CC:  CLRF   xE4
077CE:  CLRF   xE3
....................       } 
....................        
.................... // Monitoreo Parada Emergencia//--------------------------------------       
....................       if(!STOP && !IniciaCiclo && !PruebaEstados){ 
077D0:  BSF    F93.2
077D2:  BTFSS  F81.2
077D4:  BRA    7854
077D6:  MOVLB  0
077D8:  BTFSS  x83.2
077DA:  BRA    77E0
077DC:  MOVLB  1
077DE:  BRA    7854
077E0:  BTFSS  x86.4
077E2:  BRA    77E8
077E4:  MOVLB  1
077E6:  BRA    7854
....................          if(!disp_Stop){ 
077E8:  BTFSC  x8A.5
077EA:  BRA    77F4
....................             disp_Stop=1;Menu=255; 
077EC:  BSF    x8A.5
077EE:  MOVLW  FF
077F0:  MOVLB  1
077F2:  MOVWF  xCF
....................          } 
....................          Controlando=0; 
077F4:  MOVLB  1
077F6:  CLRF   xC9
....................          Desfogue_on; 
077F8:  BSF    F8C.3
077FA:  BCF    F95.3
....................          Paso_off; 
077FC:  BCF    F8C.1
077FE:  BCF    F95.1
....................          Suministro_off; 
07800:  BCF    F8C.0
07802:  BCF    F95.0
....................          if(PresionCamara<Atmosferica) 
07804:  MOVF   xEC,F
07806:  BNZ   7818
07808:  MOVLB  2
0780A:  MOVF   x13,W
0780C:  MOVLB  1
0780E:  SUBWF  xEB,W
07810:  BC    7818
....................             Aire_on; 
07812:  BSF    F8C.4
07814:  BCF    F95.4
....................          else 
07816:  BRA    781C
....................             Aire_off; 
07818:  BCF    F8C.4
0781A:  BCF    F95.4
....................          Vacio_off;    
0781C:  BCF    F8C.2
0781E:  BCF    F95.2
....................          Agua_off; 
07820:  BCF    F8C.6
07822:  BCF    F95.6
....................          BombaVacio_off; 
07824:  BCF    F8C.5
07826:  BCF    F95.5
....................          DesfogueSuave=OFF; 
07828:  MOVLB  0
0782A:  BCF    x83.7
....................          printf("page Emergencia"); 
0782C:  MOVLW  4E
0782E:  MOVWF  FF6
07830:  MOVLW  07
07832:  MOVWF  FF7
07834:  MOVLW  00
07836:  MOVWF  FF8
07838:  CALL   3EB2
....................          SendDataDisplay(); 
0783C:  CALL   3EE4
....................          ActivaAlarma(1); 
07840:  MOVLW  01
07842:  MOVLB  6
07844:  MOVWF  x22
07846:  MOVLB  0
07848:  CALL   5358
....................          BorraBuffer(); 
0784C:  GOTO   5410
....................       }else{ 
07850:  BRA    785C
07852:  MOVLB  1
....................          if(disp_Stop){ 
07854:  MOVLB  0
07856:  BTFSS  x8A.5
07858:  BRA    785C
....................             reset_cpu(); 
0785A:  RESET
....................          } 
....................       }            
....................    //Buzzer_off;    
.................... //_-------------------------------------------------------------------------------------------------------------------------------------------------------- 
....................    if(Menu==240){ //Menu de Bienvenida. 
0785C:  MOVLB  1
0785E:  MOVF   xCF,W
07860:  SUBLW  F0
07862:  BNZ   78AC
....................       printf("bkcmd=0"); 
07864:  MOVLW  5E
07866:  MOVWF  FF6
07868:  MOVLW  07
0786A:  MOVWF  FF7
0786C:  MOVLW  00
0786E:  MOVWF  FF8
07870:  MOVLB  0
07872:  CALL   3EB2
....................       SendDataDisplay(); 
07876:  CALL   3EE4
....................       delay_ms(1500); 
0787A:  MOVLW  06
0787C:  MOVLB  6
0787E:  MOVWF  x22
07880:  MOVLW  FA
07882:  MOVWF  x37
07884:  MOVLB  0
07886:  CALL   1F36
0788A:  MOVLB  6
0788C:  DECFSZ x22,F
0788E:  BRA    7880
....................       printf("page Usuarios"); 
07890:  MOVLW  66
07892:  MOVWF  FF6
07894:  MOVLW  07
07896:  MOVWF  FF7
07898:  MOVLW  00
0789A:  MOVWF  FF8
0789C:  MOVLB  0
0789E:  CALL   3EB2
....................       SendDataDisplay(); 
078A2:  CALL   3EE4
....................       ApagaSalidas(); 
078A6:  CALL   3F1A
078AA:  MOVLB  1
....................    } 
.................... //_-------------------------------------------------------------------------------------------------------------------------------------------------------- 
....................  
.................... //_-------------------------------------------------------------------------------------------------------------------------------------------------------- 
....................     if(Menu==0){ //Menu de Contrasea de acceso. 
078AC:  MOVF   xCF,F
078AE:  BTFSS  FD8.2
078B0:  BRA    7F10
....................       ApagaSalidas(); 
078B2:  MOVLB  0
078B4:  CALL   3F1A
....................       //printf("bkcmd=0"); 
....................       //SendDataDisplay(); 
....................       if(RX_Buffer[4]==0x11){//11 
078B8:  MOVF   34,W
078BA:  SUBLW  11
078BC:  BNZ   78DE
....................          if(TipoClave!=0){ 
078BE:  MOVLB  1
078C0:  MOVF   x75,F
078C2:  BZ    78DE
....................             printf("page MenuPrincipal"); 
078C4:  MOVLW  74
078C6:  MOVWF  FF6
078C8:  MOVLW  07
078CA:  MOVWF  FF7
078CC:  MOVLW  00
078CE:  MOVWF  FF8
078D0:  MOVLB  0
078D2:  CALL   3EB2
....................             SendDataDisplay(); 
078D6:  CALL   3EE4
....................             PantallaPrincipal=0; 
078DA:  MOVLB  1
078DC:  CLRF   x74
....................          } 
....................       } 
....................        
....................       if(TipoClave==3){ 
078DE:  MOVLB  1
078E0:  MOVF   x75,W
078E2:  SUBLW  03
078E4:  BNZ   7912
....................          printf("titulo.txt=\"Clave Nueva\""); 
078E6:  MOVLW  88
078E8:  MOVWF  FF6
078EA:  MOVLW  07
078EC:  MOVWF  FF7
078EE:  MOVLW  00
078F0:  MOVWF  FF8
078F2:  MOVLB  0
078F4:  CALL   3EB2
....................          SendDataDisplay(); 
078F8:  CALL   3EE4
....................          printf("doevents"); 
078FC:  MOVLW  A2
078FE:  MOVWF  FF6
07900:  MOVLW  07
07902:  MOVWF  FF7
07904:  MOVLW  00
07906:  MOVWF  FF8
07908:  CALL   3EB2
....................          SendDataDisplay(); 
0790C:  CALL   3EE4
07910:  MOVLB  1
....................       } 
....................        
....................       if(TipoClave==2){ 
07912:  MOVF   x75,W
07914:  SUBLW  02
07916:  BNZ   7944
....................          printf("titulo.txt=\"Clave Actual\""); 
07918:  MOVLW  AC
0791A:  MOVWF  FF6
0791C:  MOVLW  07
0791E:  MOVWF  FF7
07920:  MOVLW  00
07922:  MOVWF  FF8
07924:  MOVLB  0
07926:  CALL   3EB2
....................          SendDataDisplay(); 
0792A:  CALL   3EE4
....................          printf("doevents"); 
0792E:  MOVLW  C6
07930:  MOVWF  FF6
07932:  MOVLW  07
07934:  MOVWF  FF7
07936:  MOVLW  00
07938:  MOVWF  FF8
0793A:  CALL   3EB2
....................          SendDataDisplay(); 
0793E:  CALL   3EE4
07942:  MOVLB  1
....................       } 
....................        
....................       if(TipoClave==1){ 
07944:  DECFSZ x75,W
07946:  BRA    7974
....................          printf("titulo.txt=\"Clave Tecnico\""); 
07948:  MOVLW  D0
0794A:  MOVWF  FF6
0794C:  MOVLW  07
0794E:  MOVWF  FF7
07950:  MOVLW  00
07952:  MOVWF  FF8
07954:  MOVLB  0
07956:  CALL   3EB2
....................          SendDataDisplay(); 
0795A:  CALL   3EE4
....................          printf("doevents"); 
0795E:  MOVLW  EC
07960:  MOVWF  FF6
07962:  MOVLW  07
07964:  MOVWF  FF7
07966:  MOVLW  00
07968:  MOVWF  FF8
0796A:  CALL   3EB2
....................          SendDataDisplay(); 
0796E:  CALL   3EE4
07972:  MOVLB  1
....................       } 
....................        
....................       if(TipoClave==0){ 
07974:  MOVF   x75,F
07976:  BNZ   79AA
....................          printf("titulo.txt=\"%s\"",usuario); 
07978:  MOVLW  F6
0797A:  MOVWF  FF6
0797C:  MOVLW  07
0797E:  MOVWF  FF7
07980:  MOVLW  00
07982:  MOVWF  FF8
07984:  MOVLW  0C
07986:  MOVLB  6
07988:  MOVWF  x27
0798A:  MOVLB  0
0798C:  CALL   543C
07990:  MOVLW  02
07992:  MOVWF  FEA
07994:  MOVLW  28
07996:  MOVWF  FE9
07998:  CALL   546E
0799C:  MOVLW  22
0799E:  BTFSS  F9E.4
079A0:  BRA    799E
079A2:  MOVWF  FAD
....................          SendDataDisplay(); 
079A4:  CALL   3EE4
079A8:  MOVLB  1
....................       } 
....................        
....................       if(RX_Buffer[4]==0x11){//11, Regresar 
079AA:  MOVF   34,W
079AC:  SUBLW  11
079AE:  BNZ   79E6
....................          if(TipoClave==1){ 
079B0:  DECFSZ x75,W
079B2:  BRA    79CE
....................             printf("page Ajustes"); 
079B4:  MOVLW  06
079B6:  MOVWF  FF6
079B8:  MOVLW  08
079BA:  MOVWF  FF7
079BC:  MOVLW  00
079BE:  MOVWF  FF8
079C0:  MOVLB  0
079C2:  CALL   3EB2
....................             SendDataDisplay();        
079C6:  CALL   3EE4
....................          }else{ 
079CA:  BRA    79E4
079CC:  MOVLB  1
....................             printf("page Usuarios"); 
079CE:  MOVLW  14
079D0:  MOVWF  FF6
079D2:  MOVLW  08
079D4:  MOVWF  FF7
079D6:  MOVLW  00
079D8:  MOVWF  FF8
079DA:  MOVLB  0
079DC:  CALL   3EB2
....................             SendDataDisplay();        
079E0:  CALL   3EE4
079E4:  MOVLB  1
....................          } 
....................       } 
....................        
....................       if(RX_Buffer[3]==0x0f){//0f, recibe caracteres ingresados desde el Display 
079E6:  MOVF   33,W
079E8:  SUBLW  0F
079EA:  BTFSS  FD8.2
079EC:  BRA    7F10
....................          delay_ms(800); 
079EE:  MOVLW  04
079F0:  MOVLB  6
079F2:  MOVWF  x22
079F4:  MOVLW  C8
079F6:  MOVWF  x37
079F8:  MOVLB  0
079FA:  CALL   1F36
079FE:  MOVLB  6
07A00:  DECFSZ x22,F
07A02:  BRA    79F4
....................          if(TipoClave==0){ 
07A04:  MOVLB  1
07A06:  MOVF   x75,F
07A08:  BTFSS  FD8.2
07A0A:  BRA    7BB8
....................             if(RX_Buffer[4]==0x33&&RX_Buffer[5]==0x38&&RX_Buffer[6]==0x39&&RX_Buffer[7]==0x32 &&RX_Buffer[8]==0x00 &&RX_Buffer[9]==0xff){ // Si Ingresa clave para reset general del sistema. 
07A0C:  MOVF   34,W
07A0E:  SUBLW  33
07A10:  BNZ   7A86
07A12:  MOVF   35,W
07A14:  SUBLW  38
07A16:  BNZ   7A86
07A18:  MOVF   36,W
07A1A:  SUBLW  39
07A1C:  BNZ   7A86
07A1E:  MOVF   37,W
07A20:  SUBLW  32
07A22:  BNZ   7A86
07A24:  MOVF   38,F
07A26:  BNZ   7A86
07A28:  INCFSZ 39,W
07A2A:  BRA    7A86
....................                for(i=0;i<40;i++){//Lee contraseas de usuarios 
07A2C:  CLRF   xD2
07A2E:  MOVF   xD2,W
07A30:  SUBLW  27
07A32:  BNC   7A84
....................                   write_eeprom(300+i,0);delay_ms(20); 
07A34:  MOVLW  2C
07A36:  ADDWF  xD2,W
07A38:  MOVLB  6
07A3A:  MOVWF  x22
07A3C:  MOVLW  01
07A3E:  MOVWF  x23
07A40:  BTFSC  FD8.0
07A42:  INCF   x23,F
07A44:  MOVFF  623,FAA
07A48:  MOVFF  622,FA9
07A4C:  CLRF   FA8
07A4E:  BCF    FA6.6
07A50:  BCF    FA6.7
07A52:  BSF    FA6.2
07A54:  MOVF   FF2,W
07A56:  MOVWF  00
07A58:  BCF    FF2.6
07A5A:  BCF    FF2.7
07A5C:  MOVLB  F
07A5E:  MOVLW  55
07A60:  MOVWF  FA7
07A62:  MOVLW  AA
07A64:  MOVWF  FA7
07A66:  BSF    FA6.1
07A68:  BTFSC  FA6.1
07A6A:  BRA    7A68
07A6C:  BCF    FA6.2
07A6E:  MOVF   00,W
07A70:  IORWF  FF2,F
07A72:  MOVLW  14
07A74:  MOVLB  6
07A76:  MOVWF  x37
07A78:  MOVLB  0
07A7A:  CALL   1F36
....................                } 
07A7E:  MOVLB  1
07A80:  INCF   xD2,F
07A82:  BRA    7A2E
....................                reset_cpu(); 
07A84:  RESET
....................             } 
....................              
....................             if(RX_Buffer[4]>=0x30 && RX_Buffer[5]>=0x30 && RX_Buffer[6]>=0x30 && RX_Buffer[7]>=0x30 
....................             && RX_Buffer[4]<=0x39 && RX_Buffer[5]<=0x39 && RX_Buffer[6]<=0x39 && RX_Buffer[7]<=0x39){ 
07A86:  MOVF   34,W
07A88:  SUBLW  2F
07A8A:  BTFSC  FD8.0
07A8C:  BRA    7BB6
07A8E:  MOVF   35,W
07A90:  SUBLW  2F
07A92:  BTFSC  FD8.0
07A94:  BRA    7BB6
07A96:  MOVF   36,W
07A98:  SUBLW  2F
07A9A:  BTFSC  FD8.0
07A9C:  BRA    7BB6
07A9E:  MOVF   37,W
07AA0:  SUBLW  2F
07AA2:  BTFSC  FD8.0
07AA4:  BRA    7BB6
07AA6:  MOVF   34,W
07AA8:  SUBLW  39
07AAA:  BTFSS  FD8.0
07AAC:  BRA    7BB6
07AAE:  MOVF   35,W
07AB0:  SUBLW  39
07AB2:  BTFSS  FD8.0
07AB4:  BRA    7BB6
07AB6:  MOVF   36,W
07AB8:  SUBLW  39
07ABA:  BTFSS  FD8.0
07ABC:  BRA    7BB6
07ABE:  MOVF   37,W
07AC0:  SUBLW  39
07AC2:  BTFSS  FD8.0
07AC4:  BRA    7BB6
....................                if((RX_Buffer[4]==Clave[codigoUsuario].Password[0]+0x30)&&(RX_Buffer[5]==Clave[codigoUsuario].Password[1]+0x30)&& 
....................                (RX_Buffer[6]==Clave[codigoUsuario].Password[2]+0x30)&&(RX_Buffer[7]==Clave[codigoUsuario].Password[3]+0x30) 
....................                &&RX_Buffer[8]==0x00 &&RX_Buffer[9]==0xff){ 
07AC6:  MOVLB  2
07AC8:  MOVF   x22,W
07ACA:  MULLW  04
07ACC:  MOVF   FF3,W
07ACE:  MOVLB  6
07AD0:  CLRF   x23
07AD2:  MOVWF  x22
07AD4:  MOVLW  FA
07AD6:  ADDWF  x22,W
07AD8:  MOVWF  FE9
07ADA:  MOVLW  05
07ADC:  ADDWFC x23,W
07ADE:  MOVWF  FEA
07AE0:  MOVLW  30
07AE2:  ADDWF  FEF,W
07AE4:  SUBWF  34,W
07AE6:  BNZ   7B9A
07AE8:  MOVLB  2
07AEA:  MOVF   x22,W
07AEC:  MULLW  04
07AEE:  MOVF   FF3,W
07AF0:  MOVLB  6
07AF2:  CLRF   x23
07AF4:  MOVWF  x22
07AF6:  MOVLW  01
07AF8:  ADDWF  x22,W
07AFA:  MOVWF  01
07AFC:  MOVLW  00
07AFE:  ADDWFC x23,W
07B00:  MOVWF  03
07B02:  MOVF   01,W
07B04:  ADDLW  FA
07B06:  MOVWF  FE9
07B08:  MOVLW  05
07B0A:  ADDWFC 03,W
07B0C:  MOVWF  FEA
07B0E:  MOVLW  30
07B10:  ADDWF  FEF,W
07B12:  SUBWF  35,W
07B14:  BNZ   7B9A
07B16:  MOVLB  2
07B18:  MOVF   x22,W
07B1A:  MULLW  04
07B1C:  MOVF   FF3,W
07B1E:  MOVLB  6
07B20:  CLRF   x23
07B22:  MOVWF  x22
07B24:  MOVLW  02
07B26:  ADDWF  x22,W
07B28:  MOVWF  01
07B2A:  MOVLW  00
07B2C:  ADDWFC x23,W
07B2E:  MOVWF  03
07B30:  MOVF   01,W
07B32:  ADDLW  FA
07B34:  MOVWF  FE9
07B36:  MOVLW  05
07B38:  ADDWFC 03,W
07B3A:  MOVWF  FEA
07B3C:  MOVLW  30
07B3E:  ADDWF  FEF,W
07B40:  SUBWF  36,W
07B42:  BNZ   7B9A
07B44:  MOVLB  2
07B46:  MOVF   x22,W
07B48:  MULLW  04
07B4A:  MOVF   FF3,W
07B4C:  MOVLB  6
07B4E:  CLRF   x23
07B50:  MOVWF  x22
07B52:  MOVLW  03
07B54:  ADDWF  x22,W
07B56:  MOVWF  01
07B58:  MOVLW  00
07B5A:  ADDWFC x23,W
07B5C:  MOVWF  03
07B5E:  MOVF   01,W
07B60:  ADDLW  FA
07B62:  MOVWF  FE9
07B64:  MOVLW  05
07B66:  ADDWFC 03,W
07B68:  MOVWF  FEA
07B6A:  MOVLW  30
07B6C:  ADDWF  FEF,W
07B6E:  SUBWF  37,W
07B70:  BNZ   7B9A
07B72:  MOVF   38,F
07B74:  BNZ   7B9A
07B76:  INCFSZ 39,W
07B78:  BRA    7B9A
....................                   printf("page ClaveCorrecta"); 
07B7A:  MOVLW  22
07B7C:  MOVWF  FF6
07B7E:  MOVLW  08
07B80:  MOVWF  FF7
07B82:  MOVLW  00
07B84:  MOVWF  FF8
07B86:  MOVLB  0
07B88:  CALL   3EB2
....................                   SendDataDisplay(); 
07B8C:  CALL   3EE4
....................                   ingreso=ON; 
07B90:  BSF    x89.0
....................                   RX_Buffer[3]=0x00;RX_Buffer2[3]=0x00;   
07B92:  CLRF   33
07B94:  CLRF   3E
....................                }else{ 
07B96:  BRA    7BB4
07B98:  MOVLB  6
....................                   printf("page ClaveBad"); 
07B9A:  MOVLW  36
07B9C:  MOVWF  FF6
07B9E:  MOVLW  08
07BA0:  MOVWF  FF7
07BA2:  MOVLW  00
07BA4:  MOVWF  FF8
07BA6:  MOVLB  0
07BA8:  CALL   3EB2
....................                   SendDataDisplay(); 
07BAC:  CALL   3EE4
....................                   RX_Buffer[3]=0x00;RX_Buffer2[3]=0x00;   
07BB0:  CLRF   33
07BB2:  CLRF   3E
07BB4:  MOVLB  1
....................                }  
....................             } 
....................          }else if(TipoClave==1){ 
07BB6:  BRA    7F10
07BB8:  DECFSZ x75,W
07BBA:  BRA    7C18
....................             if(RX_Buffer[4]==0x34&&RX_Buffer[5]==0x34&&RX_Buffer[6]==0x34&&RX_Buffer[7]==0x34&&RX_Buffer[8]==0x00 &&RX_Buffer[9]==0xff){ // Si Ingresa clave de Servicio Tecnico 
07BBC:  MOVF   34,W
07BBE:  SUBLW  34
07BC0:  BNZ   7BFA
07BC2:  MOVF   35,W
07BC4:  SUBLW  34
07BC6:  BNZ   7BFA
07BC8:  MOVF   36,W
07BCA:  SUBLW  34
07BCC:  BNZ   7BFA
07BCE:  MOVF   37,W
07BD0:  SUBLW  34
07BD2:  BNZ   7BFA
07BD4:  MOVF   38,F
07BD6:  BNZ   7BFA
07BD8:  INCFSZ 39,W
07BDA:  BRA    7BFA
....................                printf("page Config"); 
07BDC:  MOVLW  44
07BDE:  MOVWF  FF6
07BE0:  MOVLW  08
07BE2:  MOVWF  FF7
07BE4:  MOVLW  00
07BE6:  MOVWF  FF8
07BE8:  MOVLB  0
07BEA:  CALL   3EB2
....................                SendDataDisplay(); 
07BEE:  CALL   3EE4
....................                RX_Buffer[3]=0x00;RX_Buffer2[3]=0x00;   
07BF2:  CLRF   33
07BF4:  CLRF   3E
....................             }else{ 
07BF6:  BRA    7C14
07BF8:  MOVLB  1
....................                printf("page Menu"); 
07BFA:  MOVLW  50
07BFC:  MOVWF  FF6
07BFE:  MOVLW  08
07C00:  MOVWF  FF7
07C02:  MOVLW  00
07C04:  MOVWF  FF8
07C06:  MOVLB  0
07C08:  CALL   3EB2
....................                SendDataDisplay(); 
07C0C:  CALL   3EE4
....................                RX_Buffer[3]=0x00;RX_Buffer2[3]=0x00;   
07C10:  CLRF   33
07C12:  CLRF   3E
....................             } 
....................          }else if(TipoClave==2){ 
07C14:  BRA    7F0E
07C16:  MOVLB  1
07C18:  MOVF   x75,W
07C1A:  SUBLW  02
07C1C:  BTFSS  FD8.2
07C1E:  BRA    7D6E
....................             if(RX_Buffer[4]>=0x30 && RX_Buffer[5]>=0x30 && RX_Buffer[6]>=0x30 && RX_Buffer[7]>=0x30 
....................             && RX_Buffer[4]<=0x39 && RX_Buffer[5]<=0x39 && RX_Buffer[6]<=0x39 && RX_Buffer[7]<=0x39){ 
07C20:  MOVF   34,W
07C22:  SUBLW  2F
07C24:  BTFSC  FD8.0
07C26:  BRA    7D6C
07C28:  MOVF   35,W
07C2A:  SUBLW  2F
07C2C:  BTFSC  FD8.0
07C2E:  BRA    7D6C
07C30:  MOVF   36,W
07C32:  SUBLW  2F
07C34:  BTFSC  FD8.0
07C36:  BRA    7D6C
07C38:  MOVF   37,W
07C3A:  SUBLW  2F
07C3C:  BTFSC  FD8.0
07C3E:  BRA    7D6C
07C40:  MOVF   34,W
07C42:  SUBLW  39
07C44:  BTFSS  FD8.0
07C46:  BRA    7D6C
07C48:  MOVF   35,W
07C4A:  SUBLW  39
07C4C:  BTFSS  FD8.0
07C4E:  BRA    7D6C
07C50:  MOVF   36,W
07C52:  SUBLW  39
07C54:  BTFSS  FD8.0
07C56:  BRA    7D6C
07C58:  MOVF   37,W
07C5A:  SUBLW  39
07C5C:  BTFSS  FD8.0
07C5E:  BRA    7D6C
....................                if((RX_Buffer[4]==Clave[codigoUsuario2].Password[0]+0x30)&&(RX_Buffer[5]==Clave[codigoUsuario2].Password[1]+0x30)&& 
....................                (RX_Buffer[6]==Clave[codigoUsuario2].Password[2]+0x30)&&(RX_Buffer[7]==Clave[codigoUsuario2].Password[3]+0x30) 
....................                &&RX_Buffer[8]==0x00 &&RX_Buffer[9]==0xff){ 
07C60:  MOVLB  2
07C62:  MOVF   x04,W
07C64:  MULLW  04
07C66:  MOVF   FF3,W
07C68:  MOVLB  6
07C6A:  CLRF   x23
07C6C:  MOVWF  x22
07C6E:  MOVLW  FA
07C70:  ADDWF  x22,W
07C72:  MOVWF  FE9
07C74:  MOVLW  05
07C76:  ADDWFC x23,W
07C78:  MOVWF  FEA
07C7A:  MOVLW  30
07C7C:  ADDWF  FEF,W
07C7E:  SUBWF  34,W
07C80:  BNZ   7D4C
07C82:  MOVLB  2
07C84:  MOVF   x04,W
07C86:  MULLW  04
07C88:  MOVF   FF3,W
07C8A:  MOVLB  6
07C8C:  CLRF   x23
07C8E:  MOVWF  x22
07C90:  MOVLW  01
07C92:  ADDWF  x22,W
07C94:  MOVWF  01
07C96:  MOVLW  00
07C98:  ADDWFC x23,W
07C9A:  MOVWF  03
07C9C:  MOVF   01,W
07C9E:  ADDLW  FA
07CA0:  MOVWF  FE9
07CA2:  MOVLW  05
07CA4:  ADDWFC 03,W
07CA6:  MOVWF  FEA
07CA8:  MOVLW  30
07CAA:  ADDWF  FEF,W
07CAC:  SUBWF  35,W
07CAE:  BNZ   7D4C
07CB0:  MOVLB  2
07CB2:  MOVF   x04,W
07CB4:  MULLW  04
07CB6:  MOVF   FF3,W
07CB8:  MOVLB  6
07CBA:  CLRF   x23
07CBC:  MOVWF  x22
07CBE:  MOVLW  02
07CC0:  ADDWF  x22,W
07CC2:  MOVWF  01
07CC4:  MOVLW  00
07CC6:  ADDWFC x23,W
07CC8:  MOVWF  03
07CCA:  MOVF   01,W
07CCC:  ADDLW  FA
07CCE:  MOVWF  FE9
07CD0:  MOVLW  05
07CD2:  ADDWFC 03,W
07CD4:  MOVWF  FEA
07CD6:  MOVLW  30
07CD8:  ADDWF  FEF,W
07CDA:  SUBWF  36,W
07CDC:  BNZ   7D4C
07CDE:  MOVLB  2
07CE0:  MOVF   x04,W
07CE2:  MULLW  04
07CE4:  MOVF   FF3,W
07CE6:  MOVLB  6
07CE8:  CLRF   x23
07CEA:  MOVWF  x22
07CEC:  MOVLW  03
07CEE:  ADDWF  x22,W
07CF0:  MOVWF  01
07CF2:  MOVLW  00
07CF4:  ADDWFC x23,W
07CF6:  MOVWF  03
07CF8:  MOVF   01,W
07CFA:  ADDLW  FA
07CFC:  MOVWF  FE9
07CFE:  MOVLW  05
07D00:  ADDWFC 03,W
07D02:  MOVWF  FEA
07D04:  MOVLW  30
07D06:  ADDWF  FEF,W
07D08:  SUBWF  37,W
07D0A:  BNZ   7D4C
07D0C:  MOVF   38,F
07D0E:  BNZ   7D4C
07D10:  INCFSZ 39,W
07D12:  BRA    7D4C
....................                   printf("page Clave"); 
07D14:  MOVLW  5A
07D16:  MOVWF  FF6
07D18:  MOVLW  08
07D1A:  MOVWF  FF7
07D1C:  MOVLW  00
07D1E:  MOVWF  FF8
07D20:  MOVLB  0
07D22:  CALL   3EB2
....................                   SendDataDisplay(); 
07D26:  CALL   3EE4
....................                   printf("titulo.txt=\"Clave Nueva\""); 
07D2A:  MOVLW  66
07D2C:  MOVWF  FF6
07D2E:  MOVLW  08
07D30:  MOVWF  FF7
07D32:  MOVLW  00
07D34:  MOVWF  FF8
07D36:  CALL   3EB2
....................                   SendDataDisplay(); 
07D3A:  CALL   3EE4
....................                   TipoClave=3; 
07D3E:  MOVLW  03
07D40:  MOVLB  1
07D42:  MOVWF  x75
....................                   RX_Buffer[3]=0x00; 
07D44:  CLRF   33
....................                   RX_Buffer2[3]=0x00; 
07D46:  CLRF   3E
....................                }else{ 
07D48:  BRA    7D6C
07D4A:  MOVLB  6
....................                   printf("page Menu"); 
07D4C:  MOVLW  80
07D4E:  MOVWF  FF6
07D50:  MOVLW  08
07D52:  MOVWF  FF7
07D54:  MOVLW  00
07D56:  MOVWF  FF8
07D58:  MOVLB  0
07D5A:  CALL   3EB2
....................                   SendDataDisplay(); 
07D5E:  CALL   3EE4
....................                   RX_Buffer[3]=0x00; 
07D62:  CLRF   33
....................                   RX_Buffer2[3]=0x00; 
07D64:  CLRF   3E
....................                   codigoUsuario=codigoUsuarioant; 
07D66:  MOVFF  223,222
07D6A:  MOVLB  1
....................                }  
....................             } 
....................          }else if(TipoClave==3){ 
07D6C:  BRA    7F10
07D6E:  MOVF   x75,W
07D70:  SUBLW  03
07D72:  BTFSS  FD8.2
07D74:  BRA    7F10
....................             printf("titulo.txt=\"Clave Nueva\""); 
07D76:  MOVLW  8A
07D78:  MOVWF  FF6
07D7A:  MOVLW  08
07D7C:  MOVWF  FF7
07D7E:  MOVLW  00
07D80:  MOVWF  FF8
07D82:  MOVLB  0
07D84:  CALL   3EB2
....................             SendDataDisplay(); 
07D88:  CALL   3EE4
....................             printf("page Menu"); 
07D8C:  MOVLW  A4
07D8E:  MOVWF  FF6
07D90:  MOVLW  08
07D92:  MOVWF  FF7
07D94:  MOVLW  00
07D96:  MOVWF  FF8
07D98:  CALL   3EB2
....................             SendDataDisplay(); 
07D9C:  CALL   3EE4
....................             if(!GuardaEEPROM){ 
07DA0:  BTFSC  x87.4
07DA2:  BRA    7F0A
....................                write_eeprom(300+(codigoUsuario*4),RX_Buffer[4]-0x30);delay_ms(20); 
07DA4:  MOVLB  2
07DA6:  MOVF   x22,W
07DA8:  MULLW  04
07DAA:  MOVF   FF3,W
07DAC:  ADDLW  2C
07DAE:  MOVLB  6
07DB0:  MOVWF  x22
07DB2:  MOVLW  01
07DB4:  MOVWF  x23
07DB6:  BTFSC  FD8.0
07DB8:  INCF   x23,F
07DBA:  MOVLW  30
07DBC:  SUBWF  34,W
07DBE:  MOVWF  x24
07DC0:  MOVFF  623,FAA
07DC4:  MOVFF  622,FA9
07DC8:  MOVFF  624,FA8
07DCC:  BCF    FA6.6
07DCE:  BCF    FA6.7
07DD0:  BSF    FA6.2
07DD2:  MOVF   FF2,W
07DD4:  MOVWF  00
07DD6:  BCF    FF2.6
07DD8:  BCF    FF2.7
07DDA:  MOVLB  F
07DDC:  MOVLW  55
07DDE:  MOVWF  FA7
07DE0:  MOVLW  AA
07DE2:  MOVWF  FA7
07DE4:  BSF    FA6.1
07DE6:  BTFSC  FA6.1
07DE8:  BRA    7DE6
07DEA:  BCF    FA6.2
07DEC:  MOVF   00,W
07DEE:  IORWF  FF2,F
07DF0:  MOVLW  14
07DF2:  MOVLB  6
07DF4:  MOVWF  x37
07DF6:  MOVLB  0
07DF8:  CALL   1F36
....................                write_eeprom(301+(codigoUsuario*4),RX_Buffer[5]-0x30);delay_ms(20); 
07DFC:  MOVLB  2
07DFE:  MOVF   x22,W
07E00:  MULLW  04
07E02:  MOVF   FF3,W
07E04:  ADDLW  2D
07E06:  MOVLB  6
07E08:  MOVWF  x22
07E0A:  MOVLW  01
07E0C:  MOVWF  x23
07E0E:  BTFSC  FD8.0
07E10:  INCF   x23,F
07E12:  MOVLW  30
07E14:  SUBWF  35,W
07E16:  MOVWF  x24
07E18:  MOVFF  623,FAA
07E1C:  MOVFF  622,FA9
07E20:  MOVFF  624,FA8
07E24:  BCF    FA6.6
07E26:  BCF    FA6.7
07E28:  BSF    FA6.2
07E2A:  MOVF   FF2,W
07E2C:  MOVWF  00
07E2E:  BCF    FF2.6
07E30:  BCF    FF2.7
07E32:  MOVLB  F
07E34:  MOVLW  55
07E36:  MOVWF  FA7
07E38:  MOVLW  AA
07E3A:  MOVWF  FA7
07E3C:  BSF    FA6.1
07E3E:  BTFSC  FA6.1
07E40:  BRA    7E3E
07E42:  BCF    FA6.2
07E44:  MOVF   00,W
07E46:  IORWF  FF2,F
07E48:  MOVLW  14
07E4A:  MOVLB  6
07E4C:  MOVWF  x37
07E4E:  MOVLB  0
07E50:  CALL   1F36
....................                write_eeprom(302+(codigoUsuario*4),RX_Buffer[6]-0x30);delay_ms(20); 
07E54:  MOVLB  2
07E56:  MOVF   x22,W
07E58:  MULLW  04
07E5A:  MOVF   FF3,W
07E5C:  ADDLW  2E
07E5E:  MOVLB  6
07E60:  MOVWF  x22
07E62:  MOVLW  01
07E64:  MOVWF  x23
07E66:  BTFSC  FD8.0
07E68:  INCF   x23,F
07E6A:  MOVLW  30
07E6C:  SUBWF  36,W
07E6E:  MOVWF  x24
07E70:  MOVFF  623,FAA
07E74:  MOVFF  622,FA9
07E78:  MOVFF  624,FA8
07E7C:  BCF    FA6.6
07E7E:  BCF    FA6.7
07E80:  BSF    FA6.2
07E82:  MOVF   FF2,W
07E84:  MOVWF  00
07E86:  BCF    FF2.6
07E88:  BCF    FF2.7
07E8A:  MOVLB  F
07E8C:  MOVLW  55
07E8E:  MOVWF  FA7
07E90:  MOVLW  AA
07E92:  MOVWF  FA7
07E94:  BSF    FA6.1
07E96:  BTFSC  FA6.1
07E98:  BRA    7E96
07E9A:  BCF    FA6.2
07E9C:  MOVF   00,W
07E9E:  IORWF  FF2,F
07EA0:  MOVLW  14
07EA2:  MOVLB  6
07EA4:  MOVWF  x37
07EA6:  MOVLB  0
07EA8:  CALL   1F36
....................                write_eeprom(303+(codigoUsuario*4),RX_Buffer[7]-0x30);delay_ms(20); 
07EAC:  MOVLB  2
07EAE:  MOVF   x22,W
07EB0:  MULLW  04
07EB2:  MOVF   FF3,W
07EB4:  ADDLW  2F
07EB6:  MOVLB  6
07EB8:  MOVWF  x22
07EBA:  MOVLW  01
07EBC:  MOVWF  x23
07EBE:  BTFSC  FD8.0
07EC0:  INCF   x23,F
07EC2:  MOVLW  30
07EC4:  SUBWF  37,W
07EC6:  MOVWF  x24
07EC8:  MOVFF  623,FAA
07ECC:  MOVFF  622,FA9
07ED0:  MOVFF  624,FA8
07ED4:  BCF    FA6.6
07ED6:  BCF    FA6.7
07ED8:  BSF    FA6.2
07EDA:  MOVF   FF2,W
07EDC:  MOVWF  00
07EDE:  BCF    FF2.6
07EE0:  BCF    FF2.7
07EE2:  MOVLB  F
07EE4:  MOVLW  55
07EE6:  MOVWF  FA7
07EE8:  MOVLW  AA
07EEA:  MOVWF  FA7
07EEC:  BSF    FA6.1
07EEE:  BTFSC  FA6.1
07EF0:  BRA    7EEE
07EF2:  BCF    FA6.2
07EF4:  MOVF   00,W
07EF6:  IORWF  FF2,F
07EF8:  MOVLW  14
07EFA:  MOVLB  6
07EFC:  MOVWF  x37
07EFE:  MOVLB  0
07F00:  CALL   1F36
....................                GuardaEEPROM=ON; 
07F04:  BSF    x87.4
....................                codigoUsuario=codigoUsuarioant; 
07F06:  MOVFF  223,222
....................             } 
....................             RX_Buffer[3]=0x00; 
07F0A:  CLRF   33
....................             RX_Buffer2[3]=0x00; 
07F0C:  CLRF   3E
07F0E:  MOVLB  1
....................          } 
....................       } 
....................     } 
.................... //_--------------------------------------------------------------------------------------------------------------------------------------------------------        
....................  
.................... //_-------------------------------------------------------------------------------------------------------------------------------------------------------- 
....................    if(Menu==1){ //Menu Principal. 
07F10:  DECFSZ xCF,W
07F12:  GOTO   88A8
....................       printf("fecha.txt=\"Fecha:%02u/%02u/20%02u    Hora: %02u:%02u:%02u\"",Dia,Mes,Year,Hora,Minuto,Segundo); 
07F16:  MOVLW  AE
07F18:  MOVWF  FF6
07F1A:  MOVLW  08
07F1C:  MOVWF  FF7
07F1E:  MOVLW  00
07F20:  MOVWF  FF8
07F22:  MOVLW  11
07F24:  MOVLB  6
07F26:  MOVWF  x27
07F28:  MOVLB  0
07F2A:  CALL   543C
07F2E:  MOVFF  20B,627
07F32:  MOVLW  01
07F34:  MOVLB  6
07F36:  MOVWF  x28
07F38:  MOVLB  0
07F3A:  CALL   54C0
07F3E:  MOVLW  2F
07F40:  BTFSS  F9E.4
07F42:  BRA    7F40
07F44:  MOVWF  FAD
07F46:  MOVFF  20A,627
07F4A:  MOVLW  01
07F4C:  MOVLB  6
07F4E:  MOVWF  x28
07F50:  MOVLB  0
07F52:  CALL   54C0
07F56:  MOVLW  2F
07F58:  BTFSS  F9E.4
07F5A:  BRA    7F58
07F5C:  MOVWF  FAD
07F5E:  MOVLW  32
07F60:  BTFSS  F9E.4
07F62:  BRA    7F60
07F64:  MOVWF  FAD
07F66:  MOVLW  30
07F68:  BTFSS  F9E.4
07F6A:  BRA    7F68
07F6C:  MOVWF  FAD
07F6E:  MOVFF  209,627
07F72:  MOVLW  01
07F74:  MOVLB  6
07F76:  MOVWF  x28
07F78:  MOVLB  0
07F7A:  CALL   54C0
07F7E:  MOVLW  CF
07F80:  MOVWF  FF6
07F82:  MOVLW  08
07F84:  MOVWF  FF7
07F86:  MOVLW  00
07F88:  MOVWF  FF8
07F8A:  MOVLW  0A
07F8C:  MOVLB  6
07F8E:  MOVWF  x27
07F90:  MOVLB  0
07F92:  CALL   543C
07F96:  MOVFF  20C,627
07F9A:  MOVLW  01
07F9C:  MOVLB  6
07F9E:  MOVWF  x28
07FA0:  MOVLB  0
07FA2:  CALL   54C0
07FA6:  MOVLW  3A
07FA8:  BTFSS  F9E.4
07FAA:  BRA    7FA8
07FAC:  MOVWF  FAD
07FAE:  MOVFF  20D,627
07FB2:  MOVLW  01
07FB4:  MOVLB  6
07FB6:  MOVWF  x28
07FB8:  MOVLB  0
07FBA:  CALL   54C0
07FBE:  MOVLW  3A
07FC0:  BTFSS  F9E.4
07FC2:  BRA    7FC0
07FC4:  MOVWF  FAD
07FC6:  MOVFF  20E,627
07FCA:  MOVLW  01
07FCC:  MOVLB  6
07FCE:  MOVWF  x28
07FD0:  MOVLB  0
07FD2:  CALL   54C0
07FD6:  MOVLW  22
07FD8:  BTFSS  F9E.4
07FDA:  BRA    7FD8
07FDC:  MOVWF  FAD
....................       SendDataDisplay(); 
07FDE:  CALL   3EE4
....................       GuardaEEPROM=OFF; 
07FE2:  BCF    x87.4
....................       printf("tuser.txt=\"%s\"",usuario); 
07FE4:  MOVLW  EA
07FE6:  MOVWF  FF6
07FE8:  MOVLW  08
07FEA:  MOVWF  FF7
07FEC:  MOVLW  00
07FEE:  MOVWF  FF8
07FF0:  MOVLW  0B
07FF2:  MOVLB  6
07FF4:  MOVWF  x27
07FF6:  MOVLB  0
07FF8:  CALL   543C
07FFC:  MOVLW  02
07FFE:  MOVWF  FEA
08000:  MOVLW  28
08002:  MOVWF  FE9
08004:  CALL   546E
08008:  MOVLW  22
0800A:  BTFSS  F9E.4
0800C:  BRA    800A
0800E:  MOVWF  FAD
....................       SendDataDisplay(); 
08010:  CALL   3EE4
....................       codigoUsuarioant=codigoUsuario; 
08014:  MOVFF  222,223
....................        
....................       if(RX_Buffer[4]==0x01 && RX_Buffer[5]==0x0f && estados[19+RX_Buffer[4]]){//01, Calentamiento 
08018:  DECFSZ 34,W
0801A:  BRA    80DC
0801C:  MOVF   35,W
0801E:  SUBLW  0F
08020:  BNZ   80DC
08022:  MOVLW  13
08024:  ADDWF  34,W
08026:  MOVLB  6
08028:  MOVWF  x23
0802A:  MOVLW  02
0802C:  MOVWF  x25
0802E:  MOVLW  8E
08030:  MOVWF  x24
08032:  MOVLB  0
08034:  CALL   2376
08038:  BTFSS  01.0
0803A:  BRA    80DC
....................          delay_ms(5); 
0803C:  MOVLW  05
0803E:  MOVLB  6
08040:  MOVWF  x37
08042:  MOVLB  0
08044:  CALL   1F36
....................          if(RX_Buffer[4]==0x01 && RX_Buffer[5]==0x0f && estados[19+RX_Buffer[4]]){//01, Calentamiento 
08048:  DECFSZ 34,W
0804A:  BRA    80DC
0804C:  MOVF   35,W
0804E:  SUBLW  0F
08050:  BNZ   80DC
08052:  MOVLW  13
08054:  ADDWF  34,W
08056:  MOVLB  6
08058:  MOVWF  x23
0805A:  MOVLW  02
0805C:  MOVWF  x25
0805E:  MOVLW  8E
08060:  MOVWF  x24
08062:  MOVLB  0
08064:  CALL   2376
08068:  BTFSS  01.0
0806A:  BRA    80DC
....................             printf("page Funcionamiento"); 
0806C:  MOVLW  FA
0806E:  MOVWF  FF6
08070:  MOVLW  08
08072:  MOVWF  FF7
08074:  MOVLW  00
08076:  MOVWF  FF8
08078:  CALL   3EB2
....................             SendDataDisplay();        
0807C:  CALL   3EE4
....................             ConfiguraCiclo(0,0,5,1,0,0,1,0,0,1,121); 
08080:  MOVLB  6
08082:  CLRF   x2C
08084:  CLRF   x2D
08086:  MOVLW  05
08088:  MOVWF  x2E
0808A:  MOVLW  01
0808C:  MOVWF  x2F
0808E:  CLRF   x30
08090:  CLRF   x31
08092:  MOVWF  x32
08094:  CLRF   x33
08096:  CLRF   x34
08098:  MOVWF  x35
0809A:  MOVLW  79
0809C:  MOVWF  x36
0809E:  MOVLB  0
080A0:  CALL   553E
....................             Op=OFF; 
080A4:  BCF    x87.0
....................             Op2=OFF; 
080A6:  BCF    x87.1
....................             MenuAnt=Menu; 
080A8:  MOVFF  1CF,1D0
....................             CantidadPulsos=7; 
080AC:  MOVLB  1
080AE:  CLRF   xD8
080B0:  MOVLW  07
080B2:  MOVWF  xD7
....................             NivelVacio=32; 
080B4:  MOVLW  20
080B6:  MOVLB  2
080B8:  MOVWF  x12
....................             Fugas=OFF; 
080BA:  MOVLB  0
080BC:  BCF    x89.1
....................             TiempoVacio=CantidadPulsos*180; 
080BE:  MOVFF  1D8,637
080C2:  MOVFF  1D7,636
080C6:  MOVLB  6
080C8:  CLRF   x39
080CA:  MOVLW  B4
080CC:  MOVWF  x38
080CE:  MOVLB  0
080D0:  CALL   23A8
080D4:  MOVFF  02,85
080D8:  MOVFF  01,84
....................          } 
....................       } 
....................        
....................       if(RX_Buffer[4]==0x02 && RX_Buffer[5]==0x0f && estados[19+RX_Buffer[4]]){//02, No Envueltos 134 
080DC:  MOVF   34,W
080DE:  SUBLW  02
080E0:  BNZ   81A6
080E2:  MOVF   35,W
080E4:  SUBLW  0F
080E6:  BNZ   81A6
080E8:  MOVLW  13
080EA:  ADDWF  34,W
080EC:  MOVLB  6
080EE:  MOVWF  x23
080F0:  MOVLW  02
080F2:  MOVWF  x25
080F4:  MOVLW  8E
080F6:  MOVWF  x24
080F8:  MOVLB  0
080FA:  CALL   2376
080FE:  BTFSS  01.0
08100:  BRA    81A6
....................          delay_ms(5); 
08102:  MOVLW  05
08104:  MOVLB  6
08106:  MOVWF  x37
08108:  MOVLB  0
0810A:  CALL   1F36
....................          if(RX_Buffer[4]==0x02 && RX_Buffer[5]==0x0f && estados[19+RX_Buffer[4]]){ 
0810E:  MOVF   34,W
08110:  SUBLW  02
08112:  BNZ   81A6
08114:  MOVF   35,W
08116:  SUBLW  0F
08118:  BNZ   81A6
0811A:  MOVLW  13
0811C:  ADDWF  34,W
0811E:  MOVLB  6
08120:  MOVWF  x23
08122:  MOVLW  02
08124:  MOVWF  x25
08126:  MOVLW  8E
08128:  MOVWF  x24
0812A:  MOVLB  0
0812C:  CALL   2376
08130:  BTFSS  01.0
08132:  BRA    81A6
....................             printf("page Funcionamiento"); 
08134:  MOVLW  0E
08136:  MOVWF  FF6
08138:  MOVLW  09
0813A:  MOVWF  FF7
0813C:  MOVLW  00
0813E:  MOVWF  FF8
08140:  CALL   3EB2
....................             SendDataDisplay();        
08144:  CALL   3EE4
....................             ConfiguraCiclo(0,0,3,0,0,0,1,0,0,2,134); 
08148:  MOVLB  6
0814A:  CLRF   x2C
0814C:  CLRF   x2D
0814E:  MOVLW  03
08150:  MOVWF  x2E
08152:  CLRF   x2F
08154:  CLRF   x30
08156:  CLRF   x31
08158:  MOVLW  01
0815A:  MOVWF  x32
0815C:  CLRF   x33
0815E:  CLRF   x34
08160:  MOVLW  02
08162:  MOVWF  x35
08164:  MOVLW  86
08166:  MOVWF  x36
08168:  MOVLB  0
0816A:  CALL   553E
....................             Op=OFF; 
0816E:  BCF    x87.0
....................             Op2=OFF; 
08170:  BCF    x87.1
....................             MenuAnt=Menu; 
08172:  MOVFF  1CF,1D0
....................             CantidadPulsos=7; 
08176:  MOVLB  1
08178:  CLRF   xD8
0817A:  MOVLW  07
0817C:  MOVWF  xD7
....................             NivelVacio=32; 
0817E:  MOVLW  20
08180:  MOVLB  2
08182:  MOVWF  x12
....................             Fugas=OFF; 
08184:  MOVLB  0
08186:  BCF    x89.1
....................             TiempoVacio=CantidadPulsos*180; 
08188:  MOVFF  1D8,637
0818C:  MOVFF  1D7,636
08190:  MOVLB  6
08192:  CLRF   x39
08194:  MOVLW  B4
08196:  MOVWF  x38
08198:  MOVLB  0
0819A:  CALL   23A8
0819E:  MOVFF  02,85
081A2:  MOVFF  01,84
....................          } 
....................       } 
....................        
....................       if(RX_Buffer[4]==0x03  && RX_Buffer[5]==0x0f && estados[19+RX_Buffer[4]]){//03, No Envueltos 121 
081A6:  MOVF   34,W
081A8:  SUBLW  03
081AA:  BNZ   8270
081AC:  MOVF   35,W
081AE:  SUBLW  0F
081B0:  BNZ   8270
081B2:  MOVLW  13
081B4:  ADDWF  34,W
081B6:  MOVLB  6
081B8:  MOVWF  x23
081BA:  MOVLW  02
081BC:  MOVWF  x25
081BE:  MOVLW  8E
081C0:  MOVWF  x24
081C2:  MOVLB  0
081C4:  CALL   2376
081C8:  BTFSS  01.0
081CA:  BRA    8270
....................          delay_ms(5); 
081CC:  MOVLW  05
081CE:  MOVLB  6
081D0:  MOVWF  x37
081D2:  MOVLB  0
081D4:  CALL   1F36
....................          if(RX_Buffer[4]==0x03 && RX_Buffer[5]==0x0f && estados[19+RX_Buffer[4]]){ 
081D8:  MOVF   34,W
081DA:  SUBLW  03
081DC:  BNZ   8270
081DE:  MOVF   35,W
081E0:  SUBLW  0F
081E2:  BNZ   8270
081E4:  MOVLW  13
081E6:  ADDWF  34,W
081E8:  MOVLB  6
081EA:  MOVWF  x23
081EC:  MOVLW  02
081EE:  MOVWF  x25
081F0:  MOVLW  8E
081F2:  MOVWF  x24
081F4:  MOVLB  0
081F6:  CALL   2376
081FA:  BTFSS  01.0
081FC:  BRA    8270
....................             printf("page Funcionamiento"); 
081FE:  MOVLW  22
08200:  MOVWF  FF6
08202:  MOVLW  09
08204:  MOVWF  FF7
08206:  MOVLW  00
08208:  MOVWF  FF8
0820A:  CALL   3EB2
....................             SendDataDisplay();        
0820E:  CALL   3EE4
....................             ConfiguraCiclo(0,0,5,1,0,0,1,0,0,3,121); 
08212:  MOVLB  6
08214:  CLRF   x2C
08216:  CLRF   x2D
08218:  MOVLW  05
0821A:  MOVWF  x2E
0821C:  MOVLW  01
0821E:  MOVWF  x2F
08220:  CLRF   x30
08222:  CLRF   x31
08224:  MOVWF  x32
08226:  CLRF   x33
08228:  CLRF   x34
0822A:  MOVLW  03
0822C:  MOVWF  x35
0822E:  MOVLW  79
08230:  MOVWF  x36
08232:  MOVLB  0
08234:  CALL   553E
....................             Op=OFF; 
08238:  BCF    x87.0
....................             Op2=OFF; 
0823A:  BCF    x87.1
....................             MenuAnt=Menu; 
0823C:  MOVFF  1CF,1D0
....................             CantidadPulsos=7; 
08240:  MOVLB  1
08242:  CLRF   xD8
08244:  MOVLW  07
08246:  MOVWF  xD7
....................             NivelVacio=32; 
08248:  MOVLW  20
0824A:  MOVLB  2
0824C:  MOVWF  x12
....................             Fugas=OFF; 
0824E:  MOVLB  0
08250:  BCF    x89.1
....................             TiempoVacio=CantidadPulsos*180; 
08252:  MOVFF  1D8,637
08256:  MOVFF  1D7,636
0825A:  MOVLB  6
0825C:  CLRF   x39
0825E:  MOVLW  B4
08260:  MOVWF  x38
08262:  MOVLB  0
08264:  CALL   23A8
08268:  MOVFF  02,85
0826C:  MOVFF  01,84
....................          } 
....................       } 
....................        
....................       if(RX_Buffer[4]==0x04 && RX_Buffer[5]==0x0f && estados[19+RX_Buffer[4]]){//04, Envueltos 134 
08270:  MOVF   34,W
08272:  SUBLW  04
08274:  BNZ   833C
08276:  MOVF   35,W
08278:  SUBLW  0F
0827A:  BNZ   833C
0827C:  MOVLW  13
0827E:  ADDWF  34,W
08280:  MOVLB  6
08282:  MOVWF  x23
08284:  MOVLW  02
08286:  MOVWF  x25
08288:  MOVLW  8E
0828A:  MOVWF  x24
0828C:  MOVLB  0
0828E:  CALL   2376
08292:  BTFSS  01.0
08294:  BRA    833C
....................          delay_ms(5); 
08296:  MOVLW  05
08298:  MOVLB  6
0829A:  MOVWF  x37
0829C:  MOVLB  0
0829E:  CALL   1F36
....................          if(RX_Buffer[4]==0x04 && RX_Buffer[5]==0x0f && estados[19+RX_Buffer[4]]){ 
082A2:  MOVF   34,W
082A4:  SUBLW  04
082A6:  BNZ   833C
082A8:  MOVF   35,W
082AA:  SUBLW  0F
082AC:  BNZ   833C
082AE:  MOVLW  13
082B0:  ADDWF  34,W
082B2:  MOVLB  6
082B4:  MOVWF  x23
082B6:  MOVLW  02
082B8:  MOVWF  x25
082BA:  MOVLW  8E
082BC:  MOVWF  x24
082BE:  MOVLB  0
082C0:  CALL   2376
082C4:  BTFSS  01.0
082C6:  BRA    833C
....................             printf("page Funcionamiento"); 
082C8:  MOVLW  36
082CA:  MOVWF  FF6
082CC:  MOVLW  09
082CE:  MOVWF  FF7
082D0:  MOVLW  00
082D2:  MOVWF  FF8
082D4:  CALL   3EB2
....................             SendDataDisplay();        
082D8:  CALL   3EE4
....................             ConfiguraCiclo(0,0,4,0,0,0,5,1,0,4,134); 
082DC:  MOVLB  6
082DE:  CLRF   x2C
082E0:  CLRF   x2D
082E2:  MOVLW  04
082E4:  MOVWF  x2E
082E6:  CLRF   x2F
082E8:  CLRF   x30
082EA:  CLRF   x31
082EC:  MOVLW  05
082EE:  MOVWF  x32
082F0:  MOVLW  01
082F2:  MOVWF  x33
082F4:  CLRF   x34
082F6:  MOVLW  04
082F8:  MOVWF  x35
082FA:  MOVLW  86
082FC:  MOVWF  x36
082FE:  MOVLB  0
08300:  CALL   553E
....................             Op=OFF; 
08304:  BCF    x87.0
....................             Op2=OFF; 
08306:  BCF    x87.1
....................             MenuAnt=Menu; 
08308:  MOVFF  1CF,1D0
....................             CantidadPulsos=7; 
0830C:  MOVLB  1
0830E:  CLRF   xD8
08310:  MOVLW  07
08312:  MOVWF  xD7
....................             NivelVacio=32; 
08314:  MOVLW  20
08316:  MOVLB  2
08318:  MOVWF  x12
....................             Fugas=OFF; 
0831A:  MOVLB  0
0831C:  BCF    x89.1
....................             TiempoVacio=CantidadPulsos*180; 
0831E:  MOVFF  1D8,637
08322:  MOVFF  1D7,636
08326:  MOVLB  6
08328:  CLRF   x39
0832A:  MOVLW  B4
0832C:  MOVWF  x38
0832E:  MOVLB  0
08330:  CALL   23A8
08334:  MOVFF  02,85
08338:  MOVFF  01,84
....................          } 
....................       } 
....................        
....................       if(RX_Buffer[4]==0x05 && RX_Buffer[5]==0x0f && estados[19+RX_Buffer[4]]){//05, Envueltos 121 
0833C:  MOVF   34,W
0833E:  SUBLW  05
08340:  BNZ   840A
08342:  MOVF   35,W
08344:  SUBLW  0F
08346:  BNZ   840A
08348:  MOVLW  13
0834A:  ADDWF  34,W
0834C:  MOVLB  6
0834E:  MOVWF  x23
08350:  MOVLW  02
08352:  MOVWF  x25
08354:  MOVLW  8E
08356:  MOVWF  x24
08358:  MOVLB  0
0835A:  CALL   2376
0835E:  BTFSS  01.0
08360:  BRA    840A
....................          delay_ms(5); 
08362:  MOVLW  05
08364:  MOVLB  6
08366:  MOVWF  x37
08368:  MOVLB  0
0836A:  CALL   1F36
....................          if(RX_Buffer[4]==0x05 && RX_Buffer[5]==0x0f && estados[19+RX_Buffer[4]]){ 
0836E:  MOVF   34,W
08370:  SUBLW  05
08372:  BNZ   840A
08374:  MOVF   35,W
08376:  SUBLW  0F
08378:  BNZ   840A
0837A:  MOVLW  13
0837C:  ADDWF  34,W
0837E:  MOVLB  6
08380:  MOVWF  x23
08382:  MOVLW  02
08384:  MOVWF  x25
08386:  MOVLW  8E
08388:  MOVWF  x24
0838A:  MOVLB  0
0838C:  CALL   2376
08390:  BTFSS  01.0
08392:  BRA    840A
....................             printf("page Funcionamiento"); 
08394:  MOVLW  4A
08396:  MOVWF  FF6
08398:  MOVLW  09
0839A:  MOVWF  FF7
0839C:  MOVLW  00
0839E:  MOVWF  FF8
083A0:  CALL   3EB2
....................             SendDataDisplay();        
083A4:  CALL   3EE4
....................             ConfiguraCiclo(0,0,5,1,0,0,5,1,0,5,121); 
083A8:  MOVLB  6
083AA:  CLRF   x2C
083AC:  CLRF   x2D
083AE:  MOVLW  05
083B0:  MOVWF  x2E
083B2:  MOVLW  01
083B4:  MOVWF  x2F
083B6:  CLRF   x30
083B8:  CLRF   x31
083BA:  MOVLW  05
083BC:  MOVWF  x32
083BE:  MOVLW  01
083C0:  MOVWF  x33
083C2:  CLRF   x34
083C4:  MOVLW  05
083C6:  MOVWF  x35
083C8:  MOVLW  79
083CA:  MOVWF  x36
083CC:  MOVLB  0
083CE:  CALL   553E
....................             Op=OFF; 
083D2:  BCF    x87.0
....................             Op2=OFF; 
083D4:  BCF    x87.1
....................             MenuAnt=Menu; 
083D6:  MOVFF  1CF,1D0
....................             CantidadPulsos=7; 
083DA:  MOVLB  1
083DC:  CLRF   xD8
083DE:  MOVLW  07
083E0:  MOVWF  xD7
....................             NivelVacio=32; 
083E2:  MOVLW  20
083E4:  MOVLB  2
083E6:  MOVWF  x12
....................             Fugas=OFF; 
083E8:  MOVLB  0
083EA:  BCF    x89.1
....................             TiempoVacio=CantidadPulsos*180; 
083EC:  MOVFF  1D8,637
083F0:  MOVFF  1D7,636
083F4:  MOVLB  6
083F6:  CLRF   x39
083F8:  MOVLW  B4
083FA:  MOVWF  x38
083FC:  MOVLB  0
083FE:  CALL   23A8
08402:  MOVFF  02,85
08406:  MOVFF  01,84
....................          } 
....................       } 
....................        
....................       if(RX_Buffer[4]==0x06 && RX_Buffer[5]==0x0f && estados[19+RX_Buffer[4]]){//06, Envuelto Doble 1 
0840A:  MOVF   34,W
0840C:  SUBLW  06
0840E:  BNZ   84D4
08410:  MOVF   35,W
08412:  SUBLW  0F
08414:  BNZ   84D4
08416:  MOVLW  13
08418:  ADDWF  34,W
0841A:  MOVLB  6
0841C:  MOVWF  x23
0841E:  MOVLW  02
08420:  MOVWF  x25
08422:  MOVLW  8E
08424:  MOVWF  x24
08426:  MOVLB  0
08428:  CALL   2376
0842C:  BTFSS  01.0
0842E:  BRA    84D4
....................          delay_ms(5); 
08430:  MOVLW  05
08432:  MOVLB  6
08434:  MOVWF  x37
08436:  MOVLB  0
08438:  CALL   1F36
....................          if(RX_Buffer[4]==0x06 && RX_Buffer[5]==0x0f && estados[19+RX_Buffer[4]]){ 
0843C:  MOVF   34,W
0843E:  SUBLW  06
08440:  BNZ   84D4
08442:  MOVF   35,W
08444:  SUBLW  0F
08446:  BNZ   84D4
08448:  MOVLW  13
0844A:  ADDWF  34,W
0844C:  MOVLB  6
0844E:  MOVWF  x23
08450:  MOVLW  02
08452:  MOVWF  x25
08454:  MOVLW  8E
08456:  MOVWF  x24
08458:  MOVLB  0
0845A:  CALL   2376
0845E:  BTFSS  01.0
08460:  BRA    84D4
....................             printf("page Funcionamiento"); 
08462:  MOVLW  5E
08464:  MOVWF  FF6
08466:  MOVLW  09
08468:  MOVWF  FF7
0846A:  MOVLW  00
0846C:  MOVWF  FF8
0846E:  CALL   3EB2
....................             SendDataDisplay();        
08472:  CALL   3EE4
....................             ConfiguraCiclo(0,0,7,0,0,0,0,2,0,6,134); 
08476:  MOVLB  6
08478:  CLRF   x2C
0847A:  CLRF   x2D
0847C:  MOVLW  07
0847E:  MOVWF  x2E
08480:  CLRF   x2F
08482:  CLRF   x30
08484:  CLRF   x31
08486:  CLRF   x32
08488:  MOVLW  02
0848A:  MOVWF  x33
0848C:  CLRF   x34
0848E:  MOVLW  06
08490:  MOVWF  x35
08492:  MOVLW  86
08494:  MOVWF  x36
08496:  MOVLB  0
08498:  CALL   553E
....................             Op=OFF; 
0849C:  BCF    x87.0
....................             Op2=OFF; 
0849E:  BCF    x87.1
....................             MenuAnt=Menu; 
084A0:  MOVFF  1CF,1D0
....................             CantidadPulsos=7; 
084A4:  MOVLB  1
084A6:  CLRF   xD8
084A8:  MOVLW  07
084AA:  MOVWF  xD7
....................             NivelVacio=32; 
084AC:  MOVLW  20
084AE:  MOVLB  2
084B0:  MOVWF  x12
....................             Fugas=OFF; 
084B2:  MOVLB  0
084B4:  BCF    x89.1
....................             TiempoVacio=CantidadPulsos*180; 
084B6:  MOVFF  1D8,637
084BA:  MOVFF  1D7,636
084BE:  MOVLB  6
084C0:  CLRF   x39
084C2:  MOVLW  B4
084C4:  MOVWF  x38
084C6:  MOVLB  0
084C8:  CALL   23A8
084CC:  MOVFF  02,85
084D0:  MOVFF  01,84
....................          } 
....................       } 
....................        
....................       if(RX_Buffer[4]==0x07 && RX_Buffer[5]==0x0f && estados[19+RX_Buffer[4]]){//07, Envuelto Doble 2 
084D4:  MOVF   34,W
084D6:  SUBLW  07
084D8:  BNZ   859E
084DA:  MOVF   35,W
084DC:  SUBLW  0F
084DE:  BNZ   859E
084E0:  MOVLW  13
084E2:  ADDWF  34,W
084E4:  MOVLB  6
084E6:  MOVWF  x23
084E8:  MOVLW  02
084EA:  MOVWF  x25
084EC:  MOVLW  8E
084EE:  MOVWF  x24
084F0:  MOVLB  0
084F2:  CALL   2376
084F6:  BTFSS  01.0
084F8:  BRA    859E
....................          delay_ms(5); 
084FA:  MOVLW  05
084FC:  MOVLB  6
084FE:  MOVWF  x37
08500:  MOVLB  0
08502:  CALL   1F36
....................          if(RX_Buffer[4]==0x07 && RX_Buffer[5]==0x0f && estados[19+RX_Buffer[4]]){ 
08506:  MOVF   34,W
08508:  SUBLW  07
0850A:  BNZ   859E
0850C:  MOVF   35,W
0850E:  SUBLW  0F
08510:  BNZ   859E
08512:  MOVLW  13
08514:  ADDWF  34,W
08516:  MOVLB  6
08518:  MOVWF  x23
0851A:  MOVLW  02
0851C:  MOVWF  x25
0851E:  MOVLW  8E
08520:  MOVWF  x24
08522:  MOVLB  0
08524:  CALL   2376
08528:  BTFSS  01.0
0852A:  BRA    859E
....................             printf("page Funcionamiento"); 
0852C:  MOVLW  72
0852E:  MOVWF  FF6
08530:  MOVLW  09
08532:  MOVWF  FF7
08534:  MOVLW  00
08536:  MOVWF  FF8
08538:  CALL   3EB2
....................             SendDataDisplay();        
0853C:  CALL   3EE4
....................             ConfiguraCiclo(0,0,7,0,0,0,0,3,0,7,134); 
08540:  MOVLB  6
08542:  CLRF   x2C
08544:  CLRF   x2D
08546:  MOVLW  07
08548:  MOVWF  x2E
0854A:  CLRF   x2F
0854C:  CLRF   x30
0854E:  CLRF   x31
08550:  CLRF   x32
08552:  MOVLW  03
08554:  MOVWF  x33
08556:  CLRF   x34
08558:  MOVLW  07
0855A:  MOVWF  x35
0855C:  MOVLW  86
0855E:  MOVWF  x36
08560:  MOVLB  0
08562:  CALL   553E
....................             Op=OFF; 
08566:  BCF    x87.0
....................             Op2=OFF; 
08568:  BCF    x87.1
....................             MenuAnt=Menu; 
0856A:  MOVFF  1CF,1D0
....................             CantidadPulsos=7; 
0856E:  MOVLB  1
08570:  CLRF   xD8
08572:  MOVLW  07
08574:  MOVWF  xD7
....................             NivelVacio=32; 
08576:  MOVLW  20
08578:  MOVLB  2
0857A:  MOVWF  x12
....................             Fugas=OFF; 
0857C:  MOVLB  0
0857E:  BCF    x89.1
....................             TiempoVacio=CantidadPulsos*180; 
08580:  MOVFF  1D8,637
08584:  MOVFF  1D7,636
08588:  MOVLB  6
0858A:  CLRF   x39
0858C:  MOVLW  B4
0858E:  MOVWF  x38
08590:  MOVLB  0
08592:  CALL   23A8
08596:  MOVFF  02,85
0859A:  MOVFF  01,84
....................          } 
....................       } 
....................        
....................       if(RX_Buffer[4]==0x08 && RX_Buffer[5]==0x0f && estados[19+RX_Buffer[4]]){//08, Prion 
0859E:  MOVF   34,W
085A0:  SUBLW  08
085A2:  BNZ   866C
085A4:  MOVF   35,W
085A6:  SUBLW  0F
085A8:  BNZ   866C
085AA:  MOVLW  13
085AC:  ADDWF  34,W
085AE:  MOVLB  6
085B0:  MOVWF  x23
085B2:  MOVLW  02
085B4:  MOVWF  x25
085B6:  MOVLW  8E
085B8:  MOVWF  x24
085BA:  MOVLB  0
085BC:  CALL   2376
085C0:  BTFSS  01.0
085C2:  BRA    866C
....................          delay_ms(5); 
085C4:  MOVLW  05
085C6:  MOVLB  6
085C8:  MOVWF  x37
085CA:  MOVLB  0
085CC:  CALL   1F36
....................          if(RX_Buffer[4]==0x08 && RX_Buffer[5]==0x0f && estados[19+RX_Buffer[4]]){ 
085D0:  MOVF   34,W
085D2:  SUBLW  08
085D4:  BNZ   866C
085D6:  MOVF   35,W
085D8:  SUBLW  0F
085DA:  BNZ   866C
085DC:  MOVLW  13
085DE:  ADDWF  34,W
085E0:  MOVLB  6
085E2:  MOVWF  x23
085E4:  MOVLW  02
085E6:  MOVWF  x25
085E8:  MOVLW  8E
085EA:  MOVWF  x24
085EC:  MOVLB  0
085EE:  CALL   2376
085F2:  BTFSS  01.0
085F4:  BRA    866C
....................             printf("page Funcionamiento"); 
085F6:  MOVLW  86
085F8:  MOVWF  FF6
085FA:  MOVLW  09
085FC:  MOVWF  FF7
085FE:  MOVLW  00
08600:  MOVWF  FF8
08602:  CALL   3EB2
....................             SendDataDisplay();        
08606:  CALL   3EE4
....................             ConfiguraCiclo(0,0,8,1,0,0,5,1,0,8,134); 
0860A:  MOVLB  6
0860C:  CLRF   x2C
0860E:  CLRF   x2D
08610:  MOVLW  08
08612:  MOVWF  x2E
08614:  MOVLW  01
08616:  MOVWF  x2F
08618:  CLRF   x30
0861A:  CLRF   x31
0861C:  MOVLW  05
0861E:  MOVWF  x32
08620:  MOVLW  01
08622:  MOVWF  x33
08624:  CLRF   x34
08626:  MOVLW  08
08628:  MOVWF  x35
0862A:  MOVLW  86
0862C:  MOVWF  x36
0862E:  MOVLB  0
08630:  CALL   553E
....................             Op=OFF; 
08634:  BCF    x87.0
....................             Op2=OFF; 
08636:  BCF    x87.1
....................             MenuAnt=Menu; 
08638:  MOVFF  1CF,1D0
....................             CantidadPulsos=7; 
0863C:  MOVLB  1
0863E:  CLRF   xD8
08640:  MOVLW  07
08642:  MOVWF  xD7
....................             NivelVacio=32; 
08644:  MOVLW  20
08646:  MOVLB  2
08648:  MOVWF  x12
....................             Fugas=OFF; 
0864A:  MOVLB  0
0864C:  BCF    x89.1
....................             TiempoVacio=CantidadPulsos*180; 
0864E:  MOVFF  1D8,637
08652:  MOVFF  1D7,636
08656:  MOVLB  6
08658:  CLRF   x39
0865A:  MOVLW  B4
0865C:  MOVWF  x38
0865E:  MOVLB  0
08660:  CALL   23A8
08664:  MOVFF  02,85
08668:  MOVFF  01,84
....................          } 
....................       } 
....................        
....................       if(RX_Buffer[4]==0x09 && RX_Buffer[5]==0x0f && estados[19+RX_Buffer[4]]){//09, Bowie & Dick 
0866C:  MOVF   34,W
0866E:  SUBLW  09
08670:  BNZ   8736
08672:  MOVF   35,W
08674:  SUBLW  0F
08676:  BNZ   8736
08678:  MOVLW  13
0867A:  ADDWF  34,W
0867C:  MOVLB  6
0867E:  MOVWF  x23
08680:  MOVLW  02
08682:  MOVWF  x25
08684:  MOVLW  8E
08686:  MOVWF  x24
08688:  MOVLB  0
0868A:  CALL   2376
0868E:  BTFSS  01.0
08690:  BRA    8736
....................          delay_ms(5); 
08692:  MOVLW  05
08694:  MOVLB  6
08696:  MOVWF  x37
08698:  MOVLB  0
0869A:  CALL   1F36
....................          if(RX_Buffer[4]==0x09 && RX_Buffer[5]==0x0f && estados[19+RX_Buffer[4]]){ 
0869E:  MOVF   34,W
086A0:  SUBLW  09
086A2:  BNZ   8736
086A4:  MOVF   35,W
086A6:  SUBLW  0F
086A8:  BNZ   8736
086AA:  MOVLW  13
086AC:  ADDWF  34,W
086AE:  MOVLB  6
086B0:  MOVWF  x23
086B2:  MOVLW  02
086B4:  MOVWF  x25
086B6:  MOVLW  8E
086B8:  MOVWF  x24
086BA:  MOVLB  0
086BC:  CALL   2376
086C0:  BTFSS  01.0
086C2:  BRA    8736
....................             printf("page Funcionamiento"); 
086C4:  MOVLW  9A
086C6:  MOVWF  FF6
086C8:  MOVLW  09
086CA:  MOVWF  FF7
086CC:  MOVLW  00
086CE:  MOVWF  FF8
086D0:  CALL   3EB2
....................             SendDataDisplay();        
086D4:  CALL   3EE4
....................             ConfiguraCiclo(0,3,3,0,0,0,2,0,0,9,134); 
086D8:  MOVLB  6
086DA:  CLRF   x2C
086DC:  MOVLW  03
086DE:  MOVWF  x2D
086E0:  MOVWF  x2E
086E2:  CLRF   x2F
086E4:  CLRF   x30
086E6:  CLRF   x31
086E8:  MOVLW  02
086EA:  MOVWF  x32
086EC:  CLRF   x33
086EE:  CLRF   x34
086F0:  MOVLW  09
086F2:  MOVWF  x35
086F4:  MOVLW  86
086F6:  MOVWF  x36
086F8:  MOVLB  0
086FA:  CALL   553E
....................             Op=OFF; 
086FE:  BCF    x87.0
....................             Op2=OFF; 
08700:  BCF    x87.1
....................             MenuAnt=Menu; 
08702:  MOVFF  1CF,1D0
....................             CantidadPulsos=7; 
08706:  MOVLB  1
08708:  CLRF   xD8
0870A:  MOVLW  07
0870C:  MOVWF  xD7
....................             NivelVacio=32; 
0870E:  MOVLW  20
08710:  MOVLB  2
08712:  MOVWF  x12
....................             Fugas=OFF; 
08714:  MOVLB  0
08716:  BCF    x89.1
....................             TiempoVacio=CantidadPulsos*180; 
08718:  MOVFF  1D8,637
0871C:  MOVFF  1D7,636
08720:  MOVLB  6
08722:  CLRF   x39
08724:  MOVLW  B4
08726:  MOVWF  x38
08728:  MOVLB  0
0872A:  CALL   23A8
0872E:  MOVFF  02,85
08732:  MOVFF  01,84
....................          } 
....................       } 
....................        
....................       if(RX_Buffer[4]==0x0a && RX_Buffer[5]==0x0f && estados[19+RX_Buffer[4]]){//0a, Test de Fugas 
08736:  MOVF   34,W
08738:  SUBLW  0A
0873A:  BNZ   87FE
0873C:  MOVF   35,W
0873E:  SUBLW  0F
08740:  BNZ   87FE
08742:  MOVLW  13
08744:  ADDWF  34,W
08746:  MOVLB  6
08748:  MOVWF  x23
0874A:  MOVLW  02
0874C:  MOVWF  x25
0874E:  MOVLW  8E
08750:  MOVWF  x24
08752:  MOVLB  0
08754:  CALL   2376
08758:  BTFSS  01.0
0875A:  BRA    87FE
....................          delay_ms(5); 
0875C:  MOVLW  05
0875E:  MOVLB  6
08760:  MOVWF  x37
08762:  MOVLB  0
08764:  CALL   1F36
....................          if(RX_Buffer[4]==0x0a && RX_Buffer[5]==0x0f && estados[19+RX_Buffer[4]]){ 
08768:  MOVF   34,W
0876A:  SUBLW  0A
0876C:  BNZ   87FE
0876E:  MOVF   35,W
08770:  SUBLW  0F
08772:  BNZ   87FE
08774:  MOVLW  13
08776:  ADDWF  34,W
08778:  MOVLB  6
0877A:  MOVWF  x23
0877C:  MOVLW  02
0877E:  MOVWF  x25
08780:  MOVLW  8E
08782:  MOVWF  x24
08784:  MOVLB  0
08786:  CALL   2376
0878A:  BTFSS  01.0
0878C:  BRA    87FE
....................             printf("page Funcionamiento"); 
0878E:  MOVLW  AE
08790:  MOVWF  FF6
08792:  MOVLW  09
08794:  MOVWF  FF7
08796:  MOVLW  00
08798:  MOVWF  FF8
0879A:  CALL   3EB2
....................             SendDataDisplay();        
0879E:  CALL   3EE4
....................             ConfiguraCiclo(0,0,5,1,0,0,0,0,0,10,0); 
087A2:  MOVLB  6
087A4:  CLRF   x2C
087A6:  CLRF   x2D
087A8:  MOVLW  05
087AA:  MOVWF  x2E
087AC:  MOVLW  01
087AE:  MOVWF  x2F
087B0:  CLRF   x30
087B2:  CLRF   x31
087B4:  CLRF   x32
087B6:  CLRF   x33
087B8:  CLRF   x34
087BA:  MOVLW  0A
087BC:  MOVWF  x35
087BE:  CLRF   x36
087C0:  MOVLB  0
087C2:  CALL   553E
....................             Op=OFF; 
087C6:  BCF    x87.0
....................             Op2=OFF; 
087C8:  BCF    x87.1
....................             MenuAnt=Menu; 
087CA:  MOVFF  1CF,1D0
....................             CantidadPulsos=1; 
087CE:  MOVLB  1
087D0:  CLRF   xD8
087D2:  MOVLW  01
087D4:  MOVWF  xD7
....................             NivelVacio=17; 
087D6:  MOVLW  11
087D8:  MOVLB  2
087DA:  MOVWF  x12
....................             Fugas=ON; 
087DC:  MOVLB  0
087DE:  BSF    x89.1
....................             TiempoVacio=CantidadPulsos*180; 
087E0:  MOVFF  1D8,637
087E4:  MOVFF  1D7,636
087E8:  MOVLB  6
087EA:  CLRF   x39
087EC:  MOVLW  B4
087EE:  MOVWF  x38
087F0:  MOVLB  0
087F2:  CALL   23A8
087F6:  MOVFF  02,85
087FA:  MOVFF  01,84
....................          } 
....................       } 
....................        
....................       if(RX_Buffer[4]==0xa0){//a0, Ciclos Fijos 
087FE:  MOVF   34,W
08800:  SUBLW  A0
08802:  BNZ   8818
....................          printf("page Menu"); 
08804:  MOVLW  C2
08806:  MOVWF  FF6
08808:  MOVLW  09
0880A:  MOVWF  FF7
0880C:  MOVLW  00
0880E:  MOVWF  FF8
08810:  CALL   3EB2
....................          SendDataDisplay();      
08814:  CALL   3EE4
....................       } 
....................        
....................       if(RX_Buffer[4]==0xb0){//b0, Personalizados 
08818:  MOVF   34,W
0881A:  SUBLW  B0
0881C:  BNZ   8832
....................          printf("page CicloPersona"); 
0881E:  MOVLW  CC
08820:  MOVWF  FF6
08822:  MOVLW  09
08824:  MOVWF  FF7
08826:  MOVLW  00
08828:  MOVWF  FF8
0882A:  CALL   3EB2
....................          SendDataDisplay();      
0882E:  CALL   3EE4
....................       } 
....................        
....................       if(RX_Buffer[4]==0xc0){//c0, Configuraciones 
08832:  MOVF   34,W
08834:  SUBLW  C0
08836:  BNZ   885A
....................          if(codigoUsuario==0 || codigoUsuario==9){        
08838:  MOVLB  2
0883A:  MOVF   x22,F
0883C:  BZ    8844
0883E:  MOVF   x22,W
08840:  SUBLW  09
08842:  BNZ   885C
....................             printf("page Ajustes"); 
08844:  MOVLW  DE
08846:  MOVWF  FF6
08848:  MOVLW  09
0884A:  MOVWF  FF7
0884C:  MOVLW  00
0884E:  MOVWF  FF8
08850:  MOVLB  0
08852:  CALL   3EB2
....................             SendDataDisplay();      
08856:  CALL   3EE4
0885A:  MOVLB  2
....................          } 
....................       } 
....................  
....................          if(RIGHT && LEFT){ 
0885C:  BSF    F93.4
0885E:  BTFSC  F81.4
08860:  BRA    88AC
08862:  BSF    F93.3
08864:  BTFSC  F81.3
08866:  BRA    88AC
....................             delay_ms(20); 
08868:  MOVLW  14
0886A:  MOVLB  6
0886C:  MOVWF  x37
0886E:  MOVLB  0
08870:  CALL   1F36
....................             if(RIGHT && LEFT){ 
08874:  BSF    F93.4
08876:  BTFSC  F81.4
08878:  BRA    88AA
0887A:  BSF    F93.3
0887C:  BTFSC  F81.3
0887E:  BRA    88AA
....................                printf("page Clave"); 
08880:  MOVLW  EC
08882:  MOVWF  FF6
08884:  MOVLW  09
08886:  MOVWF  FF7
08888:  MOVLW  00
0888A:  MOVWF  FF8
0888C:  CALL   3EB2
....................                SendDataDisplay();  
08890:  CALL   3EE4
....................                Op=OFF; 
08894:  BCF    x87.0
....................                Op2=OFF; 
08896:  BCF    x87.1
....................                MenuAnt=Menu; 
08898:  MOVFF  1CF,1D0
....................                TipoClave=1; 
0889C:  MOVLW  01
0889E:  MOVLB  1
088A0:  MOVWF  x75
....................                RX_Buffer[3]=0x00; 
088A2:  CLRF   33
....................                RX_Buffer2[3]=0x00; 
088A4:  CLRF   3E
....................                Opcion=0; 
088A6:  CLRF   xDA
088A8:  MOVLB  0
088AA:  MOVLB  2
....................             } 
....................          } 
....................    } 
.................... //_--------------------------------------------------------------------------------------------------------------------------------------------------------        
....................  
.................... //_-------------------------------------------------------------------------------------------------------------------------------------------------------- 
....................     if(Menu==2){ //Menu de Tiempo Esterilizacion      
088AC:  MOVLB  1
088AE:  MOVF   xCF,W
088B0:  SUBLW  02
088B2:  BTFSS  FD8.2
088B4:  BRA    8CCE
....................       printf("fecha.txt=\"Fecha:%02u/%02u/20%02u    Hora: %02u:%02u:%02u\"",Dia,Mes,Year,Hora,Minuto,Segundo); 
088B6:  MOVLW  F8
088B8:  MOVWF  FF6
088BA:  MOVLW  09
088BC:  MOVWF  FF7
088BE:  MOVLW  00
088C0:  MOVWF  FF8
088C2:  MOVLW  11
088C4:  MOVLB  6
088C6:  MOVWF  x27
088C8:  MOVLB  0
088CA:  CALL   543C
088CE:  MOVFF  20B,627
088D2:  MOVLW  01
088D4:  MOVLB  6
088D6:  MOVWF  x28
088D8:  MOVLB  0
088DA:  CALL   54C0
088DE:  MOVLW  2F
088E0:  BTFSS  F9E.4
088E2:  BRA    88E0
088E4:  MOVWF  FAD
088E6:  MOVFF  20A,627
088EA:  MOVLW  01
088EC:  MOVLB  6
088EE:  MOVWF  x28
088F0:  MOVLB  0
088F2:  CALL   54C0
088F6:  MOVLW  2F
088F8:  BTFSS  F9E.4
088FA:  BRA    88F8
088FC:  MOVWF  FAD
088FE:  MOVLW  32
08900:  BTFSS  F9E.4
08902:  BRA    8900
08904:  MOVWF  FAD
08906:  MOVLW  30
08908:  BTFSS  F9E.4
0890A:  BRA    8908
0890C:  MOVWF  FAD
0890E:  MOVFF  209,627
08912:  MOVLW  01
08914:  MOVLB  6
08916:  MOVWF  x28
08918:  MOVLB  0
0891A:  CALL   54C0
0891E:  MOVLW  19
08920:  MOVWF  FF6
08922:  MOVLW  0A
08924:  MOVWF  FF7
08926:  MOVLW  00
08928:  MOVWF  FF8
0892A:  MOVLW  0A
0892C:  MOVLB  6
0892E:  MOVWF  x27
08930:  MOVLB  0
08932:  CALL   543C
08936:  MOVFF  20C,627
0893A:  MOVLW  01
0893C:  MOVLB  6
0893E:  MOVWF  x28
08940:  MOVLB  0
08942:  CALL   54C0
08946:  MOVLW  3A
08948:  BTFSS  F9E.4
0894A:  BRA    8948
0894C:  MOVWF  FAD
0894E:  MOVFF  20D,627
08952:  MOVLW  01
08954:  MOVLB  6
08956:  MOVWF  x28
08958:  MOVLB  0
0895A:  CALL   54C0
0895E:  MOVLW  3A
08960:  BTFSS  F9E.4
08962:  BRA    8960
08964:  MOVWF  FAD
08966:  MOVFF  20E,627
0896A:  MOVLW  01
0896C:  MOVLB  6
0896E:  MOVWF  x28
08970:  MOVLB  0
08972:  CALL   54C0
08976:  MOVLW  22
08978:  BTFSS  F9E.4
0897A:  BRA    8978
0897C:  MOVWF  FAD
....................       SendDataDisplay(); 
0897E:  CALL   3EE4
....................          if(RX_Buffer[4]==0x0a){//Selecciono Minutos 
08982:  MOVF   34,W
08984:  SUBLW  0A
08986:  BNZ   898C
....................             Minutos=ON; 
08988:  BSF    x87.2
....................             Segundos=OFF; 
0898A:  BCF    x87.3
....................          } 
....................           
....................          if(RX_Buffer[4]==0x0b){//Selecciono Segundos 
0898C:  MOVF   34,W
0898E:  SUBLW  0B
08990:  BNZ   8996
....................             Segundos=ON; 
08992:  BSF    x87.3
....................             Minutos=OFF; 
08994:  BCF    x87.2
....................          } 
....................           
....................          if(RX_Buffer[4]==0x11){//Selecciono Regresar 
08996:  MOVF   34,W
08998:  SUBLW  11
0899A:  BTFSS  FD8.2
0899C:  BRA    8B10
....................             Segundos=OFF; 
0899E:  BCF    x87.3
....................             Minutos=OFF; 
089A0:  BCF    x87.2
....................             printf("page CicloPersona"); 
089A2:  MOVLW  34
089A4:  MOVWF  FF6
089A6:  MOVLW  0A
089A8:  MOVWF  FF7
089AA:  MOVLW  00
089AC:  MOVWF  FF8
089AE:  CALL   3EB2
....................             SendDataDisplay();   
089B2:  CALL   3EE4
....................             PantallaPrincipal=1; 
089B6:  MOVLW  01
089B8:  MOVLB  1
089BA:  MOVWF  x74
....................             Op=OFF; 
089BC:  MOVLB  0
089BE:  BCF    x87.0
....................             Op2=OFF; 
089C0:  BCF    x87.1
....................             if(!GuardaEEPROM){ 
089C2:  BTFSC  x87.4
089C4:  BRA    8B10
....................                CiclosPersonalizados[CicloLibre-1].Minutoest=Testerilizacionp[2]+(Testerilizacionp[3]*10); 
089C6:  MOVLW  01
089C8:  MOVLB  2
089CA:  SUBWF  x1F,W
089CC:  MULLW  08
089CE:  MOVF   FF3,W
089D0:  MOVLB  6
089D2:  CLRF   x23
089D4:  MOVWF  x22
089D6:  MOVLW  01
089D8:  ADDWF  x22,W
089DA:  MOVWF  01
089DC:  MOVLW  00
089DE:  ADDWFC x23,W
089E0:  MOVWF  03
089E2:  MOVF   01,W
089E4:  ADDLW  5A
089E6:  MOVWF  FE9
089E8:  MOVLW  05
089EA:  ADDWFC 03,W
089EC:  MOVWF  FEA
089EE:  MOVFF  9C,629
089F2:  MOVLW  0A
089F4:  MOVWF  x2A
089F6:  MOVLB  0
089F8:  CALL   39A4
089FC:  MOVF   01,W
089FE:  ADDWF  x9B,W
08A00:  MOVWF  FEF
....................                CiclosPersonalizados[CicloLibre-1].Segundoest=Testerilizacionp[0]+(Testerilizacionp[1]*10); 
08A02:  MOVLW  01
08A04:  MOVLB  2
08A06:  SUBWF  x1F,W
08A08:  MULLW  08
08A0A:  MOVF   FF3,W
08A0C:  MOVLB  6
08A0E:  CLRF   x23
08A10:  MOVWF  x22
08A12:  MOVLW  02
08A14:  ADDWF  x22,W
08A16:  MOVWF  01
08A18:  MOVLW  00
08A1A:  ADDWFC x23,W
08A1C:  MOVWF  03
08A1E:  MOVF   01,W
08A20:  ADDLW  5A
08A22:  MOVWF  FE9
08A24:  MOVLW  05
08A26:  ADDWFC 03,W
08A28:  MOVWF  FEA
08A2A:  MOVFF  9A,629
08A2E:  MOVLW  0A
08A30:  MOVWF  x2A
08A32:  MOVLB  0
08A34:  CALL   39A4
08A38:  MOVF   01,W
08A3A:  ADDWF  x99,W
08A3C:  MOVWF  FEF
....................                write_eeprom(101+((CicloLibre-1)*8),Testerilizacionp[2]+(Testerilizacionp[3]*10)); 
08A3E:  MOVLW  01
08A40:  MOVLB  2
08A42:  SUBWF  x1F,W
08A44:  MULLW  08
08A46:  MOVF   FF3,W
08A48:  ADDLW  65
08A4A:  MOVLB  6
08A4C:  MOVWF  x22
08A4E:  MOVFF  9C,629
08A52:  MOVLW  0A
08A54:  MOVWF  x2A
08A56:  MOVLB  0
08A58:  CALL   39A4
08A5C:  MOVF   01,W
08A5E:  ADDWF  x9B,W
08A60:  MOVLB  6
08A62:  MOVWF  x23
08A64:  CLRF   FAA
08A66:  MOVFF  622,FA9
08A6A:  MOVFF  623,FA8
08A6E:  BCF    FA6.6
08A70:  BCF    FA6.7
08A72:  BSF    FA6.2
08A74:  MOVF   FF2,W
08A76:  MOVWF  00
08A78:  BCF    FF2.6
08A7A:  BCF    FF2.7
08A7C:  MOVLB  F
08A7E:  MOVLW  55
08A80:  MOVWF  FA7
08A82:  MOVLW  AA
08A84:  MOVWF  FA7
08A86:  BSF    FA6.1
08A88:  BTFSC  FA6.1
08A8A:  BRA    8A88
08A8C:  BCF    FA6.2
08A8E:  MOVF   00,W
08A90:  IORWF  FF2,F
....................                delay_ms(10); 
08A92:  MOVLW  0A
08A94:  MOVLB  6
08A96:  MOVWF  x37
08A98:  MOVLB  0
08A9A:  CALL   1F36
....................                write_eeprom(102+((CicloLibre-1)*8),Testerilizacionp[0]+(Testerilizacionp[1]*10)); 
08A9E:  MOVLW  01
08AA0:  MOVLB  2
08AA2:  SUBWF  x1F,W
08AA4:  MULLW  08
08AA6:  MOVF   FF3,W
08AA8:  ADDLW  66
08AAA:  MOVLB  6
08AAC:  MOVWF  x22
08AAE:  MOVFF  9A,629
08AB2:  MOVLW  0A
08AB4:  MOVWF  x2A
08AB6:  MOVLB  0
08AB8:  CALL   39A4
08ABC:  MOVF   01,W
08ABE:  ADDWF  x99,W
08AC0:  MOVLB  6
08AC2:  MOVWF  x23
08AC4:  CLRF   FAA
08AC6:  MOVFF  622,FA9
08ACA:  MOVFF  623,FA8
08ACE:  BCF    FA6.6
08AD0:  BCF    FA6.7
08AD2:  BSF    FA6.2
08AD4:  MOVF   FF2,W
08AD6:  MOVWF  00
08AD8:  BCF    FF2.6
08ADA:  BCF    FF2.7
08ADC:  MOVLB  F
08ADE:  MOVLW  55
08AE0:  MOVWF  FA7
08AE2:  MOVLW  AA
08AE4:  MOVWF  FA7
08AE6:  BSF    FA6.1
08AE8:  BTFSC  FA6.1
08AEA:  BRA    8AE8
08AEC:  BCF    FA6.2
08AEE:  MOVF   00,W
08AF0:  IORWF  FF2,F
....................                delay_ms(10); 
08AF2:  MOVLW  0A
08AF4:  MOVLB  6
08AF6:  MOVWF  x37
08AF8:  MOVLB  0
08AFA:  CALL   1F36
....................                Testerilizacion[0]=Testerilizacionp[0]; 
08AFE:  MOVFF  99,95
....................                Testerilizacion[1]=Testerilizacionp[1]; 
08B02:  MOVFF  9A,96
....................                Testerilizacion[2]=Testerilizacionp[2]; 
08B06:  MOVFF  9B,97
....................                Testerilizacion[3]=Testerilizacionp[3]; 
08B0A:  MOVFF  9C,98
....................                GuardaEEPROM=ON; 
08B0E:  BSF    x87.4
....................             } 
....................          } 
....................           
....................          if(RX_Buffer[4]==0x0d && !Op){//Tecla Arriba Oprimida 
08B10:  MOVF   34,W
08B12:  SUBLW  0D
08B14:  BNZ   8B5E
08B16:  BTFSC  x87.0
08B18:  BRA    8B5E
....................             if(Segundos){ 
08B1A:  BTFSS  x87.3
08B1C:  BRA    8B3A
....................                Testerilizacionp[0]++; 
08B1E:  INCF   x99,F
....................                if(Testerilizacionp[0]>9){ 
08B20:  BTFSC  x99.7
08B22:  BRA    8B3A
08B24:  MOVF   x99,W
08B26:  SUBLW  09
08B28:  BC    8B3A
....................                   Testerilizacionp[1]++; 
08B2A:  INCF   x9A,F
....................                   if(Testerilizacionp[1]>5) 
08B2C:  BTFSC  x9A.7
08B2E:  BRA    8B38
08B30:  MOVF   x9A,W
08B32:  SUBLW  05
08B34:  BC    8B38
....................                      Testerilizacionp[1]=0; 
08B36:  CLRF   x9A
....................                   Testerilizacionp[0]=0; 
08B38:  CLRF   x99
....................                } 
....................             } 
....................             if(Minutos){ 
08B3A:  BTFSS  x87.2
08B3C:  BRA    8B5A
....................                Testerilizacionp[2]++; 
08B3E:  INCF   x9B,F
....................                if(Testerilizacionp[2]>9){ 
08B40:  BTFSC  x9B.7
08B42:  BRA    8B5A
08B44:  MOVF   x9B,W
08B46:  SUBLW  09
08B48:  BC    8B5A
....................                   Testerilizacionp[3]++; 
08B4A:  INCF   x9C,F
....................                   if(Testerilizacionp[3]>5) 
08B4C:  BTFSC  x9C.7
08B4E:  BRA    8B58
08B50:  MOVF   x9C,W
08B52:  SUBLW  05
08B54:  BC    8B58
....................                      Testerilizacionp[3]=0; 
08B56:  CLRF   x9C
....................                   Testerilizacionp[2]=0; 
08B58:  CLRF   x9B
....................                } 
....................             } 
....................             RX_Buffer[4]=0x00; 
08B5A:  CLRF   34
....................             Op=ON; 
08B5C:  BSF    x87.0
....................             //BorraBuffer(); 
....................          } 
....................           
....................          if(RX_Buffer[4]==0x0c && Op){//Tecla Derecha Oprimida 
08B5E:  MOVF   34,W
08B60:  SUBLW  0C
08B62:  BNZ   8BAC
08B64:  BTFSS  x87.0
08B66:  BRA    8BAC
....................             if(Segundos){ 
08B68:  BTFSS  x87.3
08B6A:  BRA    8B88
....................                Testerilizacionp[0]++; 
08B6C:  INCF   x99,F
....................                if(Testerilizacionp[0]>9){ 
08B6E:  BTFSC  x99.7
08B70:  BRA    8B88
08B72:  MOVF   x99,W
08B74:  SUBLW  09
08B76:  BC    8B88
....................                   Testerilizacionp[1]++; 
08B78:  INCF   x9A,F
....................                   if(Testerilizacionp[1]>5) 
08B7A:  BTFSC  x9A.7
08B7C:  BRA    8B86
08B7E:  MOVF   x9A,W
08B80:  SUBLW  05
08B82:  BC    8B86
....................                      Testerilizacionp[1]=0; 
08B84:  CLRF   x9A
....................                   Testerilizacionp[0]=0; 
08B86:  CLRF   x99
....................                } 
....................             } 
....................             if(Minutos){ 
08B88:  BTFSS  x87.2
08B8A:  BRA    8BA8
....................                Testerilizacionp[2]++; 
08B8C:  INCF   x9B,F
....................                if(Testerilizacionp[2]>9){ 
08B8E:  BTFSC  x9B.7
08B90:  BRA    8BA8
08B92:  MOVF   x9B,W
08B94:  SUBLW  09
08B96:  BC    8BA8
....................                   Testerilizacionp[3]++; 
08B98:  INCF   x9C,F
....................                   if(Testerilizacionp[3]>5) 
08B9A:  BTFSC  x9C.7
08B9C:  BRA    8BA6
08B9E:  MOVF   x9C,W
08BA0:  SUBLW  05
08BA2:  BC    8BA6
....................                      Testerilizacionp[3]=0; 
08BA4:  CLRF   x9C
....................                   Testerilizacionp[2]=0; 
08BA6:  CLRF   x9B
....................                } 
....................             } 
....................             RX_Buffer[4]=0x00; 
08BA8:  CLRF   34
....................             Op=OFF; 
08BAA:  BCF    x87.0
....................             //BorraBuffer(); 
....................          } 
....................           
....................          if(RX_Buffer[4]==0x0e && !Op2){//Tecla Izquierda Oprimida 
08BAC:  MOVF   34,W
08BAE:  SUBLW  0E
08BB0:  BNZ   8BF2
08BB2:  BTFSC  x87.1
08BB4:  BRA    8BF2
....................             if(Segundos){ 
08BB6:  BTFSS  x87.3
08BB8:  BRA    8BD2
....................                Testerilizacionp[0]--; 
08BBA:  DECF   x99,F
....................                if(Testerilizacionp[0]<0){ 
08BBC:  BTFSC  x99.7
08BBE:  BRA    8BC2
08BC0:  BRA    8BD2
....................                   Testerilizacionp[1]--; 
08BC2:  DECF   x9A,F
....................                   if(Testerilizacionp[1]<0) 
08BC4:  BTFSC  x9A.7
08BC6:  BRA    8BCA
08BC8:  BRA    8BCE
....................                      Testerilizacionp[1]=5; 
08BCA:  MOVLW  05
08BCC:  MOVWF  x9A
....................                   Testerilizacionp[0]=9; 
08BCE:  MOVLW  09
08BD0:  MOVWF  x99
....................                } 
....................             } 
....................             if(Minutos){ 
08BD2:  BTFSS  x87.2
08BD4:  BRA    8BEE
....................                Testerilizacionp[2]--; 
08BD6:  DECF   x9B,F
....................                if(Testerilizacionp[2]<0){ 
08BD8:  BTFSC  x9B.7
08BDA:  BRA    8BDE
08BDC:  BRA    8BEE
....................                   Testerilizacionp[3]--; 
08BDE:  DECF   x9C,F
....................                   if(Testerilizacionp[3]<0) 
08BE0:  BTFSC  x9C.7
08BE2:  BRA    8BE6
08BE4:  BRA    8BEA
....................                      Testerilizacionp[3]=5; 
08BE6:  MOVLW  05
08BE8:  MOVWF  x9C
....................                   Testerilizacionp[2]=9; 
08BEA:  MOVLW  09
08BEC:  MOVWF  x9B
....................                } 
....................             } 
....................             RX_Buffer[4]=0x00; 
08BEE:  CLRF   34
....................             Op2=ON; 
08BF0:  BSF    x87.1
....................             //BorraBuffer(); 
....................          } 
....................           
....................          if(RX_Buffer[4]==0x0f && Op2){//Tecla Izquierda Oprimida 
08BF2:  MOVF   34,W
08BF4:  SUBLW  0F
08BF6:  BNZ   8C38
08BF8:  BTFSS  x87.1
08BFA:  BRA    8C38
....................              
....................             if(Segundos){ 
08BFC:  BTFSS  x87.3
08BFE:  BRA    8C18
....................                Testerilizacionp[0]--; 
08C00:  DECF   x99,F
....................                if(Testerilizacionp[0]<0){ 
08C02:  BTFSC  x99.7
08C04:  BRA    8C08
08C06:  BRA    8C18
....................                   Testerilizacionp[1]--; 
08C08:  DECF   x9A,F
....................                   if(Testerilizacionp[1]<0) 
08C0A:  BTFSC  x9A.7
08C0C:  BRA    8C10
08C0E:  BRA    8C14
....................                      Testerilizacionp[1]=5; 
08C10:  MOVLW  05
08C12:  MOVWF  x9A
....................                   Testerilizacionp[0]=9; 
08C14:  MOVLW  09
08C16:  MOVWF  x99
....................                } 
....................             } 
....................             if(Minutos){ 
08C18:  BTFSS  x87.2
08C1A:  BRA    8C34
....................                Testerilizacionp[2]--; 
08C1C:  DECF   x9B,F
....................                if(Testerilizacionp[2]<0){ 
08C1E:  BTFSC  x9B.7
08C20:  BRA    8C24
08C22:  BRA    8C34
....................                   Testerilizacionp[3]--; 
08C24:  DECF   x9C,F
....................                   if(Testerilizacionp[3]<0) 
08C26:  BTFSC  x9C.7
08C28:  BRA    8C2C
08C2A:  BRA    8C30
....................                      Testerilizacionp[3]=5; 
08C2C:  MOVLW  05
08C2E:  MOVWF  x9C
....................                   Testerilizacionp[2]=9; 
08C30:  MOVLW  09
08C32:  MOVWF  x9B
....................                } 
....................             } 
....................             RX_Buffer[4]=0x00; 
08C34:  CLRF   34
....................             Op2=OFF; 
08C36:  BCF    x87.1
....................             //BorraBuffer(); 
....................          } 
....................          printf("tminest.txt=\"%02u\"",((Testerilizacionp[3]*10)+Testerilizacionp[2])); 
08C38:  MOVFF  9C,629
08C3C:  MOVLW  0A
08C3E:  MOVLB  6
08C40:  MOVWF  x2A
08C42:  MOVLB  0
08C44:  CALL   39A4
08C48:  MOVF   x9B,W
08C4A:  ADDWF  01,W
08C4C:  MOVLB  6
08C4E:  MOVWF  x22
08C50:  MOVLW  46
08C52:  MOVWF  FF6
08C54:  MOVLW  0A
08C56:  MOVWF  FF7
08C58:  MOVLW  00
08C5A:  MOVWF  FF8
08C5C:  MOVLW  0D
08C5E:  MOVWF  x27
08C60:  MOVLB  0
08C62:  CALL   543C
08C66:  MOVFF  622,627
08C6A:  MOVLW  01
08C6C:  MOVLB  6
08C6E:  MOVWF  x28
08C70:  MOVLB  0
08C72:  CALL   54C0
08C76:  MOVLW  22
08C78:  BTFSS  F9E.4
08C7A:  BRA    8C78
08C7C:  MOVWF  FAD
....................          SendDataDisplay(); 
08C7E:  CALL   3EE4
....................          printf("tsecest.txt=\"%02u\"",((Testerilizacionp[1]*10)+Testerilizacionp[0])); 
08C82:  MOVFF  9A,629
08C86:  MOVLW  0A
08C88:  MOVLB  6
08C8A:  MOVWF  x2A
08C8C:  MOVLB  0
08C8E:  CALL   39A4
08C92:  MOVF   x99,W
08C94:  ADDWF  01,W
08C96:  MOVLB  6
08C98:  MOVWF  x22
08C9A:  MOVLW  5A
08C9C:  MOVWF  FF6
08C9E:  MOVLW  0A
08CA0:  MOVWF  FF7
08CA2:  MOVLW  00
08CA4:  MOVWF  FF8
08CA6:  MOVLW  0D
08CA8:  MOVWF  x27
08CAA:  MOVLB  0
08CAC:  CALL   543C
08CB0:  MOVFF  622,627
08CB4:  MOVLW  01
08CB6:  MOVLB  6
08CB8:  MOVWF  x28
08CBA:  MOVLB  0
08CBC:  CALL   54C0
08CC0:  MOVLW  22
08CC2:  BTFSS  F9E.4
08CC4:  BRA    8CC2
08CC6:  MOVWF  FAD
....................          SendDataDisplay(); 
08CC8:  CALL   3EE4
08CCC:  MOVLB  1
....................     } 
.................... //_--------------------------------------------------------------------------------------------------------------------------------------------------------        
....................  
.................... //_-------------------------------------------------------------------------------------------------------------------------------------------------------- 
....................     if(Menu==3){ //Menu de Tiempo de Secado 
08CCE:  MOVF   xCF,W
08CD0:  SUBLW  03
08CD2:  BTFSS  FD8.2
08CD4:  BRA    905E
....................       printf("fecha.txt=\"Fecha:%02u/%02u/20%02u    Hora: %02u:%02u:%02u\"",Dia,Mes,Year,Hora,Minuto,Segundo); 
08CD6:  MOVLW  6E
08CD8:  MOVWF  FF6
08CDA:  MOVLW  0A
08CDC:  MOVWF  FF7
08CDE:  MOVLW  00
08CE0:  MOVWF  FF8
08CE2:  MOVLW  11
08CE4:  MOVLB  6
08CE6:  MOVWF  x27
08CE8:  MOVLB  0
08CEA:  CALL   543C
08CEE:  MOVFF  20B,627
08CF2:  MOVLW  01
08CF4:  MOVLB  6
08CF6:  MOVWF  x28
08CF8:  MOVLB  0
08CFA:  CALL   54C0
08CFE:  MOVLW  2F
08D00:  BTFSS  F9E.4
08D02:  BRA    8D00
08D04:  MOVWF  FAD
08D06:  MOVFF  20A,627
08D0A:  MOVLW  01
08D0C:  MOVLB  6
08D0E:  MOVWF  x28
08D10:  MOVLB  0
08D12:  CALL   54C0
08D16:  MOVLW  2F
08D18:  BTFSS  F9E.4
08D1A:  BRA    8D18
08D1C:  MOVWF  FAD
08D1E:  MOVLW  32
08D20:  BTFSS  F9E.4
08D22:  BRA    8D20
08D24:  MOVWF  FAD
08D26:  MOVLW  30
08D28:  BTFSS  F9E.4
08D2A:  BRA    8D28
08D2C:  MOVWF  FAD
08D2E:  MOVFF  209,627
08D32:  MOVLW  01
08D34:  MOVLB  6
08D36:  MOVWF  x28
08D38:  MOVLB  0
08D3A:  CALL   54C0
08D3E:  MOVLW  8F
08D40:  MOVWF  FF6
08D42:  MOVLW  0A
08D44:  MOVWF  FF7
08D46:  MOVLW  00
08D48:  MOVWF  FF8
08D4A:  MOVLW  0A
08D4C:  MOVLB  6
08D4E:  MOVWF  x27
08D50:  MOVLB  0
08D52:  CALL   543C
08D56:  MOVFF  20C,627
08D5A:  MOVLW  01
08D5C:  MOVLB  6
08D5E:  MOVWF  x28
08D60:  MOVLB  0
08D62:  CALL   54C0
08D66:  MOVLW  3A
08D68:  BTFSS  F9E.4
08D6A:  BRA    8D68
08D6C:  MOVWF  FAD
08D6E:  MOVFF  20D,627
08D72:  MOVLW  01
08D74:  MOVLB  6
08D76:  MOVWF  x28
08D78:  MOVLB  0
08D7A:  CALL   54C0
08D7E:  MOVLW  3A
08D80:  BTFSS  F9E.4
08D82:  BRA    8D80
08D84:  MOVWF  FAD
08D86:  MOVFF  20E,627
08D8A:  MOVLW  01
08D8C:  MOVLB  6
08D8E:  MOVWF  x28
08D90:  MOVLB  0
08D92:  CALL   54C0
08D96:  MOVLW  22
08D98:  BTFSS  F9E.4
08D9A:  BRA    8D98
08D9C:  MOVWF  FAD
....................       SendDataDisplay(); 
08D9E:  CALL   3EE4
....................          if(RX_Buffer[4]==0x0a){//Selecciono Minutos 
08DA2:  MOVF   34,W
08DA4:  SUBLW  0A
08DA6:  BNZ   8DAC
....................             Minutos=ON; 
08DA8:  BSF    x87.2
....................             Segundos=OFF; 
08DAA:  BCF    x87.3
....................          } 
....................           
....................          if(RX_Buffer[4]==0x0b){//Selecciono Segundos 
08DAC:  MOVF   34,W
08DAE:  SUBLW  0B
08DB0:  BNZ   8DB6
....................             Segundos=ON; 
08DB2:  BSF    x87.3
....................             Minutos=OFF; 
08DB4:  BCF    x87.2
....................          } 
....................           
....................          if(RX_Buffer[4]==0x11){//Selecciono Regresar 
08DB6:  MOVF   34,W
08DB8:  SUBLW  11
08DBA:  BTFSS  FD8.2
08DBC:  BRA    8F30
....................             Segundos=OFF; 
08DBE:  BCF    x87.3
....................             Minutos=OFF; 
08DC0:  BCF    x87.2
....................             printf("page CicloPersona"); 
08DC2:  MOVLW  AA
08DC4:  MOVWF  FF6
08DC6:  MOVLW  0A
08DC8:  MOVWF  FF7
08DCA:  MOVLW  00
08DCC:  MOVWF  FF8
08DCE:  CALL   3EB2
....................             SendDataDisplay();   
08DD2:  CALL   3EE4
....................             PantallaPrincipal=1; 
08DD6:  MOVLW  01
08DD8:  MOVLB  1
08DDA:  MOVWF  x74
....................             Op=OFF; 
08DDC:  MOVLB  0
08DDE:  BCF    x87.0
....................             Op2=OFF; 
08DE0:  BCF    x87.1
....................             if(!GuardaEEPROM){ 
08DE2:  BTFSC  x87.4
08DE4:  BRA    8F30
....................                CiclosPersonalizados[CicloLibre-1].Minutosec=Tsecadop[2]+(Tsecadop[3]*10); 
08DE6:  MOVLW  01
08DE8:  MOVLB  2
08DEA:  SUBWF  x1F,W
08DEC:  MULLW  08
08DEE:  MOVF   FF3,W
08DF0:  MOVLB  6
08DF2:  CLRF   x23
08DF4:  MOVWF  x22
08DF6:  MOVLW  03
08DF8:  ADDWF  x22,W
08DFA:  MOVWF  01
08DFC:  MOVLW  00
08DFE:  ADDWFC x23,W
08E00:  MOVWF  03
08E02:  MOVF   01,W
08E04:  ADDLW  5A
08E06:  MOVWF  FE9
08E08:  MOVLW  05
08E0A:  ADDWFC 03,W
08E0C:  MOVWF  FEA
08E0E:  MOVFF  A4,629
08E12:  MOVLW  0A
08E14:  MOVWF  x2A
08E16:  MOVLB  0
08E18:  CALL   39A4
08E1C:  MOVF   01,W
08E1E:  ADDWF  xA3,W
08E20:  MOVWF  FEF
....................                CiclosPersonalizados[CicloLibre-1].Segundosec=Tsecadop[0]+(Tsecadop[1]*10); 
08E22:  MOVLW  01
08E24:  MOVLB  2
08E26:  SUBWF  x1F,W
08E28:  MULLW  08
08E2A:  MOVF   FF3,W
08E2C:  MOVLB  6
08E2E:  CLRF   x23
08E30:  MOVWF  x22
08E32:  MOVLW  04
08E34:  ADDWF  x22,W
08E36:  MOVWF  01
08E38:  MOVLW  00
08E3A:  ADDWFC x23,W
08E3C:  MOVWF  03
08E3E:  MOVF   01,W
08E40:  ADDLW  5A
08E42:  MOVWF  FE9
08E44:  MOVLW  05
08E46:  ADDWFC 03,W
08E48:  MOVWF  FEA
08E4A:  MOVFF  A2,629
08E4E:  MOVLW  0A
08E50:  MOVWF  x2A
08E52:  MOVLB  0
08E54:  CALL   39A4
08E58:  MOVF   01,W
08E5A:  ADDWF  xA1,W
08E5C:  MOVWF  FEF
....................                write_eeprom(103+((CicloLibre-1)*8),Tsecadop[2]+(Tsecadop[3]*10)); 
08E5E:  MOVLW  01
08E60:  MOVLB  2
08E62:  SUBWF  x1F,W
08E64:  MULLW  08
08E66:  MOVF   FF3,W
08E68:  ADDLW  67
08E6A:  MOVLB  6
08E6C:  MOVWF  x22
08E6E:  MOVFF  A4,629
08E72:  MOVLW  0A
08E74:  MOVWF  x2A
08E76:  MOVLB  0
08E78:  CALL   39A4
08E7C:  MOVF   01,W
08E7E:  ADDWF  xA3,W
08E80:  MOVLB  6
08E82:  MOVWF  x23
08E84:  CLRF   FAA
08E86:  MOVFF  622,FA9
08E8A:  MOVFF  623,FA8
08E8E:  BCF    FA6.6
08E90:  BCF    FA6.7
08E92:  BSF    FA6.2
08E94:  MOVF   FF2,W
08E96:  MOVWF  00
08E98:  BCF    FF2.6
08E9A:  BCF    FF2.7
08E9C:  MOVLB  F
08E9E:  MOVLW  55
08EA0:  MOVWF  FA7
08EA2:  MOVLW  AA
08EA4:  MOVWF  FA7
08EA6:  BSF    FA6.1
08EA8:  BTFSC  FA6.1
08EAA:  BRA    8EA8
08EAC:  BCF    FA6.2
08EAE:  MOVF   00,W
08EB0:  IORWF  FF2,F
....................                delay_ms(10); 
08EB2:  MOVLW  0A
08EB4:  MOVLB  6
08EB6:  MOVWF  x37
08EB8:  MOVLB  0
08EBA:  CALL   1F36
....................                write_eeprom(104+((CicloLibre-1)*8),Tsecadop[0]+(Tsecadop[1]*10)); 
08EBE:  MOVLW  01
08EC0:  MOVLB  2
08EC2:  SUBWF  x1F,W
08EC4:  MULLW  08
08EC6:  MOVF   FF3,W
08EC8:  ADDLW  68
08ECA:  MOVLB  6
08ECC:  MOVWF  x22
08ECE:  MOVFF  A2,629
08ED2:  MOVLW  0A
08ED4:  MOVWF  x2A
08ED6:  MOVLB  0
08ED8:  CALL   39A4
08EDC:  MOVF   01,W
08EDE:  ADDWF  xA1,W
08EE0:  MOVLB  6
08EE2:  MOVWF  x23
08EE4:  CLRF   FAA
08EE6:  MOVFF  622,FA9
08EEA:  MOVFF  623,FA8
08EEE:  BCF    FA6.6
08EF0:  BCF    FA6.7
08EF2:  BSF    FA6.2
08EF4:  MOVF   FF2,W
08EF6:  MOVWF  00
08EF8:  BCF    FF2.6
08EFA:  BCF    FF2.7
08EFC:  MOVLB  F
08EFE:  MOVLW  55
08F00:  MOVWF  FA7
08F02:  MOVLW  AA
08F04:  MOVWF  FA7
08F06:  BSF    FA6.1
08F08:  BTFSC  FA6.1
08F0A:  BRA    8F08
08F0C:  BCF    FA6.2
08F0E:  MOVF   00,W
08F10:  IORWF  FF2,F
....................                delay_ms(10); 
08F12:  MOVLW  0A
08F14:  MOVLB  6
08F16:  MOVWF  x37
08F18:  MOVLB  0
08F1A:  CALL   1F36
....................                Tsecado[0]=Tsecadop[0]; 
08F1E:  MOVFF  A1,9D
....................                Tsecado[1]=Tsecadop[1]; 
08F22:  MOVFF  A2,9E
....................                Tsecado[2]=Tsecadop[2]; 
08F26:  MOVFF  A3,9F
....................                Tsecado[3]=Tsecadop[3]; 
08F2A:  MOVFF  A4,A0
....................                GuardaEEPROM=ON; 
08F2E:  BSF    x87.4
....................             } 
....................          } 
....................            
....................          if(RX_Buffer[4]==0x0d ||RX_Buffer[4]==0x0c){//Tecla Arriba Oprimida 
08F30:  MOVF   34,W
08F32:  SUBLW  0D
08F34:  BZ    8F3C
08F36:  MOVF   34,W
08F38:  SUBLW  0C
08F3A:  BNZ   8F80
....................             if(Segundos){ 
08F3C:  BTFSS  x87.3
08F3E:  BRA    8F5C
....................                Tsecadop[0]++; 
08F40:  INCF   xA1,F
....................                if(Tsecadop[0]>9){ 
08F42:  BTFSC  xA1.7
08F44:  BRA    8F5C
08F46:  MOVF   xA1,W
08F48:  SUBLW  09
08F4A:  BC    8F5C
....................                   Tsecadop[1]++; 
08F4C:  INCF   xA2,F
....................                   if(Tsecadop[1]>5) 
08F4E:  BTFSC  xA2.7
08F50:  BRA    8F5A
08F52:  MOVF   xA2,W
08F54:  SUBLW  05
08F56:  BC    8F5A
....................                      Tsecadop[1]=0; 
08F58:  CLRF   xA2
....................                   Tsecadop[0]=0; 
08F5A:  CLRF   xA1
....................                } 
....................             } 
....................             if(Minutos){ 
08F5C:  BTFSS  x87.2
08F5E:  BRA    8F7C
....................                Tsecadop[2]++; 
08F60:  INCF   xA3,F
....................                if(Tsecadop[2]>9){ 
08F62:  BTFSC  xA3.7
08F64:  BRA    8F7C
08F66:  MOVF   xA3,W
08F68:  SUBLW  09
08F6A:  BC    8F7C
....................                   Tsecadop[3]++; 
08F6C:  INCF   xA4,F
....................                   if(Tsecadop[3]>5) 
08F6E:  BTFSC  xA4.7
08F70:  BRA    8F7A
08F72:  MOVF   xA4,W
08F74:  SUBLW  05
08F76:  BC    8F7A
....................                      Tsecadop[3]=0; 
08F78:  CLRF   xA4
....................                   Tsecadop[2]=0; 
08F7A:  CLRF   xA3
....................                } 
....................             } 
....................             RX_Buffer[4]=0x00; 
08F7C:  CLRF   34
....................             RX_Buffer2[4]=0x00;                         
08F7E:  CLRF   3F
....................          } 
....................           
....................          if(RX_Buffer[4]==0x0e || RX_Buffer[4]==0x0f){//Tecla Izquierda Oprimida 
08F80:  MOVF   34,W
08F82:  SUBLW  0E
08F84:  BZ    8F8C
08F86:  MOVF   34,W
08F88:  SUBLW  0F
08F8A:  BNZ   8FC8
....................             if(Segundos){ 
08F8C:  BTFSS  x87.3
08F8E:  BRA    8FA8
....................                Tsecadop[0]--; 
08F90:  DECF   xA1,F
....................                if(Tsecadop[0]<0){ 
08F92:  BTFSC  xA1.7
08F94:  BRA    8F98
08F96:  BRA    8FA8
....................                   Tsecadop[1]--; 
08F98:  DECF   xA2,F
....................                   if(Tsecadop[1]<0) 
08F9A:  BTFSC  xA2.7
08F9C:  BRA    8FA0
08F9E:  BRA    8FA4
....................                      Tsecadop[1]=5; 
08FA0:  MOVLW  05
08FA2:  MOVWF  xA2
....................                   Tsecadop[0]=9; 
08FA4:  MOVLW  09
08FA6:  MOVWF  xA1
....................                } 
....................             } 
....................             if(Minutos){ 
08FA8:  BTFSS  x87.2
08FAA:  BRA    8FC4
....................                Tsecadop[2]--; 
08FAC:  DECF   xA3,F
....................                if(Tsecadop[2]<0){ 
08FAE:  BTFSC  xA3.7
08FB0:  BRA    8FB4
08FB2:  BRA    8FC4
....................                   Tsecadop[3]--; 
08FB4:  DECF   xA4,F
....................                   if(Tsecadop[3]<0) 
08FB6:  BTFSC  xA4.7
08FB8:  BRA    8FBC
08FBA:  BRA    8FC0
....................                      Tsecadop[3]=5; 
08FBC:  MOVLW  05
08FBE:  MOVWF  xA4
....................                   Tsecadop[2]=9; 
08FC0:  MOVLW  09
08FC2:  MOVWF  xA3
....................                } 
....................             } 
....................             RX_Buffer[4]=0x00; 
08FC4:  CLRF   34
....................             RX_Buffer2[4]=0x00;             
08FC6:  CLRF   3F
....................          } 
....................           
....................       printf("tminsec.txt=\"%02u\"",((Tsecadop[3]*10)+Tsecadop[2])); 
08FC8:  MOVFF  A4,629
08FCC:  MOVLW  0A
08FCE:  MOVLB  6
08FD0:  MOVWF  x2A
08FD2:  MOVLB  0
08FD4:  CALL   39A4
08FD8:  MOVF   xA3,W
08FDA:  ADDWF  01,W
08FDC:  MOVLB  6
08FDE:  MOVWF  x22
08FE0:  MOVLW  BC
08FE2:  MOVWF  FF6
08FE4:  MOVLW  0A
08FE6:  MOVWF  FF7
08FE8:  MOVLW  00
08FEA:  MOVWF  FF8
08FEC:  MOVLW  0D
08FEE:  MOVWF  x27
08FF0:  MOVLB  0
08FF2:  CALL   543C
08FF6:  MOVFF  622,627
08FFA:  MOVLW  01
08FFC:  MOVLB  6
08FFE:  MOVWF  x28
09000:  MOVLB  0
09002:  CALL   54C0
09006:  MOVLW  22
09008:  BTFSS  F9E.4
0900A:  BRA    9008
0900C:  MOVWF  FAD
....................       SendDataDisplay(); 
0900E:  CALL   3EE4
....................       printf("tsecsec.txt=\"%02u\"",((Tsecadop[1]*10)+Tsecadop[0])); 
09012:  MOVFF  A2,629
09016:  MOVLW  0A
09018:  MOVLB  6
0901A:  MOVWF  x2A
0901C:  MOVLB  0
0901E:  CALL   39A4
09022:  MOVF   xA1,W
09024:  ADDWF  01,W
09026:  MOVLB  6
09028:  MOVWF  x22
0902A:  MOVLW  D0
0902C:  MOVWF  FF6
0902E:  MOVLW  0A
09030:  MOVWF  FF7
09032:  MOVLW  00
09034:  MOVWF  FF8
09036:  MOVLW  0D
09038:  MOVWF  x27
0903A:  MOVLB  0
0903C:  CALL   543C
09040:  MOVFF  622,627
09044:  MOVLW  01
09046:  MOVLB  6
09048:  MOVWF  x28
0904A:  MOVLB  0
0904C:  CALL   54C0
09050:  MOVLW  22
09052:  BTFSS  F9E.4
09054:  BRA    9052
09056:  MOVWF  FAD
....................       SendDataDisplay(); 
09058:  CALL   3EE4
0905C:  MOVLB  1
....................     } 
.................... //_--------------------------------------------------------------------------------------------------------------------------------------------------------        
....................  
.................... //_-------------------------------------------------------------------------------------------------------------------------------------------------------- 
....................     if(Menu==4){ //Menu de Temperatura 
0905E:  MOVF   xCF,W
09060:  SUBLW  04
09062:  BTFSS  FD8.2
09064:  BRA    9234
....................       printf("fecha.txt=\"Fecha:%02u/%02u/20%02u    Hora: %02u:%02u:%02u\"",Dia,Mes,Year,Hora,Minuto,Segundo); 
09066:  MOVLW  E4
09068:  MOVWF  FF6
0906A:  MOVLW  0A
0906C:  MOVWF  FF7
0906E:  MOVLW  00
09070:  MOVWF  FF8
09072:  MOVLW  11
09074:  MOVLB  6
09076:  MOVWF  x27
09078:  MOVLB  0
0907A:  CALL   543C
0907E:  MOVFF  20B,627
09082:  MOVLW  01
09084:  MOVLB  6
09086:  MOVWF  x28
09088:  MOVLB  0
0908A:  CALL   54C0
0908E:  MOVLW  2F
09090:  BTFSS  F9E.4
09092:  BRA    9090
09094:  MOVWF  FAD
09096:  MOVFF  20A,627
0909A:  MOVLW  01
0909C:  MOVLB  6
0909E:  MOVWF  x28
090A0:  MOVLB  0
090A2:  CALL   54C0
090A6:  MOVLW  2F
090A8:  BTFSS  F9E.4
090AA:  BRA    90A8
090AC:  MOVWF  FAD
090AE:  MOVLW  32
090B0:  BTFSS  F9E.4
090B2:  BRA    90B0
090B4:  MOVWF  FAD
090B6:  MOVLW  30
090B8:  BTFSS  F9E.4
090BA:  BRA    90B8
090BC:  MOVWF  FAD
090BE:  MOVFF  209,627
090C2:  MOVLW  01
090C4:  MOVLB  6
090C6:  MOVWF  x28
090C8:  MOVLB  0
090CA:  CALL   54C0
090CE:  MOVLW  05
090D0:  MOVWF  FF6
090D2:  MOVLW  0B
090D4:  MOVWF  FF7
090D6:  MOVLW  00
090D8:  MOVWF  FF8
090DA:  MOVLW  0A
090DC:  MOVLB  6
090DE:  MOVWF  x27
090E0:  MOVLB  0
090E2:  CALL   543C
090E6:  MOVFF  20C,627
090EA:  MOVLW  01
090EC:  MOVLB  6
090EE:  MOVWF  x28
090F0:  MOVLB  0
090F2:  CALL   54C0
090F6:  MOVLW  3A
090F8:  BTFSS  F9E.4
090FA:  BRA    90F8
090FC:  MOVWF  FAD
090FE:  MOVFF  20D,627
09102:  MOVLW  01
09104:  MOVLB  6
09106:  MOVWF  x28
09108:  MOVLB  0
0910A:  CALL   54C0
0910E:  MOVLW  3A
09110:  BTFSS  F9E.4
09112:  BRA    9110
09114:  MOVWF  FAD
09116:  MOVFF  20E,627
0911A:  MOVLW  01
0911C:  MOVLB  6
0911E:  MOVWF  x28
09120:  MOVLB  0
09122:  CALL   54C0
09126:  MOVLW  22
09128:  BTFSS  F9E.4
0912A:  BRA    9128
0912C:  MOVWF  FAD
....................       SendDataDisplay(); 
0912E:  CALL   3EE4
....................          if(Setpoint<105) 
09132:  MOVLB  1
09134:  MOVF   xD9,W
09136:  SUBLW  68
09138:  BNC   913E
....................             Setpoint=134; 
0913A:  MOVLW  86
0913C:  MOVWF  xD9
....................          if(Setpoint>134) 
0913E:  MOVF   xD9,W
09140:  SUBLW  86
09142:  BC    9148
....................             Setpoint=105; 
09144:  MOVLW  69
09146:  MOVWF  xD9
....................           
....................          if(RX_Buffer[4]==0x11){//Selecciono Regresar 
09148:  MOVF   34,W
0914A:  SUBLW  11
0914C:  BNZ   91E6
....................             Segundos=OFF; 
0914E:  MOVLB  0
09150:  BCF    x87.3
....................             Minutos=OFF; 
09152:  BCF    x87.2
....................             printf("page CicloPersona"); 
09154:  MOVLW  20
09156:  MOVWF  FF6
09158:  MOVLW  0B
0915A:  MOVWF  FF7
0915C:  MOVLW  00
0915E:  MOVWF  FF8
09160:  CALL   3EB2
....................             SendDataDisplay();   
09164:  CALL   3EE4
....................             PantallaPrincipal=1; 
09168:  MOVLW  01
0916A:  MOVLB  1
0916C:  MOVWF  x74
....................             Op=OFF; 
0916E:  MOVLB  0
09170:  BCF    x87.0
....................             Op2=OFF; 
09172:  BCF    x87.1
....................             if(!GuardaEEPROM){ 
09174:  BTFSC  x87.4
09176:  BRA    91E4
....................                CiclosPersonalizados[CicloLibre-1].Temperatura=Setpoint; 
09178:  MOVLW  01
0917A:  MOVLB  2
0917C:  SUBWF  x1F,W
0917E:  MULLW  08
09180:  MOVF   FF3,W
09182:  MOVLB  6
09184:  CLRF   x23
09186:  MOVWF  x22
09188:  MOVLW  5A
0918A:  ADDWF  x22,W
0918C:  MOVWF  FE9
0918E:  MOVLW  05
09190:  ADDWFC x23,W
09192:  MOVWF  FEA
09194:  MOVFF  1D9,FEF
....................                write_eeprom(100+((CicloLibre-1)*8),Setpoint); 
09198:  MOVLW  01
0919A:  MOVLB  2
0919C:  SUBWF  x1F,W
0919E:  MULLW  08
091A0:  MOVF   FF3,W
091A2:  ADDLW  64
091A4:  MOVLB  6
091A6:  MOVWF  x22
091A8:  CLRF   FAA
091AA:  MOVFF  622,FA9
091AE:  MOVFF  1D9,FA8
091B2:  BCF    FA6.6
091B4:  BCF    FA6.7
091B6:  BSF    FA6.2
091B8:  MOVF   FF2,W
091BA:  MOVWF  00
091BC:  BCF    FF2.6
091BE:  BCF    FF2.7
091C0:  MOVLB  F
091C2:  MOVLW  55
091C4:  MOVWF  FA7
091C6:  MOVLW  AA
091C8:  MOVWF  FA7
091CA:  BSF    FA6.1
091CC:  BTFSC  FA6.1
091CE:  BRA    91CC
091D0:  BCF    FA6.2
091D2:  MOVF   00,W
091D4:  IORWF  FF2,F
....................                delay_ms(10); 
091D6:  MOVLW  0A
091D8:  MOVLB  6
091DA:  MOVWF  x37
091DC:  MOVLB  0
091DE:  CALL   1F36
....................                GuardaEEPROM=ON; 
091E2:  BSF    x87.4
091E4:  MOVLB  1
....................             } 
....................          } 
....................           
....................          if(RX_Buffer[4]==0x0d){//Tecla Arriba Oprimida 
091E6:  MOVF   34,W
091E8:  SUBLW  0D
091EA:  BNZ   91F2
....................             Setpoint++; 
091EC:  INCF   xD9,F
....................             RX_Buffer[4]=0x00;   
091EE:  CLRF   34
....................             RX_Buffer2[4]=0x00;             
091F0:  CLRF   3F
....................             //BorraBuffer(); 
....................          } 
....................           
....................          if(RX_Buffer[4]==0x0c){//Tecla Abajo Oprimida 
091F2:  MOVF   34,W
091F4:  SUBLW  0C
091F6:  BNZ   91FE
....................             Setpoint--; 
091F8:  DECF   xD9,F
....................             RX_Buffer[4]=0x00; 
091FA:  CLRF   34
....................             RX_Buffer2[4]=0x00;             
091FC:  CLRF   3F
....................             //BorraBuffer(); 
....................          } 
....................           
....................       printf("tsettem.txt=\"%03u\"",Setpoint); 
091FE:  MOVLW  32
09200:  MOVWF  FF6
09202:  MOVLW  0B
09204:  MOVWF  FF7
09206:  MOVLW  00
09208:  MOVWF  FF8
0920A:  MOVLW  0D
0920C:  MOVLB  6
0920E:  MOVWF  x27
09210:  MOVLB  0
09212:  CALL   543C
09216:  MOVFF  1D9,627
0921A:  MOVLW  03
0921C:  MOVLB  6
0921E:  MOVWF  x28
09220:  MOVLB  0
09222:  CALL   54C0
09226:  MOVLW  22
09228:  BTFSS  F9E.4
0922A:  BRA    9228
0922C:  MOVWF  FAD
....................       SendDataDisplay(); 
0922E:  CALL   3EE4
09232:  MOVLB  1
....................     } 
.................... //_--------------------------------------------------------------------------------------------------------------------------------------------------------        
....................  
.................... //_--------------------------------------------------------------------------------------------------------------------------------------------------------       
....................     if(Menu==5){//Menu de Nivel de Vacio 
09234:  MOVF   xCF,W
09236:  SUBLW  05
09238:  BTFSS  FD8.2
0923A:  BRA    9426
....................       printf("fecha.txt=\"Fecha:%02u/%02u/20%02u    Hora: %02u:%02u:%02u\"",Dia,Mes,Year,Hora,Minuto,Segundo); 
0923C:  MOVLW  46
0923E:  MOVWF  FF6
09240:  MOVLW  0B
09242:  MOVWF  FF7
09244:  MOVLW  00
09246:  MOVWF  FF8
09248:  MOVLW  11
0924A:  MOVLB  6
0924C:  MOVWF  x27
0924E:  MOVLB  0
09250:  CALL   543C
09254:  MOVFF  20B,627
09258:  MOVLW  01
0925A:  MOVLB  6
0925C:  MOVWF  x28
0925E:  MOVLB  0
09260:  CALL   54C0
09264:  MOVLW  2F
09266:  BTFSS  F9E.4
09268:  BRA    9266
0926A:  MOVWF  FAD
0926C:  MOVFF  20A,627
09270:  MOVLW  01
09272:  MOVLB  6
09274:  MOVWF  x28
09276:  MOVLB  0
09278:  CALL   54C0
0927C:  MOVLW  2F
0927E:  BTFSS  F9E.4
09280:  BRA    927E
09282:  MOVWF  FAD
09284:  MOVLW  32
09286:  BTFSS  F9E.4
09288:  BRA    9286
0928A:  MOVWF  FAD
0928C:  MOVLW  30
0928E:  BTFSS  F9E.4
09290:  BRA    928E
09292:  MOVWF  FAD
09294:  MOVFF  209,627
09298:  MOVLW  01
0929A:  MOVLB  6
0929C:  MOVWF  x28
0929E:  MOVLB  0
092A0:  CALL   54C0
092A4:  MOVLW  67
092A6:  MOVWF  FF6
092A8:  MOVLW  0B
092AA:  MOVWF  FF7
092AC:  MOVLW  00
092AE:  MOVWF  FF8
092B0:  MOVLW  0A
092B2:  MOVLB  6
092B4:  MOVWF  x27
092B6:  MOVLB  0
092B8:  CALL   543C
092BC:  MOVFF  20C,627
092C0:  MOVLW  01
092C2:  MOVLB  6
092C4:  MOVWF  x28
092C6:  MOVLB  0
092C8:  CALL   54C0
092CC:  MOVLW  3A
092CE:  BTFSS  F9E.4
092D0:  BRA    92CE
092D2:  MOVWF  FAD
092D4:  MOVFF  20D,627
092D8:  MOVLW  01
092DA:  MOVLB  6
092DC:  MOVWF  x28
092DE:  MOVLB  0
092E0:  CALL   54C0
092E4:  MOVLW  3A
092E6:  BTFSS  F9E.4
092E8:  BRA    92E6
092EA:  MOVWF  FAD
092EC:  MOVFF  20E,627
092F0:  MOVLW  01
092F2:  MOVLB  6
092F4:  MOVWF  x28
092F6:  MOVLB  0
092F8:  CALL   54C0
092FC:  MOVLW  22
092FE:  BTFSS  F9E.4
09300:  BRA    92FE
09302:  MOVWF  FAD
....................       SendDataDisplay(); 
09304:  CALL   3EE4
....................          if(Nivel<25) 
09308:  MOVLB  1
0930A:  MOVF   xE8,F
0930C:  BNZ   931A
0930E:  MOVF   xE7,W
09310:  SUBLW  18
09312:  BNC   931A
....................             Nivel=100; 
09314:  CLRF   xE8
09316:  MOVLW  64
09318:  MOVWF  xE7
....................          if(Nivel>100) 
0931A:  MOVF   xE8,F
0931C:  BNZ   9324
0931E:  MOVF   xE7,W
09320:  SUBLW  64
09322:  BC    932A
....................             Nivel=25; 
09324:  CLRF   xE8
09326:  MOVLW  19
09328:  MOVWF  xE7
....................           
....................          if(RX_Buffer[4]==0x11){//Selecciono Regresar 
0932A:  MOVF   34,W
0932C:  SUBLW  11
0932E:  BNZ   93CE
....................             Segundos=OFF; 
09330:  MOVLB  0
09332:  BCF    x87.3
....................             Minutos=OFF;             
09334:  BCF    x87.2
....................             tiempo_secado=0; 
09336:  MOVLB  1
09338:  CLRF   xDD
....................             printf("page CicloPersona"); 
0933A:  MOVLW  82
0933C:  MOVWF  FF6
0933E:  MOVLW  0B
09340:  MOVWF  FF7
09342:  MOVLW  00
09344:  MOVWF  FF8
09346:  MOVLB  0
09348:  CALL   3EB2
....................             SendDataDisplay();   
0934C:  CALL   3EE4
....................             if(!GuardaEEPROM){     
09350:  BTFSC  x87.4
09352:  BRA    93CC
....................                CiclosPersonalizados[CicloLibre-1].NivelVacio=Nivel; 
09354:  MOVLW  01
09356:  MOVLB  2
09358:  SUBWF  x1F,W
0935A:  MULLW  08
0935C:  MOVF   FF3,W
0935E:  MOVLB  6
09360:  CLRF   x23
09362:  MOVWF  x22
09364:  MOVLW  06
09366:  ADDWF  x22,W
09368:  MOVWF  01
0936A:  MOVLW  00
0936C:  ADDWFC x23,W
0936E:  MOVWF  03
09370:  MOVF   01,W
09372:  ADDLW  5A
09374:  MOVWF  FE9
09376:  MOVLW  05
09378:  ADDWFC 03,W
0937A:  MOVWF  FEA
0937C:  MOVFF  1E7,FEF
....................                write_eeprom(106+((CicloLibre-1)*8),Nivel); 
09380:  MOVLW  01
09382:  MOVLB  2
09384:  SUBWF  x1F,W
09386:  MULLW  08
09388:  MOVF   FF3,W
0938A:  ADDLW  6A
0938C:  MOVLB  6
0938E:  MOVWF  x22
09390:  CLRF   FAA
09392:  MOVFF  622,FA9
09396:  MOVFF  1E7,FA8
0939A:  BCF    FA6.6
0939C:  BCF    FA6.7
0939E:  BSF    FA6.2
093A0:  MOVF   FF2,W
093A2:  MOVWF  00
093A4:  BCF    FF2.6
093A6:  BCF    FF2.7
093A8:  MOVLB  F
093AA:  MOVLW  55
093AC:  MOVWF  FA7
093AE:  MOVLW  AA
093B0:  MOVWF  FA7
093B2:  BSF    FA6.1
093B4:  BTFSC  FA6.1
093B6:  BRA    93B4
093B8:  BCF    FA6.2
093BA:  MOVF   00,W
093BC:  IORWF  FF2,F
....................                delay_ms(20);             
093BE:  MOVLW  14
093C0:  MOVLB  6
093C2:  MOVWF  x37
093C4:  MOVLB  0
093C6:  CALL   1F36
....................                GuardaEEPROM=ON; 
093CA:  BSF    x87.4
093CC:  MOVLB  1
....................             } 
....................          } 
....................           
....................          if(RX_Buffer[4]==0x0d){//Tecla Arriba Oprimida 
093CE:  MOVF   34,W
093D0:  SUBLW  0D
093D2:  BNZ   93DE
....................             Nivel++; 
093D4:  INCF   xE7,F
093D6:  BTFSC  FD8.2
093D8:  INCF   xE8,F
....................             RX_Buffer[4]=0x00;             
093DA:  CLRF   34
....................             RX_Buffer2[4]=0x00;             
093DC:  CLRF   3F
....................             //BorraBuffer(); 
....................          } 
....................           
....................          if(RX_Buffer[4]==0x0c){//Tecla Abajo Oprimida 
093DE:  MOVF   34,W
093E0:  SUBLW  0C
093E2:  BNZ   93F0
....................             Nivel--; 
093E4:  MOVF   xE7,W
093E6:  BTFSC  FD8.2
093E8:  DECF   xE8,F
093EA:  DECF   xE7,F
....................             RX_Buffer[4]=0x00; 
093EC:  CLRF   34
....................             RX_Buffer2[4]=0x00;             
093EE:  CLRF   3F
....................             //BorraBuffer(); 
....................          } 
....................           
....................       printf("tnivel.txt=\"%Lu\"",Nivel); 
093F0:  MOVLW  94
093F2:  MOVWF  FF6
093F4:  MOVLW  0B
093F6:  MOVWF  FF7
093F8:  MOVLW  00
093FA:  MOVWF  FF8
093FC:  MOVLW  0C
093FE:  MOVLB  6
09400:  MOVWF  x27
09402:  MOVLB  0
09404:  CALL   543C
09408:  MOVLW  10
0940A:  MOVWF  FE9
0940C:  MOVFF  1E8,627
09410:  MOVFF  1E7,626
09414:  CALL   559C
09418:  MOVLW  22
0941A:  BTFSS  F9E.4
0941C:  BRA    941A
0941E:  MOVWF  FAD
....................       SendDataDisplay(); 
09420:  CALL   3EE4
09424:  MOVLB  1
....................    } 
.................... //_--------------------------------------------------------------------------------------------------------------------------------------------------------       
....................  
.................... //_--------------------------------------------------------------------------------------------------------------------------------------------------------       
....................     if(Menu==6){ // Menu de Prueba de Componentes 
09426:  MOVF   xCF,W
09428:  SUBLW  06
0942A:  BTFSS  FD8.2
0942C:  GOTO   9C94
....................          PruebaEstados=ON; 
09430:  MOVLB  0
09432:  BSF    x86.4
....................           
....................          if(RX_Buffer[4]==0x01)//Oprimio EV Suministro 
09434:  DECFSZ 34,W
09436:  BRA    943E
....................          { 
....................             EstadoSuministro=!EstadoSuministro; 
09438:  BTG    x86.2
....................             RX_Buffer[4]=0x00; 
0943A:  CLRF   34
....................             RX_Buffer2[4]=0x00; 
0943C:  CLRF   3F
....................          } 
....................           
....................          if(EstadoSuministro){ 
0943E:  BTFSS  x86.2
09440:  BRA    945C
....................             printf("b0.bco=2016"); 
09442:  MOVLW  A6
09444:  MOVWF  FF6
09446:  MOVLW  0B
09448:  MOVWF  FF7
0944A:  MOVLW  00
0944C:  MOVWF  FF8
0944E:  CALL   3EB2
....................             SendDataDisplay();  
09452:  CALL   3EE4
....................             Suministro_on; 
09456:  BSF    F8C.0
09458:  BCF    F95.0
....................          } 
....................          else{ 
0945A:  BRA    9474
....................             printf("b0.bco=63488"); 
0945C:  MOVLW  B2
0945E:  MOVWF  FF6
09460:  MOVLW  0B
09462:  MOVWF  FF7
09464:  MOVLW  00
09466:  MOVWF  FF8
09468:  CALL   3EB2
....................             SendDataDisplay();  
0946C:  CALL   3EE4
....................             Suministro_off; 
09470:  BCF    F8C.0
09472:  BCF    F95.0
....................          } 
....................           
....................          if(RX_Buffer[4]==0x02)//Oprimio EV Desfogue 
09474:  MOVF   34,W
09476:  SUBLW  02
09478:  BNZ   9480
....................          { 
....................             EstadoDesfogue=!EstadoDesfogue; 
0947A:  BTG    x86.1
....................             RX_Buffer[4]=0x00; 
0947C:  CLRF   34
....................             RX_Buffer2[4]=0x00; 
0947E:  CLRF   3F
....................          } 
....................           
....................          if(EstadoDesfogue){ 
09480:  BTFSS  x86.1
09482:  BRA    949E
....................             printf("b1.bco=2016"); 
09484:  MOVLW  C0
09486:  MOVWF  FF6
09488:  MOVLW  0B
0948A:  MOVWF  FF7
0948C:  MOVLW  00
0948E:  MOVWF  FF8
09490:  CALL   3EB2
....................             SendDataDisplay();  
09494:  CALL   3EE4
....................             Desfogue_on; 
09498:  BSF    F8C.3
0949A:  BCF    F95.3
....................          } 
....................          else{ 
0949C:  BRA    94B6
....................             printf("b1.bco=63488"); 
0949E:  MOVLW  CC
094A0:  MOVWF  FF6
094A2:  MOVLW  0B
094A4:  MOVWF  FF7
094A6:  MOVLW  00
094A8:  MOVWF  FF8
094AA:  CALL   3EB2
....................             SendDataDisplay();  
094AE:  CALL   3EE4
....................             Desfogue_off; 
094B2:  BCF    F8C.3
094B4:  BCF    F95.3
....................          } 
....................           
....................          if(RX_Buffer[4]==0x03)//Oprimio EV Paso 
094B6:  MOVF   34,W
094B8:  SUBLW  03
094BA:  BNZ   94C2
....................          { 
....................             EstadoPaso=!EstadoPaso; 
094BC:  BTG    x87.5
....................             RX_Buffer[4]=0x00; 
094BE:  CLRF   34
....................             RX_Buffer2[4]=0x00; 
094C0:  CLRF   3F
....................          } 
....................           
....................          if(EstadoPaso){ 
094C2:  BTFSS  x87.5
094C4:  BRA    94E0
....................             printf("b2.bco=2016"); 
094C6:  MOVLW  DA
094C8:  MOVWF  FF6
094CA:  MOVLW  0B
094CC:  MOVWF  FF7
094CE:  MOVLW  00
094D0:  MOVWF  FF8
094D2:  CALL   3EB2
....................             SendDataDisplay();  
094D6:  CALL   3EE4
....................             Paso_on; 
094DA:  BSF    F8C.1
094DC:  BCF    F95.1
....................          } 
....................          else{ 
094DE:  BRA    94F8
....................             printf("b2.bco=63488"); 
094E0:  MOVLW  E6
094E2:  MOVWF  FF6
094E4:  MOVLW  0B
094E6:  MOVWF  FF7
094E8:  MOVLW  00
094EA:  MOVWF  FF8
094EC:  CALL   3EB2
....................             SendDataDisplay();  
094F0:  CALL   3EE4
....................             Paso_off; 
094F4:  BCF    F8C.1
094F6:  BCF    F95.1
....................          } 
....................          
....................          if(RX_Buffer[4]==0x04)//Oprimio Vacio 
094F8:  MOVF   34,W
094FA:  SUBLW  04
094FC:  BNZ   9504
....................          { 
....................             EstadoVacio=!EstadoVacio; 
094FE:  BTG    x87.6
....................             RX_Buffer[4]=0x00; 
09500:  CLRF   34
....................             RX_Buffer2[4]=0x00; 
09502:  CLRF   3F
....................          } 
....................           
....................          if(EstadoVacio){ 
09504:  BTFSS  x87.6
09506:  BRA    9522
....................             printf("b3.bco=2016"); 
09508:  MOVLW  F4
0950A:  MOVWF  FF6
0950C:  MOVLW  0B
0950E:  MOVWF  FF7
09510:  MOVLW  00
09512:  MOVWF  FF8
09514:  CALL   3EB2
....................             SendDataDisplay();  
09518:  CALL   3EE4
....................             Vacio_on; 
0951C:  BSF    F8C.2
0951E:  BCF    F95.2
....................          } 
....................          else{ 
09520:  BRA    953A
....................             printf("b3.bco=63488"); 
09522:  MOVLW  00
09524:  MOVWF  FF6
09526:  MOVLW  0C
09528:  MOVWF  FF7
0952A:  MOVLW  00
0952C:  MOVWF  FF8
0952E:  CALL   3EB2
....................             SendDataDisplay();  
09532:  CALL   3EE4
....................             Vacio_off; 
09536:  BCF    F8C.2
09538:  BCF    F95.2
....................          } 
....................           
....................          if(RX_Buffer[4]==0x05)//Oprimio Aire 
0953A:  MOVF   34,W
0953C:  SUBLW  05
0953E:  BNZ   9546
....................          { 
....................             EstadoAire=!EstadoAire; 
09540:  BTG    x86.3
....................             RX_Buffer[4]=0x00; 
09542:  CLRF   34
....................             RX_Buffer2[4]=0x00; 
09544:  CLRF   3F
....................          } 
....................           
....................          if(EstadoAire){ 
09546:  BTFSS  x86.3
09548:  BRA    9564
....................             printf("b4.bco=2016"); 
0954A:  MOVLW  0E
0954C:  MOVWF  FF6
0954E:  MOVLW  0C
09550:  MOVWF  FF7
09552:  MOVLW  00
09554:  MOVWF  FF8
09556:  CALL   3EB2
....................             SendDataDisplay();  
0955A:  CALL   3EE4
....................             Aire_on; 
0955E:  BSF    F8C.4
09560:  BCF    F95.4
....................          } 
....................          else{ 
09562:  BRA    957C
....................             printf("b4.bco=63488"); 
09564:  MOVLW  1A
09566:  MOVWF  FF6
09568:  MOVLW  0C
0956A:  MOVWF  FF7
0956C:  MOVLW  00
0956E:  MOVWF  FF8
09570:  CALL   3EB2
....................             SendDataDisplay();  
09574:  CALL   3EE4
....................             Aire_off; 
09578:  BCF    F8C.4
0957A:  BCF    F95.4
....................          } 
....................           
....................          if(RX_Buffer[4]==0x06)//Oprimio Bomba Vacio 
0957C:  MOVF   34,W
0957E:  SUBLW  06
09580:  BNZ   9588
....................          { 
....................             EstadoBomba=!EstadoBomba; 
09582:  BTG    x88.6
....................             RX_Buffer[4]=0x00; 
09584:  CLRF   34
....................             RX_Buffer2[4]=0x00; 
09586:  CLRF   3F
....................          } 
....................           
....................          if(EstadoBomba){ 
09588:  BTFSS  x88.6
0958A:  BRA    95AA
....................             printf("b5.bco=2016"); 
0958C:  MOVLW  28
0958E:  MOVWF  FF6
09590:  MOVLW  0C
09592:  MOVWF  FF7
09594:  MOVLW  00
09596:  MOVWF  FF8
09598:  CALL   3EB2
....................             SendDataDisplay();  
0959C:  CALL   3EE4
....................             if(CalderinLleno) 
095A0:  BTFSS  x86.0
095A2:  BRA    95A8
....................                BombaVacio_on; 
095A4:  BSF    F8C.5
095A6:  BCF    F95.5
....................          } 
....................          else{ 
095A8:  BRA    95C2
....................             printf("b5.bco=63488"); 
095AA:  MOVLW  34
095AC:  MOVWF  FF6
095AE:  MOVLW  0C
095B0:  MOVWF  FF7
095B2:  MOVLW  00
095B4:  MOVWF  FF8
095B6:  CALL   3EB2
....................             SendDataDisplay();  
095BA:  CALL   3EE4
....................             BombaVacio_off; 
095BE:  BCF    F8C.5
095C0:  BCF    F95.5
....................          } 
....................           
....................          if(RX_Buffer[4]==0x07)//Oprimio EV Agua 
095C2:  MOVF   34,W
095C4:  SUBLW  07
095C6:  BNZ   95CE
....................          { 
....................             EstadoAireBomba=!EstadoAireBomba; 
095C8:  BTG    x8A.1
....................             RX_Buffer[4]=0x00; 
095CA:  CLRF   34
....................             RX_Buffer2[4]=0x00; 
095CC:  CLRF   3F
....................          } 
....................           
....................          if(EstadoAireBomba){ 
095CE:  BTFSS  x8A.1
095D0:  BRA    95EC
....................             printf("b6.bco=2016"); 
095D2:  MOVLW  42
095D4:  MOVWF  FF6
095D6:  MOVLW  0C
095D8:  MOVWF  FF7
095DA:  MOVLW  00
095DC:  MOVWF  FF8
095DE:  CALL   3EB2
....................             SendDataDisplay();  
095E2:  CALL   3EE4
....................             Agua_on; 
095E6:  BSF    F8C.6
095E8:  BCF    F95.6
....................          } 
....................          else{ 
095EA:  BRA    9604
....................             printf("b6.bco=63488"); 
095EC:  MOVLW  4E
095EE:  MOVWF  FF6
095F0:  MOVLW  0C
095F2:  MOVWF  FF7
095F4:  MOVLW  00
095F6:  MOVWF  FF8
095F8:  CALL   3EB2
....................             SendDataDisplay();  
095FC:  CALL   3EE4
....................             Agua_off; 
09600:  BCF    F8C.6
09602:  BCF    F95.6
....................          } 
....................           
....................          if(RX_Buffer[4]==0x08)//Oprimio EV Agua2 
09604:  MOVF   34,W
09606:  SUBLW  08
09608:  BNZ   9610
....................          { 
....................             EstadoAgua2=!EstadoAgua2; 
0960A:  BTG    x86.7
....................             RX_Buffer[4]=0x00; 
0960C:  CLRF   34
....................             RX_Buffer2[4]=0x00; 
0960E:  CLRF   3F
....................          } 
....................           
....................          if(EstadoAgua2){ 
09610:  BTFSS  x86.7
09612:  BRA    962E
....................             printf("b7.bco=2016"); 
09614:  MOVLW  5C
09616:  MOVWF  FF6
09618:  MOVLW  0C
0961A:  MOVWF  FF7
0961C:  MOVLW  00
0961E:  MOVWF  FF8
09620:  CALL   3EB2
....................             SendDataDisplay();  
09624:  CALL   3EE4
....................             Agua2_on; 
09628:  BSF    F8C.7
0962A:  BCF    F95.7
....................          } 
....................          else{ 
0962C:  BRA    9646
....................             printf("b7.bco=63488"); 
0962E:  MOVLW  68
09630:  MOVWF  FF6
09632:  MOVLW  0C
09634:  MOVWF  FF7
09636:  MOVLW  00
09638:  MOVWF  FF8
0963A:  CALL   3EB2
....................             SendDataDisplay();  
0963E:  CALL   3EE4
....................             Agua2_off; 
09642:  BCF    F8C.7
09644:  BCF    F95.7
....................          } 
....................           
....................          if(RX_Buffer[4]==0x17)//Oprimio Abrir Cierre 
09646:  MOVF   34,W
09648:  SUBLW  17
0964A:  BNZ   9652
....................          { 
....................             EstadoACierre=!EstadoACierre; 
0964C:  BTG    x88.5
....................             RX_Buffer[4]=0x00; 
0964E:  CLRF   34
....................             RX_Buffer2[4]=0x00; 
09650:  CLRF   3F
....................          } 
....................           
....................          if(EstadoACierre){ 
09652:  BTFSS  x88.5
09654:  BRA    9678
....................             printf("b16.bco=2016"); 
09656:  MOVLW  76
09658:  MOVWF  FF6
0965A:  MOVLW  0C
0965C:  MOVWF  FF7
0965E:  MOVLW  00
09660:  MOVWF  FF8
09662:  CALL   3EB2
....................             SendDataDisplay();  
09666:  CALL   3EE4
....................             sistemaBloqueo(1); 
0966A:  MOVLW  01
0966C:  MOVLB  6
0966E:  MOVWF  x22
09670:  MOVLB  0
09672:  CALL   4EB8
....................          } 
....................          else{ 
09676:  BRA    9696
....................             printf("b16.bco=63488"); 
09678:  MOVLW  84
0967A:  MOVWF  FF6
0967C:  MOVLW  0C
0967E:  MOVWF  FF7
09680:  MOVLW  00
09682:  MOVWF  FF8
09684:  CALL   3EB2
....................             SendDataDisplay();  
09688:  CALL   3EE4
....................             sistemaBloqueo(0); 
0968C:  MOVLB  6
0968E:  CLRF   x22
09690:  MOVLB  0
09692:  CALL   4EB8
....................          } 
....................           
....................          if(DOOR){ 
09696:  BSF    F93.1
09698:  BTFSC  F81.1
0969A:  BRA    96B2
....................             printf("b8.bco=2016"); 
0969C:  MOVLW  92
0969E:  MOVWF  FF6
096A0:  MOVLW  0C
096A2:  MOVWF  FF7
096A4:  MOVLW  00
096A6:  MOVWF  FF8
096A8:  CALL   3EB2
....................             SendDataDisplay();  
096AC:  CALL   3EE4
....................          }else{ 
096B0:  BRA    96C6
....................             printf("b8.bco=63488"); 
096B2:  MOVLW  9E
096B4:  MOVWF  FF6
096B6:  MOVLW  0C
096B8:  MOVWF  FF7
096BA:  MOVLW  00
096BC:  MOVWF  FF8
096BE:  CALL   3EB2
....................             SendDataDisplay();  
096C2:  CALL   3EE4
....................          } 
....................           
....................          if(TERM){ 
096C6:  BSF    F93.3
096C8:  BTFSC  F81.3
096CA:  BRA    96E2
....................             printf("b9.bco=2016"); 
096CC:  MOVLW  AC
096CE:  MOVWF  FF6
096D0:  MOVLW  0C
096D2:  MOVWF  FF7
096D4:  MOVLW  00
096D6:  MOVWF  FF8
096D8:  CALL   3EB2
....................             SendDataDisplay();  
096DC:  CALL   3EE4
....................          }else{ 
096E0:  BRA    96F6
....................             printf("b9.bco=63488"); 
096E2:  MOVLW  B8
096E4:  MOVWF  FF6
096E6:  MOVLW  0C
096E8:  MOVWF  FF7
096EA:  MOVLW  00
096EC:  MOVWF  FF8
096EE:  CALL   3EB2
....................             SendDataDisplay();  
096F2:  CALL   3EE4
....................          } 
....................           
....................          if(STOP){ 
096F6:  BSF    F93.2
096F8:  BTFSC  F81.2
096FA:  BRA    9712
....................             printf("b10.bco=2016"); 
096FC:  MOVLW  C6
096FE:  MOVWF  FF6
09700:  MOVLW  0C
09702:  MOVWF  FF7
09704:  MOVLW  00
09706:  MOVWF  FF8
09708:  CALL   3EB2
....................             SendDataDisplay();  
0970C:  CALL   3EE4
....................          }else{ 
09710:  BRA    9726
....................             printf("b10.bco=63488"); 
09712:  MOVLW  D4
09714:  MOVWF  FF6
09716:  MOVLW  0C
09718:  MOVWF  FF7
0971A:  MOVLW  00
0971C:  MOVWF  FF8
0971E:  CALL   3EB2
....................             SendDataDisplay();  
09722:  CALL   3EE4
....................          } 
....................           
....................          if(PRES){ 
09726:  BSF    F92.4
09728:  BTFSC  F80.4
0972A:  BRA    9742
....................             printf("b11.bco=2016"); 
0972C:  MOVLW  E2
0972E:  MOVWF  FF6
09730:  MOVLW  0C
09732:  MOVWF  FF7
09734:  MOVLW  00
09736:  MOVWF  FF8
09738:  CALL   3EB2
....................             SendDataDisplay();  
0973C:  CALL   3EE4
....................          }else{ 
09740:  BRA    9756
....................             printf("b11.bco=63488"); 
09742:  MOVLW  F0
09744:  MOVWF  FF6
09746:  MOVLW  0C
09748:  MOVWF  FF7
0974A:  MOVLW  00
0974C:  MOVWF  FF8
0974E:  CALL   3EB2
....................             SendDataDisplay();  
09752:  CALL   3EE4
....................          } 
....................           
....................          if(RX_Buffer[4]==0x13)//Oprimio Buzzer 
09756:  MOVF   34,W
09758:  SUBLW  13
0975A:  BNZ   9762
....................          { 
....................             EstadoBuzzer=!EstadoBuzzer; 
0975C:  BTG    x87.7
....................             RX_Buffer[4]=0x00; 
0975E:  CLRF   34
....................             RX_Buffer2[4]=0x00; 
09760:  CLRF   3F
....................          } 
....................           
....................          if(EstadoBuzzer){ 
09762:  BTFSS  x87.7
09764:  BRA    9780
....................             printf("b12.bco=2016"); 
09766:  MOVLW  FE
09768:  MOVWF  FF6
0976A:  MOVLW  0C
0976C:  MOVWF  FF7
0976E:  MOVLW  00
09770:  MOVWF  FF8
09772:  CALL   3EB2
....................             SendDataDisplay();  
09776:  CALL   3EE4
....................             Buzzer_on; 
0977A:  BSF    F8B.5
0977C:  BCF    F94.5
....................          } 
....................          else{ 
0977E:  BRA    9798
....................             printf("b12.bco=63488"); 
09780:  MOVLW  0C
09782:  MOVWF  FF6
09784:  MOVLW  0D
09786:  MOVWF  FF7
09788:  MOVLW  00
0978A:  MOVWF  FF8
0978C:  CALL   3EB2
....................             SendDataDisplay();  
09790:  CALL   3EE4
....................             Buzzer_off; 
09794:  BCF    F8B.5
09796:  BCF    F94.5
....................          } 
....................           
....................          if(LOW){ 
09798:  BSF    F93.0
0979A:  BTFSS  F81.0
0979C:  BRA    97B4
....................             printf("b17.bco=2016"); 
0979E:  MOVLW  1A
097A0:  MOVWF  FF6
097A2:  MOVLW  0D
097A4:  MOVWF  FF7
097A6:  MOVLW  00
097A8:  MOVWF  FF8
097AA:  CALL   3EB2
....................             SendDataDisplay();  
097AE:  CALL   3EE4
....................          }else{ 
097B2:  BRA    97C8
....................             printf("b17.bco=63488"); 
097B4:  MOVLW  28
097B6:  MOVWF  FF6
097B8:  MOVLW  0D
097BA:  MOVWF  FF7
097BC:  MOVLW  00
097BE:  MOVWF  FF8
097C0:  CALL   3EB2
....................             SendDataDisplay();  
097C4:  CALL   3EE4
....................          } 
....................           
....................          if(RX_Buffer[4]==0x14)//Oprimio Zero ADC3 
097C8:  MOVF   34,W
097CA:  SUBLW  14
097CC:  BTFSS  FD8.2
097CE:  BRA    9904
....................          { 
....................             G1=41-sensores(2); 
097D0:  MOVLW  02
097D2:  MOVLB  6
097D4:  MOVWF  x32
097D6:  MOVLB  0
097D8:  CALL   4038
097DC:  MOVFF  FEA,623
097E0:  MOVFF  FE9,622
097E4:  BSF    FD8.1
097E6:  MOVLB  6
097E8:  CLRF   x3D
097EA:  CLRF   x3C
097EC:  MOVLW  24
097EE:  MOVWF  x3B
097F0:  MOVLW  84
097F2:  MOVWF  x3A
097F4:  MOVFF  03,641
097F8:  MOVFF  02,640
097FC:  MOVFF  01,63F
09800:  MOVFF  00,63E
09804:  MOVLB  0
09806:  CALL   20BC
0980A:  MOVFF  623,FEA
0980E:  MOVFF  622,FE9
09812:  MOVFF  03,637
09816:  MOVFF  02,636
0981A:  MOVFF  01,635
0981E:  MOVFF  00,634
09822:  CALL   50E6
09826:  MOVFF  01,224
....................             if(G1<0) 
0982A:  MOVLB  2
0982C:  BTFSC  x24.7
0982E:  BRA    9832
09830:  BRA    9838
....................                sg1=10; 
09832:  MOVLW  0A
09834:  MOVWF  x26
....................             else 
09836:  BRA    983C
....................                sg1=5; 
09838:  MOVLW  05
0983A:  MOVWF  x26
....................                    
....................             write_eeprom(42,(int8)G1); 
0983C:  CLRF   FAA
0983E:  MOVLW  2A
09840:  MOVWF  FA9
09842:  MOVFF  224,FA8
09846:  BCF    FA6.6
09848:  BCF    FA6.7
0984A:  BSF    FA6.2
0984C:  MOVF   FF2,W
0984E:  MOVWF  00
09850:  BCF    FF2.6
09852:  BCF    FF2.7
09854:  MOVLB  F
09856:  MOVLW  55
09858:  MOVWF  FA7
0985A:  MOVLW  AA
0985C:  MOVWF  FA7
0985E:  BSF    FA6.1
09860:  BTFSC  FA6.1
09862:  BRA    9860
09864:  BCF    FA6.2
09866:  MOVF   00,W
09868:  IORWF  FF2,F
....................             delay_ms(10); 
0986A:  MOVLW  0A
0986C:  MOVLB  6
0986E:  MOVWF  x37
09870:  MOVLB  0
09872:  CALL   1F36
....................             write_eeprom(44,(int8)sg1); 
09876:  CLRF   FAA
09878:  MOVLW  2C
0987A:  MOVWF  FA9
0987C:  MOVFF  226,FA8
09880:  BCF    FA6.6
09882:  BCF    FA6.7
09884:  BSF    FA6.2
09886:  MOVF   FF2,W
09888:  MOVWF  00
0988A:  BCF    FF2.6
0988C:  BCF    FF2.7
0988E:  MOVLB  F
09890:  MOVLW  55
09892:  MOVWF  FA7
09894:  MOVLW  AA
09896:  MOVWF  FA7
09898:  BSF    FA6.1
0989A:  BTFSC  FA6.1
0989C:  BRA    989A
0989E:  BCF    FA6.2
098A0:  MOVF   00,W
098A2:  IORWF  FF2,F
....................             delay_ms(10); 
098A4:  MOVLW  0A
098A6:  MOVLB  6
098A8:  MOVWF  x37
098AA:  MOVLB  0
098AC:  CALL   1F36
....................             Buzzer_on; 
098B0:  BSF    F8B.5
098B2:  BCF    F94.5
....................             delay_ms(1000); 
098B4:  MOVLW  04
098B6:  MOVLB  6
098B8:  MOVWF  x22
098BA:  MOVLW  FA
098BC:  MOVWF  x37
098BE:  MOVLB  0
098C0:  CALL   1F36
098C4:  MOVLB  6
098C6:  DECFSZ x22,F
098C8:  BRA    98BA
....................             Buzzer_off; 
098CA:  BCF    F8B.5
098CC:  BCF    F94.5
....................             delay_ms(1000); 
098CE:  MOVLW  04
098D0:  MOVWF  x22
098D2:  MOVLW  FA
098D4:  MOVWF  x37
098D6:  MOVLB  0
098D8:  CALL   1F36
098DC:  MOVLB  6
098DE:  DECFSZ x22,F
098E0:  BRA    98D2
....................             Buzzer_on; 
098E2:  BSF    F8B.5
098E4:  BCF    F94.5
....................             delay_ms(1000); 
098E6:  MOVLW  04
098E8:  MOVWF  x22
098EA:  MOVLW  FA
098EC:  MOVWF  x37
098EE:  MOVLB  0
098F0:  CALL   1F36
098F4:  MOVLB  6
098F6:  DECFSZ x22,F
098F8:  BRA    98EA
....................             Buzzer_off; 
098FA:  BCF    F8B.5
098FC:  BCF    F94.5
....................             RX_Buffer[4]=0x00; 
098FE:  CLRF   34
....................             RX_Buffer2[4]=0x00; 
09900:  CLRF   3F
09902:  MOVLB  0
....................          } 
....................           
....................          if(RX_Buffer[4]==0x14)//Oprimio Zero ADC3 
09904:  MOVF   34,W
09906:  SUBLW  14
09908:  BTFSS  FD8.2
0990A:  BRA    9A3E
....................          { 
....................             G2=41-sensores(3); 
0990C:  MOVLW  03
0990E:  MOVLB  6
09910:  MOVWF  x32
09912:  MOVLB  0
09914:  CALL   4038
09918:  MOVFF  FEA,623
0991C:  MOVFF  FE9,622
09920:  BSF    FD8.1
09922:  MOVLB  6
09924:  CLRF   x3D
09926:  CLRF   x3C
09928:  MOVLW  24
0992A:  MOVWF  x3B
0992C:  MOVLW  84
0992E:  MOVWF  x3A
09930:  MOVFF  03,641
09934:  MOVFF  02,640
09938:  MOVFF  01,63F
0993C:  MOVFF  00,63E
09940:  MOVLB  0
09942:  CALL   20BC
09946:  MOVFF  623,FEA
0994A:  MOVFF  622,FE9
0994E:  MOVFF  03,637
09952:  MOVFF  02,636
09956:  MOVFF  01,635
0995A:  MOVFF  00,634
0995E:  CALL   50E6
09962:  MOVFF  01,225
....................             if(G2<0) 
09966:  MOVLB  2
09968:  BTFSC  x25.7
0996A:  BRA    996E
0996C:  BRA    9974
....................                sg2=10; 
0996E:  MOVLW  0A
09970:  MOVWF  x27
....................             else 
09972:  BRA    9978
....................                sg2=5; 
09974:  MOVLW  05
09976:  MOVWF  x27
....................                    
....................             write_eeprom(43,(int8)G2); 
09978:  CLRF   FAA
0997A:  MOVLW  2B
0997C:  MOVWF  FA9
0997E:  MOVFF  225,FA8
09982:  BCF    FA6.6
09984:  BCF    FA6.7
09986:  BSF    FA6.2
09988:  MOVF   FF2,W
0998A:  MOVWF  00
0998C:  BCF    FF2.6
0998E:  BCF    FF2.7
09990:  MOVLB  F
09992:  MOVLW  55
09994:  MOVWF  FA7
09996:  MOVLW  AA
09998:  MOVWF  FA7
0999A:  BSF    FA6.1
0999C:  BTFSC  FA6.1
0999E:  BRA    999C
099A0:  BCF    FA6.2
099A2:  MOVF   00,W
099A4:  IORWF  FF2,F
....................             delay_ms(10); 
099A6:  MOVLW  0A
099A8:  MOVLB  6
099AA:  MOVWF  x37
099AC:  MOVLB  0
099AE:  CALL   1F36
....................             write_eeprom(45,(int8)sg2); 
099B2:  CLRF   FAA
099B4:  MOVLW  2D
099B6:  MOVWF  FA9
099B8:  MOVFF  227,FA8
099BC:  BCF    FA6.6
099BE:  BCF    FA6.7
099C0:  BSF    FA6.2
099C2:  MOVF   FF2,W
099C4:  MOVWF  00
099C6:  BCF    FF2.6
099C8:  BCF    FF2.7
099CA:  MOVLB  F
099CC:  MOVLW  55
099CE:  MOVWF  FA7
099D0:  MOVLW  AA
099D2:  MOVWF  FA7
099D4:  BSF    FA6.1
099D6:  BTFSC  FA6.1
099D8:  BRA    99D6
099DA:  BCF    FA6.2
099DC:  MOVF   00,W
099DE:  IORWF  FF2,F
....................             delay_ms(10); 
099E0:  MOVLW  0A
099E2:  MOVLB  6
099E4:  MOVWF  x37
099E6:  MOVLB  0
099E8:  CALL   1F36
....................             Buzzer_on; 
099EC:  BSF    F8B.5
099EE:  BCF    F94.5
....................             delay_ms(1000); 
099F0:  MOVLW  04
099F2:  MOVLB  6
099F4:  MOVWF  x22
099F6:  MOVLW  FA
099F8:  MOVWF  x37
099FA:  MOVLB  0
099FC:  CALL   1F36
09A00:  MOVLB  6
09A02:  DECFSZ x22,F
09A04:  BRA    99F6
....................             Buzzer_off; 
09A06:  BCF    F8B.5
09A08:  BCF    F94.5
....................             delay_ms(1000); 
09A0A:  MOVLW  04
09A0C:  MOVWF  x22
09A0E:  MOVLW  FA
09A10:  MOVWF  x37
09A12:  MOVLB  0
09A14:  CALL   1F36
09A18:  MOVLB  6
09A1A:  DECFSZ x22,F
09A1C:  BRA    9A0E
....................             Buzzer_on; 
09A1E:  BSF    F8B.5
09A20:  BCF    F94.5
....................             delay_ms(1000); 
09A22:  MOVLW  04
09A24:  MOVWF  x22
09A26:  MOVLW  FA
09A28:  MOVWF  x37
09A2A:  MOVLB  0
09A2C:  CALL   1F36
09A30:  MOVLB  6
09A32:  DECFSZ x22,F
09A34:  BRA    9A26
....................             Buzzer_off; 
09A36:  BCF    F8B.5
09A38:  BCF    F94.5
....................             RX_Buffer[4]=0x00; 
09A3A:  CLRF   34
....................             RX_Buffer2[4]=0x00; 
09A3C:  CLRF   3F
....................          } 
....................                    
....................          printf("b13.txt=\"ADC0:%3.0f\"",sensores(0));          
09A3E:  MOVLB  6
09A40:  CLRF   x32
09A42:  MOVLB  0
09A44:  CALL   4038
09A48:  MOVFF  00,622
09A4C:  MOVFF  01,623
09A50:  MOVFF  02,624
09A54:  MOVFF  03,625
09A58:  MOVLW  36
09A5A:  MOVWF  FF6
09A5C:  MOVLW  0D
09A5E:  MOVWF  FF7
09A60:  MOVLW  00
09A62:  MOVWF  FF8
09A64:  MOVLW  0E
09A66:  MOVLB  6
09A68:  MOVWF  x27
09A6A:  MOVLB  0
09A6C:  CALL   543C
09A70:  MOVLW  02
09A72:  MOVWF  FE9
09A74:  MOVFF  625,62A
09A78:  MOVFF  624,629
09A7C:  MOVFF  623,628
09A80:  MOVFF  622,627
09A84:  MOVLB  6
09A86:  CLRF   x2B
09A88:  MOVLB  0
09A8A:  CALL   570A
09A8E:  MOVLW  22
09A90:  BTFSS  F9E.4
09A92:  BRA    9A90
09A94:  MOVWF  FAD
....................          SendDataDisplay(); 
09A96:  CALL   3EE4
....................          printf("b14.txt=\"ADC1:%3.0f\"",sensores(1));          
09A9A:  MOVLW  01
09A9C:  MOVLB  6
09A9E:  MOVWF  x32
09AA0:  MOVLB  0
09AA2:  CALL   4038
09AA6:  MOVFF  00,622
09AAA:  MOVFF  01,623
09AAE:  MOVFF  02,624
09AB2:  MOVFF  03,625
09AB6:  MOVLW  4C
09AB8:  MOVWF  FF6
09ABA:  MOVLW  0D
09ABC:  MOVWF  FF7
09ABE:  MOVLW  00
09AC0:  MOVWF  FF8
09AC2:  MOVLW  0E
09AC4:  MOVLB  6
09AC6:  MOVWF  x27
09AC8:  MOVLB  0
09ACA:  CALL   543C
09ACE:  MOVLW  02
09AD0:  MOVWF  FE9
09AD2:  MOVFF  625,62A
09AD6:  MOVFF  624,629
09ADA:  MOVFF  623,628
09ADE:  MOVFF  622,627
09AE2:  MOVLB  6
09AE4:  CLRF   x2B
09AE6:  MOVLB  0
09AE8:  CALL   570A
09AEC:  MOVLW  22
09AEE:  BTFSS  F9E.4
09AF0:  BRA    9AEE
09AF2:  MOVWF  FAD
....................          SendDataDisplay(); 
09AF4:  CALL   3EE4
....................          printf("b15.txt=\"A2:%3.0f %03Lu\"",sensores(2),PresionCamara); 
09AF8:  MOVLW  02
09AFA:  MOVLB  6
09AFC:  MOVWF  x32
09AFE:  MOVLB  0
09B00:  CALL   4038
09B04:  MOVFF  00,622
09B08:  MOVFF  01,623
09B0C:  MOVFF  02,624
09B10:  MOVFF  03,625
09B14:  MOVLW  62
09B16:  MOVWF  FF6
09B18:  MOVLW  0D
09B1A:  MOVWF  FF7
09B1C:  MOVLW  00
09B1E:  MOVWF  FF8
09B20:  MOVLW  0C
09B22:  MOVLB  6
09B24:  MOVWF  x27
09B26:  MOVLB  0
09B28:  CALL   543C
09B2C:  MOVLW  02
09B2E:  MOVWF  FE9
09B30:  MOVFF  625,62A
09B34:  MOVFF  624,629
09B38:  MOVFF  623,628
09B3C:  MOVFF  622,627
09B40:  MOVLB  6
09B42:  CLRF   x2B
09B44:  MOVLB  0
09B46:  CALL   570A
09B4A:  MOVLW  20
09B4C:  BTFSS  F9E.4
09B4E:  BRA    9B4C
09B50:  MOVWF  FAD
09B52:  MOVLW  0A
09B54:  MOVWF  FE9
09B56:  MOVFF  1EC,627
09B5A:  MOVFF  1EB,626
09B5E:  CALL   559C
09B62:  MOVLW  22
09B64:  BTFSS  F9E.4
09B66:  BRA    9B64
09B68:  MOVWF  FAD
....................          SendDataDisplay(); 
09B6A:  CALL   3EE4
....................          printf("b18.txt=\"A3:%3.0f %03Lu\"",sensores(3),PresionPreCamara); 
09B6E:  MOVLW  03
09B70:  MOVLB  6
09B72:  MOVWF  x32
09B74:  MOVLB  0
09B76:  CALL   4038
09B7A:  MOVFF  00,622
09B7E:  MOVFF  01,623
09B82:  MOVFF  02,624
09B86:  MOVFF  03,625
09B8A:  MOVLW  7C
09B8C:  MOVWF  FF6
09B8E:  MOVLW  0D
09B90:  MOVWF  FF7
09B92:  MOVLW  00
09B94:  MOVWF  FF8
09B96:  MOVLW  0C
09B98:  MOVLB  6
09B9A:  MOVWF  x27
09B9C:  MOVLB  0
09B9E:  CALL   543C
09BA2:  MOVLW  02
09BA4:  MOVWF  FE9
09BA6:  MOVFF  625,62A
09BAA:  MOVFF  624,629
09BAE:  MOVFF  623,628
09BB2:  MOVFF  622,627
09BB6:  MOVLB  6
09BB8:  CLRF   x2B
09BBA:  MOVLB  0
09BBC:  CALL   570A
09BC0:  MOVLW  20
09BC2:  BTFSS  F9E.4
09BC4:  BRA    9BC2
09BC6:  MOVWF  FAD
09BC8:  MOVLW  0A
09BCA:  MOVWF  FE9
09BCC:  MOVFF  1EE,627
09BD0:  MOVFF  1ED,626
09BD4:  CALL   559C
09BD8:  MOVLW  22
09BDA:  BTFSS  F9E.4
09BDC:  BRA    9BDA
09BDE:  MOVWF  FAD
....................          SendDataDisplay(); 
09BE0:  CALL   3EE4
....................          printf("b19.txt=\"T2:%3.1f\"",Temperatura2); 
09BE4:  MOVLW  96
09BE6:  MOVWF  FF6
09BE8:  MOVLW  0D
09BEA:  MOVWF  FF7
09BEC:  MOVLW  00
09BEE:  MOVWF  FF8
09BF0:  MOVLW  0C
09BF2:  MOVLB  6
09BF4:  MOVWF  x27
09BF6:  MOVLB  0
09BF8:  CALL   543C
09BFC:  MOVLW  02
09BFE:  MOVWF  FE9
09C00:  MOVFF  1BA,62A
09C04:  MOVFF  1B9,629
09C08:  MOVFF  1B8,628
09C0C:  MOVFF  1B7,627
09C10:  MOVLW  01
09C12:  MOVLB  6
09C14:  MOVWF  x2B
09C16:  MOVLB  0
09C18:  CALL   570A
09C1C:  MOVLW  22
09C1E:  BTFSS  F9E.4
09C20:  BRA    9C1E
09C22:  MOVWF  FAD
....................          SendDataDisplay(); 
09C24:  CALL   3EE4
....................          printf("b20.txt=\"T1:%3.1f\"",Temperatura); 
09C28:  MOVLW  AA
09C2A:  MOVWF  FF6
09C2C:  MOVLW  0D
09C2E:  MOVWF  FF7
09C30:  MOVLW  00
09C32:  MOVWF  FF8
09C34:  MOVLW  0C
09C36:  MOVLB  6
09C38:  MOVWF  x27
09C3A:  MOVLB  0
09C3C:  CALL   543C
09C40:  MOVLW  02
09C42:  MOVWF  FE9
09C44:  MOVFF  1B6,62A
09C48:  MOVFF  1B5,629
09C4C:  MOVFF  1B4,628
09C50:  MOVFF  1B3,627
09C54:  MOVLW  01
09C56:  MOVLB  6
09C58:  MOVWF  x2B
09C5A:  MOVLB  0
09C5C:  CALL   570A
09C60:  MOVLW  22
09C62:  BTFSS  F9E.4
09C64:  BRA    9C62
09C66:  MOVWF  FAD
....................          SendDataDisplay(); 
09C68:  CALL   3EE4
....................           
....................          if(RX_Buffer[4]==0x21)//Oprimio salir 
09C6C:  MOVF   34,W
09C6E:  SUBLW  21
09C70:  BNZ   9C92
....................          { 
....................             printf("page Menu"); 
09C72:  MOVLW  BE
09C74:  MOVWF  FF6
09C76:  MOVLW  0D
09C78:  MOVWF  FF7
09C7A:  MOVLW  00
09C7C:  MOVWF  FF8
09C7E:  CALL   3EB2
....................             SendDataDisplay(); 
09C82:  CALL   3EE4
....................             PantallaPrincipal=0; 
09C86:  MOVLB  1
09C88:  CLRF   x74
....................             PruebaEstados=OFF; 
09C8A:  MOVLB  0
09C8C:  BCF    x86.4
....................             ApagaSalidas(); 
09C8E:  CALL   3F1A
09C92:  MOVLB  1
....................             // Falta apagar Todo 
....................          } 
....................      } 
.................... //_--------------------------------------------------------------------------------------------------------------------------------------------------------     
....................  
.................... //_--------------------------------------------------------------------------------------------------------------------------------------------------------       
....................     if(Menu==7){ //Menu de Configuracin de Fecha y Hora 
09C94:  MOVF   xCF,W
09C96:  SUBLW  07
09C98:  BTFSS  FD8.2
09C9A:  BRA    A084
....................        
....................          if(RX_Buffer[4]==0x0a)//Selecciono Hora 
09C9C:  MOVF   34,W
09C9E:  SUBLW  0A
09CA0:  BNZ   9CA6
....................             Opcion=4; 
09CA2:  MOVLW  04
09CA4:  MOVWF  xDA
....................           
....................          if(RX_Buffer[4]==0x0b)//Selecciono Minuto 
09CA6:  MOVF   34,W
09CA8:  SUBLW  0B
09CAA:  BNZ   9CB0
....................             Opcion=5; 
09CAC:  MOVLW  05
09CAE:  MOVWF  xDA
....................           
....................          if(RX_Buffer[4]==0x0c)//Selecciono Dia 
09CB0:  MOVF   34,W
09CB2:  SUBLW  0C
09CB4:  BNZ   9CBA
....................             Opcion=1; 
09CB6:  MOVLW  01
09CB8:  MOVWF  xDA
....................           
....................          if(RX_Buffer[4]==0x0d)//Selecciono Hora 
09CBA:  MOVF   34,W
09CBC:  SUBLW  0D
09CBE:  BNZ   9CC4
....................             Opcion=2; 
09CC0:  MOVLW  02
09CC2:  MOVWF  xDA
....................           
....................          if(RX_Buffer[4]==0x0e)//Selecciono Year 
09CC4:  MOVF   34,W
09CC6:  SUBLW  0E
09CC8:  BNZ   9CCE
....................             Opcion=3; 
09CCA:  MOVLW  03
09CCC:  MOVWF  xDA
....................           
....................          if(Opcion>5) 
09CCE:  MOVF   xDA,W
09CD0:  SUBLW  05
09CD2:  BC    9CD8
....................             Opcion=1; 
09CD4:  MOVLW  01
09CD6:  MOVWF  xDA
....................          if(Opcion<1) 
09CD8:  MOVF   xDA,F
09CDA:  BNZ   9CE0
....................             Opcion=5; 
09CDC:  MOVLW  05
09CDE:  MOVWF  xDA
....................              
....................          if(RX_Buffer[4]==0x11){//Selecciono Regresar 
09CE0:  MOVF   34,W
09CE2:  SUBLW  11
09CE4:  BTFSS  FD8.2
09CE6:  BRA    9E00
....................             printf("page Menu"); 
09CE8:  MOVLW  C8
09CEA:  MOVWF  FF6
09CEC:  MOVLW  0D
09CEE:  MOVWF  FF7
09CF0:  MOVLW  00
09CF2:  MOVWF  FF8
09CF4:  MOVLB  0
09CF6:  CALL   3EB2
....................             SendDataDisplay();   
09CFA:  CALL   3EE4
....................             PantallaPrincipal=0; 
09CFE:  MOVLB  1
09D00:  CLRF   x74
....................             Op=OFF; 
09D02:  MOVLB  0
09D04:  BCF    x87.0
....................             Op2=OFF; 
09D06:  BCF    x87.1
....................              
....................             if(esBisiesto(YearTx)) 
09D08:  MOVFF  216,622
09D0C:  CALL   58F4
09D10:  MOVF   01,F
09D12:  BZ    9D2E
....................                Modulo=Bisiesto[MesTx]; 
09D14:  CLRF   03
09D16:  MOVLB  2
09D18:  MOVF   x17,W
09D1A:  ADDLW  76
09D1C:  MOVWF  FE9
09D1E:  MOVLW  00
09D20:  ADDWFC 03,W
09D22:  MOVWF  FEA
09D24:  MOVFF  FEF,176
09D28:  MOVLB  1
....................             else 
09D2A:  BRA    9D44
09D2C:  MOVLB  0
....................                Modulo=Regular[MesTx]; 
09D2E:  CLRF   03
09D30:  MOVLB  2
09D32:  MOVF   x17,W
09D34:  ADDLW  6A
09D36:  MOVWF  FE9
09D38:  MOVLW  00
09D3A:  ADDWFC 03,W
09D3C:  MOVWF  FEA
09D3E:  MOVFF  FEF,176
09D42:  MOVLB  1
....................           
....................             dowTx=((YearTx-1)%7+((YearTx-1)/4-3*((YearTx-1)/100+1)/4)%7+Modulo+DiaTx%7)%7; 
09D44:  MOVLW  01
09D46:  MOVLB  2
09D48:  SUBWF  x16,W
09D4A:  MOVLB  6
09D4C:  MOVWF  x23
09D4E:  MOVWF  x2B
09D50:  MOVLW  07
09D52:  MOVWF  x2C
09D54:  MOVLB  0
09D56:  CALL   5494
09D5A:  MOVFF  00,622
09D5E:  MOVLW  01
09D60:  MOVLB  2
09D62:  SUBWF  x16,W
09D64:  MOVWF  00
09D66:  RRCF   00,W
09D68:  MOVLB  6
09D6A:  MOVWF  x23
09D6C:  RRCF   x23,F
09D6E:  MOVLW  3F
09D70:  ANDWF  x23,F
09D72:  MOVLW  01
09D74:  MOVLB  2
09D76:  SUBWF  x16,W
09D78:  MOVLB  6
09D7A:  MOVWF  x25
09D7C:  MOVWF  x2B
09D7E:  MOVLW  64
09D80:  MOVWF  x2C
09D82:  MOVLB  0
09D84:  CALL   5494
09D88:  MOVLW  01
09D8A:  ADDWF  01,W
09D8C:  MULLW  03
09D8E:  MOVFF  FF3,00
09D92:  RRCF   00,F
09D94:  RRCF   00,F
09D96:  MOVLW  3F
09D98:  ANDWF  00,F
09D9A:  MOVF   00,W
09D9C:  MOVLB  6
09D9E:  SUBWF  x23,W
09DA0:  MOVWF  x24
09DA2:  MOVWF  x2B
09DA4:  MOVLW  07
09DA6:  MOVWF  x2C
09DA8:  MOVLB  0
09DAA:  CALL   5494
09DAE:  MOVF   00,W
09DB0:  MOVLB  6
09DB2:  ADDWF  x22,W
09DB4:  MOVLB  1
09DB6:  ADDWF  x76,W
09DB8:  MOVLB  6
09DBA:  MOVWF  x22
09DBC:  MOVFF  218,62B
09DC0:  MOVLW  07
09DC2:  MOVWF  x2C
09DC4:  MOVLB  0
09DC6:  CALL   5494
09DCA:  MOVF   00,W
09DCC:  MOVLB  6
09DCE:  ADDWF  x22,W
09DD0:  MOVWF  x23
09DD2:  MOVWF  x2B
09DD4:  MOVLW  07
09DD6:  MOVWF  x2C
09DD8:  MOVLB  0
09DDA:  CALL   5494
09DDE:  MOVFF  00,21C
....................             rtc_set_datetime(DiaTx,MesTx,YearTx,dowTx,HoraTx,MinutoTx); 
09DE2:  MOVFF  218,622
09DE6:  MOVFF  217,623
09DEA:  MOVFF  216,624
09DEE:  MOVFF  21C,625
09DF2:  MOVFF  219,626
09DF6:  MOVFF  21A,627
09DFA:  GOTO   5976
09DFE:  MOVLB  1
....................          } 
....................           
....................          if(RX_Buffer[4]==0x2a){//Tecla Arriba Oprimida 
09E00:  MOVF   34,W
09E02:  SUBLW  2A
09E04:  BTFSS  FD8.2
09E06:  BRA    9F00
....................                if(Opcion==1){ 
09E08:  DECFSZ xDA,W
09E0A:  BRA    9E9C
....................                   if(MesTx==2){ 
09E0C:  MOVLB  2
09E0E:  MOVF   x17,W
09E10:  SUBLW  02
09E12:  BNZ   9E48
....................                      if(esBisiesto(YearTx)){ 
09E14:  MOVFF  216,622
09E18:  MOVLB  0
09E1A:  CALL   58F4
09E1E:  MOVF   01,F
09E20:  BZ    9E36
....................                         if(DiaTx<29) 
09E22:  MOVLB  2
09E24:  MOVF   x18,W
09E26:  SUBLW  1C
09E28:  BNC   9E2E
....................                            DiaTx++; 
09E2A:  INCF   x18,F
....................                         else 
09E2C:  BRA    9E32
....................                            DiaTx=1;    
09E2E:  MOVLW  01
09E30:  MOVWF  x18
....................                      }else{ 
09E32:  BRA    9E46
09E34:  MOVLB  0
....................                         if(DiaTx<28) 
09E36:  MOVLB  2
09E38:  MOVF   x18,W
09E3A:  SUBLW  1B
09E3C:  BNC   9E42
....................                            DiaTx++; 
09E3E:  INCF   x18,F
....................                         else 
09E40:  BRA    9E46
....................                            DiaTx=1;    
09E42:  MOVLW  01
09E44:  MOVWF  x18
....................                      } 
....................                   }else{ 
09E46:  BRA    9E98
....................                      if(MesTx<=7){ 
09E48:  MOVF   x17,W
09E4A:  SUBLW  07
09E4C:  BNC   9E74
....................                         if(MesTx % 2 ==0){ 
09E4E:  MOVF   x17,W
09E50:  ANDLW  01
09E52:  BNZ   9E64
....................                            if(DiaTx<30) 
09E54:  MOVF   x18,W
09E56:  SUBLW  1D
09E58:  BNC   9E5E
....................                               DiaTx++;     
09E5A:  INCF   x18,F
....................                            else 
09E5C:  BRA    9E62
....................                               DiaTx=1;    
09E5E:  MOVLW  01
09E60:  MOVWF  x18
....................                         }else{ 
09E62:  BRA    9E72
....................                            if(DiaTx<31) 
09E64:  MOVF   x18,W
09E66:  SUBLW  1E
09E68:  BNC   9E6E
....................                               DiaTx++;     
09E6A:  INCF   x18,F
....................                            else 
09E6C:  BRA    9E72
....................                               DiaTx=1;    
09E6E:  MOVLW  01
09E70:  MOVWF  x18
....................                         }     
....................                      }else{ 
09E72:  BRA    9E98
....................                         if(MesTx % 2 ==0){ 
09E74:  MOVF   x17,W
09E76:  ANDLW  01
09E78:  BNZ   9E8A
....................                            if(DiaTx<31) 
09E7A:  MOVF   x18,W
09E7C:  SUBLW  1E
09E7E:  BNC   9E84
....................                               DiaTx++;   
09E80:  INCF   x18,F
....................                            else 
09E82:  BRA    9E88
....................                               DiaTx=1; 
09E84:  MOVLW  01
09E86:  MOVWF  x18
....................                         }else{ 
09E88:  BRA    9E98
....................                            if(DiaTx<30) 
09E8A:  MOVF   x18,W
09E8C:  SUBLW  1D
09E8E:  BNC   9E94
....................                               DiaTx++;     
09E90:  INCF   x18,F
....................                            else 
09E92:  BRA    9E98
....................                               DiaTx=1; 
09E94:  MOVLW  01
09E96:  MOVWF  x18
....................                         }     
....................                      } 
....................                   } 
....................                }else if(Opcion==2){ 
09E98:  BRA    9EFA
09E9A:  MOVLB  1
09E9C:  MOVF   xDA,W
09E9E:  SUBLW  02
09EA0:  BNZ   9EB6
....................                   if(MesTx<12) 
09EA2:  MOVLB  2
09EA4:  MOVF   x17,W
09EA6:  SUBLW  0B
09EA8:  BNC   9EAE
....................                      MesTx++; 
09EAA:  INCF   x17,F
....................                   else 
09EAC:  BRA    9EB2
....................                      MesTx=1; 
09EAE:  MOVLW  01
09EB0:  MOVWF  x17
....................                }else if(Opcion==3){ 
09EB2:  BRA    9EFA
09EB4:  MOVLB  1
09EB6:  MOVF   xDA,W
09EB8:  SUBLW  03
09EBA:  BNZ   9ECE
....................                   if(YearTx<99) 
09EBC:  MOVLB  2
09EBE:  MOVF   x16,W
09EC0:  SUBLW  62
09EC2:  BNC   9EC8
....................                      YearTx++; 
09EC4:  INCF   x16,F
....................                   else  
09EC6:  BRA    9ECA
....................                      YearTx=0; 
09EC8:  CLRF   x16
....................                }else if(Opcion==4){ 
09ECA:  BRA    9EFA
09ECC:  MOVLB  1
09ECE:  MOVF   xDA,W
09ED0:  SUBLW  04
09ED2:  BNZ   9EE6
....................                   if(HoraTx<24) 
09ED4:  MOVLB  2
09ED6:  MOVF   x19,W
09ED8:  SUBLW  17
09EDA:  BNC   9EE0
....................                      HoraTx++; 
09EDC:  INCF   x19,F
....................                   else 
09EDE:  BRA    9EE2
....................                      HoraTx=0; 
09EE0:  CLRF   x19
....................                }else if(Opcion==5){ 
09EE2:  BRA    9EFA
09EE4:  MOVLB  1
09EE6:  MOVF   xDA,W
09EE8:  SUBLW  05
09EEA:  BNZ   9EFC
....................                   if(MinutoTx<59) 
09EEC:  MOVLB  2
09EEE:  MOVF   x1A,W
09EF0:  SUBLW  3A
09EF2:  BNC   9EF8
....................                      MinutoTx++; 
09EF4:  INCF   x1A,F
....................                   else 
09EF6:  BRA    9EFA
....................                      MinutoTx=0; 
09EF8:  CLRF   x1A
09EFA:  MOVLB  1
....................                } 
....................                RX_Buffer[4]=0x00; 
09EFC:  CLRF   34
....................                RX_Buffer2[4]=0x00; 
09EFE:  CLRF   3F
....................          } 
....................           
....................          if(RX_Buffer[4]==0x2b){//Tecla Abajo Oprimida  
09F00:  MOVF   34,W
09F02:  SUBLW  2B
09F04:  BNZ   9F7A
....................                if(Opcion==1){ 
09F06:  DECFSZ xDA,W
09F08:  BRA    9F16
....................                   if(DiaTx>0) 
09F0A:  MOVLB  2
09F0C:  MOVF   x18,F
09F0E:  BZ    9F12
....................                      DiaTx--; 
09F10:  DECF   x18,F
....................                }else if(Opcion==2){ 
09F12:  BRA    9F74
09F14:  MOVLB  1
09F16:  MOVF   xDA,W
09F18:  SUBLW  02
09F1A:  BNZ   9F30
....................                   if(MesTx>1) 
09F1C:  MOVLB  2
09F1E:  MOVF   x17,W
09F20:  SUBLW  01
09F22:  BC    9F28
....................                      MesTx--; 
09F24:  DECF   x17,F
....................                   else 
09F26:  BRA    9F2C
....................                      MesTx=12; 
09F28:  MOVLW  0C
09F2A:  MOVWF  x17
....................                }else if(Opcion==3){ 
09F2C:  BRA    9F74
09F2E:  MOVLB  1
09F30:  MOVF   xDA,W
09F32:  SUBLW  03
09F34:  BNZ   9F48
....................                   if(YearTx>0) 
09F36:  MOVLB  2
09F38:  MOVF   x16,F
09F3A:  BZ    9F40
....................                      YearTx--; 
09F3C:  DECF   x16,F
....................                   else 
09F3E:  BRA    9F44
....................                      YearTx=99; 
09F40:  MOVLW  63
09F42:  MOVWF  x16
....................                }else if(Opcion==4){ 
09F44:  BRA    9F74
09F46:  MOVLB  1
09F48:  MOVF   xDA,W
09F4A:  SUBLW  04
09F4C:  BNZ   9F60
....................                   if(HoraTx>0) 
09F4E:  MOVLB  2
09F50:  MOVF   x19,F
09F52:  BZ    9F58
....................                      HoraTx--; 
09F54:  DECF   x19,F
....................                   else 
09F56:  BRA    9F5C
....................                      HoraTx=23; 
09F58:  MOVLW  17
09F5A:  MOVWF  x19
....................                }else if(Opcion==5){ 
09F5C:  BRA    9F74
09F5E:  MOVLB  1
09F60:  MOVF   xDA,W
09F62:  SUBLW  05
09F64:  BNZ   9F76
....................                   if(MinutoTx>0) 
09F66:  MOVLB  2
09F68:  MOVF   x1A,F
09F6A:  BZ    9F70
....................                      MinutoTx--; 
09F6C:  DECF   x1A,F
....................                   else 
09F6E:  BRA    9F74
....................                      MinutoTx=59; 
09F70:  MOVLW  3B
09F72:  MOVWF  x1A
09F74:  MOVLB  1
....................                } 
....................                RX_Buffer[4]=0x00; 
09F76:  CLRF   34
....................                RX_Buffer2[4]=0x00; 
09F78:  CLRF   3F
....................                //BorraBuffer(); 
....................          } 
....................        
....................       printf("thora.txt=\"%02u\"",HoraTx); 
09F7A:  MOVLW  D2
09F7C:  MOVWF  FF6
09F7E:  MOVLW  0D
09F80:  MOVWF  FF7
09F82:  MOVLW  00
09F84:  MOVWF  FF8
09F86:  MOVLW  0B
09F88:  MOVLB  6
09F8A:  MOVWF  x27
09F8C:  MOVLB  0
09F8E:  CALL   543C
09F92:  MOVFF  219,627
09F96:  MOVLW  01
09F98:  MOVLB  6
09F9A:  MOVWF  x28
09F9C:  MOVLB  0
09F9E:  CALL   54C0
09FA2:  MOVLW  22
09FA4:  BTFSS  F9E.4
09FA6:  BRA    9FA4
09FA8:  MOVWF  FAD
....................       SendDataDisplay(); 
09FAA:  CALL   3EE4
....................       printf("tminutos.txt=\"%02u\"",MinutoTx); 
09FAE:  MOVLW  E4
09FB0:  MOVWF  FF6
09FB2:  MOVLW  0D
09FB4:  MOVWF  FF7
09FB6:  MOVLW  00
09FB8:  MOVWF  FF8
09FBA:  MOVLW  0E
09FBC:  MOVLB  6
09FBE:  MOVWF  x27
09FC0:  MOVLB  0
09FC2:  CALL   543C
09FC6:  MOVFF  21A,627
09FCA:  MOVLW  01
09FCC:  MOVLB  6
09FCE:  MOVWF  x28
09FD0:  MOVLB  0
09FD2:  CALL   54C0
09FD6:  MOVLW  22
09FD8:  BTFSS  F9E.4
09FDA:  BRA    9FD8
09FDC:  MOVWF  FAD
....................       SendDataDisplay(); 
09FDE:  CALL   3EE4
....................       printf("tdia.txt=\"%02u\"",DiaTx); 
09FE2:  MOVLW  F8
09FE4:  MOVWF  FF6
09FE6:  MOVLW  0D
09FE8:  MOVWF  FF7
09FEA:  MOVLW  00
09FEC:  MOVWF  FF8
09FEE:  MOVLW  0A
09FF0:  MOVLB  6
09FF2:  MOVWF  x27
09FF4:  MOVLB  0
09FF6:  CALL   543C
09FFA:  MOVFF  218,627
09FFE:  MOVLW  01
0A000:  MOVLB  6
0A002:  MOVWF  x28
0A004:  MOVLB  0
0A006:  CALL   54C0
0A00A:  MOVLW  22
0A00C:  BTFSS  F9E.4
0A00E:  BRA    A00C
0A010:  MOVWF  FAD
....................       SendDataDisplay(); 
0A012:  CALL   3EE4
....................       printf("tmes.txt=\"%02u\"",MesTx); 
0A016:  MOVLW  08
0A018:  MOVWF  FF6
0A01A:  MOVLW  0E
0A01C:  MOVWF  FF7
0A01E:  MOVLW  00
0A020:  MOVWF  FF8
0A022:  MOVLW  0A
0A024:  MOVLB  6
0A026:  MOVWF  x27
0A028:  MOVLB  0
0A02A:  CALL   543C
0A02E:  MOVFF  217,627
0A032:  MOVLW  01
0A034:  MOVLB  6
0A036:  MOVWF  x28
0A038:  MOVLB  0
0A03A:  CALL   54C0
0A03E:  MOVLW  22
0A040:  BTFSS  F9E.4
0A042:  BRA    A040
0A044:  MOVWF  FAD
....................       SendDataDisplay(); 
0A046:  CALL   3EE4
....................       printf("tyear.txt=\"%02u\"",YearTx); 
0A04A:  MOVLW  18
0A04C:  MOVWF  FF6
0A04E:  MOVLW  0E
0A050:  MOVWF  FF7
0A052:  MOVLW  00
0A054:  MOVWF  FF8
0A056:  MOVLW  0B
0A058:  MOVLB  6
0A05A:  MOVWF  x27
0A05C:  MOVLB  0
0A05E:  CALL   543C
0A062:  MOVFF  216,627
0A066:  MOVLW  01
0A068:  MOVLB  6
0A06A:  MOVWF  x28
0A06C:  MOVLB  0
0A06E:  CALL   54C0
0A072:  MOVLW  22
0A074:  BTFSS  F9E.4
0A076:  BRA    A074
0A078:  MOVWF  FAD
....................       SendDataDisplay(); 
0A07A:  CALL   3EE4
....................       LimitaDia();   
0A07E:  GOTO   5A32
0A082:  MOVLB  1
....................     } 
.................... //_--------------------------------------------------------------------------------------------------------------------------------------------------------        
....................  
.................... //_-------------------------------------------------------------------------------------------------------------------------------------------------------- 
....................    if(Menu==8){ //Menu Ciclos Personalizados 
0A084:  MOVF   xCF,W
0A086:  SUBLW  08
0A088:  BTFSS  FD8.2
0A08A:  GOTO   AE70
....................       printf("fecha.txt=\"Fecha:%02u/%02u/20%02u    Hora: %02u:%02u:%02u\"",Dia,Mes,Year,Hora,Minuto,Segundo); 
0A08E:  MOVLW  2A
0A090:  MOVWF  FF6
0A092:  MOVLW  0E
0A094:  MOVWF  FF7
0A096:  MOVLW  00
0A098:  MOVWF  FF8
0A09A:  MOVLW  11
0A09C:  MOVLB  6
0A09E:  MOVWF  x27
0A0A0:  MOVLB  0
0A0A2:  CALL   543C
0A0A6:  MOVFF  20B,627
0A0AA:  MOVLW  01
0A0AC:  MOVLB  6
0A0AE:  MOVWF  x28
0A0B0:  MOVLB  0
0A0B2:  CALL   54C0
0A0B6:  MOVLW  2F
0A0B8:  BTFSS  F9E.4
0A0BA:  BRA    A0B8
0A0BC:  MOVWF  FAD
0A0BE:  MOVFF  20A,627
0A0C2:  MOVLW  01
0A0C4:  MOVLB  6
0A0C6:  MOVWF  x28
0A0C8:  MOVLB  0
0A0CA:  CALL   54C0
0A0CE:  MOVLW  2F
0A0D0:  BTFSS  F9E.4
0A0D2:  BRA    A0D0
0A0D4:  MOVWF  FAD
0A0D6:  MOVLW  32
0A0D8:  BTFSS  F9E.4
0A0DA:  BRA    A0D8
0A0DC:  MOVWF  FAD
0A0DE:  MOVLW  30
0A0E0:  BTFSS  F9E.4
0A0E2:  BRA    A0E0
0A0E4:  MOVWF  FAD
0A0E6:  MOVFF  209,627
0A0EA:  MOVLW  01
0A0EC:  MOVLB  6
0A0EE:  MOVWF  x28
0A0F0:  MOVLB  0
0A0F2:  CALL   54C0
0A0F6:  MOVLW  4B
0A0F8:  MOVWF  FF6
0A0FA:  MOVLW  0E
0A0FC:  MOVWF  FF7
0A0FE:  MOVLW  00
0A100:  MOVWF  FF8
0A102:  MOVLW  0A
0A104:  MOVLB  6
0A106:  MOVWF  x27
0A108:  MOVLB  0
0A10A:  CALL   543C
0A10E:  MOVFF  20C,627
0A112:  MOVLW  01
0A114:  MOVLB  6
0A116:  MOVWF  x28
0A118:  MOVLB  0
0A11A:  CALL   54C0
0A11E:  MOVLW  3A
0A120:  BTFSS  F9E.4
0A122:  BRA    A120
0A124:  MOVWF  FAD
0A126:  MOVFF  20D,627
0A12A:  MOVLW  01
0A12C:  MOVLB  6
0A12E:  MOVWF  x28
0A130:  MOVLB  0
0A132:  CALL   54C0
0A136:  MOVLW  3A
0A138:  BTFSS  F9E.4
0A13A:  BRA    A138
0A13C:  MOVWF  FAD
0A13E:  MOVFF  20E,627
0A142:  MOVLW  01
0A144:  MOVLB  6
0A146:  MOVWF  x28
0A148:  MOVLB  0
0A14A:  CALL   54C0
0A14E:  MOVLW  22
0A150:  BTFSS  F9E.4
0A152:  BRA    A150
0A154:  MOVWF  FAD
....................       SendDataDisplay(); 
0A156:  CALL   3EE4
....................       GuardaEEPROM=OFF; 
0A15A:  BCF    x87.4
....................       printf("tuser.txt=\"%s\"",usuario); 
0A15C:  MOVLW  66
0A15E:  MOVWF  FF6
0A160:  MOVLW  0E
0A162:  MOVWF  FF7
0A164:  MOVLW  00
0A166:  MOVWF  FF8
0A168:  MOVLW  0B
0A16A:  MOVLB  6
0A16C:  MOVWF  x27
0A16E:  MOVLB  0
0A170:  CALL   543C
0A174:  MOVLW  02
0A176:  MOVWF  FEA
0A178:  MOVLW  28
0A17A:  MOVWF  FE9
0A17C:  CALL   546E
0A180:  MOVLW  22
0A182:  BTFSS  F9E.4
0A184:  BRA    A182
0A186:  MOVWF  FAD
....................       SendDataDisplay(); 
0A188:  CALL   3EE4
....................        
....................       if(RX_Buffer[4]>0x00 && RX_Buffer[4]<0x15 && estados[RX_Buffer[4]-1]){//Personalizados 
0A18C:  MOVF   34,F
0A18E:  BTFSC  FD8.2
0A190:  BRA    A458
0A192:  MOVF   34,W
0A194:  SUBLW  14
0A196:  BTFSS  FD8.0
0A198:  BRA    A458
0A19A:  MOVLW  01
0A19C:  SUBWF  34,W
0A19E:  MOVLB  6
0A1A0:  MOVWF  x23
0A1A2:  MOVLW  02
0A1A4:  MOVWF  x25
0A1A6:  MOVLW  8E
0A1A8:  MOVWF  x24
0A1AA:  MOVLB  0
0A1AC:  CALL   2376
0A1B0:  BTFSS  01.0
0A1B2:  BRA    A458
....................          printf("ciclo.txt=\"CICLO P%02u\"",RX_Buffer[4]+0x0a); 
0A1B4:  MOVLW  0A
0A1B6:  ADDWF  34,W
0A1B8:  MOVLB  6
0A1BA:  MOVWF  x22
0A1BC:  MOVLW  76
0A1BE:  MOVWF  FF6
0A1C0:  MOVLW  0E
0A1C2:  MOVWF  FF7
0A1C4:  MOVLW  00
0A1C6:  MOVWF  FF8
0A1C8:  MOVLW  12
0A1CA:  MOVWF  x27
0A1CC:  MOVLB  0
0A1CE:  CALL   543C
0A1D2:  MOVFF  622,627
0A1D6:  MOVLW  01
0A1D8:  MOVLB  6
0A1DA:  MOVWF  x28
0A1DC:  MOVLB  0
0A1DE:  CALL   54C0
0A1E2:  MOVLW  22
0A1E4:  BTFSS  F9E.4
0A1E6:  BRA    A1E4
0A1E8:  MOVWF  FAD
....................          SendDataDisplay();           
0A1EA:  CALL   3EE4
....................          printf("temp.txt=\"%u\"",CiclosPersonalizados[RX_Buffer[4]-1].Temperatura); 
0A1EE:  MOVLW  01
0A1F0:  SUBWF  34,W
0A1F2:  MULLW  08
0A1F4:  MOVF   FF3,W
0A1F6:  MOVLB  6
0A1F8:  CLRF   x23
0A1FA:  MOVWF  x22
0A1FC:  MOVLW  5A
0A1FE:  ADDWF  x22,W
0A200:  MOVWF  FE9
0A202:  MOVLW  05
0A204:  ADDWFC x23,W
0A206:  MOVWF  FEA
0A208:  MOVFF  FEF,622
0A20C:  MOVLW  8E
0A20E:  MOVWF  FF6
0A210:  MOVLW  0E
0A212:  MOVWF  FF7
0A214:  MOVLW  00
0A216:  MOVWF  FF8
0A218:  MOVLW  0A
0A21A:  MOVWF  x27
0A21C:  MOVLB  0
0A21E:  CALL   543C
0A222:  MOVFF  622,627
0A226:  MOVLW  1B
0A228:  MOVLB  6
0A22A:  MOVWF  x28
0A22C:  MOVLB  0
0A22E:  CALL   54C0
0A232:  MOVLW  22
0A234:  BTFSS  F9E.4
0A236:  BRA    A234
0A238:  MOVWF  FAD
....................          SendDataDisplay(); 
0A23A:  CALL   3EE4
....................          printf("test.txt=\"%02u:%02u\"",CiclosPersonalizados[RX_Buffer[4]-1].Minutoest,CiclosPersonalizados[RX_Buffer[4]-1].Segundoest); 
0A23E:  MOVLW  01
0A240:  SUBWF  34,W
0A242:  MULLW  08
0A244:  MOVF   FF3,W
0A246:  MOVLB  6
0A248:  CLRF   x23
0A24A:  MOVWF  x22
0A24C:  MOVLW  01
0A24E:  ADDWF  x22,W
0A250:  MOVWF  01
0A252:  MOVLW  00
0A254:  ADDWFC x23,W
0A256:  MOVWF  03
0A258:  MOVF   01,W
0A25A:  ADDLW  5A
0A25C:  MOVWF  FE9
0A25E:  MOVLW  05
0A260:  ADDWFC 03,W
0A262:  MOVWF  FEA
0A264:  MOVFF  FEF,622
0A268:  MOVLW  01
0A26A:  SUBWF  34,W
0A26C:  MULLW  08
0A26E:  MOVF   FF3,W
0A270:  CLRF   x24
0A272:  MOVWF  x23
0A274:  MOVLW  02
0A276:  ADDWF  x23,W
0A278:  MOVWF  01
0A27A:  MOVLW  00
0A27C:  ADDWFC x24,W
0A27E:  MOVWF  03
0A280:  MOVF   01,W
0A282:  ADDLW  5A
0A284:  MOVWF  FE9
0A286:  MOVLW  05
0A288:  ADDWFC 03,W
0A28A:  MOVWF  FEA
0A28C:  MOVFF  FEF,623
0A290:  MOVLW  9C
0A292:  MOVWF  FF6
0A294:  MOVLW  0E
0A296:  MOVWF  FF7
0A298:  MOVLW  00
0A29A:  MOVWF  FF8
0A29C:  MOVLW  0A
0A29E:  MOVWF  x27
0A2A0:  MOVLB  0
0A2A2:  CALL   543C
0A2A6:  MOVFF  622,627
0A2AA:  MOVLW  01
0A2AC:  MOVLB  6
0A2AE:  MOVWF  x28
0A2B0:  MOVLB  0
0A2B2:  CALL   54C0
0A2B6:  MOVLW  3A
0A2B8:  BTFSS  F9E.4
0A2BA:  BRA    A2B8
0A2BC:  MOVWF  FAD
0A2BE:  MOVFF  623,627
0A2C2:  MOVLW  01
0A2C4:  MOVLB  6
0A2C6:  MOVWF  x28
0A2C8:  MOVLB  0
0A2CA:  CALL   54C0
0A2CE:  MOVLW  22
0A2D0:  BTFSS  F9E.4
0A2D2:  BRA    A2D0
0A2D4:  MOVWF  FAD
....................          SendDataDisplay(); 
0A2D6:  CALL   3EE4
....................          printf("tsec.txt=\"%02u:%02u\"",CiclosPersonalizados[RX_Buffer[4]-1].Minutosec,CiclosPersonalizados[RX_Buffer[4]-1].Segundosec); 
0A2DA:  MOVLW  01
0A2DC:  SUBWF  34,W
0A2DE:  MULLW  08
0A2E0:  MOVF   FF3,W
0A2E2:  MOVLB  6
0A2E4:  CLRF   x23
0A2E6:  MOVWF  x22
0A2E8:  MOVLW  03
0A2EA:  ADDWF  x22,W
0A2EC:  MOVWF  01
0A2EE:  MOVLW  00
0A2F0:  ADDWFC x23,W
0A2F2:  MOVWF  03
0A2F4:  MOVF   01,W
0A2F6:  ADDLW  5A
0A2F8:  MOVWF  FE9
0A2FA:  MOVLW  05
0A2FC:  ADDWFC 03,W
0A2FE:  MOVWF  FEA
0A300:  MOVFF  FEF,622
0A304:  MOVLW  01
0A306:  SUBWF  34,W
0A308:  MULLW  08
0A30A:  MOVF   FF3,W
0A30C:  CLRF   x24
0A30E:  MOVWF  x23
0A310:  MOVLW  04
0A312:  ADDWF  x23,W
0A314:  MOVWF  01
0A316:  MOVLW  00
0A318:  ADDWFC x24,W
0A31A:  MOVWF  03
0A31C:  MOVF   01,W
0A31E:  ADDLW  5A
0A320:  MOVWF  FE9
0A322:  MOVLW  05
0A324:  ADDWFC 03,W
0A326:  MOVWF  FEA
0A328:  MOVFF  FEF,623
0A32C:  MOVLW  B2
0A32E:  MOVWF  FF6
0A330:  MOVLW  0E
0A332:  MOVWF  FF7
0A334:  MOVLW  00
0A336:  MOVWF  FF8
0A338:  MOVLW  0A
0A33A:  MOVWF  x27
0A33C:  MOVLB  0
0A33E:  CALL   543C
0A342:  MOVFF  622,627
0A346:  MOVLW  01
0A348:  MOVLB  6
0A34A:  MOVWF  x28
0A34C:  MOVLB  0
0A34E:  CALL   54C0
0A352:  MOVLW  3A
0A354:  BTFSS  F9E.4
0A356:  BRA    A354
0A358:  MOVWF  FAD
0A35A:  MOVFF  623,627
0A35E:  MOVLW  01
0A360:  MOVLB  6
0A362:  MOVWF  x28
0A364:  MOVLB  0
0A366:  CALL   54C0
0A36A:  MOVLW  22
0A36C:  BTFSS  F9E.4
0A36E:  BRA    A36C
0A370:  MOVWF  FAD
....................          SendDataDisplay(); 
0A372:  CALL   3EE4
....................          printf("pulsos.txt=\"%02u\"",CiclosPersonalizados[RX_Buffer[4]-1].PulsosVacio); 
0A376:  MOVLW  01
0A378:  SUBWF  34,W
0A37A:  MULLW  08
0A37C:  MOVF   FF3,W
0A37E:  MOVLB  6
0A380:  CLRF   x23
0A382:  MOVWF  x22
0A384:  MOVLW  05
0A386:  ADDWF  x22,W
0A388:  MOVWF  01
0A38A:  MOVLW  00
0A38C:  ADDWFC x23,W
0A38E:  MOVWF  03
0A390:  MOVF   01,W
0A392:  ADDLW  5A
0A394:  MOVWF  FE9
0A396:  MOVLW  05
0A398:  ADDWFC 03,W
0A39A:  MOVWF  FEA
0A39C:  MOVFF  FEF,622
0A3A0:  MOVLW  C8
0A3A2:  MOVWF  FF6
0A3A4:  MOVLW  0E
0A3A6:  MOVWF  FF7
0A3A8:  MOVLW  00
0A3AA:  MOVWF  FF8
0A3AC:  MOVLW  0C
0A3AE:  MOVWF  x27
0A3B0:  MOVLB  0
0A3B2:  CALL   543C
0A3B6:  MOVFF  622,627
0A3BA:  MOVLW  01
0A3BC:  MOVLB  6
0A3BE:  MOVWF  x28
0A3C0:  MOVLB  0
0A3C2:  CALL   54C0
0A3C6:  MOVLW  22
0A3C8:  BTFSS  F9E.4
0A3CA:  BRA    A3C8
0A3CC:  MOVWF  FAD
....................          SendDataDisplay(); 
0A3CE:  CALL   3EE4
....................          printf("vacio.txt=\"%03u kPa\"",CiclosPersonalizados[RX_Buffer[4]-1].NivelVacio); 
0A3D2:  MOVLW  01
0A3D4:  SUBWF  34,W
0A3D6:  MULLW  08
0A3D8:  MOVF   FF3,W
0A3DA:  MOVLB  6
0A3DC:  CLRF   x23
0A3DE:  MOVWF  x22
0A3E0:  MOVLW  06
0A3E2:  ADDWF  x22,W
0A3E4:  MOVWF  01
0A3E6:  MOVLW  00
0A3E8:  ADDWFC x23,W
0A3EA:  MOVWF  03
0A3EC:  MOVF   01,W
0A3EE:  ADDLW  5A
0A3F0:  MOVWF  FE9
0A3F2:  MOVLW  05
0A3F4:  ADDWFC 03,W
0A3F6:  MOVWF  FEA
0A3F8:  MOVFF  FEF,622
0A3FC:  MOVLW  DA
0A3FE:  MOVWF  FF6
0A400:  MOVLW  0E
0A402:  MOVWF  FF7
0A404:  MOVLW  00
0A406:  MOVWF  FF8
0A408:  MOVLW  0B
0A40A:  MOVWF  x27
0A40C:  MOVLB  0
0A40E:  CALL   543C
0A412:  MOVFF  622,627
0A416:  MOVLW  03
0A418:  MOVLB  6
0A41A:  MOVWF  x28
0A41C:  MOVLB  0
0A41E:  CALL   54C0
0A422:  MOVLW  E9
0A424:  MOVWF  FF6
0A426:  MOVLW  0E
0A428:  MOVWF  FF7
0A42A:  MOVLW  00
0A42C:  MOVWF  FF8
0A42E:  MOVLW  05
0A430:  MOVLB  6
0A432:  MOVWF  x27
0A434:  MOVLB  0
0A436:  CALL   543C
....................          SendDataDisplay(); 
0A43A:  CALL   3EE4
....................          //printf("desfogue.txt=\"%u\"",CiclosPersonalizados[RX_Buffer[4]-1].NivelDesfogue); 
....................          printf("desfogue.txt=\"N/A\""); 
0A43E:  MOVLW  F0
0A440:  MOVWF  FF6
0A442:  MOVLW  0E
0A444:  MOVWF  FF7
0A446:  MOVLW  00
0A448:  MOVWF  FF8
0A44A:  CALL   3EB2
....................          SendDataDisplay(); 
0A44E:  CALL   3EE4
....................          CicloLibre=RX_Buffer[4]; 
0A452:  MOVFF  34,21F
....................       }else if(CicloLibre==0x00){ 
0A456:  BRA    A7CE
0A458:  MOVLB  2
0A45A:  MOVF   x1F,F
0A45C:  BNZ   A4F0
....................          printf("ciclo.txt=\"CICLO P--\""); 
0A45E:  MOVLW  04
0A460:  MOVWF  FF6
0A462:  MOVLW  0F
0A464:  MOVWF  FF7
0A466:  MOVLW  00
0A468:  MOVWF  FF8
0A46A:  MOVLB  0
0A46C:  CALL   3EB2
....................          SendDataDisplay();           
0A470:  CALL   3EE4
....................          printf("temp.txt=\"--\""); 
0A474:  MOVLW  1A
0A476:  MOVWF  FF6
0A478:  MOVLW  0F
0A47A:  MOVWF  FF7
0A47C:  MOVLW  00
0A47E:  MOVWF  FF8
0A480:  CALL   3EB2
....................          SendDataDisplay(); 
0A484:  CALL   3EE4
....................          printf("test.txt=\"--:--\""); 
0A488:  MOVLW  28
0A48A:  MOVWF  FF6
0A48C:  MOVLW  0F
0A48E:  MOVWF  FF7
0A490:  MOVLW  00
0A492:  MOVWF  FF8
0A494:  CALL   3EB2
....................          SendDataDisplay(); 
0A498:  CALL   3EE4
....................          printf("tsec.txt=\"--:--\""); 
0A49C:  MOVLW  3A
0A49E:  MOVWF  FF6
0A4A0:  MOVLW  0F
0A4A2:  MOVWF  FF7
0A4A4:  MOVLW  00
0A4A6:  MOVWF  FF8
0A4A8:  CALL   3EB2
....................          SendDataDisplay(); 
0A4AC:  CALL   3EE4
....................          printf("pulsos.txt=\"--\""); 
0A4B0:  MOVLW  4C
0A4B2:  MOVWF  FF6
0A4B4:  MOVLW  0F
0A4B6:  MOVWF  FF7
0A4B8:  MOVLW  00
0A4BA:  MOVWF  FF8
0A4BC:  CALL   3EB2
....................          SendDataDisplay(); 
0A4C0:  CALL   3EE4
....................          printf("vacio.txt=\"--\""); 
0A4C4:  MOVLW  5C
0A4C6:  MOVWF  FF6
0A4C8:  MOVLW  0F
0A4CA:  MOVWF  FF7
0A4CC:  MOVLW  00
0A4CE:  MOVWF  FF8
0A4D0:  CALL   3EB2
....................          SendDataDisplay(); 
0A4D4:  CALL   3EE4
....................          printf("desfogue.txt=\"--\""); 
0A4D8:  MOVLW  6C
0A4DA:  MOVWF  FF6
0A4DC:  MOVLW  0F
0A4DE:  MOVWF  FF7
0A4E0:  MOVLW  00
0A4E2:  MOVWF  FF8
0A4E4:  CALL   3EB2
....................          SendDataDisplay(); 
0A4E8:  CALL   3EE4
....................       }else if(CicloLibre>0 && CicloLibre<21 && estados[CicloLibre-1]){ 
0A4EC:  BRA    A7CE
0A4EE:  MOVLB  2
0A4F0:  MOVF   x1F,F
0A4F2:  BTFSC  FD8.2
0A4F4:  BRA    A7D0
0A4F6:  MOVF   x1F,W
0A4F8:  SUBLW  14
0A4FA:  BTFSS  FD8.0
0A4FC:  BRA    A7D0
0A4FE:  MOVLW  01
0A500:  SUBWF  x1F,W
0A502:  MOVLB  6
0A504:  MOVWF  x23
0A506:  MOVLW  02
0A508:  MOVWF  x25
0A50A:  MOVLW  8E
0A50C:  MOVWF  x24
0A50E:  MOVLB  0
0A510:  CALL   2376
0A514:  BTFSC  01.0
0A516:  BRA    A51C
0A518:  MOVLB  2
0A51A:  BRA    A7D0
....................          printf("ciclo.txt=\"CICLO P%02u\"",CicloLibre+0x0a); 
0A51C:  MOVLW  0A
0A51E:  MOVLB  2
0A520:  ADDWF  x1F,W
0A522:  MOVLB  6
0A524:  MOVWF  x22
0A526:  MOVLW  7E
0A528:  MOVWF  FF6
0A52A:  MOVLW  0F
0A52C:  MOVWF  FF7
0A52E:  MOVLW  00
0A530:  MOVWF  FF8
0A532:  MOVLW  12
0A534:  MOVWF  x27
0A536:  MOVLB  0
0A538:  CALL   543C
0A53C:  MOVFF  622,627
0A540:  MOVLW  01
0A542:  MOVLB  6
0A544:  MOVWF  x28
0A546:  MOVLB  0
0A548:  CALL   54C0
0A54C:  MOVLW  22
0A54E:  BTFSS  F9E.4
0A550:  BRA    A54E
0A552:  MOVWF  FAD
....................          SendDataDisplay();           
0A554:  CALL   3EE4
....................          printf("temp.txt=\"%u\"",CiclosPersonalizados[CicloLibre-1].Temperatura); 
0A558:  MOVLW  01
0A55A:  MOVLB  2
0A55C:  SUBWF  x1F,W
0A55E:  MULLW  08
0A560:  MOVF   FF3,W
0A562:  MOVLB  6
0A564:  CLRF   x23
0A566:  MOVWF  x22
0A568:  MOVLW  5A
0A56A:  ADDWF  x22,W
0A56C:  MOVWF  FE9
0A56E:  MOVLW  05
0A570:  ADDWFC x23,W
0A572:  MOVWF  FEA
0A574:  MOVFF  FEF,622
0A578:  MOVLW  96
0A57A:  MOVWF  FF6
0A57C:  MOVLW  0F
0A57E:  MOVWF  FF7
0A580:  MOVLW  00
0A582:  MOVWF  FF8
0A584:  MOVLW  0A
0A586:  MOVWF  x27
0A588:  MOVLB  0
0A58A:  CALL   543C
0A58E:  MOVFF  622,627
0A592:  MOVLW  1B
0A594:  MOVLB  6
0A596:  MOVWF  x28
0A598:  MOVLB  0
0A59A:  CALL   54C0
0A59E:  MOVLW  22
0A5A0:  BTFSS  F9E.4
0A5A2:  BRA    A5A0
0A5A4:  MOVWF  FAD
....................          SendDataDisplay(); 
0A5A6:  CALL   3EE4
....................          printf("test.txt=\"%02u:%02u\"",CiclosPersonalizados[CicloLibre-1].Minutoest,CiclosPersonalizados[CicloLibre-1].Segundoest); 
0A5AA:  MOVLW  01
0A5AC:  MOVLB  2
0A5AE:  SUBWF  x1F,W
0A5B0:  MULLW  08
0A5B2:  MOVF   FF3,W
0A5B4:  MOVLB  6
0A5B6:  CLRF   x23
0A5B8:  MOVWF  x22
0A5BA:  MOVLW  01
0A5BC:  ADDWF  x22,W
0A5BE:  MOVWF  01
0A5C0:  MOVLW  00
0A5C2:  ADDWFC x23,W
0A5C4:  MOVWF  03
0A5C6:  MOVF   01,W
0A5C8:  ADDLW  5A
0A5CA:  MOVWF  FE9
0A5CC:  MOVLW  05
0A5CE:  ADDWFC 03,W
0A5D0:  MOVWF  FEA
0A5D2:  MOVFF  FEF,622
0A5D6:  MOVLW  01
0A5D8:  MOVLB  2
0A5DA:  SUBWF  x1F,W
0A5DC:  MULLW  08
0A5DE:  MOVF   FF3,W
0A5E0:  MOVLB  6
0A5E2:  CLRF   x24
0A5E4:  MOVWF  x23
0A5E6:  MOVLW  02
0A5E8:  ADDWF  x23,W
0A5EA:  MOVWF  01
0A5EC:  MOVLW  00
0A5EE:  ADDWFC x24,W
0A5F0:  MOVWF  03
0A5F2:  MOVF   01,W
0A5F4:  ADDLW  5A
0A5F6:  MOVWF  FE9
0A5F8:  MOVLW  05
0A5FA:  ADDWFC 03,W
0A5FC:  MOVWF  FEA
0A5FE:  MOVFF  FEF,623
0A602:  MOVLW  A4
0A604:  MOVWF  FF6
0A606:  MOVLW  0F
0A608:  MOVWF  FF7
0A60A:  MOVLW  00
0A60C:  MOVWF  FF8
0A60E:  MOVLW  0A
0A610:  MOVWF  x27
0A612:  MOVLB  0
0A614:  CALL   543C
0A618:  MOVFF  622,627
0A61C:  MOVLW  01
0A61E:  MOVLB  6
0A620:  MOVWF  x28
0A622:  MOVLB  0
0A624:  CALL   54C0
0A628:  MOVLW  3A
0A62A:  BTFSS  F9E.4
0A62C:  BRA    A62A
0A62E:  MOVWF  FAD
0A630:  MOVFF  623,627
0A634:  MOVLW  01
0A636:  MOVLB  6
0A638:  MOVWF  x28
0A63A:  MOVLB  0
0A63C:  CALL   54C0
0A640:  MOVLW  22
0A642:  BTFSS  F9E.4
0A644:  BRA    A642
0A646:  MOVWF  FAD
....................          SendDataDisplay(); 
0A648:  CALL   3EE4
....................          printf("tsec.txt=\"%02u:%02u\"",CiclosPersonalizados[CicloLibre-1].Minutosec,CiclosPersonalizados[CicloLibre-1].Segundosec); 
0A64C:  MOVLW  01
0A64E:  MOVLB  2
0A650:  SUBWF  x1F,W
0A652:  MULLW  08
0A654:  MOVF   FF3,W
0A656:  MOVLB  6
0A658:  CLRF   x23
0A65A:  MOVWF  x22
0A65C:  MOVLW  03
0A65E:  ADDWF  x22,W
0A660:  MOVWF  01
0A662:  MOVLW  00
0A664:  ADDWFC x23,W
0A666:  MOVWF  03
0A668:  MOVF   01,W
0A66A:  ADDLW  5A
0A66C:  MOVWF  FE9
0A66E:  MOVLW  05
0A670:  ADDWFC 03,W
0A672:  MOVWF  FEA
0A674:  MOVFF  FEF,622
0A678:  MOVLW  01
0A67A:  MOVLB  2
0A67C:  SUBWF  x1F,W
0A67E:  MULLW  08
0A680:  MOVF   FF3,W
0A682:  MOVLB  6
0A684:  CLRF   x24
0A686:  MOVWF  x23
0A688:  MOVLW  04
0A68A:  ADDWF  x23,W
0A68C:  MOVWF  01
0A68E:  MOVLW  00
0A690:  ADDWFC x24,W
0A692:  MOVWF  03
0A694:  MOVF   01,W
0A696:  ADDLW  5A
0A698:  MOVWF  FE9
0A69A:  MOVLW  05
0A69C:  ADDWFC 03,W
0A69E:  MOVWF  FEA
0A6A0:  MOVFF  FEF,623
0A6A4:  MOVLW  BA
0A6A6:  MOVWF  FF6
0A6A8:  MOVLW  0F
0A6AA:  MOVWF  FF7
0A6AC:  MOVLW  00
0A6AE:  MOVWF  FF8
0A6B0:  MOVLW  0A
0A6B2:  MOVWF  x27
0A6B4:  MOVLB  0
0A6B6:  CALL   543C
0A6BA:  MOVFF  622,627
0A6BE:  MOVLW  01
0A6C0:  MOVLB  6
0A6C2:  MOVWF  x28
0A6C4:  MOVLB  0
0A6C6:  CALL   54C0
0A6CA:  MOVLW  3A
0A6CC:  BTFSS  F9E.4
0A6CE:  BRA    A6CC
0A6D0:  MOVWF  FAD
0A6D2:  MOVFF  623,627
0A6D6:  MOVLW  01
0A6D8:  MOVLB  6
0A6DA:  MOVWF  x28
0A6DC:  MOVLB  0
0A6DE:  CALL   54C0
0A6E2:  MOVLW  22
0A6E4:  BTFSS  F9E.4
0A6E6:  BRA    A6E4
0A6E8:  MOVWF  FAD
....................          SendDataDisplay(); 
0A6EA:  CALL   3EE4
....................          printf("pulsos.txt=\"%02u\"",CiclosPersonalizados[CicloLibre-1].PulsosVacio); 
0A6EE:  MOVLW  01
0A6F0:  MOVLB  2
0A6F2:  SUBWF  x1F,W
0A6F4:  MULLW  08
0A6F6:  MOVF   FF3,W
0A6F8:  MOVLB  6
0A6FA:  CLRF   x23
0A6FC:  MOVWF  x22
0A6FE:  MOVLW  05
0A700:  ADDWF  x22,W
0A702:  MOVWF  01
0A704:  MOVLW  00
0A706:  ADDWFC x23,W
0A708:  MOVWF  03
0A70A:  MOVF   01,W
0A70C:  ADDLW  5A
0A70E:  MOVWF  FE9
0A710:  MOVLW  05
0A712:  ADDWFC 03,W
0A714:  MOVWF  FEA
0A716:  MOVFF  FEF,622
0A71A:  MOVLW  D0
0A71C:  MOVWF  FF6
0A71E:  MOVLW  0F
0A720:  MOVWF  FF7
0A722:  MOVLW  00
0A724:  MOVWF  FF8
0A726:  MOVLW  0C
0A728:  MOVWF  x27
0A72A:  MOVLB  0
0A72C:  CALL   543C
0A730:  MOVFF  622,627
0A734:  MOVLW  01
0A736:  MOVLB  6
0A738:  MOVWF  x28
0A73A:  MOVLB  0
0A73C:  CALL   54C0
0A740:  MOVLW  22
0A742:  BTFSS  F9E.4
0A744:  BRA    A742
0A746:  MOVWF  FAD
....................          SendDataDisplay(); 
0A748:  CALL   3EE4
....................          printf("vacio.txt=\"%03u kPa\"",CiclosPersonalizados[CicloLibre-1].NivelVacio); 
0A74C:  MOVLW  01
0A74E:  MOVLB  2
0A750:  SUBWF  x1F,W
0A752:  MULLW  08
0A754:  MOVF   FF3,W
0A756:  MOVLB  6
0A758:  CLRF   x23
0A75A:  MOVWF  x22
0A75C:  MOVLW  06
0A75E:  ADDWF  x22,W
0A760:  MOVWF  01
0A762:  MOVLW  00
0A764:  ADDWFC x23,W
0A766:  MOVWF  03
0A768:  MOVF   01,W
0A76A:  ADDLW  5A
0A76C:  MOVWF  FE9
0A76E:  MOVLW  05
0A770:  ADDWFC 03,W
0A772:  MOVWF  FEA
0A774:  MOVFF  FEF,622
0A778:  MOVLW  E2
0A77A:  MOVWF  FF6
0A77C:  MOVLW  0F
0A77E:  MOVWF  FF7
0A780:  MOVLW  00
0A782:  MOVWF  FF8
0A784:  MOVLW  0B
0A786:  MOVWF  x27
0A788:  MOVLB  0
0A78A:  CALL   543C
0A78E:  MOVFF  622,627
0A792:  MOVLW  03
0A794:  MOVLB  6
0A796:  MOVWF  x28
0A798:  MOVLB  0
0A79A:  CALL   54C0
0A79E:  MOVLW  F1
0A7A0:  MOVWF  FF6
0A7A2:  MOVLW  0F
0A7A4:  MOVWF  FF7
0A7A6:  MOVLW  00
0A7A8:  MOVWF  FF8
0A7AA:  MOVLW  05
0A7AC:  MOVLB  6
0A7AE:  MOVWF  x27
0A7B0:  MOVLB  0
0A7B2:  CALL   543C
....................          SendDataDisplay(); 
0A7B6:  CALL   3EE4
....................          //printf("desfogue.txt=\"%u\"",CiclosPersonalizados[CicloLibre-1].NivelDesfogue); 
....................          printf("desfogue.txt=\"N/A\""); 
0A7BA:  MOVLW  F8
0A7BC:  MOVWF  FF6
0A7BE:  MOVLW  0F
0A7C0:  MOVWF  FF7
0A7C2:  MOVLW  00
0A7C4:  MOVWF  FF8
0A7C6:  CALL   3EB2
....................          SendDataDisplay(); 
0A7CA:  CALL   3EE4
0A7CE:  MOVLB  2
....................       } 
....................        
....................       if(RX_Buffer[4]==0xa0){//a0, Menu Principal 
0A7D0:  MOVF   34,W
0A7D2:  SUBLW  A0
0A7D4:  BNZ   A7EE
....................          printf("page Menu"); 
0A7D6:  MOVLW  0C
0A7D8:  MOVWF  FF6
0A7DA:  MOVLW  10
0A7DC:  MOVWF  FF7
0A7DE:  MOVLW  00
0A7E0:  MOVWF  FF8
0A7E2:  MOVLB  0
0A7E4:  CALL   3EB2
....................          SendDataDisplay();      
0A7E8:  CALL   3EE4
0A7EC:  MOVLB  2
....................       } 
....................        
....................       if(RX_Buffer[4]==0xb0){//b0, Personalizados 
0A7EE:  MOVF   34,W
0A7F0:  SUBLW  B0
0A7F2:  BNZ   A80C
....................          printf("page CicloPersona"); 
0A7F4:  MOVLW  16
0A7F6:  MOVWF  FF6
0A7F8:  MOVLW  10
0A7FA:  MOVWF  FF7
0A7FC:  MOVLW  00
0A7FE:  MOVWF  FF8
0A800:  MOVLB  0
0A802:  CALL   3EB2
....................          SendDataDisplay();      
0A806:  CALL   3EE4
0A80A:  MOVLB  2
....................       } 
....................        
....................       if(RX_Buffer[4]==0xc0){//c0, Configuraciones 
0A80C:  MOVF   34,W
0A80E:  SUBLW  C0
0A810:  BNZ   A834
....................          if(codigoUsuario==0 || codigoUsuario==9){   
0A812:  MOVF   x22,F
0A814:  BZ    A81C
0A816:  MOVF   x22,W
0A818:  SUBLW  09
0A81A:  BNZ   A834
....................             printf("page Ajustes"); 
0A81C:  MOVLW  28
0A81E:  MOVWF  FF6
0A820:  MOVLW  10
0A822:  MOVWF  FF7
0A824:  MOVLW  00
0A826:  MOVWF  FF8
0A828:  MOVLB  0
0A82A:  CALL   3EB2
....................             SendDataDisplay();      
0A82E:  CALL   3EE4
0A832:  MOVLB  2
....................          } 
....................       } 
....................        
....................       if(RX_Buffer[4]==0x20 && CicloLibre>0){//20, Temperatura 
0A834:  MOVF   34,W
0A836:  SUBLW  20
0A838:  BNZ   A882
0A83A:  MOVF   x1F,F
0A83C:  BZ    A882
....................          if(codigoUsuario==0 || codigoUsuario==9){   
0A83E:  MOVF   x22,F
0A840:  BZ    A848
0A842:  MOVF   x22,W
0A844:  SUBLW  09
0A846:  BNZ   A882
....................             printf("page Temperatura"); 
0A848:  MOVLW  36
0A84A:  MOVWF  FF6
0A84C:  MOVLW  10
0A84E:  MOVWF  FF7
0A850:  MOVLW  00
0A852:  MOVWF  FF8
0A854:  MOVLB  0
0A856:  CALL   3EB2
....................             SendDataDisplay();      
0A85A:  CALL   3EE4
....................             Setpoint=CiclosPersonalizados[CicloLibre-1].Temperatura; 
0A85E:  MOVLW  01
0A860:  MOVLB  2
0A862:  SUBWF  x1F,W
0A864:  MULLW  08
0A866:  MOVF   FF3,W
0A868:  MOVLB  6
0A86A:  CLRF   x23
0A86C:  MOVWF  x22
0A86E:  MOVLW  5A
0A870:  ADDWF  x22,W
0A872:  MOVWF  FE9
0A874:  MOVLW  05
0A876:  ADDWFC x23,W
0A878:  MOVWF  FEA
0A87A:  MOVFF  FEF,1D9
0A87E:  MOVLB  1
0A880:  MOVLB  2
....................          } 
....................       } 
....................        
....................       if(RX_Buffer[4]==0x30 && CicloLibre>0){//30, Test 
0A882:  MOVF   34,W
0A884:  SUBLW  30
0A886:  BTFSS  FD8.2
0A888:  BRA    A9B0
0A88A:  MOVF   x1F,F
0A88C:  BTFSC  FD8.2
0A88E:  BRA    A9B0
....................          if(codigoUsuario==0 || codigoUsuario==9){   
0A890:  MOVF   x22,F
0A892:  BZ    A89C
0A894:  MOVF   x22,W
0A896:  SUBLW  09
0A898:  BTFSS  FD8.2
0A89A:  BRA    A9B0
....................             printf("page TiempoEst"); 
0A89C:  MOVLW  48
0A89E:  MOVWF  FF6
0A8A0:  MOVLW  10
0A8A2:  MOVWF  FF7
0A8A4:  MOVLW  00
0A8A6:  MOVWF  FF8
0A8A8:  MOVLB  0
0A8AA:  CALL   3EB2
....................             SendDataDisplay();      
0A8AE:  CALL   3EE4
....................             Testerilizacionp[3]=CiclosPersonalizados[CicloLibre-1].Minutoest/10; 
0A8B2:  MOVLW  01
0A8B4:  MOVLB  2
0A8B6:  SUBWF  x1F,W
0A8B8:  MULLW  08
0A8BA:  MOVF   FF3,W
0A8BC:  MOVLB  6
0A8BE:  CLRF   x23
0A8C0:  MOVWF  x22
0A8C2:  MOVLW  01
0A8C4:  ADDWF  x22,W
0A8C6:  MOVWF  01
0A8C8:  MOVLW  00
0A8CA:  ADDWFC x23,W
0A8CC:  MOVWF  03
0A8CE:  MOVF   01,W
0A8D0:  ADDLW  5A
0A8D2:  MOVWF  FE9
0A8D4:  MOVLW  05
0A8D6:  ADDWFC 03,W
0A8D8:  MOVWF  FEA
0A8DA:  MOVFF  FEF,62B
0A8DE:  MOVLW  0A
0A8E0:  MOVWF  x2C
0A8E2:  MOVLB  0
0A8E4:  CALL   5494
0A8E8:  MOVFF  01,9C
....................             Testerilizacionp[2]=CiclosPersonalizados[CicloLibre-1].Minutoest-(Testerilizacionp[3]*10); 
0A8EC:  MOVLW  01
0A8EE:  MOVLB  2
0A8F0:  SUBWF  x1F,W
0A8F2:  MULLW  08
0A8F4:  MOVF   FF3,W
0A8F6:  MOVLB  6
0A8F8:  CLRF   x23
0A8FA:  MOVWF  x22
0A8FC:  MOVLW  01
0A8FE:  ADDWF  x22,W
0A900:  MOVWF  01
0A902:  MOVLW  00
0A904:  ADDWFC x23,W
0A906:  MOVWF  03
0A908:  MOVF   01,W
0A90A:  ADDLW  5A
0A90C:  MOVWF  FE9
0A90E:  MOVLW  05
0A910:  ADDWFC 03,W
0A912:  MOVWF  FEA
0A914:  MOVFF  FEF,622
0A918:  MOVFF  9C,629
0A91C:  MOVLW  0A
0A91E:  MOVWF  x2A
0A920:  MOVLB  0
0A922:  CALL   39A4
0A926:  MOVF   01,W
0A928:  MOVLB  6
0A92A:  SUBWF  x22,W
0A92C:  MOVLB  0
0A92E:  MOVWF  x9B
....................             Testerilizacionp[1]=CiclosPersonalizados[CicloLibre-1].Segundoest/10; 
0A930:  MOVLW  01
0A932:  MOVLB  2
0A934:  SUBWF  x1F,W
0A936:  MULLW  08
0A938:  MOVF   FF3,W
0A93A:  MOVLB  6
0A93C:  CLRF   x23
0A93E:  MOVWF  x22
0A940:  MOVLW  02
0A942:  ADDWF  x22,W
0A944:  MOVWF  01
0A946:  MOVLW  00
0A948:  ADDWFC x23,W
0A94A:  MOVWF  03
0A94C:  MOVF   01,W
0A94E:  ADDLW  5A
0A950:  MOVWF  FE9
0A952:  MOVLW  05
0A954:  ADDWFC 03,W
0A956:  MOVWF  FEA
0A958:  MOVFF  FEF,62B
0A95C:  MOVLW  0A
0A95E:  MOVWF  x2C
0A960:  MOVLB  0
0A962:  CALL   5494
0A966:  MOVFF  01,9A
....................             Testerilizacionp[0]=CiclosPersonalizados[CicloLibre-1].Segundoest-(Testerilizacionp[1]*10); 
0A96A:  MOVLW  01
0A96C:  MOVLB  2
0A96E:  SUBWF  x1F,W
0A970:  MULLW  08
0A972:  MOVF   FF3,W
0A974:  MOVLB  6
0A976:  CLRF   x23
0A978:  MOVWF  x22
0A97A:  MOVLW  02
0A97C:  ADDWF  x22,W
0A97E:  MOVWF  01
0A980:  MOVLW  00
0A982:  ADDWFC x23,W
0A984:  MOVWF  03
0A986:  MOVF   01,W
0A988:  ADDLW  5A
0A98A:  MOVWF  FE9
0A98C:  MOVLW  05
0A98E:  ADDWFC 03,W
0A990:  MOVWF  FEA
0A992:  MOVFF  FEF,622
0A996:  MOVFF  9A,629
0A99A:  MOVLW  0A
0A99C:  MOVWF  x2A
0A99E:  MOVLB  0
0A9A0:  CALL   39A4
0A9A4:  MOVF   01,W
0A9A6:  MOVLB  6
0A9A8:  SUBWF  x22,W
0A9AA:  MOVLB  0
0A9AC:  MOVWF  x99
0A9AE:  MOVLB  2
....................          } 
....................       } 
....................        
....................       if(RX_Buffer[4]==0x40 && CicloLibre>0){//40, Tsec 
0A9B0:  MOVF   34,W
0A9B2:  SUBLW  40
0A9B4:  BTFSS  FD8.2
0A9B6:  BRA    AADE
0A9B8:  MOVF   x1F,F
0A9BA:  BTFSC  FD8.2
0A9BC:  BRA    AADE
....................          if(codigoUsuario==0 || codigoUsuario==9){   
0A9BE:  MOVF   x22,F
0A9C0:  BZ    A9CA
0A9C2:  MOVF   x22,W
0A9C4:  SUBLW  09
0A9C6:  BTFSS  FD8.2
0A9C8:  BRA    AADE
....................             printf("page TiempoSec"); 
0A9CA:  MOVLW  58
0A9CC:  MOVWF  FF6
0A9CE:  MOVLW  10
0A9D0:  MOVWF  FF7
0A9D2:  MOVLW  00
0A9D4:  MOVWF  FF8
0A9D6:  MOVLB  0
0A9D8:  CALL   3EB2
....................             SendDataDisplay();    
0A9DC:  CALL   3EE4
....................             Tsecadop[3]=CiclosPersonalizados[CicloLibre-1].Minutosec/10; 
0A9E0:  MOVLW  01
0A9E2:  MOVLB  2
0A9E4:  SUBWF  x1F,W
0A9E6:  MULLW  08
0A9E8:  MOVF   FF3,W
0A9EA:  MOVLB  6
0A9EC:  CLRF   x23
0A9EE:  MOVWF  x22
0A9F0:  MOVLW  03
0A9F2:  ADDWF  x22,W
0A9F4:  MOVWF  01
0A9F6:  MOVLW  00
0A9F8:  ADDWFC x23,W
0A9FA:  MOVWF  03
0A9FC:  MOVF   01,W
0A9FE:  ADDLW  5A
0AA00:  MOVWF  FE9
0AA02:  MOVLW  05
0AA04:  ADDWFC 03,W
0AA06:  MOVWF  FEA
0AA08:  MOVFF  FEF,62B
0AA0C:  MOVLW  0A
0AA0E:  MOVWF  x2C
0AA10:  MOVLB  0
0AA12:  CALL   5494
0AA16:  MOVFF  01,A4
....................             Tsecadop[2]=CiclosPersonalizados[CicloLibre-1].Minutosec-(Tsecadop[3]*10); 
0AA1A:  MOVLW  01
0AA1C:  MOVLB  2
0AA1E:  SUBWF  x1F,W
0AA20:  MULLW  08
0AA22:  MOVF   FF3,W
0AA24:  MOVLB  6
0AA26:  CLRF   x23
0AA28:  MOVWF  x22
0AA2A:  MOVLW  03
0AA2C:  ADDWF  x22,W
0AA2E:  MOVWF  01
0AA30:  MOVLW  00
0AA32:  ADDWFC x23,W
0AA34:  MOVWF  03
0AA36:  MOVF   01,W
0AA38:  ADDLW  5A
0AA3A:  MOVWF  FE9
0AA3C:  MOVLW  05
0AA3E:  ADDWFC 03,W
0AA40:  MOVWF  FEA
0AA42:  MOVFF  FEF,622
0AA46:  MOVFF  A4,629
0AA4A:  MOVLW  0A
0AA4C:  MOVWF  x2A
0AA4E:  MOVLB  0
0AA50:  CALL   39A4
0AA54:  MOVF   01,W
0AA56:  MOVLB  6
0AA58:  SUBWF  x22,W
0AA5A:  MOVLB  0
0AA5C:  MOVWF  xA3
....................             Tsecadop[1]=CiclosPersonalizados[CicloLibre-1].Segundosec/10; 
0AA5E:  MOVLW  01
0AA60:  MOVLB  2
0AA62:  SUBWF  x1F,W
0AA64:  MULLW  08
0AA66:  MOVF   FF3,W
0AA68:  MOVLB  6
0AA6A:  CLRF   x23
0AA6C:  MOVWF  x22
0AA6E:  MOVLW  04
0AA70:  ADDWF  x22,W
0AA72:  MOVWF  01
0AA74:  MOVLW  00
0AA76:  ADDWFC x23,W
0AA78:  MOVWF  03
0AA7A:  MOVF   01,W
0AA7C:  ADDLW  5A
0AA7E:  MOVWF  FE9
0AA80:  MOVLW  05
0AA82:  ADDWFC 03,W
0AA84:  MOVWF  FEA
0AA86:  MOVFF  FEF,62B
0AA8A:  MOVLW  0A
0AA8C:  MOVWF  x2C
0AA8E:  MOVLB  0
0AA90:  CALL   5494
0AA94:  MOVFF  01,A2
....................             Tsecadop[0]=CiclosPersonalizados[CicloLibre-1].Segundosec-(Tsecadop[1]*10); 
0AA98:  MOVLW  01
0AA9A:  MOVLB  2
0AA9C:  SUBWF  x1F,W
0AA9E:  MULLW  08
0AAA0:  MOVF   FF3,W
0AAA2:  MOVLB  6
0AAA4:  CLRF   x23
0AAA6:  MOVWF  x22
0AAA8:  MOVLW  04
0AAAA:  ADDWF  x22,W
0AAAC:  MOVWF  01
0AAAE:  MOVLW  00
0AAB0:  ADDWFC x23,W
0AAB2:  MOVWF  03
0AAB4:  MOVF   01,W
0AAB6:  ADDLW  5A
0AAB8:  MOVWF  FE9
0AABA:  MOVLW  05
0AABC:  ADDWFC 03,W
0AABE:  MOVWF  FEA
0AAC0:  MOVFF  FEF,622
0AAC4:  MOVFF  A2,629
0AAC8:  MOVLW  0A
0AACA:  MOVWF  x2A
0AACC:  MOVLB  0
0AACE:  CALL   39A4
0AAD2:  MOVF   01,W
0AAD4:  MOVLB  6
0AAD6:  SUBWF  x22,W
0AAD8:  MOVLB  0
0AADA:  MOVWF  xA1
0AADC:  MOVLB  2
....................          } 
....................       } 
....................        
....................       if(RX_Buffer[4]==0x50 && CicloLibre>0){//50, PulsosVacio 
0AADE:  MOVF   34,W
0AAE0:  SUBLW  50
0AAE2:  BNZ   AB36
0AAE4:  MOVF   x1F,F
0AAE6:  BZ    AB36
....................          if(codigoUsuario==0 || codigoUsuario==9){   
0AAE8:  MOVF   x22,F
0AAEA:  BZ    AAF2
0AAEC:  MOVF   x22,W
0AAEE:  SUBLW  09
0AAF0:  BNZ   AB36
....................             printf("page Pulsos"); 
0AAF2:  MOVLW  68
0AAF4:  MOVWF  FF6
0AAF6:  MOVLW  10
0AAF8:  MOVWF  FF7
0AAFA:  MOVLW  00
0AAFC:  MOVWF  FF8
0AAFE:  MOVLB  0
0AB00:  CALL   3EB2
....................             SendDataDisplay();      
0AB04:  CALL   3EE4
....................             Pulsos=CiclosPersonalizados[CicloLibre-1].PulsosVacio; 
0AB08:  MOVLW  01
0AB0A:  MOVLB  2
0AB0C:  SUBWF  x1F,W
0AB0E:  MULLW  08
0AB10:  MOVF   FF3,W
0AB12:  MOVLB  6
0AB14:  CLRF   x23
0AB16:  MOVWF  x22
0AB18:  MOVLW  05
0AB1A:  ADDWF  x22,W
0AB1C:  MOVWF  01
0AB1E:  MOVLW  00
0AB20:  ADDWFC x23,W
0AB22:  MOVWF  03
0AB24:  MOVF   01,W
0AB26:  ADDLW  5A
0AB28:  MOVWF  FE9
0AB2A:  MOVLW  05
0AB2C:  ADDWFC 03,W
0AB2E:  MOVWF  FEA
0AB30:  MOVFF  FEF,220
0AB34:  MOVLB  2
....................          } 
....................       } 
....................        
....................       if(RX_Buffer[4]==0x60 && CicloLibre>0){//60, NivelVacio 
0AB36:  MOVF   34,W
0AB38:  SUBLW  60
0AB3A:  BNZ   AB96
0AB3C:  MOVF   x1F,F
0AB3E:  BZ    AB96
....................          if(codigoUsuario==0 || codigoUsuario==9){   
0AB40:  MOVF   x22,F
0AB42:  BZ    AB4A
0AB44:  MOVF   x22,W
0AB46:  SUBLW  09
0AB48:  BNZ   AB96
....................             printf("page Nivel"); 
0AB4A:  MOVLW  74
0AB4C:  MOVWF  FF6
0AB4E:  MOVLW  10
0AB50:  MOVWF  FF7
0AB52:  MOVLW  00
0AB54:  MOVWF  FF8
0AB56:  MOVLB  0
0AB58:  CALL   3EB2
....................             SendDataDisplay();      
0AB5C:  CALL   3EE4
....................             Nivel=CiclosPersonalizados[CicloLibre-1].NivelVacio; 
0AB60:  MOVLW  01
0AB62:  MOVLB  2
0AB64:  SUBWF  x1F,W
0AB66:  MULLW  08
0AB68:  MOVF   FF3,W
0AB6A:  MOVLB  6
0AB6C:  CLRF   x23
0AB6E:  MOVWF  x22
0AB70:  MOVLW  06
0AB72:  ADDWF  x22,W
0AB74:  MOVWF  01
0AB76:  MOVLW  00
0AB78:  ADDWFC x23,W
0AB7A:  MOVWF  03
0AB7C:  MOVF   01,W
0AB7E:  ADDLW  5A
0AB80:  MOVWF  FE9
0AB82:  MOVLW  05
0AB84:  ADDWFC 03,W
0AB86:  MOVWF  FEA
0AB88:  MOVF   FEF,W
0AB8A:  CLRF   03
0AB8C:  MOVLB  1
0AB8E:  MOVWF  xE7
0AB90:  MOVFF  03,1E8
0AB94:  MOVLB  2
....................          } 
....................       } 
....................        
....................       if(RX_Buffer[4]==0x80 && CicloLibre>0){//80, NivelDesfogue 
0AB96:  MOVF   34,W
0AB98:  SUBLW  80
0AB9A:  BNZ   ABA0
0AB9C:  MOVF   x1F,F
0AB9E:  BZ    ABA0
....................          //printf("page NivelDes"); 
....................          //SendDataDisplay();      
....................          //NivelDes=CiclosPersonalizados[CicloLibre-1].NivelDesfogue; 
....................       } 
....................        
....................       if(RX_Buffer[4]==0x70 && CicloLibre>0){//70, Iniciar Ciclo 
0ABA0:  MOVF   34,W
0ABA2:  SUBLW  70
0ABA4:  BTFSS  FD8.2
0ABA6:  BRA    AE6E
0ABA8:  MOVF   x1F,F
0ABAA:  BTFSC  FD8.2
0ABAC:  BRA    AE6E
....................          printf("page Funcionamiento"); 
0ABAE:  MOVLW  80
0ABB0:  MOVWF  FF6
0ABB2:  MOVLW  10
0ABB4:  MOVWF  FF7
0ABB6:  MOVLW  00
0ABB8:  MOVWF  FF8
0ABBA:  MOVLB  0
0ABBC:  CALL   3EB2
....................          SendDataDisplay();        
0ABC0:  CALL   3EE4
....................          Libre=ON; 
0ABC4:  BSF    x88.7
....................             ConfiguraCiclo(CiclosPersonalizados[CicloLibre-1].Segundoest-(Testerilizacion[1]*10), 
....................                         CiclosPersonalizados[CicloLibre-1].Segundoest/10, 
....................                         CiclosPersonalizados[CicloLibre-1].Minutoest-(Testerilizacion[3]*10), 
....................                         CiclosPersonalizados[CicloLibre-1].Minutoest/10, 
....................                         CiclosPersonalizados[CicloLibre-1].Segundosec-(Tsecado[1]*10), 
....................                         CiclosPersonalizados[CicloLibre-1].Segundosec/10, 
....................                         CiclosPersonalizados[CicloLibre-1].Minutosec-(Tsecado[3]*10), 
....................                         CiclosPersonalizados[CicloLibre-1].Minutosec/10,0,CicloLibre+10,CiclosPersonalizados[CicloLibre-1].Temperatura);             
0ABC6:  MOVLW  01
0ABC8:  MOVLB  2
0ABCA:  SUBWF  x1F,W
0ABCC:  MULLW  08
0ABCE:  MOVF   FF3,W
0ABD0:  MOVLB  6
0ABD2:  CLRF   x23
0ABD4:  MOVWF  x22
0ABD6:  MOVLW  02
0ABD8:  ADDWF  x22,W
0ABDA:  MOVWF  01
0ABDC:  MOVLW  00
0ABDE:  ADDWFC x23,W
0ABE0:  MOVWF  03
0ABE2:  MOVF   01,W
0ABE4:  ADDLW  5A
0ABE6:  MOVWF  FE9
0ABE8:  MOVLW  05
0ABEA:  ADDWFC 03,W
0ABEC:  MOVWF  FEA
0ABEE:  MOVFF  FEF,622
0ABF2:  MOVFF  96,629
0ABF6:  MOVLW  0A
0ABF8:  MOVWF  x2A
0ABFA:  MOVLB  0
0ABFC:  CALL   39A4
0AC00:  MOVF   01,W
0AC02:  MOVLB  6
0AC04:  SUBWF  x22,F
0AC06:  MOVLW  01
0AC08:  MOVLB  2
0AC0A:  SUBWF  x1F,W
0AC0C:  MULLW  08
0AC0E:  MOVF   FF3,W
0AC10:  MOVLB  6
0AC12:  CLRF   x24
0AC14:  MOVWF  x23
0AC16:  MOVLW  02
0AC18:  ADDWF  x23,W
0AC1A:  MOVWF  01
0AC1C:  MOVLW  00
0AC1E:  ADDWFC x24,W
0AC20:  MOVWF  03
0AC22:  MOVF   01,W
0AC24:  ADDLW  5A
0AC26:  MOVWF  FE9
0AC28:  MOVLW  05
0AC2A:  ADDWFC 03,W
0AC2C:  MOVWF  FEA
0AC2E:  MOVFF  FEF,62B
0AC32:  MOVLW  0A
0AC34:  MOVWF  x2C
0AC36:  MOVLB  0
0AC38:  CALL   5494
0AC3C:  MOVFF  01,623
0AC40:  MOVLW  01
0AC42:  MOVLB  2
0AC44:  SUBWF  x1F,W
0AC46:  MULLW  08
0AC48:  MOVF   FF3,W
0AC4A:  MOVLB  6
0AC4C:  CLRF   x25
0AC4E:  MOVWF  x24
0AC50:  MOVLW  01
0AC52:  ADDWF  x24,W
0AC54:  MOVWF  01
0AC56:  MOVLW  00
0AC58:  ADDWFC x25,W
0AC5A:  MOVWF  03
0AC5C:  MOVF   01,W
0AC5E:  ADDLW  5A
0AC60:  MOVWF  FE9
0AC62:  MOVLW  05
0AC64:  ADDWFC 03,W
0AC66:  MOVWF  FEA
0AC68:  MOVFF  FEF,624
0AC6C:  MOVFF  98,629
0AC70:  MOVLW  0A
0AC72:  MOVWF  x2A
0AC74:  MOVLB  0
0AC76:  CALL   39A4
0AC7A:  MOVF   01,W
0AC7C:  MOVLB  6
0AC7E:  SUBWF  x24,F
0AC80:  MOVLW  01
0AC82:  MOVLB  2
0AC84:  SUBWF  x1F,W
0AC86:  MULLW  08
0AC88:  MOVF   FF3,W
0AC8A:  MOVLB  6
0AC8C:  CLRF   x26
0AC8E:  MOVWF  x25
0AC90:  MOVLW  01
0AC92:  ADDWF  x25,W
0AC94:  MOVWF  01
0AC96:  MOVLW  00
0AC98:  ADDWFC x26,W
0AC9A:  MOVWF  03
0AC9C:  MOVF   01,W
0AC9E:  ADDLW  5A
0ACA0:  MOVWF  FE9
0ACA2:  MOVLW  05
0ACA4:  ADDWFC 03,W
0ACA6:  MOVWF  FEA
0ACA8:  MOVFF  FEF,62B
0ACAC:  MOVLW  0A
0ACAE:  MOVWF  x2C
0ACB0:  MOVLB  0
0ACB2:  CALL   5494
0ACB6:  MOVFF  01,625
0ACBA:  MOVLW  01
0ACBC:  MOVLB  2
0ACBE:  SUBWF  x1F,W
0ACC0:  MULLW  08
0ACC2:  MOVF   FF3,W
0ACC4:  MOVLB  6
0ACC6:  CLRF   x27
0ACC8:  MOVWF  x26
0ACCA:  MOVLW  04
0ACCC:  ADDWF  x26,W
0ACCE:  MOVWF  01
0ACD0:  MOVLW  00
0ACD2:  ADDWFC x27,W
0ACD4:  MOVWF  03
0ACD6:  MOVF   01,W
0ACD8:  ADDLW  5A
0ACDA:  MOVWF  FE9
0ACDC:  MOVLW  05
0ACDE:  ADDWFC 03,W
0ACE0:  MOVWF  FEA
0ACE2:  MOVFF  FEF,626
0ACE6:  MOVFF  9E,629
0ACEA:  MOVLW  0A
0ACEC:  MOVWF  x2A
0ACEE:  MOVLB  0
0ACF0:  CALL   39A4
0ACF4:  MOVF   01,W
0ACF6:  MOVLB  6
0ACF8:  SUBWF  x26,F
0ACFA:  MOVLW  01
0ACFC:  MOVLB  2
0ACFE:  SUBWF  x1F,W
0AD00:  MULLW  08
0AD02:  MOVF   FF3,W
0AD04:  MOVLB  6
0AD06:  CLRF   x28
0AD08:  MOVWF  x27
0AD0A:  MOVLW  04
0AD0C:  ADDWF  x27,W
0AD0E:  MOVWF  01
0AD10:  MOVLW  00
0AD12:  ADDWFC x28,W
0AD14:  MOVWF  03
0AD16:  MOVF   01,W
0AD18:  ADDLW  5A
0AD1A:  MOVWF  FE9
0AD1C:  MOVLW  05
0AD1E:  ADDWFC 03,W
0AD20:  MOVWF  FEA
0AD22:  MOVFF  FEF,62B
0AD26:  MOVLW  0A
0AD28:  MOVWF  x2C
0AD2A:  MOVLB  0
0AD2C:  CALL   5494
0AD30:  MOVFF  01,627
0AD34:  MOVLW  01
0AD36:  MOVLB  2
0AD38:  SUBWF  x1F,W
0AD3A:  MULLW  08
0AD3C:  MOVF   FF3,W
0AD3E:  MOVLB  6
0AD40:  CLRF   x29
0AD42:  MOVWF  x28
0AD44:  MOVLW  03
0AD46:  ADDWF  x28,W
0AD48:  MOVWF  01
0AD4A:  MOVLW  00
0AD4C:  ADDWFC x29,W
0AD4E:  MOVWF  03
0AD50:  MOVF   01,W
0AD52:  ADDLW  5A
0AD54:  MOVWF  FE9
0AD56:  MOVLW  05
0AD58:  ADDWFC 03,W
0AD5A:  MOVWF  FEA
0AD5C:  MOVFF  FEF,628
0AD60:  MOVFF  A0,629
0AD64:  MOVLW  0A
0AD66:  MOVWF  x2A
0AD68:  MOVLB  0
0AD6A:  CALL   39A4
0AD6E:  MOVF   01,W
0AD70:  MOVLB  6
0AD72:  SUBWF  x28,F
0AD74:  MOVLW  01
0AD76:  MOVLB  2
0AD78:  SUBWF  x1F,W
0AD7A:  MULLW  08
0AD7C:  MOVF   FF3,W
0AD7E:  MOVLB  6
0AD80:  CLRF   x2A
0AD82:  MOVWF  x29
0AD84:  MOVLW  03
0AD86:  ADDWF  x29,W
0AD88:  MOVWF  01
0AD8A:  MOVLW  00
0AD8C:  ADDWFC x2A,W
0AD8E:  MOVWF  03
0AD90:  MOVF   01,W
0AD92:  ADDLW  5A
0AD94:  MOVWF  FE9
0AD96:  MOVLW  05
0AD98:  ADDWFC 03,W
0AD9A:  MOVWF  FEA
0AD9C:  MOVFF  FEF,62B
0ADA0:  MOVLW  0A
0ADA2:  MOVWF  x2C
0ADA4:  MOVLB  0
0ADA6:  CALL   5494
0ADAA:  MOVFF  01,629
0ADAE:  MOVLW  0A
0ADB0:  MOVLB  2
0ADB2:  ADDWF  x1F,W
0ADB4:  MOVLB  6
0ADB6:  MOVWF  x2A
0ADB8:  MOVLW  01
0ADBA:  MOVLB  2
0ADBC:  SUBWF  x1F,W
0ADBE:  MULLW  08
0ADC0:  MOVF   FF3,W
0ADC2:  MOVLB  6
0ADC4:  CLRF   x2C
0ADC6:  MOVWF  x2B
0ADC8:  MOVLW  5A
0ADCA:  ADDWF  x2B,W
0ADCC:  MOVWF  FE9
0ADCE:  MOVLW  05
0ADD0:  ADDWFC x2C,W
0ADD2:  MOVWF  FEA
0ADD4:  MOVFF  FEF,62B
0ADD8:  MOVFF  622,62C
0ADDC:  MOVFF  623,62D
0ADE0:  MOVFF  624,62E
0ADE4:  MOVFF  625,62F
0ADE8:  MOVFF  626,630
0ADEC:  MOVFF  627,631
0ADF0:  MOVFF  628,632
0ADF4:  MOVFF  01,633
0ADF8:  CLRF   x34
0ADFA:  MOVFF  62A,635
0ADFE:  MOVFF  62B,636
0AE02:  MOVLB  0
0AE04:  CALL   553E
....................          NivelVacio=CiclosPersonalizados[CicloLibre-1].NivelVacio; 
0AE08:  MOVLW  01
0AE0A:  MOVLB  2
0AE0C:  SUBWF  x1F,W
0AE0E:  MULLW  08
0AE10:  MOVF   FF3,W
0AE12:  MOVLB  6
0AE14:  CLRF   x23
0AE16:  MOVWF  x22
0AE18:  MOVLW  06
0AE1A:  ADDWF  x22,W
0AE1C:  MOVWF  01
0AE1E:  MOVLW  00
0AE20:  ADDWFC x23,W
0AE22:  MOVWF  03
0AE24:  MOVF   01,W
0AE26:  ADDLW  5A
0AE28:  MOVWF  FE9
0AE2A:  MOVLW  05
0AE2C:  ADDWFC 03,W
0AE2E:  MOVWF  FEA
0AE30:  MOVFF  FEF,212
0AE34:  MOVLB  2
....................          CantidadPulsos=CiclosPersonalizados[CicloLibre-1].PulsosVacio; 
0AE36:  MOVLW  01
0AE38:  SUBWF  x1F,W
0AE3A:  MULLW  08
0AE3C:  MOVF   FF3,W
0AE3E:  MOVLB  6
0AE40:  CLRF   x23
0AE42:  MOVWF  x22
0AE44:  MOVLW  05
0AE46:  ADDWF  x22,W
0AE48:  MOVWF  01
0AE4A:  MOVLW  00
0AE4C:  ADDWFC x23,W
0AE4E:  MOVWF  03
0AE50:  MOVF   01,W
0AE52:  ADDLW  5A
0AE54:  MOVWF  FE9
0AE56:  MOVLW  05
0AE58:  ADDWFC 03,W
0AE5A:  MOVWF  FEA
0AE5C:  MOVF   FEF,W
0AE5E:  CLRF   03
0AE60:  MOVLB  1
0AE62:  MOVWF  xD7
0AE64:  MOVFF  03,1D8
....................          Fugas=OFF; 
0AE68:  MOVLB  0
0AE6A:  BCF    x89.1
0AE6C:  MOVLB  2
0AE6E:  MOVLB  1
....................       } 
....................    } 
.................... //_--------------------------------------------------------------------------------------------------------------------------------------------------------        
....................  
.................... //_--------------------------------------------------------------------------------------------------------------------------------------------------------       
....................    if(Menu==9){//Menu de Pulsos de Vacio 
0AE70:  MOVF   xCF,W
0AE72:  SUBLW  09
0AE74:  BTFSS  FD8.2
0AE76:  BRA    B046
....................       printf("fecha.txt=\"Fecha:%02u/%02u/20%02u    Hora: %02u:%02u:%02u\"",Dia,Mes,Year,Hora,Minuto,Segundo); 
0AE78:  MOVLW  94
0AE7A:  MOVWF  FF6
0AE7C:  MOVLW  10
0AE7E:  MOVWF  FF7
0AE80:  MOVLW  00
0AE82:  MOVWF  FF8
0AE84:  MOVLW  11
0AE86:  MOVLB  6
0AE88:  MOVWF  x27
0AE8A:  MOVLB  0
0AE8C:  CALL   543C
0AE90:  MOVFF  20B,627
0AE94:  MOVLW  01
0AE96:  MOVLB  6
0AE98:  MOVWF  x28
0AE9A:  MOVLB  0
0AE9C:  CALL   54C0
0AEA0:  MOVLW  2F
0AEA2:  BTFSS  F9E.4
0AEA4:  BRA    AEA2
0AEA6:  MOVWF  FAD
0AEA8:  MOVFF  20A,627
0AEAC:  MOVLW  01
0AEAE:  MOVLB  6
0AEB0:  MOVWF  x28
0AEB2:  MOVLB  0
0AEB4:  CALL   54C0
0AEB8:  MOVLW  2F
0AEBA:  BTFSS  F9E.4
0AEBC:  BRA    AEBA
0AEBE:  MOVWF  FAD
0AEC0:  MOVLW  32
0AEC2:  BTFSS  F9E.4
0AEC4:  BRA    AEC2
0AEC6:  MOVWF  FAD
0AEC8:  MOVLW  30
0AECA:  BTFSS  F9E.4
0AECC:  BRA    AECA
0AECE:  MOVWF  FAD
0AED0:  MOVFF  209,627
0AED4:  MOVLW  01
0AED6:  MOVLB  6
0AED8:  MOVWF  x28
0AEDA:  MOVLB  0
0AEDC:  CALL   54C0
0AEE0:  MOVLW  B5
0AEE2:  MOVWF  FF6
0AEE4:  MOVLW  10
0AEE6:  MOVWF  FF7
0AEE8:  MOVLW  00
0AEEA:  MOVWF  FF8
0AEEC:  MOVLW  0A
0AEEE:  MOVLB  6
0AEF0:  MOVWF  x27
0AEF2:  MOVLB  0
0AEF4:  CALL   543C
0AEF8:  MOVFF  20C,627
0AEFC:  MOVLW  01
0AEFE:  MOVLB  6
0AF00:  MOVWF  x28
0AF02:  MOVLB  0
0AF04:  CALL   54C0
0AF08:  MOVLW  3A
0AF0A:  BTFSS  F9E.4
0AF0C:  BRA    AF0A
0AF0E:  MOVWF  FAD
0AF10:  MOVFF  20D,627
0AF14:  MOVLW  01
0AF16:  MOVLB  6
0AF18:  MOVWF  x28
0AF1A:  MOVLB  0
0AF1C:  CALL   54C0
0AF20:  MOVLW  3A
0AF22:  BTFSS  F9E.4
0AF24:  BRA    AF22
0AF26:  MOVWF  FAD
0AF28:  MOVFF  20E,627
0AF2C:  MOVLW  01
0AF2E:  MOVLB  6
0AF30:  MOVWF  x28
0AF32:  MOVLB  0
0AF34:  CALL   54C0
0AF38:  MOVLW  22
0AF3A:  BTFSS  F9E.4
0AF3C:  BRA    AF3A
0AF3E:  MOVWF  FAD
....................       SendDataDisplay(); 
0AF40:  CALL   3EE4
....................          if(Pulsos<7) 
0AF44:  MOVLB  2
0AF46:  MOVF   x20,W
0AF48:  SUBLW  06
0AF4A:  BNC   AF50
....................             Pulsos=15; 
0AF4C:  MOVLW  0F
0AF4E:  MOVWF  x20
....................          if(Pulsos>15) 
0AF50:  MOVF   x20,W
0AF52:  SUBLW  0F
0AF54:  BC    AF5A
....................             Pulsos=7; 
0AF56:  MOVLW  07
0AF58:  MOVWF  x20
....................           
....................          if(RX_Buffer[4]==0x11){//Selecciono Regresar 
0AF5A:  MOVF   34,W
0AF5C:  SUBLW  11
0AF5E:  BNZ   AFF8
....................             Segundos=OFF; 
0AF60:  MOVLB  0
0AF62:  BCF    x87.3
....................             Minutos=OFF;             
0AF64:  BCF    x87.2
....................             printf("page CicloPersona"); 
0AF66:  MOVLW  D0
0AF68:  MOVWF  FF6
0AF6A:  MOVLW  10
0AF6C:  MOVWF  FF7
0AF6E:  MOVLW  00
0AF70:  MOVWF  FF8
0AF72:  CALL   3EB2
....................             SendDataDisplay();   
0AF76:  CALL   3EE4
....................             if(!GuardaEEPROM){     
0AF7A:  BTFSC  x87.4
0AF7C:  BRA    AFF6
....................                CiclosPersonalizados[CicloLibre-1].PulsosVacio=Pulsos; 
0AF7E:  MOVLW  01
0AF80:  MOVLB  2
0AF82:  SUBWF  x1F,W
0AF84:  MULLW  08
0AF86:  MOVF   FF3,W
0AF88:  MOVLB  6
0AF8A:  CLRF   x23
0AF8C:  MOVWF  x22
0AF8E:  MOVLW  05
0AF90:  ADDWF  x22,W
0AF92:  MOVWF  01
0AF94:  MOVLW  00
0AF96:  ADDWFC x23,W
0AF98:  MOVWF  03
0AF9A:  MOVF   01,W
0AF9C:  ADDLW  5A
0AF9E:  MOVWF  FE9
0AFA0:  MOVLW  05
0AFA2:  ADDWFC 03,W
0AFA4:  MOVWF  FEA
0AFA6:  MOVFF  220,FEF
....................                write_eeprom(105+((CicloLibre-1)*8),Pulsos); 
0AFAA:  MOVLW  01
0AFAC:  MOVLB  2
0AFAE:  SUBWF  x1F,W
0AFB0:  MULLW  08
0AFB2:  MOVF   FF3,W
0AFB4:  ADDLW  69
0AFB6:  MOVLB  6
0AFB8:  MOVWF  x22
0AFBA:  CLRF   FAA
0AFBC:  MOVFF  622,FA9
0AFC0:  MOVFF  220,FA8
0AFC4:  BCF    FA6.6
0AFC6:  BCF    FA6.7
0AFC8:  BSF    FA6.2
0AFCA:  MOVF   FF2,W
0AFCC:  MOVWF  00
0AFCE:  BCF    FF2.6
0AFD0:  BCF    FF2.7
0AFD2:  MOVLB  F
0AFD4:  MOVLW  55
0AFD6:  MOVWF  FA7
0AFD8:  MOVLW  AA
0AFDA:  MOVWF  FA7
0AFDC:  BSF    FA6.1
0AFDE:  BTFSC  FA6.1
0AFE0:  BRA    AFDE
0AFE2:  BCF    FA6.2
0AFE4:  MOVF   00,W
0AFE6:  IORWF  FF2,F
....................                delay_ms(20);             
0AFE8:  MOVLW  14
0AFEA:  MOVLB  6
0AFEC:  MOVWF  x37
0AFEE:  MOVLB  0
0AFF0:  CALL   1F36
....................                //NivelSeleccionado=9990*Nivel; 
....................                GuardaEEPROM=ON; 
0AFF4:  BSF    x87.4
0AFF6:  MOVLB  2
....................             } 
....................          } 
....................           
....................          if(RX_Buffer[4]==0x0d){//Tecla Arriba Oprimida 
0AFF8:  MOVF   34,W
0AFFA:  SUBLW  0D
0AFFC:  BNZ   B004
....................             Pulsos++; 
0AFFE:  INCF   x20,F
....................             RX_Buffer[4]=0x00;             
0B000:  CLRF   34
....................             RX_Buffer2[4]=0x00;             
0B002:  CLRF   3F
....................             //BorraBuffer(); 
....................          } 
....................           
....................          if(RX_Buffer[4]==0x0c){//Tecla Abajo Oprimida 
0B004:  MOVF   34,W
0B006:  SUBLW  0C
0B008:  BNZ   B010
....................             Pulsos--; 
0B00A:  DECF   x20,F
....................             RX_Buffer[4]=0x00; 
0B00C:  CLRF   34
....................             RX_Buffer2[4]=0x00;             
0B00E:  CLRF   3F
....................             //BorraBuffer(); 
....................          } 
....................           
....................       printf("tnivel.txt=\"%u\"",Pulsos); 
0B010:  MOVLW  E2
0B012:  MOVWF  FF6
0B014:  MOVLW  10
0B016:  MOVWF  FF7
0B018:  MOVLW  00
0B01A:  MOVWF  FF8
0B01C:  MOVLW  0C
0B01E:  MOVLB  6
0B020:  MOVWF  x27
0B022:  MOVLB  0
0B024:  CALL   543C
0B028:  MOVFF  220,627
0B02C:  MOVLW  1B
0B02E:  MOVLB  6
0B030:  MOVWF  x28
0B032:  MOVLB  0
0B034:  CALL   54C0
0B038:  MOVLW  22
0B03A:  BTFSS  F9E.4
0B03C:  BRA    B03A
0B03E:  MOVWF  FAD
....................       SendDataDisplay(); 
0B040:  CALL   3EE4
0B044:  MOVLB  1
....................    } 
.................... //_--------------------------------------------------------------------------------------------------------------------------------------------------------       
....................  
.................... //_--------------------------------------------------------------------------------------------------------------------------------------------------------       
....................    if(Menu==10){//Menu de Usuarios 
0B046:  MOVF   xCF,W
0B048:  SUBLW  0A
0B04A:  BTFSS  FD8.2
0B04C:  BRA    B4E8
....................       printf("fecha.txt=\"Fecha:%02u/%02u/20%02u    Hora: %02u:%02u:%02u\"",Dia,Mes,Year,Hora,Minuto,Segundo); 
0B04E:  MOVLW  F2
0B050:  MOVWF  FF6
0B052:  MOVLW  10
0B054:  MOVWF  FF7
0B056:  MOVLW  00
0B058:  MOVWF  FF8
0B05A:  MOVLW  11
0B05C:  MOVLB  6
0B05E:  MOVWF  x27
0B060:  MOVLB  0
0B062:  CALL   543C
0B066:  MOVFF  20B,627
0B06A:  MOVLW  01
0B06C:  MOVLB  6
0B06E:  MOVWF  x28
0B070:  MOVLB  0
0B072:  CALL   54C0
0B076:  MOVLW  2F
0B078:  BTFSS  F9E.4
0B07A:  BRA    B078
0B07C:  MOVWF  FAD
0B07E:  MOVFF  20A,627
0B082:  MOVLW  01
0B084:  MOVLB  6
0B086:  MOVWF  x28
0B088:  MOVLB  0
0B08A:  CALL   54C0
0B08E:  MOVLW  2F
0B090:  BTFSS  F9E.4
0B092:  BRA    B090
0B094:  MOVWF  FAD
0B096:  MOVLW  32
0B098:  BTFSS  F9E.4
0B09A:  BRA    B098
0B09C:  MOVWF  FAD
0B09E:  MOVLW  30
0B0A0:  BTFSS  F9E.4
0B0A2:  BRA    B0A0
0B0A4:  MOVWF  FAD
0B0A6:  MOVFF  209,627
0B0AA:  MOVLW  01
0B0AC:  MOVLB  6
0B0AE:  MOVWF  x28
0B0B0:  MOVLB  0
0B0B2:  CALL   54C0
0B0B6:  MOVLW  13
0B0B8:  MOVWF  FF6
0B0BA:  MOVLW  11
0B0BC:  MOVWF  FF7
0B0BE:  MOVLW  00
0B0C0:  MOVWF  FF8
0B0C2:  MOVLW  0A
0B0C4:  MOVLB  6
0B0C6:  MOVWF  x27
0B0C8:  MOVLB  0
0B0CA:  CALL   543C
0B0CE:  MOVFF  20C,627
0B0D2:  MOVLW  01
0B0D4:  MOVLB  6
0B0D6:  MOVWF  x28
0B0D8:  MOVLB  0
0B0DA:  CALL   54C0
0B0DE:  MOVLW  3A
0B0E0:  BTFSS  F9E.4
0B0E2:  BRA    B0E0
0B0E4:  MOVWF  FAD
0B0E6:  MOVFF  20D,627
0B0EA:  MOVLW  01
0B0EC:  MOVLB  6
0B0EE:  MOVWF  x28
0B0F0:  MOVLB  0
0B0F2:  CALL   54C0
0B0F6:  MOVLW  3A
0B0F8:  BTFSS  F9E.4
0B0FA:  BRA    B0F8
0B0FC:  MOVWF  FAD
0B0FE:  MOVFF  20E,627
0B102:  MOVLW  01
0B104:  MOVLB  6
0B106:  MOVWF  x28
0B108:  MOVLB  0
0B10A:  CALL   54C0
0B10E:  MOVLW  22
0B110:  BTFSS  F9E.4
0B112:  BRA    B110
0B114:  MOVWF  FAD
....................       SendDataDisplay(); 
0B116:  CALL   3EE4
....................       GuardaEEPROM=OFF; 
0B11A:  BCF    x87.4
....................       if(ingreso) 
0B11C:  BTFSS  x89.0
0B11E:  BRA    B128
....................          TipoClave=2; 
0B120:  MOVLW  02
0B122:  MOVLB  1
0B124:  MOVWF  x75
....................       else 
0B126:  BRA    B12C
....................          TipoClave=0; 
0B128:  MOVLB  1
0B12A:  CLRF   x75
....................        
....................       if(RX_Buffer[4]==0x01){//01, Admin 
0B12C:  DECFSZ 34,W
0B12E:  BRA    B182
....................          printf("page Clave"); 
0B130:  MOVLW  2E
0B132:  MOVWF  FF6
0B134:  MOVLW  11
0B136:  MOVWF  FF7
0B138:  MOVLW  00
0B13A:  MOVWF  FF8
0B13C:  MOVLB  0
0B13E:  CALL   3EB2
....................          SendDataDisplay();        
0B142:  CALL   3EE4
....................          if(!ingreso){ 
0B146:  BTFSC  x89.0
0B148:  BRA    B17A
....................             usuario="Admin"; 
0B14A:  MOVLW  02
0B14C:  MOVWF  FEA
0B14E:  MOVLW  28
0B150:  MOVWF  FE9
0B152:  MOVFF  FF2,622
0B156:  BCF    FF2.6
0B158:  BCF    FF2.7
0B15A:  MOVLW  00
0B15C:  CALL   0144
0B160:  TBLRD*-
0B162:  TBLRD*+
0B164:  MOVF   FF5,W
0B166:  MOVWF  FEE
0B168:  IORLW  00
0B16A:  BNZ   B162
0B16C:  MOVLB  6
0B16E:  BTFSC  x22.6
0B170:  BSF    FF2.6
0B172:  BTFSC  x22.7
0B174:  BSF    FF2.7
....................             codigoUsuario=0; 
0B176:  MOVLB  2
0B178:  CLRF   x22
....................          } 
....................          codigoUsuario2=0; 
0B17A:  MOVLB  2
0B17C:  CLRF   x04
....................       }else if(RX_Buffer[4]==0x02){//02, Operador 1 
0B17E:  BRA    B4BA
0B180:  MOVLB  1
0B182:  MOVF   34,W
0B184:  SUBLW  02
0B186:  BNZ   B1DE
....................          printf("page Clave"); 
0B188:  MOVLW  3A
0B18A:  MOVWF  FF6
0B18C:  MOVLW  11
0B18E:  MOVWF  FF7
0B190:  MOVLW  00
0B192:  MOVWF  FF8
0B194:  MOVLB  0
0B196:  CALL   3EB2
....................          SendDataDisplay();        
0B19A:  CALL   3EE4
....................          if(!ingreso){ 
0B19E:  BTFSC  x89.0
0B1A0:  BRA    B1D4
....................             usuario="Operador 1"; 
0B1A2:  MOVLW  02
0B1A4:  MOVWF  FEA
0B1A6:  MOVLW  28
0B1A8:  MOVWF  FE9
0B1AA:  MOVFF  FF2,622
0B1AE:  BCF    FF2.6
0B1B0:  BCF    FF2.7
0B1B2:  MOVLW  00
0B1B4:  CALL   016E
0B1B8:  TBLRD*-
0B1BA:  TBLRD*+
0B1BC:  MOVF   FF5,W
0B1BE:  MOVWF  FEE
0B1C0:  IORLW  00
0B1C2:  BNZ   B1BA
0B1C4:  MOVLB  6
0B1C6:  BTFSC  x22.6
0B1C8:  BSF    FF2.6
0B1CA:  BTFSC  x22.7
0B1CC:  BSF    FF2.7
....................             codigoUsuario=1; 
0B1CE:  MOVLW  01
0B1D0:  MOVLB  2
0B1D2:  MOVWF  x22
....................          } 
....................          codigoUsuario2=1; 
0B1D4:  MOVLW  01
0B1D6:  MOVLB  2
0B1D8:  MOVWF  x04
....................       }else if(RX_Buffer[4]==0x03){//03, Operador 2 
0B1DA:  BRA    B4BA
0B1DC:  MOVLB  1
0B1DE:  MOVF   34,W
0B1E0:  SUBLW  03
0B1E2:  BNZ   B23A
....................          printf("page Clave"); 
0B1E4:  MOVLW  46
0B1E6:  MOVWF  FF6
0B1E8:  MOVLW  11
0B1EA:  MOVWF  FF7
0B1EC:  MOVLW  00
0B1EE:  MOVWF  FF8
0B1F0:  MOVLB  0
0B1F2:  CALL   3EB2
....................          SendDataDisplay();        
0B1F6:  CALL   3EE4
....................          if(!ingreso){ 
0B1FA:  BTFSC  x89.0
0B1FC:  BRA    B230
....................             usuario="Operador 2"; 
0B1FE:  MOVLW  02
0B200:  MOVWF  FEA
0B202:  MOVLW  28
0B204:  MOVWF  FE9
0B206:  MOVFF  FF2,622
0B20A:  BCF    FF2.6
0B20C:  BCF    FF2.7
0B20E:  MOVLW  00
0B210:  CALL   019E
0B214:  TBLRD*-
0B216:  TBLRD*+
0B218:  MOVF   FF5,W
0B21A:  MOVWF  FEE
0B21C:  IORLW  00
0B21E:  BNZ   B216
0B220:  MOVLB  6
0B222:  BTFSC  x22.6
0B224:  BSF    FF2.6
0B226:  BTFSC  x22.7
0B228:  BSF    FF2.7
....................             codigoUsuario=2; 
0B22A:  MOVLW  02
0B22C:  MOVLB  2
0B22E:  MOVWF  x22
....................          } 
....................          codigoUsuario2=2; 
0B230:  MOVLW  02
0B232:  MOVLB  2
0B234:  MOVWF  x04
....................       }else if(RX_Buffer[4]==0x04){//04, Operador 3 
0B236:  BRA    B4BA
0B238:  MOVLB  1
0B23A:  MOVF   34,W
0B23C:  SUBLW  04
0B23E:  BNZ   B296
....................          printf("page Clave"); 
0B240:  MOVLW  52
0B242:  MOVWF  FF6
0B244:  MOVLW  11
0B246:  MOVWF  FF7
0B248:  MOVLW  00
0B24A:  MOVWF  FF8
0B24C:  MOVLB  0
0B24E:  CALL   3EB2
....................          SendDataDisplay();        
0B252:  CALL   3EE4
....................          if(!ingreso){ 
0B256:  BTFSC  x89.0
0B258:  BRA    B28C
....................             usuario="Operador 3"; 
0B25A:  MOVLW  02
0B25C:  MOVWF  FEA
0B25E:  MOVLW  28
0B260:  MOVWF  FE9
0B262:  MOVFF  FF2,622
0B266:  BCF    FF2.6
0B268:  BCF    FF2.7
0B26A:  MOVLW  00
0B26C:  CALL   01CE
0B270:  TBLRD*-
0B272:  TBLRD*+
0B274:  MOVF   FF5,W
0B276:  MOVWF  FEE
0B278:  IORLW  00
0B27A:  BNZ   B272
0B27C:  MOVLB  6
0B27E:  BTFSC  x22.6
0B280:  BSF    FF2.6
0B282:  BTFSC  x22.7
0B284:  BSF    FF2.7
....................             codigoUsuario=3; 
0B286:  MOVLW  03
0B288:  MOVLB  2
0B28A:  MOVWF  x22
....................          } 
....................          codigoUsuario2=3; 
0B28C:  MOVLW  03
0B28E:  MOVLB  2
0B290:  MOVWF  x04
....................       }else if(RX_Buffer[4]==0x05){//05, Operador 4 
0B292:  BRA    B4BA
0B294:  MOVLB  1
0B296:  MOVF   34,W
0B298:  SUBLW  05
0B29A:  BNZ   B2F2
....................          printf("page Clave"); 
0B29C:  MOVLW  5E
0B29E:  MOVWF  FF6
0B2A0:  MOVLW  11
0B2A2:  MOVWF  FF7
0B2A4:  MOVLW  00
0B2A6:  MOVWF  FF8
0B2A8:  MOVLB  0
0B2AA:  CALL   3EB2
....................          SendDataDisplay();        
0B2AE:  CALL   3EE4
....................          if(!ingreso){ 
0B2B2:  BTFSC  x89.0
0B2B4:  BRA    B2E8
....................             usuario="Operador 4"; 
0B2B6:  MOVLW  02
0B2B8:  MOVWF  FEA
0B2BA:  MOVLW  28
0B2BC:  MOVWF  FE9
0B2BE:  MOVFF  FF2,622
0B2C2:  BCF    FF2.6
0B2C4:  BCF    FF2.7
0B2C6:  MOVLW  00
0B2C8:  CALL   01FE
0B2CC:  TBLRD*-
0B2CE:  TBLRD*+
0B2D0:  MOVF   FF5,W
0B2D2:  MOVWF  FEE
0B2D4:  IORLW  00
0B2D6:  BNZ   B2CE
0B2D8:  MOVLB  6
0B2DA:  BTFSC  x22.6
0B2DC:  BSF    FF2.6
0B2DE:  BTFSC  x22.7
0B2E0:  BSF    FF2.7
....................             codigoUsuario=4; 
0B2E2:  MOVLW  04
0B2E4:  MOVLB  2
0B2E6:  MOVWF  x22
....................          } 
....................          codigoUsuario2=4; 
0B2E8:  MOVLW  04
0B2EA:  MOVLB  2
0B2EC:  MOVWF  x04
....................       }else if(RX_Buffer[4]==0x06){//06, Operador 5 
0B2EE:  BRA    B4BA
0B2F0:  MOVLB  1
0B2F2:  MOVF   34,W
0B2F4:  SUBLW  06
0B2F6:  BNZ   B34E
....................          printf("page Clave"); 
0B2F8:  MOVLW  6A
0B2FA:  MOVWF  FF6
0B2FC:  MOVLW  11
0B2FE:  MOVWF  FF7
0B300:  MOVLW  00
0B302:  MOVWF  FF8
0B304:  MOVLB  0
0B306:  CALL   3EB2
....................          SendDataDisplay();        
0B30A:  CALL   3EE4
....................          if(!ingreso){ 
0B30E:  BTFSC  x89.0
0B310:  BRA    B344
....................             usuario="Operador 5"; 
0B312:  MOVLW  02
0B314:  MOVWF  FEA
0B316:  MOVLW  28
0B318:  MOVWF  FE9
0B31A:  MOVFF  FF2,622
0B31E:  BCF    FF2.6
0B320:  BCF    FF2.7
0B322:  MOVLW  00
0B324:  CALL   022E
0B328:  TBLRD*-
0B32A:  TBLRD*+
0B32C:  MOVF   FF5,W
0B32E:  MOVWF  FEE
0B330:  IORLW  00
0B332:  BNZ   B32A
0B334:  MOVLB  6
0B336:  BTFSC  x22.6
0B338:  BSF    FF2.6
0B33A:  BTFSC  x22.7
0B33C:  BSF    FF2.7
....................             codigoUsuario=5; 
0B33E:  MOVLW  05
0B340:  MOVLB  2
0B342:  MOVWF  x22
....................          } 
....................          codigoUsuario2=5; 
0B344:  MOVLW  05
0B346:  MOVLB  2
0B348:  MOVWF  x04
....................       }else if(RX_Buffer[4]==0x07){//07, Operador 6 
0B34A:  BRA    B4BA
0B34C:  MOVLB  1
0B34E:  MOVF   34,W
0B350:  SUBLW  07
0B352:  BNZ   B3AA
....................          printf("page Clave"); 
0B354:  MOVLW  76
0B356:  MOVWF  FF6
0B358:  MOVLW  11
0B35A:  MOVWF  FF7
0B35C:  MOVLW  00
0B35E:  MOVWF  FF8
0B360:  MOVLB  0
0B362:  CALL   3EB2
....................          SendDataDisplay();        
0B366:  CALL   3EE4
....................          if(!ingreso){ 
0B36A:  BTFSC  x89.0
0B36C:  BRA    B3A0
....................             usuario="Operador 6"; 
0B36E:  MOVLW  02
0B370:  MOVWF  FEA
0B372:  MOVLW  28
0B374:  MOVWF  FE9
0B376:  MOVFF  FF2,622
0B37A:  BCF    FF2.6
0B37C:  BCF    FF2.7
0B37E:  MOVLW  00
0B380:  CALL   025E
0B384:  TBLRD*-
0B386:  TBLRD*+
0B388:  MOVF   FF5,W
0B38A:  MOVWF  FEE
0B38C:  IORLW  00
0B38E:  BNZ   B386
0B390:  MOVLB  6
0B392:  BTFSC  x22.6
0B394:  BSF    FF2.6
0B396:  BTFSC  x22.7
0B398:  BSF    FF2.7
....................             codigoUsuario=6; 
0B39A:  MOVLW  06
0B39C:  MOVLB  2
0B39E:  MOVWF  x22
....................          } 
....................          codigoUsuario2=6; 
0B3A0:  MOVLW  06
0B3A2:  MOVLB  2
0B3A4:  MOVWF  x04
....................       }else if(RX_Buffer[4]==0x08){//08, Operador 7 
0B3A6:  BRA    B4BA
0B3A8:  MOVLB  1
0B3AA:  MOVF   34,W
0B3AC:  SUBLW  08
0B3AE:  BNZ   B406
....................          printf("page Clave"); 
0B3B0:  MOVLW  82
0B3B2:  MOVWF  FF6
0B3B4:  MOVLW  11
0B3B6:  MOVWF  FF7
0B3B8:  MOVLW  00
0B3BA:  MOVWF  FF8
0B3BC:  MOVLB  0
0B3BE:  CALL   3EB2
....................          SendDataDisplay();        
0B3C2:  CALL   3EE4
....................          if(!ingreso){ 
0B3C6:  BTFSC  x89.0
0B3C8:  BRA    B3FC
....................             usuario="Operador 7"; 
0B3CA:  MOVLW  02
0B3CC:  MOVWF  FEA
0B3CE:  MOVLW  28
0B3D0:  MOVWF  FE9
0B3D2:  MOVFF  FF2,622
0B3D6:  BCF    FF2.6
0B3D8:  BCF    FF2.7
0B3DA:  MOVLW  00
0B3DC:  CALL   028E
0B3E0:  TBLRD*-
0B3E2:  TBLRD*+
0B3E4:  MOVF   FF5,W
0B3E6:  MOVWF  FEE
0B3E8:  IORLW  00
0B3EA:  BNZ   B3E2
0B3EC:  MOVLB  6
0B3EE:  BTFSC  x22.6
0B3F0:  BSF    FF2.6
0B3F2:  BTFSC  x22.7
0B3F4:  BSF    FF2.7
....................             codigoUsuario=7; 
0B3F6:  MOVLW  07
0B3F8:  MOVLB  2
0B3FA:  MOVWF  x22
....................          } 
....................          codigoUsuario2=7; 
0B3FC:  MOVLW  07
0B3FE:  MOVLB  2
0B400:  MOVWF  x04
....................       }else if(RX_Buffer[4]==0x09){//09, Operador 8 
0B402:  BRA    B4BA
0B404:  MOVLB  1
0B406:  MOVF   34,W
0B408:  SUBLW  09
0B40A:  BNZ   B462
....................          printf("page Clave"); 
0B40C:  MOVLW  8E
0B40E:  MOVWF  FF6
0B410:  MOVLW  11
0B412:  MOVWF  FF7
0B414:  MOVLW  00
0B416:  MOVWF  FF8
0B418:  MOVLB  0
0B41A:  CALL   3EB2
....................          SendDataDisplay();        
0B41E:  CALL   3EE4
....................          if(!ingreso){ 
0B422:  BTFSC  x89.0
0B424:  BRA    B458
....................             usuario="Operador 8"; 
0B426:  MOVLW  02
0B428:  MOVWF  FEA
0B42A:  MOVLW  28
0B42C:  MOVWF  FE9
0B42E:  MOVFF  FF2,622
0B432:  BCF    FF2.6
0B434:  BCF    FF2.7
0B436:  MOVLW  00
0B438:  CALL   02BE
0B43C:  TBLRD*-
0B43E:  TBLRD*+
0B440:  MOVF   FF5,W
0B442:  MOVWF  FEE
0B444:  IORLW  00
0B446:  BNZ   B43E
0B448:  MOVLB  6
0B44A:  BTFSC  x22.6
0B44C:  BSF    FF2.6
0B44E:  BTFSC  x22.7
0B450:  BSF    FF2.7
....................             codigoUsuario=8; 
0B452:  MOVLW  08
0B454:  MOVLB  2
0B456:  MOVWF  x22
....................          } 
....................          codigoUsuario2=8; 
0B458:  MOVLW  08
0B45A:  MOVLB  2
0B45C:  MOVWF  x04
....................       }else if(RX_Buffer[4]==0x0a){//0a, Tecnico 
0B45E:  BRA    B4BA
0B460:  MOVLB  1
0B462:  MOVF   34,W
0B464:  SUBLW  0A
0B466:  BNZ   B4BC
....................          printf("page Clave"); 
0B468:  MOVLW  9A
0B46A:  MOVWF  FF6
0B46C:  MOVLW  11
0B46E:  MOVWF  FF7
0B470:  MOVLW  00
0B472:  MOVWF  FF8
0B474:  MOVLB  0
0B476:  CALL   3EB2
....................          SendDataDisplay();        
0B47A:  CALL   3EE4
....................          if(!ingreso){ 
0B47E:  BTFSC  x89.0
0B480:  BRA    B4B4
....................             usuario="Tecnico"; 
0B482:  MOVLW  02
0B484:  MOVWF  FEA
0B486:  MOVLW  28
0B488:  MOVWF  FE9
0B48A:  MOVFF  FF2,622
0B48E:  BCF    FF2.6
0B490:  BCF    FF2.7
0B492:  MOVLW  00
0B494:  CALL   02EE
0B498:  TBLRD*-
0B49A:  TBLRD*+
0B49C:  MOVF   FF5,W
0B49E:  MOVWF  FEE
0B4A0:  IORLW  00
0B4A2:  BNZ   B49A
0B4A4:  MOVLB  6
0B4A6:  BTFSC  x22.6
0B4A8:  BSF    FF2.6
0B4AA:  BTFSC  x22.7
0B4AC:  BSF    FF2.7
....................             codigoUsuario=9; 
0B4AE:  MOVLW  09
0B4B0:  MOVLB  2
0B4B2:  MOVWF  x22
....................          } 
....................          codigoUsuario2=9; 
0B4B4:  MOVLW  09
0B4B6:  MOVLB  2
0B4B8:  MOVWF  x04
0B4BA:  MOVLB  1
....................       } 
....................        
....................       if(RX_Buffer[4]==0xaa && ingreso){//aa, Regresar 
0B4BC:  MOVF   34,W
0B4BE:  SUBLW  AA
0B4C0:  BNZ   B4E8
0B4C2:  MOVLB  0
0B4C4:  BTFSC  x89.0
0B4C6:  BRA    B4CC
0B4C8:  MOVLB  1
0B4CA:  BRA    B4E8
....................          printf("page Ajustes"); 
0B4CC:  MOVLW  A6
0B4CE:  MOVWF  FF6
0B4D0:  MOVLW  11
0B4D2:  MOVWF  FF7
0B4D4:  MOVLW  00
0B4D6:  MOVWF  FF8
0B4D8:  CALL   3EB2
....................          SendDataDisplay();        
0B4DC:  CALL   3EE4
....................          codigoUsuario2=10; 
0B4E0:  MOVLW  0A
0B4E2:  MOVLB  2
0B4E4:  MOVWF  x04
0B4E6:  MOVLB  1
....................       } 
....................    } 
.................... //_--------------------------------------------------------------------------------------------------------------------------------------------------------       
....................  
.................... //_--------------------------------------------------------------------------------------------------------------------------------------------------------       
....................    if(Menu==11){//Menu de Configuraciones 
0B4E8:  MOVF   xCF,W
0B4EA:  SUBLW  0B
0B4EC:  BTFSS  FD8.2
0B4EE:  BRA    B724
....................       printf("fecha.txt=\"Fecha:%02u/%02u/20%02u    Hora: %02u:%02u:%02u\"",Dia,Mes,Year,Hora,Minuto,Segundo); 
0B4F0:  MOVLW  B4
0B4F2:  MOVWF  FF6
0B4F4:  MOVLW  11
0B4F6:  MOVWF  FF7
0B4F8:  MOVLW  00
0B4FA:  MOVWF  FF8
0B4FC:  MOVLW  11
0B4FE:  MOVLB  6
0B500:  MOVWF  x27
0B502:  MOVLB  0
0B504:  CALL   543C
0B508:  MOVFF  20B,627
0B50C:  MOVLW  01
0B50E:  MOVLB  6
0B510:  MOVWF  x28
0B512:  MOVLB  0
0B514:  CALL   54C0
0B518:  MOVLW  2F
0B51A:  BTFSS  F9E.4
0B51C:  BRA    B51A
0B51E:  MOVWF  FAD
0B520:  MOVFF  20A,627
0B524:  MOVLW  01
0B526:  MOVLB  6
0B528:  MOVWF  x28
0B52A:  MOVLB  0
0B52C:  CALL   54C0
0B530:  MOVLW  2F
0B532:  BTFSS  F9E.4
0B534:  BRA    B532
0B536:  MOVWF  FAD
0B538:  MOVLW  32
0B53A:  BTFSS  F9E.4
0B53C:  BRA    B53A
0B53E:  MOVWF  FAD
0B540:  MOVLW  30
0B542:  BTFSS  F9E.4
0B544:  BRA    B542
0B546:  MOVWF  FAD
0B548:  MOVFF  209,627
0B54C:  MOVLW  01
0B54E:  MOVLB  6
0B550:  MOVWF  x28
0B552:  MOVLB  0
0B554:  CALL   54C0
0B558:  MOVLW  D5
0B55A:  MOVWF  FF6
0B55C:  MOVLW  11
0B55E:  MOVWF  FF7
0B560:  MOVLW  00
0B562:  MOVWF  FF8
0B564:  MOVLW  0A
0B566:  MOVLB  6
0B568:  MOVWF  x27
0B56A:  MOVLB  0
0B56C:  CALL   543C
0B570:  MOVFF  20C,627
0B574:  MOVLW  01
0B576:  MOVLB  6
0B578:  MOVWF  x28
0B57A:  MOVLB  0
0B57C:  CALL   54C0
0B580:  MOVLW  3A
0B582:  BTFSS  F9E.4
0B584:  BRA    B582
0B586:  MOVWF  FAD
0B588:  MOVFF  20D,627
0B58C:  MOVLW  01
0B58E:  MOVLB  6
0B590:  MOVWF  x28
0B592:  MOVLB  0
0B594:  CALL   54C0
0B598:  MOVLW  3A
0B59A:  BTFSS  F9E.4
0B59C:  BRA    B59A
0B59E:  MOVWF  FAD
0B5A0:  MOVFF  20E,627
0B5A4:  MOVLW  01
0B5A6:  MOVLB  6
0B5A8:  MOVWF  x28
0B5AA:  MOVLB  0
0B5AC:  CALL   54C0
0B5B0:  MOVLW  22
0B5B2:  BTFSS  F9E.4
0B5B4:  BRA    B5B2
0B5B6:  MOVWF  FAD
....................       SendDataDisplay(); 
0B5B8:  CALL   3EE4
....................       GuardaEEPROM=OFF; 
0B5BC:  BCF    x87.4
....................       printf("tuser.txt=\"%s\"",usuario); 
0B5BE:  MOVLW  F0
0B5C0:  MOVWF  FF6
0B5C2:  MOVLW  11
0B5C4:  MOVWF  FF7
0B5C6:  MOVLW  00
0B5C8:  MOVWF  FF8
0B5CA:  MOVLW  0B
0B5CC:  MOVLB  6
0B5CE:  MOVWF  x27
0B5D0:  MOVLB  0
0B5D2:  CALL   543C
0B5D6:  MOVLW  02
0B5D8:  MOVWF  FEA
0B5DA:  MOVLW  28
0B5DC:  MOVWF  FE9
0B5DE:  CALL   546E
0B5E2:  MOVLW  22
0B5E4:  BTFSS  F9E.4
0B5E6:  BRA    B5E4
0B5E8:  MOVWF  FAD
....................       SendDataDisplay(); 
0B5EA:  CALL   3EE4
....................       TipoClave=0; 
0B5EE:  MOVLB  1
0B5F0:  CLRF   x75
....................        
....................       if(RX_Buffer[4]==0x01){//01, Ciclos 
0B5F2:  DECFSZ 34,W
0B5F4:  BRA    B60E
....................          printf("page Ciclos"); 
0B5F6:  MOVLW  00
0B5F8:  MOVWF  FF6
0B5FA:  MOVLW  12
0B5FC:  MOVWF  FF7
0B5FE:  MOVLW  00
0B600:  MOVWF  FF8
0B602:  MOVLB  0
0B604:  CALL   3EB2
....................          SendDataDisplay();      
0B608:  CALL   3EE4
0B60C:  MOVLB  1
....................       } 
....................        
....................       if(RX_Buffer[4]==0x02){//02, Test de Componentes 
0B60E:  MOVF   34,W
0B610:  SUBLW  02
0B612:  BNZ   B62C
....................          printf("page Test"); 
0B614:  MOVLW  0C
0B616:  MOVWF  FF6
0B618:  MOVLW  12
0B61A:  MOVWF  FF7
0B61C:  MOVLW  00
0B61E:  MOVWF  FF8
0B620:  MOVLB  0
0B622:  CALL   3EB2
....................          SendDataDisplay();      
0B626:  CALL   3EE4
0B62A:  MOVLB  1
....................       } 
....................        
....................       if(RX_Buffer[4]==0x03){//03, Modificacin de clave Usuarios 
0B62C:  MOVF   34,W
0B62E:  SUBLW  03
0B630:  BNZ   B64A
....................          printf("page Usuarios"); 
0B632:  MOVLW  16
0B634:  MOVWF  FF6
0B636:  MOVLW  12
0B638:  MOVWF  FF7
0B63A:  MOVLW  00
0B63C:  MOVWF  FF8
0B63E:  MOVLB  0
0B640:  CALL   3EB2
....................          SendDataDisplay();      
0B644:  CALL   3EE4
0B648:  MOVLB  1
....................       } 
....................        
....................       if(RX_Buffer[4]==0x04){//03, Modificacin de clave Usuarios 
0B64A:  MOVF   34,W
0B64C:  SUBLW  04
0B64E:  BNZ   B668
....................          printf("page Activa"); 
0B650:  MOVLW  24
0B652:  MOVWF  FF6
0B654:  MOVLW  12
0B656:  MOVWF  FF7
0B658:  MOVLW  00
0B65A:  MOVWF  FF8
0B65C:  MOVLB  0
0B65E:  CALL   3EB2
....................          SendDataDisplay();      
0B662:  CALL   3EE4
0B666:  MOVLB  1
....................       } 
....................        
....................       if(RX_Buffer[4]==0x11 && CodigoUsuario==9){//11, Menu Oculto Tecnico 
0B668:  MOVF   34,W
0B66A:  SUBLW  11
0B66C:  BNZ   B698
0B66E:  MOVLB  2
0B670:  MOVF   x22,W
0B672:  SUBLW  09
0B674:  BTFSC  FD8.2
0B676:  BRA    B67C
0B678:  MOVLB  1
0B67A:  BRA    B698
....................          printf("page Clave"); 
0B67C:  MOVLW  30
0B67E:  MOVWF  FF6
0B680:  MOVLW  12
0B682:  MOVWF  FF7
0B684:  MOVLW  00
0B686:  MOVWF  FF8
0B688:  MOVLB  0
0B68A:  CALL   3EB2
....................          SendDataDisplay();  
0B68E:  CALL   3EE4
....................          TipoClave=1; 
0B692:  MOVLW  01
0B694:  MOVLB  1
0B696:  MOVWF  x75
....................       } 
....................        
....................       if(RX_Buffer[4]==0x05){//05, Hora y Fecha 
0B698:  MOVF   34,W
0B69A:  SUBLW  05
0B69C:  BNZ   B6CA
....................          printf("page Fecha"); 
0B69E:  MOVLW  3C
0B6A0:  MOVWF  FF6
0B6A2:  MOVLW  12
0B6A4:  MOVWF  FF7
0B6A6:  MOVLW  00
0B6A8:  MOVWF  FF8
0B6AA:  MOVLB  0
0B6AC:  CALL   3EB2
....................          SendDataDisplay();      
0B6B0:  CALL   3EE4
....................          DiaTx=Dia; 
0B6B4:  MOVFF  20B,218
....................          MesTx=Mes; 
0B6B8:  MOVFF  20A,217
....................          YearTx=Year; 
0B6BC:  MOVFF  209,216
....................          HoraTx=Hora; 
0B6C0:  MOVFF  20C,219
....................          MinutoTx=Minuto; 
0B6C4:  MOVFF  20D,21A
0B6C8:  MOVLB  1
....................       } 
....................        
....................       if(RX_Buffer[4]==0xa0){//a0, Menu Principal 
0B6CA:  MOVF   34,W
0B6CC:  SUBLW  A0
0B6CE:  BNZ   B6E8
....................          printf("page Menu"); 
0B6D0:  MOVLW  48
0B6D2:  MOVWF  FF6
0B6D4:  MOVLW  12
0B6D6:  MOVWF  FF7
0B6D8:  MOVLW  00
0B6DA:  MOVWF  FF8
0B6DC:  MOVLB  0
0B6DE:  CALL   3EB2
....................          SendDataDisplay();      
0B6E2:  CALL   3EE4
0B6E6:  MOVLB  1
....................       } 
....................        
....................       if(RX_Buffer[4]==0xb0){//b0, Personalizados 
0B6E8:  MOVF   34,W
0B6EA:  SUBLW  B0
0B6EC:  BNZ   B706
....................          printf("page CicloPersona"); 
0B6EE:  MOVLW  52
0B6F0:  MOVWF  FF6
0B6F2:  MOVLW  12
0B6F4:  MOVWF  FF7
0B6F6:  MOVLW  00
0B6F8:  MOVWF  FF8
0B6FA:  MOVLB  0
0B6FC:  CALL   3EB2
....................          SendDataDisplay();      
0B700:  CALL   3EE4
0B704:  MOVLB  1
....................       } 
....................        
....................       if(RX_Buffer[4]==0xc0){//c0, Configuraciones 
0B706:  MOVF   34,W
0B708:  SUBLW  C0
0B70A:  BNZ   B724
....................          printf("page Ajustes"); 
0B70C:  MOVLW  64
0B70E:  MOVWF  FF6
0B710:  MOVLW  12
0B712:  MOVWF  FF7
0B714:  MOVLW  00
0B716:  MOVWF  FF8
0B718:  MOVLB  0
0B71A:  CALL   3EB2
....................          SendDataDisplay();      
0B71E:  CALL   3EE4
0B722:  MOVLB  1
....................       } 
....................    } 
.................... //_--------------------------------------------------------------------------------------------------------------------------------------------------------       
....................  
.................... //_--------------------------------------------------------------------------------------------------------------------------------------------------------       
....................    if(Menu==12){//Menu de Visualizacion de Ciclos Realizados 
0B724:  MOVF   xCF,W
0B726:  SUBLW  0C
0B728:  BTFSS  FD8.2
0B72A:  GOTO   C382
....................       //printf("fecha.txt=\"Fecha:%02u/%02u/20%02u    Hora: %02u:%02u\"",Dia,Mes,Year,Hora,Minuto); 
....................       //SendDataDisplay(); 
....................       GuardaEEPROM=OFF; 
0B72E:  MOVLB  0
0B730:  BCF    x87.4
....................        
....................       i2c_start();            // Comienzo de la comunicacin 
0B732:  BSF    F94.4
0B734:  MOVLW  05
0B736:  MOVWF  00
0B738:  DECFSZ 00,F
0B73A:  BRA    B738
0B73C:  BSF    F94.3
0B73E:  MOVLW  06
0B740:  MOVWF  00
0B742:  DECFSZ 00,F
0B744:  BRA    B742
0B746:  BCF    F8B.4
0B748:  BCF    F94.4
0B74A:  MOVLW  05
0B74C:  MOVWF  00
0B74E:  DECFSZ 00,F
0B750:  BRA    B74E
0B752:  BCF    F8B.3
0B754:  BCF    F94.3
....................       i2c_write(0xB0);   // Direccin del esclavo en el bus I2C 
0B756:  MOVLW  B0
0B758:  MOVLB  6
0B75A:  MOVWF  x2F
0B75C:  MOVLB  0
0B75E:  CALL   23CA
....................       i2c_write(0);    // Posicin de donde se leer el dato en el esclavo 
0B762:  MOVLB  6
0B764:  CLRF   x2F
0B766:  MOVLB  0
0B768:  CALL   23CA
....................       i2c_write(0);    // Posicin de donde se leer el dato en el esclavo 
0B76C:  MOVLB  6
0B76E:  CLRF   x2F
0B770:  MOVLB  0
0B772:  CALL   23CA
....................       i2c_start();            // Reinicio 
0B776:  BSF    F94.4
0B778:  MOVLW  05
0B77A:  MOVWF  00
0B77C:  DECFSZ 00,F
0B77E:  BRA    B77C
0B780:  BSF    F94.3
0B782:  MOVLW  06
0B784:  MOVWF  00
0B786:  DECFSZ 00,F
0B788:  BRA    B786
0B78A:  BTFSS  F82.3
0B78C:  BRA    B78A
0B78E:  BCF    F8B.4
0B790:  BCF    F94.4
0B792:  MOVLW  05
0B794:  MOVWF  00
0B796:  DECFSZ 00,F
0B798:  BRA    B796
0B79A:  BCF    F8B.3
0B79C:  BCF    F94.3
....................       i2c_write(direccion+1); // Direccin del esclavo en modo lectura 
0B79E:  MOVLW  01
0B7A0:  ADDWF  x68,W
0B7A2:  MOVLB  6
0B7A4:  MOVWF  x22
0B7A6:  MOVWF  x2F
0B7A8:  MOVLB  0
0B7AA:  CALL   23CA
....................       dato=i2c_read(0);       // Lectura del dato 
0B7AE:  CLRF   00
0B7B0:  CALL   2440
0B7B4:  MOVFF  01,67
....................       i2c_stop(); 
0B7B8:  BCF    F94.4
0B7BA:  NOP   
0B7BC:  BSF    F94.3
0B7BE:  BTFSS  F82.3
0B7C0:  BRA    B7BE
0B7C2:  MOVLW  05
0B7C4:  MOVWF  00
0B7C6:  DECFSZ 00,F
0B7C8:  BRA    B7C6
0B7CA:  BRA    B7CC
0B7CC:  NOP   
0B7CE:  BSF    F94.4
0B7D0:  MOVLW  05
0B7D2:  MOVWF  00
0B7D4:  DECFSZ 00,F
0B7D6:  BRA    B7D4
....................       if(dato==1){ 
0B7D8:  DECFSZ x67,W
0B7DA:  BRA    B7F2
....................          printf("estado.txt=\"Enlazando \""); 
0B7DC:  MOVLW  72
0B7DE:  MOVWF  FF6
0B7E0:  MOVLW  12
0B7E2:  MOVWF  FF7
0B7E4:  MOVLW  00
0B7E6:  MOVWF  FF8
0B7E8:  CALL   3EB2
....................          SendDataDisplay();      
0B7EC:  CALL   3EE4
....................       }else if(dato==2){ 
0B7F0:  BRA    B892
0B7F2:  MOVF   x67,W
0B7F4:  SUBLW  02
0B7F6:  BNZ   B80E
....................          printf("estado.txt=\"Verificando Com. \""); 
0B7F8:  MOVLW  8A
0B7FA:  MOVWF  FF6
0B7FC:  MOVLW  12
0B7FE:  MOVWF  FF7
0B800:  MOVLW  00
0B802:  MOVWF  FF8
0B804:  CALL   3EB2
....................          SendDataDisplay();     
0B808:  CALL   3EE4
....................       }else if(dato==3){ 
0B80C:  BRA    B892
0B80E:  MOVF   x67,W
0B810:  SUBLW  03
0B812:  BNZ   B82A
....................          printf("estado.txt=\"Montando USB\""); 
0B814:  MOVLW  AA
0B816:  MOVWF  FF6
0B818:  MOVLW  12
0B81A:  MOVWF  FF7
0B81C:  MOVLW  00
0B81E:  MOVWF  FF8
0B820:  CALL   3EB2
....................          SendDataDisplay();     
0B824:  CALL   3EE4
....................       }else if(dato==4){ 
0B828:  BRA    B892
0B82A:  MOVF   x67,W
0B82C:  SUBLW  04
0B82E:  BNZ   B846
....................          printf("estado.txt=\"Creando Archivo\""); 
0B830:  MOVLW  C4
0B832:  MOVWF  FF6
0B834:  MOVLW  12
0B836:  MOVWF  FF7
0B838:  MOVLW  00
0B83A:  MOVWF  FF8
0B83C:  CALL   3EB2
....................          SendDataDisplay();     
0B840:  CALL   3EE4
....................       }else if(dato==5){ 
0B844:  BRA    B892
0B846:  MOVF   x67,W
0B848:  SUBLW  05
0B84A:  BNZ   B862
....................          printf("estado.txt=\"Transfiriendo Datos\""); 
0B84C:  MOVLW  E2
0B84E:  MOVWF  FF6
0B850:  MOVLW  12
0B852:  MOVWF  FF7
0B854:  MOVLW  00
0B856:  MOVWF  FF8
0B858:  CALL   3EB2
....................          SendDataDisplay();     
0B85C:  CALL   3EE4
....................       }else if(dato==6){ 
0B860:  BRA    B892
0B862:  MOVF   x67,W
0B864:  SUBLW  06
0B866:  BNZ   B87E
....................          printf("estado.txt=\"Cerrando USB\""); 
0B868:  MOVLW  04
0B86A:  MOVWF  FF6
0B86C:  MOVLW  13
0B86E:  MOVWF  FF7
0B870:  MOVLW  00
0B872:  MOVWF  FF8
0B874:  CALL   3EB2
....................          SendDataDisplay();     
0B878:  CALL   3EE4
....................       }else{ 
0B87C:  BRA    B892
....................          printf("estado.txt=\"Desconectado \""); 
0B87E:  MOVLW  1E
0B880:  MOVWF  FF6
0B882:  MOVLW  13
0B884:  MOVWF  FF7
0B886:  MOVLW  00
0B888:  MOVWF  FF8
0B88A:  CALL   3EB2
....................          SendDataDisplay();     
0B88E:  CALL   3EE4
....................       } 
....................        
....................       if(RX_Buffer[6]==0x01){//01, Ciclos 
0B892:  DECFSZ 36,W
0B894:  BRA    B8AA
....................          printf("page Ajustes"); 
0B896:  MOVLW  3A
0B898:  MOVWF  FF6
0B89A:  MOVLW  13
0B89C:  MOVWF  FF7
0B89E:  MOVLW  00
0B8A0:  MOVWF  FF8
0B8A2:  CALL   3EB2
....................          SendDataDisplay();      
0B8A6:  CALL   3EE4
....................       } 
....................        
....................       if(RX_Buffer[6]==0x02){//02, Exportar 
0B8AA:  MOVF   36,W
0B8AC:  SUBLW  02
0B8AE:  BNZ   B8B8
....................          RX_Buffer[6]=0x00;   
0B8B0:  CLRF   36
....................          RX_Buffer2[6]=0x00; 
0B8B2:  CLRF   41
....................          exportarData(); 
0B8B4:  GOTO   5AC6
....................       } 
....................        
....................       if(RX_Buffer[4]>0x00 && RX_Buffer[5]>0x00){ 
0B8B8:  MOVF   34,F
0B8BA:  BTFSC  FD8.2
0B8BC:  BRA    BF8C
0B8BE:  MOVF   35,F
0B8C0:  BTFSC  FD8.2
0B8C2:  BRA    BF8C
....................          cicloVisualizado=RX_Buffer[4]-1; 
0B8C4:  MOVLW  01
0B8C6:  SUBWF  34,W
0B8C8:  MOVLB  2
0B8CA:  MOVWF  x10
....................          cicloVisto=RX_Buffer[5]-1; 
0B8CC:  MOVLW  01
0B8CE:  SUBWF  35,W
0B8D0:  MOVWF  x11
....................          RX_Buffer[4]=0x00; 
0B8D2:  CLRF   34
....................          RX_Buffer[5]=0x00; 
0B8D4:  CLRF   35
....................          RX_Buffer2[4]=0x00; 
0B8D6:  CLRF   3F
....................          RX_Buffer2[5]=0x00; 
0B8D8:  CLRF   40
....................          diaCiclos=read_ext_eeprom(2+(cicloVisto*320)); 
0B8DA:  MOVLB  6
0B8DC:  CLRF   x37
0B8DE:  MOVFF  211,636
0B8E2:  MOVLW  01
0B8E4:  MOVWF  x39
0B8E6:  MOVLW  40
0B8E8:  MOVWF  x38
0B8EA:  MOVLB  0
0B8EC:  CALL   23A8
0B8F0:  MOVFF  02,03
0B8F4:  MOVF   01,W
0B8F6:  ADDLW  02
0B8F8:  MOVLB  6
0B8FA:  MOVWF  x22
0B8FC:  MOVLW  00
0B8FE:  ADDWFC 02,W
0B900:  MOVWF  x23
0B902:  MOVWF  x28
0B904:  MOVFF  622,627
0B908:  MOVLB  0
0B90A:  CALL   24AA
0B90E:  MOVFF  01,289
....................          if(diaCiclos>31) 
0B912:  MOVLB  2
0B914:  MOVF   x89,W
0B916:  SUBLW  1F
0B918:  BC    B91E
....................             diaCiclos=1; 
0B91A:  MOVLW  01
0B91C:  MOVWF  x89
....................          mesCiclos=read_ext_eeprom(3+(cicloVisto*320)); 
0B91E:  MOVLB  6
0B920:  CLRF   x37
0B922:  MOVFF  211,636
0B926:  MOVLW  01
0B928:  MOVWF  x39
0B92A:  MOVLW  40
0B92C:  MOVWF  x38
0B92E:  MOVLB  0
0B930:  CALL   23A8
0B934:  MOVFF  02,03
0B938:  MOVF   01,W
0B93A:  ADDLW  03
0B93C:  MOVLB  6
0B93E:  MOVWF  x22
0B940:  MOVLW  00
0B942:  ADDWFC 02,W
0B944:  MOVWF  x23
0B946:  MOVWF  x28
0B948:  MOVFF  622,627
0B94C:  MOVLB  0
0B94E:  CALL   24AA
0B952:  MOVFF  01,28A
....................          if(mesCiclos>12) 
0B956:  MOVLB  2
0B958:  MOVF   x8A,W
0B95A:  SUBLW  0C
0B95C:  BC    B962
....................             mesCiclos=1; 
0B95E:  MOVLW  01
0B960:  MOVWF  x8A
....................          yearCiclos=read_ext_eeprom(4+(cicloVisto*320)); 
0B962:  MOVLB  6
0B964:  CLRF   x37
0B966:  MOVFF  211,636
0B96A:  MOVLW  01
0B96C:  MOVWF  x39
0B96E:  MOVLW  40
0B970:  MOVWF  x38
0B972:  MOVLB  0
0B974:  CALL   23A8
0B978:  MOVFF  02,03
0B97C:  MOVF   01,W
0B97E:  ADDLW  04
0B980:  MOVLB  6
0B982:  MOVWF  x22
0B984:  MOVLW  00
0B986:  ADDWFC 02,W
0B988:  MOVWF  x23
0B98A:  MOVWF  x28
0B98C:  MOVFF  622,627
0B990:  MOVLB  0
0B992:  CALL   24AA
0B996:  MOVFF  01,28B
....................          if(yearCiclos>99) 
0B99A:  MOVLB  2
0B99C:  MOVF   x8B,W
0B99E:  SUBLW  63
0B9A0:  BC    B9A6
....................             yearCiclos=19; 
0B9A2:  MOVLW  13
0B9A4:  MOVWF  x8B
....................          cicloCiclos=read_ext_eeprom(1+(cicloVisto*320)); 
0B9A6:  MOVLB  6
0B9A8:  CLRF   x37
0B9AA:  MOVFF  211,636
0B9AE:  MOVLW  01
0B9B0:  MOVWF  x39
0B9B2:  MOVLW  40
0B9B4:  MOVWF  x38
0B9B6:  MOVLB  0
0B9B8:  CALL   23A8
0B9BC:  MOVFF  02,03
0B9C0:  MOVF   01,W
0B9C2:  ADDLW  01
0B9C4:  MOVLB  6
0B9C6:  MOVWF  x22
0B9C8:  MOVLW  00
0B9CA:  ADDWFC 02,W
0B9CC:  MOVWF  x23
0B9CE:  MOVWF  x28
0B9D0:  MOVFF  622,627
0B9D4:  MOVLB  0
0B9D6:  CALL   24AA
0B9DA:  MOVFF  01,28D
....................          if(cicloCiclos>20) 
0B9DE:  MOVLB  2
0B9E0:  MOVF   x8D,W
0B9E2:  SUBLW  14
0B9E4:  BC    B9EA
....................             cicloCiclos=1; 
0B9E6:  MOVLW  01
0B9E8:  MOVWF  x8D
....................          usuarioCiclos=read_ext_eeprom((cicloVisto*320)); 
0B9EA:  MOVLB  6
0B9EC:  CLRF   x37
0B9EE:  MOVFF  211,636
0B9F2:  MOVLW  01
0B9F4:  MOVWF  x39
0B9F6:  MOVLW  40
0B9F8:  MOVWF  x38
0B9FA:  MOVLB  0
0B9FC:  CALL   23A8
0BA00:  MOVFF  02,623
0BA04:  MOVFF  01,622
0BA08:  MOVFF  02,628
0BA0C:  MOVFF  01,627
0BA10:  CALL   24AA
0BA14:  MOVFF  01,28C
....................          if(usuarioCiclos>10) 
0BA18:  MOVLB  2
0BA1A:  MOVF   x8C,W
0BA1C:  SUBLW  0A
0BA1E:  BC    BA24
....................             usuarioCiclos=1; 
0BA20:  MOVLW  01
0BA22:  MOVWF  x8C
....................          for(i=0;i<7;i++){//Lee Valores para completar la Tabla 
0BA24:  MOVLB  1
0BA26:  CLRF   xD2
0BA28:  MOVF   xD2,W
0BA2A:  SUBLW  06
0BA2C:  BTFSS  FD8.0
0BA2E:  BRA    BF8A
....................             horaCiclos[i]=read_ext_eeprom((cicloVisto*320)+11+((cicloVisualizado+i)*9)); 
0BA30:  CLRF   03
0BA32:  MOVF   xD2,W
0BA34:  ADDLW  74
0BA36:  MOVWF  01
0BA38:  MOVLW  02
0BA3A:  ADDWFC 03,F
0BA3C:  MOVFF  01,622
0BA40:  MOVLB  6
0BA42:  MOVFF  03,623
0BA46:  CLRF   x37
0BA48:  MOVFF  211,636
0BA4C:  MOVLW  01
0BA4E:  MOVWF  x39
0BA50:  MOVLW  40
0BA52:  MOVWF  x38
0BA54:  MOVLB  0
0BA56:  CALL   23A8
0BA5A:  MOVFF  02,625
0BA5E:  MOVFF  01,624
0BA62:  MOVLW  0B
0BA64:  MOVLB  6
0BA66:  ADDWF  x24,F
0BA68:  MOVLW  00
0BA6A:  ADDWFC x25,F
0BA6C:  MOVLB  1
0BA6E:  MOVF   xD2,W
0BA70:  MOVLB  2
0BA72:  ADDWF  x10,W
0BA74:  MULLW  09
0BA76:  MOVF   FF3,W
0BA78:  MOVLB  6
0BA7A:  ADDWF  x24,F
0BA7C:  MOVLW  00
0BA7E:  ADDWFC x25,F
0BA80:  MOVFF  625,628
0BA84:  MOVFF  624,627
0BA88:  MOVLB  0
0BA8A:  CALL   24AA
0BA8E:  MOVFF  623,FEA
0BA92:  MOVFF  622,FE9
0BA96:  MOVFF  01,FEF
....................             if(horaCiclos[i]>24) 
0BA9A:  CLRF   03
0BA9C:  MOVLB  1
0BA9E:  MOVF   xD2,W
0BAA0:  ADDLW  74
0BAA2:  MOVWF  FE9
0BAA4:  MOVLW  02
0BAA6:  ADDWFC 03,W
0BAA8:  MOVWF  FEA
0BAAA:  MOVF   FEF,W
0BAAC:  SUBLW  18
0BAAE:  BC    BAC0
....................                horaCiclos[i]=0; 
0BAB0:  CLRF   03
0BAB2:  MOVF   xD2,W
0BAB4:  ADDLW  74
0BAB6:  MOVWF  FE9
0BAB8:  MOVLW  02
0BABA:  ADDWFC 03,W
0BABC:  MOVWF  FEA
0BABE:  CLRF   FEF
....................             minutoCiclos[i]=read_ext_eeprom((cicloVisto*320)+12+((cicloVisualizado+i)*9)); 
0BAC0:  CLRF   03
0BAC2:  MOVF   xD2,W
0BAC4:  ADDLW  7B
0BAC6:  MOVWF  01
0BAC8:  MOVLW  02
0BACA:  ADDWFC 03,F
0BACC:  MOVFF  01,622
0BAD0:  MOVLB  6
0BAD2:  MOVFF  03,623
0BAD6:  CLRF   x37
0BAD8:  MOVFF  211,636
0BADC:  MOVLW  01
0BADE:  MOVWF  x39
0BAE0:  MOVLW  40
0BAE2:  MOVWF  x38
0BAE4:  MOVLB  0
0BAE6:  CALL   23A8
0BAEA:  MOVFF  02,625
0BAEE:  MOVFF  01,624
0BAF2:  MOVLW  0C
0BAF4:  MOVLB  6
0BAF6:  ADDWF  x24,F
0BAF8:  MOVLW  00
0BAFA:  ADDWFC x25,F
0BAFC:  MOVLB  1
0BAFE:  MOVF   xD2,W
0BB00:  MOVLB  2
0BB02:  ADDWF  x10,W
0BB04:  MULLW  09
0BB06:  MOVF   FF3,W
0BB08:  MOVLB  6
0BB0A:  ADDWF  x24,F
0BB0C:  MOVLW  00
0BB0E:  ADDWFC x25,F
0BB10:  MOVFF  625,628
0BB14:  MOVFF  624,627
0BB18:  MOVLB  0
0BB1A:  CALL   24AA
0BB1E:  MOVFF  623,FEA
0BB22:  MOVFF  622,FE9
0BB26:  MOVFF  01,FEF
....................             if(minutoCiclos[i]>59) 
0BB2A:  CLRF   03
0BB2C:  MOVLB  1
0BB2E:  MOVF   xD2,W
0BB30:  ADDLW  7B
0BB32:  MOVWF  FE9
0BB34:  MOVLW  02
0BB36:  ADDWFC 03,W
0BB38:  MOVWF  FEA
0BB3A:  MOVF   FEF,W
0BB3C:  SUBLW  3B
0BB3E:  BC    BB50
....................                minutoCiclos[i]=0; 
0BB40:  CLRF   03
0BB42:  MOVF   xD2,W
0BB44:  ADDLW  7B
0BB46:  MOVWF  FE9
0BB48:  MOVLW  02
0BB4A:  ADDWFC 03,W
0BB4C:  MOVWF  FEA
0BB4E:  CLRF   FEF
....................             TCiclos[i]=read_ext_eeprom((cicloVisto*320)+5+((cicloVisualizado+i)*9))+inttofloat(read_ext_eeprom((cicloVisto*320)+6+((cicloVisualizado+i)*9))); 
0BB50:  MOVF   xD2,W
0BB52:  MULLW  04
0BB54:  MOVF   FF3,W
0BB56:  CLRF   03
0BB58:  ADDLW  3C
0BB5A:  MOVWF  01
0BB5C:  MOVLW  02
0BB5E:  ADDWFC 03,F
0BB60:  MOVFF  01,622
0BB64:  MOVLB  6
0BB66:  MOVFF  03,623
0BB6A:  CLRF   x37
0BB6C:  MOVFF  211,636
0BB70:  MOVLW  01
0BB72:  MOVWF  x39
0BB74:  MOVLW  40
0BB76:  MOVWF  x38
0BB78:  MOVLB  0
0BB7A:  CALL   23A8
0BB7E:  MOVFF  02,625
0BB82:  MOVFF  01,624
0BB86:  MOVLW  05
0BB88:  MOVLB  6
0BB8A:  ADDWF  x24,F
0BB8C:  MOVLW  00
0BB8E:  ADDWFC x25,F
0BB90:  MOVLB  1
0BB92:  MOVF   xD2,W
0BB94:  MOVLB  2
0BB96:  ADDWF  x10,W
0BB98:  MULLW  09
0BB9A:  MOVF   FF3,W
0BB9C:  MOVLB  6
0BB9E:  ADDWF  x24,F
0BBA0:  MOVLW  00
0BBA2:  ADDWFC x25,F
0BBA4:  MOVFF  625,628
0BBA8:  MOVFF  624,627
0BBAC:  MOVLB  0
0BBAE:  CALL   24AA
0BBB2:  MOVFF  01,624
0BBB6:  MOVLB  6
0BBB8:  CLRF   x37
0BBBA:  MOVFF  211,636
0BBBE:  MOVLW  01
0BBC0:  MOVWF  x39
0BBC2:  MOVLW  40
0BBC4:  MOVWF  x38
0BBC6:  MOVLB  0
0BBC8:  CALL   23A8
0BBCC:  MOVFF  02,626
0BBD0:  MOVFF  01,625
0BBD4:  MOVLW  06
0BBD6:  MOVLB  6
0BBD8:  ADDWF  x25,F
0BBDA:  MOVLW  00
0BBDC:  ADDWFC x26,F
0BBDE:  MOVLB  1
0BBE0:  MOVF   xD2,W
0BBE2:  MOVLB  2
0BBE4:  ADDWF  x10,W
0BBE6:  MULLW  09
0BBE8:  MOVF   FF3,W
0BBEA:  MOVLB  6
0BBEC:  ADDWF  x25,F
0BBEE:  MOVLW  00
0BBF0:  ADDWFC x26,F
0BBF2:  MOVFF  626,628
0BBF6:  MOVFF  625,627
0BBFA:  MOVLB  0
0BBFC:  CALL   24AA
0BC00:  MOVFF  01,625
0BC04:  MOVFF  01,626
0BC08:  CALL   2552
0BC0C:  MOVFF  00,625
0BC10:  MOVFF  01,626
0BC14:  MOVFF  02,627
0BC18:  MOVFF  03,628
0BC1C:  MOVLB  6
0BC1E:  CLRF   x38
0BC20:  MOVFF  624,637
0BC24:  MOVLB  0
0BC26:  CALL   1F00
0BC2A:  MOVFF  FEA,62A
0BC2E:  MOVFF  FE9,629
0BC32:  BCF    FD8.1
0BC34:  MOVFF  03,63D
0BC38:  MOVFF  02,63C
0BC3C:  MOVFF  01,63B
0BC40:  MOVFF  00,63A
0BC44:  MOVFF  628,641
0BC48:  MOVFF  627,640
0BC4C:  MOVFF  626,63F
0BC50:  MOVFF  625,63E
0BC54:  CALL   20BC
0BC58:  MOVFF  62A,FEA
0BC5C:  MOVFF  629,FE9
0BC60:  MOVFF  623,FEA
0BC64:  MOVFF  622,FE9
0BC68:  MOVFF  00,FEF
0BC6C:  MOVFF  01,FEC
0BC70:  MOVFF  02,FEC
0BC74:  MOVFF  03,FEC
....................             if(TCiclos[i]>150) 
0BC78:  MOVLB  1
0BC7A:  MOVF   xD2,W
0BC7C:  MULLW  04
0BC7E:  MOVF   FF3,W
0BC80:  CLRF   03
0BC82:  ADDLW  3C
0BC84:  MOVWF  FE9
0BC86:  MOVLW  02
0BC88:  ADDWFC 03,W
0BC8A:  MOVWF  FEA
0BC8C:  MOVFF  FEF,622
0BC90:  MOVFF  FEC,623
0BC94:  MOVFF  FEC,624
0BC98:  MOVFF  FEC,625
0BC9C:  MOVLB  6
0BC9E:  CLRF   x29
0BCA0:  CLRF   x28
0BCA2:  MOVLW  16
0BCA4:  MOVWF  x27
0BCA6:  MOVLW  86
0BCA8:  MOVWF  x26
0BCAA:  MOVFF  625,62D
0BCAE:  MOVFF  624,62C
0BCB2:  MOVFF  623,62B
0BCB6:  MOVFF  622,62A
0BCBA:  MOVLB  0
0BCBC:  CALL   2592
0BCC0:  BNC   BCE0
....................                TCiclos[i]=0; 
0BCC2:  MOVLB  1
0BCC4:  MOVF   xD2,W
0BCC6:  MULLW  04
0BCC8:  MOVF   FF3,W
0BCCA:  CLRF   03
0BCCC:  ADDLW  3C
0BCCE:  MOVWF  FE9
0BCD0:  MOVLW  02
0BCD2:  ADDWFC 03,W
0BCD4:  MOVWF  FEA
0BCD6:  CLRF   FEF
0BCD8:  CLRF   FEC
0BCDA:  CLRF   FEC
0BCDC:  CLRF   FEC
0BCDE:  MOVLB  0
....................             PcCiclos[i]=make16(read_ext_eeprom((cicloVisto*320)+7+((cicloVisualizado+i)*9)),read_ext_eeprom((cicloVisto*320)+8+((cicloVisualizado+i)*9))); 
0BCE0:  BCF    FD8.0
0BCE2:  MOVLB  1
0BCE4:  RLCF   xD2,W
0BCE6:  CLRF   03
0BCE8:  ADDLW  58
0BCEA:  MOVWF  01
0BCEC:  MOVLW  02
0BCEE:  ADDWFC 03,F
0BCF0:  MOVFF  01,622
0BCF4:  MOVLB  6
0BCF6:  MOVFF  03,623
0BCFA:  CLRF   x37
0BCFC:  MOVFF  211,636
0BD00:  MOVLW  01
0BD02:  MOVWF  x39
0BD04:  MOVLW  40
0BD06:  MOVWF  x38
0BD08:  MOVLB  0
0BD0A:  CALL   23A8
0BD0E:  MOVFF  02,625
0BD12:  MOVFF  01,624
0BD16:  MOVLW  07
0BD18:  MOVLB  6
0BD1A:  ADDWF  x24,F
0BD1C:  MOVLW  00
0BD1E:  ADDWFC x25,F
0BD20:  MOVLB  1
0BD22:  MOVF   xD2,W
0BD24:  MOVLB  2
0BD26:  ADDWF  x10,W
0BD28:  MULLW  09
0BD2A:  MOVF   FF3,W
0BD2C:  MOVLB  6
0BD2E:  ADDWF  x24,F
0BD30:  MOVLW  00
0BD32:  ADDWFC x25,F
0BD34:  MOVFF  625,628
0BD38:  MOVFF  624,627
0BD3C:  MOVLB  0
0BD3E:  CALL   24AA
0BD42:  MOVFF  01,624
0BD46:  MOVLB  6
0BD48:  CLRF   x37
0BD4A:  MOVFF  211,636
0BD4E:  MOVLW  01
0BD50:  MOVWF  x39
0BD52:  MOVLW  40
0BD54:  MOVWF  x38
0BD56:  MOVLB  0
0BD58:  CALL   23A8
0BD5C:  MOVFF  02,626
0BD60:  MOVFF  01,625
0BD64:  MOVLW  08
0BD66:  MOVLB  6
0BD68:  ADDWF  x25,F
0BD6A:  MOVLW  00
0BD6C:  ADDWFC x26,F
0BD6E:  MOVLB  1
0BD70:  MOVF   xD2,W
0BD72:  MOVLB  2
0BD74:  ADDWF  x10,W
0BD76:  MULLW  09
0BD78:  MOVF   FF3,W
0BD7A:  MOVLB  6
0BD7C:  ADDWF  x25,F
0BD7E:  MOVLW  00
0BD80:  ADDWFC x26,F
0BD82:  MOVFF  626,628
0BD86:  MOVFF  625,627
0BD8A:  MOVLB  0
0BD8C:  CALL   24AA
0BD90:  MOVFF  623,FEA
0BD94:  MOVFF  622,FE9
0BD98:  MOVFF  624,FEC
0BD9C:  MOVF   FED,F
0BD9E:  MOVFF  01,FEF
....................             if(PcCiclos[i]>400) 
0BDA2:  BCF    FD8.0
0BDA4:  MOVLB  1
0BDA6:  RLCF   xD2,W
0BDA8:  CLRF   03
0BDAA:  ADDLW  58
0BDAC:  MOVWF  FE9
0BDAE:  MOVLW  02
0BDB0:  ADDWFC 03,W
0BDB2:  MOVWF  FEA
0BDB4:  MOVFF  FEC,623
0BDB8:  MOVF   FED,F
0BDBA:  MOVFF  FEF,622
0BDBE:  MOVLB  6
0BDC0:  MOVF   x23,W
0BDC2:  SUBLW  00
0BDC4:  BC    BDEA
0BDC6:  XORLW  FF
0BDC8:  BNZ   BDD0
0BDCA:  MOVF   x22,W
0BDCC:  SUBLW  90
0BDCE:  BC    BDEA
....................                PcCiclos[i]=0; 
0BDD0:  BCF    FD8.0
0BDD2:  MOVLB  1
0BDD4:  RLCF   xD2,W
0BDD6:  CLRF   03
0BDD8:  ADDLW  58
0BDDA:  MOVWF  FE9
0BDDC:  MOVLW  02
0BDDE:  ADDWFC 03,W
0BDE0:  MOVWF  FEA
0BDE2:  CLRF   FEC
0BDE4:  MOVF   FED,F
0BDE6:  CLRF   FEF
0BDE8:  MOVLB  6
....................             PpcCiclos[i]=make16(read_ext_eeprom((cicloVisto*320)+9+((cicloVisualizado+i)*9)),read_ext_eeprom((cicloVisto*320)+10+((cicloVisualizado+i)*9))); 
0BDEA:  BCF    FD8.0
0BDEC:  MOVLB  1
0BDEE:  RLCF   xD2,W
0BDF0:  CLRF   03
0BDF2:  ADDLW  66
0BDF4:  MOVWF  01
0BDF6:  MOVLW  02
0BDF8:  ADDWFC 03,F
0BDFA:  MOVFF  01,622
0BDFE:  MOVLB  6
0BE00:  MOVFF  03,623
0BE04:  CLRF   x37
0BE06:  MOVFF  211,636
0BE0A:  MOVLW  01
0BE0C:  MOVWF  x39
0BE0E:  MOVLW  40
0BE10:  MOVWF  x38
0BE12:  MOVLB  0
0BE14:  CALL   23A8
0BE18:  MOVFF  02,625
0BE1C:  MOVFF  01,624
0BE20:  MOVLW  09
0BE22:  MOVLB  6
0BE24:  ADDWF  x24,F
0BE26:  MOVLW  00
0BE28:  ADDWFC x25,F
0BE2A:  MOVLB  1
0BE2C:  MOVF   xD2,W
0BE2E:  MOVLB  2
0BE30:  ADDWF  x10,W
0BE32:  MULLW  09
0BE34:  MOVF   FF3,W
0BE36:  MOVLB  6
0BE38:  ADDWF  x24,F
0BE3A:  MOVLW  00
0BE3C:  ADDWFC x25,F
0BE3E:  MOVFF  625,628
0BE42:  MOVFF  624,627
0BE46:  MOVLB  0
0BE48:  CALL   24AA
0BE4C:  MOVFF  01,624
0BE50:  MOVLB  6
0BE52:  CLRF   x37
0BE54:  MOVFF  211,636
0BE58:  MOVLW  01
0BE5A:  MOVWF  x39
0BE5C:  MOVLW  40
0BE5E:  MOVWF  x38
0BE60:  MOVLB  0
0BE62:  CALL   23A8
0BE66:  MOVFF  02,626
0BE6A:  MOVFF  01,625
0BE6E:  MOVLW  0A
0BE70:  MOVLB  6
0BE72:  ADDWF  x25,F
0BE74:  MOVLW  00
0BE76:  ADDWFC x26,F
0BE78:  MOVLB  1
0BE7A:  MOVF   xD2,W
0BE7C:  MOVLB  2
0BE7E:  ADDWF  x10,W
0BE80:  MULLW  09
0BE82:  MOVF   FF3,W
0BE84:  MOVLB  6
0BE86:  ADDWF  x25,F
0BE88:  MOVLW  00
0BE8A:  ADDWFC x26,F
0BE8C:  MOVFF  626,628
0BE90:  MOVFF  625,627
0BE94:  MOVLB  0
0BE96:  CALL   24AA
0BE9A:  MOVFF  623,FEA
0BE9E:  MOVFF  622,FE9
0BEA2:  MOVFF  624,FEC
0BEA6:  MOVF   FED,F
0BEA8:  MOVFF  01,FEF
....................             if(PpcCiclos[i]>400) 
0BEAC:  BCF    FD8.0
0BEAE:  MOVLB  1
0BEB0:  RLCF   xD2,W
0BEB2:  CLRF   03
0BEB4:  ADDLW  66
0BEB6:  MOVWF  FE9
0BEB8:  MOVLW  02
0BEBA:  ADDWFC 03,W
0BEBC:  MOVWF  FEA
0BEBE:  MOVFF  FEC,623
0BEC2:  MOVF   FED,F
0BEC4:  MOVFF  FEF,622
0BEC8:  MOVLB  6
0BECA:  MOVF   x23,W
0BECC:  SUBLW  00
0BECE:  BC    BEF4
0BED0:  XORLW  FF
0BED2:  BNZ   BEDA
0BED4:  MOVF   x22,W
0BED6:  SUBLW  90
0BED8:  BC    BEF4
....................                PpcCiclos[i]=0; 
0BEDA:  BCF    FD8.0
0BEDC:  MOVLB  1
0BEDE:  RLCF   xD2,W
0BEE0:  CLRF   03
0BEE2:  ADDLW  66
0BEE4:  MOVWF  FE9
0BEE6:  MOVLW  02
0BEE8:  ADDWFC 03,W
0BEEA:  MOVWF  FEA
0BEEC:  CLRF   FEC
0BEEE:  MOVF   FED,F
0BEF0:  CLRF   FEF
0BEF2:  MOVLB  6
....................             ACiclos[i]=read_ext_eeprom((cicloVisto*320)+13+((cicloVisualizado+i)*9)); 
0BEF4:  CLRF   03
0BEF6:  MOVLB  1
0BEF8:  MOVF   xD2,W
0BEFA:  ADDLW  82
0BEFC:  MOVWF  01
0BEFE:  MOVLW  02
0BF00:  ADDWFC 03,F
0BF02:  MOVFF  01,622
0BF06:  MOVLB  6
0BF08:  MOVFF  03,623
0BF0C:  CLRF   x37
0BF0E:  MOVFF  211,636
0BF12:  MOVLW  01
0BF14:  MOVWF  x39
0BF16:  MOVLW  40
0BF18:  MOVWF  x38
0BF1A:  MOVLB  0
0BF1C:  CALL   23A8
0BF20:  MOVFF  02,625
0BF24:  MOVFF  01,624
0BF28:  MOVLW  0D
0BF2A:  MOVLB  6
0BF2C:  ADDWF  x24,F
0BF2E:  MOVLW  00
0BF30:  ADDWFC x25,F
0BF32:  MOVLB  1
0BF34:  MOVF   xD2,W
0BF36:  MOVLB  2
0BF38:  ADDWF  x10,W
0BF3A:  MULLW  09
0BF3C:  MOVF   FF3,W
0BF3E:  MOVLB  6
0BF40:  ADDWF  x24,F
0BF42:  MOVLW  00
0BF44:  ADDWFC x25,F
0BF46:  MOVFF  625,628
0BF4A:  MOVFF  624,627
0BF4E:  MOVLB  0
0BF50:  CALL   24AA
0BF54:  MOVFF  623,FEA
0BF58:  MOVFF  622,FE9
0BF5C:  MOVFF  01,FEF
....................             if(ACiclos[i]>20) 
0BF60:  CLRF   03
0BF62:  MOVLB  1
0BF64:  MOVF   xD2,W
0BF66:  ADDLW  82
0BF68:  MOVWF  FE9
0BF6A:  MOVLW  02
0BF6C:  ADDWFC 03,W
0BF6E:  MOVWF  FEA
0BF70:  MOVF   FEF,W
0BF72:  SUBLW  14
0BF74:  BC    BF86
....................                ACiclos[i]=0; 
0BF76:  CLRF   03
0BF78:  MOVF   xD2,W
0BF7A:  ADDLW  82
0BF7C:  MOVWF  FE9
0BF7E:  MOVLW  02
0BF80:  ADDWFC 03,W
0BF82:  MOVWF  FEA
0BF84:  CLRF   FEF
....................          } 
0BF86:  INCF   xD2,F
0BF88:  BRA    BA28
0BF8A:  MOVLB  0
....................       } 
....................        
....................       //Imprime Valores Estaticos 
....................       printf("fecha.txt=\"%02u/%02u/%02u\"",diaCiclos,mesCiclos,yearCiclos); 
0BF8C:  MOVLW  48
0BF8E:  MOVWF  FF6
0BF90:  MOVLW  13
0BF92:  MOVWF  FF7
0BF94:  MOVLW  00
0BF96:  MOVWF  FF8
0BF98:  MOVLW  0B
0BF9A:  MOVLB  6
0BF9C:  MOVWF  x27
0BF9E:  MOVLB  0
0BFA0:  CALL   543C
0BFA4:  MOVFF  289,627
0BFA8:  MOVLW  01
0BFAA:  MOVLB  6
0BFAC:  MOVWF  x28
0BFAE:  MOVLB  0
0BFB0:  CALL   54C0
0BFB4:  MOVLW  2F
0BFB6:  BTFSS  F9E.4
0BFB8:  BRA    BFB6
0BFBA:  MOVWF  FAD
0BFBC:  MOVFF  28A,627
0BFC0:  MOVLW  01
0BFC2:  MOVLB  6
0BFC4:  MOVWF  x28
0BFC6:  MOVLB  0
0BFC8:  CALL   54C0
0BFCC:  MOVLW  2F
0BFCE:  BTFSS  F9E.4
0BFD0:  BRA    BFCE
0BFD2:  MOVWF  FAD
0BFD4:  MOVFF  28B,627
0BFD8:  MOVLW  01
0BFDA:  MOVLB  6
0BFDC:  MOVWF  x28
0BFDE:  MOVLB  0
0BFE0:  CALL   54C0
0BFE4:  MOVLW  22
0BFE6:  BTFSS  F9E.4
0BFE8:  BRA    BFE6
0BFEA:  MOVWF  FAD
....................       SendDataDisplay(); 
0BFEC:  CALL   3EE4
....................        
....................       printf("ciclo.txt=\"%02u\"",cicloCiclos); 
0BFF0:  MOVLW  64
0BFF2:  MOVWF  FF6
0BFF4:  MOVLW  13
0BFF6:  MOVWF  FF7
0BFF8:  MOVLW  00
0BFFA:  MOVWF  FF8
0BFFC:  MOVLW  0B
0BFFE:  MOVLB  6
0C000:  MOVWF  x27
0C002:  MOVLB  0
0C004:  CALL   543C
0C008:  MOVFF  28D,627
0C00C:  MOVLW  01
0C00E:  MOVLB  6
0C010:  MOVWF  x28
0C012:  MOVLB  0
0C014:  CALL   54C0
0C018:  MOVLW  22
0C01A:  BTFSS  F9E.4
0C01C:  BRA    C01A
0C01E:  MOVWF  FAD
....................       SendDataDisplay(); 
0C020:  CALL   3EE4
....................        
....................       printf("t0.txt=\"Ciclo %02u\"",cicloVisto+1); 
0C024:  MOVLW  01
0C026:  MOVLB  2
0C028:  ADDWF  x11,W
0C02A:  MOVLB  6
0C02C:  MOVWF  x22
0C02E:  MOVLW  76
0C030:  MOVWF  FF6
0C032:  MOVLW  13
0C034:  MOVWF  FF7
0C036:  MOVLW  00
0C038:  MOVWF  FF8
0C03A:  MOVLW  0E
0C03C:  MOVWF  x27
0C03E:  MOVLB  0
0C040:  CALL   543C
0C044:  MOVFF  622,627
0C048:  MOVLW  01
0C04A:  MOVLB  6
0C04C:  MOVWF  x28
0C04E:  MOVLB  0
0C050:  CALL   54C0
0C054:  MOVLW  22
0C056:  BTFSS  F9E.4
0C058:  BRA    C056
0C05A:  MOVWF  FAD
....................       SendDataDisplay(); 
0C05C:  CALL   3EE4
....................        
....................       if(usuarioCiclos==0){ 
0C060:  MOVLB  2
0C062:  MOVF   x8C,F
0C064:  BNZ   C080
....................          printf("usuario.txt=\"Admin\""); 
0C066:  MOVLW  8A
0C068:  MOVWF  FF6
0C06A:  MOVLW  13
0C06C:  MOVWF  FF7
0C06E:  MOVLW  00
0C070:  MOVWF  FF8
0C072:  MOVLB  0
0C074:  CALL   3EB2
....................          SendDataDisplay(); 
0C078:  CALL   3EE4
....................       }else if(usuarioCiclos>0 && usuarioCiclos<9){ 
0C07C:  BRA    C0DE
0C07E:  MOVLB  2
0C080:  MOVF   x8C,F
0C082:  BZ    C0C2
0C084:  MOVF   x8C,W
0C086:  SUBLW  08
0C088:  BNC   C0C2
....................          printf("usuario.txt=\"Operador%u\"",usuarioCiclos); 
0C08A:  MOVLW  9E
0C08C:  MOVWF  FF6
0C08E:  MOVLW  13
0C090:  MOVWF  FF7
0C092:  MOVLW  00
0C094:  MOVWF  FF8
0C096:  MOVLW  15
0C098:  MOVLB  6
0C09A:  MOVWF  x27
0C09C:  MOVLB  0
0C09E:  CALL   543C
0C0A2:  MOVFF  28C,627
0C0A6:  MOVLW  1B
0C0A8:  MOVLB  6
0C0AA:  MOVWF  x28
0C0AC:  MOVLB  0
0C0AE:  CALL   54C0
0C0B2:  MOVLW  22
0C0B4:  BTFSS  F9E.4
0C0B6:  BRA    C0B4
0C0B8:  MOVWF  FAD
....................          SendDataDisplay(); 
0C0BA:  CALL   3EE4
....................       }else if(usuarioCiclos==9){ 
0C0BE:  BRA    C0DE
0C0C0:  MOVLB  2
0C0C2:  MOVF   x8C,W
0C0C4:  SUBLW  09
0C0C6:  BNZ   C0DE
....................          printf("usuario.txt=\"Tecnico\""); 
0C0C8:  MOVLW  B8
0C0CA:  MOVWF  FF6
0C0CC:  MOVLW  13
0C0CE:  MOVWF  FF7
0C0D0:  MOVLW  00
0C0D2:  MOVWF  FF8
0C0D4:  MOVLB  0
0C0D6:  CALL   3EB2
....................          SendDataDisplay(); 
0C0DA:  CALL   3EE4
....................       } 
....................        
....................       //Imprime Valores Dinamicos 
....................       for(i=0;i<7;i++){ 
0C0DE:  MOVLB  1
0C0E0:  CLRF   xD2
0C0E2:  MOVF   xD2,W
0C0E4:  SUBLW  06
0C0E6:  BTFSS  FD8.0
0C0E8:  BRA    C382
....................          printf("hora%u.txt=\"%02u.  %02u:%02u\"",i+1,cicloVisualizado+i+1,horaCiclos[i],minutoCiclos[i]); 
0C0EA:  MOVLW  01
0C0EC:  ADDWF  xD2,W
0C0EE:  MOVLB  6
0C0F0:  MOVWF  x22
0C0F2:  MOVLB  1
0C0F4:  MOVF   xD2,W
0C0F6:  MOVLB  2
0C0F8:  ADDWF  x10,W
0C0FA:  ADDLW  01
0C0FC:  MOVLB  6
0C0FE:  MOVWF  x23
0C100:  CLRF   03
0C102:  MOVLB  1
0C104:  MOVF   xD2,W
0C106:  ADDLW  74
0C108:  MOVWF  FE9
0C10A:  MOVLW  02
0C10C:  ADDWFC 03,W
0C10E:  MOVWF  FEA
0C110:  MOVFF  FEF,624
0C114:  CLRF   03
0C116:  MOVF   xD2,W
0C118:  ADDLW  7B
0C11A:  MOVWF  FE9
0C11C:  MOVLW  02
0C11E:  ADDWFC 03,W
0C120:  MOVWF  FEA
0C122:  MOVFF  FEF,625
0C126:  MOVLW  CE
0C128:  MOVWF  FF6
0C12A:  MOVLW  13
0C12C:  MOVWF  FF7
0C12E:  MOVLW  00
0C130:  MOVWF  FF8
0C132:  MOVLW  04
0C134:  MOVLB  6
0C136:  MOVWF  x27
0C138:  MOVLB  0
0C13A:  CALL   543C
0C13E:  MOVFF  622,627
0C142:  MOVLW  1B
0C144:  MOVLB  6
0C146:  MOVWF  x28
0C148:  MOVLB  0
0C14A:  CALL   54C0
0C14E:  MOVLW  D4
0C150:  MOVWF  FF6
0C152:  MOVLW  13
0C154:  MOVWF  FF7
0C156:  MOVLW  00
0C158:  MOVWF  FF8
0C15A:  MOVLW  06
0C15C:  MOVLB  6
0C15E:  MOVWF  x27
0C160:  MOVLB  0
0C162:  CALL   543C
0C166:  MOVFF  623,627
0C16A:  MOVLW  01
0C16C:  MOVLB  6
0C16E:  MOVWF  x28
0C170:  MOVLB  0
0C172:  CALL   54C0
0C176:  MOVLW  2E
0C178:  BTFSS  F9E.4
0C17A:  BRA    C178
0C17C:  MOVWF  FAD
0C17E:  MOVLW  20
0C180:  BTFSS  F9E.4
0C182:  BRA    C180
0C184:  MOVWF  FAD
0C186:  MOVLW  20
0C188:  BTFSS  F9E.4
0C18A:  BRA    C188
0C18C:  MOVWF  FAD
0C18E:  MOVFF  624,627
0C192:  MOVLW  01
0C194:  MOVLB  6
0C196:  MOVWF  x28
0C198:  MOVLB  0
0C19A:  CALL   54C0
0C19E:  MOVLW  3A
0C1A0:  BTFSS  F9E.4
0C1A2:  BRA    C1A0
0C1A4:  MOVWF  FAD
0C1A6:  MOVFF  625,627
0C1AA:  MOVLW  01
0C1AC:  MOVLB  6
0C1AE:  MOVWF  x28
0C1B0:  MOVLB  0
0C1B2:  CALL   54C0
0C1B6:  MOVLW  22
0C1B8:  BTFSS  F9E.4
0C1BA:  BRA    C1B8
0C1BC:  MOVWF  FAD
....................          SendDataDisplay(); 
0C1BE:  CALL   3EE4
....................          printf("T%u.txt=\"%3.1fC\"",i+1,TCiclos[i]); 
0C1C2:  MOVLW  01
0C1C4:  MOVLB  1
0C1C6:  ADDWF  xD2,W
0C1C8:  MOVLB  6
0C1CA:  MOVWF  x22
0C1CC:  MOVLB  1
0C1CE:  MOVF   xD2,W
0C1D0:  MULLW  04
0C1D2:  MOVF   FF3,W
0C1D4:  CLRF   03
0C1D6:  ADDLW  3C
0C1D8:  MOVWF  FE9
0C1DA:  MOVLW  02
0C1DC:  ADDWFC 03,W
0C1DE:  MOVWF  FEA
0C1E0:  MOVFF  FEF,623
0C1E4:  MOVFF  FEC,624
0C1E8:  MOVFF  FEC,625
0C1EC:  MOVFF  FEC,626
0C1F0:  MOVLW  54
0C1F2:  BTFSS  F9E.4
0C1F4:  BRA    C1F2
0C1F6:  MOVWF  FAD
0C1F8:  MOVFF  622,627
0C1FC:  MOVLW  1B
0C1FE:  MOVLB  6
0C200:  MOVWF  x28
0C202:  MOVLB  0
0C204:  CALL   54C0
0C208:  MOVLW  EF
0C20A:  MOVWF  FF6
0C20C:  MOVLW  13
0C20E:  MOVWF  FF7
0C210:  MOVLW  00
0C212:  MOVWF  FF8
0C214:  MOVLW  06
0C216:  MOVLB  6
0C218:  MOVWF  x27
0C21A:  MOVLB  0
0C21C:  CALL   543C
0C220:  MOVLW  02
0C222:  MOVWF  FE9
0C224:  MOVFF  626,62A
0C228:  MOVFF  625,629
0C22C:  MOVFF  624,628
0C230:  MOVFF  623,627
0C234:  MOVLW  01
0C236:  MOVLB  6
0C238:  MOVWF  x2B
0C23A:  MOVLB  0
0C23C:  CALL   570A
0C240:  MOVLW  B0
0C242:  BTFSS  F9E.4
0C244:  BRA    C242
0C246:  MOVWF  FAD
0C248:  MOVLW  43
0C24A:  BTFSS  F9E.4
0C24C:  BRA    C24A
0C24E:  MOVWF  FAD
0C250:  MOVLW  22
0C252:  BTFSS  F9E.4
0C254:  BRA    C252
0C256:  MOVWF  FAD
....................          SendDataDisplay(); 
0C258:  CALL   3EE4
....................          printf("Pc%u.txt=\"%03LukPa\"",i+1,PcCiclos[i]); 
0C25C:  MOVLW  01
0C25E:  MOVLB  1
0C260:  ADDWF  xD2,W
0C262:  MOVLB  6
0C264:  MOVWF  x22
0C266:  BCF    FD8.0
0C268:  MOVLB  1
0C26A:  RLCF   xD2,W
0C26C:  CLRF   03
0C26E:  ADDLW  58
0C270:  MOVWF  FE9
0C272:  MOVLW  02
0C274:  ADDWFC 03,W
0C276:  MOVWF  FEA
0C278:  MOVFF  FEC,624
0C27C:  MOVF   FED,F
0C27E:  MOVFF  FEF,623
0C282:  MOVLW  50
0C284:  BTFSS  F9E.4
0C286:  BRA    C284
0C288:  MOVWF  FAD
0C28A:  MOVLW  63
0C28C:  BTFSS  F9E.4
0C28E:  BRA    C28C
0C290:  MOVWF  FAD
0C292:  MOVFF  622,627
0C296:  MOVLW  1B
0C298:  MOVLB  6
0C29A:  MOVWF  x28
0C29C:  MOVLB  0
0C29E:  CALL   54C0
0C2A2:  MOVLW  02
0C2A4:  MOVWF  FF6
0C2A6:  MOVLW  14
0C2A8:  MOVWF  FF7
0C2AA:  MOVLW  00
0C2AC:  MOVWF  FF8
0C2AE:  MOVLW  06
0C2B0:  MOVLB  6
0C2B2:  MOVWF  x27
0C2B4:  MOVLB  0
0C2B6:  CALL   543C
0C2BA:  MOVLW  0A
0C2BC:  MOVWF  FE9
0C2BE:  MOVFF  624,627
0C2C2:  MOVFF  623,626
0C2C6:  CALL   559C
0C2CA:  MOVLW  0D
0C2CC:  MOVWF  FF6
0C2CE:  MOVLW  14
0C2D0:  MOVWF  FF7
0C2D2:  MOVLW  00
0C2D4:  MOVWF  FF8
0C2D6:  MOVLW  04
0C2D8:  MOVLB  6
0C2DA:  MOVWF  x27
0C2DC:  MOVLB  0
0C2DE:  CALL   543C
....................          SendDataDisplay(); 
0C2E2:  CALL   3EE4
....................          printf("Ppc%u.txt=\"%03LukPa\"",i+1,PpcCiclos[i]); 
0C2E6:  MOVLW  01
0C2E8:  MOVLB  1
0C2EA:  ADDWF  xD2,W
0C2EC:  MOVLB  6
0C2EE:  MOVWF  x22
0C2F0:  BCF    FD8.0
0C2F2:  MOVLB  1
0C2F4:  RLCF   xD2,W
0C2F6:  CLRF   03
0C2F8:  ADDLW  66
0C2FA:  MOVWF  FE9
0C2FC:  MOVLW  02
0C2FE:  ADDWFC 03,W
0C300:  MOVWF  FEA
0C302:  MOVFF  FEC,624
0C306:  MOVF   FED,F
0C308:  MOVFF  FEF,623
0C30C:  MOVLW  50
0C30E:  BTFSS  F9E.4
0C310:  BRA    C30E
0C312:  MOVWF  FAD
0C314:  MOVLW  70
0C316:  BTFSS  F9E.4
0C318:  BRA    C316
0C31A:  MOVWF  FAD
0C31C:  MOVLW  63
0C31E:  BTFSS  F9E.4
0C320:  BRA    C31E
0C322:  MOVWF  FAD
0C324:  MOVFF  622,627
0C328:  MOVLW  1B
0C32A:  MOVLB  6
0C32C:  MOVWF  x28
0C32E:  MOVLB  0
0C330:  CALL   54C0
0C334:  MOVLW  17
0C336:  MOVWF  FF6
0C338:  MOVLW  14
0C33A:  MOVWF  FF7
0C33C:  MOVLW  00
0C33E:  MOVWF  FF8
0C340:  MOVLW  06
0C342:  MOVLB  6
0C344:  MOVWF  x27
0C346:  MOVLB  0
0C348:  CALL   543C
0C34C:  MOVLW  0A
0C34E:  MOVWF  FE9
0C350:  MOVFF  624,627
0C354:  MOVFF  623,626
0C358:  CALL   559C
0C35C:  MOVLW  22
0C35E:  MOVWF  FF6
0C360:  MOVLW  14
0C362:  MOVWF  FF7
0C364:  MOVLW  00
0C366:  MOVWF  FF8
0C368:  MOVLW  04
0C36A:  MOVLB  6
0C36C:  MOVWF  x27
0C36E:  MOVLB  0
0C370:  CALL   543C
....................          SendDataDisplay();          
0C374:  CALL   3EE4
....................          codificaAlarma(); 
0C378:  GOTO   5E74
....................       }   
0C37C:  MOVLB  1
0C37E:  INCF   xD2,F
0C380:  BRA    C0E2
....................    } 
.................... //_--------------------------------------------------------------------------------------------------------------------------------------------------------       
....................  
.................... //_--------------------------------------------------------------------------------------------------------------------------------------------------------       
....................     if(Menu==13){//Menu de Nivel de Desfogue 
0C382:  MOVF   xCF,W
0C384:  SUBLW  0D
0C386:  BTFSS  FD8.2
0C388:  BRA    C55C
....................       printf("fecha.txt=\"Fecha:%02u/%02u/20%02u    Hora: %02u:%02u:%02u\"",Dia,Mes,Year,Hora,Minuto,Segundo); 
0C38A:  MOVLW  28
0C38C:  MOVWF  FF6
0C38E:  MOVLW  14
0C390:  MOVWF  FF7
0C392:  MOVLW  00
0C394:  MOVWF  FF8
0C396:  MOVLW  11
0C398:  MOVLB  6
0C39A:  MOVWF  x27
0C39C:  MOVLB  0
0C39E:  CALL   543C
0C3A2:  MOVFF  20B,627
0C3A6:  MOVLW  01
0C3A8:  MOVLB  6
0C3AA:  MOVWF  x28
0C3AC:  MOVLB  0
0C3AE:  CALL   54C0
0C3B2:  MOVLW  2F
0C3B4:  BTFSS  F9E.4
0C3B6:  BRA    C3B4
0C3B8:  MOVWF  FAD
0C3BA:  MOVFF  20A,627
0C3BE:  MOVLW  01
0C3C0:  MOVLB  6
0C3C2:  MOVWF  x28
0C3C4:  MOVLB  0
0C3C6:  CALL   54C0
0C3CA:  MOVLW  2F
0C3CC:  BTFSS  F9E.4
0C3CE:  BRA    C3CC
0C3D0:  MOVWF  FAD
0C3D2:  MOVLW  32
0C3D4:  BTFSS  F9E.4
0C3D6:  BRA    C3D4
0C3D8:  MOVWF  FAD
0C3DA:  MOVLW  30
0C3DC:  BTFSS  F9E.4
0C3DE:  BRA    C3DC
0C3E0:  MOVWF  FAD
0C3E2:  MOVFF  209,627
0C3E6:  MOVLW  01
0C3E8:  MOVLB  6
0C3EA:  MOVWF  x28
0C3EC:  MOVLB  0
0C3EE:  CALL   54C0
0C3F2:  MOVLW  49
0C3F4:  MOVWF  FF6
0C3F6:  MOVLW  14
0C3F8:  MOVWF  FF7
0C3FA:  MOVLW  00
0C3FC:  MOVWF  FF8
0C3FE:  MOVLW  0A
0C400:  MOVLB  6
0C402:  MOVWF  x27
0C404:  MOVLB  0
0C406:  CALL   543C
0C40A:  MOVFF  20C,627
0C40E:  MOVLW  01
0C410:  MOVLB  6
0C412:  MOVWF  x28
0C414:  MOVLB  0
0C416:  CALL   54C0
0C41A:  MOVLW  3A
0C41C:  BTFSS  F9E.4
0C41E:  BRA    C41C
0C420:  MOVWF  FAD
0C422:  MOVFF  20D,627
0C426:  MOVLW  01
0C428:  MOVLB  6
0C42A:  MOVWF  x28
0C42C:  MOVLB  0
0C42E:  CALL   54C0
0C432:  MOVLW  3A
0C434:  BTFSS  F9E.4
0C436:  BRA    C434
0C438:  MOVWF  FAD
0C43A:  MOVFF  20E,627
0C43E:  MOVLW  01
0C440:  MOVLB  6
0C442:  MOVWF  x28
0C444:  MOVLB  0
0C446:  CALL   54C0
0C44A:  MOVLW  22
0C44C:  BTFSS  F9E.4
0C44E:  BRA    C44C
0C450:  MOVWF  FAD
....................       SendDataDisplay(); 
0C452:  CALL   3EE4
....................          if(NivelDes<1) 
0C456:  MOVLB  1
0C458:  MOVF   xFE,F
0C45A:  BNZ   C460
....................             NivelDes=6; 
0C45C:  MOVLW  06
0C45E:  MOVWF  xFE
....................          if(NivelDes>6) 
0C460:  MOVF   xFE,W
0C462:  SUBLW  06
0C464:  BC    C46A
....................             NivelDes=1; 
0C466:  MOVLW  01
0C468:  MOVWF  xFE
....................           
....................          if(RX_Buffer[4]==0x11){//Selecciono Regresar 
0C46A:  MOVF   34,W
0C46C:  SUBLW  11
0C46E:  BNZ   C50E
....................             Segundos=OFF; 
0C470:  MOVLB  0
0C472:  BCF    x87.3
....................             Minutos=OFF;             
0C474:  BCF    x87.2
....................             tiempo_secado=0; 
0C476:  MOVLB  1
0C478:  CLRF   xDD
....................             printf("page CicloPersona"); 
0C47A:  MOVLW  64
0C47C:  MOVWF  FF6
0C47E:  MOVLW  14
0C480:  MOVWF  FF7
0C482:  MOVLW  00
0C484:  MOVWF  FF8
0C486:  MOVLB  0
0C488:  CALL   3EB2
....................             SendDataDisplay();   
0C48C:  CALL   3EE4
....................             if(!GuardaEEPROM){     
0C490:  BTFSC  x87.4
0C492:  BRA    C50C
....................                CiclosPersonalizados[CicloLibre-1].NivelDesfogue=NivelDes; 
0C494:  MOVLW  01
0C496:  MOVLB  2
0C498:  SUBWF  x1F,W
0C49A:  MULLW  08
0C49C:  MOVF   FF3,W
0C49E:  MOVLB  6
0C4A0:  CLRF   x23
0C4A2:  MOVWF  x22
0C4A4:  MOVLW  07
0C4A6:  ADDWF  x22,W
0C4A8:  MOVWF  01
0C4AA:  MOVLW  00
0C4AC:  ADDWFC x23,W
0C4AE:  MOVWF  03
0C4B0:  MOVF   01,W
0C4B2:  ADDLW  5A
0C4B4:  MOVWF  FE9
0C4B6:  MOVLW  05
0C4B8:  ADDWFC 03,W
0C4BA:  MOVWF  FEA
0C4BC:  MOVFF  1FE,FEF
....................                write_eeprom(107+((CicloLibre-1)*8),NivelDes); 
0C4C0:  MOVLW  01
0C4C2:  MOVLB  2
0C4C4:  SUBWF  x1F,W
0C4C6:  MULLW  08
0C4C8:  MOVF   FF3,W
0C4CA:  ADDLW  6B
0C4CC:  MOVLB  6
0C4CE:  MOVWF  x22
0C4D0:  CLRF   FAA
0C4D2:  MOVFF  622,FA9
0C4D6:  MOVFF  1FE,FA8
0C4DA:  BCF    FA6.6
0C4DC:  BCF    FA6.7
0C4DE:  BSF    FA6.2
0C4E0:  MOVF   FF2,W
0C4E2:  MOVWF  00
0C4E4:  BCF    FF2.6
0C4E6:  BCF    FF2.7
0C4E8:  MOVLB  F
0C4EA:  MOVLW  55
0C4EC:  MOVWF  FA7
0C4EE:  MOVLW  AA
0C4F0:  MOVWF  FA7
0C4F2:  BSF    FA6.1
0C4F4:  BTFSC  FA6.1
0C4F6:  BRA    C4F4
0C4F8:  BCF    FA6.2
0C4FA:  MOVF   00,W
0C4FC:  IORWF  FF2,F
....................                delay_ms(20);             
0C4FE:  MOVLW  14
0C500:  MOVLB  6
0C502:  MOVWF  x37
0C504:  MOVLB  0
0C506:  CALL   1F36
....................                GuardaEEPROM=ON; 
0C50A:  BSF    x87.4
0C50C:  MOVLB  1
....................             } 
....................          } 
....................           
....................          if(RX_Buffer[4]==0x0d){//Tecla Arriba Oprimida 
0C50E:  MOVF   34,W
0C510:  SUBLW  0D
0C512:  BNZ   C51A
....................             NivelDes++; 
0C514:  INCF   xFE,F
....................             RX_Buffer[4]=0x00;             
0C516:  CLRF   34
....................             RX_Buffer2[4]=0x00;                        
0C518:  CLRF   3F
....................          } 
....................           
....................          if(RX_Buffer[4]==0x0c){//Tecla Abajo Oprimida 
0C51A:  MOVF   34,W
0C51C:  SUBLW  0C
0C51E:  BNZ   C526
....................             NivelDes--; 
0C520:  DECF   xFE,F
....................             RX_Buffer[4]=0x00; 
0C522:  CLRF   34
....................             RX_Buffer2[4]=0x00;                         
0C524:  CLRF   3F
....................          } 
....................           
....................       printf("tnivel.txt=\"%u\"",NivelDes); 
0C526:  MOVLW  76
0C528:  MOVWF  FF6
0C52A:  MOVLW  14
0C52C:  MOVWF  FF7
0C52E:  MOVLW  00
0C530:  MOVWF  FF8
0C532:  MOVLW  0C
0C534:  MOVLB  6
0C536:  MOVWF  x27
0C538:  MOVLB  0
0C53A:  CALL   543C
0C53E:  MOVFF  1FE,627
0C542:  MOVLW  1B
0C544:  MOVLB  6
0C546:  MOVWF  x28
0C548:  MOVLB  0
0C54A:  CALL   54C0
0C54E:  MOVLW  22
0C550:  BTFSS  F9E.4
0C552:  BRA    C550
0C554:  MOVWF  FAD
....................       SendDataDisplay(); 
0C556:  CALL   3EE4
0C55A:  MOVLB  1
....................    } 
.................... //_--------------------------------------------------------------------------------------------------------------------------------------------------------       
....................  
.................... //_--------------------------------------------------------------------------------------------------------------------------------------------------------       
....................     if(Menu==14){//Menu de Activacion de Ciclos 
0C55C:  MOVF   xCF,W
0C55E:  SUBLW  0E
0C560:  BTFSS  FD8.2
0C562:  BRA    C78C
....................       printf("fecha.txt=\"Fecha:%02u/%02u/20%02u    Hora: %02u:%02u:%02u\"",Dia,Mes,Year,Hora,Minuto,Segundo); 
0C564:  MOVLW  86
0C566:  MOVWF  FF6
0C568:  MOVLW  14
0C56A:  MOVWF  FF7
0C56C:  MOVLW  00
0C56E:  MOVWF  FF8
0C570:  MOVLW  11
0C572:  MOVLB  6
0C574:  MOVWF  x27
0C576:  MOVLB  0
0C578:  CALL   543C
0C57C:  MOVFF  20B,627
0C580:  MOVLW  01
0C582:  MOVLB  6
0C584:  MOVWF  x28
0C586:  MOVLB  0
0C588:  CALL   54C0
0C58C:  MOVLW  2F
0C58E:  BTFSS  F9E.4
0C590:  BRA    C58E
0C592:  MOVWF  FAD
0C594:  MOVFF  20A,627
0C598:  MOVLW  01
0C59A:  MOVLB  6
0C59C:  MOVWF  x28
0C59E:  MOVLB  0
0C5A0:  CALL   54C0
0C5A4:  MOVLW  2F
0C5A6:  BTFSS  F9E.4
0C5A8:  BRA    C5A6
0C5AA:  MOVWF  FAD
0C5AC:  MOVLW  32
0C5AE:  BTFSS  F9E.4
0C5B0:  BRA    C5AE
0C5B2:  MOVWF  FAD
0C5B4:  MOVLW  30
0C5B6:  BTFSS  F9E.4
0C5B8:  BRA    C5B6
0C5BA:  MOVWF  FAD
0C5BC:  MOVFF  209,627
0C5C0:  MOVLW  01
0C5C2:  MOVLB  6
0C5C4:  MOVWF  x28
0C5C6:  MOVLB  0
0C5C8:  CALL   54C0
0C5CC:  MOVLW  A7
0C5CE:  MOVWF  FF6
0C5D0:  MOVLW  14
0C5D2:  MOVWF  FF7
0C5D4:  MOVLW  00
0C5D6:  MOVWF  FF8
0C5D8:  MOVLW  0A
0C5DA:  MOVLB  6
0C5DC:  MOVWF  x27
0C5DE:  MOVLB  0
0C5E0:  CALL   543C
0C5E4:  MOVFF  20C,627
0C5E8:  MOVLW  01
0C5EA:  MOVLB  6
0C5EC:  MOVWF  x28
0C5EE:  MOVLB  0
0C5F0:  CALL   54C0
0C5F4:  MOVLW  3A
0C5F6:  BTFSS  F9E.4
0C5F8:  BRA    C5F6
0C5FA:  MOVWF  FAD
0C5FC:  MOVFF  20D,627
0C600:  MOVLW  01
0C602:  MOVLB  6
0C604:  MOVWF  x28
0C606:  MOVLB  0
0C608:  CALL   54C0
0C60C:  MOVLW  3A
0C60E:  BTFSS  F9E.4
0C610:  BRA    C60E
0C612:  MOVWF  FAD
0C614:  MOVFF  20E,627
0C618:  MOVLW  01
0C61A:  MOVLB  6
0C61C:  MOVWF  x28
0C61E:  MOVLB  0
0C620:  CALL   54C0
0C624:  MOVLW  22
0C626:  BTFSS  F9E.4
0C628:  BRA    C626
0C62A:  MOVWF  FAD
....................       SendDataDisplay(); 
0C62C:  CALL   3EE4
....................        
....................       if(RX_Buffer[4]==0xaa){ 
0C630:  MOVF   34,W
0C632:  SUBLW  AA
0C634:  BNZ   C6BE
....................          for(i=0;i<30;i++){ 
0C636:  MOVLB  1
0C638:  CLRF   xD2
0C63A:  MOVF   xD2,W
0C63C:  SUBLW  1D
0C63E:  BNC   C6A4
....................             write_eeprom(50+i,estados[i]); 
0C640:  MOVLW  32
0C642:  ADDWF  xD2,W
0C644:  MOVLB  6
0C646:  MOVWF  x22
0C648:  MOVFF  1D2,623
0C64C:  MOVLW  02
0C64E:  MOVWF  x25
0C650:  MOVLW  8E
0C652:  MOVWF  x24
0C654:  MOVLB  0
0C656:  CALL   2376
0C65A:  MOVLW  00
0C65C:  BTFSC  01.0
0C65E:  MOVLW  01
0C660:  MOVLB  6
0C662:  MOVWF  x23
0C664:  CLRF   FAA
0C666:  MOVFF  622,FA9
0C66A:  MOVFF  623,FA8
0C66E:  BCF    FA6.6
0C670:  BCF    FA6.7
0C672:  BSF    FA6.2
0C674:  MOVF   FF2,W
0C676:  MOVWF  00
0C678:  BCF    FF2.6
0C67A:  BCF    FF2.7
0C67C:  MOVLB  F
0C67E:  MOVLW  55
0C680:  MOVWF  FA7
0C682:  MOVLW  AA
0C684:  MOVWF  FA7
0C686:  BSF    FA6.1
0C688:  BTFSC  FA6.1
0C68A:  BRA    C688
0C68C:  BCF    FA6.2
0C68E:  MOVF   00,W
0C690:  IORWF  FF2,F
....................             delay_ms(10); 
0C692:  MOVLW  0A
0C694:  MOVLB  6
0C696:  MOVWF  x37
0C698:  MOVLB  0
0C69A:  CALL   1F36
....................          } 
0C69E:  MOVLB  1
0C6A0:  INCF   xD2,F
0C6A2:  BRA    C63A
....................          printf("page Ajustes"); 
0C6A4:  MOVLW  C2
0C6A6:  MOVWF  FF6
0C6A8:  MOVLW  14
0C6AA:  MOVWF  FF7
0C6AC:  MOVLW  00
0C6AE:  MOVWF  FF8
0C6B0:  MOVLB  0
0C6B2:  CALL   3EB2
....................          SendDataDisplay();  
0C6B6:  CALL   3EE4
....................          RX_Buffer[4]=0x00; 
0C6BA:  CLRF   34
....................          RX_Buffer2[4]=0x00; 
0C6BC:  CLRF   3F
....................       } 
....................        
....................       for(i=0;i<30;i++){ 
0C6BE:  MOVLB  1
0C6C0:  CLRF   xD2
0C6C2:  MOVF   xD2,W
0C6C4:  SUBLW  1D
0C6C6:  BNC   C78C
....................          if(RX_Buffer[4]==i+1){ 
0C6C8:  MOVLW  01
0C6CA:  ADDWF  xD2,W
0C6CC:  SUBWF  34,W
0C6CE:  BNZ   C704
....................             estados[i]=!estados[i]; 
0C6D0:  MOVFF  1D2,623
0C6D4:  MOVLW  02
0C6D6:  MOVLB  6
0C6D8:  MOVWF  x25
0C6DA:  MOVLW  8E
0C6DC:  MOVWF  x24
0C6DE:  MOVLB  0
0C6E0:  CALL   2376
0C6E4:  MOVLW  00
0C6E6:  BTFSS  01.0
0C6E8:  MOVLW  01
0C6EA:  MOVFF  1D2,624
0C6EE:  MOVLB  6
0C6F0:  MOVWF  x25
0C6F2:  MOVLW  02
0C6F4:  MOVWF  x27
0C6F6:  MOVLW  8E
0C6F8:  MOVWF  x26
0C6FA:  MOVLB  0
0C6FC:  CALL   2334
....................             RX_Buffer[4]=0x00; 
0C700:  CLRF   34
....................             RX_Buffer2[4]=0x00; 
0C702:  CLRF   3F
....................          } 
....................           
....................          if(estados[i]){ 
0C704:  MOVFF  1D2,623
0C708:  MOVLW  02
0C70A:  MOVLB  6
0C70C:  MOVWF  x25
0C70E:  MOVLW  8E
0C710:  MOVWF  x24
0C712:  MOVLB  0
0C714:  CALL   2376
0C718:  BTFSS  01.0
0C71A:  BRA    C752
....................             printf("b%u.bco=2016",i); 
0C71C:  MOVLW  62
0C71E:  BTFSS  F9E.4
0C720:  BRA    C71E
0C722:  MOVWF  FAD
0C724:  MOVFF  1D2,627
0C728:  MOVLW  1B
0C72A:  MOVLB  6
0C72C:  MOVWF  x28
0C72E:  MOVLB  0
0C730:  CALL   54C0
0C734:  MOVLW  D3
0C736:  MOVWF  FF6
0C738:  MOVLW  14
0C73A:  MOVWF  FF7
0C73C:  MOVLW  00
0C73E:  MOVWF  FF8
0C740:  MOVLW  09
0C742:  MOVLB  6
0C744:  MOVWF  x27
0C746:  MOVLB  0
0C748:  CALL   543C
....................             SendDataDisplay();              
0C74C:  CALL   3EE4
....................          }else{ 
0C750:  BRA    C786
....................             printf("b%u.bco=63488",i); 
0C752:  MOVLW  62
0C754:  BTFSS  F9E.4
0C756:  BRA    C754
0C758:  MOVWF  FAD
0C75A:  MOVFF  1D2,627
0C75E:  MOVLW  1B
0C760:  MOVLB  6
0C762:  MOVWF  x28
0C764:  MOVLB  0
0C766:  CALL   54C0
0C76A:  MOVLW  E1
0C76C:  MOVWF  FF6
0C76E:  MOVLW  14
0C770:  MOVWF  FF7
0C772:  MOVLW  00
0C774:  MOVWF  FF8
0C776:  MOVLW  0A
0C778:  MOVLB  6
0C77A:  MOVWF  x27
0C77C:  MOVLB  0
0C77E:  CALL   543C
....................             SendDataDisplay();  
0C782:  CALL   3EE4
....................          } 
....................       } 
0C786:  MOVLB  1
0C788:  INCF   xD2,F
0C78A:  BRA    C6C2
....................    } 
.................... //_--------------------------------------------------------------------------------------------------------------------------------------------------------       
....................  
.................... //_--------------------------------------------------------------------------------------------------------------------------------------------------------       
....................     if(Menu==15){//Menu de Clave Correcta 
0C78C:  MOVF   xCF,W
0C78E:  SUBLW  0F
0C790:  BNZ   C7C0
....................       delay_ms(2000); 
0C792:  MOVLW  08
0C794:  MOVLB  6
0C796:  MOVWF  x22
0C798:  MOVLW  FA
0C79A:  MOVWF  x37
0C79C:  MOVLB  0
0C79E:  CALL   1F36
0C7A2:  MOVLB  6
0C7A4:  DECFSZ x22,F
0C7A6:  BRA    C798
....................       printf("page CicloPersona"); 
0C7A8:  MOVLW  EC
0C7AA:  MOVWF  FF6
0C7AC:  MOVLW  14
0C7AE:  MOVWF  FF7
0C7B0:  MOVLW  00
0C7B2:  MOVWF  FF8
0C7B4:  MOVLB  0
0C7B6:  CALL   3EB2
....................       SendDataDisplay();      
0C7BA:  CALL   3EE4
0C7BE:  MOVLB  1
....................       //printf("page Menu"); 
....................       //SendDataDisplay(); 
....................    } 
.................... //_--------------------------------------------------------------------------------------------------------------------------------------------------------       
....................  
.................... //_--------------------------------------------------------------------------------------------------------------------------------------------------------       
....................     if(Menu==16){//Menu de Clave InCorrecta 
0C7C0:  MOVF   xCF,W
0C7C2:  SUBLW  10
0C7C4:  BNZ   C7F4
....................       delay_ms(2000); 
0C7C6:  MOVLW  08
0C7C8:  MOVLB  6
0C7CA:  MOVWF  x22
0C7CC:  MOVLW  FA
0C7CE:  MOVWF  x37
0C7D0:  MOVLB  0
0C7D2:  CALL   1F36
0C7D6:  MOVLB  6
0C7D8:  DECFSZ x22,F
0C7DA:  BRA    C7CC
....................       printf("page Clave"); 
0C7DC:  MOVLW  FE
0C7DE:  MOVWF  FF6
0C7E0:  MOVLW  14
0C7E2:  MOVWF  FF7
0C7E4:  MOVLW  00
0C7E6:  MOVWF  FF8
0C7E8:  MOVLB  0
0C7EA:  CALL   3EB2
....................       SendDataDisplay(); 
0C7EE:  CALL   3EE4
0C7F2:  MOVLB  1
....................    } 
.................... //_--------------------------------------------------------------------------------------------------------------------------------------------------------       
....................  
.................... //_--------------------------------------------------------------------------------------------------------------------------------------------------------     
....................    if(Menu==20){ // Este es el menu de cuando el proceso se inicio. 
0C7F4:  MOVF   xCF,W
0C7F6:  SUBLW  14
0C7F8:  BTFSS  FD8.2
0C7FA:  GOTO   DC24
....................     
....................    GuardaDatoEstatico(); 
0C7FE:  MOVLB  0
0C800:  GOTO   64A8
....................    guardaCiclo=ON; 
0C804:  BSF    x82.7
....................    if(!Libre){ 
0C806:  BTFSC  x88.7
0C808:  BRA    C88E
....................       printf("t2f.txt=\"%u\"",CicloSeleccionado); 
0C80A:  MOVLW  0A
0C80C:  MOVWF  FF6
0C80E:  MOVLW  15
0C810:  MOVWF  FF7
0C812:  MOVLW  00
0C814:  MOVWF  FF8
0C816:  MOVLW  09
0C818:  MOVLB  6
0C81A:  MOVWF  x27
0C81C:  MOVLB  0
0C81E:  CALL   543C
0C822:  MOVFF  1D5,627
0C826:  MOVLW  1B
0C828:  MOVLB  6
0C82A:  MOVWF  x28
0C82C:  MOVLB  0
0C82E:  CALL   54C0
0C832:  MOVLW  22
0C834:  BTFSS  F9E.4
0C836:  BRA    C834
0C838:  MOVWF  FAD
....................       SendDataDisplay(); 
0C83A:  CALL   3EE4
....................       printf("t3f.txt=\"%s\"",Texto[CicloSeleccionado-1]); 
0C83E:  MOVLW  01
0C840:  MOVLB  1
0C842:  SUBWF  xD5,W
0C844:  MULLW  14
0C846:  MOVF   FF3,W
0C848:  CLRF   03
0C84A:  MOVLB  6
0C84C:  MOVWF  x22
0C84E:  MOVLW  18
0C850:  MOVWF  FF6
0C852:  MOVLW  15
0C854:  MOVWF  FF7
0C856:  MOVLW  00
0C858:  MOVWF  FF8
0C85A:  MOVLW  09
0C85C:  MOVWF  x27
0C85E:  MOVLB  0
0C860:  CALL   543C
0C864:  MOVLW  1A
0C866:  MOVWF  FF6
0C868:  MOVLW  03
0C86A:  MOVWF  FF7
0C86C:  MOVLW  00
0C86E:  MOVWF  FF8
0C870:  MOVLB  6
0C872:  MOVF   x22,W
0C874:  ADDWF  FF6,F
0C876:  MOVLW  00
0C878:  ADDWFC FF7,F
0C87A:  MOVLB  0
0C87C:  CALL   3EB2
0C880:  MOVLW  22
0C882:  BTFSS  F9E.4
0C884:  BRA    C882
0C886:  MOVWF  FAD
....................       SendDataDisplay(); 
0C888:  CALL   3EE4
....................    }else{ 
0C88C:  BRA    C8DE
....................       printf("t2f.txt=\"%u\"",CicloLibre+10); 
0C88E:  MOVLW  0A
0C890:  MOVLB  2
0C892:  ADDWF  x1F,W
0C894:  MOVLB  6
0C896:  MOVWF  x22
0C898:  MOVLW  26
0C89A:  MOVWF  FF6
0C89C:  MOVLW  15
0C89E:  MOVWF  FF7
0C8A0:  MOVLW  00
0C8A2:  MOVWF  FF8
0C8A4:  MOVLW  09
0C8A6:  MOVWF  x27
0C8A8:  MOVLB  0
0C8AA:  CALL   543C
0C8AE:  MOVFF  622,627
0C8B2:  MOVLW  1B
0C8B4:  MOVLB  6
0C8B6:  MOVWF  x28
0C8B8:  MOVLB  0
0C8BA:  CALL   54C0
0C8BE:  MOVLW  22
0C8C0:  BTFSS  F9E.4
0C8C2:  BRA    C8C0
0C8C4:  MOVWF  FAD
....................       SendDataDisplay(); 
0C8C6:  CALL   3EE4
....................       printf("t3f.txt=\"Personalizado\""); 
0C8CA:  MOVLW  34
0C8CC:  MOVWF  FF6
0C8CE:  MOVLW  15
0C8D0:  MOVWF  FF7
0C8D2:  MOVLW  00
0C8D4:  MOVWF  FF8
0C8D6:  CALL   3EB2
....................       SendDataDisplay(); 
0C8DA:  CALL   3EE4
....................    } 
....................        
....................    if(PresionPreCamara>275 || PresionCamara>350){ 
0C8DE:  MOVLB  1
0C8E0:  MOVF   xEE,W
0C8E2:  SUBLW  00
0C8E4:  BC    C8F0
0C8E6:  XORLW  FF
0C8E8:  BNZ   C900
0C8EA:  MOVF   xED,W
0C8EC:  SUBLW  13
0C8EE:  BNC   C900
0C8F0:  MOVF   xEC,W
0C8F2:  SUBLW  00
0C8F4:  BC    C904
0C8F6:  XORLW  FF
0C8F8:  BNZ   C900
0C8FA:  MOVF   xEB,W
0C8FC:  SUBLW  5E
0C8FE:  BC    C904
....................       AlarmaPresion=ON; 
0C900:  MOVLB  0
0C902:  BSF    x88.4
....................    } 
....................     
....................    if(TiempoCiclo>3600 && !Fugas){//ANALIZAR BIEN ESTA ALARMA 
0C904:  MOVLB  0
0C906:  MOVF   x8C,W
0C908:  SUBLW  0D
0C90A:  BC    C91E
0C90C:  XORLW  FF
0C90E:  BNZ   C916
0C910:  MOVF   x8B,W
0C912:  SUBLW  10
0C914:  BC    C91E
0C916:  BTFSC  x89.1
0C918:  BRA    C91E
....................       //if(PresionPrecamara<10){ 
....................          AlarmaTiempoProlongado=ON; 
0C91A:  BSF    x82.0
....................       //} 
....................    }else{ 
0C91C:  BRA    C920
....................       AlarmaTiempoProlongado=OFF; 
0C91E:  BCF    x82.0
....................    } 
....................     
....................    if(Temperatura>Setpoint+4.0 && !Fugas){ 
0C920:  MOVLB  6
0C922:  CLRF   x38
0C924:  MOVFF  1D9,637
0C928:  MOVLB  0
0C92A:  CALL   1F00
0C92E:  BCF    FD8.1
0C930:  MOVFF  03,63D
0C934:  MOVFF  02,63C
0C938:  MOVFF  01,63B
0C93C:  MOVFF  00,63A
0C940:  MOVLB  6
0C942:  CLRF   x41
0C944:  CLRF   x40
0C946:  CLRF   x3F
0C948:  MOVLW  81
0C94A:  MOVWF  x3E
0C94C:  MOVLB  0
0C94E:  CALL   20BC
0C952:  MOVFF  03,629
0C956:  MOVFF  02,628
0C95A:  MOVFF  01,627
0C95E:  MOVFF  00,626
0C962:  MOVFF  1B6,62D
0C966:  MOVFF  1B5,62C
0C96A:  MOVFF  1B4,62B
0C96E:  MOVFF  1B3,62A
0C972:  CALL   2592
0C976:  BNC   C97E
0C978:  BTFSC  x89.1
0C97A:  BRA    C97E
....................       AlarmaSobreTemperatura=ON; 
0C97C:  BSF    x82.1
....................    } 
....................     
....................    if(!TERM){ 
0C97E:  BSF    F93.3
0C980:  BTFSS  F81.3
0C982:  BRA    C984
....................       //AlarmaTermostato=ON; 
....................    } 
....................     
....................    if(!DOOR){ 
0C984:  BSF    F93.1
0C986:  BTFSS  F81.1
0C988:  BRA    C99E
....................       //Desfogue_off; 
....................       //Solenoide_off; 
....................       Paso_off; 
0C98A:  BCF    F8C.1
0C98C:  BCF    F95.1
....................       if(!Secando && !Finalizo && !Desfogando){ 
0C98E:  BTFSC  x83.4
0C990:  BRA    C99C
0C992:  BTFSC  x88.3
0C994:  BRA    C99C
0C996:  BTFSC  x83.6
0C998:  BRA    C99C
....................          AlarmaPuerta=ON; 
0C99A:  BSF    x82.3
....................       } 
....................    }else{ 
0C99C:  BRA    C9A0
....................       AlarmaPuerta=OFF; 
0C99E:  BCF    x82.3
....................    } 
....................  
....................    if(!STOP){ 
0C9A0:  BSF    F93.2
0C9A2:  BTFSS  F81.2
0C9A4:  BRA    C9A8
....................       AlarmaEmergencia=ON; 
0C9A6:  BSF    x82.4
....................    } 
....................     
....................    if(AlarmaPuerta || AlarmaTermostato || AlarmaSobreTemperatura || AlarmaTiempoProlongado || AlarmaEmergencia || AlarmaPresion || AlarmaBomba  
....................          || AlarmaVacio){ 
0C9A8:  BTFSC  x82.3
0C9AA:  BRA    C9C8
0C9AC:  BTFSC  x82.2
0C9AE:  BRA    C9C8
0C9B0:  BTFSC  x82.1
0C9B2:  BRA    C9C8
0C9B4:  BTFSC  x82.0
0C9B6:  BRA    C9C8
0C9B8:  BTFSC  x82.4
0C9BA:  BRA    C9C8
0C9BC:  BTFSC  x88.4
0C9BE:  BRA    C9C8
0C9C0:  BTFSC  x82.6
0C9C2:  BRA    C9C8
0C9C4:  BTFSS  x82.5
0C9C6:  BRA    CD8E
....................       ActivaAlarma(1); 
0C9C8:  MOVLW  01
0C9CA:  MOVLB  6
0C9CC:  MOVWF  x22
0C9CE:  MOVLB  0
0C9D0:  CALL   5358
....................       if(AlarmaEmergencia){ 
0C9D4:  BTFSS  x82.4
0C9D6:  BRA    CA64
....................          codigoAlarma=1; 
0C9D8:  MOVLW  01
0C9DA:  MOVLB  2
0C9DC:  MOVWF  x02
....................          printf("Funcionamiento.t4f.txt=\" Parada de Emergencia\""); 
0C9DE:  MOVLW  4C
0C9E0:  MOVWF  FF6
0C9E2:  MOVLW  15
0C9E4:  MOVWF  FF7
0C9E6:  MOVLW  00
0C9E8:  MOVWF  FF8
0C9EA:  MOVLB  0
0C9EC:  CALL   3EB2
....................          SendDataDisplay(); 
0C9F0:  CALL   3EE4
....................          printf("Funcionamiento.t5f.txt=\" Cancelado\""); 
0C9F4:  MOVLW  7C
0C9F6:  MOVWF  FF6
0C9F8:  MOVLW  15
0C9FA:  MOVWF  FF7
0C9FC:  MOVLW  00
0C9FE:  MOVWF  FF8
0CA00:  CALL   3EB2
....................          SendDataDisplay(); 
0CA04:  CALL   3EE4
....................          Desfogue_on; 
0CA08:  BSF    F8C.3
0CA0A:  BCF    F95.3
....................          Paso_off; 
0CA0C:  BCF    F8C.1
0CA0E:  BCF    F95.1
....................          Suministro_off; 
0CA10:  BCF    F8C.0
0CA12:  BCF    F95.0
....................          BombaVacio_off; 
0CA14:  BCF    F8C.5
0CA16:  BCF    F95.5
....................          Agua_off; 
0CA18:  BCF    F8C.6
0CA1A:  BCF    F95.6
....................          Vacio_off; 
0CA1C:  BCF    F8C.2
0CA1E:  BCF    F95.2
....................          if(PresionCamara<Atmosferica) 
0CA20:  MOVLB  1
0CA22:  MOVF   xEC,F
0CA24:  BNZ   CA36
0CA26:  MOVLB  2
0CA28:  MOVF   x13,W
0CA2A:  MOVLB  1
0CA2C:  SUBWF  xEB,W
0CA2E:  BC    CA36
....................             Aire_on; 
0CA30:  BSF    F8C.4
0CA32:  BCF    F95.4
....................          else 
0CA34:  BRA    CA3A
....................             Aire_off; 
0CA36:  BCF    F8C.4
0CA38:  BCF    F95.4
....................          Esterilizando=OFF; 
0CA3A:  MOVLB  0
0CA3C:  BCF    x83.3
....................          Desfogando=OFF; 
0CA3E:  BCF    x83.6
....................          DesfogueSuave=OFF; 
0CA40:  BCF    x83.7
....................          IniciaCiclo=OFF; 
0CA42:  BCF    x83.2
....................          Controlando=0; 
0CA44:  MOVLB  1
0CA46:  CLRF   xC9
....................          if(codigoAnt!=codigoAlarma){ 
0CA48:  MOVLB  2
0CA4A:  MOVF   x02,W
0CA4C:  SUBWF  x03,W
0CA4E:  BZ    CA60
....................             codigoAnt=codigoAlarma; 
0CA50:  MOVFF  202,203
....................             GuardaDatoCiclo(); 
0CA54:  MOVLB  0
0CA56:  CALL   6760
....................             incrementaCiclos(); 
0CA5A:  CALL   6B04
0CA5E:  MOVLB  2
....................          } 
....................       }else if(AlarmaPuerta){ 
0CA60:  BRA    CD88
0CA62:  MOVLB  0
0CA64:  BTFSS  x82.3
0CA66:  BRA    CACE
....................          codigoAlarma=2; 
0CA68:  MOVLW  02
0CA6A:  MOVLB  2
0CA6C:  MOVWF  x02
....................          printf("Funcionamiento.t4f.txt=\" Puerta Abierta\""); 
0CA6E:  MOVLW  A0
0CA70:  MOVWF  FF6
0CA72:  MOVLW  15
0CA74:  MOVWF  FF7
0CA76:  MOVLW  00
0CA78:  MOVWF  FF8
0CA7A:  MOVLB  0
0CA7C:  CALL   3EB2
....................          SendDataDisplay(); 
0CA80:  CALL   3EE4
....................          printf("Funcionamiento.t5f.txt=\" Pausado\""); 
0CA84:  MOVLW  CA
0CA86:  MOVWF  FF6
0CA88:  MOVLW  15
0CA8A:  MOVWF  FF7
0CA8C:  MOVLW  00
0CA8E:  MOVWF  FF8
0CA90:  CALL   3EB2
....................          SendDataDisplay(); 
0CA94:  CALL   3EE4
....................          Paso_off; 
0CA98:  BCF    F8C.1
0CA9A:  BCF    F95.1
....................          Suministro_off; 
0CA9C:  BCF    F8C.0
0CA9E:  BCF    F95.0
....................          BombaVacio_off; 
0CAA0:  BCF    F8C.5
0CAA2:  BCF    F95.5
....................          Aire_off; 
0CAA4:  BCF    F8C.4
0CAA6:  BCF    F95.4
....................          Agua_off; 
0CAA8:  BCF    F8C.6
0CAAA:  BCF    F95.6
....................          Vacio_off; 
0CAAC:  BCF    F8C.2
0CAAE:  BCF    F95.2
....................          IniciaLlenado=OFF; 
0CAB0:  BCF    x83.1
....................          //IniciaCiclo=OFF; 
....................          Controlando=0; 
0CAB2:  MOVLB  1
0CAB4:  CLRF   xC9
....................          if(codigoAnt!=codigoAlarma){ 
0CAB6:  MOVLB  2
0CAB8:  MOVF   x02,W
0CABA:  SUBWF  x03,W
0CABC:  BZ    CACA
....................             codigoAnt=codigoAlarma; 
0CABE:  MOVFF  202,203
....................             GuardaDatoCiclo(); 
0CAC2:  MOVLB  0
0CAC4:  CALL   6760
0CAC8:  MOVLB  2
....................          } 
....................       }else if(AlarmaTermostato){ 
0CACA:  BRA    CD88
0CACC:  MOVLB  0
0CACE:  BTFSS  x82.2
0CAD0:  BRA    CB4A
....................          codigoAlarma=3; 
0CAD2:  MOVLW  03
0CAD4:  MOVLB  2
0CAD6:  MOVWF  x02
....................          tiempo_esterilizacion=0;tiempo_secado=0;          
0CAD8:  MOVLB  1
0CADA:  CLRF   xDC
0CADC:  CLRF   xDD
....................          printf("Funcionamiento.t4f.txt=\" Termostato\""); 
0CADE:  MOVLW  EC
0CAE0:  MOVWF  FF6
0CAE2:  MOVLW  15
0CAE4:  MOVWF  FF7
0CAE6:  MOVLW  00
0CAE8:  MOVWF  FF8
0CAEA:  MOVLB  0
0CAEC:  CALL   3EB2
....................          SendDataDisplay(); 
0CAF0:  CALL   3EE4
....................          printf("Funcionamiento.t5f.txt=\" Cancelado\""); 
0CAF4:  MOVLW  12
0CAF6:  MOVWF  FF6
0CAF8:  MOVLW  16
0CAFA:  MOVWF  FF7
0CAFC:  MOVLW  00
0CAFE:  MOVWF  FF8
0CB00:  CALL   3EB2
....................          SendDataDisplay(); 
0CB04:  CALL   3EE4
....................          Suministro_off; 
0CB08:  BCF    F8C.0
0CB0A:  BCF    F95.0
....................          Desfogue_on;                   
0CB0C:  BSF    F8C.3
0CB0E:  BCF    F95.3
....................          Paso_off; 
0CB10:  BCF    F8C.1
0CB12:  BCF    F95.1
....................          BombaVacio_off; 
0CB14:  BCF    F8C.5
0CB16:  BCF    F95.5
....................          Aire_off; 
0CB18:  BCF    F8C.4
0CB1A:  BCF    F95.4
....................          Agua_off; 
0CB1C:  BCF    F8C.6
0CB1E:  BCF    F95.6
....................          Vacio_off; 
0CB20:  BCF    F8C.2
0CB22:  BCF    F95.2
....................          Esterilizando=OFF; 
0CB24:  BCF    x83.3
....................          Desfogando=OFF; 
0CB26:  BCF    x83.6
....................          IniciaCiclo=OFF; 
0CB28:  BCF    x83.2
....................          Controlando=0; 
0CB2A:  MOVLB  1
0CB2C:  CLRF   xC9
....................          if(codigoAnt!=codigoAlarma){ 
0CB2E:  MOVLB  2
0CB30:  MOVF   x02,W
0CB32:  SUBWF  x03,W
0CB34:  BZ    CB46
....................             codigoAnt=codigoAlarma; 
0CB36:  MOVFF  202,203
....................             GuardaDatoCiclo(); 
0CB3A:  MOVLB  0
0CB3C:  CALL   6760
....................             incrementaCiclos(); 
0CB40:  CALL   6B04
0CB44:  MOVLB  2
....................          } 
....................       }else if(AlarmaSobreTemperatura){                   
0CB46:  BRA    CD88
0CB48:  MOVLB  0
0CB4A:  BTFSS  x82.1
0CB4C:  BRA    CBC0
....................          codigoAlarma=4; 
0CB4E:  MOVLW  04
0CB50:  MOVLB  2
0CB52:  MOVWF  x02
....................          tiempo_esterilizacion=0;tiempo_secado=0;          
0CB54:  MOVLB  1
0CB56:  CLRF   xDC
0CB58:  CLRF   xDD
....................          printf("Funcionamiento.t4f.txt=\" Sobretemperatura\""); 
0CB5A:  MOVLW  36
0CB5C:  MOVWF  FF6
0CB5E:  MOVLW  16
0CB60:  MOVWF  FF7
0CB62:  MOVLW  00
0CB64:  MOVWF  FF8
0CB66:  MOVLB  0
0CB68:  CALL   3EB2
....................          SendDataDisplay(); 
0CB6C:  CALL   3EE4
....................          printf("Funcionamiento.t5f.txt=\" Cancelado\""); 
0CB70:  MOVLW  62
0CB72:  MOVWF  FF6
0CB74:  MOVLW  16
0CB76:  MOVWF  FF7
0CB78:  MOVLW  00
0CB7A:  MOVWF  FF8
0CB7C:  CALL   3EB2
....................          SendDataDisplay();   
0CB80:  CALL   3EE4
....................          Suministro_off; 
0CB84:  BCF    F8C.0
0CB86:  BCF    F95.0
....................          Desfogue_on; 
0CB88:  BSF    F8C.3
0CB8A:  BCF    F95.3
....................          Paso_off; 
0CB8C:  BCF    F8C.1
0CB8E:  BCF    F95.1
....................          BombaVacio_off; 
0CB90:  BCF    F8C.5
0CB92:  BCF    F95.5
....................          Aire_off; 
0CB94:  BCF    F8C.4
0CB96:  BCF    F95.4
....................          Agua_off; 
0CB98:  BCF    F8C.6
0CB9A:  BCF    F95.6
....................          Vacio_off; 
0CB9C:  BCF    F8C.2
0CB9E:  BCF    F95.2
....................          Controlando=0; 
0CBA0:  MOVLB  1
0CBA2:  CLRF   xC9
....................          if(codigoAnt!=codigoAlarma){ 
0CBA4:  MOVLB  2
0CBA6:  MOVF   x02,W
0CBA8:  SUBWF  x03,W
0CBAA:  BZ    CBBC
....................             codigoAnt=codigoAlarma; 
0CBAC:  MOVFF  202,203
....................             GuardaDatoCiclo(); 
0CBB0:  MOVLB  0
0CBB2:  CALL   6760
....................             incrementaCiclos(); 
0CBB6:  CALL   6B04
0CBBA:  MOVLB  2
....................          } 
....................       }else if(AlarmaTiempoProlongado){ 
0CBBC:  BRA    CD88
0CBBE:  MOVLB  0
0CBC0:  BTFSS  x82.0
0CBC2:  BRA    CC28
....................          codigoAlarma=5; 
0CBC4:  MOVLW  05
0CBC6:  MOVLB  2
0CBC8:  MOVWF  x02
....................          printf("Funcionamiento.t4f.txt=\" Tiempo Prolongado\""); 
0CBCA:  MOVLW  86
0CBCC:  MOVWF  FF6
0CBCE:  MOVLW  16
0CBD0:  MOVWF  FF7
0CBD2:  MOVLW  00
0CBD4:  MOVWF  FF8
0CBD6:  MOVLB  0
0CBD8:  CALL   3EB2
....................          SendDataDisplay(); 
0CBDC:  CALL   3EE4
....................          printf("Funcionamiento.t5f.txt=\" Cancelado\""); 
0CBE0:  MOVLW  B2
0CBE2:  MOVWF  FF6
0CBE4:  MOVLW  16
0CBE6:  MOVWF  FF7
0CBE8:  MOVLW  00
0CBEA:  MOVWF  FF8
0CBEC:  CALL   3EB2
....................          SendDataDisplay(); 
0CBF0:  CALL   3EE4
....................          Suministro_off; 
0CBF4:  BCF    F8C.0
0CBF6:  BCF    F95.0
....................          Desfogue_on; 
0CBF8:  BSF    F8C.3
0CBFA:  BCF    F95.3
....................          Paso_off; 
0CBFC:  BCF    F8C.1
0CBFE:  BCF    F95.1
....................          Agua_off; 
0CC00:  BCF    F8C.6
0CC02:  BCF    F95.6
....................          Vacio_off; 
0CC04:  BCF    F8C.2
0CC06:  BCF    F95.2
....................          Controlando=0; 
0CC08:  MOVLB  1
0CC0A:  CLRF   xC9
....................          if(codigoAnt!=codigoAlarma){ 
0CC0C:  MOVLB  2
0CC0E:  MOVF   x02,W
0CC10:  SUBWF  x03,W
0CC12:  BZ    CC24
....................             codigoAnt=codigoAlarma; 
0CC14:  MOVFF  202,203
....................             GuardaDatoCiclo(); 
0CC18:  MOVLB  0
0CC1A:  CALL   6760
....................             incrementaCiclos(); 
0CC1E:  CALL   6B04
0CC22:  MOVLB  2
....................          } 
....................       }else if(AlarmaPresion){ // Alarma de Error de SobrePresion: Error por exceso de Presion. 
0CC24:  BRA    CD88
0CC26:  MOVLB  0
0CC28:  BTFSS  x88.4
0CC2A:  BRA    CCB4
....................          codigoAlarma=6; 
0CC2C:  MOVLW  06
0CC2E:  MOVLB  2
0CC30:  MOVWF  x02
....................          printf("Funcionamiento.t4f.txt=\" SobrePresion\""); 
0CC32:  MOVLW  D6
0CC34:  MOVWF  FF6
0CC36:  MOVLW  16
0CC38:  MOVWF  FF7
0CC3A:  MOVLW  00
0CC3C:  MOVWF  FF8
0CC3E:  MOVLB  0
0CC40:  CALL   3EB2
....................          SendDataDisplay(); 
0CC44:  CALL   3EE4
....................          printf("Funcionamiento.t5f.txt=\" Cancelado\""); 
0CC48:  MOVLW  FE
0CC4A:  MOVWF  FF6
0CC4C:  MOVLW  16
0CC4E:  MOVWF  FF7
0CC50:  MOVLW  00
0CC52:  MOVWF  FF8
0CC54:  CALL   3EB2
....................          SendDataDisplay(); 
0CC58:  CALL   3EE4
....................          Desfogue_on; 
0CC5C:  BSF    F8C.3
0CC5E:  BCF    F95.3
....................          Suministro_off; 
0CC60:  BCF    F8C.0
0CC62:  BCF    F95.0
....................          BombaVacio_off; 
0CC64:  BCF    F8C.5
0CC66:  BCF    F95.5
....................          Aire_off; 
0CC68:  BCF    F8C.4
0CC6A:  BCF    F95.4
....................          Agua_off; 
0CC6C:  BCF    F8C.6
0CC6E:  BCF    F95.6
....................          Vacio_off; 
0CC70:  BCF    F8C.2
0CC72:  BCF    F95.2
....................          if(PresionPreCamara>(Atmosferica+4) && DOOR) 
0CC74:  MOVLW  04
0CC76:  MOVLB  2
0CC78:  ADDWF  x13,W
0CC7A:  MOVLB  1
0CC7C:  MOVF   xEE,F
0CC7E:  BNZ   CC86
0CC80:  SUBWF  xED,W
0CC82:  BZ    CC92
0CC84:  BNC   CC92
0CC86:  BSF    F93.1
0CC88:  BTFSC  F81.1
0CC8A:  BRA    CC92
....................             Paso_on; 
0CC8C:  BSF    F8C.1
0CC8E:  BCF    F95.1
....................          else 
0CC90:  BRA    CC96
....................             Paso_off; 
0CC92:  BCF    F8C.1
0CC94:  BCF    F95.1
....................          Controlando=0; 
0CC96:  CLRF   xC9
....................          if(codigoAnt!=codigoAlarma){ 
0CC98:  MOVLB  2
0CC9A:  MOVF   x02,W
0CC9C:  SUBWF  x03,W
0CC9E:  BZ    CCB0
....................             codigoAnt=codigoAlarma; 
0CCA0:  MOVFF  202,203
....................             GuardaDatoCiclo(); 
0CCA4:  MOVLB  0
0CCA6:  CALL   6760
....................             incrementaCiclos(); 
0CCAA:  CALL   6B04
0CCAE:  MOVLB  2
....................          } 
....................       }else if(AlarmaBomba){ // Alarma de Error de que bomba no ha arrancado. 
0CCB0:  BRA    CD88
0CCB2:  MOVLB  0
0CCB4:  BTFSS  x82.6
0CCB6:  BRA    CD20
....................          codigoAlarma=7; 
0CCB8:  MOVLW  07
0CCBA:  MOVLB  2
0CCBC:  MOVWF  x02
....................          printf("Funcionamiento.t4f.txt=\" Error Bomba\""); 
0CCBE:  MOVLW  22
0CCC0:  MOVWF  FF6
0CCC2:  MOVLW  17
0CCC4:  MOVWF  FF7
0CCC6:  MOVLW  00
0CCC8:  MOVWF  FF8
0CCCA:  MOVLB  0
0CCCC:  CALL   3EB2
....................          SendDataDisplay(); 
0CCD0:  CALL   3EE4
....................          printf("Funcionamiento.t5f.txt=\" Cancelado\""); 
0CCD4:  MOVLW  48
0CCD6:  MOVWF  FF6
0CCD8:  MOVLW  17
0CCDA:  MOVWF  FF7
0CCDC:  MOVLW  00
0CCDE:  MOVWF  FF8
0CCE0:  CALL   3EB2
....................          SendDataDisplay(); 
0CCE4:  CALL   3EE4
....................          Desfogue_on; 
0CCE8:  BSF    F8C.3
0CCEA:  BCF    F95.3
....................          Suministro_off; 
0CCEC:  BCF    F8C.0
0CCEE:  BCF    F95.0
....................          BombaVacio_off; 
0CCF0:  BCF    F8C.5
0CCF2:  BCF    F95.5
....................          Aire_off; 
0CCF4:  BCF    F8C.4
0CCF6:  BCF    F95.4
....................          Agua_off; 
0CCF8:  BCF    F8C.6
0CCFA:  BCF    F95.6
....................          Vacio_off; 
0CCFC:  BCF    F8C.2
0CCFE:  BCF    F95.2
....................          Controlando=0; 
0CD00:  MOVLB  1
0CD02:  CLRF   xC9
....................          if(codigoAnt!=codigoAlarma){ 
0CD04:  MOVLB  2
0CD06:  MOVF   x02,W
0CD08:  SUBWF  x03,W
0CD0A:  BZ    CD1C
....................             codigoAnt=codigoAlarma; 
0CD0C:  MOVFF  202,203
....................             GuardaDatoCiclo(); 
0CD10:  MOVLB  0
0CD12:  CALL   6760
....................             incrementaCiclos(); 
0CD16:  CALL   6B04
0CD1A:  MOVLB  2
....................          } 
....................       }else if(AlarmaVacio){ // Alarma de Error de que genera el Vacio en el tiempo estipulado. 
0CD1C:  BRA    CD88
0CD1E:  MOVLB  0
0CD20:  BTFSS  x82.5
0CD22:  BRA    CD86
....................          codigoAlarma=8; 
0CD24:  MOVLW  08
0CD26:  MOVLB  2
0CD28:  MOVWF  x02
....................          printf("Funcionamiento.t4f.txt=\" Error Vacio\""); 
0CD2A:  MOVLW  6C
0CD2C:  MOVWF  FF6
0CD2E:  MOVLW  17
0CD30:  MOVWF  FF7
0CD32:  MOVLW  00
0CD34:  MOVWF  FF8
0CD36:  MOVLB  0
0CD38:  CALL   3EB2
....................          SendDataDisplay(); 
0CD3C:  CALL   3EE4
....................          printf("Funcionamiento.t5f.txt=\" Cancelado\""); 
0CD40:  MOVLW  92
0CD42:  MOVWF  FF6
0CD44:  MOVLW  17
0CD46:  MOVWF  FF7
0CD48:  MOVLW  00
0CD4A:  MOVWF  FF8
0CD4C:  CALL   3EB2
....................          SendDataDisplay(); 
0CD50:  CALL   3EE4
....................          Desfogue_on; 
0CD54:  BSF    F8C.3
0CD56:  BCF    F95.3
....................          Suministro_off; 
0CD58:  BCF    F8C.0
0CD5A:  BCF    F95.0
....................          BombaVacio_off; 
0CD5C:  BCF    F8C.5
0CD5E:  BCF    F95.5
....................          Aire_off; 
0CD60:  BCF    F8C.4
0CD62:  BCF    F95.4
....................          Agua_off; 
0CD64:  BCF    F8C.6
0CD66:  BCF    F95.6
....................          Vacio_off; 
0CD68:  BCF    F8C.2
0CD6A:  BCF    F95.2
....................          Controlando=0; 
0CD6C:  MOVLB  1
0CD6E:  CLRF   xC9
....................          if(codigoAnt!=codigoAlarma){ 
0CD70:  MOVLB  2
0CD72:  MOVF   x02,W
0CD74:  SUBWF  x03,W
0CD76:  BZ    CD88
....................             codigoAnt=codigoAlarma; 
0CD78:  MOVFF  202,203
....................             GuardaDatoCiclo(); 
0CD7C:  MOVLB  0
0CD7E:  CALL   6760
....................             incrementaCiclos(); 
0CD82:  CALL   6B04
0CD86:  MOVLB  2
....................          } 
....................       } 
....................    }else{ 
0CD88:  GOTO   D770
0CD8C:  MOVLB  0
....................        
....................       if(!Fugas){//Si selecciono un ciclo diferente al test de fugas 
0CD8E:  BTFSC  x89.1
0CD90:  GOTO   D57C
....................          Buzzer_off; 
0CD94:  BCF    F8B.5
0CD96:  BCF    F94.5
....................          IniciaCiclo=ON; 
0CD98:  BSF    x83.2
....................           
....................       if(!Precalentamiento){       
0CD9A:  BTFSC  x89.2
0CD9C:  BRA    CDF2
....................          printf("Funcionamiento.t4f.txt=\" Ninguna\""); 
0CD9E:  MOVLW  B6
0CDA0:  MOVWF  FF6
0CDA2:  MOVLW  17
0CDA4:  MOVWF  FF7
0CDA6:  MOVLW  00
0CDA8:  MOVWF  FF8
0CDAA:  CALL   3EB2
....................          SendDataDisplay(); 
0CDAE:  CALL   3EE4
....................          printf("Funcionamiento.t5f.txt=\" PreCalentando\""); 
0CDB2:  MOVLW  D8
0CDB4:  MOVWF  FF6
0CDB6:  MOVLW  17
0CDB8:  MOVWF  FF7
0CDBA:  MOVLW  00
0CDBC:  MOVWF  FF8
0CDBE:  CALL   3EB2
....................          SendDataDisplay(); 
0CDC2:  CALL   3EE4
....................          ControlaPresion();  
0CDC6:  CALL   6B90
....................          Control=0; 
0CDCA:  MOVLB  1
0CDCC:  CLRF   xC7
....................          IniciaVacio=OFF; 
0CDCE:  MOVLB  0
0CDD0:  BCF    x89.3
....................          IniciaVacio2=OFF; 
0CDD2:  BCF    x89.4
....................          codigoAlarma=10; 
0CDD4:  MOVLW  0A
0CDD6:  MOVLB  2
0CDD8:  MOVWF  x02
....................          if(codigoAnt!=codigoAlarma){ 
0CDDA:  MOVF   x02,W
0CDDC:  SUBWF  x03,W
0CDDE:  BZ    CDEC
....................             codigoAnt=codigoAlarma; 
0CDE0:  MOVFF  202,203
....................             GuardaDatoCiclo(); 
0CDE4:  MOVLB  0
0CDE6:  CALL   6760
0CDEA:  MOVLB  2
....................          } 
....................       }else{ 
0CDEC:  GOTO   D578
0CDF0:  MOVLB  0
....................          if(!Vacio){ //Si no ha realizado los pulsos de vacio 
0CDF2:  BTFSC  x89.5
0CDF4:  BRA    D022
....................             codigoAlarma=11; 
0CDF6:  MOVLW  0B
0CDF8:  MOVLB  2
0CDFA:  MOVWF  x02
....................             if(codigoAnt!=codigoAlarma){ 
0CDFC:  MOVF   x02,W
0CDFE:  SUBWF  x03,W
0CE00:  BZ    CE0C
....................                codigoAnt=codigoAlarma; 
0CE02:  MOVFF  202,203
....................                GuardaDatoCiclo();                
0CE06:  MOVLB  0
0CE08:  CALL   6760
....................             } 
....................             if(!flag_vac){//Ciclo inicial para purga de Bomba 
0CE0C:  MOVLB  0
0CE0E:  BTFSC  x89.6
0CE10:  BRA    CE58
....................                flag_vac=ON; 
0CE12:  BSF    x89.6
....................                Vacio_off; 
0CE14:  BCF    F8C.2
0CE16:  BCF    F95.2
....................                Desfogue_off; 
0CE18:  BCF    F8C.3
0CE1A:  BCF    F95.3
....................                Aire_off; 
0CE1C:  BCF    F8C.4
0CE1E:  BCF    F95.4
....................                Paso_off; 
0CE20:  BCF    F8C.1
0CE22:  BCF    F95.1
....................                Agua_on; 
0CE24:  BSF    F8C.6
0CE26:  BCF    F95.6
....................                delay_ms(7000); 
0CE28:  MOVLW  1C
0CE2A:  MOVLB  6
0CE2C:  MOVWF  x22
0CE2E:  MOVLW  FA
0CE30:  MOVWF  x37
0CE32:  MOVLB  0
0CE34:  CALL   1F36
0CE38:  MOVLB  6
0CE3A:  DECFSZ x22,F
0CE3C:  BRA    CE2E
....................                if(CalderinLleno) 
0CE3E:  MOVLB  0
0CE40:  BTFSS  x86.0
0CE42:  BRA    CE4A
....................                   BombaVacio_on; 
0CE44:  BSF    F8C.5
0CE46:  BCF    F95.5
....................                else 
0CE48:  BRA    CE4E
....................                   BombaVacio_off; 
0CE4A:  BCF    F8C.5
0CE4C:  BCF    F95.5
....................                IniciaVacio2=ON; 
0CE4E:  BSF    x89.4
....................                PulsoPositivo=5; //Prueba para ver rendimiento de bomba de vacio************ 
0CE50:  MOVLW  05
0CE52:  MOVLB  2
0CE54:  MOVWF  x14
0CE56:  MOVLB  0
....................             } 
....................             printf("Funcionamiento.t4f.txt=\" Ninguna\""); 
0CE58:  MOVLW  00
0CE5A:  MOVWF  FF6
0CE5C:  MOVLW  18
0CE5E:  MOVWF  FF7
0CE60:  MOVLW  00
0CE62:  MOVWF  FF8
0CE64:  CALL   3EB2
....................             SendDataDisplay(); 
0CE68:  CALL   3EE4
....................             ControlaPresion(); 
0CE6C:  CALL   6B90
....................             IniciaVacio=ON; 
0CE70:  BSF    x89.3
....................                 
....................             if(PresionCamara>NivelVacio && PulsoPositivo==10){//Pulso Negativo 
0CE72:  MOVLB  1
0CE74:  MOVF   xEC,F
0CE76:  BNZ   CE80
0CE78:  MOVF   xEB,W
0CE7A:  MOVLB  2
0CE7C:  SUBWF  x12,W
0CE7E:  BC    CEF2
0CE80:  MOVLB  2
0CE82:  MOVF   x14,W
0CE84:  SUBLW  0A
0CE86:  BNZ   CEF2
....................                flag_vacio=1; 
0CE88:  MOVLB  0
0CE8A:  BSF    x89.7
....................                if(CalderinLleno) 
0CE8C:  BTFSS  x86.0
0CE8E:  BRA    CE96
....................                   BombaVacio_on; 
0CE90:  BSF    F8C.5
0CE92:  BCF    F95.5
....................                else 
0CE94:  BRA    CE9A
....................                   BombaVacio_off; 
0CE96:  BCF    F8C.5
0CE98:  BCF    F95.5
....................                Vacio_on; 
0CE9A:  BSF    F8C.2
0CE9C:  BCF    F95.2
....................                Desfogue_off; 
0CE9E:  BCF    F8C.3
0CEA0:  BCF    F95.3
....................                Aire_off;                      
0CEA2:  BCF    F8C.4
0CEA4:  BCF    F95.4
....................                Paso_off; 
0CEA6:  BCF    F8C.1
0CEA8:  BCF    F95.1
....................                Agua_on; 
0CEAA:  BSF    F8C.6
0CEAC:  BCF    F95.6
....................                printf("Funcionamiento.t5f.txt=\" Pulso de Vacio %u\"",PulsosVacio); 
0CEAE:  MOVLW  22
0CEB0:  MOVWF  FF6
0CEB2:  MOVLW  18
0CEB4:  MOVWF  FF7
0CEB6:  MOVLW  00
0CEB8:  MOVWF  FF8
0CEBA:  MOVLW  28
0CEBC:  MOVLB  6
0CEBE:  MOVWF  x27
0CEC0:  MOVLB  0
0CEC2:  CALL   543C
0CEC6:  MOVFF  215,627
0CECA:  MOVLW  1B
0CECC:  MOVLB  6
0CECE:  MOVWF  x28
0CED0:  MOVLB  0
0CED2:  CALL   54C0
0CED6:  MOVLW  22
0CED8:  BTFSS  F9E.4
0CEDA:  BRA    CED8
0CEDC:  MOVWF  FAD
....................                SendDataDisplay(); 
0CEDE:  CALL   3EE4
....................                if(flag_pulso==0){ 
0CEE2:  BTFSC  x8A.0
0CEE4:  BRA    CEEE
....................                   PulsosVacio++; 
0CEE6:  MOVLB  2
0CEE8:  INCF   x15,F
....................                   flag_pulso=1; 
0CEEA:  MOVLB  0
0CEEC:  BSF    x8A.0
....................                } 
....................             }else{ 
0CEEE:  BRA    CEF6
0CEF0:  MOVLB  2
....................                PulsoPositivo=5; 
0CEF2:  MOVLW  05
0CEF4:  MOVWF  x14
....................             } 
....................              
....................             if(PulsosVacio>=CantidadPulsos && PulsoPositivo==5){//Si realiza los pulsos de vacio, continua con el proceso de calentamiento 
0CEF6:  MOVLB  1
0CEF8:  MOVF   xD8,F
0CEFA:  BNZ   CF3E
0CEFC:  MOVF   xD7,W
0CEFE:  MOVLB  2
0CF00:  SUBWF  x15,W
0CF02:  BTFSC  FD8.0
0CF04:  BRA    CF0A
0CF06:  MOVLB  1
0CF08:  BRA    CF3E
0CF0A:  MOVF   x14,W
0CF0C:  SUBLW  05
0CF0E:  BTFSC  FD8.2
0CF10:  BRA    CF16
0CF12:  MOVLB  1
0CF14:  BRA    CF3E
....................                Vacio=ON; 
0CF16:  MOVLB  0
0CF18:  BSF    x89.5
....................                Vacio_off; 
0CF1A:  BCF    F8C.2
0CF1C:  BCF    F95.2
....................                BombaVacio_off; 
0CF1E:  BCF    F8C.5
0CF20:  BCF    F95.5
....................                Vacio_off; 
0CF22:  BCF    F8C.2
0CF24:  BCF    F95.2
....................                Desfogue_off; 
0CF26:  BCF    F8C.3
0CF28:  BCF    F95.3
....................                Aire_off;                                  
0CF2A:  BCF    F8C.4
0CF2C:  BCF    F95.4
....................                IniciaVacio=OFF; 
0CF2E:  BCF    x89.3
....................                Paso_on; 
0CF30:  BSF    F8C.1
0CF32:  BCF    F95.1
....................                Agua_off; 
0CF34:  BCF    F8C.6
0CF36:  BCF    F95.6
....................                PulsoPositivo=10; 
0CF38:  MOVLW  0A
0CF3A:  MOVLB  2
0CF3C:  MOVWF  x14
....................             } 
....................                
....................             if(PulsoPositivo==5){//Pulso Positivo 
0CF3E:  MOVLB  2
0CF40:  MOVF   x14,W
0CF42:  SUBLW  05
0CF44:  BNZ   CFC8
....................                tvacio=0; 
0CF46:  MOVLB  1
0CF48:  CLRF   xF4
0CF4A:  CLRF   xF3
....................                flag_pulso=0; 
0CF4C:  MOVLB  0
0CF4E:  BCF    x8A.0
....................                printf("Funcionamiento.t5f.txt=\" Pulso Positivo %u\"",PulsosVacio+1); 
0CF50:  MOVLW  01
0CF52:  MOVLB  2
0CF54:  ADDWF  x15,W
0CF56:  MOVLB  6
0CF58:  MOVWF  x22
0CF5A:  MOVLW  4E
0CF5C:  MOVWF  FF6
0CF5E:  MOVLW  18
0CF60:  MOVWF  FF7
0CF62:  MOVLW  00
0CF64:  MOVWF  FF8
0CF66:  MOVLW  28
0CF68:  MOVWF  x27
0CF6A:  MOVLB  0
0CF6C:  CALL   543C
0CF70:  MOVFF  622,627
0CF74:  MOVLW  1B
0CF76:  MOVLB  6
0CF78:  MOVWF  x28
0CF7A:  MOVLB  0
0CF7C:  CALL   54C0
0CF80:  MOVLW  22
0CF82:  BTFSS  F9E.4
0CF84:  BRA    CF82
0CF86:  MOVWF  FAD
....................                SendDataDisplay(); 
0CF88:  CALL   3EE4
....................                if(CalderinLleno) 
0CF8C:  BTFSS  x86.0
0CF8E:  BRA    CF96
....................                   BombaVacio_on; 
0CF90:  BSF    F8C.5
0CF92:  BCF    F95.5
....................                else 
0CF94:  BRA    CF9A
....................                   BombaVacio_off; 
0CF96:  BCF    F8C.5
0CF98:  BCF    F95.5
....................                Vacio_off; 
0CF9A:  BCF    F8C.2
0CF9C:  BCF    F95.2
....................                Desfogue_off; 
0CF9E:  BCF    F8C.3
0CFA0:  BCF    F95.3
....................                Aire_off;                      
0CFA2:  BCF    F8C.4
0CFA4:  BCF    F95.4
....................                Paso_on;      
0CFA6:  BSF    F8C.1
0CFA8:  BCF    F95.1
....................                Agua_on; 
0CFAA:  BSF    F8C.6
0CFAC:  BCF    F95.6
....................                if(PresionCamara>=Atmosferica+25){ 
0CFAE:  MOVLW  19
0CFB0:  MOVLB  2
0CFB2:  ADDWF  x13,W
0CFB4:  MOVLB  1
0CFB6:  MOVF   xEC,F
0CFB8:  BNZ   CFBE
0CFBA:  SUBWF  xEB,W
0CFBC:  BNC   CFCA
....................                   Paso_off; 
0CFBE:  BCF    F8C.1
0CFC0:  BCF    F95.1
....................                   PulsoPositivo=10; 
0CFC2:  MOVLW  0A
0CFC4:  MOVLB  2
0CFC6:  MOVWF  x14
0CFC8:  MOVLB  1
....................                }   
....................             } 
....................                 
....................             if(tbomba>=120 && PulsosVacio==0){//Si no se ha generado ningun pulso de vacio despues de 120 segundos se genera alarma 
0CFCA:  MOVF   xF2,F
0CFCC:  BNZ   CFD4
0CFCE:  MOVF   xF1,W
0CFD0:  SUBLW  77
0CFD2:  BC    D002
0CFD4:  MOVLB  2
0CFD6:  MOVF   x15,F
0CFD8:  BTFSC  FD8.2
0CFDA:  BRA    CFE0
0CFDC:  MOVLB  1
0CFDE:  BRA    D002
....................                if(PresionCamara>Atmosferica){ 
0CFE0:  MOVLB  1
0CFE2:  MOVF   xEC,F
0CFE4:  BNZ   CFF0
0CFE6:  MOVF   xEB,W
0CFE8:  MOVLB  2
0CFEA:  SUBWF  x13,W
0CFEC:  BC    CFF8
0CFEE:  MOVLB  1
....................                   AlarmaBomba=ON; 
0CFF0:  MOVLB  0
0CFF2:  BSF    x82.6
....................                }else{ 
0CFF4:  BRA    D002
0CFF6:  MOVLB  2
....................                   tbomba=0; 
0CFF8:  MOVLB  1
0CFFA:  CLRF   xF2
0CFFC:  CLRF   xF1
....................                   IniciaVacio2=OFF; 
0CFFE:  MOVLB  0
0D000:  BCF    x89.4
....................                } 
....................              } 
....................                 
....................             if(tvacio>=TiempoVacio){//Si excede el tiempo maximo para generar los pulsos de vacio genera alarma             
0D002:  MOVLB  0
0D004:  MOVF   x85,W
0D006:  MOVLB  1
0D008:  SUBWF  xF4,W
0D00A:  BNC   D01E
0D00C:  BNZ   D018
0D00E:  MOVLB  0
0D010:  MOVF   x84,W
0D012:  MOVLB  1
0D014:  SUBWF  xF3,W
0D016:  BNC   D01E
....................                AlarmaVacio=ON; 
0D018:  MOVLB  0
0D01A:  BSF    x82.5
0D01C:  MOVLB  1
....................             } 
....................          }else{ 
0D01E:  BRA    D576
0D020:  MOVLB  0
....................             IniciaVacio=OFF;         
0D022:  BCF    x89.3
....................             if(Temperatura>=((float)Setpoint-0.3)){ 
0D024:  MOVLB  6
0D026:  CLRF   x38
0D028:  MOVFF  1D9,637
0D02C:  MOVLB  0
0D02E:  CALL   1F00
0D032:  MOVFF  00,622
0D036:  MOVFF  01,623
0D03A:  MOVFF  02,624
0D03E:  MOVFF  03,625
0D042:  BSF    FD8.1
0D044:  MOVFF  03,63D
0D048:  MOVFF  02,63C
0D04C:  MOVFF  01,63B
0D050:  MOVFF  00,63A
0D054:  MOVLW  9A
0D056:  MOVLB  6
0D058:  MOVWF  x41
0D05A:  MOVLW  99
0D05C:  MOVWF  x40
0D05E:  MOVLW  19
0D060:  MOVWF  x3F
0D062:  MOVLW  7D
0D064:  MOVWF  x3E
0D066:  MOVLB  0
0D068:  CALL   20BC
0D06C:  MOVFF  03,629
0D070:  MOVFF  02,628
0D074:  MOVFF  01,627
0D078:  MOVFF  00,626
0D07C:  MOVFF  1B6,62D
0D080:  MOVFF  1B5,62C
0D084:  MOVFF  1B4,62B
0D088:  MOVFF  1B3,62A
0D08C:  CALL   2592
0D090:  BC    D094
0D092:  BNZ   D096
....................                Esterilizando=ON; 
0D094:  BSF    x83.3
....................             } 
....................              
....................             if(Temperatura<((float)Setpoint-0.9) && !Desfogando){ 
0D096:  MOVLB  6
0D098:  CLRF   x38
0D09A:  MOVFF  1D9,637
0D09E:  MOVLB  0
0D0A0:  CALL   1F00
0D0A4:  MOVFF  00,622
0D0A8:  MOVFF  01,623
0D0AC:  MOVFF  02,624
0D0B0:  MOVFF  03,625
0D0B4:  BSF    FD8.1
0D0B6:  MOVFF  03,63D
0D0BA:  MOVFF  02,63C
0D0BE:  MOVFF  01,63B
0D0C2:  MOVFF  00,63A
0D0C6:  MOVLW  66
0D0C8:  MOVLB  6
0D0CA:  MOVWF  x41
0D0CC:  MOVWF  x40
0D0CE:  MOVWF  x3F
0D0D0:  MOVLW  7E
0D0D2:  MOVWF  x3E
0D0D4:  MOVLB  0
0D0D6:  CALL   20BC
0D0DA:  MOVFF  1B6,629
0D0DE:  MOVFF  1B5,628
0D0E2:  MOVFF  1B4,627
0D0E6:  MOVFF  1B3,626
0D0EA:  MOVFF  03,62D
0D0EE:  MOVFF  02,62C
0D0F2:  MOVFF  01,62B
0D0F6:  MOVFF  00,62A
0D0FA:  CALL   2592
0D0FE:  BNC   D106
0D100:  BTFSC  x83.6
0D102:  BRA    D106
....................                Esterilizando=OFF; 
0D104:  BCF    x83.3
....................             } 
....................              
....................             if(!Esterilizando){ 
0D106:  BTFSC  x83.3
0D108:  BRA    D172
....................                codigoAlarma=12; 
0D10A:  MOVLW  0C
0D10C:  MOVLB  2
0D10E:  MOVWF  x02
....................                if(codigoAnt!=codigoAlarma){ 
0D110:  MOVF   x02,W
0D112:  SUBWF  x03,W
0D114:  BZ    D120
....................                   codigoAnt=codigoAlarma; 
0D116:  MOVFF  202,203
....................                   GuardaDatoCiclo();                   
0D11A:  MOVLB  0
0D11C:  CALL   6760
....................                } 
....................                flag_vac=OFF; 
0D120:  MOVLB  0
0D122:  BCF    x89.6
....................                printf("Funcionamiento.t4f.txt=\" Ninguna\""); 
0D124:  MOVLW  7A
0D126:  MOVWF  FF6
0D128:  MOVLW  18
0D12A:  MOVWF  FF7
0D12C:  MOVLW  00
0D12E:  MOVWF  FF8
0D130:  CALL   3EB2
....................                SendDataDisplay(); 
0D134:  CALL   3EE4
....................                printf("Funcionamiento.t5f.txt=\" Calentando\""); 
0D138:  MOVLW  9C
0D13A:  MOVWF  FF6
0D13C:  MOVLW  18
0D13E:  MOVWF  FF7
0D140:  MOVLW  00
0D142:  MOVWF  FF8
0D144:  CALL   3EB2
....................                SendDataDisplay(); 
0D148:  CALL   3EE4
....................                Control=1; 
0D14C:  MOVLW  01
0D14E:  MOVLB  1
0D150:  MOVWF  xC7
....................                Controla(); 
0D152:  MOVLB  0
0D154:  CALL   6BB8
....................                Paso_on; 
0D158:  BSF    F8C.1
0D15A:  BCF    F95.1
....................                BombaVacio_off; 
0D15C:  BCF    F8C.5
0D15E:  BCF    F95.5
....................                Vacio_off; 
0D160:  BCF    F8C.2
0D162:  BCF    F95.2
....................                Aire_off; 
0D164:  BCF    F8C.4
0D166:  BCF    F95.4
....................                Desfogue_off; 
0D168:  BCF    F8C.3
0D16A:  BCF    F95.3
....................                Agua_off; 
0D16C:  BCF    F8C.6
0D16E:  BCF    F95.6
....................             }else{ 
0D170:  BRA    D574
....................                TiempoCiclo=0; 
0D172:  CLRF   x8C
0D174:  CLRF   x8B
....................                if((Testerilizacion[0]==0)&&(Testerilizacion[1]==0)&& 
....................                (Testerilizacion[2]==0)&&(Testerilizacion[3]==0)){  
0D176:  MOVF   x95,F
0D178:  BTFSS  FD8.2
0D17A:  BRA    D526
0D17C:  MOVF   x96,F
0D17E:  BTFSS  FD8.2
0D180:  BRA    D526
0D182:  MOVF   x97,F
0D184:  BTFSS  FD8.2
0D186:  BRA    D526
0D188:  MOVF   x98,F
0D18A:  BTFSS  FD8.2
0D18C:  BRA    D526
....................                   if(desfoguelento){ 
0D18E:  BTFSS  x8A.2
0D190:  BRA    D2CE
....................                      Controlando=0; 
0D192:  MOVLB  1
0D194:  CLRF   xC9
....................                      if(PresionCamara<(Atmosferica+2)){ 
0D196:  MOVLW  02
0D198:  MOVLB  2
0D19A:  ADDWF  x13,W
0D19C:  MOVLB  1
0D19E:  MOVF   xEC,F
0D1A0:  BNZ   D254
0D1A2:  SUBWF  xEB,W
0D1A4:  BC    D254
....................                         Secando=OFF; 
0D1A6:  MOVLB  0
0D1A8:  BCF    x83.4
....................                         DesfogueSuave=OFF; 
0D1AA:  BCF    x83.7
....................                         BombaVacio_off; 
0D1AC:  BCF    F8C.5
0D1AE:  BCF    F95.5
....................                         Vacio_off; 
0D1B0:  BCF    F8C.2
0D1B2:  BCF    F95.2
....................                         Aire_off; 
0D1B4:  BCF    F8C.4
0D1B6:  BCF    F95.4
....................                         Desfogue_on; 
0D1B8:  BSF    F8C.3
0D1BA:  BCF    F95.3
....................                         Paso_off; 
0D1BC:  BCF    F8C.1
0D1BE:  BCF    F95.1
....................                         Suministro_off; 
0D1C0:  BCF    F8C.0
0D1C2:  BCF    F95.0
....................                         Agua_off; 
0D1C4:  BCF    F8C.6
0D1C6:  BCF    F95.6
....................                         if(Temperatura<=Tapertura){ 
0D1C8:  MOVLB  6
0D1CA:  CLRF   x38
0D1CC:  MOVFF  1D6,637
0D1D0:  MOVLB  0
0D1D2:  CALL   1F00
0D1D6:  MOVFF  1B6,629
0D1DA:  MOVFF  1B5,628
0D1DE:  MOVFF  1B4,627
0D1E2:  MOVFF  1B3,626
0D1E6:  MOVFF  03,62D
0D1EA:  MOVFF  02,62C
0D1EE:  MOVFF  01,62B
0D1F2:  MOVFF  00,62A
0D1F6:  CALL   2592
0D1FA:  BC    D1FE
0D1FC:  BNZ   D24A
....................                            ActivaAlarma(2); 
0D1FE:  MOVLW  02
0D200:  MOVLB  6
0D202:  MOVWF  x22
0D204:  MOVLB  0
0D206:  CALL   5358
....................                            printf("Funcionamiento.t4f.txt=\" Ninguna\""); 
0D20A:  MOVLW  C2
0D20C:  MOVWF  FF6
0D20E:  MOVLW  18
0D210:  MOVWF  FF7
0D212:  MOVLW  00
0D214:  MOVWF  FF8
0D216:  CALL   3EB2
....................                            SendDataDisplay(); 
0D21A:  CALL   3EE4
....................                            printf("Funcionamiento.t5f.txt=\" Finalizado\""); 
0D21E:  MOVLW  E4
0D220:  MOVWF  FF6
0D222:  MOVLW  18
0D224:  MOVWF  FF7
0D226:  MOVLW  00
0D228:  MOVWF  FF8
0D22A:  CALL   3EB2
....................                            SendDataDisplay(); 
0D22E:  CALL   3EE4
....................                            Finalizo=ON; 
0D232:  BSF    x88.3
....................                            codigoAlarma=14; 
0D234:  MOVLW  0E
0D236:  MOVLB  2
0D238:  MOVWF  x02
....................                               if(codigoAnt!=codigoAlarma){ 
0D23A:  MOVF   x02,W
0D23C:  SUBWF  x03,W
0D23E:  BZ    D24C
....................                                  codigoAnt=codigoAlarma; 
0D240:  MOVFF  202,203
....................                                  GuardaDatoCiclo();                   
0D244:  MOVLB  0
0D246:  CALL   6760
0D24A:  MOVLB  2
....................                               }                           
....................                         } 
....................                         incrementaCiclos(); 
0D24C:  MOVLB  0
0D24E:  CALL   6B04
....................                      }else if(PresionCamara>(Atmosferica+10)){ 
0D252:  BRA    D2CC
0D254:  MOVLW  0A
0D256:  MOVLB  2
0D258:  ADDWF  x13,W
0D25A:  MOVLB  1
0D25C:  MOVF   xEC,F
0D25E:  BNZ   D266
0D260:  SUBWF  xEB,W
0D262:  BZ    D2CA
0D264:  BNC   D2CA
....................                         codigoAlarma=13; 
0D266:  MOVLW  0D
0D268:  MOVLB  2
0D26A:  MOVWF  x02
....................                         if(codigoAnt!=codigoAlarma){ 
0D26C:  MOVF   x02,W
0D26E:  SUBWF  x03,W
0D270:  BZ    D27C
....................                            codigoAnt=codigoAlarma; 
0D272:  MOVFF  202,203
....................                            GuardaDatoCiclo();                   
0D276:  MOVLB  0
0D278:  CALL   6760
....................                         } 
....................                         Desfogando=ON; 
0D27C:  MOVLB  0
0D27E:  BSF    x83.6
....................                         DesfogueSuave=ON; 
0D280:  BSF    x83.7
....................                         printf("Funcionamiento.t4f.txt=\" Ninguna\""); 
0D282:  MOVLW  0A
0D284:  MOVWF  FF6
0D286:  MOVLW  19
0D288:  MOVWF  FF7
0D28A:  MOVLW  00
0D28C:  MOVWF  FF8
0D28E:  CALL   3EB2
....................                         SendDataDisplay(); 
0D292:  CALL   3EE4
....................                         printf("Funcionamiento.t5f.txt=\" Despresurizando\""); 
0D296:  MOVLW  2C
0D298:  MOVWF  FF6
0D29A:  MOVLW  19
0D29C:  MOVWF  FF7
0D29E:  MOVLW  00
0D2A0:  MOVWF  FF8
0D2A2:  CALL   3EB2
....................                         SendDataDisplay(); 
0D2A6:  CALL   3EE4
....................                         Control=0; 
0D2AA:  MOVLB  1
0D2AC:  CLRF   xC7
....................                         Desfogue_on; 
0D2AE:  BSF    F8C.3
0D2B0:  BCF    F95.3
....................                         Paso_on; 
0D2B2:  BSF    F8C.1
0D2B4:  BCF    F95.1
....................                         BombaVacio_off; 
0D2B6:  BCF    F8C.5
0D2B8:  BCF    F95.5
....................                         Agua_off; 
0D2BA:  BCF    F8C.6
0D2BC:  BCF    F95.6
....................                         Vacio_off; 
0D2BE:  BCF    F8C.2
0D2C0:  BCF    F95.2
....................                         Aire_off;  
0D2C2:  BCF    F8C.4
0D2C4:  BCF    F95.4
....................                         Suministro_off; 
0D2C6:  BCF    F8C.0
0D2C8:  BCF    F95.0
0D2CA:  MOVLB  0
....................                      } 
....................                   }else{                      
0D2CC:  BRA    D520
....................                      Paso_off; 
0D2CE:  BCF    F8C.1
0D2D0:  BCF    F95.1
....................                      Controlando=0; 
0D2D2:  MOVLB  1
0D2D4:  CLRF   xC9
....................                      Control=0; 
0D2D6:  CLRF   xC7
....................                      if(PresionCamara<(Atmosferica+2)){   
0D2D8:  MOVLW  02
0D2DA:  MOVLB  2
0D2DC:  ADDWF  x13,W
0D2DE:  MOVLB  1
0D2E0:  MOVF   xEC,F
0D2E2:  BTFSS  FD8.2
0D2E4:  BRA    D49E
0D2E6:  SUBWF  xEB,W
0D2E8:  BTFSC  FD8.0
0D2EA:  BRA    D49E
....................                         if((Tsecado[0]==0)&&(Tsecado[1]==0)&&(Tsecado[2]==0)&&(Tsecado[3]==0)){                           
0D2EC:  MOVLB  0
0D2EE:  MOVF   x9D,F
0D2F0:  BTFSS  FD8.2
0D2F2:  BRA    D3E2
0D2F4:  MOVF   x9E,F
0D2F6:  BTFSS  FD8.2
0D2F8:  BRA    D3E2
0D2FA:  MOVF   x9F,F
0D2FC:  BTFSS  FD8.2
0D2FE:  BRA    D3E2
0D300:  MOVF   xA0,F
0D302:  BNZ   D3E2
....................                            codigoAlarma=15; 
0D304:  MOVLW  0F
0D306:  MOVLB  2
0D308:  MOVWF  x02
....................                            if(codigoAnt!=codigoAlarma){ 
0D30A:  MOVF   x02,W
0D30C:  SUBWF  x03,W
0D30E:  BZ    D31C
....................                               codigoAnt=codigoAlarma; 
0D310:  MOVFF  202,203
....................                               GuardaDatoCiclo();                   
0D314:  MOVLB  0
0D316:  CALL   6760
0D31A:  MOVLB  2
....................                            } 
....................                            if(!DOOR){ 
0D31C:  BSF    F93.1
0D31E:  BTFSS  F81.1
0D320:  BRA    D32C
....................                               Desfogue_off; 
0D322:  BCF    F8C.3
0D324:  BCF    F95.3
....................                               Paso_off; 
0D326:  BCF    F8C.1
0D328:  BCF    F95.1
....................                            }else{ 
0D32A:  BRA    D334
....................                               Desfogue_on;                               
0D32C:  BSF    F8C.3
0D32E:  BCF    F95.3
....................                               Paso_off; 
0D330:  BCF    F8C.1
0D332:  BCF    F95.1
....................                            }     
....................                            BombaVacio_off; 
0D334:  BCF    F8C.5
0D336:  BCF    F95.5
....................                            Agua_off; 
0D338:  BCF    F8C.6
0D33A:  BCF    F95.6
....................                            Vacio_off; 
0D33C:  BCF    F8C.2
0D33E:  BCF    F95.2
....................                            Aire_on; 
0D340:  BSF    F8C.4
0D342:  BCF    F95.4
....................                            Desfogue_on; 
0D344:  BSF    F8C.3
0D346:  BCF    F95.3
....................                            Paso_off; 
0D348:  BCF    F8C.1
0D34A:  BCF    F95.1
....................                            Suministro_off; 
0D34C:  BCF    F8C.0
0D34E:  BCF    F95.0
....................                            Secando=OFF; 
0D350:  MOVLB  0
0D352:  BCF    x83.4
....................                            if(Temperatura<=Tapertura){ 
0D354:  MOVLB  6
0D356:  CLRF   x38
0D358:  MOVFF  1D6,637
0D35C:  MOVLB  0
0D35E:  CALL   1F00
0D362:  MOVFF  1B6,629
0D366:  MOVFF  1B5,628
0D36A:  MOVFF  1B4,627
0D36E:  MOVFF  1B3,626
0D372:  MOVFF  03,62D
0D376:  MOVFF  02,62C
0D37A:  MOVFF  01,62B
0D37E:  MOVFF  00,62A
0D382:  CALL   2592
0D386:  BC    D38A
0D388:  BNZ   D3D6
....................                               ActivaAlarma(2); 
0D38A:  MOVLW  02
0D38C:  MOVLB  6
0D38E:  MOVWF  x22
0D390:  MOVLB  0
0D392:  CALL   5358
....................                               printf("Funcionamiento.t4f.txt=\" Ninguna\""); 
0D396:  MOVLW  56
0D398:  MOVWF  FF6
0D39A:  MOVLW  19
0D39C:  MOVWF  FF7
0D39E:  MOVLW  00
0D3A0:  MOVWF  FF8
0D3A2:  CALL   3EB2
....................                               SendDataDisplay(); 
0D3A6:  CALL   3EE4
....................                               printf("Funcionamiento.t5f.txt=\" Finalizado\""); 
0D3AA:  MOVLW  78
0D3AC:  MOVWF  FF6
0D3AE:  MOVLW  19
0D3B0:  MOVWF  FF7
0D3B2:  MOVLW  00
0D3B4:  MOVWF  FF8
0D3B6:  CALL   3EB2
....................                               SendDataDisplay(); 
0D3BA:  CALL   3EE4
....................                               Finalizo=ON; 
0D3BE:  BSF    x88.3
....................                               codigoAlarma=14; 
0D3C0:  MOVLW  0E
0D3C2:  MOVLB  2
0D3C4:  MOVWF  x02
....................                               if(codigoAnt!=codigoAlarma){ 
0D3C6:  MOVF   x02,W
0D3C8:  SUBWF  x03,W
0D3CA:  BZ    D3D8
....................                                  codigoAnt=codigoAlarma; 
0D3CC:  MOVFF  202,203
....................                                  GuardaDatoCiclo();                   
0D3D0:  MOVLB  0
0D3D2:  CALL   6760
0D3D6:  MOVLB  2
....................                               } 
....................                            } 
....................                            incrementaCiclos(); 
0D3D8:  MOVLB  0
0D3DA:  CALL   6B04
....................                            Secando=OFF; 
0D3DE:  BCF    x83.4
....................                         }else{ 
0D3E0:  BRA    D49A
....................                            if(Secando){ 
0D3E2:  BTFSS  x83.4
0D3E4:  BRA    D40E
....................                               printf("Funcionamiento.t4f.txt=\" Ninguna\""); 
0D3E6:  MOVLW  9E
0D3E8:  MOVWF  FF6
0D3EA:  MOVLW  19
0D3EC:  MOVWF  FF7
0D3EE:  MOVLW  00
0D3F0:  MOVWF  FF8
0D3F2:  CALL   3EB2
....................                               SendDataDisplay(); 
0D3F6:  CALL   3EE4
....................                               printf("Funcionamiento.t5f.txt=\" Secando\""); 
0D3FA:  MOVLW  C0
0D3FC:  MOVWF  FF6
0D3FE:  MOVLW  19
0D400:  MOVWF  FF7
0D402:  MOVLW  00
0D404:  MOVWF  FF8
0D406:  CALL   3EB2
....................                               SendDataDisplay(); 
0D40A:  CALL   3EE4
....................                            } 
....................                            Paso_off; 
0D40E:  BCF    F8C.1
0D410:  BCF    F95.1
....................                            ControlaPresion(); 
0D412:  CALL   6B90
....................                            if(PresionCamara>NivelVacio+5){//Si la presin de la camara es mayor al nivel de vacio 
0D416:  MOVLW  05
0D418:  MOVLB  2
0D41A:  ADDWF  x12,W
0D41C:  MOVLB  1
0D41E:  MOVF   xEC,F
0D420:  BNZ   D428
0D422:  SUBWF  xEB,W
0D424:  BZ    D44E
0D426:  BNC   D44E
....................                               if(CalderinLleno) 
0D428:  MOVLB  0
0D42A:  BTFSS  x86.0
0D42C:  BRA    D434
....................                                  BombaVacio_on; 
0D42E:  BSF    F8C.5
0D430:  BCF    F95.5
....................                               else 
0D432:  BRA    D438
....................                                  BombaVacio_off; 
0D434:  BCF    F8C.5
0D436:  BCF    F95.5
....................                               Vacio_on; 
0D438:  BSF    F8C.2
0D43A:  BCF    F95.2
....................                               Agua_on; 
0D43C:  BSF    F8C.6
0D43E:  BCF    F95.6
....................                               Desfogue_off; 
0D440:  BCF    F8C.3
0D442:  BCF    F95.3
....................                               Aire_off; 
0D444:  BCF    F8C.4
0D446:  BCF    F95.4
....................                               Paso_off; 
0D448:  BCF    F8C.1
0D44A:  BCF    F95.1
0D44C:  MOVLB  1
....................                            } 
....................        
....................                            if(PresionCamara<=NivelVacio){//Si alcanzo el nivel de vacio requerido 
0D44E:  MOVF   xEC,F
0D450:  BNZ   D49C
0D452:  MOVF   xEB,W
0D454:  MOVLB  2
0D456:  SUBWF  x12,W
0D458:  BTFSC  FD8.0
0D45A:  BRA    D460
0D45C:  MOVLB  1
0D45E:  BRA    D49C
....................                               codigoAlarma=15; 
0D460:  MOVLW  0F
0D462:  MOVWF  x02
....................                               if(codigoAnt!=codigoAlarma){ 
0D464:  MOVF   x02,W
0D466:  SUBWF  x03,W
0D468:  BZ    D474
....................                                  codigoAnt=codigoAlarma; 
0D46A:  MOVFF  202,203
....................                                  GuardaDatoCiclo();                   
0D46E:  MOVLB  0
0D470:  CALL   6760
....................                               } 
....................                               Secando=ON; 
0D474:  MOVLB  0
0D476:  BSF    x83.4
....................                               if(CalderinLleno) 
0D478:  BTFSS  x86.0
0D47A:  BRA    D482
....................                                  BombaVacio_on; 
0D47C:  BSF    F8C.5
0D47E:  BCF    F95.5
....................                               else 
0D480:  BRA    D486
....................                                  BombaVacio_off; 
0D482:  BCF    F8C.5
0D484:  BCF    F95.5
....................                               Agua_on; 
0D486:  BSF    F8C.6
0D488:  BCF    F95.6
....................                               Vacio_on; 
0D48A:  BSF    F8C.2
0D48C:  BCF    F95.2
....................                               Desfogue_off; 
0D48E:  BCF    F8C.3
0D490:  BCF    F95.3
....................                               Aire_on;                      
0D492:  BSF    F8C.4
0D494:  BCF    F95.4
....................                               Paso_off; 
0D496:  BCF    F8C.1
0D498:  BCF    F95.1
0D49A:  MOVLB  1
....................                            } 
....................                         } 
....................                      }else if(PresionCamara>(Atmosferica+5)){ 
0D49C:  BRA    D522
0D49E:  MOVLW  05
0D4A0:  MOVLB  2
0D4A2:  ADDWF  x13,W
0D4A4:  MOVLB  1
0D4A6:  MOVF   xEC,F
0D4A8:  BNZ   D4B0
0D4AA:  SUBWF  xEB,W
0D4AC:  BZ    D522
0D4AE:  BNC   D522
....................                         codigoAlarma=13; 
0D4B0:  MOVLW  0D
0D4B2:  MOVLB  2
0D4B4:  MOVWF  x02
....................                         if(codigoAnt!=codigoAlarma){ 
0D4B6:  MOVF   x02,W
0D4B8:  SUBWF  x03,W
0D4BA:  BZ    D4C6
....................                            codigoAnt=codigoAlarma; 
0D4BC:  MOVFF  202,203
....................                            GuardaDatoCiclo();                   
0D4C0:  MOVLB  0
0D4C2:  CALL   6760
....................                         } 
....................                         Desfogando=ON; 
0D4C6:  MOVLB  0
0D4C8:  BSF    x83.6
....................                         printf("Funcionamiento.t4f.txt=\" Ninguna\""); 
0D4CA:  MOVLW  E2
0D4CC:  MOVWF  FF6
0D4CE:  MOVLW  19
0D4D0:  MOVWF  FF7
0D4D2:  MOVLW  00
0D4D4:  MOVWF  FF8
0D4D6:  CALL   3EB2
....................                         SendDataDisplay(); 
0D4DA:  CALL   3EE4
....................                         printf("Funcionamiento.t5f.txt=\" Despresurizando\""); 
0D4DE:  MOVLW  04
0D4E0:  MOVWF  FF6
0D4E2:  MOVLW  1A
0D4E4:  MOVWF  FF7
0D4E6:  MOVLW  00
0D4E8:  MOVWF  FF8
0D4EA:  CALL   3EB2
....................                         SendDataDisplay(); 
0D4EE:  CALL   3EE4
....................                         Control=0; 
0D4F2:  MOVLB  1
0D4F4:  CLRF   xC7
....................                         Controlando=0; 
0D4F6:  CLRF   xC9
....................                         Paso_off; 
0D4F8:  BCF    F8C.1
0D4FA:  BCF    F95.1
....................                         Desfogue_off; 
0D4FC:  BCF    F8C.3
0D4FE:  BCF    F95.3
....................                         if(CalderinLleno) 
0D500:  MOVLB  0
0D502:  BTFSS  x86.0
0D504:  BRA    D50C
....................                            BombaVacio_on; 
0D506:  BSF    F8C.5
0D508:  BCF    F95.5
....................                         else 
0D50A:  BRA    D510
....................                            BombaVacio_off;    
0D50C:  BCF    F8C.5
0D50E:  BCF    F95.5
....................                         Agua_on; 
0D510:  BSF    F8C.6
0D512:  BCF    F95.6
....................                         Vacio_on; 
0D514:  BSF    F8C.2
0D516:  BCF    F95.2
....................                         Aire_off; 
0D518:  BCF    F8C.4
0D51A:  BCF    F95.4
....................                         Suministro_off; 
0D51C:  BCF    F8C.0
0D51E:  BCF    F95.0
0D520:  MOVLB  1
....................                      } 
....................                   } 
....................                }else{ 
0D522:  BRA    D576
0D524:  MOVLB  0
....................                   codigoAlarma=16; 
0D526:  MOVLW  10
0D528:  MOVLB  2
0D52A:  MOVWF  x02
....................                   if(codigoAnt!=codigoAlarma){ 
0D52C:  MOVF   x02,W
0D52E:  SUBWF  x03,W
0D530:  BZ    D53E
....................                      codigoAnt=codigoAlarma; 
0D532:  MOVFF  202,203
....................                      GuardaDatoCiclo();                   
0D536:  MOVLB  0
0D538:  CALL   6760
0D53C:  MOVLB  2
....................                   } 
....................                   printf("Funcionamiento.t4f.txt=\" Ninguna\""); 
0D53E:  MOVLW  2E
0D540:  MOVWF  FF6
0D542:  MOVLW  1A
0D544:  MOVWF  FF7
0D546:  MOVLW  00
0D548:  MOVWF  FF8
0D54A:  MOVLB  0
0D54C:  CALL   3EB2
....................                   SendDataDisplay(); 
0D550:  CALL   3EE4
....................                   printf("Funcionamiento.t5f.txt=\" Esterilizando\""); 
0D554:  MOVLW  50
0D556:  MOVWF  FF6
0D558:  MOVLW  1A
0D55A:  MOVWF  FF7
0D55C:  MOVLW  00
0D55E:  MOVWF  FF8
0D560:  CALL   3EB2
....................                   SendDataDisplay(); 
0D564:  CALL   3EE4
....................                   //Paso_on; 
....................                   Control=1; 
0D568:  MOVLW  01
0D56A:  MOVLB  1
0D56C:  MOVWF  xC7
....................                   Controla(); 
0D56E:  MOVLB  0
0D570:  CALL   6BB8
0D574:  MOVLB  1
0D576:  MOVLB  2
....................                } 
....................             } 
....................          } 
....................       }  
....................       }else{ 
0D578:  BRA    D770
0D57A:  MOVLB  0
....................       Buzzer_off; 
0D57C:  BCF    F8B.5
0D57E:  BCF    F94.5
....................       IniciaCiclo=ON; 
0D580:  BSF    x83.2
....................          if(!flag_vac){ 
0D582:  BTFSC  x89.6
0D584:  BRA    D5D4
....................             codigoAlarma=11; 
0D586:  MOVLW  0B
0D588:  MOVLB  2
0D58A:  MOVWF  x02
....................             if(codigoAnt!=codigoAlarma){ 
0D58C:  MOVF   x02,W
0D58E:  SUBWF  x03,W
0D590:  BZ    D59C
....................                codigoAnt=codigoAlarma; 
0D592:  MOVFF  202,203
....................                GuardaDatoCiclo();                
0D596:  MOVLB  0
0D598:  CALL   6760
....................             } 
....................             flag_vac=ON; 
0D59C:  MOVLB  0
0D59E:  BSF    x89.6
....................             if(CalderinLleno) 
0D5A0:  BTFSS  x86.0
0D5A2:  BRA    D5AA
....................                BombaVacio_on; 
0D5A4:  BSF    F8C.5
0D5A6:  BCF    F95.5
....................             else 
0D5A8:  BRA    D5AE
....................                BombaVacio_off; 
0D5AA:  BCF    F8C.5
0D5AC:  BCF    F95.5
....................             Desfogue_off; 
0D5AE:  BCF    F8C.3
0D5B0:  BCF    F95.3
....................             Aire_off; 
0D5B2:  BCF    F8C.4
0D5B4:  BCF    F95.4
....................             Agua_off; 
0D5B6:  BCF    F8C.6
0D5B8:  BCF    F95.6
....................             Paso_off; 
0D5BA:  BCF    F8C.1
0D5BC:  BCF    F95.1
....................             Suministro_off; 
0D5BE:  BCF    F8C.0
0D5C0:  BCF    F95.0
....................             delay_ms(70); 
0D5C2:  MOVLW  46
0D5C4:  MOVLB  6
0D5C6:  MOVWF  x37
0D5C8:  MOVLB  0
0D5CA:  CALL   1F36
....................             IniciaVacio2=ON; 
0D5CE:  BSF    x89.4
....................             Vacio_on; 
0D5D0:  BSF    F8C.2
0D5D2:  BCF    F95.2
....................          } 
....................           
....................          if(tbomba>=120){ 
0D5D4:  MOVLB  1
0D5D6:  MOVF   xF2,F
0D5D8:  BNZ   D5E0
0D5DA:  MOVF   xF1,W
0D5DC:  SUBLW  77
0D5DE:  BC    D600
....................             if(PresionCamara>Atmosferica){ 
0D5E0:  MOVF   xEC,F
0D5E2:  BNZ   D5EE
0D5E4:  MOVF   xEB,W
0D5E6:  MOVLB  2
0D5E8:  SUBWF  x13,W
0D5EA:  BC    D5F6
0D5EC:  MOVLB  1
....................                AlarmaBomba=ON; 
0D5EE:  MOVLB  0
0D5F0:  BSF    x82.6
....................             }else{ 
0D5F2:  BRA    D600
0D5F4:  MOVLB  2
....................                tbomba=0; 
0D5F6:  MOVLB  1
0D5F8:  CLRF   xF2
0D5FA:  CLRF   xF1
....................                IniciaVacio2=OFF; 
0D5FC:  MOVLB  0
0D5FE:  BCF    x89.4
....................             } 
....................          } 
....................           
....................          if(tvacio>=TiempoVacio){//Si excede el tiempo maximo para generar los pulsos de vacio genera alarma             
0D600:  MOVLB  0
0D602:  MOVF   x85,W
0D604:  MOVLB  1
0D606:  SUBWF  xF4,W
0D608:  BNC   D61C
0D60A:  BNZ   D616
0D60C:  MOVLB  0
0D60E:  MOVF   x84,W
0D610:  MOVLB  1
0D612:  SUBWF  xF3,W
0D614:  BNC   D61C
....................                AlarmaVacio=ON; 
0D616:  MOVLB  0
0D618:  BSF    x82.5
0D61A:  MOVLB  1
....................          } 
....................           
....................          if(PresionCamara<55){ 
0D61C:  MOVF   xEC,F
0D61E:  BNZ   D64E
0D620:  MOVF   xEB,W
0D622:  SUBLW  36
0D624:  BNC   D64E
....................             BombaVacio_off; 
0D626:  BCF    F8C.5
0D628:  BCF    F95.5
....................             Vacio_off; 
0D62A:  BCF    F8C.2
0D62C:  BCF    F95.2
....................             Desfogue_off; 
0D62E:  BCF    F8C.3
0D630:  BCF    F95.3
....................             Aire_off; 
0D632:  BCF    F8C.4
0D634:  BCF    F95.4
....................             Agua_off; 
0D636:  BCF    F8C.6
0D638:  BCF    F95.6
....................             Paso_off; 
0D63A:  BCF    F8C.1
0D63C:  BCF    F95.1
....................             Suministro_off; 
0D63E:  BCF    F8C.0
0D640:  BCF    F95.0
....................             Esterilizando=ON; 
0D642:  MOVLB  0
0D644:  BSF    x83.3
....................             IniciaVacio=OFF; 
0D646:  BCF    x89.3
....................             tbomba=0; 
0D648:  MOVLB  1
0D64A:  CLRF   xF2
0D64C:  CLRF   xF1
....................          }  
....................           
....................          if(!Esterilizando){ 
0D64E:  MOVLB  0
0D650:  BTFSC  x83.3
0D652:  BRA    D68A
....................             if(CalderinLleno) 
0D654:  BTFSS  x86.0
0D656:  BRA    D65E
....................                BombaVacio_on; 
0D658:  BSF    F8C.5
0D65A:  BCF    F95.5
....................             else 
0D65C:  BRA    D662
....................                BombaVacio_off; 
0D65E:  BCF    F8C.5
0D660:  BCF    F95.5
....................              
....................             printf("Funcionamiento.t4f.txt=\" Ninguna\""); 
0D662:  MOVLW  78
0D664:  MOVWF  FF6
0D666:  MOVLW  1A
0D668:  MOVWF  FF7
0D66A:  MOVLW  00
0D66C:  MOVWF  FF8
0D66E:  CALL   3EB2
....................             SendDataDisplay(); 
0D672:  CALL   3EE4
....................             printf("Funcionamiento.t5f.txt=\" Vacio\""); 
0D676:  MOVLW  9A
0D678:  MOVWF  FF6
0D67A:  MOVLW  1A
0D67C:  MOVWF  FF7
0D67E:  MOVLW  00
0D680:  MOVWF  FF8
0D682:  CALL   3EB2
....................             SendDataDisplay(); 
0D686:  CALL   3EE4
....................          } 
....................           
....................          if((Testerilizacion[0]==0)&&(Testerilizacion[1]==0)&&(Testerilizacion[2]==0)&&(Testerilizacion[3]==0)){                 
0D68A:  MOVF   x95,F
0D68C:  BTFSS  FD8.2
0D68E:  BRA    D76E
0D690:  MOVF   x96,F
0D692:  BNZ   D76E
0D694:  MOVF   x97,F
0D696:  BNZ   D76E
0D698:  MOVF   x98,F
0D69A:  BNZ   D76E
....................             IniciaVacio=OFF; 
0D69C:  BCF    x89.3
....................             tbomba=0; 
0D69E:  MOVLB  1
0D6A0:  CLRF   xF2
0D6A2:  CLRF   xF1
....................             BombaVacio_off; 
0D6A4:  BCF    F8C.5
0D6A6:  BCF    F95.5
....................             Vacio_off; 
0D6A8:  BCF    F8C.2
0D6AA:  BCF    F95.2
....................             Desfogue_off; 
0D6AC:  BCF    F8C.3
0D6AE:  BCF    F95.3
....................             Aire_on; 
0D6B0:  BSF    F8C.4
0D6B2:  BCF    F95.4
....................             Paso_off; 
0D6B4:  BCF    F8C.1
0D6B6:  BCF    F95.1
....................             Suministro_off; 
0D6B8:  BCF    F8C.0
0D6BA:  BCF    F95.0
....................             Agua_off; 
0D6BC:  BCF    F8C.6
0D6BE:  BCF    F95.6
....................             ActivaAlarma(2); 
0D6C0:  MOVLW  02
0D6C2:  MOVLB  6
0D6C4:  MOVWF  x22
0D6C6:  MOVLB  0
0D6C8:  CALL   5358
....................             if(!Finalizo){ 
0D6CC:  BTFSC  x88.3
0D6CE:  BRA    D764
....................                Finalizo=ON; 
0D6D0:  BSF    x88.3
....................                if(PresionCamara<=60){ 
0D6D2:  MOVLB  1
0D6D4:  MOVF   xEC,F
0D6D6:  BNZ   D724
0D6D8:  MOVF   xEB,W
0D6DA:  SUBLW  3C
0D6DC:  BNC   D724
....................                   printf("Funcionamiento.t4f.txt=\" Ninguna\""); 
0D6DE:  MOVLW  BA
0D6E0:  MOVWF  FF6
0D6E2:  MOVLW  1A
0D6E4:  MOVWF  FF7
0D6E6:  MOVLW  00
0D6E8:  MOVWF  FF8
0D6EA:  MOVLB  0
0D6EC:  CALL   3EB2
....................                   SendDataDisplay(); 
0D6F0:  CALL   3EE4
....................                   printf("Funcionamiento.t5f.txt=\" Finalizado\""); 
0D6F4:  MOVLW  DC
0D6F6:  MOVWF  FF6
0D6F8:  MOVLW  1A
0D6FA:  MOVWF  FF7
0D6FC:  MOVLW  00
0D6FE:  MOVWF  FF8
0D700:  CALL   3EB2
....................                   SendDataDisplay(); 
0D704:  CALL   3EE4
....................                   codigoAlarma=14; 
0D708:  MOVLW  0E
0D70A:  MOVLB  2
0D70C:  MOVWF  x02
....................                   if(codigoAnt!=codigoAlarma){ 
0D70E:  MOVF   x02,W
0D710:  SUBWF  x03,W
0D712:  BZ    D720
....................                      codigoAnt=codigoAlarma; 
0D714:  MOVFF  202,203
....................                      GuardaDatoCiclo();                   
0D718:  MOVLB  0
0D71A:  CALL   6760
0D71E:  MOVLB  2
....................                   } 
....................                }else{ 
0D720:  BRA    D766
0D722:  MOVLB  1
....................                   printf("Funcionamiento.t4f.txt=\" Error Ciclo\""); 
0D724:  MOVLW  02
0D726:  MOVWF  FF6
0D728:  MOVLW  1B
0D72A:  MOVWF  FF7
0D72C:  MOVLW  00
0D72E:  MOVWF  FF8
0D730:  MOVLB  0
0D732:  CALL   3EB2
....................                   SendDataDisplay(); 
0D736:  CALL   3EE4
....................                   printf("Funcionamiento.t5f.txt=\" Finalizado\""); 
0D73A:  MOVLW  28
0D73C:  MOVWF  FF6
0D73E:  MOVLW  1B
0D740:  MOVWF  FF7
0D742:  MOVLW  00
0D744:  MOVWF  FF8
0D746:  CALL   3EB2
....................                   SendDataDisplay(); 
0D74A:  CALL   3EE4
....................                   codigoAlarma=8; 
0D74E:  MOVLW  08
0D750:  MOVLB  2
0D752:  MOVWF  x02
....................                   if(codigoAnt!=codigoAlarma){ 
0D754:  MOVF   x02,W
0D756:  SUBWF  x03,W
0D758:  BZ    D766
....................                      codigoAnt=codigoAlarma; 
0D75A:  MOVFF  202,203
....................                      GuardaDatoCiclo();                   
0D75E:  MOVLB  0
0D760:  CALL   6760
0D764:  MOVLB  2
....................                   } 
....................                } 
....................             } 
....................             incrementaCiclos(); 
0D766:  MOVLB  0
0D768:  CALL   6B04
....................             Esterilizando=OFF; 
0D76C:  BCF    x83.3
0D76E:  MOVLB  2
....................          } 
....................       } 
....................    } 
....................  
....................    if(tguarda>=180){ 
0D770:  MOVLB  0
0D772:  MOVF   x94,F
0D774:  BNZ   D77C
0D776:  MOVF   x93,W
0D778:  SUBLW  B3
0D77A:  BC    D788
....................       if(!Ciclo) 
0D77C:  BTFSC  x86.6
0D77E:  BRA    D784
....................          GuardaDatoCiclo(); 
0D780:  CALL   6760
....................       tguarda=0; 
0D784:  CLRF   x94
0D786:  CLRF   x93
....................    } 
....................  
....................    if(Grafica==1){ 
0D788:  BTFSS  x8A.4
0D78A:  BRA    D8FC
....................       printf("add 14,0,%1.0f",Temperatura*0.66); 
0D78C:  MOVFF  1B6,63B
0D790:  MOVFF  1B5,63A
0D794:  MOVFF  1B4,639
0D798:  MOVFF  1B3,638
0D79C:  MOVLW  C3
0D79E:  MOVLB  6
0D7A0:  MOVWF  x3F
0D7A2:  MOVLW  F5
0D7A4:  MOVWF  x3E
0D7A6:  MOVLW  28
0D7A8:  MOVWF  x3D
0D7AA:  MOVLW  7E
0D7AC:  MOVWF  x3C
0D7AE:  MOVLB  0
0D7B0:  CALL   3F42
0D7B4:  MOVFF  00,622
0D7B8:  MOVFF  01,623
0D7BC:  MOVFF  02,624
0D7C0:  MOVFF  03,625
0D7C4:  MOVLW  4E
0D7C6:  MOVWF  FF6
0D7C8:  MOVLW  1B
0D7CA:  MOVWF  FF7
0D7CC:  MOVLW  00
0D7CE:  MOVWF  FF8
0D7D0:  MOVLW  09
0D7D2:  MOVLB  6
0D7D4:  MOVWF  x27
0D7D6:  MOVLB  0
0D7D8:  CALL   543C
0D7DC:  MOVLW  00
0D7DE:  MOVWF  FE9
0D7E0:  MOVFF  625,62A
0D7E4:  MOVFF  624,629
0D7E8:  MOVFF  623,628
0D7EC:  MOVFF  622,627
0D7F0:  MOVLB  6
0D7F2:  CLRF   x2B
0D7F4:  MOVLB  0
0D7F6:  CALL   570A
....................       SendDataDisplay(); 
0D7FA:  CALL   3EE4
....................       printf("add 14,1,%1.0f",PresionCamara*0.66); 
0D7FE:  MOVFF  1EC,638
0D802:  MOVFF  1EB,637
0D806:  CALL   1F00
0D80A:  MOVFF  03,63B
0D80E:  MOVFF  02,63A
0D812:  MOVFF  01,639
0D816:  MOVFF  00,638
0D81A:  MOVLW  C3
0D81C:  MOVLB  6
0D81E:  MOVWF  x3F
0D820:  MOVLW  F5
0D822:  MOVWF  x3E
0D824:  MOVLW  28
0D826:  MOVWF  x3D
0D828:  MOVLW  7E
0D82A:  MOVWF  x3C
0D82C:  MOVLB  0
0D82E:  CALL   3F42
0D832:  MOVFF  00,622
0D836:  MOVFF  01,623
0D83A:  MOVFF  02,624
0D83E:  MOVFF  03,625
0D842:  MOVLW  5E
0D844:  MOVWF  FF6
0D846:  MOVLW  1B
0D848:  MOVWF  FF7
0D84A:  MOVLW  00
0D84C:  MOVWF  FF8
0D84E:  MOVLW  09
0D850:  MOVLB  6
0D852:  MOVWF  x27
0D854:  MOVLB  0
0D856:  CALL   543C
0D85A:  MOVLW  00
0D85C:  MOVWF  FE9
0D85E:  MOVFF  625,62A
0D862:  MOVFF  624,629
0D866:  MOVFF  623,628
0D86A:  MOVFF  622,627
0D86E:  MOVLB  6
0D870:  CLRF   x2B
0D872:  MOVLB  0
0D874:  CALL   570A
....................       SendDataDisplay(); 
0D878:  CALL   3EE4
....................       printf("add 14,2,%1.0f",PresionPreCamara*0.66); 
0D87C:  MOVFF  1EE,638
0D880:  MOVFF  1ED,637
0D884:  CALL   1F00
0D888:  MOVFF  03,63B
0D88C:  MOVFF  02,63A
0D890:  MOVFF  01,639
0D894:  MOVFF  00,638
0D898:  MOVLW  C3
0D89A:  MOVLB  6
0D89C:  MOVWF  x3F
0D89E:  MOVLW  F5
0D8A0:  MOVWF  x3E
0D8A2:  MOVLW  28
0D8A4:  MOVWF  x3D
0D8A6:  MOVLW  7E
0D8A8:  MOVWF  x3C
0D8AA:  MOVLB  0
0D8AC:  CALL   3F42
0D8B0:  MOVFF  00,622
0D8B4:  MOVFF  01,623
0D8B8:  MOVFF  02,624
0D8BC:  MOVFF  03,625
0D8C0:  MOVLW  6E
0D8C2:  MOVWF  FF6
0D8C4:  MOVLW  1B
0D8C6:  MOVWF  FF7
0D8C8:  MOVLW  00
0D8CA:  MOVWF  FF8
0D8CC:  MOVLW  09
0D8CE:  MOVLB  6
0D8D0:  MOVWF  x27
0D8D2:  MOVLB  0
0D8D4:  CALL   543C
0D8D8:  MOVLW  00
0D8DA:  MOVWF  FE9
0D8DC:  MOVFF  625,62A
0D8E0:  MOVFF  624,629
0D8E4:  MOVFF  623,628
0D8E8:  MOVFF  622,627
0D8EC:  MOVLB  6
0D8EE:  CLRF   x2B
0D8F0:  MOVLB  0
0D8F2:  CALL   570A
....................       SendDataDisplay(); 
0D8F6:  CALL   3EE4
....................       Grafica=0; 
0D8FA:  BCF    x8A.4
....................    } 
....................    if(Lectura==1)// Utilizado para visualizar la lectura de la temperatura 
0D8FC:  BTFSS  x8A.3
0D8FE:  BRA    DC22
....................    {                       
....................       Lectura=0; 
0D900:  BCF    x8A.3
....................       printf("tuser.txt=\"%s\"",usuario); 
0D902:  MOVLW  7E
0D904:  MOVWF  FF6
0D906:  MOVLW  1B
0D908:  MOVWF  FF7
0D90A:  MOVLW  00
0D90C:  MOVWF  FF8
0D90E:  MOVLW  0B
0D910:  MOVLB  6
0D912:  MOVWF  x27
0D914:  MOVLB  0
0D916:  CALL   543C
0D91A:  MOVLW  02
0D91C:  MOVWF  FEA
0D91E:  MOVLW  28
0D920:  MOVWF  FE9
0D922:  CALL   546E
0D926:  MOVLW  22
0D928:  BTFSS  F9E.4
0D92A:  BRA    D928
0D92C:  MOVWF  FAD
....................       SendDataDisplay(); 
0D92E:  CALL   3EE4
....................       printf("t6f.txt=\"%3.1f\"",Temperatura); 
0D932:  MOVLW  8E
0D934:  MOVWF  FF6
0D936:  MOVLW  1B
0D938:  MOVWF  FF7
0D93A:  MOVLW  00
0D93C:  MOVWF  FF8
0D93E:  MOVLW  09
0D940:  MOVLB  6
0D942:  MOVWF  x27
0D944:  MOVLB  0
0D946:  CALL   543C
0D94A:  MOVLW  02
0D94C:  MOVWF  FE9
0D94E:  MOVFF  1B6,62A
0D952:  MOVFF  1B5,629
0D956:  MOVFF  1B4,628
0D95A:  MOVFF  1B3,627
0D95E:  MOVLW  01
0D960:  MOVLB  6
0D962:  MOVWF  x2B
0D964:  MOVLB  0
0D966:  CALL   570A
0D96A:  MOVLW  22
0D96C:  BTFSS  F9E.4
0D96E:  BRA    D96C
0D970:  MOVWF  FAD
....................       SendDataDisplay(); 
0D972:  CALL   3EE4
....................       printf("Funcionamiento.t7f.txt=\"%03LukPa\"",PresionCamara); 
0D976:  MOVLW  9E
0D978:  MOVWF  FF6
0D97A:  MOVLW  1B
0D97C:  MOVWF  FF7
0D97E:  MOVLW  00
0D980:  MOVWF  FF8
0D982:  MOVLW  18
0D984:  MOVLB  6
0D986:  MOVWF  x27
0D988:  MOVLB  0
0D98A:  CALL   543C
0D98E:  MOVLW  0A
0D990:  MOVWF  FE9
0D992:  MOVFF  1EC,627
0D996:  MOVFF  1EB,626
0D99A:  CALL   559C
0D99E:  MOVLW  BB
0D9A0:  MOVWF  FF6
0D9A2:  MOVLW  1B
0D9A4:  MOVWF  FF7
0D9A6:  MOVLW  00
0D9A8:  MOVWF  FF8
0D9AA:  MOVLW  04
0D9AC:  MOVLB  6
0D9AE:  MOVWF  x27
0D9B0:  MOVLB  0
0D9B2:  CALL   543C
....................       SendDataDisplay(); 
0D9B6:  CALL   3EE4
....................       printf("Funcionamiento.t12f.txt=\"%03LukPa\"",PresionPreCamara); 
0D9BA:  MOVLW  C0
0D9BC:  MOVWF  FF6
0D9BE:  MOVLW  1B
0D9C0:  MOVWF  FF7
0D9C2:  MOVLW  00
0D9C4:  MOVWF  FF8
0D9C6:  MOVLW  19
0D9C8:  MOVLB  6
0D9CA:  MOVWF  x27
0D9CC:  MOVLB  0
0D9CE:  CALL   543C
0D9D2:  MOVLW  0A
0D9D4:  MOVWF  FE9
0D9D6:  MOVFF  1EE,627
0D9DA:  MOVFF  1ED,626
0D9DE:  CALL   559C
0D9E2:  MOVLW  DE
0D9E4:  MOVWF  FF6
0D9E6:  MOVLW  1B
0D9E8:  MOVWF  FF7
0D9EA:  MOVLW  00
0D9EC:  MOVWF  FF8
0D9EE:  MOVLW  04
0D9F0:  MOVLB  6
0D9F2:  MOVWF  x27
0D9F4:  MOVLB  0
0D9F6:  CALL   543C
....................       SendDataDisplay(); 
0D9FA:  CALL   3EE4
....................       printf("Funcionamiento.t9f.txt=\"%03u\"",Setpoint); 
0D9FE:  MOVLW  E4
0DA00:  MOVWF  FF6
0DA02:  MOVLW  1B
0DA04:  MOVWF  FF7
0DA06:  MOVLW  00
0DA08:  MOVWF  FF8
0DA0A:  MOVLW  18
0DA0C:  MOVLB  6
0DA0E:  MOVWF  x27
0DA10:  MOVLB  0
0DA12:  CALL   543C
0DA16:  MOVFF  1D9,627
0DA1A:  MOVLW  03
0DA1C:  MOVLB  6
0DA1E:  MOVWF  x28
0DA20:  MOVLB  0
0DA22:  CALL   54C0
0DA26:  MOVLW  22
0DA28:  BTFSS  F9E.4
0DA2A:  BRA    DA28
0DA2C:  MOVWF  FAD
....................       SendDataDisplay();       
0DA2E:  CALL   3EE4
....................       printf("Funcionamiento.t10f.txt=\"%02u\"",((Testerilizacion[3]*10)+Testerilizacion[2])); 
0DA32:  MOVFF  98,629
0DA36:  MOVLW  0A
0DA38:  MOVLB  6
0DA3A:  MOVWF  x2A
0DA3C:  MOVLB  0
0DA3E:  CALL   39A4
0DA42:  MOVF   x97,W
0DA44:  ADDWF  01,W
0DA46:  MOVLB  6
0DA48:  MOVWF  x22
0DA4A:  MOVLW  02
0DA4C:  MOVWF  FF6
0DA4E:  MOVLW  1C
0DA50:  MOVWF  FF7
0DA52:  MOVLW  00
0DA54:  MOVWF  FF8
0DA56:  MOVLW  19
0DA58:  MOVWF  x27
0DA5A:  MOVLB  0
0DA5C:  CALL   543C
0DA60:  MOVFF  622,627
0DA64:  MOVLW  01
0DA66:  MOVLB  6
0DA68:  MOVWF  x28
0DA6A:  MOVLB  0
0DA6C:  CALL   54C0
0DA70:  MOVLW  22
0DA72:  BTFSS  F9E.4
0DA74:  BRA    DA72
0DA76:  MOVWF  FAD
....................       SendDataDisplay();       
0DA78:  CALL   3EE4
....................       printf("Funcionamiento.t13f.txt=\"%02u\"",((Testerilizacion[1]*10)+Testerilizacion[0])); 
0DA7C:  MOVFF  96,629
0DA80:  MOVLW  0A
0DA82:  MOVLB  6
0DA84:  MOVWF  x2A
0DA86:  MOVLB  0
0DA88:  CALL   39A4
0DA8C:  MOVF   x95,W
0DA8E:  ADDWF  01,W
0DA90:  MOVLB  6
0DA92:  MOVWF  x22
0DA94:  MOVLW  22
0DA96:  MOVWF  FF6
0DA98:  MOVLW  1C
0DA9A:  MOVWF  FF7
0DA9C:  MOVLW  00
0DA9E:  MOVWF  FF8
0DAA0:  MOVLW  19
0DAA2:  MOVWF  x27
0DAA4:  MOVLB  0
0DAA6:  CALL   543C
0DAAA:  MOVFF  622,627
0DAAE:  MOVLW  01
0DAB0:  MOVLB  6
0DAB2:  MOVWF  x28
0DAB4:  MOVLB  0
0DAB6:  CALL   54C0
0DABA:  MOVLW  22
0DABC:  BTFSS  F9E.4
0DABE:  BRA    DABC
0DAC0:  MOVWF  FAD
....................       SendDataDisplay();       
0DAC2:  CALL   3EE4
....................       printf("Funcionamiento.t11f.txt=\"%02u\"",((Tsecado[3]*10)+Tsecado[2])); 
0DAC6:  MOVFF  A0,629
0DACA:  MOVLW  0A
0DACC:  MOVLB  6
0DACE:  MOVWF  x2A
0DAD0:  MOVLB  0
0DAD2:  CALL   39A4
0DAD6:  MOVF   x9F,W
0DAD8:  ADDWF  01,W
0DADA:  MOVLB  6
0DADC:  MOVWF  x22
0DADE:  MOVLW  42
0DAE0:  MOVWF  FF6
0DAE2:  MOVLW  1C
0DAE4:  MOVWF  FF7
0DAE6:  MOVLW  00
0DAE8:  MOVWF  FF8
0DAEA:  MOVLW  19
0DAEC:  MOVWF  x27
0DAEE:  MOVLB  0
0DAF0:  CALL   543C
0DAF4:  MOVFF  622,627
0DAF8:  MOVLW  01
0DAFA:  MOVLB  6
0DAFC:  MOVWF  x28
0DAFE:  MOVLB  0
0DB00:  CALL   54C0
0DB04:  MOVLW  22
0DB06:  BTFSS  F9E.4
0DB08:  BRA    DB06
0DB0A:  MOVWF  FAD
....................       SendDataDisplay();       
0DB0C:  CALL   3EE4
....................       printf("Funcionamiento.t16f.txt=\"%02u\"",((Tsecado[1]*10)+Tsecado[0])); 
0DB10:  MOVFF  9E,629
0DB14:  MOVLW  0A
0DB16:  MOVLB  6
0DB18:  MOVWF  x2A
0DB1A:  MOVLB  0
0DB1C:  CALL   39A4
0DB20:  MOVF   x9D,W
0DB22:  ADDWF  01,W
0DB24:  MOVLB  6
0DB26:  MOVWF  x22
0DB28:  MOVLW  62
0DB2A:  MOVWF  FF6
0DB2C:  MOVLW  1C
0DB2E:  MOVWF  FF7
0DB30:  MOVLW  00
0DB32:  MOVWF  FF8
0DB34:  MOVLW  19
0DB36:  MOVWF  x27
0DB38:  MOVLB  0
0DB3A:  CALL   543C
0DB3E:  MOVFF  622,627
0DB42:  MOVLW  01
0DB44:  MOVLB  6
0DB46:  MOVWF  x28
0DB48:  MOVLB  0
0DB4A:  CALL   54C0
0DB4E:  MOVLW  22
0DB50:  BTFSS  F9E.4
0DB52:  BRA    DB50
0DB54:  MOVWF  FAD
....................       SendDataDisplay();       
0DB56:  CALL   3EE4
....................        
....................       printf("fecha.txt=\"Fecha:%02u/%02u/20%02u    Hora: %02u:%02u\"",Dia,Mes,Year,Hora,Minuto); 
0DB5A:  MOVLW  82
0DB5C:  MOVWF  FF6
0DB5E:  MOVLW  1C
0DB60:  MOVWF  FF7
0DB62:  MOVLW  00
0DB64:  MOVWF  FF8
0DB66:  MOVLW  11
0DB68:  MOVLB  6
0DB6A:  MOVWF  x27
0DB6C:  MOVLB  0
0DB6E:  CALL   543C
0DB72:  MOVFF  20B,627
0DB76:  MOVLW  01
0DB78:  MOVLB  6
0DB7A:  MOVWF  x28
0DB7C:  MOVLB  0
0DB7E:  CALL   54C0
0DB82:  MOVLW  2F
0DB84:  BTFSS  F9E.4
0DB86:  BRA    DB84
0DB88:  MOVWF  FAD
0DB8A:  MOVFF  20A,627
0DB8E:  MOVLW  01
0DB90:  MOVLB  6
0DB92:  MOVWF  x28
0DB94:  MOVLB  0
0DB96:  CALL   54C0
0DB9A:  MOVLW  2F
0DB9C:  BTFSS  F9E.4
0DB9E:  BRA    DB9C
0DBA0:  MOVWF  FAD
0DBA2:  MOVLW  32
0DBA4:  BTFSS  F9E.4
0DBA6:  BRA    DBA4
0DBA8:  MOVWF  FAD
0DBAA:  MOVLW  30
0DBAC:  BTFSS  F9E.4
0DBAE:  BRA    DBAC
0DBB0:  MOVWF  FAD
0DBB2:  MOVFF  209,627
0DBB6:  MOVLW  01
0DBB8:  MOVLB  6
0DBBA:  MOVWF  x28
0DBBC:  MOVLB  0
0DBBE:  CALL   54C0
0DBC2:  MOVLW  A3
0DBC4:  MOVWF  FF6
0DBC6:  MOVLW  1C
0DBC8:  MOVWF  FF7
0DBCA:  MOVLW  00
0DBCC:  MOVWF  FF8
0DBCE:  MOVLW  0A
0DBD0:  MOVLB  6
0DBD2:  MOVWF  x27
0DBD4:  MOVLB  0
0DBD6:  CALL   543C
0DBDA:  MOVFF  20C,627
0DBDE:  MOVLW  01
0DBE0:  MOVLB  6
0DBE2:  MOVWF  x28
0DBE4:  MOVLB  0
0DBE6:  CALL   54C0
0DBEA:  MOVLW  3A
0DBEC:  BTFSS  F9E.4
0DBEE:  BRA    DBEC
0DBF0:  MOVWF  FAD
0DBF2:  MOVFF  20D,627
0DBF6:  MOVLW  01
0DBF8:  MOVLB  6
0DBFA:  MOVWF  x28
0DBFC:  MOVLB  0
0DBFE:  CALL   54C0
0DC02:  MOVLW  22
0DC04:  BTFSS  F9E.4
0DC06:  BRA    DC04
0DC08:  MOVWF  FAD
....................       SendDataDisplay(); 
0DC0A:  CALL   3EE4
....................       printf("fecha.font=2"); 
0DC0E:  MOVLW  B8
0DC10:  MOVWF  FF6
0DC12:  MOVLW  1C
0DC14:  MOVWF  FF7
0DC16:  MOVLW  00
0DC18:  MOVWF  FF8
0DC1A:  CALL   3EB2
....................       SendDataDisplay(); 
0DC1E:  CALL   3EE4
0DC22:  MOVLB  1
....................    } 
....................  
.................... } 
.................... //_-------------------------------------------------------------------------------------------------------------------------------------------------------- 
....................  
.................... //_-------------------------------------------------------------------------------------------------------------------------------------------------------- 
....................       if(Menu==100){ //Menu de Configuracin de Parametros de Control 
0DC24:  MOVF   xCF,W
0DC26:  SUBLW  64
0DC28:  BTFSS  FD8.2
0DC2A:  GOTO   EAA0
....................       
....................       if(Opcion2>12) 
0DC2E:  MOVF   xDB,W
0DC30:  SUBLW  0C
0DC32:  BC    DC38
....................          Opcion2=1; 
0DC34:  MOVLW  01
0DC36:  MOVWF  xDB
....................       if(Opcion2<1) 
0DC38:  MOVF   xDB,F
0DC3A:  BNZ   DC40
....................          Opcion2=12; 
0DC3C:  MOVLW  0C
0DC3E:  MOVWF  xDB
....................        
....................       if(Opcion2==1){ 
0DC40:  DECFSZ xDB,W
0DC42:  BRA    DD84
....................          printf("Config.t2c.txt=\"Proporcional\""); 
0DC44:  MOVLW  C6
0DC46:  MOVWF  FF6
0DC48:  MOVLW  1C
0DC4A:  MOVWF  FF7
0DC4C:  MOVLW  00
0DC4E:  MOVWF  FF8
0DC50:  MOVLB  0
0DC52:  CALL   3EB2
....................          SendDataDisplay();       
0DC56:  CALL   3EE4
....................          printf("t3c.txt=\"%2.0f\"",Ganancia); 
0DC5A:  MOVLW  E4
0DC5C:  MOVWF  FF6
0DC5E:  MOVLW  1C
0DC60:  MOVWF  FF7
0DC62:  MOVLW  00
0DC64:  MOVWF  FF8
0DC66:  MOVLW  09
0DC68:  MOVLB  6
0DC6A:  MOVWF  x27
0DC6C:  MOVLB  0
0DC6E:  CALL   543C
0DC72:  MOVLW  01
0DC74:  MOVWF  FE9
0DC76:  MOVFF  19A,62A
0DC7A:  MOVFF  199,629
0DC7E:  MOVFF  198,628
0DC82:  MOVFF  197,627
0DC86:  MOVLB  6
0DC88:  CLRF   x2B
0DC8A:  MOVLB  0
0DC8C:  CALL   570A
0DC90:  MOVLW  22
0DC92:  BTFSS  F9E.4
0DC94:  BRA    DC92
0DC96:  MOVWF  FAD
....................          SendDataDisplay(); 
0DC98:  CALL   3EE4
....................          if(RX_Buffer[4]==0x0a){//Tecla Arriba Oprimida 
0DC9C:  MOVF   34,W
0DC9E:  SUBLW  0A
0DCA0:  BNZ   DCDA
....................                Ganancia+=1.0; 
0DCA2:  BCF    FD8.1
0DCA4:  MOVFF  19A,63D
0DCA8:  MOVFF  199,63C
0DCAC:  MOVFF  198,63B
0DCB0:  MOVFF  197,63A
0DCB4:  MOVLB  6
0DCB6:  CLRF   x41
0DCB8:  CLRF   x40
0DCBA:  CLRF   x3F
0DCBC:  MOVLW  7F
0DCBE:  MOVWF  x3E
0DCC0:  MOVLB  0
0DCC2:  CALL   20BC
0DCC6:  MOVFF  03,19A
0DCCA:  MOVFF  02,199
0DCCE:  MOVFF  01,198
0DCD2:  MOVFF  00,197
....................                RX_Buffer[4]=0x00;   
0DCD6:  CLRF   34
....................                RX_Buffer2[4]=0x00;             
0DCD8:  CLRF   3F
....................                //BorraBuffer(); 
....................          } 
....................              
....................          if(RX_Buffer[4]==0x0b){//Tecla Abajo Oprimida 
0DCDA:  MOVF   34,W
0DCDC:  SUBLW  0B
0DCDE:  BNZ   DD18
....................                Ganancia-=1.0; 
0DCE0:  BSF    FD8.1
0DCE2:  MOVFF  19A,63D
0DCE6:  MOVFF  199,63C
0DCEA:  MOVFF  198,63B
0DCEE:  MOVFF  197,63A
0DCF2:  MOVLB  6
0DCF4:  CLRF   x41
0DCF6:  CLRF   x40
0DCF8:  CLRF   x3F
0DCFA:  MOVLW  7F
0DCFC:  MOVWF  x3E
0DCFE:  MOVLB  0
0DD00:  CALL   20BC
0DD04:  MOVFF  03,19A
0DD08:  MOVFF  02,199
0DD0C:  MOVFF  01,198
0DD10:  MOVFF  00,197
....................                RX_Buffer[4]=0x00; 
0DD14:  CLRF   34
....................                RX_Buffer2[4]=0x00;             
0DD16:  CLRF   3F
....................                //BorraBuffer(); 
....................          } 
....................           
....................          if(Ganancia>40) 
0DD18:  MOVLB  6
0DD1A:  CLRF   x29
0DD1C:  CLRF   x28
0DD1E:  MOVLW  20
0DD20:  MOVWF  x27
0DD22:  MOVLW  84
0DD24:  MOVWF  x26
0DD26:  MOVFF  19A,62D
0DD2A:  MOVFF  199,62C
0DD2E:  MOVFF  198,62B
0DD32:  MOVFF  197,62A
0DD36:  MOVLB  0
0DD38:  CALL   2592
0DD3C:  BNC   DD4A
....................             Ganancia=1; 
0DD3E:  MOVLB  1
0DD40:  CLRF   x9A
0DD42:  CLRF   x99
0DD44:  CLRF   x98
0DD46:  MOVLW  7F
0DD48:  MOVWF  x97
....................          if(Ganancia<1) 
0DD4A:  MOVFF  19A,629
0DD4E:  MOVFF  199,628
0DD52:  MOVFF  198,627
0DD56:  MOVFF  197,626
0DD5A:  MOVLB  6
0DD5C:  CLRF   x2D
0DD5E:  CLRF   x2C
0DD60:  CLRF   x2B
0DD62:  MOVLW  7F
0DD64:  MOVWF  x2A
0DD66:  MOVLB  0
0DD68:  CALL   2592
0DD6C:  BNC   DD7E
....................             Ganancia=40; 
0DD6E:  MOVLB  1
0DD70:  CLRF   x9A
0DD72:  CLRF   x99
0DD74:  MOVLW  20
0DD76:  MOVWF  x98
0DD78:  MOVLW  84
0DD7A:  MOVWF  x97
0DD7C:  MOVLB  0
....................       }else if(Opcion2==2){ 
0DD7E:  GOTO   E4FA
0DD82:  MOVLB  1
0DD84:  MOVF   xDB,W
0DD86:  SUBLW  02
0DD88:  BTFSS  FD8.2
0DD8A:  BRA    DECE
....................          printf("Config.t2c.txt=\"Tciclo\""); 
0DD8C:  MOVLW  F4
0DD8E:  MOVWF  FF6
0DD90:  MOVLW  1C
0DD92:  MOVWF  FF7
0DD94:  MOVLW  00
0DD96:  MOVWF  FF8
0DD98:  MOVLB  0
0DD9A:  CALL   3EB2
....................          SendDataDisplay();       
0DD9E:  CALL   3EE4
....................          printf("t3c.txt=\"%2.0f\"",Tciclo); 
0DDA2:  MOVLW  0C
0DDA4:  MOVWF  FF6
0DDA6:  MOVLW  1D
0DDA8:  MOVWF  FF7
0DDAA:  MOVLW  00
0DDAC:  MOVWF  FF8
0DDAE:  MOVLW  09
0DDB0:  MOVLB  6
0DDB2:  MOVWF  x27
0DDB4:  MOVLB  0
0DDB6:  CALL   543C
0DDBA:  MOVLW  01
0DDBC:  MOVWF  FE9
0DDBE:  MOVFF  182,62A
0DDC2:  MOVFF  181,629
0DDC6:  MOVFF  180,628
0DDCA:  MOVFF  17F,627
0DDCE:  MOVLB  6
0DDD0:  CLRF   x2B
0DDD2:  MOVLB  0
0DDD4:  CALL   570A
0DDD8:  MOVLW  22
0DDDA:  BTFSS  F9E.4
0DDDC:  BRA    DDDA
0DDDE:  MOVWF  FAD
....................          SendDataDisplay(); 
0DDE0:  CALL   3EE4
....................          if(RX_Buffer[4]==0x0a){//Tecla Arriba Oprimida 
0DDE4:  MOVF   34,W
0DDE6:  SUBLW  0A
0DDE8:  BNZ   DE22
....................                Tciclo+=1.0; 
0DDEA:  BCF    FD8.1
0DDEC:  MOVFF  182,63D
0DDF0:  MOVFF  181,63C
0DDF4:  MOVFF  180,63B
0DDF8:  MOVFF  17F,63A
0DDFC:  MOVLB  6
0DDFE:  CLRF   x41
0DE00:  CLRF   x40
0DE02:  CLRF   x3F
0DE04:  MOVLW  7F
0DE06:  MOVWF  x3E
0DE08:  MOVLB  0
0DE0A:  CALL   20BC
0DE0E:  MOVFF  03,182
0DE12:  MOVFF  02,181
0DE16:  MOVFF  01,180
0DE1A:  MOVFF  00,17F
....................                RX_Buffer[4]=0x00;   
0DE1E:  CLRF   34
....................                RX_Buffer2[4]=0x00;             
0DE20:  CLRF   3F
....................                //BorraBuffer(); 
....................          } 
....................              
....................          if(RX_Buffer[4]==0x0b){//Tecla Abajo Oprimida             
0DE22:  MOVF   34,W
0DE24:  SUBLW  0B
0DE26:  BNZ   DE60
....................                Tciclo-=1.0; 
0DE28:  BSF    FD8.1
0DE2A:  MOVFF  182,63D
0DE2E:  MOVFF  181,63C
0DE32:  MOVFF  180,63B
0DE36:  MOVFF  17F,63A
0DE3A:  MOVLB  6
0DE3C:  CLRF   x41
0DE3E:  CLRF   x40
0DE40:  CLRF   x3F
0DE42:  MOVLW  7F
0DE44:  MOVWF  x3E
0DE46:  MOVLB  0
0DE48:  CALL   20BC
0DE4C:  MOVFF  03,182
0DE50:  MOVFF  02,181
0DE54:  MOVFF  01,180
0DE58:  MOVFF  00,17F
....................                RX_Buffer[4]=0x00; 
0DE5C:  CLRF   34
....................                RX_Buffer2[4]=0x00;             
0DE5E:  CLRF   3F
....................                //BorraBuffer(); 
....................          } 
....................           
....................          if(Tciclo>20) 
0DE60:  MOVLB  6
0DE62:  CLRF   x29
0DE64:  CLRF   x28
0DE66:  MOVLW  20
0DE68:  MOVWF  x27
0DE6A:  MOVLW  83
0DE6C:  MOVWF  x26
0DE6E:  MOVFF  182,62D
0DE72:  MOVFF  181,62C
0DE76:  MOVFF  180,62B
0DE7A:  MOVFF  17F,62A
0DE7E:  MOVLB  0
0DE80:  CALL   2592
0DE84:  BNC   DE94
....................             Tciclo=5; 
0DE86:  MOVLB  1
0DE88:  CLRF   x82
0DE8A:  CLRF   x81
0DE8C:  MOVLW  20
0DE8E:  MOVWF  x80
0DE90:  MOVLW  81
0DE92:  MOVWF  x7F
....................          if(Tciclo<5) 
0DE94:  MOVFF  182,629
0DE98:  MOVFF  181,628
0DE9C:  MOVFF  180,627
0DEA0:  MOVFF  17F,626
0DEA4:  MOVLB  6
0DEA6:  CLRF   x2D
0DEA8:  CLRF   x2C
0DEAA:  MOVLW  20
0DEAC:  MOVWF  x2B
0DEAE:  MOVLW  81
0DEB0:  MOVWF  x2A
0DEB2:  MOVLB  0
0DEB4:  CALL   2592
0DEB8:  BNC   DECA
....................             Tciclo=20; 
0DEBA:  MOVLB  1
0DEBC:  CLRF   x82
0DEBE:  CLRF   x81
0DEC0:  MOVLW  20
0DEC2:  MOVWF  x80
0DEC4:  MOVLW  83
0DEC6:  MOVWF  x7F
0DEC8:  MOVLB  0
....................       }else if(Opcion2==3){ 
0DECA:  BRA    E4FA
0DECC:  MOVLB  1
0DECE:  MOVF   xDB,W
0DED0:  SUBLW  03
0DED2:  BNZ   DF4C
....................          printf("Config.t2c.txt=\"Ajuste +\""); 
0DED4:  MOVLW  1C
0DED6:  MOVWF  FF6
0DED8:  MOVLW  1D
0DEDA:  MOVWF  FF7
0DEDC:  MOVLW  00
0DEDE:  MOVWF  FF8
0DEE0:  MOVLB  0
0DEE2:  CALL   3EB2
....................          SendDataDisplay();       
0DEE6:  CALL   3EE4
....................          printf("t3c.txt=\"%u\"",Sensor[0].Ajuste); 
0DEEA:  MOVLW  36
0DEEC:  MOVWF  FF6
0DEEE:  MOVLW  1D
0DEF0:  MOVWF  FF7
0DEF2:  MOVLW  00
0DEF4:  MOVWF  FF8
0DEF6:  MOVLW  09
0DEF8:  MOVLB  6
0DEFA:  MOVWF  x27
0DEFC:  MOVLB  0
0DEFE:  CALL   543C
0DF02:  MOVFF  2B0,627
0DF06:  MOVLW  1B
0DF08:  MOVLB  6
0DF0A:  MOVWF  x28
0DF0C:  MOVLB  0
0DF0E:  CALL   54C0
0DF12:  MOVLW  22
0DF14:  BTFSS  F9E.4
0DF16:  BRA    DF14
0DF18:  MOVWF  FAD
....................          SendDataDisplay(); 
0DF1A:  CALL   3EE4
....................          if(RX_Buffer[4]==0x0a){//Tecla Arriba Oprimida             
0DF1E:  MOVF   34,W
0DF20:  SUBLW  0A
0DF22:  BNZ   DF34
....................                if(Sensor[0].Ajuste<40) 
0DF24:  MOVLB  2
0DF26:  MOVF   xB0,W
0DF28:  SUBLW  27
0DF2A:  BNC   DF2E
....................                   Sensor[0].Ajuste++; 
0DF2C:  INCF   xB0,F
....................                RX_Buffer[4]=0x00;   
0DF2E:  CLRF   34
....................                RX_Buffer2[4]=0x00;             
0DF30:  CLRF   3F
0DF32:  MOVLB  0
....................                //BorraBuffer();             
....................          } 
....................              
....................          if(RX_Buffer[4]==0x0b){//Tecla Abajo Oprimida             
0DF34:  MOVF   34,W
0DF36:  SUBLW  0B
0DF38:  BNZ   DF48
....................                if(Sensor[0].Ajuste>0) 
0DF3A:  MOVLB  2
0DF3C:  MOVF   xB0,F
0DF3E:  BZ    DF42
....................                   Sensor[0].Ajuste--; 
0DF40:  DECF   xB0,F
....................                RX_Buffer[4]=0x00; 
0DF42:  CLRF   34
....................                RX_Buffer2[4]=0x00;             
0DF44:  CLRF   3F
0DF46:  MOVLB  0
....................                //BorraBuffer(); 
....................          } 
....................       }else if(Opcion2==4){ 
0DF48:  BRA    E4FA
0DF4A:  MOVLB  1
0DF4C:  MOVF   xDB,W
0DF4E:  SUBLW  04
0DF50:  BNZ   DFCA
....................          printf("Config.t2c.txt=\"Ajuste -\""); 
0DF52:  MOVLW  44
0DF54:  MOVWF  FF6
0DF56:  MOVLW  1D
0DF58:  MOVWF  FF7
0DF5A:  MOVLW  00
0DF5C:  MOVWF  FF8
0DF5E:  MOVLB  0
0DF60:  CALL   3EB2
....................          SendDataDisplay();       
0DF64:  CALL   3EE4
....................          printf("t3c.txt=\"%u\"",Sensor[0].Ajusten); 
0DF68:  MOVLW  5E
0DF6A:  MOVWF  FF6
0DF6C:  MOVLW  1D
0DF6E:  MOVWF  FF7
0DF70:  MOVLW  00
0DF72:  MOVWF  FF8
0DF74:  MOVLW  09
0DF76:  MOVLB  6
0DF78:  MOVWF  x27
0DF7A:  MOVLB  0
0DF7C:  CALL   543C
0DF80:  MOVFF  2B1,627
0DF84:  MOVLW  1B
0DF86:  MOVLB  6
0DF88:  MOVWF  x28
0DF8A:  MOVLB  0
0DF8C:  CALL   54C0
0DF90:  MOVLW  22
0DF92:  BTFSS  F9E.4
0DF94:  BRA    DF92
0DF96:  MOVWF  FAD
....................          SendDataDisplay(); 
0DF98:  CALL   3EE4
....................          if(RX_Buffer[4]==0x0a){//Tecla Arriba Oprimida             
0DF9C:  MOVF   34,W
0DF9E:  SUBLW  0A
0DFA0:  BNZ   DFB2
....................                if(Sensor[0].Ajusten<40) 
0DFA2:  MOVLB  2
0DFA4:  MOVF   xB1,W
0DFA6:  SUBLW  27
0DFA8:  BNC   DFAC
....................                   Sensor[0].Ajusten++; 
0DFAA:  INCF   xB1,F
....................                RX_Buffer[4]=0x00;   
0DFAC:  CLRF   34
....................                RX_Buffer2[4]=0x00;             
0DFAE:  CLRF   3F
0DFB0:  MOVLB  0
....................                //BorraBuffer();             
....................          } 
....................              
....................          if(RX_Buffer[4]==0x0b){//Tecla Abajo Oprimida             
0DFB2:  MOVF   34,W
0DFB4:  SUBLW  0B
0DFB6:  BNZ   DFC6
....................                if(Sensor[0].Ajusten>0) 
0DFB8:  MOVLB  2
0DFBA:  MOVF   xB1,F
0DFBC:  BZ    DFC0
....................                   Sensor[0].Ajusten--; 
0DFBE:  DECF   xB1,F
....................                RX_Buffer[4]=0x00; 
0DFC0:  CLRF   34
....................                RX_Buffer2[4]=0x00;             
0DFC2:  CLRF   3F
0DFC4:  MOVLB  0
....................                //BorraBuffer(); 
....................          } 
....................       }else if(Opcion2==5){ 
0DFC6:  BRA    E4FA
0DFC8:  MOVLB  1
0DFCA:  MOVF   xDB,W
0DFCC:  SUBLW  05
0DFCE:  BNZ   E048
....................          printf("Config.t2c.txt=\"Ajuste2 +\""); 
0DFD0:  MOVLW  6C
0DFD2:  MOVWF  FF6
0DFD4:  MOVLW  1D
0DFD6:  MOVWF  FF7
0DFD8:  MOVLW  00
0DFDA:  MOVWF  FF8
0DFDC:  MOVLB  0
0DFDE:  CALL   3EB2
....................          SendDataDisplay();       
0DFE2:  CALL   3EE4
....................          printf("t3c.txt=\"%u\"",Sensor[1].Ajuste); 
0DFE6:  MOVLW  88
0DFE8:  MOVWF  FF6
0DFEA:  MOVLW  1D
0DFEC:  MOVWF  FF7
0DFEE:  MOVLW  00
0DFF0:  MOVWF  FF8
0DFF2:  MOVLW  09
0DFF4:  MOVLB  6
0DFF6:  MOVWF  x27
0DFF8:  MOVLB  0
0DFFA:  CALL   543C
0DFFE:  MOVFF  414,627
0E002:  MOVLW  1B
0E004:  MOVLB  6
0E006:  MOVWF  x28
0E008:  MOVLB  0
0E00A:  CALL   54C0
0E00E:  MOVLW  22
0E010:  BTFSS  F9E.4
0E012:  BRA    E010
0E014:  MOVWF  FAD
....................          SendDataDisplay(); 
0E016:  CALL   3EE4
....................          if(RX_Buffer[4]==0x0a){//Tecla Arriba Oprimida 
0E01A:  MOVF   34,W
0E01C:  SUBLW  0A
0E01E:  BNZ   E030
....................                if(Sensor[1].Ajuste<40) 
0E020:  MOVLB  4
0E022:  MOVF   x14,W
0E024:  SUBLW  27
0E026:  BNC   E02A
....................                   Sensor[1].Ajuste++; 
0E028:  INCF   x14,F
....................                RX_Buffer[4]=0x00;   
0E02A:  CLRF   34
....................                RX_Buffer2[4]=0x00;             
0E02C:  CLRF   3F
0E02E:  MOVLB  0
....................                //BorraBuffer(); 
....................          } 
....................              
....................          if(RX_Buffer[4]==0x0b){//Tecla Abajo Oprimida 
0E030:  MOVF   34,W
0E032:  SUBLW  0B
0E034:  BNZ   E044
....................                if(Sensor[1].Ajuste>0) 
0E036:  MOVLB  4
0E038:  MOVF   x14,F
0E03A:  BZ    E03E
....................                   Sensor[1].Ajuste--; 
0E03C:  DECF   x14,F
....................                RX_Buffer[4]=0x00; 
0E03E:  CLRF   34
....................                RX_Buffer2[4]=0x00;             
0E040:  CLRF   3F
0E042:  MOVLB  0
....................                //BorraBuffer();             
....................          } 
....................       }else if(Opcion2==6){ 
0E044:  BRA    E4FA
0E046:  MOVLB  1
0E048:  MOVF   xDB,W
0E04A:  SUBLW  06
0E04C:  BNZ   E0C6
....................          printf("Config.t2c.txt=\"Ajuste2 -\""); 
0E04E:  MOVLW  96
0E050:  MOVWF  FF6
0E052:  MOVLW  1D
0E054:  MOVWF  FF7
0E056:  MOVLW  00
0E058:  MOVWF  FF8
0E05A:  MOVLB  0
0E05C:  CALL   3EB2
....................          SendDataDisplay();       
0E060:  CALL   3EE4
....................          printf("t3c.txt=\"%u\"",Sensor[1].Ajusten); 
0E064:  MOVLW  B2
0E066:  MOVWF  FF6
0E068:  MOVLW  1D
0E06A:  MOVWF  FF7
0E06C:  MOVLW  00
0E06E:  MOVWF  FF8
0E070:  MOVLW  09
0E072:  MOVLB  6
0E074:  MOVWF  x27
0E076:  MOVLB  0
0E078:  CALL   543C
0E07C:  MOVFF  415,627
0E080:  MOVLW  1B
0E082:  MOVLB  6
0E084:  MOVWF  x28
0E086:  MOVLB  0
0E088:  CALL   54C0
0E08C:  MOVLW  22
0E08E:  BTFSS  F9E.4
0E090:  BRA    E08E
0E092:  MOVWF  FAD
....................          SendDataDisplay(); 
0E094:  CALL   3EE4
....................          if(RX_Buffer[4]==0x0a){//Tecla Arriba Oprimida             
0E098:  MOVF   34,W
0E09A:  SUBLW  0A
0E09C:  BNZ   E0AE
....................                if(Sensor[1].Ajusten<40) 
0E09E:  MOVLB  4
0E0A0:  MOVF   x15,W
0E0A2:  SUBLW  27
0E0A4:  BNC   E0A8
....................                   Sensor[1].Ajusten++; 
0E0A6:  INCF   x15,F
....................                RX_Buffer[4]=0x00;   
0E0A8:  CLRF   34
....................                RX_Buffer2[4]=0x00;             
0E0AA:  CLRF   3F
0E0AC:  MOVLB  0
....................                //BorraBuffer(); 
....................          } 
....................              
....................          if(RX_Buffer[4]==0x0b){//Tecla Abajo Oprimida             
0E0AE:  MOVF   34,W
0E0B0:  SUBLW  0B
0E0B2:  BNZ   E0C2
....................                if(Sensor[1].Ajusten>0) 
0E0B4:  MOVLB  4
0E0B6:  MOVF   x15,F
0E0B8:  BZ    E0BC
....................                   Sensor[1].Ajusten--; 
0E0BA:  DECF   x15,F
....................                RX_Buffer[4]=0x00; 
0E0BC:  CLRF   34
....................                RX_Buffer2[4]=0x00;             
0E0BE:  CLRF   3F
0E0C0:  MOVLB  0
....................                //BorraBuffer(); 
....................          } 
....................       }else if(Opcion2==7){ 
0E0C2:  BRA    E4FA
0E0C4:  MOVLB  1
0E0C6:  MOVF   xDB,W
0E0C8:  SUBLW  07
0E0CA:  BNZ   E146
....................          printf("Config.t2c.txt=\"Media\""); 
0E0CC:  MOVLW  C0
0E0CE:  MOVWF  FF6
0E0D0:  MOVLW  1D
0E0D2:  MOVWF  FF7
0E0D4:  MOVLW  00
0E0D6:  MOVWF  FF8
0E0D8:  MOVLB  0
0E0DA:  CALL   3EB2
....................          SendDataDisplay();       
0E0DE:  CALL   3EE4
....................          printf("t3c.txt=\"%u\"",MediaMovil); 
0E0E2:  MOVLW  D8
0E0E4:  MOVWF  FF6
0E0E6:  MOVLW  1D
0E0E8:  MOVWF  FF7
0E0EA:  MOVLW  00
0E0EC:  MOVWF  FF8
0E0EE:  MOVLW  09
0E0F0:  MOVLB  6
0E0F2:  MOVWF  x27
0E0F4:  MOVLB  0
0E0F6:  CALL   543C
0E0FA:  MOVFF  173,627
0E0FE:  MOVLW  1B
0E100:  MOVLB  6
0E102:  MOVWF  x28
0E104:  MOVLB  0
0E106:  CALL   54C0
0E10A:  MOVLW  22
0E10C:  BTFSS  F9E.4
0E10E:  BRA    E10C
0E110:  MOVWF  FAD
....................          SendDataDisplay(); 
0E112:  CALL   3EE4
....................          if(RX_Buffer[4]==0x0a){//Tecla Arriba Oprimida 
0E116:  MOVF   34,W
0E118:  SUBLW  0A
0E11A:  BNZ   E12C
....................                if(MediaMovil<80) 
0E11C:  MOVLB  1
0E11E:  MOVF   x73,W
0E120:  SUBLW  4F
0E122:  BNC   E126
....................                   MediaMovil++; 
0E124:  INCF   x73,F
....................                RX_Buffer[4]=0x00;   
0E126:  CLRF   34
....................                RX_Buffer2[4]=0x00;             
0E128:  CLRF   3F
0E12A:  MOVLB  0
....................                //BorraBuffer(); 
....................          } 
....................              
....................          if(RX_Buffer[4]==0x0b){//Tecla Abajo Oprimida 
0E12C:  MOVF   34,W
0E12E:  SUBLW  0B
0E130:  BNZ   E142
....................                if(MediaMovil>10) 
0E132:  MOVLB  1
0E134:  MOVF   x73,W
0E136:  SUBLW  0A
0E138:  BC    E13C
....................                   MediaMovil--; 
0E13A:  DECF   x73,F
....................                RX_Buffer[4]=0x00; 
0E13C:  CLRF   34
....................                RX_Buffer2[4]=0x00;             
0E13E:  CLRF   3F
0E140:  MOVLB  0
....................                //BorraBuffer();             
....................          } 
....................       }else if(Opcion2==8){ 
0E142:  BRA    E4FA
0E144:  MOVLB  1
0E146:  MOVF   xDB,W
0E148:  SUBLW  08
0E14A:  BTFSS  FD8.2
0E14C:  BRA    E278
....................          printf("Config.t2c.txt=\"RPT100B\""); 
0E14E:  MOVLW  E6
0E150:  MOVWF  FF6
0E152:  MOVLW  1D
0E154:  MOVWF  FF7
0E156:  MOVLW  00
0E158:  MOVWF  FF8
0E15A:  MOVLB  0
0E15C:  CALL   3EB2
....................          SendDataDisplay();       
0E160:  CALL   3EE4
....................          printf("t3c.txt=\"%2.1f\"",Sensor[0].RPT100); 
0E164:  MOVLW  00
0E166:  MOVWF  FF6
0E168:  MOVLW  1E
0E16A:  MOVWF  FF7
0E16C:  MOVLW  00
0E16E:  MOVWF  FF8
0E170:  MOVLW  09
0E172:  MOVLB  6
0E174:  MOVWF  x27
0E176:  MOVLB  0
0E178:  CALL   543C
0E17C:  MOVLW  01
0E17E:  MOVWF  FE9
0E180:  MOVFF  2A5,62A
0E184:  MOVFF  2A4,629
0E188:  MOVFF  2A3,628
0E18C:  MOVFF  2A2,627
0E190:  MOVLB  6
0E192:  MOVWF  x2B
0E194:  MOVLB  0
0E196:  CALL   570A
0E19A:  MOVLW  22
0E19C:  BTFSS  F9E.4
0E19E:  BRA    E19C
0E1A0:  MOVWF  FAD
....................          SendDataDisplay(); 
0E1A2:  CALL   3EE4
....................          if(RX_Buffer[4]==0x0a){//Tecla Arriba Oprimida             
0E1A6:  MOVF   34,W
0E1A8:  SUBLW  0A
0E1AA:  BNZ   E20E
....................                if(Sensor[0].RPT100<2.0) 
0E1AC:  MOVFF  2A5,629
0E1B0:  MOVFF  2A4,628
0E1B4:  MOVFF  2A3,627
0E1B8:  MOVFF  2A2,626
0E1BC:  MOVLB  6
0E1BE:  CLRF   x2D
0E1C0:  CLRF   x2C
0E1C2:  CLRF   x2B
0E1C4:  MOVLW  80
0E1C6:  MOVWF  x2A
0E1C8:  MOVLB  0
0E1CA:  CALL   2592
0E1CE:  BNC   E20A
....................                   Sensor[0].RPT100+=0.1; 
0E1D0:  BCF    FD8.1
0E1D2:  MOVFF  2A5,63D
0E1D6:  MOVFF  2A4,63C
0E1DA:  MOVFF  2A3,63B
0E1DE:  MOVFF  2A2,63A
0E1E2:  MOVLW  CD
0E1E4:  MOVLB  6
0E1E6:  MOVWF  x41
0E1E8:  MOVLW  CC
0E1EA:  MOVWF  x40
0E1EC:  MOVLW  4C
0E1EE:  MOVWF  x3F
0E1F0:  MOVLW  7B
0E1F2:  MOVWF  x3E
0E1F4:  MOVLB  0
0E1F6:  CALL   20BC
0E1FA:  MOVFF  03,2A5
0E1FE:  MOVFF  02,2A4
0E202:  MOVFF  01,2A3
0E206:  MOVFF  00,2A2
....................                RX_Buffer[4]=0x00;   
0E20A:  CLRF   34
....................                RX_Buffer2[4]=0x00;             
0E20C:  CLRF   3F
....................                //BorraBuffer(); 
....................          } 
....................              
....................          if(RX_Buffer[4]==0x0b){//Tecla Abajo Oprimida 
0E20E:  MOVF   34,W
0E210:  SUBLW  0B
0E212:  BNZ   E274
....................                if(Sensor[0].RPT100>0.0) 
0E214:  MOVLB  6
0E216:  CLRF   x29
0E218:  CLRF   x28
0E21A:  CLRF   x27
0E21C:  CLRF   x26
0E21E:  MOVFF  2A5,62D
0E222:  MOVFF  2A4,62C
0E226:  MOVFF  2A3,62B
0E22A:  MOVFF  2A2,62A
0E22E:  MOVLB  0
0E230:  CALL   2592
0E234:  BNC   E270
....................                   Sensor[0].RPT100-=0.1; 
0E236:  BSF    FD8.1
0E238:  MOVFF  2A5,63D
0E23C:  MOVFF  2A4,63C
0E240:  MOVFF  2A3,63B
0E244:  MOVFF  2A2,63A
0E248:  MOVLW  CD
0E24A:  MOVLB  6
0E24C:  MOVWF  x41
0E24E:  MOVLW  CC
0E250:  MOVWF  x40
0E252:  MOVLW  4C
0E254:  MOVWF  x3F
0E256:  MOVLW  7B
0E258:  MOVWF  x3E
0E25A:  MOVLB  0
0E25C:  CALL   20BC
0E260:  MOVFF  03,2A5
0E264:  MOVFF  02,2A4
0E268:  MOVFF  01,2A3
0E26C:  MOVFF  00,2A2
....................                RX_Buffer[4]=0x00; 
0E270:  CLRF   34
....................                RX_Buffer2[4]=0x00;             
0E272:  CLRF   3F
....................                //BorraBuffer(); 
....................          } 
....................       }else if(Opcion2==9){ 
0E274:  BRA    E4FA
0E276:  MOVLB  1
0E278:  MOVF   xDB,W
0E27A:  SUBLW  09
0E27C:  BTFSS  FD8.2
0E27E:  BRA    E3AA
....................          printf("Config.t2c.txt=\"RPT100B 2\""); 
0E280:  MOVLW  10
0E282:  MOVWF  FF6
0E284:  MOVLW  1E
0E286:  MOVWF  FF7
0E288:  MOVLW  00
0E28A:  MOVWF  FF8
0E28C:  MOVLB  0
0E28E:  CALL   3EB2
....................          SendDataDisplay();       
0E292:  CALL   3EE4
....................          printf("t3c.txt=\"%2.1f\"",Sensor[1].RPT100); 
0E296:  MOVLW  2C
0E298:  MOVWF  FF6
0E29A:  MOVLW  1E
0E29C:  MOVWF  FF7
0E29E:  MOVLW  00
0E2A0:  MOVWF  FF8
0E2A2:  MOVLW  09
0E2A4:  MOVLB  6
0E2A6:  MOVWF  x27
0E2A8:  MOVLB  0
0E2AA:  CALL   543C
0E2AE:  MOVLW  01
0E2B0:  MOVWF  FE9
0E2B2:  MOVFF  409,62A
0E2B6:  MOVFF  408,629
0E2BA:  MOVFF  407,628
0E2BE:  MOVFF  406,627
0E2C2:  MOVLB  6
0E2C4:  MOVWF  x2B
0E2C6:  MOVLB  0
0E2C8:  CALL   570A
0E2CC:  MOVLW  22
0E2CE:  BTFSS  F9E.4
0E2D0:  BRA    E2CE
0E2D2:  MOVWF  FAD
....................          SendDataDisplay(); 
0E2D4:  CALL   3EE4
....................          if(RX_Buffer[4]==0x0a){//Tecla Arriba Oprimida 
0E2D8:  MOVF   34,W
0E2DA:  SUBLW  0A
0E2DC:  BNZ   E340
....................                if(Sensor[1].RPT100<2.0) 
0E2DE:  MOVFF  409,629
0E2E2:  MOVFF  408,628
0E2E6:  MOVFF  407,627
0E2EA:  MOVFF  406,626
0E2EE:  MOVLB  6
0E2F0:  CLRF   x2D
0E2F2:  CLRF   x2C
0E2F4:  CLRF   x2B
0E2F6:  MOVLW  80
0E2F8:  MOVWF  x2A
0E2FA:  MOVLB  0
0E2FC:  CALL   2592
0E300:  BNC   E33C
....................                   Sensor[1].RPT100+=0.1; 
0E302:  BCF    FD8.1
0E304:  MOVFF  409,63D
0E308:  MOVFF  408,63C
0E30C:  MOVFF  407,63B
0E310:  MOVFF  406,63A
0E314:  MOVLW  CD
0E316:  MOVLB  6
0E318:  MOVWF  x41
0E31A:  MOVLW  CC
0E31C:  MOVWF  x40
0E31E:  MOVLW  4C
0E320:  MOVWF  x3F
0E322:  MOVLW  7B
0E324:  MOVWF  x3E
0E326:  MOVLB  0
0E328:  CALL   20BC
0E32C:  MOVFF  03,409
0E330:  MOVFF  02,408
0E334:  MOVFF  01,407
0E338:  MOVFF  00,406
....................                RX_Buffer[4]=0x00;   
0E33C:  CLRF   34
....................                RX_Buffer2[4]=0x00;             
0E33E:  CLRF   3F
....................                //BorraBuffer(); 
....................          } 
....................              
....................          if(RX_Buffer[4]==0x0b){//Tecla Abajo Oprimida 
0E340:  MOVF   34,W
0E342:  SUBLW  0B
0E344:  BNZ   E3A6
....................                if(Sensor[1].RPT100>0.0) 
0E346:  MOVLB  6
0E348:  CLRF   x29
0E34A:  CLRF   x28
0E34C:  CLRF   x27
0E34E:  CLRF   x26
0E350:  MOVFF  409,62D
0E354:  MOVFF  408,62C
0E358:  MOVFF  407,62B
0E35C:  MOVFF  406,62A
0E360:  MOVLB  0
0E362:  CALL   2592
0E366:  BNC   E3A2
....................                   Sensor[1].RPT100-=0.1; 
0E368:  BSF    FD8.1
0E36A:  MOVFF  409,63D
0E36E:  MOVFF  408,63C
0E372:  MOVFF  407,63B
0E376:  MOVFF  406,63A
0E37A:  MOVLW  CD
0E37C:  MOVLB  6
0E37E:  MOVWF  x41
0E380:  MOVLW  CC
0E382:  MOVWF  x40
0E384:  MOVLW  4C
0E386:  MOVWF  x3F
0E388:  MOVLW  7B
0E38A:  MOVWF  x3E
0E38C:  MOVLB  0
0E38E:  CALL   20BC
0E392:  MOVFF  03,409
0E396:  MOVFF  02,408
0E39A:  MOVFF  01,407
0E39E:  MOVFF  00,406
....................                RX_Buffer[4]=0x00; 
0E3A2:  CLRF   34
....................                RX_Buffer2[4]=0x00;             
0E3A4:  CLRF   3F
....................                //BorraBuffer(); 
....................          } 
....................       }else if(Opcion2==10){ 
0E3A6:  BRA    E4FA
0E3A8:  MOVLB  1
0E3AA:  MOVF   xDB,W
0E3AC:  SUBLW  0A
0E3AE:  BNZ   E3FE
....................          printf("Config.t2c.txt=\"Ciclos\""); 
0E3B0:  MOVLW  3C
0E3B2:  MOVWF  FF6
0E3B4:  MOVLW  1E
0E3B6:  MOVWF  FF7
0E3B8:  MOVLW  00
0E3BA:  MOVWF  FF8
0E3BC:  MOVLB  0
0E3BE:  CALL   3EB2
....................          SendDataDisplay();       
0E3C2:  CALL   3EE4
....................          printf("t3c.txt=\"%03Lu\"",Ciclos); 
0E3C6:  MOVLW  54
0E3C8:  MOVWF  FF6
0E3CA:  MOVLW  1E
0E3CC:  MOVWF  FF7
0E3CE:  MOVLW  00
0E3D0:  MOVWF  FF8
0E3D2:  MOVLW  09
0E3D4:  MOVLB  6
0E3D6:  MOVWF  x27
0E3D8:  MOVLB  0
0E3DA:  CALL   543C
0E3DE:  MOVLW  0A
0E3E0:  MOVWF  FE9
0E3E2:  MOVFF  1F0,627
0E3E6:  MOVFF  1EF,626
0E3EA:  CALL   559C
0E3EE:  MOVLW  22
0E3F0:  BTFSS  F9E.4
0E3F2:  BRA    E3F0
0E3F4:  MOVWF  FAD
....................          SendDataDisplay(); 
0E3F6:  CALL   3EE4
....................       }else if(Opcion2==11){ 
0E3FA:  BRA    E4FA
0E3FC:  MOVLB  1
0E3FE:  MOVF   xDB,W
0E400:  SUBLW  0B
0E402:  BNZ   E47E
....................          printf("Config.t2c.txt=\"Atmosferica\""); 
0E404:  MOVLW  64
0E406:  MOVWF  FF6
0E408:  MOVLW  1E
0E40A:  MOVWF  FF7
0E40C:  MOVLW  00
0E40E:  MOVWF  FF8
0E410:  MOVLB  0
0E412:  CALL   3EB2
....................          SendDataDisplay();       
0E416:  CALL   3EE4
....................          printf("t3c.txt=\"%03u\"",Atmosferica); 
0E41A:  MOVLW  82
0E41C:  MOVWF  FF6
0E41E:  MOVLW  1E
0E420:  MOVWF  FF7
0E422:  MOVLW  00
0E424:  MOVWF  FF8
0E426:  MOVLW  09
0E428:  MOVLB  6
0E42A:  MOVWF  x27
0E42C:  MOVLB  0
0E42E:  CALL   543C
0E432:  MOVFF  213,627
0E436:  MOVLW  03
0E438:  MOVLB  6
0E43A:  MOVWF  x28
0E43C:  MOVLB  0
0E43E:  CALL   54C0
0E442:  MOVLW  22
0E444:  BTFSS  F9E.4
0E446:  BRA    E444
0E448:  MOVWF  FAD
....................          SendDataDisplay(); 
0E44A:  CALL   3EE4
....................          if(RX_Buffer[4]==0x0a){//Tecla Arriba Oprimida 
0E44E:  MOVF   34,W
0E450:  SUBLW  0A
0E452:  BNZ   E464
....................                if(Atmosferica<100) 
0E454:  MOVLB  2
0E456:  MOVF   x13,W
0E458:  SUBLW  63
0E45A:  BNC   E45E
....................                   ++Atmosferica; 
0E45C:  INCF   x13,F
....................                RX_Buffer[4]=0x00;   
0E45E:  CLRF   34
....................                RX_Buffer2[4]=0x00;             
0E460:  CLRF   3F
0E462:  MOVLB  0
....................                //BorraBuffer(); 
....................          } 
....................              
....................          if(RX_Buffer[4]==0x0b){//Tecla Abajo Oprimida 
0E464:  MOVF   34,W
0E466:  SUBLW  0B
0E468:  BNZ   E47A
....................                if(Atmosferica>50) 
0E46A:  MOVLB  2
0E46C:  MOVF   x13,W
0E46E:  SUBLW  32
0E470:  BC    E474
....................                   --Atmosferica; 
0E472:  DECF   x13,F
....................                RX_Buffer[4]=0x00; 
0E474:  CLRF   34
....................                RX_Buffer2[4]=0x00;             
0E476:  CLRF   3F
0E478:  MOVLB  0
....................                //BorraBuffer(); 
....................          } 
....................       }else if(Opcion2==12){ 
0E47A:  BRA    E4FA
0E47C:  MOVLB  1
0E47E:  MOVF   xDB,W
0E480:  SUBLW  0C
0E482:  BNZ   E4F8
....................          printf("Config.t2c.txt=\"T. Apertura\""); 
0E484:  MOVLW  92
0E486:  MOVWF  FF6
0E488:  MOVLW  1E
0E48A:  MOVWF  FF7
0E48C:  MOVLW  00
0E48E:  MOVWF  FF8
0E490:  MOVLB  0
0E492:  CALL   3EB2
....................          SendDataDisplay();       
0E496:  CALL   3EE4
....................          printf("t3c.txt=\"%03u\"",Tapertura); 
0E49A:  MOVLW  B0
0E49C:  MOVWF  FF6
0E49E:  MOVLW  1E
0E4A0:  MOVWF  FF7
0E4A2:  MOVLW  00
0E4A4:  MOVWF  FF8
0E4A6:  MOVLW  09
0E4A8:  MOVLB  6
0E4AA:  MOVWF  x27
0E4AC:  MOVLB  0
0E4AE:  CALL   543C
0E4B2:  MOVFF  1D6,627
0E4B6:  MOVLW  03
0E4B8:  MOVLB  6
0E4BA:  MOVWF  x28
0E4BC:  MOVLB  0
0E4BE:  CALL   54C0
0E4C2:  MOVLW  22
0E4C4:  BTFSS  F9E.4
0E4C6:  BRA    E4C4
0E4C8:  MOVWF  FAD
....................          SendDataDisplay(); 
0E4CA:  CALL   3EE4
....................          if(RX_Buffer[4]==0x0a){//Tecla Arriba Oprimida 
0E4CE:  MOVF   34,W
0E4D0:  SUBLW  0A
0E4D2:  BNZ   E4E4
....................                if(Tapertura<100) 
0E4D4:  MOVLB  1
0E4D6:  MOVF   xD6,W
0E4D8:  SUBLW  63
0E4DA:  BNC   E4DE
....................                   ++Tapertura; 
0E4DC:  INCF   xD6,F
....................                RX_Buffer[4]=0x00;   
0E4DE:  CLRF   34
....................                RX_Buffer2[4]=0x00;             
0E4E0:  CLRF   3F
0E4E2:  MOVLB  0
....................                //BorraBuffer(); 
....................          } 
....................              
....................          if(RX_Buffer[4]==0x0b){//Tecla Abajo Oprimida 
0E4E4:  MOVF   34,W
0E4E6:  SUBLW  0B
0E4E8:  BNZ   E4FA
....................                if(Tapertura>50) 
0E4EA:  MOVLB  1
0E4EC:  MOVF   xD6,W
0E4EE:  SUBLW  32
0E4F0:  BC    E4F4
....................                   --Tapertura; 
0E4F2:  DECF   xD6,F
....................                RX_Buffer[4]=0x00; 
0E4F4:  CLRF   34
....................                RX_Buffer2[4]=0x00;             
0E4F6:  CLRF   3F
0E4F8:  MOVLB  0
....................                //BorraBuffer();            
....................          } 
....................       } 
....................        
....................       if(RX_Buffer[4]==0x0c){//Tecla Izquierda Oprimida 
0E4FA:  MOVF   34,W
0E4FC:  SUBLW  0C
0E4FE:  BNZ   E50A
....................             Opcion2++; 
0E500:  MOVLB  1
0E502:  INCF   xDB,F
....................             RX_Buffer[4]=0x00;   
0E504:  CLRF   34
....................             RX_Buffer2[4]=0x00;             
0E506:  CLRF   3F
0E508:  MOVLB  0
....................             //BorraBuffer();    
....................       } 
....................           
....................       if(RX_Buffer[4]==0x0d){//Tecla Derecha Oprimida          
0E50A:  MOVF   34,W
0E50C:  SUBLW  0D
0E50E:  BNZ   E51A
....................             Opcion2--; 
0E510:  MOVLB  1
0E512:  DECF   xDB,F
....................             RX_Buffer[4]=0x00; 
0E514:  CLRF   34
....................             RX_Buffer2[4]=0x00;             
0E516:  CLRF   3F
0E518:  MOVLB  0
....................             //BorraBuffer(); 
....................       } 
....................        
....................       if(RX_Buffer[4]==0x11){//Tecla Regresar 
0E51A:  MOVF   34,W
0E51C:  SUBLW  11
0E51E:  BTFSS  FD8.2
0E520:  BRA    E9EA
....................          delay_ms(20); 
0E522:  MOVLW  14
0E524:  MOVLB  6
0E526:  MOVWF  x37
0E528:  MOVLB  0
0E52A:  CALL   1F36
....................          if(RX_Buffer[4]==0x11){ 
0E52E:  MOVF   34,W
0E530:  SUBLW  11
0E532:  BTFSS  FD8.2
0E534:  BRA    E9EA
....................             if(!GuardaEEPROM){ 
0E536:  BTFSC  x87.4
0E538:  BRA    E9D6
....................                write_eeprom(20,(int8)Ganancia); 
0E53A:  MOVFF  19A,637
0E53E:  MOVFF  199,636
0E542:  MOVFF  198,635
0E546:  MOVFF  197,634
0E54A:  CALL   50E6
0E54E:  MOVFF  01,622
0E552:  CLRF   FAA
0E554:  MOVLW  14
0E556:  MOVWF  FA9
0E558:  MOVFF  622,FA8
0E55C:  BCF    FA6.6
0E55E:  BCF    FA6.7
0E560:  BSF    FA6.2
0E562:  MOVF   FF2,W
0E564:  MOVWF  00
0E566:  BCF    FF2.6
0E568:  BCF    FF2.7
0E56A:  MOVLB  F
0E56C:  MOVLW  55
0E56E:  MOVWF  FA7
0E570:  MOVLW  AA
0E572:  MOVWF  FA7
0E574:  BSF    FA6.1
0E576:  BTFSC  FA6.1
0E578:  BRA    E576
0E57A:  BCF    FA6.2
0E57C:  MOVF   00,W
0E57E:  IORWF  FF2,F
....................                delay_ms(10); 
0E580:  MOVLW  0A
0E582:  MOVLB  6
0E584:  MOVWF  x37
0E586:  MOVLB  0
0E588:  CALL   1F36
....................                write_eeprom(21,Sensor[0].Ajuste); 
0E58C:  CLRF   FAA
0E58E:  MOVLW  15
0E590:  MOVWF  FA9
0E592:  MOVFF  2B0,FA8
0E596:  BCF    FA6.6
0E598:  BCF    FA6.7
0E59A:  BSF    FA6.2
0E59C:  MOVF   FF2,W
0E59E:  MOVWF  00
0E5A0:  BCF    FF2.6
0E5A2:  BCF    FF2.7
0E5A4:  MOVLB  F
0E5A6:  MOVLW  55
0E5A8:  MOVWF  FA7
0E5AA:  MOVLW  AA
0E5AC:  MOVWF  FA7
0E5AE:  BSF    FA6.1
0E5B0:  BTFSC  FA6.1
0E5B2:  BRA    E5B0
0E5B4:  BCF    FA6.2
0E5B6:  MOVF   00,W
0E5B8:  IORWF  FF2,F
....................                delay_ms(10); 
0E5BA:  MOVLW  0A
0E5BC:  MOVLB  6
0E5BE:  MOVWF  x37
0E5C0:  MOVLB  0
0E5C2:  CALL   1F36
....................                write_eeprom(22,Sensor[0].Ajusten); 
0E5C6:  CLRF   FAA
0E5C8:  MOVLW  16
0E5CA:  MOVWF  FA9
0E5CC:  MOVFF  2B1,FA8
0E5D0:  BCF    FA6.6
0E5D2:  BCF    FA6.7
0E5D4:  BSF    FA6.2
0E5D6:  MOVF   FF2,W
0E5D8:  MOVWF  00
0E5DA:  BCF    FF2.6
0E5DC:  BCF    FF2.7
0E5DE:  MOVLB  F
0E5E0:  MOVLW  55
0E5E2:  MOVWF  FA7
0E5E4:  MOVLW  AA
0E5E6:  MOVWF  FA7
0E5E8:  BSF    FA6.1
0E5EA:  BTFSC  FA6.1
0E5EC:  BRA    E5EA
0E5EE:  BCF    FA6.2
0E5F0:  MOVF   00,W
0E5F2:  IORWF  FF2,F
....................                delay_ms(10); 
0E5F4:  MOVLW  0A
0E5F6:  MOVLB  6
0E5F8:  MOVWF  x37
0E5FA:  MOVLB  0
0E5FC:  CALL   1F36
....................                write_eeprom(23,Sensor[1].Ajuste); 
0E600:  CLRF   FAA
0E602:  MOVLW  17
0E604:  MOVWF  FA9
0E606:  MOVFF  414,FA8
0E60A:  BCF    FA6.6
0E60C:  BCF    FA6.7
0E60E:  BSF    FA6.2
0E610:  MOVF   FF2,W
0E612:  MOVWF  00
0E614:  BCF    FF2.6
0E616:  BCF    FF2.7
0E618:  MOVLB  F
0E61A:  MOVLW  55
0E61C:  MOVWF  FA7
0E61E:  MOVLW  AA
0E620:  MOVWF  FA7
0E622:  BSF    FA6.1
0E624:  BTFSC  FA6.1
0E626:  BRA    E624
0E628:  BCF    FA6.2
0E62A:  MOVF   00,W
0E62C:  IORWF  FF2,F
....................                delay_ms(10); 
0E62E:  MOVLW  0A
0E630:  MOVLB  6
0E632:  MOVWF  x37
0E634:  MOVLB  0
0E636:  CALL   1F36
....................                write_eeprom(24,Sensor[1].Ajusten); 
0E63A:  CLRF   FAA
0E63C:  MOVLW  18
0E63E:  MOVWF  FA9
0E640:  MOVFF  415,FA8
0E644:  BCF    FA6.6
0E646:  BCF    FA6.7
0E648:  BSF    FA6.2
0E64A:  MOVF   FF2,W
0E64C:  MOVWF  00
0E64E:  BCF    FF2.6
0E650:  BCF    FF2.7
0E652:  MOVLB  F
0E654:  MOVLW  55
0E656:  MOVWF  FA7
0E658:  MOVLW  AA
0E65A:  MOVWF  FA7
0E65C:  BSF    FA6.1
0E65E:  BTFSC  FA6.1
0E660:  BRA    E65E
0E662:  BCF    FA6.2
0E664:  MOVF   00,W
0E666:  IORWF  FF2,F
....................                delay_ms(10); 
0E668:  MOVLW  0A
0E66A:  MOVLB  6
0E66C:  MOVWF  x37
0E66E:  MOVLB  0
0E670:  CALL   1F36
....................                write_eeprom(25,(int8)MediaMovil); 
0E674:  CLRF   FAA
0E676:  MOVLW  19
0E678:  MOVWF  FA9
0E67A:  MOVFF  173,FA8
0E67E:  BCF    FA6.6
0E680:  BCF    FA6.7
0E682:  BSF    FA6.2
0E684:  MOVF   FF2,W
0E686:  MOVWF  00
0E688:  BCF    FF2.6
0E68A:  BCF    FF2.7
0E68C:  MOVLB  F
0E68E:  MOVLW  55
0E690:  MOVWF  FA7
0E692:  MOVLW  AA
0E694:  MOVWF  FA7
0E696:  BSF    FA6.1
0E698:  BTFSC  FA6.1
0E69A:  BRA    E698
0E69C:  BCF    FA6.2
0E69E:  MOVF   00,W
0E6A0:  IORWF  FF2,F
....................                delay_ms(10); 
0E6A2:  MOVLW  0A
0E6A4:  MOVLB  6
0E6A6:  MOVWF  x37
0E6A8:  MOVLB  0
0E6AA:  CALL   1F36
....................                write_eeprom(26,(int8)Tciclo); 
0E6AE:  MOVFF  182,637
0E6B2:  MOVFF  181,636
0E6B6:  MOVFF  180,635
0E6BA:  MOVFF  17F,634
0E6BE:  CALL   50E6
0E6C2:  MOVFF  01,622
0E6C6:  CLRF   FAA
0E6C8:  MOVLW  1A
0E6CA:  MOVWF  FA9
0E6CC:  MOVFF  622,FA8
0E6D0:  BCF    FA6.6
0E6D2:  BCF    FA6.7
0E6D4:  BSF    FA6.2
0E6D6:  MOVF   FF2,W
0E6D8:  MOVWF  00
0E6DA:  BCF    FF2.6
0E6DC:  BCF    FF2.7
0E6DE:  MOVLB  F
0E6E0:  MOVLW  55
0E6E2:  MOVWF  FA7
0E6E4:  MOVLW  AA
0E6E6:  MOVWF  FA7
0E6E8:  BSF    FA6.1
0E6EA:  BTFSC  FA6.1
0E6EC:  BRA    E6EA
0E6EE:  BCF    FA6.2
0E6F0:  MOVF   00,W
0E6F2:  IORWF  FF2,F
....................                delay_ms(10); 
0E6F4:  MOVLW  0A
0E6F6:  MOVLB  6
0E6F8:  MOVWF  x37
0E6FA:  MOVLB  0
0E6FC:  CALL   1F36
....................                write_eeprom(28,(int8)Sensor[0].RPT100); 
0E700:  MOVFF  2A5,637
0E704:  MOVFF  2A4,636
0E708:  MOVFF  2A3,635
0E70C:  MOVFF  2A2,634
0E710:  CALL   50E6
0E714:  MOVFF  01,622
0E718:  CLRF   FAA
0E71A:  MOVLW  1C
0E71C:  MOVWF  FA9
0E71E:  MOVFF  622,FA8
0E722:  BCF    FA6.6
0E724:  BCF    FA6.7
0E726:  BSF    FA6.2
0E728:  MOVF   FF2,W
0E72A:  MOVWF  00
0E72C:  BCF    FF2.6
0E72E:  BCF    FF2.7
0E730:  MOVLB  F
0E732:  MOVLW  55
0E734:  MOVWF  FA7
0E736:  MOVLW  AA
0E738:  MOVWF  FA7
0E73A:  BSF    FA6.1
0E73C:  BTFSC  FA6.1
0E73E:  BRA    E73C
0E740:  BCF    FA6.2
0E742:  MOVF   00,W
0E744:  IORWF  FF2,F
....................                delay_ms(10); 
0E746:  MOVLW  0A
0E748:  MOVLB  6
0E74A:  MOVWF  x37
0E74C:  MOVLB  0
0E74E:  CALL   1F36
....................                Temporal=Sensor[0].RPT100-((int8)Sensor[0].RPT100); 
0E752:  MOVFF  2A5,637
0E756:  MOVFF  2A4,636
0E75A:  MOVFF  2A3,635
0E75E:  MOVFF  2A2,634
0E762:  CALL   50E6
0E766:  MOVLB  6
0E768:  CLRF   x38
0E76A:  MOVFF  01,637
0E76E:  MOVLB  0
0E770:  CALL   1F00
0E774:  BSF    FD8.1
0E776:  MOVFF  2A5,63D
0E77A:  MOVFF  2A4,63C
0E77E:  MOVFF  2A3,63B
0E782:  MOVFF  2A2,63A
0E786:  MOVFF  03,641
0E78A:  MOVFF  02,640
0E78E:  MOVFF  01,63F
0E792:  MOVFF  00,63E
0E796:  CALL   20BC
0E79A:  MOVFF  03,148
0E79E:  MOVFF  02,147
0E7A2:  MOVFF  01,146
0E7A6:  MOVFF  00,145
....................                Temporal=Temporal*10; 
0E7AA:  MOVFF  148,63B
0E7AE:  MOVFF  147,63A
0E7B2:  MOVFF  146,639
0E7B6:  MOVFF  145,638
0E7BA:  MOVLB  6
0E7BC:  CLRF   x3F
0E7BE:  CLRF   x3E
0E7C0:  MOVLW  20
0E7C2:  MOVWF  x3D
0E7C4:  MOVLW  82
0E7C6:  MOVWF  x3C
0E7C8:  MOVLB  0
0E7CA:  CALL   3F42
0E7CE:  MOVFF  03,148
0E7D2:  MOVFF  02,147
0E7D6:  MOVFF  01,146
0E7DA:  MOVFF  00,145
....................                write_eeprom(27,(int8)Temporal); 
0E7DE:  MOVFF  148,637
0E7E2:  MOVFF  147,636
0E7E6:  MOVFF  146,635
0E7EA:  MOVFF  145,634
0E7EE:  CALL   50E6
0E7F2:  MOVFF  01,622
0E7F6:  CLRF   FAA
0E7F8:  MOVLW  1B
0E7FA:  MOVWF  FA9
0E7FC:  MOVFF  622,FA8
0E800:  BCF    FA6.6
0E802:  BCF    FA6.7
0E804:  BSF    FA6.2
0E806:  MOVF   FF2,W
0E808:  MOVWF  00
0E80A:  BCF    FF2.6
0E80C:  BCF    FF2.7
0E80E:  MOVLB  F
0E810:  MOVLW  55
0E812:  MOVWF  FA7
0E814:  MOVLW  AA
0E816:  MOVWF  FA7
0E818:  BSF    FA6.1
0E81A:  BTFSC  FA6.1
0E81C:  BRA    E81A
0E81E:  BCF    FA6.2
0E820:  MOVF   00,W
0E822:  IORWF  FF2,F
....................                delay_ms(10); 
0E824:  MOVLW  0A
0E826:  MOVLB  6
0E828:  MOVWF  x37
0E82A:  MOVLB  0
0E82C:  CALL   1F36
....................                write_eeprom(30,(int8)Sensor[1].RPT100); 
0E830:  MOVFF  409,637
0E834:  MOVFF  408,636
0E838:  MOVFF  407,635
0E83C:  MOVFF  406,634
0E840:  CALL   50E6
0E844:  MOVFF  01,622
0E848:  CLRF   FAA
0E84A:  MOVLW  1E
0E84C:  MOVWF  FA9
0E84E:  MOVFF  622,FA8
0E852:  BCF    FA6.6
0E854:  BCF    FA6.7
0E856:  BSF    FA6.2
0E858:  MOVF   FF2,W
0E85A:  MOVWF  00
0E85C:  BCF    FF2.6
0E85E:  BCF    FF2.7
0E860:  MOVLB  F
0E862:  MOVLW  55
0E864:  MOVWF  FA7
0E866:  MOVLW  AA
0E868:  MOVWF  FA7
0E86A:  BSF    FA6.1
0E86C:  BTFSC  FA6.1
0E86E:  BRA    E86C
0E870:  BCF    FA6.2
0E872:  MOVF   00,W
0E874:  IORWF  FF2,F
....................                delay_ms(10); 
0E876:  MOVLW  0A
0E878:  MOVLB  6
0E87A:  MOVWF  x37
0E87C:  MOVLB  0
0E87E:  CALL   1F36
....................                Temporal=Sensor[1].RPT100-((int8)Sensor[1].RPT100); 
0E882:  MOVFF  409,637
0E886:  MOVFF  408,636
0E88A:  MOVFF  407,635
0E88E:  MOVFF  406,634
0E892:  CALL   50E6
0E896:  MOVLB  6
0E898:  CLRF   x38
0E89A:  MOVFF  01,637
0E89E:  MOVLB  0
0E8A0:  CALL   1F00
0E8A4:  BSF    FD8.1
0E8A6:  MOVFF  409,63D
0E8AA:  MOVFF  408,63C
0E8AE:  MOVFF  407,63B
0E8B2:  MOVFF  406,63A
0E8B6:  MOVFF  03,641
0E8BA:  MOVFF  02,640
0E8BE:  MOVFF  01,63F
0E8C2:  MOVFF  00,63E
0E8C6:  CALL   20BC
0E8CA:  MOVFF  03,148
0E8CE:  MOVFF  02,147
0E8D2:  MOVFF  01,146
0E8D6:  MOVFF  00,145
....................                Temporal=Temporal*10; 
0E8DA:  MOVFF  148,63B
0E8DE:  MOVFF  147,63A
0E8E2:  MOVFF  146,639
0E8E6:  MOVFF  145,638
0E8EA:  MOVLB  6
0E8EC:  CLRF   x3F
0E8EE:  CLRF   x3E
0E8F0:  MOVLW  20
0E8F2:  MOVWF  x3D
0E8F4:  MOVLW  82
0E8F6:  MOVWF  x3C
0E8F8:  MOVLB  0
0E8FA:  CALL   3F42
0E8FE:  MOVFF  03,148
0E902:  MOVFF  02,147
0E906:  MOVFF  01,146
0E90A:  MOVFF  00,145
....................                write_eeprom(29,(int8)Temporal); 
0E90E:  MOVFF  148,637
0E912:  MOVFF  147,636
0E916:  MOVFF  146,635
0E91A:  MOVFF  145,634
0E91E:  CALL   50E6
0E922:  MOVFF  01,622
0E926:  CLRF   FAA
0E928:  MOVLW  1D
0E92A:  MOVWF  FA9
0E92C:  MOVFF  622,FA8
0E930:  BCF    FA6.6
0E932:  BCF    FA6.7
0E934:  BSF    FA6.2
0E936:  MOVF   FF2,W
0E938:  MOVWF  00
0E93A:  BCF    FF2.6
0E93C:  BCF    FF2.7
0E93E:  MOVLB  F
0E940:  MOVLW  55
0E942:  MOVWF  FA7
0E944:  MOVLW  AA
0E946:  MOVWF  FA7
0E948:  BSF    FA6.1
0E94A:  BTFSC  FA6.1
0E94C:  BRA    E94A
0E94E:  BCF    FA6.2
0E950:  MOVF   00,W
0E952:  IORWF  FF2,F
....................                delay_ms(10); 
0E954:  MOVLW  0A
0E956:  MOVLB  6
0E958:  MOVWF  x37
0E95A:  MOVLB  0
0E95C:  CALL   1F36
....................                write_eeprom(31,Atmosferica); 
0E960:  CLRF   FAA
0E962:  MOVLW  1F
0E964:  MOVWF  FA9
0E966:  MOVFF  213,FA8
0E96A:  BCF    FA6.6
0E96C:  BCF    FA6.7
0E96E:  BSF    FA6.2
0E970:  MOVF   FF2,W
0E972:  MOVWF  00
0E974:  BCF    FF2.6
0E976:  BCF    FF2.7
0E978:  MOVLB  F
0E97A:  MOVLW  55
0E97C:  MOVWF  FA7
0E97E:  MOVLW  AA
0E980:  MOVWF  FA7
0E982:  BSF    FA6.1
0E984:  BTFSC  FA6.1
0E986:  BRA    E984
0E988:  BCF    FA6.2
0E98A:  MOVF   00,W
0E98C:  IORWF  FF2,F
....................                delay_ms(10); 
0E98E:  MOVLW  0A
0E990:  MOVLB  6
0E992:  MOVWF  x37
0E994:  MOVLB  0
0E996:  CALL   1F36
....................                write_eeprom(32,Tapertura); 
0E99A:  CLRF   FAA
0E99C:  MOVLW  20
0E99E:  MOVWF  FA9
0E9A0:  MOVFF  1D6,FA8
0E9A4:  BCF    FA6.6
0E9A6:  BCF    FA6.7
0E9A8:  BSF    FA6.2
0E9AA:  MOVF   FF2,W
0E9AC:  MOVWF  00
0E9AE:  BCF    FF2.6
0E9B0:  BCF    FF2.7
0E9B2:  MOVLB  F
0E9B4:  MOVLW  55
0E9B6:  MOVWF  FA7
0E9B8:  MOVLW  AA
0E9BA:  MOVWF  FA7
0E9BC:  BSF    FA6.1
0E9BE:  BTFSC  FA6.1
0E9C0:  BRA    E9BE
0E9C2:  BCF    FA6.2
0E9C4:  MOVF   00,W
0E9C6:  IORWF  FF2,F
....................                delay_ms(10); 
0E9C8:  MOVLW  0A
0E9CA:  MOVLB  6
0E9CC:  MOVWF  x37
0E9CE:  MOVLB  0
0E9D0:  CALL   1F36
....................                GuardaEEPROM=ON; 
0E9D4:  BSF    x87.4
....................             } 
....................             printf("page Menu"); 
0E9D6:  MOVLW  C0
0E9D8:  MOVWF  FF6
0E9DA:  MOVLW  1E
0E9DC:  MOVWF  FF7
0E9DE:  MOVLW  00
0E9E0:  MOVWF  FF8
0E9E2:  CALL   3EB2
....................             SendDataDisplay(); 
0E9E6:  CALL   3EE4
....................             //BorraBuffer(); 
....................          } 
....................       } 
....................       printf("fecha.txt=\"Fecha:%02u/%02u/20%02u    Hora: %02u:%02u\"",Dia,Mes,Year,Hora,Minuto); 
0E9EA:  MOVLW  CA
0E9EC:  MOVWF  FF6
0E9EE:  MOVLW  1E
0E9F0:  MOVWF  FF7
0E9F2:  MOVLW  00
0E9F4:  MOVWF  FF8
0E9F6:  MOVLW  11
0E9F8:  MOVLB  6
0E9FA:  MOVWF  x27
0E9FC:  MOVLB  0
0E9FE:  CALL   543C
0EA02:  MOVFF  20B,627
0EA06:  MOVLW  01
0EA08:  MOVLB  6
0EA0A:  MOVWF  x28
0EA0C:  MOVLB  0
0EA0E:  CALL   54C0
0EA12:  MOVLW  2F
0EA14:  BTFSS  F9E.4
0EA16:  BRA    EA14
0EA18:  MOVWF  FAD
0EA1A:  MOVFF  20A,627
0EA1E:  MOVLW  01
0EA20:  MOVLB  6
0EA22:  MOVWF  x28
0EA24:  MOVLB  0
0EA26:  CALL   54C0
0EA2A:  MOVLW  2F
0EA2C:  BTFSS  F9E.4
0EA2E:  BRA    EA2C
0EA30:  MOVWF  FAD
0EA32:  MOVLW  32
0EA34:  BTFSS  F9E.4
0EA36:  BRA    EA34
0EA38:  MOVWF  FAD
0EA3A:  MOVLW  30
0EA3C:  BTFSS  F9E.4
0EA3E:  BRA    EA3C
0EA40:  MOVWF  FAD
0EA42:  MOVFF  209,627
0EA46:  MOVLW  01
0EA48:  MOVLB  6
0EA4A:  MOVWF  x28
0EA4C:  MOVLB  0
0EA4E:  CALL   54C0
0EA52:  MOVLW  EB
0EA54:  MOVWF  FF6
0EA56:  MOVLW  1E
0EA58:  MOVWF  FF7
0EA5A:  MOVLW  00
0EA5C:  MOVWF  FF8
0EA5E:  MOVLW  0A
0EA60:  MOVLB  6
0EA62:  MOVWF  x27
0EA64:  MOVLB  0
0EA66:  CALL   543C
0EA6A:  MOVFF  20C,627
0EA6E:  MOVLW  01
0EA70:  MOVLB  6
0EA72:  MOVWF  x28
0EA74:  MOVLB  0
0EA76:  CALL   54C0
0EA7A:  MOVLW  3A
0EA7C:  BTFSS  F9E.4
0EA7E:  BRA    EA7C
0EA80:  MOVWF  FAD
0EA82:  MOVFF  20D,627
0EA86:  MOVLW  01
0EA88:  MOVLB  6
0EA8A:  MOVWF  x28
0EA8C:  MOVLB  0
0EA8E:  CALL   54C0
0EA92:  MOVLW  22
0EA94:  BTFSS  F9E.4
0EA96:  BRA    EA94
0EA98:  MOVWF  FAD
....................       SendDataDisplay();  
0EA9A:  CALL   3EE4
0EA9E:  MOVLB  1
....................     } 
.................... //_--------------------------------------------------------------------------------------------------------------------------------------------------------        
....................  
....................    } 
0EAA0:  GOTO   7580
.................... } 
0EAA4:  SLEEP 

Configuration Fuses:
   Word  1: 0200   HS NOIESO NOFCMEN
   Word  2: 1B1F   BROWNOUT WDT BORV20 NOPUT WDT8192
   Word  3: 0000   NOPBADEN NOLPT1OSC NOMCLR
   Word  4: 00B0   NOSTVREN NODEBUG NOLVP NOXINST BBSIZ4K
   Word  5: C03F   NOPROTECT NOCPD NOCPB
   Word  6: E03F   NOWRT NOWRTD NOWRTC NOWRTB
   Word  7: 403F   NOEBTR NOEBTRB
