CCS PCH C Compiler, Version 4.104, 5967               25-ago.-18 08:14

               Filename: H:\JP\JP\Laboratorio\Autoclave\Autoclave Horizontal\Sin Precamara\2018\Autoclave 52L Avantika #004587742\Mantenimiento 16-08-2018\Firmware V4.0\GLCD_Controller\GLCD_Controller.lst

               ROM used: 51768 bytes (53%)
                         Largest free fragment is 32768
               RAM used: 1835 (55%) at main() level
                         1889 (57%) worst case
               Stack:    7 worst case (6 in main + 1 for interrupts)

*
00000:  GOTO   4AFA
*
00008:  MOVWF  04
0000A:  MOVFF  FD8,05
0000E:  MOVFF  FE0,06
00012:  MOVLB  0
00014:  MOVFF  FE9,0C
00018:  MOVFF  FEA,07
0001C:  MOVFF  FE1,08
00020:  MOVFF  FE2,09
00024:  MOVFF  FD9,0A
00028:  MOVFF  FDA,0B
0002C:  MOVFF  FF3,12
00030:  MOVFF  FF4,13
00034:  MOVFF  FFA,14
00038:  MOVFF  FFB,15
0003C:  MOVFF  00,0E
00040:  MOVFF  01,0F
00044:  MOVFF  02,10
00048:  MOVFF  03,11
0004C:  BTFSS  FF2.5
0004E:  GOTO   0058
00052:  BTFSC  FF2.2
00054:  GOTO   1648
00058:  BTFSS  F9D.0
0005A:  GOTO   0064
0005E:  BTFSC  F9E.0
00060:  GOTO   16B0
00064:  MOVFF  0E,00
00068:  MOVFF  0F,01
0006C:  MOVFF  10,02
00070:  MOVFF  11,03
00074:  MOVFF  0C,FE9
00078:  MOVFF  07,FEA
0007C:  BSF    07.7
0007E:  MOVFF  08,FE1
00082:  MOVFF  09,FE2
00086:  MOVFF  0A,FD9
0008A:  MOVFF  0B,FDA
0008E:  MOVFF  12,FF3
00092:  MOVFF  13,FF4
00096:  MOVFF  14,FFA
0009A:  MOVFF  15,FFB
0009E:  MOVF   04,W
000A0:  MOVFF  06,FE0
000A4:  MOVFF  05,FD8
000A8:  RETFIE 0
.................... //Falta crear menu de ajuste de variables y de norma CFR21 
....................  
.................... #include <18F4685.h> 
.................... //////// Standard Header file for the PIC18F4685 device //////////////// 
.................... #device PIC18F4685 
.................... #list 
....................  
.................... #device adc=10 
.................... #fuses HS,NOWDT,NOPROTECT,NOLVP,NODEBUG,NOSTVREN,NOPUT,NOCPD,NOWRT,NOIESO,NOFCMEN,NOPBADEN,NOWRTC,NOWRTB,NOEBTR,NOEBTRB,NOCPB,NOXINST,NOLPT1OSC,NOMCLR 
.................... #use delay(clock=20000000) 
*
01796:  MOVLW  07
01798:  MOVWF  FEA
0179A:  MOVLW  2D
0179C:  MOVWF  FE9
0179E:  MOVF   FEF,W
017A0:  BZ    17BC
017A2:  MOVLW  06
017A4:  MOVWF  01
017A6:  CLRF   00
017A8:  DECFSZ 00,F
017AA:  BRA    17A8
017AC:  DECFSZ 01,F
017AE:  BRA    17A6
017B0:  MOVLW  7B
017B2:  MOVWF  00
017B4:  DECFSZ 00,F
017B6:  BRA    17B4
017B8:  DECFSZ FEF,F
017BA:  BRA    17A2
017BC:  RETLW  00
.................... #use i2c(Master,slow,sda=PIN_C4,scl=PIN_C3) 
*
02C70:  MOVLW  08
02C72:  MOVWF  01
02C74:  MOVLW  05
02C76:  MOVWF  00
02C78:  DECFSZ 00,F
02C7A:  BRA    2C78
02C7C:  BCF    F8B.3
02C7E:  BCF    F94.3
02C80:  MOVLW  06
02C82:  MOVWF  00
02C84:  DECFSZ 00,F
02C86:  BRA    2C84
02C88:  MOVLB  7
02C8A:  RLCF   x2B,F
02C8C:  BCF    F8B.4
02C8E:  BTFSC  FD8.0
02C90:  BSF    F94.4
02C92:  BTFSS  FD8.0
02C94:  BCF    F94.4
02C96:  BSF    F94.3
02C98:  BTFSS  F82.3
02C9A:  BRA    2C98
02C9C:  DECFSZ 01,F
02C9E:  BRA    2CA2
02CA0:  BRA    2CA6
02CA2:  MOVLB  0
02CA4:  BRA    2C74
02CA6:  MOVLW  05
02CA8:  MOVWF  00
02CAA:  DECFSZ 00,F
02CAC:  BRA    2CAA
02CAE:  BCF    F8B.3
02CB0:  BCF    F94.3
02CB2:  NOP   
02CB4:  BSF    F94.4
02CB6:  MOVLW  06
02CB8:  MOVWF  00
02CBA:  DECFSZ 00,F
02CBC:  BRA    2CBA
02CBE:  MOVLW  06
02CC0:  MOVWF  00
02CC2:  DECFSZ 00,F
02CC4:  BRA    2CC2
02CC6:  BSF    F94.3
02CC8:  BTFSS  F82.3
02CCA:  BRA    2CC8
02CCC:  CLRF   01
02CCE:  MOVLW  06
02CD0:  MOVWF  00
02CD2:  DECFSZ 00,F
02CD4:  BRA    2CD2
02CD6:  BTFSC  F82.4
02CD8:  BSF    01.0
02CDA:  BCF    F8B.3
02CDC:  BCF    F94.3
02CDE:  BCF    F8B.4
02CE0:  BCF    F94.4
02CE2:  MOVLB  0
02CE4:  RETLW  00
*
02D80:  MOVLW  08
02D82:  MOVLB  7
02D84:  MOVWF  x2B
02D86:  MOVFF  00,72C
02D8A:  BSF    F94.4
02D8C:  MOVLW  06
02D8E:  MOVWF  00
02D90:  DECFSZ 00,F
02D92:  BRA    2D90
02D94:  BSF    F94.3
02D96:  BTFSS  F82.3
02D98:  BRA    2D96
02D9A:  BTFSC  F82.4
02D9C:  BSF    FD8.0
02D9E:  BTFSS  F82.4
02DA0:  BCF    FD8.0
02DA2:  RLCF   01,F
02DA4:  MOVLW  05
02DA6:  MOVWF  00
02DA8:  DECFSZ 00,F
02DAA:  BRA    2DA8
02DAC:  BCF    F94.3
02DAE:  BCF    F8B.3
02DB0:  DECFSZ x2B,F
02DB2:  BRA    2D8A
02DB4:  BSF    F94.4
02DB6:  MOVLW  06
02DB8:  MOVWF  00
02DBA:  DECFSZ 00,F
02DBC:  BRA    2DBA
02DBE:  BCF    F8B.4
02DC0:  MOVF   x2C,W
02DC2:  BTFSS  FD8.2
02DC4:  BCF    F94.4
02DC6:  NOP   
02DC8:  BSF    F94.3
02DCA:  BTFSS  F82.3
02DCC:  BRA    2DCA
02DCE:  MOVLW  05
02DD0:  MOVWF  00
02DD2:  DECFSZ 00,F
02DD4:  BRA    2DD2
02DD6:  BCF    F8B.3
02DD8:  BCF    F94.3
02DDA:  MOVLW  06
02DDC:  MOVWF  00
02DDE:  DECFSZ 00,F
02DE0:  BRA    2DDE
02DE2:  BCF    F8B.4
02DE4:  BCF    F94.4
02DE6:  MOVLB  0
02DE8:  GOTO   3326 (RETURN)
.................... #include "HDM64GS12.c" 
.................... ///////////////////////////////////////////////////////////////////////// 
.................... ////                           HDM64GS12.c                           //// 
.................... ////                                                                 //// 
.................... //// This file contains drivers for using a Hantronix HDM64GS12 with //// 
.................... //// a KS0108 display controller. The HDM64GS12 is 128 by 64 pixels. //// 
.................... //// The driver treats the upper left pixel as (0,0).                //// 
.................... ////                                                                 //// 
.................... //// Use #define FAST_GLCD if the target chip has at least 1k of RAM //// 
.................... //// to decrease the time it takes to update the display.            //// 
.................... //// glcd_update() must then be called to update the display after   //// 
.................... //// changing the pixel information.                                 //// 
.................... //// See ex_glcd.c for suggested usage.                              //// 
.................... //// See KS0108.c for controlling a single 64 by 64 display          //// 
.................... ///////////////////////////////////////////////////////////////////////// 
.................... ////                                                                 //// 
.................... //// LCD Pin connections:                                            //// 
.................... //// (These can be changed as needed in the following defines).      //// 
.................... ////  * 1: VSS is connected to GND                                   //// 
.................... ////  * 2: VDD is connected to +5V                                   //// 
.................... ////  * 3: V0  - LCD operating voltage (Constrast adjustment)        //// 
.................... ////  * 4: D/I - Data or Instruction is connected to B2              //// 
.................... ////  * 5: R/W - Read or Write is connected to B4                    //// 
.................... ////  * 6: Enable is connected to B5                                 //// 
.................... ////  *7-14: Data Bus 0 to 7 is connected to port d                  //// 
.................... ////  *15: Chip Select 1 is connected to B0                          //// 
.................... ////  *16: Chip Select 2 is connected to B1                          //// 
.................... ////  *17: Reset is connected to C0                                  //// 
.................... ////  *18: Negative voltage is also connected to the 20k Ohm POT     //// 
.................... ////  *19: Positive voltage for LED backlight is connected to +5V    //// 
.................... ////  *20: Negavtive voltage for LED backlight is connected to GND   //// 
.................... ////                                                                 //// 
.................... ///////////////////////////////////////////////////////////////////////// 
.................... ////                                                                 //// 
.................... ////  glcd_init(mode)                                                //// 
.................... ////     * Must be called before any other function.                 //// 
.................... ////       - mode can be ON or OFF to turn the LCD on or off         //// 
.................... ////                                                                 //// 
.................... ////  glcd_pixel(x,y,color)                                          //// 
.................... ////     * Sets the pixel to the given color.                        //// 
.................... ////       - color can be ON or OFF                                  //// 
.................... ////                                                                 //// 
.................... ////  glcd_fillScreen(color)                                         //// 
.................... ////     * Fills the entire LCD with the given color.                //// 
.................... ////       - color can be ON or OFF                                  //// 
.................... ////                                                                 //// 
.................... ////  glcd_update()                                                  //// 
.................... ////     * Write the display data stored in RAM to the LCD           //// 
.................... ////     * Only available if FAST_GLCD is defined                    //// 
.................... ////                                                                 //// 
.................... ///////////////////////////////////////////////////////////////////////// 
.................... ////        (C) Copyright 1996, 2004 Custom Computer Services        //// 
.................... //// This source code may only be used by licensed users of the CCS  //// 
.................... //// C compiler.  This source code may only be distributed to other  //// 
.................... //// licensed users of the CCS C compiler.  No other use,            //// 
.................... //// reproduction or distribution is permitted without written       //// 
.................... //// permission.  Derivative programs created using this software    //// 
.................... //// in object code form are not restricted in any way.              //// 
.................... ///////////////////////////////////////////////////////////////////////// 
....................  
....................  
....................  
.................... #ifndef HDM64GS12 
.................... #define HDM64GS12 
....................  
.................... #ifndef FAST_GLCD 
.................... #define FAST_GLCD 
....................  
.................... #ifndef GLCD_WIDTH 
.................... #define GLCD_WIDTH   128 
.................... #endif 
....................  
.................... #ifndef GLCD_CS1 
.................... #define GLCD_CS1     PIN_B0   // Chip Selection 1 
.................... #endif 
....................  
.................... #ifndef GLCD_CS2 
.................... #define GLCD_CS2     PIN_B1   // Chip Selection 2 
.................... #endif 
....................  
.................... #ifndef GLCD_DI 
.................... #define GLCD_DI      PIN_B5   // Data or Instruction input 
.................... #endif 
....................  
.................... #ifndef GLCD_RW 
.................... #define GLCD_RW      PIN_B4   // Read/Write 
.................... #endif 
....................  
.................... #ifndef GLCD_E 
.................... #define GLCD_E       PIN_B3   // Enable 
.................... #endif 
....................  
.................... #ifndef GLCD_RST 
.................... #define GLCD_RST     PIN_B2   // Reset 
.................... #endif 
....................  
.................... #define GLCD_LEFT    0 
.................... #define GLCD_RIGHT   1 
....................  
.................... #ifndef ON 
.................... #define ON           1 
.................... #endif 
....................  
.................... #ifndef OFF 
.................... #define OFF          0 
.................... #endif 
....................  
.................... ///////////////////////////////////////////////////////////////////////// 
.................... // Function Prototypes 
.................... ///////////////////////////////////////////////////////////////////////// 
.................... void glcd_init(int1 mode); 
.................... void glcd_pixel(int8 x, int8 y, int1 color); 
.................... void glcd_fillScreen(int1 color); 
.................... void glcd_writeByte(int1 side, BYTE data); 
.................... BYTE glcd_readByte(int1 side); 
.................... void glcd_update(); 
.................... ///////////////////////////////////////////////////////////////////////// 
....................  
.................... #ifdef FAST_GLCD 
.................... struct 
.................... { 
....................    int8 left[512]; 
....................    int8 right[512]; 
.................... } displayData; 
.................... #endif 
....................  
....................  
.................... // Purpose:       Initialize the LCD. 
.................... //                Call before using any other LCD function. 
.................... // Inputs:        OFF - Turns the LCD off 
.................... //                ON  - Turns the LCD on 
.................... void glcd_init(int1 mode) 
.................... { 
....................    // Initialze some pins 
....................    output_high(GLCD_RST); 
*
01D8C:  BCF    F93.2
01D8E:  BSF    F8A.2
....................    output_low(GLCD_E); 
01D90:  BCF    F93.3
01D92:  BCF    F8A.3
....................    output_low(GLCD_CS1); 
01D94:  BCF    F93.0
01D96:  BCF    F8A.0
....................    output_low(GLCD_CS2); 
01D98:  BCF    F93.1
01D9A:  BCF    F8A.1
....................  
....................    output_low(GLCD_DI);                 // Set for instruction 
01D9C:  BCF    F93.5
01D9E:  BCF    F8A.5
....................    glcd_writeByte(GLCD_LEFT,  0xC0);    // Specify first RAM line at the top 
01DA0:  MOVLB  7
01DA2:  CLRF   x3F
01DA4:  MOVLW  C0
01DA6:  MOVWF  x40
01DA8:  MOVLB  0
01DAA:  RCALL  1C44
....................    glcd_writeByte(GLCD_RIGHT, 0xC0);    //   of the screen 
01DAC:  MOVLW  01
01DAE:  MOVLB  7
01DB0:  MOVWF  x3F
01DB2:  MOVLW  C0
01DB4:  MOVWF  x40
01DB6:  MOVLB  0
01DB8:  RCALL  1C44
....................    glcd_writeByte(GLCD_LEFT,  0x40);    // Set the column address to 0 
01DBA:  MOVLB  7
01DBC:  CLRF   x3F
01DBE:  MOVLW  40
01DC0:  MOVWF  x40
01DC2:  MOVLB  0
01DC4:  RCALL  1C44
....................    glcd_writeByte(GLCD_RIGHT, 0x40); 
01DC6:  MOVLW  01
01DC8:  MOVLB  7
01DCA:  MOVWF  x3F
01DCC:  MOVLW  40
01DCE:  MOVWF  x40
01DD0:  MOVLB  0
01DD2:  RCALL  1C44
....................    glcd_writeByte(GLCD_LEFT,  0xB8);    // Set the page address to 0 
01DD4:  MOVLB  7
01DD6:  CLRF   x3F
01DD8:  MOVLW  B8
01DDA:  MOVWF  x40
01DDC:  MOVLB  0
01DDE:  RCALL  1C44
....................    glcd_writeByte(GLCD_RIGHT, 0xB8); 
01DE0:  MOVLW  01
01DE2:  MOVLB  7
01DE4:  MOVWF  x3F
01DE6:  MOVLW  B8
01DE8:  MOVWF  x40
01DEA:  MOVLB  0
01DEC:  RCALL  1C44
....................  
....................    if(mode == ON) 
01DEE:  MOVLB  7
01DF0:  DECFSZ x27,W
01DF2:  BRA    1E10
....................    { 
....................       glcd_writeByte(GLCD_LEFT,  0x3F); // Turn the display on 
01DF4:  CLRF   x3F
01DF6:  MOVLW  3F
01DF8:  MOVWF  x40
01DFA:  MOVLB  0
01DFC:  RCALL  1C44
....................       glcd_writeByte(GLCD_RIGHT, 0x3F); 
01DFE:  MOVLW  01
01E00:  MOVLB  7
01E02:  MOVWF  x3F
01E04:  MOVLW  3F
01E06:  MOVWF  x40
01E08:  MOVLB  0
01E0A:  RCALL  1C44
....................    } 
....................    else 
01E0C:  BRA    1E28
01E0E:  MOVLB  7
....................    { 
....................       glcd_writeByte(GLCD_LEFT,  0x3E); // Turn the display off 
01E10:  CLRF   x3F
01E12:  MOVLW  3E
01E14:  MOVWF  x40
01E16:  MOVLB  0
01E18:  RCALL  1C44
....................       glcd_writeByte(GLCD_RIGHT, 0x3E); 
01E1A:  MOVLW  01
01E1C:  MOVLB  7
01E1E:  MOVWF  x3F
01E20:  MOVLW  3E
01E22:  MOVWF  x40
01E24:  MOVLB  0
01E26:  RCALL  1C44
....................    } 
....................  
....................    glcd_fillScreen(OFF);                // Clear the display 
01E28:  MOVLB  7
01E2A:  CLRF   x28
01E2C:  MOVLB  0
01E2E:  RCALL  1C7A
....................  
....................    #ifdef FAST_GLCD 
....................    glcd_update(); 
01E30:  RCALL  1CD4
....................    #endif 
.................... } 
01E32:  RETLW  00
....................  
....................  
.................... // Purpose:    Update the LCD with data from the display arrays 
.................... #ifdef FAST_GLCD 
.................... void glcd_update() 
.................... { 
....................    int8 i, j; 
....................    int8 *p1, *p2; 
....................  
....................    p1 = displayData.left; 
*
01CD4:  MOVLB  7
01CD6:  CLRF   x3B
01CD8:  MOVLW  17
01CDA:  MOVWF  x3A
....................    p2 = displayData.right; 
01CDC:  MOVLW  02
01CDE:  MOVWF  x3D
01CE0:  MOVLW  17
01CE2:  MOVWF  x3C
....................  
....................    // Loop through the vertical pages 
....................    for(i = 0; i < 8; ++i) 
01CE4:  CLRF   x38
01CE6:  MOVF   x38,W
01CE8:  SUBLW  07
01CEA:  BNC   1D88
....................    { 
....................       output_low(GLCD_DI);                      // Set for instruction 
01CEC:  BCF    F93.5
01CEE:  BCF    F8A.5
....................       glcd_writeByte(GLCD_LEFT, 0x40);          // Set horizontal address to 0 
01CF0:  CLRF   x3F
01CF2:  MOVLW  40
01CF4:  MOVWF  x40
01CF6:  MOVLB  0
01CF8:  RCALL  1C44
....................       glcd_writeByte(GLCD_RIGHT, 0x40); 
01CFA:  MOVLW  01
01CFC:  MOVLB  7
01CFE:  MOVWF  x3F
01D00:  MOVLW  40
01D02:  MOVWF  x40
01D04:  MOVLB  0
01D06:  RCALL  1C44
....................       glcd_writeByte(GLCD_LEFT, i | 0xB8);      // Set page address 
01D08:  MOVLB  7
01D0A:  MOVF   x38,W
01D0C:  IORLW  B8
01D0E:  MOVWF  x3E
01D10:  CLRF   x3F
01D12:  MOVWF  x40
01D14:  MOVLB  0
01D16:  RCALL  1C44
....................       glcd_writeByte(GLCD_RIGHT, i | 0xB8); 
01D18:  MOVLB  7
01D1A:  MOVF   x38,W
01D1C:  IORLW  B8
01D1E:  MOVWF  x3E
01D20:  MOVLW  01
01D22:  MOVWF  x3F
01D24:  MOVFF  73E,740
01D28:  MOVLB  0
01D2A:  RCALL  1C44
....................       output_high(GLCD_DI);                     // Set for data 
01D2C:  BCF    F93.5
01D2E:  BSF    F8A.5
....................  
....................       // Loop through the horizontal sections 
....................       for(j = 0; j < 64; ++j) 
01D30:  MOVLB  7
01D32:  CLRF   x39
01D34:  MOVF   x39,W
01D36:  SUBLW  3F
01D38:  BNC   1D84
....................       { 
....................          glcd_writeByte(GLCD_LEFT, *p1++);      // Turn pixels on or off 
01D3A:  MOVFF  73B,03
01D3E:  MOVF   x3A,W
01D40:  INCF   x3A,F
01D42:  BTFSC  FD8.2
01D44:  INCF   x3B,F
01D46:  MOVWF  FE9
01D48:  MOVFF  03,FEA
01D4C:  MOVFF  FEF,73E
01D50:  CLRF   x3F
01D52:  MOVFF  73E,740
01D56:  MOVLB  0
01D58:  RCALL  1C44
....................          glcd_writeByte(GLCD_RIGHT, *p2++);     // Turn pixels on or off 
01D5A:  MOVLB  7
01D5C:  MOVFF  73D,03
01D60:  MOVF   x3C,W
01D62:  INCF   x3C,F
01D64:  BTFSC  FD8.2
01D66:  INCF   x3D,F
01D68:  MOVWF  FE9
01D6A:  MOVFF  03,FEA
01D6E:  MOVFF  FEF,73E
01D72:  MOVLW  01
01D74:  MOVWF  x3F
01D76:  MOVFF  73E,740
01D7A:  MOVLB  0
01D7C:  RCALL  1C44
....................       } 
01D7E:  MOVLB  7
01D80:  INCF   x39,F
01D82:  BRA    1D34
....................    } 
01D84:  INCF   x38,F
01D86:  BRA    1CE6
.................... } 
01D88:  MOVLB  0
01D8A:  RETLW  00
.................... #endif 
....................  
....................  
.................... // Purpose:    Turn a pixel on a graphic LCD on or off 
.................... // Inputs:     1) x - the x coordinate of the pixel 
.................... //             2) y - the y coordinate of the pixel 
.................... //             3) color - ON or OFF 
.................... void glcd_pixel(int8 x, int8 y, int1 color) 
.................... #ifdef FAST_GLCD 
.................... { 
....................    int8* p; 
....................    int16 temp; 
....................    temp =  y/8; 
*
01E34:  MOVLB  7
01E36:  CLRF   x5E
01E38:  RRCF   x59,W
01E3A:  MOVWF  x5D
01E3C:  RRCF   x5D,F
01E3E:  RRCF   x5D,F
01E40:  MOVLW  1F
01E42:  ANDWF  x5D,F
....................    temp *= 64; 
01E44:  RLCF   x5D,F
01E46:  RLCF   x5E,F
01E48:  RLCF   x5D,F
01E4A:  RLCF   x5E,F
01E4C:  RLCF   x5D,F
01E4E:  RLCF   x5E,F
01E50:  RLCF   x5D,F
01E52:  RLCF   x5E,F
01E54:  RLCF   x5D,F
01E56:  RLCF   x5E,F
01E58:  RLCF   x5D,F
01E5A:  RLCF   x5E,F
01E5C:  MOVLW  C0
01E5E:  ANDWF  x5D,F
....................    temp += x; 
01E60:  MOVF   x58,W
01E62:  ADDWF  x5D,F
01E64:  MOVLW  00
01E66:  ADDWFC x5E,F
....................  
....................    if(x > 63) 
01E68:  MOVF   x58,W
01E6A:  SUBLW  3F
01E6C:  BC    1E88
....................    { 
....................       p = displayData.right + temp - 64; 
01E6E:  MOVLW  17
01E70:  ADDWF  x5D,W
01E72:  MOVWF  x5F
01E74:  MOVLW  02
01E76:  ADDWFC x5E,W
01E78:  MOVWF  x60
01E7A:  MOVLW  40
01E7C:  SUBWF  x5F,W
01E7E:  MOVWF  x5B
01E80:  MOVLW  00
01E82:  SUBWFB x60,W
01E84:  MOVWF  x5C
....................    } 
....................    else 
01E86:  BRA    1E94
....................    { 
....................       p = displayData.left + temp; 
01E88:  MOVLW  17
01E8A:  ADDWF  x5D,W
01E8C:  MOVWF  x5B
01E8E:  MOVLW  00
01E90:  ADDWFC x5E,W
01E92:  MOVWF  x5C
....................    } 
....................  
....................    if(color) 
01E94:  MOVF   x5A,F
01E96:  BZ    1EC2
....................    { 
....................       bit_set(*p, y%8); 
01E98:  MOVFF  75C,03
01E9C:  MOVFF  75B,FE9
01EA0:  MOVFF  75C,FEA
01EA4:  MOVF   x59,W
01EA6:  ANDLW  07
01EA8:  MOVWF  x5F
01EAA:  MOVLW  01
01EAC:  MOVWF  00
01EAE:  MOVF   x5F,W
01EB0:  MOVWF  01
01EB2:  BZ    1EBC
01EB4:  BCF    FD8.0
01EB6:  RLCF   00,F
01EB8:  DECFSZ 01,F
01EBA:  BRA    1EB4
01EBC:  MOVF   00,W
01EBE:  IORWF  FEF,F
....................    } 
....................    else 
01EC0:  BRA    1EEC
....................    { 
....................       bit_clear(*p, y%8); 
01EC2:  MOVFF  75C,03
01EC6:  MOVFF  75B,FE9
01ECA:  MOVFF  75C,FEA
01ECE:  MOVF   x59,W
01ED0:  ANDLW  07
01ED2:  MOVWF  x5F
01ED4:  MOVLW  01
01ED6:  MOVWF  00
01ED8:  MOVF   x5F,W
01EDA:  MOVWF  01
01EDC:  BZ    1EE6
01EDE:  BCF    FD8.0
01EE0:  RLCF   00,F
01EE2:  DECFSZ 01,F
01EE4:  BRA    1EDE
01EE6:  MOVF   00,W
01EE8:  XORLW  FF
01EEA:  ANDWF  FEF,F
....................    } 
.................... } 
01EEC:  MOVLB  0
01EEE:  RETLW  00
.................... #else 
.................... { 
....................    BYTE data; 
....................    int1 side = GLCD_LEFT;  // Stores which chip to use on the LCD 
....................  
....................    if(x > 63)              // Check for first or second display area 
....................    { 
....................       x -= 64; 
....................       side = GLCD_RIGHT; 
....................    } 
....................  
....................    output_low(GLCD_DI);                         // Set for instruction 
....................    bit_clear(x,7);                              // Clear the MSB. Part of an instruction code 
....................    bit_set(x,6);                                // Set bit 6. Also part of an instruction code 
....................    glcd_writeByte(side, x);                     // Set the horizontal address 
....................    glcd_writeByte(side, (y/8 & 0xBF) | 0xB8);   // Set the vertical page address 
....................    output_high(GLCD_DI);                        // Set for data 
....................    glcd_readByte(side);                         // Need two reads to get data 
....................    data = glcd_readByte(side);                  //  at new address 
....................  
....................    if(color == ON) 
....................       bit_set(data, y%8);        // Turn the pixel on 
....................    else                          // or 
....................       bit_clear(data, y%8);      // turn the pixel off 
....................  
....................    output_low(GLCD_DI);          // Set for instruction 
....................    glcd_writeByte(side, x);      // Set the horizontal address 
....................    output_high(GLCD_DI);         // Set for data 
....................    glcd_writeByte(side, data);   // Write the pixel data 
.................... } 
.................... #endif 
....................  
....................  
.................... // Purpose:    Fill the LCD screen with the passed in color 
.................... // Inputs:     ON  - turn all the pixels on 
.................... //             OFF - turn all the pixels off 
.................... void glcd_fillScreen(int1 color) 
.................... #ifdef FAST_GLCD 
.................... { 
....................    int8  data; 
....................    int8  *p1, *p2; 
....................    int16 i; 
....................  
....................    p1 = displayData.left; 
*
01C7A:  MOVLB  7
01C7C:  CLRF   x2B
01C7E:  MOVLW  17
01C80:  MOVWF  x2A
....................    p2 = displayData.right; 
01C82:  MOVLW  02
01C84:  MOVWF  x2D
01C86:  MOVLW  17
01C88:  MOVWF  x2C
....................    data = 0xFF * color; 
01C8A:  MOVF   x28,W
01C8C:  MULLW  FF
01C8E:  MOVFF  FF3,729
....................  
....................    for(i=0; i<512; ++i) 
01C92:  CLRF   x2F
01C94:  CLRF   x2E
01C96:  MOVF   x2F,W
01C98:  SUBLW  01
01C9A:  BNC   1CD0
....................    { 
....................       *p1++ = data; 
01C9C:  MOVFF  72B,03
01CA0:  MOVF   x2A,W
01CA2:  INCF   x2A,F
01CA4:  BTFSC  FD8.2
01CA6:  INCF   x2B,F
01CA8:  MOVWF  FE9
01CAA:  MOVFF  03,FEA
01CAE:  MOVFF  729,FEF
....................       *p2++ = data; 
01CB2:  MOVFF  72D,03
01CB6:  MOVF   x2C,W
01CB8:  INCF   x2C,F
01CBA:  BTFSC  FD8.2
01CBC:  INCF   x2D,F
01CBE:  MOVWF  FE9
01CC0:  MOVFF  03,FEA
01CC4:  MOVFF  729,FEF
....................    } 
01CC8:  INCF   x2E,F
01CCA:  BTFSC  FD8.2
01CCC:  INCF   x2F,F
01CCE:  BRA    1C96
.................... } 
01CD0:  MOVLB  0
01CD2:  RETLW  00
.................... #else 
.................... { 
....................    int8 i, j; 
....................  
....................    // Loop through the vertical pages 
....................    for(i = 0; i < 8; ++i) 
....................    { 
....................       output_low(GLCD_DI);                      // Set for instruction 
....................       glcd_writeByte(GLCD_LEFT, 0b01000000);    // Set horizontal address to 0 
....................       glcd_writeByte(GLCD_RIGHT, 0b01000000); 
....................       glcd_writeByte(GLCD_LEFT, i | 0b10111000);// Set page address 
....................       glcd_writeByte(GLCD_RIGHT, i | 0b10111000); 
....................       output_high(GLCD_DI);                     // Set for data 
....................  
....................       // Loop through the horizontal sections 
....................       for(j = 0; j < 64; ++j) 
....................       { 
....................          glcd_writeByte(GLCD_LEFT, 0xFF*color);  // Turn pixels on or off 
....................          glcd_writeByte(GLCD_RIGHT, 0xFF*color); // Turn pixels on or off 
....................       } 
....................    } 
.................... } 
.................... #endif 
....................  
....................  
.................... // Purpose:    Write a byte of data to the specified chip 
.................... // Inputs:     1) chipSelect - which chip to write the data to 
.................... //             2) data - the byte of data to write 
.................... void glcd_writeByte(int1 side, BYTE data) 
.................... { 
....................    if(side)                   // Choose which side to write to 
*
01C44:  MOVLB  7
01C46:  MOVF   x3F,F
01C48:  BZ    1C50
....................       output_high(GLCD_CS2); 
01C4A:  BCF    F93.1
01C4C:  BSF    F8A.1
....................    else 
01C4E:  BRA    1C54
....................       output_high(GLCD_CS1); 
01C50:  BCF    F93.0
01C52:  BSF    F8A.0
....................  
....................    output_low(GLCD_RW);       // Set for writing 
01C54:  BCF    F93.4
01C56:  BCF    F8A.4
....................    output_d(data);            // Put the data on the port 
01C58:  CLRF   F95
01C5A:  MOVFF  740,F8C
....................    delay_cycles(1); 
01C5E:  NOP   
....................    output_high(GLCD_E);       // Pulse the enable pin 
01C60:  BCF    F93.3
01C62:  BSF    F8A.3
....................    delay_cycles(5); 
01C64:  BRA    1C66
01C66:  BRA    1C68
01C68:  NOP   
....................    output_low(GLCD_E); 
01C6A:  BCF    F93.3
01C6C:  BCF    F8A.3
....................  
....................    output_low(GLCD_CS1);      // Reset the chip select lines 
01C6E:  BCF    F93.0
01C70:  BCF    F8A.0
....................    output_low(GLCD_CS2); 
01C72:  BCF    F93.1
01C74:  BCF    F8A.1
.................... } 
01C76:  MOVLB  0
01C78:  RETLW  00
....................  
....................  
.................... // Purpose:    Reads a byte of data from the specified chip 
.................... // Ouputs:     A byte of data read from the chip 
.................... BYTE glcd_readByte(int1 side) 
.................... { 
....................    BYTE data;                 // Stores the data read from the LCD 
....................  
....................    set_tris_d(0xFF);          // Set port d to input 
....................    output_high(GLCD_RW);      // Set for reading 
....................  
....................    if(side)                   // Choose which side to write to 
....................       output_high(GLCD_CS2); 
....................    else 
....................       output_high(GLCD_CS1); 
....................  
....................    delay_cycles(1); 
....................    output_high(GLCD_E);       // Pulse the enable pin 
....................    delay_cycles(4); 
....................    data = input_d();          // Get the data from the display's output register 
....................    output_low(GLCD_E); 
....................  
....................    output_low(GLCD_CS1);      // Reset the chip select lines 
....................    output_low(GLCD_CS2); 
....................    return data;               // Return the read data 
.................... } 
....................  
.................... #endif 
....................  
.................... #include "GRAPHICS.c" 
.................... ///////////////////////////////////////////////////////////////////////// 
.................... ////                          graphics.c                             //// 
.................... ////                                                                 //// 
.................... ////   This file contains functions to draw lines, rectangles, bars, //// 
.................... ////   circles and text to a display. A function which draws a       //// 
.................... ////   single pixel must be defined before calling the functions in  //// 
.................... ////   this file. Call it glcd_pixel(x, y, color) where x is the     //// 
.................... ////   horizontal coordinate, y is the vertical coordinate, and      //// 
.................... ////   color is 1 bit to turn the pixel on or off.                   //// 
.................... ////                                                                 //// 
.................... ////   * Note: (0, 0) is treated as the upper left corner            //// 
.................... ////                                                                 //// 
.................... ///////////////////////////////////////////////////////////////////////// 
.................... ////                                                                 //// 
.................... ////  glcd_line(x1, y1, x2, y2, color)                               //// 
.................... ////     * Draws a line from the first point to the second point     //// 
.................... ////       with the given color                                      //// 
.................... ////       - color can be ON or OFF                                  //// 
.................... ////                                                                 //// 
.................... ////  glcd_rect(x1, y1, x2, y2, fill, color)                         //// 
.................... ////     * Draws a rectangle with one corner at point (x1,y1) and    //// 
.................... ////       the other corner at point (x2,y2)                         //// 
.................... ////       - fill can be YES or NO                                   //// 
.................... ////       - color can be ON or OFF                                  //// 
.................... ////                                                                 //// 
.................... ////  glcd_bar(x1, y1, x2, y2, width, color)                         //// 
.................... ////     * Draws a bar (wide line) from the first point to the       //// 
.................... ////       second point                                              //// 
.................... ////       - width is the number of pixels wide                      //// 
.................... ////       - color is ON or OFF                                      //// 
.................... ////                                                                 //// 
.................... ////  glcd_circle(x, y, radius, fill, color)                         //// 
.................... ////     * Draws a circle with center at (x,y)                       //// 
.................... ////       - fill can be YES or NO                                   //// 
.................... ////       - color can be ON or OFF                                  //// 
.................... ////                                                                 //// 
.................... ////  glcd_text57(x, y, textptr, size, color)                        //// 
.................... ////     * Write the null terminated text pointed to by textptr with //// 
.................... ////       the upper left coordinate of the first character at (x,y) //// 
.................... ////       Characters are 5 pixels wide and 7 pixels tall            //// 
.................... ////       - size is an integer that scales the size of the text     //// 
.................... ////       - color is ON or OFF                                      //// 
.................... ////     * Note - This function wraps characters to the next line    //// 
.................... ////              use #define GLCD_WIDTH to specify a display width  //// 
.................... ////                                                                 //// 
.................... ///////////////////////////////////////////////////////////////////////// 
.................... ////        (C) Copyright 1996, 2004 Custom Computer Services        //// 
.................... //// This source code may only be used by licensed users of the CCS  //// 
.................... //// C compiler.  This source code may only be distributed to other  //// 
.................... //// licensed users of the CCS C compiler.  No other use,            //// 
.................... //// reproduction or distribution is permitted without written       //// 
.................... //// permission.  Derivative programs created using this software    //// 
.................... //// in object code form are not restricted in any way.              //// 
.................... ///////////////////////////////////////////////////////////////////////// 
....................  
....................  
.................... ///////////////////////////////////////////////////////////////////////// 
.................... #ifndef GRAPHICS_DRAWING_FUNCTIONS 
.................... #define GRAPHICS_DRAWING_FUNCTIONS 
.................... ///////////////////////////////////////////////////////////////////////// 
....................  
....................  
.................... ///////////////////////////////////////////////////////////////////////// 
.................... #ifndef ON 
.................... #define ON  1 
.................... #endif 
....................  
.................... #ifndef OFF 
.................... #define OFF 0 
.................... #endif 
....................  
.................... #ifndef YES 
.................... #define YES 1 
.................... #endif 
....................  
.................... #ifndef NO 
.................... #define NO  0 
.................... #endif 
.................... ///////////////////////////////////////////////////////////////////////// 
....................  
....................  
.................... ///////////////////////////////////////////////////////////////////////// 
.................... //// Defines a 5x7 font 
.................... ///////////////////////////////////////////////////////////////////////// 
.................... const int8 FONT[51][5] ={0x00, 0x00, 0x00, 0x00, 0x00, // SPACE 
....................                          0x00, 0x00, 0x5F, 0x00, 0x00, // ! 
....................                          0x00, 0x03, 0x00, 0x03, 0x00, // " 
....................                          0x14, 0x3E, 0x14, 0x3E, 0x14, // # 
....................                          0x24, 0x2A, 0x7F, 0x2A, 0x12, // $ 
....................                          0x43, 0x33, 0x08, 0x66, 0x61, // % 
....................                          0x36, 0x49, 0x55, 0x22, 0x50, // & 
....................                          0x00, 0x05, 0x03, 0x00, 0x00, // ' 
....................                          0x00, 0x1C, 0x22, 0x41, 0x00, // ( 
....................                          0x00, 0x41, 0x22, 0x1C, 0x00, // ) 
....................                          0x14, 0x08, 0x3E, 0x08, 0x14, // * 
....................                          0x08, 0x08, 0x3E, 0x08, 0x08, // + 
....................                          0x00, 0x50, 0x30, 0x00, 0x00, // , 
....................                          0x08, 0x08, 0x08, 0x08, 0x08, // - 
....................                          0x00, 0x60, 0x60, 0x00, 0x00, // . 
....................                          0x20, 0x10, 0x08, 0x04, 0x02, // / 
....................                          0x3E, 0x51, 0x49, 0x45, 0x3E, // 0 
....................                          0x00, 0x04, 0x02, 0x7F, 0x00, // 1 
....................                          0x42, 0x61, 0x51, 0x49, 0x46, // 2 
....................                          0x22, 0x41, 0x49, 0x49, 0x36, // 3 
....................                          0x18, 0x14, 0x12, 0x7F, 0x10, // 4 
....................                          0x27, 0x45, 0x45, 0x45, 0x39, // 5 
....................                          0x3E, 0x49, 0x49, 0x49, 0x32, // 6 
....................                          0x01, 0x01, 0x71, 0x09, 0x07, // 7 
....................                          0x36, 0x49, 0x49, 0x49, 0x36, // 8 
....................                          0x26, 0x49, 0x49, 0x49, 0x3E, // 9 
....................                          0x00, 0x36, 0x36, 0x00, 0x00, // : 
....................                          0x00, 0x56, 0x36, 0x00, 0x00, // ; 
....................                          0x08, 0x14, 0x22, 0x41, 0x00, // < 
....................                          0x14, 0x14, 0x14, 0x14, 0x14, // = 
....................                          0x00, 0x41, 0x22, 0x14, 0x08, // > 
....................                          0x02, 0x01, 0x51, 0x09, 0x06, // ? 
....................                          0x3E, 0x41, 0x59, 0x55, 0x5E, // @ 
....................                          0x7E, 0x09, 0x09, 0x09, 0x7E, // A 
....................                          0x7F, 0x49, 0x49, 0x49, 0x36, // B 
....................                          0x3E, 0x41, 0x41, 0x41, 0x22, // C 
....................                          0x7F, 0x41, 0x41, 0x41, 0x3E, // D 
....................                          0x7F, 0x49, 0x49, 0x49, 0x41, // E 
....................                          0x7F, 0x09, 0x09, 0x09, 0x01, // F 
....................                          0x3E, 0x41, 0x41, 0x49, 0x3A, // G 
....................                          0x7F, 0x08, 0x08, 0x08, 0x7F, // H 
....................                          0x00, 0x41, 0x7F, 0x41, 0x00, // I 
....................                          0x30, 0x40, 0x40, 0x40, 0x3F, // J 
....................                          0x7F, 0x08, 0x14, 0x22, 0x41, // K 
....................                          0x7F, 0x40, 0x40, 0x40, 0x40, // L 
....................                          0x7F, 0x02, 0x0C, 0x02, 0x7F, // M 
....................                          0x7F, 0x02, 0x04, 0x08, 0x7F, // N 
....................                          0x3E, 0x41, 0x41, 0x41, 0x3E, // O 
....................                          0x7F, 0x09, 0x09, 0x09, 0x06, // P 
....................                          0x1E, 0x21, 0x21, 0x21, 0x5E, // Q 
....................                          0x7F, 0x09, 0x09, 0x09, 0x76};// R 
....................  
.................... const int8 FONT2[44][5]={0x26, 0x49, 0x49, 0x49, 0x32, // S 
....................                          0x01, 0x01, 0x7F, 0x01, 0x01, // T 
....................                          0x3F, 0x40, 0x40, 0x40, 0x3F, // U 
....................                          0x1F, 0x20, 0x40, 0x20, 0x1F, // V 
....................                          0x7F, 0x20, 0x10, 0x20, 0x7F, // W 
....................                          0x41, 0x22, 0x1C, 0x22, 0x41, // X 
....................                          0x07, 0x08, 0x70, 0x08, 0x07, // Y 
....................                          0x61, 0x51, 0x49, 0x45, 0x43, // Z 
....................                          0x00, 0x7F, 0x41, 0x00, 0x00, // [ 
....................                          0x02, 0x04, 0x08, 0x10, 0x20, // \ 
....................                          0x00, 0x00, 0x41, 0x7F, 0x00, // ] 
....................                          0x04, 0x02, 0x01, 0x02, 0x04, // ^ 
....................                          0x40, 0x40, 0x40, 0x40, 0x40, // _ 
....................                          0x00, 0x01, 0x02, 0x04, 0x00, // ` 
....................                          0x20, 0x54, 0x54, 0x54, 0x78, // a 
....................                          0x7F, 0x44, 0x44, 0x44, 0x38, // b 
....................                          0x38, 0x44, 0x44, 0x44, 0x44, // c 
....................                          0x38, 0x44, 0x44, 0x44, 0x7F, // d 
....................                          0x38, 0x54, 0x54, 0x54, 0x18, // e 
....................                          0x04, 0x04, 0x7E, 0x05, 0x05, // f 
....................                          0x08, 0x54, 0x54, 0x54, 0x3C, // g 
....................                          0x7F, 0x08, 0x04, 0x04, 0x78, // h 
....................                          0x00, 0x44, 0x7D, 0x40, 0x00, // i 
....................                          0x20, 0x40, 0x44, 0x3D, 0x00, // j 
....................                          0x7F, 0x10, 0x28, 0x44, 0x00, // k 
....................                          0x00, 0x41, 0x7F, 0x40, 0x00, // l 
....................                          0x7C, 0x04, 0x78, 0x04, 0x78, // m 
....................                          0x7C, 0x08, 0x04, 0x04, 0x78, // n 
....................                          0x38, 0x44, 0x44, 0x44, 0x38, // o 
....................                          0x7C, 0x14, 0x14, 0x14, 0x08, // p 
....................                          0x08, 0x14, 0x14, 0x14, 0x7C, // q 
....................                          0x00, 0x7C, 0x08, 0x04, 0x04, // r 
....................                          0x48, 0x54, 0x54, 0x54, 0x20, // s 
....................                          0x04, 0x04, 0x3F, 0x44, 0x44, // t 
....................                          0x3C, 0x40, 0x40, 0x20, 0x7C, // u 
....................                          0x1C, 0x20, 0x40, 0x20, 0x1C, // v 
....................                          0x3C, 0x40, 0x30, 0x40, 0x3C, // w 
....................                          0x44, 0x28, 0x10, 0x28, 0x44, // x 
....................                          0x0C, 0x50, 0x50, 0x50, 0x3C, // y 
....................                          0x44, 0x64, 0x54, 0x4C, 0x44, // z 
....................                          0x00, 0x08, 0x36, 0x41, 0x41, // { 
....................                          0x00, 0x00, 0x7F, 0x00, 0x00, // | 
....................                          0x41, 0x41, 0x36, 0x08, 0x00, // } 
....................                          0x02, 0x01, 0x02, 0x04, 0x02};// ~ 
.................... ///////////////////////////////////////////////////////////////////////// 
....................  
....................  
.................... ///////////////////////////////////////////////////////////////////////// 
.................... // Purpose:       Draw a line on a graphic LCD using Bresenham's 
.................... //                line drawing algorithm 
.................... // Inputs:        (x1, y1) - the start coordinate 
.................... //                (x2, y2) - the end coordinate 
.................... //                color - ON or OFF 
.................... // Dependencies:  glcd_pixel() 
.................... ///////////////////////////////////////////////////////////////////////// 
.................... #ifdef LARGE_LCD 
.................... void glcd_line(int16 x1, int16 y1, int16 x2, int16 y2, int1 color) 
.................... #else 
.................... void glcd_line(int8 x1, int8 y1, int8 x2, int8 y2, int1 color) 
.................... #endif 
.................... { 
*
020A8:  MOVLW  01
020AA:  MOVLB  7
020AC:  MOVWF  x51
020AE:  MOVWF  x52
020B0:  CLRF   x57
....................    int16        dy, dx; 
....................    signed int8  addx=1, addy=1; 
....................    signed int16 P, diff; 
....................  
....................    #ifdef LARGE_LCD 
....................    int16 i=0; 
....................    dx = abs((signed int16)(x2 - x1)); 
....................    dy = abs((signed int16)(y2 - y1)); 
....................    #else 
....................    int8 i=0; 
....................    dx = abs((signed int8)(x2 - x1)); 
020B2:  MOVF   x48,W
020B4:  SUBWF  x4A,W
020B6:  MOVWF  x58
020B8:  MOVF   x58,W
020BA:  BTFSS  x58.7
020BC:  BRA    20C4
020BE:  MOVLW  00
020C0:  BSF    FD8.0
020C2:  SUBFWB x58,W
020C4:  CLRF   03
020C6:  MOVWF  x4F
020C8:  MOVFF  03,750
....................    dy = abs((signed int8)(y2 - y1)); 
020CC:  MOVF   x49,W
020CE:  SUBWF  x4B,W
020D0:  MOVWF  x58
020D2:  MOVF   x58,W
020D4:  BTFSS  x58.7
020D6:  BRA    20DE
020D8:  MOVLW  00
020DA:  BSF    FD8.0
020DC:  SUBFWB x58,W
020DE:  CLRF   03
020E0:  MOVWF  x4D
020E2:  MOVFF  03,74E
....................    #endif 
....................  
....................    if(x1 > x2) 
020E6:  MOVF   x48,W
020E8:  SUBWF  x4A,W
020EA:  BC    20F0
....................       addx = -1; 
020EC:  MOVLW  FF
020EE:  MOVWF  x51
....................    if(y1 > y2) 
020F0:  MOVF   x49,W
020F2:  SUBWF  x4B,W
020F4:  BC    20FA
....................       addy = -1; 
020F6:  MOVLW  FF
020F8:  MOVWF  x52
....................  
....................    if(dx >= dy) 
020FA:  MOVF   x4E,W
020FC:  SUBWF  x50,W
020FE:  BNC   2176
02100:  BNZ   2108
02102:  MOVF   x4D,W
02104:  SUBWF  x4F,W
02106:  BNC   2176
....................    { 
....................       dy *= 2; 
02108:  BCF    FD8.0
0210A:  RLCF   x4D,F
0210C:  RLCF   x4E,F
....................       P = dy - dx; 
0210E:  MOVF   x4F,W
02110:  SUBWF  x4D,W
02112:  MOVWF  00
02114:  MOVF   x50,W
02116:  SUBWFB x4E,W
02118:  MOVFF  00,753
0211C:  MOVWF  x54
....................       diff = P - dx; 
0211E:  MOVF   x4F,W
02120:  SUBWF  x53,W
02122:  MOVWF  x55
02124:  MOVF   x50,W
02126:  SUBWFB x54,W
02128:  MOVWF  x56
....................  
....................       for(; i<=dx; ++i) 
0212A:  MOVF   x50,F
0212C:  BNZ   2134
0212E:  MOVF   x57,W
02130:  SUBWF  x4F,W
02132:  BNC   2174
....................       { 
....................          glcd_pixel(x1, y1, color); 
02134:  MOVFF  748,758
02138:  MOVFF  749,759
0213C:  MOVFF  74C,75A
02140:  MOVLB  0
02142:  RCALL  1E34
....................  
....................          if(P < 0) 
02144:  MOVLB  7
02146:  BTFSC  x54.7
02148:  BRA    214C
0214A:  BRA    215C
....................          { 
....................             P  += dy; 
0214C:  MOVF   x4D,W
0214E:  ADDWF  x53,F
02150:  MOVF   x4E,W
02152:  ADDWFC x54,F
....................             x1 += addx; 
02154:  MOVF   x51,W
02156:  ADDWF  x48,W
02158:  MOVWF  x48
....................          } 
....................          else 
0215A:  BRA    2170
....................          { 
....................             P  += diff; 
0215C:  MOVF   x55,W
0215E:  ADDWF  x53,F
02160:  MOVF   x56,W
02162:  ADDWFC x54,F
....................             x1 += addx; 
02164:  MOVF   x51,W
02166:  ADDWF  x48,W
02168:  MOVWF  x48
....................             y1 += addy; 
0216A:  MOVF   x52,W
0216C:  ADDWF  x49,W
0216E:  MOVWF  x49
....................          } 
....................       } 
02170:  INCF   x57,F
02172:  BRA    212A
....................    } 
....................    else 
02174:  BRA    21E2
....................    { 
....................       dx *= 2; 
02176:  BCF    FD8.0
02178:  RLCF   x4F,F
0217A:  RLCF   x50,F
....................       P = dx - dy; 
0217C:  MOVF   x4D,W
0217E:  SUBWF  x4F,W
02180:  MOVWF  00
02182:  MOVF   x4E,W
02184:  SUBWFB x50,W
02186:  MOVFF  00,753
0218A:  MOVWF  x54
....................       diff = P - dy; 
0218C:  MOVF   x4D,W
0218E:  SUBWF  x53,W
02190:  MOVWF  x55
02192:  MOVF   x4E,W
02194:  SUBWFB x54,W
02196:  MOVWF  x56
....................  
....................       for(; i<=dy; ++i) 
02198:  MOVF   x4E,F
0219A:  BNZ   21A2
0219C:  MOVF   x57,W
0219E:  SUBWF  x4D,W
021A0:  BNC   21E2
....................       { 
....................          glcd_pixel(x1, y1, color); 
021A2:  MOVFF  748,758
021A6:  MOVFF  749,759
021AA:  MOVFF  74C,75A
021AE:  MOVLB  0
021B0:  RCALL  1E34
....................  
....................          if(P < 0) 
021B2:  MOVLB  7
021B4:  BTFSC  x54.7
021B6:  BRA    21BA
021B8:  BRA    21CA
....................          { 
....................             P  += dx; 
021BA:  MOVF   x4F,W
021BC:  ADDWF  x53,F
021BE:  MOVF   x50,W
021C0:  ADDWFC x54,F
....................             y1 += addy; 
021C2:  MOVF   x52,W
021C4:  ADDWF  x49,W
021C6:  MOVWF  x49
....................          } 
....................          else 
021C8:  BRA    21DE
....................          { 
....................             P  += diff; 
021CA:  MOVF   x55,W
021CC:  ADDWF  x53,F
021CE:  MOVF   x56,W
021D0:  ADDWFC x54,F
....................             x1 += addx; 
021D2:  MOVF   x51,W
021D4:  ADDWF  x48,W
021D6:  MOVWF  x48
....................             y1 += addy; 
021D8:  MOVF   x52,W
021DA:  ADDWF  x49,W
021DC:  MOVWF  x49
....................          } 
....................       } 
021DE:  INCF   x57,F
021E0:  BRA    2198
....................    } 
.................... } 
021E2:  MOVLB  0
021E4:  RETLW  00
....................  
....................  
.................... ///////////////////////////////////////////////////////////////////////// 
.................... // Purpose:       Draw a rectangle on a graphic LCD 
.................... // Inputs:        (x1, y1) - the start coordinate 
.................... //                (x2, y2) - the end coordinate 
.................... //                fill  - YES or NO 
.................... //                color - ON or OFF 
.................... // Dependencies:  glcd_pixel(), glcd_line() 
.................... ///////////////////////////////////////////////////////////////////////// 
.................... #ifdef LARGE_LCD 
.................... void glcd_rect(int16 x1, int16 y1, int16 x2, int16 y2, int1 fill, int1 color) 
.................... #else 
.................... void glcd_rect(int8 x1, int8 y1, int8 x2, int8 y2, int1 fill, int1 color) 
.................... #endif 
.................... { 
....................    if(fill) 
021E6:  MOVLB  7
021E8:  MOVF   x41,F
021EA:  BZ    2248
....................    { 
....................       #ifdef LARGE_LCD 
....................       int16 i, xmin, xmax, ymin, ymax; 
....................       #else 
....................       int8  i, xmin, xmax, ymin, ymax; 
....................       #endif 
....................  
....................       if(x1 < x2)                            //  Find x min and max 
021EC:  MOVF   x3F,W
021EE:  SUBWF  x3D,W
021F0:  BC    21FC
....................       { 
....................          xmin = x1; 
021F2:  MOVFF  73D,744
....................          xmax = x2; 
021F6:  MOVFF  73F,745
....................       } 
....................       else 
021FA:  BRA    2204
....................       { 
....................          xmin = x2; 
021FC:  MOVFF  73F,744
....................          xmax = x1; 
02200:  MOVFF  73D,745
....................       } 
....................  
....................       if(y1 < y2)                            // Find the y min and max 
02204:  MOVF   x40,W
02206:  SUBWF  x3E,W
02208:  BC    2214
....................       { 
....................          ymin = y1; 
0220A:  MOVFF  73E,746
....................          ymax = y2; 
0220E:  MOVFF  740,747
....................       } 
....................       else 
02212:  BRA    221C
....................       { 
....................          ymin = y2; 
02214:  MOVFF  740,746
....................          ymax = y1; 
02218:  MOVFF  73E,747
....................       } 
....................  
....................       for(; xmin <= xmax; ++xmin) 
0221C:  MOVF   x44,W
0221E:  SUBWF  x45,W
02220:  BNC   2246
....................       { 
....................          for(i=ymin; i<=ymax; ++i) 
02222:  MOVFF  746,743
02226:  MOVF   x43,W
02228:  SUBWF  x47,W
0222A:  BNC   2242
....................          { 
....................             glcd_pixel(xmin, i, color); 
0222C:  MOVFF  744,758
02230:  MOVFF  743,759
02234:  MOVFF  742,75A
02238:  MOVLB  0
0223A:  RCALL  1E34
....................          } 
0223C:  MOVLB  7
0223E:  INCF   x43,F
02240:  BRA    2226
....................       } 
02242:  INCF   x44,F
02244:  BRA    221C
....................    } 
....................    else 
02246:  BRA    22A4
....................    { 
....................       glcd_line(x1, y1, x2, y1, color);      // Draw the 4 sides 
02248:  MOVFF  73D,748
0224C:  MOVFF  73E,749
02250:  MOVFF  73F,74A
02254:  MOVFF  73E,74B
02258:  MOVFF  742,74C
0225C:  MOVLB  0
0225E:  RCALL  20A8
....................       glcd_line(x1, y2, x2, y2, color); 
02260:  MOVFF  73D,748
02264:  MOVFF  740,749
02268:  MOVFF  73F,74A
0226C:  MOVFF  740,74B
02270:  MOVFF  742,74C
02274:  RCALL  20A8
....................       glcd_line(x1, y1, x1, y2, color); 
02276:  MOVFF  73D,748
0227A:  MOVFF  73E,749
0227E:  MOVFF  73D,74A
02282:  MOVFF  740,74B
02286:  MOVFF  742,74C
0228A:  RCALL  20A8
....................       glcd_line(x2, y1, x2, y2, color); 
0228C:  MOVFF  73F,748
02290:  MOVFF  73E,749
02294:  MOVFF  73F,74A
02298:  MOVFF  740,74B
0229C:  MOVFF  742,74C
022A0:  RCALL  20A8
022A2:  MOVLB  7
....................    } 
.................... } 
022A4:  MOVLB  0
022A6:  RETLW  00
....................  
.................... ///////////////////////////////////////////////////////////////////////// 
.................... // Purpose:       Draw a bar (wide line) on a graphic LCD 
.................... // Inputs:        (x1, y1) - the start coordinate 
.................... //                (x2, y2) - the end coordinate 
.................... //                width  - The number of pixels wide 
.................... //                color - ON or OFF 
.................... ///////////////////////////////////////////////////////////////////////// 
.................... #ifdef LARGE_LCD 
.................... void glcd_bar(int16 x1, int16 y1, int16 x2, int16 y2, int8 width, int1 color) 
.................... #else 
.................... void glcd_bar(int8 x1, int8 y1, int8 x2, int8 y2, int8 width, int1 color) 
.................... #endif 
.................... { 
....................    int8         half_width; 
....................    signed int16 dy, dx; 
....................    signed int8  addx=1, addy=1, j; 
....................    signed int16 P, diff, c1, c2; 
....................  
....................    #ifdef LARGE_LCD 
....................    int16 i=0; 
....................    dx = abs((signed int16)(x2 - x1)); 
....................    dy = abs((signed int16)(y2 - y1)); 
....................    #else 
....................    int8 i=0; 
....................    dx = abs((signed int8)(x2 - x1)); 
....................    dy = abs((signed int8)(y2 - y1)); 
....................    #endif 
....................  
....................    half_width = width/2; 
....................    c1 = -(dx*x1 + dy*y1); 
....................    c2 = -(dx*x2 + dy*y2); 
....................  
....................    if(x1 > x2) 
....................    { 
....................       signed int16 temp; 
....................       temp = c1; 
....................       c1 = c2; 
....................       c2 = temp; 
....................       addx = -1; 
....................    } 
....................    if(y1 > y2) 
....................    { 
....................       signed int16 temp; 
....................       temp = c1; 
....................       c1 = c2; 
....................       c2 = temp; 
....................       addy = -1; 
....................    } 
....................  
....................    if(dx >= dy) 
....................    { 
....................       P = 2*dy - dx; 
....................       diff = P - dx; 
....................  
....................       for(i=0; i<=dx; ++i) 
....................       { 
....................          for(j=-half_width; j<half_width+width%2; ++j) 
....................          { 
....................             #ifdef LARGE_LCD 
....................             int16 temp; 
....................             #else 
....................             int8 temp; 
....................             #endif 
....................  
....................             temp = dx*x1+dy*(y1+j);    // Use more RAM to increase speed 
....................             if(temp+c1 >= 0 && temp+c2 <=0) 
....................                glcd_pixel(x1, y1+j, color); 
....................          } 
....................          if(P < 0) 
....................          { 
....................             P  += 2*dy; 
....................             x1 += addx; 
....................          } 
....................          else 
....................          { 
....................             P  += diff; 
....................             x1 += addx; 
....................             y1 += addy; 
....................          } 
....................       } 
....................    } 
....................    else 
....................    { 
....................       P = 2*dx - dy; 
....................       diff = P - dy; 
....................  
....................       for(i=0; i<=dy; ++i) 
....................       { 
....................          if(P < 0) 
....................          { 
....................             P  += 2*dx; 
....................             y1 += addy; 
....................          } 
....................          else 
....................          { 
....................             P  += diff; 
....................             x1 += addx; 
....................             y1 += addy; 
....................          } 
....................          for(j=-half_width; j<half_width+width%2; ++j) 
....................          { 
....................             #ifdef LARGE_LCD 
....................             int16 temp; 
....................             #else 
....................             int8 temp; 
....................             #endif 
....................  
....................             temp = dx*x1+dy*(y1+j);    // Use more RAM to increase speed 
....................             if(temp+c1 >= 0 && temp+c2 <=0) 
....................                glcd_pixel(x1+j, y1, color); 
....................          } 
....................       } 
....................    } 
.................... } 
....................  
....................  
.................... ///////////////////////////////////////////////////////////////////////// 
.................... // Purpose:       Draw a circle on a graphic LCD 
.................... // Inputs:        (x,y) - the center of the circle 
.................... //                radius - the radius of the circle 
.................... //                fill - YES or NO 
.................... //                color - ON or OFF 
.................... ///////////////////////////////////////////////////////////////////////// 
.................... #ifdef LARGE_LCD 
.................... void glcd_circle(int16 x, int16 y, int16 radius, int1 fill, int1 color) 
.................... #else 
.................... void glcd_circle(int8 x, int8 y, int8 radius, int1 fill, int1 color) 
.................... #endif 
.................... { 
....................    #ifdef LARGE_LCD 
....................    signed int16 a, b, P; 
....................    #else 
....................    signed int8  a, b, P; 
....................    #endif 
....................  
....................    a = 0; 
*
03D16:  MOVLB  7
03D18:  CLRF   x2C
....................    b = radius; 
03D1A:  MOVFF  729,72D
....................    P = 1 - radius; 
03D1E:  MOVLW  01
03D20:  BSF    FD8.0
03D22:  SUBFWB x29,W
03D24:  MOVWF  x2E
....................  
....................    do 
....................    { 
....................       if(fill) 
03D26:  MOVF   x2A,F
03D28:  BZ    3DF4
....................       { 
....................          glcd_line(x-a, y+b, x+a, y+b, color); 
03D2A:  MOVF   x2C,W
03D2C:  SUBWF  x27,W
03D2E:  MOVWF  x2F
03D30:  MOVF   x2D,W
03D32:  ADDWF  x28,W
03D34:  MOVWF  x30
03D36:  MOVF   x2C,W
03D38:  ADDWF  x27,W
03D3A:  MOVWF  x31
03D3C:  MOVF   x2D,W
03D3E:  ADDWF  x28,W
03D40:  MOVWF  x32
03D42:  MOVFF  72F,748
03D46:  MOVFF  730,749
03D4A:  MOVFF  731,74A
03D4E:  MOVWF  x4B
03D50:  MOVFF  72B,74C
03D54:  MOVLB  0
03D56:  CALL   20A8
....................          glcd_line(x-a, y-b, x+a, y-b, color); 
03D5A:  MOVLB  7
03D5C:  MOVF   x2C,W
03D5E:  SUBWF  x27,W
03D60:  MOVWF  x2F
03D62:  MOVF   x2D,W
03D64:  SUBWF  x28,W
03D66:  MOVWF  x30
03D68:  MOVF   x2C,W
03D6A:  ADDWF  x27,W
03D6C:  MOVWF  x31
03D6E:  MOVF   x2D,W
03D70:  SUBWF  x28,W
03D72:  MOVWF  x32
03D74:  MOVFF  72F,748
03D78:  MOVFF  730,749
03D7C:  MOVFF  731,74A
03D80:  MOVWF  x4B
03D82:  MOVFF  72B,74C
03D86:  MOVLB  0
03D88:  CALL   20A8
....................          glcd_line(x-b, y+a, x+b, y+a, color); 
03D8C:  MOVLB  7
03D8E:  MOVF   x2D,W
03D90:  SUBWF  x27,W
03D92:  MOVWF  x2F
03D94:  MOVF   x2C,W
03D96:  ADDWF  x28,W
03D98:  MOVWF  x30
03D9A:  MOVF   x2D,W
03D9C:  ADDWF  x27,W
03D9E:  MOVWF  x31
03DA0:  MOVF   x2C,W
03DA2:  ADDWF  x28,W
03DA4:  MOVWF  x32
03DA6:  MOVFF  72F,748
03DAA:  MOVFF  730,749
03DAE:  MOVFF  731,74A
03DB2:  MOVWF  x4B
03DB4:  MOVFF  72B,74C
03DB8:  MOVLB  0
03DBA:  CALL   20A8
....................          glcd_line(x-b, y-a, x+b, y-a, color); 
03DBE:  MOVLB  7
03DC0:  MOVF   x2D,W
03DC2:  SUBWF  x27,W
03DC4:  MOVWF  x2F
03DC6:  MOVF   x2C,W
03DC8:  SUBWF  x28,W
03DCA:  MOVWF  x30
03DCC:  MOVF   x2D,W
03DCE:  ADDWF  x27,W
03DD0:  MOVWF  x31
03DD2:  MOVF   x2C,W
03DD4:  SUBWF  x28,W
03DD6:  MOVWF  x32
03DD8:  MOVFF  72F,748
03DDC:  MOVFF  730,749
03DE0:  MOVFF  731,74A
03DE4:  MOVWF  x4B
03DE6:  MOVFF  72B,74C
03DEA:  MOVLB  0
03DEC:  CALL   20A8
....................       } 
....................       else 
03DF0:  BRA    3EE2
03DF2:  MOVLB  7
....................       { 
....................          glcd_pixel(a+x, b+y, color); 
03DF4:  MOVF   x27,W
03DF6:  ADDWF  x2C,W
03DF8:  MOVWF  x2F
03DFA:  MOVF   x28,W
03DFC:  ADDWF  x2D,W
03DFE:  MOVWF  x30
03E00:  MOVFF  72F,758
03E04:  MOVWF  x59
03E06:  MOVFF  72B,75A
03E0A:  MOVLB  0
03E0C:  CALL   1E34
....................          glcd_pixel(b+x, a+y, color); 
03E10:  MOVLB  7
03E12:  MOVF   x27,W
03E14:  ADDWF  x2D,W
03E16:  MOVWF  x2F
03E18:  MOVF   x28,W
03E1A:  ADDWF  x2C,W
03E1C:  MOVWF  x30
03E1E:  MOVFF  72F,758
03E22:  MOVWF  x59
03E24:  MOVFF  72B,75A
03E28:  MOVLB  0
03E2A:  CALL   1E34
....................          glcd_pixel(x-a, b+y, color); 
03E2E:  MOVLB  7
03E30:  MOVF   x2C,W
03E32:  SUBWF  x27,W
03E34:  MOVWF  x2F
03E36:  MOVF   x28,W
03E38:  ADDWF  x2D,W
03E3A:  MOVWF  x30
03E3C:  MOVFF  72F,758
03E40:  MOVWF  x59
03E42:  MOVFF  72B,75A
03E46:  MOVLB  0
03E48:  CALL   1E34
....................          glcd_pixel(x-b, a+y, color); 
03E4C:  MOVLB  7
03E4E:  MOVF   x2D,W
03E50:  SUBWF  x27,W
03E52:  MOVWF  x2F
03E54:  MOVF   x28,W
03E56:  ADDWF  x2C,W
03E58:  MOVWF  x30
03E5A:  MOVFF  72F,758
03E5E:  MOVWF  x59
03E60:  MOVFF  72B,75A
03E64:  MOVLB  0
03E66:  CALL   1E34
....................          glcd_pixel(b+x, y-a, color); 
03E6A:  MOVLB  7
03E6C:  MOVF   x27,W
03E6E:  ADDWF  x2D,W
03E70:  MOVWF  x2F
03E72:  MOVF   x2C,W
03E74:  SUBWF  x28,W
03E76:  MOVWF  x30
03E78:  MOVFF  72F,758
03E7C:  MOVWF  x59
03E7E:  MOVFF  72B,75A
03E82:  MOVLB  0
03E84:  CALL   1E34
....................          glcd_pixel(a+x, y-b, color); 
03E88:  MOVLB  7
03E8A:  MOVF   x27,W
03E8C:  ADDWF  x2C,W
03E8E:  MOVWF  x2F
03E90:  MOVF   x2D,W
03E92:  SUBWF  x28,W
03E94:  MOVWF  x30
03E96:  MOVFF  72F,758
03E9A:  MOVWF  x59
03E9C:  MOVFF  72B,75A
03EA0:  MOVLB  0
03EA2:  CALL   1E34
....................          glcd_pixel(x-a, y-b, color); 
03EA6:  MOVLB  7
03EA8:  MOVF   x2C,W
03EAA:  SUBWF  x27,W
03EAC:  MOVWF  x2F
03EAE:  MOVF   x2D,W
03EB0:  SUBWF  x28,W
03EB2:  MOVWF  x30
03EB4:  MOVFF  72F,758
03EB8:  MOVWF  x59
03EBA:  MOVFF  72B,75A
03EBE:  MOVLB  0
03EC0:  CALL   1E34
....................          glcd_pixel(x-b, y-a, color); 
03EC4:  MOVLB  7
03EC6:  MOVF   x2D,W
03EC8:  SUBWF  x27,W
03ECA:  MOVWF  x2F
03ECC:  MOVF   x2C,W
03ECE:  SUBWF  x28,W
03ED0:  MOVWF  x30
03ED2:  MOVFF  72F,758
03ED6:  MOVWF  x59
03ED8:  MOVFF  72B,75A
03EDC:  MOVLB  0
03EDE:  CALL   1E34
....................       } 
....................  
....................       if(P < 0) 
03EE2:  MOVLB  7
03EE4:  BTFSC  x2E.7
03EE6:  BRA    3EEA
03EE8:  BRA    3F06
....................          P += 3 + 2 * a++; 
03EEA:  MOVF   x2C,W
03EEC:  INCF   x2C,F
03EEE:  MOVWF  x2F
03EF0:  MOVLW  02
03EF2:  MOVWF  x30
03EF4:  MOVFF  72F,731
03EF8:  MOVLB  0
03EFA:  RCALL  3CC8
03EFC:  MOVF   01,W
03EFE:  ADDLW  03
03F00:  MOVLB  7
03F02:  ADDWF  x2E,F
....................       else 
03F04:  BRA    3F28
....................          P += 5 + 2 * (a++ - b--); 
03F06:  MOVF   x2C,W
03F08:  INCF   x2C,F
03F0A:  MOVWF  x2F
03F0C:  MOVF   x2D,W
03F0E:  DECF   x2D,F
03F10:  SUBWF  x2F,W
03F12:  MOVWF  x2F
03F14:  MOVLW  02
03F16:  MOVWF  x30
03F18:  MOVFF  72F,731
03F1C:  MOVLB  0
03F1E:  RCALL  3CC8
03F20:  MOVF   01,W
03F22:  ADDLW  05
03F24:  MOVLB  7
03F26:  ADDWF  x2E,F
....................     } while(a <= b); 
03F28:  MOVF   x2C,W
03F2A:  XORLW  80
03F2C:  MOVWF  00
03F2E:  MOVF   x2D,W
03F30:  XORLW  80
03F32:  SUBWF  00,W
03F34:  BTFSC  FD8.2
03F36:  BRA    3D26
03F38:  BTFSS  FD8.0
03F3A:  BRA    3D26
.................... } 
03F3C:  MOVLB  0
03F3E:  RETLW  00
....................  
....................  
.................... ///////////////////////////////////////////////////////////////////////// 
.................... // Purpose:       Write text on a graphic LCD 
.................... // Inputs:        (x,y) - The upper left coordinate of the first letter 
.................... //                textptr - A pointer to an array of text to display 
.................... //                size - The size of the text: 1 = 5x7, 2 = 10x14, ... 
.................... //                color - ON or OFF 
.................... ///////////////////////////////////////////////////////////////////////// 
.................... #ifdef LARGE_LCD 
.................... void glcd_text57(int16 x, int16 y, char* textptr, int8 size, int1 color) 
.................... #else 
.................... void glcd_text57(int8 x, int8 y, char* textptr, int8 size, int1 color) 
.................... #endif 
.................... { 
....................    int8 j, k, l, m;                       // Loop counters 
....................    int8 pixelData[5];                     // Stores character data 
....................  
....................    for(; *textptr != '\0'; ++textptr, ++x)// Loop through the passed string 
*
01EF0:  MOVFF  73E,03
01EF4:  MOVLB  7
01EF6:  MOVFF  73D,FE9
01EFA:  MOVFF  73E,FEA
01EFE:  MOVF   FEF,F
01F00:  BTFSC  FD8.2
01F02:  BRA    20A4
....................    { 
....................       if(*textptr < 'S') // Checks if the letter is in the first font array 
01F04:  MOVFF  73E,03
01F08:  MOVFF  73D,FE9
01F0C:  MOVFF  73E,FEA
01F10:  MOVF   FEF,W
01F12:  SUBLW  52
01F14:  BNC   1F64
....................          memcpy(pixelData, FONT[*textptr - ' '], 5); 
01F16:  MOVFF  73E,03
01F1A:  MOVFF  73D,FE9
01F1E:  MOVFF  73E,FEA
01F22:  MOVLW  20
01F24:  SUBWF  FEF,W
01F26:  MULLW  05
01F28:  MOVF   FF3,W
01F2A:  CLRF   03
01F2C:  MOVWF  x4A
01F2E:  MOVLW  07
01F30:  MOVWF  FEA
01F32:  MOVLW  45
01F34:  MOVWF  FE9
01F36:  CLRF   x4E
01F38:  MOVFF  74A,74D
01F3C:  MOVFF  FF2,74B
01F40:  BCF    FF2.7
01F42:  MOVLW  05
01F44:  MOVWF  01
01F46:  CLRF   FF7
01F48:  MOVF   x4A,W
01F4A:  MOVLB  0
01F4C:  CALL   00AA
01F50:  TBLRD*-
01F52:  TBLRD*+
01F54:  MOVFF  FF5,FEE
01F58:  DECFSZ 01,F
01F5A:  BRA    1F52
01F5C:  MOVLB  7
01F5E:  BTFSC  x4B.7
01F60:  BSF    FF2.7
....................       else if(*textptr <= '~') // Check if the letter is in the second font array 
01F62:  BRA    1FCE
01F64:  MOVFF  73E,03
01F68:  MOVFF  73D,FE9
01F6C:  MOVFF  73E,FEA
01F70:  MOVF   FEF,W
01F72:  SUBLW  7E
01F74:  BNC   1FC4
....................          memcpy(pixelData, FONT2[*textptr - 'S'], 5); 
01F76:  MOVFF  73E,03
01F7A:  MOVFF  73D,FE9
01F7E:  MOVFF  73E,FEA
01F82:  MOVLW  53
01F84:  SUBWF  FEF,W
01F86:  MULLW  05
01F88:  MOVF   FF3,W
01F8A:  CLRF   03
01F8C:  MOVWF  x4A
01F8E:  MOVLW  07
01F90:  MOVWF  FEA
01F92:  MOVLW  45
01F94:  MOVWF  FE9
01F96:  CLRF   x4E
01F98:  MOVFF  74A,74D
01F9C:  MOVFF  FF2,74B
01FA0:  BCF    FF2.7
01FA2:  MOVLW  05
01FA4:  MOVWF  01
01FA6:  CLRF   FF7
01FA8:  MOVF   x4A,W
01FAA:  MOVLB  0
01FAC:  CALL   01C8
01FB0:  TBLRD*-
01FB2:  TBLRD*+
01FB4:  MOVFF  FF5,FEE
01FB8:  DECFSZ 01,F
01FBA:  BRA    1FB2
01FBC:  MOVLB  7
01FBE:  BTFSC  x4B.7
01FC0:  BSF    FF2.7
....................       else 
01FC2:  BRA    1FCE
....................          memcpy(pixelData, FONT[0], 5);   // Default to space 
01FC4:  CLRF   x45
01FC6:  CLRF   x46
01FC8:  CLRF   x47
01FCA:  CLRF   x48
01FCC:  CLRF   x49
....................  
....................       // Handles newline and carriage returns 
....................       switch(*textptr) 
....................       { 
01FCE:  MOVFF  73E,03
01FD2:  MOVF   x3D,W
01FD4:  MOVWF  FE9
01FD6:  MOVFF  03,FEA
01FDA:  MOVF   FEF,W
01FDC:  XORLW  0A
01FDE:  MOVLB  0
01FE0:  BZ    1FE8
01FE2:  XORLW  07
01FE4:  BZ    1FF8
01FE6:  BRA    1FFE
....................          case '\n': 
....................             y += 7*size + 1; 
01FE8:  MOVLB  7
01FEA:  MOVF   x3F,W
01FEC:  MULLW  07
01FEE:  MOVF   FF3,W
01FF0:  ADDLW  01
01FF2:  ADDWF  x3C,F
....................             continue; 
01FF4:  BRA    2096
01FF6:  MOVLB  0
....................          case '\r': 
....................             x = 0; 
01FF8:  MOVLB  7
01FFA:  CLRF   x3B
....................             continue; 
01FFC:  BRA    2096
....................       } 
....................  
....................       if(x+5*size >= GLCD_WIDTH)          // Performs character wrapping 
01FFE:  MOVLB  7
02000:  MOVF   x3F,W
02002:  MULLW  05
02004:  MOVF   FF3,W
02006:  ADDWF  x3B,W
02008:  SUBLW  7F
0200A:  BC    2018
....................       { 
....................          x = 0;                           // Set x at far left position 
0200C:  CLRF   x3B
....................          y += 7*size + 1;                 // Set y at next position down 
0200E:  MOVF   x3F,W
02010:  MULLW  07
02012:  MOVF   FF3,W
02014:  ADDLW  01
02016:  ADDWF  x3C,F
....................       } 
....................       for(j=0; j<5; ++j, x+=size)         // Loop through character byte data 
02018:  CLRF   x41
0201A:  MOVF   x41,W
0201C:  SUBLW  04
0201E:  BNC   2096
....................       { 
....................          for(k=0; k < 7; ++k)             // Loop through the vertical pixels 
02020:  CLRF   x42
02022:  MOVF   x42,W
02024:  SUBLW  06
02026:  BNC   208E
....................          { 
....................             if(bit_test(pixelData[j], k)) // Check if the pixel should be set 
02028:  CLRF   03
0202A:  MOVF   x41,W
0202C:  ADDLW  45
0202E:  MOVWF  FE9
02030:  MOVLW  07
02032:  ADDWFC 03,W
02034:  MOVWF  FEA
02036:  MOVFF  FEF,74A
0203A:  MOVFF  74A,00
0203E:  MOVF   x42,W
02040:  MOVWF  01
02042:  BZ    204C
02044:  BCF    FD8.0
02046:  RRCF   00,F
02048:  DECFSZ 01,F
0204A:  BRA    2044
0204C:  BTFSS  00.0
0204E:  BRA    208A
....................             { 
....................                for(l=0; l < size; ++l)    // These two loops change the 
02050:  CLRF   x43
02052:  MOVF   x3F,W
02054:  SUBWF  x43,W
02056:  BC    208A
....................                {                          // character's size 
....................                   for(m=0; m < size; ++m) 
02058:  CLRF   x44
0205A:  MOVF   x3F,W
0205C:  SUBWF  x44,W
0205E:  BC    2086
....................                   { 
....................                      glcd_pixel(x+m, y+k*size+l, color); // Draws the pixel 
02060:  MOVF   x44,W
02062:  ADDWF  x3B,W
02064:  MOVWF  x4A
02066:  MOVF   x42,W
02068:  MULWF  x3F
0206A:  MOVF   FF3,W
0206C:  ADDWF  x3C,W
0206E:  ADDWF  x43,W
02070:  MOVWF  x4B
02072:  MOVFF  74A,758
02076:  MOVWF  x59
02078:  MOVFF  740,75A
0207C:  MOVLB  0
0207E:  RCALL  1E34
....................                   } 
02080:  MOVLB  7
02082:  INCF   x44,F
02084:  BRA    205A
....................                } 
02086:  INCF   x43,F
02088:  BRA    2052
....................             } 
....................          } 
0208A:  INCF   x42,F
0208C:  BRA    2022
....................       } 
0208E:  INCF   x41,F
02090:  MOVF   x3F,W
02092:  ADDWF  x3B,F
02094:  BRA    201A
....................    } 
02096:  INCF   x3D,F
02098:  BTFSC  FD8.2
0209A:  INCF   x3E,F
0209C:  INCF   x3B,F
0209E:  MOVLB  0
020A0:  BRA    1EF0
020A2:  MOVLB  7
.................... } 
020A4:  MOVLB  0
020A6:  RETLW  00
....................  
.................... #endif 
....................  
.................... #include "imagen.h" 
.................... const int8 Proceso [64][16] = { 
.................... 0x00, 0x00, 0x00, 0x00, 0x00, 0x00, 0x00, 0x00, 0x00, 0x00, 0x00, 0x00, 0x00, 0x00, 0x00, 0x00, 
.................... 0x00, 0x00, 0x00, 0x00, 0x00, 0x00, 0x00, 0x00, 0x00, 0x00, 0x00, 0x00, 0x00, 0x00, 0x00, 0x00, 
.................... 0x00, 0x00, 0x00, 0x00, 0x00, 0x00, 0x00, 0x00, 0x00, 0x00, 0x00, 0x00, 0x00, 0x00, 0x00, 0x00, 
.................... 0x00, 0x00, 0x00, 0x00, 0x00, 0x00, 0x00, 0x00, 0x00, 0x00, 0x00, 0x00, 0x00, 0x00, 0x00, 0x00, 
.................... 0x00, 0x00, 0x00, 0x00, 0x00, 0x00, 0x00, 0x00, 0x00, 0x00, 0x00, 0x00, 0x00, 0x00, 0x00, 0x00, 
.................... 0x00, 0x00, 0x00, 0x00, 0x00, 0x00, 0x00, 0x00, 0x00, 0x00, 0x00, 0x00, 0x00, 0x00, 0x00, 0x00, 
.................... 0x00, 0x00, 0x00, 0x00, 0x00, 0x00, 0x00, 0x00, 0x00, 0x00, 0x00, 0x00, 0x00, 0x00, 0x00, 0x00, 
.................... 0x00, 0x00, 0x00, 0x00, 0x00, 0x00, 0x00, 0x00, 0x00, 0x00, 0x00, 0x00, 0x00, 0x00, 0x00, 0x00, 
.................... 0x00, 0x00, 0x00, 0x00, 0x00, 0x00, 0x00, 0x00, 0x00, 0x00, 0x00, 0x00, 0x00, 0x00, 0x00, 0x00, 
.................... 0x00, 0x00, 0x00, 0x00, 0x00, 0x00, 0x00, 0x00, 0x00, 0x00, 0x00, 0x00, 0x00, 0x00, 0x00, 0x00, 
.................... 0x00, 0x00, 0x00, 0x00, 0x00, 0x00, 0x00, 0x00, 0x00, 0x00, 0x00, 0x00, 0x00, 0x00, 0x00, 0x00, 
.................... 0x00, 0x00, 0x00, 0x00, 0x00, 0x00, 0x00, 0x00, 0x00, 0x00, 0x00, 0x00, 0x00, 0x00, 0x00, 0x00, 
.................... 0x00, 0x00, 0x00, 0x00, 0x00, 0x00, 0x00, 0x00, 0x00, 0x00, 0x00, 0x00, 0x00, 0x00, 0x00, 0x00, 
.................... 0x00, 0x00, 0x00, 0x00, 0x00, 0x00, 0x00, 0x00, 0x00, 0x00, 0x00, 0x00, 0x00, 0x00, 0x00, 0x00, 
.................... 0x00, 0x00, 0x00, 0x00, 0x00, 0x00, 0x00, 0x00, 0x00, 0x00, 0x00, 0x00, 0x00, 0x00, 0x00, 0x00, 
.................... 0x08, 0x00, 0x00, 0x00, 0x00, 0x00, 0x00, 0x00, 0x00, 0x00, 0x00, 0x00, 0x00, 0x00, 0x00, 0x00, 
.................... 0x1C, 0x00, 0x00, 0x00, 0x00, 0x00, 0x00, 0x00, 0x00, 0x00, 0x00, 0x00, 0x00, 0x00, 0x00, 0x00, 
.................... 0x3E, 0x00, 0x00, 0x00, 0x00, 0x00, 0x00, 0x00, 0x00, 0x00, 0x00, 0x00, 0x00, 0x00, 0x00, 0x00, 
.................... 0x08, 0x00, 0x00, 0x00, 0x00, 0x00, 0x00, 0x00, 0x00, 0x00, 0x00, 0x00, 0x00, 0x00, 0x00, 0x00, 
.................... 0x08, 0x00, 0x00, 0x00, 0x00, 0x00, 0x00, 0x00, 0x00, 0x00, 0x00, 0x00, 0x00, 0x00, 0x00, 0x00, 
.................... 0x08, 0x00, 0x00, 0x00, 0x00, 0x00, 0x00, 0x00, 0x00, 0x00, 0x00, 0x00, 0x00, 0x00, 0x00, 0x00, 
.................... 0x08, 0x00, 0x00, 0x01, 0xFF, 0xFF, 0xFE, 0x00, 0x00, 0x00, 0x00, 0x00, 0x00, 0x00, 0x00, 0x00, 
.................... 0x08, 0x00, 0x00, 0x02, 0x00, 0x00, 0x01, 0x00, 0x00, 0x00, 0x00, 0x00, 0x00, 0x00, 0x00, 0x00, 
.................... 0x08, 0x00, 0x00, 0x02, 0x00, 0x00, 0x00, 0x80, 0x00, 0x00, 0x00, 0x00, 0x00, 0x00, 0x00, 0x00, 
.................... 0x08, 0x00, 0x00, 0x04, 0x00, 0x00, 0x00, 0x40, 0x00, 0x00, 0x00, 0x00, 0x00, 0x00, 0x00, 0x00, 
.................... 0x08, 0x00, 0x00, 0x08, 0x00, 0x00, 0x00, 0x20, 0x00, 0x00, 0x00, 0x00, 0x00, 0x00, 0x00, 0x00, 
.................... 0x08, 0x00, 0x00, 0x08, 0x00, 0x00, 0x00, 0x10, 0x00, 0x00, 0x00, 0x00, 0x00, 0x00, 0x00, 0x00, 
.................... 0x08, 0x00, 0x00, 0x10, 0x00, 0x00, 0x00, 0x08, 0x00, 0x00, 0x00, 0x00, 0x00, 0x00, 0x00, 0x00, 
.................... 0x08, 0x00, 0x00, 0x10, 0x00, 0x00, 0x00, 0x08, 0x00, 0x00, 0x00, 0x00, 0x00, 0x00, 0x00, 0x00, 
.................... 0x08, 0x00, 0x00, 0x20, 0x00, 0x00, 0x00, 0x04, 0x00, 0x00, 0x00, 0x00, 0x00, 0x00, 0x00, 0x00, 
.................... 0x08, 0x00, 0x00, 0x40, 0x00, 0x00, 0x00, 0x02, 0x00, 0x00, 0x00, 0x00, 0x00, 0x00, 0x00, 0x00, 
.................... 0x08, 0x00, 0x00, 0x40, 0x00, 0x00, 0x00, 0x01, 0x00, 0x00, 0x00, 0x00, 0x00, 0x00, 0x00, 0x00, 
.................... 0x08, 0x00, 0x00, 0x80, 0x00, 0x00, 0x00, 0x00, 0x80, 0x00, 0x00, 0x00, 0x00, 0x00, 0x00, 0x00, 
.................... 0x08, 0x00, 0x01, 0x00, 0x00, 0x00, 0x00, 0x00, 0x40, 0x00, 0x00, 0x00, 0x00, 0x00, 0x00, 0x00, 
.................... 0x08, 0x00, 0x01, 0x00, 0x00, 0x00, 0x00, 0x00, 0x20, 0x00, 0x00, 0x00, 0x00, 0x00, 0x00, 0x00, 
.................... 0x08, 0x00, 0x02, 0x00, 0x00, 0x00, 0x00, 0x00, 0x10, 0x00, 0x00, 0x00, 0x00, 0x00, 0x00, 0x00, 
.................... 0x08, 0x00, 0x02, 0x00, 0x00, 0x00, 0x00, 0x00, 0x00, 0x00, 0x00, 0x00, 0x00, 0x00, 0x00, 0x00, 
.................... 0x08, 0x00, 0x04, 0x00, 0x00, 0x00, 0x00, 0x00, 0x00, 0x00, 0x00, 0x00, 0x00, 0x00, 0x00, 0x00, 
.................... 0x08, 0x00, 0x08, 0x00, 0x00, 0x00, 0x00, 0x00, 0x00, 0x00, 0x00, 0x00, 0x00, 0x00, 0x00, 0x00, 
.................... 0x08, 0x00, 0x08, 0x00, 0x00, 0x00, 0x00, 0x00, 0x00, 0x00, 0x00, 0x00, 0x00, 0x00, 0x00, 0x00, 
.................... 0x08, 0x00, 0x10, 0x00, 0x00, 0x00, 0x00, 0x00, 0x00, 0x00, 0x00, 0x00, 0x00, 0x00, 0x00, 0x00, 
.................... 0x08, 0x00, 0x20, 0x00, 0x00, 0x00, 0x00, 0x00, 0x00, 0x00, 0x00, 0x00, 0x00, 0x00, 0x00, 0x00, 
.................... 0x08, 0x00, 0x20, 0x00, 0x00, 0x00, 0x00, 0x00, 0x00, 0x00, 0x00, 0x00, 0x00, 0x00, 0x00, 0x00, 
.................... 0x08, 0x00, 0x40, 0x00, 0x00, 0x00, 0x00, 0x00, 0x00, 0x00, 0x00, 0x00, 0x00, 0x00, 0x00, 0x00, 
.................... 0x08, 0x00, 0x40, 0x00, 0x00, 0x00, 0x00, 0x00, 0x00, 0x00, 0x00, 0x00, 0x00, 0x00, 0x00, 0x00, 
.................... 0x08, 0x00, 0x80, 0x00, 0x00, 0x00, 0x00, 0x00, 0x00, 0x00, 0x00, 0x00, 0x00, 0x00, 0x00, 0x00, 
.................... 0x08, 0x01, 0x00, 0x00, 0x00, 0x00, 0x00, 0x00, 0x00, 0x00, 0x00, 0x00, 0x00, 0x00, 0x00, 0x00, 
.................... 0x08, 0x01, 0x00, 0x00, 0x00, 0x00, 0x00, 0x00, 0x00, 0x00, 0x00, 0x00, 0x00, 0x00, 0x00, 0x00, 
.................... 0x0F, 0xFE, 0x00, 0x00, 0x00, 0x00, 0x00, 0x00, 0x00, 0x00, 0x00, 0x00, 0x00, 0x00, 0x00, 0x00, 
.................... 0x08, 0x00, 0x00, 0x00, 0x00, 0x00, 0x00, 0x00, 0x00, 0x00, 0x00, 0x00, 0x00, 0x00, 0x00, 0x00, 
.................... 0x08, 0x00, 0x00, 0x00, 0x00, 0x00, 0x00, 0x00, 0x00, 0x00, 0x00, 0x00, 0x00, 0x00, 0x00, 0x00, 
.................... 0x08, 0x00, 0x00, 0x00, 0x00, 0x00, 0x00, 0x00, 0x00, 0x00, 0x00, 0x00, 0x00, 0x00, 0x00, 0x00, 
.................... 0x08, 0x00, 0x00, 0x00, 0x00, 0x00, 0x00, 0x00, 0x00, 0x02, 0x00, 0x00, 0x00, 0x00, 0x00, 0x00, 
.................... 0x08, 0x00, 0x00, 0x00, 0x00, 0x00, 0x00, 0x00, 0x00, 0x03, 0x00, 0x00, 0x00, 0x00, 0x00, 0x00, 
.................... 0x3F, 0xFF, 0xFF, 0xFF, 0xFF, 0xFF, 0xFF, 0xFF, 0xFF, 0xFF, 0x80, 0x00, 0x00, 0x00, 0x00, 0x00, 
.................... 0x00, 0x00, 0x00, 0x00, 0x00, 0x00, 0x00, 0x00, 0x00, 0x03, 0x00, 0x00, 0x00, 0x00, 0x00, 0x00, 
.................... 0x00, 0x00, 0x00, 0x00, 0x00, 0x00, 0x00, 0x00, 0x00, 0x02, 0x00, 0x00, 0x00, 0x00, 0x00, 0x00, 
.................... 0x00, 0x00, 0x00, 0x00, 0x00, 0x00, 0x00, 0x00, 0x00, 0x00, 0x00, 0x00, 0x00, 0x00, 0x00, 0x00, 
.................... 0x00, 0x00, 0x00, 0x00, 0x00, 0x00, 0x00, 0x00, 0x00, 0x00, 0x00, 0x00, 0x00, 0x00, 0x00, 0x00, 
.................... 0x00, 0x00, 0x00, 0x00, 0x00, 0x00, 0x00, 0x00, 0x00, 0x00, 0x00, 0x00, 0x00, 0x00, 0x00, 0x00, 
.................... 0x00, 0x00, 0x00, 0x00, 0x00, 0x00, 0x00, 0x00, 0x00, 0x00, 0x00, 0x00, 0x00, 0x00, 0x00, 0x00, 
.................... 0x00, 0x00, 0x00, 0x00, 0x00, 0x00, 0x00, 0x00, 0x00, 0x00, 0x00, 0x00, 0x00, 0x00, 0x00, 0x00, 
.................... 0x00, 0x00, 0x00, 0x00, 0x00, 0x00, 0x00, 0x00, 0x00, 0x00, 0x00, 0x00, 0x00, 0x00, 0x00, 0x00, 
.................... 0x00, 0x00, 0x00, 0x00, 0x00, 0x00, 0x00, 0x00, 0x00, 0x00, 0x00, 0x00, 0x00, 0x00, 0x00, 0x00 
.................... }; 
....................  
....................  
....................  
....................  
.................... #define   UP            !input(PIN_A4) 
.................... #define   DOWN          !input(PIN_A5) 
.................... #define   RIGHT         !input(PIN_E0) 
.................... #define   LEFT          !input(PIN_E1) 
....................  
.................... #define   DOOR          !input(PIN_E2) 
.................... #define   STOP          !input(PIN_B6) 
.................... #define   TERM          !input(PIN_B7) 
....................  
.................... #define   HIGH          input(PIN_C0) 
.................... #define   LOW           input(PIN_C1) 
....................  
.................... #define   Display_on       output_bit(PIN_C7,1) 
.................... #define   Display_off      output_bit(PIN_C7,0) 
....................  
.................... #define   SSR_on           output_bit(PIN_C2,0) 
.................... #define   SSR_off          output_bit(PIN_C2,1) 
....................  
.................... #define   Desfogue_on      output_bit(PIN_C5,0) 
.................... #define   Desfogue_off     output_bit(PIN_C5,1) 
....................  
.................... #define   AguaIn_on        output_bit(PIN_C6,0) 
.................... #define   AguaIn_off       output_bit(PIN_C6,1) 
....................  
.................... //Comunicacion//------------------------ 
.................... byte txbuf[0X20]; 
.................... byte SlaveA0Tx[0X20]; 
.................... byte dato=0;            //Contendr la informacin a enviar o recibir 
.................... byte direccion=0;       //Contendr la direccin del esclavo en el bus I2C 
.................... byte posicion=0;        //Contendr la posicin en el buffer de memoria del esclavo donde se almacenar o de donde se recuperar el dato 
.................... byte ByteConfig1=0,ByteConfig2=0,ByteConfig3=0; 
....................  
.................... //Alarmas//--------------------- 
.................... short AlarmaTiempoProlongado=OFF,AlarmaSobreTemperatura=OFF,AlarmaLlenado=OFF,AlarmaTermostato=OFF,AlarmaPuerta=OFF,AlarmaEmergencia=OFF; 
....................  
.................... //Banderas//-------------------- 
.................... short IniciaLlenado=OFF,CalderinLleno=OFF,IniciaCiclo=OFF,Esterilizando=OFF,Secando=OFF,SensadoNivel=OFF,Desfogando=OFF,DesfogueSuave=OFF; 
.................... short EstadoDesfogue=OFF,EstadoAgua=OFF,EstadoSSR=OFF,PruebaEstados=OFF,disp_Guarda=OFF,Ciclo=OFF,flagCalentando=OFF,flagEsterilizando=OFF; 
.................... short flagDesfogando=OFF; 
....................  
.................... //Tiempos//--------------------- 
.................... int16 TiempoCiclo=0,TiempoLlenado=0,TiempoSensadoNivel=0; 
.................... signed int  Testerilizacion[4]={0,0,0,0};   // Tiempo transcurrido 
.................... signed int  Testerilizacionp[4]={0,0,0,0};   // Tiempo transcurrido 
.................... signed int  Tsecado[4]={0,0,0,0};   // Tiempo transcurrido 
.................... signed int  Tsecadop[4]={0,0,0,0};   // Tiempo transcurrido 
....................  
.................... //Control//------------------------ 
.................... float promedio[80]={0.0,0.0,0.0,0.0,0.0,0.0,0.0,0.0,0.0,0.0,0.0,0.0,0.0,0.0,0.0,0.0,0.0,0.0,0.0,0.0,0.0,0.0,0.0,0.0,0.0,0.0,0.0,0.0,0.0,0.0,0.0,0.0,0.0,0.0,0.0,0.0,0.0,0.0,0.0,0.0,0.0,0.0,0.0,0.0,0.0,0.0,0.0,0.0,0.0,0.0,0.0,0.0,0.0,0.0,0.0,0.0,0.0,0.0,0.0,0.0,0.0,0.0,0.0,0.0}; 
.................... float PromPresion[20]={0.0,0.0,0.0,0.0,0.0,0.0,0.0,0.0,0.0,0.0,0.0,0.0,0.0,0.0,0.0,0.0,0.0,0.0,0.0,0.0}; 
.................... float PromPresionp[20]={0.0,0.0,0.0,0.0,0.0,0.0,0.0,0.0,0.0,0.0,0.0,0.0,0.0,0.0,0.0,0.0,0.0,0.0,0.0,0.0}; 
.................... float Gain=40.2,RPT100=0.5,Temporal=0.0; 
.................... float X[2]={0.0,0.0}; 
.................... float promediopresion=0.0,Aumento=0.0,promediopresionp=0.0; 
.................... int8 h=0,l=0,Ajuste=0,Ajusten=0,MediaMovil=20,TTrampa=0; 
.................... float V0=0.0,R1=6110.0,Pt,Tciclo=10.0,Tpulso=0.0,error=0.0,Prom=0.0,Temperature=0.0,tmp=0.0,Ganancia=25.0,Ganancia2=20.0,desvio=1.0; 
.................... float V1=0.0,Presion=0.0,V2=0.0,Presionp=0.0; 
.................... float Temperatura=0.0,K=0.006429; 
.................... float a=0.0011,b=2.3302,c=-244.0723; 
.................... int8 Integral=0,Derivativo=0; 
....................  
.................... //Varios//-------------------------------- 
.................... char kpa[]="kPa"; 
.................... short Flanco=0,Flanco1=0,Flanco2=0,visual=1,desfoguelento=0,Lectura=0; 
.................... short disp_Stop=0; 
.................... int8 Control=0; 
.................... int8 Menu=0, unidad=1,i=0,CiclosL=0,CiclosH=0; 
.................... int8 Setpoint=0,Opcion=1,tiempo_esterilizacion=0,tiempo_secado=0; 
.................... int16 tiempos=0,tiempos3=0,tiempoctrl=0,Nivel=0,tinicio=0,PresionCamara=0,PresionPreCamara=0,Ciclos=0,NivelSeleccionado=0; 
.................... signed int  Contrasena[4]={0,0,0,0};      // Contrasena de 4 digitos 
.................... signed int  Password[4]={0,0,0,0};        // Contrasena Almacenada de 4 digitos 
.................... int8 r=0,t=0,r2=0,t2=0,TiempoControl=0; 
.................... int8 y=0; 
.................... int16 t_exhaust=0; 
....................  
.................... #include "Funciones.h" 
....................  
.................... typedef struct{ 
....................    char Letra[30]; 
....................    char Estado[4]; 
.................... }MENUU; 
....................  
.................... MENUU Menus; 
....................  
....................  
.................... void displayTemperatura(int16 digito, int x, int y, int sombreado, int tamano) 
.................... { 
....................    char voltage[9]; 
....................     
....................    if(sombreado==2) 
*
04942:  MOVLB  7
04944:  MOVF   x2D,W
04946:  SUBLW  02
04948:  BNZ   49BE
....................    { 
....................       sprintf(voltage, "%04Lu", digito); 
0494A:  MOVLW  07
0494C:  MOVWF  x26
0494E:  MOVLW  2F
04950:  MOVWF  x25
04952:  MOVLW  09
04954:  MOVWF  FE9
04956:  MOVFF  72A,739
0495A:  MOVFF  729,738
0495E:  MOVLB  0
04960:  RCALL  4884
....................       glcd_rect(x, y, x+(tamano*18), y+(tamano*8), YES, ON); 
04962:  MOVLB  7
04964:  MOVF   x2E,W
04966:  MULLW  12
04968:  MOVF   FF3,W
0496A:  ADDWF  x2B,W
0496C:  MOVWF  x38
0496E:  MOVF   x2E,W
04970:  MULLW  08
04972:  MOVF   FF3,W
04974:  ADDWF  x2C,W
04976:  MOVWF  x39
04978:  MOVFF  72B,73D
0497C:  MOVFF  72C,73E
04980:  MOVFF  738,73F
04984:  MOVWF  x40
04986:  MOVLW  01
04988:  MOVWF  x41
0498A:  MOVWF  x42
0498C:  MOVLB  0
0498E:  CALL   21E6
....................       glcd_text57(x+1, y+1, voltage, tamano, OFF); 
04992:  MOVLW  01
04994:  MOVLB  7
04996:  ADDWF  x2B,W
04998:  MOVWF  x38
0499A:  MOVLW  01
0499C:  ADDWF  x2C,W
0499E:  MOVWF  x39
049A0:  MOVFF  738,73B
049A4:  MOVWF  x3C
049A6:  MOVLW  07
049A8:  MOVWF  x3E
049AA:  MOVLW  2F
049AC:  MOVWF  x3D
049AE:  MOVFF  72E,73F
049B2:  CLRF   x40
049B4:  MOVLB  0
049B6:  CALL   1EF0
....................    } 
....................    else 
049BA:  BRA    4AF0
049BC:  MOVLB  7
....................    { 
....................       sprintf(voltage, "%04Lu", digito); 
049BE:  MOVLW  07
049C0:  MOVWF  x26
049C2:  MOVLW  2F
049C4:  MOVWF  x25
049C6:  MOVLW  09
049C8:  MOVWF  FE9
049CA:  MOVFF  72A,739
049CE:  MOVFF  729,738
049D2:  MOVLB  0
049D4:  RCALL  4884
....................     
....................       if(sombreado==4) 
049D6:  MOVLB  7
049D8:  MOVF   x2D,W
049DA:  SUBLW  04
049DC:  BNZ   4A38
....................       { 
....................          glcd_rect(x, y, x+(tamano*16), y+(tamano*8), YES, OFF); 
049DE:  MOVF   x2E,W
049E0:  MULLW  10
049E2:  MOVF   FF3,W
049E4:  ADDWF  x2B,W
049E6:  MOVWF  x38
049E8:  MOVF   x2E,W
049EA:  MULLW  08
049EC:  MOVF   FF3,W
049EE:  ADDWF  x2C,W
049F0:  MOVWF  x39
049F2:  MOVFF  72B,73D
049F6:  MOVFF  72C,73E
049FA:  MOVFF  738,73F
049FE:  MOVWF  x40
04A00:  MOVLW  01
04A02:  MOVWF  x41
04A04:  CLRF   x42
04A06:  MOVLB  0
04A08:  CALL   21E6
....................          glcd_text57(x+1, y+1, voltage, tamano, ON); 
04A0C:  MOVLW  01
04A0E:  MOVLB  7
04A10:  ADDWF  x2B,W
04A12:  MOVWF  x38
04A14:  MOVLW  01
04A16:  ADDWF  x2C,W
04A18:  MOVWF  x39
04A1A:  MOVFF  738,73B
04A1E:  MOVWF  x3C
04A20:  MOVLW  07
04A22:  MOVWF  x3E
04A24:  MOVLW  2F
04A26:  MOVWF  x3D
04A28:  MOVFF  72E,73F
04A2C:  MOVLW  01
04A2E:  MOVWF  x40
04A30:  MOVLB  0
04A32:  CALL   1EF0
04A36:  MOVLB  7
....................       } 
....................       if(sombreado==1) 
04A38:  DECFSZ x2D,W
04A3A:  BRA    4A94
....................          {glcd_rect(x, y, x+(tamano*5), y+(tamano*8), YES, ON);glcd_text57(x+1, y+1, voltage, tamano, OFF);} 
04A3C:  MOVF   x2E,W
04A3E:  MULLW  05
04A40:  MOVF   FF3,W
04A42:  ADDWF  x2B,W
04A44:  MOVWF  x38
04A46:  MOVF   x2E,W
04A48:  MULLW  08
04A4A:  MOVF   FF3,W
04A4C:  ADDWF  x2C,W
04A4E:  MOVWF  x39
04A50:  MOVFF  72B,73D
04A54:  MOVFF  72C,73E
04A58:  MOVFF  738,73F
04A5C:  MOVWF  x40
04A5E:  MOVLW  01
04A60:  MOVWF  x41
04A62:  MOVWF  x42
04A64:  MOVLB  0
04A66:  CALL   21E6
04A6A:  MOVLW  01
04A6C:  MOVLB  7
04A6E:  ADDWF  x2B,W
04A70:  MOVWF  x38
04A72:  MOVLW  01
04A74:  ADDWF  x2C,W
04A76:  MOVWF  x39
04A78:  MOVFF  738,73B
04A7C:  MOVWF  x3C
04A7E:  MOVLW  07
04A80:  MOVWF  x3E
04A82:  MOVLW  2F
04A84:  MOVWF  x3D
04A86:  MOVFF  72E,73F
04A8A:  CLRF   x40
04A8C:  MOVLB  0
04A8E:  CALL   1EF0
04A92:  MOVLB  7
....................       if(sombreado==0) 
04A94:  MOVF   x2D,F
04A96:  BNZ   4AF2
....................          {glcd_rect(x, y, x+(tamano*5), y+(tamano*8), YES, OFF);glcd_text57(x+1, y+1, voltage, tamano, ON);} 
04A98:  MOVF   x2E,W
04A9A:  MULLW  05
04A9C:  MOVF   FF3,W
04A9E:  ADDWF  x2B,W
04AA0:  MOVWF  x38
04AA2:  MOVF   x2E,W
04AA4:  MULLW  08
04AA6:  MOVF   FF3,W
04AA8:  ADDWF  x2C,W
04AAA:  MOVWF  x39
04AAC:  MOVFF  72B,73D
04AB0:  MOVFF  72C,73E
04AB4:  MOVFF  738,73F
04AB8:  MOVWF  x40
04ABA:  MOVLW  01
04ABC:  MOVWF  x41
04ABE:  CLRF   x42
04AC0:  MOVLB  0
04AC2:  CALL   21E6
04AC6:  MOVLW  01
04AC8:  MOVLB  7
04ACA:  ADDWF  x2B,W
04ACC:  MOVWF  x38
04ACE:  MOVLW  01
04AD0:  ADDWF  x2C,W
04AD2:  MOVWF  x39
04AD4:  MOVFF  738,73B
04AD8:  MOVWF  x3C
04ADA:  MOVLW  07
04ADC:  MOVWF  x3E
04ADE:  MOVLW  2F
04AE0:  MOVWF  x3D
04AE2:  MOVFF  72E,73F
04AE6:  MOVLW  01
04AE8:  MOVWF  x40
04AEA:  MOVLB  0
04AEC:  CALL   1EF0
04AF0:  MOVLB  7
....................    } 
....................    glcd_update(); 
04AF2:  MOVLB  0
04AF4:  CALL   1CD4
.................... } 
04AF8:  RETLW  00
....................  
....................  
.................... void displayTemps(char palabra[30], char digito[3], int x, int y, int sombreado, int tamano) 
.................... {   
....................    if(sombreado==1) 
*
03952:  MOVLB  7
03954:  DECFSZ x2D,W
03956:  BRA    3A1E
....................    { 
....................       //sprintf(voltage, "%03Lu", digito); 
....................       glcd_rect(0, y, 127, y+(tamano*8), YES, ON); 
03958:  MOVF   x2E,W
0395A:  MULLW  08
0395C:  MOVF   FF3,W
0395E:  ADDWF  x2C,W
03960:  MOVWF  x2F
03962:  CLRF   x3D
03964:  MOVFF  72C,73E
03968:  MOVLW  7F
0396A:  MOVWF  x3F
0396C:  MOVFF  72F,740
03970:  MOVLW  01
03972:  MOVWF  x41
03974:  MOVWF  x42
03976:  MOVLB  0
03978:  CALL   21E6
....................       strcpy(Menus.Letra,palabra); 
0397C:  MOVLB  7
0397E:  MOVFF  727,01
03982:  MOVFF  728,03
03986:  MOVFF  727,72F
0398A:  MOVFF  728,730
0398E:  MOVLW  07
03990:  MOVWF  FEA
03992:  MOVLW  03
03994:  MOVWF  FE9
03996:  MOVFF  728,FE2
0399A:  MOVFF  727,FE1
0399E:  MOVF   FE7,F
039A0:  MOVFF  FE6,FEE
039A4:  BNZ   399E
....................       glcd_text57(x+1, y+1, Menus.Letra, tamano, OFF); 
039A6:  MOVLW  01
039A8:  ADDWF  x2B,W
039AA:  MOVWF  x2F
039AC:  MOVLW  01
039AE:  ADDWF  x2C,W
039B0:  MOVWF  x30
039B2:  MOVFF  72F,73B
039B6:  MOVWF  x3C
039B8:  MOVLW  07
039BA:  MOVWF  x3E
039BC:  MOVLW  03
039BE:  MOVWF  x3D
039C0:  MOVFF  72E,73F
039C4:  CLRF   x40
039C6:  MOVLB  0
039C8:  CALL   1EF0
....................       strcpy(Menus.Letra,digito); 
039CC:  MOVLB  7
039CE:  MOVFF  729,01
039D2:  MOVFF  72A,03
039D6:  MOVFF  729,72F
039DA:  MOVFF  72A,730
039DE:  MOVLW  07
039E0:  MOVWF  FEA
039E2:  MOVLW  03
039E4:  MOVWF  FE9
039E6:  MOVFF  72A,FE2
039EA:  MOVFF  729,FE1
039EE:  MOVF   FE7,F
039F0:  MOVFF  FE6,FEE
039F4:  BNZ   39EE
....................       glcd_text57(x+90, y+1, Menus.Letra, tamano, OFF); 
039F6:  MOVLW  5A
039F8:  ADDWF  x2B,W
039FA:  MOVWF  x2F
039FC:  MOVLW  01
039FE:  ADDWF  x2C,W
03A00:  MOVWF  x30
03A02:  MOVFF  72F,73B
03A06:  MOVWF  x3C
03A08:  MOVLW  07
03A0A:  MOVWF  x3E
03A0C:  MOVLW  03
03A0E:  MOVWF  x3D
03A10:  MOVFF  72E,73F
03A14:  CLRF   x40
03A16:  MOVLB  0
03A18:  CALL   1EF0
03A1C:  MOVLB  7
....................       //strcpy(Menus.Letra,"C"); 
....................       //glcd_text57(x+120, y+1, Menus.Letra, tamano, OFF); 
....................       //glcd_circle(x+115,y-1,1,NO,OFF); 
....................    } 
....................    if(sombreado==0) 
03A1E:  MOVF   x2D,F
03A20:  BNZ   3AEA
....................    { 
....................       //sprintf(voltage, "%03Lu", digito); 
....................       glcd_rect(0, y, 127, y+(tamano*8), YES, OFF); 
03A22:  MOVF   x2E,W
03A24:  MULLW  08
03A26:  MOVF   FF3,W
03A28:  ADDWF  x2C,W
03A2A:  MOVWF  x2F
03A2C:  CLRF   x3D
03A2E:  MOVFF  72C,73E
03A32:  MOVLW  7F
03A34:  MOVWF  x3F
03A36:  MOVFF  72F,740
03A3A:  MOVLW  01
03A3C:  MOVWF  x41
03A3E:  CLRF   x42
03A40:  MOVLB  0
03A42:  CALL   21E6
....................       strcpy(Menus.Letra,palabra); 
03A46:  MOVLB  7
03A48:  MOVFF  727,01
03A4C:  MOVFF  728,03
03A50:  MOVFF  727,72F
03A54:  MOVFF  728,730
03A58:  MOVLW  07
03A5A:  MOVWF  FEA
03A5C:  MOVLW  03
03A5E:  MOVWF  FE9
03A60:  MOVFF  728,FE2
03A64:  MOVFF  727,FE1
03A68:  MOVF   FE7,F
03A6A:  MOVFF  FE6,FEE
03A6E:  BNZ   3A68
....................       glcd_text57(x+1, y+1, Menus.Letra, tamano, ON); 
03A70:  MOVLW  01
03A72:  ADDWF  x2B,W
03A74:  MOVWF  x2F
03A76:  MOVLW  01
03A78:  ADDWF  x2C,W
03A7A:  MOVWF  x30
03A7C:  MOVFF  72F,73B
03A80:  MOVWF  x3C
03A82:  MOVLW  07
03A84:  MOVWF  x3E
03A86:  MOVLW  03
03A88:  MOVWF  x3D
03A8A:  MOVFF  72E,73F
03A8E:  MOVLW  01
03A90:  MOVWF  x40
03A92:  MOVLB  0
03A94:  CALL   1EF0
....................       strcpy(Menus.Letra,digito); 
03A98:  MOVLB  7
03A9A:  MOVFF  729,01
03A9E:  MOVFF  72A,03
03AA2:  MOVFF  729,72F
03AA6:  MOVFF  72A,730
03AAA:  MOVLW  07
03AAC:  MOVWF  FEA
03AAE:  MOVLW  03
03AB0:  MOVWF  FE9
03AB2:  MOVFF  72A,FE2
03AB6:  MOVFF  729,FE1
03ABA:  MOVF   FE7,F
03ABC:  MOVFF  FE6,FEE
03AC0:  BNZ   3ABA
....................       glcd_text57(x+90, y+1, Menus.Letra, tamano, ON); 
03AC2:  MOVLW  5A
03AC4:  ADDWF  x2B,W
03AC6:  MOVWF  x2F
03AC8:  MOVLW  01
03ACA:  ADDWF  x2C,W
03ACC:  MOVWF  x30
03ACE:  MOVFF  72F,73B
03AD2:  MOVWF  x3C
03AD4:  MOVLW  07
03AD6:  MOVWF  x3E
03AD8:  MOVLW  03
03ADA:  MOVWF  x3D
03ADC:  MOVFF  72E,73F
03AE0:  MOVLW  01
03AE2:  MOVWF  x40
03AE4:  MOVLB  0
03AE6:  CALL   1EF0
....................       //strcpy(Menus.Letra,"C"); 
....................       //glcd_text57(x+120, y+1, Menus.Letra, tamano, ON); 
....................       //glcd_circle(x+115,y-1,1,NO,ON); 
....................    } 
....................    glcd_update(); 
03AEA:  MOVLB  0
03AEC:  CALL   1CD4
.................... } 
03AF0:  RETLW  00
....................  
.................... void displayTT(float adc,int x,int y,int w) { 
....................    char voltage[9];     
....................    sprintf(voltage, "%03.1f",adc); // Converts adc to text 
*
0480C:  MOVLW  07
0480E:  MOVLB  7
04810:  MOVWF  x26
04812:  MOVLW  2E
04814:  MOVWF  x25
04816:  MOVLW  42
04818:  MOVWF  FE9
0481A:  MOVFF  72A,73E
0481E:  MOVFF  729,73D
04822:  MOVFF  728,73C
04826:  MOVFF  727,73B
0482A:  MOVLW  01
0482C:  MOVWF  x3F
0482E:  MOVLB  0
04830:  RCALL  45E0
....................    glcd_rect(x, y, x+(w*27), y+(w*8), YES, OFF); 
04832:  MOVLB  7
04834:  MOVF   x2D,W
04836:  MULLW  1B
04838:  MOVF   FF3,W
0483A:  ADDWF  x2B,W
0483C:  MOVWF  x37
0483E:  MOVF   x2D,W
04840:  MULLW  08
04842:  MOVF   FF3,W
04844:  ADDWF  x2C,W
04846:  MOVWF  x38
04848:  MOVFF  72B,73D
0484C:  MOVFF  72C,73E
04850:  MOVFF  737,73F
04854:  MOVWF  x40
04856:  MOVLW  01
04858:  MOVWF  x41
0485A:  CLRF   x42
0485C:  MOVLB  0
0485E:  CALL   21E6
....................    /*glcd_rect(x, y, x+53, y+15, YES, ON);*/glcd_text57(x, y, voltage, w, ON); 
04862:  MOVFF  72B,73B
04866:  MOVFF  72C,73C
0486A:  MOVLW  07
0486C:  MOVLB  7
0486E:  MOVWF  x3E
04870:  MOVLW  2E
04872:  MOVWF  x3D
04874:  MOVFF  72D,73F
04878:  MOVLW  01
0487A:  MOVWF  x40
0487C:  MOVLB  0
0487E:  CALL   1EF0
.................... } 
04882:  RETLW  00
....................  
.................... void Limpia(int x1,int x2,int y){ 
....................    glcd_rect(x1, y, x2, y+7, YES, OFF); 
.................... } 
....................  
.................... void displayT(float adc,int x,int y,int w) { 
....................    char voltage[9];     
....................    sprintf(voltage, "%03.0f",adc); // Converts adc to text 
*
04794:  MOVLW  07
04796:  MOVLB  7
04798:  MOVWF  x26
0479A:  MOVLW  32
0479C:  MOVWF  x25
0479E:  MOVLW  42
047A0:  MOVWF  FE9
047A2:  MOVFF  72E,73E
047A6:  MOVFF  72D,73D
047AA:  MOVFF  72C,73C
047AE:  MOVFF  72B,73B
047B2:  CLRF   x3F
047B4:  MOVLB  0
047B6:  RCALL  45E0
....................    glcd_rect(x, y, x+(w*27), y+(w*8), YES, OFF); 
047B8:  MOVLB  7
047BA:  MOVF   x31,W
047BC:  MULLW  1B
047BE:  MOVF   FF3,W
047C0:  ADDWF  x2F,W
047C2:  MOVWF  x3B
047C4:  MOVF   x31,W
047C6:  MULLW  08
047C8:  MOVF   FF3,W
047CA:  ADDWF  x30,W
047CC:  MOVWF  x3C
047CE:  MOVFF  72F,73D
047D2:  MOVFF  730,73E
047D6:  MOVFF  73B,73F
047DA:  MOVWF  x40
047DC:  MOVLW  01
047DE:  MOVWF  x41
047E0:  CLRF   x42
047E2:  MOVLB  0
047E4:  CALL   21E6
....................    /*glcd_rect(x, y, x+53, y+15, YES, ON);*/glcd_text57(x, y, voltage, w, ON); 
047E8:  MOVFF  72F,73B
047EC:  MOVFF  730,73C
047F0:  MOVLW  07
047F2:  MOVLB  7
047F4:  MOVWF  x3E
047F6:  MOVLW  32
047F8:  MOVWF  x3D
047FA:  MOVFF  731,73F
047FE:  MOVLW  01
04800:  MOVWF  x40
04802:  MOVLB  0
04804:  CALL   1EF0
.................... } 
04808:  GOTO   A532 (RETURN)
....................  
.................... void displayContrasena(int digito, int x, int y, int sombreado) 
.................... { 
....................    char voltage[9]; 
....................    sprintf(voltage, "%i", digito); 
*
024CE:  MOVLW  07
024D0:  MOVLB  7
024D2:  MOVWF  x26
024D4:  MOVLW  2D
024D6:  MOVWF  x25
024D8:  MOVFF  729,736
024DC:  MOVLW  1F
024DE:  MOVWF  x37
024E0:  MOVLB  0
024E2:  BRA    23EE
....................     
....................    if(sombreado==1) 
024E4:  MOVLB  7
024E6:  DECFSZ x2C,W
024E8:  BRA    2538
....................       {glcd_rect(x, y, x+18, y+24, YES, ON);glcd_text57(x+2, y+1, voltage, 2, OFF);} 
024EA:  MOVLW  12
024EC:  ADDWF  x2A,W
024EE:  MOVWF  x36
024F0:  MOVLW  18
024F2:  ADDWF  x2B,W
024F4:  MOVWF  x37
024F6:  MOVFF  72A,73D
024FA:  MOVFF  72B,73E
024FE:  MOVFF  736,73F
02502:  MOVWF  x40
02504:  MOVLW  01
02506:  MOVWF  x41
02508:  MOVWF  x42
0250A:  MOVLB  0
0250C:  RCALL  21E6
0250E:  MOVLW  02
02510:  MOVLB  7
02512:  ADDWF  x2A,W
02514:  MOVWF  x36
02516:  MOVLW  01
02518:  ADDWF  x2B,W
0251A:  MOVWF  x37
0251C:  MOVFF  736,73B
02520:  MOVWF  x3C
02522:  MOVLW  07
02524:  MOVWF  x3E
02526:  MOVLW  2D
02528:  MOVWF  x3D
0252A:  MOVLW  02
0252C:  MOVWF  x3F
0252E:  CLRF   x40
02530:  MOVLB  0
02532:  RCALL  1EF0
....................    else    
02534:  BRA    2582
02536:  MOVLB  7
....................       {glcd_rect(x, y, x+18, y+24, NO, OFF);glcd_text57(x+2, y+1, voltage, 2, ON);} 
02538:  MOVLW  12
0253A:  ADDWF  x2A,W
0253C:  MOVWF  x36
0253E:  MOVLW  18
02540:  ADDWF  x2B,W
02542:  MOVWF  x37
02544:  MOVFF  72A,73D
02548:  MOVFF  72B,73E
0254C:  MOVFF  736,73F
02550:  MOVWF  x40
02552:  CLRF   x41
02554:  CLRF   x42
02556:  MOVLB  0
02558:  RCALL  21E6
0255A:  MOVLW  02
0255C:  MOVLB  7
0255E:  ADDWF  x2A,W
02560:  MOVWF  x36
02562:  MOVLW  01
02564:  ADDWF  x2B,W
02566:  MOVWF  x37
02568:  MOVFF  736,73B
0256C:  MOVWF  x3C
0256E:  MOVLW  07
02570:  MOVWF  x3E
02572:  MOVLW  2D
02574:  MOVWF  x3D
02576:  MOVLW  02
02578:  MOVWF  x3F
0257A:  MOVLW  01
0257C:  MOVWF  x40
0257E:  MOVLB  0
02580:  RCALL  1EF0
....................  
.................... } 
02582:  RETLW  00
....................  
.................... void displayMenu(char palabra[30], int x, int y, int sombreado, int tamano) 
.................... { 
....................    strcpy(Menus.Letra,palabra); 
*
022A8:  MOVLB  7
022AA:  MOVFF  727,01
022AE:  MOVFF  728,03
022B2:  MOVFF  727,72D
022B6:  MOVFF  728,72E
022BA:  MOVLW  07
022BC:  MOVWF  FEA
022BE:  MOVLW  03
022C0:  MOVWF  FE9
022C2:  MOVFF  728,FE2
022C6:  MOVFF  727,FE1
022CA:  MOVF   FE7,F
022CC:  MOVFF  FE6,FEE
022D0:  BNZ   22CA
....................    if(sombreado==2) 
022D2:  MOVF   x2B,W
022D4:  SUBLW  02
022D6:  BNZ   2300
....................       {glcd_text57(x+1, y+1, Menus.Letra, tamano, ON);} 
022D8:  MOVLW  01
022DA:  ADDWF  x29,W
022DC:  MOVWF  x2D
022DE:  MOVLW  01
022E0:  ADDWF  x2A,W
022E2:  MOVWF  x2E
022E4:  MOVFF  72D,73B
022E8:  MOVWF  x3C
022EA:  MOVLW  07
022EC:  MOVWF  x3E
022EE:  MOVLW  03
022F0:  MOVWF  x3D
022F2:  MOVFF  72C,73F
022F6:  MOVLW  01
022F8:  MOVWF  x40
022FA:  MOVLB  0
022FC:  RCALL  1EF0
022FE:  MOVLB  7
....................    if(sombreado==1) 
02300:  DECFSZ x2B,W
02302:  BRA    234E
....................       {glcd_rect(0, y, 127, y+(tamano*8), YES, ON);glcd_text57(x+1, y+1, Menus.Letra, tamano, OFF);} 
02304:  MOVF   x2C,W
02306:  MULLW  08
02308:  MOVF   FF3,W
0230A:  ADDWF  x2A,W
0230C:  MOVWF  x2D
0230E:  CLRF   x3D
02310:  MOVFF  72A,73E
02314:  MOVLW  7F
02316:  MOVWF  x3F
02318:  MOVFF  72D,740
0231C:  MOVLW  01
0231E:  MOVWF  x41
02320:  MOVWF  x42
02322:  MOVLB  0
02324:  RCALL  21E6
02326:  MOVLW  01
02328:  MOVLB  7
0232A:  ADDWF  x29,W
0232C:  MOVWF  x2D
0232E:  MOVLW  01
02330:  ADDWF  x2A,W
02332:  MOVWF  x2E
02334:  MOVFF  72D,73B
02338:  MOVWF  x3C
0233A:  MOVLW  07
0233C:  MOVWF  x3E
0233E:  MOVLW  03
02340:  MOVWF  x3D
02342:  MOVFF  72C,73F
02346:  CLRF   x40
02348:  MOVLB  0
0234A:  RCALL  1EF0
0234C:  MOVLB  7
....................    if(sombreado==0) 
0234E:  MOVF   x2B,F
02350:  BNZ   239C
....................       {glcd_rect(0, y, 127, y+(tamano*8), YES, OFF);glcd_text57(x+1, y+1, Menus.Letra, tamano, ON);} 
02352:  MOVF   x2C,W
02354:  MULLW  08
02356:  MOVF   FF3,W
02358:  ADDWF  x2A,W
0235A:  MOVWF  x2D
0235C:  CLRF   x3D
0235E:  MOVFF  72A,73E
02362:  MOVLW  7F
02364:  MOVWF  x3F
02366:  MOVFF  72D,740
0236A:  MOVLW  01
0236C:  MOVWF  x41
0236E:  CLRF   x42
02370:  MOVLB  0
02372:  RCALL  21E6
02374:  MOVLW  01
02376:  MOVLB  7
02378:  ADDWF  x29,W
0237A:  MOVWF  x2D
0237C:  MOVLW  01
0237E:  ADDWF  x2A,W
02380:  MOVWF  x2E
02382:  MOVFF  72D,73B
02386:  MOVWF  x3C
02388:  MOVLW  07
0238A:  MOVWF  x3E
0238C:  MOVLW  03
0238E:  MOVWF  x3D
02390:  MOVFF  72C,73F
02394:  MOVLW  01
02396:  MOVWF  x40
02398:  MOVLB  0
0239A:  RCALL  1EF0
....................    glcd_update(); 
0239C:  MOVLB  0
0239E:  RCALL  1CD4
.................... } 
023A0:  RETLW  00
....................  
.................... void displayTiempo(int digito, int x, int y, int sombreado, int tamano) 
.................... { 
....................    char voltage[9]; 
....................     
....................    if(sombreado==2) 
*
03B78:  MOVLB  7
03B7A:  MOVF   x2A,W
03B7C:  SUBLW  02
03B7E:  BNZ   3BF0
....................    { 
....................       sprintf(voltage, "%03u", digito); 
03B80:  MOVLW  07
03B82:  MOVWF  x26
03B84:  MOVLW  2C
03B86:  MOVWF  x25
03B88:  MOVFF  727,735
03B8C:  MOVLW  03
03B8E:  MOVWF  x36
03B90:  MOVLB  0
03B92:  RCALL  3AF2
....................       glcd_rect(x, y, x+(tamano*18), y+(tamano*8), YES, ON); 
03B94:  MOVLB  7
03B96:  MOVF   x2B,W
03B98:  MULLW  12
03B9A:  MOVF   FF3,W
03B9C:  ADDWF  x28,W
03B9E:  MOVWF  x35
03BA0:  MOVF   x2B,W
03BA2:  MULLW  08
03BA4:  MOVF   FF3,W
03BA6:  ADDWF  x29,W
03BA8:  MOVWF  x36
03BAA:  MOVFF  728,73D
03BAE:  MOVFF  729,73E
03BB2:  MOVFF  735,73F
03BB6:  MOVWF  x40
03BB8:  MOVLW  01
03BBA:  MOVWF  x41
03BBC:  MOVWF  x42
03BBE:  MOVLB  0
03BC0:  CALL   21E6
....................       glcd_text57(x+1, y+1, voltage, tamano, OFF); 
03BC4:  MOVLW  01
03BC6:  MOVLB  7
03BC8:  ADDWF  x28,W
03BCA:  MOVWF  x35
03BCC:  MOVLW  01
03BCE:  ADDWF  x29,W
03BD0:  MOVWF  x36
03BD2:  MOVFF  735,73B
03BD6:  MOVWF  x3C
03BD8:  MOVLW  07
03BDA:  MOVWF  x3E
03BDC:  MOVLW  2C
03BDE:  MOVWF  x3D
03BE0:  MOVFF  72B,73F
03BE4:  CLRF   x40
03BE6:  MOVLB  0
03BE8:  CALL   1EF0
....................    } 
....................    else 
03BEC:  BRA    3CBE
03BEE:  MOVLB  7
....................    { 
....................       sprintf(voltage, "%u", digito); 
03BF0:  MOVLW  07
03BF2:  MOVWF  x26
03BF4:  MOVLW  2C
03BF6:  MOVWF  x25
03BF8:  MOVFF  727,735
03BFC:  MOVLW  1B
03BFE:  MOVWF  x36
03C00:  MOVLB  0
03C02:  RCALL  3AF2
....................     
....................       if(sombreado==1) 
03C04:  MOVLB  7
03C06:  DECFSZ x2A,W
03C08:  BRA    3C62
....................          {glcd_rect(x, y, x+(tamano*5), y+(tamano*8), YES, ON);glcd_text57(x+1, y+1, voltage, tamano, OFF);} 
03C0A:  MOVF   x2B,W
03C0C:  MULLW  05
03C0E:  MOVF   FF3,W
03C10:  ADDWF  x28,W
03C12:  MOVWF  x35
03C14:  MOVF   x2B,W
03C16:  MULLW  08
03C18:  MOVF   FF3,W
03C1A:  ADDWF  x29,W
03C1C:  MOVWF  x36
03C1E:  MOVFF  728,73D
03C22:  MOVFF  729,73E
03C26:  MOVFF  735,73F
03C2A:  MOVWF  x40
03C2C:  MOVLW  01
03C2E:  MOVWF  x41
03C30:  MOVWF  x42
03C32:  MOVLB  0
03C34:  CALL   21E6
03C38:  MOVLW  01
03C3A:  MOVLB  7
03C3C:  ADDWF  x28,W
03C3E:  MOVWF  x35
03C40:  MOVLW  01
03C42:  ADDWF  x29,W
03C44:  MOVWF  x36
03C46:  MOVFF  735,73B
03C4A:  MOVWF  x3C
03C4C:  MOVLW  07
03C4E:  MOVWF  x3E
03C50:  MOVLW  2C
03C52:  MOVWF  x3D
03C54:  MOVFF  72B,73F
03C58:  CLRF   x40
03C5A:  MOVLB  0
03C5C:  CALL   1EF0
03C60:  MOVLB  7
....................       if(sombreado==0) 
03C62:  MOVF   x2A,F
03C64:  BNZ   3CC0
....................          {glcd_rect(x, y, x+(tamano*5), y+(tamano*8), YES, OFF);glcd_text57(x+1, y+1, voltage, tamano, ON);} 
03C66:  MOVF   x2B,W
03C68:  MULLW  05
03C6A:  MOVF   FF3,W
03C6C:  ADDWF  x28,W
03C6E:  MOVWF  x35
03C70:  MOVF   x2B,W
03C72:  MULLW  08
03C74:  MOVF   FF3,W
03C76:  ADDWF  x29,W
03C78:  MOVWF  x36
03C7A:  MOVFF  728,73D
03C7E:  MOVFF  729,73E
03C82:  MOVFF  735,73F
03C86:  MOVWF  x40
03C88:  MOVLW  01
03C8A:  MOVWF  x41
03C8C:  CLRF   x42
03C8E:  MOVLB  0
03C90:  CALL   21E6
03C94:  MOVLW  01
03C96:  MOVLB  7
03C98:  ADDWF  x28,W
03C9A:  MOVWF  x35
03C9C:  MOVLW  01
03C9E:  ADDWF  x29,W
03CA0:  MOVWF  x36
03CA2:  MOVFF  735,73B
03CA6:  MOVWF  x3C
03CA8:  MOVLW  07
03CAA:  MOVWF  x3E
03CAC:  MOVLW  2C
03CAE:  MOVWF  x3D
03CB0:  MOVFF  72B,73F
03CB4:  MOVLW  01
03CB6:  MOVWF  x40
03CB8:  MOVLB  0
03CBA:  CALL   1EF0
03CBE:  MOVLB  7
....................    } 
....................    glcd_update(); 
03CC0:  MOVLB  0
03CC2:  CALL   1CD4
.................... } 
03CC6:  RETLW  00
....................  
.................... void glcd_imagen(int8 x) 
.................... { 
....................    char i,j; 
....................    signed char k;  
....................     
....................    if(x==5){ 
*
03764:  MOVLB  7
03766:  MOVF   x27,W
03768:  SUBLW  05
0376A:  BNZ   3810
....................    for( i = 0 ; i < 64 ; i ++ ) 
0376C:  CLRF   x28
0376E:  MOVF   x28,W
03770:  SUBLW  3F
03772:  BNC   3810
....................    {   
....................       for( j = 0 ; j < 16 ; j ++) 
03774:  CLRF   x29
03776:  MOVF   x29,W
03778:  SUBLW  0F
0377A:  BNC   380C
....................       {     
....................          for(k=7;k>-1;k--) 
0377C:  MOVLW  07
0377E:  MOVWF  x2A
03780:  MOVF   x2A,W
03782:  XORLW  80
03784:  SUBLW  7F
03786:  BC    3808
....................          {       
....................             if( bit_test(Proceso[i][j] ,7-k ))  
03788:  CLRF   x2C
0378A:  MOVFF  728,72B
0378E:  CLRF   x2E
03790:  MOVLW  10
03792:  MOVWF  x2D
03794:  MOVLB  0
03796:  CALL   264A
0379A:  MOVFF  02,72C
0379E:  MOVFF  01,72B
037A2:  MOVLB  7
037A4:  MOVF   x29,W
037A6:  ADDWF  01,W
037A8:  MOVWF  01
037AA:  MOVLW  00
037AC:  ADDWFC 02,W
037AE:  MOVWF  03
037B0:  MOVF   01,W
037B2:  MOVFF  FF2,72B
037B6:  BCF    FF2.7
037B8:  MOVFF  03,FF7
037BC:  MOVLB  0
037BE:  CALL   02C2
037C2:  MOVLB  7
037C4:  BTFSC  x2B.7
037C6:  BSF    FF2.7
037C8:  MOVWF  x2B
037CA:  MOVLW  07
037CC:  BSF    FD8.0
037CE:  SUBFWB x2A,W
037D0:  MOVWF  x2C
037D2:  MOVFF  72B,00
037D6:  MOVF   x2C,W
037D8:  MOVWF  01
037DA:  BZ    37E4
037DC:  BCF    FD8.0
037DE:  RRCF   00,F
037E0:  DECFSZ 01,F
037E2:  BRA    37DC
037E4:  BTFSS  00.0
037E6:  BRA    3804
....................                glcd_pixel( j*8+k,i, ON ); 
037E8:  MOVF   x29,W
037EA:  MULLW  08
037EC:  MOVF   FF3,W
037EE:  ADDWF  x2A,W
037F0:  MOVWF  x2B
037F2:  MOVWF  x58
037F4:  MOVFF  728,759
037F8:  MOVLW  01
037FA:  MOVWF  x5A
037FC:  MOVLB  0
037FE:  CALL   1E34
03802:  MOVLB  7
....................          }   
03804:  DECF   x2A,F
03806:  BRA    3780
....................       } 
03808:  INCF   x29,F
0380A:  BRA    3776
....................    } 
0380C:  INCF   x28,F
0380E:  BRA    376E
....................    } 
....................     
.................... } 
03810:  MOVLB  0
03812:  RETLW  00
....................  
.................... void CuadroCalentando(short estado){ 
....................    if(estado){ 
03814:  MOVLB  7
03816:  MOVF   x27,F
03818:  BZ    383E
....................       glcd_rect(15, 18, 30, 53, NO, ON); 
0381A:  MOVLW  0F
0381C:  MOVWF  x3D
0381E:  MOVLW  12
03820:  MOVWF  x3E
03822:  MOVLW  1E
03824:  MOVWF  x3F
03826:  MOVLW  35
03828:  MOVWF  x40
0382A:  CLRF   x41
0382C:  MOVLW  01
0382E:  MOVWF  x42
03830:  MOVLB  0
03832:  CALL   21E6
....................       flagCalentando=OFF; 
03836:  MOVLB  4
03838:  BCF    x5F.4
....................    }else{ 
0383A:  BRA    3864
0383C:  MOVLB  7
....................       if(!flagCalentando){ 
0383E:  MOVLB  4
03840:  BTFSC  x5F.4
03842:  BRA    3864
....................          glcd_rect(15, 18, 30, 53, NO, OFF); 
03844:  MOVLW  0F
03846:  MOVLB  7
03848:  MOVWF  x3D
0384A:  MOVLW  12
0384C:  MOVWF  x3E
0384E:  MOVLW  1E
03850:  MOVWF  x3F
03852:  MOVLW  35
03854:  MOVWF  x40
03856:  CLRF   x41
03858:  CLRF   x42
0385A:  MOVLB  0
0385C:  CALL   21E6
....................          flagCalentando=ON; 
03860:  MOVLB  4
03862:  BSF    x5F.4
....................       } 
....................    } 
.................... } 
03864:  MOVLB  0
03866:  RETLW  00
....................  
.................... void CuadroEsterilizando(short estado){ 
....................    if(estado){ 
*
040F2:  MOVLB  7
040F4:  MOVF   x27,F
040F6:  BZ    411C
....................       glcd_rect(25, 18, 60, 26, NO, ON); 
040F8:  MOVLW  19
040FA:  MOVWF  x3D
040FC:  MOVLW  12
040FE:  MOVWF  x3E
04100:  MOVLW  3C
04102:  MOVWF  x3F
04104:  MOVLW  1A
04106:  MOVWF  x40
04108:  CLRF   x41
0410A:  MOVLW  01
0410C:  MOVWF  x42
0410E:  MOVLB  0
04110:  CALL   21E6
....................       flagEsterilizando=OFF; 
04114:  MOVLB  4
04116:  BCF    x5F.5
....................    }else{ 
04118:  BRA    4142
0411A:  MOVLB  7
....................       if(!flagEsterilizando){ 
0411C:  MOVLB  4
0411E:  BTFSC  x5F.5
04120:  BRA    4142
....................          glcd_rect(25, 18, 60, 26, NO, OFF); 
04122:  MOVLW  19
04124:  MOVLB  7
04126:  MOVWF  x3D
04128:  MOVLW  12
0412A:  MOVWF  x3E
0412C:  MOVLW  3C
0412E:  MOVWF  x3F
04130:  MOVLW  1A
04132:  MOVWF  x40
04134:  CLRF   x41
04136:  CLRF   x42
04138:  MOVLB  0
0413A:  CALL   21E6
....................          flagEsterilizando=ON; 
0413E:  MOVLB  4
04140:  BSF    x5F.5
....................       } 
....................    } 
.................... } 
04142:  MOVLB  0
04144:  RETLW  00
....................  
.................... void CuadroDesfogando(short estado){ 
....................    if(estado){ 
*
0409E:  MOVLB  7
040A0:  MOVF   x27,F
040A2:  BZ    40C8
....................       glcd_rect(55, 18, 68, 53, NO, ON); 
040A4:  MOVLW  37
040A6:  MOVWF  x3D
040A8:  MOVLW  12
040AA:  MOVWF  x3E
040AC:  MOVLW  44
040AE:  MOVWF  x3F
040B0:  MOVLW  35
040B2:  MOVWF  x40
040B4:  CLRF   x41
040B6:  MOVLW  01
040B8:  MOVWF  x42
040BA:  MOVLB  0
040BC:  CALL   21E6
....................       flagDesfogando=OFF; 
040C0:  MOVLB  4
040C2:  BCF    x5F.6
....................    }else{ 
040C4:  BRA    40EE
040C6:  MOVLB  7
....................       if(!flagDesfogando){ 
040C8:  MOVLB  4
040CA:  BTFSC  x5F.6
040CC:  BRA    40EE
....................          glcd_rect(55, 18, 68, 53, NO, OFF); 
040CE:  MOVLW  37
040D0:  MOVLB  7
040D2:  MOVWF  x3D
040D4:  MOVLW  12
040D6:  MOVWF  x3E
040D8:  MOVLW  44
040DA:  MOVWF  x3F
040DC:  MOVLW  35
040DE:  MOVWF  x40
040E0:  CLRF   x41
040E2:  CLRF   x42
040E4:  MOVLB  0
040E6:  CALL   21E6
....................          flagDesfogando=ON; 
040EA:  MOVLB  4
040EC:  BSF    x5F.6
....................       } 
....................    } 
.................... } 
040EE:  MOVLB  0
040F0:  RETLW  00
....................  
.................... void BorraStatus(){ 
....................    glcd_rect(0, 55, 127, 63, YES, OFF); 
*
04080:  MOVLB  7
04082:  CLRF   x3D
04084:  MOVLW  37
04086:  MOVWF  x3E
04088:  MOVLW  7F
0408A:  MOVWF  x3F
0408C:  MOVLW  3F
0408E:  MOVWF  x40
04090:  MOVLW  01
04092:  MOVWF  x41
04094:  CLRF   x42
04096:  MOVLB  0
04098:  CALL   21E6
.................... } 
0409C:  RETLW  00
....................  
....................  
....................  
.................... //Funciones//---------------------------- 
.................... void MuestraTiemposProgramados(){ 
.................... // Muestra Valor de esterilizacion programado. 
....................    displayTiempo(Testerilizacionp[3],36,0,0,1);displayTiempo(Testerilizacionp[2],42,0,0,1); 
*
03F40:  MOVFF  46D,727
03F44:  MOVLW  24
03F46:  MOVLB  7
03F48:  MOVWF  x28
03F4A:  CLRF   x29
03F4C:  CLRF   x2A
03F4E:  MOVLW  01
03F50:  MOVWF  x2B
03F52:  MOVLB  0
03F54:  RCALL  3B78
03F56:  MOVFF  46C,727
03F5A:  MOVLW  2A
03F5C:  MOVLB  7
03F5E:  MOVWF  x28
03F60:  CLRF   x29
03F62:  CLRF   x2A
03F64:  MOVLW  01
03F66:  MOVWF  x2B
03F68:  MOVLB  0
03F6A:  RCALL  3B78
....................    strcpy(Menus.Letra,":");displayMenu(Menus.Letra,49,0,2,1);  
03F6C:  MOVLW  07
03F6E:  MOVWF  FEA
03F70:  MOVLW  03
03F72:  MOVWF  FE9
03F74:  MOVFF  FF2,727
03F78:  BCF    FF2.7
03F7A:  MOVLW  00
03F7C:  CALL   06DE
03F80:  TBLRD*-
03F82:  TBLRD*+
03F84:  MOVF   FF5,W
03F86:  MOVWF  FEE
03F88:  IORLW  00
03F8A:  BNZ   3F82
03F8C:  MOVLB  7
03F8E:  BTFSC  x27.7
03F90:  BSF    FF2.7
03F92:  MOVLW  07
03F94:  MOVWF  x28
03F96:  MOVLW  03
03F98:  MOVWF  x27
03F9A:  MOVLW  31
03F9C:  MOVWF  x29
03F9E:  CLRF   x2A
03FA0:  MOVLW  02
03FA2:  MOVWF  x2B
03FA4:  MOVLW  01
03FA6:  MOVWF  x2C
03FA8:  MOVLB  0
03FAA:  CALL   22A8
....................    displayTiempo(Testerilizacionp[1],54,0,0,1);displayTiempo(Testerilizacionp[0],60,0,0,1); 
03FAE:  MOVFF  46B,727
03FB2:  MOVLW  36
03FB4:  MOVLB  7
03FB6:  MOVWF  x28
03FB8:  CLRF   x29
03FBA:  CLRF   x2A
03FBC:  MOVLW  01
03FBE:  MOVWF  x2B
03FC0:  MOVLB  0
03FC2:  RCALL  3B78
03FC4:  MOVFF  46A,727
03FC8:  MOVLW  3C
03FCA:  MOVLB  7
03FCC:  MOVWF  x28
03FCE:  CLRF   x29
03FD0:  CLRF   x2A
03FD2:  MOVLW  01
03FD4:  MOVWF  x2B
03FD6:  MOVLB  0
03FD8:  RCALL  3B78
.................... // Muestra tiempo de secado programado. 
....................    displayTiempo(Tsecadop[3],36,8,0,1);displayTiempo(Tsecadop[2],42,8,0,1); 
03FDA:  MOVFF  475,727
03FDE:  MOVLW  24
03FE0:  MOVLB  7
03FE2:  MOVWF  x28
03FE4:  MOVLW  08
03FE6:  MOVWF  x29
03FE8:  CLRF   x2A
03FEA:  MOVLW  01
03FEC:  MOVWF  x2B
03FEE:  MOVLB  0
03FF0:  RCALL  3B78
03FF2:  MOVFF  474,727
03FF6:  MOVLW  2A
03FF8:  MOVLB  7
03FFA:  MOVWF  x28
03FFC:  MOVLW  08
03FFE:  MOVWF  x29
04000:  CLRF   x2A
04002:  MOVLW  01
04004:  MOVWF  x2B
04006:  MOVLB  0
04008:  RCALL  3B78
....................    strcpy(Menus.Letra,":");displayMenu(Menus.Letra,49,8,2,1);  
0400A:  MOVLW  07
0400C:  MOVWF  FEA
0400E:  MOVLW  03
04010:  MOVWF  FE9
04012:  MOVFF  FF2,727
04016:  BCF    FF2.7
04018:  MOVLW  00
0401A:  CALL   06DE
0401E:  TBLRD*-
04020:  TBLRD*+
04022:  MOVF   FF5,W
04024:  MOVWF  FEE
04026:  IORLW  00
04028:  BNZ   4020
0402A:  MOVLB  7
0402C:  BTFSC  x27.7
0402E:  BSF    FF2.7
04030:  MOVLW  07
04032:  MOVWF  x28
04034:  MOVLW  03
04036:  MOVWF  x27
04038:  MOVLW  31
0403A:  MOVWF  x29
0403C:  MOVLW  08
0403E:  MOVWF  x2A
04040:  MOVLW  02
04042:  MOVWF  x2B
04044:  MOVLW  01
04046:  MOVWF  x2C
04048:  MOVLB  0
0404A:  CALL   22A8
....................    displayTiempo(Tsecadop[1],54,8,0,1);displayTiempo(Tsecadop[0],60,8,0,1); 
0404E:  MOVFF  473,727
04052:  MOVLW  36
04054:  MOVLB  7
04056:  MOVWF  x28
04058:  MOVLW  08
0405A:  MOVWF  x29
0405C:  CLRF   x2A
0405E:  MOVLW  01
04060:  MOVWF  x2B
04062:  MOVLB  0
04064:  RCALL  3B78
04066:  MOVFF  472,727
0406A:  MOVLW  3C
0406C:  MOVLB  7
0406E:  MOVWF  x28
04070:  MOVLW  08
04072:  MOVWF  x29
04074:  CLRF   x2A
04076:  MOVLW  01
04078:  MOVWF  x2B
0407A:  MOVLB  0
0407C:  RCALL  3B78
.................... } 
0407E:  RETLW  00
....................  
.................... void ActualizaRecta(){ 
....................    X[y]=Temperature; 
*
025DC:  MOVLB  7
025DE:  MOVF   x00,W
025E0:  MULLW  04
025E2:  MOVF   FF3,W
025E4:  CLRF   03
025E6:  ADDLW  62
025E8:  MOVWF  FE9
025EA:  MOVLW  06
025EC:  ADDWFC 03,W
025EE:  MOVWF  FEA
025F0:  MOVFF  698,FEF
025F4:  MOVFF  699,FEC
025F8:  MOVFF  69A,FEC
025FC:  MOVFF  69B,FEC
....................    y++; 
02600:  INCF   x00,F
....................    if(y>=2) 
02602:  MOVF   x00,W
02604:  SUBLW  01
02606:  BC    2644
....................    { 
....................       y=0; 
02608:  CLRF   x00
....................       Aumento=X[1]-X[0]; 
0260A:  BSF    FD8.1
0260C:  MOVFF  669,72F
02610:  MOVFF  668,72E
02614:  MOVFF  667,72D
02618:  MOVFF  666,72C
0261C:  MOVFF  665,733
02620:  MOVFF  664,732
02624:  MOVFF  663,731
02628:  MOVFF  662,730
0262C:  MOVLB  0
0262E:  CALL   1952
02632:  MOVFF  03,671
02636:  MOVFF  02,670
0263A:  MOVFF  01,66F
0263E:  MOVFF  00,66E
02642:  MOVLB  7
....................    } 
.................... } 
02644:  MOVLB  0
02646:  GOTO   288C (RETURN)
....................  
.................... // Funcion para conversor analogo-digital 
.................... float sensores(int x){ 
.................... float y;set_adc_channel(x);delay_ms(1);y=read_adc();return (y); 
*
02584:  MOVLB  7
02586:  RLCF   x28,W
02588:  MOVWF  00
0258A:  RLCF   00,F
0258C:  MOVLW  FC
0258E:  ANDWF  00,F
02590:  MOVFF  00,01
02594:  MOVF   FC2,W
02596:  ANDLW  C3
02598:  IORWF  00,W
0259A:  MOVWF  FC2
0259C:  MOVLW  01
0259E:  MOVWF  x2D
025A0:  MOVLB  0
025A2:  CALL   1796
025A6:  BSF    FC2.1
025A8:  BTFSC  FC2.1
025AA:  BRA    25A8
025AC:  MOVFF  FC4,72E
025B0:  MOVFF  FC3,72D
025B4:  MOVLB  0
025B6:  CALL   17BE
025BA:  MOVFF  03,72C
025BE:  MOVFF  02,72B
025C2:  MOVFF  01,72A
025C6:  MOVFF  00,729
025CA:  MOVFF  729,00
025CE:  MOVFF  72A,01
025D2:  MOVFF  72B,02
025D6:  MOVFF  72C,03
.................... } 
025DA:  RETLW  00
.................... float LeerPT100(int media) 
.................... { 
....................    Prom=0.0; 
*
02762:  MOVLB  6
02764:  CLRF   x97
02766:  CLRF   x96
02768:  CLRF   x95
0276A:  CLRF   x94
....................    V0 = sensores(0);   //Lectura de Divisor de Voltaje de PT100 con resistencia de 6.18k (+-2%) 
0276C:  MOVLB  7
0276E:  CLRF   x28
02770:  MOVLB  0
02772:  RCALL  2584
02774:  MOVFF  03,67F
02778:  MOVFF  02,67E
0277C:  MOVFF  01,67D
02780:  MOVFF  00,67C
....................    V0 = V0/Gain; // Se elimina la ganancia 
02784:  MOVFF  67F,72F
02788:  MOVFF  67E,72E
0278C:  MOVFF  67D,72D
02790:  MOVFF  67C,72C
02794:  MOVFF  659,733
02798:  MOVFF  658,732
0279C:  MOVFF  657,731
027A0:  MOVFF  656,730
027A4:  CALL   17F4
027A8:  MOVFF  03,67F
027AC:  MOVFF  02,67E
027B0:  MOVFF  01,67D
027B4:  MOVFF  00,67C
....................    Pt=(R1)/((1024.0/V0)-1.0); // Se calcula el valor de la PT100 
027B8:  MOVLB  7
027BA:  CLRF   x2F
027BC:  CLRF   x2E
027BE:  CLRF   x2D
027C0:  MOVLW  89
027C2:  MOVWF  x2C
027C4:  MOVFF  67F,733
027C8:  MOVFF  67E,732
027CC:  MOVFF  67D,731
027D0:  MOVFF  67C,730
027D4:  MOVLB  0
027D6:  CALL   17F4
027DA:  MOVFF  00,728
027DE:  MOVFF  01,729
027E2:  MOVFF  02,72A
027E6:  MOVFF  03,72B
027EA:  BSF    FD8.1
027EC:  MOVFF  03,72F
027F0:  MOVFF  02,72E
027F4:  MOVFF  01,72D
027F8:  MOVFF  00,72C
027FC:  MOVLB  7
027FE:  CLRF   x33
02800:  CLRF   x32
02802:  CLRF   x31
02804:  MOVLW  7F
02806:  MOVWF  x30
02808:  MOVLB  0
0280A:  CALL   1952
0280E:  MOVFF  683,72F
02812:  MOVFF  682,72E
02816:  MOVFF  681,72D
0281A:  MOVFF  680,72C
0281E:  MOVFF  03,733
02822:  MOVFF  02,732
02826:  MOVFF  01,731
0282A:  MOVFF  00,730
0282E:  CALL   17F4
02832:  MOVFF  03,687
02836:  MOVFF  02,686
0283A:  MOVFF  01,685
0283E:  MOVFF  00,684
....................    Pt=Pt-RPT100; //Ajuste de impedancia de cableado de PT100 
02842:  BSF    FD8.1
02844:  MOVFF  687,72F
02848:  MOVFF  686,72E
0284C:  MOVFF  685,72D
02850:  MOVFF  684,72C
02854:  MOVFF  65D,733
02858:  MOVFF  65C,732
0285C:  MOVFF  65B,731
02860:  MOVFF  65A,730
02864:  CALL   1952
02868:  MOVFF  03,687
0286C:  MOVFF  02,686
02870:  MOVFF  01,685
02874:  MOVFF  00,684
....................    //Temperature=(Pt-100.0)/(0.385);  // Ecuacin determinada por linealizacin en Matlab. Revisar este polinomio.   
....................              
....................    if(l>(media-1)) 
02878:  MOVLW  01
0287A:  MOVLB  7
0287C:  SUBWF  x27,W
0287E:  MOVLB  6
02880:  SUBWF  x77,W
02882:  BZ    288C
02884:  BNC   288C
....................    {l=0;ActualizaRecta();} 
02886:  CLRF   x77
02888:  MOVLB  0
0288A:  BRA    25DC
....................    //promedio[l]=Temperature;l++; 
....................    promedio[l]=Pt;l++; 
0288C:  MOVLB  7
0288E:  CLRF   x2C
02890:  MOVFF  677,72B
02894:  CLRF   x2E
02896:  MOVLW  04
02898:  MOVWF  x2D
0289A:  MOVLB  0
0289C:  RCALL  264A
0289E:  MOVF   01,W
028A0:  ADDLW  76
028A2:  MOVWF  FE9
028A4:  MOVLW  04
028A6:  ADDWFC 02,W
028A8:  MOVWF  FEA
028AA:  MOVFF  684,FEF
028AE:  MOVFF  685,FEC
028B2:  MOVFF  686,FEC
028B6:  MOVFF  687,FEC
028BA:  MOVLB  6
028BC:  INCF   x77,F
....................           
....................    for(h=0;h<media;h++) 
028BE:  CLRF   x76
028C0:  MOVLB  7
028C2:  MOVF   x27,W
028C4:  MOVLB  6
028C6:  SUBWF  x76,W
028C8:  BC    2948
....................    { 
....................       Prom+=promedio[h]; 
028CA:  MOVLB  7
028CC:  CLRF   x2C
028CE:  MOVFF  676,72B
028D2:  CLRF   x2E
028D4:  MOVLW  04
028D6:  MOVWF  x2D
028D8:  MOVLB  0
028DA:  RCALL  264A
028DC:  MOVFF  02,03
028E0:  MOVF   01,W
028E2:  ADDLW  76
028E4:  MOVWF  FE9
028E6:  MOVLW  04
028E8:  ADDWFC 02,W
028EA:  MOVWF  FEA
028EC:  MOVFF  FEF,00
028F0:  MOVFF  FEC,01
028F4:  MOVFF  FEC,02
028F8:  MOVFF  FEC,03
028FC:  MOVFF  FEA,729
02900:  MOVFF  FE9,728
02904:  BCF    FD8.1
02906:  MOVFF  697,72F
0290A:  MOVFF  696,72E
0290E:  MOVFF  695,72D
02912:  MOVFF  694,72C
02916:  MOVFF  03,733
0291A:  MOVFF  02,732
0291E:  MOVFF  01,731
02922:  MOVFF  00,730
02926:  CALL   1952
0292A:  MOVFF  729,FEA
0292E:  MOVFF  728,FE9
02932:  MOVFF  03,697
02936:  MOVFF  02,696
0293A:  MOVFF  01,695
0293E:  MOVFF  00,694
....................    }  
02942:  MOVLB  6
02944:  INCF   x76,F
02946:  BRA    28C0
....................    Prom=Prom/media;    
02948:  MOVLB  7
0294A:  CLRF   x2E
0294C:  MOVFF  727,72D
02950:  MOVLB  0
02952:  CALL   17BE
02956:  MOVFF  697,72F
0295A:  MOVFF  696,72E
0295E:  MOVFF  695,72D
02962:  MOVFF  694,72C
02966:  MOVFF  03,733
0296A:  MOVFF  02,732
0296E:  MOVFF  01,731
02972:  MOVFF  00,730
02976:  CALL   17F4
0297A:  MOVFF  03,697
0297E:  MOVFF  02,696
02982:  MOVFF  01,695
02986:  MOVFF  00,694
....................    //Temperature=(Prom-100.0)/(0.385);  // Ecuacin determinada por linealizacin en Matlab. Revisar este polinomio.   
....................    Temperature=((Prom*Prom)*a)+(Prom*b)+c;  // Ecuacin determinada por linealizacin en Matlab. Revisar este polinomio. 
0298A:  MOVFF  697,74B
0298E:  MOVFF  696,74A
02992:  MOVFF  695,749
02996:  MOVFF  694,748
0299A:  MOVFF  697,74F
0299E:  MOVFF  696,74E
029A2:  MOVFF  695,74D
029A6:  MOVFF  694,74C
029AA:  RCALL  266C
029AC:  MOVFF  00,728
029B0:  MOVFF  01,729
029B4:  MOVFF  02,72A
029B8:  MOVFF  03,72B
029BC:  MOVFF  03,74B
029C0:  MOVFF  02,74A
029C4:  MOVFF  01,749
029C8:  MOVFF  00,748
029CC:  MOVFF  6C7,74F
029D0:  MOVFF  6C6,74E
029D4:  MOVFF  6C5,74D
029D8:  MOVFF  6C4,74C
029DC:  RCALL  266C
029DE:  MOVFF  00,728
029E2:  MOVFF  01,729
029E6:  MOVFF  02,72A
029EA:  MOVFF  03,72B
029EE:  MOVFF  697,74B
029F2:  MOVFF  696,74A
029F6:  MOVFF  695,749
029FA:  MOVFF  694,748
029FE:  MOVFF  6CB,74F
02A02:  MOVFF  6CA,74E
02A06:  MOVFF  6C9,74D
02A0A:  MOVFF  6C8,74C
02A0E:  RCALL  266C
02A10:  BCF    FD8.1
02A12:  MOVFF  72B,72F
02A16:  MOVFF  72A,72E
02A1A:  MOVFF  729,72D
02A1E:  MOVFF  728,72C
02A22:  MOVFF  03,733
02A26:  MOVFF  02,732
02A2A:  MOVFF  01,731
02A2E:  MOVFF  00,730
02A32:  CALL   1952
02A36:  MOVFF  00,728
02A3A:  MOVFF  01,729
02A3E:  MOVFF  02,72A
02A42:  MOVFF  03,72B
02A46:  BCF    FD8.1
02A48:  MOVFF  03,72F
02A4C:  MOVFF  02,72E
02A50:  MOVFF  01,72D
02A54:  MOVFF  00,72C
02A58:  MOVFF  6CF,733
02A5C:  MOVFF  6CE,732
02A60:  MOVFF  6CD,731
02A64:  MOVFF  6CC,730
02A68:  CALL   1952
02A6C:  MOVFF  03,69B
02A70:  MOVFF  02,69A
02A74:  MOVFF  01,699
02A78:  MOVFF  00,698
....................    Temperature+=((float)Ajuste-(float)Ajusten); 
02A7C:  MOVLB  7
02A7E:  CLRF   x2E
02A80:  MOVFF  678,72D
02A84:  MOVLB  0
02A86:  CALL   17BE
02A8A:  MOVFF  00,728
02A8E:  MOVFF  01,729
02A92:  MOVFF  02,72A
02A96:  MOVFF  03,72B
02A9A:  MOVLB  7
02A9C:  CLRF   x2E
02A9E:  MOVFF  679,72D
02AA2:  MOVLB  0
02AA4:  CALL   17BE
02AA8:  BSF    FD8.1
02AAA:  MOVFF  72B,72F
02AAE:  MOVFF  72A,72E
02AB2:  MOVFF  729,72D
02AB6:  MOVFF  728,72C
02ABA:  MOVFF  03,733
02ABE:  MOVFF  02,732
02AC2:  MOVFF  01,731
02AC6:  MOVFF  00,730
02ACA:  CALL   1952
02ACE:  BCF    FD8.1
02AD0:  MOVFF  69B,72F
02AD4:  MOVFF  69A,72E
02AD8:  MOVFF  699,72D
02ADC:  MOVFF  698,72C
02AE0:  MOVFF  03,733
02AE4:  MOVFF  02,732
02AE8:  MOVFF  01,731
02AEC:  MOVFF  00,730
02AF0:  CALL   1952
02AF4:  MOVFF  03,69B
02AF8:  MOVFF  02,69A
02AFC:  MOVFF  01,699
02B00:  MOVFF  00,698
....................     
....................    //return Prom; 
....................    return Temperature; 
02B04:  MOVFF  698,00
02B08:  MOVFF  699,01
02B0C:  MOVFF  69A,02
02B10:  MOVFF  69B,03
.................... } 
02B14:  RETLW  00
....................  
.................... float Leer_Sensor_Presion_Camara(int media){ 
....................    promediopresion=0.0; 
*
03368:  MOVLB  6
0336A:  CLRF   x6D
0336C:  CLRF   x6C
0336E:  CLRF   x6B
03370:  CLRF   x6A
....................    V1 = sensores(2);   //Lectura de Divisor de Voltaje de PT100 con resistencia de 1k (+-10%) 
03372:  MOVLW  02
03374:  MOVLB  7
03376:  MOVWF  x28
03378:  MOVLB  0
0337A:  CALL   2584
0337E:  MOVFF  03,6AF
03382:  MOVFF  02,6AE
03386:  MOVFF  01,6AD
0338A:  MOVFF  00,6AC
....................    V1 = V1*(5.0/1024.0); 
0338E:  MOVFF  6AF,74B
03392:  MOVFF  6AE,74A
03396:  MOVFF  6AD,749
0339A:  MOVFF  6AC,748
0339E:  MOVLB  7
033A0:  CLRF   x4F
033A2:  CLRF   x4E
033A4:  MOVLW  20
033A6:  MOVWF  x4D
033A8:  MOVLW  77
033AA:  MOVWF  x4C
033AC:  MOVLB  0
033AE:  CALL   266C
033B2:  MOVFF  03,6AF
033B6:  MOVFF  02,6AE
033BA:  MOVFF  01,6AD
033BE:  MOVFF  00,6AC
....................    Presion=(V1-0.2)/(K); 
033C2:  BSF    FD8.1
033C4:  MOVFF  6AF,72F
033C8:  MOVFF  6AE,72E
033CC:  MOVFF  6AD,72D
033D0:  MOVFF  6AC,72C
033D4:  MOVLW  CD
033D6:  MOVLB  7
033D8:  MOVWF  x33
033DA:  MOVLW  CC
033DC:  MOVWF  x32
033DE:  MOVLW  4C
033E0:  MOVWF  x31
033E2:  MOVLW  7C
033E4:  MOVWF  x30
033E6:  MOVLB  0
033E8:  CALL   1952
033EC:  MOVFF  00,728
033F0:  MOVFF  01,729
033F4:  MOVFF  02,72A
033F8:  MOVFF  03,72B
033FC:  MOVFF  03,72F
03400:  MOVFF  02,72E
03404:  MOVFF  01,72D
03408:  MOVFF  00,72C
0340C:  MOVFF  6C3,733
03410:  MOVFF  6C2,732
03414:  MOVFF  6C1,731
03418:  MOVFF  6C0,730
0341C:  CALL   17F4
03420:  MOVFF  03,6B3
03424:  MOVFF  02,6B2
03428:  MOVFF  01,6B1
0342C:  MOVFF  00,6B0
....................     
....................    if(Presion<0.0) 
03430:  MOVFF  6B3,72B
03434:  MOVFF  6B2,72A
03438:  MOVFF  6B1,729
0343C:  MOVFF  6B0,728
03440:  MOVLB  7
03442:  CLRF   x2F
03444:  CLRF   x2E
03446:  CLRF   x2D
03448:  CLRF   x2C
0344A:  MOVLB  0
0344C:  CALL   1BCA
03450:  BNC   345C
....................    { 
....................       Presion=0.0; 
03452:  MOVLB  6
03454:  CLRF   xB3
03456:  CLRF   xB2
03458:  CLRF   xB1
0345A:  CLRF   xB0
....................    } 
....................     
....................    if(r>media-1) 
0345C:  MOVLW  01
0345E:  MOVLB  7
03460:  SUBWF  x27,W
03462:  MOVLB  6
03464:  SUBWF  xFB,W
03466:  BZ    346C
03468:  BNC   346C
....................    {r=0;} 
0346A:  CLRF   xFB
....................    PromPresion[r]=Presion;r++; 
0346C:  MOVF   xFB,W
0346E:  MULLW  04
03470:  MOVF   FF3,W
03472:  CLRF   03
03474:  ADDLW  B6
03476:  MOVWF  FE9
03478:  MOVLW  05
0347A:  ADDWFC 03,W
0347C:  MOVWF  FEA
0347E:  MOVFF  6B0,FEF
03482:  MOVFF  6B1,FEC
03486:  MOVFF  6B2,FEC
0348A:  MOVFF  6B3,FEC
0348E:  INCF   xFB,F
....................           
....................    for(t=0;t<=(media-1);t++) 
03490:  CLRF   xFC
03492:  MOVLW  01
03494:  MOVLB  7
03496:  SUBWF  x27,W
03498:  MOVLB  6
0349A:  SUBWF  xFC,W
0349C:  BZ    34A0
0349E:  BC    3510
....................    { 
....................       promediopresion+=PromPresion[t]; 
034A0:  MOVF   xFC,W
034A2:  MULLW  04
034A4:  MOVF   FF3,W
034A6:  CLRF   03
034A8:  ADDLW  B6
034AA:  MOVWF  FE9
034AC:  MOVLW  05
034AE:  ADDWFC 03,W
034B0:  MOVWF  FEA
034B2:  MOVFF  FEF,00
034B6:  MOVFF  FEC,01
034BA:  MOVFF  FEC,02
034BE:  MOVFF  FEC,03
034C2:  MOVFF  FEA,729
034C6:  MOVFF  FE9,728
034CA:  BCF    FD8.1
034CC:  MOVFF  66D,72F
034D0:  MOVFF  66C,72E
034D4:  MOVFF  66B,72D
034D8:  MOVFF  66A,72C
034DC:  MOVFF  03,733
034E0:  MOVFF  02,732
034E4:  MOVFF  01,731
034E8:  MOVFF  00,730
034EC:  MOVLB  0
034EE:  CALL   1952
034F2:  MOVFF  729,FEA
034F6:  MOVFF  728,FE9
034FA:  MOVFF  03,66D
034FE:  MOVFF  02,66C
03502:  MOVFF  01,66B
03506:  MOVFF  00,66A
....................    }  
0350A:  MOVLB  6
0350C:  INCF   xFC,F
0350E:  BRA    3492
....................    promediopresion=promediopresion/media;    
03510:  MOVLB  7
03512:  CLRF   x2E
03514:  MOVFF  727,72D
03518:  MOVLB  0
0351A:  CALL   17BE
0351E:  MOVFF  66D,72F
03522:  MOVFF  66C,72E
03526:  MOVFF  66B,72D
0352A:  MOVFF  66A,72C
0352E:  MOVFF  03,733
03532:  MOVFF  02,732
03536:  MOVFF  01,731
0353A:  MOVFF  00,730
0353E:  CALL   17F4
03542:  MOVFF  03,66D
03546:  MOVFF  02,66C
0354A:  MOVFF  01,66B
0354E:  MOVFF  00,66A
....................     
....................    return promediopresion; 
03552:  MOVFF  66A,00
03556:  MOVFF  66B,01
0355A:  MOVFF  66C,02
0355E:  MOVFF  66D,03
.................... } 
03562:  GOTO   5D3E (RETURN)
....................  
.................... float Leer_Sensor_Presion_PreCamara(int media){ 
....................    promediopresionp=0.0; 
03566:  MOVLB  6
03568:  CLRF   x75
0356A:  CLRF   x74
0356C:  CLRF   x73
0356E:  CLRF   x72
....................    V2 = sensores(3);   //Lectura de Divisor de Voltaje de PT100 con resistencia de 1k (+-10%) 
03570:  MOVLW  03
03572:  MOVLB  7
03574:  MOVWF  x28
03576:  MOVLB  0
03578:  CALL   2584
0357C:  MOVFF  03,6B7
03580:  MOVFF  02,6B6
03584:  MOVFF  01,6B5
03588:  MOVFF  00,6B4
....................    V2 = V2*(5.0/1024.0); 
0358C:  MOVFF  6B7,74B
03590:  MOVFF  6B6,74A
03594:  MOVFF  6B5,749
03598:  MOVFF  6B4,748
0359C:  MOVLB  7
0359E:  CLRF   x4F
035A0:  CLRF   x4E
035A2:  MOVLW  20
035A4:  MOVWF  x4D
035A6:  MOVLW  77
035A8:  MOVWF  x4C
035AA:  MOVLB  0
035AC:  CALL   266C
035B0:  MOVFF  03,6B7
035B4:  MOVFF  02,6B6
035B8:  MOVFF  01,6B5
035BC:  MOVFF  00,6B4
....................    Presionp=(V2-0.2)/(K); 
035C0:  BSF    FD8.1
035C2:  MOVFF  6B7,72F
035C6:  MOVFF  6B6,72E
035CA:  MOVFF  6B5,72D
035CE:  MOVFF  6B4,72C
035D2:  MOVLW  CD
035D4:  MOVLB  7
035D6:  MOVWF  x33
035D8:  MOVLW  CC
035DA:  MOVWF  x32
035DC:  MOVLW  4C
035DE:  MOVWF  x31
035E0:  MOVLW  7C
035E2:  MOVWF  x30
035E4:  MOVLB  0
035E6:  CALL   1952
035EA:  MOVFF  00,728
035EE:  MOVFF  01,729
035F2:  MOVFF  02,72A
035F6:  MOVFF  03,72B
035FA:  MOVFF  03,72F
035FE:  MOVFF  02,72E
03602:  MOVFF  01,72D
03606:  MOVFF  00,72C
0360A:  MOVFF  6C3,733
0360E:  MOVFF  6C2,732
03612:  MOVFF  6C1,731
03616:  MOVFF  6C0,730
0361A:  CALL   17F4
0361E:  MOVFF  03,6BB
03622:  MOVFF  02,6BA
03626:  MOVFF  01,6B9
0362A:  MOVFF  00,6B8
....................     
....................    if(Presionp<0.0) 
0362E:  MOVFF  6BB,72B
03632:  MOVFF  6BA,72A
03636:  MOVFF  6B9,729
0363A:  MOVFF  6B8,728
0363E:  MOVLB  7
03640:  CLRF   x2F
03642:  CLRF   x2E
03644:  CLRF   x2D
03646:  CLRF   x2C
03648:  MOVLB  0
0364A:  CALL   1BCA
0364E:  BNC   365A
....................    { 
....................       Presionp=0.0; 
03650:  MOVLB  6
03652:  CLRF   xBB
03654:  CLRF   xBA
03656:  CLRF   xB9
03658:  CLRF   xB8
....................    } 
....................     
....................    if(r2>media-1) 
0365A:  MOVLW  01
0365C:  MOVLB  7
0365E:  SUBWF  x27,W
03660:  MOVLB  6
03662:  SUBWF  xFD,W
03664:  BZ    366A
03666:  BNC   366A
....................    {r2=0;} 
03668:  CLRF   xFD
....................    PromPresionp[r2]=Presionp;r2++; 
0366A:  MOVF   xFD,W
0366C:  MULLW  04
0366E:  MOVF   FF3,W
03670:  CLRF   03
03672:  ADDLW  06
03674:  MOVWF  FE9
03676:  MOVLW  06
03678:  ADDWFC 03,W
0367A:  MOVWF  FEA
0367C:  MOVFF  6B8,FEF
03680:  MOVFF  6B9,FEC
03684:  MOVFF  6BA,FEC
03688:  MOVFF  6BB,FEC
0368C:  INCF   xFD,F
....................           
....................    for(t2=0;t2<=(media-1);t2++) 
0368E:  CLRF   xFE
03690:  MOVLW  01
03692:  MOVLB  7
03694:  SUBWF  x27,W
03696:  MOVLB  6
03698:  SUBWF  xFE,W
0369A:  BZ    369E
0369C:  BC    370E
....................    { 
....................       promediopresionp+=PromPresionp[t2]; 
0369E:  MOVF   xFE,W
036A0:  MULLW  04
036A2:  MOVF   FF3,W
036A4:  CLRF   03
036A6:  ADDLW  06
036A8:  MOVWF  FE9
036AA:  MOVLW  06
036AC:  ADDWFC 03,W
036AE:  MOVWF  FEA
036B0:  MOVFF  FEF,00
036B4:  MOVFF  FEC,01
036B8:  MOVFF  FEC,02
036BC:  MOVFF  FEC,03
036C0:  MOVFF  FEA,729
036C4:  MOVFF  FE9,728
036C8:  BCF    FD8.1
036CA:  MOVFF  675,72F
036CE:  MOVFF  674,72E
036D2:  MOVFF  673,72D
036D6:  MOVFF  672,72C
036DA:  MOVFF  03,733
036DE:  MOVFF  02,732
036E2:  MOVFF  01,731
036E6:  MOVFF  00,730
036EA:  MOVLB  0
036EC:  CALL   1952
036F0:  MOVFF  729,FEA
036F4:  MOVFF  728,FE9
036F8:  MOVFF  03,675
036FC:  MOVFF  02,674
03700:  MOVFF  01,673
03704:  MOVFF  00,672
....................    }  
03708:  MOVLB  6
0370A:  INCF   xFE,F
0370C:  BRA    3690
....................    promediopresionp=promediopresionp/media;    
0370E:  MOVLB  7
03710:  CLRF   x2E
03712:  MOVFF  727,72D
03716:  MOVLB  0
03718:  CALL   17BE
0371C:  MOVFF  675,72F
03720:  MOVFF  674,72E
03724:  MOVFF  673,72D
03728:  MOVFF  672,72C
0372C:  MOVFF  03,733
03730:  MOVFF  02,732
03734:  MOVFF  01,731
03738:  MOVFF  00,730
0373C:  CALL   17F4
03740:  MOVFF  03,675
03744:  MOVFF  02,674
03748:  MOVFF  01,673
0374C:  MOVFF  00,672
....................     
....................    return promediopresionp; 
03750:  MOVFF  672,00
03754:  MOVFF  673,01
03758:  MOVFF  674,02
0375C:  MOVFF  675,03
.................... } 
03760:  GOTO   5D66 (RETURN)
....................  
.................... void Controla(){ 
.................... //-------------------------------Control de Calentamiento------------------------------------------------------------//          
....................    error=desvio+Setpoint-Temperatura;      // Clculo del error ****** 
*
04146:  MOVLB  7
04148:  CLRF   x2E
0414A:  MOVFF  6DD,72D
0414E:  MOVLB  0
04150:  CALL   17BE
04154:  BCF    FD8.1
04156:  MOVFF  6AB,72F
0415A:  MOVFF  6AA,72E
0415E:  MOVFF  6A9,72D
04162:  MOVFF  6A8,72C
04166:  MOVFF  03,733
0416A:  MOVFF  02,732
0416E:  MOVFF  01,731
04172:  MOVFF  00,730
04176:  CALL   1952
0417A:  MOVFF  00,727
0417E:  MOVFF  01,728
04182:  MOVFF  02,729
04186:  MOVFF  03,72A
0418A:  BSF    FD8.1
0418C:  MOVFF  03,72F
04190:  MOVFF  02,72E
04194:  MOVFF  01,72D
04198:  MOVFF  00,72C
0419C:  MOVFF  6BF,733
041A0:  MOVFF  6BE,732
041A4:  MOVFF  6BD,731
041A8:  MOVFF  6BC,730
041AC:  CALL   1952
041B0:  MOVFF  03,693
041B4:  MOVFF  02,692
041B8:  MOVFF  01,691
041BC:  MOVFF  00,690
....................     
....................    if(error>0.9 && error<15 && Aumento<0.3) 
041C0:  MOVLW  66
041C2:  MOVLB  7
041C4:  MOVWF  x2B
041C6:  MOVWF  x2A
041C8:  MOVWF  x29
041CA:  MOVLW  7E
041CC:  MOVWF  x28
041CE:  MOVFF  693,72F
041D2:  MOVFF  692,72E
041D6:  MOVFF  691,72D
041DA:  MOVFF  690,72C
041DE:  MOVLB  0
041E0:  CALL   1BCA
041E4:  BNC   42AA
041E6:  MOVFF  693,72B
041EA:  MOVFF  692,72A
041EE:  MOVFF  691,729
041F2:  MOVFF  690,728
041F6:  MOVLB  7
041F8:  CLRF   x2F
041FA:  CLRF   x2E
041FC:  MOVLW  70
041FE:  MOVWF  x2D
04200:  MOVLW  82
04202:  MOVWF  x2C
04204:  MOVLB  0
04206:  CALL   1BCA
0420A:  BNC   42AA
0420C:  MOVFF  671,72B
04210:  MOVFF  670,72A
04214:  MOVFF  66F,729
04218:  MOVFF  66E,728
0421C:  MOVLW  9A
0421E:  MOVLB  7
04220:  MOVWF  x2F
04222:  MOVLW  99
04224:  MOVWF  x2E
04226:  MOVLW  19
04228:  MOVWF  x2D
0422A:  MOVLW  7D
0422C:  MOVWF  x2C
0422E:  MOVLB  0
04230:  CALL   1BCA
04234:  BNC   42AA
....................    { 
....................       if(Tpulso<9.0) 
04236:  MOVFF  68F,72B
0423A:  MOVFF  68E,72A
0423E:  MOVFF  68D,729
04242:  MOVFF  68C,728
04246:  MOVLB  7
04248:  CLRF   x2F
0424A:  CLRF   x2E
0424C:  MOVLW  10
0424E:  MOVWF  x2D
04250:  MOVLW  82
04252:  MOVWF  x2C
04254:  MOVLB  0
04256:  CALL   1BCA
0425A:  BNC   42AA
....................       { 
....................          if(TiempoControl>=Derivativo) 
0425C:  MOVLB  6
0425E:  MOVF   xD1,W
04260:  SUBWF  xFF,W
04262:  BNC   42AC
....................          { 
....................             TiempoControl=0; 
04264:  CLRF   xFF
....................             Ganancia+=Integral; 
04266:  MOVLB  7
04268:  CLRF   x2E
0426A:  MOVFF  6D0,72D
0426E:  MOVLB  0
04270:  CALL   17BE
04274:  BCF    FD8.1
04276:  MOVFF  6A3,72F
0427A:  MOVFF  6A2,72E
0427E:  MOVFF  6A1,72D
04282:  MOVFF  6A0,72C
04286:  MOVFF  03,733
0428A:  MOVFF  02,732
0428E:  MOVFF  01,731
04292:  MOVFF  00,730
04296:  CALL   1952
0429A:  MOVFF  03,6A3
0429E:  MOVFF  02,6A2
042A2:  MOVFF  01,6A1
042A6:  MOVFF  00,6A0
042AA:  MOVLB  6
....................          } 
....................       } 
....................    } 
....................     
....................    if(error<-0.3) 
042AC:  MOVFF  693,72B
042B0:  MOVFF  692,72A
042B4:  MOVFF  691,729
042B8:  MOVFF  690,728
042BC:  MOVLW  9A
042BE:  MOVLB  7
042C0:  MOVWF  x2F
042C2:  MOVLW  99
042C4:  MOVWF  x2E
042C6:  MOVWF  x2D
042C8:  MOVLW  7D
042CA:  MOVWF  x2C
042CC:  MOVLB  0
042CE:  CALL   1BCA
042D2:  BNC   42E4
....................    { 
....................       Ganancia=Ganancia2; 
042D4:  MOVFF  6A7,6A3
042D8:  MOVFF  6A6,6A2
042DC:  MOVFF  6A5,6A1
042E0:  MOVFF  6A4,6A0
....................    } 
....................     
....................    if(Ganancia<1) 
042E4:  MOVFF  6A3,72B
042E8:  MOVFF  6A2,72A
042EC:  MOVFF  6A1,729
042F0:  MOVFF  6A0,728
042F4:  MOVLB  7
042F6:  CLRF   x2F
042F8:  CLRF   x2E
042FA:  CLRF   x2D
042FC:  MOVLW  7F
042FE:  MOVWF  x2C
04300:  MOVLB  0
04302:  CALL   1BCA
04306:  BNC   4314
....................    { 
....................       Ganancia=1; 
04308:  MOVLB  6
0430A:  CLRF   xA3
0430C:  CLRF   xA2
0430E:  CLRF   xA1
04310:  MOVLW  7F
04312:  MOVWF  xA0
....................    } 
....................     
....................    if(error<0.0)     // Anti Wind_DOWN     
04314:  MOVFF  693,72B
04318:  MOVFF  692,72A
0431C:  MOVFF  691,729
04320:  MOVFF  690,728
04324:  MOVLB  7
04326:  CLRF   x2F
04328:  CLRF   x2E
0432A:  CLRF   x2D
0432C:  CLRF   x2C
0432E:  MOVLB  0
04330:  CALL   1BCA
04334:  BNC   4342
....................    { 
....................       error=0.0; 
04336:  MOVLB  6
04338:  CLRF   x93
0433A:  CLRF   x92
0433C:  CLRF   x91
0433E:  CLRF   x90
04340:  MOVLB  0
....................    } 
....................    //tmp=(Setpoint-Prom)*Ganancia;  // Control Proporcional. 
....................    tmp=error*Ganancia;  // Control Proporcional. 
04342:  MOVFF  693,74B
04346:  MOVFF  692,74A
0434A:  MOVFF  691,749
0434E:  MOVFF  690,748
04352:  MOVFF  6A3,74F
04356:  MOVFF  6A2,74E
0435A:  MOVFF  6A1,74D
0435E:  MOVFF  6A0,74C
04362:  CALL   266C
04366:  MOVFF  03,69F
0436A:  MOVFF  02,69E
0436E:  MOVFF  01,69D
04372:  MOVFF  00,69C
....................           
....................    if(tmp>Setpoint)   // Anti Wind-UP       
04376:  MOVLB  7
04378:  CLRF   x2E
0437A:  MOVFF  6DD,72D
0437E:  MOVLB  0
04380:  CALL   17BE
04384:  MOVFF  03,72B
04388:  MOVFF  02,72A
0438C:  MOVFF  01,729
04390:  MOVFF  00,728
04394:  MOVFF  69F,72F
04398:  MOVFF  69E,72E
0439C:  MOVFF  69D,72D
043A0:  MOVFF  69C,72C
043A4:  CALL   1BCA
043A8:  BNC   43C8
....................    { 
....................       tmp=Setpoint; 
043AA:  MOVLB  7
043AC:  CLRF   x2E
043AE:  MOVFF  6DD,72D
043B2:  MOVLB  0
043B4:  CALL   17BE
043B8:  MOVFF  03,69F
043BC:  MOVFF  02,69E
043C0:  MOVFF  01,69D
043C4:  MOVFF  00,69C
....................    } 
....................                 
....................    if(tmp<0.0)     // Anti Wind_DOWN     
043C8:  MOVFF  69F,72B
043CC:  MOVFF  69E,72A
043D0:  MOVFF  69D,729
043D4:  MOVFF  69C,728
043D8:  MOVLB  7
043DA:  CLRF   x2F
043DC:  CLRF   x2E
043DE:  CLRF   x2D
043E0:  CLRF   x2C
043E2:  MOVLB  0
043E4:  CALL   1BCA
043E8:  BNC   43F4
....................    { 
....................       tmp=0.0; 
043EA:  MOVLB  6
043EC:  CLRF   x9F
043EE:  CLRF   x9E
043F0:  CLRF   x9D
043F2:  CLRF   x9C
....................    } 
....................     
....................    // Tpulso(t)= Tciclo*(y(t)-ymin)/(ymax - ymin); calculo de ciclo util para control de resistencia.ymax=140.ymin=0; 
....................    // Tpulso es float, hay que pasar ese ciclo a una salida de un puerto usando el TMR1. 
....................    Tpulso=(tmp/Setpoint)*Tciclo;   
043F4:  MOVLB  7
043F6:  CLRF   x2E
043F8:  MOVFF  6DD,72D
043FC:  MOVLB  0
043FE:  CALL   17BE
04402:  MOVFF  69F,72F
04406:  MOVFF  69E,72E
0440A:  MOVFF  69D,72D
0440E:  MOVFF  69C,72C
04412:  MOVFF  03,733
04416:  MOVFF  02,732
0441A:  MOVFF  01,731
0441E:  MOVFF  00,730
04422:  CALL   17F4
04426:  MOVFF  00,727
0442A:  MOVFF  01,728
0442E:  MOVFF  02,729
04432:  MOVFF  03,72A
04436:  MOVFF  03,74B
0443A:  MOVFF  02,74A
0443E:  MOVFF  01,749
04442:  MOVFF  00,748
04446:  MOVFF  68B,74F
0444A:  MOVFF  68A,74E
0444E:  MOVFF  689,74D
04452:  MOVFF  688,74C
04456:  CALL   266C
0445A:  MOVFF  03,68F
0445E:  MOVFF  02,68E
04462:  MOVFF  01,68D
04466:  MOVFF  00,68C
....................                                        
....................    if(tiempoctrl<=(int16)(Tpulso/0.005)) // Si el tiempo es menor o igual al tiempo de control se enciende la resistencia de lo contrario se apaga. 
0446A:  MOVFF  68F,72F
0446E:  MOVFF  68E,72E
04472:  MOVFF  68D,72D
04476:  MOVFF  68C,72C
0447A:  MOVLW  0A
0447C:  MOVLB  7
0447E:  MOVWF  x33
04480:  MOVLW  D7
04482:  MOVWF  x32
04484:  MOVLW  23
04486:  MOVWF  x31
04488:  MOVLW  77
0448A:  MOVWF  x30
0448C:  MOVLB  0
0448E:  CALL   17F4
04492:  MOVFF  03,72A
04496:  MOVFF  02,729
0449A:  MOVFF  01,728
0449E:  MOVFF  00,727
044A2:  CALL   2B16
044A6:  MOVFF  02,03
044AA:  MOVF   01,W
044AC:  MOVLB  6
044AE:  MOVF   xE6,W
044B0:  SUBWF  02,W
044B2:  BNC   44C2
044B4:  BNZ   44BC
044B6:  MOVF   xE5,W
044B8:  SUBWF  01,W
044BA:  BNC   44C2
....................    { 
....................       SSR_on; 
044BC:  BCF    F8B.2
044BE:  BCF    F94.2
....................    } 
....................    else          
044C0:  BRA    44C6
....................    { 
....................       SSR_off; 
044C2:  BSF    F8B.2
044C4:  BCF    F94.2
....................    } 
....................           
....................    if(tiempoctrl>=(int16)(Tciclo/0.005)) // Si el tiempo de control es mayor al tiempo de ciclo se reinicia tiempo de control 
044C6:  MOVFF  68B,72F
044CA:  MOVFF  68A,72E
044CE:  MOVFF  689,72D
044D2:  MOVFF  688,72C
044D6:  MOVLW  0A
044D8:  MOVLB  7
044DA:  MOVWF  x33
044DC:  MOVLW  D7
044DE:  MOVWF  x32
044E0:  MOVLW  23
044E2:  MOVWF  x31
044E4:  MOVLW  77
044E6:  MOVWF  x30
044E8:  MOVLB  0
044EA:  CALL   17F4
044EE:  MOVFF  03,72A
044F2:  MOVFF  02,729
044F6:  MOVFF  01,728
044FA:  MOVFF  00,727
044FE:  CALL   2B16
04502:  MOVF   02,W
04504:  MOVWF  03
04506:  MOVLB  6
04508:  SUBWF  xE6,W
0450A:  BNC   4518
0450C:  BNZ   4514
0450E:  MOVF   01,W
04510:  SUBWF  xE5,W
04512:  BNC   4518
....................    { 
....................       tiempoctrl=0; 
04514:  CLRF   xE6
04516:  CLRF   xE5
....................    } // tiempoctrl incrementa una unidad cada 5ms, por eso se dividen los tiempos por 0.005. 
.................... //--------------------------------------------------------------------------------------------------------------------//    
.................... } 
04518:  MOVLB  0
0451A:  RETLW  00
....................  
.................... void Envio_I2C(direccion, posicion, dato){ 
....................  
....................    i2c_start();            // Comienzo comunicacin 
*
02CE6:  BSF    F94.4
02CE8:  MOVLW  05
02CEA:  MOVWF  00
02CEC:  DECFSZ 00,F
02CEE:  BRA    2CEC
02CF0:  BSF    F94.3
02CF2:  MOVLW  06
02CF4:  MOVWF  00
02CF6:  DECFSZ 00,F
02CF8:  BRA    2CF6
02CFA:  BCF    F8B.4
02CFC:  BCF    F94.4
02CFE:  MOVLW  05
02D00:  MOVWF  00
02D02:  DECFSZ 00,F
02D04:  BRA    2D02
02D06:  BCF    F8B.3
02D08:  BCF    F94.3
....................    i2c_write(direccion);   // Direccin del esclavo en el bus I2C 
02D0A:  MOVFF  728,72B
02D0E:  RCALL  2C70
....................    i2c_write(posicion);    // Posicin donde se guardara el dato transmitido 
02D10:  MOVFF  729,72B
02D14:  RCALL  2C70
....................    i2c_write(dato);        // Dato a transmitir 
02D16:  MOVFF  72A,72B
02D1A:  RCALL  2C70
....................    i2c_stop();             // Fin comunicacin 
02D1C:  BCF    F94.4
02D1E:  NOP   
02D20:  BSF    F94.3
02D22:  BTFSS  F82.3
02D24:  BRA    2D22
02D26:  MOVLW  05
02D28:  MOVWF  00
02D2A:  DECFSZ 00,F
02D2C:  BRA    2D2A
02D2E:  BRA    2D30
02D30:  NOP   
02D32:  BSF    F94.4
02D34:  MOVLW  05
02D36:  MOVWF  00
02D38:  DECFSZ 00,F
02D3A:  BRA    2D38
....................  } 
02D3C:  GOTO   2D76 (RETURN)
....................  
.................... void Lectura_I2C (byte direccion, byte posicion, byte &dato) { 
....................  
....................    i2c_start();            // Comienzo de la comunicacin 
*
032BA:  BSF    F94.4
032BC:  MOVLW  05
032BE:  MOVWF  00
032C0:  DECFSZ 00,F
032C2:  BRA    32C0
032C4:  BSF    F94.3
032C6:  MOVLW  06
032C8:  MOVWF  00
032CA:  DECFSZ 00,F
032CC:  BRA    32CA
032CE:  BCF    F8B.4
032D0:  BCF    F94.4
032D2:  MOVLW  05
032D4:  MOVWF  00
032D6:  DECFSZ 00,F
032D8:  BRA    32D6
032DA:  BCF    F8B.3
032DC:  BCF    F94.3
....................    i2c_write(direccion);   // Direccin del esclavo en el bus I2C 
032DE:  MOVFF  727,72B
032E2:  MOVLB  0
032E4:  RCALL  2C70
....................    i2c_write(posicion);    // Posicin de donde se leer el dato en el esclavo 
032E6:  MOVFF  728,72B
032EA:  RCALL  2C70
....................    i2c_start();            // Reinicio 
032EC:  BSF    F94.4
032EE:  MOVLW  05
032F0:  MOVWF  00
032F2:  DECFSZ 00,F
032F4:  BRA    32F2
032F6:  BSF    F94.3
032F8:  MOVLW  06
032FA:  MOVWF  00
032FC:  DECFSZ 00,F
032FE:  BRA    32FC
03300:  BTFSS  F82.3
03302:  BRA    3300
03304:  BCF    F8B.4
03306:  BCF    F94.4
03308:  MOVLW  05
0330A:  MOVWF  00
0330C:  DECFSZ 00,F
0330E:  BRA    330C
03310:  BCF    F8B.3
03312:  BCF    F94.3
....................    i2c_write(direccion+1); // Direccin del esclavo en modo lectura 
03314:  MOVLW  01
03316:  MOVLB  7
03318:  ADDWF  x27,W
0331A:  MOVWF  x29
0331C:  MOVWF  x2B
0331E:  MOVLB  0
03320:  RCALL  2C70
....................    dato=i2c_read(0);       // Lectura del dato 
03322:  CLRF   00
03324:  BRA    2D80
03326:  MOVFF  01,457
....................    i2c_stop();             // Fin comunicacin 
0332A:  BCF    F94.4
0332C:  NOP   
0332E:  BSF    F94.3
03330:  BTFSS  F82.3
03332:  BRA    3330
03334:  MOVLW  05
03336:  MOVWF  00
03338:  DECFSZ 00,F
0333A:  BRA    3338
0333C:  BRA    333E
0333E:  NOP   
03340:  BSF    F94.4
03342:  MOVLW  05
03344:  MOVWF  00
03346:  DECFSZ 00,F
03348:  BRA    3346
.................... } 
....................  
.................... void Carga_Vector(void){ 
....................    SlaveA0Tx[0]=(int8)Temperatura; 
*
02B52:  MOVFF  6BF,72A
02B56:  MOVFF  6BE,729
02B5A:  MOVFF  6BD,728
02B5E:  MOVFF  6BC,727
02B62:  RCALL  2B16
02B64:  MOVFF  01,437
....................    SlaveA0Tx[1]=(Temperatura-((int8)Temperatura))*10; 
02B68:  MOVFF  6BF,72A
02B6C:  MOVFF  6BE,729
02B70:  MOVFF  6BD,728
02B74:  MOVFF  6BC,727
02B78:  RCALL  2B16
02B7A:  MOVLB  7
02B7C:  CLRF   x2E
02B7E:  MOVFF  01,72D
02B82:  MOVLB  0
02B84:  CALL   17BE
02B88:  BSF    FD8.1
02B8A:  MOVFF  6BF,72F
02B8E:  MOVFF  6BE,72E
02B92:  MOVFF  6BD,72D
02B96:  MOVFF  6BC,72C
02B9A:  MOVFF  03,733
02B9E:  MOVFF  02,732
02BA2:  MOVFF  01,731
02BA6:  MOVFF  00,730
02BAA:  CALL   1952
02BAE:  MOVFF  00,727
02BB2:  MOVFF  01,728
02BB6:  MOVFF  02,729
02BBA:  MOVFF  03,72A
02BBE:  MOVFF  03,74B
02BC2:  MOVFF  02,74A
02BC6:  MOVFF  01,749
02BCA:  MOVFF  00,748
02BCE:  MOVLB  7
02BD0:  CLRF   x4F
02BD2:  CLRF   x4E
02BD4:  MOVLW  20
02BD6:  MOVWF  x4D
02BD8:  MOVLW  82
02BDA:  MOVWF  x4C
02BDC:  MOVLB  0
02BDE:  RCALL  266C
02BE0:  MOVFF  03,72A
02BE4:  MOVFF  02,729
02BE8:  MOVFF  01,728
02BEC:  MOVFF  00,727
02BF0:  RCALL  2B16
02BF2:  MOVFF  01,438
....................    SlaveA0Tx[2]=make8((int16)PresionCamara,0); 
02BF6:  MOVFF  6EB,439
02BFA:  MOVLB  4
....................    SlaveA0Tx[3]=make8((int16)PresionCamara,1); 
02BFC:  MOVFF  6EC,43A
02C00:  MOVLB  4
....................    SlaveA0Tx[4]=make8((int16)PresionPreCamara,0); 
02C02:  MOVFF  6ED,43B
02C06:  MOVLB  4
....................    SlaveA0Tx[5]=make8((int16)PresionPreCamara,1); 
02C08:  MOVFF  6EE,43C
02C0C:  MOVLB  4
....................    SlaveA0Tx[6]=(int8)Tpulso*10; 
02C0E:  MOVFF  68F,72A
02C12:  MOVFF  68E,729
02C16:  MOVFF  68D,728
02C1A:  MOVFF  68C,727
02C1E:  MOVLB  0
02C20:  RCALL  2B16
02C22:  MOVF   01,W
02C24:  MULLW  0A
02C26:  MOVFF  FF3,43D
02C2A:  MOVLB  4
....................    SlaveA0Tx[7]=HIGH; 
02C2C:  BSF    F94.0
02C2E:  CLRF   x3E
02C30:  BTFSC  F82.0
02C32:  INCF   x3E,F
....................    SlaveA0Tx[8]=LOW; 
02C34:  BSF    F94.1
02C36:  CLRF   x3F
02C38:  BTFSC  F82.1
02C3A:  INCF   x3F,F
....................    SlaveA0Tx[9]=TERM; 
02C3C:  BSF    F93.7
02C3E:  CLRF   x40
02C40:  BTFSS  F81.7
02C42:  INCF   x40,F
....................    SlaveA0Tx[10]=DOOR; 
02C44:  BSF    F96.2
02C46:  CLRF   x41
02C48:  BTFSS  F84.2
02C4A:  INCF   x41,F
....................    SlaveA0Tx[11]=STOP; 
02C4C:  BSF    F93.6
02C4E:  CLRF   x42
02C50:  BTFSS  F81.6
02C52:  INCF   x42,F
....................    SlaveA0Tx[12]=(int8)error; 
02C54:  MOVFF  693,72A
02C58:  MOVFF  692,729
02C5C:  MOVFF  691,728
02C60:  MOVFF  690,727
02C64:  MOVLB  0
02C66:  RCALL  2B16
02C68:  MOVFF  01,443
.................... } 
02C6C:  GOTO   2D42 (RETURN)
....................  
.................... void Lee_Vector(void){ 
....................    ByteConfig1=txbuf[0]; 
*
02DEC:  MOVFF  417,45A
....................    ByteConfig2=txbuf[1]; 
02DF0:  MOVFF  418,45B
....................    ByteConfig3=txbuf[2]; 
02DF4:  MOVFF  419,45C
....................     
....................    if(ByteConfig1==10 && ByteConfig2==20 && ByteConfig3==30){ 
02DF8:  MOVLB  4
02DFA:  MOVF   x5A,W
02DFC:  SUBLW  0A
02DFE:  BTFSS  FD8.2
02E00:  BRA    2F06
02E02:  MOVF   x5B,W
02E04:  SUBLW  14
02E06:  BTFSS  FD8.2
02E08:  BRA    2F06
02E0A:  MOVF   x5C,W
02E0C:  SUBLW  1E
02E0E:  BNZ   2F06
....................       Ganancia=txbuf[3]; 
02E10:  MOVLB  7
02E12:  CLRF   x2E
02E14:  MOVFF  41A,72D
02E18:  MOVLB  0
02E1A:  CALL   17BE
02E1E:  MOVFF  03,6A3
02E22:  MOVFF  02,6A2
02E26:  MOVFF  01,6A1
02E2A:  MOVFF  00,6A0
....................       Ajuste=txbuf[4]; 
02E2E:  MOVFF  41B,678
....................       Ajusten=txbuf[5]; 
02E32:  MOVFF  41C,679
....................       Desvio=txbuf[6]; 
02E36:  MOVLB  7
02E38:  CLRF   x2E
02E3A:  MOVFF  41D,72D
02E3E:  MOVLB  0
02E40:  CALL   17BE
02E44:  MOVFF  03,6AB
02E48:  MOVFF  02,6AA
02E4C:  MOVFF  01,6A9
02E50:  MOVFF  00,6A8
....................       MediaMovil=txbuf[7]; 
02E54:  MOVFF  41E,67A
....................       Tciclo=txbuf[8]; 
02E58:  MOVLB  7
02E5A:  CLRF   x2E
02E5C:  MOVFF  41F,72D
02E60:  MOVLB  0
02E62:  CALL   17BE
02E66:  MOVFF  03,68B
02E6A:  MOVFF  02,68A
02E6E:  MOVFF  01,689
02E72:  MOVFF  00,688
....................       Integral=txbuf[9]; 
02E76:  MOVFF  420,6D0
....................       Derivativo=txbuf[10]; 
02E7A:  MOVFF  421,6D1
....................       Gain=txbuf[11]+(txbuf[12]/10); 
02E7E:  MOVFF  423,73C
02E82:  MOVLW  0A
02E84:  MOVLB  7
02E86:  MOVWF  x3D
02E88:  MOVLB  0
02E8A:  CALL   23A2
02E8E:  MOVF   01,W
02E90:  MOVLB  4
02E92:  ADDWF  x22,W
02E94:  MOVLB  7
02E96:  CLRF   x2E
02E98:  MOVWF  x2D
02E9A:  MOVLB  0
02E9C:  CALL   17BE
02EA0:  MOVFF  03,659
02EA4:  MOVFF  02,658
02EA8:  MOVFF  01,657
02EAC:  MOVFF  00,656
....................       R1=make16(txbuf[14],txbuf[13]); 
02EB0:  MOVFF  425,03
02EB4:  MOVFF  424,72D
02EB8:  MOVFF  425,72E
02EBC:  MOVLB  0
02EBE:  CALL   17BE
02EC2:  MOVFF  03,683
02EC6:  MOVFF  02,682
02ECA:  MOVFF  01,681
02ECE:  MOVFF  00,680
....................       RPT100=txbuf[15]+(txbuf[16]/10); 
02ED2:  MOVFF  427,73C
02ED6:  MOVLW  0A
02ED8:  MOVLB  7
02EDA:  MOVWF  x3D
02EDC:  MOVLB  0
02EDE:  CALL   23A2
02EE2:  MOVF   01,W
02EE4:  MOVLB  4
02EE6:  ADDWF  x26,W
02EE8:  MOVLB  7
02EEA:  CLRF   x2E
02EEC:  MOVWF  x2D
02EEE:  MOVLB  0
02EF0:  CALL   17BE
02EF4:  MOVFF  03,65D
02EF8:  MOVFF  02,65C
02EFC:  MOVFF  01,65B
02F00:  MOVFF  00,65A
02F04:  MOVLB  4
....................    } 
....................     
....................    if(txbuf[17]==50){ 
02F06:  MOVF   x28,W
02F08:  SUBLW  32
02F0A:  BTFSS  FD8.2
02F0C:  BRA    3296
....................       if(!disp_Guarda){ 
02F0E:  BTFSC  x5F.2
02F10:  BRA    2FA4
....................          glcd_fillScreen(OFF);disp_Guarda=ON; 
02F12:  MOVLB  7
02F14:  CLRF   x28
02F16:  MOVLB  0
02F18:  CALL   1C7A
02F1C:  MOVLB  4
02F1E:  BSF    x5F.2
....................          strcpy(Menus.Letra,"Configuracion");displayMenu(Menus.Letra,0,10,0,2); 
02F20:  MOVLW  07
02F22:  MOVWF  FEA
02F24:  MOVLW  03
02F26:  MOVWF  FE9
02F28:  MOVFF  FF2,727
02F2C:  BCF    FF2.7
02F2E:  MOVLW  00
02F30:  MOVLB  0
02F32:  CALL   06FE
02F36:  TBLRD*-
02F38:  TBLRD*+
02F3A:  MOVF   FF5,W
02F3C:  MOVWF  FEE
02F3E:  IORLW  00
02F40:  BNZ   2F38
02F42:  MOVLB  7
02F44:  BTFSC  x27.7
02F46:  BSF    FF2.7
02F48:  MOVLW  07
02F4A:  MOVWF  x28
02F4C:  MOVLW  03
02F4E:  MOVWF  x27
02F50:  CLRF   x29
02F52:  MOVLW  0A
02F54:  MOVWF  x2A
02F56:  CLRF   x2B
02F58:  MOVLW  02
02F5A:  MOVWF  x2C
02F5C:  MOVLB  0
02F5E:  CALL   22A8
....................          strcpy(Menus.Letra,"   Guardada  ");displayMenu(Menus.Letra,0,30,0,2); 
02F62:  MOVLW  07
02F64:  MOVWF  FEA
02F66:  MOVLW  03
02F68:  MOVWF  FE9
02F6A:  MOVFF  FF2,727
02F6E:  BCF    FF2.7
02F70:  MOVLW  00
02F72:  CALL   072A
02F76:  TBLRD*-
02F78:  TBLRD*+
02F7A:  MOVF   FF5,W
02F7C:  MOVWF  FEE
02F7E:  IORLW  00
02F80:  BNZ   2F78
02F82:  MOVLB  7
02F84:  BTFSC  x27.7
02F86:  BSF    FF2.7
02F88:  MOVLW  07
02F8A:  MOVWF  x28
02F8C:  MOVLW  03
02F8E:  MOVWF  x27
02F90:  CLRF   x29
02F92:  MOVLW  1E
02F94:  MOVWF  x2A
02F96:  CLRF   x2B
02F98:  MOVLW  02
02F9A:  MOVWF  x2C
02F9C:  MOVLB  0
02F9E:  CALL   22A8
02FA2:  MOVLB  4
....................       } 
....................       write_eeprom(20,Ganancia); 
02FA4:  CLRF   FAA
02FA6:  MOVLW  14
02FA8:  MOVWF  FA9
02FAA:  MOVFF  6A0,FA8
02FAE:  BCF    FA6.6
02FB0:  BCF    FA6.7
02FB2:  BSF    FA6.2
02FB4:  MOVF   FF2,W
02FB6:  MOVWF  00
02FB8:  BCF    FF2.7
02FBA:  MOVLB  F
02FBC:  MOVLW  55
02FBE:  MOVWF  FA7
02FC0:  MOVLW  AA
02FC2:  MOVWF  FA7
02FC4:  BSF    FA6.1
02FC6:  BTFSC  FA6.1
02FC8:  BRA    2FC6
02FCA:  BCF    FA6.2
02FCC:  MOVF   00,W
02FCE:  IORWF  FF2,F
....................       delay_ms(10); 
02FD0:  MOVLW  0A
02FD2:  MOVLB  7
02FD4:  MOVWF  x2D
02FD6:  MOVLB  0
02FD8:  CALL   1796
....................       write_eeprom(21,(int8)Ajuste); 
02FDC:  CLRF   FAA
02FDE:  MOVLW  15
02FE0:  MOVWF  FA9
02FE2:  MOVFF  678,FA8
02FE6:  BCF    FA6.6
02FE8:  BCF    FA6.7
02FEA:  BSF    FA6.2
02FEC:  MOVF   FF2,W
02FEE:  MOVWF  00
02FF0:  BCF    FF2.7
02FF2:  MOVLB  F
02FF4:  MOVLW  55
02FF6:  MOVWF  FA7
02FF8:  MOVLW  AA
02FFA:  MOVWF  FA7
02FFC:  BSF    FA6.1
02FFE:  BTFSC  FA6.1
03000:  BRA    2FFE
03002:  BCF    FA6.2
03004:  MOVF   00,W
03006:  IORWF  FF2,F
....................       delay_ms(10); 
03008:  MOVLW  0A
0300A:  MOVLB  7
0300C:  MOVWF  x2D
0300E:  MOVLB  0
03010:  CALL   1796
....................       write_eeprom(22,(int8)Ajusten); 
03014:  CLRF   FAA
03016:  MOVLW  16
03018:  MOVWF  FA9
0301A:  MOVFF  679,FA8
0301E:  BCF    FA6.6
03020:  BCF    FA6.7
03022:  BSF    FA6.2
03024:  MOVF   FF2,W
03026:  MOVWF  00
03028:  BCF    FF2.7
0302A:  MOVLB  F
0302C:  MOVLW  55
0302E:  MOVWF  FA7
03030:  MOVLW  AA
03032:  MOVWF  FA7
03034:  BSF    FA6.1
03036:  BTFSC  FA6.1
03038:  BRA    3036
0303A:  BCF    FA6.2
0303C:  MOVF   00,W
0303E:  IORWF  FF2,F
....................       delay_ms(10); 
03040:  MOVLW  0A
03042:  MOVLB  7
03044:  MOVWF  x2D
03046:  MOVLB  0
03048:  CALL   1796
....................       //Desvio=read_eeprom(23); 
....................       write_eeprom(24,(int8)MediaMovil); 
0304C:  CLRF   FAA
0304E:  MOVLW  18
03050:  MOVWF  FA9
03052:  MOVFF  67A,FA8
03056:  BCF    FA6.6
03058:  BCF    FA6.7
0305A:  BSF    FA6.2
0305C:  MOVF   FF2,W
0305E:  MOVWF  00
03060:  BCF    FF2.7
03062:  MOVLB  F
03064:  MOVLW  55
03066:  MOVWF  FA7
03068:  MOVLW  AA
0306A:  MOVWF  FA7
0306C:  BSF    FA6.1
0306E:  BTFSC  FA6.1
03070:  BRA    306E
03072:  BCF    FA6.2
03074:  MOVF   00,W
03076:  IORWF  FF2,F
....................       delay_ms(10); 
03078:  MOVLW  0A
0307A:  MOVLB  7
0307C:  MOVWF  x2D
0307E:  MOVLB  0
03080:  CALL   1796
....................       write_eeprom(25,(int8)Tciclo); 
03084:  MOVFF  68B,72A
03088:  MOVFF  68A,729
0308C:  MOVFF  689,728
03090:  MOVFF  688,727
03094:  RCALL  2B16
03096:  MOVFF  01,727
0309A:  CLRF   FAA
0309C:  MOVLW  19
0309E:  MOVWF  FA9
030A0:  MOVFF  727,FA8
030A4:  BCF    FA6.6
030A6:  BCF    FA6.7
030A8:  BSF    FA6.2
030AA:  MOVF   FF2,W
030AC:  MOVWF  00
030AE:  BCF    FF2.7
030B0:  MOVLB  F
030B2:  MOVLW  55
030B4:  MOVWF  FA7
030B6:  MOVLW  AA
030B8:  MOVWF  FA7
030BA:  BSF    FA6.1
030BC:  BTFSC  FA6.1
030BE:  BRA    30BC
030C0:  BCF    FA6.2
030C2:  MOVF   00,W
030C4:  IORWF  FF2,F
....................       delay_ms(10); 
030C6:  MOVLW  0A
030C8:  MOVLB  7
030CA:  MOVWF  x2D
030CC:  MOVLB  0
030CE:  CALL   1796
....................       write_eeprom(26,(int8)Integral); 
030D2:  CLRF   FAA
030D4:  MOVLW  1A
030D6:  MOVWF  FA9
030D8:  MOVFF  6D0,FA8
030DC:  BCF    FA6.6
030DE:  BCF    FA6.7
030E0:  BSF    FA6.2
030E2:  MOVF   FF2,W
030E4:  MOVWF  00
030E6:  BCF    FF2.7
030E8:  MOVLB  F
030EA:  MOVLW  55
030EC:  MOVWF  FA7
030EE:  MOVLW  AA
030F0:  MOVWF  FA7
030F2:  BSF    FA6.1
030F4:  BTFSC  FA6.1
030F6:  BRA    30F4
030F8:  BCF    FA6.2
030FA:  MOVF   00,W
030FC:  IORWF  FF2,F
....................       delay_ms(10); 
030FE:  MOVLW  0A
03100:  MOVLB  7
03102:  MOVWF  x2D
03104:  MOVLB  0
03106:  CALL   1796
....................       write_eeprom(27,(int8)Derivativo); 
0310A:  CLRF   FAA
0310C:  MOVLW  1B
0310E:  MOVWF  FA9
03110:  MOVFF  6D1,FA8
03114:  BCF    FA6.6
03116:  BCF    FA6.7
03118:  BSF    FA6.2
0311A:  MOVF   FF2,W
0311C:  MOVWF  00
0311E:  BCF    FF2.7
03120:  MOVLB  F
03122:  MOVLW  55
03124:  MOVWF  FA7
03126:  MOVLW  AA
03128:  MOVWF  FA7
0312A:  BSF    FA6.1
0312C:  BTFSC  FA6.1
0312E:  BRA    312C
03130:  BCF    FA6.2
03132:  MOVF   00,W
03134:  IORWF  FF2,F
....................       delay_ms(10); 
03136:  MOVLW  0A
03138:  MOVLB  7
0313A:  MOVWF  x2D
0313C:  MOVLB  0
0313E:  CALL   1796
....................       write_eeprom(28,(int8)txbuf[11]); 
03142:  CLRF   FAA
03144:  MOVLW  1C
03146:  MOVWF  FA9
03148:  MOVFF  422,FA8
0314C:  BCF    FA6.6
0314E:  BCF    FA6.7
03150:  BSF    FA6.2
03152:  MOVF   FF2,W
03154:  MOVWF  00
03156:  BCF    FF2.7
03158:  MOVLB  F
0315A:  MOVLW  55
0315C:  MOVWF  FA7
0315E:  MOVLW  AA
03160:  MOVWF  FA7
03162:  BSF    FA6.1
03164:  BTFSC  FA6.1
03166:  BRA    3164
03168:  BCF    FA6.2
0316A:  MOVF   00,W
0316C:  IORWF  FF2,F
....................       delay_ms(10); 
0316E:  MOVLW  0A
03170:  MOVLB  7
03172:  MOVWF  x2D
03174:  MOVLB  0
03176:  CALL   1796
....................       write_eeprom(29,(int8)txbuf[12]); 
0317A:  CLRF   FAA
0317C:  MOVLW  1D
0317E:  MOVWF  FA9
03180:  MOVFF  423,FA8
03184:  BCF    FA6.6
03186:  BCF    FA6.7
03188:  BSF    FA6.2
0318A:  MOVF   FF2,W
0318C:  MOVWF  00
0318E:  BCF    FF2.7
03190:  MOVLB  F
03192:  MOVLW  55
03194:  MOVWF  FA7
03196:  MOVLW  AA
03198:  MOVWF  FA7
0319A:  BSF    FA6.1
0319C:  BTFSC  FA6.1
0319E:  BRA    319C
031A0:  BCF    FA6.2
031A2:  MOVF   00,W
031A4:  IORWF  FF2,F
....................       delay_ms(10); 
031A6:  MOVLW  0A
031A8:  MOVLB  7
031AA:  MOVWF  x2D
031AC:  MOVLB  0
031AE:  CALL   1796
....................       write_eeprom(30,(int8)txbuf[13]); 
031B2:  CLRF   FAA
031B4:  MOVLW  1E
031B6:  MOVWF  FA9
031B8:  MOVFF  424,FA8
031BC:  BCF    FA6.6
031BE:  BCF    FA6.7
031C0:  BSF    FA6.2
031C2:  MOVF   FF2,W
031C4:  MOVWF  00
031C6:  BCF    FF2.7
031C8:  MOVLB  F
031CA:  MOVLW  55
031CC:  MOVWF  FA7
031CE:  MOVLW  AA
031D0:  MOVWF  FA7
031D2:  BSF    FA6.1
031D4:  BTFSC  FA6.1
031D6:  BRA    31D4
031D8:  BCF    FA6.2
031DA:  MOVF   00,W
031DC:  IORWF  FF2,F
....................       delay_ms(10); 
031DE:  MOVLW  0A
031E0:  MOVLB  7
031E2:  MOVWF  x2D
031E4:  MOVLB  0
031E6:  CALL   1796
....................       write_eeprom(31,(int8)txbuf[14]); 
031EA:  CLRF   FAA
031EC:  MOVLW  1F
031EE:  MOVWF  FA9
031F0:  MOVFF  425,FA8
031F4:  BCF    FA6.6
031F6:  BCF    FA6.7
031F8:  BSF    FA6.2
031FA:  MOVF   FF2,W
031FC:  MOVWF  00
031FE:  BCF    FF2.7
03200:  MOVLB  F
03202:  MOVLW  55
03204:  MOVWF  FA7
03206:  MOVLW  AA
03208:  MOVWF  FA7
0320A:  BSF    FA6.1
0320C:  BTFSC  FA6.1
0320E:  BRA    320C
03210:  BCF    FA6.2
03212:  MOVF   00,W
03214:  IORWF  FF2,F
....................       delay_ms(10); 
03216:  MOVLW  0A
03218:  MOVLB  7
0321A:  MOVWF  x2D
0321C:  MOVLB  0
0321E:  CALL   1796
....................       write_eeprom(32,(int8)txbuf[15]); 
03222:  CLRF   FAA
03224:  MOVLW  20
03226:  MOVWF  FA9
03228:  MOVFF  426,FA8
0322C:  BCF    FA6.6
0322E:  BCF    FA6.7
03230:  BSF    FA6.2
03232:  MOVF   FF2,W
03234:  MOVWF  00
03236:  BCF    FF2.7
03238:  MOVLB  F
0323A:  MOVLW  55
0323C:  MOVWF  FA7
0323E:  MOVLW  AA
03240:  MOVWF  FA7
03242:  BSF    FA6.1
03244:  BTFSC  FA6.1
03246:  BRA    3244
03248:  BCF    FA6.2
0324A:  MOVF   00,W
0324C:  IORWF  FF2,F
....................       delay_ms(10); 
0324E:  MOVLW  0A
03250:  MOVLB  7
03252:  MOVWF  x2D
03254:  MOVLB  0
03256:  CALL   1796
....................       write_eeprom(33,(int8)txbuf[16]); 
0325A:  CLRF   FAA
0325C:  MOVLW  21
0325E:  MOVWF  FA9
03260:  MOVFF  427,FA8
03264:  BCF    FA6.6
03266:  BCF    FA6.7
03268:  BSF    FA6.2
0326A:  MOVF   FF2,W
0326C:  MOVWF  00
0326E:  BCF    FF2.7
03270:  MOVLB  F
03272:  MOVLW  55
03274:  MOVWF  FA7
03276:  MOVLW  AA
03278:  MOVWF  FA7
0327A:  BSF    FA6.1
0327C:  BTFSC  FA6.1
0327E:  BRA    327C
03280:  BCF    FA6.2
03282:  MOVF   00,W
03284:  IORWF  FF2,F
....................       delay_ms(10); 
03286:  MOVLW  0A
03288:  MOVLB  7
0328A:  MOVWF  x2D
0328C:  MOVLB  0
0328E:  CALL   1796
....................    }else{ 
03292:  BRA    3298
03294:  MOVLB  4
....................       disp_Guarda=OFF; 
03296:  BCF    x5F.2
03298:  MOVLB  0
....................    } 
.................... } 
0329A:  GOTO   3366 (RETURN)
....................  
.................... void Envio_Esclavos(void){ 
....................    Carga_Vector(); 
*
02D40:  BRA    2B52
....................    for(i=0;i<13;i++) 
02D42:  MOVLB  6
02D44:  CLRF   xDA
02D46:  MOVF   xDA,W
02D48:  SUBLW  0C
02D4A:  BNC   2D7C
....................    { 
....................       direccion=0xA0; 
02D4C:  MOVLW  A0
02D4E:  MOVLB  4
02D50:  MOVWF  x58
....................       Envio_I2C(direccion,i,SlaveA0Tx[i]); 
02D52:  CLRF   03
02D54:  MOVLB  6
02D56:  MOVF   xDA,W
02D58:  ADDLW  37
02D5A:  MOVWF  FE9
02D5C:  MOVLW  04
02D5E:  ADDWFC 03,W
02D60:  MOVWF  FEA
02D62:  MOVFF  FEF,727
02D66:  MOVFF  458,728
02D6A:  MOVFF  6DA,729
02D6E:  MOVFF  727,72A
02D72:  MOVLB  0
02D74:  BRA    2CE6
....................    }  
02D76:  MOVLB  6
02D78:  INCF   xDA,F
02D7A:  BRA    2D46
.................... } 
02D7C:  MOVLB  0
02D7E:  RETLW  00
.................... void Lectura_Esclavos(void){ 
....................    for(i=0;i<18;i++) 
*
0329E:  MOVLB  6
032A0:  CLRF   xDA
032A2:  MOVF   xDA,W
032A4:  SUBLW  11
032A6:  BNC   3362
....................    { 
....................       direccion=0xA0;                        //Direccin en el bus I2c 
032A8:  MOVLW  A0
032AA:  MOVLB  4
032AC:  MOVWF  x58
....................       posicion=i;                         //Posicin de memoria a leer 
032AE:  MOVFF  6DA,459
....................       Lectura_I2C(direccion, posicion, dato);    //Lectura por I2C 
032B2:  MOVFF  458,727
032B6:  MOVFF  459,728
....................       txbuf[i]=(int8)dato; 
*
0334A:  CLRF   03
0334C:  MOVLB  6
0334E:  MOVF   xDA,W
03350:  ADDLW  17
03352:  MOVWF  FE9
03354:  MOVLW  04
03356:  ADDWFC 03,W
03358:  MOVWF  FEA
0335A:  MOVFF  457,FEF
....................    } 
0335E:  INCF   xDA,F
03360:  BRA    32A2
....................    Lee_Vector(); 
03362:  MOVLB  0
03364:  BRA    2DEC
.................... } 
03366:  RETLW  00
....................  
.................... #int_TIMER0 
.................... void temp0s(void){ 
....................    set_timer0(0); 
*
01648:  CLRF   FD7
0164A:  CLRF   FD6
....................    t_exhaust++; 
0164C:  MOVLB  7
0164E:  INCF   x01,F
01650:  BTFSC  FD8.2
01652:  INCF   x02,F
....................    if(DesfogueSuave) 
01654:  MOVLB  4
01656:  BTFSS  x5E.5
01658:  BRA    16A8
....................    { 
....................       if(Nivel<6) 
0165A:  MOVLB  6
0165C:  MOVF   xE8,F
0165E:  BNZ   16A0
01660:  MOVF   xE7,W
01662:  SUBLW  05
01664:  BNC   16A0
....................       { 
....................          if(t_exhaust<=NivelSeleccionado) // Si el tiempo es menor o igual al tiempo de control se enciende la resistencia de lo contrario se apaga. 
01666:  MOVLB  7
01668:  MOVF   x02,W
0166A:  MOVLB  6
0166C:  SUBWF  xF2,W
0166E:  BNC   1682
01670:  BNZ   167C
01672:  MOVLB  7
01674:  MOVF   x01,W
01676:  MOVLB  6
01678:  SUBWF  xF1,W
0167A:  BNC   1682
....................          { 
....................             Desfogue_on; 
0167C:  BCF    F8B.5
0167E:  BCF    F94.5
....................          }else{             
01680:  BRA    1686
....................             Desfogue_off; 
01682:  BSF    F8B.5
01684:  BCF    F94.5
....................          }    
....................        
....................          if(t_exhaust>=60000) // Si el tiempo de control es mayor al tiempo de ciclo se reinicia tiempo de control 
01686:  MOVLB  7
01688:  MOVF   x02,W
0168A:  SUBLW  E9
0168C:  BC    169C
0168E:  XORLW  FF
01690:  BNZ   1698
01692:  MOVF   x01,W
01694:  SUBLW  5F
01696:  BC    169C
....................          { 
....................             t_exhaust=0; 
01698:  CLRF   x02
0169A:  CLRF   x01
....................          } // tiempoctrl incrementa una unidad cada Xms, por eso se dividen los tiempos por 0.005. 
....................       } 
....................       else 
0169C:  BRA    16A6
0169E:  MOVLB  6
....................       { 
....................          Desfogue_on; 
016A0:  BCF    F8B.5
016A2:  BCF    F94.5
016A4:  MOVLB  7
016A6:  MOVLB  4
....................       } 
....................    }   
.................... } 
....................  
016A8:  BCF    FF2.2
016AA:  MOVLB  0
016AC:  GOTO   0064
.................... #int_TIMER1 
.................... void temp1s(void){ 
....................     
....................    set_timer1(40536); // Se repite cada 5ms 
016B0:  MOVLW  9E
016B2:  MOVWF  FCF
016B4:  MOVLW  58
016B6:  MOVWF  FCE
....................    tiempos++; 
016B8:  MOVLB  6
016BA:  INCF   xE1,F
016BC:  BTFSC  FD8.2
016BE:  INCF   xE2,F
....................    tiempos3++; 
016C0:  INCF   xE3,F
016C2:  BTFSC  FD8.2
016C4:  INCF   xE4,F
....................    tiempoctrl++; 
016C6:  INCF   xE5,F
016C8:  BTFSC  FD8.2
016CA:  INCF   xE6,F
....................     
....................    if(tiempos>=200)  // 12000 para que incremente cada minuto, 200para que incremente cada segundo. 
016CC:  MOVF   xE2,F
016CE:  BNZ   16D6
016D0:  MOVF   xE1,W
016D2:  SUBLW  C7
016D4:  BC    178E
....................    { 
....................       TiempoControl++; 
016D6:  INCF   xFF,F
....................       if(IniciaCiclo && !Esterilizando){ 
016D8:  MOVLB  4
016DA:  BTFSS  x5E.0
016DC:  BRA    16E8
016DE:  BTFSC  x5E.1
016E0:  BRA    16E8
....................          TiempoCiclo++; 
016E2:  INCF   x60,F
016E4:  BTFSC  FD8.2
016E6:  INCF   x61,F
....................       } 
....................        
....................       if(IniciaLlenado && !CalderinLleno){ 
016E8:  BTFSS  x5D.6
016EA:  BRA    16F6
016EC:  BTFSC  x5D.7
016EE:  BRA    16F6
....................          TiempoLlenado++; 
016F0:  INCF   x62,F
016F2:  BTFSC  FD8.2
016F4:  INCF   x63,F
....................       } 
....................        
....................       if(SensadoNivel){ 
016F6:  BTFSS  x5E.3
016F8:  BRA    1700
....................          TiempoSensadoNivel++; 
016FA:  INCF   x64,F
016FC:  BTFSC  FD8.2
016FE:  INCF   x65,F
....................       } 
....................        
....................       tiempos=0;Lectura=1;tinicio++; 
01700:  MOVLB  6
01702:  CLRF   xE2
01704:  CLRF   xE1
01706:  BSF    xD6.4
01708:  INCF   xE9,F
0170A:  BTFSC  FD8.2
0170C:  INCF   xEA,F
....................     
....................       if(Esterilizando && !Desfogando) 
0170E:  MOVLB  4
01710:  BTFSS  x5E.1
01712:  BRA    1750
01714:  BTFSC  x5E.4
01716:  BRA    1750
....................       {                
....................          Testerilizacion[0]++; 
01718:  INCF   x66,F
....................          if(Testerilizacion[0]>9) 
0171A:  BTFSC  x66.7
0171C:  BRA    1728
0171E:  MOVF   x66,W
01720:  SUBLW  09
01722:  BC    1728
....................             {Testerilizacion[0]=0; 
01724:  CLRF   x66
....................             Testerilizacion[1]++;} 
01726:  INCF   x67,F
....................          if(Testerilizacion[1]>5) 
01728:  BTFSC  x67.7
0172A:  BRA    1736
0172C:  MOVF   x67,W
0172E:  SUBLW  05
01730:  BC    1736
....................             {Testerilizacion[1]=0; 
01732:  CLRF   x67
....................              Testerilizacion[2]++;} 
01734:  INCF   x68,F
....................             if(Testerilizacion[2]>9) 
01736:  BTFSC  x68.7
01738:  BRA    1744
0173A:  MOVF   x68,W
0173C:  SUBLW  09
0173E:  BC    1744
....................                {Testerilizacion[2]=0; 
01740:  CLRF   x68
....................                 Testerilizacion[3]++;} 
01742:  INCF   x69,F
....................                if(Testerilizacion[3]>5) 
01744:  BTFSC  x69.7
01746:  BRA    1750
01748:  MOVF   x69,W
0174A:  SUBLW  05
0174C:  BC    1750
....................                   {Testerilizacion[3]=0;} 
0174E:  CLRF   x69
....................       }        
....................        
....................       if(Secando) 
01750:  BTFSS  x5E.2
01752:  BRA    178C
....................       {                
....................          Tsecado[0]++; 
01754:  INCF   x6E,F
....................          if(Tsecado[0]>9) 
01756:  BTFSC  x6E.7
01758:  BRA    1764
0175A:  MOVF   x6E,W
0175C:  SUBLW  09
0175E:  BC    1764
....................             {Tsecado[0]=0; 
01760:  CLRF   x6E
....................              Tsecado[1]++;} 
01762:  INCF   x6F,F
....................           if(Tsecado[1]>5) 
01764:  BTFSC  x6F.7
01766:  BRA    1772
01768:  MOVF   x6F,W
0176A:  SUBLW  05
0176C:  BC    1772
....................             {Tsecado[1]=0; 
0176E:  CLRF   x6F
....................              Tsecado[2]++;} 
01770:  INCF   x70,F
....................             if(Tsecado[2]>9) 
01772:  BTFSC  x70.7
01774:  BRA    1780
01776:  MOVF   x70,W
01778:  SUBLW  09
0177A:  BC    1780
....................                {Tsecado[2]=0; 
0177C:  CLRF   x70
....................                 Tsecado[3]++;} 
0177E:  INCF   x71,F
....................                if(Tsecado[3]>5) 
01780:  BTFSC  x71.7
01782:  BRA    178C
01784:  MOVF   x71,W
01786:  SUBLW  05
01788:  BC    178C
....................                   {Tsecado[3]=0;} 
0178A:  CLRF   x71
0178C:  MOVLB  6
....................          }   
....................    } 
.................... } 
....................  
0178E:  BCF    F9E.0
01790:  MOVLB  0
01792:  GOTO   0064
.................... void VerifiqueAgua(void){ 
....................    glcd_fillscreen(OFF); 
*
03868:  MOVLB  7
0386A:  CLRF   x28
0386C:  MOVLB  0
0386E:  CALL   1C7A
....................    strcpy(Menus.Letra,"  !Verifique que el  "); 
03872:  MOVLW  07
03874:  MOVWF  FEA
03876:  MOVLW  03
03878:  MOVWF  FE9
0387A:  MOVFF  FF2,727
0387E:  BCF    FF2.7
03880:  MOVLW  00
03882:  CALL   0756
03886:  TBLRD*-
03888:  TBLRD*+
0388A:  MOVF   FF5,W
0388C:  MOVWF  FEE
0388E:  IORLW  00
03890:  BNZ   3888
03892:  MOVLB  7
03894:  BTFSC  x27.7
03896:  BSF    FF2.7
....................    displayMenu(Menus.Letra,0,15,0,1); 
03898:  MOVLW  07
0389A:  MOVWF  x28
0389C:  MOVLW  03
0389E:  MOVWF  x27
038A0:  CLRF   x29
038A2:  MOVLW  0F
038A4:  MOVWF  x2A
038A6:  CLRF   x2B
038A8:  MOVLW  01
038AA:  MOVWF  x2C
038AC:  MOVLB  0
038AE:  CALL   22A8
....................    strcpy(Menus.Letra,"   reservorio tenga  "); 
038B2:  MOVLW  07
038B4:  MOVWF  FEA
038B6:  MOVLW  03
038B8:  MOVWF  FE9
038BA:  MOVFF  FF2,727
038BE:  BCF    FF2.7
038C0:  MOVLW  00
038C2:  CALL   078A
038C6:  TBLRD*-
038C8:  TBLRD*+
038CA:  MOVF   FF5,W
038CC:  MOVWF  FEE
038CE:  IORLW  00
038D0:  BNZ   38C8
038D2:  MOVLB  7
038D4:  BTFSC  x27.7
038D6:  BSF    FF2.7
....................    displayMenu(Menus.Letra,0,30,0,1); 
038D8:  MOVLW  07
038DA:  MOVWF  x28
038DC:  MOVLW  03
038DE:  MOVWF  x27
038E0:  CLRF   x29
038E2:  MOVLW  1E
038E4:  MOVWF  x2A
038E6:  CLRF   x2B
038E8:  MOVLW  01
038EA:  MOVWF  x2C
038EC:  MOVLB  0
038EE:  CALL   22A8
....................    strcpy(Menus.Letra,"   agua suficiente!  "); 
038F2:  MOVLW  07
038F4:  MOVWF  FEA
038F6:  MOVLW  03
038F8:  MOVWF  FE9
038FA:  MOVFF  FF2,727
038FE:  BCF    FF2.7
03900:  MOVLW  00
03902:  CALL   07BE
03906:  TBLRD*-
03908:  TBLRD*+
0390A:  MOVF   FF5,W
0390C:  MOVWF  FEE
0390E:  IORLW  00
03910:  BNZ   3908
03912:  MOVLB  7
03914:  BTFSC  x27.7
03916:  BSF    FF2.7
....................    displayMenu(Menus.Letra,0,45,0,1); 
03918:  MOVLW  07
0391A:  MOVWF  x28
0391C:  MOVLW  03
0391E:  MOVWF  x27
03920:  CLRF   x29
03922:  MOVLW  2D
03924:  MOVWF  x2A
03926:  CLRF   x2B
03928:  MOVLW  01
0392A:  MOVWF  x2C
0392C:  MOVLB  0
0392E:  CALL   22A8
....................    delay_ms(2500); 
03932:  MOVLW  0A
03934:  MOVLB  7
03936:  MOVWF  x27
03938:  MOVLW  FA
0393A:  MOVWF  x2D
0393C:  MOVLB  0
0393E:  CALL   1796
03942:  MOVLB  7
03944:  DECFSZ x27,F
03946:  BRA    3938
....................    glcd_fillscreen(OFF); 
03948:  CLRF   x28
0394A:  MOVLB  0
0394C:  CALL   1C7A
.................... } 
03950:  RETLW  00
....................  
.................... void main() 
.................... { 
*
04AFA:  CLRF   FF8
04AFC:  BCF    FD0.7
04AFE:  BSF    07.7
04B00:  CLRF   FEA
04B02:  CLRF   FE9
04B04:  MOVLB  4
04B06:  CLRF   x57
04B08:  CLRF   x58
04B0A:  CLRF   x59
04B0C:  CLRF   x5A
04B0E:  CLRF   x5B
04B10:  CLRF   x5C
04B12:  BCF    x5D.0
04B14:  BCF    x5D.1
04B16:  BCF    x5D.2
04B18:  BCF    x5D.3
04B1A:  BCF    x5D.4
04B1C:  BCF    x5D.5
04B1E:  BCF    x5D.6
04B20:  BCF    x5D.7
04B22:  BCF    x5E.0
04B24:  BCF    x5E.1
04B26:  BCF    x5E.2
04B28:  BCF    x5E.3
04B2A:  BCF    x5E.4
04B2C:  BCF    x5E.5
04B2E:  BCF    x5E.6
04B30:  BCF    x5E.7
04B32:  BCF    x5F.0
04B34:  BCF    x5F.1
04B36:  BCF    x5F.2
04B38:  BCF    x5F.3
04B3A:  BCF    x5F.4
04B3C:  BCF    x5F.5
04B3E:  BCF    x5F.6
04B40:  CLRF   x61
04B42:  CLRF   x60
04B44:  CLRF   x63
04B46:  CLRF   x62
04B48:  CLRF   x65
04B4A:  CLRF   x64
04B4C:  MOVLW  CD
04B4E:  MOVLB  6
04B50:  MOVWF  x59
04B52:  MOVLW  CC
04B54:  MOVWF  x58
04B56:  MOVLW  20
04B58:  MOVWF  x57
04B5A:  MOVLW  84
04B5C:  MOVWF  x56
04B5E:  CLRF   x5D
04B60:  CLRF   x5C
04B62:  CLRF   x5B
04B64:  MOVLW  7E
04B66:  MOVWF  x5A
04B68:  CLRF   x61
04B6A:  CLRF   x60
04B6C:  CLRF   x5F
04B6E:  CLRF   x5E
04B70:  CLRF   x6D
04B72:  CLRF   x6C
04B74:  CLRF   x6B
04B76:  CLRF   x6A
04B78:  CLRF   x71
04B7A:  CLRF   x70
04B7C:  CLRF   x6F
04B7E:  CLRF   x6E
04B80:  CLRF   x75
04B82:  CLRF   x74
04B84:  CLRF   x73
04B86:  CLRF   x72
04B88:  CLRF   x76
04B8A:  CLRF   x77
04B8C:  CLRF   x78
04B8E:  CLRF   x79
04B90:  MOVLW  14
04B92:  MOVWF  x7A
04B94:  CLRF   x7B
04B96:  CLRF   x7F
04B98:  CLRF   x7E
04B9A:  CLRF   x7D
04B9C:  CLRF   x7C
04B9E:  CLRF   x83
04BA0:  MOVLW  F0
04BA2:  MOVWF  x82
04BA4:  MOVLW  3E
04BA6:  MOVWF  x81
04BA8:  MOVLW  8B
04BAA:  MOVWF  x80
04BAC:  CLRF   x8B
04BAE:  CLRF   x8A
04BB0:  MOVLW  20
04BB2:  MOVWF  x89
04BB4:  MOVLW  82
04BB6:  MOVWF  x88
04BB8:  CLRF   x8F
04BBA:  CLRF   x8E
04BBC:  CLRF   x8D
04BBE:  CLRF   x8C
04BC0:  CLRF   x93
04BC2:  CLRF   x92
04BC4:  CLRF   x91
04BC6:  CLRF   x90
04BC8:  CLRF   x97
04BCA:  CLRF   x96
04BCC:  CLRF   x95
04BCE:  CLRF   x94
04BD0:  CLRF   x9B
04BD2:  CLRF   x9A
04BD4:  CLRF   x99
04BD6:  CLRF   x98
04BD8:  CLRF   x9F
04BDA:  CLRF   x9E
04BDC:  CLRF   x9D
04BDE:  CLRF   x9C
04BE0:  CLRF   xA3
04BE2:  CLRF   xA2
04BE4:  MOVLW  48
04BE6:  MOVWF  xA1
04BE8:  MOVLW  83
04BEA:  MOVWF  xA0
04BEC:  CLRF   xA7
04BEE:  CLRF   xA6
04BF0:  MOVLW  20
04BF2:  MOVWF  xA5
04BF4:  MOVLW  83
04BF6:  MOVWF  xA4
04BF8:  CLRF   xAB
04BFA:  CLRF   xAA
04BFC:  CLRF   xA9
04BFE:  MOVLW  7F
04C00:  MOVWF  xA8
04C02:  CLRF   xAF
04C04:  CLRF   xAE
04C06:  CLRF   xAD
04C08:  CLRF   xAC
04C0A:  CLRF   xB3
04C0C:  CLRF   xB2
04C0E:  CLRF   xB1
04C10:  CLRF   xB0
04C12:  CLRF   xB7
04C14:  CLRF   xB6
04C16:  CLRF   xB5
04C18:  CLRF   xB4
04C1A:  CLRF   xBB
04C1C:  CLRF   xBA
04C1E:  CLRF   xB9
04C20:  CLRF   xB8
04C22:  CLRF   xBF
04C24:  CLRF   xBE
04C26:  CLRF   xBD
04C28:  CLRF   xBC
04C2A:  MOVLW  5C
04C2C:  MOVWF  xC3
04C2E:  MOVLW  AA
04C30:  MOVWF  xC2
04C32:  MOVLW  52
04C34:  MOVWF  xC1
04C36:  MOVLW  77
04C38:  MOVWF  xC0
04C3A:  MOVLW  E0
04C3C:  MOVWF  xC7
04C3E:  MOVLW  2D
04C40:  MOVWF  xC6
04C42:  MOVLW  10
04C44:  MOVWF  xC5
04C46:  MOVLW  75
04C48:  MOVWF  xC4
04C4A:  MOVLW  FF
04C4C:  MOVWF  xCB
04C4E:  MOVLW  21
04C50:  MOVWF  xCA
04C52:  MOVLW  15
04C54:  MOVWF  xC9
04C56:  MOVLW  80
04C58:  MOVWF  xC8
04C5A:  MOVLW  82
04C5C:  MOVWF  xCF
04C5E:  MOVLW  12
04C60:  MOVWF  xCE
04C62:  MOVLW  F4
04C64:  MOVWF  xCD
04C66:  MOVLW  86
04C68:  MOVWF  xCC
04C6A:  CLRF   xD0
04C6C:  CLRF   xD1
04C6E:  MOVLB  4
04C70:  BCF    x5F.7
04C72:  MOVLB  6
04C74:  BCF    xD6.0
04C76:  BCF    xD6.1
04C78:  BSF    xD6.2
04C7A:  BCF    xD6.3
04C7C:  BCF    xD6.4
04C7E:  BCF    xD6.5
04C80:  CLRF   xD7
04C82:  CLRF   xD8
04C84:  MOVLW  01
04C86:  MOVWF  xD9
04C88:  CLRF   xDA
04C8A:  CLRF   xDB
04C8C:  CLRF   xDC
04C8E:  CLRF   xDD
04C90:  MOVWF  xDE
04C92:  CLRF   xDF
04C94:  CLRF   xE0
04C96:  CLRF   xE2
04C98:  CLRF   xE1
04C9A:  CLRF   xE4
04C9C:  CLRF   xE3
04C9E:  CLRF   xE6
04CA0:  CLRF   xE5
04CA2:  CLRF   xE8
04CA4:  CLRF   xE7
04CA6:  CLRF   xEA
04CA8:  CLRF   xE9
04CAA:  CLRF   xEC
04CAC:  CLRF   xEB
04CAE:  CLRF   xEE
04CB0:  CLRF   xED
04CB2:  CLRF   xF0
04CB4:  CLRF   xEF
04CB6:  CLRF   xF2
04CB8:  CLRF   xF1
04CBA:  CLRF   xFB
04CBC:  CLRF   xFC
04CBE:  CLRF   xFD
04CC0:  CLRF   xFE
04CC2:  CLRF   xFF
04CC4:  MOVLB  7
04CC6:  CLRF   x00
04CC8:  CLRF   x02
04CCA:  CLRF   x01
04CCC:  MOVF   FC1,W
04CCE:  ANDLW  C0
04CD0:  IORLW  0F
04CD2:  MOVWF  FC1
04CD4:  MOVLW  07
04CD6:  MOVWF  FB4
04CD8:  MOVLB  4
04CDA:  CLRF   x66
04CDC:  CLRF   x67
04CDE:  CLRF   x68
04CE0:  CLRF   x69
04CE2:  CLRF   x6A
04CE4:  CLRF   x6B
04CE6:  CLRF   x6C
04CE8:  CLRF   x6D
04CEA:  CLRF   x6E
04CEC:  CLRF   x6F
04CEE:  CLRF   x70
04CF0:  CLRF   x71
04CF2:  CLRF   x72
04CF4:  CLRF   x73
04CF6:  CLRF   x74
04CF8:  CLRF   x75
04CFA:  CLRF   x76
04CFC:  CLRF   x77
04CFE:  CLRF   x78
04D00:  CLRF   x79
04D02:  CLRF   x7A
04D04:  CLRF   x7B
04D06:  CLRF   x7C
04D08:  CLRF   x7D
04D0A:  CLRF   x7E
04D0C:  CLRF   x7F
04D0E:  CLRF   x80
04D10:  CLRF   x81
04D12:  CLRF   x82
04D14:  CLRF   x83
04D16:  CLRF   x84
04D18:  CLRF   x85
04D1A:  CLRF   x86
04D1C:  CLRF   x87
04D1E:  CLRF   x88
04D20:  CLRF   x89
04D22:  CLRF   x8A
04D24:  CLRF   x8B
04D26:  CLRF   x8C
04D28:  CLRF   x8D
04D2A:  CLRF   x8E
04D2C:  CLRF   x8F
04D2E:  CLRF   x90
04D30:  CLRF   x91
04D32:  CLRF   x92
04D34:  CLRF   x93
04D36:  CLRF   x94
04D38:  CLRF   x95
04D3A:  CLRF   x96
04D3C:  CLRF   x97
04D3E:  CLRF   x98
04D40:  CLRF   x99
04D42:  CLRF   x9A
04D44:  CLRF   x9B
04D46:  CLRF   x9C
04D48:  CLRF   x9D
04D4A:  CLRF   x9E
04D4C:  CLRF   x9F
04D4E:  CLRF   xA0
04D50:  CLRF   xA1
04D52:  CLRF   xA2
04D54:  CLRF   xA3
04D56:  CLRF   xA4
04D58:  CLRF   xA5
04D5A:  CLRF   xA6
04D5C:  CLRF   xA7
04D5E:  CLRF   xA8
04D60:  CLRF   xA9
04D62:  CLRF   xAA
04D64:  CLRF   xAB
04D66:  CLRF   xAC
04D68:  CLRF   xAD
04D6A:  CLRF   xAE
04D6C:  CLRF   xAF
04D6E:  CLRF   xB0
04D70:  CLRF   xB1
04D72:  CLRF   xB2
04D74:  CLRF   xB3
04D76:  CLRF   xB4
04D78:  CLRF   xB5
04D7A:  CLRF   xB6
04D7C:  CLRF   xB7
04D7E:  CLRF   xB8
04D80:  CLRF   xB9
04D82:  CLRF   xBA
04D84:  CLRF   xBB
04D86:  CLRF   xBC
04D88:  CLRF   xBD
04D8A:  CLRF   xBE
04D8C:  CLRF   xBF
04D8E:  CLRF   xC0
04D90:  CLRF   xC1
04D92:  CLRF   xC2
04D94:  CLRF   xC3
04D96:  CLRF   xC4
04D98:  CLRF   xC5
04D9A:  CLRF   xC6
04D9C:  CLRF   xC7
04D9E:  CLRF   xC8
04DA0:  CLRF   xC9
04DA2:  CLRF   xCA
04DA4:  CLRF   xCB
04DA6:  CLRF   xCC
04DA8:  CLRF   xCD
04DAA:  CLRF   xCE
04DAC:  CLRF   xCF
04DAE:  CLRF   xD0
04DB0:  CLRF   xD1
04DB2:  CLRF   xD2
04DB4:  CLRF   xD3
04DB6:  CLRF   xD4
04DB8:  CLRF   xD5
04DBA:  CLRF   xD6
04DBC:  CLRF   xD7
04DBE:  CLRF   xD8
04DC0:  CLRF   xD9
04DC2:  CLRF   xDA
04DC4:  CLRF   xDB
04DC6:  CLRF   xDC
04DC8:  CLRF   xDD
04DCA:  CLRF   xDE
04DCC:  CLRF   xDF
04DCE:  CLRF   xE0
04DD0:  CLRF   xE1
04DD2:  CLRF   xE2
04DD4:  CLRF   xE3
04DD6:  CLRF   xE4
04DD8:  CLRF   xE5
04DDA:  CLRF   xE6
04DDC:  CLRF   xE7
04DDE:  CLRF   xE8
04DE0:  CLRF   xE9
04DE2:  CLRF   xEA
04DE4:  CLRF   xEB
04DE6:  CLRF   xEC
04DE8:  CLRF   xED
04DEA:  CLRF   xEE
04DEC:  CLRF   xEF
04DEE:  CLRF   xF0
04DF0:  CLRF   xF1
04DF2:  CLRF   xF2
04DF4:  CLRF   xF3
04DF6:  CLRF   xF4
04DF8:  CLRF   xF5
04DFA:  CLRF   xF6
04DFC:  CLRF   xF7
04DFE:  CLRF   xF8
04E00:  CLRF   xF9
04E02:  CLRF   xFA
04E04:  CLRF   xFB
04E06:  CLRF   xFC
04E08:  CLRF   xFD
04E0A:  CLRF   xFE
04E0C:  CLRF   xFF
04E0E:  MOVLB  5
04E10:  CLRF   x00
04E12:  CLRF   x01
04E14:  CLRF   x02
04E16:  CLRF   x03
04E18:  CLRF   x04
04E1A:  CLRF   x05
04E1C:  CLRF   x06
04E1E:  CLRF   x07
04E20:  CLRF   x08
04E22:  CLRF   x09
04E24:  CLRF   x0A
04E26:  CLRF   x0B
04E28:  CLRF   x0C
04E2A:  CLRF   x0D
04E2C:  CLRF   x0E
04E2E:  CLRF   x0F
04E30:  CLRF   x10
04E32:  CLRF   x11
04E34:  CLRF   x12
04E36:  CLRF   x13
04E38:  CLRF   x14
04E3A:  CLRF   x15
04E3C:  CLRF   x16
04E3E:  CLRF   x17
04E40:  CLRF   x18
04E42:  CLRF   x19
04E44:  CLRF   x1A
04E46:  CLRF   x1B
04E48:  CLRF   x1C
04E4A:  CLRF   x1D
04E4C:  CLRF   x1E
04E4E:  CLRF   x1F
04E50:  CLRF   x20
04E52:  CLRF   x21
04E54:  CLRF   x22
04E56:  CLRF   x23
04E58:  CLRF   x24
04E5A:  CLRF   x25
04E5C:  CLRF   x26
04E5E:  CLRF   x27
04E60:  CLRF   x28
04E62:  CLRF   x29
04E64:  CLRF   x2A
04E66:  CLRF   x2B
04E68:  CLRF   x2C
04E6A:  CLRF   x2D
04E6C:  CLRF   x2E
04E6E:  CLRF   x2F
04E70:  CLRF   x30
04E72:  CLRF   x31
04E74:  CLRF   x32
04E76:  CLRF   x33
04E78:  CLRF   x34
04E7A:  CLRF   x35
04E7C:  CLRF   x36
04E7E:  CLRF   x37
04E80:  CLRF   x38
04E82:  CLRF   x39
04E84:  CLRF   x3A
04E86:  CLRF   x3B
04E88:  CLRF   x3C
04E8A:  CLRF   x3D
04E8C:  CLRF   x3E
04E8E:  CLRF   x3F
04E90:  CLRF   x40
04E92:  CLRF   x41
04E94:  CLRF   x42
04E96:  CLRF   x43
04E98:  CLRF   x44
04E9A:  CLRF   x45
04E9C:  CLRF   x46
04E9E:  CLRF   x47
04EA0:  CLRF   x48
04EA2:  CLRF   x49
04EA4:  CLRF   x4A
04EA6:  CLRF   x4B
04EA8:  CLRF   x4C
04EAA:  CLRF   x4D
04EAC:  CLRF   x4E
04EAE:  CLRF   x4F
04EB0:  CLRF   x50
04EB2:  CLRF   x51
04EB4:  CLRF   x52
04EB6:  CLRF   x53
04EB8:  CLRF   x54
04EBA:  CLRF   x55
04EBC:  CLRF   x56
04EBE:  CLRF   x57
04EC0:  CLRF   x58
04EC2:  CLRF   x59
04EC4:  CLRF   x5A
04EC6:  CLRF   x5B
04EC8:  CLRF   x5C
04ECA:  CLRF   x5D
04ECC:  CLRF   x5E
04ECE:  CLRF   x5F
04ED0:  CLRF   x60
04ED2:  CLRF   x61
04ED4:  CLRF   x62
04ED6:  CLRF   x63
04ED8:  CLRF   x64
04EDA:  CLRF   x65
04EDC:  CLRF   x66
04EDE:  CLRF   x67
04EE0:  CLRF   x68
04EE2:  CLRF   x69
04EE4:  CLRF   x6A
04EE6:  CLRF   x6B
04EE8:  CLRF   x6C
04EEA:  CLRF   x6D
04EEC:  CLRF   x6E
04EEE:  CLRF   x6F
04EF0:  CLRF   x70
04EF2:  CLRF   x71
04EF4:  CLRF   x72
04EF6:  CLRF   x73
04EF8:  CLRF   x74
04EFA:  CLRF   x75
04EFC:  CLRF   x76
04EFE:  CLRF   x77
04F00:  CLRF   x78
04F02:  CLRF   x79
04F04:  CLRF   x7A
04F06:  CLRF   x7B
04F08:  CLRF   x7C
04F0A:  CLRF   x7D
04F0C:  CLRF   x7E
04F0E:  CLRF   x7F
04F10:  CLRF   x80
04F12:  CLRF   x81
04F14:  CLRF   x82
04F16:  CLRF   x83
04F18:  CLRF   x84
04F1A:  CLRF   x85
04F1C:  CLRF   x86
04F1E:  CLRF   x87
04F20:  CLRF   x88
04F22:  CLRF   x89
04F24:  CLRF   x8A
04F26:  CLRF   x8B
04F28:  CLRF   x8C
04F2A:  CLRF   x8D
04F2C:  CLRF   x8E
04F2E:  CLRF   x8F
04F30:  CLRF   x90
04F32:  CLRF   x91
04F34:  CLRF   x92
04F36:  CLRF   x93
04F38:  CLRF   x94
04F3A:  CLRF   x95
04F3C:  CLRF   x96
04F3E:  CLRF   x97
04F40:  CLRF   x98
04F42:  CLRF   x99
04F44:  CLRF   x9A
04F46:  CLRF   x9B
04F48:  CLRF   x9C
04F4A:  CLRF   x9D
04F4C:  CLRF   x9E
04F4E:  CLRF   x9F
04F50:  CLRF   xA0
04F52:  CLRF   xA1
04F54:  CLRF   xA2
04F56:  CLRF   xA3
04F58:  CLRF   xA4
04F5A:  CLRF   xA5
04F5C:  CLRF   xA6
04F5E:  CLRF   xA7
04F60:  CLRF   xA8
04F62:  CLRF   xA9
04F64:  CLRF   xAA
04F66:  CLRF   xAB
04F68:  CLRF   xAC
04F6A:  CLRF   xAD
04F6C:  CLRF   xAE
04F6E:  CLRF   xAF
04F70:  CLRF   xB0
04F72:  CLRF   xB1
04F74:  CLRF   xB2
04F76:  CLRF   xB3
04F78:  CLRF   xB4
04F7A:  CLRF   xB5
04F7C:  CLRF   xB6
04F7E:  CLRF   xB7
04F80:  CLRF   xB8
04F82:  CLRF   xB9
04F84:  CLRF   xBA
04F86:  CLRF   xBB
04F88:  CLRF   xBC
04F8A:  CLRF   xBD
04F8C:  CLRF   xBE
04F8E:  CLRF   xBF
04F90:  CLRF   xC0
04F92:  CLRF   xC1
04F94:  CLRF   xC2
04F96:  CLRF   xC3
04F98:  CLRF   xC4
04F9A:  CLRF   xC5
04F9C:  CLRF   xC6
04F9E:  CLRF   xC7
04FA0:  CLRF   xC8
04FA2:  CLRF   xC9
04FA4:  CLRF   xCA
04FA6:  CLRF   xCB
04FA8:  CLRF   xCC
04FAA:  CLRF   xCD
04FAC:  CLRF   xCE
04FAE:  CLRF   xCF
04FB0:  CLRF   xD0
04FB2:  CLRF   xD1
04FB4:  CLRF   xD2
04FB6:  CLRF   xD3
04FB8:  CLRF   xD4
04FBA:  CLRF   xD5
04FBC:  CLRF   xD6
04FBE:  CLRF   xD7
04FC0:  CLRF   xD8
04FC2:  CLRF   xD9
04FC4:  CLRF   xDA
04FC6:  CLRF   xDB
04FC8:  CLRF   xDC
04FCA:  CLRF   xDD
04FCC:  CLRF   xDE
04FCE:  CLRF   xDF
04FD0:  CLRF   xE0
04FD2:  CLRF   xE1
04FD4:  CLRF   xE2
04FD6:  CLRF   xE3
04FD8:  CLRF   xE4
04FDA:  CLRF   xE5
04FDC:  CLRF   xE6
04FDE:  CLRF   xE7
04FE0:  CLRF   xE8
04FE2:  CLRF   xE9
04FE4:  CLRF   xEA
04FE6:  CLRF   xEB
04FE8:  CLRF   xEC
04FEA:  CLRF   xED
04FEC:  CLRF   xEE
04FEE:  CLRF   xEF
04FF0:  CLRF   xF0
04FF2:  CLRF   xF1
04FF4:  CLRF   xF2
04FF6:  CLRF   xF3
04FF8:  CLRF   xF4
04FFA:  CLRF   xF5
04FFC:  CLRF   xF6
04FFE:  CLRF   xF7
05000:  CLRF   xF8
05002:  CLRF   xF9
05004:  CLRF   xFA
05006:  CLRF   xFB
05008:  CLRF   xFC
0500A:  CLRF   xFD
0500C:  CLRF   xFE
0500E:  CLRF   xFF
05010:  MOVLB  6
05012:  CLRF   x00
05014:  CLRF   x01
05016:  CLRF   x02
05018:  CLRF   x03
0501A:  CLRF   x04
0501C:  CLRF   x05
0501E:  CLRF   x06
05020:  CLRF   x07
05022:  CLRF   x08
05024:  CLRF   x09
05026:  CLRF   x0A
05028:  CLRF   x0B
0502A:  CLRF   x0C
0502C:  CLRF   x0D
0502E:  CLRF   x0E
05030:  CLRF   x0F
05032:  CLRF   x10
05034:  CLRF   x11
05036:  CLRF   x12
05038:  CLRF   x13
0503A:  CLRF   x14
0503C:  CLRF   x15
0503E:  CLRF   x16
05040:  CLRF   x17
05042:  CLRF   x18
05044:  CLRF   x19
05046:  CLRF   x1A
05048:  CLRF   x1B
0504A:  CLRF   x1C
0504C:  CLRF   x1D
0504E:  CLRF   x1E
05050:  CLRF   x1F
05052:  CLRF   x20
05054:  CLRF   x21
05056:  CLRF   x22
05058:  CLRF   x23
0505A:  CLRF   x24
0505C:  CLRF   x25
0505E:  CLRF   x26
05060:  CLRF   x27
05062:  CLRF   x28
05064:  CLRF   x29
05066:  CLRF   x2A
05068:  CLRF   x2B
0506A:  CLRF   x2C
0506C:  CLRF   x2D
0506E:  CLRF   x2E
05070:  CLRF   x2F
05072:  CLRF   x30
05074:  CLRF   x31
05076:  CLRF   x32
05078:  CLRF   x33
0507A:  CLRF   x34
0507C:  CLRF   x35
0507E:  CLRF   x36
05080:  CLRF   x37
05082:  CLRF   x38
05084:  CLRF   x39
05086:  CLRF   x3A
05088:  CLRF   x3B
0508A:  CLRF   x3C
0508C:  CLRF   x3D
0508E:  CLRF   x3E
05090:  CLRF   x3F
05092:  CLRF   x40
05094:  CLRF   x41
05096:  CLRF   x42
05098:  CLRF   x43
0509A:  CLRF   x44
0509C:  CLRF   x45
0509E:  CLRF   x46
050A0:  CLRF   x47
050A2:  CLRF   x48
050A4:  CLRF   x49
050A6:  CLRF   x4A
050A8:  CLRF   x4B
050AA:  CLRF   x4C
050AC:  CLRF   x4D
050AE:  CLRF   x4E
050B0:  CLRF   x4F
050B2:  CLRF   x50
050B4:  CLRF   x51
050B6:  CLRF   x52
050B8:  CLRF   x53
050BA:  CLRF   x54
050BC:  CLRF   x55
050BE:  CLRF   x62
050C0:  CLRF   x63
050C2:  CLRF   x64
050C4:  CLRF   x65
050C6:  CLRF   x66
050C8:  CLRF   x67
050CA:  CLRF   x68
050CC:  CLRF   x69
050CE:  MOVLW  6B
050D0:  MOVWF  xD2
050D2:  MOVLW  50
050D4:  MOVWF  xD3
050D6:  MOVLW  61
050D8:  MOVWF  xD4
050DA:  CLRF   xD5
050DC:  CLRF   xF3
050DE:  CLRF   xF4
050E0:  CLRF   xF5
050E2:  CLRF   xF6
050E4:  CLRF   xF7
050E6:  CLRF   xF8
050E8:  CLRF   xF9
050EA:  CLRF   xFA
050EC:  MOVLB  7
050EE:  CLRF   x25
050F0:  CLRF   x26
....................    Display_on; 
050F2:  BSF    F8B.7
050F4:  BCF    F94.7
....................    for (posicion=0;posicion<0x10;posicion++) 
050F6:  MOVLB  4
050F8:  CLRF   x59
050FA:  MOVF   x59,W
050FC:  SUBLW  0F
050FE:  BNC   5114
....................    { 
....................       SlaveA0Tx[posicion] = 0x00; 
05100:  CLRF   03
05102:  MOVF   x59,W
05104:  ADDLW  37
05106:  MOVWF  FE9
05108:  MOVLW  04
0510A:  ADDWFC 03,W
0510C:  MOVWF  FEA
0510E:  CLRF   FEF
....................    } 
05110:  INCF   x59,F
05112:  BRA    50FA
....................     
....................    delay_ms(1000);    
05114:  MOVLW  04
05116:  MOVLB  7
05118:  MOVWF  x27
0511A:  MOVLW  FA
0511C:  MOVWF  x2D
0511E:  MOVLB  0
05120:  CALL   1796
05124:  MOVLB  7
05126:  DECFSZ x27,F
05128:  BRA    511A
....................    //enable_interrupts(INT_SSP); 
....................    setup_timer_0(RTCC_8_BIT|RTCC_DIV_1); 
0512A:  MOVLW  C8
0512C:  MOVWF  FD5
....................    enable_interrupts(INT_TIMER0); 
0512E:  BSF    FF2.5
....................    setup_timer_1(T1_INTERNAL|T1_DIV_BY_1); 
05130:  MOVLW  85
05132:  MOVWF  FCD
....................    enable_interrupts(INT_TIMER1); 
05134:  BSF    F9D.0
....................    setup_adc_ports(AN0_TO_AN3); 
05136:  MOVF   FC1,W
05138:  ANDLW  C0
0513A:  IORLW  0B
0513C:  MOVWF  FC1
....................    setup_adc(ADC_CLOCK_DIV_32 ); 
0513E:  MOVF   FC0,W
05140:  ANDLW  C0
05142:  IORLW  02
05144:  MOVWF  FC0
05146:  BSF    FC0.7
05148:  BSF    FC2.0
....................    enable_interrupts(global); 
0514A:  MOVLW  C0
0514C:  IORWF  FF2,F
....................  
.................... //Lectura EEPROM//-------------------------- 
....................    Testerilizacionp[0]=read_eeprom(0); 
0514E:  MOVFF  FF2,727
05152:  BCF    FF2.7
05154:  CLRF   FAA
05156:  CLRF   FA9
05158:  BCF    FA6.6
0515A:  BCF    FA6.7
0515C:  BSF    FA6.0
0515E:  MOVF   FA8,W
05160:  BTFSC  x27.7
05162:  BSF    FF2.7
05164:  MOVLB  4
05166:  MOVWF  x6A
....................    delay_ms(10); 
05168:  MOVLW  0A
0516A:  MOVLB  7
0516C:  MOVWF  x2D
0516E:  MOVLB  0
05170:  CALL   1796
....................    Testerilizacionp[1]=read_eeprom(1); 
05174:  MOVFF  FF2,727
05178:  BCF    FF2.7
0517A:  CLRF   FAA
0517C:  MOVLW  01
0517E:  MOVWF  FA9
05180:  BCF    FA6.6
05182:  BCF    FA6.7
05184:  BSF    FA6.0
05186:  MOVF   FA8,W
05188:  MOVLB  7
0518A:  BTFSC  x27.7
0518C:  BSF    FF2.7
0518E:  MOVLB  4
05190:  MOVWF  x6B
....................    delay_ms(10); 
05192:  MOVLW  0A
05194:  MOVLB  7
05196:  MOVWF  x2D
05198:  MOVLB  0
0519A:  CALL   1796
....................    Testerilizacionp[2]=read_eeprom(2); 
0519E:  MOVFF  FF2,727
051A2:  BCF    FF2.7
051A4:  CLRF   FAA
051A6:  MOVLW  02
051A8:  MOVWF  FA9
051AA:  BCF    FA6.6
051AC:  BCF    FA6.7
051AE:  BSF    FA6.0
051B0:  MOVF   FA8,W
051B2:  MOVLB  7
051B4:  BTFSC  x27.7
051B6:  BSF    FF2.7
051B8:  MOVLB  4
051BA:  MOVWF  x6C
....................    delay_ms(10); 
051BC:  MOVLW  0A
051BE:  MOVLB  7
051C0:  MOVWF  x2D
051C2:  MOVLB  0
051C4:  CALL   1796
....................    Testerilizacionp[3]=read_eeprom(3); 
051C8:  MOVFF  FF2,727
051CC:  BCF    FF2.7
051CE:  CLRF   FAA
051D0:  MOVLW  03
051D2:  MOVWF  FA9
051D4:  BCF    FA6.6
051D6:  BCF    FA6.7
051D8:  BSF    FA6.0
051DA:  MOVF   FA8,W
051DC:  MOVLB  7
051DE:  BTFSC  x27.7
051E0:  BSF    FF2.7
051E2:  MOVLB  4
051E4:  MOVWF  x6D
....................    delay_ms(10); 
051E6:  MOVLW  0A
051E8:  MOVLB  7
051EA:  MOVWF  x2D
051EC:  MOVLB  0
051EE:  CALL   1796
....................    Tsecadop[0]=read_eeprom(4); 
051F2:  MOVFF  FF2,727
051F6:  BCF    FF2.7
051F8:  CLRF   FAA
051FA:  MOVLW  04
051FC:  MOVWF  FA9
051FE:  BCF    FA6.6
05200:  BCF    FA6.7
05202:  BSF    FA6.0
05204:  MOVF   FA8,W
05206:  MOVLB  7
05208:  BTFSC  x27.7
0520A:  BSF    FF2.7
0520C:  MOVLB  4
0520E:  MOVWF  x72
....................    delay_ms(10); 
05210:  MOVLW  0A
05212:  MOVLB  7
05214:  MOVWF  x2D
05216:  MOVLB  0
05218:  CALL   1796
....................    Tsecadop[1]=read_eeprom(5); 
0521C:  MOVFF  FF2,727
05220:  BCF    FF2.7
05222:  CLRF   FAA
05224:  MOVLW  05
05226:  MOVWF  FA9
05228:  BCF    FA6.6
0522A:  BCF    FA6.7
0522C:  BSF    FA6.0
0522E:  MOVF   FA8,W
05230:  MOVLB  7
05232:  BTFSC  x27.7
05234:  BSF    FF2.7
05236:  MOVLB  4
05238:  MOVWF  x73
....................    delay_ms(10); 
0523A:  MOVLW  0A
0523C:  MOVLB  7
0523E:  MOVWF  x2D
05240:  MOVLB  0
05242:  CALL   1796
....................    Tsecadop[2]=read_eeprom(6); 
05246:  MOVFF  FF2,727
0524A:  BCF    FF2.7
0524C:  CLRF   FAA
0524E:  MOVLW  06
05250:  MOVWF  FA9
05252:  BCF    FA6.6
05254:  BCF    FA6.7
05256:  BSF    FA6.0
05258:  MOVF   FA8,W
0525A:  MOVLB  7
0525C:  BTFSC  x27.7
0525E:  BSF    FF2.7
05260:  MOVLB  4
05262:  MOVWF  x74
....................    delay_ms(10); 
05264:  MOVLW  0A
05266:  MOVLB  7
05268:  MOVWF  x2D
0526A:  MOVLB  0
0526C:  CALL   1796
....................    Tsecadop[3]=read_eeprom(7); 
05270:  MOVFF  FF2,727
05274:  BCF    FF2.7
05276:  CLRF   FAA
05278:  MOVLW  07
0527A:  MOVWF  FA9
0527C:  BCF    FA6.6
0527E:  BCF    FA6.7
05280:  BSF    FA6.0
05282:  MOVF   FA8,W
05284:  MOVLB  7
05286:  BTFSC  x27.7
05288:  BSF    FF2.7
0528A:  MOVLB  4
0528C:  MOVWF  x75
....................    delay_ms(10); 
0528E:  MOVLW  0A
05290:  MOVLB  7
05292:  MOVWF  x2D
05294:  MOVLB  0
05296:  CALL   1796
....................    Setpoint=read_eeprom(8); 
0529A:  MOVFF  FF2,727
0529E:  BCF    FF2.7
052A0:  CLRF   FAA
052A2:  MOVLW  08
052A4:  MOVWF  FA9
052A6:  BCF    FA6.6
052A8:  BCF    FA6.7
052AA:  BSF    FA6.0
052AC:  MOVF   FA8,W
052AE:  MOVLB  7
052B0:  BTFSC  x27.7
052B2:  BSF    FF2.7
052B4:  MOVLB  6
052B6:  MOVWF  xDD
....................    delay_ms(10); 
052B8:  MOVLW  0A
052BA:  MOVLB  7
052BC:  MOVWF  x2D
052BE:  MOVLB  0
052C0:  CALL   1796
....................    Nivel=read_eeprom(9); 
052C4:  MOVFF  FF2,727
052C8:  BCF    FF2.7
052CA:  CLRF   FAA
052CC:  MOVLW  09
052CE:  MOVWF  FA9
052D0:  BCF    FA6.6
052D2:  BCF    FA6.7
052D4:  BSF    FA6.0
052D6:  MOVF   FA8,W
052D8:  MOVLB  7
052DA:  BTFSC  x27.7
052DC:  BSF    FF2.7
052DE:  MOVLB  6
052E0:  CLRF   xE8
052E2:  MOVWF  xE7
....................    delay_ms(10); 
052E4:  MOVLW  0A
052E6:  MOVLB  7
052E8:  MOVWF  x2D
052EA:  MOVLB  0
052EC:  CALL   1796
....................    Password[0]=read_eeprom(10); 
052F0:  MOVFF  FF2,727
052F4:  BCF    FF2.7
052F6:  CLRF   FAA
052F8:  MOVLW  0A
052FA:  MOVWF  FA9
052FC:  BCF    FA6.6
052FE:  BCF    FA6.7
05300:  BSF    FA6.0
05302:  MOVF   FA8,W
05304:  MOVLB  7
05306:  BTFSC  x27.7
05308:  BSF    FF2.7
0530A:  MOVLB  6
0530C:  MOVWF  xF7
....................    delay_ms(10); 
0530E:  MOVLW  0A
05310:  MOVLB  7
05312:  MOVWF  x2D
05314:  MOVLB  0
05316:  CALL   1796
....................    Password[1]=read_eeprom(11); 
0531A:  MOVFF  FF2,727
0531E:  BCF    FF2.7
05320:  CLRF   FAA
05322:  MOVLW  0B
05324:  MOVWF  FA9
05326:  BCF    FA6.6
05328:  BCF    FA6.7
0532A:  BSF    FA6.0
0532C:  MOVF   FA8,W
0532E:  MOVLB  7
05330:  BTFSC  x27.7
05332:  BSF    FF2.7
05334:  MOVLB  6
05336:  MOVWF  xF8
....................    delay_ms(10); 
05338:  MOVLW  0A
0533A:  MOVLB  7
0533C:  MOVWF  x2D
0533E:  MOVLB  0
05340:  CALL   1796
....................    Password[2]=read_eeprom(12); 
05344:  MOVFF  FF2,727
05348:  BCF    FF2.7
0534A:  CLRF   FAA
0534C:  MOVLW  0C
0534E:  MOVWF  FA9
05350:  BCF    FA6.6
05352:  BCF    FA6.7
05354:  BSF    FA6.0
05356:  MOVF   FA8,W
05358:  MOVLB  7
0535A:  BTFSC  x27.7
0535C:  BSF    FF2.7
0535E:  MOVLB  6
05360:  MOVWF  xF9
....................    delay_ms(10); 
05362:  MOVLW  0A
05364:  MOVLB  7
05366:  MOVWF  x2D
05368:  MOVLB  0
0536A:  CALL   1796
....................    Password[3]=read_eeprom(13); 
0536E:  MOVFF  FF2,727
05372:  BCF    FF2.7
05374:  CLRF   FAA
05376:  MOVLW  0D
05378:  MOVWF  FA9
0537A:  BCF    FA6.6
0537C:  BCF    FA6.7
0537E:  BSF    FA6.0
05380:  MOVF   FA8,W
05382:  MOVLB  7
05384:  BTFSC  x27.7
05386:  BSF    FF2.7
05388:  MOVLB  6
0538A:  MOVWF  xFA
....................    delay_ms(10); 
0538C:  MOVLW  0A
0538E:  MOVLB  7
05390:  MOVWF  x2D
05392:  MOVLB  0
05394:  CALL   1796
....................    Ganancia=read_eeprom(20); 
05398:  MOVFF  FF2,727
0539C:  BCF    FF2.7
0539E:  CLRF   FAA
053A0:  MOVLW  14
053A2:  MOVWF  FA9
053A4:  BCF    FA6.6
053A6:  BCF    FA6.7
053A8:  BSF    FA6.0
053AA:  MOVF   FA8,W
053AC:  MOVLB  7
053AE:  BTFSC  x27.7
053B0:  BSF    FF2.7
053B2:  CLRF   x2E
053B4:  MOVWF  x2D
053B6:  MOVLB  0
053B8:  CALL   17BE
053BC:  MOVFF  03,6A3
053C0:  MOVFF  02,6A2
053C4:  MOVFF  01,6A1
053C8:  MOVFF  00,6A0
....................    delay_ms(10); 
053CC:  MOVLW  0A
053CE:  MOVLB  7
053D0:  MOVWF  x2D
053D2:  MOVLB  0
053D4:  CALL   1796
....................    Ajuste=read_eeprom(21); 
053D8:  MOVFF  FF2,727
053DC:  BCF    FF2.7
053DE:  CLRF   FAA
053E0:  MOVLW  15
053E2:  MOVWF  FA9
053E4:  BCF    FA6.6
053E6:  BCF    FA6.7
053E8:  BSF    FA6.0
053EA:  MOVF   FA8,W
053EC:  MOVLB  7
053EE:  BTFSC  x27.7
053F0:  BSF    FF2.7
053F2:  MOVLB  6
053F4:  MOVWF  x78
....................    delay_ms(10); 
053F6:  MOVLW  0A
053F8:  MOVLB  7
053FA:  MOVWF  x2D
053FC:  MOVLB  0
053FE:  CALL   1796
....................    Ajusten=read_eeprom(22); 
05402:  MOVFF  FF2,727
05406:  BCF    FF2.7
05408:  CLRF   FAA
0540A:  MOVLW  16
0540C:  MOVWF  FA9
0540E:  BCF    FA6.6
05410:  BCF    FA6.7
05412:  BSF    FA6.0
05414:  MOVF   FA8,W
05416:  MOVLB  7
05418:  BTFSC  x27.7
0541A:  BSF    FF2.7
0541C:  MOVLB  6
0541E:  MOVWF  x79
....................    delay_ms(10); 
05420:  MOVLW  0A
05422:  MOVLB  7
05424:  MOVWF  x2D
05426:  MOVLB  0
05428:  CALL   1796
....................    //Desvio=read_eeprom(23); 
....................    MediaMovil=read_eeprom(24); 
0542C:  MOVFF  FF2,727
05430:  BCF    FF2.7
05432:  CLRF   FAA
05434:  MOVLW  18
05436:  MOVWF  FA9
05438:  BCF    FA6.6
0543A:  BCF    FA6.7
0543C:  BSF    FA6.0
0543E:  MOVF   FA8,W
05440:  MOVLB  7
05442:  BTFSC  x27.7
05444:  BSF    FF2.7
05446:  MOVLB  6
05448:  MOVWF  x7A
....................    delay_ms(10); 
0544A:  MOVLW  0A
0544C:  MOVLB  7
0544E:  MOVWF  x2D
05450:  MOVLB  0
05452:  CALL   1796
....................    Tciclo=read_eeprom(25); 
05456:  MOVFF  FF2,727
0545A:  BCF    FF2.7
0545C:  CLRF   FAA
0545E:  MOVLW  19
05460:  MOVWF  FA9
05462:  BCF    FA6.6
05464:  BCF    FA6.7
05466:  BSF    FA6.0
05468:  MOVF   FA8,W
0546A:  MOVLB  7
0546C:  BTFSC  x27.7
0546E:  BSF    FF2.7
05470:  CLRF   x2E
05472:  MOVWF  x2D
05474:  MOVLB  0
05476:  CALL   17BE
0547A:  MOVFF  03,68B
0547E:  MOVFF  02,68A
05482:  MOVFF  01,689
05486:  MOVFF  00,688
....................    delay_ms(10); 
0548A:  MOVLW  0A
0548C:  MOVLB  7
0548E:  MOVWF  x2D
05490:  MOVLB  0
05492:  CALL   1796
....................    Integral=read_eeprom(26); 
05496:  MOVFF  FF2,727
0549A:  BCF    FF2.7
0549C:  CLRF   FAA
0549E:  MOVLW  1A
054A0:  MOVWF  FA9
054A2:  BCF    FA6.6
054A4:  BCF    FA6.7
054A6:  BSF    FA6.0
054A8:  MOVF   FA8,W
054AA:  MOVLB  7
054AC:  BTFSC  x27.7
054AE:  BSF    FF2.7
054B0:  MOVLB  6
054B2:  MOVWF  xD0
....................    delay_ms(10); 
054B4:  MOVLW  0A
054B6:  MOVLB  7
054B8:  MOVWF  x2D
054BA:  MOVLB  0
054BC:  CALL   1796
....................    Derivativo=read_eeprom(27); 
054C0:  MOVFF  FF2,727
054C4:  BCF    FF2.7
054C6:  CLRF   FAA
054C8:  MOVLW  1B
054CA:  MOVWF  FA9
054CC:  BCF    FA6.6
054CE:  BCF    FA6.7
054D0:  BSF    FA6.0
054D2:  MOVF   FA8,W
054D4:  MOVLB  7
054D6:  BTFSC  x27.7
054D8:  BSF    FF2.7
054DA:  MOVLB  6
054DC:  MOVWF  xD1
....................    delay_ms(10); 
054DE:  MOVLW  0A
054E0:  MOVLB  7
054E2:  MOVWF  x2D
054E4:  MOVLB  0
054E6:  CALL   1796
....................    Temporal=read_eeprom(29); 
054EA:  MOVFF  FF2,727
054EE:  BCF    FF2.7
054F0:  CLRF   FAA
054F2:  MOVLW  1D
054F4:  MOVWF  FA9
054F6:  BCF    FA6.6
054F8:  BCF    FA6.7
054FA:  BSF    FA6.0
054FC:  MOVF   FA8,W
054FE:  MOVLB  7
05500:  BTFSC  x27.7
05502:  BSF    FF2.7
05504:  CLRF   x2E
05506:  MOVWF  x2D
05508:  MOVLB  0
0550A:  CALL   17BE
0550E:  MOVFF  03,661
05512:  MOVFF  02,660
05516:  MOVFF  01,65F
0551A:  MOVFF  00,65E
....................    Temporal=Temporal/10.0; 
0551E:  MOVFF  661,72F
05522:  MOVFF  660,72E
05526:  MOVFF  65F,72D
0552A:  MOVFF  65E,72C
0552E:  MOVLB  7
05530:  CLRF   x33
05532:  CLRF   x32
05534:  MOVLW  20
05536:  MOVWF  x31
05538:  MOVLW  82
0553A:  MOVWF  x30
0553C:  MOVLB  0
0553E:  CALL   17F4
05542:  MOVFF  03,661
05546:  MOVFF  02,660
0554A:  MOVFF  01,65F
0554E:  MOVFF  00,65E
....................    delay_ms(10); 
05552:  MOVLW  0A
05554:  MOVLB  7
05556:  MOVWF  x2D
05558:  MOVLB  0
0555A:  CALL   1796
....................    Gain=read_eeprom(28)+Temporal; 
0555E:  MOVFF  FF2,727
05562:  BCF    FF2.7
05564:  CLRF   FAA
05566:  MOVLW  1C
05568:  MOVWF  FA9
0556A:  BCF    FA6.6
0556C:  BCF    FA6.7
0556E:  BSF    FA6.0
05570:  MOVF   FA8,W
05572:  MOVLB  7
05574:  BTFSC  x27.7
05576:  BSF    FF2.7
05578:  CLRF   x2E
0557A:  MOVWF  x2D
0557C:  MOVLB  0
0557E:  CALL   17BE
05582:  BCF    FD8.1
05584:  MOVFF  03,72F
05588:  MOVFF  02,72E
0558C:  MOVFF  01,72D
05590:  MOVFF  00,72C
05594:  MOVFF  661,733
05598:  MOVFF  660,732
0559C:  MOVFF  65F,731
055A0:  MOVFF  65E,730
055A4:  CALL   1952
055A8:  MOVFF  03,659
055AC:  MOVFF  02,658
055B0:  MOVFF  01,657
055B4:  MOVFF  00,656
....................    delay_ms(10); 
055B8:  MOVLW  0A
055BA:  MOVLB  7
055BC:  MOVWF  x2D
055BE:  MOVLB  0
055C0:  CALL   1796
....................    R1=make16(read_eeprom(31),read_eeprom(30)); 
055C4:  MOVFF  FF2,727
055C8:  BCF    FF2.7
055CA:  CLRF   FAA
055CC:  MOVLW  1F
055CE:  MOVWF  FA9
055D0:  BCF    FA6.6
055D2:  BCF    FA6.7
055D4:  BSF    FA6.0
055D6:  MOVF   FA8,W
055D8:  MOVLB  7
055DA:  BTFSC  x27.7
055DC:  BSF    FF2.7
055DE:  MOVWF  x28
055E0:  MOVFF  FF2,729
055E4:  BCF    FF2.7
055E6:  CLRF   FAA
055E8:  MOVLW  1E
055EA:  MOVWF  FA9
055EC:  BCF    FA6.6
055EE:  BCF    FA6.7
055F0:  BSF    FA6.0
055F2:  MOVF   FA8,W
055F4:  BTFSC  x29.7
055F6:  BSF    FF2.7
055F8:  MOVWF  x2A
055FA:  MOVFF  728,03
055FE:  MOVF   x2A,W
05600:  MOVWF  x2D
05602:  MOVFF  03,72E
05606:  MOVLB  0
05608:  CALL   17BE
0560C:  MOVFF  03,683
05610:  MOVFF  02,682
05614:  MOVFF  01,681
05618:  MOVFF  00,680
....................    delay_ms(10); 
0561C:  MOVLW  0A
0561E:  MOVLB  7
05620:  MOVWF  x2D
05622:  MOVLB  0
05624:  CALL   1796
....................    Temporal=read_eeprom(33); 
05628:  MOVFF  FF2,727
0562C:  BCF    FF2.7
0562E:  CLRF   FAA
05630:  MOVLW  21
05632:  MOVWF  FA9
05634:  BCF    FA6.6
05636:  BCF    FA6.7
05638:  BSF    FA6.0
0563A:  MOVF   FA8,W
0563C:  MOVLB  7
0563E:  BTFSC  x27.7
05640:  BSF    FF2.7
05642:  CLRF   x2E
05644:  MOVWF  x2D
05646:  MOVLB  0
05648:  CALL   17BE
0564C:  MOVFF  03,661
05650:  MOVFF  02,660
05654:  MOVFF  01,65F
05658:  MOVFF  00,65E
....................    Temporal=Temporal/10.0; 
0565C:  MOVFF  661,72F
05660:  MOVFF  660,72E
05664:  MOVFF  65F,72D
05668:  MOVFF  65E,72C
0566C:  MOVLB  7
0566E:  CLRF   x33
05670:  CLRF   x32
05672:  MOVLW  20
05674:  MOVWF  x31
05676:  MOVLW  82
05678:  MOVWF  x30
0567A:  MOVLB  0
0567C:  CALL   17F4
05680:  MOVFF  03,661
05684:  MOVFF  02,660
05688:  MOVFF  01,65F
0568C:  MOVFF  00,65E
....................    delay_ms(10); 
05690:  MOVLW  0A
05692:  MOVLB  7
05694:  MOVWF  x2D
05696:  MOVLB  0
05698:  CALL   1796
....................    RPT100=read_eeprom(32)+Temporal; 
0569C:  MOVFF  FF2,727
056A0:  BCF    FF2.7
056A2:  CLRF   FAA
056A4:  MOVLW  20
056A6:  MOVWF  FA9
056A8:  BCF    FA6.6
056AA:  BCF    FA6.7
056AC:  BSF    FA6.0
056AE:  MOVF   FA8,W
056B0:  MOVLB  7
056B2:  BTFSC  x27.7
056B4:  BSF    FF2.7
056B6:  CLRF   x2E
056B8:  MOVWF  x2D
056BA:  MOVLB  0
056BC:  CALL   17BE
056C0:  BCF    FD8.1
056C2:  MOVFF  03,72F
056C6:  MOVFF  02,72E
056CA:  MOVFF  01,72D
056CE:  MOVFF  00,72C
056D2:  MOVFF  661,733
056D6:  MOVFF  660,732
056DA:  MOVFF  65F,731
056DE:  MOVFF  65E,730
056E2:  CALL   1952
056E6:  MOVFF  03,65D
056EA:  MOVFF  02,65C
056EE:  MOVFF  01,65B
056F2:  MOVFF  00,65A
....................    delay_ms(10); 
056F6:  MOVLW  0A
056F8:  MOVLB  7
056FA:  MOVWF  x2D
056FC:  MOVLB  0
056FE:  CALL   1796
....................    CiclosL=read_eeprom(37); 
05702:  MOVFF  FF2,727
05706:  BCF    FF2.7
05708:  CLRF   FAA
0570A:  MOVLW  25
0570C:  MOVWF  FA9
0570E:  BCF    FA6.6
05710:  BCF    FA6.7
05712:  BSF    FA6.0
05714:  MOVF   FA8,W
05716:  MOVLB  7
05718:  BTFSC  x27.7
0571A:  BSF    FF2.7
0571C:  MOVLB  6
0571E:  MOVWF  xDB
....................    delay_ms(10); 
05720:  MOVLW  0A
05722:  MOVLB  7
05724:  MOVWF  x2D
05726:  MOVLB  0
05728:  CALL   1796
....................    CiclosH=read_eeprom(38); 
0572C:  MOVFF  FF2,727
05730:  BCF    FF2.7
05732:  CLRF   FAA
05734:  MOVLW  26
05736:  MOVWF  FA9
05738:  BCF    FA6.6
0573A:  BCF    FA6.7
0573C:  BSF    FA6.0
0573E:  MOVF   FA8,W
05740:  MOVLB  7
05742:  BTFSC  x27.7
05744:  BSF    FF2.7
05746:  MOVLB  6
05748:  MOVWF  xDC
....................    delay_ms(10); 
0574A:  MOVLW  0A
0574C:  MOVLB  7
0574E:  MOVWF  x2D
05750:  MOVLB  0
05752:  CALL   1796
....................    Ciclos=make16(CiclosH,CiclosL); 
05756:  MOVFF  6DC,6F0
0575A:  MOVFF  6DB,6EF
....................    delay_ms(10); 
0575E:  MOVLW  0A
05760:  MOVLB  7
05762:  MOVWF  x2D
05764:  MOVLB  0
05766:  CALL   1796
....................    TTrampa=read_eeprom(39); 
0576A:  MOVFF  FF2,727
0576E:  BCF    FF2.7
05770:  CLRF   FAA
05772:  MOVLW  27
05774:  MOVWF  FA9
05776:  BCF    FA6.6
05778:  BCF    FA6.7
0577A:  BSF    FA6.0
0577C:  MOVF   FA8,W
0577E:  MOVLB  7
05780:  BTFSC  x27.7
05782:  BSF    FF2.7
05784:  MOVLB  6
05786:  MOVWF  x7B
....................    delay_ms(10); 
05788:  MOVLW  0A
0578A:  MOVLB  7
0578C:  MOVWF  x2D
0578E:  MOVLB  0
05790:  CALL   1796
....................     
....................    if(Testerilizacionp[0]>9)Testerilizacionp[0]=0; 
05794:  MOVLB  4
05796:  BTFSC  x6A.7
05798:  BRA    57A2
0579A:  MOVF   x6A,W
0579C:  SUBLW  09
0579E:  BTFSS  FD8.0
057A0:  CLRF   x6A
....................    if(Testerilizacionp[1]>9)Testerilizacionp[1]=0; 
057A2:  BTFSC  x6B.7
057A4:  BRA    57AE
057A6:  MOVF   x6B,W
057A8:  SUBLW  09
057AA:  BTFSS  FD8.0
057AC:  CLRF   x6B
....................    if(Testerilizacionp[2]>9)Testerilizacionp[2]=0; 
057AE:  BTFSC  x6C.7
057B0:  BRA    57BA
057B2:  MOVF   x6C,W
057B4:  SUBLW  09
057B6:  BTFSS  FD8.0
057B8:  CLRF   x6C
....................    if(Testerilizacionp[3]>9)Testerilizacionp[3]=0; 
057BA:  BTFSC  x6D.7
057BC:  BRA    57C6
057BE:  MOVF   x6D,W
057C0:  SUBLW  09
057C2:  BTFSS  FD8.0
057C4:  CLRF   x6D
....................    if(Password[0]>9)Password[0]=0; 
057C6:  MOVLB  6
057C8:  BTFSC  xF7.7
057CA:  BRA    57D4
057CC:  MOVF   xF7,W
057CE:  SUBLW  09
057D0:  BTFSS  FD8.0
057D2:  CLRF   xF7
....................    if(Password[1]>9)Password[1]=0; 
057D4:  BTFSC  xF8.7
057D6:  BRA    57E0
057D8:  MOVF   xF8,W
057DA:  SUBLW  09
057DC:  BTFSS  FD8.0
057DE:  CLRF   xF8
....................    if(Password[2]>9)Password[2]=0; 
057E0:  BTFSC  xF9.7
057E2:  BRA    57EC
057E4:  MOVF   xF9,W
057E6:  SUBLW  09
057E8:  BTFSS  FD8.0
057EA:  CLRF   xF9
....................    if(Password[3]>9)Password[3]=0; 
057EC:  BTFSC  xFA.7
057EE:  BRA    57F8
057F0:  MOVF   xFA,W
057F2:  SUBLW  09
057F4:  BTFSS  FD8.0
057F6:  CLRF   xFA
....................    if(Ganancia>20.0)Ganancia=15.0; 
057F8:  MOVLB  7
057FA:  CLRF   x2B
057FC:  CLRF   x2A
057FE:  MOVLW  20
05800:  MOVWF  x29
05802:  MOVLW  83
05804:  MOVWF  x28
05806:  MOVFF  6A3,72F
0580A:  MOVFF  6A2,72E
0580E:  MOVFF  6A1,72D
05812:  MOVFF  6A0,72C
05816:  MOVLB  0
05818:  CALL   1BCA
0581C:  BNC   582C
0581E:  MOVLB  6
05820:  CLRF   xA3
05822:  CLRF   xA2
05824:  MOVLW  70
05826:  MOVWF  xA1
05828:  MOVLW  82
0582A:  MOVWF  xA0
....................    if(Integral>10.0)Integral=1.0; 
0582C:  MOVLB  7
0582E:  CLRF   x2E
05830:  MOVFF  6D0,72D
05834:  MOVLB  0
05836:  CALL   17BE
0583A:  MOVLB  7
0583C:  CLRF   x2B
0583E:  CLRF   x2A
05840:  MOVLW  20
05842:  MOVWF  x29
05844:  MOVLW  82
05846:  MOVWF  x28
05848:  MOVFF  03,72F
0584C:  MOVFF  02,72E
05850:  MOVFF  01,72D
05854:  MOVFF  00,72C
05858:  MOVLB  0
0585A:  CALL   1BCA
0585E:  BNC   5866
05860:  MOVLW  01
05862:  MOVLB  6
05864:  MOVWF  xD0
....................    if(Derivativo>90.0)Derivativo=15.0; 
05866:  MOVLB  7
05868:  CLRF   x2E
0586A:  MOVFF  6D1,72D
0586E:  MOVLB  0
05870:  CALL   17BE
05874:  MOVLB  7
05876:  CLRF   x2B
05878:  CLRF   x2A
0587A:  MOVLW  34
0587C:  MOVWF  x29
0587E:  MOVLW  85
05880:  MOVWF  x28
05882:  MOVFF  03,72F
05886:  MOVFF  02,72E
0588A:  MOVFF  01,72D
0588E:  MOVFF  00,72C
05892:  MOVLB  0
05894:  CALL   1BCA
05898:  BNC   58A0
0589A:  MOVLW  0F
0589C:  MOVLB  6
0589E:  MOVWF  xD1
....................    if(Tciclo>10)Tciclo=10; 
058A0:  MOVLB  7
058A2:  CLRF   x2B
058A4:  CLRF   x2A
058A6:  MOVLW  20
058A8:  MOVWF  x29
058AA:  MOVLW  82
058AC:  MOVWF  x28
058AE:  MOVFF  68B,72F
058B2:  MOVFF  68A,72E
058B6:  MOVFF  689,72D
058BA:  MOVFF  688,72C
058BE:  MOVLB  0
058C0:  CALL   1BCA
058C4:  BNC   58D4
058C6:  MOVLB  6
058C8:  CLRF   x8B
058CA:  CLRF   x8A
058CC:  MOVLW  20
058CE:  MOVWF  x89
058D0:  MOVLW  82
058D2:  MOVWF  x88
....................    if(Ajuste>50)Ajuste=0; 
058D4:  MOVLB  6
058D6:  MOVF   x78,W
058D8:  SUBLW  32
058DA:  BTFSS  FD8.0
058DC:  CLRF   x78
....................    if(Ajusten>50)Ajusten=0; 
058DE:  MOVF   x79,W
058E0:  SUBLW  32
058E2:  BTFSS  FD8.0
058E4:  CLRF   x79
....................    if(MediaMovil>80)MediaMovil=80; 
058E6:  MOVF   x7A,W
058E8:  SUBLW  50
058EA:  BC    58F0
058EC:  MOVLW  50
058EE:  MOVWF  x7A
....................    if(Gain>50)Gain=40.2; 
058F0:  MOVLB  7
058F2:  CLRF   x2B
058F4:  CLRF   x2A
058F6:  MOVLW  48
058F8:  MOVWF  x29
058FA:  MOVLW  84
058FC:  MOVWF  x28
058FE:  MOVFF  659,72F
05902:  MOVFF  658,72E
05906:  MOVFF  657,72D
0590A:  MOVFF  656,72C
0590E:  MOVLB  0
05910:  CALL   1BCA
05914:  BNC   5928
05916:  MOVLW  CD
05918:  MOVLB  6
0591A:  MOVWF  x59
0591C:  MOVLW  CC
0591E:  MOVWF  x58
05920:  MOVLW  20
05922:  MOVWF  x57
05924:  MOVLW  84
05926:  MOVWF  x56
....................    if(R1>6400)R1=6200; 
05928:  MOVLB  7
0592A:  CLRF   x2B
0592C:  CLRF   x2A
0592E:  MOVLW  48
05930:  MOVWF  x29
05932:  MOVLW  8B
05934:  MOVWF  x28
05936:  MOVFF  683,72F
0593A:  MOVFF  682,72E
0593E:  MOVFF  681,72D
05942:  MOVFF  680,72C
05946:  MOVLB  0
05948:  CALL   1BCA
0594C:  BNC   595E
0594E:  MOVLB  6
05950:  CLRF   x83
05952:  MOVLW  C0
05954:  MOVWF  x82
05956:  MOVLW  41
05958:  MOVWF  x81
0595A:  MOVLW  8B
0595C:  MOVWF  x80
....................    if(RPT100>2.0)RPT100=0.5; 
0595E:  MOVLB  7
05960:  CLRF   x2B
05962:  CLRF   x2A
05964:  CLRF   x29
05966:  MOVLW  80
05968:  MOVWF  x28
0596A:  MOVFF  65D,72F
0596E:  MOVFF  65C,72E
05972:  MOVFF  65B,72D
05976:  MOVFF  65A,72C
0597A:  MOVLB  0
0597C:  CALL   1BCA
05980:  BNC   598E
05982:  MOVLB  6
05984:  CLRF   x5D
05986:  CLRF   x5C
05988:  CLRF   x5B
0598A:  MOVLW  7E
0598C:  MOVWF  x5A
....................    if(Ciclos>60000)Ciclos=0; 
0598E:  MOVLB  6
05990:  MOVF   xF0,W
05992:  SUBLW  E9
05994:  BC    59A4
05996:  XORLW  FF
05998:  BNZ   59A0
0599A:  MOVF   xEF,W
0599C:  SUBLW  60
0599E:  BC    59A4
059A0:  CLRF   xF0
059A2:  CLRF   xEF
....................    if(TTrampa>100)TTrampa=80; 
059A4:  MOVF   x7B,W
059A6:  SUBLW  64
059A8:  BC    59AE
059AA:  MOVLW  50
059AC:  MOVWF  x7B
....................     
.................... //Mensaje Bienvenida//-----------------------------    
....................    glcd_init(ON);             //Inicializa la glcd 
059AE:  MOVLW  01
059B0:  MOVLB  7
059B2:  MOVWF  x27
059B4:  MOVLB  0
059B6:  CALL   1D8C
....................    glcd_fillScreen(OFF);      //Limpia la pantalla 
059BA:  MOVLB  7
059BC:  CLRF   x28
059BE:  MOVLB  0
059C0:  CALL   1C7A
....................    strcpy(Menus.Letra,"JP Inglobal"); 
059C4:  MOVLW  07
059C6:  MOVWF  FEA
059C8:  MOVLW  03
059CA:  MOVWF  FE9
059CC:  MOVFF  FF2,727
059D0:  BCF    FF2.7
059D2:  MOVLW  00
059D4:  CALL   07F2
059D8:  TBLRD*-
059DA:  TBLRD*+
059DC:  MOVF   FF5,W
059DE:  MOVWF  FEE
059E0:  IORLW  00
059E2:  BNZ   59DA
059E4:  MOVLB  7
059E6:  BTFSC  x27.7
059E8:  BSF    FF2.7
....................    displayMenu(Menus.Letra,0,0,0,2);      
059EA:  MOVLW  07
059EC:  MOVWF  x28
059EE:  MOVLW  03
059F0:  MOVWF  x27
059F2:  CLRF   x29
059F4:  CLRF   x2A
059F6:  CLRF   x2B
059F8:  MOVLW  02
059FA:  MOVWF  x2C
059FC:  MOVLB  0
059FE:  CALL   22A8
....................    strcpy(Menus.Letra," Autoclave Horizontal"); 
05A02:  MOVLW  07
05A04:  MOVWF  FEA
05A06:  MOVLW  03
05A08:  MOVWF  FE9
05A0A:  MOVFF  FF2,727
05A0E:  BCF    FF2.7
05A10:  MOVLW  00
05A12:  CALL   081C
05A16:  TBLRD*-
05A18:  TBLRD*+
05A1A:  MOVF   FF5,W
05A1C:  MOVWF  FEE
05A1E:  IORLW  00
05A20:  BNZ   5A18
05A22:  MOVLB  7
05A24:  BTFSC  x27.7
05A26:  BSF    FF2.7
....................    displayMenu(Menus.Letra,0,20,0,1);        
05A28:  MOVLW  07
05A2A:  MOVWF  x28
05A2C:  MOVLW  03
05A2E:  MOVWF  x27
05A30:  CLRF   x29
05A32:  MOVLW  14
05A34:  MOVWF  x2A
05A36:  CLRF   x2B
05A38:  MOVLW  01
05A3A:  MOVWF  x2C
05A3C:  MOVLB  0
05A3E:  CALL   22A8
....................    strcpy(Menus.Letra," 52 Litros  "); 
05A42:  MOVLW  07
05A44:  MOVWF  FEA
05A46:  MOVLW  03
05A48:  MOVWF  FE9
05A4A:  MOVFF  FF2,727
05A4E:  BCF    FF2.7
05A50:  MOVLW  00
05A52:  CALL   0850
05A56:  TBLRD*-
05A58:  TBLRD*+
05A5A:  MOVF   FF5,W
05A5C:  MOVWF  FEE
05A5E:  IORLW  00
05A60:  BNZ   5A58
05A62:  MOVLB  7
05A64:  BTFSC  x27.7
05A66:  BSF    FF2.7
....................    displayMenu(Menus.Letra,0,35,0,2); 
05A68:  MOVLW  07
05A6A:  MOVWF  x28
05A6C:  MOVLW  03
05A6E:  MOVWF  x27
05A70:  CLRF   x29
05A72:  MOVLW  23
05A74:  MOVWF  x2A
05A76:  CLRF   x2B
05A78:  MOVLW  02
05A7A:  MOVWF  x2C
05A7C:  MOVLB  0
05A7E:  CALL   22A8
....................    delay_ms(3000); 
05A82:  MOVLW  0C
05A84:  MOVLB  7
05A86:  MOVWF  x27
05A88:  MOVLW  FA
05A8A:  MOVWF  x2D
05A8C:  MOVLB  0
05A8E:  CALL   1796
05A92:  MOVLB  7
05A94:  DECFSZ x27,F
05A96:  BRA    5A88
....................    glcd_fillScreen(OFF);      //Limpia la pantalla 
05A98:  CLRF   x28
05A9A:  MOVLB  0
05A9C:  CALL   1C7A
....................    displayContrasena(Contrasena[0],20,30,1); 
05AA0:  MOVFF  6F3,729
05AA4:  MOVLW  14
05AA6:  MOVLB  7
05AA8:  MOVWF  x2A
05AAA:  MOVLW  1E
05AAC:  MOVWF  x2B
05AAE:  MOVLW  01
05AB0:  MOVWF  x2C
05AB2:  MOVLB  0
05AB4:  CALL   24CE
....................    displayContrasena(Contrasena[1],40,30,0); 
05AB8:  MOVFF  6F4,729
05ABC:  MOVLW  28
05ABE:  MOVLB  7
05AC0:  MOVWF  x2A
05AC2:  MOVLW  1E
05AC4:  MOVWF  x2B
05AC6:  CLRF   x2C
05AC8:  MOVLB  0
05ACA:  CALL   24CE
....................    displayContrasena(Contrasena[2],60,30,0); 
05ACE:  MOVFF  6F5,729
05AD2:  MOVLW  3C
05AD4:  MOVLB  7
05AD6:  MOVWF  x2A
05AD8:  MOVLW  1E
05ADA:  MOVWF  x2B
05ADC:  CLRF   x2C
05ADE:  MOVLB  0
05AE0:  CALL   24CE
....................    displayContrasena(Contrasena[3],80,30,0); 
05AE4:  MOVFF  6F6,729
05AE8:  MOVLW  50
05AEA:  MOVLB  7
05AEC:  MOVWF  x2A
05AEE:  MOVLW  1E
05AF0:  MOVWF  x2B
05AF2:  CLRF   x2C
05AF4:  MOVLB  0
05AF6:  CALL   24CE
....................     
....................    if(UP && DOWN)// && RIGHT && LEFT) 
05AFA:  BSF    F92.4
05AFC:  BTFSC  F80.4
05AFE:  BRA    5B8A
05B00:  BSF    F92.5
05B02:  BTFSC  F80.5
05B04:  BRA    5B8A
....................    { 
....................       delay_ms(500); 
05B06:  MOVLW  02
05B08:  MOVLB  7
05B0A:  MOVWF  x27
05B0C:  MOVLW  FA
05B0E:  MOVWF  x2D
05B10:  MOVLB  0
05B12:  CALL   1796
05B16:  MOVLB  7
05B18:  DECFSZ x27,F
05B1A:  BRA    5B0C
....................       glcd_fillScreen(OFF); 
05B1C:  CLRF   x28
05B1E:  MOVLB  0
05B20:  CALL   1C7A
....................       strcpy(Menus.Letra,"Cargando.."); 
05B24:  MOVLW  07
05B26:  MOVWF  FEA
05B28:  MOVLW  03
05B2A:  MOVWF  FE9
05B2C:  MOVFF  FF2,727
05B30:  BCF    FF2.7
05B32:  MOVLW  00
05B34:  CALL   087C
05B38:  TBLRD*-
05B3A:  TBLRD*+
05B3C:  MOVF   FF5,W
05B3E:  MOVWF  FEE
05B40:  IORLW  00
05B42:  BNZ   5B3A
05B44:  MOVLB  7
05B46:  BTFSC  x27.7
05B48:  BSF    FF2.7
....................       displayMenu(Menus.Letra,0,30,1,1); 
05B4A:  MOVLW  07
05B4C:  MOVWF  x28
05B4E:  MOVLW  03
05B50:  MOVWF  x27
05B52:  CLRF   x29
05B54:  MOVLW  1E
05B56:  MOVWF  x2A
05B58:  MOVLW  01
05B5A:  MOVWF  x2B
05B5C:  MOVWF  x2C
05B5E:  MOVLB  0
05B60:  CALL   22A8
....................       delay_ms(2000); 
05B64:  MOVLW  08
05B66:  MOVLB  7
05B68:  MOVWF  x27
05B6A:  MOVLW  FA
05B6C:  MOVWF  x2D
05B6E:  MOVLB  0
05B70:  CALL   1796
05B74:  MOVLB  7
05B76:  DECFSZ x27,F
05B78:  BRA    5B6A
....................       Menu=100; 
05B7A:  MOVLW  64
05B7C:  MOVLB  6
05B7E:  MOVWF  xD8
....................       glcd_fillScreen(OFF); 
05B80:  MOVLB  7
05B82:  CLRF   x28
05B84:  MOVLB  0
05B86:  CALL   1C7A
....................    } 
....................     
....................    for(i=0;i<MediaMovil;i++){ 
05B8A:  MOVLB  6
05B8C:  CLRF   xDA
05B8E:  MOVF   x7A,W
05B90:  SUBWF  xDA,W
05B92:  BC    5BB4
....................       Temperatura=LeerPT100(MediaMovil); 
05B94:  MOVFF  67A,727
05B98:  MOVLB  0
05B9A:  CALL   2762
05B9E:  MOVFF  03,6BF
05BA2:  MOVFF  02,6BE
05BA6:  MOVFF  01,6BD
05BAA:  MOVFF  00,6BC
....................    } 
05BAE:  MOVLB  6
05BB0:  INCF   xDA,F
05BB2:  BRA    5B8E
....................     
....................    if(RIGHT){ 
05BB4:  BSF    F96.0
05BB6:  BTFSC  F84.0
05BB8:  BRA    5C40
....................       delay_ms(500); 
05BBA:  MOVLW  02
05BBC:  MOVLB  7
05BBE:  MOVWF  x27
05BC0:  MOVLW  FA
05BC2:  MOVWF  x2D
05BC4:  MOVLB  0
05BC6:  CALL   1796
05BCA:  MOVLB  7
05BCC:  DECFSZ x27,F
05BCE:  BRA    5BC0
....................       glcd_fillScreen(OFF); 
05BD0:  CLRF   x28
05BD2:  MOVLB  0
05BD4:  CALL   1C7A
....................       strcpy(Menus.Letra,"Cargando.."); 
05BD8:  MOVLW  07
05BDA:  MOVWF  FEA
05BDC:  MOVLW  03
05BDE:  MOVWF  FE9
05BE0:  MOVFF  FF2,727
05BE4:  BCF    FF2.7
05BE6:  MOVLW  00
05BE8:  CALL   087C
05BEC:  TBLRD*-
05BEE:  TBLRD*+
05BF0:  MOVF   FF5,W
05BF2:  MOVWF  FEE
05BF4:  IORLW  00
05BF6:  BNZ   5BEE
05BF8:  MOVLB  7
05BFA:  BTFSC  x27.7
05BFC:  BSF    FF2.7
....................       displayMenu(Menus.Letra,0,30,1,1); 
05BFE:  MOVLW  07
05C00:  MOVWF  x28
05C02:  MOVLW  03
05C04:  MOVWF  x27
05C06:  CLRF   x29
05C08:  MOVLW  1E
05C0A:  MOVWF  x2A
05C0C:  MOVLW  01
05C0E:  MOVWF  x2B
05C10:  MOVWF  x2C
05C12:  MOVLB  0
05C14:  CALL   22A8
....................       delay_ms(2000); 
05C18:  MOVLW  08
05C1A:  MOVLB  7
05C1C:  MOVWF  x27
05C1E:  MOVLW  FA
05C20:  MOVWF  x2D
05C22:  MOVLB  0
05C24:  CALL   1796
05C28:  MOVLB  7
05C2A:  DECFSZ x27,F
05C2C:  BRA    5C1E
....................       Menu=211; 
05C2E:  MOVLW  D3
05C30:  MOVLB  6
05C32:  MOVWF  xD8
....................       glcd_fillScreen(OFF); 
05C34:  MOVLB  7
05C36:  CLRF   x28
05C38:  MOVLB  0
05C3A:  CALL   1C7A
05C3E:  MOVLB  6
....................    } 
....................     
....................    if(LEFT){ 
05C40:  BSF    F96.1
05C42:  BTFSC  F84.1
05C44:  BRA    5CCA
....................       delay_ms(500); 
05C46:  MOVLW  02
05C48:  MOVLB  7
05C4A:  MOVWF  x27
05C4C:  MOVLW  FA
05C4E:  MOVWF  x2D
05C50:  MOVLB  0
05C52:  CALL   1796
05C56:  MOVLB  7
05C58:  DECFSZ x27,F
05C5A:  BRA    5C4C
....................       glcd_fillScreen(OFF); 
05C5C:  CLRF   x28
05C5E:  MOVLB  0
05C60:  CALL   1C7A
....................       strcpy(Menus.Letra,"Cargando.."); 
05C64:  MOVLW  07
05C66:  MOVWF  FEA
05C68:  MOVLW  03
05C6A:  MOVWF  FE9
05C6C:  MOVFF  FF2,727
05C70:  BCF    FF2.7
05C72:  MOVLW  00
05C74:  CALL   087C
05C78:  TBLRD*-
05C7A:  TBLRD*+
05C7C:  MOVF   FF5,W
05C7E:  MOVWF  FEE
05C80:  IORLW  00
05C82:  BNZ   5C7A
05C84:  MOVLB  7
05C86:  BTFSC  x27.7
05C88:  BSF    FF2.7
....................       displayMenu(Menus.Letra,0,30,1,1); 
05C8A:  MOVLW  07
05C8C:  MOVWF  x28
05C8E:  MOVLW  03
05C90:  MOVWF  x27
05C92:  CLRF   x29
05C94:  MOVLW  1E
05C96:  MOVWF  x2A
05C98:  MOVLW  01
05C9A:  MOVWF  x2B
05C9C:  MOVWF  x2C
05C9E:  MOVLB  0
05CA0:  CALL   22A8
....................       delay_ms(2000); 
05CA4:  MOVLW  08
05CA6:  MOVLB  7
05CA8:  MOVWF  x27
05CAA:  MOVLW  FA
05CAC:  MOVWF  x2D
05CAE:  MOVLB  0
05CB0:  CALL   1796
05CB4:  MOVLB  7
05CB6:  DECFSZ x27,F
05CB8:  BRA    5CAA
....................       Menu=200; 
05CBA:  MOVLW  C8
05CBC:  MOVLB  6
05CBE:  MOVWF  xD8
....................       glcd_fillScreen(OFF); 
05CC0:  MOVLB  7
05CC2:  CLRF   x28
05CC4:  MOVLB  0
05CC6:  CALL   1C7A
....................    } 
....................     
....................    if(Temperatura>60)TTrampa=TTrampa+5; 
05CCA:  MOVLB  7
05CCC:  CLRF   x2B
05CCE:  CLRF   x2A
05CD0:  MOVLW  70
05CD2:  MOVWF  x29
05CD4:  MOVLW  84
05CD6:  MOVWF  x28
05CD8:  MOVFF  6BF,72F
05CDC:  MOVFF  6BE,72E
05CE0:  MOVFF  6BD,72D
05CE4:  MOVFF  6BC,72C
05CE8:  MOVLB  0
05CEA:  CALL   1BCA
05CEE:  BNC   5CF8
05CF0:  MOVLW  05
05CF2:  MOVLB  6
05CF4:  ADDWF  x7B,F
05CF6:  MOVLB  0
....................     
....................    while(true) 
....................    { 
....................       Envio_Esclavos(); 
05CF8:  CALL   2D40
....................       delay_ms(1); 
05CFC:  MOVLW  01
05CFE:  MOVLB  7
05D00:  MOVWF  x2D
05D02:  MOVLB  0
05D04:  CALL   1796
....................       Lectura_Esclavos(); 
05D08:  CALL   329E
....................  
.................... // Tiempo de Muestreo//-------------------------------------- 
....................       if(tiempos3>=20){ 
05D0C:  MOVLB  6
05D0E:  MOVF   xE4,F
05D10:  BNZ   5D18
05D12:  MOVF   xE3,W
05D14:  SUBLW  13
05D16:  BC    5D88
....................          Temperatura=LeerPt100(MediaMovil); 
05D18:  MOVFF  67A,727
05D1C:  MOVLB  0
05D1E:  CALL   2762
05D22:  MOVFF  03,6BF
05D26:  MOVFF  02,6BE
05D2A:  MOVFF  01,6BD
05D2E:  MOVFF  00,6BC
....................          PresionCamara=Leer_Sensor_Presion_Camara(5); 
05D32:  MOVLW  05
05D34:  MOVLB  7
05D36:  MOVWF  x27
05D38:  MOVLB  0
05D3A:  GOTO   3368
05D3E:  MOVFF  03,72A
05D42:  MOVFF  02,729
05D46:  MOVFF  01,728
05D4A:  MOVFF  00,727
05D4E:  CALL   2B16
05D52:  MOVFF  02,6EC
05D56:  MOVFF  01,6EB
....................          PresionPreCamara=Leer_Sensor_Presion_PreCamara(5); 
05D5A:  MOVLW  05
05D5C:  MOVLB  7
05D5E:  MOVWF  x27
05D60:  MOVLB  0
05D62:  GOTO   3566
05D66:  MOVFF  03,72A
05D6A:  MOVFF  02,729
05D6E:  MOVFF  01,728
05D72:  MOVFF  00,727
05D76:  CALL   2B16
05D7A:  MOVFF  02,6EE
05D7E:  MOVFF  01,6ED
....................          tiempos3=0; 
05D82:  MOVLB  6
05D84:  CLRF   xE4
05D86:  CLRF   xE3
....................       } 
....................        
.................... // Monitoreo Parada Emergencia//--------------------------------------       
....................       if(!STOP && !IniciaCiclo && !PruebaEstados){ 
05D88:  BSF    F93.6
05D8A:  BTFSS  F81.6
05D8C:  BRA    5E4E
05D8E:  MOVLB  4
05D90:  BTFSS  x5E.0
05D92:  BRA    5D98
05D94:  MOVLB  6
05D96:  BRA    5E4E
05D98:  BTFSS  x5F.1
05D9A:  BRA    5DA0
05D9C:  MOVLB  6
05D9E:  BRA    5E4E
....................          if(!disp_Stop) 
05DA0:  MOVLB  6
05DA2:  BTFSC  xD6.5
05DA4:  BRA    5DB8
....................          { 
....................             glcd_fillScreen(OFF);disp_Stop=1;Menu=255; 
05DA6:  MOVLB  7
05DA8:  CLRF   x28
05DAA:  MOVLB  0
05DAC:  CALL   1C7A
05DB0:  MOVLB  6
05DB2:  BSF    xD6.5
05DB4:  MOVLW  FF
05DB6:  MOVWF  xD8
....................          } 
....................          DesfogueSuave=OFF; 
05DB8:  MOVLB  4
05DBA:  BCF    x5E.5
....................          Desfogue_on; 
05DBC:  BCF    F8B.5
05DBE:  BCF    F94.5
....................          AguaIn_off; 
05DC0:  BSF    F8B.6
05DC2:  BCF    F94.6
....................          SSR_off; 
05DC4:  BSF    F8B.2
05DC6:  BCF    F94.2
....................          strcpy(Menus.Letra,"  !Parada!");displayMenu(Menus.Letra,0,10,0,2); 
05DC8:  MOVLW  07
05DCA:  MOVWF  FEA
05DCC:  MOVLW  03
05DCE:  MOVWF  FE9
05DD0:  MOVFF  FF2,727
05DD4:  BCF    FF2.7
05DD6:  MOVLW  00
05DD8:  MOVLB  0
05DDA:  CALL   08A6
05DDE:  TBLRD*-
05DE0:  TBLRD*+
05DE2:  MOVF   FF5,W
05DE4:  MOVWF  FEE
05DE6:  IORLW  00
05DE8:  BNZ   5DE0
05DEA:  MOVLB  7
05DEC:  BTFSC  x27.7
05DEE:  BSF    FF2.7
05DF0:  MOVLW  07
05DF2:  MOVWF  x28
05DF4:  MOVLW  03
05DF6:  MOVWF  x27
05DF8:  CLRF   x29
05DFA:  MOVLW  0A
05DFC:  MOVWF  x2A
05DFE:  CLRF   x2B
05E00:  MOVLW  02
05E02:  MOVWF  x2C
05E04:  MOVLB  0
05E06:  CALL   22A8
....................          strcpy(Menus.Letra," !Activada!");displayMenu(Menus.Letra,0,30,0,2); 
05E0A:  MOVLW  07
05E0C:  MOVWF  FEA
05E0E:  MOVLW  03
05E10:  MOVWF  FE9
05E12:  MOVFF  FF2,727
05E16:  BCF    FF2.7
05E18:  MOVLW  00
05E1A:  CALL   08D0
05E1E:  TBLRD*-
05E20:  TBLRD*+
05E22:  MOVF   FF5,W
05E24:  MOVWF  FEE
05E26:  IORLW  00
05E28:  BNZ   5E20
05E2A:  MOVLB  7
05E2C:  BTFSC  x27.7
05E2E:  BSF    FF2.7
05E30:  MOVLW  07
05E32:  MOVWF  x28
05E34:  MOVLW  03
05E36:  MOVWF  x27
05E38:  CLRF   x29
05E3A:  MOVLW  1E
05E3C:  MOVWF  x2A
05E3E:  CLRF   x2B
05E40:  MOVLW  02
05E42:  MOVWF  x2C
05E44:  MOVLB  0
05E46:  CALL   22A8
....................       }else{ 
05E4A:  BRA    5E56
05E4C:  MOVLB  6
....................          if(disp_Stop){ 
05E4E:  BTFSS  xD6.5
05E50:  BRA    5E54
....................             reset_cpu(); 
05E52:  RESET
05E54:  MOVLB  0
....................          } 
....................       } 
....................        
....................       glcd_update(); 
05E56:  CALL   1CD4
....................        
....................       if(UP || DOWN || RIGHT || LEFT) 
05E5A:  BSF    F92.4
05E5C:  BTFSS  F80.4
05E5E:  BRA    5E72
05E60:  BSF    F92.5
05E62:  BTFSS  F80.5
05E64:  BRA    5E72
05E66:  BSF    F96.0
05E68:  BTFSS  F84.0
05E6A:  BRA    5E72
05E6C:  BSF    F96.1
05E6E:  BTFSC  F84.1
05E70:  BRA    5E7A
....................       { 
....................          tinicio=0; 
05E72:  MOVLB  6
05E74:  CLRF   xEA
05E76:  CLRF   xE9
05E78:  MOVLB  0
....................       } 
....................        
....................       while(tinicio>=14400) 
....................       { 
05E7A:  MOVLB  6
05E7C:  MOVF   xEA,W
05E7E:  SUBLW  37
05E80:  BC    5E9E
05E82:  XORLW  FF
05E84:  BNZ   5E8C
05E86:  MOVF   xE9,W
05E88:  SUBLW  3F
05E8A:  BC    5E9E
....................          glcd_fillscreen(OFF); 
05E8C:  MOVLB  7
05E8E:  CLRF   x28
05E90:  MOVLB  0
05E92:  CALL   1C7A
....................          Display_off; 
05E96:  BCF    F8B.7
05E98:  BCF    F94.7
....................       } 
05E9A:  BRA    5E7A
05E9C:  MOVLB  6
....................        
....................        
.................... //_-------------------------------------------------------------------------------------------------------------------------------------------------------- 
....................       if(Menu==0){ //Menu de Contrasea. 
05E9E:  MOVF   xD8,F
05EA0:  BTFSS  FD8.2
05EA2:  BRA    6448
....................        
....................       strcpy(Menus.Letra,"Clave"); 
05EA4:  MOVLW  07
05EA6:  MOVWF  FEA
05EA8:  MOVLW  03
05EAA:  MOVWF  FE9
05EAC:  MOVFF  FF2,727
05EB0:  BCF    FF2.7
05EB2:  MOVLW  00
05EB4:  MOVLB  0
05EB6:  CALL   08FA
05EBA:  TBLRD*-
05EBC:  TBLRD*+
05EBE:  MOVF   FF5,W
05EC0:  MOVWF  FEE
05EC2:  IORLW  00
05EC4:  BNZ   5EBC
05EC6:  MOVLB  7
05EC8:  BTFSC  x27.7
05ECA:  BSF    FF2.7
....................       displayMenu(Menus.Letra,30,0,1,2);      
05ECC:  MOVLW  07
05ECE:  MOVWF  x28
05ED0:  MOVLW  03
05ED2:  MOVWF  x27
05ED4:  MOVLW  1E
05ED6:  MOVWF  x29
05ED8:  CLRF   x2A
05EDA:  MOVLW  01
05EDC:  MOVWF  x2B
05EDE:  MOVLW  02
05EE0:  MOVWF  x2C
05EE2:  MOVLB  0
05EE4:  CALL   22A8
....................        
....................       if(UP)//Si oprime hacia arriba 
05EE8:  BSF    F92.4
05EEA:  BTFSC  F80.4
05EEC:  BRA    5FC6
....................       { 
....................          if(Flanco == 0) 
05EEE:  MOVLB  4
05EF0:  BTFSC  x5F.7
05EF2:  BRA    5FC4
....................          { 
....................             Flanco = 1;delay_ms(30); 
05EF4:  BSF    x5F.7
05EF6:  MOVLW  1E
05EF8:  MOVLB  7
05EFA:  MOVWF  x2D
05EFC:  MOVLB  0
05EFE:  CALL   1796
....................             for(i=1;i<=4;i++) 
05F02:  MOVLW  01
05F04:  MOVLB  6
05F06:  MOVWF  xDA
05F08:  MOVF   xDA,W
05F0A:  SUBLW  04
05F0C:  BNC   5FC2
....................             { 
....................                if(unidad==i) 
05F0E:  MOVF   xDA,W
05F10:  SUBWF  xD9,W
05F12:  BNZ   5F8A
....................                { 
....................                   Contrasena[i-1]++; 
05F14:  MOVLW  01
05F16:  SUBWF  xDA,W
05F18:  CLRF   03
05F1A:  ADDLW  F3
05F1C:  MOVWF  FE9
05F1E:  MOVLW  06
05F20:  ADDWFC 03,W
05F22:  MOVWF  FEA
05F24:  INCF   FEF,F
....................                   if(Contrasena[i-1]>9)    
05F26:  MOVLW  01
05F28:  SUBWF  xDA,W
05F2A:  CLRF   03
05F2C:  ADDLW  F3
05F2E:  MOVWF  FE9
05F30:  MOVLW  06
05F32:  ADDWFC 03,W
05F34:  MOVWF  FEA
05F36:  BTFSC  FEF.7
05F38:  BRA    5F52
05F3A:  MOVF   FEF,W
05F3C:  SUBLW  09
05F3E:  BC    5F52
....................                   { 
....................                      Contrasena[i-1]=0; 
05F40:  MOVLW  01
05F42:  SUBWF  xDA,W
05F44:  CLRF   03
05F46:  ADDLW  F3
05F48:  MOVWF  FE9
05F4A:  MOVLW  06
05F4C:  ADDWFC 03,W
05F4E:  MOVWF  FEA
05F50:  CLRF   FEF
....................                   } 
....................                   displayContrasena(Contrasena[i-1],i*20,30,1); 
05F52:  MOVLW  01
05F54:  SUBWF  xDA,W
05F56:  CLRF   03
05F58:  ADDLW  F3
05F5A:  MOVWF  FE9
05F5C:  MOVLW  06
05F5E:  ADDWFC 03,W
05F60:  MOVWF  FEA
05F62:  MOVFF  FEF,727
05F66:  MOVF   xDA,W
05F68:  MULLW  14
05F6A:  MOVFF  FF3,728
05F6E:  MOVLB  7
05F70:  MOVFF  727,729
05F74:  MOVFF  728,72A
05F78:  MOVLW  1E
05F7A:  MOVWF  x2B
05F7C:  MOVLW  01
05F7E:  MOVWF  x2C
05F80:  MOVLB  0
05F82:  CALL   24CE
....................                } 
....................                else 
05F86:  BRA    5FBC
05F88:  MOVLB  6
....................                { 
....................                   displayContrasena(Contrasena[i-1],i*20,30,0); 
05F8A:  MOVLW  01
05F8C:  SUBWF  xDA,W
05F8E:  CLRF   03
05F90:  ADDLW  F3
05F92:  MOVWF  FE9
05F94:  MOVLW  06
05F96:  ADDWFC 03,W
05F98:  MOVWF  FEA
05F9A:  MOVFF  FEF,727
05F9E:  MOVF   xDA,W
05FA0:  MULLW  14
05FA2:  MOVFF  FF3,728
05FA6:  MOVLB  7
05FA8:  MOVFF  727,729
05FAC:  MOVFF  728,72A
05FB0:  MOVLW  1E
05FB2:  MOVWF  x2B
05FB4:  CLRF   x2C
05FB6:  MOVLB  0
05FB8:  CALL   24CE
....................                } 
....................             } 
05FBC:  MOVLB  6
05FBE:  INCF   xDA,F
05FC0:  BRA    5F08
05FC2:  MOVLB  4
....................          } 
....................       } 
....................          else 
05FC4:  BRA    5FCA
....................             {Flanco = 0;} 
05FC6:  MOVLB  4
05FC8:  BCF    x5F.7
....................              
....................       if(DOWN)//Si oprime hacia abajo 
05FCA:  BSF    F92.5
05FCC:  BTFSC  F80.5
05FCE:  BRA    60A4
....................       { 
....................          if(Flanco2 == 0) 
05FD0:  MOVLB  6
05FD2:  BTFSC  xD6.1
05FD4:  BRA    60A2
....................             {Flanco2 = 1;delay_ms(30); 
05FD6:  BSF    xD6.1
05FD8:  MOVLW  1E
05FDA:  MOVLB  7
05FDC:  MOVWF  x2D
05FDE:  MOVLB  0
05FE0:  CALL   1796
....................                for(i=1;i<=4;i++) 
05FE4:  MOVLW  01
05FE6:  MOVLB  6
05FE8:  MOVWF  xDA
05FEA:  MOVF   xDA,W
05FEC:  SUBLW  04
05FEE:  BNC   60A2
....................                { 
....................                   if(unidad==i) 
05FF0:  MOVF   xDA,W
05FF2:  SUBWF  xD9,W
05FF4:  BNZ   606A
....................                   {Contrasena[i-1]--;  
05FF6:  MOVLW  01
05FF8:  SUBWF  xDA,W
05FFA:  CLRF   03
05FFC:  ADDLW  F3
05FFE:  MOVWF  FE9
06000:  MOVLW  06
06002:  ADDWFC 03,W
06004:  MOVWF  FEA
06006:  DECF   FEF,F
....................                      if(Contrasena[i-1]<0) 
06008:  MOVLW  01
0600A:  SUBWF  xDA,W
0600C:  CLRF   03
0600E:  ADDLW  F3
06010:  MOVWF  FE9
06012:  MOVLW  06
06014:  ADDWFC 03,W
06016:  MOVWF  FEA
06018:  BTFSC  FEF.7
0601A:  BRA    601E
0601C:  BRA    6032
....................                         {Contrasena[i-1]=9;} 
0601E:  MOVLW  01
06020:  SUBWF  xDA,W
06022:  CLRF   03
06024:  ADDLW  F3
06026:  MOVWF  FE9
06028:  MOVLW  06
0602A:  ADDWFC 03,W
0602C:  MOVWF  FEA
0602E:  MOVLW  09
06030:  MOVWF  FEF
....................                    displayContrasena(Contrasena[i-1],i*20,30,1);} 
06032:  MOVLW  01
06034:  SUBWF  xDA,W
06036:  CLRF   03
06038:  ADDLW  F3
0603A:  MOVWF  FE9
0603C:  MOVLW  06
0603E:  ADDWFC 03,W
06040:  MOVWF  FEA
06042:  MOVFF  FEF,727
06046:  MOVF   xDA,W
06048:  MULLW  14
0604A:  MOVFF  FF3,728
0604E:  MOVLB  7
06050:  MOVFF  727,729
06054:  MOVFF  728,72A
06058:  MOVLW  1E
0605A:  MOVWF  x2B
0605C:  MOVLW  01
0605E:  MOVWF  x2C
06060:  MOVLB  0
06062:  CALL   24CE
....................                   else 
06066:  BRA    609C
06068:  MOVLB  6
....................                   {displayContrasena(Contrasena[i-1],i*20,30,0);} 
0606A:  MOVLW  01
0606C:  SUBWF  xDA,W
0606E:  CLRF   03
06070:  ADDLW  F3
06072:  MOVWF  FE9
06074:  MOVLW  06
06076:  ADDWFC 03,W
06078:  MOVWF  FEA
0607A:  MOVFF  FEF,727
0607E:  MOVF   xDA,W
06080:  MULLW  14
06082:  MOVFF  FF3,728
06086:  MOVLB  7
06088:  MOVFF  727,729
0608C:  MOVFF  728,72A
06090:  MOVLW  1E
06092:  MOVWF  x2B
06094:  CLRF   x2C
06096:  MOVLB  0
06098:  CALL   24CE
....................                }       
0609C:  MOVLB  6
0609E:  INCF   xDA,F
060A0:  BRA    5FEA
....................             }      
....................       } 
....................          else 
060A2:  BRA    60A8
....................             {Flanco2 = 0;}   
060A4:  MOVLB  6
060A6:  BCF    xD6.1
....................              
....................       if(RIGHT)//Si oprime RIGHT 
060A8:  BSF    F96.0
060AA:  BTFSC  F84.0
060AC:  BRA    6146
....................       { 
....................          if(Flanco1 == 0) 
060AE:  BTFSC  xD6.0
060B0:  BRA    6144
....................             {Flanco1 = 1;delay_ms(30);unidad++; 
060B2:  BSF    xD6.0
060B4:  MOVLW  1E
060B6:  MOVLB  7
060B8:  MOVWF  x2D
060BA:  MOVLB  0
060BC:  CALL   1796
060C0:  MOVLB  6
060C2:  INCF   xD9,F
....................                for(i=1;i<=4;i++) 
060C4:  MOVLW  01
060C6:  MOVWF  xDA
060C8:  MOVF   xDA,W
060CA:  SUBLW  04
060CC:  BNC   6144
....................                { 
....................                   if(unidad==i) 
060CE:  MOVF   xDA,W
060D0:  SUBWF  xD9,W
060D2:  BNZ   610C
....................                   {displayContrasena(Contrasena[i-1],i*20,30,1);} 
060D4:  MOVLW  01
060D6:  SUBWF  xDA,W
060D8:  CLRF   03
060DA:  ADDLW  F3
060DC:  MOVWF  FE9
060DE:  MOVLW  06
060E0:  ADDWFC 03,W
060E2:  MOVWF  FEA
060E4:  MOVFF  FEF,727
060E8:  MOVF   xDA,W
060EA:  MULLW  14
060EC:  MOVFF  FF3,728
060F0:  MOVLB  7
060F2:  MOVFF  727,729
060F6:  MOVFF  728,72A
060FA:  MOVLW  1E
060FC:  MOVWF  x2B
060FE:  MOVLW  01
06100:  MOVWF  x2C
06102:  MOVLB  0
06104:  CALL   24CE
....................                   else 
06108:  BRA    613E
0610A:  MOVLB  6
....................                   {displayContrasena(Contrasena[i-1],i*20,30,0);} 
0610C:  MOVLW  01
0610E:  SUBWF  xDA,W
06110:  CLRF   03
06112:  ADDLW  F3
06114:  MOVWF  FE9
06116:  MOVLW  06
06118:  ADDWFC 03,W
0611A:  MOVWF  FEA
0611C:  MOVFF  FEF,727
06120:  MOVF   xDA,W
06122:  MULLW  14
06124:  MOVFF  FF3,728
06128:  MOVLB  7
0612A:  MOVFF  727,729
0612E:  MOVFF  728,72A
06132:  MOVLW  1E
06134:  MOVWF  x2B
06136:  CLRF   x2C
06138:  MOVLB  0
0613A:  CALL   24CE
....................                } 
0613E:  MOVLB  6
06140:  INCF   xDA,F
06142:  BRA    60C8
....................             } 
....................       } 
....................          else 
06144:  BRA    6148
....................             {Flanco1 = 0;}   
06146:  BCF    xD6.0
....................      
....................       if(unidad>4) 
06148:  MOVF   xD9,W
0614A:  SUBLW  04
0614C:  BTFSC  FD8.0
0614E:  BRA    6448
....................       {glcd_fillScreen(OFF);unidad=4; 
06150:  MOVLB  7
06152:  CLRF   x28
06154:  MOVLB  0
06156:  CALL   1C7A
0615A:  MOVLW  04
0615C:  MOVLB  6
0615E:  MOVWF  xD9
....................          if(Contrasena[0]==3&&Contrasena[1]==8&&Contrasena[2]==9&&Contrasena[3]==2) // Si Ingresa clave para reset general del sistema. 
06160:  MOVF   xF3,W
06162:  SUBLW  03
06164:  BTFSS  FD8.2
06166:  BRA    6256
06168:  MOVF   xF4,W
0616A:  SUBLW  08
0616C:  BNZ   6256
0616E:  MOVF   xF5,W
06170:  SUBLW  09
06172:  BNZ   6256
06174:  MOVF   xF6,W
06176:  SUBLW  02
06178:  BNZ   6256
....................             {write_eeprom(10,0);delay_ms(20);write_eeprom(11,0);delay_ms(20);// Reestablece a contrasea de Fabrica y reinicia Programa. 
0617A:  CLRF   FAA
0617C:  MOVLW  0A
0617E:  MOVWF  FA9
06180:  CLRF   FA8
06182:  BCF    FA6.6
06184:  BCF    FA6.7
06186:  BSF    FA6.2
06188:  MOVF   FF2,W
0618A:  MOVWF  00
0618C:  BCF    FF2.7
0618E:  MOVLB  F
06190:  MOVLW  55
06192:  MOVWF  FA7
06194:  MOVLW  AA
06196:  MOVWF  FA7
06198:  BSF    FA6.1
0619A:  BTFSC  FA6.1
0619C:  BRA    619A
0619E:  BCF    FA6.2
061A0:  MOVF   00,W
061A2:  IORWF  FF2,F
061A4:  MOVLW  14
061A6:  MOVLB  7
061A8:  MOVWF  x2D
061AA:  MOVLB  0
061AC:  CALL   1796
061B0:  CLRF   FAA
061B2:  MOVLW  0B
061B4:  MOVWF  FA9
061B6:  CLRF   FA8
061B8:  BCF    FA6.6
061BA:  BCF    FA6.7
061BC:  BSF    FA6.2
061BE:  MOVF   FF2,W
061C0:  MOVWF  00
061C2:  BCF    FF2.7
061C4:  MOVLB  F
061C6:  MOVLW  55
061C8:  MOVWF  FA7
061CA:  MOVLW  AA
061CC:  MOVWF  FA7
061CE:  BSF    FA6.1
061D0:  BTFSC  FA6.1
061D2:  BRA    61D0
061D4:  BCF    FA6.2
061D6:  MOVF   00,W
061D8:  IORWF  FF2,F
061DA:  MOVLW  14
061DC:  MOVLB  7
061DE:  MOVWF  x2D
061E0:  MOVLB  0
061E2:  CALL   1796
....................              write_eeprom(12,0);delay_ms(20);write_eeprom(13,0);delay_ms(20); 
061E6:  CLRF   FAA
061E8:  MOVLW  0C
061EA:  MOVWF  FA9
061EC:  CLRF   FA8
061EE:  BCF    FA6.6
061F0:  BCF    FA6.7
061F2:  BSF    FA6.2
061F4:  MOVF   FF2,W
061F6:  MOVWF  00
061F8:  BCF    FF2.7
061FA:  MOVLB  F
061FC:  MOVLW  55
061FE:  MOVWF  FA7
06200:  MOVLW  AA
06202:  MOVWF  FA7
06204:  BSF    FA6.1
06206:  BTFSC  FA6.1
06208:  BRA    6206
0620A:  BCF    FA6.2
0620C:  MOVF   00,W
0620E:  IORWF  FF2,F
06210:  MOVLW  14
06212:  MOVLB  7
06214:  MOVWF  x2D
06216:  MOVLB  0
06218:  CALL   1796
0621C:  CLRF   FAA
0621E:  MOVLW  0D
06220:  MOVWF  FA9
06222:  CLRF   FA8
06224:  BCF    FA6.6
06226:  BCF    FA6.7
06228:  BSF    FA6.2
0622A:  MOVF   FF2,W
0622C:  MOVWF  00
0622E:  BCF    FF2.7
06230:  MOVLB  F
06232:  MOVLW  55
06234:  MOVWF  FA7
06236:  MOVLW  AA
06238:  MOVWF  FA7
0623A:  BSF    FA6.1
0623C:  BTFSC  FA6.1
0623E:  BRA    623C
06240:  BCF    FA6.2
06242:  MOVF   00,W
06244:  IORWF  FF2,F
06246:  MOVLW  14
06248:  MOVLB  7
0624A:  MOVWF  x2D
0624C:  MOVLB  0
0624E:  CALL   1796
....................              reset_cpu();}         
06252:  RESET
06254:  MOVLB  6
....................           
....................          if((Contrasena[0]==Password[0])&&(Contrasena[1]==Password[1])&&(Contrasena[2]==Password[2])&&(Contrasena[3]==Password[3])) 
06256:  MOVF   xF7,W
06258:  SUBWF  xF3,W
0625A:  BNZ   632C
0625C:  MOVF   xF8,W
0625E:  SUBWF  xF4,W
06260:  BNZ   632C
06262:  MOVF   xF9,W
06264:  SUBWF  xF5,W
06266:  BNZ   632C
06268:  MOVF   xFA,W
0626A:  SUBWF  xF6,W
0626C:  BNZ   632C
....................          { 
....................             glcd_fillScreen(OFF); 
0626E:  MOVLB  7
06270:  CLRF   x28
06272:  MOVLB  0
06274:  CALL   1C7A
....................             strcpy(Menus.Letra,"Clave"); 
06278:  MOVLW  07
0627A:  MOVWF  FEA
0627C:  MOVLW  03
0627E:  MOVWF  FE9
06280:  MOVFF  FF2,727
06284:  BCF    FF2.7
06286:  MOVLW  00
06288:  CALL   08FA
0628C:  TBLRD*-
0628E:  TBLRD*+
06290:  MOVF   FF5,W
06292:  MOVWF  FEE
06294:  IORLW  00
06296:  BNZ   628E
06298:  MOVLB  7
0629A:  BTFSC  x27.7
0629C:  BSF    FF2.7
....................             displayMenu(Menus.Letra,30,0,0,2); 
0629E:  MOVLW  07
062A0:  MOVWF  x28
062A2:  MOVLW  03
062A4:  MOVWF  x27
062A6:  MOVLW  1E
062A8:  MOVWF  x29
062AA:  CLRF   x2A
062AC:  CLRF   x2B
062AE:  MOVLW  02
062B0:  MOVWF  x2C
062B2:  MOVLB  0
062B4:  CALL   22A8
....................             strcpy(Menus.Letra,"Correcta"); 
062B8:  MOVLW  07
062BA:  MOVWF  FEA
062BC:  MOVLW  03
062BE:  MOVWF  FE9
062C0:  MOVFF  FF2,727
062C4:  BCF    FF2.7
062C6:  MOVLW  00
062C8:  CALL   091E
062CC:  TBLRD*-
062CE:  TBLRD*+
062D0:  MOVF   FF5,W
062D2:  MOVWF  FEE
062D4:  IORLW  00
062D6:  BNZ   62CE
062D8:  MOVLB  7
062DA:  BTFSC  x27.7
062DC:  BSF    FF2.7
....................             displayMenu(Menus.Letra,15,30,0,2); 
062DE:  MOVLW  07
062E0:  MOVWF  x28
062E2:  MOVLW  03
062E4:  MOVWF  x27
062E6:  MOVLW  0F
062E8:  MOVWF  x29
062EA:  MOVLW  1E
062EC:  MOVWF  x2A
062EE:  CLRF   x2B
062F0:  MOVLW  02
062F2:  MOVWF  x2C
062F4:  MOVLB  0
062F6:  CALL   22A8
....................             Menu=1;glcd_update();delay_ms(1000); 
062FA:  MOVLW  01
062FC:  MOVLB  6
062FE:  MOVWF  xD8
06300:  MOVLB  0
06302:  CALL   1CD4
06306:  MOVLW  04
06308:  MOVLB  7
0630A:  MOVWF  x27
0630C:  MOVLW  FA
0630E:  MOVWF  x2D
06310:  MOVLB  0
06312:  CALL   1796
06316:  MOVLB  7
06318:  DECFSZ x27,F
0631A:  BRA    630C
....................             glcd_fillScreen(OFF);unidad=1; 
0631C:  CLRF   x28
0631E:  MOVLB  0
06320:  CALL   1C7A
06324:  MOVLW  01
06326:  MOVLB  6
06328:  MOVWF  xD9
....................          }// Esta parte se puede agregar en el Menu 1 dependiendo de la ubicacin del vidrio. 
....................          else 
0632A:  BRA    6448
....................          { 
....................             glcd_fillScreen(OFF); 
0632C:  MOVLB  7
0632E:  CLRF   x28
06330:  MOVLB  0
06332:  CALL   1C7A
....................             strcpy(Menus.Letra,"Clave"); 
06336:  MOVLW  07
06338:  MOVWF  FEA
0633A:  MOVLW  03
0633C:  MOVWF  FE9
0633E:  MOVFF  FF2,727
06342:  BCF    FF2.7
06344:  MOVLW  00
06346:  CALL   08FA
0634A:  TBLRD*-
0634C:  TBLRD*+
0634E:  MOVF   FF5,W
06350:  MOVWF  FEE
06352:  IORLW  00
06354:  BNZ   634C
06356:  MOVLB  7
06358:  BTFSC  x27.7
0635A:  BSF    FF2.7
....................             displayMenu(Menus.Letra,30,0,0,2); 
0635C:  MOVLW  07
0635E:  MOVWF  x28
06360:  MOVLW  03
06362:  MOVWF  x27
06364:  MOVLW  1E
06366:  MOVWF  x29
06368:  CLRF   x2A
0636A:  CLRF   x2B
0636C:  MOVLW  02
0636E:  MOVWF  x2C
06370:  MOVLB  0
06372:  CALL   22A8
....................             strcpy(Menus.Letra,"Incorrecta"); 
06376:  MOVLW  07
06378:  MOVWF  FEA
0637A:  MOVLW  03
0637C:  MOVWF  FE9
0637E:  MOVFF  FF2,727
06382:  BCF    FF2.7
06384:  MOVLW  00
06386:  CALL   0946
0638A:  TBLRD*-
0638C:  TBLRD*+
0638E:  MOVF   FF5,W
06390:  MOVWF  FEE
06392:  IORLW  00
06394:  BNZ   638C
06396:  MOVLB  7
06398:  BTFSC  x27.7
0639A:  BSF    FF2.7
....................             displayMenu(Menus.Letra,0,30,0,2); 
0639C:  MOVLW  07
0639E:  MOVWF  x28
063A0:  MOVLW  03
063A2:  MOVWF  x27
063A4:  CLRF   x29
063A6:  MOVLW  1E
063A8:  MOVWF  x2A
063AA:  CLRF   x2B
063AC:  MOVLW  02
063AE:  MOVWF  x2C
063B0:  MOVLB  0
063B2:  CALL   22A8
....................             Menu=0;glcd_update();delay_ms(1000); 
063B6:  MOVLB  6
063B8:  CLRF   xD8
063BA:  MOVLB  0
063BC:  CALL   1CD4
063C0:  MOVLW  04
063C2:  MOVLB  7
063C4:  MOVWF  x27
063C6:  MOVLW  FA
063C8:  MOVWF  x2D
063CA:  MOVLB  0
063CC:  CALL   1796
063D0:  MOVLB  7
063D2:  DECFSZ x27,F
063D4:  BRA    63C6
....................             glcd_fillScreen(OFF);unidad=1; 
063D6:  CLRF   x28
063D8:  MOVLB  0
063DA:  CALL   1C7A
063DE:  MOVLW  01
063E0:  MOVLB  6
063E2:  MOVWF  xD9
....................             Contrasena[0]=0;Contrasena[1]=0;Contrasena[2]=0;Contrasena[3]=0; 
063E4:  CLRF   xF3
063E6:  CLRF   xF4
063E8:  CLRF   xF5
063EA:  CLRF   xF6
....................             displayContrasena(Contrasena[0],20,30,1); 
063EC:  MOVFF  6F3,729
063F0:  MOVLW  14
063F2:  MOVLB  7
063F4:  MOVWF  x2A
063F6:  MOVLW  1E
063F8:  MOVWF  x2B
063FA:  MOVLW  01
063FC:  MOVWF  x2C
063FE:  MOVLB  0
06400:  CALL   24CE
....................             displayContrasena(Contrasena[1],40,30,0); 
06404:  MOVFF  6F4,729
06408:  MOVLW  28
0640A:  MOVLB  7
0640C:  MOVWF  x2A
0640E:  MOVLW  1E
06410:  MOVWF  x2B
06412:  CLRF   x2C
06414:  MOVLB  0
06416:  CALL   24CE
....................             displayContrasena(Contrasena[2],60,30,0); 
0641A:  MOVFF  6F5,729
0641E:  MOVLW  3C
06420:  MOVLB  7
06422:  MOVWF  x2A
06424:  MOVLW  1E
06426:  MOVWF  x2B
06428:  CLRF   x2C
0642A:  MOVLB  0
0642C:  CALL   24CE
....................             displayContrasena(Contrasena[3],80,30,0); 
06430:  MOVFF  6F6,729
06434:  MOVLW  50
06436:  MOVLB  7
06438:  MOVWF  x2A
0643A:  MOVLW  1E
0643C:  MOVWF  x2B
0643E:  CLRF   x2C
06440:  MOVLB  0
06442:  CALL   24CE
06446:  MOVLB  6
....................          } 
....................       } 
....................     } 
.................... //_--------------------------------------------------------------------------------------------------------------------------------------------------------        
....................  
.................... //_-------------------------------------------------------------------------------------------------------------------------------------------------------- 
....................       if(Menu==1){ //Menu Principal.       
06448:  DECFSZ xD8,W
0644A:  BRA    6A68
....................        
....................       if(visual==1) 
0644C:  BTFSS  xD6.2
0644E:  BRA    69E0
....................       { 
....................          if(Opcion>7) 
06450:  MOVF   xDE,W
06452:  SUBLW  07
06454:  BC    645A
....................          {Opcion=1;} 
06456:  MOVLW  01
06458:  MOVWF  xDE
....................          if(Opcion<1) 
0645A:  MOVF   xDE,F
0645C:  BNZ   6462
....................          {Opcion=7;} 
0645E:  MOVLW  07
06460:  MOVWF  xDE
....................           
....................          strcpy(Menus.Letra,"Menu Principal"); 
06462:  MOVLW  07
06464:  MOVWF  FEA
06466:  MOVLW  03
06468:  MOVWF  FE9
0646A:  MOVFF  FF2,727
0646E:  BCF    FF2.7
06470:  MOVLW  00
06472:  MOVLB  0
06474:  CALL   0970
06478:  TBLRD*-
0647A:  TBLRD*+
0647C:  MOVF   FF5,W
0647E:  MOVWF  FEE
06480:  IORLW  00
06482:  BNZ   647A
06484:  MOVLB  7
06486:  BTFSC  x27.7
06488:  BSF    FF2.7
....................          displayMenu(Menus.Letra,30,0,1,1); 
0648A:  MOVLW  07
0648C:  MOVWF  x28
0648E:  MOVLW  03
06490:  MOVWF  x27
06492:  MOVLW  1E
06494:  MOVWF  x29
06496:  CLRF   x2A
06498:  MOVLW  01
0649A:  MOVWF  x2B
0649C:  MOVWF  x2C
0649E:  MOVLB  0
064A0:  CALL   22A8
....................        
....................          if(Opcion<=6) 
064A4:  MOVLB  6
064A6:  MOVF   xDE,W
064A8:  SUBLW  06
064AA:  BTFSS  FD8.0
064AC:  BRA    6810
....................          { 
....................             if(Opcion==1) 
064AE:  DECFSZ xDE,W
064B0:  BRA    64F8
....................                {strcpy(Menus.Letra,"Caucho"); 
064B2:  MOVLW  07
064B4:  MOVWF  FEA
064B6:  MOVLW  03
064B8:  MOVWF  FE9
064BA:  MOVFF  FF2,727
064BE:  BCF    FF2.7
064C0:  MOVLW  00
064C2:  MOVLB  0
064C4:  CALL   099E
064C8:  TBLRD*-
064CA:  TBLRD*+
064CC:  MOVF   FF5,W
064CE:  MOVWF  FEE
064D0:  IORLW  00
064D2:  BNZ   64CA
064D4:  MOVLB  7
064D6:  BTFSC  x27.7
064D8:  BSF    FF2.7
....................                displayMenu(Menus.Letra,0,10,1,1);} 
064DA:  MOVLW  07
064DC:  MOVWF  x28
064DE:  MOVLW  03
064E0:  MOVWF  x27
064E2:  CLRF   x29
064E4:  MOVLW  0A
064E6:  MOVWF  x2A
064E8:  MOVLW  01
064EA:  MOVWF  x2B
064EC:  MOVWF  x2C
064EE:  MOVLB  0
064F0:  CALL   22A8
....................             else 
064F4:  BRA    653A
064F6:  MOVLB  6
....................                {strcpy(Menus.Letra,"Caucho"); 
064F8:  MOVLW  07
064FA:  MOVWF  FEA
064FC:  MOVLW  03
064FE:  MOVWF  FE9
06500:  MOVFF  FF2,727
06504:  BCF    FF2.7
06506:  MOVLW  00
06508:  MOVLB  0
0650A:  CALL   099E
0650E:  TBLRD*-
06510:  TBLRD*+
06512:  MOVF   FF5,W
06514:  MOVWF  FEE
06516:  IORLW  00
06518:  BNZ   6510
0651A:  MOVLB  7
0651C:  BTFSC  x27.7
0651E:  BSF    FF2.7
....................                displayMenu(Menus.Letra,0,10,0,1);} 
06520:  MOVLW  07
06522:  MOVWF  x28
06524:  MOVLW  03
06526:  MOVWF  x27
06528:  CLRF   x29
0652A:  MOVLW  0A
0652C:  MOVWF  x2A
0652E:  CLRF   x2B
06530:  MOVLW  01
06532:  MOVWF  x2C
06534:  MOVLB  0
06536:  CALL   22A8
....................              
....................             if(Opcion==2)    
0653A:  MOVLB  6
0653C:  MOVF   xDE,W
0653E:  SUBLW  02
06540:  BNZ   6588
....................                {strcpy(Menus.Letra,"Liquidos"); 
06542:  MOVLW  07
06544:  MOVWF  FEA
06546:  MOVLW  03
06548:  MOVWF  FE9
0654A:  MOVFF  FF2,727
0654E:  BCF    FF2.7
06550:  MOVLW  00
06552:  MOVLB  0
06554:  CALL   09C4
06558:  TBLRD*-
0655A:  TBLRD*+
0655C:  MOVF   FF5,W
0655E:  MOVWF  FEE
06560:  IORLW  00
06562:  BNZ   655A
06564:  MOVLB  7
06566:  BTFSC  x27.7
06568:  BSF    FF2.7
....................                displayMenu(Menus.Letra,0,19,1,1);} 
0656A:  MOVLW  07
0656C:  MOVWF  x28
0656E:  MOVLW  03
06570:  MOVWF  x27
06572:  CLRF   x29
06574:  MOVLW  13
06576:  MOVWF  x2A
06578:  MOVLW  01
0657A:  MOVWF  x2B
0657C:  MOVWF  x2C
0657E:  MOVLB  0
06580:  CALL   22A8
....................             else 
06584:  BRA    65CA
06586:  MOVLB  6
....................                {strcpy(Menus.Letra,"Liquidos"); 
06588:  MOVLW  07
0658A:  MOVWF  FEA
0658C:  MOVLW  03
0658E:  MOVWF  FE9
06590:  MOVFF  FF2,727
06594:  BCF    FF2.7
06596:  MOVLW  00
06598:  MOVLB  0
0659A:  CALL   09C4
0659E:  TBLRD*-
065A0:  TBLRD*+
065A2:  MOVF   FF5,W
065A4:  MOVWF  FEE
065A6:  IORLW  00
065A8:  BNZ   65A0
065AA:  MOVLB  7
065AC:  BTFSC  x27.7
065AE:  BSF    FF2.7
....................                displayMenu(Menus.Letra,0,19,0,1);}    
065B0:  MOVLW  07
065B2:  MOVWF  x28
065B4:  MOVLW  03
065B6:  MOVWF  x27
065B8:  CLRF   x29
065BA:  MOVLW  13
065BC:  MOVWF  x2A
065BE:  CLRF   x2B
065C0:  MOVLW  01
065C2:  MOVWF  x2C
065C4:  MOVLB  0
065C6:  CALL   22A8
....................                 
....................              if(Opcion==3)    
065CA:  MOVLB  6
065CC:  MOVF   xDE,W
065CE:  SUBLW  03
065D0:  BNZ   6618
....................                {strcpy(Menus.Letra,"Instrumental Suave"); 
065D2:  MOVLW  07
065D4:  MOVWF  FEA
065D6:  MOVLW  03
065D8:  MOVWF  FE9
065DA:  MOVFF  FF2,727
065DE:  BCF    FF2.7
065E0:  MOVLW  00
065E2:  MOVLB  0
065E4:  CALL   09EC
065E8:  TBLRD*-
065EA:  TBLRD*+
065EC:  MOVF   FF5,W
065EE:  MOVWF  FEE
065F0:  IORLW  00
065F2:  BNZ   65EA
065F4:  MOVLB  7
065F6:  BTFSC  x27.7
065F8:  BSF    FF2.7
....................                displayMenu(Menus.Letra,0,28,1,1);} 
065FA:  MOVLW  07
065FC:  MOVWF  x28
065FE:  MOVLW  03
06600:  MOVWF  x27
06602:  CLRF   x29
06604:  MOVLW  1C
06606:  MOVWF  x2A
06608:  MOVLW  01
0660A:  MOVWF  x2B
0660C:  MOVWF  x2C
0660E:  MOVLB  0
06610:  CALL   22A8
....................             else 
06614:  BRA    665A
06616:  MOVLB  6
....................                {strcpy(Menus.Letra,"Instrumental Suave"); 
06618:  MOVLW  07
0661A:  MOVWF  FEA
0661C:  MOVLW  03
0661E:  MOVWF  FE9
06620:  MOVFF  FF2,727
06624:  BCF    FF2.7
06626:  MOVLW  00
06628:  MOVLB  0
0662A:  CALL   09EC
0662E:  TBLRD*-
06630:  TBLRD*+
06632:  MOVF   FF5,W
06634:  MOVWF  FEE
06636:  IORLW  00
06638:  BNZ   6630
0663A:  MOVLB  7
0663C:  BTFSC  x27.7
0663E:  BSF    FF2.7
....................                displayMenu(Menus.Letra,0,28,0,1);} 
06640:  MOVLW  07
06642:  MOVWF  x28
06644:  MOVLW  03
06646:  MOVWF  x27
06648:  CLRF   x29
0664A:  MOVLW  1C
0664C:  MOVWF  x2A
0664E:  CLRF   x2B
06650:  MOVLW  01
06652:  MOVWF  x2C
06654:  MOVLB  0
06656:  CALL   22A8
....................                 
....................             if(Opcion==4)    
0665A:  MOVLB  6
0665C:  MOVF   xDE,W
0665E:  SUBLW  04
06660:  BNZ   66A8
....................                {strcpy(Menus.Letra,"Textil e Instrumental"); 
06662:  MOVLW  07
06664:  MOVWF  FEA
06666:  MOVLW  03
06668:  MOVWF  FE9
0666A:  MOVFF  FF2,727
0666E:  BCF    FF2.7
06670:  MOVLW  00
06672:  MOVLB  0
06674:  CALL   0A1E
06678:  TBLRD*-
0667A:  TBLRD*+
0667C:  MOVF   FF5,W
0667E:  MOVWF  FEE
06680:  IORLW  00
06682:  BNZ   667A
06684:  MOVLB  7
06686:  BTFSC  x27.7
06688:  BSF    FF2.7
....................                displayMenu(Menus.Letra,0,37,1,1);} 
0668A:  MOVLW  07
0668C:  MOVWF  x28
0668E:  MOVLW  03
06690:  MOVWF  x27
06692:  CLRF   x29
06694:  MOVLW  25
06696:  MOVWF  x2A
06698:  MOVLW  01
0669A:  MOVWF  x2B
0669C:  MOVWF  x2C
0669E:  MOVLB  0
066A0:  CALL   22A8
....................             else 
066A4:  BRA    66EA
066A6:  MOVLB  6
....................                {strcpy(Menus.Letra,"Textil e Instrumental"); 
066A8:  MOVLW  07
066AA:  MOVWF  FEA
066AC:  MOVLW  03
066AE:  MOVWF  FE9
066B0:  MOVFF  FF2,727
066B4:  BCF    FF2.7
066B6:  MOVLW  00
066B8:  MOVLB  0
066BA:  CALL   0A1E
066BE:  TBLRD*-
066C0:  TBLRD*+
066C2:  MOVF   FF5,W
066C4:  MOVWF  FEE
066C6:  IORLW  00
066C8:  BNZ   66C0
066CA:  MOVLB  7
066CC:  BTFSC  x27.7
066CE:  BSF    FF2.7
....................                displayMenu(Menus.Letra,0,37,0,1);}    
066D0:  MOVLW  07
066D2:  MOVWF  x28
066D4:  MOVLW  03
066D6:  MOVWF  x27
066D8:  CLRF   x29
066DA:  MOVLW  25
066DC:  MOVWF  x2A
066DE:  CLRF   x2B
066E0:  MOVLW  01
066E2:  MOVWF  x2C
066E4:  MOVLB  0
066E6:  CALL   22A8
....................                 
....................             if(Opcion==5)    
066EA:  MOVLB  6
066EC:  MOVF   xDE,W
066EE:  SUBLW  05
066F0:  BNZ   6738
....................                {strcpy(Menus.Letra,"Personalizado"); 
066F2:  MOVLW  07
066F4:  MOVWF  FEA
066F6:  MOVLW  03
066F8:  MOVWF  FE9
066FA:  MOVFF  FF2,727
066FE:  BCF    FF2.7
06700:  MOVLW  00
06702:  MOVLB  0
06704:  CALL   0A52
06708:  TBLRD*-
0670A:  TBLRD*+
0670C:  MOVF   FF5,W
0670E:  MOVWF  FEE
06710:  IORLW  00
06712:  BNZ   670A
06714:  MOVLB  7
06716:  BTFSC  x27.7
06718:  BSF    FF2.7
....................                displayMenu(Menus.Letra,0,46,1,1);} 
0671A:  MOVLW  07
0671C:  MOVWF  x28
0671E:  MOVLW  03
06720:  MOVWF  x27
06722:  CLRF   x29
06724:  MOVLW  2E
06726:  MOVWF  x2A
06728:  MOVLW  01
0672A:  MOVWF  x2B
0672C:  MOVWF  x2C
0672E:  MOVLB  0
06730:  CALL   22A8
....................             else 
06734:  BRA    677A
06736:  MOVLB  6
....................                {strcpy(Menus.Letra,"Personalizado"); 
06738:  MOVLW  07
0673A:  MOVWF  FEA
0673C:  MOVLW  03
0673E:  MOVWF  FE9
06740:  MOVFF  FF2,727
06744:  BCF    FF2.7
06746:  MOVLW  00
06748:  MOVLB  0
0674A:  CALL   0A52
0674E:  TBLRD*-
06750:  TBLRD*+
06752:  MOVF   FF5,W
06754:  MOVWF  FEE
06756:  IORLW  00
06758:  BNZ   6750
0675A:  MOVLB  7
0675C:  BTFSC  x27.7
0675E:  BSF    FF2.7
....................                displayMenu(Menus.Letra,0,46,0,1);}   
06760:  MOVLW  07
06762:  MOVWF  x28
06764:  MOVLW  03
06766:  MOVWF  x27
06768:  CLRF   x29
0676A:  MOVLW  2E
0676C:  MOVWF  x2A
0676E:  CLRF   x2B
06770:  MOVLW  01
06772:  MOVWF  x2C
06774:  MOVLB  0
06776:  CALL   22A8
....................                 
....................             if(Opcion==6)    
0677A:  MOVLB  6
0677C:  MOVF   xDE,W
0677E:  SUBLW  06
06780:  BNZ   67C8
....................                {strcpy(Menus.Letra,"Cambio Clave"); 
06782:  MOVLW  07
06784:  MOVWF  FEA
06786:  MOVLW  03
06788:  MOVWF  FE9
0678A:  MOVFF  FF2,727
0678E:  BCF    FF2.7
06790:  MOVLW  00
06792:  MOVLB  0
06794:  CALL   0A7E
06798:  TBLRD*-
0679A:  TBLRD*+
0679C:  MOVF   FF5,W
0679E:  MOVWF  FEE
067A0:  IORLW  00
067A2:  BNZ   679A
067A4:  MOVLB  7
067A6:  BTFSC  x27.7
067A8:  BSF    FF2.7
....................                displayMenu(Menus.Letra,0,55,1,1);} 
067AA:  MOVLW  07
067AC:  MOVWF  x28
067AE:  MOVLW  03
067B0:  MOVWF  x27
067B2:  CLRF   x29
067B4:  MOVLW  37
067B6:  MOVWF  x2A
067B8:  MOVLW  01
067BA:  MOVWF  x2B
067BC:  MOVWF  x2C
067BE:  MOVLB  0
067C0:  CALL   22A8
....................             else 
067C4:  BRA    680A
067C6:  MOVLB  6
....................                {strcpy(Menus.Letra,"Cambio Clave"); 
067C8:  MOVLW  07
067CA:  MOVWF  FEA
067CC:  MOVLW  03
067CE:  MOVWF  FE9
067D0:  MOVFF  FF2,727
067D4:  BCF    FF2.7
067D6:  MOVLW  00
067D8:  MOVLB  0
067DA:  CALL   0A7E
067DE:  TBLRD*-
067E0:  TBLRD*+
067E2:  MOVF   FF5,W
067E4:  MOVWF  FEE
067E6:  IORLW  00
067E8:  BNZ   67E0
067EA:  MOVLB  7
067EC:  BTFSC  x27.7
067EE:  BSF    FF2.7
....................                displayMenu(Menus.Letra,0,55,0,1);}      
067F0:  MOVLW  07
067F2:  MOVWF  x28
067F4:  MOVLW  03
067F6:  MOVWF  x27
067F8:  CLRF   x29
067FA:  MOVLW  37
067FC:  MOVWF  x2A
067FE:  CLRF   x2B
06800:  MOVLW  01
06802:  MOVWF  x2C
06804:  MOVLB  0
06806:  CALL   22A8
....................                visual=0; 
0680A:  MOVLB  6
0680C:  BCF    xD6.2
....................          } 
....................          else 
0680E:  BRA    69E0
....................          { 
....................             if(Opcion==7) 
06810:  MOVF   xDE,W
06812:  SUBLW  07
06814:  BNZ   685C
....................                {strcpy(Menus.Letra,"Prueba Comp."); 
06816:  MOVLW  07
06818:  MOVWF  FEA
0681A:  MOVLW  03
0681C:  MOVWF  FE9
0681E:  MOVFF  FF2,727
06822:  BCF    FF2.7
06824:  MOVLW  00
06826:  MOVLB  0
06828:  CALL   0AAA
0682C:  TBLRD*-
0682E:  TBLRD*+
06830:  MOVF   FF5,W
06832:  MOVWF  FEE
06834:  IORLW  00
06836:  BNZ   682E
06838:  MOVLB  7
0683A:  BTFSC  x27.7
0683C:  BSF    FF2.7
....................                displayMenu(Menus.Letra,0,10,1,1);} 
0683E:  MOVLW  07
06840:  MOVWF  x28
06842:  MOVLW  03
06844:  MOVWF  x27
06846:  CLRF   x29
06848:  MOVLW  0A
0684A:  MOVWF  x2A
0684C:  MOVLW  01
0684E:  MOVWF  x2B
06850:  MOVWF  x2C
06852:  MOVLB  0
06854:  CALL   22A8
....................             else 
06858:  BRA    689E
0685A:  MOVLB  6
....................                {strcpy(Menus.Letra,"Prueba Comp."); 
0685C:  MOVLW  07
0685E:  MOVWF  FEA
06860:  MOVLW  03
06862:  MOVWF  FE9
06864:  MOVFF  FF2,727
06868:  BCF    FF2.7
0686A:  MOVLW  00
0686C:  MOVLB  0
0686E:  CALL   0AAA
06872:  TBLRD*-
06874:  TBLRD*+
06876:  MOVF   FF5,W
06878:  MOVWF  FEE
0687A:  IORLW  00
0687C:  BNZ   6874
0687E:  MOVLB  7
06880:  BTFSC  x27.7
06882:  BSF    FF2.7
....................                displayMenu(Menus.Letra,0,10,0,1);} 
06884:  MOVLW  07
06886:  MOVWF  x28
06888:  MOVLW  03
0688A:  MOVWF  x27
0688C:  CLRF   x29
0688E:  MOVLW  0A
06890:  MOVWF  x2A
06892:  CLRF   x2B
06894:  MOVLW  01
06896:  MOVWF  x2C
06898:  MOVLB  0
0689A:  CALL   22A8
....................                 
....................                strcpy(Menus.Letra,"           "); 
0689E:  MOVLW  07
068A0:  MOVWF  FEA
068A2:  MOVLW  03
068A4:  MOVWF  FE9
068A6:  MOVFF  FF2,727
068AA:  BCF    FF2.7
068AC:  MOVLW  00
068AE:  CALL   0AD6
068B2:  TBLRD*-
068B4:  TBLRD*+
068B6:  MOVF   FF5,W
068B8:  MOVWF  FEE
068BA:  IORLW  00
068BC:  BNZ   68B4
068BE:  MOVLB  7
068C0:  BTFSC  x27.7
068C2:  BSF    FF2.7
....................                displayMenu(Menus.Letra,0,19,0,1); 
068C4:  MOVLW  07
068C6:  MOVWF  x28
068C8:  MOVLW  03
068CA:  MOVWF  x27
068CC:  CLRF   x29
068CE:  MOVLW  13
068D0:  MOVWF  x2A
068D2:  CLRF   x2B
068D4:  MOVLW  01
068D6:  MOVWF  x2C
068D8:  MOVLB  0
068DA:  CALL   22A8
....................                 
....................                strcpy(Menus.Letra,"           "); 
068DE:  MOVLW  07
068E0:  MOVWF  FEA
068E2:  MOVLW  03
068E4:  MOVWF  FE9
068E6:  MOVFF  FF2,727
068EA:  BCF    FF2.7
068EC:  MOVLW  00
068EE:  CALL   0AD6
068F2:  TBLRD*-
068F4:  TBLRD*+
068F6:  MOVF   FF5,W
068F8:  MOVWF  FEE
068FA:  IORLW  00
068FC:  BNZ   68F4
068FE:  MOVLB  7
06900:  BTFSC  x27.7
06902:  BSF    FF2.7
....................                displayMenu(Menus.Letra,0,28,0,1); 
06904:  MOVLW  07
06906:  MOVWF  x28
06908:  MOVLW  03
0690A:  MOVWF  x27
0690C:  CLRF   x29
0690E:  MOVLW  1C
06910:  MOVWF  x2A
06912:  CLRF   x2B
06914:  MOVLW  01
06916:  MOVWF  x2C
06918:  MOVLB  0
0691A:  CALL   22A8
....................                 
....................                strcpy(Menus.Letra,"           "); 
0691E:  MOVLW  07
06920:  MOVWF  FEA
06922:  MOVLW  03
06924:  MOVWF  FE9
06926:  MOVFF  FF2,727
0692A:  BCF    FF2.7
0692C:  MOVLW  00
0692E:  CALL   0AD6
06932:  TBLRD*-
06934:  TBLRD*+
06936:  MOVF   FF5,W
06938:  MOVWF  FEE
0693A:  IORLW  00
0693C:  BNZ   6934
0693E:  MOVLB  7
06940:  BTFSC  x27.7
06942:  BSF    FF2.7
....................                displayMenu(Menus.Letra,0,37,0,1); 
06944:  MOVLW  07
06946:  MOVWF  x28
06948:  MOVLW  03
0694A:  MOVWF  x27
0694C:  CLRF   x29
0694E:  MOVLW  25
06950:  MOVWF  x2A
06952:  CLRF   x2B
06954:  MOVLW  01
06956:  MOVWF  x2C
06958:  MOVLB  0
0695A:  CALL   22A8
....................                 
....................                strcpy(Menus.Letra,"           "); 
0695E:  MOVLW  07
06960:  MOVWF  FEA
06962:  MOVLW  03
06964:  MOVWF  FE9
06966:  MOVFF  FF2,727
0696A:  BCF    FF2.7
0696C:  MOVLW  00
0696E:  CALL   0AD6
06972:  TBLRD*-
06974:  TBLRD*+
06976:  MOVF   FF5,W
06978:  MOVWF  FEE
0697A:  IORLW  00
0697C:  BNZ   6974
0697E:  MOVLB  7
06980:  BTFSC  x27.7
06982:  BSF    FF2.7
....................                displayMenu(Menus.Letra,0,46,0,1); 
06984:  MOVLW  07
06986:  MOVWF  x28
06988:  MOVLW  03
0698A:  MOVWF  x27
0698C:  CLRF   x29
0698E:  MOVLW  2E
06990:  MOVWF  x2A
06992:  CLRF   x2B
06994:  MOVLW  01
06996:  MOVWF  x2C
06998:  MOVLB  0
0699A:  CALL   22A8
....................                 
....................                strcpy(Menus.Letra,"           "); 
0699E:  MOVLW  07
069A0:  MOVWF  FEA
069A2:  MOVLW  03
069A4:  MOVWF  FE9
069A6:  MOVFF  FF2,727
069AA:  BCF    FF2.7
069AC:  MOVLW  00
069AE:  CALL   0AD6
069B2:  TBLRD*-
069B4:  TBLRD*+
069B6:  MOVF   FF5,W
069B8:  MOVWF  FEE
069BA:  IORLW  00
069BC:  BNZ   69B4
069BE:  MOVLB  7
069C0:  BTFSC  x27.7
069C2:  BSF    FF2.7
....................                displayMenu(Menus.Letra,0,55,0,1); 
069C4:  MOVLW  07
069C6:  MOVWF  x28
069C8:  MOVLW  03
069CA:  MOVWF  x27
069CC:  CLRF   x29
069CE:  MOVLW  37
069D0:  MOVWF  x2A
069D2:  CLRF   x2B
069D4:  MOVLW  01
069D6:  MOVWF  x2C
069D8:  MOVLB  0
069DA:  CALL   22A8
069DE:  MOVLB  6
....................          } 
....................       } 
....................        
....................       if(UP){ 
069E0:  BSF    F92.4
069E2:  BTFSC  F80.4
069E4:  BRA    6A06
....................          if(Flanco == 0){ 
069E6:  MOVLB  4
069E8:  BTFSC  x5F.7
069EA:  BRA    6A02
....................             Flanco = 1;delay_ms(10);Opcion--;visual=1; 
069EC:  BSF    x5F.7
069EE:  MOVLW  0A
069F0:  MOVLB  7
069F2:  MOVWF  x2D
069F4:  MOVLB  0
069F6:  CALL   1796
069FA:  MOVLB  6
069FC:  DECF   xDE,F
069FE:  BSF    xD6.2
06A00:  MOVLB  4
....................          } 
....................       }else{ 
06A02:  BRA    6A0A
06A04:  MOVLB  6
....................          Flanco = 0; 
06A06:  MOVLB  4
06A08:  BCF    x5F.7
....................       } 
....................                    
....................       if(DOWN){ 
06A0A:  BSF    F92.5
06A0C:  BTFSC  F80.5
06A0E:  BRA    6A2E
....................          if(Flanco2 == 0){ 
06A10:  MOVLB  6
06A12:  BTFSC  xD6.1
06A14:  BRA    6A2A
....................             Flanco2 = 1;delay_ms(10);Opcion++;visual=1; 
06A16:  BSF    xD6.1
06A18:  MOVLW  0A
06A1A:  MOVLB  7
06A1C:  MOVWF  x2D
06A1E:  MOVLB  0
06A20:  CALL   1796
06A24:  MOVLB  6
06A26:  INCF   xDE,F
06A28:  BSF    xD6.2
....................          }      
....................       }else{ 
06A2A:  BRA    6A32
06A2C:  MOVLB  4
....................          Flanco2 = 0; 
06A2E:  MOVLB  6
06A30:  BCF    xD6.1
....................       } 
....................                 
....................        if(RIGHT)//Si oprime SET 
06A32:  BSF    F96.0
06A34:  BTFSC  F84.0
06A36:  BRA    6A66
....................          {  if(Flanco1 == 0)  
06A38:  BTFSC  xD6.0
06A3A:  BRA    6A64
....................                {Flanco1 = 1;delay_ms(30);Menu=Opcion+3;Opcion=1;glcd_fillscreen(OFF);visual=1; 
06A3C:  BSF    xD6.0
06A3E:  MOVLW  1E
06A40:  MOVLB  7
06A42:  MOVWF  x2D
06A44:  MOVLB  0
06A46:  CALL   1796
06A4A:  MOVLW  03
06A4C:  MOVLB  6
06A4E:  ADDWF  xDE,W
06A50:  MOVWF  xD8
06A52:  MOVLW  01
06A54:  MOVWF  xDE
06A56:  MOVLB  7
06A58:  CLRF   x28
06A5A:  MOVLB  0
06A5C:  CALL   1C7A
06A60:  MOVLB  6
06A62:  BSF    xD6.2
....................                } 
....................          } 
....................             else 
06A64:  BRA    6A68
....................                {Flanco1 = 0;}   
06A66:  BCF    xD6.0
....................    } 
.................... //_--------------------------------------------------------------------------------------------------------------------------------------------------------        
....................  
.................... //_--------------------------------------------------------------------------------------------------------------------------------------------------------       
....................       if(Menu==4){ // Menu de Caucho 
06A68:  MOVF   xD8,W
06A6A:  SUBLW  04
06A6C:  BTFSS  FD8.2
06A6E:  BRA    6C46
....................        
....................       if(visual==1) 
06A70:  BTFSS  xD6.2
06A72:  BRA    6BC8
....................       { 
....................          glcd_imagen(2); //Guante 
06A74:  MOVLW  02
06A76:  MOVLB  7
06A78:  MOVWF  x27
06A7A:  MOVLB  0
06A7C:  CALL   3764
....................          strcpy(Menus.Letra,"Caucho"); 
06A80:  MOVLW  07
06A82:  MOVWF  FEA
06A84:  MOVLW  03
06A86:  MOVWF  FE9
06A88:  MOVFF  FF2,727
06A8C:  BCF    FF2.7
06A8E:  MOVLW  00
06A90:  CALL   099E
06A94:  TBLRD*-
06A96:  TBLRD*+
06A98:  MOVF   FF5,W
06A9A:  MOVWF  FEE
06A9C:  IORLW  00
06A9E:  BNZ   6A96
06AA0:  MOVLB  7
06AA2:  BTFSC  x27.7
06AA4:  BSF    FF2.7
....................          displayMenu(Menus.Letra,20,0,1,2); 
06AA6:  MOVLW  07
06AA8:  MOVWF  x28
06AAA:  MOVLW  03
06AAC:  MOVWF  x27
06AAE:  MOVLW  14
06AB0:  MOVWF  x29
06AB2:  CLRF   x2A
06AB4:  MOVLW  01
06AB6:  MOVWF  x2B
06AB8:  MOVLW  02
06ABA:  MOVWF  x2C
06ABC:  MOVLB  0
06ABE:  CALL   22A8
....................          
....................          strcpy(Menus.Letra,"Caucho"); 
06AC2:  MOVLW  07
06AC4:  MOVWF  FEA
06AC6:  MOVLW  03
06AC8:  MOVWF  FE9
06ACA:  MOVFF  FF2,727
06ACE:  BCF    FF2.7
06AD0:  MOVLW  00
06AD2:  CALL   099E
06AD6:  TBLRD*-
06AD8:  TBLRD*+
06ADA:  MOVF   FF5,W
06ADC:  MOVWF  FEE
06ADE:  IORLW  00
06AE0:  BNZ   6AD8
06AE2:  MOVLB  7
06AE4:  BTFSC  x27.7
06AE6:  BSF    FF2.7
....................          displayMenu(Menus.Letra,7,55,0,1); 
06AE8:  MOVLW  07
06AEA:  MOVWF  x28
06AEC:  MOVLW  03
06AEE:  MOVWF  x27
06AF0:  MOVLW  07
06AF2:  MOVWF  x29
06AF4:  MOVLW  37
06AF6:  MOVWF  x2A
06AF8:  CLRF   x2B
06AFA:  MOVLW  01
06AFC:  MOVWF  x2C
06AFE:  MOVLB  0
06B00:  CALL   22A8
....................           
....................          strcpy(Menus.Letra,"Temperatura:121 C"); 
06B04:  MOVLW  07
06B06:  MOVWF  FEA
06B08:  MOVLW  03
06B0A:  MOVWF  FE9
06B0C:  MOVFF  FF2,727
06B10:  BCF    FF2.7
06B12:  MOVLW  00
06B14:  CALL   0B00
06B18:  TBLRD*-
06B1A:  TBLRD*+
06B1C:  MOVF   FF5,W
06B1E:  MOVWF  FEE
06B20:  IORLW  00
06B22:  BNZ   6B1A
06B24:  MOVLB  7
06B26:  BTFSC  x27.7
06B28:  BSF    FF2.7
....................          displayMenu(Menus.Letra,0,26,0,1); 
06B2A:  MOVLW  07
06B2C:  MOVWF  x28
06B2E:  MOVLW  03
06B30:  MOVWF  x27
06B32:  CLRF   x29
06B34:  MOVLW  1A
06B36:  MOVWF  x2A
06B38:  CLRF   x2B
06B3A:  MOVLW  01
06B3C:  MOVWF  x2C
06B3E:  MOVLB  0
06B40:  CALL   22A8
....................          strcpy(Menus.Letra,"T. Esterilizacion:15m"); 
06B44:  MOVLW  07
06B46:  MOVWF  FEA
06B48:  MOVLW  03
06B4A:  MOVWF  FE9
06B4C:  MOVFF  FF2,727
06B50:  BCF    FF2.7
06B52:  MOVLW  00
06B54:  CALL   0B30
06B58:  TBLRD*-
06B5A:  TBLRD*+
06B5C:  MOVF   FF5,W
06B5E:  MOVWF  FEE
06B60:  IORLW  00
06B62:  BNZ   6B5A
06B64:  MOVLB  7
06B66:  BTFSC  x27.7
06B68:  BSF    FF2.7
....................          displayMenu(Menus.Letra,0,36,0,1); 
06B6A:  MOVLW  07
06B6C:  MOVWF  x28
06B6E:  MOVLW  03
06B70:  MOVWF  x27
06B72:  CLRF   x29
06B74:  MOVLW  24
06B76:  MOVWF  x2A
06B78:  CLRF   x2B
06B7A:  MOVLW  01
06B7C:  MOVWF  x2C
06B7E:  MOVLB  0
06B80:  CALL   22A8
....................          strcpy(Menus.Letra,"T. Secado= 15m"); 
06B84:  MOVLW  07
06B86:  MOVWF  FEA
06B88:  MOVLW  03
06B8A:  MOVWF  FE9
06B8C:  MOVFF  FF2,727
06B90:  BCF    FF2.7
06B92:  MOVLW  00
06B94:  CALL   0B64
06B98:  TBLRD*-
06B9A:  TBLRD*+
06B9C:  MOVF   FF5,W
06B9E:  MOVWF  FEE
06BA0:  IORLW  00
06BA2:  BNZ   6B9A
06BA4:  MOVLB  7
06BA6:  BTFSC  x27.7
06BA8:  BSF    FF2.7
....................          displayMenu(Menus.Letra,0,46,0,1); 
06BAA:  MOVLW  07
06BAC:  MOVWF  x28
06BAE:  MOVLW  03
06BB0:  MOVWF  x27
06BB2:  CLRF   x29
06BB4:  MOVLW  2E
06BB6:  MOVWF  x2A
06BB8:  CLRF   x2B
06BBA:  MOVLW  01
06BBC:  MOVWF  x2C
06BBE:  MOVLB  0
06BC0:  CALL   22A8
....................          visual=0; 
06BC4:  MOVLB  6
06BC6:  BCF    xD6.2
....................       } 
....................        
....................       if(LEFT)// Si oprime Izquier|da 
06BC8:  BSF    F96.1
06BCA:  BTFSC  F84.1
06BCC:  BRA    6BEE
....................       {  
....................          delay_ms(30);Menu=1;glcd_fillScreen(OFF);visual=1; 
06BCE:  MOVLW  1E
06BD0:  MOVLB  7
06BD2:  MOVWF  x2D
06BD4:  MOVLB  0
06BD6:  CALL   1796
06BDA:  MOVLW  01
06BDC:  MOVLB  6
06BDE:  MOVWF  xD8
06BE0:  MOVLB  7
06BE2:  CLRF   x28
06BE4:  MOVLB  0
06BE6:  CALL   1C7A
06BEA:  MOVLB  6
06BEC:  BSF    xD6.2
....................       } 
....................  
....................       if(RIGHT)// Si oprime derecha 
06BEE:  BSF    F96.0
06BF0:  BTFSC  F84.0
06BF2:  BRA    6C46
....................       { 
....................          Testerilizacionp[0]=0;Testerilizacionp[1]=0;Testerilizacionp[2]=5;Testerilizacionp[3]=1; 
06BF4:  MOVLB  4
06BF6:  CLRF   x6A
06BF8:  CLRF   x6B
06BFA:  MOVLW  05
06BFC:  MOVWF  x6C
06BFE:  MOVLW  01
06C00:  MOVWF  x6D
....................          visual=1; 
06C02:  MOVLB  6
06C04:  BSF    xD6.2
....................          Tsecadop[0]=0;Tsecadop[1]=0;Tsecadop[2]=5;Tsecadop[3]=1; 
06C06:  MOVLB  4
06C08:  CLRF   x72
06C0A:  CLRF   x73
06C0C:  MOVLW  05
06C0E:  MOVWF  x74
06C10:  MOVLW  01
06C12:  MOVWF  x75
....................          Setpoint=121; 
06C14:  MOVLW  79
06C16:  MOVLB  6
06C18:  MOVWF  xDD
....................          Menu=20; 
06C1A:  MOVLW  14
06C1C:  MOVWF  xD8
....................          tiempo_secado=0; 
06C1E:  CLRF   xE0
....................          glcd_fillScreen(OFF); 
06C20:  MOVLB  7
06C22:  CLRF   x28
06C24:  MOVLB  0
06C26:  CALL   1C7A
....................          CuadroCalentando(ON); 
06C2A:  MOVLW  01
06C2C:  MOVLB  7
06C2E:  MOVWF  x27
06C30:  MOVLB  0
06C32:  CALL   3814
....................          desfoguelento=0; 
06C36:  MOVLB  6
06C38:  BCF    xD6.3
....................          IniciaCiclo=ON; 
06C3A:  MOVLB  4
06C3C:  BSF    x5E.0
....................          VerifiqueAgua(); 
06C3E:  MOVLB  0
06C40:  CALL   3868
06C44:  MOVLB  6
....................       } 
....................      
....................     }     
.................... //_--------------------------------------------------------------------------------------------------------------------------------------------------------     
....................  
.................... //_--------------------------------------------------------------------------------------------------------------------------------------------------------       
....................       if(Menu==5){ // Menu de Liquido       
06C46:  MOVF   xD8,W
06C48:  SUBLW  05
06C4A:  BTFSS  FD8.2
06C4C:  BRA    6E1E
....................        
....................       if(visual==1) 
06C4E:  BTFSS  xD6.2
06C50:  BRA    6DA8
....................       { 
....................          glcd_imagen(4); //ErlenMeyer con Liquido 
06C52:  MOVLW  04
06C54:  MOVLB  7
06C56:  MOVWF  x27
06C58:  MOVLB  0
06C5A:  CALL   3764
....................          strcpy(Menus.Letra,"Liquidos"); 
06C5E:  MOVLW  07
06C60:  MOVWF  FEA
06C62:  MOVLW  03
06C64:  MOVWF  FE9
06C66:  MOVFF  FF2,727
06C6A:  BCF    FF2.7
06C6C:  MOVLW  00
06C6E:  CALL   09C4
06C72:  TBLRD*-
06C74:  TBLRD*+
06C76:  MOVF   FF5,W
06C78:  MOVWF  FEE
06C7A:  IORLW  00
06C7C:  BNZ   6C74
06C7E:  MOVLB  7
06C80:  BTFSC  x27.7
06C82:  BSF    FF2.7
....................          displayMenu(Menus.Letra,20,0,1,2); 
06C84:  MOVLW  07
06C86:  MOVWF  x28
06C88:  MOVLW  03
06C8A:  MOVWF  x27
06C8C:  MOVLW  14
06C8E:  MOVWF  x29
06C90:  CLRF   x2A
06C92:  MOVLW  01
06C94:  MOVWF  x2B
06C96:  MOVLW  02
06C98:  MOVWF  x2C
06C9A:  MOVLB  0
06C9C:  CALL   22A8
....................        
....................          strcpy(Menus.Letra,"Liquidos"); 
06CA0:  MOVLW  07
06CA2:  MOVWF  FEA
06CA4:  MOVLW  03
06CA6:  MOVWF  FE9
06CA8:  MOVFF  FF2,727
06CAC:  BCF    FF2.7
06CAE:  MOVLW  00
06CB0:  CALL   09C4
06CB4:  TBLRD*-
06CB6:  TBLRD*+
06CB8:  MOVF   FF5,W
06CBA:  MOVWF  FEE
06CBC:  IORLW  00
06CBE:  BNZ   6CB6
06CC0:  MOVLB  7
06CC2:  BTFSC  x27.7
06CC4:  BSF    FF2.7
....................          displayMenu(Menus.Letra,7,55,2,1); 
06CC6:  MOVLW  07
06CC8:  MOVWF  x28
06CCA:  MOVLW  03
06CCC:  MOVWF  x27
06CCE:  MOVLW  07
06CD0:  MOVWF  x29
06CD2:  MOVLW  37
06CD4:  MOVWF  x2A
06CD6:  MOVLW  02
06CD8:  MOVWF  x2B
06CDA:  MOVLW  01
06CDC:  MOVWF  x2C
06CDE:  MOVLB  0
06CE0:  CALL   22A8
....................           
....................          strcpy(Menus.Letra,"Temperatura:121 C"); 
06CE4:  MOVLW  07
06CE6:  MOVWF  FEA
06CE8:  MOVLW  03
06CEA:  MOVWF  FE9
06CEC:  MOVFF  FF2,727
06CF0:  BCF    FF2.7
06CF2:  MOVLW  00
06CF4:  CALL   0B00
06CF8:  TBLRD*-
06CFA:  TBLRD*+
06CFC:  MOVF   FF5,W
06CFE:  MOVWF  FEE
06D00:  IORLW  00
06D02:  BNZ   6CFA
06D04:  MOVLB  7
06D06:  BTFSC  x27.7
06D08:  BSF    FF2.7
....................          displayMenu(Menus.Letra,0,26,0,1); 
06D0A:  MOVLW  07
06D0C:  MOVWF  x28
06D0E:  MOVLW  03
06D10:  MOVWF  x27
06D12:  CLRF   x29
06D14:  MOVLW  1A
06D16:  MOVWF  x2A
06D18:  CLRF   x2B
06D1A:  MOVLW  01
06D1C:  MOVWF  x2C
06D1E:  MOVLB  0
06D20:  CALL   22A8
....................          strcpy(Menus.Letra,"T. Esterilizacion:20m"); 
06D24:  MOVLW  07
06D26:  MOVWF  FEA
06D28:  MOVLW  03
06D2A:  MOVWF  FE9
06D2C:  MOVFF  FF2,727
06D30:  BCF    FF2.7
06D32:  MOVLW  00
06D34:  CALL   0B92
06D38:  TBLRD*-
06D3A:  TBLRD*+
06D3C:  MOVF   FF5,W
06D3E:  MOVWF  FEE
06D40:  IORLW  00
06D42:  BNZ   6D3A
06D44:  MOVLB  7
06D46:  BTFSC  x27.7
06D48:  BSF    FF2.7
....................          displayMenu(Menus.Letra,0,36,0,1); 
06D4A:  MOVLW  07
06D4C:  MOVWF  x28
06D4E:  MOVLW  03
06D50:  MOVWF  x27
06D52:  CLRF   x29
06D54:  MOVLW  24
06D56:  MOVWF  x2A
06D58:  CLRF   x2B
06D5A:  MOVLW  01
06D5C:  MOVWF  x2C
06D5E:  MOVLB  0
06D60:  CALL   22A8
....................          strcpy(Menus.Letra,"T. Secado= N/A"); 
06D64:  MOVLW  07
06D66:  MOVWF  FEA
06D68:  MOVLW  03
06D6A:  MOVWF  FE9
06D6C:  MOVFF  FF2,727
06D70:  BCF    FF2.7
06D72:  MOVLW  00
06D74:  CALL   0BC6
06D78:  TBLRD*-
06D7A:  TBLRD*+
06D7C:  MOVF   FF5,W
06D7E:  MOVWF  FEE
06D80:  IORLW  00
06D82:  BNZ   6D7A
06D84:  MOVLB  7
06D86:  BTFSC  x27.7
06D88:  BSF    FF2.7
....................          displayMenu(Menus.Letra,0,46,0,1);     
06D8A:  MOVLW  07
06D8C:  MOVWF  x28
06D8E:  MOVLW  03
06D90:  MOVWF  x27
06D92:  CLRF   x29
06D94:  MOVLW  2E
06D96:  MOVWF  x2A
06D98:  CLRF   x2B
06D9A:  MOVLW  01
06D9C:  MOVWF  x2C
06D9E:  MOVLB  0
06DA0:  CALL   22A8
....................          visual=0; 
06DA4:  MOVLB  6
06DA6:  BCF    xD6.2
....................       }    
....................           
....................       if(LEFT)// Si oprime Izquier|da 
06DA8:  BSF    F96.1
06DAA:  BTFSC  F84.1
06DAC:  BRA    6DCE
....................       {  
....................          delay_ms(30);Menu=1;glcd_fillScreen(OFF);visual=1; 
06DAE:  MOVLW  1E
06DB0:  MOVLB  7
06DB2:  MOVWF  x2D
06DB4:  MOVLB  0
06DB6:  CALL   1796
06DBA:  MOVLW  01
06DBC:  MOVLB  6
06DBE:  MOVWF  xD8
06DC0:  MOVLB  7
06DC2:  CLRF   x28
06DC4:  MOVLB  0
06DC6:  CALL   1C7A
06DCA:  MOVLB  6
06DCC:  BSF    xD6.2
....................       }                
....................  
....................       if(RIGHT)// Si oprime derecha 
06DCE:  BSF    F96.0
06DD0:  BTFSC  F84.0
06DD2:  BRA    6E1E
....................       { 
....................          Testerilizacionp[0]=0;Testerilizacionp[1]=0;Testerilizacionp[2]=0;Testerilizacionp[3]=2; 
06DD4:  MOVLB  4
06DD6:  CLRF   x6A
06DD8:  CLRF   x6B
06DDA:  CLRF   x6C
06DDC:  MOVLW  02
06DDE:  MOVWF  x6D
....................          desfoguelento=1;visual=1; 
06DE0:  MOVLB  6
06DE2:  BSF    xD6.3
06DE4:  BSF    xD6.2
....................          Tsecadop[0]=0;Tsecadop[1]=0;Tsecadop[2]=0;Tsecadop[3]=0; 
06DE6:  MOVLB  4
06DE8:  CLRF   x72
06DEA:  CLRF   x73
06DEC:  CLRF   x74
06DEE:  CLRF   x75
....................          Setpoint=121;Menu=14; 
06DF0:  MOVLW  79
06DF2:  MOVLB  6
06DF4:  MOVWF  xDD
06DF6:  MOVLW  0E
06DF8:  MOVWF  xD8
....................          delay_ms(700);glcd_fillScreen(OFF); 
06DFA:  MOVLW  04
06DFC:  MOVLB  7
06DFE:  MOVWF  x27
06E00:  MOVLW  AF
06E02:  MOVWF  x2D
06E04:  MOVLB  0
06E06:  CALL   1796
06E0A:  MOVLB  7
06E0C:  DECFSZ x27,F
06E0E:  BRA    6E00
06E10:  CLRF   x28
06E12:  MOVLB  0
06E14:  CALL   1C7A
....................          VerifiqueAgua(); 
06E18:  CALL   3868
06E1C:  MOVLB  6
....................       } 
....................     }     
.................... //_--------------------------------------------------------------------------------------------------------------------------------------------------------     
....................  
.................... //_--------------------------------------------------------------------------------------------------------------------------------------------------------       
....................       if(Menu==6){ // Menu de Instrumental Suave      
06E1E:  MOVF   xD8,W
06E20:  SUBLW  06
06E22:  BTFSS  FD8.2
06E24:  BRA    6FF6
....................        
....................       if(visual==1) 
06E26:  BTFSS  xD6.2
06E28:  BRA    6F7E
....................       { 
....................          glcd_imagen(3); //Erlen Meyer 
06E2A:  MOVLW  03
06E2C:  MOVLB  7
06E2E:  MOVWF  x27
06E30:  MOVLB  0
06E32:  CALL   3764
....................           
....................          strcpy(Menus.Letra,"Ins. Suave"); 
06E36:  MOVLW  07
06E38:  MOVWF  FEA
06E3A:  MOVLW  03
06E3C:  MOVWF  FE9
06E3E:  MOVFF  FF2,727
06E42:  BCF    FF2.7
06E44:  MOVLW  00
06E46:  CALL   0BF4
06E4A:  TBLRD*-
06E4C:  TBLRD*+
06E4E:  MOVF   FF5,W
06E50:  MOVWF  FEE
06E52:  IORLW  00
06E54:  BNZ   6E4C
06E56:  MOVLB  7
06E58:  BTFSC  x27.7
06E5A:  BSF    FF2.7
....................          displayMenu(Menus.Letra,0,0,1,2); 
06E5C:  MOVLW  07
06E5E:  MOVWF  x28
06E60:  MOVLW  03
06E62:  MOVWF  x27
06E64:  CLRF   x29
06E66:  CLRF   x2A
06E68:  MOVLW  01
06E6A:  MOVWF  x2B
06E6C:  MOVLW  02
06E6E:  MOVWF  x2C
06E70:  MOVLB  0
06E72:  CALL   22A8
....................           
....................          strcpy(Menus.Letra,"Instrumental Suave"); 
06E76:  MOVLW  07
06E78:  MOVWF  FEA
06E7A:  MOVLW  03
06E7C:  MOVWF  FE9
06E7E:  MOVFF  FF2,727
06E82:  BCF    FF2.7
06E84:  MOVLW  00
06E86:  CALL   09EC
06E8A:  TBLRD*-
06E8C:  TBLRD*+
06E8E:  MOVF   FF5,W
06E90:  MOVWF  FEE
06E92:  IORLW  00
06E94:  BNZ   6E8C
06E96:  MOVLB  7
06E98:  BTFSC  x27.7
06E9A:  BSF    FF2.7
....................          displayMenu(Menus.Letra,7,55,2,1); 
06E9C:  MOVLW  07
06E9E:  MOVWF  x28
06EA0:  MOVLW  03
06EA2:  MOVWF  x27
06EA4:  MOVLW  07
06EA6:  MOVWF  x29
06EA8:  MOVLW  37
06EAA:  MOVWF  x2A
06EAC:  MOVLW  02
06EAE:  MOVWF  x2B
06EB0:  MOVLW  01
06EB2:  MOVWF  x2C
06EB4:  MOVLB  0
06EB6:  CALL   22A8
....................           
....................          strcpy(Menus.Letra,"Temperatura:121 C"); 
06EBA:  MOVLW  07
06EBC:  MOVWF  FEA
06EBE:  MOVLW  03
06EC0:  MOVWF  FE9
06EC2:  MOVFF  FF2,727
06EC6:  BCF    FF2.7
06EC8:  MOVLW  00
06ECA:  CALL   0B00
06ECE:  TBLRD*-
06ED0:  TBLRD*+
06ED2:  MOVF   FF5,W
06ED4:  MOVWF  FEE
06ED6:  IORLW  00
06ED8:  BNZ   6ED0
06EDA:  MOVLB  7
06EDC:  BTFSC  x27.7
06EDE:  BSF    FF2.7
....................          displayMenu(Menus.Letra,0,26,0,1); 
06EE0:  MOVLW  07
06EE2:  MOVWF  x28
06EE4:  MOVLW  03
06EE6:  MOVWF  x27
06EE8:  CLRF   x29
06EEA:  MOVLW  1A
06EEC:  MOVWF  x2A
06EEE:  CLRF   x2B
06EF0:  MOVLW  01
06EF2:  MOVWF  x2C
06EF4:  MOVLB  0
06EF6:  CALL   22A8
....................          strcpy(Menus.Letra,"T. Esterilizacion:15m"); 
06EFA:  MOVLW  07
06EFC:  MOVWF  FEA
06EFE:  MOVLW  03
06F00:  MOVWF  FE9
06F02:  MOVFF  FF2,727
06F06:  BCF    FF2.7
06F08:  MOVLW  00
06F0A:  CALL   0B30
06F0E:  TBLRD*-
06F10:  TBLRD*+
06F12:  MOVF   FF5,W
06F14:  MOVWF  FEE
06F16:  IORLW  00
06F18:  BNZ   6F10
06F1A:  MOVLB  7
06F1C:  BTFSC  x27.7
06F1E:  BSF    FF2.7
....................          displayMenu(Menus.Letra,0,36,0,1); 
06F20:  MOVLW  07
06F22:  MOVWF  x28
06F24:  MOVLW  03
06F26:  MOVWF  x27
06F28:  CLRF   x29
06F2A:  MOVLW  24
06F2C:  MOVWF  x2A
06F2E:  CLRF   x2B
06F30:  MOVLW  01
06F32:  MOVWF  x2C
06F34:  MOVLB  0
06F36:  CALL   22A8
....................          strcpy(Menus.Letra,"T. Secado= N/A"); 
06F3A:  MOVLW  07
06F3C:  MOVWF  FEA
06F3E:  MOVLW  03
06F40:  MOVWF  FE9
06F42:  MOVFF  FF2,727
06F46:  BCF    FF2.7
06F48:  MOVLW  00
06F4A:  CALL   0BC6
06F4E:  TBLRD*-
06F50:  TBLRD*+
06F52:  MOVF   FF5,W
06F54:  MOVWF  FEE
06F56:  IORLW  00
06F58:  BNZ   6F50
06F5A:  MOVLB  7
06F5C:  BTFSC  x27.7
06F5E:  BSF    FF2.7
....................          displayMenu(Menus.Letra,0,46,0,1);            
06F60:  MOVLW  07
06F62:  MOVWF  x28
06F64:  MOVLW  03
06F66:  MOVWF  x27
06F68:  CLRF   x29
06F6A:  MOVLW  2E
06F6C:  MOVWF  x2A
06F6E:  CLRF   x2B
06F70:  MOVLW  01
06F72:  MOVWF  x2C
06F74:  MOVLB  0
06F76:  CALL   22A8
....................          visual=0; 
06F7A:  MOVLB  6
06F7C:  BCF    xD6.2
....................       } 
....................  
....................       if(LEFT)// Si oprime Izquier|da 
06F7E:  BSF    F96.1
06F80:  BTFSC  F84.1
06F82:  BRA    6FA4
....................       {  
....................          delay_ms(30);Menu=1;glcd_fillScreen(OFF);visual=1; 
06F84:  MOVLW  1E
06F86:  MOVLB  7
06F88:  MOVWF  x2D
06F8A:  MOVLB  0
06F8C:  CALL   1796
06F90:  MOVLW  01
06F92:  MOVLB  6
06F94:  MOVWF  xD8
06F96:  MOVLB  7
06F98:  CLRF   x28
06F9A:  MOVLB  0
06F9C:  CALL   1C7A
06FA0:  MOVLB  6
06FA2:  BSF    xD6.2
....................       }             
....................  
....................       if(RIGHT)// Si oprime derecha 
06FA4:  BSF    F96.0
06FA6:  BTFSC  F84.0
06FA8:  BRA    6FF6
....................       { 
....................          Testerilizacionp[0]=0;Testerilizacionp[1]=0;Testerilizacionp[2]=5;Testerilizacionp[3]=1; 
06FAA:  MOVLB  4
06FAC:  CLRF   x6A
06FAE:  CLRF   x6B
06FB0:  MOVLW  05
06FB2:  MOVWF  x6C
06FB4:  MOVLW  01
06FB6:  MOVWF  x6D
....................          desfoguelento=1;visual=1; 
06FB8:  MOVLB  6
06FBA:  BSF    xD6.3
06FBC:  BSF    xD6.2
....................          Tsecadop[0]=0;Tsecadop[1]=0;Tsecadop[2]=0;Tsecadop[3]=0; 
06FBE:  MOVLB  4
06FC0:  CLRF   x72
06FC2:  CLRF   x73
06FC4:  CLRF   x74
06FC6:  CLRF   x75
....................          Setpoint=121;Menu=14;delay_ms(700);glcd_fillScreen(OFF); 
06FC8:  MOVLW  79
06FCA:  MOVLB  6
06FCC:  MOVWF  xDD
06FCE:  MOVLW  0E
06FD0:  MOVWF  xD8
06FD2:  MOVLW  04
06FD4:  MOVLB  7
06FD6:  MOVWF  x27
06FD8:  MOVLW  AF
06FDA:  MOVWF  x2D
06FDC:  MOVLB  0
06FDE:  CALL   1796
06FE2:  MOVLB  7
06FE4:  DECFSZ x27,F
06FE6:  BRA    6FD8
06FE8:  CLRF   x28
06FEA:  MOVLB  0
06FEC:  CALL   1C7A
....................          VerifiqueAgua(); 
06FF0:  CALL   3868
06FF4:  MOVLB  6
....................       } 
....................      
....................     }     
.................... //_--------------------------------------------------------------------------------------------------------------------------------------------------------     
....................  
....................  //_-------------------------------------------------------------------------------------------------------------------------------------------------------- 
....................       if(Menu==7){ // Menu de textil e instrumental      
06FF6:  MOVF   xD8,W
06FF8:  SUBLW  07
06FFA:  BTFSS  FD8.2
06FFC:  BRA    71D0
....................        
....................       if(visual==1) 
06FFE:  BTFSS  xD6.2
07000:  BRA    7154
....................       { 
....................          glcd_imagen(1); //Tijeras y Camisa 
07002:  MOVLW  01
07004:  MOVLB  7
07006:  MOVWF  x27
07008:  MOVLB  0
0700A:  CALL   3764
....................          strcpy(Menus.Letra,"Tex & Ins"); 
0700E:  MOVLW  07
07010:  MOVWF  FEA
07012:  MOVLW  03
07014:  MOVWF  FE9
07016:  MOVFF  FF2,727
0701A:  BCF    FF2.7
0701C:  MOVLW  00
0701E:  CALL   0C1E
07022:  TBLRD*-
07024:  TBLRD*+
07026:  MOVF   FF5,W
07028:  MOVWF  FEE
0702A:  IORLW  00
0702C:  BNZ   7024
0702E:  MOVLB  7
07030:  BTFSC  x27.7
07032:  BSF    FF2.7
....................          displayMenu(Menus.Letra,0,0,1,2); 
07034:  MOVLW  07
07036:  MOVWF  x28
07038:  MOVLW  03
0703A:  MOVWF  x27
0703C:  CLRF   x29
0703E:  CLRF   x2A
07040:  MOVLW  01
07042:  MOVWF  x2B
07044:  MOVLW  02
07046:  MOVWF  x2C
07048:  MOVLB  0
0704A:  CALL   22A8
....................        
....................          strcpy(Menus.Letra,"Textil e Instrumental"); 
0704E:  MOVLW  07
07050:  MOVWF  FEA
07052:  MOVLW  03
07054:  MOVWF  FE9
07056:  MOVFF  FF2,727
0705A:  BCF    FF2.7
0705C:  MOVLW  00
0705E:  CALL   0A1E
07062:  TBLRD*-
07064:  TBLRD*+
07066:  MOVF   FF5,W
07068:  MOVWF  FEE
0706A:  IORLW  00
0706C:  BNZ   7064
0706E:  MOVLB  7
07070:  BTFSC  x27.7
07072:  BSF    FF2.7
....................          displayMenu(Menus.Letra,0,55,2,1); 
07074:  MOVLW  07
07076:  MOVWF  x28
07078:  MOVLW  03
0707A:  MOVWF  x27
0707C:  CLRF   x29
0707E:  MOVLW  37
07080:  MOVWF  x2A
07082:  MOVLW  02
07084:  MOVWF  x2B
07086:  MOVLW  01
07088:  MOVWF  x2C
0708A:  MOVLB  0
0708C:  CALL   22A8
....................           
....................          strcpy(Menus.Letra,"Temperatura:121 C"); 
07090:  MOVLW  07
07092:  MOVWF  FEA
07094:  MOVLW  03
07096:  MOVWF  FE9
07098:  MOVFF  FF2,727
0709C:  BCF    FF2.7
0709E:  MOVLW  00
070A0:  CALL   0B00
070A4:  TBLRD*-
070A6:  TBLRD*+
070A8:  MOVF   FF5,W
070AA:  MOVWF  FEE
070AC:  IORLW  00
070AE:  BNZ   70A6
070B0:  MOVLB  7
070B2:  BTFSC  x27.7
070B4:  BSF    FF2.7
....................          displayMenu(Menus.Letra,0,26,0,1); 
070B6:  MOVLW  07
070B8:  MOVWF  x28
070BA:  MOVLW  03
070BC:  MOVWF  x27
070BE:  CLRF   x29
070C0:  MOVLW  1A
070C2:  MOVWF  x2A
070C4:  CLRF   x2B
070C6:  MOVLW  01
070C8:  MOVWF  x2C
070CA:  MOVLB  0
070CC:  CALL   22A8
....................          strcpy(Menus.Letra,"T. Esterilizacion:25m"); 
070D0:  MOVLW  07
070D2:  MOVWF  FEA
070D4:  MOVLW  03
070D6:  MOVWF  FE9
070D8:  MOVFF  FF2,727
070DC:  BCF    FF2.7
070DE:  MOVLW  00
070E0:  CALL   0C46
070E4:  TBLRD*-
070E6:  TBLRD*+
070E8:  MOVF   FF5,W
070EA:  MOVWF  FEE
070EC:  IORLW  00
070EE:  BNZ   70E6
070F0:  MOVLB  7
070F2:  BTFSC  x27.7
070F4:  BSF    FF2.7
....................          displayMenu(Menus.Letra,0,36,0,1); 
070F6:  MOVLW  07
070F8:  MOVWF  x28
070FA:  MOVLW  03
070FC:  MOVWF  x27
070FE:  CLRF   x29
07100:  MOVLW  24
07102:  MOVWF  x2A
07104:  CLRF   x2B
07106:  MOVLW  01
07108:  MOVWF  x2C
0710A:  MOVLB  0
0710C:  CALL   22A8
....................          strcpy(Menus.Letra,"T. Secado= 10m"); 
07110:  MOVLW  07
07112:  MOVWF  FEA
07114:  MOVLW  03
07116:  MOVWF  FE9
07118:  MOVFF  FF2,727
0711C:  BCF    FF2.7
0711E:  MOVLW  00
07120:  CALL   0C7A
07124:  TBLRD*-
07126:  TBLRD*+
07128:  MOVF   FF5,W
0712A:  MOVWF  FEE
0712C:  IORLW  00
0712E:  BNZ   7126
07130:  MOVLB  7
07132:  BTFSC  x27.7
07134:  BSF    FF2.7
....................          displayMenu(Menus.Letra,0,46,0,1);            
07136:  MOVLW  07
07138:  MOVWF  x28
0713A:  MOVLW  03
0713C:  MOVWF  x27
0713E:  CLRF   x29
07140:  MOVLW  2E
07142:  MOVWF  x2A
07144:  CLRF   x2B
07146:  MOVLW  01
07148:  MOVWF  x2C
0714A:  MOVLB  0
0714C:  CALL   22A8
....................          visual=0; 
07150:  MOVLB  6
07152:  BCF    xD6.2
....................       } 
....................  
....................       if(LEFT)// Si oprime Izquier|da 
07154:  BSF    F96.1
07156:  BTFSC  F84.1
07158:  BRA    717A
....................       {  
....................          delay_ms(30);Menu=1;glcd_fillScreen(OFF);visual=1; 
0715A:  MOVLW  1E
0715C:  MOVLB  7
0715E:  MOVWF  x2D
07160:  MOVLB  0
07162:  CALL   1796
07166:  MOVLW  01
07168:  MOVLB  6
0716A:  MOVWF  xD8
0716C:  MOVLB  7
0716E:  CLRF   x28
07170:  MOVLB  0
07172:  CALL   1C7A
07176:  MOVLB  6
07178:  BSF    xD6.2
....................       }                  
....................  
....................       if(RIGHT)// Si oprime derecha 
0717A:  BSF    F96.0
0717C:  BTFSC  F84.0
0717E:  BRA    71D0
....................       { 
....................          Testerilizacionp[0]=0;Testerilizacionp[1]=0;Testerilizacionp[2]=5;Testerilizacionp[3]=2; 
07180:  MOVLB  4
07182:  CLRF   x6A
07184:  CLRF   x6B
07186:  MOVLW  05
07188:  MOVWF  x6C
0718A:  MOVLW  02
0718C:  MOVWF  x6D
....................          visual=1; 
0718E:  MOVLB  6
07190:  BSF    xD6.2
....................          Tsecadop[0]=0;Tsecadop[1]=0;Tsecadop[2]=0;Tsecadop[3]=1; 
07192:  MOVLB  4
07194:  CLRF   x72
07196:  CLRF   x73
07198:  CLRF   x74
0719A:  MOVLW  01
0719C:  MOVWF  x75
....................          Setpoint=121; 
0719E:  MOVLW  79
071A0:  MOVLB  6
071A2:  MOVWF  xDD
....................          Menu=20; 
071A4:  MOVLW  14
071A6:  MOVWF  xD8
....................          tiempo_secado=0; 
071A8:  CLRF   xE0
....................          glcd_fillScreen(OFF); 
071AA:  MOVLB  7
071AC:  CLRF   x28
071AE:  MOVLB  0
071B0:  CALL   1C7A
....................          CuadroCalentando(ON); 
071B4:  MOVLW  01
071B6:  MOVLB  7
071B8:  MOVWF  x27
071BA:  MOVLB  0
071BC:  CALL   3814
....................          desfoguelento=0; 
071C0:  MOVLB  6
071C2:  BCF    xD6.3
....................          IniciaCiclo=ON; 
071C4:  MOVLB  4
071C6:  BSF    x5E.0
....................          VerifiqueAgua(); 
071C8:  MOVLB  0
071CA:  CALL   3868
071CE:  MOVLB  6
....................       } 
....................      
....................     }     
.................... //_--------------------------------------------------------------------------------------------------------------------------------------------------------     
....................  
.................... //_--------------------------------------------------------------------------------------------------------------------------------------------------------       
....................       if(Menu==8){ // Menu de Proceso Personalizado 
071D0:  MOVF   xD8,W
071D2:  SUBLW  08
071D4:  BTFSS  FD8.2
071D6:  BRA    75BE
....................          
....................          if(visual==1) 
071D8:  BTFSS  xD6.2
071DA:  BRA    7500
....................          { 
....................             if(Opcion>5) 
071DC:  MOVF   xDE,W
071DE:  SUBLW  05
071E0:  BC    71E6
....................             {Opcion=1;} 
071E2:  MOVLW  01
071E4:  MOVWF  xDE
....................             if(Opcion<1) 
071E6:  MOVF   xDE,F
071E8:  BNZ   71EE
....................             {Opcion=5;} 
071EA:  MOVLW  05
071EC:  MOVWF  xDE
....................              
....................             strcpy(Menus.Letra,"Proceso Personalizado"); 
071EE:  MOVLW  07
071F0:  MOVWF  FEA
071F2:  MOVLW  03
071F4:  MOVWF  FE9
071F6:  MOVFF  FF2,727
071FA:  BCF    FF2.7
071FC:  MOVLW  00
071FE:  MOVLB  0
07200:  CALL   0CA8
07204:  TBLRD*-
07206:  TBLRD*+
07208:  MOVF   FF5,W
0720A:  MOVWF  FEE
0720C:  IORLW  00
0720E:  BNZ   7206
07210:  MOVLB  7
07212:  BTFSC  x27.7
07214:  BSF    FF2.7
....................             displayMenu(Menus.Letra,0,0,1,1); 
07216:  MOVLW  07
07218:  MOVWF  x28
0721A:  MOVLW  03
0721C:  MOVWF  x27
0721E:  CLRF   x29
07220:  CLRF   x2A
07222:  MOVLW  01
07224:  MOVWF  x2B
07226:  MOVWF  x2C
07228:  MOVLB  0
0722A:  CALL   22A8
....................        
....................             if(Opcion==1)    
0722E:  MOVLB  6
07230:  DECFSZ xDE,W
07232:  BRA    727A
....................                {strcpy(Menus.Letra,"T. Esterilizacion"); 
07234:  MOVLW  07
07236:  MOVWF  FEA
07238:  MOVLW  03
0723A:  MOVWF  FE9
0723C:  MOVFF  FF2,727
07240:  BCF    FF2.7
07242:  MOVLW  00
07244:  MOVLB  0
07246:  CALL   0CDC
0724A:  TBLRD*-
0724C:  TBLRD*+
0724E:  MOVF   FF5,W
07250:  MOVWF  FEE
07252:  IORLW  00
07254:  BNZ   724C
07256:  MOVLB  7
07258:  BTFSC  x27.7
0725A:  BSF    FF2.7
....................                displayMenu(Menus.Letra,0,10,1,1);} 
0725C:  MOVLW  07
0725E:  MOVWF  x28
07260:  MOVLW  03
07262:  MOVWF  x27
07264:  CLRF   x29
07266:  MOVLW  0A
07268:  MOVWF  x2A
0726A:  MOVLW  01
0726C:  MOVWF  x2B
0726E:  MOVWF  x2C
07270:  MOVLB  0
07272:  CALL   22A8
....................             else 
07276:  BRA    72BC
07278:  MOVLB  6
....................                {strcpy(Menus.Letra,"T. Esterilizacion"); 
0727A:  MOVLW  07
0727C:  MOVWF  FEA
0727E:  MOVLW  03
07280:  MOVWF  FE9
07282:  MOVFF  FF2,727
07286:  BCF    FF2.7
07288:  MOVLW  00
0728A:  MOVLB  0
0728C:  CALL   0CDC
07290:  TBLRD*-
07292:  TBLRD*+
07294:  MOVF   FF5,W
07296:  MOVWF  FEE
07298:  IORLW  00
0729A:  BNZ   7292
0729C:  MOVLB  7
0729E:  BTFSC  x27.7
072A0:  BSF    FF2.7
....................                displayMenu(Menus.Letra,0,10,0,1);} 
072A2:  MOVLW  07
072A4:  MOVWF  x28
072A6:  MOVLW  03
072A8:  MOVWF  x27
072AA:  CLRF   x29
072AC:  MOVLW  0A
072AE:  MOVWF  x2A
072B0:  CLRF   x2B
072B2:  MOVLW  01
072B4:  MOVWF  x2C
072B6:  MOVLB  0
072B8:  CALL   22A8
....................              
....................             if(Opcion==2)    
072BC:  MOVLB  6
072BE:  MOVF   xDE,W
072C0:  SUBLW  02
072C2:  BNZ   730A
....................                {strcpy(Menus.Letra,"T. Secado"); 
072C4:  MOVLW  07
072C6:  MOVWF  FEA
072C8:  MOVLW  03
072CA:  MOVWF  FE9
072CC:  MOVFF  FF2,727
072D0:  BCF    FF2.7
072D2:  MOVLW  00
072D4:  MOVLB  0
072D6:  CALL   0D0C
072DA:  TBLRD*-
072DC:  TBLRD*+
072DE:  MOVF   FF5,W
072E0:  MOVWF  FEE
072E2:  IORLW  00
072E4:  BNZ   72DC
072E6:  MOVLB  7
072E8:  BTFSC  x27.7
072EA:  BSF    FF2.7
....................                displayMenu(Menus.Letra,0,20,1,1);} 
072EC:  MOVLW  07
072EE:  MOVWF  x28
072F0:  MOVLW  03
072F2:  MOVWF  x27
072F4:  CLRF   x29
072F6:  MOVLW  14
072F8:  MOVWF  x2A
072FA:  MOVLW  01
072FC:  MOVWF  x2B
072FE:  MOVWF  x2C
07300:  MOVLB  0
07302:  CALL   22A8
....................             else 
07306:  BRA    734C
07308:  MOVLB  6
....................                {strcpy(Menus.Letra,"T. Secado"); 
0730A:  MOVLW  07
0730C:  MOVWF  FEA
0730E:  MOVLW  03
07310:  MOVWF  FE9
07312:  MOVFF  FF2,727
07316:  BCF    FF2.7
07318:  MOVLW  00
0731A:  MOVLB  0
0731C:  CALL   0D0C
07320:  TBLRD*-
07322:  TBLRD*+
07324:  MOVF   FF5,W
07326:  MOVWF  FEE
07328:  IORLW  00
0732A:  BNZ   7322
0732C:  MOVLB  7
0732E:  BTFSC  x27.7
07330:  BSF    FF2.7
....................                displayMenu(Menus.Letra,0,20,0,1);}    
07332:  MOVLW  07
07334:  MOVWF  x28
07336:  MOVLW  03
07338:  MOVWF  x27
0733A:  CLRF   x29
0733C:  MOVLW  14
0733E:  MOVWF  x2A
07340:  CLRF   x2B
07342:  MOVLW  01
07344:  MOVWF  x2C
07346:  MOVLB  0
07348:  CALL   22A8
....................                 
....................              if(Opcion==3)    
0734C:  MOVLB  6
0734E:  MOVF   xDE,W
07350:  SUBLW  03
07352:  BNZ   739A
....................                {strcpy(Menus.Letra,"Temperatura"); 
07354:  MOVLW  07
07356:  MOVWF  FEA
07358:  MOVLW  03
0735A:  MOVWF  FE9
0735C:  MOVFF  FF2,727
07360:  BCF    FF2.7
07362:  MOVLW  00
07364:  MOVLB  0
07366:  CALL   0D34
0736A:  TBLRD*-
0736C:  TBLRD*+
0736E:  MOVF   FF5,W
07370:  MOVWF  FEE
07372:  IORLW  00
07374:  BNZ   736C
07376:  MOVLB  7
07378:  BTFSC  x27.7
0737A:  BSF    FF2.7
....................                displayMenu(Menus.Letra,0,30,1,1);} 
0737C:  MOVLW  07
0737E:  MOVWF  x28
07380:  MOVLW  03
07382:  MOVWF  x27
07384:  CLRF   x29
07386:  MOVLW  1E
07388:  MOVWF  x2A
0738A:  MOVLW  01
0738C:  MOVWF  x2B
0738E:  MOVWF  x2C
07390:  MOVLB  0
07392:  CALL   22A8
....................             else 
07396:  BRA    73DC
07398:  MOVLB  6
....................                {strcpy(Menus.Letra,"Temperatura"); 
0739A:  MOVLW  07
0739C:  MOVWF  FEA
0739E:  MOVLW  03
073A0:  MOVWF  FE9
073A2:  MOVFF  FF2,727
073A6:  BCF    FF2.7
073A8:  MOVLW  00
073AA:  MOVLB  0
073AC:  CALL   0D34
073B0:  TBLRD*-
073B2:  TBLRD*+
073B4:  MOVF   FF5,W
073B6:  MOVWF  FEE
073B8:  IORLW  00
073BA:  BNZ   73B2
073BC:  MOVLB  7
073BE:  BTFSC  x27.7
073C0:  BSF    FF2.7
....................                displayMenu(Menus.Letra,0,30,0,1);} 
073C2:  MOVLW  07
073C4:  MOVWF  x28
073C6:  MOVLW  03
073C8:  MOVWF  x27
073CA:  CLRF   x29
073CC:  MOVLW  1E
073CE:  MOVWF  x2A
073D0:  CLRF   x2B
073D2:  MOVLW  01
073D4:  MOVWF  x2C
073D6:  MOVLB  0
073D8:  CALL   22A8
....................                 
....................             if(Opcion==4)    
073DC:  MOVLB  6
073DE:  MOVF   xDE,W
073E0:  SUBLW  04
073E2:  BNZ   742A
....................                {strcpy(Menus.Letra,"Nivel de desfogue"); 
073E4:  MOVLW  07
073E6:  MOVWF  FEA
073E8:  MOVLW  03
073EA:  MOVWF  FE9
073EC:  MOVFF  FF2,727
073F0:  BCF    FF2.7
073F2:  MOVLW  00
073F4:  MOVLB  0
073F6:  CALL   0D5E
073FA:  TBLRD*-
073FC:  TBLRD*+
073FE:  MOVF   FF5,W
07400:  MOVWF  FEE
07402:  IORLW  00
07404:  BNZ   73FC
07406:  MOVLB  7
07408:  BTFSC  x27.7
0740A:  BSF    FF2.7
....................                displayMenu(Menus.Letra,0,40,1,1);} 
0740C:  MOVLW  07
0740E:  MOVWF  x28
07410:  MOVLW  03
07412:  MOVWF  x27
07414:  CLRF   x29
07416:  MOVLW  28
07418:  MOVWF  x2A
0741A:  MOVLW  01
0741C:  MOVWF  x2B
0741E:  MOVWF  x2C
07420:  MOVLB  0
07422:  CALL   22A8
....................             else 
07426:  BRA    746C
07428:  MOVLB  6
....................                {strcpy(Menus.Letra,"Nivel de desfogue"); 
0742A:  MOVLW  07
0742C:  MOVWF  FEA
0742E:  MOVLW  03
07430:  MOVWF  FE9
07432:  MOVFF  FF2,727
07436:  BCF    FF2.7
07438:  MOVLW  00
0743A:  MOVLB  0
0743C:  CALL   0D5E
07440:  TBLRD*-
07442:  TBLRD*+
07444:  MOVF   FF5,W
07446:  MOVWF  FEE
07448:  IORLW  00
0744A:  BNZ   7442
0744C:  MOVLB  7
0744E:  BTFSC  x27.7
07450:  BSF    FF2.7
....................                displayMenu(Menus.Letra,0,40,0,1);}    
07452:  MOVLW  07
07454:  MOVWF  x28
07456:  MOVLW  03
07458:  MOVWF  x27
0745A:  CLRF   x29
0745C:  MOVLW  28
0745E:  MOVWF  x2A
07460:  CLRF   x2B
07462:  MOVLW  01
07464:  MOVWF  x2C
07466:  MOVLB  0
07468:  CALL   22A8
....................                 
....................             if(Opcion==5)    
0746C:  MOVLB  6
0746E:  MOVF   xDE,W
07470:  SUBLW  05
07472:  BNZ   74BA
....................                {strcpy(Menus.Letra,"Continuar"); 
07474:  MOVLW  07
07476:  MOVWF  FEA
07478:  MOVLW  03
0747A:  MOVWF  FE9
0747C:  MOVFF  FF2,727
07480:  BCF    FF2.7
07482:  MOVLW  00
07484:  MOVLB  0
07486:  CALL   0D8E
0748A:  TBLRD*-
0748C:  TBLRD*+
0748E:  MOVF   FF5,W
07490:  MOVWF  FEE
07492:  IORLW  00
07494:  BNZ   748C
07496:  MOVLB  7
07498:  BTFSC  x27.7
0749A:  BSF    FF2.7
....................                displayMenu(Menus.Letra,0,50,1,1);} 
0749C:  MOVLW  07
0749E:  MOVWF  x28
074A0:  MOVLW  03
074A2:  MOVWF  x27
074A4:  CLRF   x29
074A6:  MOVLW  32
074A8:  MOVWF  x2A
074AA:  MOVLW  01
074AC:  MOVWF  x2B
074AE:  MOVWF  x2C
074B0:  MOVLB  0
074B2:  CALL   22A8
....................             else 
074B6:  BRA    74FC
074B8:  MOVLB  6
....................                {strcpy(Menus.Letra,"Continuar"); 
074BA:  MOVLW  07
074BC:  MOVWF  FEA
074BE:  MOVLW  03
074C0:  MOVWF  FE9
074C2:  MOVFF  FF2,727
074C6:  BCF    FF2.7
074C8:  MOVLW  00
074CA:  MOVLB  0
074CC:  CALL   0D8E
074D0:  TBLRD*-
074D2:  TBLRD*+
074D4:  MOVF   FF5,W
074D6:  MOVWF  FEE
074D8:  IORLW  00
074DA:  BNZ   74D2
074DC:  MOVLB  7
074DE:  BTFSC  x27.7
074E0:  BSF    FF2.7
....................                displayMenu(Menus.Letra,0,50,0,1);}   
074E2:  MOVLW  07
074E4:  MOVWF  x28
074E6:  MOVLW  03
074E8:  MOVWF  x27
074EA:  CLRF   x29
074EC:  MOVLW  32
074EE:  MOVWF  x2A
074F0:  CLRF   x2B
074F2:  MOVLW  01
074F4:  MOVWF  x2C
074F6:  MOVLB  0
074F8:  CALL   22A8
....................                           
....................             visual=0; 
074FC:  MOVLB  6
074FE:  BCF    xD6.2
....................          } 
....................          if(UP)//Si oprime hacia arriba 
07500:  BSF    F92.4
07502:  BTFSC  F80.4
07504:  BRA    7524
....................          {  if(Flanco == 0)  
07506:  MOVLB  4
07508:  BTFSC  x5F.7
0750A:  BRA    7522
....................                {Flanco = 1;delay_ms(30);Opcion--;visual=1; 
0750C:  BSF    x5F.7
0750E:  MOVLW  1E
07510:  MOVLB  7
07512:  MOVWF  x2D
07514:  MOVLB  0
07516:  CALL   1796
0751A:  MOVLB  6
0751C:  DECF   xDE,F
0751E:  BSF    xD6.2
07520:  MOVLB  4
....................                } 
....................          } 
....................             else 
07522:  BRA    7528
....................                {Flanco = 0;} 
07524:  MOVLB  4
07526:  BCF    x5F.7
....................                    
....................          if(DOWN)//Si oprime hacia abajo 
07528:  BSF    F92.5
0752A:  BTFSC  F80.5
0752C:  BRA    754A
....................          {  if(Flanco2 == 0)  
0752E:  MOVLB  6
07530:  BTFSC  xD6.1
07532:  BRA    7548
....................                {Flanco2 = 1;delay_ms(30);Opcion++;visual=1; 
07534:  BSF    xD6.1
07536:  MOVLW  1E
07538:  MOVLB  7
0753A:  MOVWF  x2D
0753C:  MOVLB  0
0753E:  CALL   1796
07542:  MOVLB  6
07544:  INCF   xDE,F
07546:  BSF    xD6.2
....................                }      
....................          } 
....................             else 
07548:  BRA    754E
....................                {Flanco2 = 0;}   
0754A:  MOVLB  6
0754C:  BCF    xD6.1
....................                 
....................          if(RIGHT)//Si oprime SET 
0754E:  BSF    F96.0
07550:  BTFSC  F84.0
07552:  BRA    758C
....................          {  if(Flanco1 == 0)  
07554:  BTFSC  xD6.0
07556:  BRA    758A
....................                {Flanco1 = 1;delay_ms(300);Menu=Opcion+10;Opcion=1;glcd_fillscreen(OFF);visual=1; 
07558:  BSF    xD6.0
0755A:  MOVLW  02
0755C:  MOVLB  7
0755E:  MOVWF  x27
07560:  MOVLW  96
07562:  MOVWF  x2D
07564:  MOVLB  0
07566:  CALL   1796
0756A:  MOVLB  7
0756C:  DECFSZ x27,F
0756E:  BRA    7560
07570:  MOVLW  0A
07572:  MOVLB  6
07574:  ADDWF  xDE,W
07576:  MOVWF  xD8
07578:  MOVLW  01
0757A:  MOVWF  xDE
0757C:  MOVLB  7
0757E:  CLRF   x28
07580:  MOVLB  0
07582:  CALL   1C7A
07586:  MOVLB  6
07588:  BSF    xD6.2
....................                } 
....................          } 
....................             else 
0758A:  BRA    758E
....................                {Flanco1 = 0;}   
0758C:  BCF    xD6.0
....................                 
....................          if(LEFT)//Si oprime boton de Toma. 
0758E:  BSF    F96.1
07590:  BTFSC  F84.1
07592:  BRA    75BE
....................          {delay_ms(700);Menu=1;glcd_fillscreen(OFF);visual=1;} 
07594:  MOVLW  04
07596:  MOVLB  7
07598:  MOVWF  x27
0759A:  MOVLW  AF
0759C:  MOVWF  x2D
0759E:  MOVLB  0
075A0:  CALL   1796
075A4:  MOVLB  7
075A6:  DECFSZ x27,F
075A8:  BRA    759A
075AA:  MOVLW  01
075AC:  MOVLB  6
075AE:  MOVWF  xD8
075B0:  MOVLB  7
075B2:  CLRF   x28
075B4:  MOVLB  0
075B6:  CALL   1C7A
075BA:  MOVLB  6
075BC:  BSF    xD6.2
....................           
....................     }     
.................... //_--------------------------------------------------------------------------------------------------------------------------------------------------------     
....................  
.................... //_--------------------------------------------------------------------------------------------------------------------------------------------------------       
....................       if(Menu==9){ // Menu de Cambio de Contrasea 
075BE:  MOVF   xD8,W
075C0:  SUBLW  09
075C2:  BTFSS  FD8.2
075C4:  BRA    7A88
....................          
....................       strcpy(Menus.Letra,"Clave"); 
075C6:  MOVLW  07
075C8:  MOVWF  FEA
075CA:  MOVLW  03
075CC:  MOVWF  FE9
075CE:  MOVFF  FF2,727
075D2:  BCF    FF2.7
075D4:  MOVLW  00
075D6:  MOVLB  0
075D8:  CALL   08FA
075DC:  TBLRD*-
075DE:  TBLRD*+
075E0:  MOVF   FF5,W
075E2:  MOVWF  FEE
075E4:  IORLW  00
075E6:  BNZ   75DE
075E8:  MOVLB  7
075EA:  BTFSC  x27.7
075EC:  BSF    FF2.7
....................       displayMenu(Menus.Letra,30,0,1,2);      
075EE:  MOVLW  07
075F0:  MOVWF  x28
075F2:  MOVLW  03
075F4:  MOVWF  x27
075F6:  MOVLW  1E
075F8:  MOVWF  x29
075FA:  CLRF   x2A
075FC:  MOVLW  01
075FE:  MOVWF  x2B
07600:  MOVLW  02
07602:  MOVWF  x2C
07604:  MOVLB  0
07606:  CALL   22A8
....................        
....................       if(unidad==1) 
0760A:  MOVLB  6
0760C:  DECFSZ xD9,W
0760E:  BRA    766E
....................       { 
....................          displayContrasena(Contrasena[0],20,30,1); 
07610:  MOVFF  6F3,729
07614:  MOVLW  14
07616:  MOVLB  7
07618:  MOVWF  x2A
0761A:  MOVLW  1E
0761C:  MOVWF  x2B
0761E:  MOVLW  01
07620:  MOVWF  x2C
07622:  MOVLB  0
07624:  CALL   24CE
....................          displayContrasena(Contrasena[1],40,30,0); 
07628:  MOVFF  6F4,729
0762C:  MOVLW  28
0762E:  MOVLB  7
07630:  MOVWF  x2A
07632:  MOVLW  1E
07634:  MOVWF  x2B
07636:  CLRF   x2C
07638:  MOVLB  0
0763A:  CALL   24CE
....................          displayContrasena(Contrasena[2],60,30,0); 
0763E:  MOVFF  6F5,729
07642:  MOVLW  3C
07644:  MOVLB  7
07646:  MOVWF  x2A
07648:  MOVLW  1E
0764A:  MOVWF  x2B
0764C:  CLRF   x2C
0764E:  MOVLB  0
07650:  CALL   24CE
....................          displayContrasena(Contrasena[3],80,30,0); 
07654:  MOVFF  6F6,729
07658:  MOVLW  50
0765A:  MOVLB  7
0765C:  MOVWF  x2A
0765E:  MOVLW  1E
07660:  MOVWF  x2B
07662:  CLRF   x2C
07664:  MOVLB  0
07666:  CALL   24CE
....................       } 
....................       else 
0766A:  BRA    7796
0766C:  MOVLB  6
....................       { 
....................          if(unidad==2) 
0766E:  MOVF   xD9,W
07670:  SUBLW  02
07672:  BNZ   76D2
....................          { 
....................             displayContrasena(Contrasena[0],20,30,0); 
07674:  MOVFF  6F3,729
07678:  MOVLW  14
0767A:  MOVLB  7
0767C:  MOVWF  x2A
0767E:  MOVLW  1E
07680:  MOVWF  x2B
07682:  CLRF   x2C
07684:  MOVLB  0
07686:  CALL   24CE
....................             displayContrasena(Contrasena[1],40,30,1); 
0768A:  MOVFF  6F4,729
0768E:  MOVLW  28
07690:  MOVLB  7
07692:  MOVWF  x2A
07694:  MOVLW  1E
07696:  MOVWF  x2B
07698:  MOVLW  01
0769A:  MOVWF  x2C
0769C:  MOVLB  0
0769E:  CALL   24CE
....................             displayContrasena(Contrasena[2],60,30,0); 
076A2:  MOVFF  6F5,729
076A6:  MOVLW  3C
076A8:  MOVLB  7
076AA:  MOVWF  x2A
076AC:  MOVLW  1E
076AE:  MOVWF  x2B
076B0:  CLRF   x2C
076B2:  MOVLB  0
076B4:  CALL   24CE
....................             displayContrasena(Contrasena[3],80,30,0); 
076B8:  MOVFF  6F6,729
076BC:  MOVLW  50
076BE:  MOVLB  7
076C0:  MOVWF  x2A
076C2:  MOVLW  1E
076C4:  MOVWF  x2B
076C6:  CLRF   x2C
076C8:  MOVLB  0
076CA:  CALL   24CE
....................          } 
....................          else 
076CE:  BRA    7796
076D0:  MOVLB  6
....................          { 
....................             if(unidad==3) 
076D2:  MOVF   xD9,W
076D4:  SUBLW  03
076D6:  BNZ   7736
....................             { 
....................                displayContrasena(Contrasena[0],20,30,0); 
076D8:  MOVFF  6F3,729
076DC:  MOVLW  14
076DE:  MOVLB  7
076E0:  MOVWF  x2A
076E2:  MOVLW  1E
076E4:  MOVWF  x2B
076E6:  CLRF   x2C
076E8:  MOVLB  0
076EA:  CALL   24CE
....................                displayContrasena(Contrasena[1],40,30,0); 
076EE:  MOVFF  6F4,729
076F2:  MOVLW  28
076F4:  MOVLB  7
076F6:  MOVWF  x2A
076F8:  MOVLW  1E
076FA:  MOVWF  x2B
076FC:  CLRF   x2C
076FE:  MOVLB  0
07700:  CALL   24CE
....................                displayContrasena(Contrasena[2],60,30,1); 
07704:  MOVFF  6F5,729
07708:  MOVLW  3C
0770A:  MOVLB  7
0770C:  MOVWF  x2A
0770E:  MOVLW  1E
07710:  MOVWF  x2B
07712:  MOVLW  01
07714:  MOVWF  x2C
07716:  MOVLB  0
07718:  CALL   24CE
....................                displayContrasena(Contrasena[3],80,30,0); 
0771C:  MOVFF  6F6,729
07720:  MOVLW  50
07722:  MOVLB  7
07724:  MOVWF  x2A
07726:  MOVLW  1E
07728:  MOVWF  x2B
0772A:  CLRF   x2C
0772C:  MOVLB  0
0772E:  CALL   24CE
....................             } 
....................             else 
07732:  BRA    7796
07734:  MOVLB  6
....................             { 
....................                if(unidad==4) 
07736:  MOVF   xD9,W
07738:  SUBLW  04
0773A:  BNZ   7798
....................                { 
....................                   displayContrasena(Contrasena[0],20,30,0); 
0773C:  MOVFF  6F3,729
07740:  MOVLW  14
07742:  MOVLB  7
07744:  MOVWF  x2A
07746:  MOVLW  1E
07748:  MOVWF  x2B
0774A:  CLRF   x2C
0774C:  MOVLB  0
0774E:  CALL   24CE
....................                   displayContrasena(Contrasena[1],40,30,0); 
07752:  MOVFF  6F4,729
07756:  MOVLW  28
07758:  MOVLB  7
0775A:  MOVWF  x2A
0775C:  MOVLW  1E
0775E:  MOVWF  x2B
07760:  CLRF   x2C
07762:  MOVLB  0
07764:  CALL   24CE
....................                   displayContrasena(Contrasena[2],60,30,0); 
07768:  MOVFF  6F5,729
0776C:  MOVLW  3C
0776E:  MOVLB  7
07770:  MOVWF  x2A
07772:  MOVLW  1E
07774:  MOVWF  x2B
07776:  CLRF   x2C
07778:  MOVLB  0
0777A:  CALL   24CE
....................                   displayContrasena(Contrasena[3],80,30,1); 
0777E:  MOVFF  6F6,729
07782:  MOVLW  50
07784:  MOVLB  7
07786:  MOVWF  x2A
07788:  MOVLW  1E
0778A:  MOVWF  x2B
0778C:  MOVLW  01
0778E:  MOVWF  x2C
07790:  MOVLB  0
07792:  CALL   24CE
07796:  MOVLB  6
....................                } 
....................             } 
....................          } 
....................       } 
....................        
....................       if(UP)//Si oprime hacia arriba 
07798:  BSF    F92.4
0779A:  BTFSC  F80.4
0779C:  BRA    780C
....................       { 
....................          if(Flanco == 0) 
0779E:  MOVLB  4
077A0:  BTFSC  x5F.7
077A2:  BRA    7808
....................          { 
....................             Flanco = 1;delay_ms(30); 
077A4:  BSF    x5F.7
077A6:  MOVLW  1E
077A8:  MOVLB  7
077AA:  MOVWF  x2D
077AC:  MOVLB  0
077AE:  CALL   1796
....................             for(i=1;i<=4;i++) 
077B2:  MOVLW  01
077B4:  MOVLB  6
077B6:  MOVWF  xDA
077B8:  MOVF   xDA,W
077BA:  SUBLW  04
077BC:  BNC   7806
....................             { 
....................                if(unidad==i) 
077BE:  MOVF   xDA,W
077C0:  SUBWF  xD9,W
077C2:  BNZ   7802
....................                { 
....................                   Contrasena[i-1]++; 
077C4:  MOVLW  01
077C6:  SUBWF  xDA,W
077C8:  CLRF   03
077CA:  ADDLW  F3
077CC:  MOVWF  FE9
077CE:  MOVLW  06
077D0:  ADDWFC 03,W
077D2:  MOVWF  FEA
077D4:  INCF   FEF,F
....................                   if(Contrasena[i-1]>9)    
077D6:  MOVLW  01
077D8:  SUBWF  xDA,W
077DA:  CLRF   03
077DC:  ADDLW  F3
077DE:  MOVWF  FE9
077E0:  MOVLW  06
077E2:  ADDWFC 03,W
077E4:  MOVWF  FEA
077E6:  BTFSC  FEF.7
077E8:  BRA    7802
077EA:  MOVF   FEF,W
077EC:  SUBLW  09
077EE:  BC    7802
....................                   { 
....................                      Contrasena[i-1]=0; 
077F0:  MOVLW  01
077F2:  SUBWF  xDA,W
077F4:  CLRF   03
077F6:  ADDLW  F3
077F8:  MOVWF  FE9
077FA:  MOVLW  06
077FC:  ADDWFC 03,W
077FE:  MOVWF  FEA
07800:  CLRF   FEF
....................                   } 
....................                } 
....................             } 
07802:  INCF   xDA,F
07804:  BRA    77B8
07806:  MOVLB  4
....................          } 
....................       } 
....................       else 
07808:  BRA    7810
0780A:  MOVLB  6
....................       { 
....................          Flanco = 0; 
0780C:  MOVLB  4
0780E:  BCF    x5F.7
....................       } 
....................              
....................       if(DOWN)//Si oprime hacia abajo 
07810:  BSF    F92.5
07812:  BTFSC  F80.5
07814:  BRA    7880
....................       { 
....................          if(Flanco2 == 0) 
07816:  MOVLB  6
07818:  BTFSC  xD6.1
0781A:  BRA    787C
....................             {Flanco2 = 1;delay_ms(30); 
0781C:  BSF    xD6.1
0781E:  MOVLW  1E
07820:  MOVLB  7
07822:  MOVWF  x2D
07824:  MOVLB  0
07826:  CALL   1796
....................                for(i=1;i<=4;i++) 
0782A:  MOVLW  01
0782C:  MOVLB  6
0782E:  MOVWF  xDA
07830:  MOVF   xDA,W
07832:  SUBLW  04
07834:  BNC   787C
....................                { 
....................                   if(unidad==i) 
07836:  MOVF   xDA,W
07838:  SUBWF  xD9,W
0783A:  BNZ   7878
....................                   {Contrasena[i-1]--;  
0783C:  MOVLW  01
0783E:  SUBWF  xDA,W
07840:  CLRF   03
07842:  ADDLW  F3
07844:  MOVWF  FE9
07846:  MOVLW  06
07848:  ADDWFC 03,W
0784A:  MOVWF  FEA
0784C:  DECF   FEF,F
....................                      if(Contrasena[i-1]<0) 
0784E:  MOVLW  01
07850:  SUBWF  xDA,W
07852:  CLRF   03
07854:  ADDLW  F3
07856:  MOVWF  FE9
07858:  MOVLW  06
0785A:  ADDWFC 03,W
0785C:  MOVWF  FEA
0785E:  BTFSC  FEF.7
07860:  BRA    7864
07862:  BRA    7878
....................                         {Contrasena[i-1]=9;} 
07864:  MOVLW  01
07866:  SUBWF  xDA,W
07868:  CLRF   03
0786A:  ADDLW  F3
0786C:  MOVWF  FE9
0786E:  MOVLW  06
07870:  ADDWFC 03,W
07872:  MOVWF  FEA
07874:  MOVLW  09
07876:  MOVWF  FEF
....................                   } 
....................                }       
07878:  INCF   xDA,F
0787A:  BRA    7830
....................             }      
....................       } 
....................       else 
0787C:  BRA    7884
0787E:  MOVLB  4
....................       { 
....................          Flanco2 = 0; 
07880:  MOVLB  6
07882:  BCF    xD6.1
....................       } 
....................              
....................       if(RIGHT)//Si oprime RIGHT 
07884:  BSF    F96.0
07886:  BTFSC  F84.0
07888:  BRA    78AC
....................       { 
....................          if(Flanco1 == 0) 
0788A:  BTFSC  xD6.0
0788C:  BRA    78AA
....................             {Flanco1 = 1;delay_ms(300);unidad++;} 
0788E:  BSF    xD6.0
07890:  MOVLW  02
07892:  MOVLB  7
07894:  MOVWF  x27
07896:  MOVLW  96
07898:  MOVWF  x2D
0789A:  MOVLB  0
0789C:  CALL   1796
078A0:  MOVLB  7
078A2:  DECFSZ x27,F
078A4:  BRA    7896
078A6:  MOVLB  6
078A8:  INCF   xD9,F
....................       } 
....................       else 
078AA:  BRA    78AE
....................       { 
....................          Flanco1 = 0; 
078AC:  BCF    xD6.0
....................       } 
....................        
....................       if(LEFT)//Si oprime Izquierda 
078AE:  BSF    F96.1
078B0:  BTFSC  F84.1
078B2:  BRA    78DC
....................       { 
....................          delay_ms(700);Menu=1;glcd_fillscreen(OFF); 
078B4:  MOVLW  04
078B6:  MOVLB  7
078B8:  MOVWF  x27
078BA:  MOVLW  AF
078BC:  MOVWF  x2D
078BE:  MOVLB  0
078C0:  CALL   1796
078C4:  MOVLB  7
078C6:  DECFSZ x27,F
078C8:  BRA    78BA
078CA:  MOVLW  01
078CC:  MOVLB  6
078CE:  MOVWF  xD8
078D0:  MOVLB  7
078D2:  CLRF   x28
078D4:  MOVLB  0
078D6:  CALL   1C7A
078DA:  MOVLB  6
....................       } 
....................        
....................       if(unidad>4) 
078DC:  MOVF   xD9,W
078DE:  SUBLW  04
078E0:  BTFSC  FD8.0
078E2:  BRA    7A88
....................       {glcd_fillScreen(OFF); 
078E4:  MOVLB  7
078E6:  CLRF   x28
078E8:  MOVLB  0
078EA:  CALL   1C7A
....................           
....................          if((Contrasena[0]==Password[0])&&(Contrasena[1]==Password[1])&&(Contrasena[2]==Password[2])&&(Contrasena[3]==Password[3])) 
078EE:  MOVLB  6
078F0:  MOVF   xF7,W
078F2:  SUBWF  xF3,W
078F4:  BNZ   79C6
078F6:  MOVF   xF8,W
078F8:  SUBWF  xF4,W
078FA:  BNZ   79C6
078FC:  MOVF   xF9,W
078FE:  SUBWF  xF5,W
07900:  BNZ   79C6
07902:  MOVF   xFA,W
07904:  SUBWF  xF6,W
07906:  BNZ   79C6
....................          { 
....................             glcd_fillScreen(OFF); 
07908:  MOVLB  7
0790A:  CLRF   x28
0790C:  MOVLB  0
0790E:  CALL   1C7A
....................             strcpy(Menus.Letra,"Clave"); 
07912:  MOVLW  07
07914:  MOVWF  FEA
07916:  MOVLW  03
07918:  MOVWF  FE9
0791A:  MOVFF  FF2,727
0791E:  BCF    FF2.7
07920:  MOVLW  00
07922:  CALL   08FA
07926:  TBLRD*-
07928:  TBLRD*+
0792A:  MOVF   FF5,W
0792C:  MOVWF  FEE
0792E:  IORLW  00
07930:  BNZ   7928
07932:  MOVLB  7
07934:  BTFSC  x27.7
07936:  BSF    FF2.7
....................             displayMenu(Menus.Letra,30,0,0,2); 
07938:  MOVLW  07
0793A:  MOVWF  x28
0793C:  MOVLW  03
0793E:  MOVWF  x27
07940:  MOVLW  1E
07942:  MOVWF  x29
07944:  CLRF   x2A
07946:  CLRF   x2B
07948:  MOVLW  02
0794A:  MOVWF  x2C
0794C:  MOVLB  0
0794E:  CALL   22A8
....................             strcpy(Menus.Letra,"Correcta"); 
07952:  MOVLW  07
07954:  MOVWF  FEA
07956:  MOVLW  03
07958:  MOVWF  FE9
0795A:  MOVFF  FF2,727
0795E:  BCF    FF2.7
07960:  MOVLW  00
07962:  CALL   091E
07966:  TBLRD*-
07968:  TBLRD*+
0796A:  MOVF   FF5,W
0796C:  MOVWF  FEE
0796E:  IORLW  00
07970:  BNZ   7968
07972:  MOVLB  7
07974:  BTFSC  x27.7
07976:  BSF    FF2.7
....................             displayMenu(Menus.Letra,15,30,0,2); 
07978:  MOVLW  07
0797A:  MOVWF  x28
0797C:  MOVLW  03
0797E:  MOVWF  x27
07980:  MOVLW  0F
07982:  MOVWF  x29
07984:  MOVLW  1E
07986:  MOVWF  x2A
07988:  CLRF   x2B
0798A:  MOVLW  02
0798C:  MOVWF  x2C
0798E:  MOVLB  0
07990:  CALL   22A8
....................             Menu=91;glcd_update();delay_ms(1000); 
07994:  MOVLW  5B
07996:  MOVLB  6
07998:  MOVWF  xD8
0799A:  MOVLB  0
0799C:  CALL   1CD4
079A0:  MOVLW  04
079A2:  MOVLB  7
079A4:  MOVWF  x27
079A6:  MOVLW  FA
079A8:  MOVWF  x2D
079AA:  MOVLB  0
079AC:  CALL   1796
079B0:  MOVLB  7
079B2:  DECFSZ x27,F
079B4:  BRA    79A6
....................             glcd_fillScreen(OFF);unidad=1; 
079B6:  CLRF   x28
079B8:  MOVLB  0
079BA:  CALL   1C7A
079BE:  MOVLW  01
079C0:  MOVLB  6
079C2:  MOVWF  xD9
....................          }// Esta parte se puede agregar en el Menu 1 dependiendo de la ubicacin del vidrio. 
....................          else 
079C4:  BRA    7A88
....................          { 
....................             glcd_fillScreen(OFF); 
079C6:  MOVLB  7
079C8:  CLRF   x28
079CA:  MOVLB  0
079CC:  CALL   1C7A
....................             strcpy(Menus.Letra,"Clave"); 
079D0:  MOVLW  07
079D2:  MOVWF  FEA
079D4:  MOVLW  03
079D6:  MOVWF  FE9
079D8:  MOVFF  FF2,727
079DC:  BCF    FF2.7
079DE:  MOVLW  00
079E0:  CALL   08FA
079E4:  TBLRD*-
079E6:  TBLRD*+
079E8:  MOVF   FF5,W
079EA:  MOVWF  FEE
079EC:  IORLW  00
079EE:  BNZ   79E6
079F0:  MOVLB  7
079F2:  BTFSC  x27.7
079F4:  BSF    FF2.7
....................             displayMenu(Menus.Letra,30,0,0,2); 
079F6:  MOVLW  07
079F8:  MOVWF  x28
079FA:  MOVLW  03
079FC:  MOVWF  x27
079FE:  MOVLW  1E
07A00:  MOVWF  x29
07A02:  CLRF   x2A
07A04:  CLRF   x2B
07A06:  MOVLW  02
07A08:  MOVWF  x2C
07A0A:  MOVLB  0
07A0C:  CALL   22A8
....................             strcpy(Menus.Letra,"Incorrecta"); 
07A10:  MOVLW  07
07A12:  MOVWF  FEA
07A14:  MOVLW  03
07A16:  MOVWF  FE9
07A18:  MOVFF  FF2,727
07A1C:  BCF    FF2.7
07A1E:  MOVLW  00
07A20:  CALL   0946
07A24:  TBLRD*-
07A26:  TBLRD*+
07A28:  MOVF   FF5,W
07A2A:  MOVWF  FEE
07A2C:  IORLW  00
07A2E:  BNZ   7A26
07A30:  MOVLB  7
07A32:  BTFSC  x27.7
07A34:  BSF    FF2.7
....................             displayMenu(Menus.Letra,0,30,0,2); 
07A36:  MOVLW  07
07A38:  MOVWF  x28
07A3A:  MOVLW  03
07A3C:  MOVWF  x27
07A3E:  CLRF   x29
07A40:  MOVLW  1E
07A42:  MOVWF  x2A
07A44:  CLRF   x2B
07A46:  MOVLW  02
07A48:  MOVWF  x2C
07A4A:  MOVLB  0
07A4C:  CALL   22A8
....................             Menu=1;glcd_update();delay_ms(1000); 
07A50:  MOVLW  01
07A52:  MOVLB  6
07A54:  MOVWF  xD8
07A56:  MOVLB  0
07A58:  CALL   1CD4
07A5C:  MOVLW  04
07A5E:  MOVLB  7
07A60:  MOVWF  x27
07A62:  MOVLW  FA
07A64:  MOVWF  x2D
07A66:  MOVLB  0
07A68:  CALL   1796
07A6C:  MOVLB  7
07A6E:  DECFSZ x27,F
07A70:  BRA    7A62
....................             glcd_fillScreen(OFF);unidad=1; 
07A72:  CLRF   x28
07A74:  MOVLB  0
07A76:  CALL   1C7A
07A7A:  MOVLW  01
07A7C:  MOVLB  6
07A7E:  MOVWF  xD9
....................             Contrasena[0]=0;Contrasena[1]=0;Contrasena[2]=0;Contrasena[3]=0; 
07A80:  CLRF   xF3
07A82:  CLRF   xF4
07A84:  CLRF   xF5
07A86:  CLRF   xF6
....................          } 
....................       } 
....................     }     
.................... //_--------------------------------------------------------------------------------------------------------------------------------------------------------     
....................  
.................... //_--------------------------------------------------------------------------------------------------------------------------------------------------------       
....................       if(Menu==91){ // Menu de Cambio de Contrasea 
07A88:  MOVF   xD8,W
07A8A:  SUBLW  5B
07A8C:  BTFSS  FD8.2
07A8E:  BRA    7E7E
....................          
....................       strcpy(Menus.Letra,"Clave Nueva"); 
07A90:  MOVLW  07
07A92:  MOVWF  FEA
07A94:  MOVLW  03
07A96:  MOVWF  FE9
07A98:  MOVFF  FF2,727
07A9C:  BCF    FF2.7
07A9E:  MOVLW  00
07AA0:  MOVLB  0
07AA2:  CALL   0DB6
07AA6:  TBLRD*-
07AA8:  TBLRD*+
07AAA:  MOVF   FF5,W
07AAC:  MOVWF  FEE
07AAE:  IORLW  00
07AB0:  BNZ   7AA8
07AB2:  MOVLB  7
07AB4:  BTFSC  x27.7
07AB6:  BSF    FF2.7
....................       displayMenu(Menus.Letra,0,0,1,2);      
07AB8:  MOVLW  07
07ABA:  MOVWF  x28
07ABC:  MOVLW  03
07ABE:  MOVWF  x27
07AC0:  CLRF   x29
07AC2:  CLRF   x2A
07AC4:  MOVLW  01
07AC6:  MOVWF  x2B
07AC8:  MOVLW  02
07ACA:  MOVWF  x2C
07ACC:  MOVLB  0
07ACE:  CALL   22A8
....................        
....................       if(unidad==1) 
07AD2:  MOVLB  6
07AD4:  DECFSZ xD9,W
07AD6:  BRA    7B36
....................       { 
....................          displayContrasena(Password[0],20,30,1); 
07AD8:  MOVFF  6F7,729
07ADC:  MOVLW  14
07ADE:  MOVLB  7
07AE0:  MOVWF  x2A
07AE2:  MOVLW  1E
07AE4:  MOVWF  x2B
07AE6:  MOVLW  01
07AE8:  MOVWF  x2C
07AEA:  MOVLB  0
07AEC:  CALL   24CE
....................          displayContrasena(Password[1],40,30,0); 
07AF0:  MOVFF  6F8,729
07AF4:  MOVLW  28
07AF6:  MOVLB  7
07AF8:  MOVWF  x2A
07AFA:  MOVLW  1E
07AFC:  MOVWF  x2B
07AFE:  CLRF   x2C
07B00:  MOVLB  0
07B02:  CALL   24CE
....................          displayContrasena(Password[2],60,30,0); 
07B06:  MOVFF  6F9,729
07B0A:  MOVLW  3C
07B0C:  MOVLB  7
07B0E:  MOVWF  x2A
07B10:  MOVLW  1E
07B12:  MOVWF  x2B
07B14:  CLRF   x2C
07B16:  MOVLB  0
07B18:  CALL   24CE
....................          displayContrasena(Password[3],80,30,0); 
07B1C:  MOVFF  6FA,729
07B20:  MOVLW  50
07B22:  MOVLB  7
07B24:  MOVWF  x2A
07B26:  MOVLW  1E
07B28:  MOVWF  x2B
07B2A:  CLRF   x2C
07B2C:  MOVLB  0
07B2E:  CALL   24CE
....................       } 
....................       else 
07B32:  BRA    7C5E
07B34:  MOVLB  6
....................       { 
....................          if(unidad==2) 
07B36:  MOVF   xD9,W
07B38:  SUBLW  02
07B3A:  BNZ   7B9A
....................          { 
....................             displayContrasena(Password[0],20,30,0); 
07B3C:  MOVFF  6F7,729
07B40:  MOVLW  14
07B42:  MOVLB  7
07B44:  MOVWF  x2A
07B46:  MOVLW  1E
07B48:  MOVWF  x2B
07B4A:  CLRF   x2C
07B4C:  MOVLB  0
07B4E:  CALL   24CE
....................             displayContrasena(Password[1],40,30,1); 
07B52:  MOVFF  6F8,729
07B56:  MOVLW  28
07B58:  MOVLB  7
07B5A:  MOVWF  x2A
07B5C:  MOVLW  1E
07B5E:  MOVWF  x2B
07B60:  MOVLW  01
07B62:  MOVWF  x2C
07B64:  MOVLB  0
07B66:  CALL   24CE
....................             displayContrasena(Password[2],60,30,0); 
07B6A:  MOVFF  6F9,729
07B6E:  MOVLW  3C
07B70:  MOVLB  7
07B72:  MOVWF  x2A
07B74:  MOVLW  1E
07B76:  MOVWF  x2B
07B78:  CLRF   x2C
07B7A:  MOVLB  0
07B7C:  CALL   24CE
....................             displayContrasena(Password[3],80,30,0); 
07B80:  MOVFF  6FA,729
07B84:  MOVLW  50
07B86:  MOVLB  7
07B88:  MOVWF  x2A
07B8A:  MOVLW  1E
07B8C:  MOVWF  x2B
07B8E:  CLRF   x2C
07B90:  MOVLB  0
07B92:  CALL   24CE
....................          } 
....................          else 
07B96:  BRA    7C5E
07B98:  MOVLB  6
....................          { 
....................             if(unidad==3) 
07B9A:  MOVF   xD9,W
07B9C:  SUBLW  03
07B9E:  BNZ   7BFE
....................             { 
....................                displayContrasena(Password[0],20,30,0); 
07BA0:  MOVFF  6F7,729
07BA4:  MOVLW  14
07BA6:  MOVLB  7
07BA8:  MOVWF  x2A
07BAA:  MOVLW  1E
07BAC:  MOVWF  x2B
07BAE:  CLRF   x2C
07BB0:  MOVLB  0
07BB2:  CALL   24CE
....................                displayContrasena(Password[1],40,30,0); 
07BB6:  MOVFF  6F8,729
07BBA:  MOVLW  28
07BBC:  MOVLB  7
07BBE:  MOVWF  x2A
07BC0:  MOVLW  1E
07BC2:  MOVWF  x2B
07BC4:  CLRF   x2C
07BC6:  MOVLB  0
07BC8:  CALL   24CE
....................                displayContrasena(Password[2],60,30,1); 
07BCC:  MOVFF  6F9,729
07BD0:  MOVLW  3C
07BD2:  MOVLB  7
07BD4:  MOVWF  x2A
07BD6:  MOVLW  1E
07BD8:  MOVWF  x2B
07BDA:  MOVLW  01
07BDC:  MOVWF  x2C
07BDE:  MOVLB  0
07BE0:  CALL   24CE
....................                displayContrasena(Password[3],80,30,0); 
07BE4:  MOVFF  6FA,729
07BE8:  MOVLW  50
07BEA:  MOVLB  7
07BEC:  MOVWF  x2A
07BEE:  MOVLW  1E
07BF0:  MOVWF  x2B
07BF2:  CLRF   x2C
07BF4:  MOVLB  0
07BF6:  CALL   24CE
....................             } 
....................             else 
07BFA:  BRA    7C5E
07BFC:  MOVLB  6
....................             { 
....................                if(unidad==4) 
07BFE:  MOVF   xD9,W
07C00:  SUBLW  04
07C02:  BNZ   7C60
....................                { 
....................                   displayContrasena(Password[0],20,30,0); 
07C04:  MOVFF  6F7,729
07C08:  MOVLW  14
07C0A:  MOVLB  7
07C0C:  MOVWF  x2A
07C0E:  MOVLW  1E
07C10:  MOVWF  x2B
07C12:  CLRF   x2C
07C14:  MOVLB  0
07C16:  CALL   24CE
....................                   displayContrasena(Password[1],40,30,0); 
07C1A:  MOVFF  6F8,729
07C1E:  MOVLW  28
07C20:  MOVLB  7
07C22:  MOVWF  x2A
07C24:  MOVLW  1E
07C26:  MOVWF  x2B
07C28:  CLRF   x2C
07C2A:  MOVLB  0
07C2C:  CALL   24CE
....................                   displayContrasena(Password[2],60,30,0); 
07C30:  MOVFF  6F9,729
07C34:  MOVLW  3C
07C36:  MOVLB  7
07C38:  MOVWF  x2A
07C3A:  MOVLW  1E
07C3C:  MOVWF  x2B
07C3E:  CLRF   x2C
07C40:  MOVLB  0
07C42:  CALL   24CE
....................                   displayContrasena(Password[3],80,30,1); 
07C46:  MOVFF  6FA,729
07C4A:  MOVLW  50
07C4C:  MOVLB  7
07C4E:  MOVWF  x2A
07C50:  MOVLW  1E
07C52:  MOVWF  x2B
07C54:  MOVLW  01
07C56:  MOVWF  x2C
07C58:  MOVLB  0
07C5A:  CALL   24CE
07C5E:  MOVLB  6
....................                } 
....................             } 
....................          } 
....................       } 
....................        
....................       if(UP)//Si oprime hacia arriba 
07C60:  BSF    F92.4
07C62:  BTFSC  F80.4
07C64:  BRA    7CD4
....................       { 
....................          if(Flanco == 0) 
07C66:  MOVLB  4
07C68:  BTFSC  x5F.7
07C6A:  BRA    7CD0
....................          { 
....................             Flanco = 1;delay_ms(30); 
07C6C:  BSF    x5F.7
07C6E:  MOVLW  1E
07C70:  MOVLB  7
07C72:  MOVWF  x2D
07C74:  MOVLB  0
07C76:  CALL   1796
....................             for(i=1;i<=4;i++) 
07C7A:  MOVLW  01
07C7C:  MOVLB  6
07C7E:  MOVWF  xDA
07C80:  MOVF   xDA,W
07C82:  SUBLW  04
07C84:  BNC   7CCE
....................             { 
....................                if(unidad==i) 
07C86:  MOVF   xDA,W
07C88:  SUBWF  xD9,W
07C8A:  BNZ   7CCA
....................                { 
....................                   Password[i-1]++; 
07C8C:  MOVLW  01
07C8E:  SUBWF  xDA,W
07C90:  CLRF   03
07C92:  ADDLW  F7
07C94:  MOVWF  FE9
07C96:  MOVLW  06
07C98:  ADDWFC 03,W
07C9A:  MOVWF  FEA
07C9C:  INCF   FEF,F
....................                   if(Password[i-1]>9)    
07C9E:  MOVLW  01
07CA0:  SUBWF  xDA,W
07CA2:  CLRF   03
07CA4:  ADDLW  F7
07CA6:  MOVWF  FE9
07CA8:  MOVLW  06
07CAA:  ADDWFC 03,W
07CAC:  MOVWF  FEA
07CAE:  BTFSC  FEF.7
07CB0:  BRA    7CCA
07CB2:  MOVF   FEF,W
07CB4:  SUBLW  09
07CB6:  BC    7CCA
....................                   { 
....................                      Password[i-1]=0; 
07CB8:  MOVLW  01
07CBA:  SUBWF  xDA,W
07CBC:  CLRF   03
07CBE:  ADDLW  F7
07CC0:  MOVWF  FE9
07CC2:  MOVLW  06
07CC4:  ADDWFC 03,W
07CC6:  MOVWF  FEA
07CC8:  CLRF   FEF
....................                   } 
....................                } 
....................             } 
07CCA:  INCF   xDA,F
07CCC:  BRA    7C80
07CCE:  MOVLB  4
....................          } 
....................       } 
....................       else 
07CD0:  BRA    7CD8
07CD2:  MOVLB  6
....................       { 
....................          Flanco = 0; 
07CD4:  MOVLB  4
07CD6:  BCF    x5F.7
....................       } 
....................              
....................       if(DOWN)//Si oprime hacia abajo 
07CD8:  BSF    F92.5
07CDA:  BTFSC  F80.5
07CDC:  BRA    7D48
....................       { 
....................          if(Flanco2 == 0) 
07CDE:  MOVLB  6
07CE0:  BTFSC  xD6.1
07CE2:  BRA    7D44
....................             {Flanco2 = 1;delay_ms(30); 
07CE4:  BSF    xD6.1
07CE6:  MOVLW  1E
07CE8:  MOVLB  7
07CEA:  MOVWF  x2D
07CEC:  MOVLB  0
07CEE:  CALL   1796
....................                for(i=1;i<=4;i++) 
07CF2:  MOVLW  01
07CF4:  MOVLB  6
07CF6:  MOVWF  xDA
07CF8:  MOVF   xDA,W
07CFA:  SUBLW  04
07CFC:  BNC   7D44
....................                { 
....................                   if(unidad==i) 
07CFE:  MOVF   xDA,W
07D00:  SUBWF  xD9,W
07D02:  BNZ   7D40
....................                   { 
....................                      Password[i-1]--; 
07D04:  MOVLW  01
07D06:  SUBWF  xDA,W
07D08:  CLRF   03
07D0A:  ADDLW  F7
07D0C:  MOVWF  FE9
07D0E:  MOVLW  06
07D10:  ADDWFC 03,W
07D12:  MOVWF  FEA
07D14:  DECF   FEF,F
....................                      if(Password[i-1]<0) 
07D16:  MOVLW  01
07D18:  SUBWF  xDA,W
07D1A:  CLRF   03
07D1C:  ADDLW  F7
07D1E:  MOVWF  FE9
07D20:  MOVLW  06
07D22:  ADDWFC 03,W
07D24:  MOVWF  FEA
07D26:  BTFSC  FEF.7
07D28:  BRA    7D2C
07D2A:  BRA    7D40
....................                      { 
....................                         Password[i-1]=9; 
07D2C:  MOVLW  01
07D2E:  SUBWF  xDA,W
07D30:  CLRF   03
07D32:  ADDLW  F7
07D34:  MOVWF  FE9
07D36:  MOVLW  06
07D38:  ADDWFC 03,W
07D3A:  MOVWF  FEA
07D3C:  MOVLW  09
07D3E:  MOVWF  FEF
....................                      } 
....................                   } 
....................                }       
07D40:  INCF   xDA,F
07D42:  BRA    7CF8
....................             }      
....................       } 
....................       else 
07D44:  BRA    7D4C
07D46:  MOVLB  4
....................       { 
....................          Flanco2 = 0; 
07D48:  MOVLB  6
07D4A:  BCF    xD6.1
....................       } 
....................              
....................       if(RIGHT)//Si oprime RIGHT 
07D4C:  BSF    F96.0
07D4E:  BTFSC  F84.0
07D50:  BRA    7D74
....................       { 
....................          if(Flanco1 == 0) 
07D52:  BTFSC  xD6.0
07D54:  BRA    7D72
....................             {Flanco1 = 1;delay_ms(300);unidad++;} 
07D56:  BSF    xD6.0
07D58:  MOVLW  02
07D5A:  MOVLB  7
07D5C:  MOVWF  x27
07D5E:  MOVLW  96
07D60:  MOVWF  x2D
07D62:  MOVLB  0
07D64:  CALL   1796
07D68:  MOVLB  7
07D6A:  DECFSZ x27,F
07D6C:  BRA    7D5E
07D6E:  MOVLB  6
07D70:  INCF   xD9,F
....................       } 
....................       else 
07D72:  BRA    7D76
....................       { 
....................          Flanco1 = 0; 
07D74:  BCF    xD6.0
....................       } 
....................        
....................       if(LEFT)//Si oprime Izquierda 
07D76:  BSF    F96.1
07D78:  BTFSC  F84.1
07D7A:  BRA    7DA4
....................       { 
....................          delay_ms(700);Menu=1;glcd_fillscreen(OFF); 
07D7C:  MOVLW  04
07D7E:  MOVLB  7
07D80:  MOVWF  x27
07D82:  MOVLW  AF
07D84:  MOVWF  x2D
07D86:  MOVLB  0
07D88:  CALL   1796
07D8C:  MOVLB  7
07D8E:  DECFSZ x27,F
07D90:  BRA    7D82
07D92:  MOVLW  01
07D94:  MOVLB  6
07D96:  MOVWF  xD8
07D98:  MOVLB  7
07D9A:  CLRF   x28
07D9C:  MOVLB  0
07D9E:  CALL   1C7A
07DA2:  MOVLB  6
....................       } 
....................        
....................       if(unidad>4) 
07DA4:  MOVF   xD9,W
07DA6:  SUBLW  04
07DA8:  BC    7E7E
....................       { 
....................          Opcion=1;unidad=1; 
07DAA:  MOVLW  01
07DAC:  MOVWF  xDE
07DAE:  MOVWF  xD9
....................          write_eeprom(10,Password[0]);write_eeprom(11,Password[1]);write_eeprom(12,Password[2]);write_eeprom(13,Password[3]); 
07DB0:  CLRF   FAA
07DB2:  MOVLW  0A
07DB4:  MOVWF  FA9
07DB6:  MOVFF  6F7,FA8
07DBA:  BCF    FA6.6
07DBC:  BCF    FA6.7
07DBE:  BSF    FA6.2
07DC0:  MOVF   FF2,W
07DC2:  MOVWF  00
07DC4:  BCF    FF2.7
07DC6:  MOVLB  F
07DC8:  MOVLW  55
07DCA:  MOVWF  FA7
07DCC:  MOVLW  AA
07DCE:  MOVWF  FA7
07DD0:  BSF    FA6.1
07DD2:  BTFSC  FA6.1
07DD4:  BRA    7DD2
07DD6:  BCF    FA6.2
07DD8:  MOVF   00,W
07DDA:  IORWF  FF2,F
07DDC:  CLRF   FAA
07DDE:  MOVLW  0B
07DE0:  MOVWF  FA9
07DE2:  MOVFF  6F8,FA8
07DE6:  BCF    FA6.6
07DE8:  BCF    FA6.7
07DEA:  BSF    FA6.2
07DEC:  MOVF   FF2,W
07DEE:  MOVWF  00
07DF0:  BCF    FF2.7
07DF2:  MOVLW  55
07DF4:  MOVWF  FA7
07DF6:  MOVLW  AA
07DF8:  MOVWF  FA7
07DFA:  BSF    FA6.1
07DFC:  BTFSC  FA6.1
07DFE:  BRA    7DFC
07E00:  BCF    FA6.2
07E02:  MOVF   00,W
07E04:  IORWF  FF2,F
07E06:  CLRF   FAA
07E08:  MOVLW  0C
07E0A:  MOVWF  FA9
07E0C:  MOVFF  6F9,FA8
07E10:  BCF    FA6.6
07E12:  BCF    FA6.7
07E14:  BSF    FA6.2
07E16:  MOVF   FF2,W
07E18:  MOVWF  00
07E1A:  BCF    FF2.7
07E1C:  MOVLW  55
07E1E:  MOVWF  FA7
07E20:  MOVLW  AA
07E22:  MOVWF  FA7
07E24:  BSF    FA6.1
07E26:  BTFSC  FA6.1
07E28:  BRA    7E26
07E2A:  BCF    FA6.2
07E2C:  MOVF   00,W
07E2E:  IORWF  FF2,F
07E30:  CLRF   FAA
07E32:  MOVLW  0D
07E34:  MOVWF  FA9
07E36:  MOVFF  6FA,FA8
07E3A:  BCF    FA6.6
07E3C:  BCF    FA6.7
07E3E:  BSF    FA6.2
07E40:  MOVF   FF2,W
07E42:  MOVWF  00
07E44:  BCF    FF2.7
07E46:  MOVLW  55
07E48:  MOVWF  FA7
07E4A:  MOVLW  AA
07E4C:  MOVWF  FA7
07E4E:  BSF    FA6.1
07E50:  BTFSC  FA6.1
07E52:  BRA    7E50
07E54:  BCF    FA6.2
07E56:  MOVF   00,W
07E58:  IORWF  FF2,F
....................          delay_ms(1000);glcd_fillScreen(OFF);Menu=1; 
07E5A:  MOVLW  04
07E5C:  MOVLB  7
07E5E:  MOVWF  x27
07E60:  MOVLW  FA
07E62:  MOVWF  x2D
07E64:  MOVLB  0
07E66:  CALL   1796
07E6A:  MOVLB  7
07E6C:  DECFSZ x27,F
07E6E:  BRA    7E60
07E70:  CLRF   x28
07E72:  MOVLB  0
07E74:  CALL   1C7A
07E78:  MOVLW  01
07E7A:  MOVLB  6
07E7C:  MOVWF  xD8
....................       } 
....................     }     
.................... //_--------------------------------------------------------------------------------------------------------------------------------------------------------     
....................  
.................... //_--------------------------------------------------------------------------------------------------------------------------------------------------------       
....................       if(Menu==10){ // Menu de Prueba de Componentes 
07E7E:  MOVF   xD8,W
07E80:  SUBLW  0A
07E82:  BTFSS  FD8.2
07E84:  GOTO   8C72
....................       PruebaEstados=ON; 
07E88:  MOVLB  4
07E8A:  BSF    x5F.1
....................          if(Opcion>8) 
07E8C:  MOVLB  6
07E8E:  MOVF   xDE,W
07E90:  SUBLW  08
07E92:  BC    7E98
....................          {Opcion=1;} 
07E94:  MOVLW  01
07E96:  MOVWF  xDE
....................          if(Opcion<1) 
07E98:  MOVF   xDE,F
07E9A:  BNZ   7EA0
....................          {Opcion=8;} 
07E9C:  MOVLW  08
07E9E:  MOVWF  xDE
....................           
....................       if(Opcion<7){ 
07EA0:  MOVF   xDE,W
07EA2:  SUBLW  06
07EA4:  BTFSS  FD8.0
07EA6:  GOTO   8852
....................          if(Opcion==1)    
07EAA:  DECFSZ xDE,W
07EAC:  BRA    7F80
....................          { 
....................             strcpy(Menus.Letra,"EV Desfogue"); 
07EAE:  MOVLW  07
07EB0:  MOVWF  FEA
07EB2:  MOVLW  03
07EB4:  MOVWF  FE9
07EB6:  MOVFF  FF2,727
07EBA:  BCF    FF2.7
07EBC:  MOVLW  00
07EBE:  MOVLB  0
07EC0:  CALL   0DE0
07EC4:  TBLRD*-
07EC6:  TBLRD*+
07EC8:  MOVF   FF5,W
07ECA:  MOVWF  FEE
07ECC:  IORLW  00
07ECE:  BNZ   7EC6
07ED0:  MOVLB  7
07ED2:  BTFSC  x27.7
07ED4:  BSF    FF2.7
....................             if(EstadoDesfogue){ 
07ED6:  MOVLB  4
07ED8:  BTFSS  x5E.6
07EDA:  BRA    7F2E
....................                strcpy(Menus.Estado,"ON"); 
07EDC:  MOVLW  07
07EDE:  MOVWF  FEA
07EE0:  MOVLW  21
07EE2:  MOVWF  FE9
07EE4:  MOVFF  FF2,727
07EE8:  BCF    FF2.7
07EEA:  MOVLW  00
07EEC:  MOVLB  0
07EEE:  CALL   0E0A
07EF2:  TBLRD*-
07EF4:  TBLRD*+
07EF6:  MOVF   FF5,W
07EF8:  MOVWF  FEE
07EFA:  IORLW  00
07EFC:  BNZ   7EF4
07EFE:  MOVLB  7
07F00:  BTFSC  x27.7
07F02:  BSF    FF2.7
....................                displayTemps(Menus.Letra,Menus.Estado,0,9,1,1); 
07F04:  MOVLW  07
07F06:  MOVWF  x28
07F08:  MOVLW  03
07F0A:  MOVWF  x27
07F0C:  MOVLW  07
07F0E:  MOVWF  x2A
07F10:  MOVLW  21
07F12:  MOVWF  x29
07F14:  CLRF   x2B
07F16:  MOVLW  09
07F18:  MOVWF  x2C
07F1A:  MOVLW  01
07F1C:  MOVWF  x2D
07F1E:  MOVWF  x2E
07F20:  MOVLB  0
07F22:  CALL   3952
....................                Desfogue_on; 
07F26:  BCF    F8B.5
07F28:  BCF    F94.5
....................             } 
....................             else{ 
07F2A:  BRA    7F7C
07F2C:  MOVLB  4
....................                strcpy(Menus.Estado,"OFF"); 
07F2E:  MOVLW  07
07F30:  MOVWF  FEA
07F32:  MOVLW  21
07F34:  MOVWF  FE9
07F36:  MOVFF  FF2,727
07F3A:  BCF    FF2.7
07F3C:  MOVLW  00
07F3E:  MOVLB  0
07F40:  CALL   0E2C
07F44:  TBLRD*-
07F46:  TBLRD*+
07F48:  MOVF   FF5,W
07F4A:  MOVWF  FEE
07F4C:  IORLW  00
07F4E:  BNZ   7F46
07F50:  MOVLB  7
07F52:  BTFSC  x27.7
07F54:  BSF    FF2.7
....................                displayTemps(Menus.Letra,Menus.Estado,0,9,1,1); 
07F56:  MOVLW  07
07F58:  MOVWF  x28
07F5A:  MOVLW  03
07F5C:  MOVWF  x27
07F5E:  MOVLW  07
07F60:  MOVWF  x2A
07F62:  MOVLW  21
07F64:  MOVWF  x29
07F66:  CLRF   x2B
07F68:  MOVLW  09
07F6A:  MOVWF  x2C
07F6C:  MOVLW  01
07F6E:  MOVWF  x2D
07F70:  MOVWF  x2E
07F72:  MOVLB  0
07F74:  CALL   3952
....................                Desfogue_off; 
07F78:  BSF    F8B.5
07F7A:  BCF    F94.5
....................             } 
....................          } 
....................          else 
07F7C:  BRA    8046
07F7E:  MOVLB  6
....................          { 
....................             strcpy(Menus.Letra,"EV Desfogue"); 
07F80:  MOVLW  07
07F82:  MOVWF  FEA
07F84:  MOVLW  03
07F86:  MOVWF  FE9
07F88:  MOVFF  FF2,727
07F8C:  BCF    FF2.7
07F8E:  MOVLW  00
07F90:  MOVLB  0
07F92:  CALL   0DE0
07F96:  TBLRD*-
07F98:  TBLRD*+
07F9A:  MOVF   FF5,W
07F9C:  MOVWF  FEE
07F9E:  IORLW  00
07FA0:  BNZ   7F98
07FA2:  MOVLB  7
07FA4:  BTFSC  x27.7
07FA6:  BSF    FF2.7
....................             if(EstadoDesfogue){ 
07FA8:  MOVLB  4
07FAA:  BTFSS  x5E.6
07FAC:  BRA    7FFC
....................                strcpy(Menus.Estado,"ON"); 
07FAE:  MOVLW  07
07FB0:  MOVWF  FEA
07FB2:  MOVLW  21
07FB4:  MOVWF  FE9
07FB6:  MOVFF  FF2,727
07FBA:  BCF    FF2.7
07FBC:  MOVLW  00
07FBE:  MOVLB  0
07FC0:  CALL   0E0A
07FC4:  TBLRD*-
07FC6:  TBLRD*+
07FC8:  MOVF   FF5,W
07FCA:  MOVWF  FEE
07FCC:  IORLW  00
07FCE:  BNZ   7FC6
07FD0:  MOVLB  7
07FD2:  BTFSC  x27.7
07FD4:  BSF    FF2.7
....................                displayTemps(Menus.Letra,Menus.Estado,0,9,0,1); 
07FD6:  MOVLW  07
07FD8:  MOVWF  x28
07FDA:  MOVLW  03
07FDC:  MOVWF  x27
07FDE:  MOVLW  07
07FE0:  MOVWF  x2A
07FE2:  MOVLW  21
07FE4:  MOVWF  x29
07FE6:  CLRF   x2B
07FE8:  MOVLW  09
07FEA:  MOVWF  x2C
07FEC:  CLRF   x2D
07FEE:  MOVLW  01
07FF0:  MOVWF  x2E
07FF2:  MOVLB  0
07FF4:  CALL   3952
....................             } 
....................             else{ 
07FF8:  BRA    8046
07FFA:  MOVLB  4
....................                strcpy(Menus.Estado,"OFF"); 
07FFC:  MOVLW  07
07FFE:  MOVWF  FEA
08000:  MOVLW  21
08002:  MOVWF  FE9
08004:  MOVFF  FF2,727
08008:  BCF    FF2.7
0800A:  MOVLW  00
0800C:  MOVLB  0
0800E:  CALL   0E2C
08012:  TBLRD*-
08014:  TBLRD*+
08016:  MOVF   FF5,W
08018:  MOVWF  FEE
0801A:  IORLW  00
0801C:  BNZ   8014
0801E:  MOVLB  7
08020:  BTFSC  x27.7
08022:  BSF    FF2.7
....................                displayTemps(Menus.Letra,Menus.Estado,0,9,0,1); 
08024:  MOVLW  07
08026:  MOVWF  x28
08028:  MOVLW  03
0802A:  MOVWF  x27
0802C:  MOVLW  07
0802E:  MOVWF  x2A
08030:  MOVLW  21
08032:  MOVWF  x29
08034:  CLRF   x2B
08036:  MOVLW  09
08038:  MOVWF  x2C
0803A:  CLRF   x2D
0803C:  MOVLW  01
0803E:  MOVWF  x2E
08040:  MOVLB  0
08042:  CALL   3952
....................             } 
....................          } 
....................           
....................          if(Opcion==2)    
08046:  MOVLB  6
08048:  MOVF   xDE,W
0804A:  SUBLW  02
0804C:  BNZ   8120
....................          { 
....................             strcpy(Menus.Letra,"EV Agua"); 
0804E:  MOVLW  07
08050:  MOVWF  FEA
08052:  MOVLW  03
08054:  MOVWF  FE9
08056:  MOVFF  FF2,727
0805A:  BCF    FF2.7
0805C:  MOVLW  00
0805E:  MOVLB  0
08060:  CALL   0E4E
08064:  TBLRD*-
08066:  TBLRD*+
08068:  MOVF   FF5,W
0806A:  MOVWF  FEE
0806C:  IORLW  00
0806E:  BNZ   8066
08070:  MOVLB  7
08072:  BTFSC  x27.7
08074:  BSF    FF2.7
....................             if(EstadoAgua){ 
08076:  MOVLB  4
08078:  BTFSS  x5E.7
0807A:  BRA    80CE
....................                strcpy(Menus.Estado,"ON"); 
0807C:  MOVLW  07
0807E:  MOVWF  FEA
08080:  MOVLW  21
08082:  MOVWF  FE9
08084:  MOVFF  FF2,727
08088:  BCF    FF2.7
0808A:  MOVLW  00
0808C:  MOVLB  0
0808E:  CALL   0E0A
08092:  TBLRD*-
08094:  TBLRD*+
08096:  MOVF   FF5,W
08098:  MOVWF  FEE
0809A:  IORLW  00
0809C:  BNZ   8094
0809E:  MOVLB  7
080A0:  BTFSC  x27.7
080A2:  BSF    FF2.7
....................                displayTemps(Menus.Letra,Menus.Estado,0,18,1,1); 
080A4:  MOVLW  07
080A6:  MOVWF  x28
080A8:  MOVLW  03
080AA:  MOVWF  x27
080AC:  MOVLW  07
080AE:  MOVWF  x2A
080B0:  MOVLW  21
080B2:  MOVWF  x29
080B4:  CLRF   x2B
080B6:  MOVLW  12
080B8:  MOVWF  x2C
080BA:  MOVLW  01
080BC:  MOVWF  x2D
080BE:  MOVWF  x2E
080C0:  MOVLB  0
080C2:  CALL   3952
....................                AguaIn_on; 
080C6:  BCF    F8B.6
080C8:  BCF    F94.6
....................             } 
....................             else{ 
080CA:  BRA    811C
080CC:  MOVLB  4
....................                strcpy(Menus.Estado,"OFF"); 
080CE:  MOVLW  07
080D0:  MOVWF  FEA
080D2:  MOVLW  21
080D4:  MOVWF  FE9
080D6:  MOVFF  FF2,727
080DA:  BCF    FF2.7
080DC:  MOVLW  00
080DE:  MOVLB  0
080E0:  CALL   0E2C
080E4:  TBLRD*-
080E6:  TBLRD*+
080E8:  MOVF   FF5,W
080EA:  MOVWF  FEE
080EC:  IORLW  00
080EE:  BNZ   80E6
080F0:  MOVLB  7
080F2:  BTFSC  x27.7
080F4:  BSF    FF2.7
....................                displayTemps(Menus.Letra,Menus.Estado,0,18,1,1); 
080F6:  MOVLW  07
080F8:  MOVWF  x28
080FA:  MOVLW  03
080FC:  MOVWF  x27
080FE:  MOVLW  07
08100:  MOVWF  x2A
08102:  MOVLW  21
08104:  MOVWF  x29
08106:  CLRF   x2B
08108:  MOVLW  12
0810A:  MOVWF  x2C
0810C:  MOVLW  01
0810E:  MOVWF  x2D
08110:  MOVWF  x2E
08112:  MOVLB  0
08114:  CALL   3952
....................                AguaIn_off; 
08118:  BSF    F8B.6
0811A:  BCF    F94.6
....................             } 
....................          } 
....................          else 
0811C:  BRA    81E6
0811E:  MOVLB  6
....................          { 
....................             strcpy(Menus.Letra,"EV Agua"); 
08120:  MOVLW  07
08122:  MOVWF  FEA
08124:  MOVLW  03
08126:  MOVWF  FE9
08128:  MOVFF  FF2,727
0812C:  BCF    FF2.7
0812E:  MOVLW  00
08130:  MOVLB  0
08132:  CALL   0E4E
08136:  TBLRD*-
08138:  TBLRD*+
0813A:  MOVF   FF5,W
0813C:  MOVWF  FEE
0813E:  IORLW  00
08140:  BNZ   8138
08142:  MOVLB  7
08144:  BTFSC  x27.7
08146:  BSF    FF2.7
....................             if(EstadoAgua){ 
08148:  MOVLB  4
0814A:  BTFSS  x5E.7
0814C:  BRA    819C
....................                strcpy(Menus.Estado,"ON"); 
0814E:  MOVLW  07
08150:  MOVWF  FEA
08152:  MOVLW  21
08154:  MOVWF  FE9
08156:  MOVFF  FF2,727
0815A:  BCF    FF2.7
0815C:  MOVLW  00
0815E:  MOVLB  0
08160:  CALL   0E0A
08164:  TBLRD*-
08166:  TBLRD*+
08168:  MOVF   FF5,W
0816A:  MOVWF  FEE
0816C:  IORLW  00
0816E:  BNZ   8166
08170:  MOVLB  7
08172:  BTFSC  x27.7
08174:  BSF    FF2.7
....................                displayTemps(Menus.Letra,Menus.Estado,0,18,0,1); 
08176:  MOVLW  07
08178:  MOVWF  x28
0817A:  MOVLW  03
0817C:  MOVWF  x27
0817E:  MOVLW  07
08180:  MOVWF  x2A
08182:  MOVLW  21
08184:  MOVWF  x29
08186:  CLRF   x2B
08188:  MOVLW  12
0818A:  MOVWF  x2C
0818C:  CLRF   x2D
0818E:  MOVLW  01
08190:  MOVWF  x2E
08192:  MOVLB  0
08194:  CALL   3952
....................             }else{ 
08198:  BRA    81E6
0819A:  MOVLB  4
....................                strcpy(Menus.Estado,"OFF"); 
0819C:  MOVLW  07
0819E:  MOVWF  FEA
081A0:  MOVLW  21
081A2:  MOVWF  FE9
081A4:  MOVFF  FF2,727
081A8:  BCF    FF2.7
081AA:  MOVLW  00
081AC:  MOVLB  0
081AE:  CALL   0E2C
081B2:  TBLRD*-
081B4:  TBLRD*+
081B6:  MOVF   FF5,W
081B8:  MOVWF  FEE
081BA:  IORLW  00
081BC:  BNZ   81B4
081BE:  MOVLB  7
081C0:  BTFSC  x27.7
081C2:  BSF    FF2.7
....................                displayTemps(Menus.Letra,Menus.Estado,0,18,0,1); 
081C4:  MOVLW  07
081C6:  MOVWF  x28
081C8:  MOVLW  03
081CA:  MOVWF  x27
081CC:  MOVLW  07
081CE:  MOVWF  x2A
081D0:  MOVLW  21
081D2:  MOVWF  x29
081D4:  CLRF   x2B
081D6:  MOVLW  12
081D8:  MOVWF  x2C
081DA:  CLRF   x2D
081DC:  MOVLW  01
081DE:  MOVWF  x2E
081E0:  MOVLB  0
081E2:  CALL   3952
....................             } 
....................          } 
....................              
....................          if(Opcion==3)    
081E6:  MOVLB  6
081E8:  MOVF   xDE,W
081EA:  SUBLW  03
081EC:  BNZ   82C0
....................          { 
....................             strcpy(Menus.Letra,"SSR"); 
081EE:  MOVLW  07
081F0:  MOVWF  FEA
081F2:  MOVLW  03
081F4:  MOVWF  FE9
081F6:  MOVFF  FF2,727
081FA:  BCF    FF2.7
081FC:  MOVLW  00
081FE:  MOVLB  0
08200:  CALL   0E74
08204:  TBLRD*-
08206:  TBLRD*+
08208:  MOVF   FF5,W
0820A:  MOVWF  FEE
0820C:  IORLW  00
0820E:  BNZ   8206
08210:  MOVLB  7
08212:  BTFSC  x27.7
08214:  BSF    FF2.7
....................             if(EstadoSSR){ 
08216:  MOVLB  4
08218:  BTFSS  x5F.0
0821A:  BRA    826E
....................                strcpy(Menus.Estado,"ON"); 
0821C:  MOVLW  07
0821E:  MOVWF  FEA
08220:  MOVLW  21
08222:  MOVWF  FE9
08224:  MOVFF  FF2,727
08228:  BCF    FF2.7
0822A:  MOVLW  00
0822C:  MOVLB  0
0822E:  CALL   0E0A
08232:  TBLRD*-
08234:  TBLRD*+
08236:  MOVF   FF5,W
08238:  MOVWF  FEE
0823A:  IORLW  00
0823C:  BNZ   8234
0823E:  MOVLB  7
08240:  BTFSC  x27.7
08242:  BSF    FF2.7
....................                displayTemps(Menus.Letra,Menus.Estado,0,27,1,1); 
08244:  MOVLW  07
08246:  MOVWF  x28
08248:  MOVLW  03
0824A:  MOVWF  x27
0824C:  MOVLW  07
0824E:  MOVWF  x2A
08250:  MOVLW  21
08252:  MOVWF  x29
08254:  CLRF   x2B
08256:  MOVLW  1B
08258:  MOVWF  x2C
0825A:  MOVLW  01
0825C:  MOVWF  x2D
0825E:  MOVWF  x2E
08260:  MOVLB  0
08262:  CALL   3952
....................                SSR_on; 
08266:  BCF    F8B.2
08268:  BCF    F94.2
....................             }else{ 
0826A:  BRA    82BC
0826C:  MOVLB  4
....................                strcpy(Menus.Estado,"OFF"); 
0826E:  MOVLW  07
08270:  MOVWF  FEA
08272:  MOVLW  21
08274:  MOVWF  FE9
08276:  MOVFF  FF2,727
0827A:  BCF    FF2.7
0827C:  MOVLW  00
0827E:  MOVLB  0
08280:  CALL   0E2C
08284:  TBLRD*-
08286:  TBLRD*+
08288:  MOVF   FF5,W
0828A:  MOVWF  FEE
0828C:  IORLW  00
0828E:  BNZ   8286
08290:  MOVLB  7
08292:  BTFSC  x27.7
08294:  BSF    FF2.7
....................                displayTemps(Menus.Letra,Menus.Estado,0,27,1,1); 
08296:  MOVLW  07
08298:  MOVWF  x28
0829A:  MOVLW  03
0829C:  MOVWF  x27
0829E:  MOVLW  07
082A0:  MOVWF  x2A
082A2:  MOVLW  21
082A4:  MOVWF  x29
082A6:  CLRF   x2B
082A8:  MOVLW  1B
082AA:  MOVWF  x2C
082AC:  MOVLW  01
082AE:  MOVWF  x2D
082B0:  MOVWF  x2E
082B2:  MOVLB  0
082B4:  CALL   3952
....................                SSR_off; 
082B8:  BSF    F8B.2
082BA:  BCF    F94.2
....................             } 
....................          } 
....................          else 
082BC:  BRA    8386
082BE:  MOVLB  6
....................          { 
....................             strcpy(Menus.Letra,"SSR"); 
082C0:  MOVLW  07
082C2:  MOVWF  FEA
082C4:  MOVLW  03
082C6:  MOVWF  FE9
082C8:  MOVFF  FF2,727
082CC:  BCF    FF2.7
082CE:  MOVLW  00
082D0:  MOVLB  0
082D2:  CALL   0E74
082D6:  TBLRD*-
082D8:  TBLRD*+
082DA:  MOVF   FF5,W
082DC:  MOVWF  FEE
082DE:  IORLW  00
082E0:  BNZ   82D8
082E2:  MOVLB  7
082E4:  BTFSC  x27.7
082E6:  BSF    FF2.7
....................             if(EstadoSSR){ 
082E8:  MOVLB  4
082EA:  BTFSS  x5F.0
082EC:  BRA    833C
....................                strcpy(Menus.Estado,"ON"); 
082EE:  MOVLW  07
082F0:  MOVWF  FEA
082F2:  MOVLW  21
082F4:  MOVWF  FE9
082F6:  MOVFF  FF2,727
082FA:  BCF    FF2.7
082FC:  MOVLW  00
082FE:  MOVLB  0
08300:  CALL   0E0A
08304:  TBLRD*-
08306:  TBLRD*+
08308:  MOVF   FF5,W
0830A:  MOVWF  FEE
0830C:  IORLW  00
0830E:  BNZ   8306
08310:  MOVLB  7
08312:  BTFSC  x27.7
08314:  BSF    FF2.7
....................                displayTemps(Menus.Letra,Menus.Estado,0,27,0,1); 
08316:  MOVLW  07
08318:  MOVWF  x28
0831A:  MOVLW  03
0831C:  MOVWF  x27
0831E:  MOVLW  07
08320:  MOVWF  x2A
08322:  MOVLW  21
08324:  MOVWF  x29
08326:  CLRF   x2B
08328:  MOVLW  1B
0832A:  MOVWF  x2C
0832C:  CLRF   x2D
0832E:  MOVLW  01
08330:  MOVWF  x2E
08332:  MOVLB  0
08334:  CALL   3952
....................             }else{ 
08338:  BRA    8386
0833A:  MOVLB  4
....................                strcpy(Menus.Estado,"OFF"); 
0833C:  MOVLW  07
0833E:  MOVWF  FEA
08340:  MOVLW  21
08342:  MOVWF  FE9
08344:  MOVFF  FF2,727
08348:  BCF    FF2.7
0834A:  MOVLW  00
0834C:  MOVLB  0
0834E:  CALL   0E2C
08352:  TBLRD*-
08354:  TBLRD*+
08356:  MOVF   FF5,W
08358:  MOVWF  FEE
0835A:  IORLW  00
0835C:  BNZ   8354
0835E:  MOVLB  7
08360:  BTFSC  x27.7
08362:  BSF    FF2.7
....................                displayTemps(Menus.Letra,Menus.Estado,0,27,0,1); 
08364:  MOVLW  07
08366:  MOVWF  x28
08368:  MOVLW  03
0836A:  MOVWF  x27
0836C:  MOVLW  07
0836E:  MOVWF  x2A
08370:  MOVLW  21
08372:  MOVWF  x29
08374:  CLRF   x2B
08376:  MOVLW  1B
08378:  MOVWF  x2C
0837A:  CLRF   x2D
0837C:  MOVLW  01
0837E:  MOVWF  x2E
08380:  MOVLB  0
08382:  CALL   3952
....................             } 
....................          } 
....................           
....................          if(Opcion==4)    
08386:  MOVLB  6
08388:  MOVF   xDE,W
0838A:  SUBLW  04
0838C:  BNZ   8458
....................          { 
....................             strcpy(Menus.Letra,"Nivel Alto"); 
0838E:  MOVLW  07
08390:  MOVWF  FEA
08392:  MOVLW  03
08394:  MOVWF  FE9
08396:  MOVFF  FF2,727
0839A:  BCF    FF2.7
0839C:  MOVLW  00
0839E:  MOVLB  0
083A0:  CALL   0E96
083A4:  TBLRD*-
083A6:  TBLRD*+
083A8:  MOVF   FF5,W
083AA:  MOVWF  FEE
083AC:  IORLW  00
083AE:  BNZ   83A6
083B0:  MOVLB  7
083B2:  BTFSC  x27.7
083B4:  BSF    FF2.7
....................             if(HIGH){ 
083B6:  BSF    F94.0
083B8:  BTFSS  F82.0
083BA:  BRA    840A
....................                strcpy(Menus.Estado,"ON"); 
083BC:  MOVLW  07
083BE:  MOVWF  FEA
083C0:  MOVLW  21
083C2:  MOVWF  FE9
083C4:  MOVFF  FF2,727
083C8:  BCF    FF2.7
083CA:  MOVLW  00
083CC:  MOVLB  0
083CE:  CALL   0E0A
083D2:  TBLRD*-
083D4:  TBLRD*+
083D6:  MOVF   FF5,W
083D8:  MOVWF  FEE
083DA:  IORLW  00
083DC:  BNZ   83D4
083DE:  MOVLB  7
083E0:  BTFSC  x27.7
083E2:  BSF    FF2.7
....................                displayTemps(Menus.Letra,Menus.Estado,0,36,1,1); 
083E4:  MOVLW  07
083E6:  MOVWF  x28
083E8:  MOVLW  03
083EA:  MOVWF  x27
083EC:  MOVLW  07
083EE:  MOVWF  x2A
083F0:  MOVLW  21
083F2:  MOVWF  x29
083F4:  CLRF   x2B
083F6:  MOVLW  24
083F8:  MOVWF  x2C
083FA:  MOVLW  01
083FC:  MOVWF  x2D
083FE:  MOVWF  x2E
08400:  MOVLB  0
08402:  CALL   3952
....................             }else{ 
08406:  BRA    8454
08408:  MOVLB  7
....................                strcpy(Menus.Estado,"OFF"); 
0840A:  MOVLW  07
0840C:  MOVWF  FEA
0840E:  MOVLW  21
08410:  MOVWF  FE9
08412:  MOVFF  FF2,727
08416:  BCF    FF2.7
08418:  MOVLW  00
0841A:  MOVLB  0
0841C:  CALL   0E2C
08420:  TBLRD*-
08422:  TBLRD*+
08424:  MOVF   FF5,W
08426:  MOVWF  FEE
08428:  IORLW  00
0842A:  BNZ   8422
0842C:  MOVLB  7
0842E:  BTFSC  x27.7
08430:  BSF    FF2.7
....................                displayTemps(Menus.Letra,Menus.Estado,0,36,1,1); 
08432:  MOVLW  07
08434:  MOVWF  x28
08436:  MOVLW  03
08438:  MOVWF  x27
0843A:  MOVLW  07
0843C:  MOVWF  x2A
0843E:  MOVLW  21
08440:  MOVWF  x29
08442:  CLRF   x2B
08444:  MOVLW  24
08446:  MOVWF  x2C
08448:  MOVLW  01
0844A:  MOVWF  x2D
0844C:  MOVWF  x2E
0844E:  MOVLB  0
08450:  CALL   3952
....................             } 
....................          } 
....................          else 
08454:  BRA    851E
08456:  MOVLB  6
....................          { 
....................             strcpy(Menus.Letra,"Nivel Alto"); 
08458:  MOVLW  07
0845A:  MOVWF  FEA
0845C:  MOVLW  03
0845E:  MOVWF  FE9
08460:  MOVFF  FF2,727
08464:  BCF    FF2.7
08466:  MOVLW  00
08468:  MOVLB  0
0846A:  CALL   0E96
0846E:  TBLRD*-
08470:  TBLRD*+
08472:  MOVF   FF5,W
08474:  MOVWF  FEE
08476:  IORLW  00
08478:  BNZ   8470
0847A:  MOVLB  7
0847C:  BTFSC  x27.7
0847E:  BSF    FF2.7
....................             if(HIGH){ 
08480:  BSF    F94.0
08482:  BTFSS  F82.0
08484:  BRA    84D4
....................                strcpy(Menus.Estado,"ON"); 
08486:  MOVLW  07
08488:  MOVWF  FEA
0848A:  MOVLW  21
0848C:  MOVWF  FE9
0848E:  MOVFF  FF2,727
08492:  BCF    FF2.7
08494:  MOVLW  00
08496:  MOVLB  0
08498:  CALL   0E0A
0849C:  TBLRD*-
0849E:  TBLRD*+
084A0:  MOVF   FF5,W
084A2:  MOVWF  FEE
084A4:  IORLW  00
084A6:  BNZ   849E
084A8:  MOVLB  7
084AA:  BTFSC  x27.7
084AC:  BSF    FF2.7
....................                displayTemps(Menus.Letra,Menus.Estado,0,36,0,1); 
084AE:  MOVLW  07
084B0:  MOVWF  x28
084B2:  MOVLW  03
084B4:  MOVWF  x27
084B6:  MOVLW  07
084B8:  MOVWF  x2A
084BA:  MOVLW  21
084BC:  MOVWF  x29
084BE:  CLRF   x2B
084C0:  MOVLW  24
084C2:  MOVWF  x2C
084C4:  CLRF   x2D
084C6:  MOVLW  01
084C8:  MOVWF  x2E
084CA:  MOVLB  0
084CC:  CALL   3952
....................             }else{ 
084D0:  BRA    851E
084D2:  MOVLB  7
....................                strcpy(Menus.Estado,"OFF"); 
084D4:  MOVLW  07
084D6:  MOVWF  FEA
084D8:  MOVLW  21
084DA:  MOVWF  FE9
084DC:  MOVFF  FF2,727
084E0:  BCF    FF2.7
084E2:  MOVLW  00
084E4:  MOVLB  0
084E6:  CALL   0E2C
084EA:  TBLRD*-
084EC:  TBLRD*+
084EE:  MOVF   FF5,W
084F0:  MOVWF  FEE
084F2:  IORLW  00
084F4:  BNZ   84EC
084F6:  MOVLB  7
084F8:  BTFSC  x27.7
084FA:  BSF    FF2.7
....................                displayTemps(Menus.Letra,Menus.Estado,0,36,0,1); 
084FC:  MOVLW  07
084FE:  MOVWF  x28
08500:  MOVLW  03
08502:  MOVWF  x27
08504:  MOVLW  07
08506:  MOVWF  x2A
08508:  MOVLW  21
0850A:  MOVWF  x29
0850C:  CLRF   x2B
0850E:  MOVLW  24
08510:  MOVWF  x2C
08512:  CLRF   x2D
08514:  MOVLW  01
08516:  MOVWF  x2E
08518:  MOVLB  0
0851A:  CALL   3952
....................             } 
....................          } 
....................                 
....................          if(Opcion==5)    
0851E:  MOVLB  6
08520:  MOVF   xDE,W
08522:  SUBLW  05
08524:  BNZ   85F0
....................          { 
....................             strcpy(Menus.Letra,"Nivel Bajo"); 
08526:  MOVLW  07
08528:  MOVWF  FEA
0852A:  MOVLW  03
0852C:  MOVWF  FE9
0852E:  MOVFF  FF2,727
08532:  BCF    FF2.7
08534:  MOVLW  00
08536:  MOVLB  0
08538:  CALL   0EC0
0853C:  TBLRD*-
0853E:  TBLRD*+
08540:  MOVF   FF5,W
08542:  MOVWF  FEE
08544:  IORLW  00
08546:  BNZ   853E
08548:  MOVLB  7
0854A:  BTFSC  x27.7
0854C:  BSF    FF2.7
....................             if(LOW){ 
0854E:  BSF    F94.1
08550:  BTFSS  F82.1
08552:  BRA    85A2
....................                strcpy(Menus.Estado,"ON"); 
08554:  MOVLW  07
08556:  MOVWF  FEA
08558:  MOVLW  21
0855A:  MOVWF  FE9
0855C:  MOVFF  FF2,727
08560:  BCF    FF2.7
08562:  MOVLW  00
08564:  MOVLB  0
08566:  CALL   0E0A
0856A:  TBLRD*-
0856C:  TBLRD*+
0856E:  MOVF   FF5,W
08570:  MOVWF  FEE
08572:  IORLW  00
08574:  BNZ   856C
08576:  MOVLB  7
08578:  BTFSC  x27.7
0857A:  BSF    FF2.7
....................                displayTemps(Menus.Letra,Menus.Estado,0,45,1,1); 
0857C:  MOVLW  07
0857E:  MOVWF  x28
08580:  MOVLW  03
08582:  MOVWF  x27
08584:  MOVLW  07
08586:  MOVWF  x2A
08588:  MOVLW  21
0858A:  MOVWF  x29
0858C:  CLRF   x2B
0858E:  MOVLW  2D
08590:  MOVWF  x2C
08592:  MOVLW  01
08594:  MOVWF  x2D
08596:  MOVWF  x2E
08598:  MOVLB  0
0859A:  CALL   3952
....................             }else{ 
0859E:  BRA    85EC
085A0:  MOVLB  7
....................                strcpy(Menus.Estado,"OFF"); 
085A2:  MOVLW  07
085A4:  MOVWF  FEA
085A6:  MOVLW  21
085A8:  MOVWF  FE9
085AA:  MOVFF  FF2,727
085AE:  BCF    FF2.7
085B0:  MOVLW  00
085B2:  MOVLB  0
085B4:  CALL   0E2C
085B8:  TBLRD*-
085BA:  TBLRD*+
085BC:  MOVF   FF5,W
085BE:  MOVWF  FEE
085C0:  IORLW  00
085C2:  BNZ   85BA
085C4:  MOVLB  7
085C6:  BTFSC  x27.7
085C8:  BSF    FF2.7
....................                displayTemps(Menus.Letra,Menus.Estado,0,45,1,1); 
085CA:  MOVLW  07
085CC:  MOVWF  x28
085CE:  MOVLW  03
085D0:  MOVWF  x27
085D2:  MOVLW  07
085D4:  MOVWF  x2A
085D6:  MOVLW  21
085D8:  MOVWF  x29
085DA:  CLRF   x2B
085DC:  MOVLW  2D
085DE:  MOVWF  x2C
085E0:  MOVLW  01
085E2:  MOVWF  x2D
085E4:  MOVWF  x2E
085E6:  MOVLB  0
085E8:  CALL   3952
....................             } 
....................          } 
....................          else 
085EC:  BRA    86B6
085EE:  MOVLB  6
....................          { 
....................             strcpy(Menus.Letra,"Nivel Bajo"); 
085F0:  MOVLW  07
085F2:  MOVWF  FEA
085F4:  MOVLW  03
085F6:  MOVWF  FE9
085F8:  MOVFF  FF2,727
085FC:  BCF    FF2.7
085FE:  MOVLW  00
08600:  MOVLB  0
08602:  CALL   0EC0
08606:  TBLRD*-
08608:  TBLRD*+
0860A:  MOVF   FF5,W
0860C:  MOVWF  FEE
0860E:  IORLW  00
08610:  BNZ   8608
08612:  MOVLB  7
08614:  BTFSC  x27.7
08616:  BSF    FF2.7
....................             if(LOW){ 
08618:  BSF    F94.1
0861A:  BTFSS  F82.1
0861C:  BRA    866C
....................                strcpy(Menus.Estado,"ON"); 
0861E:  MOVLW  07
08620:  MOVWF  FEA
08622:  MOVLW  21
08624:  MOVWF  FE9
08626:  MOVFF  FF2,727
0862A:  BCF    FF2.7
0862C:  MOVLW  00
0862E:  MOVLB  0
08630:  CALL   0E0A
08634:  TBLRD*-
08636:  TBLRD*+
08638:  MOVF   FF5,W
0863A:  MOVWF  FEE
0863C:  IORLW  00
0863E:  BNZ   8636
08640:  MOVLB  7
08642:  BTFSC  x27.7
08644:  BSF    FF2.7
....................                displayTemps(Menus.Letra,Menus.Estado,0,45,0,1); 
08646:  MOVLW  07
08648:  MOVWF  x28
0864A:  MOVLW  03
0864C:  MOVWF  x27
0864E:  MOVLW  07
08650:  MOVWF  x2A
08652:  MOVLW  21
08654:  MOVWF  x29
08656:  CLRF   x2B
08658:  MOVLW  2D
0865A:  MOVWF  x2C
0865C:  CLRF   x2D
0865E:  MOVLW  01
08660:  MOVWF  x2E
08662:  MOVLB  0
08664:  CALL   3952
....................             }else{ 
08668:  BRA    86B6
0866A:  MOVLB  7
....................                strcpy(Menus.Estado,"OFF"); 
0866C:  MOVLW  07
0866E:  MOVWF  FEA
08670:  MOVLW  21
08672:  MOVWF  FE9
08674:  MOVFF  FF2,727
08678:  BCF    FF2.7
0867A:  MOVLW  00
0867C:  MOVLB  0
0867E:  CALL   0E2C
08682:  TBLRD*-
08684:  TBLRD*+
08686:  MOVF   FF5,W
08688:  MOVWF  FEE
0868A:  IORLW  00
0868C:  BNZ   8684
0868E:  MOVLB  7
08690:  BTFSC  x27.7
08692:  BSF    FF2.7
....................                displayTemps(Menus.Letra,Menus.Estado,0,45,0,1); 
08694:  MOVLW  07
08696:  MOVWF  x28
08698:  MOVLW  03
0869A:  MOVWF  x27
0869C:  MOVLW  07
0869E:  MOVWF  x2A
086A0:  MOVLW  21
086A2:  MOVWF  x29
086A4:  CLRF   x2B
086A6:  MOVLW  2D
086A8:  MOVWF  x2C
086AA:  CLRF   x2D
086AC:  MOVLW  01
086AE:  MOVWF  x2E
086B0:  MOVLB  0
086B2:  CALL   3952
....................             } 
....................          } 
....................           
....................          if(Opcion==6)    
086B6:  MOVLB  6
086B8:  MOVF   xDE,W
086BA:  SUBLW  06
086BC:  BNZ   8788
....................          { 
....................             strcpy(Menus.Letra,"Switch Puerta"); 
086BE:  MOVLW  07
086C0:  MOVWF  FEA
086C2:  MOVLW  03
086C4:  MOVWF  FE9
086C6:  MOVFF  FF2,727
086CA:  BCF    FF2.7
086CC:  MOVLW  00
086CE:  MOVLB  0
086D0:  CALL   0EEA
086D4:  TBLRD*-
086D6:  TBLRD*+
086D8:  MOVF   FF5,W
086DA:  MOVWF  FEE
086DC:  IORLW  00
086DE:  BNZ   86D6
086E0:  MOVLB  7
086E2:  BTFSC  x27.7
086E4:  BSF    FF2.7
....................             if(DOOR){ 
086E6:  BSF    F96.2
086E8:  BTFSC  F84.2
086EA:  BRA    873A
....................                strcpy(Menus.Estado,"OFF"); 
086EC:  MOVLW  07
086EE:  MOVWF  FEA
086F0:  MOVLW  21
086F2:  MOVWF  FE9
086F4:  MOVFF  FF2,727
086F8:  BCF    FF2.7
086FA:  MOVLW  00
086FC:  MOVLB  0
086FE:  CALL   0E2C
08702:  TBLRD*-
08704:  TBLRD*+
08706:  MOVF   FF5,W
08708:  MOVWF  FEE
0870A:  IORLW  00
0870C:  BNZ   8704
0870E:  MOVLB  7
08710:  BTFSC  x27.7
08712:  BSF    FF2.7
....................                displayTemps(Menus.Letra,Menus.Estado,0,54,1,1); 
08714:  MOVLW  07
08716:  MOVWF  x28
08718:  MOVLW  03
0871A:  MOVWF  x27
0871C:  MOVLW  07
0871E:  MOVWF  x2A
08720:  MOVLW  21
08722:  MOVWF  x29
08724:  CLRF   x2B
08726:  MOVLW  36
08728:  MOVWF  x2C
0872A:  MOVLW  01
0872C:  MOVWF  x2D
0872E:  MOVWF  x2E
08730:  MOVLB  0
08732:  CALL   3952
....................             }else{ 
08736:  BRA    8784
08738:  MOVLB  7
....................                strcpy(Menus.Estado,"ON"); 
0873A:  MOVLW  07
0873C:  MOVWF  FEA
0873E:  MOVLW  21
08740:  MOVWF  FE9
08742:  MOVFF  FF2,727
08746:  BCF    FF2.7
08748:  MOVLW  00
0874A:  MOVLB  0
0874C:  CALL   0E0A
08750:  TBLRD*-
08752:  TBLRD*+
08754:  MOVF   FF5,W
08756:  MOVWF  FEE
08758:  IORLW  00
0875A:  BNZ   8752
0875C:  MOVLB  7
0875E:  BTFSC  x27.7
08760:  BSF    FF2.7
....................                displayTemps(Menus.Letra,Menus.Estado,0,54,1,1); 
08762:  MOVLW  07
08764:  MOVWF  x28
08766:  MOVLW  03
08768:  MOVWF  x27
0876A:  MOVLW  07
0876C:  MOVWF  x2A
0876E:  MOVLW  21
08770:  MOVWF  x29
08772:  CLRF   x2B
08774:  MOVLW  36
08776:  MOVWF  x2C
08778:  MOVLW  01
0877A:  MOVWF  x2D
0877C:  MOVWF  x2E
0877E:  MOVLB  0
08780:  CALL   3952
....................             } 
....................          } 
....................          else 
08784:  BRA    884E
08786:  MOVLB  6
....................          { 
....................             strcpy(Menus.Letra,"Switch Puerta"); 
08788:  MOVLW  07
0878A:  MOVWF  FEA
0878C:  MOVLW  03
0878E:  MOVWF  FE9
08790:  MOVFF  FF2,727
08794:  BCF    FF2.7
08796:  MOVLW  00
08798:  MOVLB  0
0879A:  CALL   0EEA
0879E:  TBLRD*-
087A0:  TBLRD*+
087A2:  MOVF   FF5,W
087A4:  MOVWF  FEE
087A6:  IORLW  00
087A8:  BNZ   87A0
087AA:  MOVLB  7
087AC:  BTFSC  x27.7
087AE:  BSF    FF2.7
....................             if(DOOR){ 
087B0:  BSF    F96.2
087B2:  BTFSC  F84.2
087B4:  BRA    8804
....................                strcpy(Menus.Estado,"OFF"); 
087B6:  MOVLW  07
087B8:  MOVWF  FEA
087BA:  MOVLW  21
087BC:  MOVWF  FE9
087BE:  MOVFF  FF2,727
087C2:  BCF    FF2.7
087C4:  MOVLW  00
087C6:  MOVLB  0
087C8:  CALL   0E2C
087CC:  TBLRD*-
087CE:  TBLRD*+
087D0:  MOVF   FF5,W
087D2:  MOVWF  FEE
087D4:  IORLW  00
087D6:  BNZ   87CE
087D8:  MOVLB  7
087DA:  BTFSC  x27.7
087DC:  BSF    FF2.7
....................                displayTemps(Menus.Letra,Menus.Estado,0,54,0,1); 
087DE:  MOVLW  07
087E0:  MOVWF  x28
087E2:  MOVLW  03
087E4:  MOVWF  x27
087E6:  MOVLW  07
087E8:  MOVWF  x2A
087EA:  MOVLW  21
087EC:  MOVWF  x29
087EE:  CLRF   x2B
087F0:  MOVLW  36
087F2:  MOVWF  x2C
087F4:  CLRF   x2D
087F6:  MOVLW  01
087F8:  MOVWF  x2E
087FA:  MOVLB  0
087FC:  CALL   3952
....................             }else{ 
08800:  BRA    884E
08802:  MOVLB  7
....................                strcpy(Menus.Estado,"ON"); 
08804:  MOVLW  07
08806:  MOVWF  FEA
08808:  MOVLW  21
0880A:  MOVWF  FE9
0880C:  MOVFF  FF2,727
08810:  BCF    FF2.7
08812:  MOVLW  00
08814:  MOVLB  0
08816:  CALL   0E0A
0881A:  TBLRD*-
0881C:  TBLRD*+
0881E:  MOVF   FF5,W
08820:  MOVWF  FEE
08822:  IORLW  00
08824:  BNZ   881C
08826:  MOVLB  7
08828:  BTFSC  x27.7
0882A:  BSF    FF2.7
....................                displayTemps(Menus.Letra,Menus.Estado,0,54,0,1); 
0882C:  MOVLW  07
0882E:  MOVWF  x28
08830:  MOVLW  03
08832:  MOVWF  x27
08834:  MOVLW  07
08836:  MOVWF  x2A
08838:  MOVLW  21
0883A:  MOVWF  x29
0883C:  CLRF   x2B
0883E:  MOVLW  36
08840:  MOVWF  x2C
08842:  CLRF   x2D
08844:  MOVLW  01
08846:  MOVWF  x2E
08848:  MOVLB  0
0884A:  CALL   3952
....................             } 
....................          } 
....................       }else{ 
0884E:  BRA    8B80
08850:  MOVLB  6
....................          if(Opcion==7)    
08852:  MOVF   xDE,W
08854:  SUBLW  07
08856:  BNZ   8922
....................          { 
....................             strcpy(Menus.Letra,"Termostato"); 
08858:  MOVLW  07
0885A:  MOVWF  FEA
0885C:  MOVLW  03
0885E:  MOVWF  FE9
08860:  MOVFF  FF2,727
08864:  BCF    FF2.7
08866:  MOVLW  00
08868:  MOVLB  0
0886A:  CALL   0F16
0886E:  TBLRD*-
08870:  TBLRD*+
08872:  MOVF   FF5,W
08874:  MOVWF  FEE
08876:  IORLW  00
08878:  BNZ   8870
0887A:  MOVLB  7
0887C:  BTFSC  x27.7
0887E:  BSF    FF2.7
....................             if(TERM){ 
08880:  BSF    F93.7
08882:  BTFSC  F81.7
08884:  BRA    88D4
....................                strcpy(Menus.Estado,"OFF"); 
08886:  MOVLW  07
08888:  MOVWF  FEA
0888A:  MOVLW  21
0888C:  MOVWF  FE9
0888E:  MOVFF  FF2,727
08892:  BCF    FF2.7
08894:  MOVLW  00
08896:  MOVLB  0
08898:  CALL   0E2C
0889C:  TBLRD*-
0889E:  TBLRD*+
088A0:  MOVF   FF5,W
088A2:  MOVWF  FEE
088A4:  IORLW  00
088A6:  BNZ   889E
088A8:  MOVLB  7
088AA:  BTFSC  x27.7
088AC:  BSF    FF2.7
....................                displayTemps(Menus.Letra,Menus.Estado,0,18,1,1); 
088AE:  MOVLW  07
088B0:  MOVWF  x28
088B2:  MOVLW  03
088B4:  MOVWF  x27
088B6:  MOVLW  07
088B8:  MOVWF  x2A
088BA:  MOVLW  21
088BC:  MOVWF  x29
088BE:  CLRF   x2B
088C0:  MOVLW  12
088C2:  MOVWF  x2C
088C4:  MOVLW  01
088C6:  MOVWF  x2D
088C8:  MOVWF  x2E
088CA:  MOVLB  0
088CC:  CALL   3952
....................             }else{ 
088D0:  BRA    891E
088D2:  MOVLB  7
....................                strcpy(Menus.Estado,"ON"); 
088D4:  MOVLW  07
088D6:  MOVWF  FEA
088D8:  MOVLW  21
088DA:  MOVWF  FE9
088DC:  MOVFF  FF2,727
088E0:  BCF    FF2.7
088E2:  MOVLW  00
088E4:  MOVLB  0
088E6:  CALL   0E0A
088EA:  TBLRD*-
088EC:  TBLRD*+
088EE:  MOVF   FF5,W
088F0:  MOVWF  FEE
088F2:  IORLW  00
088F4:  BNZ   88EC
088F6:  MOVLB  7
088F8:  BTFSC  x27.7
088FA:  BSF    FF2.7
....................                displayTemps(Menus.Letra,Menus.Estado,0,18,1,1); 
088FC:  MOVLW  07
088FE:  MOVWF  x28
08900:  MOVLW  03
08902:  MOVWF  x27
08904:  MOVLW  07
08906:  MOVWF  x2A
08908:  MOVLW  21
0890A:  MOVWF  x29
0890C:  CLRF   x2B
0890E:  MOVLW  12
08910:  MOVWF  x2C
08912:  MOVLW  01
08914:  MOVWF  x2D
08916:  MOVWF  x2E
08918:  MOVLB  0
0891A:  CALL   3952
....................             } 
....................          } 
....................          else 
0891E:  BRA    89E8
08920:  MOVLB  6
....................          { 
....................             strcpy(Menus.Letra,"Termostato"); 
08922:  MOVLW  07
08924:  MOVWF  FEA
08926:  MOVLW  03
08928:  MOVWF  FE9
0892A:  MOVFF  FF2,727
0892E:  BCF    FF2.7
08930:  MOVLW  00
08932:  MOVLB  0
08934:  CALL   0F16
08938:  TBLRD*-
0893A:  TBLRD*+
0893C:  MOVF   FF5,W
0893E:  MOVWF  FEE
08940:  IORLW  00
08942:  BNZ   893A
08944:  MOVLB  7
08946:  BTFSC  x27.7
08948:  BSF    FF2.7
....................             if(TERM){ 
0894A:  BSF    F93.7
0894C:  BTFSC  F81.7
0894E:  BRA    899E
....................                strcpy(Menus.Estado,"OFF"); 
08950:  MOVLW  07
08952:  MOVWF  FEA
08954:  MOVLW  21
08956:  MOVWF  FE9
08958:  MOVFF  FF2,727
0895C:  BCF    FF2.7
0895E:  MOVLW  00
08960:  MOVLB  0
08962:  CALL   0E2C
08966:  TBLRD*-
08968:  TBLRD*+
0896A:  MOVF   FF5,W
0896C:  MOVWF  FEE
0896E:  IORLW  00
08970:  BNZ   8968
08972:  MOVLB  7
08974:  BTFSC  x27.7
08976:  BSF    FF2.7
....................                displayTemps(Menus.Letra,Menus.Estado,0,18,0,1); 
08978:  MOVLW  07
0897A:  MOVWF  x28
0897C:  MOVLW  03
0897E:  MOVWF  x27
08980:  MOVLW  07
08982:  MOVWF  x2A
08984:  MOVLW  21
08986:  MOVWF  x29
08988:  CLRF   x2B
0898A:  MOVLW  12
0898C:  MOVWF  x2C
0898E:  CLRF   x2D
08990:  MOVLW  01
08992:  MOVWF  x2E
08994:  MOVLB  0
08996:  CALL   3952
....................             }else{ 
0899A:  BRA    89E8
0899C:  MOVLB  7
....................                strcpy(Menus.Estado,"ON"); 
0899E:  MOVLW  07
089A0:  MOVWF  FEA
089A2:  MOVLW  21
089A4:  MOVWF  FE9
089A6:  MOVFF  FF2,727
089AA:  BCF    FF2.7
089AC:  MOVLW  00
089AE:  MOVLB  0
089B0:  CALL   0E0A
089B4:  TBLRD*-
089B6:  TBLRD*+
089B8:  MOVF   FF5,W
089BA:  MOVWF  FEE
089BC:  IORLW  00
089BE:  BNZ   89B6
089C0:  MOVLB  7
089C2:  BTFSC  x27.7
089C4:  BSF    FF2.7
....................                displayTemps(Menus.Letra,Menus.Estado,0,18,0,1); 
089C6:  MOVLW  07
089C8:  MOVWF  x28
089CA:  MOVLW  03
089CC:  MOVWF  x27
089CE:  MOVLW  07
089D0:  MOVWF  x2A
089D2:  MOVLW  21
089D4:  MOVWF  x29
089D6:  CLRF   x2B
089D8:  MOVLW  12
089DA:  MOVWF  x2C
089DC:  CLRF   x2D
089DE:  MOVLW  01
089E0:  MOVWF  x2E
089E2:  MOVLB  0
089E4:  CALL   3952
....................             } 
....................          } 
....................           
....................          if(Opcion==8)    
089E8:  MOVLB  6
089EA:  MOVF   xDE,W
089EC:  SUBLW  08
089EE:  BNZ   8ABA
....................          { 
....................             strcpy(Menus.Letra,"Parada Emer."); 
089F0:  MOVLW  07
089F2:  MOVWF  FEA
089F4:  MOVLW  03
089F6:  MOVWF  FE9
089F8:  MOVFF  FF2,727
089FC:  BCF    FF2.7
089FE:  MOVLW  00
08A00:  MOVLB  0
08A02:  CALL   0F40
08A06:  TBLRD*-
08A08:  TBLRD*+
08A0A:  MOVF   FF5,W
08A0C:  MOVWF  FEE
08A0E:  IORLW  00
08A10:  BNZ   8A08
08A12:  MOVLB  7
08A14:  BTFSC  x27.7
08A16:  BSF    FF2.7
....................             if(STOP){ 
08A18:  BSF    F93.6
08A1A:  BTFSC  F81.6
08A1C:  BRA    8A6C
....................                strcpy(Menus.Estado,"OFF"); 
08A1E:  MOVLW  07
08A20:  MOVWF  FEA
08A22:  MOVLW  21
08A24:  MOVWF  FE9
08A26:  MOVFF  FF2,727
08A2A:  BCF    FF2.7
08A2C:  MOVLW  00
08A2E:  MOVLB  0
08A30:  CALL   0E2C
08A34:  TBLRD*-
08A36:  TBLRD*+
08A38:  MOVF   FF5,W
08A3A:  MOVWF  FEE
08A3C:  IORLW  00
08A3E:  BNZ   8A36
08A40:  MOVLB  7
08A42:  BTFSC  x27.7
08A44:  BSF    FF2.7
....................                displayTemps(Menus.Letra,Menus.Estado,0,27,1,1); 
08A46:  MOVLW  07
08A48:  MOVWF  x28
08A4A:  MOVLW  03
08A4C:  MOVWF  x27
08A4E:  MOVLW  07
08A50:  MOVWF  x2A
08A52:  MOVLW  21
08A54:  MOVWF  x29
08A56:  CLRF   x2B
08A58:  MOVLW  1B
08A5A:  MOVWF  x2C
08A5C:  MOVLW  01
08A5E:  MOVWF  x2D
08A60:  MOVWF  x2E
08A62:  MOVLB  0
08A64:  CALL   3952
....................             }else{ 
08A68:  BRA    8AB6
08A6A:  MOVLB  7
....................                strcpy(Menus.Estado,"ON"); 
08A6C:  MOVLW  07
08A6E:  MOVWF  FEA
08A70:  MOVLW  21
08A72:  MOVWF  FE9
08A74:  MOVFF  FF2,727
08A78:  BCF    FF2.7
08A7A:  MOVLW  00
08A7C:  MOVLB  0
08A7E:  CALL   0E0A
08A82:  TBLRD*-
08A84:  TBLRD*+
08A86:  MOVF   FF5,W
08A88:  MOVWF  FEE
08A8A:  IORLW  00
08A8C:  BNZ   8A84
08A8E:  MOVLB  7
08A90:  BTFSC  x27.7
08A92:  BSF    FF2.7
....................                displayTemps(Menus.Letra,Menus.Estado,0,27,1,1); 
08A94:  MOVLW  07
08A96:  MOVWF  x28
08A98:  MOVLW  03
08A9A:  MOVWF  x27
08A9C:  MOVLW  07
08A9E:  MOVWF  x2A
08AA0:  MOVLW  21
08AA2:  MOVWF  x29
08AA4:  CLRF   x2B
08AA6:  MOVLW  1B
08AA8:  MOVWF  x2C
08AAA:  MOVLW  01
08AAC:  MOVWF  x2D
08AAE:  MOVWF  x2E
08AB0:  MOVLB  0
08AB2:  CALL   3952
....................             } 
....................          } 
....................          else 
08AB6:  BRA    8B80
08AB8:  MOVLB  6
....................          { 
....................             strcpy(Menus.Letra,"Parada Emer."); 
08ABA:  MOVLW  07
08ABC:  MOVWF  FEA
08ABE:  MOVLW  03
08AC0:  MOVWF  FE9
08AC2:  MOVFF  FF2,727
08AC6:  BCF    FF2.7
08AC8:  MOVLW  00
08ACA:  MOVLB  0
08ACC:  CALL   0F40
08AD0:  TBLRD*-
08AD2:  TBLRD*+
08AD4:  MOVF   FF5,W
08AD6:  MOVWF  FEE
08AD8:  IORLW  00
08ADA:  BNZ   8AD2
08ADC:  MOVLB  7
08ADE:  BTFSC  x27.7
08AE0:  BSF    FF2.7
....................             if(STOP){ 
08AE2:  BSF    F93.6
08AE4:  BTFSC  F81.6
08AE6:  BRA    8B36
....................                strcpy(Menus.Estado,"OFF"); 
08AE8:  MOVLW  07
08AEA:  MOVWF  FEA
08AEC:  MOVLW  21
08AEE:  MOVWF  FE9
08AF0:  MOVFF  FF2,727
08AF4:  BCF    FF2.7
08AF6:  MOVLW  00
08AF8:  MOVLB  0
08AFA:  CALL   0E2C
08AFE:  TBLRD*-
08B00:  TBLRD*+
08B02:  MOVF   FF5,W
08B04:  MOVWF  FEE
08B06:  IORLW  00
08B08:  BNZ   8B00
08B0A:  MOVLB  7
08B0C:  BTFSC  x27.7
08B0E:  BSF    FF2.7
....................                displayTemps(Menus.Letra,Menus.Estado,0,27,0,1); 
08B10:  MOVLW  07
08B12:  MOVWF  x28
08B14:  MOVLW  03
08B16:  MOVWF  x27
08B18:  MOVLW  07
08B1A:  MOVWF  x2A
08B1C:  MOVLW  21
08B1E:  MOVWF  x29
08B20:  CLRF   x2B
08B22:  MOVLW  1B
08B24:  MOVWF  x2C
08B26:  CLRF   x2D
08B28:  MOVLW  01
08B2A:  MOVWF  x2E
08B2C:  MOVLB  0
08B2E:  CALL   3952
....................             }else{ 
08B32:  BRA    8B80
08B34:  MOVLB  7
....................                strcpy(Menus.Estado,"ON"); 
08B36:  MOVLW  07
08B38:  MOVWF  FEA
08B3A:  MOVLW  21
08B3C:  MOVWF  FE9
08B3E:  MOVFF  FF2,727
08B42:  BCF    FF2.7
08B44:  MOVLW  00
08B46:  MOVLB  0
08B48:  CALL   0E0A
08B4C:  TBLRD*-
08B4E:  TBLRD*+
08B50:  MOVF   FF5,W
08B52:  MOVWF  FEE
08B54:  IORLW  00
08B56:  BNZ   8B4E
08B58:  MOVLB  7
08B5A:  BTFSC  x27.7
08B5C:  BSF    FF2.7
....................                displayTemps(Menus.Letra,Menus.Estado,0,27,0,1); 
08B5E:  MOVLW  07
08B60:  MOVWF  x28
08B62:  MOVLW  03
08B64:  MOVWF  x27
08B66:  MOVLW  07
08B68:  MOVWF  x2A
08B6A:  MOVLW  21
08B6C:  MOVWF  x29
08B6E:  CLRF   x2B
08B70:  MOVLW  1B
08B72:  MOVWF  x2C
08B74:  CLRF   x2D
08B76:  MOVLW  01
08B78:  MOVWF  x2E
08B7A:  MOVLB  0
08B7C:  CALL   3952
....................             } 
....................          } 
....................       } 
....................           
....................          if(RIGHT)//Si oprime SET 
08B80:  BSF    F96.0
08B82:  BTFSC  F84.0
08B84:  BRA    8BB4
....................          {  
....................             if(Opcion==1) 
08B86:  MOVLB  6
08B88:  DECFSZ xDE,W
08B8A:  BRA    8B92
....................                EstadoDesfogue=!EstadoDesfogue; 
08B8C:  MOVLB  4
08B8E:  BTG    x5E.6
08B90:  MOVLB  6
....................              
....................             if(Opcion==2) 
08B92:  MOVF   xDE,W
08B94:  SUBLW  02
08B96:  BNZ   8B9E
....................                EstadoAgua=!EstadoAgua; 
08B98:  MOVLB  4
08B9A:  BTG    x5E.7
08B9C:  MOVLB  6
....................                 
....................             if(Opcion==3) 
08B9E:  MOVF   xDE,W
08BA0:  SUBLW  03
08BA2:  BNZ   8BA8
....................                EstadoSSR=!EstadoSSR; 
08BA4:  MOVLB  4
08BA6:  BTG    x5F.0
....................              
....................             delay_ms(100); 
08BA8:  MOVLW  64
08BAA:  MOVLB  7
08BAC:  MOVWF  x2D
08BAE:  MOVLB  0
08BB0:  CALL   1796
....................          } 
....................        
....................          strcpy(Menus.Letra,"Estados"); 
08BB4:  MOVLW  07
08BB6:  MOVWF  FEA
08BB8:  MOVLW  03
08BBA:  MOVWF  FE9
08BBC:  MOVFF  FF2,727
08BC0:  BCF    FF2.7
08BC2:  MOVLW  00
08BC4:  CALL   0F6C
08BC8:  TBLRD*-
08BCA:  TBLRD*+
08BCC:  MOVF   FF5,W
08BCE:  MOVWF  FEE
08BD0:  IORLW  00
08BD2:  BNZ   8BCA
08BD4:  MOVLB  7
08BD6:  BTFSC  x27.7
08BD8:  BSF    FF2.7
....................          displayMenu(Menus.Letra,0,0,1,1); 
08BDA:  MOVLW  07
08BDC:  MOVWF  x28
08BDE:  MOVLW  03
08BE0:  MOVWF  x27
08BE2:  CLRF   x29
08BE4:  CLRF   x2A
08BE6:  MOVLW  01
08BE8:  MOVWF  x2B
08BEA:  MOVWF  x2C
08BEC:  MOVLB  0
08BEE:  CALL   22A8
....................           
....................        
....................          if(UP)//Si oprime hacia arriba 
08BF2:  BSF    F92.4
08BF4:  BTFSC  F80.4
08BF6:  BRA    8C12
....................          {   
....................             Opcion--;delay_ms(10);glcd_fillscreen(OFF); 
08BF8:  MOVLB  6
08BFA:  DECF   xDE,F
08BFC:  MOVLW  0A
08BFE:  MOVLB  7
08C00:  MOVWF  x2D
08C02:  MOVLB  0
08C04:  CALL   1796
08C08:  MOVLB  7
08C0A:  CLRF   x28
08C0C:  MOVLB  0
08C0E:  CALL   1C7A
....................          } 
....................                 
....................          if(DOWN)//Si oprime hacia abajo 
08C12:  BSF    F92.5
08C14:  BTFSC  F80.5
08C16:  BRA    8C32
....................          {   
....................             Opcion++;delay_ms(10);glcd_fillscreen(OFF); 
08C18:  MOVLB  6
08C1A:  INCF   xDE,F
08C1C:  MOVLW  0A
08C1E:  MOVLB  7
08C20:  MOVWF  x2D
08C22:  MOVLB  0
08C24:  CALL   1796
08C28:  MOVLB  7
08C2A:  CLRF   x28
08C2C:  MOVLB  0
08C2E:  CALL   1C7A
....................          } 
....................                            
....................          if(LEFT)//Si oprime boton de Toma. 
08C32:  BSF    F96.1
08C34:  BTFSC  F84.1
08C36:  BRA    8C70
....................          { 
....................             PruebaEstados=OFF;Desfogue_off;AguaIn_off;SSR_off; 
08C38:  MOVLB  4
08C3A:  BCF    x5F.1
08C3C:  BSF    F8B.5
08C3E:  BCF    F94.5
08C40:  BSF    F8B.6
08C42:  BCF    F94.6
08C44:  BSF    F8B.2
08C46:  BCF    F94.2
....................             glcd_fillscreen(OFF);Menu=1;delay_ms(500); 
08C48:  MOVLB  7
08C4A:  CLRF   x28
08C4C:  MOVLB  0
08C4E:  CALL   1C7A
08C52:  MOVLW  01
08C54:  MOVLB  6
08C56:  MOVWF  xD8
08C58:  MOVLW  02
08C5A:  MOVLB  7
08C5C:  MOVWF  x27
08C5E:  MOVLW  FA
08C60:  MOVWF  x2D
08C62:  MOVLB  0
08C64:  CALL   1796
08C68:  MOVLB  7
08C6A:  DECFSZ x27,F
08C6C:  BRA    8C5E
08C6E:  MOVLB  0
08C70:  MOVLB  6
....................          } 
....................      } 
.................... //_--------------------------------------------------------------------------------------------------------------------------------------------------------     
....................  
.................... //_--------------------------------------------------------------------------------------------------------------------------------------------------------       
....................       if(Menu==11){ // Menu de Tiempo de Esterilizacin 
08C72:  MOVF   xD8,W
08C74:  SUBLW  0B
08C76:  BTFSS  FD8.2
08C78:  BRA    8F82
....................       
....................       if(visual==1) 
08C7A:  BTFSS  xD6.2
08C7C:  BRA    8E08
....................       { 
....................          if(unidad<1) 
08C7E:  MOVF   xD9,F
08C80:  BNZ   8C86
....................          {unidad=4;} 
08C82:  MOVLW  04
08C84:  MOVWF  xD9
....................           
....................          strcpy(Menus.Letra,"T. Ester."); 
08C86:  MOVLW  07
08C88:  MOVWF  FEA
08C8A:  MOVLW  03
08C8C:  MOVWF  FE9
08C8E:  MOVFF  FF2,727
08C92:  BCF    FF2.7
08C94:  MOVLW  00
08C96:  MOVLB  0
08C98:  CALL   0F92
08C9C:  TBLRD*-
08C9E:  TBLRD*+
08CA0:  MOVF   FF5,W
08CA2:  MOVWF  FEE
08CA4:  IORLW  00
08CA6:  BNZ   8C9E
08CA8:  MOVLB  7
08CAA:  BTFSC  x27.7
08CAC:  BSF    FF2.7
....................          displayMenu(Menus.Letra,0,0,1,2); 
08CAE:  MOVLW  07
08CB0:  MOVWF  x28
08CB2:  MOVLW  03
08CB4:  MOVWF  x27
08CB6:  CLRF   x29
08CB8:  CLRF   x2A
08CBA:  MOVLW  01
08CBC:  MOVWF  x2B
08CBE:  MOVLW  02
08CC0:  MOVWF  x2C
08CC2:  MOVLB  0
08CC4:  CALL   22A8
....................           
....................          if(unidad==4) 
08CC8:  MOVLB  6
08CCA:  MOVF   xD9,W
08CCC:  SUBLW  04
08CCE:  BNZ   8CEE
....................          {displayTiempo(Testerilizacionp[3],20,40,1,2);} 
08CD0:  MOVFF  46D,727
08CD4:  MOVLW  14
08CD6:  MOVLB  7
08CD8:  MOVWF  x28
08CDA:  MOVLW  28
08CDC:  MOVWF  x29
08CDE:  MOVLW  01
08CE0:  MOVWF  x2A
08CE2:  MOVLW  02
08CE4:  MOVWF  x2B
08CE6:  MOVLB  0
08CE8:  CALL   3B78
....................          else 
08CEC:  BRA    8D08
....................          {displayTiempo(Testerilizacionp[3],20,40,0,2);} 
08CEE:  MOVFF  46D,727
08CF2:  MOVLW  14
08CF4:  MOVLB  7
08CF6:  MOVWF  x28
08CF8:  MOVLW  28
08CFA:  MOVWF  x29
08CFC:  CLRF   x2A
08CFE:  MOVLW  02
08D00:  MOVWF  x2B
08D02:  MOVLB  0
08D04:  CALL   3B78
....................           
....................          if(unidad==3) 
08D08:  MOVLB  6
08D0A:  MOVF   xD9,W
08D0C:  SUBLW  03
08D0E:  BNZ   8D2C
....................          {displayTiempo(Testerilizacionp[2],40,40,1,2);} 
08D10:  MOVFF  46C,727
08D14:  MOVLW  28
08D16:  MOVLB  7
08D18:  MOVWF  x28
08D1A:  MOVWF  x29
08D1C:  MOVLW  01
08D1E:  MOVWF  x2A
08D20:  MOVLW  02
08D22:  MOVWF  x2B
08D24:  MOVLB  0
08D26:  CALL   3B78
....................          else 
08D2A:  BRA    8D44
....................          {displayTiempo(Testerilizacionp[2],40,40,0,2);} 
08D2C:  MOVFF  46C,727
08D30:  MOVLW  28
08D32:  MOVLB  7
08D34:  MOVWF  x28
08D36:  MOVWF  x29
08D38:  CLRF   x2A
08D3A:  MOVLW  02
08D3C:  MOVWF  x2B
08D3E:  MOVLB  0
08D40:  CALL   3B78
....................           
....................          if(unidad==2) 
08D44:  MOVLB  6
08D46:  MOVF   xD9,W
08D48:  SUBLW  02
08D4A:  BNZ   8D6A
....................          {displayTiempo(Testerilizacionp[1],70,40,1,2);} 
08D4C:  MOVFF  46B,727
08D50:  MOVLW  46
08D52:  MOVLB  7
08D54:  MOVWF  x28
08D56:  MOVLW  28
08D58:  MOVWF  x29
08D5A:  MOVLW  01
08D5C:  MOVWF  x2A
08D5E:  MOVLW  02
08D60:  MOVWF  x2B
08D62:  MOVLB  0
08D64:  CALL   3B78
....................          else 
08D68:  BRA    8D84
....................          {displayTiempo(Testerilizacionp[1],70,40,0,2);} 
08D6A:  MOVFF  46B,727
08D6E:  MOVLW  46
08D70:  MOVLB  7
08D72:  MOVWF  x28
08D74:  MOVLW  28
08D76:  MOVWF  x29
08D78:  CLRF   x2A
08D7A:  MOVLW  02
08D7C:  MOVWF  x2B
08D7E:  MOVLB  0
08D80:  CALL   3B78
....................           
....................          if(unidad==1) 
08D84:  MOVLB  6
08D86:  DECFSZ xD9,W
08D88:  BRA    8DA8
....................          {displayTiempo(Testerilizacionp[0],90,40,1,2);} 
08D8A:  MOVFF  46A,727
08D8E:  MOVLW  5A
08D90:  MOVLB  7
08D92:  MOVWF  x28
08D94:  MOVLW  28
08D96:  MOVWF  x29
08D98:  MOVLW  01
08D9A:  MOVWF  x2A
08D9C:  MOVLW  02
08D9E:  MOVWF  x2B
08DA0:  MOVLB  0
08DA2:  CALL   3B78
....................          else 
08DA6:  BRA    8DC2
....................          {displayTiempo(Testerilizacionp[0],90,40,0,2);} 
08DA8:  MOVFF  46A,727
08DAC:  MOVLW  5A
08DAE:  MOVLB  7
08DB0:  MOVWF  x28
08DB2:  MOVLW  28
08DB4:  MOVWF  x29
08DB6:  CLRF   x2A
08DB8:  MOVLW  02
08DBA:  MOVWF  x2B
08DBC:  MOVLB  0
08DBE:  CALL   3B78
....................           
....................          strcpy(Menus.Letra,":"); 
08DC2:  MOVLW  07
08DC4:  MOVWF  FEA
08DC6:  MOVLW  03
08DC8:  MOVWF  FE9
08DCA:  MOVFF  FF2,727
08DCE:  BCF    FF2.7
08DD0:  MOVLW  00
08DD2:  CALL   06DE
08DD6:  TBLRD*-
08DD8:  TBLRD*+
08DDA:  MOVF   FF5,W
08DDC:  MOVWF  FEE
08DDE:  IORLW  00
08DE0:  BNZ   8DD8
08DE2:  MOVLB  7
08DE4:  BTFSC  x27.7
08DE6:  BSF    FF2.7
....................          displayMenu(Menus.Letra,60,42,2,2);      
08DE8:  MOVLW  07
08DEA:  MOVWF  x28
08DEC:  MOVLW  03
08DEE:  MOVWF  x27
08DF0:  MOVLW  3C
08DF2:  MOVWF  x29
08DF4:  MOVLW  2A
08DF6:  MOVWF  x2A
08DF8:  MOVLW  02
08DFA:  MOVWF  x2B
08DFC:  MOVWF  x2C
08DFE:  MOVLB  0
08E00:  CALL   22A8
....................           
....................          visual=0; 
08E04:  MOVLB  6
08E06:  BCF    xD6.2
....................       } 
....................        
....................        
....................          if(UP)//Si oprime hacia arriba 
08E08:  BSF    F92.4
08E0A:  BTFSC  F80.4
08E0C:  BRA    8E4A
....................          {   
....................             if(Testerilizacionp[unidad-1]<9) 
08E0E:  MOVLW  01
08E10:  SUBWF  xD9,W
08E12:  CLRF   03
08E14:  ADDLW  6A
08E16:  MOVWF  FE9
08E18:  MOVLW  04
08E1A:  ADDWFC 03,W
08E1C:  MOVWF  FEA
08E1E:  BTFSC  FEF.7
08E20:  BRA    8E28
08E22:  MOVF   FEF,W
08E24:  SUBLW  08
08E26:  BNC   8E4A
....................             { 
....................                delay_ms(30);Testerilizacionp[unidad-1]++;visual=1; 
08E28:  MOVLW  1E
08E2A:  MOVLB  7
08E2C:  MOVWF  x2D
08E2E:  MOVLB  0
08E30:  CALL   1796
08E34:  MOVLW  01
08E36:  MOVLB  6
08E38:  SUBWF  xD9,W
08E3A:  CLRF   03
08E3C:  ADDLW  6A
08E3E:  MOVWF  FE9
08E40:  MOVLW  04
08E42:  ADDWFC 03,W
08E44:  MOVWF  FEA
08E46:  INCF   FEF,F
08E48:  BSF    xD6.2
....................             } 
....................          } 
....................                 
....................          if(DOWN)//Si oprime hacia abajo 
08E4A:  BSF    F92.5
08E4C:  BTFSC  F80.5
08E4E:  BRA    8E8C
....................          {   
....................             if(Testerilizacionp[unidad-1]>0) 
08E50:  MOVLW  01
08E52:  SUBWF  xD9,W
08E54:  CLRF   03
08E56:  ADDLW  6A
08E58:  MOVWF  FE9
08E5A:  MOVLW  04
08E5C:  ADDWFC 03,W
08E5E:  MOVWF  FEA
08E60:  BTFSC  FEF.7
08E62:  BRA    8E8C
08E64:  MOVF   FEF,W
08E66:  SUBLW  00
08E68:  BC    8E8C
....................             { 
....................                delay_ms(30);Testerilizacionp[unidad-1]--;visual=1;      
08E6A:  MOVLW  1E
08E6C:  MOVLB  7
08E6E:  MOVWF  x2D
08E70:  MOVLB  0
08E72:  CALL   1796
08E76:  MOVLW  01
08E78:  MOVLB  6
08E7A:  SUBWF  xD9,W
08E7C:  CLRF   03
08E7E:  ADDLW  6A
08E80:  MOVWF  FE9
08E82:  MOVLW  04
08E84:  ADDWFC 03,W
08E86:  MOVWF  FEA
08E88:  DECF   FEF,F
08E8A:  BSF    xD6.2
....................             } 
....................          } 
....................                 
....................          if(RIGHT)//Si oprime SET 
08E8C:  BSF    F96.0
08E8E:  BTFSC  F84.0
08E90:  BRA    8EA4
....................          {   
....................             delay_ms(30);unidad--;visual=1; 
08E92:  MOVLW  1E
08E94:  MOVLB  7
08E96:  MOVWF  x2D
08E98:  MOVLB  0
08E9A:  CALL   1796
08E9E:  MOVLB  6
08EA0:  DECF   xD9,F
08EA2:  BSF    xD6.2
....................          }  
....................                    
....................          if(LEFT)//Si oprime boton de Toma. 
08EA4:  BSF    F96.1
08EA6:  BTFSC  F84.1
08EA8:  BRA    8F82
....................          { 
....................             delay_ms(700);Menu=8;glcd_fillscreen(OFF);Opcion=1;visual=1; 
08EAA:  MOVLW  04
08EAC:  MOVLB  7
08EAE:  MOVWF  x27
08EB0:  MOVLW  AF
08EB2:  MOVWF  x2D
08EB4:  MOVLB  0
08EB6:  CALL   1796
08EBA:  MOVLB  7
08EBC:  DECFSZ x27,F
08EBE:  BRA    8EB0
08EC0:  MOVLW  08
08EC2:  MOVLB  6
08EC4:  MOVWF  xD8
08EC6:  MOVLB  7
08EC8:  CLRF   x28
08ECA:  MOVLB  0
08ECC:  CALL   1C7A
08ED0:  MOVLW  01
08ED2:  MOVLB  6
08ED4:  MOVWF  xDE
08ED6:  BSF    xD6.2
....................             write_eeprom(0,Testerilizacionp[0]);write_eeprom(1,Testerilizacionp[1]); 
08ED8:  CLRF   FAA
08EDA:  CLRF   FA9
08EDC:  MOVFF  46A,FA8
08EE0:  BCF    FA6.6
08EE2:  BCF    FA6.7
08EE4:  BSF    FA6.2
08EE6:  MOVF   FF2,W
08EE8:  MOVWF  00
08EEA:  BCF    FF2.7
08EEC:  MOVLB  F
08EEE:  MOVLW  55
08EF0:  MOVWF  FA7
08EF2:  MOVLW  AA
08EF4:  MOVWF  FA7
08EF6:  BSF    FA6.1
08EF8:  BTFSC  FA6.1
08EFA:  BRA    8EF8
08EFC:  BCF    FA6.2
08EFE:  MOVF   00,W
08F00:  IORWF  FF2,F
08F02:  CLRF   FAA
08F04:  MOVLW  01
08F06:  MOVWF  FA9
08F08:  MOVFF  46B,FA8
08F0C:  BCF    FA6.6
08F0E:  BCF    FA6.7
08F10:  BSF    FA6.2
08F12:  MOVF   FF2,W
08F14:  MOVWF  00
08F16:  BCF    FF2.7
08F18:  MOVLW  55
08F1A:  MOVWF  FA7
08F1C:  MOVLW  AA
08F1E:  MOVWF  FA7
08F20:  BSF    FA6.1
08F22:  BTFSC  FA6.1
08F24:  BRA    8F22
08F26:  BCF    FA6.2
08F28:  MOVF   00,W
08F2A:  IORWF  FF2,F
....................             write_eeprom(2,Testerilizacionp[2]);write_eeprom(3,Testerilizacionp[3]); 
08F2C:  CLRF   FAA
08F2E:  MOVLW  02
08F30:  MOVWF  FA9
08F32:  MOVFF  46C,FA8
08F36:  BCF    FA6.6
08F38:  BCF    FA6.7
08F3A:  BSF    FA6.2
08F3C:  MOVFF  FF2,00
08F40:  BCF    FF2.7
08F42:  MOVLW  55
08F44:  MOVWF  FA7
08F46:  MOVLW  AA
08F48:  MOVWF  FA7
08F4A:  BSF    FA6.1
08F4C:  BTFSC  FA6.1
08F4E:  BRA    8F4C
08F50:  BCF    FA6.2
08F52:  MOVF   00,W
08F54:  IORWF  FF2,F
08F56:  CLRF   FAA
08F58:  MOVLW  03
08F5A:  MOVWF  FA9
08F5C:  MOVFF  46D,FA8
08F60:  BCF    FA6.6
08F62:  BCF    FA6.7
08F64:  BSF    FA6.2
08F66:  MOVFF  FF2,00
08F6A:  BCF    FF2.7
08F6C:  MOVLW  55
08F6E:  MOVWF  FA7
08F70:  MOVLW  AA
08F72:  MOVWF  FA7
08F74:  BSF    FA6.1
08F76:  BTFSC  FA6.1
08F78:  BRA    8F76
08F7A:  BCF    FA6.2
08F7C:  MOVF   00,W
08F7E:  IORWF  FF2,F
08F80:  MOVLB  6
....................          } 
....................      } 
.................... //_--------------------------------------------------------------------------------------------------------------------------------------------------------     
....................  
.................... //_--------------------------------------------------------------------------------------------------------------------------------------------------------       
....................       if(Menu==12){ // Menu de Tiempo de Secado 
08F82:  MOVF   xD8,W
08F84:  SUBLW  0C
08F86:  BTFSS  FD8.2
08F88:  BRA    9294
....................       
....................       if(visual==1) 
08F8A:  BTFSS  xD6.2
08F8C:  BRA    9118
....................       { 
....................          if(unidad<1) 
08F8E:  MOVF   xD9,F
08F90:  BNZ   8F96
....................          {unidad=4;} 
08F92:  MOVLW  04
08F94:  MOVWF  xD9
....................           
....................          strcpy(Menus.Letra," Secado"); 
08F96:  MOVLW  07
08F98:  MOVWF  FEA
08F9A:  MOVLW  03
08F9C:  MOVWF  FE9
08F9E:  MOVFF  FF2,727
08FA2:  BCF    FF2.7
08FA4:  MOVLW  00
08FA6:  MOVLB  0
08FA8:  CALL   0FBA
08FAC:  TBLRD*-
08FAE:  TBLRD*+
08FB0:  MOVF   FF5,W
08FB2:  MOVWF  FEE
08FB4:  IORLW  00
08FB6:  BNZ   8FAE
08FB8:  MOVLB  7
08FBA:  BTFSC  x27.7
08FBC:  BSF    FF2.7
....................          displayMenu(Menus.Letra,0,0,1,2); 
08FBE:  MOVLW  07
08FC0:  MOVWF  x28
08FC2:  MOVLW  03
08FC4:  MOVWF  x27
08FC6:  CLRF   x29
08FC8:  CLRF   x2A
08FCA:  MOVLW  01
08FCC:  MOVWF  x2B
08FCE:  MOVLW  02
08FD0:  MOVWF  x2C
08FD2:  MOVLB  0
08FD4:  CALL   22A8
....................           
....................          if(unidad==4) 
08FD8:  MOVLB  6
08FDA:  MOVF   xD9,W
08FDC:  SUBLW  04
08FDE:  BNZ   8FFE
....................          {displayTiempo(Tsecadop[3],20,40,1,2);} 
08FE0:  MOVFF  475,727
08FE4:  MOVLW  14
08FE6:  MOVLB  7
08FE8:  MOVWF  x28
08FEA:  MOVLW  28
08FEC:  MOVWF  x29
08FEE:  MOVLW  01
08FF0:  MOVWF  x2A
08FF2:  MOVLW  02
08FF4:  MOVWF  x2B
08FF6:  MOVLB  0
08FF8:  CALL   3B78
....................          else 
08FFC:  BRA    9018
....................          {displayTiempo(Tsecadop[3],20,40,0,2);} 
08FFE:  MOVFF  475,727
09002:  MOVLW  14
09004:  MOVLB  7
09006:  MOVWF  x28
09008:  MOVLW  28
0900A:  MOVWF  x29
0900C:  CLRF   x2A
0900E:  MOVLW  02
09010:  MOVWF  x2B
09012:  MOVLB  0
09014:  CALL   3B78
....................           
....................          if(unidad==3) 
09018:  MOVLB  6
0901A:  MOVF   xD9,W
0901C:  SUBLW  03
0901E:  BNZ   903C
....................          {displayTiempo(Tsecadop[2],40,40,1,2);} 
09020:  MOVFF  474,727
09024:  MOVLW  28
09026:  MOVLB  7
09028:  MOVWF  x28
0902A:  MOVWF  x29
0902C:  MOVLW  01
0902E:  MOVWF  x2A
09030:  MOVLW  02
09032:  MOVWF  x2B
09034:  MOVLB  0
09036:  CALL   3B78
....................          else 
0903A:  BRA    9054
....................          {displayTiempo(Tsecadop[2],40,40,0,2);} 
0903C:  MOVFF  474,727
09040:  MOVLW  28
09042:  MOVLB  7
09044:  MOVWF  x28
09046:  MOVWF  x29
09048:  CLRF   x2A
0904A:  MOVLW  02
0904C:  MOVWF  x2B
0904E:  MOVLB  0
09050:  CALL   3B78
....................           
....................          if(unidad==2) 
09054:  MOVLB  6
09056:  MOVF   xD9,W
09058:  SUBLW  02
0905A:  BNZ   907A
....................          {displayTiempo(Tsecadop[1],70,40,1,2);} 
0905C:  MOVFF  473,727
09060:  MOVLW  46
09062:  MOVLB  7
09064:  MOVWF  x28
09066:  MOVLW  28
09068:  MOVWF  x29
0906A:  MOVLW  01
0906C:  MOVWF  x2A
0906E:  MOVLW  02
09070:  MOVWF  x2B
09072:  MOVLB  0
09074:  CALL   3B78
....................          else 
09078:  BRA    9094
....................          {displayTiempo(Tsecadop[1],70,40,0,2);} 
0907A:  MOVFF  473,727
0907E:  MOVLW  46
09080:  MOVLB  7
09082:  MOVWF  x28
09084:  MOVLW  28
09086:  MOVWF  x29
09088:  CLRF   x2A
0908A:  MOVLW  02
0908C:  MOVWF  x2B
0908E:  MOVLB  0
09090:  CALL   3B78
....................           
....................          if(unidad==1) 
09094:  MOVLB  6
09096:  DECFSZ xD9,W
09098:  BRA    90B8
....................          {displayTiempo(Tsecadop[0],90,40,1,2);} 
0909A:  MOVFF  472,727
0909E:  MOVLW  5A
090A0:  MOVLB  7
090A2:  MOVWF  x28
090A4:  MOVLW  28
090A6:  MOVWF  x29
090A8:  MOVLW  01
090AA:  MOVWF  x2A
090AC:  MOVLW  02
090AE:  MOVWF  x2B
090B0:  MOVLB  0
090B2:  CALL   3B78
....................          else 
090B6:  BRA    90D2
....................          {displayTiempo(Tsecadop[0],90,40,0,2);} 
090B8:  MOVFF  472,727
090BC:  MOVLW  5A
090BE:  MOVLB  7
090C0:  MOVWF  x28
090C2:  MOVLW  28
090C4:  MOVWF  x29
090C6:  CLRF   x2A
090C8:  MOVLW  02
090CA:  MOVWF  x2B
090CC:  MOVLB  0
090CE:  CALL   3B78
....................           
....................          strcpy(Menus.Letra,":"); 
090D2:  MOVLW  07
090D4:  MOVWF  FEA
090D6:  MOVLW  03
090D8:  MOVWF  FE9
090DA:  MOVFF  FF2,727
090DE:  BCF    FF2.7
090E0:  MOVLW  00
090E2:  CALL   06DE
090E6:  TBLRD*-
090E8:  TBLRD*+
090EA:  MOVF   FF5,W
090EC:  MOVWF  FEE
090EE:  IORLW  00
090F0:  BNZ   90E8
090F2:  MOVLB  7
090F4:  BTFSC  x27.7
090F6:  BSF    FF2.7
....................          displayMenu(Menus.Letra,60,42,2,2);  
090F8:  MOVLW  07
090FA:  MOVWF  x28
090FC:  MOVLW  03
090FE:  MOVWF  x27
09100:  MOVLW  3C
09102:  MOVWF  x29
09104:  MOVLW  2A
09106:  MOVWF  x2A
09108:  MOVLW  02
0910A:  MOVWF  x2B
0910C:  MOVWF  x2C
0910E:  MOVLB  0
09110:  CALL   22A8
....................           
....................          visual=0; 
09114:  MOVLB  6
09116:  BCF    xD6.2
....................       } 
....................        
....................        
....................          if(UP)//Si oprime hacia arriba 
09118:  BSF    F92.4
0911A:  BTFSC  F80.4
0911C:  BRA    915A
....................          {   
....................             if(Tsecadop[unidad-1]<9) 
0911E:  MOVLW  01
09120:  SUBWF  xD9,W
09122:  CLRF   03
09124:  ADDLW  72
09126:  MOVWF  FE9
09128:  MOVLW  04
0912A:  ADDWFC 03,W
0912C:  MOVWF  FEA
0912E:  BTFSC  FEF.7
09130:  BRA    9138
09132:  MOVF   FEF,W
09134:  SUBLW  08
09136:  BNC   915A
....................             { 
....................                delay_ms(30);Tsecadop[unidad-1]++;visual=1; 
09138:  MOVLW  1E
0913A:  MOVLB  7
0913C:  MOVWF  x2D
0913E:  MOVLB  0
09140:  CALL   1796
09144:  MOVLW  01
09146:  MOVLB  6
09148:  SUBWF  xD9,W
0914A:  CLRF   03
0914C:  ADDLW  72
0914E:  MOVWF  FE9
09150:  MOVLW  04
09152:  ADDWFC 03,W
09154:  MOVWF  FEA
09156:  INCF   FEF,F
09158:  BSF    xD6.2
....................             } 
....................          } 
....................                 
....................          if(DOWN)//Si oprime hacia abajo 
0915A:  BSF    F92.5
0915C:  BTFSC  F80.5
0915E:  BRA    919C
....................          {   
....................             if(Tsecadop[unidad-1]>0) 
09160:  MOVLW  01
09162:  SUBWF  xD9,W
09164:  CLRF   03
09166:  ADDLW  72
09168:  MOVWF  FE9
0916A:  MOVLW  04
0916C:  ADDWFC 03,W
0916E:  MOVWF  FEA
09170:  BTFSC  FEF.7
09172:  BRA    919C
09174:  MOVF   FEF,W
09176:  SUBLW  00
09178:  BC    919C
....................             { 
....................                delay_ms(30);Tsecadop[unidad-1]--;visual=1;      
0917A:  MOVLW  1E
0917C:  MOVLB  7
0917E:  MOVWF  x2D
09180:  MOVLB  0
09182:  CALL   1796
09186:  MOVLW  01
09188:  MOVLB  6
0918A:  SUBWF  xD9,W
0918C:  CLRF   03
0918E:  ADDLW  72
09190:  MOVWF  FE9
09192:  MOVLW  04
09194:  ADDWFC 03,W
09196:  MOVWF  FEA
09198:  DECF   FEF,F
0919A:  BSF    xD6.2
....................             } 
....................          } 
....................                 
....................          if(RIGHT)//Si oprime SET 
0919C:  BSF    F96.0
0919E:  BTFSC  F84.0
091A0:  BRA    91B4
....................          {   
....................             delay_ms(30);unidad--;visual=1; 
091A2:  MOVLW  1E
091A4:  MOVLB  7
091A6:  MOVWF  x2D
091A8:  MOVLB  0
091AA:  CALL   1796
091AE:  MOVLB  6
091B0:  DECF   xD9,F
091B2:  BSF    xD6.2
....................          }  
....................                    
....................          if(LEFT)//Si oprime boton de Toma. 
091B4:  BSF    F96.1
091B6:  BTFSC  F84.1
091B8:  BRA    9294
....................          { 
....................             delay_ms(700);Menu=8;glcd_fillscreen(OFF);Opcion=1;visual=1; 
091BA:  MOVLW  04
091BC:  MOVLB  7
091BE:  MOVWF  x27
091C0:  MOVLW  AF
091C2:  MOVWF  x2D
091C4:  MOVLB  0
091C6:  CALL   1796
091CA:  MOVLB  7
091CC:  DECFSZ x27,F
091CE:  BRA    91C0
091D0:  MOVLW  08
091D2:  MOVLB  6
091D4:  MOVWF  xD8
091D6:  MOVLB  7
091D8:  CLRF   x28
091DA:  MOVLB  0
091DC:  CALL   1C7A
091E0:  MOVLW  01
091E2:  MOVLB  6
091E4:  MOVWF  xDE
091E6:  BSF    xD6.2
....................             write_eeprom(4,Tsecadop[0]);write_eeprom(5,Tsecadop[1]); 
091E8:  CLRF   FAA
091EA:  MOVLW  04
091EC:  MOVWF  FA9
091EE:  MOVFF  472,FA8
091F2:  BCF    FA6.6
091F4:  BCF    FA6.7
091F6:  BSF    FA6.2
091F8:  MOVF   FF2,W
091FA:  MOVWF  00
091FC:  BCF    FF2.7
091FE:  MOVLB  F
09200:  MOVLW  55
09202:  MOVWF  FA7
09204:  MOVLW  AA
09206:  MOVWF  FA7
09208:  BSF    FA6.1
0920A:  BTFSC  FA6.1
0920C:  BRA    920A
0920E:  BCF    FA6.2
09210:  MOVF   00,W
09212:  IORWF  FF2,F
09214:  CLRF   FAA
09216:  MOVLW  05
09218:  MOVWF  FA9
0921A:  MOVFF  473,FA8
0921E:  BCF    FA6.6
09220:  BCF    FA6.7
09222:  BSF    FA6.2
09224:  MOVF   FF2,W
09226:  MOVWF  00
09228:  BCF    FF2.7
0922A:  MOVLW  55
0922C:  MOVWF  FA7
0922E:  MOVLW  AA
09230:  MOVWF  FA7
09232:  BSF    FA6.1
09234:  BTFSC  FA6.1
09236:  BRA    9234
09238:  BCF    FA6.2
0923A:  MOVF   00,W
0923C:  IORWF  FF2,F
....................             write_eeprom(6,Tsecadop[2]);write_eeprom(7,Tsecadop[3]); 
0923E:  CLRF   FAA
09240:  MOVLW  06
09242:  MOVWF  FA9
09244:  MOVFF  474,FA8
09248:  BCF    FA6.6
0924A:  BCF    FA6.7
0924C:  BSF    FA6.2
0924E:  MOVFF  FF2,00
09252:  BCF    FF2.7
09254:  MOVLW  55
09256:  MOVWF  FA7
09258:  MOVLW  AA
0925A:  MOVWF  FA7
0925C:  BSF    FA6.1
0925E:  BTFSC  FA6.1
09260:  BRA    925E
09262:  BCF    FA6.2
09264:  MOVF   00,W
09266:  IORWF  FF2,F
09268:  CLRF   FAA
0926A:  MOVLW  07
0926C:  MOVWF  FA9
0926E:  MOVFF  475,FA8
09272:  BCF    FA6.6
09274:  BCF    FA6.7
09276:  BSF    FA6.2
09278:  MOVFF  FF2,00
0927C:  BCF    FF2.7
0927E:  MOVLW  55
09280:  MOVWF  FA7
09282:  MOVLW  AA
09284:  MOVWF  FA7
09286:  BSF    FA6.1
09288:  BTFSC  FA6.1
0928A:  BRA    9288
0928C:  BCF    FA6.2
0928E:  MOVF   00,W
09290:  IORWF  FF2,F
09292:  MOVLB  6
....................          } 
....................      } 
.................... //_--------------------------------------------------------------------------------------------------------------------------------------------------------     
....................  
.................... //_--------------------------------------------------------------------------------------------------------------------------------------------------------       
....................       if(Menu==13){ // Menu de Temperatura 
09294:  MOVF   xD8,W
09296:  SUBLW  0D
09298:  BTFSS  FD8.2
0929A:  BRA    93D4
....................       
....................       if(visual==1) 
0929C:  BTFSS  xD6.2
0929E:  BRA    9306
....................       { 
....................          glcd_fillScreen(OFF); 
092A0:  MOVLB  7
092A2:  CLRF   x28
092A4:  MOVLB  0
092A6:  CALL   1C7A
....................          strcpy(Menus.Letra,"Temperatura"); 
092AA:  MOVLW  07
092AC:  MOVWF  FEA
092AE:  MOVLW  03
092B0:  MOVWF  FE9
092B2:  MOVFF  FF2,727
092B6:  BCF    FF2.7
092B8:  MOVLW  00
092BA:  CALL   0D34
092BE:  TBLRD*-
092C0:  TBLRD*+
092C2:  MOVF   FF5,W
092C4:  MOVWF  FEE
092C6:  IORLW  00
092C8:  BNZ   92C0
092CA:  MOVLB  7
092CC:  BTFSC  x27.7
092CE:  BSF    FF2.7
....................          displayMenu(Menus.Letra,0,0,1,2); 
092D0:  MOVLW  07
092D2:  MOVWF  x28
092D4:  MOVLW  03
092D6:  MOVWF  x27
092D8:  CLRF   x29
092DA:  CLRF   x2A
092DC:  MOVLW  01
092DE:  MOVWF  x2B
092E0:  MOVLW  02
092E2:  MOVWF  x2C
092E4:  MOVLB  0
092E6:  CALL   22A8
....................           
....................          displayTiempo(Setpoint,30,30,0,3); 
092EA:  MOVFF  6DD,727
092EE:  MOVLW  1E
092F0:  MOVLB  7
092F2:  MOVWF  x28
092F4:  MOVWF  x29
092F6:  CLRF   x2A
092F8:  MOVLW  03
092FA:  MOVWF  x2B
092FC:  MOVLB  0
092FE:  CALL   3B78
....................           
....................          visual=0; 
09302:  MOVLB  6
09304:  BCF    xD6.2
....................       } 
....................        
....................          if(UP)//Si oprime hacia arriba 
09306:  BSF    F92.4
09308:  BTFSC  F80.4
0930A:  BRA    933E
....................          {   
....................             if(Setpoint<134) 
0930C:  MOVF   xDD,W
0930E:  SUBLW  85
09310:  BNC   933E
....................             { 
....................                if(Setpoint<100) 
09312:  MOVF   xDD,W
09314:  SUBLW  63
09316:  BNC   932C
....................                { 
....................                   Setpoint=100;delay_ms(100);visual=1; 
09318:  MOVLW  64
0931A:  MOVWF  xDD
0931C:  MOVLB  7
0931E:  MOVWF  x2D
09320:  MOVLB  0
09322:  CALL   1796
09326:  MOVLB  6
09328:  BSF    xD6.2
....................                } 
....................                else 
0932A:  BRA    933E
....................                { 
....................                   delay_ms(30);Setpoint++;visual=1; 
0932C:  MOVLW  1E
0932E:  MOVLB  7
09330:  MOVWF  x2D
09332:  MOVLB  0
09334:  CALL   1796
09338:  MOVLB  6
0933A:  INCF   xDD,F
0933C:  BSF    xD6.2
....................                } 
....................             } 
....................          } 
....................                 
....................          if(DOWN)//Si oprime hacia abajo 
0933E:  BSF    F92.5
09340:  BTFSC  F80.5
09342:  BRA    935C
....................          {   
....................             if(Setpoint>105) 
09344:  MOVF   xDD,W
09346:  SUBLW  69
09348:  BC    935C
....................             { 
....................                delay_ms(30);Setpoint--;visual=1;      
0934A:  MOVLW  1E
0934C:  MOVLB  7
0934E:  MOVWF  x2D
09350:  MOVLB  0
09352:  CALL   1796
09356:  MOVLB  6
09358:  DECF   xDD,F
0935A:  BSF    xD6.2
....................             } 
....................          } 
....................                 
....................          if(RIGHT)//Si oprime SET 
0935C:  BSF    F96.0
0935E:  BTFSC  F84.0
09360:  BRA    9372
....................          {   
....................             delay_ms(30);visual=1; 
09362:  MOVLW  1E
09364:  MOVLB  7
09366:  MOVWF  x2D
09368:  MOVLB  0
0936A:  CALL   1796
0936E:  MOVLB  6
09370:  BSF    xD6.2
....................          }  
....................                    
....................          if(LEFT)//Si oprime boton de Toma. 
09372:  BSF    F96.1
09374:  BTFSC  F84.1
09376:  BRA    93D4
....................          { 
....................             delay_ms(700);Menu=8;glcd_fillscreen(OFF);Opcion=1;visual=1; 
09378:  MOVLW  04
0937A:  MOVLB  7
0937C:  MOVWF  x27
0937E:  MOVLW  AF
09380:  MOVWF  x2D
09382:  MOVLB  0
09384:  CALL   1796
09388:  MOVLB  7
0938A:  DECFSZ x27,F
0938C:  BRA    937E
0938E:  MOVLW  08
09390:  MOVLB  6
09392:  MOVWF  xD8
09394:  MOVLB  7
09396:  CLRF   x28
09398:  MOVLB  0
0939A:  CALL   1C7A
0939E:  MOVLW  01
093A0:  MOVLB  6
093A2:  MOVWF  xDE
093A4:  BSF    xD6.2
....................             write_eeprom(8,Setpoint); 
093A6:  CLRF   FAA
093A8:  MOVLW  08
093AA:  MOVWF  FA9
093AC:  MOVFF  6DD,FA8
093B0:  BCF    FA6.6
093B2:  BCF    FA6.7
093B4:  BSF    FA6.2
093B6:  MOVF   FF2,W
093B8:  MOVWF  00
093BA:  BCF    FF2.7
093BC:  MOVLB  F
093BE:  MOVLW  55
093C0:  MOVWF  FA7
093C2:  MOVLW  AA
093C4:  MOVWF  FA7
093C6:  BSF    FA6.1
093C8:  BTFSC  FA6.1
093CA:  BRA    93C8
093CC:  BCF    FA6.2
093CE:  MOVF   00,W
093D0:  IORWF  FF2,F
093D2:  MOVLB  6
....................          } 
....................      } 
.................... //_--------------------------------------------------------------------------------------------------------------------------------------------------------     
....................  
.................... //_--------------------------------------------------------------------------------------------------------------------------------------------------------       
....................       if(Menu==14){ // Menu de Desfogue 
093D4:  MOVF   xD8,W
093D6:  SUBLW  0E
093D8:  BTFSS  FD8.2
093DA:  BRA    9714
....................       if(Nivel>6) 
093DC:  MOVF   xE8,F
093DE:  BNZ   93E6
093E0:  MOVF   xE7,W
093E2:  SUBLW  06
093E4:  BC    93EC
....................          Nivel=6; 
093E6:  CLRF   xE8
093E8:  MOVLW  06
093EA:  MOVWF  xE7
....................           
....................       if(visual==1) 
093EC:  BTFSS  xD6.2
093EE:  BRA    9450
....................       {          
....................          strcpy(Menus.Letra," Desfogue"); 
093F0:  MOVLW  07
093F2:  MOVWF  FEA
093F4:  MOVLW  03
093F6:  MOVWF  FE9
093F8:  MOVFF  FF2,727
093FC:  BCF    FF2.7
093FE:  MOVLW  00
09400:  MOVLB  0
09402:  CALL   0FE0
09406:  TBLRD*-
09408:  TBLRD*+
0940A:  MOVF   FF5,W
0940C:  MOVWF  FEE
0940E:  IORLW  00
09410:  BNZ   9408
09412:  MOVLB  7
09414:  BTFSC  x27.7
09416:  BSF    FF2.7
....................          displayMenu(Menus.Letra,0,0,1,2); 
09418:  MOVLW  07
0941A:  MOVWF  x28
0941C:  MOVLW  03
0941E:  MOVWF  x27
09420:  CLRF   x29
09422:  CLRF   x2A
09424:  MOVLW  01
09426:  MOVWF  x2B
09428:  MOVLW  02
0942A:  MOVWF  x2C
0942C:  MOVLB  0
0942E:  CALL   22A8
....................           
....................          displayTiempo(Nivel,50,40,0,2); 
09432:  MOVFF  6E7,727
09436:  MOVLW  32
09438:  MOVLB  7
0943A:  MOVWF  x28
0943C:  MOVLW  28
0943E:  MOVWF  x29
09440:  CLRF   x2A
09442:  MOVLW  02
09444:  MOVWF  x2B
09446:  MOVLB  0
09448:  CALL   3B78
....................           
....................          visual=0; 
0944C:  MOVLB  6
0944E:  BCF    xD6.2
....................       } 
....................        
....................        
....................          if(UP)//Si oprime hacia arriba 
09450:  BSF    F92.4
09452:  BTFSC  F80.4
09454:  BRA    9476
....................          {   
....................             if(Nivel<6) 
09456:  MOVF   xE8,F
09458:  BNZ   9476
0945A:  MOVF   xE7,W
0945C:  SUBLW  05
0945E:  BNC   9476
....................             { 
....................                delay_ms(30);Nivel++;visual=1; 
09460:  MOVLW  1E
09462:  MOVLB  7
09464:  MOVWF  x2D
09466:  MOVLB  0
09468:  CALL   1796
0946C:  MOVLB  6
0946E:  INCF   xE7,F
09470:  BTFSC  FD8.2
09472:  INCF   xE8,F
09474:  BSF    xD6.2
....................             } 
....................          } 
....................                 
....................          if(DOWN)//Si oprime hacia abajo 
09476:  BSF    F92.5
09478:  BTFSC  F80.5
0947A:  BRA    949E
....................          {   
....................             if(Nivel>1) 
0947C:  MOVF   xE8,F
0947E:  BNZ   9486
09480:  MOVF   xE7,W
09482:  SUBLW  01
09484:  BC    949E
....................             { 
....................                delay_ms(30);Nivel--;visual=1;      
09486:  MOVLW  1E
09488:  MOVLB  7
0948A:  MOVWF  x2D
0948C:  MOVLB  0
0948E:  CALL   1796
09492:  MOVLB  6
09494:  MOVF   xE7,W
09496:  BTFSC  FD8.2
09498:  DECF   xE8,F
0949A:  DECF   xE7,F
0949C:  BSF    xD6.2
....................             } 
....................          } 
....................           
....................          if(desfoguelento==1) 
0949E:  BTFSS  xD6.3
094A0:  BRA    9676
....................          { 
....................             if(RIGHT)//Si oprime SET 
094A2:  BSF    F96.0
094A4:  BTFSC  F84.0
094A6:  BRA    9674
....................             {   
....................                write_eeprom(9,Nivel); 
094A8:  CLRF   FAA
094AA:  MOVLW  09
094AC:  MOVWF  FA9
094AE:  MOVFF  6E7,FA8
094B2:  BCF    FA6.6
094B4:  BCF    FA6.7
094B6:  BSF    FA6.2
094B8:  MOVF   FF2,W
094BA:  MOVWF  00
094BC:  BCF    FF2.7
094BE:  MOVLB  F
094C0:  MOVLW  55
094C2:  MOVWF  FA7
094C4:  MOVLW  AA
094C6:  MOVWF  FA7
094C8:  BSF    FA6.1
094CA:  BTFSC  FA6.1
094CC:  BRA    94CA
094CE:  BCF    FA6.2
094D0:  MOVF   00,W
094D2:  IORWF  FF2,F
....................                delay_ms(20); 
094D4:  MOVLW  14
094D6:  MOVLB  7
094D8:  MOVWF  x2D
094DA:  MOVLB  0
094DC:  CALL   1796
....................                NivelSeleccionado=9990*Nivel; 
094E0:  MOVLW  27
094E2:  MOVLB  7
094E4:  MOVWF  x2C
094E6:  MOVLW  06
094E8:  MOVWF  x2B
094EA:  MOVFF  6E8,72E
094EE:  MOVFF  6E7,72D
094F2:  MOVLB  0
094F4:  CALL   264A
094F8:  MOVFF  02,6F2
094FC:  MOVFF  01,6F1
....................                Menu=20;glcd_rect(15, 18, 30, 53, NO, ON);tiempo_secado=0;glcd_fillScreen(OFF); 
09500:  MOVLW  14
09502:  MOVLB  6
09504:  MOVWF  xD8
09506:  MOVLW  0F
09508:  MOVLB  7
0950A:  MOVWF  x3D
0950C:  MOVLW  12
0950E:  MOVWF  x3E
09510:  MOVLW  1E
09512:  MOVWF  x3F
09514:  MOVLW  35
09516:  MOVWF  x40
09518:  CLRF   x41
0951A:  MOVLW  01
0951C:  MOVWF  x42
0951E:  MOVLB  0
09520:  CALL   21E6
09524:  MOVLB  6
09526:  CLRF   xE0
09528:  MOVLB  7
0952A:  CLRF   x28
0952C:  MOVLB  0
0952E:  CALL   1C7A
....................                strcpy(Menus.Letra,"Calentando"); 
09532:  MOVLW  07
09534:  MOVWF  FEA
09536:  MOVLW  03
09538:  MOVWF  FE9
0953A:  MOVFF  FF2,727
0953E:  BCF    FF2.7
09540:  MOVLW  00
09542:  CALL   1008
09546:  TBLRD*-
09548:  TBLRD*+
0954A:  MOVF   FF5,W
0954C:  MOVWF  FEE
0954E:  IORLW  00
09550:  BNZ   9548
09552:  MOVLB  7
09554:  BTFSC  x27.7
09556:  BSF    FF2.7
....................                displayMenu(Menus.Letra,0,55,2,1); 
09558:  MOVLW  07
0955A:  MOVWF  x28
0955C:  MOVLW  03
0955E:  MOVWF  x27
09560:  CLRF   x29
09562:  MOVLW  37
09564:  MOVWF  x2A
09566:  MOVLW  02
09568:  MOVWF  x2B
0956A:  MOVLW  01
0956C:  MOVWF  x2C
0956E:  MOVLB  0
09570:  CALL   22A8
....................                CuadroCalentando(ON); 
09574:  MOVLW  01
09576:  MOVLB  7
09578:  MOVWF  x27
0957A:  MOVLB  0
0957C:  CALL   3814
....................                glcd_imagen(5); 
09580:  MOVLW  05
09582:  MOVLB  7
09584:  MOVWF  x27
09586:  MOVLB  0
09588:  CALL   3764
....................                strcpy(Menus.Letra,"T est:");displayMenu(Menus.Letra,0,0,2,1); 
0958C:  MOVLW  07
0958E:  MOVWF  FEA
09590:  MOVLW  03
09592:  MOVWF  FE9
09594:  MOVFF  FF2,727
09598:  BCF    FF2.7
0959A:  MOVLW  00
0959C:  CALL   1032
095A0:  TBLRD*-
095A2:  TBLRD*+
095A4:  MOVF   FF5,W
095A6:  MOVWF  FEE
095A8:  IORLW  00
095AA:  BNZ   95A2
095AC:  MOVLB  7
095AE:  BTFSC  x27.7
095B0:  BSF    FF2.7
095B2:  MOVLW  07
095B4:  MOVWF  x28
095B6:  MOVLW  03
095B8:  MOVWF  x27
095BA:  CLRF   x29
095BC:  CLRF   x2A
095BE:  MOVLW  02
095C0:  MOVWF  x2B
095C2:  MOVLW  01
095C4:  MOVWF  x2C
095C6:  MOVLB  0
095C8:  CALL   22A8
....................                strcpy(Menus.Letra,"T sec:");displayMenu(Menus.Letra,0,8,2,1); 
095CC:  MOVLW  07
095CE:  MOVWF  FEA
095D0:  MOVLW  03
095D2:  MOVWF  FE9
095D4:  MOVFF  FF2,727
095D8:  BCF    FF2.7
095DA:  MOVLW  00
095DC:  CALL   1058
095E0:  TBLRD*-
095E2:  TBLRD*+
095E4:  MOVF   FF5,W
095E6:  MOVWF  FEE
095E8:  IORLW  00
095EA:  BNZ   95E2
095EC:  MOVLB  7
095EE:  BTFSC  x27.7
095F0:  BSF    FF2.7
095F2:  MOVLW  07
095F4:  MOVWF  x28
095F6:  MOVLW  03
095F8:  MOVWF  x27
095FA:  CLRF   x29
095FC:  MOVLW  08
095FE:  MOVWF  x2A
09600:  MOVLW  02
09602:  MOVWF  x2B
09604:  MOVLW  01
09606:  MOVWF  x2C
09608:  MOVLB  0
0960A:  CALL   22A8
....................                glcd_circle(95,40,2,NO,ON); 
0960E:  MOVLW  5F
09610:  MOVLB  7
09612:  MOVWF  x27
09614:  MOVLW  28
09616:  MOVWF  x28
09618:  MOVLW  02
0961A:  MOVWF  x29
0961C:  CLRF   x2A
0961E:  MOVLW  01
09620:  MOVWF  x2B
09622:  MOVLB  0
09624:  CALL   3D16
....................                strcpy(Menus.Letra,"C");displayMenu(Menus.Letra,102,40,2,2); 
09628:  MOVLW  07
0962A:  MOVWF  FEA
0962C:  MOVLW  03
0962E:  MOVWF  FE9
09630:  MOVFF  FF2,727
09634:  BCF    FF2.7
09636:  MOVLW  00
09638:  CALL   107E
0963C:  TBLRD*-
0963E:  TBLRD*+
09640:  MOVF   FF5,W
09642:  MOVWF  FEE
09644:  IORLW  00
09646:  BNZ   963E
09648:  MOVLB  7
0964A:  BTFSC  x27.7
0964C:  BSF    FF2.7
0964E:  MOVLW  07
09650:  MOVWF  x28
09652:  MOVLW  03
09654:  MOVWF  x27
09656:  MOVLW  66
09658:  MOVWF  x29
0965A:  MOVLW  28
0965C:  MOVWF  x2A
0965E:  MOVLW  02
09660:  MOVWF  x2B
09662:  MOVWF  x2C
09664:  MOVLB  0
09666:  CALL   22A8
....................                MuestraTiemposProgramados(); 
0966A:  CALL   3F40
....................                IniciaCiclo=ON; 
0966E:  MOVLB  4
09670:  BSF    x5E.0
09672:  MOVLB  6
....................             }       
....................          } 
....................          else 
09674:  BRA    9714
....................          { 
....................             if(LEFT)//Si oprime boton de Toma. 
09676:  BSF    F96.1
09678:  BTFSC  F84.1
0967A:  BRA    9714
....................             { 
....................                if(Nivel<6) 
0967C:  MOVF   xE8,F
0967E:  BNZ   968A
09680:  MOVF   xE7,W
09682:  SUBLW  05
09684:  BNC   968A
....................                { 
....................                   desfoguelento=1; 
09686:  BSF    xD6.3
....................                } 
....................                else 
09688:  BRA    968C
....................                { 
....................                   desfoguelento=0; 
0968A:  BCF    xD6.3
....................                } 
....................                delay_ms(700);Menu=8;glcd_fillscreen(OFF);Opcion=1;visual=1; 
0968C:  MOVLW  04
0968E:  MOVLB  7
09690:  MOVWF  x27
09692:  MOVLW  AF
09694:  MOVWF  x2D
09696:  MOVLB  0
09698:  CALL   1796
0969C:  MOVLB  7
0969E:  DECFSZ x27,F
096A0:  BRA    9692
096A2:  MOVLW  08
096A4:  MOVLB  6
096A6:  MOVWF  xD8
096A8:  MOVLB  7
096AA:  CLRF   x28
096AC:  MOVLB  0
096AE:  CALL   1C7A
096B2:  MOVLW  01
096B4:  MOVLB  6
096B6:  MOVWF  xDE
096B8:  BSF    xD6.2
....................                write_eeprom(9,Nivel); 
096BA:  CLRF   FAA
096BC:  MOVLW  09
096BE:  MOVWF  FA9
096C0:  MOVFF  6E7,FA8
096C4:  BCF    FA6.6
096C6:  BCF    FA6.7
096C8:  BSF    FA6.2
096CA:  MOVF   FF2,W
096CC:  MOVWF  00
096CE:  BCF    FF2.7
096D0:  MOVLB  F
096D2:  MOVLW  55
096D4:  MOVWF  FA7
096D6:  MOVLW  AA
096D8:  MOVWF  FA7
096DA:  BSF    FA6.1
096DC:  BTFSC  FA6.1
096DE:  BRA    96DC
096E0:  BCF    FA6.2
096E2:  MOVF   00,W
096E4:  IORWF  FF2,F
....................                delay_ms(20); 
096E6:  MOVLW  14
096E8:  MOVLB  7
096EA:  MOVWF  x2D
096EC:  MOVLB  0
096EE:  CALL   1796
....................                NivelSeleccionado=9990*Nivel; 
096F2:  MOVLW  27
096F4:  MOVLB  7
096F6:  MOVWF  x2C
096F8:  MOVLW  06
096FA:  MOVWF  x2B
096FC:  MOVFF  6E8,72E
09700:  MOVFF  6E7,72D
09704:  MOVLB  0
09706:  CALL   264A
0970A:  MOVFF  02,6F2
0970E:  MOVFF  01,6F1
09712:  MOVLB  6
....................             } 
....................          } 
....................      } 
.................... //_--------------------------------------------------------------------------------------------------------------------------------------------------------     
....................  
.................... //_-------------------------------------------------------------------------------------------------------------------------------------------------------- 
....................       if(Menu==15){ //Menu de Continuar 
09714:  MOVF   xD8,W
09716:  SUBLW  0F
09718:  BTFSS  FD8.2
0971A:  BRA    9A4A
....................        
....................       if(visual==1) 
0971C:  BTFSS  xD6.2
0971E:  BRA    9884
....................       { 
....................          strcpy(Menus.Letra,"Continuar"); 
09720:  MOVLW  07
09722:  MOVWF  FEA
09724:  MOVLW  03
09726:  MOVWF  FE9
09728:  MOVFF  FF2,727
0972C:  BCF    FF2.7
0972E:  MOVLW  00
09730:  MOVLB  0
09732:  CALL   0D8E
09736:  TBLRD*-
09738:  TBLRD*+
0973A:  MOVF   FF5,W
0973C:  MOVWF  FEE
0973E:  IORLW  00
09740:  BNZ   9738
09742:  MOVLB  7
09744:  BTFSC  x27.7
09746:  BSF    FF2.7
....................          displayMenu(Menus.Letra,0,0,1,2); 
09748:  MOVLW  07
0974A:  MOVWF  x28
0974C:  MOVLW  03
0974E:  MOVWF  x27
09750:  CLRF   x29
09752:  CLRF   x2A
09754:  MOVLW  01
09756:  MOVWF  x2B
09758:  MOVLW  02
0975A:  MOVWF  x2C
0975C:  MOVLB  0
0975E:  CALL   22A8
....................           
....................          if(Opcion==2) 
09762:  MOVLB  6
09764:  MOVF   xDE,W
09766:  SUBLW  02
09768:  BNZ   97F4
....................          {strcpy(Menus.Letra,"SI"); 
0976A:  MOVLW  07
0976C:  MOVWF  FEA
0976E:  MOVLW  03
09770:  MOVWF  FE9
09772:  MOVFF  FF2,727
09776:  BCF    FF2.7
09778:  MOVLW  00
0977A:  MOVLB  0
0977C:  CALL   109E
09780:  TBLRD*-
09782:  TBLRD*+
09784:  MOVF   FF5,W
09786:  MOVWF  FEE
09788:  IORLW  00
0978A:  BNZ   9782
0978C:  MOVLB  7
0978E:  BTFSC  x27.7
09790:  BSF    FF2.7
....................          displayMenu(Menus.Letra,50,25,1,2); 
09792:  MOVLW  07
09794:  MOVWF  x28
09796:  MOVLW  03
09798:  MOVWF  x27
0979A:  MOVLW  32
0979C:  MOVWF  x29
0979E:  MOVLW  19
097A0:  MOVWF  x2A
097A2:  MOVLW  01
097A4:  MOVWF  x2B
097A6:  MOVLW  02
097A8:  MOVWF  x2C
097AA:  MOVLB  0
097AC:  CALL   22A8
....................          strcpy(Menus.Letra,"NO"); 
097B0:  MOVLW  07
097B2:  MOVWF  FEA
097B4:  MOVLW  03
097B6:  MOVWF  FE9
097B8:  MOVFF  FF2,727
097BC:  BCF    FF2.7
097BE:  MOVLW  00
097C0:  CALL   10C0
097C4:  TBLRD*-
097C6:  TBLRD*+
097C8:  MOVF   FF5,W
097CA:  MOVWF  FEE
097CC:  IORLW  00
097CE:  BNZ   97C6
097D0:  MOVLB  7
097D2:  BTFSC  x27.7
097D4:  BSF    FF2.7
....................          displayMenu(Menus.Letra,50,45,0,2); 
097D6:  MOVLW  07
097D8:  MOVWF  x28
097DA:  MOVLW  03
097DC:  MOVWF  x27
097DE:  MOVLW  32
097E0:  MOVWF  x29
097E2:  MOVLW  2D
097E4:  MOVWF  x2A
097E6:  CLRF   x2B
097E8:  MOVLW  02
097EA:  MOVWF  x2C
097EC:  MOVLB  0
097EE:  CALL   22A8
097F2:  MOVLB  6
....................          } 
....................          if(Opcion==1) 
097F4:  DECFSZ xDE,W
097F6:  BRA    9882
....................          {strcpy(Menus.Letra,"SI"); 
097F8:  MOVLW  07
097FA:  MOVWF  FEA
097FC:  MOVLW  03
097FE:  MOVWF  FE9
09800:  MOVFF  FF2,727
09804:  BCF    FF2.7
09806:  MOVLW  00
09808:  MOVLB  0
0980A:  CALL   109E
0980E:  TBLRD*-
09810:  TBLRD*+
09812:  MOVF   FF5,W
09814:  MOVWF  FEE
09816:  IORLW  00
09818:  BNZ   9810
0981A:  MOVLB  7
0981C:  BTFSC  x27.7
0981E:  BSF    FF2.7
....................          displayMenu(Menus.Letra,50,25,0,2); 
09820:  MOVLW  07
09822:  MOVWF  x28
09824:  MOVLW  03
09826:  MOVWF  x27
09828:  MOVLW  32
0982A:  MOVWF  x29
0982C:  MOVLW  19
0982E:  MOVWF  x2A
09830:  CLRF   x2B
09832:  MOVLW  02
09834:  MOVWF  x2C
09836:  MOVLB  0
09838:  CALL   22A8
....................          strcpy(Menus.Letra,"NO"); 
0983C:  MOVLW  07
0983E:  MOVWF  FEA
09840:  MOVLW  03
09842:  MOVWF  FE9
09844:  MOVFF  FF2,727
09848:  BCF    FF2.7
0984A:  MOVLW  00
0984C:  CALL   10C0
09850:  TBLRD*-
09852:  TBLRD*+
09854:  MOVF   FF5,W
09856:  MOVWF  FEE
09858:  IORLW  00
0985A:  BNZ   9852
0985C:  MOVLB  7
0985E:  BTFSC  x27.7
09860:  BSF    FF2.7
....................          displayMenu(Menus.Letra,50,45,1,2); 
09862:  MOVLW  07
09864:  MOVWF  x28
09866:  MOVLW  03
09868:  MOVWF  x27
0986A:  MOVLW  32
0986C:  MOVWF  x29
0986E:  MOVLW  2D
09870:  MOVWF  x2A
09872:  MOVLW  01
09874:  MOVWF  x2B
09876:  MOVLW  02
09878:  MOVWF  x2C
0987A:  MOVLB  0
0987C:  CALL   22A8
09880:  MOVLB  6
....................          } 
....................          visual=0; 
09882:  BCF    xD6.2
....................       } 
....................        
....................          
....................       if(UP)//Si oprime hacia arriba 
09884:  BSF    F92.4
09886:  BTFSC  F80.4
09888:  BRA    9894
....................       { 
....................          if(Opcion<2) 
0988A:  MOVF   xDE,W
0988C:  SUBLW  01
0988E:  BNC   9892
....................          { 
....................             Opcion++; 
09890:  INCF   xDE,F
....................          } 
....................          visual=1; 
09892:  BSF    xD6.2
....................       } 
....................              
....................       if(DOWN)//Si oprime hacia abajo 
09894:  BSF    F92.5
09896:  BTFSC  F80.5
09898:  BRA    98A4
....................       {   
....................          if(Opcion>1) 
0989A:  MOVF   xDE,W
0989C:  SUBLW  01
0989E:  BC    98A2
....................          { 
....................             Opcion--; 
098A0:  DECF   xDE,F
....................          }   
....................          visual=1; 
098A2:  BSF    xD6.2
....................       } 
....................              
....................       if(RIGHT)//Si oprime SET 
098A4:  BSF    F96.0
098A6:  BTFSC  F84.0
098A8:  BRA    9A14
....................       {   
....................          if(Opcion==2) 
098AA:  MOVF   xDE,W
098AC:  SUBLW  02
098AE:  BTFSS  FD8.2
098B0:  BRA    99E6
....................          { 
....................             Menu=20;glcd_rect(15, 18, 30, 53, NO, ON);tiempo_secado=0;enable_interrupts(global);glcd_fillScreen(OFF); 
098B2:  MOVLW  14
098B4:  MOVWF  xD8
098B6:  MOVLW  0F
098B8:  MOVLB  7
098BA:  MOVWF  x3D
098BC:  MOVLW  12
098BE:  MOVWF  x3E
098C0:  MOVLW  1E
098C2:  MOVWF  x3F
098C4:  MOVLW  35
098C6:  MOVWF  x40
098C8:  CLRF   x41
098CA:  MOVLW  01
098CC:  MOVWF  x42
098CE:  MOVLB  0
098D0:  CALL   21E6
098D4:  MOVLB  6
098D6:  CLRF   xE0
098D8:  MOVLW  C0
098DA:  IORWF  FF2,F
098DC:  MOVLB  7
098DE:  CLRF   x28
098E0:  MOVLB  0
098E2:  CALL   1C7A
....................             strcpy(Menus.Letra,"Calentando"); 
098E6:  MOVLW  07
098E8:  MOVWF  FEA
098EA:  MOVLW  03
098EC:  MOVWF  FE9
098EE:  MOVFF  FF2,727
098F2:  BCF    FF2.7
098F4:  MOVLW  00
098F6:  CALL   1008
098FA:  TBLRD*-
098FC:  TBLRD*+
098FE:  MOVF   FF5,W
09900:  MOVWF  FEE
09902:  IORLW  00
09904:  BNZ   98FC
09906:  MOVLB  7
09908:  BTFSC  x27.7
0990A:  BSF    FF2.7
....................             displayMenu(Menus.Letra,0,55,2,1); 
0990C:  MOVLW  07
0990E:  MOVWF  x28
09910:  MOVLW  03
09912:  MOVWF  x27
09914:  CLRF   x29
09916:  MOVLW  37
09918:  MOVWF  x2A
0991A:  MOVLW  02
0991C:  MOVWF  x2B
0991E:  MOVLW  01
09920:  MOVWF  x2C
09922:  MOVLB  0
09924:  CALL   22A8
....................             CuadroCalentando(ON); 
09928:  MOVLW  01
0992A:  MOVLB  7
0992C:  MOVWF  x27
0992E:  MOVLB  0
09930:  CALL   3814
....................             glcd_imagen(5); 
09934:  MOVLW  05
09936:  MOVLB  7
09938:  MOVWF  x27
0993A:  MOVLB  0
0993C:  CALL   3764
....................             strcpy(Menus.Letra,"T est:");displayMenu(Menus.Letra,0,0,2,1); 
09940:  MOVLW  07
09942:  MOVWF  FEA
09944:  MOVLW  03
09946:  MOVWF  FE9
09948:  MOVFF  FF2,727
0994C:  BCF    FF2.7
0994E:  MOVLW  00
09950:  CALL   1032
09954:  TBLRD*-
09956:  TBLRD*+
09958:  MOVF   FF5,W
0995A:  MOVWF  FEE
0995C:  IORLW  00
0995E:  BNZ   9956
09960:  MOVLB  7
09962:  BTFSC  x27.7
09964:  BSF    FF2.7
09966:  MOVLW  07
09968:  MOVWF  x28
0996A:  MOVLW  03
0996C:  MOVWF  x27
0996E:  CLRF   x29
09970:  CLRF   x2A
09972:  MOVLW  02
09974:  MOVWF  x2B
09976:  MOVLW  01
09978:  MOVWF  x2C
0997A:  MOVLB  0
0997C:  CALL   22A8
....................             strcpy(Menus.Letra,"T sec:");displayMenu(Menus.Letra,0,8,2,1); 
09980:  MOVLW  07
09982:  MOVWF  FEA
09984:  MOVLW  03
09986:  MOVWF  FE9
09988:  MOVFF  FF2,727
0998C:  BCF    FF2.7
0998E:  MOVLW  00
09990:  CALL   1058
09994:  TBLRD*-
09996:  TBLRD*+
09998:  MOVF   FF5,W
0999A:  MOVWF  FEE
0999C:  IORLW  00
0999E:  BNZ   9996
099A0:  MOVLB  7
099A2:  BTFSC  x27.7
099A4:  BSF    FF2.7
099A6:  MOVLW  07
099A8:  MOVWF  x28
099AA:  MOVLW  03
099AC:  MOVWF  x27
099AE:  CLRF   x29
099B0:  MOVLW  08
099B2:  MOVWF  x2A
099B4:  MOVLW  02
099B6:  MOVWF  x2B
099B8:  MOVLW  01
099BA:  MOVWF  x2C
099BC:  MOVLB  0
099BE:  CALL   22A8
....................             MuestraTiemposProgramados(); 
099C2:  CALL   3F40
....................             if(Nivel<6) 
099C6:  MOVLB  6
099C8:  MOVF   xE8,F
099CA:  BNZ   99D6
099CC:  MOVF   xE7,W
099CE:  SUBLW  05
099D0:  BNC   99D6
....................                { 
....................                   desfoguelento=1; 
099D2:  BSF    xD6.3
....................                } 
....................                else 
099D4:  BRA    99D8
....................                { 
....................                   desfoguelento=0; 
099D6:  BCF    xD6.3
....................                } 
....................                IniciaCiclo=ON; 
099D8:  MOVLB  4
099DA:  BSF    x5E.0
....................                VerifiqueAgua(); 
099DC:  MOVLB  0
099DE:  CALL   3868
....................          } 
....................          else 
099E2:  BRA    9A16
099E4:  MOVLB  6
....................          { 
....................             delay_ms(700);Menu=8;glcd_fillscreen(OFF);Opcion=1;visual=1; 
099E6:  MOVLW  04
099E8:  MOVLB  7
099EA:  MOVWF  x27
099EC:  MOVLW  AF
099EE:  MOVWF  x2D
099F0:  MOVLB  0
099F2:  CALL   1796
099F6:  MOVLB  7
099F8:  DECFSZ x27,F
099FA:  BRA    99EC
099FC:  MOVLW  08
099FE:  MOVLB  6
09A00:  MOVWF  xD8
09A02:  MOVLB  7
09A04:  CLRF   x28
09A06:  MOVLB  0
09A08:  CALL   1C7A
09A0C:  MOVLW  01
09A0E:  MOVLB  6
09A10:  MOVWF  xDE
09A12:  BSF    xD6.2
09A14:  MOVLB  0
....................          }          
....................       }  
....................                    
....................       if(LEFT)//Si oprime boton de Toma. 
09A16:  BSF    F96.1
09A18:  BTFSC  F84.1
09A1A:  BRA    9A4C
....................       { 
....................          delay_ms(700);Menu=8;glcd_fillscreen(OFF);Opcion=1;visual=1; 
09A1C:  MOVLW  04
09A1E:  MOVLB  7
09A20:  MOVWF  x27
09A22:  MOVLW  AF
09A24:  MOVWF  x2D
09A26:  MOVLB  0
09A28:  CALL   1796
09A2C:  MOVLB  7
09A2E:  DECFSZ x27,F
09A30:  BRA    9A22
09A32:  MOVLW  08
09A34:  MOVLB  6
09A36:  MOVWF  xD8
09A38:  MOVLB  7
09A3A:  CLRF   x28
09A3C:  MOVLB  0
09A3E:  CALL   1C7A
09A42:  MOVLW  01
09A44:  MOVLB  6
09A46:  MOVWF  xDE
09A48:  BSF    xD6.2
09A4A:  MOVLB  0
....................       } 
....................      
....................      
....................     } 
.................... //_--------------------------------------------------------------------------------------------------------------------------------------------------------        
....................  
.................... //_--------------------------------------------------------------------------------------------------------------------------------------------------------     
....................    if(Menu==20){ // Este es el menu de cuando el proceso se inicio. 
09A4C:  MOVLB  6
09A4E:  MOVF   xD8,W
09A50:  SUBLW  14
09A52:  BTFSS  FD8.2
09A54:  GOTO   A7EC
....................     
....................    //Lectura_Esclavos(); 
....................     
....................    //Envio_Esclavos(); 
....................    // Nuevo Flujo de Programa con logica 2018 para ajustar ciclos de Pre-Vacio y de Vacio al final del ciclo//    
....................     
....................    if(RIGHT){ 
09A58:  BSF    F96.0
09A5A:  BTFSC  F84.0
09A5C:  BRA    9A88
....................       glcd_init(ON); 
09A5E:  MOVLW  01
09A60:  MOVLB  7
09A62:  MOVWF  x27
09A64:  MOVLB  0
09A66:  CALL   1D8C
....................       delay_ms(1000); 
09A6A:  MOVLW  04
09A6C:  MOVLB  7
09A6E:  MOVWF  x27
09A70:  MOVLW  FA
09A72:  MOVWF  x2D
09A74:  MOVLB  0
09A76:  CALL   1796
09A7A:  MOVLB  7
09A7C:  DECFSZ x27,F
09A7E:  BRA    9A70
....................       flagCalentando=OFF; 
09A80:  MOVLB  4
09A82:  BCF    x5F.4
....................       flagDesfogando=OFF; 
09A84:  BCF    x5F.6
....................       flagEsterilizando=OFF; 
09A86:  BCF    x5F.5
....................    } 
....................     
....................    if(TiempoCiclo>5400){ 
09A88:  MOVLB  4
09A8A:  MOVF   x61,W
09A8C:  SUBLW  14
09A8E:  BC    9A9E
09A90:  XORLW  FF
09A92:  BNZ   9A9A
09A94:  MOVF   x60,W
09A96:  SUBLW  18
09A98:  BC    9A9E
....................       AlarmaTiempoProlongado=ON; 
09A9A:  BSF    x5D.0
....................    }else{ 
09A9C:  BRA    9AA0
....................       AlarmaTiempoProlongado=OFF; 
09A9E:  BCF    x5D.0
....................    } 
....................     
....................    if(Temperatura>Setpoint+3.0){ 
09AA0:  MOVLB  7
09AA2:  CLRF   x2E
09AA4:  MOVFF  6DD,72D
09AA8:  MOVLB  0
09AAA:  CALL   17BE
09AAE:  BCF    FD8.1
09AB0:  MOVFF  03,72F
09AB4:  MOVFF  02,72E
09AB8:  MOVFF  01,72D
09ABC:  MOVFF  00,72C
09AC0:  MOVLB  7
09AC2:  CLRF   x33
09AC4:  CLRF   x32
09AC6:  MOVLW  40
09AC8:  MOVWF  x31
09ACA:  MOVLW  80
09ACC:  MOVWF  x30
09ACE:  MOVLB  0
09AD0:  CALL   1952
09AD4:  MOVFF  03,72B
09AD8:  MOVFF  02,72A
09ADC:  MOVFF  01,729
09AE0:  MOVFF  00,728
09AE4:  MOVFF  6BF,72F
09AE8:  MOVFF  6BE,72E
09AEC:  MOVFF  6BD,72D
09AF0:  MOVFF  6BC,72C
09AF4:  CALL   1BCA
09AF8:  BNC   9AFE
....................       AlarmaSobreTemperatura=ON; 
09AFA:  MOVLB  4
09AFC:  BSF    x5D.1
....................    } 
....................     
....................    if(TiempoLlenado>600){ 
09AFE:  MOVLB  4
09B00:  MOVF   x63,W
09B02:  SUBLW  01
09B04:  BC    9B14
09B06:  XORLW  FF
09B08:  BNZ   9B10
09B0A:  MOVF   x62,W
09B0C:  SUBLW  58
09B0E:  BC    9B14
....................       AlarmaLlenado=ON; 
09B10:  BSF    x5D.2
....................    }else{ 
09B12:  BRA    9B16
....................       AlarmaLlenado=OFF; 
09B14:  BCF    x5D.2
....................    } 
....................     
....................    if(!TERM){ 
09B16:  BSF    F93.7
09B18:  BTFSS  F81.7
09B1A:  BRA    9B20
....................       AlarmaTermostato=ON; 
09B1C:  BSF    x5D.3
....................    }else{ 
09B1E:  BRA    9B22
....................       AlarmaTermostato=OFF; 
09B20:  BCF    x5D.3
....................    } 
....................     
....................    if(!DOOR){ 
09B22:  BSF    F96.2
09B24:  BTFSS  F84.2
09B26:  BRA    9B30
....................       if(!Secando){ 
09B28:  BTFSC  x5E.2
09B2A:  BRA    9B2E
....................          AlarmaPuerta=ON; 
09B2C:  BSF    x5D.4
....................       } 
....................    }else{ 
09B2E:  BRA    9B32
....................       AlarmaPuerta=OFF; 
09B30:  BCF    x5D.4
....................    } 
....................  
....................    if(!STOP){ 
09B32:  BSF    F93.6
09B34:  BTFSS  F81.6
09B36:  BRA    9B3A
....................       AlarmaEmergencia=ON; 
09B38:  BSF    x5D.5
....................    } 
....................     
....................    if(AlarmaPuerta || AlarmaTermostato || AlarmaLlenado || AlarmaSobreTemperatura || AlarmaTiempoProlongado || AlarmaEmergencia){ 
09B3A:  BTFSC  x5D.4
09B3C:  BRA    9B52
09B3E:  BTFSC  x5D.3
09B40:  BRA    9B52
09B42:  BTFSC  x5D.2
09B44:  BRA    9B52
09B46:  BTFSC  x5D.1
09B48:  BRA    9B52
09B4A:  BTFSC  x5D.0
09B4C:  BRA    9B52
09B4E:  BTFSS  x5D.5
09B50:  BRA    9E40
....................       if(AlarmaEmergencia) 
09B52:  BTFSS  x5D.5
09B54:  BRA    9BD2
....................       { 
....................          BorraStatus(); 
09B56:  MOVLB  0
09B58:  CALL   4080
....................          strcpy(Menus.Letra,"Parada Emergencia");displayMenu(Menus.Letra,0,55,2,1); 
09B5C:  MOVLW  07
09B5E:  MOVWF  FEA
09B60:  MOVLW  03
09B62:  MOVWF  FE9
09B64:  MOVFF  FF2,727
09B68:  BCF    FF2.7
09B6A:  MOVLW  00
09B6C:  CALL   10E2
09B70:  TBLRD*-
09B72:  TBLRD*+
09B74:  MOVF   FF5,W
09B76:  MOVWF  FEE
09B78:  IORLW  00
09B7A:  BNZ   9B72
09B7C:  MOVLB  7
09B7E:  BTFSC  x27.7
09B80:  BSF    FF2.7
09B82:  MOVLW  07
09B84:  MOVWF  x28
09B86:  MOVLW  03
09B88:  MOVWF  x27
09B8A:  CLRF   x29
09B8C:  MOVLW  37
09B8E:  MOVWF  x2A
09B90:  MOVLW  02
09B92:  MOVWF  x2B
09B94:  MOVLW  01
09B96:  MOVWF  x2C
09B98:  MOVLB  0
09B9A:  CALL   22A8
....................          Desfogue_on; 
09B9E:  BCF    F8B.5
09BA0:  BCF    F94.5
....................          AguaIn_off; 
09BA2:  BSF    F8B.6
09BA4:  BCF    F94.6
....................          SSR_off; 
09BA6:  BSF    F8B.2
09BA8:  BCF    F94.2
....................          CuadroCalentando(OFF); 
09BAA:  MOVLB  7
09BAC:  CLRF   x27
09BAE:  MOVLB  0
09BB0:  CALL   3814
....................          CuadroDesfogando(OFF); 
09BB4:  MOVLB  7
09BB6:  CLRF   x27
09BB8:  MOVLB  0
09BBA:  CALL   409E
....................          CuadroEsterilizando(OFF); 
09BBE:  MOVLB  7
09BC0:  CLRF   x27
09BC2:  MOVLB  0
09BC4:  CALL   40F2
....................          IniciaCiclo=OFF; 
09BC8:  MOVLB  4
09BCA:  BCF    x5E.0
....................          IniciaLlenado=OFF; 
09BCC:  BCF    x5D.6
....................          DesfogueSuave=OFF; 
09BCE:  BCF    x5E.5
....................       }else{ 
09BD0:  BRA    9E3E
....................          if(AlarmaPuerta) 
09BD2:  BTFSS  x5D.4
09BD4:  BRA    9C50
....................          { 
....................             BorraStatus(); 
09BD6:  MOVLB  0
09BD8:  CALL   4080
....................             strcpy(Menus.Letra,"Puerta Abierta");displayMenu(Menus.Letra,0,55,2,1); 
09BDC:  MOVLW  07
09BDE:  MOVWF  FEA
09BE0:  MOVLW  03
09BE2:  MOVWF  FE9
09BE4:  MOVFF  FF2,727
09BE8:  BCF    FF2.7
09BEA:  MOVLW  00
09BEC:  CALL   1112
09BF0:  TBLRD*-
09BF2:  TBLRD*+
09BF4:  MOVF   FF5,W
09BF6:  MOVWF  FEE
09BF8:  IORLW  00
09BFA:  BNZ   9BF2
09BFC:  MOVLB  7
09BFE:  BTFSC  x27.7
09C00:  BSF    FF2.7
09C02:  MOVLW  07
09C04:  MOVWF  x28
09C06:  MOVLW  03
09C08:  MOVWF  x27
09C0A:  CLRF   x29
09C0C:  MOVLW  37
09C0E:  MOVWF  x2A
09C10:  MOVLW  02
09C12:  MOVWF  x2B
09C14:  MOVLW  01
09C16:  MOVWF  x2C
09C18:  MOVLB  0
09C1A:  CALL   22A8
....................             SSR_off;             
09C1E:  BSF    F8B.2
09C20:  BCF    F94.2
....................             Desfogue_off; 
09C22:  BSF    F8B.5
09C24:  BCF    F94.5
....................             AguaIn_off; 
09C26:  BSF    F8B.6
09C28:  BCF    F94.6
....................             CuadroCalentando(OFF); 
09C2A:  MOVLB  7
09C2C:  CLRF   x27
09C2E:  MOVLB  0
09C30:  CALL   3814
....................             CuadroDesfogando(OFF); 
09C34:  MOVLB  7
09C36:  CLRF   x27
09C38:  MOVLB  0
09C3A:  CALL   409E
....................             CuadroEsterilizando(OFF); 
09C3E:  MOVLB  7
09C40:  CLRF   x27
09C42:  MOVLB  0
09C44:  CALL   40F2
....................             IniciaCiclo=OFF; 
09C48:  MOVLB  4
09C4A:  BCF    x5E.0
....................             IniciaLlenado=OFF; 
09C4C:  BCF    x5D.6
....................          }else{ 
09C4E:  BRA    9E3E
....................             if(AlarmaLlenado) 
09C50:  BTFSS  x5D.2
09C52:  BRA    9CCA
....................             { 
....................                BorraStatus(); 
09C54:  MOVLB  0
09C56:  CALL   4080
....................                strcpy(Menus.Letra,"Error:EA01");displayMenu(Menus.Letra,0,55,2,1); 
09C5A:  MOVLW  07
09C5C:  MOVWF  FEA
09C5E:  MOVLW  03
09C60:  MOVWF  FE9
09C62:  MOVFF  FF2,727
09C66:  BCF    FF2.7
09C68:  MOVLW  00
09C6A:  CALL   1140
09C6E:  TBLRD*-
09C70:  TBLRD*+
09C72:  MOVF   FF5,W
09C74:  MOVWF  FEE
09C76:  IORLW  00
09C78:  BNZ   9C70
09C7A:  MOVLB  7
09C7C:  BTFSC  x27.7
09C7E:  BSF    FF2.7
09C80:  MOVLW  07
09C82:  MOVWF  x28
09C84:  MOVLW  03
09C86:  MOVWF  x27
09C88:  CLRF   x29
09C8A:  MOVLW  37
09C8C:  MOVWF  x2A
09C8E:  MOVLW  02
09C90:  MOVWF  x2B
09C92:  MOVLW  01
09C94:  MOVWF  x2C
09C96:  MOVLB  0
09C98:  CALL   22A8
....................                Desfogue_off; 
09C9C:  BSF    F8B.5
09C9E:  BCF    F94.5
....................                AguaIn_off; 
09CA0:  BSF    F8B.6
09CA2:  BCF    F94.6
....................                SSR_off; 
09CA4:  BSF    F8B.2
09CA6:  BCF    F94.2
....................                CuadroCalentando(OFF); 
09CA8:  MOVLB  7
09CAA:  CLRF   x27
09CAC:  MOVLB  0
09CAE:  CALL   3814
....................                CuadroDesfogando(OFF); 
09CB2:  MOVLB  7
09CB4:  CLRF   x27
09CB6:  MOVLB  0
09CB8:  CALL   409E
....................                CuadroEsterilizando(OFF); 
09CBC:  MOVLB  7
09CBE:  CLRF   x27
09CC0:  MOVLB  0
09CC2:  CALL   40F2
....................             }else{ 
09CC6:  BRA    9E3C
09CC8:  MOVLB  4
....................                if(AlarmaTermostato) // Alarma de Termostato 
09CCA:  BTFSS  x5D.3
09CCC:  BRA    9D44
....................                { 
....................                   BorraStatus(); 
09CCE:  MOVLB  0
09CD0:  CALL   4080
....................                   tiempo_esterilizacion=0;tiempo_secado=0;          
09CD4:  MOVLB  6
09CD6:  CLRF   xDF
09CD8:  CLRF   xE0
....................                   strcpy(Menus.Letra,"Error:EA02");displayMenu(Menus.Letra,0,55,2,1);           
09CDA:  MOVLW  07
09CDC:  MOVWF  FEA
09CDE:  MOVLW  03
09CE0:  MOVWF  FE9
09CE2:  MOVFF  FF2,727
09CE6:  BCF    FF2.7
09CE8:  MOVLW  00
09CEA:  MOVLB  0
09CEC:  CALL   116A
09CF0:  TBLRD*-
09CF2:  TBLRD*+
09CF4:  MOVF   FF5,W
09CF6:  MOVWF  FEE
09CF8:  IORLW  00
09CFA:  BNZ   9CF2
09CFC:  MOVLB  7
09CFE:  BTFSC  x27.7
09D00:  BSF    FF2.7
09D02:  MOVLW  07
09D04:  MOVWF  x28
09D06:  MOVLW  03
09D08:  MOVWF  x27
09D0A:  CLRF   x29
09D0C:  MOVLW  37
09D0E:  MOVWF  x2A
09D10:  MOVLW  02
09D12:  MOVWF  x2B
09D14:  MOVLW  01
09D16:  MOVWF  x2C
09D18:  MOVLB  0
09D1A:  CALL   22A8
....................                   SSR_off; 
09D1E:  BSF    F8B.2
09D20:  BCF    F94.2
....................                   CuadroCalentando(OFF); 
09D22:  MOVLB  7
09D24:  CLRF   x27
09D26:  MOVLB  0
09D28:  CALL   3814
....................                   CuadroDesfogando(OFF); 
09D2C:  MOVLB  7
09D2E:  CLRF   x27
09D30:  MOVLB  0
09D32:  CALL   409E
....................                   CuadroEsterilizando(OFF); 
09D36:  MOVLB  7
09D38:  CLRF   x27
09D3A:  MOVLB  0
09D3C:  CALL   40F2
....................                }else{ 
09D40:  BRA    9E3C
09D42:  MOVLB  4
....................                   if(AlarmaSobreTemperatura) // Alarma de Sobre Temperatura 
09D44:  BTFSS  x5D.1
09D46:  BRA    9DC6
....................                   { 
....................                      BorraStatus(); 
09D48:  MOVLB  0
09D4A:  CALL   4080
....................                      tiempo_esterilizacion=0;tiempo_secado=0;          
09D4E:  MOVLB  6
09D50:  CLRF   xDF
09D52:  CLRF   xE0
....................                      strcpy(Menus.Letra,"Error:ET02");displayMenu(Menus.Letra,0,55,2,1); 
09D54:  MOVLW  07
09D56:  MOVWF  FEA
09D58:  MOVLW  03
09D5A:  MOVWF  FE9
09D5C:  MOVFF  FF2,727
09D60:  BCF    FF2.7
09D62:  MOVLW  00
09D64:  MOVLB  0
09D66:  CALL   1194
09D6A:  TBLRD*-
09D6C:  TBLRD*+
09D6E:  MOVF   FF5,W
09D70:  MOVWF  FEE
09D72:  IORLW  00
09D74:  BNZ   9D6C
09D76:  MOVLB  7
09D78:  BTFSC  x27.7
09D7A:  BSF    FF2.7
09D7C:  MOVLW  07
09D7E:  MOVWF  x28
09D80:  MOVLW  03
09D82:  MOVWF  x27
09D84:  CLRF   x29
09D86:  MOVLW  37
09D88:  MOVWF  x2A
09D8A:  MOVLW  02
09D8C:  MOVWF  x2B
09D8E:  MOVLW  01
09D90:  MOVWF  x2C
09D92:  MOVLB  0
09D94:  CALL   22A8
....................                      Desfogue_on; 
09D98:  BCF    F8B.5
09D9A:  BCF    F94.5
....................                      SSR_off; 
09D9C:  BSF    F8B.2
09D9E:  BCF    F94.2
....................                      AguaIn_off; 
09DA0:  BSF    F8B.6
09DA2:  BCF    F94.6
....................                      CuadroCalentando(OFF); 
09DA4:  MOVLB  7
09DA6:  CLRF   x27
09DA8:  MOVLB  0
09DAA:  CALL   3814
....................                      CuadroDesfogando(OFF); 
09DAE:  MOVLB  7
09DB0:  CLRF   x27
09DB2:  MOVLB  0
09DB4:  CALL   409E
....................                      CuadroEsterilizando(OFF); 
09DB8:  MOVLB  7
09DBA:  CLRF   x27
09DBC:  MOVLB  0
09DBE:  CALL   40F2
....................                   }else{ 
09DC2:  BRA    9E3C
09DC4:  MOVLB  4
....................                      if(AlarmaTiempoProlongado) // Alarma de Error de Tiempo: Error por exceso de tiempo de calentamiento. 
09DC6:  BTFSS  x5D.0
09DC8:  BRA    9E3E
....................                      { 
....................                         BorraStatus(); 
09DCA:  MOVLB  0
09DCC:  CALL   4080
....................                         strcpy(Menus.Letra,"Error:ET01");displayMenu(Menus.Letra,0,55,2,1); 
09DD0:  MOVLW  07
09DD2:  MOVWF  FEA
09DD4:  MOVLW  03
09DD6:  MOVWF  FE9
09DD8:  MOVFF  FF2,727
09DDC:  BCF    FF2.7
09DDE:  MOVLW  00
09DE0:  CALL   11BE
09DE4:  TBLRD*-
09DE6:  TBLRD*+
09DE8:  MOVF   FF5,W
09DEA:  MOVWF  FEE
09DEC:  IORLW  00
09DEE:  BNZ   9DE6
09DF0:  MOVLB  7
09DF2:  BTFSC  x27.7
09DF4:  BSF    FF2.7
09DF6:  MOVLW  07
09DF8:  MOVWF  x28
09DFA:  MOVLW  03
09DFC:  MOVWF  x27
09DFE:  CLRF   x29
09E00:  MOVLW  37
09E02:  MOVWF  x2A
09E04:  MOVLW  02
09E06:  MOVWF  x2B
09E08:  MOVLW  01
09E0A:  MOVWF  x2C
09E0C:  MOVLB  0
09E0E:  CALL   22A8
....................                         Desfogue_on; 
09E12:  BCF    F8B.5
09E14:  BCF    F94.5
....................                         SSR_off; 
09E16:  BSF    F8B.2
09E18:  BCF    F94.2
....................                         AguaIn_off; 
09E1A:  BSF    F8B.6
09E1C:  BCF    F94.6
....................                         CuadroCalentando(OFF); 
09E1E:  MOVLB  7
09E20:  CLRF   x27
09E22:  MOVLB  0
09E24:  CALL   3814
....................                         CuadroDesfogando(OFF); 
09E28:  MOVLB  7
09E2A:  CLRF   x27
09E2C:  MOVLB  0
09E2E:  CALL   409E
....................                         CuadroEsterilizando(OFF); 
09E32:  MOVLB  7
09E34:  CLRF   x27
09E36:  MOVLB  0
09E38:  CALL   40F2
09E3C:  MOVLB  4
....................                      } 
....................                   } 
....................                } 
....................             } 
....................          } 
....................       } 
....................    } 
....................    else 
09E3E:  BRA    A4E8
....................    { 
....................       IniciaCiclo=ON; 
09E40:  BSF    x5E.0
....................          if(!CalderinLleno) 
09E42:  BTFSC  x5D.7
09E44:  BRA    9F0A
....................          { 
....................             BorraStatus(); 
09E46:  MOVLB  0
09E48:  CALL   4080
....................             strcpy(Menus.Letra,"Llenando");displayMenu(Menus.Letra,0,55,2,1); 
09E4C:  MOVLW  07
09E4E:  MOVWF  FEA
09E50:  MOVLW  03
09E52:  MOVWF  FE9
09E54:  MOVFF  FF2,727
09E58:  BCF    FF2.7
09E5A:  MOVLW  00
09E5C:  CALL   11E8
09E60:  TBLRD*-
09E62:  TBLRD*+
09E64:  MOVF   FF5,W
09E66:  MOVWF  FEE
09E68:  IORLW  00
09E6A:  BNZ   9E62
09E6C:  MOVLB  7
09E6E:  BTFSC  x27.7
09E70:  BSF    FF2.7
09E72:  MOVLW  07
09E74:  MOVWF  x28
09E76:  MOVLW  03
09E78:  MOVWF  x27
09E7A:  CLRF   x29
09E7C:  MOVLW  37
09E7E:  MOVWF  x2A
09E80:  MOVLW  02
09E82:  MOVWF  x2B
09E84:  MOVLW  01
09E86:  MOVWF  x2C
09E88:  MOVLB  0
09E8A:  CALL   22A8
....................             // Monitoreo Nivel de Agua//-------------------------------------- 
....................             Desfogue_on;  
09E8E:  BCF    F8B.5
09E90:  BCF    F94.5
....................             if(!LOW && PresionCamara<5){//Si no sensa agua en el nivel bajo 
09E92:  BSF    F94.1
09E94:  BTFSC  F82.1
09E96:  BRA    9EBC
09E98:  MOVLB  6
09E9A:  MOVF   xEC,F
09E9C:  BTFSC  FD8.2
09E9E:  BRA    9EA4
09EA0:  MOVLB  0
09EA2:  BRA    9EBC
09EA4:  MOVF   xEB,W
09EA6:  SUBLW  04
09EA8:  BTFSC  FD8.0
09EAA:  BRA    9EB0
09EAC:  MOVLB  0
09EAE:  BRA    9EBC
....................                AguaIn_on; 
09EB0:  BCF    F8B.6
09EB2:  BCF    F94.6
....................                IniciaLlenado=ON; 
09EB4:  MOVLB  4
09EB6:  BSF    x5D.6
....................             }else{ 
09EB8:  BRA    9F02
09EBA:  MOVLB  0
....................                if(!HIGH){//Si no sensa agua en el nivel alto y no se ha llenado el calderin 
09EBC:  BSF    F94.0
09EBE:  BTFSC  F82.0
09EC0:  BRA    9EE0
....................                   if(PresionCamara<5){ 
09EC2:  MOVLB  6
09EC4:  MOVF   xEC,F
09EC6:  BNZ   9ED6
09EC8:  MOVF   xEB,W
09ECA:  SUBLW  04
09ECC:  BNC   9ED6
....................                      AguaIn_on; 
09ECE:  BCF    F8B.6
09ED0:  BCF    F94.6
....................                      IniciaLlenado=ON; 
09ED2:  MOVLB  4
09ED4:  BSF    x5D.6
....................                   } 
....................                   TiempoSensadoNivel=0; 
09ED6:  MOVLB  4
09ED8:  CLRF   x65
09EDA:  CLRF   x64
....................                } else{ 
09EDC:  BRA    9F02
09EDE:  MOVLB  0
....................                   if(TiempoSensadoNivel>=2 && !PruebaEstados) 
09EE0:  MOVLB  4
09EE2:  MOVF   x65,F
09EE4:  BNZ   9EEC
09EE6:  MOVF   x64,W
09EE8:  SUBLW  01
09EEA:  BC    9F00
09EEC:  BTFSC  x5F.1
09EEE:  BRA    9F00
....................                   { 
....................                      SensadoNivel=OFF; 
09EF0:  BCF    x5E.3
....................                      CalderinLleno=ON; 
09EF2:  BSF    x5D.7
....................                      IniciaLlenado=OFF; 
09EF4:  BCF    x5D.6
....................                      AguaIn_off; 
09EF6:  BSF    F8B.6
09EF8:  BCF    F94.6
....................                      Desfogue_off; 
09EFA:  BSF    F8B.5
09EFC:  BCF    F94.5
....................                   } 
....................                   else 
09EFE:  BRA    9F02
....................                   { 
....................                      SensadoNivel=ON; 
09F00:  BSF    x5E.3
....................                   } 
....................                } 
....................             } 
....................             Control=0; 
09F02:  MOVLB  6
09F04:  CLRF   xD7
....................          } 
....................          else 
09F06:  BRA    A4E8
09F08:  MOVLB  4
....................          { 
....................             if(Temperatura>=((float)Setpoint-0.3)){ 
09F0A:  MOVLB  7
09F0C:  CLRF   x2E
09F0E:  MOVFF  6DD,72D
09F12:  MOVLB  0
09F14:  CALL   17BE
09F18:  MOVFF  00,727
09F1C:  MOVFF  01,728
09F20:  MOVFF  02,729
09F24:  MOVFF  03,72A
09F28:  BSF    FD8.1
09F2A:  MOVFF  03,72F
09F2E:  MOVFF  02,72E
09F32:  MOVFF  01,72D
09F36:  MOVFF  00,72C
09F3A:  MOVLW  9A
09F3C:  MOVLB  7
09F3E:  MOVWF  x33
09F40:  MOVLW  99
09F42:  MOVWF  x32
09F44:  MOVLW  19
09F46:  MOVWF  x31
09F48:  MOVLW  7D
09F4A:  MOVWF  x30
09F4C:  MOVLB  0
09F4E:  CALL   1952
09F52:  MOVFF  03,72B
09F56:  MOVFF  02,72A
09F5A:  MOVFF  01,729
09F5E:  MOVFF  00,728
09F62:  MOVFF  6BF,72F
09F66:  MOVFF  6BE,72E
09F6A:  MOVFF  6BD,72D
09F6E:  MOVFF  6BC,72C
09F72:  CALL   1BCA
09F76:  BC    9F7A
09F78:  BNZ   9F7E
....................                Esterilizando=ON; 
09F7A:  MOVLB  4
09F7C:  BSF    x5E.1
....................             } 
....................              
....................             if(Temperatura<((float)Setpoint-0.9) && !Desfogando){ 
09F7E:  MOVLB  7
09F80:  CLRF   x2E
09F82:  MOVFF  6DD,72D
09F86:  MOVLB  0
09F88:  CALL   17BE
09F8C:  MOVFF  00,727
09F90:  MOVFF  01,728
09F94:  MOVFF  02,729
09F98:  MOVFF  03,72A
09F9C:  BSF    FD8.1
09F9E:  MOVFF  03,72F
09FA2:  MOVFF  02,72E
09FA6:  MOVFF  01,72D
09FAA:  MOVFF  00,72C
09FAE:  MOVLW  66
09FB0:  MOVLB  7
09FB2:  MOVWF  x33
09FB4:  MOVWF  x32
09FB6:  MOVWF  x31
09FB8:  MOVLW  7E
09FBA:  MOVWF  x30
09FBC:  MOVLB  0
09FBE:  CALL   1952
09FC2:  MOVFF  6BF,72B
09FC6:  MOVFF  6BE,72A
09FCA:  MOVFF  6BD,729
09FCE:  MOVFF  6BC,728
09FD2:  MOVFF  03,72F
09FD6:  MOVFF  02,72E
09FDA:  MOVFF  01,72D
09FDE:  MOVFF  00,72C
09FE2:  CALL   1BCA
09FE6:  BNC   9FF4
09FE8:  MOVLB  4
09FEA:  BTFSS  x5E.4
09FEC:  BRA    9FF2
09FEE:  MOVLB  0
09FF0:  BRA    9FF4
....................                Esterilizando=OFF; 
09FF2:  BCF    x5E.1
....................             } 
....................              
....................             if(!Esterilizando) 
09FF4:  MOVLB  4
09FF6:  BTFSC  x5E.1
09FF8:  BRA    A09C
....................             { 
....................                CuadroCalentando(ON); 
09FFA:  MOVLW  01
09FFC:  MOVLB  7
09FFE:  MOVWF  x27
0A000:  MOVLB  0
0A002:  CALL   3814
....................                BorraStatus(); 
0A006:  CALL   4080
....................                strcpy(Menus.Letra,"Calentando");displayMenu(Menus.Letra,0,55,2,1); 
0A00A:  MOVLW  07
0A00C:  MOVWF  FEA
0A00E:  MOVLW  03
0A010:  MOVWF  FE9
0A012:  MOVFF  FF2,727
0A016:  BCF    FF2.7
0A018:  MOVLW  00
0A01A:  CALL   1008
0A01E:  TBLRD*-
0A020:  TBLRD*+
0A022:  MOVF   FF5,W
0A024:  MOVWF  FEE
0A026:  IORLW  00
0A028:  BNZ   A020
0A02A:  MOVLB  7
0A02C:  BTFSC  x27.7
0A02E:  BSF    FF2.7
0A030:  MOVLW  07
0A032:  MOVWF  x28
0A034:  MOVLW  03
0A036:  MOVWF  x27
0A038:  CLRF   x29
0A03A:  MOVLW  37
0A03C:  MOVWF  x2A
0A03E:  MOVLW  02
0A040:  MOVWF  x2B
0A042:  MOVLW  01
0A044:  MOVWF  x2C
0A046:  MOVLB  0
0A048:  CALL   22A8
....................                Control=1; 
0A04C:  MOVLW  01
0A04E:  MOVLB  6
0A050:  MOVWF  xD7
....................                Controla(); 
0A052:  MOVLB  0
0A054:  CALL   4146
....................                if(Temperatura<=TTrampa){ 
0A058:  MOVLB  7
0A05A:  CLRF   x2E
0A05C:  MOVFF  67B,72D
0A060:  MOVLB  0
0A062:  CALL   17BE
0A066:  MOVFF  6BF,72B
0A06A:  MOVFF  6BE,72A
0A06E:  MOVFF  6BD,729
0A072:  MOVFF  6BC,728
0A076:  MOVFF  03,72F
0A07A:  MOVFF  02,72E
0A07E:  MOVFF  01,72D
0A082:  MOVFF  00,72C
0A086:  CALL   1BCA
0A08A:  BC    A08E
0A08C:  BNZ   A094
....................                   Desfogue_on; 
0A08E:  BCF    F8B.5
0A090:  BCF    F94.5
....................                }else{ 
0A092:  BRA    A098
....................                   Desfogue_off; 
0A094:  BSF    F8B.5
0A096:  BCF    F94.5
....................                } 
....................             }else{ 
0A098:  BRA    A4E4
0A09A:  MOVLB  4
....................                if((Testerilizacion[0]>=Testerilizacionp[0])&&(Testerilizacion[1]>=Testerilizacionp[1])&& 
....................                (Testerilizacion[2]>=Testerilizacionp[2])&&(Testerilizacion[3]>=Testerilizacionp[3])){  
0A09C:  MOVF   x6A,W
0A09E:  XORLW  80
0A0A0:  MOVWF  00
0A0A2:  MOVF   x66,W
0A0A4:  XORLW  80
0A0A6:  SUBWF  00,W
0A0A8:  BZ    A0AE
0A0AA:  BTFSC  FD8.0
0A0AC:  BRA    A47C
0A0AE:  MOVF   x6B,W
0A0B0:  XORLW  80
0A0B2:  MOVWF  00
0A0B4:  MOVF   x67,W
0A0B6:  XORLW  80
0A0B8:  SUBWF  00,W
0A0BA:  BZ    A0C0
0A0BC:  BTFSC  FD8.0
0A0BE:  BRA    A47C
0A0C0:  MOVF   x6C,W
0A0C2:  XORLW  80
0A0C4:  MOVWF  00
0A0C6:  MOVF   x68,W
0A0C8:  XORLW  80
0A0CA:  SUBWF  00,W
0A0CC:  BZ    A0D2
0A0CE:  BTFSC  FD8.0
0A0D0:  BRA    A47C
0A0D2:  MOVF   x6D,W
0A0D4:  XORLW  80
0A0D6:  MOVWF  00
0A0D8:  MOVF   x69,W
0A0DA:  XORLW  80
0A0DC:  SUBWF  00,W
0A0DE:  BZ    A0E4
0A0E0:  BTFSC  FD8.0
0A0E2:  BRA    A47C
....................                   if(desfoguelento){ 
0A0E4:  MOVLB  6
0A0E6:  BTFSS  xD6.3
0A0E8:  BRA    A258
....................                      if(PresionCamara<25){ 
0A0EA:  MOVF   xEC,F
0A0EC:  BTFSS  FD8.2
0A0EE:  BRA    A1EC
0A0F0:  MOVF   xEB,W
0A0F2:  SUBLW  18
0A0F4:  BTFSS  FD8.0
0A0F6:  BRA    A1EC
....................                         Desfogue_on;  
0A0F8:  BCF    F8B.5
0A0FA:  BCF    F94.5
....................                         Secando=OFF; 
0A0FC:  MOVLB  4
0A0FE:  BCF    x5E.2
....................                         DesfogueSuave=OFF; 
0A100:  BCF    x5E.5
....................                         if(PresionCamara<2){ 
0A102:  MOVLB  6
0A104:  MOVF   xEC,F
0A106:  BNZ   A1EA
0A108:  MOVF   xEB,W
0A10A:  SUBLW  01
0A10C:  BNC   A1EA
....................                            CuadroDesfogando(OFF); 
0A10E:  MOVLB  7
0A110:  CLRF   x27
0A112:  MOVLB  0
0A114:  CALL   409E
....................                            BorraStatus(); 
0A118:  CALL   4080
....................                            strcpy(Menus.Letra,"Ciclo Finalizado");displayMenu(Menus.Letra,0,55,2,1); 
0A11C:  MOVLW  07
0A11E:  MOVWF  FEA
0A120:  MOVLW  03
0A122:  MOVWF  FE9
0A124:  MOVFF  FF2,727
0A128:  BCF    FF2.7
0A12A:  MOVLW  00
0A12C:  CALL   1210
0A130:  TBLRD*-
0A132:  TBLRD*+
0A134:  MOVF   FF5,W
0A136:  MOVWF  FEE
0A138:  IORLW  00
0A13A:  BNZ   A132
0A13C:  MOVLB  7
0A13E:  BTFSC  x27.7
0A140:  BSF    FF2.7
0A142:  MOVLW  07
0A144:  MOVWF  x28
0A146:  MOVLW  03
0A148:  MOVWF  x27
0A14A:  CLRF   x29
0A14C:  MOVLW  37
0A14E:  MOVWF  x2A
0A150:  MOVLW  02
0A152:  MOVWF  x2B
0A154:  MOVLW  01
0A156:  MOVWF  x2C
0A158:  MOVLB  0
0A15A:  CALL   22A8
....................                            if(!Ciclo){ 
0A15E:  MOVLB  4
0A160:  BTFSC  x5F.3
0A162:  BRA    A1E8
....................                               Ciclo=ON; 
0A164:  BSF    x5F.3
....................                               Ciclos++; 
0A166:  MOVLB  6
0A168:  INCF   xEF,F
0A16A:  BTFSC  FD8.2
0A16C:  INCF   xF0,F
....................                               CiclosL=make8(Ciclos,0); 
0A16E:  MOVFF  6EF,6DB
....................                               CiclosH=make8(Ciclos,1); 
0A172:  MOVFF  6F0,6DC
....................                               write_eeprom(37,CiclosL); 
0A176:  CLRF   FAA
0A178:  MOVLW  25
0A17A:  MOVWF  FA9
0A17C:  MOVFF  6DB,FA8
0A180:  BCF    FA6.6
0A182:  BCF    FA6.7
0A184:  BSF    FA6.2
0A186:  MOVF   FF2,W
0A188:  MOVWF  00
0A18A:  BCF    FF2.7
0A18C:  MOVLB  F
0A18E:  MOVLW  55
0A190:  MOVWF  FA7
0A192:  MOVLW  AA
0A194:  MOVWF  FA7
0A196:  BSF    FA6.1
0A198:  BTFSC  FA6.1
0A19A:  BRA    A198
0A19C:  BCF    FA6.2
0A19E:  MOVF   00,W
0A1A0:  IORWF  FF2,F
....................                               delay_ms(20); 
0A1A2:  MOVLW  14
0A1A4:  MOVLB  7
0A1A6:  MOVWF  x2D
0A1A8:  MOVLB  0
0A1AA:  CALL   1796
....................                               write_eeprom(38,CiclosH); 
0A1AE:  CLRF   FAA
0A1B0:  MOVLW  26
0A1B2:  MOVWF  FA9
0A1B4:  MOVFF  6DC,FA8
0A1B8:  BCF    FA6.6
0A1BA:  BCF    FA6.7
0A1BC:  BSF    FA6.2
0A1BE:  MOVF   FF2,W
0A1C0:  MOVWF  00
0A1C2:  BCF    FF2.7
0A1C4:  MOVLB  F
0A1C6:  MOVLW  55
0A1C8:  MOVWF  FA7
0A1CA:  MOVLW  AA
0A1CC:  MOVWF  FA7
0A1CE:  BSF    FA6.1
0A1D0:  BTFSC  FA6.1
0A1D2:  BRA    A1D0
0A1D4:  BCF    FA6.2
0A1D6:  MOVF   00,W
0A1D8:  IORWF  FF2,F
....................                               delay_ms(20); 
0A1DA:  MOVLW  14
0A1DC:  MOVLB  7
0A1DE:  MOVWF  x2D
0A1E0:  MOVLB  0
0A1E2:  CALL   1796
0A1E6:  MOVLB  4
0A1E8:  MOVLB  6
....................                            } 
....................                         } 
....................                      }else{ 
0A1EA:  BRA    A256
....................                         Desfogando=ON; 
0A1EC:  MOVLB  4
0A1EE:  BSF    x5E.4
....................                         DesfogueSuave=ON; 
0A1F0:  BSF    x5E.5
....................                         CuadroEsterilizando(OFF); 
0A1F2:  MOVLB  7
0A1F4:  CLRF   x27
0A1F6:  MOVLB  0
0A1F8:  CALL   40F2
....................                         CuadroDesfogando(ON); 
0A1FC:  MOVLW  01
0A1FE:  MOVLB  7
0A200:  MOVWF  x27
0A202:  MOVLB  0
0A204:  CALL   409E
....................                         BorraStatus(); 
0A208:  CALL   4080
....................                         strcpy(Menus.Letra,"Despresurizando");displayMenu(Menus.Letra,0,55,2,1); 
0A20C:  MOVLW  07
0A20E:  MOVWF  FEA
0A210:  MOVLW  03
0A212:  MOVWF  FE9
0A214:  MOVFF  FF2,727
0A218:  BCF    FF2.7
0A21A:  MOVLW  00
0A21C:  CALL   1240
0A220:  TBLRD*-
0A222:  TBLRD*+
0A224:  MOVF   FF5,W
0A226:  MOVWF  FEE
0A228:  IORLW  00
0A22A:  BNZ   A222
0A22C:  MOVLB  7
0A22E:  BTFSC  x27.7
0A230:  BSF    FF2.7
0A232:  MOVLW  07
0A234:  MOVWF  x28
0A236:  MOVLW  03
0A238:  MOVWF  x27
0A23A:  CLRF   x29
0A23C:  MOVLW  37
0A23E:  MOVWF  x2A
0A240:  MOVLW  02
0A242:  MOVWF  x2B
0A244:  MOVLW  01
0A246:  MOVWF  x2C
0A248:  MOVLB  0
0A24A:  CALL   22A8
....................                         Control=0; 
0A24E:  MOVLB  6
0A250:  CLRF   xD7
....................                         SSR_off; 
0A252:  BSF    F8B.2
0A254:  BCF    F94.2
....................                      } 
....................                   }else{ 
0A256:  BRA    A476
....................                      SSR_off; 
0A258:  BSF    F8B.2
0A25A:  BCF    F94.2
....................                      Control=0; 
0A25C:  CLRF   xD7
....................                      if(PresionCamara<2){ 
0A25E:  MOVF   xEC,F
0A260:  BTFSS  FD8.2
0A262:  BRA    A40A
0A264:  MOVF   xEB,W
0A266:  SUBLW  01
0A268:  BTFSS  FD8.0
0A26A:  BRA    A40A
....................                         if((Tsecado[0]>=Tsecadop[0])&&(Tsecado[1]>=Tsecadop[1])&&(Tsecado[2]>=Tsecadop[2])&&(Tsecado[3]>=Tsecadop[3])){ 
0A26C:  MOVLB  4
0A26E:  MOVF   x72,W
0A270:  XORLW  80
0A272:  MOVWF  00
0A274:  MOVF   x6E,W
0A276:  XORLW  80
0A278:  SUBWF  00,W
0A27A:  BZ    A280
0A27C:  BTFSC  FD8.0
0A27E:  BRA    A3AE
0A280:  MOVF   x73,W
0A282:  XORLW  80
0A284:  MOVWF  00
0A286:  MOVF   x6F,W
0A288:  XORLW  80
0A28A:  SUBWF  00,W
0A28C:  BZ    A292
0A28E:  BTFSC  FD8.0
0A290:  BRA    A3AE
0A292:  MOVF   x74,W
0A294:  XORLW  80
0A296:  MOVWF  00
0A298:  MOVF   x70,W
0A29A:  XORLW  80
0A29C:  SUBWF  00,W
0A29E:  BZ    A2A4
0A2A0:  BTFSC  FD8.0
0A2A2:  BRA    A3AE
0A2A4:  MOVF   x75,W
0A2A6:  XORLW  80
0A2A8:  MOVWF  00
0A2AA:  MOVF   x71,W
0A2AC:  XORLW  80
0A2AE:  SUBWF  00,W
0A2B0:  BZ    A2B6
0A2B2:  BTFSC  FD8.0
0A2B4:  BRA    A3AE
....................                            Secando=OFF; 
0A2B6:  BCF    x5E.2
....................                            CuadroDesfogando(OFF); 
0A2B8:  MOVLB  7
0A2BA:  CLRF   x27
0A2BC:  MOVLB  0
0A2BE:  CALL   409E
....................                            BorraStatus(); 
0A2C2:  CALL   4080
....................                            Desfogue_off; 
0A2C6:  BSF    F8B.5
0A2C8:  BCF    F94.5
....................                            strcpy(Menus.Letra,"Ciclo Finalizado");displayMenu(Menus.Letra,0,55,2,1); 
0A2CA:  MOVLW  07
0A2CC:  MOVWF  FEA
0A2CE:  MOVLW  03
0A2D0:  MOVWF  FE9
0A2D2:  MOVFF  FF2,727
0A2D6:  BCF    FF2.7
0A2D8:  MOVLW  00
0A2DA:  CALL   1210
0A2DE:  TBLRD*-
0A2E0:  TBLRD*+
0A2E2:  MOVF   FF5,W
0A2E4:  MOVWF  FEE
0A2E6:  IORLW  00
0A2E8:  BNZ   A2E0
0A2EA:  MOVLB  7
0A2EC:  BTFSC  x27.7
0A2EE:  BSF    FF2.7
0A2F0:  MOVLW  07
0A2F2:  MOVWF  x28
0A2F4:  MOVLW  03
0A2F6:  MOVWF  x27
0A2F8:  CLRF   x29
0A2FA:  MOVLW  37
0A2FC:  MOVWF  x2A
0A2FE:  MOVLW  02
0A300:  MOVWF  x2B
0A302:  MOVLW  01
0A304:  MOVWF  x2C
0A306:  MOVLB  0
0A308:  CALL   22A8
....................                            if(!Ciclo){ 
0A30C:  MOVLB  4
0A30E:  BTFSC  x5F.3
0A310:  BRA    A394
....................                               Ciclo=ON; 
0A312:  BSF    x5F.3
....................                               Ciclos++; 
0A314:  MOVLB  6
0A316:  INCF   xEF,F
0A318:  BTFSC  FD8.2
0A31A:  INCF   xF0,F
....................                               CiclosL=make8(Ciclos,0); 
0A31C:  MOVFF  6EF,6DB
....................                               CiclosH=make8(Ciclos,1); 
0A320:  MOVFF  6F0,6DC
....................                               write_eeprom(37,CiclosL); 
0A324:  CLRF   FAA
0A326:  MOVLW  25
0A328:  MOVWF  FA9
0A32A:  MOVFF  6DB,FA8
0A32E:  BCF    FA6.6
0A330:  BCF    FA6.7
0A332:  BSF    FA6.2
0A334:  MOVF   FF2,W
0A336:  MOVWF  00
0A338:  BCF    FF2.7
0A33A:  MOVLB  F
0A33C:  MOVLW  55
0A33E:  MOVWF  FA7
0A340:  MOVLW  AA
0A342:  MOVWF  FA7
0A344:  BSF    FA6.1
0A346:  BTFSC  FA6.1
0A348:  BRA    A346
0A34A:  BCF    FA6.2
0A34C:  MOVF   00,W
0A34E:  IORWF  FF2,F
....................                               delay_ms(20); 
0A350:  MOVLW  14
0A352:  MOVLB  7
0A354:  MOVWF  x2D
0A356:  MOVLB  0
0A358:  CALL   1796
....................                               write_eeprom(38,CiclosH); 
0A35C:  CLRF   FAA
0A35E:  MOVLW  26
0A360:  MOVWF  FA9
0A362:  MOVFF  6DC,FA8
0A366:  BCF    FA6.6
0A368:  BCF    FA6.7
0A36A:  BSF    FA6.2
0A36C:  MOVF   FF2,W
0A36E:  MOVWF  00
0A370:  BCF    FF2.7
0A372:  MOVLB  F
0A374:  MOVLW  55
0A376:  MOVWF  FA7
0A378:  MOVLW  AA
0A37A:  MOVWF  FA7
0A37C:  BSF    FA6.1
0A37E:  BTFSC  FA6.1
0A380:  BRA    A37E
0A382:  BCF    FA6.2
0A384:  MOVF   00,W
0A386:  IORWF  FF2,F
....................                               delay_ms(20); 
0A388:  MOVLW  14
0A38A:  MOVLB  7
0A38C:  MOVWF  x2D
0A38E:  MOVLB  0
0A390:  CALL   1796
....................                            } 
....................                            delay_ms(2000); 
0A394:  MOVLW  08
0A396:  MOVLB  7
0A398:  MOVWF  x27
0A39A:  MOVLW  FA
0A39C:  MOVWF  x2D
0A39E:  MOVLB  0
0A3A0:  CALL   1796
0A3A4:  MOVLB  7
0A3A6:  DECFSZ x27,F
0A3A8:  BRA    A39A
....................                         }else{ 
0A3AA:  BRA    A406
0A3AC:  MOVLB  4
....................                            Desfogue_on; 
0A3AE:  BCF    F8B.5
0A3B0:  BCF    F94.5
....................                            Secando=ON; 
0A3B2:  BSF    x5E.2
....................                            CuadroDesfogando(OFF); 
0A3B4:  MOVLB  7
0A3B6:  CLRF   x27
0A3B8:  MOVLB  0
0A3BA:  CALL   409E
....................                            BorraStatus(); 
0A3BE:  CALL   4080
....................                            strcpy(Menus.Letra,"Secando");displayMenu(Menus.Letra,0,55,2,1); 
0A3C2:  MOVLW  07
0A3C4:  MOVWF  FEA
0A3C6:  MOVLW  03
0A3C8:  MOVWF  FE9
0A3CA:  MOVFF  FF2,727
0A3CE:  BCF    FF2.7
0A3D0:  MOVLW  00
0A3D2:  CALL   126E
0A3D6:  TBLRD*-
0A3D8:  TBLRD*+
0A3DA:  MOVF   FF5,W
0A3DC:  MOVWF  FEE
0A3DE:  IORLW  00
0A3E0:  BNZ   A3D8
0A3E2:  MOVLB  7
0A3E4:  BTFSC  x27.7
0A3E6:  BSF    FF2.7
0A3E8:  MOVLW  07
0A3EA:  MOVWF  x28
0A3EC:  MOVLW  03
0A3EE:  MOVWF  x27
0A3F0:  CLRF   x29
0A3F2:  MOVLW  37
0A3F4:  MOVWF  x2A
0A3F6:  MOVLW  02
0A3F8:  MOVWF  x2B
0A3FA:  MOVLW  01
0A3FC:  MOVWF  x2C
0A3FE:  MOVLB  0
0A400:  CALL   22A8
0A404:  MOVLB  7
....................                         } 
....................                      }else{ 
0A406:  BRA    A478
0A408:  MOVLB  6
....................                         Desfogando=ON; 
0A40A:  MOVLB  4
0A40C:  BSF    x5E.4
....................                         CuadroEsterilizando(OFF); 
0A40E:  MOVLB  7
0A410:  CLRF   x27
0A412:  MOVLB  0
0A414:  CALL   40F2
....................                         CuadroDesfogando(ON); 
0A418:  MOVLW  01
0A41A:  MOVLB  7
0A41C:  MOVWF  x27
0A41E:  MOVLB  0
0A420:  CALL   409E
....................                         BorraStatus(); 
0A424:  CALL   4080
....................                         strcpy(Menus.Letra,"Despresurizando");displayMenu(Menus.Letra,0,55,2,1); 
0A428:  MOVLW  07
0A42A:  MOVWF  FEA
0A42C:  MOVLW  03
0A42E:  MOVWF  FE9
0A430:  MOVFF  FF2,727
0A434:  BCF    FF2.7
0A436:  MOVLW  00
0A438:  CALL   1240
0A43C:  TBLRD*-
0A43E:  TBLRD*+
0A440:  MOVF   FF5,W
0A442:  MOVWF  FEE
0A444:  IORLW  00
0A446:  BNZ   A43E
0A448:  MOVLB  7
0A44A:  BTFSC  x27.7
0A44C:  BSF    FF2.7
0A44E:  MOVLW  07
0A450:  MOVWF  x28
0A452:  MOVLW  03
0A454:  MOVWF  x27
0A456:  CLRF   x29
0A458:  MOVLW  37
0A45A:  MOVWF  x2A
0A45C:  MOVLW  02
0A45E:  MOVWF  x2B
0A460:  MOVLW  01
0A462:  MOVWF  x2C
0A464:  MOVLB  0
0A466:  CALL   22A8
....................                         Control=0; 
0A46A:  MOVLB  6
0A46C:  CLRF   xD7
....................                         SSR_off; 
0A46E:  BSF    F8B.2
0A470:  BCF    F94.2
....................                         Desfogue_on; 
0A472:  BCF    F8B.5
0A474:  BCF    F94.5
0A476:  MOVLB  7
....................                      } 
....................                   } 
....................                    
....................                }else{ 
0A478:  BRA    A4E6
0A47A:  MOVLB  4
....................                   CuadroCalentando(OFF); 
0A47C:  MOVLB  7
0A47E:  CLRF   x27
0A480:  MOVLB  0
0A482:  CALL   3814
....................                   CuadroEsterilizando(ON); 
0A486:  MOVLW  01
0A488:  MOVLB  7
0A48A:  MOVWF  x27
0A48C:  MOVLB  0
0A48E:  CALL   40F2
....................                   BorraStatus(); 
0A492:  CALL   4080
....................                   strcpy(Menus.Letra,"Esterilizando");displayMenu(Menus.Letra,0,55,2,1); 
0A496:  MOVLW  07
0A498:  MOVWF  FEA
0A49A:  MOVLW  03
0A49C:  MOVWF  FE9
0A49E:  MOVFF  FF2,727
0A4A2:  BCF    FF2.7
0A4A4:  MOVLW  00
0A4A6:  CALL   1294
0A4AA:  TBLRD*-
0A4AC:  TBLRD*+
0A4AE:  MOVF   FF5,W
0A4B0:  MOVWF  FEE
0A4B2:  IORLW  00
0A4B4:  BNZ   A4AC
0A4B6:  MOVLB  7
0A4B8:  BTFSC  x27.7
0A4BA:  BSF    FF2.7
0A4BC:  MOVLW  07
0A4BE:  MOVWF  x28
0A4C0:  MOVLW  03
0A4C2:  MOVWF  x27
0A4C4:  CLRF   x29
0A4C6:  MOVLW  37
0A4C8:  MOVWF  x2A
0A4CA:  MOVLW  02
0A4CC:  MOVWF  x2B
0A4CE:  MOVLW  01
0A4D0:  MOVWF  x2C
0A4D2:  MOVLB  0
0A4D4:  CALL   22A8
....................                   Control=1; 
0A4D8:  MOVLW  01
0A4DA:  MOVLB  6
0A4DC:  MOVWF  xD7
....................                   Controla(); 
0A4DE:  MOVLB  0
0A4E0:  CALL   4146
0A4E4:  MOVLB  7
0A4E6:  MOVLB  6
....................                } 
....................             } 
....................              
....................          } 
....................    } 
....................  
....................    if(Lectura==1)// Utilizado para visualizar la lectura de la temperatura 
0A4E8:  MOVLB  6
0A4EA:  BTFSS  xD6.4
0A4EC:  BRA    A7EC
....................    {                       
....................       Lectura=0; 
0A4EE:  BCF    xD6.4
....................       displayT(PresionCamara,31,35,1); 
0A4F0:  MOVFF  6EC,72E
0A4F4:  MOVFF  6EB,72D
0A4F8:  MOVLB  0
0A4FA:  CALL   17BE
0A4FE:  MOVFF  00,727
0A502:  MOVFF  01,728
0A506:  MOVFF  02,729
0A50A:  MOVFF  03,72A
0A50E:  MOVFF  03,72E
0A512:  MOVFF  02,72D
0A516:  MOVFF  01,72C
0A51A:  MOVFF  00,72B
0A51E:  MOVLW  1F
0A520:  MOVLB  7
0A522:  MOVWF  x2F
0A524:  MOVLW  23
0A526:  MOVWF  x30
0A528:  MOVLW  01
0A52A:  MOVWF  x31
0A52C:  MOVLB  0
0A52E:  GOTO   4794
....................       //displayT(PresionPreCamara,31,44,1); 
....................       glcd_rect(51, 35, 62, 48, YES, OFF);glcd_text57(52, 35, kpa, 1, ON); 
0A532:  MOVLW  33
0A534:  MOVLB  7
0A536:  MOVWF  x3D
0A538:  MOVLW  23
0A53A:  MOVWF  x3E
0A53C:  MOVLW  3E
0A53E:  MOVWF  x3F
0A540:  MOVLW  30
0A542:  MOVWF  x40
0A544:  MOVLW  01
0A546:  MOVWF  x41
0A548:  CLRF   x42
0A54A:  MOVLB  0
0A54C:  CALL   21E6
0A550:  MOVLW  34
0A552:  MOVLB  7
0A554:  MOVWF  x3B
0A556:  MOVLW  23
0A558:  MOVWF  x3C
0A55A:  MOVLW  06
0A55C:  MOVWF  x3E
0A55E:  MOVLW  D2
0A560:  MOVWF  x3D
0A562:  MOVLW  01
0A564:  MOVWF  x3F
0A566:  MOVWF  x40
0A568:  MOVLB  0
0A56A:  CALL   1EF0
....................       //glcd_rect(51, 44, 62, 48, YES, OFF);glcd_text57(52, 44, kpa, 1, ON); 
....................       displayTT(Temperatura,69,20,2); 
0A56E:  MOVFF  6BF,72A
0A572:  MOVFF  6BE,729
0A576:  MOVFF  6BD,728
0A57A:  MOVFF  6BC,727
0A57E:  MOVLW  45
0A580:  MOVLB  7
0A582:  MOVWF  x2B
0A584:  MOVLW  14
0A586:  MOVWF  x2C
0A588:  MOVLW  02
0A58A:  MOVWF  x2D
0A58C:  MOVLB  0
0A58E:  CALL   480C
....................       glcd_circle(95,40,2,NO,ON); 
0A592:  MOVLW  5F
0A594:  MOVLB  7
0A596:  MOVWF  x27
0A598:  MOVLW  28
0A59A:  MOVWF  x28
0A59C:  MOVLW  02
0A59E:  MOVWF  x29
0A5A0:  CLRF   x2A
0A5A2:  MOVLW  01
0A5A4:  MOVWF  x2B
0A5A6:  MOVLB  0
0A5A8:  CALL   3D16
....................       strcpy(Menus.Letra,"C");displayMenu(Menus.Letra,102,40,2,2); 
0A5AC:  MOVLW  07
0A5AE:  MOVWF  FEA
0A5B0:  MOVLW  03
0A5B2:  MOVWF  FE9
0A5B4:  MOVFF  FF2,727
0A5B8:  BCF    FF2.7
0A5BA:  MOVLW  00
0A5BC:  CALL   107E
0A5C0:  TBLRD*-
0A5C2:  TBLRD*+
0A5C4:  MOVF   FF5,W
0A5C6:  MOVWF  FEE
0A5C8:  IORLW  00
0A5CA:  BNZ   A5C2
0A5CC:  MOVLB  7
0A5CE:  BTFSC  x27.7
0A5D0:  BSF    FF2.7
0A5D2:  MOVLW  07
0A5D4:  MOVWF  x28
0A5D6:  MOVLW  03
0A5D8:  MOVWF  x27
0A5DA:  MOVLW  66
0A5DC:  MOVWF  x29
0A5DE:  MOVLW  28
0A5E0:  MOVWF  x2A
0A5E2:  MOVLW  02
0A5E4:  MOVWF  x2B
0A5E6:  MOVWF  x2C
0A5E8:  MOVLB  0
0A5EA:  CALL   22A8
....................       displayTiempo(Setpoint,5,20,2,1); 
0A5EE:  MOVFF  6DD,727
0A5F2:  MOVLW  05
0A5F4:  MOVLB  7
0A5F6:  MOVWF  x28
0A5F8:  MOVLW  14
0A5FA:  MOVWF  x29
0A5FC:  MOVLW  02
0A5FE:  MOVWF  x2A
0A600:  MOVLW  01
0A602:  MOVWF  x2B
0A604:  MOVLB  0
0A606:  CALL   3B78
....................  
....................       glcd_imagen(5); 
0A60A:  MOVLW  05
0A60C:  MOVLB  7
0A60E:  MOVWF  x27
0A610:  MOVLB  0
0A612:  CALL   3764
....................       strcpy(Menus.Letra,"T est:");displayMenu(Menus.Letra,0,0,2,1); 
0A616:  MOVLW  07
0A618:  MOVWF  FEA
0A61A:  MOVLW  03
0A61C:  MOVWF  FE9
0A61E:  MOVFF  FF2,727
0A622:  BCF    FF2.7
0A624:  MOVLW  00
0A626:  CALL   1032
0A62A:  TBLRD*-
0A62C:  TBLRD*+
0A62E:  MOVF   FF5,W
0A630:  MOVWF  FEE
0A632:  IORLW  00
0A634:  BNZ   A62C
0A636:  MOVLB  7
0A638:  BTFSC  x27.7
0A63A:  BSF    FF2.7
0A63C:  MOVLW  07
0A63E:  MOVWF  x28
0A640:  MOVLW  03
0A642:  MOVWF  x27
0A644:  CLRF   x29
0A646:  CLRF   x2A
0A648:  MOVLW  02
0A64A:  MOVWF  x2B
0A64C:  MOVLW  01
0A64E:  MOVWF  x2C
0A650:  MOVLB  0
0A652:  CALL   22A8
....................       strcpy(Menus.Letra,"T sec:");displayMenu(Menus.Letra,0,8,2,1); 
0A656:  MOVLW  07
0A658:  MOVWF  FEA
0A65A:  MOVLW  03
0A65C:  MOVWF  FE9
0A65E:  MOVFF  FF2,727
0A662:  BCF    FF2.7
0A664:  MOVLW  00
0A666:  CALL   1058
0A66A:  TBLRD*-
0A66C:  TBLRD*+
0A66E:  MOVF   FF5,W
0A670:  MOVWF  FEE
0A672:  IORLW  00
0A674:  BNZ   A66C
0A676:  MOVLB  7
0A678:  BTFSC  x27.7
0A67A:  BSF    FF2.7
0A67C:  MOVLW  07
0A67E:  MOVWF  x28
0A680:  MOVLW  03
0A682:  MOVWF  x27
0A684:  CLRF   x29
0A686:  MOVLW  08
0A688:  MOVWF  x2A
0A68A:  MOVLW  02
0A68C:  MOVWF  x2B
0A68E:  MOVLW  01
0A690:  MOVWF  x2C
0A692:  MOVLB  0
0A694:  CALL   22A8
....................       MuestraTiemposProgramados(); 
0A698:  CALL   3F40
....................       // Muestra Valor de esterilizacion actual. 
....................       displayTiempo(Testerilizacion[3],80,0,0,1);displayTiempo(Testerilizacion[2],86,0,0,1); 
0A69C:  MOVFF  469,727
0A6A0:  MOVLW  50
0A6A2:  MOVLB  7
0A6A4:  MOVWF  x28
0A6A6:  CLRF   x29
0A6A8:  CLRF   x2A
0A6AA:  MOVLW  01
0A6AC:  MOVWF  x2B
0A6AE:  MOVLB  0
0A6B0:  CALL   3B78
0A6B4:  MOVFF  468,727
0A6B8:  MOVLW  56
0A6BA:  MOVLB  7
0A6BC:  MOVWF  x28
0A6BE:  CLRF   x29
0A6C0:  CLRF   x2A
0A6C2:  MOVLW  01
0A6C4:  MOVWF  x2B
0A6C6:  MOVLB  0
0A6C8:  CALL   3B78
....................       strcpy(Menus.Letra,":");displayMenu(Menus.Letra,92,0,2,1);  
0A6CC:  MOVLW  07
0A6CE:  MOVWF  FEA
0A6D0:  MOVLW  03
0A6D2:  MOVWF  FE9
0A6D4:  MOVFF  FF2,727
0A6D8:  BCF    FF2.7
0A6DA:  MOVLW  00
0A6DC:  CALL   06DE
0A6E0:  TBLRD*-
0A6E2:  TBLRD*+
0A6E4:  MOVF   FF5,W
0A6E6:  MOVWF  FEE
0A6E8:  IORLW  00
0A6EA:  BNZ   A6E2
0A6EC:  MOVLB  7
0A6EE:  BTFSC  x27.7
0A6F0:  BSF    FF2.7
0A6F2:  MOVLW  07
0A6F4:  MOVWF  x28
0A6F6:  MOVLW  03
0A6F8:  MOVWF  x27
0A6FA:  MOVLW  5C
0A6FC:  MOVWF  x29
0A6FE:  CLRF   x2A
0A700:  MOVLW  02
0A702:  MOVWF  x2B
0A704:  MOVLW  01
0A706:  MOVWF  x2C
0A708:  MOVLB  0
0A70A:  CALL   22A8
....................       displayTiempo(Testerilizacion[1],98,0,0,1);displayTiempo(Testerilizacion[0],104,0,0,1); 
0A70E:  MOVFF  467,727
0A712:  MOVLW  62
0A714:  MOVLB  7
0A716:  MOVWF  x28
0A718:  CLRF   x29
0A71A:  CLRF   x2A
0A71C:  MOVLW  01
0A71E:  MOVWF  x2B
0A720:  MOVLB  0
0A722:  CALL   3B78
0A726:  MOVFF  466,727
0A72A:  MOVLW  68
0A72C:  MOVLB  7
0A72E:  MOVWF  x28
0A730:  CLRF   x29
0A732:  CLRF   x2A
0A734:  MOVLW  01
0A736:  MOVWF  x2B
0A738:  MOVLB  0
0A73A:  CALL   3B78
....................       // Muestra tiempo de secado actual. 
....................       displayTiempo(Tsecado[3],80,8,0,1);displayTiempo(Tsecado[2],86,8,0,1); 
0A73E:  MOVFF  471,727
0A742:  MOVLW  50
0A744:  MOVLB  7
0A746:  MOVWF  x28
0A748:  MOVLW  08
0A74A:  MOVWF  x29
0A74C:  CLRF   x2A
0A74E:  MOVLW  01
0A750:  MOVWF  x2B
0A752:  MOVLB  0
0A754:  CALL   3B78
0A758:  MOVFF  470,727
0A75C:  MOVLW  56
0A75E:  MOVLB  7
0A760:  MOVWF  x28
0A762:  MOVLW  08
0A764:  MOVWF  x29
0A766:  CLRF   x2A
0A768:  MOVLW  01
0A76A:  MOVWF  x2B
0A76C:  MOVLB  0
0A76E:  CALL   3B78
....................       strcpy(Menus.Letra,":");displayMenu(Menus.Letra,92,8,2,1);  
0A772:  MOVLW  07
0A774:  MOVWF  FEA
0A776:  MOVLW  03
0A778:  MOVWF  FE9
0A77A:  MOVFF  FF2,727
0A77E:  BCF    FF2.7
0A780:  MOVLW  00
0A782:  CALL   06DE
0A786:  TBLRD*-
0A788:  TBLRD*+
0A78A:  MOVF   FF5,W
0A78C:  MOVWF  FEE
0A78E:  IORLW  00
0A790:  BNZ   A788
0A792:  MOVLB  7
0A794:  BTFSC  x27.7
0A796:  BSF    FF2.7
0A798:  MOVLW  07
0A79A:  MOVWF  x28
0A79C:  MOVLW  03
0A79E:  MOVWF  x27
0A7A0:  MOVLW  5C
0A7A2:  MOVWF  x29
0A7A4:  MOVLW  08
0A7A6:  MOVWF  x2A
0A7A8:  MOVLW  02
0A7AA:  MOVWF  x2B
0A7AC:  MOVLW  01
0A7AE:  MOVWF  x2C
0A7B0:  MOVLB  0
0A7B2:  CALL   22A8
....................       displayTiempo(Tsecado[1],98,8,0,1);displayTiempo(Tsecado[0],104,8,0,1); 
0A7B6:  MOVFF  46F,727
0A7BA:  MOVLW  62
0A7BC:  MOVLB  7
0A7BE:  MOVWF  x28
0A7C0:  MOVLW  08
0A7C2:  MOVWF  x29
0A7C4:  CLRF   x2A
0A7C6:  MOVLW  01
0A7C8:  MOVWF  x2B
0A7CA:  MOVLB  0
0A7CC:  CALL   3B78
0A7D0:  MOVFF  46E,727
0A7D4:  MOVLW  68
0A7D6:  MOVLB  7
0A7D8:  MOVWF  x28
0A7DA:  MOVLW  08
0A7DC:  MOVWF  x29
0A7DE:  CLRF   x2A
0A7E0:  MOVLW  01
0A7E2:  MOVWF  x2B
0A7E4:  MOVLB  0
0A7E6:  CALL   3B78
0A7EA:  MOVLB  6
....................    } 
.................... } 
.................... //_-------------------------------------------------------------------------------------------------------------------------------------------------------- 
....................        
.................... //_-------------------------------------------------------------------------------------------------------------------------------------------------------- 
....................       if(Menu==100){ //Menu de Configuracin de Parametros de Control 
0A7EC:  MOVF   xD8,W
0A7EE:  SUBLW  64
0A7F0:  BTFSS  FD8.2
0A7F2:  GOTO   AF4C
....................        
....................       if(Opcion>11) 
0A7F6:  MOVF   xDE,W
0A7F8:  SUBLW  0B
0A7FA:  BC    A800
....................       {Opcion=1;} 
0A7FC:  MOVLW  01
0A7FE:  MOVWF  xDE
....................       if(Opcion<1) 
0A800:  MOVF   xDE,F
0A802:  BNZ   A808
....................       {Opcion=11;} 
0A804:  MOVLW  0B
0A806:  MOVWF  xDE
....................        
....................       if(Opcion<=6){ 
0A808:  MOVF   xDE,W
0A80A:  SUBLW  06
0A80C:  BTFSS  FD8.0
0A80E:  BRA    AB6C
....................          if(Opcion==1)    
0A810:  DECFSZ xDE,W
0A812:  BRA    A858
....................             {strcpy(Menus.Letra,"Proporcional"); 
0A814:  MOVLW  07
0A816:  MOVWF  FEA
0A818:  MOVLW  03
0A81A:  MOVWF  FE9
0A81C:  MOVFF  FF2,727
0A820:  BCF    FF2.7
0A822:  MOVLW  00
0A824:  MOVLB  0
0A826:  CALL   12C0
0A82A:  TBLRD*-
0A82C:  TBLRD*+
0A82E:  MOVF   FF5,W
0A830:  MOVWF  FEE
0A832:  IORLW  00
0A834:  BNZ   A82C
0A836:  MOVLB  7
0A838:  BTFSC  x27.7
0A83A:  BSF    FF2.7
....................             displayMenu(Menus.Letra,0,0,1,1);} 
0A83C:  MOVLW  07
0A83E:  MOVWF  x28
0A840:  MOVLW  03
0A842:  MOVWF  x27
0A844:  CLRF   x29
0A846:  CLRF   x2A
0A848:  MOVLW  01
0A84A:  MOVWF  x2B
0A84C:  MOVWF  x2C
0A84E:  MOVLB  0
0A850:  CALL   22A8
....................          else 
0A854:  BRA    A898
0A856:  MOVLB  6
....................             {strcpy(Menus.Letra,"Proporcional"); 
0A858:  MOVLW  07
0A85A:  MOVWF  FEA
0A85C:  MOVLW  03
0A85E:  MOVWF  FE9
0A860:  MOVFF  FF2,727
0A864:  BCF    FF2.7
0A866:  MOVLW  00
0A868:  MOVLB  0
0A86A:  CALL   12C0
0A86E:  TBLRD*-
0A870:  TBLRD*+
0A872:  MOVF   FF5,W
0A874:  MOVWF  FEE
0A876:  IORLW  00
0A878:  BNZ   A870
0A87A:  MOVLB  7
0A87C:  BTFSC  x27.7
0A87E:  BSF    FF2.7
....................             displayMenu(Menus.Letra,0,0,0,1);} 
0A880:  MOVLW  07
0A882:  MOVWF  x28
0A884:  MOVLW  03
0A886:  MOVWF  x27
0A888:  CLRF   x29
0A88A:  CLRF   x2A
0A88C:  CLRF   x2B
0A88E:  MOVLW  01
0A890:  MOVWF  x2C
0A892:  MOVLB  0
0A894:  CALL   22A8
....................           
....................          if(Opcion==2)    
0A898:  MOVLB  6
0A89A:  MOVF   xDE,W
0A89C:  SUBLW  02
0A89E:  BNZ   A8E6
....................             {strcpy(Menus.Letra,"Integral"); 
0A8A0:  MOVLW  07
0A8A2:  MOVWF  FEA
0A8A4:  MOVLW  03
0A8A6:  MOVWF  FE9
0A8A8:  MOVFF  FF2,727
0A8AC:  BCF    FF2.7
0A8AE:  MOVLW  00
0A8B0:  MOVLB  0
0A8B2:  CALL   12EC
0A8B6:  TBLRD*-
0A8B8:  TBLRD*+
0A8BA:  MOVF   FF5,W
0A8BC:  MOVWF  FEE
0A8BE:  IORLW  00
0A8C0:  BNZ   A8B8
0A8C2:  MOVLB  7
0A8C4:  BTFSC  x27.7
0A8C6:  BSF    FF2.7
....................             displayMenu(Menus.Letra,0,9,1,1);} 
0A8C8:  MOVLW  07
0A8CA:  MOVWF  x28
0A8CC:  MOVLW  03
0A8CE:  MOVWF  x27
0A8D0:  CLRF   x29
0A8D2:  MOVLW  09
0A8D4:  MOVWF  x2A
0A8D6:  MOVLW  01
0A8D8:  MOVWF  x2B
0A8DA:  MOVWF  x2C
0A8DC:  MOVLB  0
0A8DE:  CALL   22A8
....................          else 
0A8E2:  BRA    A928
0A8E4:  MOVLB  6
....................             {strcpy(Menus.Letra,"Integral"); 
0A8E6:  MOVLW  07
0A8E8:  MOVWF  FEA
0A8EA:  MOVLW  03
0A8EC:  MOVWF  FE9
0A8EE:  MOVFF  FF2,727
0A8F2:  BCF    FF2.7
0A8F4:  MOVLW  00
0A8F6:  MOVLB  0
0A8F8:  CALL   12EC
0A8FC:  TBLRD*-
0A8FE:  TBLRD*+
0A900:  MOVF   FF5,W
0A902:  MOVWF  FEE
0A904:  IORLW  00
0A906:  BNZ   A8FE
0A908:  MOVLB  7
0A90A:  BTFSC  x27.7
0A90C:  BSF    FF2.7
....................             displayMenu(Menus.Letra,0,9,0,1);} 
0A90E:  MOVLW  07
0A910:  MOVWF  x28
0A912:  MOVLW  03
0A914:  MOVWF  x27
0A916:  CLRF   x29
0A918:  MOVLW  09
0A91A:  MOVWF  x2A
0A91C:  CLRF   x2B
0A91E:  MOVLW  01
0A920:  MOVWF  x2C
0A922:  MOVLB  0
0A924:  CALL   22A8
....................              
....................          if(Opcion==3)    
0A928:  MOVLB  6
0A92A:  MOVF   xDE,W
0A92C:  SUBLW  03
0A92E:  BNZ   A976
....................             {strcpy(Menus.Letra,"Derivativo"); 
0A930:  MOVLW  07
0A932:  MOVWF  FEA
0A934:  MOVLW  03
0A936:  MOVWF  FE9
0A938:  MOVFF  FF2,727
0A93C:  BCF    FF2.7
0A93E:  MOVLW  00
0A940:  MOVLB  0
0A942:  CALL   1314
0A946:  TBLRD*-
0A948:  TBLRD*+
0A94A:  MOVF   FF5,W
0A94C:  MOVWF  FEE
0A94E:  IORLW  00
0A950:  BNZ   A948
0A952:  MOVLB  7
0A954:  BTFSC  x27.7
0A956:  BSF    FF2.7
....................             displayMenu(Menus.Letra,0,18,1,1);} 
0A958:  MOVLW  07
0A95A:  MOVWF  x28
0A95C:  MOVLW  03
0A95E:  MOVWF  x27
0A960:  CLRF   x29
0A962:  MOVLW  12
0A964:  MOVWF  x2A
0A966:  MOVLW  01
0A968:  MOVWF  x2B
0A96A:  MOVWF  x2C
0A96C:  MOVLB  0
0A96E:  CALL   22A8
....................          else 
0A972:  BRA    A9B8
0A974:  MOVLB  6
....................             {strcpy(Menus.Letra,"Derivativo"); 
0A976:  MOVLW  07
0A978:  MOVWF  FEA
0A97A:  MOVLW  03
0A97C:  MOVWF  FE9
0A97E:  MOVFF  FF2,727
0A982:  BCF    FF2.7
0A984:  MOVLW  00
0A986:  MOVLB  0
0A988:  CALL   1314
0A98C:  TBLRD*-
0A98E:  TBLRD*+
0A990:  MOVF   FF5,W
0A992:  MOVWF  FEE
0A994:  IORLW  00
0A996:  BNZ   A98E
0A998:  MOVLB  7
0A99A:  BTFSC  x27.7
0A99C:  BSF    FF2.7
....................             displayMenu(Menus.Letra,0,18,0,1);}    
0A99E:  MOVLW  07
0A9A0:  MOVWF  x28
0A9A2:  MOVLW  03
0A9A4:  MOVWF  x27
0A9A6:  CLRF   x29
0A9A8:  MOVLW  12
0A9AA:  MOVWF  x2A
0A9AC:  CLRF   x2B
0A9AE:  MOVLW  01
0A9B0:  MOVWF  x2C
0A9B2:  MOVLB  0
0A9B4:  CALL   22A8
....................           
....................          if(Opcion==4)    
0A9B8:  MOVLB  6
0A9BA:  MOVF   xDE,W
0A9BC:  SUBLW  04
0A9BE:  BNZ   AA06
....................             {strcpy(Menus.Letra,"Tciclo"); 
0A9C0:  MOVLW  07
0A9C2:  MOVWF  FEA
0A9C4:  MOVLW  03
0A9C6:  MOVWF  FE9
0A9C8:  MOVFF  FF2,727
0A9CC:  BCF    FF2.7
0A9CE:  MOVLW  00
0A9D0:  MOVLB  0
0A9D2:  CALL   133E
0A9D6:  TBLRD*-
0A9D8:  TBLRD*+
0A9DA:  MOVF   FF5,W
0A9DC:  MOVWF  FEE
0A9DE:  IORLW  00
0A9E0:  BNZ   A9D8
0A9E2:  MOVLB  7
0A9E4:  BTFSC  x27.7
0A9E6:  BSF    FF2.7
....................             displayMenu(Menus.Letra,0,27,1,1);} 
0A9E8:  MOVLW  07
0A9EA:  MOVWF  x28
0A9EC:  MOVLW  03
0A9EE:  MOVWF  x27
0A9F0:  CLRF   x29
0A9F2:  MOVLW  1B
0A9F4:  MOVWF  x2A
0A9F6:  MOVLW  01
0A9F8:  MOVWF  x2B
0A9FA:  MOVWF  x2C
0A9FC:  MOVLB  0
0A9FE:  CALL   22A8
....................          else 
0AA02:  BRA    AA48
0AA04:  MOVLB  6
....................             {strcpy(Menus.Letra,"Tciclo"); 
0AA06:  MOVLW  07
0AA08:  MOVWF  FEA
0AA0A:  MOVLW  03
0AA0C:  MOVWF  FE9
0AA0E:  MOVFF  FF2,727
0AA12:  BCF    FF2.7
0AA14:  MOVLW  00
0AA16:  MOVLB  0
0AA18:  CALL   133E
0AA1C:  TBLRD*-
0AA1E:  TBLRD*+
0AA20:  MOVF   FF5,W
0AA22:  MOVWF  FEE
0AA24:  IORLW  00
0AA26:  BNZ   AA1E
0AA28:  MOVLB  7
0AA2A:  BTFSC  x27.7
0AA2C:  BSF    FF2.7
....................             displayMenu(Menus.Letra,0,27,0,1);} 
0AA2E:  MOVLW  07
0AA30:  MOVWF  x28
0AA32:  MOVLW  03
0AA34:  MOVWF  x27
0AA36:  CLRF   x29
0AA38:  MOVLW  1B
0AA3A:  MOVWF  x2A
0AA3C:  CLRF   x2B
0AA3E:  MOVLW  01
0AA40:  MOVWF  x2C
0AA42:  MOVLB  0
0AA44:  CALL   22A8
....................              
....................          if(Opcion==5)    
0AA48:  MOVLB  6
0AA4A:  MOVF   xDE,W
0AA4C:  SUBLW  05
0AA4E:  BNZ   AA96
....................             {strcpy(Menus.Letra,"Ajuste +"); 
0AA50:  MOVLW  07
0AA52:  MOVWF  FEA
0AA54:  MOVLW  03
0AA56:  MOVWF  FE9
0AA58:  MOVFF  FF2,727
0AA5C:  BCF    FF2.7
0AA5E:  MOVLW  00
0AA60:  MOVLB  0
0AA62:  CALL   1364
0AA66:  TBLRD*-
0AA68:  TBLRD*+
0AA6A:  MOVF   FF5,W
0AA6C:  MOVWF  FEE
0AA6E:  IORLW  00
0AA70:  BNZ   AA68
0AA72:  MOVLB  7
0AA74:  BTFSC  x27.7
0AA76:  BSF    FF2.7
....................             displayMenu(Menus.Letra,0,36,1,1);} 
0AA78:  MOVLW  07
0AA7A:  MOVWF  x28
0AA7C:  MOVLW  03
0AA7E:  MOVWF  x27
0AA80:  CLRF   x29
0AA82:  MOVLW  24
0AA84:  MOVWF  x2A
0AA86:  MOVLW  01
0AA88:  MOVWF  x2B
0AA8A:  MOVWF  x2C
0AA8C:  MOVLB  0
0AA8E:  CALL   22A8
....................          else 
0AA92:  BRA    AAD8
0AA94:  MOVLB  6
....................             {strcpy(Menus.Letra,"Ajuste +"); 
0AA96:  MOVLW  07
0AA98:  MOVWF  FEA
0AA9A:  MOVLW  03
0AA9C:  MOVWF  FE9
0AA9E:  MOVFF  FF2,727
0AAA2:  BCF    FF2.7
0AAA4:  MOVLW  00
0AAA6:  MOVLB  0
0AAA8:  CALL   1364
0AAAC:  TBLRD*-
0AAAE:  TBLRD*+
0AAB0:  MOVF   FF5,W
0AAB2:  MOVWF  FEE
0AAB4:  IORLW  00
0AAB6:  BNZ   AAAE
0AAB8:  MOVLB  7
0AABA:  BTFSC  x27.7
0AABC:  BSF    FF2.7
....................             displayMenu(Menus.Letra,0,36,0,1);}    
0AABE:  MOVLW  07
0AAC0:  MOVWF  x28
0AAC2:  MOVLW  03
0AAC4:  MOVWF  x27
0AAC6:  CLRF   x29
0AAC8:  MOVLW  24
0AACA:  MOVWF  x2A
0AACC:  CLRF   x2B
0AACE:  MOVLW  01
0AAD0:  MOVWF  x2C
0AAD2:  MOVLB  0
0AAD4:  CALL   22A8
....................                          
....................          if(Opcion==6)    
0AAD8:  MOVLB  6
0AADA:  MOVF   xDE,W
0AADC:  SUBLW  06
0AADE:  BNZ   AB26
....................             {strcpy(Menus.Letra,"Ajuste -"); 
0AAE0:  MOVLW  07
0AAE2:  MOVWF  FEA
0AAE4:  MOVLW  03
0AAE6:  MOVWF  FE9
0AAE8:  MOVFF  FF2,727
0AAEC:  BCF    FF2.7
0AAEE:  MOVLW  00
0AAF0:  MOVLB  0
0AAF2:  CALL   138C
0AAF6:  TBLRD*-
0AAF8:  TBLRD*+
0AAFA:  MOVF   FF5,W
0AAFC:  MOVWF  FEE
0AAFE:  IORLW  00
0AB00:  BNZ   AAF8
0AB02:  MOVLB  7
0AB04:  BTFSC  x27.7
0AB06:  BSF    FF2.7
....................             displayMenu(Menus.Letra,0,45,1,1);} 
0AB08:  MOVLW  07
0AB0A:  MOVWF  x28
0AB0C:  MOVLW  03
0AB0E:  MOVWF  x27
0AB10:  CLRF   x29
0AB12:  MOVLW  2D
0AB14:  MOVWF  x2A
0AB16:  MOVLW  01
0AB18:  MOVWF  x2B
0AB1A:  MOVWF  x2C
0AB1C:  MOVLB  0
0AB1E:  CALL   22A8
....................          else 
0AB22:  BRA    AB68
0AB24:  MOVLB  6
....................             {strcpy(Menus.Letra,"Ajuste -"); 
0AB26:  MOVLW  07
0AB28:  MOVWF  FEA
0AB2A:  MOVLW  03
0AB2C:  MOVWF  FE9
0AB2E:  MOVFF  FF2,727
0AB32:  BCF    FF2.7
0AB34:  MOVLW  00
0AB36:  MOVLB  0
0AB38:  CALL   138C
0AB3C:  TBLRD*-
0AB3E:  TBLRD*+
0AB40:  MOVF   FF5,W
0AB42:  MOVWF  FEE
0AB44:  IORLW  00
0AB46:  BNZ   AB3E
0AB48:  MOVLB  7
0AB4A:  BTFSC  x27.7
0AB4C:  BSF    FF2.7
....................             displayMenu(Menus.Letra,0,45,0,1);}      
0AB4E:  MOVLW  07
0AB50:  MOVWF  x28
0AB52:  MOVLW  03
0AB54:  MOVWF  x27
0AB56:  CLRF   x29
0AB58:  MOVLW  2D
0AB5A:  MOVWF  x2A
0AB5C:  CLRF   x2B
0AB5E:  MOVLW  01
0AB60:  MOVWF  x2C
0AB62:  MOVLB  0
0AB64:  CALL   22A8
....................       } 
....................       else{ 
0AB68:  BRA    AE76
0AB6A:  MOVLB  6
....................          if(Opcion==7)    
0AB6C:  MOVF   xDE,W
0AB6E:  SUBLW  07
0AB70:  BNZ   ABB6
....................             {strcpy(Menus.Letra,"Media Movil"); 
0AB72:  MOVLW  07
0AB74:  MOVWF  FEA
0AB76:  MOVLW  03
0AB78:  MOVWF  FE9
0AB7A:  MOVFF  FF2,727
0AB7E:  BCF    FF2.7
0AB80:  MOVLW  00
0AB82:  MOVLB  0
0AB84:  CALL   13B4
0AB88:  TBLRD*-
0AB8A:  TBLRD*+
0AB8C:  MOVF   FF5,W
0AB8E:  MOVWF  FEE
0AB90:  IORLW  00
0AB92:  BNZ   AB8A
0AB94:  MOVLB  7
0AB96:  BTFSC  x27.7
0AB98:  BSF    FF2.7
....................             displayMenu(Menus.Letra,0,0,1,1);} 
0AB9A:  MOVLW  07
0AB9C:  MOVWF  x28
0AB9E:  MOVLW  03
0ABA0:  MOVWF  x27
0ABA2:  CLRF   x29
0ABA4:  CLRF   x2A
0ABA6:  MOVLW  01
0ABA8:  MOVWF  x2B
0ABAA:  MOVWF  x2C
0ABAC:  MOVLB  0
0ABAE:  CALL   22A8
....................          else 
0ABB2:  BRA    ABF6
0ABB4:  MOVLB  6
....................             {strcpy(Menus.Letra,"Media Movil"); 
0ABB6:  MOVLW  07
0ABB8:  MOVWF  FEA
0ABBA:  MOVLW  03
0ABBC:  MOVWF  FE9
0ABBE:  MOVFF  FF2,727
0ABC2:  BCF    FF2.7
0ABC4:  MOVLW  00
0ABC6:  MOVLB  0
0ABC8:  CALL   13B4
0ABCC:  TBLRD*-
0ABCE:  TBLRD*+
0ABD0:  MOVF   FF5,W
0ABD2:  MOVWF  FEE
0ABD4:  IORLW  00
0ABD6:  BNZ   ABCE
0ABD8:  MOVLB  7
0ABDA:  BTFSC  x27.7
0ABDC:  BSF    FF2.7
....................             displayMenu(Menus.Letra,0,0,0,1);}      
0ABDE:  MOVLW  07
0ABE0:  MOVWF  x28
0ABE2:  MOVLW  03
0ABE4:  MOVWF  x27
0ABE6:  CLRF   x29
0ABE8:  CLRF   x2A
0ABEA:  CLRF   x2B
0ABEC:  MOVLW  01
0ABEE:  MOVWF  x2C
0ABF0:  MOVLB  0
0ABF2:  CALL   22A8
....................              
....................          if(Opcion==8)    
0ABF6:  MOVLB  6
0ABF8:  MOVF   xDE,W
0ABFA:  SUBLW  08
0ABFC:  BNZ   AC44
....................             {strcpy(Menus.Letra,"Ganancia    "); 
0ABFE:  MOVLW  07
0AC00:  MOVWF  FEA
0AC02:  MOVLW  03
0AC04:  MOVWF  FE9
0AC06:  MOVFF  FF2,727
0AC0A:  BCF    FF2.7
0AC0C:  MOVLW  00
0AC0E:  MOVLB  0
0AC10:  CALL   13DE
0AC14:  TBLRD*-
0AC16:  TBLRD*+
0AC18:  MOVF   FF5,W
0AC1A:  MOVWF  FEE
0AC1C:  IORLW  00
0AC1E:  BNZ   AC16
0AC20:  MOVLB  7
0AC22:  BTFSC  x27.7
0AC24:  BSF    FF2.7
....................             displayMenu(Menus.Letra,0,9,1,1);} 
0AC26:  MOVLW  07
0AC28:  MOVWF  x28
0AC2A:  MOVLW  03
0AC2C:  MOVWF  x27
0AC2E:  CLRF   x29
0AC30:  MOVLW  09
0AC32:  MOVWF  x2A
0AC34:  MOVLW  01
0AC36:  MOVWF  x2B
0AC38:  MOVWF  x2C
0AC3A:  MOVLB  0
0AC3C:  CALL   22A8
....................          else 
0AC40:  BRA    AC86
0AC42:  MOVLB  6
....................             {strcpy(Menus.Letra,"Ganancia    "); 
0AC44:  MOVLW  07
0AC46:  MOVWF  FEA
0AC48:  MOVLW  03
0AC4A:  MOVWF  FE9
0AC4C:  MOVFF  FF2,727
0AC50:  BCF    FF2.7
0AC52:  MOVLW  00
0AC54:  MOVLB  0
0AC56:  CALL   13DE
0AC5A:  TBLRD*-
0AC5C:  TBLRD*+
0AC5E:  MOVF   FF5,W
0AC60:  MOVWF  FEE
0AC62:  IORLW  00
0AC64:  BNZ   AC5C
0AC66:  MOVLB  7
0AC68:  BTFSC  x27.7
0AC6A:  BSF    FF2.7
....................             displayMenu(Menus.Letra,0,9,0,1);}   
0AC6C:  MOVLW  07
0AC6E:  MOVWF  x28
0AC70:  MOVLW  03
0AC72:  MOVWF  x27
0AC74:  CLRF   x29
0AC76:  MOVLW  09
0AC78:  MOVWF  x2A
0AC7A:  CLRF   x2B
0AC7C:  MOVLW  01
0AC7E:  MOVWF  x2C
0AC80:  MOVLB  0
0AC82:  CALL   22A8
....................              
....................          if(Opcion==9)    
0AC86:  MOVLB  6
0AC88:  MOVF   xDE,W
0AC8A:  SUBLW  09
0AC8C:  BNZ   ACD4
....................             {strcpy(Menus.Letra,"R51         "); 
0AC8E:  MOVLW  07
0AC90:  MOVWF  FEA
0AC92:  MOVLW  03
0AC94:  MOVWF  FE9
0AC96:  MOVFF  FF2,727
0AC9A:  BCF    FF2.7
0AC9C:  MOVLW  00
0AC9E:  MOVLB  0
0ACA0:  CALL   140A
0ACA4:  TBLRD*-
0ACA6:  TBLRD*+
0ACA8:  MOVF   FF5,W
0ACAA:  MOVWF  FEE
0ACAC:  IORLW  00
0ACAE:  BNZ   ACA6
0ACB0:  MOVLB  7
0ACB2:  BTFSC  x27.7
0ACB4:  BSF    FF2.7
....................             displayMenu(Menus.Letra,0,18,1,1);} 
0ACB6:  MOVLW  07
0ACB8:  MOVWF  x28
0ACBA:  MOVLW  03
0ACBC:  MOVWF  x27
0ACBE:  CLRF   x29
0ACC0:  MOVLW  12
0ACC2:  MOVWF  x2A
0ACC4:  MOVLW  01
0ACC6:  MOVWF  x2B
0ACC8:  MOVWF  x2C
0ACCA:  MOVLB  0
0ACCC:  CALL   22A8
....................          else 
0ACD0:  BRA    AD16
0ACD2:  MOVLB  6
....................             {strcpy(Menus.Letra,"R51         "); 
0ACD4:  MOVLW  07
0ACD6:  MOVWF  FEA
0ACD8:  MOVLW  03
0ACDA:  MOVWF  FE9
0ACDC:  MOVFF  FF2,727
0ACE0:  BCF    FF2.7
0ACE2:  MOVLW  00
0ACE4:  MOVLB  0
0ACE6:  CALL   140A
0ACEA:  TBLRD*-
0ACEC:  TBLRD*+
0ACEE:  MOVF   FF5,W
0ACF0:  MOVWF  FEE
0ACF2:  IORLW  00
0ACF4:  BNZ   ACEC
0ACF6:  MOVLB  7
0ACF8:  BTFSC  x27.7
0ACFA:  BSF    FF2.7
....................             displayMenu(Menus.Letra,0,18,0,1);}      
0ACFC:  MOVLW  07
0ACFE:  MOVWF  x28
0AD00:  MOVLW  03
0AD02:  MOVWF  x27
0AD04:  CLRF   x29
0AD06:  MOVLW  12
0AD08:  MOVWF  x2A
0AD0A:  CLRF   x2B
0AD0C:  MOVLW  01
0AD0E:  MOVWF  x2C
0AD10:  MOVLB  0
0AD12:  CALL   22A8
....................           
....................          if(Opcion==10)    
0AD16:  MOVLB  6
0AD18:  MOVF   xDE,W
0AD1A:  SUBLW  0A
0AD1C:  BNZ   AD64
....................             {strcpy(Menus.Letra,"RPT100 B     "); 
0AD1E:  MOVLW  07
0AD20:  MOVWF  FEA
0AD22:  MOVLW  03
0AD24:  MOVWF  FE9
0AD26:  MOVFF  FF2,727
0AD2A:  BCF    FF2.7
0AD2C:  MOVLW  00
0AD2E:  MOVLB  0
0AD30:  CALL   1436
0AD34:  TBLRD*-
0AD36:  TBLRD*+
0AD38:  MOVF   FF5,W
0AD3A:  MOVWF  FEE
0AD3C:  IORLW  00
0AD3E:  BNZ   AD36
0AD40:  MOVLB  7
0AD42:  BTFSC  x27.7
0AD44:  BSF    FF2.7
....................             displayMenu(Menus.Letra,0,27,1,1);} 
0AD46:  MOVLW  07
0AD48:  MOVWF  x28
0AD4A:  MOVLW  03
0AD4C:  MOVWF  x27
0AD4E:  CLRF   x29
0AD50:  MOVLW  1B
0AD52:  MOVWF  x2A
0AD54:  MOVLW  01
0AD56:  MOVWF  x2B
0AD58:  MOVWF  x2C
0AD5A:  MOVLB  0
0AD5C:  CALL   22A8
....................          else 
0AD60:  BRA    ADA6
0AD62:  MOVLB  6
....................             {strcpy(Menus.Letra,"RPT100 B     "); 
0AD64:  MOVLW  07
0AD66:  MOVWF  FEA
0AD68:  MOVLW  03
0AD6A:  MOVWF  FE9
0AD6C:  MOVFF  FF2,727
0AD70:  BCF    FF2.7
0AD72:  MOVLW  00
0AD74:  MOVLB  0
0AD76:  CALL   1436
0AD7A:  TBLRD*-
0AD7C:  TBLRD*+
0AD7E:  MOVF   FF5,W
0AD80:  MOVWF  FEE
0AD82:  IORLW  00
0AD84:  BNZ   AD7C
0AD86:  MOVLB  7
0AD88:  BTFSC  x27.7
0AD8A:  BSF    FF2.7
....................             displayMenu(Menus.Letra,0,27,0,1);}      
0AD8C:  MOVLW  07
0AD8E:  MOVWF  x28
0AD90:  MOVLW  03
0AD92:  MOVWF  x27
0AD94:  CLRF   x29
0AD96:  MOVLW  1B
0AD98:  MOVWF  x2A
0AD9A:  CLRF   x2B
0AD9C:  MOVLW  01
0AD9E:  MOVWF  x2C
0ADA0:  MOVLB  0
0ADA2:  CALL   22A8
....................           
....................          if(Opcion==11)    
0ADA6:  MOVLB  6
0ADA8:  MOVF   xDE,W
0ADAA:  SUBLW  0B
0ADAC:  BNZ   ADF4
....................             {strcpy(Menus.Letra,"T. Trampa    "); 
0ADAE:  MOVLW  07
0ADB0:  MOVWF  FEA
0ADB2:  MOVLW  03
0ADB4:  MOVWF  FE9
0ADB6:  MOVFF  FF2,727
0ADBA:  BCF    FF2.7
0ADBC:  MOVLW  00
0ADBE:  MOVLB  0
0ADC0:  CALL   1462
0ADC4:  TBLRD*-
0ADC6:  TBLRD*+
0ADC8:  MOVF   FF5,W
0ADCA:  MOVWF  FEE
0ADCC:  IORLW  00
0ADCE:  BNZ   ADC6
0ADD0:  MOVLB  7
0ADD2:  BTFSC  x27.7
0ADD4:  BSF    FF2.7
....................             displayMenu(Menus.Letra,0,36,1,1);} 
0ADD6:  MOVLW  07
0ADD8:  MOVWF  x28
0ADDA:  MOVLW  03
0ADDC:  MOVWF  x27
0ADDE:  CLRF   x29
0ADE0:  MOVLW  24
0ADE2:  MOVWF  x2A
0ADE4:  MOVLW  01
0ADE6:  MOVWF  x2B
0ADE8:  MOVWF  x2C
0ADEA:  MOVLB  0
0ADEC:  CALL   22A8
....................          else 
0ADF0:  BRA    AE36
0ADF2:  MOVLB  6
....................             {strcpy(Menus.Letra,"T. Trampa    "); 
0ADF4:  MOVLW  07
0ADF6:  MOVWF  FEA
0ADF8:  MOVLW  03
0ADFA:  MOVWF  FE9
0ADFC:  MOVFF  FF2,727
0AE00:  BCF    FF2.7
0AE02:  MOVLW  00
0AE04:  MOVLB  0
0AE06:  CALL   1462
0AE0A:  TBLRD*-
0AE0C:  TBLRD*+
0AE0E:  MOVF   FF5,W
0AE10:  MOVWF  FEE
0AE12:  IORLW  00
0AE14:  BNZ   AE0C
0AE16:  MOVLB  7
0AE18:  BTFSC  x27.7
0AE1A:  BSF    FF2.7
....................             displayMenu(Menus.Letra,0,36,0,1);}  
0AE1C:  MOVLW  07
0AE1E:  MOVWF  x28
0AE20:  MOVLW  03
0AE22:  MOVWF  x27
0AE24:  CLRF   x29
0AE26:  MOVLW  24
0AE28:  MOVWF  x2A
0AE2A:  CLRF   x2B
0AE2C:  MOVLW  01
0AE2E:  MOVWF  x2C
0AE30:  MOVLB  0
0AE32:  CALL   22A8
....................              
....................             strcpy(Menus.Letra,"            "); 
0AE36:  MOVLW  07
0AE38:  MOVWF  FEA
0AE3A:  MOVLW  03
0AE3C:  MOVWF  FE9
0AE3E:  MOVFF  FF2,727
0AE42:  BCF    FF2.7
0AE44:  MOVLW  00
0AE46:  CALL   148E
0AE4A:  TBLRD*-
0AE4C:  TBLRD*+
0AE4E:  MOVF   FF5,W
0AE50:  MOVWF  FEE
0AE52:  IORLW  00
0AE54:  BNZ   AE4C
0AE56:  MOVLB  7
0AE58:  BTFSC  x27.7
0AE5A:  BSF    FF2.7
....................             displayMenu(Menus.Letra,0,45,0,1); 
0AE5C:  MOVLW  07
0AE5E:  MOVWF  x28
0AE60:  MOVLW  03
0AE62:  MOVWF  x27
0AE64:  CLRF   x29
0AE66:  MOVLW  2D
0AE68:  MOVWF  x2A
0AE6A:  CLRF   x2B
0AE6C:  MOVLW  01
0AE6E:  MOVWF  x2C
0AE70:  MOVLB  0
0AE72:  CALL   22A8
....................       }    
....................        
....................          if(UP)//Si oprime hacia arriba 
0AE76:  BSF    F92.4
0AE78:  BTFSC  F80.4
0AE7A:  BRA    AEA6
....................          { 
....................             delay_ms(10); 
0AE7C:  MOVLW  0A
0AE7E:  MOVLB  7
0AE80:  MOVWF  x2D
0AE82:  MOVLB  0
0AE84:  CALL   1796
....................             if(Flanco == 0) 
0AE88:  MOVLB  4
0AE8A:  BTFSC  x5F.7
0AE8C:  BRA    AEA4
....................                {Flanco = 1;delay_ms(30);Opcion--;visual=1; 
0AE8E:  BSF    x5F.7
0AE90:  MOVLW  1E
0AE92:  MOVLB  7
0AE94:  MOVWF  x2D
0AE96:  MOVLB  0
0AE98:  CALL   1796
0AE9C:  MOVLB  6
0AE9E:  DECF   xDE,F
0AEA0:  BSF    xD6.2
0AEA2:  MOVLB  4
....................                } 
....................          } 
....................             else 
0AEA4:  BRA    AEAA
....................                {Flanco = 0;} 
0AEA6:  MOVLB  4
0AEA8:  BCF    x5F.7
....................                    
....................          if(DOWN)//Si oprime hacia abajo 
0AEAA:  BSF    F92.5
0AEAC:  BTFSC  F80.5
0AEAE:  BRA    AED8
....................          { 
....................             delay_ms(10); 
0AEB0:  MOVLW  0A
0AEB2:  MOVLB  7
0AEB4:  MOVWF  x2D
0AEB6:  MOVLB  0
0AEB8:  CALL   1796
....................             if(Flanco2 == 0) 
0AEBC:  MOVLB  6
0AEBE:  BTFSC  xD6.1
0AEC0:  BRA    AED6
....................                {Flanco2 = 1;delay_ms(30);Opcion++;visual=1; 
0AEC2:  BSF    xD6.1
0AEC4:  MOVLW  1E
0AEC6:  MOVLB  7
0AEC8:  MOVWF  x2D
0AECA:  MOVLB  0
0AECC:  CALL   1796
0AED0:  MOVLB  6
0AED2:  INCF   xDE,F
0AED4:  BSF    xD6.2
....................                }      
....................          } 
....................             else 
0AED6:  BRA    AEDC
....................                {Flanco2 = 0;}   
0AED8:  MOVLB  6
0AEDA:  BCF    xD6.1
....................                 
....................          if(RIGHT)//Si oprime SET 
0AEDC:  BSF    F96.0
0AEDE:  BTFSC  F84.0
0AEE0:  BRA    AF1E
....................          {   
....................             delay_ms(10); 
0AEE2:  MOVLW  0A
0AEE4:  MOVLB  7
0AEE6:  MOVWF  x2D
0AEE8:  MOVLB  0
0AEEA:  CALL   1796
....................             if(Flanco1 == 0) 
0AEEE:  MOVLB  6
0AEF0:  BTFSC  xD6.0
0AEF2:  BRA    AF1C
....................                {Flanco1 = 1;delay_ms(30);Menu=Opcion+100;Opcion=1;glcd_fillscreen(OFF);visual=1; 
0AEF4:  BSF    xD6.0
0AEF6:  MOVLW  1E
0AEF8:  MOVLB  7
0AEFA:  MOVWF  x2D
0AEFC:  MOVLB  0
0AEFE:  CALL   1796
0AF02:  MOVLW  64
0AF04:  MOVLB  6
0AF06:  ADDWF  xDE,W
0AF08:  MOVWF  xD8
0AF0A:  MOVLW  01
0AF0C:  MOVWF  xDE
0AF0E:  MOVLB  7
0AF10:  CLRF   x28
0AF12:  MOVLB  0
0AF14:  CALL   1C7A
0AF18:  MOVLB  6
0AF1A:  BSF    xD6.2
....................                } 
....................          } 
....................             else 
0AF1C:  BRA    AF20
....................                {Flanco1 = 0;}  
0AF1E:  BCF    xD6.0
....................                 
....................          if(LEFT)//Si oprime boton de Toma. 
0AF20:  BSF    F96.1
0AF22:  BTFSC  F84.1
0AF24:  BRA    AF4C
....................          { 
....................             delay_ms(10); 
0AF26:  MOVLW  0A
0AF28:  MOVLB  7
0AF2A:  MOVWF  x2D
0AF2C:  MOVLB  0
0AF2E:  CALL   1796
....................             delay_ms(700);reset_cpu();          
0AF32:  MOVLW  04
0AF34:  MOVLB  7
0AF36:  MOVWF  x27
0AF38:  MOVLW  AF
0AF3A:  MOVWF  x2D
0AF3C:  MOVLB  0
0AF3E:  CALL   1796
0AF42:  MOVLB  7
0AF44:  DECFSZ x27,F
0AF46:  BRA    AF38
0AF48:  RESET
0AF4A:  MOVLB  6
....................          }       
....................          
....................     } 
.................... //_--------------------------------------------------------------------------------------------------------------------------------------------------------        
....................  
.................... //_--------------------------------------------------------------------------------------------------------------------------------------------------------       
....................       if(Menu==101){ // Menu de Ajuste de Ganancia 
0AF4C:  MOVF   xD8,W
0AF4E:  SUBLW  65
0AF50:  BTFSS  FD8.2
0AF52:  BRA    B1DA
....................        
....................       if(Ganancia>40) 
0AF54:  MOVLB  7
0AF56:  CLRF   x2B
0AF58:  CLRF   x2A
0AF5A:  MOVLW  20
0AF5C:  MOVWF  x29
0AF5E:  MOVLW  84
0AF60:  MOVWF  x28
0AF62:  MOVFF  6A3,72F
0AF66:  MOVFF  6A2,72E
0AF6A:  MOVFF  6A1,72D
0AF6E:  MOVFF  6A0,72C
0AF72:  MOVLB  0
0AF74:  CALL   1BCA
0AF78:  BNC   AF86
....................       { 
....................          Ganancia=2; 
0AF7A:  MOVLB  6
0AF7C:  CLRF   xA3
0AF7E:  CLRF   xA2
0AF80:  CLRF   xA1
0AF82:  MOVLW  80
0AF84:  MOVWF  xA0
....................       } 
....................        
....................       if(visual==1) 
0AF86:  MOVLB  6
0AF88:  BTFSS  xD6.2
0AF8A:  BRA    B012
....................       { 
....................          glcd_fillScreen(OFF); 
0AF8C:  MOVLB  7
0AF8E:  CLRF   x28
0AF90:  MOVLB  0
0AF92:  CALL   1C7A
....................          strcpy(Menus.Letra,"P"); 
0AF96:  MOVLW  07
0AF98:  MOVWF  FEA
0AF9A:  MOVLW  03
0AF9C:  MOVWF  FE9
0AF9E:  MOVFF  FF2,727
0AFA2:  BCF    FF2.7
0AFA4:  MOVLW  00
0AFA6:  CALL   14BA
0AFAA:  TBLRD*-
0AFAC:  TBLRD*+
0AFAE:  MOVF   FF5,W
0AFB0:  MOVWF  FEE
0AFB2:  IORLW  00
0AFB4:  BNZ   AFAC
0AFB6:  MOVLB  7
0AFB8:  BTFSC  x27.7
0AFBA:  BSF    FF2.7
....................          displayMenu(Menus.Letra,0,0,1,2); 
0AFBC:  MOVLW  07
0AFBE:  MOVWF  x28
0AFC0:  MOVLW  03
0AFC2:  MOVWF  x27
0AFC4:  CLRF   x29
0AFC6:  CLRF   x2A
0AFC8:  MOVLW  01
0AFCA:  MOVWF  x2B
0AFCC:  MOVLW  02
0AFCE:  MOVWF  x2C
0AFD0:  MOVLB  0
0AFD2:  CALL   22A8
....................           
....................          displayTemperatura(Ganancia,30,30,0,3); 
0AFD6:  MOVFF  6A3,72A
0AFDA:  MOVFF  6A2,729
0AFDE:  MOVFF  6A1,728
0AFE2:  MOVFF  6A0,727
0AFE6:  CALL   2B16
0AFEA:  MOVFF  02,728
0AFEE:  MOVFF  01,727
0AFF2:  MOVFF  02,72A
0AFF6:  MOVFF  01,729
0AFFA:  MOVLW  1E
0AFFC:  MOVLB  7
0AFFE:  MOVWF  x2B
0B000:  MOVWF  x2C
0B002:  CLRF   x2D
0B004:  MOVLW  03
0B006:  MOVWF  x2E
0B008:  MOVLB  0
0B00A:  CALL   4942
....................           
....................          visual=0; 
0B00E:  MOVLB  6
0B010:  BCF    xD6.2
....................       } 
....................        
....................          if(UP)//Si oprime hacia arriba 
0B012:  BSF    F92.4
0B014:  BTFSC  F80.4
0B016:  BRA    B0B0
....................          {   
....................             delay_ms(10); 
0B018:  MOVLW  0A
0B01A:  MOVLB  7
0B01C:  MOVWF  x2D
0B01E:  MOVLB  0
0B020:  CALL   1796
....................             if(Ganancia>40) 
0B024:  MOVLB  7
0B026:  CLRF   x2B
0B028:  CLRF   x2A
0B02A:  MOVLW  20
0B02C:  MOVWF  x29
0B02E:  MOVLW  84
0B030:  MOVWF  x28
0B032:  MOVFF  6A3,72F
0B036:  MOVFF  6A2,72E
0B03A:  MOVFF  6A1,72D
0B03E:  MOVFF  6A0,72C
0B042:  MOVLB  0
0B044:  CALL   1BCA
0B048:  BNC   B06C
....................             { 
....................                Ganancia=40;delay_ms(100);visual=1; 
0B04A:  MOVLB  6
0B04C:  CLRF   xA3
0B04E:  CLRF   xA2
0B050:  MOVLW  20
0B052:  MOVWF  xA1
0B054:  MOVLW  84
0B056:  MOVWF  xA0
0B058:  MOVLW  64
0B05A:  MOVLB  7
0B05C:  MOVWF  x2D
0B05E:  MOVLB  0
0B060:  CALL   1796
0B064:  MOVLB  6
0B066:  BSF    xD6.2
....................             } 
....................             else 
0B068:  BRA    B0B0
0B06A:  MOVLB  0
....................             { 
....................                delay_ms(30);Ganancia+=1.0;visual=1; 
0B06C:  MOVLW  1E
0B06E:  MOVLB  7
0B070:  MOVWF  x2D
0B072:  MOVLB  0
0B074:  CALL   1796
0B078:  BCF    FD8.1
0B07A:  MOVFF  6A3,72F
0B07E:  MOVFF  6A2,72E
0B082:  MOVFF  6A1,72D
0B086:  MOVFF  6A0,72C
0B08A:  MOVLB  7
0B08C:  CLRF   x33
0B08E:  CLRF   x32
0B090:  CLRF   x31
0B092:  MOVLW  7F
0B094:  MOVWF  x30
0B096:  MOVLB  0
0B098:  CALL   1952
0B09C:  MOVFF  03,6A3
0B0A0:  MOVFF  02,6A2
0B0A4:  MOVFF  01,6A1
0B0A8:  MOVFF  00,6A0
0B0AC:  MOVLB  6
0B0AE:  BSF    xD6.2
....................             } 
....................          } 
....................                 
....................          if(DOWN)//Si oprime hacia abajo 
0B0B0:  BSF    F92.5
0B0B2:  BTFSC  F80.5
0B0B4:  BRA    B12A
....................          {   
....................             delay_ms(10); 
0B0B6:  MOVLW  0A
0B0B8:  MOVLB  7
0B0BA:  MOVWF  x2D
0B0BC:  MOVLB  0
0B0BE:  CALL   1796
....................             if(Ganancia>1) 
0B0C2:  MOVLB  7
0B0C4:  CLRF   x2B
0B0C6:  CLRF   x2A
0B0C8:  CLRF   x29
0B0CA:  MOVLW  7F
0B0CC:  MOVWF  x28
0B0CE:  MOVFF  6A3,72F
0B0D2:  MOVFF  6A2,72E
0B0D6:  MOVFF  6A1,72D
0B0DA:  MOVFF  6A0,72C
0B0DE:  MOVLB  0
0B0E0:  CALL   1BCA
0B0E4:  BNC   B12C
....................             { 
....................                delay_ms(30);Ganancia-=1.0;visual=1;      
0B0E6:  MOVLW  1E
0B0E8:  MOVLB  7
0B0EA:  MOVWF  x2D
0B0EC:  MOVLB  0
0B0EE:  CALL   1796
0B0F2:  BSF    FD8.1
0B0F4:  MOVFF  6A3,72F
0B0F8:  MOVFF  6A2,72E
0B0FC:  MOVFF  6A1,72D
0B100:  MOVFF  6A0,72C
0B104:  MOVLB  7
0B106:  CLRF   x33
0B108:  CLRF   x32
0B10A:  CLRF   x31
0B10C:  MOVLW  7F
0B10E:  MOVWF  x30
0B110:  MOVLB  0
0B112:  CALL   1952
0B116:  MOVFF  03,6A3
0B11A:  MOVFF  02,6A2
0B11E:  MOVFF  01,6A1
0B122:  MOVFF  00,6A0
0B126:  MOVLB  6
0B128:  BSF    xD6.2
0B12A:  MOVLB  0
....................             } 
....................          } 
....................                 
....................          if(RIGHT)//Si oprime SET 
0B12C:  BSF    F96.0
0B12E:  BTFSC  F84.0
0B130:  BRA    B150
....................          {   
....................             delay_ms(10); 
0B132:  MOVLW  0A
0B134:  MOVLB  7
0B136:  MOVWF  x2D
0B138:  MOVLB  0
0B13A:  CALL   1796
....................             delay_ms(30);visual=1; 
0B13E:  MOVLW  1E
0B140:  MOVLB  7
0B142:  MOVWF  x2D
0B144:  MOVLB  0
0B146:  CALL   1796
0B14A:  MOVLB  6
0B14C:  BSF    xD6.2
0B14E:  MOVLB  0
....................          }  
....................                    
....................          if(LEFT)//Si oprime boton de Toma. 
0B150:  BSF    F96.1
0B152:  BTFSC  F84.1
0B154:  BRA    B1D8
....................          { 
....................             delay_ms(10); 
0B156:  MOVLW  0A
0B158:  MOVLB  7
0B15A:  MOVWF  x2D
0B15C:  MOVLB  0
0B15E:  CALL   1796
....................             delay_ms(700);Menu=100;glcd_fillscreen(OFF);Opcion=1;visual=1; 
0B162:  MOVLW  04
0B164:  MOVLB  7
0B166:  MOVWF  x27
0B168:  MOVLW  AF
0B16A:  MOVWF  x2D
0B16C:  MOVLB  0
0B16E:  CALL   1796
0B172:  MOVLB  7
0B174:  DECFSZ x27,F
0B176:  BRA    B168
0B178:  MOVLW  64
0B17A:  MOVLB  6
0B17C:  MOVWF  xD8
0B17E:  MOVLB  7
0B180:  CLRF   x28
0B182:  MOVLB  0
0B184:  CALL   1C7A
0B188:  MOVLW  01
0B18A:  MOVLB  6
0B18C:  MOVWF  xDE
0B18E:  BSF    xD6.2
....................             write_eeprom(20,(int8)Ganancia); 
0B190:  MOVFF  6A3,72A
0B194:  MOVFF  6A2,729
0B198:  MOVFF  6A1,728
0B19C:  MOVFF  6A0,727
0B1A0:  MOVLB  0
0B1A2:  CALL   2B16
0B1A6:  MOVFF  01,727
0B1AA:  CLRF   FAA
0B1AC:  MOVLW  14
0B1AE:  MOVWF  FA9
0B1B0:  MOVFF  727,FA8
0B1B4:  BCF    FA6.6
0B1B6:  BCF    FA6.7
0B1B8:  BSF    FA6.2
0B1BA:  MOVF   FF2,W
0B1BC:  MOVWF  00
0B1BE:  BCF    FF2.7
0B1C0:  MOVLB  F
0B1C2:  MOVLW  55
0B1C4:  MOVWF  FA7
0B1C6:  MOVLW  AA
0B1C8:  MOVWF  FA7
0B1CA:  BSF    FA6.1
0B1CC:  BTFSC  FA6.1
0B1CE:  BRA    B1CC
0B1D0:  BCF    FA6.2
0B1D2:  MOVF   00,W
0B1D4:  IORWF  FF2,F
0B1D6:  MOVLB  0
0B1D8:  MOVLB  6
....................          } 
....................      } 
.................... //_-------------------------------------------------------------------------------------------------------------------------------------------------------- 
....................  
.................... //_--------------------------------------------------------------------------------------------------------------------------------------------------------       
....................       if(Menu==102){ // Menu de Ajuste de Integral 
0B1DA:  MOVF   xD8,W
0B1DC:  SUBLW  66
0B1DE:  BTFSS  FD8.2
0B1E0:  BRA    B3E6
....................        
....................       if(Integral>40) 
0B1E2:  MOVF   xD0,W
0B1E4:  SUBLW  28
0B1E6:  BC    B1EC
....................       { 
....................          Integral=1; 
0B1E8:  MOVLW  01
0B1EA:  MOVWF  xD0
....................       } 
....................        
....................       if(visual==1) 
0B1EC:  BTFSS  xD6.2
0B1EE:  BRA    B258
....................       { 
....................          glcd_fillScreen(OFF); 
0B1F0:  MOVLB  7
0B1F2:  CLRF   x28
0B1F4:  MOVLB  0
0B1F6:  CALL   1C7A
....................          strcpy(Menus.Letra,"I"); 
0B1FA:  MOVLW  07
0B1FC:  MOVWF  FEA
0B1FE:  MOVLW  03
0B200:  MOVWF  FE9
0B202:  MOVFF  FF2,727
0B206:  BCF    FF2.7
0B208:  MOVLW  00
0B20A:  CALL   14DA
0B20E:  TBLRD*-
0B210:  TBLRD*+
0B212:  MOVF   FF5,W
0B214:  MOVWF  FEE
0B216:  IORLW  00
0B218:  BNZ   B210
0B21A:  MOVLB  7
0B21C:  BTFSC  x27.7
0B21E:  BSF    FF2.7
....................          displayMenu(Menus.Letra,0,0,1,2); 
0B220:  MOVLW  07
0B222:  MOVWF  x28
0B224:  MOVLW  03
0B226:  MOVWF  x27
0B228:  CLRF   x29
0B22A:  CLRF   x2A
0B22C:  MOVLW  01
0B22E:  MOVWF  x2B
0B230:  MOVLW  02
0B232:  MOVWF  x2C
0B234:  MOVLB  0
0B236:  CALL   22A8
....................           
....................          displayTemperatura(Integral,30,30,0,3); 
0B23A:  MOVLB  7
0B23C:  CLRF   x2A
0B23E:  MOVFF  6D0,729
0B242:  MOVLW  1E
0B244:  MOVWF  x2B
0B246:  MOVWF  x2C
0B248:  CLRF   x2D
0B24A:  MOVLW  03
0B24C:  MOVWF  x2E
0B24E:  MOVLB  0
0B250:  CALL   4942
....................           
....................          visual=0; 
0B254:  MOVLB  6
0B256:  BCF    xD6.2
....................       } 
....................        
....................          if(UP)//Si oprime hacia arriba 
0B258:  BSF    F92.4
0B25A:  BTFSC  F80.4
0B25C:  BRA    B2E2
....................          {   
....................             delay_ms(10); 
0B25E:  MOVLW  0A
0B260:  MOVLB  7
0B262:  MOVWF  x2D
0B264:  MOVLB  0
0B266:  CALL   1796
....................             if(Integral>40) 
0B26A:  MOVLB  6
0B26C:  MOVF   xD0,W
0B26E:  SUBLW  28
0B270:  BC    B288
....................             { 
....................                Integral=40;delay_ms(100);visual=1; 
0B272:  MOVLW  28
0B274:  MOVWF  xD0
0B276:  MOVLW  64
0B278:  MOVLB  7
0B27A:  MOVWF  x2D
0B27C:  MOVLB  0
0B27E:  CALL   1796
0B282:  MOVLB  6
0B284:  BSF    xD6.2
....................             } 
....................             else 
0B286:  BRA    B2E2
....................             { 
....................                delay_ms(30);Integral+=1.0;visual=1; 
0B288:  MOVLW  1E
0B28A:  MOVLB  7
0B28C:  MOVWF  x2D
0B28E:  MOVLB  0
0B290:  CALL   1796
0B294:  MOVLB  7
0B296:  CLRF   x2E
0B298:  MOVFF  6D0,72D
0B29C:  MOVLB  0
0B29E:  CALL   17BE
0B2A2:  BCF    FD8.1
0B2A4:  MOVFF  03,72F
0B2A8:  MOVFF  02,72E
0B2AC:  MOVFF  01,72D
0B2B0:  MOVFF  00,72C
0B2B4:  MOVLB  7
0B2B6:  CLRF   x33
0B2B8:  CLRF   x32
0B2BA:  CLRF   x31
0B2BC:  MOVLW  7F
0B2BE:  MOVWF  x30
0B2C0:  MOVLB  0
0B2C2:  CALL   1952
0B2C6:  MOVFF  03,72A
0B2CA:  MOVFF  02,729
0B2CE:  MOVFF  01,728
0B2D2:  MOVFF  00,727
0B2D6:  CALL   2B16
0B2DA:  MOVFF  01,6D0
0B2DE:  MOVLB  6
0B2E0:  BSF    xD6.2
....................             } 
....................          } 
....................                 
....................          if(DOWN)//Si oprime hacia abajo 
0B2E2:  BSF    F92.5
0B2E4:  BTFSC  F80.5
0B2E6:  BRA    B356
....................          {   
....................             delay_ms(10); 
0B2E8:  MOVLW  0A
0B2EA:  MOVLB  7
0B2EC:  MOVWF  x2D
0B2EE:  MOVLB  0
0B2F0:  CALL   1796
....................             if(Integral>1) 
0B2F4:  MOVLB  6
0B2F6:  MOVF   xD0,W
0B2F8:  SUBLW  01
0B2FA:  BC    B356
....................             { 
....................                delay_ms(30);Integral-=1.0;visual=1;      
0B2FC:  MOVLW  1E
0B2FE:  MOVLB  7
0B300:  MOVWF  x2D
0B302:  MOVLB  0
0B304:  CALL   1796
0B308:  MOVLB  7
0B30A:  CLRF   x2E
0B30C:  MOVFF  6D0,72D
0B310:  MOVLB  0
0B312:  CALL   17BE
0B316:  BSF    FD8.1
0B318:  MOVFF  03,72F
0B31C:  MOVFF  02,72E
0B320:  MOVFF  01,72D
0B324:  MOVFF  00,72C
0B328:  MOVLB  7
0B32A:  CLRF   x33
0B32C:  CLRF   x32
0B32E:  CLRF   x31
0B330:  MOVLW  7F
0B332:  MOVWF  x30
0B334:  MOVLB  0
0B336:  CALL   1952
0B33A:  MOVFF  03,72A
0B33E:  MOVFF  02,729
0B342:  MOVFF  01,728
0B346:  MOVFF  00,727
0B34A:  CALL   2B16
0B34E:  MOVFF  01,6D0
0B352:  MOVLB  6
0B354:  BSF    xD6.2
....................             } 
....................          } 
....................                 
....................          if(RIGHT)//Si oprime SET 
0B356:  BSF    F96.0
0B358:  BTFSC  F84.0
0B35A:  BRA    B378
....................          {   
....................             delay_ms(10); 
0B35C:  MOVLW  0A
0B35E:  MOVLB  7
0B360:  MOVWF  x2D
0B362:  MOVLB  0
0B364:  CALL   1796
....................             delay_ms(30);visual=1; 
0B368:  MOVLW  1E
0B36A:  MOVLB  7
0B36C:  MOVWF  x2D
0B36E:  MOVLB  0
0B370:  CALL   1796
0B374:  MOVLB  6
0B376:  BSF    xD6.2
....................          }  
....................                    
....................          if(LEFT)//Si oprime boton de Toma. 
0B378:  BSF    F96.1
0B37A:  BTFSC  F84.1
0B37C:  BRA    B3E6
....................          { 
....................             delay_ms(10); 
0B37E:  MOVLW  0A
0B380:  MOVLB  7
0B382:  MOVWF  x2D
0B384:  MOVLB  0
0B386:  CALL   1796
....................             delay_ms(700);Menu=100;glcd_fillscreen(OFF);Opcion=1;visual=1; 
0B38A:  MOVLW  04
0B38C:  MOVLB  7
0B38E:  MOVWF  x27
0B390:  MOVLW  AF
0B392:  MOVWF  x2D
0B394:  MOVLB  0
0B396:  CALL   1796
0B39A:  MOVLB  7
0B39C:  DECFSZ x27,F
0B39E:  BRA    B390
0B3A0:  MOVLW  64
0B3A2:  MOVLB  6
0B3A4:  MOVWF  xD8
0B3A6:  MOVLB  7
0B3A8:  CLRF   x28
0B3AA:  MOVLB  0
0B3AC:  CALL   1C7A
0B3B0:  MOVLW  01
0B3B2:  MOVLB  6
0B3B4:  MOVWF  xDE
0B3B6:  BSF    xD6.2
....................             write_eeprom(26,(int8)Integral); 
0B3B8:  CLRF   FAA
0B3BA:  MOVLW  1A
0B3BC:  MOVWF  FA9
0B3BE:  MOVFF  6D0,FA8
0B3C2:  BCF    FA6.6
0B3C4:  BCF    FA6.7
0B3C6:  BSF    FA6.2
0B3C8:  MOVF   FF2,W
0B3CA:  MOVWF  00
0B3CC:  BCF    FF2.7
0B3CE:  MOVLB  F
0B3D0:  MOVLW  55
0B3D2:  MOVWF  FA7
0B3D4:  MOVLW  AA
0B3D6:  MOVWF  FA7
0B3D8:  BSF    FA6.1
0B3DA:  BTFSC  FA6.1
0B3DC:  BRA    B3DA
0B3DE:  BCF    FA6.2
0B3E0:  MOVF   00,W
0B3E2:  IORWF  FF2,F
0B3E4:  MOVLB  6
....................          } 
....................      } 
.................... //_-------------------------------------------------------------------------------------------------------------------------------------------------------- 
....................  
.................... //_--------------------------------------------------------------------------------------------------------------------------------------------------------       
....................       if(Menu==103){ // Menu de Ajuste de Derivativo 
0B3E6:  MOVF   xD8,W
0B3E8:  SUBLW  67
0B3EA:  BTFSS  FD8.2
0B3EC:  BRA    B5F2
....................        
....................       if(Derivativo>200) 
0B3EE:  MOVF   xD1,W
0B3F0:  SUBLW  C8
0B3F2:  BC    B3F8
....................       { 
....................          Derivativo=2; 
0B3F4:  MOVLW  02
0B3F6:  MOVWF  xD1
....................       } 
....................        
....................       if(visual==1) 
0B3F8:  BTFSS  xD6.2
0B3FA:  BRA    B464
....................       { 
....................          glcd_fillScreen(OFF); 
0B3FC:  MOVLB  7
0B3FE:  CLRF   x28
0B400:  MOVLB  0
0B402:  CALL   1C7A
....................          strcpy(Menus.Letra,"D"); 
0B406:  MOVLW  07
0B408:  MOVWF  FEA
0B40A:  MOVLW  03
0B40C:  MOVWF  FE9
0B40E:  MOVFF  FF2,727
0B412:  BCF    FF2.7
0B414:  MOVLW  00
0B416:  CALL   14FA
0B41A:  TBLRD*-
0B41C:  TBLRD*+
0B41E:  MOVF   FF5,W
0B420:  MOVWF  FEE
0B422:  IORLW  00
0B424:  BNZ   B41C
0B426:  MOVLB  7
0B428:  BTFSC  x27.7
0B42A:  BSF    FF2.7
....................          displayMenu(Menus.Letra,0,0,1,2); 
0B42C:  MOVLW  07
0B42E:  MOVWF  x28
0B430:  MOVLW  03
0B432:  MOVWF  x27
0B434:  CLRF   x29
0B436:  CLRF   x2A
0B438:  MOVLW  01
0B43A:  MOVWF  x2B
0B43C:  MOVLW  02
0B43E:  MOVWF  x2C
0B440:  MOVLB  0
0B442:  CALL   22A8
....................           
....................          displayTemperatura(Derivativo,30,30,0,3); 
0B446:  MOVLB  7
0B448:  CLRF   x2A
0B44A:  MOVFF  6D1,729
0B44E:  MOVLW  1E
0B450:  MOVWF  x2B
0B452:  MOVWF  x2C
0B454:  CLRF   x2D
0B456:  MOVLW  03
0B458:  MOVWF  x2E
0B45A:  MOVLB  0
0B45C:  CALL   4942
....................           
....................          visual=0; 
0B460:  MOVLB  6
0B462:  BCF    xD6.2
....................       } 
....................        
....................          if(UP)//Si oprime hacia arriba 
0B464:  BSF    F92.4
0B466:  BTFSC  F80.4
0B468:  BRA    B4EE
....................          {   
....................             delay_ms(10); 
0B46A:  MOVLW  0A
0B46C:  MOVLB  7
0B46E:  MOVWF  x2D
0B470:  MOVLB  0
0B472:  CALL   1796
....................             if(Derivativo>200) 
0B476:  MOVLB  6
0B478:  MOVF   xD1,W
0B47A:  SUBLW  C8
0B47C:  BC    B494
....................             { 
....................                Derivativo=200;delay_ms(100);visual=1; 
0B47E:  MOVLW  C8
0B480:  MOVWF  xD1
0B482:  MOVLW  64
0B484:  MOVLB  7
0B486:  MOVWF  x2D
0B488:  MOVLB  0
0B48A:  CALL   1796
0B48E:  MOVLB  6
0B490:  BSF    xD6.2
....................             } 
....................             else 
0B492:  BRA    B4EE
....................             { 
....................                delay_ms(30);Derivativo+=1.0;visual=1; 
0B494:  MOVLW  1E
0B496:  MOVLB  7
0B498:  MOVWF  x2D
0B49A:  MOVLB  0
0B49C:  CALL   1796
0B4A0:  MOVLB  7
0B4A2:  CLRF   x2E
0B4A4:  MOVFF  6D1,72D
0B4A8:  MOVLB  0
0B4AA:  CALL   17BE
0B4AE:  BCF    FD8.1
0B4B0:  MOVFF  03,72F
0B4B4:  MOVFF  02,72E
0B4B8:  MOVFF  01,72D
0B4BC:  MOVFF  00,72C
0B4C0:  MOVLB  7
0B4C2:  CLRF   x33
0B4C4:  CLRF   x32
0B4C6:  CLRF   x31
0B4C8:  MOVLW  7F
0B4CA:  MOVWF  x30
0B4CC:  MOVLB  0
0B4CE:  CALL   1952
0B4D2:  MOVFF  03,72A
0B4D6:  MOVFF  02,729
0B4DA:  MOVFF  01,728
0B4DE:  MOVFF  00,727
0B4E2:  CALL   2B16
0B4E6:  MOVFF  01,6D1
0B4EA:  MOVLB  6
0B4EC:  BSF    xD6.2
....................             } 
....................          } 
....................                 
....................          if(DOWN)//Si oprime hacia abajo 
0B4EE:  BSF    F92.5
0B4F0:  BTFSC  F80.5
0B4F2:  BRA    B562
....................          {   
....................             delay_ms(10); 
0B4F4:  MOVLW  0A
0B4F6:  MOVLB  7
0B4F8:  MOVWF  x2D
0B4FA:  MOVLB  0
0B4FC:  CALL   1796
....................             if(Derivativo>1) 
0B500:  MOVLB  6
0B502:  MOVF   xD1,W
0B504:  SUBLW  01
0B506:  BC    B562
....................             { 
....................                delay_ms(30);Derivativo-=1.0;visual=1;      
0B508:  MOVLW  1E
0B50A:  MOVLB  7
0B50C:  MOVWF  x2D
0B50E:  MOVLB  0
0B510:  CALL   1796
0B514:  MOVLB  7
0B516:  CLRF   x2E
0B518:  MOVFF  6D1,72D
0B51C:  MOVLB  0
0B51E:  CALL   17BE
0B522:  BSF    FD8.1
0B524:  MOVFF  03,72F
0B528:  MOVFF  02,72E
0B52C:  MOVFF  01,72D
0B530:  MOVFF  00,72C
0B534:  MOVLB  7
0B536:  CLRF   x33
0B538:  CLRF   x32
0B53A:  CLRF   x31
0B53C:  MOVLW  7F
0B53E:  MOVWF  x30
0B540:  MOVLB  0
0B542:  CALL   1952
0B546:  MOVFF  03,72A
0B54A:  MOVFF  02,729
0B54E:  MOVFF  01,728
0B552:  MOVFF  00,727
0B556:  CALL   2B16
0B55A:  MOVFF  01,6D1
0B55E:  MOVLB  6
0B560:  BSF    xD6.2
....................             } 
....................          } 
....................                 
....................          if(RIGHT)//Si oprime SET 
0B562:  BSF    F96.0
0B564:  BTFSC  F84.0
0B566:  BRA    B584
....................          {   
....................             delay_ms(10); 
0B568:  MOVLW  0A
0B56A:  MOVLB  7
0B56C:  MOVWF  x2D
0B56E:  MOVLB  0
0B570:  CALL   1796
....................             delay_ms(30);visual=1; 
0B574:  MOVLW  1E
0B576:  MOVLB  7
0B578:  MOVWF  x2D
0B57A:  MOVLB  0
0B57C:  CALL   1796
0B580:  MOVLB  6
0B582:  BSF    xD6.2
....................          }  
....................                    
....................          if(LEFT)//Si oprime boton de Toma. 
0B584:  BSF    F96.1
0B586:  BTFSC  F84.1
0B588:  BRA    B5F2
....................          { 
....................             delay_ms(10); 
0B58A:  MOVLW  0A
0B58C:  MOVLB  7
0B58E:  MOVWF  x2D
0B590:  MOVLB  0
0B592:  CALL   1796
....................             delay_ms(700);Menu=100;glcd_fillscreen(OFF);Opcion=1;visual=1; 
0B596:  MOVLW  04
0B598:  MOVLB  7
0B59A:  MOVWF  x27
0B59C:  MOVLW  AF
0B59E:  MOVWF  x2D
0B5A0:  MOVLB  0
0B5A2:  CALL   1796
0B5A6:  MOVLB  7
0B5A8:  DECFSZ x27,F
0B5AA:  BRA    B59C
0B5AC:  MOVLW  64
0B5AE:  MOVLB  6
0B5B0:  MOVWF  xD8
0B5B2:  MOVLB  7
0B5B4:  CLRF   x28
0B5B6:  MOVLB  0
0B5B8:  CALL   1C7A
0B5BC:  MOVLW  01
0B5BE:  MOVLB  6
0B5C0:  MOVWF  xDE
0B5C2:  BSF    xD6.2
....................             write_eeprom(27,(int8)Derivativo); 
0B5C4:  CLRF   FAA
0B5C6:  MOVLW  1B
0B5C8:  MOVWF  FA9
0B5CA:  MOVFF  6D1,FA8
0B5CE:  BCF    FA6.6
0B5D0:  BCF    FA6.7
0B5D2:  BSF    FA6.2
0B5D4:  MOVF   FF2,W
0B5D6:  MOVWF  00
0B5D8:  BCF    FF2.7
0B5DA:  MOVLB  F
0B5DC:  MOVLW  55
0B5DE:  MOVWF  FA7
0B5E0:  MOVLW  AA
0B5E2:  MOVWF  FA7
0B5E4:  BSF    FA6.1
0B5E6:  BTFSC  FA6.1
0B5E8:  BRA    B5E6
0B5EA:  BCF    FA6.2
0B5EC:  MOVF   00,W
0B5EE:  IORWF  FF2,F
0B5F0:  MOVLB  6
....................          } 
....................      } 
.................... //_-------------------------------------------------------------------------------------------------------------------------------------------------------- 
....................  
.................... //_--------------------------------------------------------------------------------------------------------------------------------------------------------       
....................       if(Menu==104){ // Menu de Tiempo de Ciclo 
0B5F2:  MOVF   xD8,W
0B5F4:  SUBLW  68
0B5F6:  BTFSS  FD8.2
0B5F8:  BRA    B882
....................        
....................       if(Tciclo>40) 
0B5FA:  MOVLB  7
0B5FC:  CLRF   x2B
0B5FE:  CLRF   x2A
0B600:  MOVLW  20
0B602:  MOVWF  x29
0B604:  MOVLW  84
0B606:  MOVWF  x28
0B608:  MOVFF  68B,72F
0B60C:  MOVFF  68A,72E
0B610:  MOVFF  689,72D
0B614:  MOVFF  688,72C
0B618:  MOVLB  0
0B61A:  CALL   1BCA
0B61E:  BNC   B62E
....................       { 
....................          Tciclo=40; 
0B620:  MOVLB  6
0B622:  CLRF   x8B
0B624:  CLRF   x8A
0B626:  MOVLW  20
0B628:  MOVWF  x89
0B62A:  MOVLW  84
0B62C:  MOVWF  x88
....................       } 
....................        
....................       if(visual==1) 
0B62E:  MOVLB  6
0B630:  BTFSS  xD6.2
0B632:  BRA    B6BA
....................       { 
....................          glcd_fillScreen(OFF); 
0B634:  MOVLB  7
0B636:  CLRF   x28
0B638:  MOVLB  0
0B63A:  CALL   1C7A
....................          strcpy(Menus.Letra,"Tciclo"); 
0B63E:  MOVLW  07
0B640:  MOVWF  FEA
0B642:  MOVLW  03
0B644:  MOVWF  FE9
0B646:  MOVFF  FF2,727
0B64A:  BCF    FF2.7
0B64C:  MOVLW  00
0B64E:  CALL   133E
0B652:  TBLRD*-
0B654:  TBLRD*+
0B656:  MOVF   FF5,W
0B658:  MOVWF  FEE
0B65A:  IORLW  00
0B65C:  BNZ   B654
0B65E:  MOVLB  7
0B660:  BTFSC  x27.7
0B662:  BSF    FF2.7
....................          displayMenu(Menus.Letra,0,0,1,2); 
0B664:  MOVLW  07
0B666:  MOVWF  x28
0B668:  MOVLW  03
0B66A:  MOVWF  x27
0B66C:  CLRF   x29
0B66E:  CLRF   x2A
0B670:  MOVLW  01
0B672:  MOVWF  x2B
0B674:  MOVLW  02
0B676:  MOVWF  x2C
0B678:  MOVLB  0
0B67A:  CALL   22A8
....................           
....................          displayTemperatura(Tciclo,30,30,0,3); 
0B67E:  MOVFF  68B,72A
0B682:  MOVFF  68A,729
0B686:  MOVFF  689,728
0B68A:  MOVFF  688,727
0B68E:  CALL   2B16
0B692:  MOVFF  02,728
0B696:  MOVFF  01,727
0B69A:  MOVFF  02,72A
0B69E:  MOVFF  01,729
0B6A2:  MOVLW  1E
0B6A4:  MOVLB  7
0B6A6:  MOVWF  x2B
0B6A8:  MOVWF  x2C
0B6AA:  CLRF   x2D
0B6AC:  MOVLW  03
0B6AE:  MOVWF  x2E
0B6B0:  MOVLB  0
0B6B2:  CALL   4942
....................           
....................          visual=0; 
0B6B6:  MOVLB  6
0B6B8:  BCF    xD6.2
....................       } 
....................        
....................          if(UP)//Si oprime hacia arriba 
0B6BA:  BSF    F92.4
0B6BC:  BTFSC  F80.4
0B6BE:  BRA    B758
....................          {   
....................             delay_ms(10); 
0B6C0:  MOVLW  0A
0B6C2:  MOVLB  7
0B6C4:  MOVWF  x2D
0B6C6:  MOVLB  0
0B6C8:  CALL   1796
....................             if(Tciclo>40) 
0B6CC:  MOVLB  7
0B6CE:  CLRF   x2B
0B6D0:  CLRF   x2A
0B6D2:  MOVLW  20
0B6D4:  MOVWF  x29
0B6D6:  MOVLW  84
0B6D8:  MOVWF  x28
0B6DA:  MOVFF  68B,72F
0B6DE:  MOVFF  68A,72E
0B6E2:  MOVFF  689,72D
0B6E6:  MOVFF  688,72C
0B6EA:  MOVLB  0
0B6EC:  CALL   1BCA
0B6F0:  BNC   B714
....................             { 
....................                Tciclo=40;delay_ms(100);visual=1; 
0B6F2:  MOVLB  6
0B6F4:  CLRF   x8B
0B6F6:  CLRF   x8A
0B6F8:  MOVLW  20
0B6FA:  MOVWF  x89
0B6FC:  MOVLW  84
0B6FE:  MOVWF  x88
0B700:  MOVLW  64
0B702:  MOVLB  7
0B704:  MOVWF  x2D
0B706:  MOVLB  0
0B708:  CALL   1796
0B70C:  MOVLB  6
0B70E:  BSF    xD6.2
....................             } 
....................             else 
0B710:  BRA    B758
0B712:  MOVLB  0
....................             { 
....................                delay_ms(30);Tciclo+=1.0;visual=1; 
0B714:  MOVLW  1E
0B716:  MOVLB  7
0B718:  MOVWF  x2D
0B71A:  MOVLB  0
0B71C:  CALL   1796
0B720:  BCF    FD8.1
0B722:  MOVFF  68B,72F
0B726:  MOVFF  68A,72E
0B72A:  MOVFF  689,72D
0B72E:  MOVFF  688,72C
0B732:  MOVLB  7
0B734:  CLRF   x33
0B736:  CLRF   x32
0B738:  CLRF   x31
0B73A:  MOVLW  7F
0B73C:  MOVWF  x30
0B73E:  MOVLB  0
0B740:  CALL   1952
0B744:  MOVFF  03,68B
0B748:  MOVFF  02,68A
0B74C:  MOVFF  01,689
0B750:  MOVFF  00,688
0B754:  MOVLB  6
0B756:  BSF    xD6.2
....................             } 
....................          } 
....................                 
....................          if(DOWN)//Si oprime hacia abajo 
0B758:  BSF    F92.5
0B75A:  BTFSC  F80.5
0B75C:  BRA    B7D2
....................          {   
....................             delay_ms(10); 
0B75E:  MOVLW  0A
0B760:  MOVLB  7
0B762:  MOVWF  x2D
0B764:  MOVLB  0
0B766:  CALL   1796
....................             if(Tciclo>1) 
0B76A:  MOVLB  7
0B76C:  CLRF   x2B
0B76E:  CLRF   x2A
0B770:  CLRF   x29
0B772:  MOVLW  7F
0B774:  MOVWF  x28
0B776:  MOVFF  68B,72F
0B77A:  MOVFF  68A,72E
0B77E:  MOVFF  689,72D
0B782:  MOVFF  688,72C
0B786:  MOVLB  0
0B788:  CALL   1BCA
0B78C:  BNC   B7D4
....................             { 
....................                delay_ms(30);Tciclo-=1.0;visual=1;      
0B78E:  MOVLW  1E
0B790:  MOVLB  7
0B792:  MOVWF  x2D
0B794:  MOVLB  0
0B796:  CALL   1796
0B79A:  BSF    FD8.1
0B79C:  MOVFF  68B,72F
0B7A0:  MOVFF  68A,72E
0B7A4:  MOVFF  689,72D
0B7A8:  MOVFF  688,72C
0B7AC:  MOVLB  7
0B7AE:  CLRF   x33
0B7B0:  CLRF   x32
0B7B2:  CLRF   x31
0B7B4:  MOVLW  7F
0B7B6:  MOVWF  x30
0B7B8:  MOVLB  0
0B7BA:  CALL   1952
0B7BE:  MOVFF  03,68B
0B7C2:  MOVFF  02,68A
0B7C6:  MOVFF  01,689
0B7CA:  MOVFF  00,688
0B7CE:  MOVLB  6
0B7D0:  BSF    xD6.2
0B7D2:  MOVLB  0
....................             } 
....................          } 
....................                 
....................          if(RIGHT)//Si oprime SET 
0B7D4:  BSF    F96.0
0B7D6:  BTFSC  F84.0
0B7D8:  BRA    B7F8
....................          {   
....................             delay_ms(10); 
0B7DA:  MOVLW  0A
0B7DC:  MOVLB  7
0B7DE:  MOVWF  x2D
0B7E0:  MOVLB  0
0B7E2:  CALL   1796
....................             delay_ms(30);visual=1; 
0B7E6:  MOVLW  1E
0B7E8:  MOVLB  7
0B7EA:  MOVWF  x2D
0B7EC:  MOVLB  0
0B7EE:  CALL   1796
0B7F2:  MOVLB  6
0B7F4:  BSF    xD6.2
0B7F6:  MOVLB  0
....................          }  
....................                    
....................          if(LEFT)//Si oprime boton de Toma. 
0B7F8:  BSF    F96.1
0B7FA:  BTFSC  F84.1
0B7FC:  BRA    B880
....................          { 
....................             delay_ms(10); 
0B7FE:  MOVLW  0A
0B800:  MOVLB  7
0B802:  MOVWF  x2D
0B804:  MOVLB  0
0B806:  CALL   1796
....................             delay_ms(700);Menu=100;glcd_fillscreen(OFF);Opcion=1;visual=1; 
0B80A:  MOVLW  04
0B80C:  MOVLB  7
0B80E:  MOVWF  x27
0B810:  MOVLW  AF
0B812:  MOVWF  x2D
0B814:  MOVLB  0
0B816:  CALL   1796
0B81A:  MOVLB  7
0B81C:  DECFSZ x27,F
0B81E:  BRA    B810
0B820:  MOVLW  64
0B822:  MOVLB  6
0B824:  MOVWF  xD8
0B826:  MOVLB  7
0B828:  CLRF   x28
0B82A:  MOVLB  0
0B82C:  CALL   1C7A
0B830:  MOVLW  01
0B832:  MOVLB  6
0B834:  MOVWF  xDE
0B836:  BSF    xD6.2
....................             write_eeprom(25,(int8)Tciclo); 
0B838:  MOVFF  68B,72A
0B83C:  MOVFF  68A,729
0B840:  MOVFF  689,728
0B844:  MOVFF  688,727
0B848:  MOVLB  0
0B84A:  CALL   2B16
0B84E:  MOVFF  01,727
0B852:  CLRF   FAA
0B854:  MOVLW  19
0B856:  MOVWF  FA9
0B858:  MOVFF  727,FA8
0B85C:  BCF    FA6.6
0B85E:  BCF    FA6.7
0B860:  BSF    FA6.2
0B862:  MOVF   FF2,W
0B864:  MOVWF  00
0B866:  BCF    FF2.7
0B868:  MOVLB  F
0B86A:  MOVLW  55
0B86C:  MOVWF  FA7
0B86E:  MOVLW  AA
0B870:  MOVWF  FA7
0B872:  BSF    FA6.1
0B874:  BTFSC  FA6.1
0B876:  BRA    B874
0B878:  BCF    FA6.2
0B87A:  MOVF   00,W
0B87C:  IORWF  FF2,F
0B87E:  MOVLB  0
0B880:  MOVLB  6
....................          } 
....................      } 
.................... //_-------------------------------------------------------------------------------------------------------------------------------------------------------- 
....................  
.................... //_--------------------------------------------------------------------------------------------------------------------------------------------------------       
....................       if(Menu==105){ // Menu de Ajuste de Ajuste+ 
0B882:  MOVF   xD8,W
0B884:  SUBLW  69
0B886:  BTFSS  FD8.2
0B888:  BRA    BA88
....................        
....................       if(Ajuste>100) 
0B88A:  MOVF   x78,W
0B88C:  SUBLW  64
0B88E:  BC    B892
....................       { 
....................          Ajuste=0; 
0B890:  CLRF   x78
....................       } 
....................        
....................       if(visual==1) 
0B892:  BTFSS  xD6.2
0B894:  BRA    B8FE
....................       { 
....................          glcd_fillScreen(OFF); 
0B896:  MOVLB  7
0B898:  CLRF   x28
0B89A:  MOVLB  0
0B89C:  CALL   1C7A
....................          strcpy(Menus.Letra,"Ajuste"); 
0B8A0:  MOVLW  07
0B8A2:  MOVWF  FEA
0B8A4:  MOVLW  03
0B8A6:  MOVWF  FE9
0B8A8:  MOVFF  FF2,727
0B8AC:  BCF    FF2.7
0B8AE:  MOVLW  00
0B8B0:  CALL   151A
0B8B4:  TBLRD*-
0B8B6:  TBLRD*+
0B8B8:  MOVF   FF5,W
0B8BA:  MOVWF  FEE
0B8BC:  IORLW  00
0B8BE:  BNZ   B8B6
0B8C0:  MOVLB  7
0B8C2:  BTFSC  x27.7
0B8C4:  BSF    FF2.7
....................          displayMenu(Menus.Letra,0,0,1,2); 
0B8C6:  MOVLW  07
0B8C8:  MOVWF  x28
0B8CA:  MOVLW  03
0B8CC:  MOVWF  x27
0B8CE:  CLRF   x29
0B8D0:  CLRF   x2A
0B8D2:  MOVLW  01
0B8D4:  MOVWF  x2B
0B8D6:  MOVLW  02
0B8D8:  MOVWF  x2C
0B8DA:  MOVLB  0
0B8DC:  CALL   22A8
....................           
....................          displayTemperatura(Ajuste,30,30,0,3); 
0B8E0:  MOVLB  7
0B8E2:  CLRF   x2A
0B8E4:  MOVFF  678,729
0B8E8:  MOVLW  1E
0B8EA:  MOVWF  x2B
0B8EC:  MOVWF  x2C
0B8EE:  CLRF   x2D
0B8F0:  MOVLW  03
0B8F2:  MOVWF  x2E
0B8F4:  MOVLB  0
0B8F6:  CALL   4942
....................           
....................          visual=0; 
0B8FA:  MOVLB  6
0B8FC:  BCF    xD6.2
....................       } 
....................        
....................          if(UP)//Si oprime hacia arriba 
0B8FE:  BSF    F92.4
0B900:  BTFSC  F80.4
0B902:  BRA    B986
....................          {   
....................             delay_ms(10); 
0B904:  MOVLW  0A
0B906:  MOVLB  7
0B908:  MOVWF  x2D
0B90A:  MOVLB  0
0B90C:  CALL   1796
....................             if(Ajuste>100) 
0B910:  MOVLB  6
0B912:  MOVF   x78,W
0B914:  SUBLW  64
0B916:  BC    B92C
....................             { 
....................                Ajuste=100;delay_ms(100);visual=1; 
0B918:  MOVLW  64
0B91A:  MOVWF  x78
0B91C:  MOVLB  7
0B91E:  MOVWF  x2D
0B920:  MOVLB  0
0B922:  CALL   1796
0B926:  MOVLB  6
0B928:  BSF    xD6.2
....................             } 
....................             else 
0B92A:  BRA    B986
....................             { 
....................                delay_ms(30);Ajuste+=1.0;visual=1; 
0B92C:  MOVLW  1E
0B92E:  MOVLB  7
0B930:  MOVWF  x2D
0B932:  MOVLB  0
0B934:  CALL   1796
0B938:  MOVLB  7
0B93A:  CLRF   x2E
0B93C:  MOVFF  678,72D
0B940:  MOVLB  0
0B942:  CALL   17BE
0B946:  BCF    FD8.1
0B948:  MOVFF  03,72F
0B94C:  MOVFF  02,72E
0B950:  MOVFF  01,72D
0B954:  MOVFF  00,72C
0B958:  MOVLB  7
0B95A:  CLRF   x33
0B95C:  CLRF   x32
0B95E:  CLRF   x31
0B960:  MOVLW  7F
0B962:  MOVWF  x30
0B964:  MOVLB  0
0B966:  CALL   1952
0B96A:  MOVFF  03,72A
0B96E:  MOVFF  02,729
0B972:  MOVFF  01,728
0B976:  MOVFF  00,727
0B97A:  CALL   2B16
0B97E:  MOVFF  01,678
0B982:  MOVLB  6
0B984:  BSF    xD6.2
....................             } 
....................          } 
....................                 
....................          if(DOWN)//Si oprime hacia abajo 
0B986:  BSF    F92.5
0B988:  BTFSC  F80.5
0B98A:  BRA    B9F8
....................          {   
....................             delay_ms(10); 
0B98C:  MOVLW  0A
0B98E:  MOVLB  7
0B990:  MOVWF  x2D
0B992:  MOVLB  0
0B994:  CALL   1796
....................             if(Ajuste>0) 
0B998:  MOVLB  6
0B99A:  MOVF   x78,F
0B99C:  BZ    B9F8
....................             { 
....................                delay_ms(30);Ajuste-=1.0;visual=1;      
0B99E:  MOVLW  1E
0B9A0:  MOVLB  7
0B9A2:  MOVWF  x2D
0B9A4:  MOVLB  0
0B9A6:  CALL   1796
0B9AA:  MOVLB  7
0B9AC:  CLRF   x2E
0B9AE:  MOVFF  678,72D
0B9B2:  MOVLB  0
0B9B4:  CALL   17BE
0B9B8:  BSF    FD8.1
0B9BA:  MOVFF  03,72F
0B9BE:  MOVFF  02,72E
0B9C2:  MOVFF  01,72D
0B9C6:  MOVFF  00,72C
0B9CA:  MOVLB  7
0B9CC:  CLRF   x33
0B9CE:  CLRF   x32
0B9D0:  CLRF   x31
0B9D2:  MOVLW  7F
0B9D4:  MOVWF  x30
0B9D6:  MOVLB  0
0B9D8:  CALL   1952
0B9DC:  MOVFF  03,72A
0B9E0:  MOVFF  02,729
0B9E4:  MOVFF  01,728
0B9E8:  MOVFF  00,727
0B9EC:  CALL   2B16
0B9F0:  MOVFF  01,678
0B9F4:  MOVLB  6
0B9F6:  BSF    xD6.2
....................             } 
....................          } 
....................                 
....................          if(RIGHT)//Si oprime SET 
0B9F8:  BSF    F96.0
0B9FA:  BTFSC  F84.0
0B9FC:  BRA    BA1A
....................          {   
....................             delay_ms(10); 
0B9FE:  MOVLW  0A
0BA00:  MOVLB  7
0BA02:  MOVWF  x2D
0BA04:  MOVLB  0
0BA06:  CALL   1796
....................             delay_ms(30);visual=1; 
0BA0A:  MOVLW  1E
0BA0C:  MOVLB  7
0BA0E:  MOVWF  x2D
0BA10:  MOVLB  0
0BA12:  CALL   1796
0BA16:  MOVLB  6
0BA18:  BSF    xD6.2
....................          }  
....................                    
....................          if(LEFT)//Si oprime boton de Toma. 
0BA1A:  BSF    F96.1
0BA1C:  BTFSC  F84.1
0BA1E:  BRA    BA88
....................          { 
....................             delay_ms(10); 
0BA20:  MOVLW  0A
0BA22:  MOVLB  7
0BA24:  MOVWF  x2D
0BA26:  MOVLB  0
0BA28:  CALL   1796
....................             delay_ms(700);Menu=100;glcd_fillscreen(OFF);Opcion=1;visual=1; 
0BA2C:  MOVLW  04
0BA2E:  MOVLB  7
0BA30:  MOVWF  x27
0BA32:  MOVLW  AF
0BA34:  MOVWF  x2D
0BA36:  MOVLB  0
0BA38:  CALL   1796
0BA3C:  MOVLB  7
0BA3E:  DECFSZ x27,F
0BA40:  BRA    BA32
0BA42:  MOVLW  64
0BA44:  MOVLB  6
0BA46:  MOVWF  xD8
0BA48:  MOVLB  7
0BA4A:  CLRF   x28
0BA4C:  MOVLB  0
0BA4E:  CALL   1C7A
0BA52:  MOVLW  01
0BA54:  MOVLB  6
0BA56:  MOVWF  xDE
0BA58:  BSF    xD6.2
....................             write_eeprom(21,Ajuste); 
0BA5A:  CLRF   FAA
0BA5C:  MOVLW  15
0BA5E:  MOVWF  FA9
0BA60:  MOVFF  678,FA8
0BA64:  BCF    FA6.6
0BA66:  BCF    FA6.7
0BA68:  BSF    FA6.2
0BA6A:  MOVF   FF2,W
0BA6C:  MOVWF  00
0BA6E:  BCF    FF2.7
0BA70:  MOVLB  F
0BA72:  MOVLW  55
0BA74:  MOVWF  FA7
0BA76:  MOVLW  AA
0BA78:  MOVWF  FA7
0BA7A:  BSF    FA6.1
0BA7C:  BTFSC  FA6.1
0BA7E:  BRA    BA7C
0BA80:  BCF    FA6.2
0BA82:  MOVF   00,W
0BA84:  IORWF  FF2,F
0BA86:  MOVLB  6
....................          } 
....................      } 
.................... //_-------------------------------------------------------------------------------------------------------------------------------------------------------- 
....................  
.................... //_--------------------------------------------------------------------------------------------------------------------------------------------------------       
....................       if(Menu==106){ // Menu de Ajuste de Ajuste - 
0BA88:  MOVF   xD8,W
0BA8A:  SUBLW  6A
0BA8C:  BTFSS  FD8.2
0BA8E:  BRA    BC8E
....................        
....................       if(Ajusten>100) 
0BA90:  MOVF   x79,W
0BA92:  SUBLW  64
0BA94:  BC    BA98
....................       { 
....................          Ajusten=0; 
0BA96:  CLRF   x79
....................       } 
....................        
....................       if(visual==1) 
0BA98:  BTFSS  xD6.2
0BA9A:  BRA    BB04
....................       { 
....................          glcd_fillScreen(OFF); 
0BA9C:  MOVLB  7
0BA9E:  CLRF   x28
0BAA0:  MOVLB  0
0BAA2:  CALL   1C7A
....................          strcpy(Menus.Letra,"Ajusten"); 
0BAA6:  MOVLW  07
0BAA8:  MOVWF  FEA
0BAAA:  MOVLW  03
0BAAC:  MOVWF  FE9
0BAAE:  MOVFF  FF2,727
0BAB2:  BCF    FF2.7
0BAB4:  MOVLW  00
0BAB6:  CALL   1540
0BABA:  TBLRD*-
0BABC:  TBLRD*+
0BABE:  MOVF   FF5,W
0BAC0:  MOVWF  FEE
0BAC2:  IORLW  00
0BAC4:  BNZ   BABC
0BAC6:  MOVLB  7
0BAC8:  BTFSC  x27.7
0BACA:  BSF    FF2.7
....................          displayMenu(Menus.Letra,0,0,1,2); 
0BACC:  MOVLW  07
0BACE:  MOVWF  x28
0BAD0:  MOVLW  03
0BAD2:  MOVWF  x27
0BAD4:  CLRF   x29
0BAD6:  CLRF   x2A
0BAD8:  MOVLW  01
0BADA:  MOVWF  x2B
0BADC:  MOVLW  02
0BADE:  MOVWF  x2C
0BAE0:  MOVLB  0
0BAE2:  CALL   22A8
....................           
....................          displayTemperatura(Ajusten,30,30,0,3); 
0BAE6:  MOVLB  7
0BAE8:  CLRF   x2A
0BAEA:  MOVFF  679,729
0BAEE:  MOVLW  1E
0BAF0:  MOVWF  x2B
0BAF2:  MOVWF  x2C
0BAF4:  CLRF   x2D
0BAF6:  MOVLW  03
0BAF8:  MOVWF  x2E
0BAFA:  MOVLB  0
0BAFC:  CALL   4942
....................           
....................          visual=0; 
0BB00:  MOVLB  6
0BB02:  BCF    xD6.2
....................       } 
....................        
....................          if(UP)//Si oprime hacia arriba 
0BB04:  BSF    F92.4
0BB06:  BTFSC  F80.4
0BB08:  BRA    BB8C
....................          {   
....................             delay_ms(10); 
0BB0A:  MOVLW  0A
0BB0C:  MOVLB  7
0BB0E:  MOVWF  x2D
0BB10:  MOVLB  0
0BB12:  CALL   1796
....................             if(Ajusten>100) 
0BB16:  MOVLB  6
0BB18:  MOVF   x79,W
0BB1A:  SUBLW  64
0BB1C:  BC    BB32
....................             { 
....................                Ajusten=100;delay_ms(100);visual=1; 
0BB1E:  MOVLW  64
0BB20:  MOVWF  x79
0BB22:  MOVLB  7
0BB24:  MOVWF  x2D
0BB26:  MOVLB  0
0BB28:  CALL   1796
0BB2C:  MOVLB  6
0BB2E:  BSF    xD6.2
....................             } 
....................             else 
0BB30:  BRA    BB8C
....................             { 
....................                delay_ms(30);Ajusten+=1.0;visual=1; 
0BB32:  MOVLW  1E
0BB34:  MOVLB  7
0BB36:  MOVWF  x2D
0BB38:  MOVLB  0
0BB3A:  CALL   1796
0BB3E:  MOVLB  7
0BB40:  CLRF   x2E
0BB42:  MOVFF  679,72D
0BB46:  MOVLB  0
0BB48:  CALL   17BE
0BB4C:  BCF    FD8.1
0BB4E:  MOVFF  03,72F
0BB52:  MOVFF  02,72E
0BB56:  MOVFF  01,72D
0BB5A:  MOVFF  00,72C
0BB5E:  MOVLB  7
0BB60:  CLRF   x33
0BB62:  CLRF   x32
0BB64:  CLRF   x31
0BB66:  MOVLW  7F
0BB68:  MOVWF  x30
0BB6A:  MOVLB  0
0BB6C:  CALL   1952
0BB70:  MOVFF  03,72A
0BB74:  MOVFF  02,729
0BB78:  MOVFF  01,728
0BB7C:  MOVFF  00,727
0BB80:  CALL   2B16
0BB84:  MOVFF  01,679
0BB88:  MOVLB  6
0BB8A:  BSF    xD6.2
....................             } 
....................          } 
....................                 
....................          if(DOWN)//Si oprime hacia abajo 
0BB8C:  BSF    F92.5
0BB8E:  BTFSC  F80.5
0BB90:  BRA    BBFE
....................          {   
....................             delay_ms(10); 
0BB92:  MOVLW  0A
0BB94:  MOVLB  7
0BB96:  MOVWF  x2D
0BB98:  MOVLB  0
0BB9A:  CALL   1796
....................             if(Ajusten>0) 
0BB9E:  MOVLB  6
0BBA0:  MOVF   x79,F
0BBA2:  BZ    BBFE
....................             { 
....................                delay_ms(30);Ajusten-=1.0;visual=1;      
0BBA4:  MOVLW  1E
0BBA6:  MOVLB  7
0BBA8:  MOVWF  x2D
0BBAA:  MOVLB  0
0BBAC:  CALL   1796
0BBB0:  MOVLB  7
0BBB2:  CLRF   x2E
0BBB4:  MOVFF  679,72D
0BBB8:  MOVLB  0
0BBBA:  CALL   17BE
0BBBE:  BSF    FD8.1
0BBC0:  MOVFF  03,72F
0BBC4:  MOVFF  02,72E
0BBC8:  MOVFF  01,72D
0BBCC:  MOVFF  00,72C
0BBD0:  MOVLB  7
0BBD2:  CLRF   x33
0BBD4:  CLRF   x32
0BBD6:  CLRF   x31
0BBD8:  MOVLW  7F
0BBDA:  MOVWF  x30
0BBDC:  MOVLB  0
0BBDE:  CALL   1952
0BBE2:  MOVFF  03,72A
0BBE6:  MOVFF  02,729
0BBEA:  MOVFF  01,728
0BBEE:  MOVFF  00,727
0BBF2:  CALL   2B16
0BBF6:  MOVFF  01,679
0BBFA:  MOVLB  6
0BBFC:  BSF    xD6.2
....................             } 
....................          } 
....................                 
....................          if(RIGHT)//Si oprime SET 
0BBFE:  BSF    F96.0
0BC00:  BTFSC  F84.0
0BC02:  BRA    BC20
....................          {   
....................             delay_ms(10); 
0BC04:  MOVLW  0A
0BC06:  MOVLB  7
0BC08:  MOVWF  x2D
0BC0A:  MOVLB  0
0BC0C:  CALL   1796
....................             delay_ms(30);visual=1; 
0BC10:  MOVLW  1E
0BC12:  MOVLB  7
0BC14:  MOVWF  x2D
0BC16:  MOVLB  0
0BC18:  CALL   1796
0BC1C:  MOVLB  6
0BC1E:  BSF    xD6.2
....................          }  
....................                    
....................          if(LEFT)//Si oprime boton de Toma. 
0BC20:  BSF    F96.1
0BC22:  BTFSC  F84.1
0BC24:  BRA    BC8E
....................          { 
....................             delay_ms(10); 
0BC26:  MOVLW  0A
0BC28:  MOVLB  7
0BC2A:  MOVWF  x2D
0BC2C:  MOVLB  0
0BC2E:  CALL   1796
....................             delay_ms(700);Menu=100;glcd_fillscreen(OFF);Opcion=1;visual=1; 
0BC32:  MOVLW  04
0BC34:  MOVLB  7
0BC36:  MOVWF  x27
0BC38:  MOVLW  AF
0BC3A:  MOVWF  x2D
0BC3C:  MOVLB  0
0BC3E:  CALL   1796
0BC42:  MOVLB  7
0BC44:  DECFSZ x27,F
0BC46:  BRA    BC38
0BC48:  MOVLW  64
0BC4A:  MOVLB  6
0BC4C:  MOVWF  xD8
0BC4E:  MOVLB  7
0BC50:  CLRF   x28
0BC52:  MOVLB  0
0BC54:  CALL   1C7A
0BC58:  MOVLW  01
0BC5A:  MOVLB  6
0BC5C:  MOVWF  xDE
0BC5E:  BSF    xD6.2
....................             write_eeprom(22,Ajusten); 
0BC60:  CLRF   FAA
0BC62:  MOVLW  16
0BC64:  MOVWF  FA9
0BC66:  MOVFF  679,FA8
0BC6A:  BCF    FA6.6
0BC6C:  BCF    FA6.7
0BC6E:  BSF    FA6.2
0BC70:  MOVF   FF2,W
0BC72:  MOVWF  00
0BC74:  BCF    FF2.7
0BC76:  MOVLB  F
0BC78:  MOVLW  55
0BC7A:  MOVWF  FA7
0BC7C:  MOVLW  AA
0BC7E:  MOVWF  FA7
0BC80:  BSF    FA6.1
0BC82:  BTFSC  FA6.1
0BC84:  BRA    BC82
0BC86:  BCF    FA6.2
0BC88:  MOVF   00,W
0BC8A:  IORWF  FF2,F
0BC8C:  MOVLB  6
....................          } 
....................      } 
.................... //_-------------------------------------------------------------------------------------------------------------------------------------------------------- 
....................  
.................... //_--------------------------------------------------------------------------------------------------------------------------------------------------------       
....................       if(Menu==107){ // Menu de Ajuste de Media Movil 
0BC8E:  MOVF   xD8,W
0BC90:  SUBLW  6B
0BC92:  BTFSS  FD8.2
0BC94:  BRA    BE9A
....................        
....................       if(MediaMovil>80) 
0BC96:  MOVF   x7A,W
0BC98:  SUBLW  50
0BC9A:  BC    BCA0
....................       { 
....................          MediaMovil=10; 
0BC9C:  MOVLW  0A
0BC9E:  MOVWF  x7A
....................       } 
....................        
....................       if(visual==1) 
0BCA0:  BTFSS  xD6.2
0BCA2:  BRA    BD0C
....................       { 
....................          glcd_fillScreen(OFF); 
0BCA4:  MOVLB  7
0BCA6:  CLRF   x28
0BCA8:  MOVLB  0
0BCAA:  CALL   1C7A
....................          strcpy(Menus.Letra,"Media"); 
0BCAE:  MOVLW  07
0BCB0:  MOVWF  FEA
0BCB2:  MOVLW  03
0BCB4:  MOVWF  FE9
0BCB6:  MOVFF  FF2,727
0BCBA:  BCF    FF2.7
0BCBC:  MOVLW  00
0BCBE:  CALL   1566
0BCC2:  TBLRD*-
0BCC4:  TBLRD*+
0BCC6:  MOVF   FF5,W
0BCC8:  MOVWF  FEE
0BCCA:  IORLW  00
0BCCC:  BNZ   BCC4
0BCCE:  MOVLB  7
0BCD0:  BTFSC  x27.7
0BCD2:  BSF    FF2.7
....................          displayMenu(Menus.Letra,0,0,1,2); 
0BCD4:  MOVLW  07
0BCD6:  MOVWF  x28
0BCD8:  MOVLW  03
0BCDA:  MOVWF  x27
0BCDC:  CLRF   x29
0BCDE:  CLRF   x2A
0BCE0:  MOVLW  01
0BCE2:  MOVWF  x2B
0BCE4:  MOVLW  02
0BCE6:  MOVWF  x2C
0BCE8:  MOVLB  0
0BCEA:  CALL   22A8
....................           
....................          displayTemperatura(MediaMovil,30,30,0,3); 
0BCEE:  MOVLB  7
0BCF0:  CLRF   x2A
0BCF2:  MOVFF  67A,729
0BCF6:  MOVLW  1E
0BCF8:  MOVWF  x2B
0BCFA:  MOVWF  x2C
0BCFC:  CLRF   x2D
0BCFE:  MOVLW  03
0BD00:  MOVWF  x2E
0BD02:  MOVLB  0
0BD04:  CALL   4942
....................           
....................          visual=0; 
0BD08:  MOVLB  6
0BD0A:  BCF    xD6.2
....................       } 
....................        
....................          if(UP)//Si oprime hacia arriba 
0BD0C:  BSF    F92.4
0BD0E:  BTFSC  F80.4
0BD10:  BRA    BD96
....................          {   
....................             delay_ms(10); 
0BD12:  MOVLW  0A
0BD14:  MOVLB  7
0BD16:  MOVWF  x2D
0BD18:  MOVLB  0
0BD1A:  CALL   1796
....................             if(MediaMovil>79) 
0BD1E:  MOVLB  6
0BD20:  MOVF   x7A,W
0BD22:  SUBLW  4F
0BD24:  BC    BD3C
....................             { 
....................                MediaMovil=79;delay_ms(100);visual=1; 
0BD26:  MOVLW  4F
0BD28:  MOVWF  x7A
0BD2A:  MOVLW  64
0BD2C:  MOVLB  7
0BD2E:  MOVWF  x2D
0BD30:  MOVLB  0
0BD32:  CALL   1796
0BD36:  MOVLB  6
0BD38:  BSF    xD6.2
....................             } 
....................             else 
0BD3A:  BRA    BD96
....................             { 
....................                delay_ms(30);MediaMovil+=1.0;visual=1; 
0BD3C:  MOVLW  1E
0BD3E:  MOVLB  7
0BD40:  MOVWF  x2D
0BD42:  MOVLB  0
0BD44:  CALL   1796
0BD48:  MOVLB  7
0BD4A:  CLRF   x2E
0BD4C:  MOVFF  67A,72D
0BD50:  MOVLB  0
0BD52:  CALL   17BE
0BD56:  BCF    FD8.1
0BD58:  MOVFF  03,72F
0BD5C:  MOVFF  02,72E
0BD60:  MOVFF  01,72D
0BD64:  MOVFF  00,72C
0BD68:  MOVLB  7
0BD6A:  CLRF   x33
0BD6C:  CLRF   x32
0BD6E:  CLRF   x31
0BD70:  MOVLW  7F
0BD72:  MOVWF  x30
0BD74:  MOVLB  0
0BD76:  CALL   1952
0BD7A:  MOVFF  03,72A
0BD7E:  MOVFF  02,729
0BD82:  MOVFF  01,728
0BD86:  MOVFF  00,727
0BD8A:  CALL   2B16
0BD8E:  MOVFF  01,67A
0BD92:  MOVLB  6
0BD94:  BSF    xD6.2
....................             } 
....................          } 
....................                 
....................          if(DOWN)//Si oprime hacia abajo 
0BD96:  BSF    F92.5
0BD98:  BTFSC  F80.5
0BD9A:  BRA    BE0A
....................          {   
....................             delay_ms(10); 
0BD9C:  MOVLW  0A
0BD9E:  MOVLB  7
0BDA0:  MOVWF  x2D
0BDA2:  MOVLB  0
0BDA4:  CALL   1796
....................             if(MediaMovil>1) 
0BDA8:  MOVLB  6
0BDAA:  MOVF   x7A,W
0BDAC:  SUBLW  01
0BDAE:  BC    BE0A
....................             { 
....................                delay_ms(30);MediaMovil-=1.0;visual=1;      
0BDB0:  MOVLW  1E
0BDB2:  MOVLB  7
0BDB4:  MOVWF  x2D
0BDB6:  MOVLB  0
0BDB8:  CALL   1796
0BDBC:  MOVLB  7
0BDBE:  CLRF   x2E
0BDC0:  MOVFF  67A,72D
0BDC4:  MOVLB  0
0BDC6:  CALL   17BE
0BDCA:  BSF    FD8.1
0BDCC:  MOVFF  03,72F
0BDD0:  MOVFF  02,72E
0BDD4:  MOVFF  01,72D
0BDD8:  MOVFF  00,72C
0BDDC:  MOVLB  7
0BDDE:  CLRF   x33
0BDE0:  CLRF   x32
0BDE2:  CLRF   x31
0BDE4:  MOVLW  7F
0BDE6:  MOVWF  x30
0BDE8:  MOVLB  0
0BDEA:  CALL   1952
0BDEE:  MOVFF  03,72A
0BDF2:  MOVFF  02,729
0BDF6:  MOVFF  01,728
0BDFA:  MOVFF  00,727
0BDFE:  CALL   2B16
0BE02:  MOVFF  01,67A
0BE06:  MOVLB  6
0BE08:  BSF    xD6.2
....................             } 
....................          } 
....................                 
....................          if(RIGHT)//Si oprime SET 
0BE0A:  BSF    F96.0
0BE0C:  BTFSC  F84.0
0BE0E:  BRA    BE2C
....................          {   
....................             delay_ms(10); 
0BE10:  MOVLW  0A
0BE12:  MOVLB  7
0BE14:  MOVWF  x2D
0BE16:  MOVLB  0
0BE18:  CALL   1796
....................             delay_ms(30);visual=1; 
0BE1C:  MOVLW  1E
0BE1E:  MOVLB  7
0BE20:  MOVWF  x2D
0BE22:  MOVLB  0
0BE24:  CALL   1796
0BE28:  MOVLB  6
0BE2A:  BSF    xD6.2
....................          }  
....................                    
....................          if(LEFT)//Si oprime boton de Toma. 
0BE2C:  BSF    F96.1
0BE2E:  BTFSC  F84.1
0BE30:  BRA    BE9A
....................          { 
....................             delay_ms(10); 
0BE32:  MOVLW  0A
0BE34:  MOVLB  7
0BE36:  MOVWF  x2D
0BE38:  MOVLB  0
0BE3A:  CALL   1796
....................             delay_ms(700);Menu=100;glcd_fillscreen(OFF);Opcion=1;visual=1; 
0BE3E:  MOVLW  04
0BE40:  MOVLB  7
0BE42:  MOVWF  x27
0BE44:  MOVLW  AF
0BE46:  MOVWF  x2D
0BE48:  MOVLB  0
0BE4A:  CALL   1796
0BE4E:  MOVLB  7
0BE50:  DECFSZ x27,F
0BE52:  BRA    BE44
0BE54:  MOVLW  64
0BE56:  MOVLB  6
0BE58:  MOVWF  xD8
0BE5A:  MOVLB  7
0BE5C:  CLRF   x28
0BE5E:  MOVLB  0
0BE60:  CALL   1C7A
0BE64:  MOVLW  01
0BE66:  MOVLB  6
0BE68:  MOVWF  xDE
0BE6A:  BSF    xD6.2
....................             write_eeprom(24,(int8)MediaMovil); 
0BE6C:  CLRF   FAA
0BE6E:  MOVLW  18
0BE70:  MOVWF  FA9
0BE72:  MOVFF  67A,FA8
0BE76:  BCF    FA6.6
0BE78:  BCF    FA6.7
0BE7A:  BSF    FA6.2
0BE7C:  MOVF   FF2,W
0BE7E:  MOVWF  00
0BE80:  BCF    FF2.7
0BE82:  MOVLB  F
0BE84:  MOVLW  55
0BE86:  MOVWF  FA7
0BE88:  MOVLW  AA
0BE8A:  MOVWF  FA7
0BE8C:  BSF    FA6.1
0BE8E:  BTFSC  FA6.1
0BE90:  BRA    BE8E
0BE92:  BCF    FA6.2
0BE94:  MOVF   00,W
0BE96:  IORWF  FF2,F
0BE98:  MOVLB  6
....................          } 
....................      } 
.................... //_-------------------------------------------------------------------------------------------------------------------------------------------------------- 
....................  
.................... //_--------------------------------------------------------------------------------------------------------------------------------------------------------       
....................       if(Menu==108){ // Menu de Ganancia Instrumentacion 
0BE9A:  MOVF   xD8,W
0BE9C:  SUBLW  6C
0BE9E:  BTFSS  FD8.2
0BEA0:  BRA    C18C
....................        
....................       if(Gain>50 || Gain<30) 
0BEA2:  MOVLB  7
0BEA4:  CLRF   x2B
0BEA6:  CLRF   x2A
0BEA8:  MOVLW  48
0BEAA:  MOVWF  x29
0BEAC:  MOVLW  84
0BEAE:  MOVWF  x28
0BEB0:  MOVFF  659,72F
0BEB4:  MOVFF  658,72E
0BEB8:  MOVFF  657,72D
0BEBC:  MOVFF  656,72C
0BEC0:  MOVLB  0
0BEC2:  CALL   1BCA
0BEC6:  BC    BEEE
0BEC8:  MOVFF  659,72B
0BECC:  MOVFF  658,72A
0BED0:  MOVFF  657,729
0BED4:  MOVFF  656,728
0BED8:  MOVLB  7
0BEDA:  CLRF   x2F
0BEDC:  CLRF   x2E
0BEDE:  MOVLW  70
0BEE0:  MOVWF  x2D
0BEE2:  MOVLW  83
0BEE4:  MOVWF  x2C
0BEE6:  MOVLB  0
0BEE8:  CALL   1BCA
0BEEC:  BNC   BEFE
....................       { 
....................          Gain=40; 
0BEEE:  MOVLB  6
0BEF0:  CLRF   x59
0BEF2:  CLRF   x58
0BEF4:  MOVLW  20
0BEF6:  MOVWF  x57
0BEF8:  MOVLW  84
0BEFA:  MOVWF  x56
0BEFC:  MOVLB  0
....................       } 
....................          strcpy(Menus.Letra,"Ganancia"); 
0BEFE:  MOVLW  07
0BF00:  MOVWF  FEA
0BF02:  MOVLW  03
0BF04:  MOVWF  FE9
0BF06:  MOVFF  FF2,727
0BF0A:  BCF    FF2.7
0BF0C:  MOVLW  00
0BF0E:  CALL   158A
0BF12:  TBLRD*-
0BF14:  TBLRD*+
0BF16:  MOVF   FF5,W
0BF18:  MOVWF  FEE
0BF1A:  IORLW  00
0BF1C:  BNZ   BF14
0BF1E:  MOVLB  7
0BF20:  BTFSC  x27.7
0BF22:  BSF    FF2.7
....................          displayMenu(Menus.Letra,0,0,1,2); 
0BF24:  MOVLW  07
0BF26:  MOVWF  x28
0BF28:  MOVLW  03
0BF2A:  MOVWF  x27
0BF2C:  CLRF   x29
0BF2E:  CLRF   x2A
0BF30:  MOVLW  01
0BF32:  MOVWF  x2B
0BF34:  MOVLW  02
0BF36:  MOVWF  x2C
0BF38:  MOVLB  0
0BF3A:  CALL   22A8
....................           
....................          displayTT(Gain,30,30,2); 
0BF3E:  MOVFF  659,72A
0BF42:  MOVFF  658,729
0BF46:  MOVFF  657,728
0BF4A:  MOVFF  656,727
0BF4E:  MOVLW  1E
0BF50:  MOVLB  7
0BF52:  MOVWF  x2B
0BF54:  MOVWF  x2C
0BF56:  MOVLW  02
0BF58:  MOVWF  x2D
0BF5A:  MOVLB  0
0BF5C:  CALL   480C
....................  
....................        
....................          if(UP)//Si oprime hacia arriba 
0BF60:  BSF    F92.4
0BF62:  BTFSC  F80.4
0BF64:  BRA    BFAC
....................          {   
....................             delay_ms(10); 
0BF66:  MOVLW  0A
0BF68:  MOVLB  7
0BF6A:  MOVWF  x2D
0BF6C:  MOVLB  0
0BF6E:  CALL   1796
....................             Gain+=0.1; 
0BF72:  BCF    FD8.1
0BF74:  MOVFF  659,72F
0BF78:  MOVFF  658,72E
0BF7C:  MOVFF  657,72D
0BF80:  MOVFF  656,72C
0BF84:  MOVLW  CD
0BF86:  MOVLB  7
0BF88:  MOVWF  x33
0BF8A:  MOVLW  CC
0BF8C:  MOVWF  x32
0BF8E:  MOVLW  4C
0BF90:  MOVWF  x31
0BF92:  MOVLW  7B
0BF94:  MOVWF  x30
0BF96:  MOVLB  0
0BF98:  CALL   1952
0BF9C:  MOVFF  03,659
0BFA0:  MOVFF  02,658
0BFA4:  MOVFF  01,657
0BFA8:  MOVFF  00,656
....................          } 
....................                 
....................          if(DOWN)//Si oprime hacia abajo 
0BFAC:  BSF    F92.5
0BFAE:  BTFSC  F80.5
0BFB0:  BRA    BFF8
....................          {   
....................             delay_ms(10); 
0BFB2:  MOVLW  0A
0BFB4:  MOVLB  7
0BFB6:  MOVWF  x2D
0BFB8:  MOVLB  0
0BFBA:  CALL   1796
....................             Gain-=0.1; 
0BFBE:  BSF    FD8.1
0BFC0:  MOVFF  659,72F
0BFC4:  MOVFF  658,72E
0BFC8:  MOVFF  657,72D
0BFCC:  MOVFF  656,72C
0BFD0:  MOVLW  CD
0BFD2:  MOVLB  7
0BFD4:  MOVWF  x33
0BFD6:  MOVLW  CC
0BFD8:  MOVWF  x32
0BFDA:  MOVLW  4C
0BFDC:  MOVWF  x31
0BFDE:  MOVLW  7B
0BFE0:  MOVWF  x30
0BFE2:  MOVLB  0
0BFE4:  CALL   1952
0BFE8:  MOVFF  03,659
0BFEC:  MOVFF  02,658
0BFF0:  MOVFF  01,657
0BFF4:  MOVFF  00,656
....................          } 
....................                 
....................          if(RIGHT)//Si oprime SET 
0BFF8:  BSF    F96.0
0BFFA:  BTFSC  F84.0
0BFFC:  BRA    C01C
....................          {   
....................             delay_ms(10); 
0BFFE:  MOVLW  0A
0C000:  MOVLB  7
0C002:  MOVWF  x2D
0C004:  MOVLB  0
0C006:  CALL   1796
....................             delay_ms(30);visual=1; 
0C00A:  MOVLW  1E
0C00C:  MOVLB  7
0C00E:  MOVWF  x2D
0C010:  MOVLB  0
0C012:  CALL   1796
0C016:  MOVLB  6
0C018:  BSF    xD6.2
0C01A:  MOVLB  0
....................          }  
....................                    
....................          if(LEFT)//Si oprime boton de Toma. 
0C01C:  BSF    F96.1
0C01E:  BTFSC  F84.1
0C020:  BRA    C18A
....................          { 
....................             delay_ms(10); 
0C022:  MOVLW  0A
0C024:  MOVLB  7
0C026:  MOVWF  x2D
0C028:  MOVLB  0
0C02A:  CALL   1796
....................             delay_ms(700);Menu=100;glcd_fillscreen(OFF);Opcion=1;visual=1; 
0C02E:  MOVLW  04
0C030:  MOVLB  7
0C032:  MOVWF  x27
0C034:  MOVLW  AF
0C036:  MOVWF  x2D
0C038:  MOVLB  0
0C03A:  CALL   1796
0C03E:  MOVLB  7
0C040:  DECFSZ x27,F
0C042:  BRA    C034
0C044:  MOVLW  64
0C046:  MOVLB  6
0C048:  MOVWF  xD8
0C04A:  MOVLB  7
0C04C:  CLRF   x28
0C04E:  MOVLB  0
0C050:  CALL   1C7A
0C054:  MOVLW  01
0C056:  MOVLB  6
0C058:  MOVWF  xDE
0C05A:  BSF    xD6.2
....................             write_eeprom(28,(int8)Gain); 
0C05C:  MOVFF  659,72A
0C060:  MOVFF  658,729
0C064:  MOVFF  657,728
0C068:  MOVFF  656,727
0C06C:  MOVLB  0
0C06E:  CALL   2B16
0C072:  MOVFF  01,727
0C076:  CLRF   FAA
0C078:  MOVLW  1C
0C07A:  MOVWF  FA9
0C07C:  MOVFF  727,FA8
0C080:  BCF    FA6.6
0C082:  BCF    FA6.7
0C084:  BSF    FA6.2
0C086:  MOVF   FF2,W
0C088:  MOVWF  00
0C08A:  BCF    FF2.7
0C08C:  MOVLB  F
0C08E:  MOVLW  55
0C090:  MOVWF  FA7
0C092:  MOVLW  AA
0C094:  MOVWF  FA7
0C096:  BSF    FA6.1
0C098:  BTFSC  FA6.1
0C09A:  BRA    C098
0C09C:  BCF    FA6.2
0C09E:  MOVF   00,W
0C0A0:  IORWF  FF2,F
....................             delay_ms(10); 
0C0A2:  MOVLW  0A
0C0A4:  MOVLB  7
0C0A6:  MOVWF  x2D
0C0A8:  MOVLB  0
0C0AA:  CALL   1796
....................             Temporal=Gain-((int8)Gain); 
0C0AE:  MOVFF  659,72A
0C0B2:  MOVFF  658,729
0C0B6:  MOVFF  657,728
0C0BA:  MOVFF  656,727
0C0BE:  CALL   2B16
0C0C2:  MOVLB  7
0C0C4:  CLRF   x2E
0C0C6:  MOVFF  01,72D
0C0CA:  MOVLB  0
0C0CC:  CALL   17BE
0C0D0:  BSF    FD8.1
0C0D2:  MOVFF  659,72F
0C0D6:  MOVFF  658,72E
0C0DA:  MOVFF  657,72D
0C0DE:  MOVFF  656,72C
0C0E2:  MOVFF  03,733
0C0E6:  MOVFF  02,732
0C0EA:  MOVFF  01,731
0C0EE:  MOVFF  00,730
0C0F2:  CALL   1952
0C0F6:  MOVFF  03,661
0C0FA:  MOVFF  02,660
0C0FE:  MOVFF  01,65F
0C102:  MOVFF  00,65E
....................             Temporal=Temporal*10; 
0C106:  MOVFF  661,74B
0C10A:  MOVFF  660,74A
0C10E:  MOVFF  65F,749
0C112:  MOVFF  65E,748
0C116:  MOVLB  7
0C118:  CLRF   x4F
0C11A:  CLRF   x4E
0C11C:  MOVLW  20
0C11E:  MOVWF  x4D
0C120:  MOVLW  82
0C122:  MOVWF  x4C
0C124:  MOVLB  0
0C126:  CALL   266C
0C12A:  MOVFF  03,661
0C12E:  MOVFF  02,660
0C132:  MOVFF  01,65F
0C136:  MOVFF  00,65E
....................             write_eeprom(29,(int8)Temporal); 
0C13A:  MOVFF  661,72A
0C13E:  MOVFF  660,729
0C142:  MOVFF  65F,728
0C146:  MOVFF  65E,727
0C14A:  CALL   2B16
0C14E:  MOVFF  01,727
0C152:  CLRF   FAA
0C154:  MOVLW  1D
0C156:  MOVWF  FA9
0C158:  MOVFF  727,FA8
0C15C:  BCF    FA6.6
0C15E:  BCF    FA6.7
0C160:  BSF    FA6.2
0C162:  MOVF   FF2,W
0C164:  MOVWF  00
0C166:  BCF    FF2.7
0C168:  MOVLB  F
0C16A:  MOVLW  55
0C16C:  MOVWF  FA7
0C16E:  MOVLW  AA
0C170:  MOVWF  FA7
0C172:  BSF    FA6.1
0C174:  BTFSC  FA6.1
0C176:  BRA    C174
0C178:  BCF    FA6.2
0C17A:  MOVF   00,W
0C17C:  IORWF  FF2,F
....................             delay_ms(10); 
0C17E:  MOVLW  0A
0C180:  MOVLB  7
0C182:  MOVWF  x2D
0C184:  MOVLB  0
0C186:  CALL   1796
0C18A:  MOVLB  6
....................          } 
....................      } 
.................... //_-------------------------------------------------------------------------------------------------------------------------------------------------------- 
....................  
.................... //_--------------------------------------------------------------------------------------------------------------------------------------------------------       
....................       if(Menu==109){ // Menu de Ajuste R1 
0C18C:  MOVF   xD8,W
0C18E:  SUBLW  6D
0C190:  BTFSS  FD8.2
0C192:  BRA    C42C
....................        
....................       if(R1>6400 || R1<6000) 
0C194:  MOVLB  7
0C196:  CLRF   x2B
0C198:  CLRF   x2A
0C19A:  MOVLW  48
0C19C:  MOVWF  x29
0C19E:  MOVLW  8B
0C1A0:  MOVWF  x28
0C1A2:  MOVFF  683,72F
0C1A6:  MOVFF  682,72E
0C1AA:  MOVFF  681,72D
0C1AE:  MOVFF  680,72C
0C1B2:  MOVLB  0
0C1B4:  CALL   1BCA
0C1B8:  BC    C1E2
0C1BA:  MOVFF  683,72B
0C1BE:  MOVFF  682,72A
0C1C2:  MOVFF  681,729
0C1C6:  MOVFF  680,728
0C1CA:  MOVLB  7
0C1CC:  CLRF   x2F
0C1CE:  MOVLW  80
0C1D0:  MOVWF  x2E
0C1D2:  MOVLW  3B
0C1D4:  MOVWF  x2D
0C1D6:  MOVLW  8B
0C1D8:  MOVWF  x2C
0C1DA:  MOVLB  0
0C1DC:  CALL   1BCA
0C1E0:  BNC   C1F4
....................       { 
....................          R1=6200; 
0C1E2:  MOVLB  6
0C1E4:  CLRF   x83
0C1E6:  MOVLW  C0
0C1E8:  MOVWF  x82
0C1EA:  MOVLW  41
0C1EC:  MOVWF  x81
0C1EE:  MOVLW  8B
0C1F0:  MOVWF  x80
0C1F2:  MOVLB  0
....................       } 
....................  
....................          strcpy(Menus.Letra,"R51"); 
0C1F4:  MOVLW  07
0C1F6:  MOVWF  FEA
0C1F8:  MOVLW  03
0C1FA:  MOVWF  FE9
0C1FC:  MOVFF  FF2,727
0C200:  BCF    FF2.7
0C202:  MOVLW  00
0C204:  CALL   15B2
0C208:  TBLRD*-
0C20A:  TBLRD*+
0C20C:  MOVF   FF5,W
0C20E:  MOVWF  FEE
0C210:  IORLW  00
0C212:  BNZ   C20A
0C214:  MOVLB  7
0C216:  BTFSC  x27.7
0C218:  BSF    FF2.7
....................          displayMenu(Menus.Letra,0,0,1,2); 
0C21A:  MOVLW  07
0C21C:  MOVWF  x28
0C21E:  MOVLW  03
0C220:  MOVWF  x27
0C222:  CLRF   x29
0C224:  CLRF   x2A
0C226:  MOVLW  01
0C228:  MOVWF  x2B
0C22A:  MOVLW  02
0C22C:  MOVWF  x2C
0C22E:  MOVLB  0
0C230:  CALL   22A8
....................           
....................          displayTemperatura(R1,30,30,0,3); 
0C234:  MOVFF  683,72A
0C238:  MOVFF  682,729
0C23C:  MOVFF  681,728
0C240:  MOVFF  680,727
0C244:  CALL   2B16
0C248:  MOVFF  02,728
0C24C:  MOVFF  01,727
0C250:  MOVFF  02,72A
0C254:  MOVFF  01,729
0C258:  MOVLW  1E
0C25A:  MOVLB  7
0C25C:  MOVWF  x2B
0C25E:  MOVWF  x2C
0C260:  CLRF   x2D
0C262:  MOVLW  03
0C264:  MOVWF  x2E
0C266:  MOVLB  0
0C268:  CALL   4942
....................  
....................          if(UP)//Si oprime hacia arriba 
0C26C:  BSF    F92.4
0C26E:  BTFSC  F80.4
0C270:  BRA    C2BC
....................          {   
....................             delay_ms(10); 
0C272:  MOVLW  0A
0C274:  MOVLB  7
0C276:  MOVWF  x2D
0C278:  MOVLB  0
0C27A:  CALL   1796
....................             R1+=1.0; 
0C27E:  BCF    FD8.1
0C280:  MOVFF  683,72F
0C284:  MOVFF  682,72E
0C288:  MOVFF  681,72D
0C28C:  MOVFF  680,72C
0C290:  MOVLB  7
0C292:  CLRF   x33
0C294:  CLRF   x32
0C296:  CLRF   x31
0C298:  MOVLW  7F
0C29A:  MOVWF  x30
0C29C:  MOVLB  0
0C29E:  CALL   1952
0C2A2:  MOVFF  03,683
0C2A6:  MOVFF  02,682
0C2AA:  MOVFF  01,681
0C2AE:  MOVFF  00,680
....................             glcd_fillscreen(OFF); 
0C2B2:  MOVLB  7
0C2B4:  CLRF   x28
0C2B6:  MOVLB  0
0C2B8:  CALL   1C7A
....................          } 
....................                 
....................          if(DOWN)//Si oprime hacia abajo 
0C2BC:  BSF    F92.5
0C2BE:  BTFSC  F80.5
0C2C0:  BRA    C30C
....................          {   
....................             delay_ms(10); 
0C2C2:  MOVLW  0A
0C2C4:  MOVLB  7
0C2C6:  MOVWF  x2D
0C2C8:  MOVLB  0
0C2CA:  CALL   1796
....................             R1-=1.0; 
0C2CE:  BSF    FD8.1
0C2D0:  MOVFF  683,72F
0C2D4:  MOVFF  682,72E
0C2D8:  MOVFF  681,72D
0C2DC:  MOVFF  680,72C
0C2E0:  MOVLB  7
0C2E2:  CLRF   x33
0C2E4:  CLRF   x32
0C2E6:  CLRF   x31
0C2E8:  MOVLW  7F
0C2EA:  MOVWF  x30
0C2EC:  MOVLB  0
0C2EE:  CALL   1952
0C2F2:  MOVFF  03,683
0C2F6:  MOVFF  02,682
0C2FA:  MOVFF  01,681
0C2FE:  MOVFF  00,680
....................             glcd_fillscreen(OFF); 
0C302:  MOVLB  7
0C304:  CLRF   x28
0C306:  MOVLB  0
0C308:  CALL   1C7A
....................          } 
....................                 
....................          if(RIGHT)//Si oprime SET 
0C30C:  BSF    F96.0
0C30E:  BTFSC  F84.0
0C310:  BRA    C338
....................          {   
....................             delay_ms(10); 
0C312:  MOVLW  0A
0C314:  MOVLB  7
0C316:  MOVWF  x2D
0C318:  MOVLB  0
0C31A:  CALL   1796
....................             delay_ms(30);visual=1; 
0C31E:  MOVLW  1E
0C320:  MOVLB  7
0C322:  MOVWF  x2D
0C324:  MOVLB  0
0C326:  CALL   1796
0C32A:  MOVLB  6
0C32C:  BSF    xD6.2
....................             glcd_fillscreen(OFF); 
0C32E:  MOVLB  7
0C330:  CLRF   x28
0C332:  MOVLB  0
0C334:  CALL   1C7A
....................          }  
....................                    
....................          if(LEFT)//Si oprime boton de Toma. 
0C338:  BSF    F96.1
0C33A:  BTFSC  F84.1
0C33C:  BRA    C42A
....................          { 
....................             delay_ms(10); 
0C33E:  MOVLW  0A
0C340:  MOVLB  7
0C342:  MOVWF  x2D
0C344:  MOVLB  0
0C346:  CALL   1796
....................             delay_ms(700);Menu=100;glcd_fillscreen(OFF);Opcion=1;visual=1; 
0C34A:  MOVLW  04
0C34C:  MOVLB  7
0C34E:  MOVWF  x27
0C350:  MOVLW  AF
0C352:  MOVWF  x2D
0C354:  MOVLB  0
0C356:  CALL   1796
0C35A:  MOVLB  7
0C35C:  DECFSZ x27,F
0C35E:  BRA    C350
0C360:  MOVLW  64
0C362:  MOVLB  6
0C364:  MOVWF  xD8
0C366:  MOVLB  7
0C368:  CLRF   x28
0C36A:  MOVLB  0
0C36C:  CALL   1C7A
0C370:  MOVLW  01
0C372:  MOVLB  6
0C374:  MOVWF  xDE
0C376:  BSF    xD6.2
....................             write_eeprom(30,make8((int16)R1,0)); 
0C378:  MOVFF  683,72A
0C37C:  MOVFF  682,729
0C380:  MOVFF  681,728
0C384:  MOVFF  680,727
0C388:  MOVLB  0
0C38A:  CALL   2B16
0C38E:  MOVFF  02,728
0C392:  MOVFF  01,727
0C396:  MOVFF  727,729
0C39A:  CLRF   FAA
0C39C:  MOVLW  1E
0C39E:  MOVWF  FA9
0C3A0:  MOVFF  729,FA8
0C3A4:  BCF    FA6.6
0C3A6:  BCF    FA6.7
0C3A8:  BSF    FA6.2
0C3AA:  MOVF   FF2,W
0C3AC:  MOVWF  00
0C3AE:  BCF    FF2.7
0C3B0:  MOVLB  F
0C3B2:  MOVLW  55
0C3B4:  MOVWF  FA7
0C3B6:  MOVLW  AA
0C3B8:  MOVWF  FA7
0C3BA:  BSF    FA6.1
0C3BC:  BTFSC  FA6.1
0C3BE:  BRA    C3BC
0C3C0:  BCF    FA6.2
0C3C2:  MOVF   00,W
0C3C4:  IORWF  FF2,F
....................             delay_ms(10); 
0C3C6:  MOVLW  0A
0C3C8:  MOVLB  7
0C3CA:  MOVWF  x2D
0C3CC:  MOVLB  0
0C3CE:  CALL   1796
....................             write_eeprom(31,make8((int16)R1,1)); 
0C3D2:  MOVFF  683,72A
0C3D6:  MOVFF  682,729
0C3DA:  MOVFF  681,728
0C3DE:  MOVFF  680,727
0C3E2:  CALL   2B16
0C3E6:  MOVFF  02,728
0C3EA:  MOVFF  01,727
0C3EE:  MOVFF  728,729
0C3F2:  CLRF   FAA
0C3F4:  MOVLW  1F
0C3F6:  MOVWF  FA9
0C3F8:  MOVFF  729,FA8
0C3FC:  BCF    FA6.6
0C3FE:  BCF    FA6.7
0C400:  BSF    FA6.2
0C402:  MOVF   FF2,W
0C404:  MOVWF  00
0C406:  BCF    FF2.7
0C408:  MOVLB  F
0C40A:  MOVLW  55
0C40C:  MOVWF  FA7
0C40E:  MOVLW  AA
0C410:  MOVWF  FA7
0C412:  BSF    FA6.1
0C414:  BTFSC  FA6.1
0C416:  BRA    C414
0C418:  BCF    FA6.2
0C41A:  MOVF   00,W
0C41C:  IORWF  FF2,F
....................             delay_ms(10); 
0C41E:  MOVLW  0A
0C420:  MOVLB  7
0C422:  MOVWF  x2D
0C424:  MOVLB  0
0C426:  CALL   1796
0C42A:  MOVLB  6
....................          } 
....................      } 
.................... //_-------------------------------------------------------------------------------------------------------------------------------------------------------- 
....................  
.................... //_--------------------------------------------------------------------------------------------------------------------------------------------------------       
....................       if(Menu==110){ // Menu de Ajuste RPT100 
0C42C:  MOVF   xD8,W
0C42E:  SUBLW  6E
0C430:  BTFSS  FD8.2
0C432:  BRA    C710
....................        
....................       if(RPT100>2.0) 
0C434:  MOVLB  7
0C436:  CLRF   x2B
0C438:  CLRF   x2A
0C43A:  CLRF   x29
0C43C:  MOVLW  80
0C43E:  MOVWF  x28
0C440:  MOVFF  65D,72F
0C444:  MOVFF  65C,72E
0C448:  MOVFF  65B,72D
0C44C:  MOVFF  65A,72C
0C450:  MOVLB  0
0C452:  CALL   1BCA
0C456:  BNC   C466
....................       { 
....................          RPT100=0.5; 
0C458:  MOVLB  6
0C45A:  CLRF   x5D
0C45C:  CLRF   x5C
0C45E:  CLRF   x5B
0C460:  MOVLW  7E
0C462:  MOVWF  x5A
0C464:  MOVLB  0
....................       } 
....................  
....................          strcpy(Menus.Letra,"RPT100"); 
0C466:  MOVLW  07
0C468:  MOVWF  FEA
0C46A:  MOVLW  03
0C46C:  MOVWF  FE9
0C46E:  MOVFF  FF2,727
0C472:  BCF    FF2.7
0C474:  MOVLW  00
0C476:  CALL   15D4
0C47A:  TBLRD*-
0C47C:  TBLRD*+
0C47E:  MOVF   FF5,W
0C480:  MOVWF  FEE
0C482:  IORLW  00
0C484:  BNZ   C47C
0C486:  MOVLB  7
0C488:  BTFSC  x27.7
0C48A:  BSF    FF2.7
....................          displayMenu(Menus.Letra,0,0,1,2); 
0C48C:  MOVLW  07
0C48E:  MOVWF  x28
0C490:  MOVLW  03
0C492:  MOVWF  x27
0C494:  CLRF   x29
0C496:  CLRF   x2A
0C498:  MOVLW  01
0C49A:  MOVWF  x2B
0C49C:  MOVLW  02
0C49E:  MOVWF  x2C
0C4A0:  MOVLB  0
0C4A2:  CALL   22A8
....................           
....................          displayTT(RPT100,30,30,2); 
0C4A6:  MOVFF  65D,72A
0C4AA:  MOVFF  65C,729
0C4AE:  MOVFF  65B,728
0C4B2:  MOVFF  65A,727
0C4B6:  MOVLW  1E
0C4B8:  MOVLB  7
0C4BA:  MOVWF  x2B
0C4BC:  MOVWF  x2C
0C4BE:  MOVLW  02
0C4C0:  MOVWF  x2D
0C4C2:  MOVLB  0
0C4C4:  CALL   480C
....................  
....................          if(UP)//Si oprime hacia arriba 
0C4C8:  BSF    F92.4
0C4CA:  BTFSC  F80.4
0C4CC:  BRA    C51E
....................          {   
....................             delay_ms(10); 
0C4CE:  MOVLW  0A
0C4D0:  MOVLB  7
0C4D2:  MOVWF  x2D
0C4D4:  MOVLB  0
0C4D6:  CALL   1796
....................             RPT100+=0.1; 
0C4DA:  BCF    FD8.1
0C4DC:  MOVFF  65D,72F
0C4E0:  MOVFF  65C,72E
0C4E4:  MOVFF  65B,72D
0C4E8:  MOVFF  65A,72C
0C4EC:  MOVLW  CD
0C4EE:  MOVLB  7
0C4F0:  MOVWF  x33
0C4F2:  MOVLW  CC
0C4F4:  MOVWF  x32
0C4F6:  MOVLW  4C
0C4F8:  MOVWF  x31
0C4FA:  MOVLW  7B
0C4FC:  MOVWF  x30
0C4FE:  MOVLB  0
0C500:  CALL   1952
0C504:  MOVFF  03,65D
0C508:  MOVFF  02,65C
0C50C:  MOVFF  01,65B
0C510:  MOVFF  00,65A
....................             glcd_fillscreen(OFF); 
0C514:  MOVLB  7
0C516:  CLRF   x28
0C518:  MOVLB  0
0C51A:  CALL   1C7A
....................          } 
....................                 
....................          if(DOWN)//Si oprime hacia abajo 
0C51E:  BSF    F92.5
0C520:  BTFSC  F80.5
0C522:  BRA    C574
....................          {   
....................             delay_ms(10); 
0C524:  MOVLW  0A
0C526:  MOVLB  7
0C528:  MOVWF  x2D
0C52A:  MOVLB  0
0C52C:  CALL   1796
....................             RPT100-=0.1; 
0C530:  BSF    FD8.1
0C532:  MOVFF  65D,72F
0C536:  MOVFF  65C,72E
0C53A:  MOVFF  65B,72D
0C53E:  MOVFF  65A,72C
0C542:  MOVLW  CD
0C544:  MOVLB  7
0C546:  MOVWF  x33
0C548:  MOVLW  CC
0C54A:  MOVWF  x32
0C54C:  MOVLW  4C
0C54E:  MOVWF  x31
0C550:  MOVLW  7B
0C552:  MOVWF  x30
0C554:  MOVLB  0
0C556:  CALL   1952
0C55A:  MOVFF  03,65D
0C55E:  MOVFF  02,65C
0C562:  MOVFF  01,65B
0C566:  MOVFF  00,65A
....................             glcd_fillscreen(OFF); 
0C56A:  MOVLB  7
0C56C:  CLRF   x28
0C56E:  MOVLB  0
0C570:  CALL   1C7A
....................          } 
....................                 
....................          if(RIGHT)//Si oprime SET 
0C574:  BSF    F96.0
0C576:  BTFSC  F84.0
0C578:  BRA    C5A0
....................          {   
....................             delay_ms(10); 
0C57A:  MOVLW  0A
0C57C:  MOVLB  7
0C57E:  MOVWF  x2D
0C580:  MOVLB  0
0C582:  CALL   1796
....................             delay_ms(30);visual=1; 
0C586:  MOVLW  1E
0C588:  MOVLB  7
0C58A:  MOVWF  x2D
0C58C:  MOVLB  0
0C58E:  CALL   1796
0C592:  MOVLB  6
0C594:  BSF    xD6.2
....................             glcd_fillscreen(OFF); 
0C596:  MOVLB  7
0C598:  CLRF   x28
0C59A:  MOVLB  0
0C59C:  CALL   1C7A
....................          }  
....................                    
....................          if(LEFT)//Si oprime boton de Toma. 
0C5A0:  BSF    F96.1
0C5A2:  BTFSC  F84.1
0C5A4:  BRA    C70E
....................          { 
....................             delay_ms(10); 
0C5A6:  MOVLW  0A
0C5A8:  MOVLB  7
0C5AA:  MOVWF  x2D
0C5AC:  MOVLB  0
0C5AE:  CALL   1796
....................             delay_ms(700);Menu=100;glcd_fillscreen(OFF);Opcion=1;visual=1; 
0C5B2:  MOVLW  04
0C5B4:  MOVLB  7
0C5B6:  MOVWF  x27
0C5B8:  MOVLW  AF
0C5BA:  MOVWF  x2D
0C5BC:  MOVLB  0
0C5BE:  CALL   1796
0C5C2:  MOVLB  7
0C5C4:  DECFSZ x27,F
0C5C6:  BRA    C5B8
0C5C8:  MOVLW  64
0C5CA:  MOVLB  6
0C5CC:  MOVWF  xD8
0C5CE:  MOVLB  7
0C5D0:  CLRF   x28
0C5D2:  MOVLB  0
0C5D4:  CALL   1C7A
0C5D8:  MOVLW  01
0C5DA:  MOVLB  6
0C5DC:  MOVWF  xDE
0C5DE:  BSF    xD6.2
....................             write_eeprom(32,(int8)RPT100); 
0C5E0:  MOVFF  65D,72A
0C5E4:  MOVFF  65C,729
0C5E8:  MOVFF  65B,728
0C5EC:  MOVFF  65A,727
0C5F0:  MOVLB  0
0C5F2:  CALL   2B16
0C5F6:  MOVFF  01,727
0C5FA:  CLRF   FAA
0C5FC:  MOVLW  20
0C5FE:  MOVWF  FA9
0C600:  MOVFF  727,FA8
0C604:  BCF    FA6.6
0C606:  BCF    FA6.7
0C608:  BSF    FA6.2
0C60A:  MOVF   FF2,W
0C60C:  MOVWF  00
0C60E:  BCF    FF2.7
0C610:  MOVLB  F
0C612:  MOVLW  55
0C614:  MOVWF  FA7
0C616:  MOVLW  AA
0C618:  MOVWF  FA7
0C61A:  BSF    FA6.1
0C61C:  BTFSC  FA6.1
0C61E:  BRA    C61C
0C620:  BCF    FA6.2
0C622:  MOVF   00,W
0C624:  IORWF  FF2,F
....................             delay_ms(10); 
0C626:  MOVLW  0A
0C628:  MOVLB  7
0C62A:  MOVWF  x2D
0C62C:  MOVLB  0
0C62E:  CALL   1796
....................             Temporal=RPT100-((int8)RPT100); 
0C632:  MOVFF  65D,72A
0C636:  MOVFF  65C,729
0C63A:  MOVFF  65B,728
0C63E:  MOVFF  65A,727
0C642:  CALL   2B16
0C646:  MOVLB  7
0C648:  CLRF   x2E
0C64A:  MOVFF  01,72D
0C64E:  MOVLB  0
0C650:  CALL   17BE
0C654:  BSF    FD8.1
0C656:  MOVFF  65D,72F
0C65A:  MOVFF  65C,72E
0C65E:  MOVFF  65B,72D
0C662:  MOVFF  65A,72C
0C666:  MOVFF  03,733
0C66A:  MOVFF  02,732
0C66E:  MOVFF  01,731
0C672:  MOVFF  00,730
0C676:  CALL   1952
0C67A:  MOVFF  03,661
0C67E:  MOVFF  02,660
0C682:  MOVFF  01,65F
0C686:  MOVFF  00,65E
....................             Temporal=Temporal*10; 
0C68A:  MOVFF  661,74B
0C68E:  MOVFF  660,74A
0C692:  MOVFF  65F,749
0C696:  MOVFF  65E,748
0C69A:  MOVLB  7
0C69C:  CLRF   x4F
0C69E:  CLRF   x4E
0C6A0:  MOVLW  20
0C6A2:  MOVWF  x4D
0C6A4:  MOVLW  82
0C6A6:  MOVWF  x4C
0C6A8:  MOVLB  0
0C6AA:  CALL   266C
0C6AE:  MOVFF  03,661
0C6B2:  MOVFF  02,660
0C6B6:  MOVFF  01,65F
0C6BA:  MOVFF  00,65E
....................             write_eeprom(33,(int8)Temporal); 
0C6BE:  MOVFF  661,72A
0C6C2:  MOVFF  660,729
0C6C6:  MOVFF  65F,728
0C6CA:  MOVFF  65E,727
0C6CE:  CALL   2B16
0C6D2:  MOVFF  01,727
0C6D6:  CLRF   FAA
0C6D8:  MOVLW  21
0C6DA:  MOVWF  FA9
0C6DC:  MOVFF  727,FA8
0C6E0:  BCF    FA6.6
0C6E2:  BCF    FA6.7
0C6E4:  BSF    FA6.2
0C6E6:  MOVF   FF2,W
0C6E8:  MOVWF  00
0C6EA:  BCF    FF2.7
0C6EC:  MOVLB  F
0C6EE:  MOVLW  55
0C6F0:  MOVWF  FA7
0C6F2:  MOVLW  AA
0C6F4:  MOVWF  FA7
0C6F6:  BSF    FA6.1
0C6F8:  BTFSC  FA6.1
0C6FA:  BRA    C6F8
0C6FC:  BCF    FA6.2
0C6FE:  MOVF   00,W
0C700:  IORWF  FF2,F
....................             delay_ms(10); 
0C702:  MOVLW  0A
0C704:  MOVLB  7
0C706:  MOVWF  x2D
0C708:  MOVLB  0
0C70A:  CALL   1796
0C70E:  MOVLB  6
....................          } 
....................      } 
.................... //_-------------------------------------------------------------------------------------------------------------------------------------------------------- 
....................  
.................... //_--------------------------------------------------------------------------------------------------------------------------------------------------------       
....................       if(Menu==111){ // Menu de TTrampa 
0C710:  MOVF   xD8,W
0C712:  SUBLW  6F
0C714:  BTFSS  FD8.2
0C716:  BRA    C86A
....................        
....................       if(TTrampa>100 || TTrampa<50) 
0C718:  MOVF   x7B,W
0C71A:  SUBLW  64
0C71C:  BNC   C724
0C71E:  MOVF   x7B,W
0C720:  SUBLW  31
0C722:  BNC   C728
....................       { 
....................          TTrampa=80; 
0C724:  MOVLW  50
0C726:  MOVWF  x7B
....................       } 
....................  
....................          strcpy(Menus.Letra,"T. Trampa"); 
0C728:  MOVLW  07
0C72A:  MOVWF  FEA
0C72C:  MOVLW  03
0C72E:  MOVWF  FE9
0C730:  MOVFF  FF2,727
0C734:  BCF    FF2.7
0C736:  MOVLW  00
0C738:  MOVLB  0
0C73A:  CALL   15FA
0C73E:  TBLRD*-
0C740:  TBLRD*+
0C742:  MOVF   FF5,W
0C744:  MOVWF  FEE
0C746:  IORLW  00
0C748:  BNZ   C740
0C74A:  MOVLB  7
0C74C:  BTFSC  x27.7
0C74E:  BSF    FF2.7
....................          displayMenu(Menus.Letra,0,0,1,2); 
0C750:  MOVLW  07
0C752:  MOVWF  x28
0C754:  MOVLW  03
0C756:  MOVWF  x27
0C758:  CLRF   x29
0C75A:  CLRF   x2A
0C75C:  MOVLW  01
0C75E:  MOVWF  x2B
0C760:  MOVLW  02
0C762:  MOVWF  x2C
0C764:  MOVLB  0
0C766:  CALL   22A8
....................           
....................          displayTemperatura(TTrampa,30,30,0,3); 
0C76A:  MOVLB  7
0C76C:  CLRF   x2A
0C76E:  MOVFF  67B,729
0C772:  MOVLW  1E
0C774:  MOVWF  x2B
0C776:  MOVWF  x2C
0C778:  CLRF   x2D
0C77A:  MOVLW  03
0C77C:  MOVWF  x2E
0C77E:  MOVLB  0
0C780:  CALL   4942
....................  
....................          if(UP)//Si oprime hacia arriba 
0C784:  BSF    F92.4
0C786:  BTFSC  F80.4
0C788:  BRA    C7A4
....................          {   
....................             delay_ms(10); 
0C78A:  MOVLW  0A
0C78C:  MOVLB  7
0C78E:  MOVWF  x2D
0C790:  MOVLB  0
0C792:  CALL   1796
....................             TTrampa++; 
0C796:  MOVLB  6
0C798:  INCF   x7B,F
....................             glcd_fillscreen(OFF); 
0C79A:  MOVLB  7
0C79C:  CLRF   x28
0C79E:  MOVLB  0
0C7A0:  CALL   1C7A
....................          } 
....................                 
....................          if(DOWN)//Si oprime hacia abajo 
0C7A4:  BSF    F92.5
0C7A6:  BTFSC  F80.5
0C7A8:  BRA    C7C4
....................          {   
....................             delay_ms(10); 
0C7AA:  MOVLW  0A
0C7AC:  MOVLB  7
0C7AE:  MOVWF  x2D
0C7B0:  MOVLB  0
0C7B2:  CALL   1796
....................             TTrampa--; 
0C7B6:  MOVLB  6
0C7B8:  DECF   x7B,F
....................             glcd_fillscreen(OFF); 
0C7BA:  MOVLB  7
0C7BC:  CLRF   x28
0C7BE:  MOVLB  0
0C7C0:  CALL   1C7A
....................          } 
....................                 
....................          if(RIGHT)//Si oprime SET 
0C7C4:  BSF    F96.0
0C7C6:  BTFSC  F84.0
0C7C8:  BRA    C7F0
....................          {   
....................             delay_ms(10); 
0C7CA:  MOVLW  0A
0C7CC:  MOVLB  7
0C7CE:  MOVWF  x2D
0C7D0:  MOVLB  0
0C7D2:  CALL   1796
....................             delay_ms(30);visual=1; 
0C7D6:  MOVLW  1E
0C7D8:  MOVLB  7
0C7DA:  MOVWF  x2D
0C7DC:  MOVLB  0
0C7DE:  CALL   1796
0C7E2:  MOVLB  6
0C7E4:  BSF    xD6.2
....................             glcd_fillscreen(OFF); 
0C7E6:  MOVLB  7
0C7E8:  CLRF   x28
0C7EA:  MOVLB  0
0C7EC:  CALL   1C7A
....................          }  
....................                    
....................          if(LEFT)//Si oprime boton de Toma. 
0C7F0:  BSF    F96.1
0C7F2:  BTFSC  F84.1
0C7F4:  BRA    C868
....................          { 
....................             delay_ms(10); 
0C7F6:  MOVLW  0A
0C7F8:  MOVLB  7
0C7FA:  MOVWF  x2D
0C7FC:  MOVLB  0
0C7FE:  CALL   1796
....................             delay_ms(700);Menu=100;glcd_fillscreen(OFF);Opcion=1;visual=1; 
0C802:  MOVLW  04
0C804:  MOVLB  7
0C806:  MOVWF  x27
0C808:  MOVLW  AF
0C80A:  MOVWF  x2D
0C80C:  MOVLB  0
0C80E:  CALL   1796
0C812:  MOVLB  7
0C814:  DECFSZ x27,F
0C816:  BRA    C808
0C818:  MOVLW  64
0C81A:  MOVLB  6
0C81C:  MOVWF  xD8
0C81E:  MOVLB  7
0C820:  CLRF   x28
0C822:  MOVLB  0
0C824:  CALL   1C7A
0C828:  MOVLW  01
0C82A:  MOVLB  6
0C82C:  MOVWF  xDE
0C82E:  BSF    xD6.2
....................             write_eeprom(39,TTrampa); 
0C830:  CLRF   FAA
0C832:  MOVLW  27
0C834:  MOVWF  FA9
0C836:  MOVFF  67B,FA8
0C83A:  BCF    FA6.6
0C83C:  BCF    FA6.7
0C83E:  BSF    FA6.2
0C840:  MOVF   FF2,W
0C842:  MOVWF  00
0C844:  BCF    FF2.7
0C846:  MOVLB  F
0C848:  MOVLW  55
0C84A:  MOVWF  FA7
0C84C:  MOVLW  AA
0C84E:  MOVWF  FA7
0C850:  BSF    FA6.1
0C852:  BTFSC  FA6.1
0C854:  BRA    C852
0C856:  BCF    FA6.2
0C858:  MOVF   00,W
0C85A:  IORWF  FF2,F
....................             delay_ms(10); 
0C85C:  MOVLW  0A
0C85E:  MOVLB  7
0C860:  MOVWF  x2D
0C862:  MOVLB  0
0C864:  CALL   1796
0C868:  MOVLB  6
....................          } 
....................      } 
.................... //_-------------------------------------------------------------------------------------------------------------------------------------------------------- 
....................  
....................   while(Menu==200) 
....................  { 
0C86A:  MOVF   xD8,W
0C86C:  SUBLW  C8
0C86E:  BNZ   C95A
....................     
....................    displayTiempo(txbuf[0],0,10,2,1); 
0C870:  MOVFF  417,727
0C874:  MOVLB  7
0C876:  CLRF   x28
0C878:  MOVLW  0A
0C87A:  MOVWF  x29
0C87C:  MOVLW  02
0C87E:  MOVWF  x2A
0C880:  MOVLW  01
0C882:  MOVWF  x2B
0C884:  MOVLB  0
0C886:  CALL   3B78
....................    displayTiempo(txbuf[1],0,20,2,1); 
0C88A:  MOVFF  418,727
0C88E:  MOVLB  7
0C890:  CLRF   x28
0C892:  MOVLW  14
0C894:  MOVWF  x29
0C896:  MOVLW  02
0C898:  MOVWF  x2A
0C89A:  MOVLW  01
0C89C:  MOVWF  x2B
0C89E:  MOVLB  0
0C8A0:  CALL   3B78
....................    displayTiempo(txbuf[2],0,30,2,1); 
0C8A4:  MOVFF  419,727
0C8A8:  MOVLB  7
0C8AA:  CLRF   x28
0C8AC:  MOVLW  1E
0C8AE:  MOVWF  x29
0C8B0:  MOVLW  02
0C8B2:  MOVWF  x2A
0C8B4:  MOVLW  01
0C8B6:  MOVWF  x2B
0C8B8:  MOVLB  0
0C8BA:  CALL   3B78
....................    displayTiempo(txbuf[3],0,40,2,1); 
0C8BE:  MOVFF  41A,727
0C8C2:  MOVLB  7
0C8C4:  CLRF   x28
0C8C6:  MOVLW  28
0C8C8:  MOVWF  x29
0C8CA:  MOVLW  02
0C8CC:  MOVWF  x2A
0C8CE:  MOVLW  01
0C8D0:  MOVWF  x2B
0C8D2:  MOVLB  0
0C8D4:  CALL   3B78
....................    displayTiempo(SlaveA0Tx[0],0,50,2,1); 
0C8D8:  MOVFF  437,727
0C8DC:  MOVLB  7
0C8DE:  CLRF   x28
0C8E0:  MOVLW  32
0C8E2:  MOVWF  x29
0C8E4:  MOVLW  02
0C8E6:  MOVWF  x2A
0C8E8:  MOVLW  01
0C8EA:  MOVWF  x2B
0C8EC:  MOVLB  0
0C8EE:  CALL   3B78
....................    Lectura_Esclavos(); 
0C8F2:  CALL   329E
....................    Envio_Esclavos(); 
0C8F6:  CALL   2D40
....................    Opcion++; 
0C8FA:  MOVLB  6
0C8FC:  INCF   xDE,F
....................    displayTiempo(SlaveA0Tx[1],50,10,2,1); 
0C8FE:  MOVFF  438,727
0C902:  MOVLW  32
0C904:  MOVLB  7
0C906:  MOVWF  x28
0C908:  MOVLW  0A
0C90A:  MOVWF  x29
0C90C:  MOVLW  02
0C90E:  MOVWF  x2A
0C910:  MOVLW  01
0C912:  MOVWF  x2B
0C914:  MOVLB  0
0C916:  CALL   3B78
....................    displayTiempo(SlaveA0Tx[2],50,20,2,1); 
0C91A:  MOVFF  439,727
0C91E:  MOVLW  32
0C920:  MOVLB  7
0C922:  MOVWF  x28
0C924:  MOVLW  14
0C926:  MOVWF  x29
0C928:  MOVLW  02
0C92A:  MOVWF  x2A
0C92C:  MOVLW  01
0C92E:  MOVWF  x2B
0C930:  MOVLB  0
0C932:  CALL   3B78
....................    displayTiempo(SlaveA0Tx[3],50,30,2,1);      
0C936:  MOVFF  43A,727
0C93A:  MOVLW  32
0C93C:  MOVLB  7
0C93E:  MOVWF  x28
0C940:  MOVLW  1E
0C942:  MOVWF  x29
0C944:  MOVLW  02
0C946:  MOVWF  x2A
0C948:  MOVLW  01
0C94A:  MOVWF  x2B
0C94C:  MOVLB  0
0C94E:  CALL   3B78
....................    glcd_update(); 
0C952:  CALL   1CD4
....................  } 
0C956:  MOVLB  6
0C958:  BRA    C86A
....................   
....................  //_--------------------------------------------------------------------------------------------------------------------------------------------------------       
....................       if(Menu==211){ // Menu de Ciclos 
0C95A:  MOVF   xD8,W
0C95C:  SUBLW  D3
0C95E:  BNZ   CA34
....................          strcpy(Menus.Letra,"Ciclos"); 
0C960:  MOVLW  07
0C962:  MOVWF  FEA
0C964:  MOVLW  03
0C966:  MOVWF  FE9
0C968:  MOVFF  FF2,727
0C96C:  BCF    FF2.7
0C96E:  MOVLW  00
0C970:  MOVLB  0
0C972:  CALL   1622
0C976:  TBLRD*-
0C978:  TBLRD*+
0C97A:  MOVF   FF5,W
0C97C:  MOVWF  FEE
0C97E:  IORLW  00
0C980:  BNZ   C978
0C982:  MOVLB  7
0C984:  BTFSC  x27.7
0C986:  BSF    FF2.7
....................          displayMenu(Menus.Letra,0,0,1,2); 
0C988:  MOVLW  07
0C98A:  MOVWF  x28
0C98C:  MOVLW  03
0C98E:  MOVWF  x27
0C990:  CLRF   x29
0C992:  CLRF   x2A
0C994:  MOVLW  01
0C996:  MOVWF  x2B
0C998:  MOVLW  02
0C99A:  MOVWF  x2C
0C99C:  MOVLB  0
0C99E:  CALL   22A8
....................           
....................          displayTiempo(Ciclos,30,30,0,3);  
0C9A2:  MOVFF  6EF,727
0C9A6:  MOVLW  1E
0C9A8:  MOVLB  7
0C9AA:  MOVWF  x28
0C9AC:  MOVWF  x29
0C9AE:  CLRF   x2A
0C9B0:  MOVLW  03
0C9B2:  MOVWF  x2B
0C9B4:  MOVLB  0
0C9B6:  CALL   3B78
....................                    
....................          if(RIGHT && LEFT)//Si oprime boton de Toma. 
0C9BA:  BSF    F96.0
0C9BC:  BTFSC  F84.0
0C9BE:  BRA    CA34
0C9C0:  BSF    F96.1
0C9C2:  BTFSC  F84.1
0C9C4:  BRA    CA34
....................          { 
....................             write_eeprom(37,0); 
0C9C6:  CLRF   FAA
0C9C8:  MOVLW  25
0C9CA:  MOVWF  FA9
0C9CC:  CLRF   FA8
0C9CE:  BCF    FA6.6
0C9D0:  BCF    FA6.7
0C9D2:  BSF    FA6.2
0C9D4:  MOVF   FF2,W
0C9D6:  MOVWF  00
0C9D8:  BCF    FF2.7
0C9DA:  MOVLB  F
0C9DC:  MOVLW  55
0C9DE:  MOVWF  FA7
0C9E0:  MOVLW  AA
0C9E2:  MOVWF  FA7
0C9E4:  BSF    FA6.1
0C9E6:  BTFSC  FA6.1
0C9E8:  BRA    C9E6
0C9EA:  BCF    FA6.2
0C9EC:  MOVF   00,W
0C9EE:  IORWF  FF2,F
....................             delay_ms(20); 
0C9F0:  MOVLW  14
0C9F2:  MOVLB  7
0C9F4:  MOVWF  x2D
0C9F6:  MOVLB  0
0C9F8:  CALL   1796
....................             write_eeprom(38,0); 
0C9FC:  CLRF   FAA
0C9FE:  MOVLW  26
0CA00:  MOVWF  FA9
0CA02:  CLRF   FA8
0CA04:  BCF    FA6.6
0CA06:  BCF    FA6.7
0CA08:  BSF    FA6.2
0CA0A:  MOVF   FF2,W
0CA0C:  MOVWF  00
0CA0E:  BCF    FF2.7
0CA10:  MOVLB  F
0CA12:  MOVLW  55
0CA14:  MOVWF  FA7
0CA16:  MOVLW  AA
0CA18:  MOVWF  FA7
0CA1A:  BSF    FA6.1
0CA1C:  BTFSC  FA6.1
0CA1E:  BRA    CA1C
0CA20:  BCF    FA6.2
0CA22:  MOVF   00,W
0CA24:  IORWF  FF2,F
....................             delay_ms(20); 
0CA26:  MOVLW  14
0CA28:  MOVLB  7
0CA2A:  MOVWF  x2D
0CA2C:  MOVLB  0
0CA2E:  CALL   1796
....................             reset_cpu(); 
0CA32:  RESET
....................          } 
....................      } 
.................... //_--------------------------------------------------------------------------------------------------------------------------------------------------------     
....................    } 
0CA34:  MOVLB  0
0CA36:  GOTO   5CF8
.................... } 
0CA3A:  SLEEP 

Configuration Fuses:
   Word  1: 0200   HS NOIESO NOFCMEN
   Word  2: 1E1F   BROWNOUT NOWDT BORV20 NOPUT WDT32768
   Word  3: 0000   NOPBADEN NOLPT1OSC NOMCLR
   Word  4: 00B0   NOSTVREN NODEBUG NOLVP NOXINST BBSIZ4K
   Word  5: C03F   NOPROTECT NOCPD NOCPB
   Word  6: E03F   NOWRT NOWRTD NOWRTC NOWRTB
   Word  7: 403F   NOEBTR NOEBTRB
