CCS PCH C Compiler, Version 4.104, 5967               21-may.-21 07:39

               Filename: D:\Laboratorio\Autoclave\Autoclave Horizontal\Sin Precamara\2015\Autoclaves Mayaguez\JPA23LH\Mto 21-05-2021\Firmware V4.0.6 - Reservorio-Presion-Decimal-200Ciclos-Impresora\GLCD_Controller_V3.0.1\GLCD_Controller.lst

               ROM used: 56582 bytes (58%)
                         Largest free fragment is 32768
               RAM used: 1098 (33%) at main() level
                         1126 (34%) worst case
               Stack:    5 worst case (4 in main + 1 for interrupts)

*
00000:  GOTO   6E62
*
00008:  GOTO   00BA
0000C:  NOP   
0000E:  NOP   
00010:  NOP   
00012:  NOP   
00014:  NOP   
00016:  NOP   
00018:  MOVWF  04
0001A:  MOVFF  FD8,05
0001E:  MOVFF  FE0,06
00022:  MOVLB  0
00024:  MOVFF  FE9,0C
00028:  MOVFF  FEA,07
0002C:  MOVFF  FE1,08
00030:  MOVFF  FE2,09
00034:  MOVFF  FD9,0A
00038:  MOVFF  FDA,0B
0003C:  MOVFF  FF3,12
00040:  MOVFF  FF4,13
00044:  MOVFF  FFA,14
00048:  MOVFF  FFB,15
0004C:  MOVFF  00,0E
00050:  MOVFF  01,0F
00054:  MOVFF  02,10
00058:  MOVFF  03,11
0005C:  BTFSS  FF2.5
0005E:  GOTO   0068
00062:  BTFSC  FF2.2
00064:  GOTO   03A4
00068:  BTFSS  F9D.0
0006A:  GOTO   0074
0006E:  BTFSC  F9E.0
00070:  GOTO   03FC
00074:  MOVFF  0E,00
00078:  MOVFF  0F,01
0007C:  MOVFF  10,02
00080:  MOVFF  11,03
00084:  MOVFF  0C,FE9
00088:  MOVFF  07,FEA
0008C:  BSF    07.7
0008E:  MOVFF  08,FE1
00092:  MOVFF  09,FE2
00096:  MOVFF  0A,FD9
0009A:  MOVFF  0B,FDA
0009E:  MOVFF  12,FF3
000A2:  MOVFF  13,FF4
000A6:  MOVFF  14,FFA
000AA:  MOVFF  15,FFB
000AE:  MOVF   04,W
000B0:  MOVFF  06,FE0
000B4:  MOVFF  05,FD8
000B8:  RETFIE 0
000BA:  MOVWF  17
000BC:  MOVFF  FD8,18
000C0:  MOVFF  FE0,19
000C4:  MOVLB  0
000C6:  MOVFF  FE9,1F
000CA:  MOVFF  FEA,1A
000CE:  MOVFF  FE1,1B
000D2:  MOVFF  FE2,1C
000D6:  MOVFF  FD9,1D
000DA:  MOVFF  FDA,1E
000DE:  MOVFF  FF3,25
000E2:  MOVFF  FF4,26
000E6:  MOVFF  FFA,27
000EA:  MOVFF  FFB,28
000EE:  MOVFF  00,21
000F2:  MOVFF  01,22
000F6:  MOVFF  02,23
000FA:  MOVFF  03,24
000FE:  BTFSS  F9D.5
00100:  GOTO   010A
00104:  BTFSC  F9E.5
00106:  GOTO   0336
0010A:  MOVFF  21,00
0010E:  MOVFF  22,01
00112:  MOVFF  23,02
00116:  MOVFF  24,03
0011A:  MOVFF  1F,FE9
0011E:  MOVFF  1A,FEA
00122:  BSF    1A.7
00124:  MOVFF  1B,FE1
00128:  MOVFF  1C,FE2
0012C:  MOVFF  1D,FD9
00130:  MOVFF  1E,FDA
00134:  MOVFF  25,FF3
00138:  MOVFF  26,FF4
0013C:  MOVFF  27,FFA
00140:  MOVFF  28,FFB
00144:  MOVF   17,W
00146:  MOVFF  19,FE0
0014A:  MOVFF  18,FD8
0014E:  RETFIE 0
.................... //Falta crear menu de ajuste de variables y de norma CFR21 
....................  
.................... #include <18F4685.h> 
.................... //////// Standard Header file for the PIC18F4685 device //////////////// 
.................... #device PIC18F4685 
.................... #list 
....................  
.................... #device adc=10 
.................... #device HIGH_INTS=TRUE //Activamos niveles de prioridad 
.................... #fuses HS,WDT8192,NOPROTECT,NOLVP,NODEBUG,NOSTVREN,NOPUT,NOCPD,NOWRT,NOIESO,NOFCMEN,NOPBADEN,NOWRTC,NOWRTB,NOEBTR,NOEBTRB,NOCPB,NOXINST,NOLPT1OSC,NOMCLR 
.................... #use delay(clock=20000000) 
*
01A84:  MOVLW  04
01A86:  MOVWF  FEA
01A88:  MOVLW  54
01A8A:  MOVWF  FE9
01A8C:  MOVF   FEF,W
01A8E:  BZ    1AAA
01A90:  MOVLW  06
01A92:  MOVWF  01
01A94:  CLRF   00
01A96:  DECFSZ 00,F
01A98:  BRA    1A96
01A9A:  DECFSZ 01,F
01A9C:  BRA    1A94
01A9E:  MOVLW  7B
01AA0:  MOVWF  00
01AA2:  DECFSZ 00,F
01AA4:  BRA    1AA2
01AA6:  DECFSZ FEF,F
01AA8:  BRA    1A90
01AAA:  RETLW  00
.................... #use i2c(Master,slow,sda=PIN_C4,scl=PIN_C3) 
*
04610:  MOVLW  08
04612:  MOVWF  01
04614:  MOVLW  05
04616:  MOVWF  00
04618:  DECFSZ 00,F
0461A:  BRA    4618
0461C:  BCF    F8B.3
0461E:  BCF    F94.3
04620:  MOVLW  06
04622:  MOVWF  00
04624:  DECFSZ 00,F
04626:  BRA    4624
04628:  MOVLB  4
0462A:  RLCF   x55,F
0462C:  BCF    F8B.4
0462E:  BTFSC  FD8.0
04630:  BSF    F94.4
04632:  BTFSS  FD8.0
04634:  BCF    F94.4
04636:  BSF    F94.3
04638:  BTFSS  F82.3
0463A:  BRA    4638
0463C:  DECFSZ 01,F
0463E:  BRA    4642
04640:  BRA    4646
04642:  MOVLB  0
04644:  BRA    4614
04646:  MOVLW  05
04648:  MOVWF  00
0464A:  DECFSZ 00,F
0464C:  BRA    464A
0464E:  BCF    F8B.3
04650:  BCF    F94.3
04652:  NOP   
04654:  BSF    F94.4
04656:  MOVLW  06
04658:  MOVWF  00
0465A:  DECFSZ 00,F
0465C:  BRA    465A
0465E:  MOVLW  06
04660:  MOVWF  00
04662:  DECFSZ 00,F
04664:  BRA    4662
04666:  BSF    F94.3
04668:  BTFSS  F82.3
0466A:  BRA    4668
0466C:  CLRF   01
0466E:  MOVLW  06
04670:  MOVWF  00
04672:  DECFSZ 00,F
04674:  BRA    4672
04676:  BTFSC  F82.4
04678:  BSF    01.0
0467A:  BCF    F8B.3
0467C:  BCF    F94.3
0467E:  BCF    F8B.4
04680:  BCF    F94.4
04682:  MOVLB  0
04684:  RETLW  00
*
04EFE:  MOVLW  08
04F00:  MOVLB  4
04F02:  MOVWF  x48
04F04:  MOVFF  00,449
04F08:  BSF    F94.4
04F0A:  MOVLW  06
04F0C:  MOVWF  00
04F0E:  DECFSZ 00,F
04F10:  BRA    4F0E
04F12:  BSF    F94.3
04F14:  BTFSS  F82.3
04F16:  BRA    4F14
04F18:  BTFSC  F82.4
04F1A:  BSF    FD8.0
04F1C:  BTFSS  F82.4
04F1E:  BCF    FD8.0
04F20:  RLCF   01,F
04F22:  MOVLW  05
04F24:  MOVWF  00
04F26:  DECFSZ 00,F
04F28:  BRA    4F26
04F2A:  BCF    F94.3
04F2C:  BCF    F8B.3
04F2E:  DECFSZ x48,F
04F30:  BRA    4F08
04F32:  BSF    F94.4
04F34:  MOVLW  06
04F36:  MOVWF  00
04F38:  DECFSZ 00,F
04F3A:  BRA    4F38
04F3C:  BCF    F8B.4
04F3E:  MOVF   x49,W
04F40:  BTFSS  FD8.2
04F42:  BCF    F94.4
04F44:  NOP   
04F46:  BSF    F94.3
04F48:  BTFSS  F82.3
04F4A:  BRA    4F48
04F4C:  MOVLW  05
04F4E:  MOVWF  00
04F50:  DECFSZ 00,F
04F52:  BRA    4F50
04F54:  BCF    F8B.3
04F56:  BCF    F94.3
04F58:  MOVLW  06
04F5A:  MOVWF  00
04F5C:  DECFSZ 00,F
04F5E:  BRA    4F5C
04F60:  BCF    F8B.4
04F62:  BCF    F94.4
04F64:  MOVLB  0
04F66:  GOTO   4FEC (RETURN)
.................... #use rs232(baud=9600, xmit=PIN_C6, rcv=PIN_C7, bits=8, parity=N) 
*
038E8:  BTFSS  F9E.4
038EA:  BRA    38E8
038EC:  MOVWF  FAD
038EE:  RETLW  00
.................... //#include "HDM64GS12.c" 
.................... //#include "GRAPHICS.c" 
.................... ///#include "imagen.h" 
.................... #include <stdio.h> 
.................... /////////////////////////////////////////////////////////////////////////// 
.................... ////        (C) Copyright 1996,2003 Custom Computer Services           //// 
.................... //// This source code may only be used by licensed users of the CCS C  //// 
.................... //// compiler.  This source code may only be distributed to other      //// 
.................... //// licensed users of the CCS C compiler.  No other use, reproduction //// 
.................... //// or distribution is permitted without written permission.          //// 
.................... //// Derivative programs created using this software in object code    //// 
.................... //// form are not restricted in any way.                               //// 
.................... /////////////////////////////////////////////////////////////////////////// 
....................  
.................... #ifndef _STDIO 
.................... #define _STDIO 
.................... #include <string.h> 
.................... //////////////////////////////////////////////////////////////////////////// 
.................... ////        (C) Copyright 1996,2008 Custom Computer Services            //// 
.................... //// This source code may only be used by licensed users of the CCS C   //// 
.................... //// compiler.  This source code may only be distributed to other       //// 
.................... //// licensed users of the CCS C compiler.  No other use, reproduction  //// 
.................... //// or distribution is permitted without written permission.           //// 
.................... //// Derivative programs created using this software in object code     //// 
.................... //// form are not restricted in any way.                                //// 
.................... //////////////////////////////////////////////////////////////////////////// 
....................  
.................... #ifndef _STRING 
.................... #define _STRING 
.................... #include <stddef.h> 
.................... /////////////////////////////////////////////////////////////////////////// 
.................... ////        (C) Copyright 1996,2003 Custom Computer Services           //// 
.................... //// This source code may only be used by licensed users of the CCS C  //// 
.................... //// compiler.  This source code may only be distributed to other      //// 
.................... //// licensed users of the CCS C compiler.  No other use, reproduction //// 
.................... //// or distribution is permitted without written permission.          //// 
.................... //// Derivative programs created using this software in object code    //// 
.................... //// form are not restricted in any way.                               //// 
.................... /////////////////////////////////////////////////////////////////////////// 
....................  
.................... #ifndef _STDDEF 
....................  
.................... #define _STDDEF 
....................  
.................... #if sizeof(unsigned int8 *)==1 
.................... #define ptrdiff_t unsigned int8 
.................... #else 
.................... #define ptrdiff_t unsigned int16 
.................... #endif 
....................  
.................... #define size_t unsigned int8 
.................... #define wchar_t char 
.................... #define NULL 0 
....................  
.................... #define offsetof(s,f) (offsetofbit(s,f)/8) 
....................  
.................... #endif 
....................  
.................... #include <ctype.h> 
.................... //////////////////////////////////////////////////////////////////////////// 
.................... ////        (C) Copyright 1996,2003 Custom Computer Services            //// 
.................... //// This source code may only be used by licensed users of the CCS C   //// 
.................... //// compiler.  This source code may only be distributed to other       //// 
.................... //// licensed users of the CCS C compiler.  No other use, reproduction  //// 
.................... //// or distribution is permitted without written permission.           //// 
.................... //// Derivative programs created using this software in object code     //// 
.................... //// form are not restricted in any way.                                //// 
.................... //////////////////////////////////////////////////////////////////////////// 
....................  
.................... #ifndef _CTYPE 
.................... #define _CTYPE 
....................  
.................... #define islower(x)  isamong(x,"abcdefghijklmnopqrstuvwxyz") 
.................... #define isupper(x)  isamong(x,"ABCDEFGHIJKLMNOPQRSTUVWXYZ") 
.................... #define isalnum(x)  isamong(x,"0123456789ABCDEFGHIJKLMNOPQRSTUVWXYZabcdefghijklmnopqrstuvwxyz") 
.................... #define isalpha(x)  isamong(x,"ABCDEFGHIJKLMNOPQRSTUVWXYZabcdefghijklmnopqrstuvwxyz") 
.................... #define isdigit(x)  isamong(x,"0123456789") 
.................... #define isspace(x)  ((x)==' ') 
.................... #define isxdigit(x) isamong(x,"0123456789ABCDEFabcdef") 
.................... #define iscntrl(x)  ((x)<' ') 
.................... #define isprint(x)  ((x)>=' ') 
.................... #define isgraph(x)  ((x)>' ') 
.................... #define ispunct(x)  (((x)>' ')&&!isalnum(x)) 
....................  
.................... #endif 
....................  
....................  
....................  
....................  
....................  
.................... ////////////////////////////////////////////// 
.................... //// Uncomment the following define to    //// 
.................... //// allow some functions to use a        //// 
.................... //// quicker algorithm, but use more ROM  //// 
.................... ////                                      //// 
.................... //// #define FASTER_BUT_MORE_ROM          //// 
.................... ////////////////////////////////////////////// 
....................  
....................  
....................  
.................... /*Copying functions*/ 
.................... /* standard template: 
....................    void *memmove(void *s1, void *s2, size_t n). 
....................    Copies max of n characters safely (not following ending '\0') 
....................    from s2 in s1; if s2 has less than n characters, appends 0 */ 
....................  
.................... char *memmove(void *s1,char *s2,size_t n) 
.................... { 
....................    char *sc1; 
....................    char *sc2; 
....................    sc1=s1; 
....................    sc2=s2; 
....................    if(sc2<sc1 && sc1 <sc2 +n) 
....................       for(sc1+=n,sc2+=n;0<n;--n) 
....................          *--sc1=*--sc2; 
....................    else 
....................       for(;0<n;--n) 
....................          *sc1++=*sc2++; 
....................   return s1; 
....................   } 
....................  
.................... /* Standard template: char *strcpy(char *s1, const char *s2) 
....................    copies the string s2 including the null character to s1. 
....................    This is a compiler built in to handle the different address 
....................    spaces */ 
....................  
.................... #define strcopy strcpy 
....................  
.................... /* standard template: 
....................    char *strncpy(char *s1, const char *s2, size_t n). 
....................    Copies max of n characters (not following ending '\0') 
....................    from s2 in s1; if s2 has less than n characters, appends 0 */ 
....................  
.................... char *strncpy(char *s1, char *s2, size_t n) 
.................... { 
....................   char *s; 
....................  
....................   for (s = s1; n > 0 && *s2 != '\0'; n--) 
....................      *s++ = *s2++; 
....................   for (; n > 0; n--) 
....................      *s++ = '\0'; 
....................  
....................   return(s1); 
.................... } 
.................... /***********************************************************/ 
....................  
.................... /*concatenation functions*/ 
.................... /* standard template: char *strcat(char *s1, const char *s2) 
.................... appends s2 to s1*/ 
....................  
.................... char *strcat(char *s1, char *s2) 
.................... { 
....................    char *s; 
....................  
....................    for (s = s1; *s != '\0'; ++s); 
....................    while(*s2 != '\0') 
....................    { 
....................       *s = *s2; 
....................       ++s; 
....................       ++s2; 
....................    } 
....................  
....................    *s = '\0'; 
....................    return(s1); 
.................... } 
.................... /* standard template: char *strncat(char *s1, char *s2,size_t n) 
.................... appends not more than n characters from s2 to s1*/ 
....................  
.................... char *strncat(char *s1, char *s2, size_t n) 
.................... { 
....................    char *s; 
....................  
....................    for (s = s1; *s != '\0'; ++s); 
....................    while(*s2 != '\0' && 0<n) 
....................    { 
....................       *s = *s2; 
....................       ++s; 
....................       ++s2; 
....................       --n; 
....................    } 
....................  
....................    *s = '\0'; 
....................    return(s1); 
.................... } 
....................  
.................... /***********************************************************/ 
....................  
....................  
.................... /*comparison functions*/ 
.................... /* standard template: signed int memcmp(void *s1, void *s2). 
....................    Compares s1 & s2; returns -1 if s1<s2, 0 if s1=s2, 1 if s1>s2 */ 
....................  
.................... signed int8 memcmp(void * s1,char *s2,size_t n) 
.................... { 
.................... char *su1, *su2; 
.................... for(su1=s1, su2=s2; 0<n; ++su1, ++su2, --n) 
.................... { 
....................    if(*su1!=*su2) 
....................       return ((*su1<*su2)?-1:+1); 
.................... } 
.................... return 0; 
.................... } 
....................  
.................... /* standard template: int strcmp(const char *s1, const char *s2). 
....................    Compares s1 & s2; returns -1 if s1<s2, 0 if s1=s2, 1 if s1>s2 */ 
....................  
.................... signed int8 strcmp(char *s1, char *s2) 
.................... { 
....................    for (; *s1 == *s2; s1++, s2++) 
....................       if (*s1 == '\0') 
....................          return(0); 
....................    return((*s1 < *s2) ? -1: 1); 
.................... } 
.................... /* standard template: int strcoll(const char *s1, const char *s2). 
....................    Compares s1 & s2; returns -1 if s1<s2, 0 if s1=s2, 1 if s1>s2 */ 
....................  
.................... signed int8 strcoll(char *s1, char *s2) 
.................... { 
....................    for (; *s1 == *s2; s1++, s2++) 
....................       if (*s1 == '\0') 
....................          return(0); 
....................    return((*s1 < *s2) ? -1: 1); 
.................... } 
....................  
.................... /* standard template: 
....................    int strncmp(const char *s1, const char *s2, size_t n). 
....................    Compares max of n characters (not following 0) from s1 to s2; 
....................    returns same as strcmp */ 
....................  
.................... signed int8 strncmp(char *s1, char *s2, size_t n) 
.................... { 
....................    for (; n > 0; s1++, s2++, n--) 
....................       if (*s1 != *s2) 
....................          return((*s1 <*s2) ? -1: 1); 
....................       else if (*s1 == '\0') 
....................          return(0); 
....................    return(0); 
.................... } 
.................... /* standard template: 
....................    int strxfrm(const char *s1, const char *s2, size_t n). 
....................    transforms maximum of n characters from s2 and places them into s1*/ 
.................... size_t strxfrm(char *s1, char *s2, size_t n) 
.................... { 
....................   char *s; 
....................   unsigned int8 n1; 
....................   n1=n; 
....................   for (s = s1; n > 0 && *s2 != '\0'; n--) 
....................      *s++ = *s2++; 
....................   for (; n > 0; n--) 
....................      *s++ = '\0'; 
....................  
....................   return(n1); 
.................... } 
....................  
....................  
....................  
....................  
....................  
.................... /***********************************************************/ 
.................... /*Search functions*/ 
.................... /* standard template: void *memchr(const char *s, int c). 
....................    Finds first occurrence of c in n characters of s */ 
....................  
.................... char *memchr(void *s,unsigned int8 c,size_t n) 
.................... { 
....................    char uc; 
....................    char *su; 
....................    uc=c; 
....................    for(su=s;0<n;++su,--n) 
....................       if(*su==uc) 
....................       return su; 
....................    return NULL; 
.................... } 
....................  
.................... /* standard template: char *strchr(const char *s, int c). 
....................    Finds first occurrence of c in s */ 
....................  
.................... char *strchr(char *s, unsigned int8 c) 
.................... { 
....................    for (; *s != c; s++) 
....................       if (*s == '\0') 
....................          return(0); 
....................    return(s); 
.................... } 
.................... /* standard template: 
....................    size_t strcspn(const char *s1, const char *s2). 
....................    Computes length of max initial segment of s1 that 
....................    consists entirely of characters NOT from s2*/ 
....................  
.................... unsigned int8  strcspn(char *s1, char *s2) 
.................... { 
....................    char *sc1, *sc2; 
....................  
....................    for (sc1 = s1; *sc1 != 0; sc1++) 
....................       for (sc2 = s2; *sc2 != 0; sc2++) 
....................          if (*sc1 == *sc2) 
....................             return(sc1 - s1); 
....................    return(sc1 - s1); 
.................... } 
.................... /* standard template: 
....................    char *strpbrk(const char *s1, const char *s2). 
....................    Locates first occurence of any character from s2 in s1; 
....................    returns s1 if s2 is empty string */ 
....................  
.................... char *strpbrk(char *s1, char *s2) 
.................... { 
....................    char *sc1, *sc2; 
....................  
....................    for (sc1 = s1; *sc1 != 0; sc1++) 
....................       for (sc2 = s2; *sc2 != 0; sc2++) 
....................          if (*sc1 == *sc2) 
....................             return(sc1); 
....................    return(0); 
.................... } 
....................  
....................  
.................... /* standard template: char *strrchr(const char *s, int c). 
....................    Finds last occurrence of c in s */ 
....................  
.................... char *strrchr(char *s, unsigned int8 c) 
.................... { 
....................    char *p; 
....................  
....................    for (p = 0; ; s++) 
....................    { 
....................       if (*s == c) 
....................          p = s; 
....................       if (*s == '\0') 
....................          return(p); 
....................    } 
.................... } 
.................... /* computes length of max initial segment of s1 consisting 
....................    entirely of characters from s2 */ 
....................  
.................... unsigned int8  strspn(char *s1, char *s2) 
.................... { 
....................    char *sc1, *sc2; 
....................  
....................    for (sc1 = s1; *sc1 != 0; sc1++) 
....................       for (sc2 = s2; ; sc2++) 
....................     if (*sc2 == '\0') 
....................        return(sc1 - s1); 
....................          else if (*sc1 == *sc2) 
....................             break; 
....................    return(sc1 - s1); 
.................... } 
.................... /* standard template: 
....................    char *strstr(const char *s1, const char *s2); 
....................    Locates first occurence of character sequence s2 in s1; 
....................    returns 0 if s2 is empty string 
....................  
....................    Uncomment #define FASTER_BUT_MORE_ROM at the top of the 
....................    file to use the faster algorithm */ 
.................... char *strstr(char *s1, char *s2) 
.................... { 
....................    char *s, *t; 
....................  
....................    #ifdef FASTER_BUT_MORE_ROM 
....................    if (*s2 == '\0') 
....................          return(s1); 
....................    #endif 
....................  
....................    while (*s1) 
....................    { 
....................       for(s = s1, t = s2; *t && (*s == *t); ++s, ++t); 
....................  
....................       if (*t == '\0') 
....................          return s1; 
....................       ++s1; 
....................       #ifdef FASTER_BUT_MORE_ROM 
....................          while(*s1 != '\0' && *s1 != *s2) 
....................             ++s1; 
....................       #endif 
....................    } 
....................    return 0; 
.................... } 
....................  
.................... /* standard template: char *strtok(char *s1, const char *s2). 
....................  
....................    Finds next token in s1 delimited by a character from separator 
....................    string s2 (which can be different from call to call).  First call 
....................    starts at beginning of s1 searching for first character NOT 
....................    contained in s2; returns 0 if none is found. 
....................    If one is found, it is the start of first token (return value). 
....................    Function then searches from there for a character contained in s2. 
....................    If none is found, current token extends to end of s1, and subsequent 
....................    searches for a token will return 0.  If one is found, it is 
....................    overwritten by '\0', which terminates current token.  Function saves 
....................    pointer to following character from which next search will start. 
....................    Each subsequent call, with 0 as first argument, starts searching 
....................    from saved pointer */ 
....................  
.................... char *strtok(char *s1, char *s2) 
.................... { 
....................    char *beg, *end; 
....................    static char *save; 
....................  
....................    beg = (s1)? s1: save; 
....................    beg += strspn(beg, s2); 
....................    if (*beg == '\0') 
....................    { 
....................       *save = ' '; 
....................       return(0); 
....................    } 
....................    end = strpbrk(beg, s2); 
....................    if (*end != '\0') 
....................    { 
....................       *end = '\0'; 
....................       end++; 
....................    } 
....................    save = end; 
....................    return(beg); 
.................... } 
....................  
.................... /*****************************************************************/ 
.................... /*Miscellaneous functions*/ 
.................... /* standard template 
.................... maps error number in errnum to an error message string 
.................... Returns: Pointer to string 
.................... */ 
.................... #ifdef _ERRNO 
.................... char * strerror(unsigned int8 errnum) 
.................... { 
.................... char s[15]; 
.................... switch( errnum) 
.................... { 
.................... case 0: 
....................    strcpy(s,"no errors"); 
....................    return s; 
.................... case EDOM : 
....................    strcpy(s,"domain error"); 
....................    return s; 
.................... case ERANGE: 
....................    strcpy(s,"range error"); 
....................    return s; 
.................... } 
.................... } 
.................... #ENDIF 
.................... /* standard template: size_t strlen(const char *s). 
....................    Computes length of s1 (preceding terminating 0) */ 
....................  
.................... unsigned int8 strlen(char *s) 
.................... { 
....................    char *sc; 
....................  
....................    for (sc = s; *sc != 0; sc++); 
....................    return(sc - s); 
.................... } 
....................  
.................... /* standard template: size_t stricmp(const char *s1, const char *s2). 
....................    Compares s1 to s2 ignoring case (upper vs. lower) */ 
....................  
.................... signed int8 stricmp(char *s1, char *s2) 
.................... { 
....................  for(; *s1==*s2||(isalpha(*s1)&&isalpha(*s2)&&(*s1==*s2+32||*s2==*s1+32)); 
....................     s1++, s2++) 
....................     if (*s1 == '\0') 
....................        return(0); 
....................  return((*s1 < *s2) ? -1: 1); 
.................... } 
....................  
....................  
.................... /* standard template: char *strlwr(char *s). 
....................    Replaces uppercase letters by lowercase; 
....................    returns pointer to new string s */ 
....................  
.................... char *strlwr(char *s) 
.................... { 
....................    char *p; 
....................  
....................    for (p = s; *p != '\0'; p++) 
....................       if (*p >= 'A' && *p <='Z') 
....................          *p += 'a' - 'A'; 
....................    return(s); 
.................... } 
....................  
....................  
.................... /************************************************************/ 
....................  
....................  
.................... #endif 
....................  
.................... #ifndef getc 
.................... #define getc getch 
.................... #define getchar getch 
.................... #define puts(s) {printf(s); putchar(13); putchar(10);} 
.................... #define putc putchar 
.................... #endif 
.................... /* maps error number to an error message. Writes a sequence of characters to 
.................... stderr stream thus: if s is not null then string pointed to by s follwed by 
.................... a colon (:) and a space and the appropriate error message returned by strerror 
.................... function with argument errno 
....................  
.................... Returns: no value 
.................... */ 
....................  
.................... #ifdef _ERRNO 
.................... void perror(char *s) 
.................... { 
....................   if(s) 
....................   fprintf(STDERR,"%s: ",s); 
....................   fprintf(STDERR,"%s\r\n",strerror(errno)); 
.................... } 
.................... #endif 
.................... #endif 
....................  
.................... #include <string.h> 
.................... //////////////////////////////////////////////////////////////////////////// 
.................... ////        (C) Copyright 1996,2008 Custom Computer Services            //// 
.................... //// This source code may only be used by licensed users of the CCS C   //// 
.................... //// compiler.  This source code may only be distributed to other       //// 
.................... //// licensed users of the CCS C compiler.  No other use, reproduction  //// 
.................... //// or distribution is permitted without written permission.           //// 
.................... //// Derivative programs created using this software in object code     //// 
.................... //// form are not restricted in any way.                                //// 
.................... //////////////////////////////////////////////////////////////////////////// 
....................  
.................... #ifndef _STRING 
.................... #define _STRING 
.................... #include <stddef.h> 
.................... #include <ctype.h> 
....................  
....................  
....................  
.................... ////////////////////////////////////////////// 
.................... //// Uncomment the following define to    //// 
.................... //// allow some functions to use a        //// 
.................... //// quicker algorithm, but use more ROM  //// 
.................... ////                                      //// 
.................... //// #define FASTER_BUT_MORE_ROM          //// 
.................... ////////////////////////////////////////////// 
....................  
....................  
....................  
.................... /*Copying functions*/ 
.................... /* standard template: 
....................    void *memmove(void *s1, void *s2, size_t n). 
....................    Copies max of n characters safely (not following ending '\0') 
....................    from s2 in s1; if s2 has less than n characters, appends 0 */ 
....................  
.................... char *memmove(void *s1,char *s2,size_t n) 
.................... { 
....................    char *sc1; 
....................    char *sc2; 
....................    sc1=s1; 
....................    sc2=s2; 
....................    if(sc2<sc1 && sc1 <sc2 +n) 
....................       for(sc1+=n,sc2+=n;0<n;--n) 
....................          *--sc1=*--sc2; 
....................    else 
....................       for(;0<n;--n) 
....................          *sc1++=*sc2++; 
....................   return s1; 
....................   } 
....................  
.................... /* Standard template: char *strcpy(char *s1, const char *s2) 
....................    copies the string s2 including the null character to s1. 
....................    This is a compiler built in to handle the different address 
....................    spaces */ 
....................  
.................... #define strcopy strcpy 
....................  
.................... /* standard template: 
....................    char *strncpy(char *s1, const char *s2, size_t n). 
....................    Copies max of n characters (not following ending '\0') 
....................    from s2 in s1; if s2 has less than n characters, appends 0 */ 
....................  
.................... char *strncpy(char *s1, char *s2, size_t n) 
.................... { 
....................   char *s; 
....................  
....................   for (s = s1; n > 0 && *s2 != '\0'; n--) 
....................      *s++ = *s2++; 
....................   for (; n > 0; n--) 
....................      *s++ = '\0'; 
....................  
....................   return(s1); 
.................... } 
.................... /***********************************************************/ 
....................  
.................... /*concatenation functions*/ 
.................... /* standard template: char *strcat(char *s1, const char *s2) 
.................... appends s2 to s1*/ 
....................  
.................... char *strcat(char *s1, char *s2) 
.................... { 
....................    char *s; 
....................  
....................    for (s = s1; *s != '\0'; ++s); 
....................    while(*s2 != '\0') 
....................    { 
....................       *s = *s2; 
....................       ++s; 
....................       ++s2; 
....................    } 
....................  
....................    *s = '\0'; 
....................    return(s1); 
.................... } 
.................... /* standard template: char *strncat(char *s1, char *s2,size_t n) 
.................... appends not more than n characters from s2 to s1*/ 
....................  
.................... char *strncat(char *s1, char *s2, size_t n) 
.................... { 
....................    char *s; 
....................  
....................    for (s = s1; *s != '\0'; ++s); 
....................    while(*s2 != '\0' && 0<n) 
....................    { 
....................       *s = *s2; 
....................       ++s; 
....................       ++s2; 
....................       --n; 
....................    } 
....................  
....................    *s = '\0'; 
....................    return(s1); 
.................... } 
....................  
.................... /***********************************************************/ 
....................  
....................  
.................... /*comparison functions*/ 
.................... /* standard template: signed int memcmp(void *s1, void *s2). 
....................    Compares s1 & s2; returns -1 if s1<s2, 0 if s1=s2, 1 if s1>s2 */ 
....................  
.................... signed int8 memcmp(void * s1,char *s2,size_t n) 
.................... { 
.................... char *su1, *su2; 
.................... for(su1=s1, su2=s2; 0<n; ++su1, ++su2, --n) 
.................... { 
....................    if(*su1!=*su2) 
....................       return ((*su1<*su2)?-1:+1); 
.................... } 
.................... return 0; 
.................... } 
....................  
.................... /* standard template: int strcmp(const char *s1, const char *s2). 
....................    Compares s1 & s2; returns -1 if s1<s2, 0 if s1=s2, 1 if s1>s2 */ 
....................  
.................... signed int8 strcmp(char *s1, char *s2) 
.................... { 
....................    for (; *s1 == *s2; s1++, s2++) 
....................       if (*s1 == '\0') 
....................          return(0); 
....................    return((*s1 < *s2) ? -1: 1); 
.................... } 
.................... /* standard template: int strcoll(const char *s1, const char *s2). 
....................    Compares s1 & s2; returns -1 if s1<s2, 0 if s1=s2, 1 if s1>s2 */ 
....................  
.................... signed int8 strcoll(char *s1, char *s2) 
.................... { 
....................    for (; *s1 == *s2; s1++, s2++) 
....................       if (*s1 == '\0') 
....................          return(0); 
....................    return((*s1 < *s2) ? -1: 1); 
.................... } 
....................  
.................... /* standard template: 
....................    int strncmp(const char *s1, const char *s2, size_t n). 
....................    Compares max of n characters (not following 0) from s1 to s2; 
....................    returns same as strcmp */ 
....................  
.................... signed int8 strncmp(char *s1, char *s2, size_t n) 
.................... { 
....................    for (; n > 0; s1++, s2++, n--) 
....................       if (*s1 != *s2) 
....................          return((*s1 <*s2) ? -1: 1); 
....................       else if (*s1 == '\0') 
....................          return(0); 
....................    return(0); 
.................... } 
.................... /* standard template: 
....................    int strxfrm(const char *s1, const char *s2, size_t n). 
....................    transforms maximum of n characters from s2 and places them into s1*/ 
.................... size_t strxfrm(char *s1, char *s2, size_t n) 
.................... { 
....................   char *s; 
....................   unsigned int8 n1; 
....................   n1=n; 
....................   for (s = s1; n > 0 && *s2 != '\0'; n--) 
....................      *s++ = *s2++; 
....................   for (; n > 0; n--) 
....................      *s++ = '\0'; 
....................  
....................   return(n1); 
.................... } 
....................  
....................  
....................  
....................  
....................  
.................... /***********************************************************/ 
.................... /*Search functions*/ 
.................... /* standard template: void *memchr(const char *s, int c). 
....................    Finds first occurrence of c in n characters of s */ 
....................  
.................... char *memchr(void *s,unsigned int8 c,size_t n) 
.................... { 
....................    char uc; 
....................    char *su; 
....................    uc=c; 
....................    for(su=s;0<n;++su,--n) 
....................       if(*su==uc) 
....................       return su; 
....................    return NULL; 
.................... } 
....................  
.................... /* standard template: char *strchr(const char *s, int c). 
....................    Finds first occurrence of c in s */ 
....................  
.................... char *strchr(char *s, unsigned int8 c) 
.................... { 
....................    for (; *s != c; s++) 
....................       if (*s == '\0') 
....................          return(0); 
....................    return(s); 
.................... } 
.................... /* standard template: 
....................    size_t strcspn(const char *s1, const char *s2). 
....................    Computes length of max initial segment of s1 that 
....................    consists entirely of characters NOT from s2*/ 
....................  
.................... unsigned int8  strcspn(char *s1, char *s2) 
.................... { 
....................    char *sc1, *sc2; 
....................  
....................    for (sc1 = s1; *sc1 != 0; sc1++) 
....................       for (sc2 = s2; *sc2 != 0; sc2++) 
....................          if (*sc1 == *sc2) 
....................             return(sc1 - s1); 
....................    return(sc1 - s1); 
.................... } 
.................... /* standard template: 
....................    char *strpbrk(const char *s1, const char *s2). 
....................    Locates first occurence of any character from s2 in s1; 
....................    returns s1 if s2 is empty string */ 
....................  
.................... char *strpbrk(char *s1, char *s2) 
.................... { 
....................    char *sc1, *sc2; 
....................  
....................    for (sc1 = s1; *sc1 != 0; sc1++) 
....................       for (sc2 = s2; *sc2 != 0; sc2++) 
....................          if (*sc1 == *sc2) 
....................             return(sc1); 
....................    return(0); 
.................... } 
....................  
....................  
.................... /* standard template: char *strrchr(const char *s, int c). 
....................    Finds last occurrence of c in s */ 
....................  
.................... char *strrchr(char *s, unsigned int8 c) 
.................... { 
....................    char *p; 
....................  
....................    for (p = 0; ; s++) 
....................    { 
....................       if (*s == c) 
....................          p = s; 
....................       if (*s == '\0') 
....................          return(p); 
....................    } 
.................... } 
.................... /* computes length of max initial segment of s1 consisting 
....................    entirely of characters from s2 */ 
....................  
.................... unsigned int8  strspn(char *s1, char *s2) 
.................... { 
....................    char *sc1, *sc2; 
....................  
....................    for (sc1 = s1; *sc1 != 0; sc1++) 
....................       for (sc2 = s2; ; sc2++) 
....................     if (*sc2 == '\0') 
....................        return(sc1 - s1); 
....................          else if (*sc1 == *sc2) 
....................             break; 
....................    return(sc1 - s1); 
.................... } 
.................... /* standard template: 
....................    char *strstr(const char *s1, const char *s2); 
....................    Locates first occurence of character sequence s2 in s1; 
....................    returns 0 if s2 is empty string 
....................  
....................    Uncomment #define FASTER_BUT_MORE_ROM at the top of the 
....................    file to use the faster algorithm */ 
.................... char *strstr(char *s1, char *s2) 
.................... { 
....................    char *s, *t; 
....................  
....................    #ifdef FASTER_BUT_MORE_ROM 
....................    if (*s2 == '\0') 
....................          return(s1); 
....................    #endif 
....................  
....................    while (*s1) 
....................    { 
....................       for(s = s1, t = s2; *t && (*s == *t); ++s, ++t); 
....................  
....................       if (*t == '\0') 
....................          return s1; 
....................       ++s1; 
....................       #ifdef FASTER_BUT_MORE_ROM 
....................          while(*s1 != '\0' && *s1 != *s2) 
....................             ++s1; 
....................       #endif 
....................    } 
....................    return 0; 
.................... } 
....................  
.................... /* standard template: char *strtok(char *s1, const char *s2). 
....................  
....................    Finds next token in s1 delimited by a character from separator 
....................    string s2 (which can be different from call to call).  First call 
....................    starts at beginning of s1 searching for first character NOT 
....................    contained in s2; returns 0 if none is found. 
....................    If one is found, it is the start of first token (return value). 
....................    Function then searches from there for a character contained in s2. 
....................    If none is found, current token extends to end of s1, and subsequent 
....................    searches for a token will return 0.  If one is found, it is 
....................    overwritten by '\0', which terminates current token.  Function saves 
....................    pointer to following character from which next search will start. 
....................    Each subsequent call, with 0 as first argument, starts searching 
....................    from saved pointer */ 
....................  
.................... char *strtok(char *s1, char *s2) 
.................... { 
....................    char *beg, *end; 
....................    static char *save; 
....................  
....................    beg = (s1)? s1: save; 
....................    beg += strspn(beg, s2); 
....................    if (*beg == '\0') 
....................    { 
....................       *save = ' '; 
....................       return(0); 
....................    } 
....................    end = strpbrk(beg, s2); 
....................    if (*end != '\0') 
....................    { 
....................       *end = '\0'; 
....................       end++; 
....................    } 
....................    save = end; 
....................    return(beg); 
.................... } 
....................  
.................... /*****************************************************************/ 
.................... /*Miscellaneous functions*/ 
.................... /* standard template 
.................... maps error number in errnum to an error message string 
.................... Returns: Pointer to string 
.................... */ 
.................... #ifdef _ERRNO 
.................... char * strerror(unsigned int8 errnum) 
.................... { 
.................... char s[15]; 
.................... switch( errnum) 
.................... { 
.................... case 0: 
....................    strcpy(s,"no errors"); 
....................    return s; 
.................... case EDOM : 
....................    strcpy(s,"domain error"); 
....................    return s; 
.................... case ERANGE: 
....................    strcpy(s,"range error"); 
....................    return s; 
.................... } 
.................... } 
.................... #ENDIF 
.................... /* standard template: size_t strlen(const char *s). 
....................    Computes length of s1 (preceding terminating 0) */ 
....................  
.................... unsigned int8 strlen(char *s) 
.................... { 
....................    char *sc; 
....................  
....................    for (sc = s; *sc != 0; sc++); 
....................    return(sc - s); 
.................... } 
....................  
.................... /* standard template: size_t stricmp(const char *s1, const char *s2). 
....................    Compares s1 to s2 ignoring case (upper vs. lower) */ 
....................  
.................... signed int8 stricmp(char *s1, char *s2) 
.................... { 
....................  for(; *s1==*s2||(isalpha(*s1)&&isalpha(*s2)&&(*s1==*s2+32||*s2==*s1+32)); 
....................     s1++, s2++) 
....................     if (*s1 == '\0') 
....................        return(0); 
....................  return((*s1 < *s2) ? -1: 1); 
.................... } 
....................  
....................  
.................... /* standard template: char *strlwr(char *s). 
....................    Replaces uppercase letters by lowercase; 
....................    returns pointer to new string s */ 
....................  
.................... char *strlwr(char *s) 
.................... { 
....................    char *p; 
....................  
....................    for (p = s; *p != '\0'; p++) 
....................       if (*p >= 'A' && *p <='Z') 
....................          *p += 'a' - 'A'; 
....................    return(s); 
.................... } 
....................  
....................  
.................... /************************************************************/ 
....................  
....................  
.................... #endif 
....................  
.................... #include <stdlib.h> 
.................... /////////////////////////////////////////////////////////////////////////// 
.................... ////        (C) Copyright 1996,2007 Custom Computer Services           //// 
.................... //// This source code may only be used by licensed users of the CCS C  //// 
.................... //// compiler.  This source code may only be distributed to other      //// 
.................... //// licensed users of the CCS C compiler.  No other use, reproduction //// 
.................... //// or distribution is permitted without written permission.          //// 
.................... //// Derivative programs created using this software in object code    //// 
.................... //// form are not restricted in any way.                               //// 
.................... /////////////////////////////////////////////////////////////////////////// 
....................  
.................... #ifndef _STDLIB 
.................... #define _STDLIB 
....................  
.................... //--------------------------------------------------------------------------- 
.................... // Definitions and types 
.................... //--------------------------------------------------------------------------- 
....................  
.................... #ifndef RAND_MAX 
.................... #define RAND_MAX  32767    // The value of which is the maximum value 
....................                            // ... returned by the rand function 
.................... #endif 
....................  
....................  
.................... #IF (sizeof(int16*)>1) 
.................... #DEFINE LONG_POINTERS 1 
.................... #ELSE  
.................... #DEFINE LONG_POINTERS 0 
.................... #ENDIF 
....................  
.................... typedef struct { 
....................    signed int quot; 
....................    signed int rem; 
.................... } div_t; 
....................  
.................... typedef struct { 
....................    signed long quot; 
....................    signed long rem; 
.................... } ldiv_t; 
....................  
.................... #include <stddef.h> 
.................... /////////////////////////////////////////////////////////////////////////// 
.................... ////        (C) Copyright 1996,2003 Custom Computer Services           //// 
.................... //// This source code may only be used by licensed users of the CCS C  //// 
.................... //// compiler.  This source code may only be distributed to other      //// 
.................... //// licensed users of the CCS C compiler.  No other use, reproduction //// 
.................... //// or distribution is permitted without written permission.          //// 
.................... //// Derivative programs created using this software in object code    //// 
.................... //// form are not restricted in any way.                               //// 
.................... /////////////////////////////////////////////////////////////////////////// 
....................  
.................... #ifndef _STDDEF 
....................  
.................... #define _STDDEF 
....................  
.................... #if sizeof(unsigned int8 *)==1 
.................... #define ptrdiff_t unsigned int8 
.................... #else 
.................... #define ptrdiff_t unsigned int16 
.................... #endif 
....................  
.................... #define size_t unsigned int8 
.................... #define wchar_t char 
.................... #define NULL 0 
....................  
.................... #define offsetof(s,f) (offsetofbit(s,f)/8) 
....................  
.................... #endif 
....................  
....................  
.................... //--------------------------------------------------------------------------- 
.................... // String conversion functions 
.................... //--------------------------------------------------------------------------- 
....................  
.................... /* Standard template: signed int  atoi(char * s) 
....................  * converts the initial portion of the string s to a signed int 
....................  * returns the converted value if any, 0 otherwise 
....................  */ 
.................... signed int atoi(char *s); 
....................  
.................... /* Syntax: signed int32  atoi32(char * s) 
....................    converts the initial portion of the string s to a signed int32 
....................    returns the converted value if any, 0 otherwise*/ 
.................... #if (sizeof(long)==4) 
....................  #define atoi32(s) atol(s) 
.................... #else  
....................  signed int32 atoi32(char *s); 
.................... #endif 
....................  
.................... #if defined(__PCD__) 
.................... // The following functions only work on the 24 bit compiler 
.................... // for the 30F, 33F, 24F and 24H parts 
.................... /* Syntax: signed int48  atoi48(char * s) 
....................    converts the initial portion of the string s to a signed int48 
....................    returns the converted value if any, 0 otherwise*/ 
....................     
.................... signed int48 atoi48(char *s); 
....................  
.................... /* Syntax: signed int64  atoi64(char * s) 
....................    converts the initial portion of the string s to a signed int64 
....................    returns the converted value if any, 0 otherwise*/ 
.................... signed int64 atoi64(char *s); 
.................... #endif 
....................  
.................... /* Syntax: char *  itoa(signed int32 num, int8 base, char * s) 
....................    converts the signed int32 to a string and 
....................    returns the converted value if any, 0 otherwise*/ 
.................... char * itoa(signed int32 num, unsigned int base, char * s); 
....................  
.................... /* Standard template: signed int16  atol(char * s) 
....................  * converts the initial portion of the string s to a signed int16 
....................  * returns the converted value if any, 0 otherwise 
....................  */ 
.................... signed long atol(char *s); 
....................  
.................... /* Standard template: int16 strtoul(char * s,char *endptr,signed int base) 
....................  * converts the initial portion of the string s, represented as an 
....................  * integral value of radix base  to a signed long. 
....................  * Returns the converted value if any, 0 otherwise 
....................  * the final string is returned in the endptr, if endptr is not null 
....................  */ 
.................... signed long strtol(char *s,char *endptr, signed int base); 
....................  
.................... /* Standard template: int16 strtoul(char * s,char *endptr,signed int base) 
....................  * converts the initial portion of the string s, represented as an 
....................  * integral value of radix base to a unsigned long. 
....................  * returns the converted value if any, 0 otherwise 
....................  * the final string is returned in the endptr, if endptr is not null 
....................  */ 
.................... unsigned long strtoul(char *s,char *endptr, signed int base); 
....................  
.................... /* Standart template: float strtof(char * s,char *endptr) 
....................                       float48 strtof48(char *s,char *endptr); 
....................                       float64 strtod(char *s,char *endptr); 
....................  * converts the initial portion of the string s to a float32, float48 or float64, 
....................  * returns the converted value if any, 0 otherwise 
....................  * the final string is returned in the endptr, if endptr is not null                    
.................... */ 
.................... float strtof(char *s,char *endptr); 
.................... #if defined(__PCD__) 
.................... float48 strtof48(char *s,char *endptr); 
.................... float64 strtod(char *s,char *endptr); 
.................... #else 
.................... //provided for compatibility 
.................... #define strtof48(s, e) strtof(s, e) 
.................... #define strtod(s, e) strtof(s, e) 
.................... #endif 
....................  
.................... /* Standard template: float32 atof(char * s) 
....................  * converts the initial portion of the string s to a float. 
....................  * returns the converted value if any, 0 otherwise 
....................  */ 
.................... #define atof(s)   strtof(s, 0) 
....................  
.................... #if defined(__PCD__) 
.................... // The following functions only work on the 24 bit compiler 
.................... // for the 30F, 33F, 24F and 24H parts 
....................  
.................... /* Standard template: float48 atof48(char * s) 
....................  * converts the initial portion of the string s to a float. 
....................  * returns the converted value if any, 0 otherwise 
....................  */ 
.................... #define atof48(s) strtof48(s, 0) 
....................  
.................... /* Standard template: float64 atof64(char * s) 
....................  * converts the initial portion of the string s to a float. 
....................  * returns the converted value if any, 0 otherwise 
....................  */ 
.................... #define atof64(s) strtod(s, 0) 
.................... #endif 
....................  
.................... /* Standard template: float32 atoe(char * s) 
....................  * converts the initial portion of the string s to a float. 
....................  * returns the converted value if any, 0 otherwise 
....................  * also handles E format numbers 
....................  */ 
.................... #if !defined(__PCD__) 
.................... float atoe(char * s); 
.................... #endif 
....................  
.................... #if defined(__PCD__) 
.................... float32 atoe(char * s); 
.................... #endif 
....................  
.................... //--------------------------------------------------------------------------- 
.................... // Pseudo-random sequence generation functions 
.................... //--------------------------------------------------------------------------- 
....................  
.................... /* The rand function computes a sequence of pseudo-random integers in 
....................  * the range 0 to RAND_MAX 
....................  * 
....................  * Parameters: 
....................  *       (none) 
....................  * 
....................  * Returns: 
....................  *       The pseudo-random integer 
....................  */ 
.................... unsigned int16 rand(void); 
....................  
.................... /* The srand function uses the argument as a seed for a new sequence of 
....................  * pseudo-random numbers to be returned by subsequent calls to rand. 
....................  * 
....................  * Parameters: 
....................  *       [in] seed: The seed value to start from. You might need to pass 
....................  * 
....................  * Returns: 
....................  *       (none) 
....................  * 
....................  * Remarks 
....................  *          The srand function sets the starting point for generating 
....................  *       a series of pseudorandom integers. To reinitialize the 
....................  *       generator, use 1 as the seed argument. Any other value for 
....................  *       seed sets the generator to a random starting point. rand 
....................  *       retrieves the pseudorandom numbers that are generated. 
....................  *       Calling rand before any call to srand generates the same 
....................  *       sequence as calling srand with seed passed as 1. 
....................  *          Usually, you need to pass a time here from outer source 
....................  *       so that the numbers will be different every time you run. 
....................  */ 
.................... void srand(unsigned int32 seed); 
....................  
.................... //--------------------------------------------------------------------------- 
.................... // Memory management functions 
.................... //--------------------------------------------------------------------------- 
....................  
.................... // Comming soon 
....................  
.................... //--------------------------------------------------------------------------- 
.................... // Communication with the environment 
.................... //--------------------------------------------------------------------------- 
....................  
.................... /* The function returns 0 always 
....................  */ 
.................... signed int8 system(char *string); 
....................  
.................... //--------------------------------------------------------------------------- 
.................... // Searching and sorting utilities 
.................... //--------------------------------------------------------------------------- 
....................  
.................... /* Performs a binary search of a sorted array.. 
....................  * 
....................  * Parameters: 
....................  *       [in] key: Object to search for 
....................  *       [in] base: Pointer to base of search data 
....................  *       [in] num: Number of elements 
....................  *       [in] width: Width of elements 
....................  *       [in] compare: Function that compares two elements 
....................  * 
....................  * Returns: 
....................  *       bsearch returns a pointer to an occurrence of key in the array pointed 
....................  *       to by base. If key is not found, the function returns NULL. If the 
....................  *       array is not in order or contains duplicate records with identical keys, 
....................  *       the result is unpredictable. 
....................  */ 
.................... //void *bsearch(const void *key, const void *base, size_t num, size_t width, 
.................... //              int (*compare)(const void *, const void *)); 
....................  
.................... /* Performs the shell-metzner sort (not the quick sort algorithm). The contents 
....................  * of the array are sorted into ascending order according to a comparison 
....................  * function pointed to by compar. 
....................  * 
....................  * Parameters: 
....................  *       [in] base: Pointer to base of search data 
....................  *       [in] num: Number of elements 
....................  *       [in] width: Width of elements 
....................  *       [in] compare: Function that compares two elements 
....................  * 
....................  * Returns: 
....................  *       (none) 
....................  */ 
.................... //void *qsort(const void *base, size_t num, size_t width, 
.................... //              int (*compare)(const void *, const void *)); 
....................  
.................... //--------------------------------------------------------------------------- 
.................... // Integer arithmetic functions 
.................... //--------------------------------------------------------------------------- 
....................  
.................... #define labs abs 
....................  
.................... div_t div(signed int numer, signed int denom); 
.................... ldiv_t ldiv(signed long numer, signed long denom); 
....................  
.................... //--------------------------------------------------------------------------- 
.................... // Multibyte character functions 
.................... //--------------------------------------------------------------------------- 
....................  
.................... // Not supported 
....................  
.................... //--------------------------------------------------------------------------- 
.................... // Multibyte string functions 
.................... //--------------------------------------------------------------------------- 
....................  
.................... // Not supported 
....................  
....................  
.................... //--------------------------------------------------------------------------- 
.................... // Internal implementation 
.................... //--------------------------------------------------------------------------- 
....................  
.................... #include <stddef.h> 
.................... /////////////////////////////////////////////////////////////////////////// 
.................... ////        (C) Copyright 1996,2003 Custom Computer Services           //// 
.................... //// This source code may only be used by licensed users of the CCS C  //// 
.................... //// compiler.  This source code may only be distributed to other      //// 
.................... //// licensed users of the CCS C compiler.  No other use, reproduction //// 
.................... //// or distribution is permitted without written permission.          //// 
.................... //// Derivative programs created using this software in object code    //// 
.................... //// form are not restricted in any way.                               //// 
.................... /////////////////////////////////////////////////////////////////////////// 
....................  
.................... #ifndef _STDDEF 
....................  
.................... #define _STDDEF 
....................  
.................... #if sizeof(unsigned int8 *)==1 
.................... #define ptrdiff_t unsigned int8 
.................... #else 
.................... #define ptrdiff_t unsigned int16 
.................... #endif 
....................  
.................... #define size_t unsigned int8 
.................... #define wchar_t char 
.................... #define NULL 0 
....................  
.................... #define offsetof(s,f) (offsetofbit(s,f)/8) 
....................  
.................... #endif 
....................  
.................... #include <string.h> 
.................... //////////////////////////////////////////////////////////////////////////// 
.................... ////        (C) Copyright 1996,2008 Custom Computer Services            //// 
.................... //// This source code may only be used by licensed users of the CCS C   //// 
.................... //// compiler.  This source code may only be distributed to other       //// 
.................... //// licensed users of the CCS C compiler.  No other use, reproduction  //// 
.................... //// or distribution is permitted without written permission.           //// 
.................... //// Derivative programs created using this software in object code     //// 
.................... //// form are not restricted in any way.                                //// 
.................... //////////////////////////////////////////////////////////////////////////// 
....................  
.................... #ifndef _STRING 
.................... #define _STRING 
.................... #include <stddef.h> 
.................... #include <ctype.h> 
....................  
....................  
....................  
.................... ////////////////////////////////////////////// 
.................... //// Uncomment the following define to    //// 
.................... //// allow some functions to use a        //// 
.................... //// quicker algorithm, but use more ROM  //// 
.................... ////                                      //// 
.................... //// #define FASTER_BUT_MORE_ROM          //// 
.................... ////////////////////////////////////////////// 
....................  
....................  
....................  
.................... /*Copying functions*/ 
.................... /* standard template: 
....................    void *memmove(void *s1, void *s2, size_t n). 
....................    Copies max of n characters safely (not following ending '\0') 
....................    from s2 in s1; if s2 has less than n characters, appends 0 */ 
....................  
.................... char *memmove(void *s1,char *s2,size_t n) 
.................... { 
....................    char *sc1; 
....................    char *sc2; 
....................    sc1=s1; 
....................    sc2=s2; 
....................    if(sc2<sc1 && sc1 <sc2 +n) 
....................       for(sc1+=n,sc2+=n;0<n;--n) 
....................          *--sc1=*--sc2; 
....................    else 
....................       for(;0<n;--n) 
....................          *sc1++=*sc2++; 
....................   return s1; 
....................   } 
....................  
.................... /* Standard template: char *strcpy(char *s1, const char *s2) 
....................    copies the string s2 including the null character to s1. 
....................    This is a compiler built in to handle the different address 
....................    spaces */ 
....................  
.................... #define strcopy strcpy 
....................  
.................... /* standard template: 
....................    char *strncpy(char *s1, const char *s2, size_t n). 
....................    Copies max of n characters (not following ending '\0') 
....................    from s2 in s1; if s2 has less than n characters, appends 0 */ 
....................  
.................... char *strncpy(char *s1, char *s2, size_t n) 
.................... { 
....................   char *s; 
....................  
....................   for (s = s1; n > 0 && *s2 != '\0'; n--) 
....................      *s++ = *s2++; 
....................   for (; n > 0; n--) 
....................      *s++ = '\0'; 
....................  
....................   return(s1); 
.................... } 
.................... /***********************************************************/ 
....................  
.................... /*concatenation functions*/ 
.................... /* standard template: char *strcat(char *s1, const char *s2) 
.................... appends s2 to s1*/ 
....................  
.................... char *strcat(char *s1, char *s2) 
.................... { 
....................    char *s; 
....................  
....................    for (s = s1; *s != '\0'; ++s); 
....................    while(*s2 != '\0') 
....................    { 
....................       *s = *s2; 
....................       ++s; 
....................       ++s2; 
....................    } 
....................  
....................    *s = '\0'; 
....................    return(s1); 
.................... } 
.................... /* standard template: char *strncat(char *s1, char *s2,size_t n) 
.................... appends not more than n characters from s2 to s1*/ 
....................  
.................... char *strncat(char *s1, char *s2, size_t n) 
.................... { 
....................    char *s; 
....................  
....................    for (s = s1; *s != '\0'; ++s); 
....................    while(*s2 != '\0' && 0<n) 
....................    { 
....................       *s = *s2; 
....................       ++s; 
....................       ++s2; 
....................       --n; 
....................    } 
....................  
....................    *s = '\0'; 
....................    return(s1); 
.................... } 
....................  
.................... /***********************************************************/ 
....................  
....................  
.................... /*comparison functions*/ 
.................... /* standard template: signed int memcmp(void *s1, void *s2). 
....................    Compares s1 & s2; returns -1 if s1<s2, 0 if s1=s2, 1 if s1>s2 */ 
....................  
.................... signed int8 memcmp(void * s1,char *s2,size_t n) 
.................... { 
.................... char *su1, *su2; 
.................... for(su1=s1, su2=s2; 0<n; ++su1, ++su2, --n) 
.................... { 
....................    if(*su1!=*su2) 
....................       return ((*su1<*su2)?-1:+1); 
.................... } 
.................... return 0; 
.................... } 
....................  
.................... /* standard template: int strcmp(const char *s1, const char *s2). 
....................    Compares s1 & s2; returns -1 if s1<s2, 0 if s1=s2, 1 if s1>s2 */ 
....................  
.................... signed int8 strcmp(char *s1, char *s2) 
.................... { 
....................    for (; *s1 == *s2; s1++, s2++) 
....................       if (*s1 == '\0') 
....................          return(0); 
....................    return((*s1 < *s2) ? -1: 1); 
.................... } 
.................... /* standard template: int strcoll(const char *s1, const char *s2). 
....................    Compares s1 & s2; returns -1 if s1<s2, 0 if s1=s2, 1 if s1>s2 */ 
....................  
.................... signed int8 strcoll(char *s1, char *s2) 
.................... { 
....................    for (; *s1 == *s2; s1++, s2++) 
....................       if (*s1 == '\0') 
....................          return(0); 
....................    return((*s1 < *s2) ? -1: 1); 
.................... } 
....................  
.................... /* standard template: 
....................    int strncmp(const char *s1, const char *s2, size_t n). 
....................    Compares max of n characters (not following 0) from s1 to s2; 
....................    returns same as strcmp */ 
....................  
.................... signed int8 strncmp(char *s1, char *s2, size_t n) 
.................... { 
....................    for (; n > 0; s1++, s2++, n--) 
....................       if (*s1 != *s2) 
....................          return((*s1 <*s2) ? -1: 1); 
....................       else if (*s1 == '\0') 
....................          return(0); 
....................    return(0); 
.................... } 
.................... /* standard template: 
....................    int strxfrm(const char *s1, const char *s2, size_t n). 
....................    transforms maximum of n characters from s2 and places them into s1*/ 
.................... size_t strxfrm(char *s1, char *s2, size_t n) 
.................... { 
....................   char *s; 
....................   unsigned int8 n1; 
....................   n1=n; 
....................   for (s = s1; n > 0 && *s2 != '\0'; n--) 
....................      *s++ = *s2++; 
....................   for (; n > 0; n--) 
....................      *s++ = '\0'; 
....................  
....................   return(n1); 
.................... } 
....................  
....................  
....................  
....................  
....................  
.................... /***********************************************************/ 
.................... /*Search functions*/ 
.................... /* standard template: void *memchr(const char *s, int c). 
....................    Finds first occurrence of c in n characters of s */ 
....................  
.................... char *memchr(void *s,unsigned int8 c,size_t n) 
.................... { 
....................    char uc; 
....................    char *su; 
....................    uc=c; 
....................    for(su=s;0<n;++su,--n) 
....................       if(*su==uc) 
....................       return su; 
....................    return NULL; 
.................... } 
....................  
.................... /* standard template: char *strchr(const char *s, int c). 
....................    Finds first occurrence of c in s */ 
....................  
.................... char *strchr(char *s, unsigned int8 c) 
.................... { 
....................    for (; *s != c; s++) 
....................       if (*s == '\0') 
....................          return(0); 
....................    return(s); 
.................... } 
.................... /* standard template: 
....................    size_t strcspn(const char *s1, const char *s2). 
....................    Computes length of max initial segment of s1 that 
....................    consists entirely of characters NOT from s2*/ 
....................  
.................... unsigned int8  strcspn(char *s1, char *s2) 
.................... { 
....................    char *sc1, *sc2; 
....................  
....................    for (sc1 = s1; *sc1 != 0; sc1++) 
....................       for (sc2 = s2; *sc2 != 0; sc2++) 
....................          if (*sc1 == *sc2) 
....................             return(sc1 - s1); 
....................    return(sc1 - s1); 
.................... } 
.................... /* standard template: 
....................    char *strpbrk(const char *s1, const char *s2). 
....................    Locates first occurence of any character from s2 in s1; 
....................    returns s1 if s2 is empty string */ 
....................  
.................... char *strpbrk(char *s1, char *s2) 
.................... { 
....................    char *sc1, *sc2; 
....................  
....................    for (sc1 = s1; *sc1 != 0; sc1++) 
....................       for (sc2 = s2; *sc2 != 0; sc2++) 
....................          if (*sc1 == *sc2) 
....................             return(sc1); 
....................    return(0); 
.................... } 
....................  
....................  
.................... /* standard template: char *strrchr(const char *s, int c). 
....................    Finds last occurrence of c in s */ 
....................  
.................... char *strrchr(char *s, unsigned int8 c) 
.................... { 
....................    char *p; 
....................  
....................    for (p = 0; ; s++) 
....................    { 
....................       if (*s == c) 
....................          p = s; 
....................       if (*s == '\0') 
....................          return(p); 
....................    } 
.................... } 
.................... /* computes length of max initial segment of s1 consisting 
....................    entirely of characters from s2 */ 
....................  
.................... unsigned int8  strspn(char *s1, char *s2) 
.................... { 
....................    char *sc1, *sc2; 
....................  
....................    for (sc1 = s1; *sc1 != 0; sc1++) 
....................       for (sc2 = s2; ; sc2++) 
....................     if (*sc2 == '\0') 
....................        return(sc1 - s1); 
....................          else if (*sc1 == *sc2) 
....................             break; 
....................    return(sc1 - s1); 
.................... } 
.................... /* standard template: 
....................    char *strstr(const char *s1, const char *s2); 
....................    Locates first occurence of character sequence s2 in s1; 
....................    returns 0 if s2 is empty string 
....................  
....................    Uncomment #define FASTER_BUT_MORE_ROM at the top of the 
....................    file to use the faster algorithm */ 
.................... char *strstr(char *s1, char *s2) 
.................... { 
....................    char *s, *t; 
....................  
....................    #ifdef FASTER_BUT_MORE_ROM 
....................    if (*s2 == '\0') 
....................          return(s1); 
....................    #endif 
....................  
....................    while (*s1) 
....................    { 
....................       for(s = s1, t = s2; *t && (*s == *t); ++s, ++t); 
....................  
....................       if (*t == '\0') 
....................          return s1; 
....................       ++s1; 
....................       #ifdef FASTER_BUT_MORE_ROM 
....................          while(*s1 != '\0' && *s1 != *s2) 
....................             ++s1; 
....................       #endif 
....................    } 
....................    return 0; 
.................... } 
....................  
.................... /* standard template: char *strtok(char *s1, const char *s2). 
....................  
....................    Finds next token in s1 delimited by a character from separator 
....................    string s2 (which can be different from call to call).  First call 
....................    starts at beginning of s1 searching for first character NOT 
....................    contained in s2; returns 0 if none is found. 
....................    If one is found, it is the start of first token (return value). 
....................    Function then searches from there for a character contained in s2. 
....................    If none is found, current token extends to end of s1, and subsequent 
....................    searches for a token will return 0.  If one is found, it is 
....................    overwritten by '\0', which terminates current token.  Function saves 
....................    pointer to following character from which next search will start. 
....................    Each subsequent call, with 0 as first argument, starts searching 
....................    from saved pointer */ 
....................  
.................... char *strtok(char *s1, char *s2) 
.................... { 
....................    char *beg, *end; 
....................    static char *save; 
....................  
....................    beg = (s1)? s1: save; 
....................    beg += strspn(beg, s2); 
....................    if (*beg == '\0') 
....................    { 
....................       *save = ' '; 
....................       return(0); 
....................    } 
....................    end = strpbrk(beg, s2); 
....................    if (*end != '\0') 
....................    { 
....................       *end = '\0'; 
....................       end++; 
....................    } 
....................    save = end; 
....................    return(beg); 
.................... } 
....................  
.................... /*****************************************************************/ 
.................... /*Miscellaneous functions*/ 
.................... /* standard template 
.................... maps error number in errnum to an error message string 
.................... Returns: Pointer to string 
.................... */ 
.................... #ifdef _ERRNO 
.................... char * strerror(unsigned int8 errnum) 
.................... { 
.................... char s[15]; 
.................... switch( errnum) 
.................... { 
.................... case 0: 
....................    strcpy(s,"no errors"); 
....................    return s; 
.................... case EDOM : 
....................    strcpy(s,"domain error"); 
....................    return s; 
.................... case ERANGE: 
....................    strcpy(s,"range error"); 
....................    return s; 
.................... } 
.................... } 
.................... #ENDIF 
.................... /* standard template: size_t strlen(const char *s). 
....................    Computes length of s1 (preceding terminating 0) */ 
....................  
.................... unsigned int8 strlen(char *s) 
.................... { 
....................    char *sc; 
....................  
....................    for (sc = s; *sc != 0; sc++); 
....................    return(sc - s); 
.................... } 
....................  
.................... /* standard template: size_t stricmp(const char *s1, const char *s2). 
....................    Compares s1 to s2 ignoring case (upper vs. lower) */ 
....................  
.................... signed int8 stricmp(char *s1, char *s2) 
.................... { 
....................  for(; *s1==*s2||(isalpha(*s1)&&isalpha(*s2)&&(*s1==*s2+32||*s2==*s1+32)); 
....................     s1++, s2++) 
....................     if (*s1 == '\0') 
....................        return(0); 
....................  return((*s1 < *s2) ? -1: 1); 
.................... } 
....................  
....................  
.................... /* standard template: char *strlwr(char *s). 
....................    Replaces uppercase letters by lowercase; 
....................    returns pointer to new string s */ 
....................  
.................... char *strlwr(char *s) 
.................... { 
....................    char *p; 
....................  
....................    for (p = s; *p != '\0'; p++) 
....................       if (*p >= 'A' && *p <='Z') 
....................          *p += 'a' - 'A'; 
....................    return(s); 
.................... } 
....................  
....................  
.................... /************************************************************/ 
....................  
....................  
.................... #endif 
....................  
....................  
.................... div_t div(signed int numer, signed int denom) 
.................... { 
....................    div_t val; 
....................    val.quot = numer / denom; 
....................    val.rem = numer - (denom * val.quot); 
....................    return (val); 
.................... } 
....................  
.................... ldiv_t ldiv(signed long numer, signed long denom) 
.................... { 
....................    ldiv_t val; 
....................  
....................    val.quot = numer / denom; 
....................    val.rem = numer - (denom * val.quot); 
....................    return (val); 
.................... } 
....................  
.................... #if defined(__PCD__) 
.................... float32 atoe(char * s) 
.................... { 
....................    float32 pow10 = 1.0; 
....................    float32 result = 0.0; 
....................    unsigned int8 sign = 0; 
....................    unsigned int8 expsign = 0; 
....................    char c; 
....................    unsigned int8 ptr = 0; 
....................    unsigned int8 i; 
....................    float32 exp = 1.0; 
....................    unsigned int8 expcnt = 0; 
....................  
....................    c = s[ptr++]; 
....................  
....................    if ((c>='0' && c<='9') || c=='+' || c=='-' || c=='.' || c=='E' || c=='e') { 
....................       if(c == '-') { 
....................          sign = 1; 
....................          c = s[ptr++]; 
....................       } 
....................       if(c == '+') 
....................          c = s[ptr++]; 
....................  
....................       while((c >= '0' && c <= '9')) { 
....................          result = 10*result + c - '0'; 
....................          c = s[ptr++]; 
....................       } 
....................  
....................       if (c == '.') { 
....................          c = s[ptr++]; 
....................          while((c >= '0' && c <= '9')) { 
....................              pow10 = pow10*10; 
....................              result += (c - '0')/pow10; 
....................              c = s[ptr++]; 
....................          } 
....................       } 
....................  
....................       // Handling the exponent 
....................       if (c=='e' || c=='E') { 
....................          c = s[ptr++]; 
....................  
....................          if(c == '-') { 
....................             expsign = 1; 
....................             c = s[ptr++]; 
....................          } 
....................          if(c == '+') 
....................             c = s[ptr++]; 
....................  
....................          while((c >= '0' && c <= '9')) { 
....................             expcnt = 10*expcnt + c - '0'; 
....................             c = s[ptr++]; 
....................          } 
....................  
....................          for(i=0;i<expcnt;i++) 
....................             exp*=10; 
....................  
....................          if(expsign==1) 
....................             result/=exp; 
....................          else 
....................             result*=exp; 
....................       } 
....................    } 
....................  
....................    if (sign == 1) 
....................       result = -1*result; 
....................    return(result); 
.................... } 
.................... #endif 
....................  
.................... #if !defined(__PCD__) 
.................... float atoe(char * s) 
.................... { 
....................    float pow10 = 1.0; 
....................    float result = 0.0; 
....................    unsigned int8 sign = 0; 
....................    unsigned int8 expsign = 0; 
....................    char c; 
....................    unsigned int8 ptr = 0; 
....................    unsigned int8 i; 
....................    float exp = 1.0; 
....................    unsigned int8 expcnt = 0; 
....................  
....................    c = s[ptr++]; 
....................  
....................    if ((c>='0' && c<='9') || c=='+' || c=='-' || c=='.' || c=='E' || c=='e') { 
....................       if(c == '-') { 
....................          sign = 1; 
....................          c = s[ptr++]; 
....................       } 
....................       if(c == '+') 
....................          c = s[ptr++]; 
....................  
....................       while((c >= '0' && c <= '9')) { 
....................          result = 10*result + c - '0'; 
....................          c = s[ptr++]; 
....................       } 
....................  
....................       if (c == '.') { 
....................          c = s[ptr++]; 
....................          while((c >= '0' && c <= '9')) { 
....................              pow10 = pow10*10; 
....................              result += (c - '0')/pow10; 
....................              c = s[ptr++]; 
....................          } 
....................       } 
....................  
....................       // Handling the exponent 
....................       if (c=='e' || c=='E') { 
....................          c = s[ptr++]; 
....................  
....................          if(c == '-') { 
....................             expsign = 1; 
....................             c = s[ptr++]; 
....................          } 
....................          if(c == '+') 
....................             c = s[ptr++]; 
....................  
....................          while((c >= '0' && c <= '9')) { 
....................             expcnt = 10*expcnt + c - '0'; 
....................             c = s[ptr++]; 
....................          } 
....................  
....................          for(i=0;i<expcnt;i++) 
....................             exp*=10; 
....................  
....................          if(expsign==1) 
....................             result/=exp; 
....................          else 
....................             result*=exp; 
....................       } 
....................    } 
....................  
....................    if (sign == 1) 
....................       result = -1*result; 
....................    return(result); 
.................... } 
.................... #endif 
....................  
.................... signed int atoi(char *s) 
.................... { 
....................    signed int result; 
....................    unsigned int sign, base, index; 
....................    char c; 
....................  
....................    index = 0; 
....................    sign = 0; 
....................    base = 10; 
....................    result = 0; 
....................  
....................    if (!s) 
....................       return 0; 
....................    // Omit all preceeding alpha characters 
....................    c = s[index++]; 
....................  
....................    // increase index if either positive or negative sign is detected 
....................    if (c == '-') 
....................    { 
....................       sign = 1;         // Set the sign to negative 
....................       c = s[index++]; 
....................    } 
....................    else if (c == '+') 
....................    { 
....................       c = s[index++]; 
....................    } 
....................  
....................    if (c >= '0' && c <= '9') 
....................    { 
....................  
....................       // Check for hexa number 
....................       if (c == '0' && (s[index] == 'x' || s[index] == 'X')) 
....................       { 
....................          base = 16; 
....................          index++; 
....................          c = s[index++]; 
....................       } 
....................  
....................       // The number is a decimal number 
....................       if (base == 10) 
....................       { 
....................          while (c >= '0' && c <= '9') 
....................          { 
....................             result = 10*result + (c - '0'); 
....................             c = s[index++]; 
....................          } 
....................       } 
....................       else if (base == 16)    // The number is a hexa number 
....................       { 
....................          c = toupper(c); 
....................          while ( (c >= '0' && c <= '9') || (c >= 'A' && c<='F')) 
....................          { 
....................             if (c >= '0' && c <= '9') 
....................                result = (result << 4) + (c - '0'); 
....................             else 
....................                result = (result << 4) + (c - 'A' + 10); 
....................  
....................             c = s[index++]; 
....................             c = toupper(c); 
....................          } 
....................       } 
....................    } 
....................  
....................    if (sign == 1 && base == 10) 
....................        result = -result; 
....................  
....................    return(result); 
.................... } 
....................  
.................... signed long atol(char *s) 
.................... { 
....................    signed long result; 
....................    unsigned int sign, base, index; 
....................    char c; 
....................  
....................    index = 0; 
....................    sign = 0; 
....................    base = 10; 
....................    result = 0; 
....................  
....................    if (!s) 
....................       return 0; 
....................    c = s[index++]; 
....................  
....................    // increase index if either positive or negative sign is detected 
....................    if (c == '-') 
....................    { 
....................       sign = 1;         // Set the sign to negative 
....................       c = s[index++]; 
....................    } 
....................    else if (c == '+') 
....................    { 
....................       c = s[index++]; 
....................    } 
....................  
....................    if (c >= '0' && c <= '9') 
....................    { 
....................       if (c == '0' && (s[index] == 'x' || s[index] == 'X')) 
....................       { 
....................          base = 16; 
....................          index++; 
....................          c = s[index++]; 
....................       } 
....................  
....................       // The number is a decimal number 
....................       if (base == 10) 
....................       { 
....................          while (c >= '0' && c <= '9') 
....................          { 
....................             result = 10*result + (c - '0'); 
....................             c = s[index++]; 
....................          } 
....................       } 
....................       else if (base == 16)    // The number is a hexa number 
....................       { 
....................          c = toupper(c); 
....................          while ( (c >= '0' && c <= '9') || (c >= 'A' && c <='F')) 
....................          { 
....................             if (c >= '0' && c <= '9') 
....................                result = (result << 4) + (c - '0'); 
....................             else 
....................                result = (result << 4) + (c - 'A' + 10); 
....................  
....................             c = s[index++];c = toupper(c); 
....................          } 
....................       } 
....................    } 
....................  
....................    if (base == 10 && sign == 1) 
....................       result = -result; 
....................  
....................    return(result); 
.................... } 
....................  
.................... /* A fast routine to multiply by 10 
....................  */ 
.................... signed int32 mult_with10(int32 num) 
.................... { 
....................    return ( (num << 1) + (num << 3) ); 
.................... } 
....................  
.................... #if sizeof(long)==2 
.................... signed int32 atoi32(char *s) 
.................... { 
....................    signed int32 result; 
....................    int8 sign, base, index; 
....................    char c; 
....................  
....................    index = 0; 
....................    sign = 0; 
....................    base = 10; 
....................    result = 0; 
....................  
....................    if (!s) 
....................       return 0; 
....................    c = s[index++]; 
....................  
....................    // increase index if either positive or negative sign is detected 
....................    if (c == '-') 
....................    { 
....................       sign = 1;         // Set the sign to negative 
....................       c = s[index++]; 
....................    } 
....................    else if (c == '+') 
....................    { 
....................       c = s[index++]; 
....................    } 
....................  
....................    if (c >= '0' && c <= '9') 
....................    { 
....................       if (c == '0' && (s[index] == 'x' || s[index] == 'X')) 
....................       { 
....................          base = 16; 
....................          index++; 
....................          c = s[index++]; 
....................       } 
....................  
....................       // The number is a decimal number 
....................       if (base == 10) 
....................       { 
....................          while (c >= '0' && c <= '9') { 
....................             result = (result << 1) + (result << 3);  // result *= 10; 
....................             result += (c - '0'); 
....................             c = s[index++]; 
....................          } 
....................       } 
....................       else if (base == 16)    // The number is a hexa number 
....................       { 
....................          c = toupper(c); 
....................          while ((c >= '0' && c <= '9') || (c >= 'A' && c <='F')) 
....................          { 
....................             if (c >= '0' && c <= '9') 
....................                result = (result << 4) + (c - '0'); 
....................             else 
....................                result = (result << 4) + (c - 'A' + 10); 
....................  
....................             c = s[index++];c = toupper(c); 
....................          } 
....................       } 
....................    } 
....................  
....................    if (base == 10 && sign == 1) 
....................       result = -result; 
....................  
....................    return(result); 
.................... } 
.................... #endif 
....................  
.................... #if defined(__PCD__) 
....................  
.................... signed int48 atoi48(char *s) 
.................... { 
....................    signed int48 result; 
....................    int8 sign, base, index; 
....................    char c; 
....................  
....................    index = 0; 
....................    sign = 0; 
....................    base = 10; 
....................    result = 0; 
....................  
....................    if (!s) 
....................       return 0; 
....................    c = s[index++]; 
....................  
....................    // increase index if either positive or negative sign is detected 
....................    if (c == '-') 
....................    { 
....................       sign = 1;         // Set the sign to negative 
....................       c = s[index++]; 
....................    } 
....................    else if (c == '+') 
....................    { 
....................       c = s[index++]; 
....................    } 
....................  
....................    if (c >= '0' && c <= '9') 
....................    { 
....................       if (c == '0' && (s[index] == 'x' || s[index] == 'X')) 
....................       { 
....................          base = 16; 
....................          index++; 
....................          c = s[index++]; 
....................       } 
....................  
....................       // The number is a decimal number 
....................       if (base == 10) 
....................       { 
....................          while (c >= '0' && c <= '9') { 
....................             result = (result << 1) + (result << 3);  // result *= 10; 
....................             result += (c - '0'); 
....................             c = s[index++]; 
....................          } 
....................       } 
....................       else if (base == 16)    // The number is a hexa number 
....................       { 
....................          c = toupper(c); 
....................          while ((c >= '0' && c <= '9') || (c >= 'A' && c <='F')) 
....................          { 
....................             if (c >= '0' && c <= '9') 
....................                result = (result << 4) + (c - '0'); 
....................             else 
....................                result = (result << 4) + (c - 'A' + 10); 
....................  
....................             c = s[index++];c = toupper(c); 
....................          } 
....................       } 
....................    } 
....................  
....................    if (base == 10 && sign == 1) 
....................       result = -result; 
....................  
....................    return(result); 
.................... } 
....................  
.................... signed int64 atoi64(char *s) 
.................... { 
....................    signed int64 result; 
....................    int8 sign, base, index; 
....................    char c; 
....................  
....................    index = 0; 
....................    sign = 0; 
....................    base = 10; 
....................    result = 0; 
....................  
....................    if (!s) 
....................       return 0; 
....................    c = s[index++]; 
....................  
....................    // increase index if either positive or negative sign is detected 
....................    if (c == '-') 
....................    { 
....................       sign = 1;         // Set the sign to negative 
....................       c = s[index++]; 
....................    } 
....................    else if (c == '+') 
....................    { 
....................       c = s[index++]; 
....................    } 
....................  
....................    if (c >= '0' && c <= '9') 
....................    { 
....................       if (c == '0' && (s[index] == 'x' || s[index] == 'X')) 
....................       { 
....................          base = 16; 
....................          index++; 
....................          c = s[index++]; 
....................       } 
....................  
....................       // The number is a decimal number 
....................       if (base == 10) 
....................       { 
....................          while (c >= '0' && c <= '9') { 
....................             result = (result << 1) + (result << 3);  // result *= 10; 
....................             result += (c - '0'); 
....................             c = s[index++]; 
....................          } 
....................       } 
....................       else if (base == 16)    // The number is a hexa number 
....................       { 
....................          c = toupper(c); 
....................          while ((c >= '0' && c <= '9') || (c >= 'A' && c <='F')) 
....................          { 
....................             if (c >= '0' && c <= '9') 
....................                result = (result << 4) + (c - '0'); 
....................             else 
....................                result = (result << 4) + (c - 'A' + 10); 
....................  
....................             c = s[index++];c = toupper(c); 
....................          } 
....................       } 
....................    } 
....................  
....................    if (base == 10 && sign == 1) 
....................       result = -result; 
....................  
....................    return(result); 
.................... } 
.................... #endif 
....................  
.................... char * itoa(signed int32 num, unsigned int base, char * s) 
.................... { 
....................      unsigned int32 temp=1; 
....................      unsigned int8 i,sign=0,cnt=0; 
....................      char c; 
....................  
....................      if(num<0) { 
....................          sign=1;        // Check for negative number 
....................          num*=-1; 
....................      } 
....................  
....................      while(temp>0) { 
....................          temp=(num/base); 
....................          s[cnt]=(num%base)+'0';    // Conversion 
....................  
....................          if(s[cnt]>0x39) 
....................             s[cnt]+=0x7; 
....................  
....................          cnt++; 
....................          num=temp; 
....................      } 
....................  
....................      if(sign==1) { 
....................          s[cnt]=0x2D;      // Negative sign 
....................          cnt++; 
....................      } 
....................  
....................      for(i = 0;i<(int8)(cnt/2);i++) { 
....................  
....................          c=s[i]; 
....................          s[i]=s[cnt-i-1];        // Reverse the number 
....................          s[cnt-i-1]=c; 
....................      } 
....................      s[cnt]='\0';     // End the string 
....................      return s; 
.................... } 
....................  
.................... float strtof(char *s, char *endptr) 
.................... { 
....................    float pow10 = 1.0; 
....................    float result = 0.0; 
....................    int1 skip = 1, sign = 0, point = 0; 
....................    char c; 
....................    unsigned int8 ptr = 0; 
....................  
....................    if (!s) 
....................       return 0; 
....................  
....................    for(c=s[ptr++]; c!=0; c=s[ptr++]) 
....................    { 
....................       if (skip && !isspace(c)) 
....................       { 
....................          skip = 0; 
....................          if (c == '+') 
....................          { 
....................             sign = 0; 
....................             continue; 
....................          }             
....................          else if (c == '-') 
....................          { 
....................             sign = 1; 
....................             continue; 
....................          } 
....................       } 
....................       if (!skip && (c == '.') && !point) 
....................          point = 1; 
....................       else if (!skip && isdigit(c)) 
....................       { 
....................          c -= '0'; 
....................          if (point) 
....................          { 
....................             pow10 = pow10 * 10.0; 
....................             result += (float)c / pow10;    
....................          } 
....................          else 
....................          { 
....................             result = 10.0 * result + (float)c; 
....................          } 
....................       } 
....................       else if (!skip) 
....................          break; 
....................    } 
....................  
....................    if (sign) 
....................       result = -1*result; 
....................        
....................    if(endptr) 
....................    { 
....................       if (ptr) { 
....................          ptr--; 
....................        #IF LONG_POINTERS  
....................          *((long *)endptr)= s+ptr;  
....................        #ELSE 
....................          *((char *)endptr)=s+ptr; 
....................        #ENDIF 
....................       } 
....................       else 
....................       { 
....................       #IF LONG_POINTERS 
....................       *((long *)endptr)= s;  
....................       #ELSE 
....................       *((char *)endptr)=s; 
....................       #ENDIF 
....................       } 
....................    } 
....................  
....................    return(result); 
.................... } 
....................  
.................... #if defined(__PCD__) 
.................... float48 strtof48(char *s, char *endptr) 
.................... { 
....................    float48 pow10 = 1.0; 
....................    float48 result = 0.0; 
....................    int1 skip = 1, sign = 0, point = 0; 
....................    char c; 
....................    unsigned int8 ptr = 0; 
....................  
....................    if (!s) 
....................       return 0; 
....................  
....................    for(c=s[ptr++]; c!=0; c=s[ptr++]) 
....................    { 
....................       if (skip && !isspace(c)) 
....................       { 
....................          skip = 0; 
....................          if (c == '+') 
....................          { 
....................             sign = 0; 
....................             continue; 
....................          }             
....................          else if (c == '-') 
....................          { 
....................             sign = 1; 
....................             continue; 
....................          } 
....................       } 
....................       if (!skip && (c == '.') && !point) 
....................          point = 1; 
....................       else if (!skip && isdigit(c)) 
....................       { 
....................          c -= '0'; 
....................          if (point) 
....................          { 
....................             pow10 = pow10 * 10.0; 
....................             result += (float48)c / pow10;    
....................          } 
....................          else 
....................          { 
....................             result = 10.0 * result + (float48)c; 
....................          } 
....................       } 
....................       else if (!skip) 
....................          break; 
....................    } 
....................  
....................    if (sign) 
....................       result = -1*result; 
....................        
....................    if(endptr) 
....................    { 
....................       if (ptr) { 
....................          ptr--; 
....................        #IF LONG_POINTERS  
....................          *((long *)endptr)= s+ptr;  
....................        #ELSE 
....................          *((char *)endptr)=s+ptr; 
....................        #ENDIF 
....................       } 
....................       else 
....................       { 
....................       #IF LONG_POINTERS 
....................       *((long *)endptr)= s;  
....................       #ELSE 
....................       *((char *)endptr)=s; 
....................       #ENDIF 
....................       } 
....................    } 
....................  
....................    return(result); 
.................... } 
....................  
.................... float64 strtod(char *s, char *endptr) 
.................... { 
....................    float64 pow10 = 1.0; 
....................    float64 result = 0.0; 
....................    int1 skip = 1, sign = 0, point = 0; 
....................    char c; 
....................    unsigned int8 ptr = 0; 
....................  
....................    if (!s) 
....................       return 0; 
....................  
....................    for(c=s[ptr++]; c!=0; c=s[ptr++]) 
....................    { 
....................       if (skip && !isspace(c)) 
....................       { 
....................          skip = 0; 
....................          if (c == '+') 
....................          { 
....................             sign = 0; 
....................             continue; 
....................          }             
....................          else if (c == '-') 
....................          { 
....................             sign = 1; 
....................             continue; 
....................          } 
....................       } 
....................       if (!skip && (c == '.') && !point) 
....................          point = 1; 
....................       else if (!skip && isdigit(c)) 
....................       { 
....................          c -= '0'; 
....................          if (point) 
....................          { 
....................             pow10 = pow10 * 10.0; 
....................             result += (float64)c / pow10;    
....................          } 
....................          else 
....................          { 
....................             result = 10.0 * result + (float64)c; 
....................          } 
....................       } 
....................       else if (!skip) 
....................          break; 
....................    } 
....................  
....................    if (sign) 
....................       result = -1*result; 
....................        
....................    if(endptr) 
....................    { 
....................       if (ptr) { 
....................          ptr--; 
....................        #IF LONG_POINTERS  
....................          *((long *)endptr)= s+ptr;  
....................        #ELSE 
....................          *((char *)endptr)=s+ptr; 
....................        #ENDIF 
....................       } 
....................       else 
....................       { 
....................       #IF LONG_POINTERS 
....................       *((long *)endptr)= s;  
....................       #ELSE 
....................       *((char *)endptr)=s; 
....................       #ENDIF 
....................       } 
....................    } 
....................  
....................    return(result); 
.................... } 
.................... #endif 
....................  
.................... unsigned long strtoul(char *s, char *endptr, signed int base) 
.................... { 
....................    char *sc,*s1,*sd; 
....................    unsigned long x=0; 
....................    char sign; 
....................    char digits[]="0123456789abcdefghijklmnopqstuvwxyz"; 
....................    for(sc=s;isspace(*sc);++sc); 
....................    sign=*sc=='-'||*sc=='+'?*sc++:'+'; 
....................    if(sign=='-' || base <0 || base ==1|| base >36) // invalid base 
....................    goto StrtoulGO; 
....................  
....................    else if (base) 
....................    { 
....................       if(base==16 && *sc =='0'&&(sc[1]=='x' || sc[1]=='X')) 
....................          sc+=2; 
....................       if(base==8 && *sc =='0') 
....................          sc+=1; 
....................       if(base==2 && *sc =='0'&&sc[1]=='b') 
....................          sc+=2; 
....................  
....................    } 
....................    else if(*sc!='0') // base is 0, find base 
....................       base=10; 
....................    else if (sc[1]=='x' || sc[1]=='X') 
....................       base =16,sc+=2; 
....................    else if(sc[1]=='b') 
....................       base=2,sc+=2; 
....................    else 
....................       base=8; 
....................    for (s1=sc;*sc=='0';++sc);// skip leading zeroes 
....................    sd=memchr(digits,tolower(*sc),base); 
....................    for(; sd!=0; ) 
....................    { 
....................       x=x*base+(int16)(sd-digits); 
....................       ++sc; 
....................       sd=memchr(digits,tolower(*sc),base); 
....................    } 
....................    if(s1==sc) 
....................    { 
....................    StrtoulGO: 
....................       if (endptr) 
....................       { 
....................          #IF LONG_POINTERS 
....................          *((long *)endptr)= s;  
....................          #ELSE 
....................          *((char *)endptr)=s; 
....................          #ENDIF 
....................          } 
....................    return 0; 
....................    } 
....................    if (endptr) 
....................    { 
....................          #IF LONG_POINTERS 
....................          *((long *)endptr)= sc;  
....................          #ELSE 
....................          *((char *)endptr)=sc;  
....................          #ENDIF 
....................    } 
....................    return x; 
.................... } 
....................  
....................  
.................... signed long strtol(char *s,char *endptr, signed int base) 
.................... { 
....................    char *sc,*s1,*sd; 
....................    signed long x=0; 
....................    char sign; 
....................    char digits[]="0123456789abcdefghijklmnopqstuvwxyz"; 
....................    for(sc=s;isspace(*sc);++sc); 
....................    sign=*sc=='-'||*sc=='+'?*sc++:'+'; 
....................    if (base <0 || base ==1|| base >36) // invalid base 
....................    goto StrtolGO; 
....................    else if (base) 
....................    { 
....................       if(base==16 && *sc =='0'&&(sc[1]=='x' || sc[1]=='X')) 
....................          sc+=2; 
....................       if(base==8 && *sc =='0') 
....................          sc+=1; 
....................       if(base==2 && *sc =='0'&&sc[1]=='b') 
....................          sc+=2; 
....................  
....................    } 
....................    else if(*sc!='0') // base is 0, find base 
....................       base=10; 
....................    else if (sc[1]=='x' || sc[1]=='X') 
....................       base =16,sc+=2; 
....................    else if(sc[1]=='b') 
....................       base=2,sc+=2; 
....................    else 
....................       base=8; 
....................    for (s1=sc;*sc=='0';++sc);// skip leading zeroes 
....................  
....................    sd=memchr(digits,tolower(*sc),base); 
....................    for(;sd!=0;) 
....................    { 
....................       x=x*base+(int16)(sd-digits); 
....................       ++sc; 
....................       sd=memchr(digits,tolower(*sc),base); 
....................    } 
....................    if(s1==sc) 
....................    { 
....................    StrtolGO: 
....................       if (endptr) 
....................       { 
....................          #IF LONG_POINTERS 
....................          *((long *)endptr)= s;  
....................          #ELSE 
....................          *((char *)endptr)=s; 
....................          #ENDIF 
....................       } 
....................    return 0; 
....................    } 
....................    if(sign=='-') 
....................       x  =-x; 
....................    if (endptr) 
....................    { 
....................         #IF LONG_POINTERS 
....................          *((long *)endptr)= sc;  
....................         #ELSE 
....................         *((char *)endptr)=sc; 
....................         #ENDIF 
....................    } 
....................    return x; 
.................... } 
....................  
.................... signed int8 system(char *string) 
.................... { 
....................    return 0; 
.................... } 
....................  
.................... int8 mblen(char *s,size_t n) 
.................... { 
....................    return strlen(s); 
.................... } 
....................  
.................... int8 mbtowc(wchar_t *pwc,char *s,size_t n) 
.................... { 
....................    *pwc=*s; 
....................    return 1; 
.................... } 
....................  
.................... int8 wctomb(char *s,wchar_t wchar) 
.................... { 
....................    *s=wchar; 
....................    return 1; 
.................... } 
....................  
.................... size_t mbstowcs(wchar_t *pwcs,char *s,size_t n) 
.................... { 
....................    strncpy(pwcs,s,n); 
....................    return strlen(pwcs); 
.................... } 
....................  
.................... size_t wcstombs(char *s,wchar_t *pwcs,size_t n) 
.................... { 
....................    strncpy(s,pwcs,n); 
....................    return strlen(s); 
.................... } 
....................  
.................... //--------------------------------------------------------------------------- 
.................... // The random number implementation 
.................... //--------------------------------------------------------------------------- 
....................  
.................... unsigned int32 _Randseed; 
....................  
.................... unsigned int16 rand(void) 
.................... { 
....................    _Randseed = _Randseed * 1103515245 + 12345; 
....................    return ((unsigned int16)(_Randseed >> 16) % RAND_MAX); 
.................... } 
....................  
.................... void srand(unsigned int32 seed) 
.................... { 
....................    _Randseed = seed; 
.................... } 
....................  
.................... //--------------------------------------------------------------------------- 
.................... // Searching and sorting utilities implementation 
.................... //--------------------------------------------------------------------------- 
....................  
.................... #if !defined(__PCD__) 
.................... typedef signed int8 (*_Cmpfun)(char * p1,char * p2);  
.................... #else  
.................... typedef signed int16 (*_Cmpfun)(char * p1,char * p2);  
.................... #endif 
....................  
....................  
....................  
.................... void qsort(char * qdata, unsigned int qitems, unsigned int qsize, _Cmpfun cmp) { 
....................    unsigned int m,j,i,l; 
....................    int1 done; 
....................    unsigned int8 t[16]; 
....................  
....................    m = qitems/2; 
....................    while( m > 0 ) { 
....................      for(j=0; j<(qitems-m); ++j) { 
....................         i = j; 
....................         do 
....................         { 
....................            done=1; 
....................            l = i+m; 
....................            if( (*cmp)(qdata+i*qsize, qdata+l*qsize) > 0 ) { 
....................               memcpy(t, qdata+i*qsize, qsize); 
....................               memcpy(qdata+i*qsize, qdata+l*qsize, qsize); 
....................               memcpy(qdata+l*qsize, t, qsize); 
....................               if(m <= i) 
....................                 i -= m; 
....................                 done = 0; 
....................            } 
....................         } while(!done); 
....................      } 
....................      m = m/2; 
....................    } 
.................... } 
....................  
....................  
.................... char *bsearch(char *key, char *base, size_t num, size_t width,_Cmpfun cmp) 
.................... { 
....................    char *p, *q; 
....................    size_t n; 
....................    size_t pivot; 
....................    signed int val; 
....................  
....................    p = base; 
....................    n = num; 
....................  
....................    while (n > 0) 
....................    { 
....................       pivot = n >> 1; 
....................       q = p + width * pivot; 
....................  
....................       val = (*cmp)(key, q); 
....................  
....................       if (val < 0) 
....................          n = pivot; 
....................       else if (val == 0) 
....................          return ((char *)q); 
....................       else { 
....................          p = q + width; 
....................          n -= pivot + 1; 
....................       } 
....................    } 
....................  
....................    return NULL;      // There's no match 
.................... } 
....................  
....................  
.................... #endif 
....................  
.................... #include <DS1302.c> 
.................... ////////////////////////////////////////////////////////////////////////// 
.................... ////                               DS1302.C                           //// 
.................... ////                     Driver for Real Time Clock                   //// 
.................... ////                                                                  //// 
.................... ////  rtc_init()                                   Call after power up//// 
.................... ////                                                                  //// 
.................... ////  rtc_set_datetime(day,mth,year,dow,hour,min)  Set the date/time  //// 
.................... ////                                                                  //// 
.................... ////  rtc_get_date(day,mth,year,dow)               Get the date       //// 
.................... ////                                                                  //// 
.................... ////  rtc_get_time(hr,min,sec)                     Get the time       //// 
.................... ////                                                                  //// 
.................... ////  rtc_write_nvr(address,data)                  Write to NVR       //// 
.................... ////                                                                  //// 
.................... ////  data = rtc_read_nvr(address)                 Read from NVR      //// 
.................... ////                                                                  //// 
.................... ////  get_bcd(data)                              Convert data to BCD  //// 
.................... ////                                                                  //// 
.................... ////  rm_bcd(data)                               Convert data to int  //// 
.................... ////                                                                  //// 
.................... ////////////////////////////////////////////////////////////////////////// 
.................... ////        (C) Copyright 1996,2003 Custom Computer Services          //// 
.................... //// This source code may only be used by licensed users of the CCS C //// 
.................... //// compiler.  This source code may only be distributed to other     //// 
.................... //// licensed users of the CCS C compiler.  No other use, reproduction//// 
.................... //// or distribution is permitted without written permission.         //// 
.................... //// Derivative programs created using this software in object code   //// 
.................... //// form are not restricted in any way.                              //// 
.................... ////////////////////////////////////////////////////////////////////////// 
....................  
.................... //#ifndef RTC_SCLK 
....................  
.................... #define RTC_SCLK PIN_D1 
.................... #define RTC_IO   PIN_D2 
.................... #define RTC_RST  PIN_D3 
....................  
.................... //#endif 
....................  
.................... void write_ds1302_byte(BYTE cmd) { 
....................    BYTE i; 
....................  
....................    for(i=0;i<=7;++i) { 
*
02CA2:  MOVLB  4
02CA4:  CLRF   x49
02CA6:  MOVF   x49,W
02CA8:  SUBLW  07
02CAA:  BNC   2CC6
....................       output_bit(RTC_IO, shift_right(&cmd,1,0) ); 
02CAC:  BCF    FD8.0
02CAE:  RRCF   x48,F
02CB0:  BC    2CB6
02CB2:  BCF    F8C.2
02CB4:  BRA    2CB8
02CB6:  BSF    F8C.2
02CB8:  BCF    F95.2
....................       output_high(RTC_SCLK); 
02CBA:  BCF    F95.1
02CBC:  BSF    F8C.1
....................       output_low(RTC_SCLK); 
02CBE:  BCF    F95.1
02CC0:  BCF    F8C.1
....................    } 
02CC2:  INCF   x49,F
02CC4:  BRA    2CA6
.................... } 
02CC6:  MOVLB  0
02CC8:  RETLW  00
....................  
.................... void write_ds1302(BYTE cmd, BYTE data) { 
....................  
....................    output_high(RTC_RST); 
02CCA:  BCF    F95.3
02CCC:  BSF    F8C.3
....................    write_ds1302_byte(cmd); 
02CCE:  MOVFF  446,448
02CD2:  RCALL  2CA2
....................    write_ds1302_byte(data); 
02CD4:  MOVFF  447,448
02CD8:  RCALL  2CA2
....................    output_low(RTC_RST); 
02CDA:  BCF    F95.3
02CDC:  BCF    F8C.3
.................... } 
02CDE:  RETLW  00
....................  
.................... BYTE read_ds1302(BYTE cmd) { 
....................    BYTE i,data; 
....................  
....................    output_high(RTC_RST); 
02CE0:  BCF    F95.3
02CE2:  BSF    F8C.3
....................    write_ds1302_byte(cmd); 
02CE4:  MOVFF  443,448
02CE8:  RCALL  2CA2
....................     
....................    input(RTC_IO); 
02CEA:  BSF    F95.2
....................    delay_us(10); 
02CEC:  MOVLW  10
02CEE:  MOVWF  00
02CF0:  DECFSZ 00,F
02CF2:  BRA    2CF0
02CF4:  NOP   
....................           
....................    for(i=0;i<=7;++i) { 
02CF6:  MOVLB  4
02CF8:  CLRF   x44
02CFA:  MOVF   x44,W
02CFC:  SUBLW  07
02CFE:  BNC   2D2A
....................       shift_right(&data,1,input(RTC_IO)); 
02D00:  BSF    F95.2
02D02:  BTFSC  F83.2
02D04:  BRA    2D0A
02D06:  BCF    FD8.0
02D08:  BRA    2D0C
02D0A:  BSF    FD8.0
02D0C:  RRCF   x45,F
....................       output_high(RTC_SCLK); 
02D0E:  BCF    F95.1
02D10:  BSF    F8C.1
....................       delay_us(20); 
02D12:  MOVLW  21
02D14:  MOVWF  00
02D16:  DECFSZ 00,F
02D18:  BRA    2D16
....................       output_low(RTC_SCLK); 
02D1A:  BCF    F95.1
02D1C:  BCF    F8C.1
....................       delay_us(20); 
02D1E:  MOVLW  21
02D20:  MOVWF  00
02D22:  DECFSZ 00,F
02D24:  BRA    2D22
....................    } 
02D26:  INCF   x44,F
02D28:  BRA    2CFA
....................    output_low(RTC_RST); 
02D2A:  BCF    F95.3
02D2C:  BCF    F8C.3
....................  
....................    return(data); 
02D2E:  MOVFF  445,01
.................... } 
02D32:  MOVLB  0
02D34:  RETLW  00
....................  
.................... void rtc_init() { 
....................    BYTE x; 
....................    output_low(RTC_RST); 
02D36:  BCF    F95.3
02D38:  BCF    F8C.3
....................    delay_us(20); 
02D3A:  MOVLW  21
02D3C:  MOVWF  00
02D3E:  DECFSZ 00,F
02D40:  BRA    2D3E
....................    output_low(RTC_SCLK); 
02D42:  BCF    F95.1
02D44:  BCF    F8C.1
....................    write_ds1302(0x8e,0); 
02D46:  MOVLW  8E
02D48:  MOVLB  4
02D4A:  MOVWF  x46
02D4C:  CLRF   x47
02D4E:  MOVLB  0
02D50:  RCALL  2CCA
....................    write_ds1302(0x90,0xa4); 
02D52:  MOVLW  90
02D54:  MOVLB  4
02D56:  MOVWF  x46
02D58:  MOVLW  A4
02D5A:  MOVWF  x47
02D5C:  MOVLB  0
02D5E:  RCALL  2CCA
....................    x=read_ds1302(0x81); 
02D60:  MOVLW  81
02D62:  MOVLB  4
02D64:  MOVWF  x43
02D66:  MOVLB  0
02D68:  RCALL  2CE0
02D6A:  MOVFF  01,43F
....................    if((x & 0x80)!=0) 
02D6E:  MOVLB  4
02D70:  MOVF   x3F,W
02D72:  ANDLW  80
02D74:  BZ    2D82
....................      write_ds1302(0x80,0); 
02D76:  MOVLW  80
02D78:  MOVWF  x46
02D7A:  CLRF   x47
02D7C:  MOVLB  0
02D7E:  RCALL  2CCA
02D80:  MOVLB  4
.................... } 
02D82:  MOVLB  0
02D84:  GOTO   769E (RETURN)
....................  
.................... byte get_bcd(BYTE data) 
.................... { 
....................    byte nibh; 
....................    byte nibl; 
....................  
....................    nibh=data/10; 
*
04D50:  MOVFF  445,449
04D54:  MOVLW  0A
04D56:  MOVLB  4
04D58:  MOVWF  x4A
04D5A:  MOVLB  0
04D5C:  RCALL  487C
04D5E:  MOVFF  01,446
....................    nibl=data-(nibh*10); 
04D62:  MOVLB  4
04D64:  MOVF   x46,W
04D66:  MULLW  0A
04D68:  MOVF   FF3,W
04D6A:  SUBWF  x45,W
04D6C:  MOVWF  x47
....................  
....................    return((nibh<<4)|nibl); 
04D6E:  SWAPF  x46,W
04D70:  MOVWF  00
04D72:  MOVLW  F0
04D74:  ANDWF  00,F
04D76:  MOVF   00,W
04D78:  IORWF  x47,W
04D7A:  MOVWF  01
.................... } 
04D7C:  MOVLB  0
04D7E:  RETLW  00
....................  
.................... byte rm_bcd(BYTE data) 
.................... { 
....................    byte i; 
....................  
....................    i=data; 
*
04716:  MOVFF  444,445
....................    data=(i>>4)*10; 
0471A:  MOVLB  4
0471C:  SWAPF  x45,W
0471E:  MOVWF  00
04720:  MOVLW  0F
04722:  ANDWF  00,F
04724:  MOVF   00,W
04726:  MULLW  0A
04728:  MOVFF  FF3,444
....................    data=data+(i<<4>>4); 
0472C:  SWAPF  x45,W
0472E:  MOVWF  00
04730:  MOVLW  F0
04732:  ANDWF  00,F
04734:  MOVF   00,W
04736:  SWAPF  00,F
04738:  MOVLW  0F
0473A:  ANDWF  00,F
0473C:  MOVF   00,W
0473E:  ADDWF  x44,F
....................  
....................    return data; 
04740:  MOVFF  444,01
.................... } 
04744:  MOVLB  0
04746:  RETLW  00
....................  
.................... void rtc_set_datetime(BYTE day, BYTE mth, BYTE year, BYTE dow, BYTE hr, BYTE min) { 
....................  
....................    write_ds1302(0x86,get_bcd(day)); 
*
04D80:  MOVFF  43F,445
04D84:  RCALL  4D50
04D86:  MOVFF  01,445
04D8A:  MOVLW  86
04D8C:  MOVLB  4
04D8E:  MOVWF  x46
04D90:  MOVFF  01,447
04D94:  MOVLB  0
04D96:  CALL   2CCA
....................    write_ds1302(0x88,get_bcd(mth)); 
04D9A:  MOVFF  440,445
04D9E:  RCALL  4D50
04DA0:  MOVFF  01,445
04DA4:  MOVLW  88
04DA6:  MOVLB  4
04DA8:  MOVWF  x46
04DAA:  MOVFF  01,447
04DAE:  MOVLB  0
04DB0:  CALL   2CCA
....................    write_ds1302(0x8c,get_bcd(year)); 
04DB4:  MOVFF  441,445
04DB8:  RCALL  4D50
04DBA:  MOVFF  01,445
04DBE:  MOVLW  8C
04DC0:  MOVLB  4
04DC2:  MOVWF  x46
04DC4:  MOVFF  01,447
04DC8:  MOVLB  0
04DCA:  CALL   2CCA
....................    write_ds1302(0x8a,get_bcd(dow)); 
04DCE:  MOVFF  442,445
04DD2:  RCALL  4D50
04DD4:  MOVFF  01,445
04DD8:  MOVLW  8A
04DDA:  MOVLB  4
04DDC:  MOVWF  x46
04DDE:  MOVFF  01,447
04DE2:  MOVLB  0
04DE4:  CALL   2CCA
....................    write_ds1302(0x84,get_bcd(hr)); 
04DE8:  MOVFF  443,445
04DEC:  RCALL  4D50
04DEE:  MOVFF  01,445
04DF2:  MOVLW  84
04DF4:  MOVLB  4
04DF6:  MOVWF  x46
04DF8:  MOVFF  01,447
04DFC:  MOVLB  0
04DFE:  CALL   2CCA
....................    write_ds1302(0x82,get_bcd(min)); 
04E02:  MOVFF  444,445
04E06:  RCALL  4D50
04E08:  MOVFF  01,445
04E0C:  MOVLW  82
04E0E:  MOVLB  4
04E10:  MOVWF  x46
04E12:  MOVFF  01,447
04E16:  MOVLB  0
04E18:  CALL   2CCA
....................    write_ds1302(0x80,get_bcd(0)); 
04E1C:  MOVLB  4
04E1E:  CLRF   x45
04E20:  MOVLB  0
04E22:  RCALL  4D50
04E24:  MOVFF  01,445
04E28:  MOVLW  80
04E2A:  MOVLB  4
04E2C:  MOVWF  x46
04E2E:  MOVFF  01,447
04E32:  MOVLB  0
04E34:  CALL   2CCA
.................... } 
04E38:  GOTO   A706 (RETURN)
....................  
.................... void rtc_get_date(BYTE& day, BYTE& mth, BYTE& year, BYTE& dow) { 
....................    day = rm_bcd(read_ds1302(0x87)); 
*
07922:  MOVLW  87
07924:  MOVLB  4
07926:  MOVWF  x43
07928:  MOVLB  0
0792A:  CALL   2CE0
0792E:  MOVFF  01,43F
07932:  MOVFF  01,444
07936:  CALL   4716
0793A:  MOVFF  01,3A0
....................    mth = rm_bcd(read_ds1302(0x89)); 
0793E:  MOVLW  89
07940:  MOVLB  4
07942:  MOVWF  x43
07944:  MOVLB  0
07946:  CALL   2CE0
0794A:  MOVFF  01,43F
0794E:  MOVFF  01,444
07952:  CALL   4716
07956:  MOVFF  01,39F
....................    year = rm_bcd(read_ds1302(0x8d)); 
0795A:  MOVLW  8D
0795C:  MOVLB  4
0795E:  MOVWF  x43
07960:  MOVLB  0
07962:  CALL   2CE0
07966:  MOVFF  01,43F
0796A:  MOVFF  01,444
0796E:  CALL   4716
07972:  MOVFF  01,39E
....................    dow = rm_bcd(read_ds1302(0x8b)); 
07976:  MOVLW  8B
07978:  MOVLB  4
0797A:  MOVWF  x43
0797C:  MOVLB  0
0797E:  CALL   2CE0
07982:  MOVFF  01,43F
07986:  MOVFF  01,444
0798A:  CALL   4716
0798E:  MOVFF  01,3A4
.................... } 
....................  
.................... void rtc_get_time(BYTE& hr, BYTE& min, BYTE& sec) { 
....................    hr = rm_bcd(read_ds1302(0x85)); 
07992:  MOVLW  85
07994:  MOVLB  4
07996:  MOVWF  x43
07998:  MOVLB  0
0799A:  CALL   2CE0
0799E:  MOVFF  01,43F
079A2:  MOVFF  01,444
079A6:  CALL   4716
079AA:  MOVFF  01,3A1
....................    min = rm_bcd(read_ds1302(0x83)); 
079AE:  MOVLW  83
079B0:  MOVLB  4
079B2:  MOVWF  x43
079B4:  MOVLB  0
079B6:  CALL   2CE0
079BA:  MOVFF  01,43F
079BE:  MOVFF  01,444
079C2:  CALL   4716
079C6:  MOVFF  01,3A2
....................    sec = rm_bcd(read_ds1302(0x81)); 
079CA:  MOVLW  81
079CC:  MOVLB  4
079CE:  MOVWF  x43
079D0:  MOVLB  0
079D2:  CALL   2CE0
079D6:  MOVFF  01,43F
079DA:  MOVFF  01,444
079DE:  CALL   4716
079E2:  MOVFF  01,3A3
.................... } 
....................  
.................... void rtc_write_nvr(BYTE address, BYTE data) { 
....................    write_ds1302(address|0xc0,data); 
.................... } 
....................  
.................... BYTE rtc_read_nvr(BYTE address) { 
....................     return(read_ds1302(address|0xc1)); 
.................... } 
....................  
.................... #include <24512.c> 
.................... /////////////////////////////////////////////////////////////////////////// 
.................... ////   Library for a 24LC512 serial EEPROM                             //// 
.................... ////                                                                   //// 
.................... ////   init_ext_eeprom();    Call before the other functions are used  //// 
.................... ////                                                                   //// 
.................... ////   write_ext_eeprom(a, d);  Write the byte d to the address a      //// 
.................... ////                                                                   //// 
.................... ////   d = read_ext_eeprom(a);   Read the byte d from the address a    //// 
.................... ////                                                                   //// 
.................... ////   The main program may define eeprom_sda                          //// 
.................... ////   and eeprom_scl to override the defaults below.                  //// 
.................... ////                                                                   //// 
.................... /////////////////////////////////////////////////////////////////////////// 
.................... ////        (C) Copyright 1996,2003 Custom Computer Services           //// 
.................... //// This source code may only be used by licensed users of the CCS C  //// 
.................... //// compiler.  This source code may only be distributed to other      //// 
.................... //// licensed users of the CCS C compiler.  No other use, reproduction //// 
.................... //// or distribution is permitted without written permission.          //// 
.................... //// Derivative programs created using this software in object code    //// 
.................... //// form are not restricted in any way.                               //// 
.................... /////////////////////////////////////////////////////////////////////////// 
....................  
.................... #ifndef EEPROM_SDA 
....................  
.................... #define EEPROM_SDA  PIN_C4 
.................... #define EEPROM_SCL  PIN_C3 
....................  
.................... #endif 
....................  
.................... //#use i2c(master, sda=EEPROM_SDA, scl=EEPROM_SCL) 
....................  
.................... #define EEPROM_ADDRESS long int 
.................... #define EEPROM_SIZE   65535 
....................  
.................... void init_ext_eeprom() 
.................... { 
....................    output_float(EEPROM_SCL); 
....................    output_float(EEPROM_SDA); 
....................  
.................... } 
....................  
.................... void write_ext_eeprom(long int address, BYTE data) 
.................... { 
....................    short int status; 
....................    i2c_start(); 
*
06010:  BSF    F94.4
06012:  MOVLW  05
06014:  MOVWF  00
06016:  DECFSZ 00,F
06018:  BRA    6016
0601A:  BSF    F94.3
0601C:  MOVLW  06
0601E:  MOVWF  00
06020:  DECFSZ 00,F
06022:  BRA    6020
06024:  BCF    F8B.4
06026:  BCF    F94.4
06028:  MOVLW  05
0602A:  MOVWF  00
0602C:  DECFSZ 00,F
0602E:  BRA    602C
06030:  BCF    F8B.3
06032:  BCF    F94.3
....................    i2c_write(0xa0); 
06034:  MOVLW  A0
06036:  MOVLB  4
06038:  MOVWF  x55
0603A:  MOVLB  0
0603C:  CALL   4610
....................    i2c_write(address>>8); 
06040:  MOVFF  447,44A
06044:  MOVLB  4
06046:  CLRF   x4B
06048:  MOVFF  447,455
0604C:  MOVLB  0
0604E:  CALL   4610
....................    i2c_write(address); 
06052:  MOVFF  446,455
06056:  CALL   4610
....................    i2c_write(data); 
0605A:  MOVFF  448,455
0605E:  CALL   4610
....................    i2c_stop(); 
06062:  BCF    F94.4
06064:  NOP   
06066:  BSF    F94.3
06068:  BTFSS  F82.3
0606A:  BRA    6068
0606C:  MOVLW  05
0606E:  MOVWF  00
06070:  DECFSZ 00,F
06072:  BRA    6070
06074:  BRA    6076
06076:  NOP   
06078:  BSF    F94.4
0607A:  MOVLW  05
0607C:  MOVWF  00
0607E:  DECFSZ 00,F
06080:  BRA    607E
....................    i2c_start(); 
06082:  BSF    F94.4
06084:  MOVLW  05
06086:  MOVWF  00
06088:  DECFSZ 00,F
0608A:  BRA    6088
0608C:  BSF    F94.3
0608E:  MOVLW  06
06090:  MOVWF  00
06092:  DECFSZ 00,F
06094:  BRA    6092
06096:  BCF    F8B.4
06098:  BCF    F94.4
0609A:  MOVLW  05
0609C:  MOVWF  00
0609E:  DECFSZ 00,F
060A0:  BRA    609E
060A2:  BCF    F8B.3
060A4:  BCF    F94.3
....................    status=i2c_write(0xa0); 
060A6:  MOVLW  A0
060A8:  MOVLB  4
060AA:  MOVWF  x55
060AC:  MOVLB  0
060AE:  CALL   4610
060B2:  MOVF   01,W
060B4:  MOVLB  4
060B6:  BCF    x49.0
060B8:  BTFSC  01.0
060BA:  BSF    x49.0
....................    //while(status==1) 
....................    //{ 
....................       i2c_start(); 
060BC:  BSF    F94.4
060BE:  MOVLW  05
060C0:  MOVWF  00
060C2:  DECFSZ 00,F
060C4:  BRA    60C2
060C6:  BSF    F94.3
060C8:  MOVLW  06
060CA:  MOVWF  00
060CC:  DECFSZ 00,F
060CE:  BRA    60CC
060D0:  BTFSS  F82.3
060D2:  BRA    60D0
060D4:  BCF    F8B.4
060D6:  BCF    F94.4
060D8:  MOVLW  05
060DA:  MOVWF  00
060DC:  DECFSZ 00,F
060DE:  BRA    60DC
060E0:  BCF    F8B.3
060E2:  BCF    F94.3
....................       status=i2c_write(0xa0); 
060E4:  MOVLW  A0
060E6:  MOVWF  x55
060E8:  MOVLB  0
060EA:  CALL   4610
060EE:  MOVF   01,W
060F0:  MOVLB  4
060F2:  BCF    x49.0
060F4:  BTFSC  01.0
060F6:  BSF    x49.0
....................    //} 
....................    i2c_stop(); 
060F8:  BCF    F94.4
060FA:  NOP   
060FC:  BSF    F94.3
060FE:  BTFSS  F82.3
06100:  BRA    60FE
06102:  MOVLW  05
06104:  MOVWF  00
06106:  DECFSZ 00,F
06108:  BRA    6106
0610A:  BRA    610C
0610C:  NOP   
0610E:  BSF    F94.4
06110:  MOVLW  05
06112:  MOVWF  00
06114:  DECFSZ 00,F
06116:  BRA    6114
.................... } 
06118:  MOVLB  0
0611A:  RETLW  00
....................  
.................... BYTE read_ext_eeprom(long int address) { 
....................    BYTE data; 
....................    i2c_start(); 
*
04F6A:  BSF    F94.4
04F6C:  MOVLW  05
04F6E:  MOVWF  00
04F70:  DECFSZ 00,F
04F72:  BRA    4F70
04F74:  BSF    F94.3
04F76:  MOVLW  06
04F78:  MOVWF  00
04F7A:  DECFSZ 00,F
04F7C:  BRA    4F7A
04F7E:  BCF    F8B.4
04F80:  BCF    F94.4
04F82:  MOVLW  05
04F84:  MOVWF  00
04F86:  DECFSZ 00,F
04F88:  BRA    4F86
04F8A:  BCF    F8B.3
04F8C:  BCF    F94.3
....................    i2c_write(0xa0); 
04F8E:  MOVLW  A0
04F90:  MOVLB  4
04F92:  MOVWF  x55
04F94:  MOVLB  0
04F96:  CALL   4610
....................    i2c_write(address>>8); 
04F9A:  MOVFF  445,447
04F9E:  MOVLB  4
04FA0:  CLRF   x48
04FA2:  MOVFF  445,455
04FA6:  MOVLB  0
04FA8:  CALL   4610
....................    i2c_write(address); 
04FAC:  MOVFF  444,455
04FB0:  CALL   4610
....................    i2c_start(); 
04FB4:  BSF    F94.4
04FB6:  MOVLW  05
04FB8:  MOVWF  00
04FBA:  DECFSZ 00,F
04FBC:  BRA    4FBA
04FBE:  BSF    F94.3
04FC0:  MOVLW  06
04FC2:  MOVWF  00
04FC4:  DECFSZ 00,F
04FC6:  BRA    4FC4
04FC8:  BTFSS  F82.3
04FCA:  BRA    4FC8
04FCC:  BCF    F8B.4
04FCE:  BCF    F94.4
04FD0:  MOVLW  05
04FD2:  MOVWF  00
04FD4:  DECFSZ 00,F
04FD6:  BRA    4FD4
04FD8:  BCF    F8B.3
04FDA:  BCF    F94.3
....................    i2c_write(0xa1); 
04FDC:  MOVLW  A1
04FDE:  MOVLB  4
04FE0:  MOVWF  x55
04FE2:  MOVLB  0
04FE4:  CALL   4610
....................    data=i2c_read(0); 
04FE8:  CLRF   00
04FEA:  BRA    4EFE
04FEC:  MOVFF  01,446
....................    i2c_stop(); 
04FF0:  BCF    F94.4
04FF2:  NOP   
04FF4:  BSF    F94.3
04FF6:  BTFSS  F82.3
04FF8:  BRA    4FF6
04FFA:  MOVLW  05
04FFC:  MOVWF  00
04FFE:  DECFSZ 00,F
05000:  BRA    4FFE
05002:  BRA    5004
05004:  NOP   
05006:  BSF    F94.4
05008:  MOVLW  05
0500A:  MOVWF  00
0500C:  DECFSZ 00,F
0500E:  BRA    500C
....................    return(data); 
05010:  MOVLB  4
05012:  MOVFF  446,01
.................... } 
05016:  MOVLB  0
05018:  RETLW  00
....................  
....................  
.................... //-----Defines para configuracion de logica de funcionamiento de autoclave---// 
.................... #define PT100Fija //Define para autcolaves con reservorio y Pt100 fija (NO FLEXIBLE) 
.................... #define Reservorio //Define para autoclaves con reservorio 
.................... #define Tmax 134 
.................... #define Tmin 105 
.................... //#define ULKA 
.................... //--------------------------------------------------------------------------// 
....................  
.................... #define   UP            !input(PIN_B0) 
.................... #define   DOWN          !input(PIN_B1) 
.................... #define   RIGHT         !input(PIN_B2) 
.................... #define   LEFT          !input(PIN_B3) 
....................  
.................... #define   DOOR          !input(PIN_B6) 
.................... #define   STOP          !input(PIN_B7) 
.................... #define   TERM          !input(PIN_B5) 
....................  
.................... #define   LOW           input(PIN_C1) 
.................... #define   HIG           input(PIN_C0) 
....................  
.................... #define   SSR_on           output_bit(PIN_C2,0) 
.................... #define   SSR_off          output_bit(PIN_C2,1) 
....................  
.................... #define   Buzzer_on        output_bit(PIN_D0,1) 
.................... #define   Buzzer_off       output_bit(PIN_D0,0) 
....................  
.................... #define   Desfogue_on      output_bit(PIN_D4,1) 
.................... #define   Desfogue_off     output_bit(PIN_D4,0) 
....................  
.................... #define   Agua_on          output_bit(PIN_D5,1) 
.................... #define   Agua_off         output_bit(PIN_D5,0) 
....................  
.................... #define   Bomba_on         output_bit(PIN_D6,1) 
.................... #define   Bomba_off        output_bit(PIN_D6,0) 
....................  
.................... #define OFF 0 
.................... #define ON  1 
.................... #define RX_BUFFER_SIZE  10 
.................... char Rx_Buffer[RX_BUFFER_SIZE+1]; 
.................... char Rx_Buffer2[RX_BUFFER_SIZE+1]; 
.................... char RX_Wr_Index=0; 
.................... char RX_Rd_Index=0; 
.................... char RX_Counter=0; 
....................  
.................... #define TX_BUFFER_SIZE  24 
.................... char Tx_Buffer[TX_BUFFER_SIZE+1]; 
.................... char TX_Wr_Index=0; 
.................... char TX_Counter=0; 
.................... //int1 RX_Buffer_Overflow=0; 
....................  
.................... //Comunicacion//------------------------ 
.................... byte SlaveA0Tx[0X20]; 
.................... byte dato=0;            //Contendr la informacin a enviar o recibir 
.................... byte direccion=0;       //Contendr la direccin del esclavo en el bus I2C 
.................... byte posicion=0;        //Contendr la posicin en el buffer de memoria del esclavo donde se almacenar o de donde se recuperar el dato 
....................  
.................... /* Tabla de Modulos, Primera Fila Ao Regular y el siguiente ao Bisiesto 
.................... E   F   M   A   M   J   J   A   S   O   N   D 
.................... 0   3   3   6   1   4   6   2   5   0   3   5 
.................... 0   3   4   0   2   5   0   3   6   1   4   6 
.................... */ 
.................... int8 Regular[12]={0,3,3,6,1,4,6,2,5,0,3,5}; 
.................... int8 Bisiesto[12]={0,3,4,0,2,5,0,3,6,1,4,6}; 
....................  
.................... //Alarmas//--------------------- 
.................... short AlarmaTiempoProlongado=OFF,AlarmaSobreTemperatura=OFF,AlarmaLlenado=OFF,AlarmaTermostato=OFF,AlarmaPuerta=OFF,AlarmaEmergencia=OFF,AlarmaCiclo=OFF; 
....................  
.................... //Banderas//-------------------- 
.................... short IniciaLlenado=OFF,CalderinLleno=OFF,IniciaCiclo=OFF,Esterilizando=OFF,Secando=OFF,SensadoNivel=OFF,Desfogando=OFF,DesfogueSuave=OFF; 
.................... short EstadoDesfogue=OFF,EstadoAgua=OFF,EstadoSSR=OFF,PruebaEstados=OFF,Ciclo=OFF,flagCalentando=OFF,flagEsterilizando=OFF,EstadoAire=OFF; 
.................... short flagDesfogando=OFF,Op=OFF,Op2=OFF,Minutos=OFF,Segundos=OFF,GuardaEEPROM=OFF,EstadoPaso=OFF,EstadoBuzzer=OFF,flagAlarma=OFF; 
.................... short flagBuzzer=OFF,flagSilencio=OFF,Finalizo=OFF,AlarmaPresion=OFF,Libre=OFF,purga=OFF,entro=OFF,Aire=OFF,disp_Guarda=OFF,guardaCiclo=OFF,flagBombaAgua=OFF,flagBombaAguaOff=OFF; 
....................  
.................... //Tiempos//--------------------- 
.................... int16 TiempoCiclo=0,TiempoLlenado=0,TiempoSensadoNivel=0,Tp=0,Tc=0,tguarda=0; 
.................... signed int  Testerilizacion[5]={0,0,0,0,0};   // Tiempo transcurrido 
.................... signed int  Testerilizacionp[5]={0,0,0,0,0};   // Tiempo transcurrido 
.................... signed int  Tsecado[4]={0,0,0,0};   // Tiempo transcurrido 
.................... signed int  Tsecadop[4]={0,0,0,0};   // Tiempo transcurrido 
....................  
.................... //Control//------------------------ 
.................... float promedio[80]={0.0,0.0,0.0,0.0,0.0,0.0,0.0,0.0,0.0,0.0,0.0,0.0,0.0,0.0,0.0,0.0,0.0,0.0,0.0,0.0,0.0,0.0,0.0,0.0,0.0,0.0,0.0,0.0,0.0,0.0,0.0,0.0,0.0,0.0,0.0,0.0,0.0,0.0,0.0,0.0,0.0,0.0,0.0,0.0,0.0,0.0,0.0,0.0,0.0,0.0,0.0,0.0,0.0,0.0,0.0,0.0,0.0,0.0,0.0,0.0,0.0,0.0,0.0,0.0}; 
.................... float PromPresion[20]={0.0,0.0,0.0,0.0,0.0,0.0,0.0,0.0,0.0,0.0,0.0,0.0,0.0,0.0,0.0,0.0,0.0,0.0,0.0,0.0}; 
.................... float PromPresionp[20]={0.0,0.0,0.0,0.0,0.0,0.0,0.0,0.0,0.0,0.0,0.0,0.0,0.0,0.0,0.0,0.0,0.0,0.0,0.0,0.0}; 
.................... float Gain=141.6,RPT100=0.5,Temporal=0.0; 
.................... float R1=100,R10=6800; 
.................... float X[2]={0.0,0.0}; 
.................... float Xx[2]={0.0,0.0}; 
.................... float promediopresion=0.0,Aumento=0.0,Aumento2=0.0,promediopresionp=0.0; 
.................... int8 h=0,l=0,Ajuste=0,Ajusten=0,MediaMovil=20,TTrampa=0,PantallaPrincipal=0,TipoClave=0,Modulo=0,Digito=0,yy=0,cicloVisto=0,cicloVisualizado=0,posicionDato=0,j=0,codigoAlarma=0,codigoAnt=0; 
.................... float V0=0.0,Pt,Tciclo=10.0,Tpulso=0.0,error=0.0,Prom=0.0,Temperature=0.0,tmp=0.0,Ganancia=25.0,Ganancia2=20.0,desvio=1.2,tmp2=0.0; 
.................... float V1=0.0,Presion=0.0,V2=0.0,Presionp=0.0; 
.................... float Temperatura=0.0,K=0.0012858; 
.................... float a=0.0011,b=2.3302,c=-244.0723; 
.................... int8 Integral=0,Derivativo=0,CicloLibre=0; 
.................... float p1=0.0000011617,p2=-0.0010575,p3=0.44114,p4=65.043,Tactual=0.0; 
....................  
.................... //Varios//-------------------------------- 
.................... short desfoguelento=0,Lectura=0,Grafica=0; 
.................... short disp_Stop=0,flagTC=0,flagImprime=0,flagImprimir=0; 
.................... int8 Control=0,tiemporecta=0,Controlando=0,ActivaImpresion=1,timpresion=2,CalculoImpresion=0,Inicio=1,Dato_Exitoso=0,Dato2=0,z=0; 
.................... int8 Menu=0, MenuAnt=0,MenuAntt=240,i=0,CiclosL=0,CiclosH=0,CicloSeleccionado=0; 
.................... int8 Setpoint=0,Opcion=1,Opcion2=1,tiempo_esterilizacion=0,tiempo_secado=0,tiempoImpresion=0; 
.................... int16 tiempos=0,tiempos2=0,tiempos3=0,tiempoctrl=0,Nivel=0,tinicio=0,PresionCamara=0,PresionPreCamara=0,Ciclos=0,NivelSeleccionado=0,tBombaAgua=0,tBombaAguaOff=0; 
.................... signed int  Contrasena[4]={0,0,0,0};      // Contrasena de 4 digitos 
.................... signed int  Password[4]={0,0,0,0};        // Contrasena Almacenada de 4 digitos 
.................... int8 r=0,t=0,r22=0,t2=0,TiempoControl=0; 
.................... int8 y=0,ConteoBuzzer=0; 
.................... int16 t_exhaust=0,tbuzzer=0,tsilencio=0,tiempoAgua=0,tStop=0,tTermostato=0; 
.................... int8 Year=18,Mes=9,Dia=13,Hora=0,Minuto=0,Segundo=0,dow=0; 
.................... int8 YearTx=0,MesTx=0,DiaTx=0,HoraTx=0,MinutoTx=0,SegundoTx=0,dowTx=0,SetTime=0,Imprime=0; 
.................... int8 Atmosferica=72; 
.................... signed int8 G1=0,G2=0,sg1=0,sg2=0; 
.................... int8 iconoGrande[9]={25,16,22,24,23,28,20,46,69}; 
.................... int8 iconoPeque[9]={34,36,18,33,32,38,19,17,68}; 
.................... char const texto[9][20]={"LIQUIDOS A","CAUCHO","INSTRUMENTAL","LIQUIDOS B","LIBRE","TEST","HORA Y FECHA","CLAVE","DATOS"}; 
.................... int8 diaCiclos=0,mesCiclos=0,yearCiclos=0,usuarioCiclos=0,cicloCiclos=0; 
....................  
.................... float TCiclos[7]; 
.................... int16 PcCiclos[7]; 
.................... int16 PpcCiclos[7]; 
.................... int8 horaCiclos[7]; 
.................... int8 minutoCiclos[7]; 
.................... int8 ACiclos[7]; 
....................  
.................... typedef struct{ 
....................    int8 Temperatura; 
....................    int8 MinutoestH; 
....................    int8 MinutoestL; 
....................    int8 Segundoest; 
....................    int8 Minutosec; 
....................    int8 Segundosec; 
....................    int8 PulsosVacio; 
....................    int8 NivelVacio; 
....................    int8 NivelDesfogue; 
....................    int8 Minutoest; 
.................... }Personalizado; 
....................  
.................... Personalizado CiclosPersonalizados[4]; 
....................  
.................... #include "Funciones.h" 
.................... float inttofloat(int8 decimal){ 
....................    float tmp; 
....................    tmp=decimal; 
0501A:  MOVLB  4
0501C:  CLRF   x55
0501E:  MOVFF  443,454
05022:  MOVLB  0
05024:  CALL   1AAC
05028:  MOVFF  03,447
0502C:  MOVFF  02,446
05030:  MOVFF  01,445
05034:  MOVFF  00,444
....................    return tmp/10; 
05038:  MOVFF  447,44B
0503C:  MOVFF  446,44A
05040:  MOVFF  445,449
05044:  MOVFF  444,448
05048:  MOVLB  4
0504A:  CLRF   x4F
0504C:  CLRF   x4E
0504E:  MOVLW  20
05050:  MOVWF  x4D
05052:  MOVLW  82
05054:  MOVWF  x4C
05056:  MOVLB  0
05058:  CALL   1AE2
.................... } 
0505C:  GOTO   537C (RETURN)
....................  
.................... void BorraBuffer(void){ 
.................... RX_Buffer[0]=0; 
*
0481E:  CLRF   30
.................... RX_Buffer[1]=0; 
04820:  CLRF   31
.................... RX_Buffer[2]=0; 
04822:  CLRF   32
.................... RX_Buffer[3]=0; 
04824:  CLRF   33
.................... RX_Buffer[4]=0; 
04826:  CLRF   34
.................... RX_Buffer[5]=0; 
04828:  CLRF   35
.................... RX_Buffer[6]=0; 
0482A:  CLRF   36
.................... RX_Buffer[7]=0; 
0482C:  CLRF   37
.................... RX_Buffer[8]=0; 
0482E:  CLRF   38
.................... RX_Buffer[9]=0; 
04830:  CLRF   39
....................  
.................... RX_Buffer2[0]=0; 
04832:  CLRF   3B
.................... RX_Buffer2[1]=0; 
04834:  CLRF   3C
.................... RX_Buffer2[2]=0; 
04836:  CLRF   3D
.................... RX_Buffer2[3]=0; 
04838:  CLRF   3E
.................... RX_Buffer2[4]=0; 
0483A:  CLRF   3F
.................... RX_Buffer2[5]=0; 
0483C:  CLRF   40
.................... RX_Buffer2[6]=0; 
0483E:  CLRF   41
.................... RX_Buffer2[7]=0; 
04840:  CLRF   42
.................... RX_Buffer2[8]=0; 
04842:  CLRF   43
.................... RX_Buffer2[9]=0; 
04844:  CLRF   44
....................  
.................... } 
04846:  GOTO   7A4E (RETURN)
....................  
.................... char bgetc(void){ 
....................    char c; 
....................    while(RX_Counter==0) 
....................       ; 
....................    c=Rx_Buffer2[RX_Rd_Index]; 
....................    if(++RX_Rd_Index>RX_BUFFER_SIZE) 
....................       RX_Rd_Index=0; 
....................    if(RX_Counter) 
....................       RX_Counter--; 
....................    return c; 
.................... } 
....................  
.................... void bputc(char c){ 
....................    char restart=0; 
....................    while(TX_Counter> (TX_BUFFER_SIZE-1)) 
....................       ; 
....................    if(TX_Counter==0) 
....................       restart=1; 
....................    TX_Buffer[TX_Wr_Index++]=c; 
....................    if(TX_Wr_Index>TX_BUFFER_SIZE) 
....................       TX_Wr_Index=0; 
....................     
....................    TX_Counter++; 
....................     
....................    if(restart==1) 
....................       enable_interrupts(int_tbe); 
.................... } 
....................  
.................... void SendDataDisplay(void){ 
.................... delay_us(10); 
*
038F0:  MOVLW  10
038F2:  MOVWF  00
038F4:  DECFSZ 00,F
038F6:  BRA    38F4
038F8:  NOP   
.................... putc(0xFF); 
038FA:  MOVLW  FF
038FC:  RCALL  38E8
.................... delay_us(10); 
038FE:  MOVLW  10
03900:  MOVWF  00
03902:  DECFSZ 00,F
03904:  BRA    3902
03906:  NOP   
.................... putc(0xFF); 
03908:  MOVLW  FF
0390A:  RCALL  38E8
.................... delay_us(10); 
0390C:  MOVLW  10
0390E:  MOVWF  00
03910:  DECFSZ 00,F
03912:  BRA    3910
03914:  NOP   
.................... putc(0xFF); 
03916:  MOVLW  FF
03918:  RCALL  38E8
.................... delay_us(10); 
0391A:  MOVLW  10
0391C:  MOVWF  00
0391E:  DECFSZ 00,F
03920:  BRA    391E
03922:  NOP   
.................... } 
03924:  RETLW  00
....................  
.................... short esBisiesto(int8 year) { 
....................      return ((year % 4 == 0 && year % 100 != 0) || year % 400 == 0); 
*
04CFE:  MOVLB  4
04D00:  MOVF   x3F,W
04D02:  ANDLW  03
04D04:  BNZ   4D18
04D06:  MOVFF  43F,449
04D0A:  MOVLW  64
04D0C:  MOVWF  x4A
04D0E:  MOVLB  0
04D10:  RCALL  487C
04D12:  MOVF   00,F
04D14:  BNZ   4D46
04D16:  MOVLB  4
04D18:  CLRF   x44
04D1A:  MOVFF  43F,443
04D1E:  MOVLW  01
04D20:  MOVWF  x46
04D22:  MOVLW  90
04D24:  MOVWF  x45
04D26:  MOVLB  0
04D28:  RCALL  4CB8
04D2A:  MOVFF  00,440
04D2E:  MOVLB  4
04D30:  MOVFF  03,441
04D34:  MOVF   x40,F
04D36:  BNZ   4D42
04D38:  MOVF   x41,F
04D3A:  BTFSS  FD8.2
04D3C:  BRA    4D42
04D3E:  MOVLB  0
04D40:  BRA    4D46
04D42:  MOVLW  00
04D44:  BRA    4D4A
04D46:  MOVLW  01
04D48:  MOVLB  4
04D4A:  MOVWF  01
.................... } 
04D4C:  MOVLB  0
04D4E:  RETLW  00
....................  
.................... void LimitaDia(){ 
....................    if(MesTx>12) 
*
04E3C:  MOVLB  3
04E3E:  MOVF   xA6,W
04E40:  SUBLW  0C
04E42:  BC    4E48
....................       MesTx=10; 
04E44:  MOVLW  0A
04E46:  MOVWF  xA6
....................    if(DiaTx>31) 
04E48:  MOVF   xA7,W
04E4A:  SUBLW  1F
04E4C:  BC    4E52
....................       DiaTx=16; 
04E4E:  MOVLW  10
04E50:  MOVWF  xA7
....................    if(YearTx>99) 
04E52:  MOVF   xA5,W
04E54:  SUBLW  63
04E56:  BC    4E5C
....................       YearTx=18;    
04E58:  MOVLW  12
04E5A:  MOVWF  xA5
....................    if(HoraTx>24) 
04E5C:  MOVF   xA8,W
04E5E:  SUBLW  18
04E60:  BC    4E66
....................       HoraTx=11;       
04E62:  MOVLW  0B
04E64:  MOVWF  xA8
....................    if(MinutoTx>59) 
04E66:  MOVF   xA9,W
04E68:  SUBLW  3B
04E6A:  BC    4E70
....................       MinutoTx=30;       
04E6C:  MOVLW  1E
04E6E:  MOVWF  xA9
....................     
....................       if(MesTx==2){ 
04E70:  MOVF   xA6,W
04E72:  SUBLW  02
04E74:  BNZ   4EA0
....................          if(esBisiesto(YearTx)){ 
04E76:  MOVFF  3A5,43F
04E7A:  MOVLB  0
04E7C:  RCALL  4CFE
04E7E:  MOVF   01,F
04E80:  BZ    4E92
....................             if(DiaTx>29){ 
04E82:  MOVLB  3
04E84:  MOVF   xA7,W
04E86:  SUBLW  1D
04E88:  BC    4E8E
....................                DiaTx=29; 
04E8A:  MOVLW  1D
04E8C:  MOVWF  xA7
....................                //glcd_fillScreen(OFF); 
....................             } 
....................          }else{ 
04E8E:  BRA    4E9E
04E90:  MOVLB  0
....................             if(DiaTx>28){ 
04E92:  MOVLB  3
04E94:  MOVF   xA7,W
04E96:  SUBLW  1C
04E98:  BC    4E9E
....................                DiaTx=28; 
04E9A:  MOVLW  1C
04E9C:  MOVWF  xA7
....................                //glcd_fillScreen(OFF); 
....................             } 
....................          } 
....................       }else{ 
04E9E:  BRA    4ECA
....................          if(MesTx<=7){ 
04EA0:  MOVF   xA6,W
04EA2:  SUBLW  07
04EA4:  BNC   4EB8
....................             if(MesTx % 2 ==0){ 
04EA6:  MOVF   xA6,W
04EA8:  ANDLW  01
04EAA:  BNZ   4EB6
....................                if(DiaTx>30){ 
04EAC:  MOVF   xA7,W
04EAE:  SUBLW  1E
04EB0:  BC    4EB6
....................                   DiaTx=30;  
04EB2:  MOVLW  1E
04EB4:  MOVWF  xA7
....................                   //glcd_fillScreen(OFF); 
....................                } 
....................             } 
....................          }else{ 
04EB6:  BRA    4ECA
....................             if(MesTx % 2 ==1){ 
04EB8:  MOVF   xA6,W
04EBA:  ANDLW  01
04EBC:  SUBLW  01
04EBE:  BNZ   4ECA
....................                if(DiaTx>30){ 
04EC0:  MOVF   xA7,W
04EC2:  SUBLW  1E
04EC4:  BC    4ECA
....................                   DiaTx=30;  
04EC6:  MOVLW  1E
04EC8:  MOVWF  xA7
....................                   //glcd_fillScreen(OFF); 
....................                } 
....................             } 
....................          } 
....................       } 
.................... } 
04ECA:  MOVLB  0
04ECC:  GOTO   A9A4 (RETURN)
....................  
.................... void ActualizaRecta(){ 
....................    X[y]=Temperature; 
*
06808:  MOVLB  3
0680A:  MOVF   x90,W
0680C:  MULLW  04
0680E:  MOVF   FF3,W
06810:  CLRF   03
06812:  ADDLW  B7
06814:  MOVWF  FE9
06816:  MOVLW  02
06818:  ADDWFC 03,W
0681A:  MOVWF  FEA
0681C:  MOVFF  300,FEF
06820:  MOVFF  301,FEC
06824:  MOVFF  302,FEC
06828:  MOVFF  303,FEC
....................    y++; 
0682C:  INCF   x90,F
....................    if(y>=2) 
0682E:  MOVF   x90,W
06830:  SUBLW  01
06832:  BC    6870
....................    { 
....................       y=0; 
06834:  CLRF   x90
....................       Aumento=X[1]-X[0]; 
06836:  BSF    FD8.1
06838:  MOVFF  2BE,457
0683C:  MOVFF  2BD,456
06840:  MOVFF  2BC,455
06844:  MOVFF  2BB,454
06848:  MOVFF  2BA,45B
0684C:  MOVFF  2B9,45A
06850:  MOVFF  2B8,459
06854:  MOVFF  2B7,458
06858:  MOVLB  0
0685A:  CALL   1C40
0685E:  MOVFF  03,2CE
06862:  MOVFF  02,2CD
06866:  MOVFF  01,2CC
0686A:  MOVFF  00,2CB
0686E:  MOVLB  3
....................    } 
.................... } 
06870:  MOVLB  0
06872:  GOTO   68EE (RETURN)
....................  
.................... void ActualizaRectaPresion(){ 
....................    Xx[yy]=Tactual; 
....................    yy++; 
....................    if(yy>=2){ 
....................       yy=0; 
....................       Aumento2=Xx[1]-Xx[0]; 
....................    } 
.................... } 
....................  
.................... // Funcion para conversor analogo-digital 
.................... float sensores(int x){ 
.................... float y;set_adc_channel(x);delay_ms(1);y=read_adc();return (y); 
*
03944:  MOVLB  4
03946:  RLCF   x48,W
03948:  MOVWF  00
0394A:  RLCF   00,F
0394C:  MOVLW  FC
0394E:  ANDWF  00,F
03950:  MOVFF  00,01
03954:  MOVF   FC2,W
03956:  ANDLW  C3
03958:  IORWF  00,W
0395A:  MOVWF  FC2
0395C:  MOVLW  01
0395E:  MOVWF  x54
03960:  MOVLB  0
03962:  CALL   1A84
03966:  BSF    FC2.1
03968:  BTFSC  FC2.1
0396A:  BRA    3968
0396C:  MOVFF  FC4,455
03970:  MOVFF  FC3,454
03974:  MOVLB  0
03976:  CALL   1AAC
0397A:  MOVFF  03,44C
0397E:  MOVFF  02,44B
03982:  MOVFF  01,44A
03986:  MOVFF  00,449
0398A:  MOVFF  449,00
0398E:  MOVFF  44A,01
03992:  MOVFF  44B,02
03996:  MOVFF  44C,03
.................... } 
0399A:  RETLW  00
.................... float LeerPT100(int media) 
.................... { 
*
03AB4:  MOVLB  4
03AB6:  CLRF   x43
03AB8:  CLRF   x42
03ABA:  CLRF   x41
03ABC:  CLRF   x40
03ABE:  CLRF   x47
03AC0:  CLRF   x46
03AC2:  CLRF   x45
03AC4:  CLRF   x44
....................    float ajp=0.0,ajn=0.0; 
....................    Prom=0.0; 
03AC6:  MOVLB  2
03AC8:  CLRF   xFF
03ACA:  CLRF   xFE
03ACC:  CLRF   xFD
03ACE:  CLRF   xFC
....................    V0 = sensores(0);   //Lectura de Divisor de Voltaje de PT100 con resistencia de 6.18k (+-2%) 
03AD0:  MOVLB  4
03AD2:  CLRF   x48
03AD4:  MOVLB  0
03AD6:  RCALL  3944
03AD8:  MOVFF  03,2EB
03ADC:  MOVFF  02,2EA
03AE0:  MOVFF  01,2E9
03AE4:  MOVFF  00,2E8
....................    V0 = V0/105.56; // Se elimina la ganancia 
03AE8:  MOVFF  2EB,44B
03AEC:  MOVFF  2EA,44A
03AF0:  MOVFF  2E9,449
03AF4:  MOVFF  2E8,448
03AF8:  MOVLW  B8
03AFA:  MOVLB  4
03AFC:  MOVWF  x4F
03AFE:  MOVLW  1E
03B00:  MOVWF  x4E
03B02:  MOVLW  53
03B04:  MOVWF  x4D
03B06:  MOVLW  85
03B08:  MOVWF  x4C
03B0A:  MOVLB  0
03B0C:  CALL   1AE2
03B10:  MOVFF  03,2EB
03B14:  MOVFF  02,2EA
03B18:  MOVFF  01,2E9
03B1C:  MOVFF  00,2E8
....................    //V0 += 14.82; 
....................    V0 += 14.79;//5.039V 72.5mV 
03B20:  BCF    FD8.1
03B22:  MOVFF  2EB,457
03B26:  MOVFF  2EA,456
03B2A:  MOVFF  2E9,455
03B2E:  MOVFF  2E8,454
03B32:  MOVLW  D7
03B34:  MOVLB  4
03B36:  MOVWF  x5B
03B38:  MOVLW  A3
03B3A:  MOVWF  x5A
03B3C:  MOVLW  6C
03B3E:  MOVWF  x59
03B40:  MOVLW  82
03B42:  MOVWF  x58
03B44:  MOVLB  0
03B46:  CALL   1C40
03B4A:  MOVFF  03,2EB
03B4E:  MOVFF  02,2EA
03B52:  MOVFF  01,2E9
03B56:  MOVFF  00,2E8
....................    Pt=R10/((1023/V0)-1); 
03B5A:  MOVLB  4
03B5C:  CLRF   x4B
03B5E:  MOVLW  C0
03B60:  MOVWF  x4A
03B62:  MOVLW  7F
03B64:  MOVWF  x49
03B66:  MOVLW  88
03B68:  MOVWF  x48
03B6A:  MOVFF  2EB,44F
03B6E:  MOVFF  2EA,44E
03B72:  MOVFF  2E9,44D
03B76:  MOVFF  2E8,44C
03B7A:  MOVLB  0
03B7C:  CALL   1AE2
03B80:  MOVFF  00,448
03B84:  MOVFF  01,449
03B88:  MOVFF  02,44A
03B8C:  MOVFF  03,44B
03B90:  BSF    FD8.1
03B92:  MOVFF  03,457
03B96:  MOVFF  02,456
03B9A:  MOVFF  01,455
03B9E:  MOVFF  00,454
03BA2:  MOVLB  4
03BA4:  CLRF   x5B
03BA6:  CLRF   x5A
03BA8:  CLRF   x59
03BAA:  MOVLW  7F
03BAC:  MOVWF  x58
03BAE:  MOVLB  0
03BB0:  CALL   1C40
03BB4:  MOVFF  2B6,44B
03BB8:  MOVFF  2B5,44A
03BBC:  MOVFF  2B4,449
03BC0:  MOVFF  2B3,448
03BC4:  MOVFF  03,44F
03BC8:  MOVFF  02,44E
03BCC:  MOVFF  01,44D
03BD0:  MOVFF  00,44C
03BD4:  CALL   1AE2
03BD8:  MOVFF  03,2EF
03BDC:  MOVFF  02,2EE
03BE0:  MOVFF  01,2ED
03BE4:  MOVFF  00,2EC
....................              
....................    if(l>(media-1)) 
03BE8:  MOVLW  01
03BEA:  MOVLB  4
03BEC:  SUBWF  x3F,W
03BEE:  MOVLB  2
03BF0:  SUBWF  xD8,W
03BF2:  BZ    3BF8
03BF4:  BNC   3BF8
....................    {l=0;} 
03BF6:  CLRF   xD8
....................    //promedio[l]=Temperature;l++; 
....................    promedio[l]=Pt;l++; 
03BF8:  MOVLB  4
03BFA:  CLRF   x49
03BFC:  MOVFF  2D8,448
03C00:  CLRF   x4B
03C02:  MOVLW  04
03C04:  MOVWF  x4A
03C06:  MOVLB  0
03C08:  RCALL  399C
03C0A:  MOVF   01,W
03C0C:  ADDLW  C3
03C0E:  MOVWF  FE9
03C10:  MOVLW  00
03C12:  ADDWFC 02,W
03C14:  MOVWF  FEA
03C16:  MOVFF  2EC,FEF
03C1A:  MOVFF  2ED,FEC
03C1E:  MOVFF  2EE,FEC
03C22:  MOVFF  2EF,FEC
03C26:  MOVLB  2
03C28:  INCF   xD8,F
....................           
....................    for(h=0;h<media;h++) 
03C2A:  CLRF   xD7
03C2C:  MOVLB  4
03C2E:  MOVF   x3F,W
03C30:  MOVLB  2
03C32:  SUBWF  xD7,W
03C34:  BC    3CB4
....................    { 
....................       Prom+=promedio[h]; 
03C36:  MOVLB  4
03C38:  CLRF   x49
03C3A:  MOVFF  2D7,448
03C3E:  CLRF   x4B
03C40:  MOVLW  04
03C42:  MOVWF  x4A
03C44:  MOVLB  0
03C46:  RCALL  399C
03C48:  MOVFF  02,03
03C4C:  MOVF   01,W
03C4E:  ADDLW  C3
03C50:  MOVWF  FE9
03C52:  MOVLW  00
03C54:  ADDWFC 02,W
03C56:  MOVWF  FEA
03C58:  MOVFF  FEF,00
03C5C:  MOVFF  FEC,01
03C60:  MOVFF  FEC,02
03C64:  MOVFF  FEC,03
03C68:  MOVFF  FEA,449
03C6C:  MOVFF  FE9,448
03C70:  BCF    FD8.1
03C72:  MOVFF  2FF,457
03C76:  MOVFF  2FE,456
03C7A:  MOVFF  2FD,455
03C7E:  MOVFF  2FC,454
03C82:  MOVFF  03,45B
03C86:  MOVFF  02,45A
03C8A:  MOVFF  01,459
03C8E:  MOVFF  00,458
03C92:  CALL   1C40
03C96:  MOVFF  449,FEA
03C9A:  MOVFF  448,FE9
03C9E:  MOVFF  03,2FF
03CA2:  MOVFF  02,2FE
03CA6:  MOVFF  01,2FD
03CAA:  MOVFF  00,2FC
....................    }  
03CAE:  MOVLB  2
03CB0:  INCF   xD7,F
03CB2:  BRA    3C2C
....................    Prom=Prom/media;    
03CB4:  MOVLB  4
03CB6:  CLRF   x55
03CB8:  MOVFF  43F,454
03CBC:  MOVLB  0
03CBE:  CALL   1AAC
03CC2:  MOVFF  2FF,44B
03CC6:  MOVFF  2FE,44A
03CCA:  MOVFF  2FD,449
03CCE:  MOVFF  2FC,448
03CD2:  MOVFF  03,44F
03CD6:  MOVFF  02,44E
03CDA:  MOVFF  01,44D
03CDE:  MOVFF  00,44C
03CE2:  CALL   1AE2
03CE6:  MOVFF  03,2FF
03CEA:  MOVFF  02,2FE
03CEE:  MOVFF  01,2FD
03CF2:  MOVFF  00,2FC
....................    //Temperature=(Prom-100.0)/(0.385);  // Ecuacin determinada por linealizacin en Matlab. Revisar este polinomio.   
....................    Temperature=((Prom*Prom)*a)+(Prom*b)+c;  // Ecuacin determinada por linealizacin en Matlab. Revisar este polinomio. 
03CF6:  MOVFF  2FF,45B
03CFA:  MOVFF  2FE,45A
03CFE:  MOVFF  2FD,459
03D02:  MOVFF  2FC,458
03D06:  MOVFF  2FF,45F
03D0A:  MOVFF  2FE,45E
03D0E:  MOVFF  2FD,45D
03D12:  MOVFF  2FC,45C
03D16:  RCALL  39BE
03D18:  MOVFF  00,448
03D1C:  MOVFF  01,449
03D20:  MOVFF  02,44A
03D24:  MOVFF  03,44B
03D28:  MOVFF  03,45B
03D2C:  MOVFF  02,45A
03D30:  MOVFF  01,459
03D34:  MOVFF  00,458
03D38:  MOVFF  333,45F
03D3C:  MOVFF  332,45E
03D40:  MOVFF  331,45D
03D44:  MOVFF  330,45C
03D48:  RCALL  39BE
03D4A:  MOVFF  00,448
03D4E:  MOVFF  01,449
03D52:  MOVFF  02,44A
03D56:  MOVFF  03,44B
03D5A:  MOVFF  2FF,45B
03D5E:  MOVFF  2FE,45A
03D62:  MOVFF  2FD,459
03D66:  MOVFF  2FC,458
03D6A:  MOVFF  337,45F
03D6E:  MOVFF  336,45E
03D72:  MOVFF  335,45D
03D76:  MOVFF  334,45C
03D7A:  RCALL  39BE
03D7C:  BCF    FD8.1
03D7E:  MOVFF  44B,457
03D82:  MOVFF  44A,456
03D86:  MOVFF  449,455
03D8A:  MOVFF  448,454
03D8E:  MOVFF  03,45B
03D92:  MOVFF  02,45A
03D96:  MOVFF  01,459
03D9A:  MOVFF  00,458
03D9E:  CALL   1C40
03DA2:  MOVFF  00,448
03DA6:  MOVFF  01,449
03DAA:  MOVFF  02,44A
03DAE:  MOVFF  03,44B
03DB2:  BCF    FD8.1
03DB4:  MOVFF  03,457
03DB8:  MOVFF  02,456
03DBC:  MOVFF  01,455
03DC0:  MOVFF  00,454
03DC4:  MOVFF  33B,45B
03DC8:  MOVFF  33A,45A
03DCC:  MOVFF  339,459
03DD0:  MOVFF  338,458
03DD4:  CALL   1C40
03DD8:  MOVFF  03,303
03DDC:  MOVFF  02,302
03DE0:  MOVFF  01,301
03DE4:  MOVFF  00,300
....................    ajp=(float)Ajuste; 
03DE8:  MOVLB  4
03DEA:  CLRF   x55
03DEC:  MOVFF  2D9,454
03DF0:  MOVLB  0
03DF2:  CALL   1AAC
03DF6:  MOVFF  03,443
03DFA:  MOVFF  02,442
03DFE:  MOVFF  01,441
03E02:  MOVFF  00,440
....................    ajp=ajp/10; 
03E06:  MOVFF  443,44B
03E0A:  MOVFF  442,44A
03E0E:  MOVFF  441,449
03E12:  MOVFF  440,448
03E16:  MOVLB  4
03E18:  CLRF   x4F
03E1A:  CLRF   x4E
03E1C:  MOVLW  20
03E1E:  MOVWF  x4D
03E20:  MOVLW  82
03E22:  MOVWF  x4C
03E24:  MOVLB  0
03E26:  CALL   1AE2
03E2A:  MOVFF  03,443
03E2E:  MOVFF  02,442
03E32:  MOVFF  01,441
03E36:  MOVFF  00,440
....................    ajn=(float)Ajusten; 
03E3A:  MOVLB  4
03E3C:  CLRF   x55
03E3E:  MOVFF  2DA,454
03E42:  MOVLB  0
03E44:  CALL   1AAC
03E48:  MOVFF  03,447
03E4C:  MOVFF  02,446
03E50:  MOVFF  01,445
03E54:  MOVFF  00,444
....................    ajn=ajn/10; 
03E58:  MOVFF  447,44B
03E5C:  MOVFF  446,44A
03E60:  MOVFF  445,449
03E64:  MOVFF  444,448
03E68:  MOVLB  4
03E6A:  CLRF   x4F
03E6C:  CLRF   x4E
03E6E:  MOVLW  20
03E70:  MOVWF  x4D
03E72:  MOVLW  82
03E74:  MOVWF  x4C
03E76:  MOVLB  0
03E78:  CALL   1AE2
03E7C:  MOVFF  03,447
03E80:  MOVFF  02,446
03E84:  MOVFF  01,445
03E88:  MOVFF  00,444
....................    Temperature+=(ajp-ajn); 
03E8C:  BSF    FD8.1
03E8E:  MOVFF  443,457
03E92:  MOVFF  442,456
03E96:  MOVFF  441,455
03E9A:  MOVFF  440,454
03E9E:  MOVFF  447,45B
03EA2:  MOVFF  446,45A
03EA6:  MOVFF  445,459
03EAA:  MOVFF  444,458
03EAE:  CALL   1C40
03EB2:  BCF    FD8.1
03EB4:  MOVFF  303,457
03EB8:  MOVFF  302,456
03EBC:  MOVFF  301,455
03EC0:  MOVFF  300,454
03EC4:  MOVFF  03,45B
03EC8:  MOVFF  02,45A
03ECC:  MOVFF  01,459
03ED0:  MOVFF  00,458
03ED4:  CALL   1C40
03ED8:  MOVFF  03,303
03EDC:  MOVFF  02,302
03EE0:  MOVFF  01,301
03EE4:  MOVFF  00,300
....................    //Temperature-=39.0; 
....................     
....................    //return Prom; 
....................    return Temperature; 
03EE8:  MOVFF  300,00
03EEC:  MOVFF  301,01
03EF0:  MOVFF  302,02
03EF4:  MOVFF  303,03
.................... } 
03EF8:  RETLW  00
....................  
.................... float Leer_Sensor_Presion_Camara(int media){ 
....................    promediopresion=0.0; 
03EFA:  MOVLB  2
03EFC:  CLRF   xCA
03EFE:  CLRF   xC9
03F00:  CLRF   xC8
03F02:  CLRF   xC7
....................    V1 = sensores(2);   //Lectura de Divisor de Voltaje de PT100 con resistencia de 1k (+-10%) 
03F04:  MOVLW  02
03F06:  MOVLB  4
03F08:  MOVWF  x48
03F0A:  MOVLB  0
03F0C:  RCALL  3944
03F0E:  MOVFF  03,31B
03F12:  MOVFF  02,31A
03F16:  MOVFF  01,319
03F1A:  MOVFF  00,318
....................    //V1 = V1*(5.0/1024.0); 
....................    //Presion=(V1-0.2)/(K); 
....................    Presion=(((V1)/1023)-0.04)/K; 
03F1E:  MOVFF  31B,44B
03F22:  MOVFF  31A,44A
03F26:  MOVFF  319,449
03F2A:  MOVFF  318,448
03F2E:  MOVLB  4
03F30:  CLRF   x4F
03F32:  MOVLW  C0
03F34:  MOVWF  x4E
03F36:  MOVLW  7F
03F38:  MOVWF  x4D
03F3A:  MOVLW  88
03F3C:  MOVWF  x4C
03F3E:  MOVLB  0
03F40:  CALL   1AE2
03F44:  MOVFF  00,440
03F48:  MOVFF  01,441
03F4C:  MOVFF  02,442
03F50:  MOVFF  03,443
03F54:  BSF    FD8.1
03F56:  MOVFF  03,457
03F5A:  MOVFF  02,456
03F5E:  MOVFF  01,455
03F62:  MOVFF  00,454
03F66:  MOVLW  0A
03F68:  MOVLB  4
03F6A:  MOVWF  x5B
03F6C:  MOVLW  D7
03F6E:  MOVWF  x5A
03F70:  MOVLW  23
03F72:  MOVWF  x59
03F74:  MOVLW  7A
03F76:  MOVWF  x58
03F78:  MOVLB  0
03F7A:  CALL   1C40
03F7E:  MOVFF  00,440
03F82:  MOVFF  01,441
03F86:  MOVFF  02,442
03F8A:  MOVFF  03,443
03F8E:  MOVFF  03,44B
03F92:  MOVFF  02,44A
03F96:  MOVFF  01,449
03F9A:  MOVFF  00,448
03F9E:  MOVFF  32F,44F
03FA2:  MOVFF  32E,44E
03FA6:  MOVFF  32D,44D
03FAA:  MOVFF  32C,44C
03FAE:  CALL   1AE2
03FB2:  MOVFF  03,31F
03FB6:  MOVFF  02,31E
03FBA:  MOVFF  01,31D
03FBE:  MOVFF  00,31C
....................     
....................    if(Presion<0.0) 
03FC2:  MOVFF  31F,446
03FC6:  MOVFF  31E,445
03FCA:  MOVFF  31D,444
03FCE:  MOVFF  31C,443
03FD2:  MOVLB  4
03FD4:  CLRF   x4A
03FD6:  CLRF   x49
03FD8:  CLRF   x48
03FDA:  CLRF   x47
03FDC:  MOVLB  0
03FDE:  CALL   2D88
03FE2:  BNC   3FEE
....................    { 
....................       Presion=0.0; 
03FE4:  MOVLB  3
03FE6:  CLRF   x1F
03FE8:  CLRF   x1E
03FEA:  CLRF   x1D
03FEC:  CLRF   x1C
....................    } 
....................     
....................    if(r>media-1) 
03FEE:  MOVLW  01
03FF0:  MOVLB  4
03FF2:  SUBWF  x3F,W
03FF4:  MOVLB  3
03FF6:  SUBWF  x8B,W
03FF8:  BZ    3FFE
03FFA:  BNC   3FFE
....................    {r=0;} 
03FFC:  CLRF   x8B
....................    PromPresion[r]=Presion;r++; 
03FFE:  MOVF   x8B,W
04000:  MULLW  04
04002:  MOVF   FF3,W
04004:  CLRF   03
04006:  ADDLW  03
04008:  MOVWF  FE9
0400A:  MOVLW  02
0400C:  ADDWFC 03,W
0400E:  MOVWF  FEA
04010:  MOVFF  31C,FEF
04014:  MOVFF  31D,FEC
04018:  MOVFF  31E,FEC
0401C:  MOVFF  31F,FEC
04020:  INCF   x8B,F
....................           
....................    for(t=0;t<=(media-1);t++) 
04022:  CLRF   x8C
04024:  MOVLW  01
04026:  MOVLB  4
04028:  SUBWF  x3F,W
0402A:  MOVLB  3
0402C:  SUBWF  x8C,W
0402E:  BZ    4032
04030:  BC    40A2
....................    { 
....................       promediopresion+=PromPresion[t]; 
04032:  MOVF   x8C,W
04034:  MULLW  04
04036:  MOVF   FF3,W
04038:  CLRF   03
0403A:  ADDLW  03
0403C:  MOVWF  FE9
0403E:  MOVLW  02
04040:  ADDWFC 03,W
04042:  MOVWF  FEA
04044:  MOVFF  FEF,00
04048:  MOVFF  FEC,01
0404C:  MOVFF  FEC,02
04050:  MOVFF  FEC,03
04054:  MOVFF  FEA,441
04058:  MOVFF  FE9,440
0405C:  BCF    FD8.1
0405E:  MOVFF  2CA,457
04062:  MOVFF  2C9,456
04066:  MOVFF  2C8,455
0406A:  MOVFF  2C7,454
0406E:  MOVFF  03,45B
04072:  MOVFF  02,45A
04076:  MOVFF  01,459
0407A:  MOVFF  00,458
0407E:  MOVLB  0
04080:  CALL   1C40
04084:  MOVFF  441,FEA
04088:  MOVFF  440,FE9
0408C:  MOVFF  03,2CA
04090:  MOVFF  02,2C9
04094:  MOVFF  01,2C8
04098:  MOVFF  00,2C7
....................    }  
0409C:  MOVLB  3
0409E:  INCF   x8C,F
040A0:  BRA    4024
....................    promediopresion=promediopresion/media;    
040A2:  MOVLB  4
040A4:  CLRF   x55
040A6:  MOVFF  43F,454
040AA:  MOVLB  0
040AC:  CALL   1AAC
040B0:  MOVFF  2CA,44B
040B4:  MOVFF  2C9,44A
040B8:  MOVFF  2C8,449
040BC:  MOVFF  2C7,448
040C0:  MOVFF  03,44F
040C4:  MOVFF  02,44E
040C8:  MOVFF  01,44D
040CC:  MOVFF  00,44C
040D0:  CALL   1AE2
040D4:  MOVFF  03,2CA
040D8:  MOVFF  02,2C9
040DC:  MOVFF  01,2C8
040E0:  MOVFF  00,2C7
....................     
....................    return promediopresion; 
040E4:  MOVFF  2C7,00
040E8:  MOVFF  2C8,01
040EC:  MOVFF  2C9,02
040F0:  MOVFF  2CA,03
.................... } 
040F4:  RETLW  00
....................  
.................... float Leer_Sensor_Presion_PreCamara(int media){ 
....................    promediopresionp=0.0; 
*
04132:  MOVLB  2
04134:  CLRF   xD6
04136:  CLRF   xD5
04138:  CLRF   xD4
0413A:  CLRF   xD3
....................    V2 = sensores(3);   //Lectura de Divisor de Voltaje de PT100 con resistencia de 1k (+-10%) 
0413C:  MOVLW  03
0413E:  MOVLB  4
04140:  MOVWF  x48
04142:  MOVLB  0
04144:  CALL   3944
04148:  MOVFF  03,323
0414C:  MOVFF  02,322
04150:  MOVFF  01,321
04154:  MOVFF  00,320
....................    //V2 = V2*(5.0/1024.0); 
....................    //Presionp=(V2-0.2)/(K); 
....................    Presionp=(((V2)/1023)-0.04)/K; 
04158:  MOVFF  323,44B
0415C:  MOVFF  322,44A
04160:  MOVFF  321,449
04164:  MOVFF  320,448
04168:  MOVLB  4
0416A:  CLRF   x4F
0416C:  MOVLW  C0
0416E:  MOVWF  x4E
04170:  MOVLW  7F
04172:  MOVWF  x4D
04174:  MOVLW  88
04176:  MOVWF  x4C
04178:  MOVLB  0
0417A:  CALL   1AE2
0417E:  MOVFF  00,440
04182:  MOVFF  01,441
04186:  MOVFF  02,442
0418A:  MOVFF  03,443
0418E:  BSF    FD8.1
04190:  MOVFF  03,457
04194:  MOVFF  02,456
04198:  MOVFF  01,455
0419C:  MOVFF  00,454
041A0:  MOVLW  0A
041A2:  MOVLB  4
041A4:  MOVWF  x5B
041A6:  MOVLW  D7
041A8:  MOVWF  x5A
041AA:  MOVLW  23
041AC:  MOVWF  x59
041AE:  MOVLW  7A
041B0:  MOVWF  x58
041B2:  MOVLB  0
041B4:  CALL   1C40
041B8:  MOVFF  00,440
041BC:  MOVFF  01,441
041C0:  MOVFF  02,442
041C4:  MOVFF  03,443
041C8:  MOVFF  03,44B
041CC:  MOVFF  02,44A
041D0:  MOVFF  01,449
041D4:  MOVFF  00,448
041D8:  MOVFF  32F,44F
041DC:  MOVFF  32E,44E
041E0:  MOVFF  32D,44D
041E4:  MOVFF  32C,44C
041E8:  CALL   1AE2
041EC:  MOVFF  03,327
041F0:  MOVFF  02,326
041F4:  MOVFF  01,325
041F8:  MOVFF  00,324
....................     
....................    if(Presionp<0.0) 
041FC:  MOVFF  327,446
04200:  MOVFF  326,445
04204:  MOVFF  325,444
04208:  MOVFF  324,443
0420C:  MOVLB  4
0420E:  CLRF   x4A
04210:  CLRF   x49
04212:  CLRF   x48
04214:  CLRF   x47
04216:  MOVLB  0
04218:  CALL   2D88
0421C:  BNC   4228
....................    { 
....................       Presionp=0.0; 
0421E:  MOVLB  3
04220:  CLRF   x27
04222:  CLRF   x26
04224:  CLRF   x25
04226:  CLRF   x24
....................    } 
....................     
....................    if(r22>media-1) 
04228:  MOVLW  01
0422A:  MOVLB  4
0422C:  SUBWF  x3F,W
0422E:  MOVLB  3
04230:  SUBWF  x8D,W
04232:  BZ    4238
04234:  BNC   4238
....................    {r22=0;} 
04236:  CLRF   x8D
....................    PromPresionp[r22]=Presionp;r22++; 
04238:  MOVF   x8D,W
0423A:  MULLW  04
0423C:  MOVF   FF3,W
0423E:  CLRF   03
04240:  ADDLW  53
04242:  MOVWF  FE9
04244:  MOVLW  02
04246:  ADDWFC 03,W
04248:  MOVWF  FEA
0424A:  MOVFF  324,FEF
0424E:  MOVFF  325,FEC
04252:  MOVFF  326,FEC
04256:  MOVFF  327,FEC
0425A:  INCF   x8D,F
....................           
....................    for(t2=0;t2<=(media-1);t2++) 
0425C:  CLRF   x8E
0425E:  MOVLW  01
04260:  MOVLB  4
04262:  SUBWF  x3F,W
04264:  MOVLB  3
04266:  SUBWF  x8E,W
04268:  BZ    426C
0426A:  BC    42DC
....................    { 
....................       promediopresionp+=PromPresionp[t2]; 
0426C:  MOVF   x8E,W
0426E:  MULLW  04
04270:  MOVF   FF3,W
04272:  CLRF   03
04274:  ADDLW  53
04276:  MOVWF  FE9
04278:  MOVLW  02
0427A:  ADDWFC 03,W
0427C:  MOVWF  FEA
0427E:  MOVFF  FEF,00
04282:  MOVFF  FEC,01
04286:  MOVFF  FEC,02
0428A:  MOVFF  FEC,03
0428E:  MOVFF  FEA,441
04292:  MOVFF  FE9,440
04296:  BCF    FD8.1
04298:  MOVFF  2D6,457
0429C:  MOVFF  2D5,456
042A0:  MOVFF  2D4,455
042A4:  MOVFF  2D3,454
042A8:  MOVFF  03,45B
042AC:  MOVFF  02,45A
042B0:  MOVFF  01,459
042B4:  MOVFF  00,458
042B8:  MOVLB  0
042BA:  CALL   1C40
042BE:  MOVFF  441,FEA
042C2:  MOVFF  440,FE9
042C6:  MOVFF  03,2D6
042CA:  MOVFF  02,2D5
042CE:  MOVFF  01,2D4
042D2:  MOVFF  00,2D3
....................    }  
042D6:  MOVLB  3
042D8:  INCF   x8E,F
042DA:  BRA    425E
....................    promediopresionp=promediopresionp/media;    
042DC:  MOVLB  4
042DE:  CLRF   x55
042E0:  MOVFF  43F,454
042E4:  MOVLB  0
042E6:  CALL   1AAC
042EA:  MOVFF  2D6,44B
042EE:  MOVFF  2D5,44A
042F2:  MOVFF  2D4,449
042F6:  MOVFF  2D3,448
042FA:  MOVFF  03,44F
042FE:  MOVFF  02,44E
04302:  MOVFF  01,44D
04306:  MOVFF  00,44C
0430A:  CALL   1AE2
0430E:  MOVFF  03,2D6
04312:  MOVFF  02,2D5
04316:  MOVFF  01,2D4
0431A:  MOVFF  00,2D3
....................     
....................    return promediopresionp; 
0431E:  MOVFF  2D3,00
04322:  MOVFF  2D4,01
04326:  MOVFF  2D5,02
0432A:  MOVFF  2D6,03
.................... } 
0432E:  RETLW  00
....................  
.................... void Controla(){ 
....................    if(tiemporecta>=Derivativo/2.0) 
*
06876:  MOVLB  4
06878:  CLRF   x55
0687A:  MOVFF  33D,454
0687E:  MOVLB  0
06880:  CALL   1AAC
06884:  MOVFF  03,44B
06888:  MOVFF  02,44A
0688C:  MOVFF  01,449
06890:  MOVFF  00,448
06894:  MOVLB  4
06896:  CLRF   x4F
06898:  CLRF   x4E
0689A:  CLRF   x4D
0689C:  MOVLW  80
0689E:  MOVWF  x4C
068A0:  MOVLB  0
068A2:  CALL   1AE2
068A6:  MOVFF  00,43F
068AA:  MOVFF  01,440
068AE:  MOVFF  02,441
068B2:  MOVFF  03,442
068B6:  MOVLB  4
068B8:  CLRF   x55
068BA:  MOVFF  355,454
068BE:  MOVLB  0
068C0:  CALL   1AAC
068C4:  MOVFF  442,446
068C8:  MOVFF  441,445
068CC:  MOVFF  440,444
068D0:  MOVFF  43F,443
068D4:  MOVFF  03,44A
068D8:  MOVFF  02,449
068DC:  MOVFF  01,448
068E0:  MOVFF  00,447
068E4:  CALL   2D88
068E8:  BC    68EC
068EA:  BNZ   68F2
....................    { 
....................       ActualizaRecta(); 
068EC:  BRA    6808
....................       tiemporecta=0; 
068EE:  MOVLB  3
068F0:  CLRF   x55
....................    }  
.................... //-------------------------------Control de Calentamiento------------------------------------------------------------//          
....................    error=desvio+Setpoint-Temperatura;      // Clculo del error ****** 
068F2:  MOVLB  4
068F4:  CLRF   x55
068F6:  MOVFF  365,454
068FA:  MOVLB  0
068FC:  CALL   1AAC
06900:  BCF    FD8.1
06902:  MOVFF  313,457
06906:  MOVFF  312,456
0690A:  MOVFF  311,455
0690E:  MOVFF  310,454
06912:  MOVFF  03,45B
06916:  MOVFF  02,45A
0691A:  MOVFF  01,459
0691E:  MOVFF  00,458
06922:  CALL   1C40
06926:  MOVFF  00,43F
0692A:  MOVFF  01,440
0692E:  MOVFF  02,441
06932:  MOVFF  03,442
06936:  BSF    FD8.1
06938:  MOVFF  03,457
0693C:  MOVFF  02,456
06940:  MOVFF  01,455
06944:  MOVFF  00,454
06948:  MOVFF  32B,45B
0694C:  MOVFF  32A,45A
06950:  MOVFF  329,459
06954:  MOVFF  328,458
06958:  CALL   1C40
0695C:  MOVFF  03,2FB
06960:  MOVFF  02,2FA
06964:  MOVFF  01,2F9
06968:  MOVFF  00,2F8
....................     
....................    if(error>1.0 && error<15 && Aumento<0.3){ 
0696C:  MOVLB  4
0696E:  CLRF   x46
06970:  CLRF   x45
06972:  CLRF   x44
06974:  MOVLW  7F
06976:  MOVWF  x43
06978:  MOVFF  2FB,44A
0697C:  MOVFF  2FA,449
06980:  MOVFF  2F9,448
06984:  MOVFF  2F8,447
06988:  MOVLB  0
0698A:  CALL   2D88
0698E:  BTFSS  FD8.0
06990:  BRA    6BBC
06992:  MOVFF  2FB,446
06996:  MOVFF  2FA,445
0699A:  MOVFF  2F9,444
0699E:  MOVFF  2F8,443
069A2:  MOVLB  4
069A4:  CLRF   x4A
069A6:  CLRF   x49
069A8:  MOVLW  70
069AA:  MOVWF  x48
069AC:  MOVLW  82
069AE:  MOVWF  x47
069B0:  MOVLB  0
069B2:  CALL   2D88
069B6:  BTFSS  FD8.0
069B8:  BRA    6BBC
069BA:  MOVFF  2CE,446
069BE:  MOVFF  2CD,445
069C2:  MOVFF  2CC,444
069C6:  MOVFF  2CB,443
069CA:  MOVLW  9A
069CC:  MOVLB  4
069CE:  MOVWF  x4A
069D0:  MOVLW  99
069D2:  MOVWF  x49
069D4:  MOVLW  19
069D6:  MOVWF  x48
069D8:  MOVLW  7D
069DA:  MOVWF  x47
069DC:  MOVLB  0
069DE:  CALL   2D88
069E2:  BTFSS  FD8.0
069E4:  BRA    6BBC
....................       if(Tpulso<6.0){ 
069E6:  MOVFF  2F7,446
069EA:  MOVFF  2F6,445
069EE:  MOVFF  2F5,444
069F2:  MOVFF  2F4,443
069F6:  MOVLB  4
069F8:  CLRF   x4A
069FA:  CLRF   x49
069FC:  MOVLW  40
069FE:  MOVWF  x48
06A00:  MOVLW  81
06A02:  MOVWF  x47
06A04:  MOVLB  0
06A06:  CALL   2D88
06A0A:  BTFSS  FD8.0
06A0C:  BRA    6BB8
....................          flagTC=1; 
06A0E:  MOVLB  3
06A10:  BSF    x53.0
....................          if(TiempoControl>=Derivativo){ 
06A12:  MOVF   x3D,W
06A14:  SUBWF  x8F,W
06A16:  BTFSS  FD8.0
06A18:  BRA    6BB4
....................             TiempoControl=0; 
06A1A:  CLRF   x8F
....................             if(Aumento<-0.5){ 
06A1C:  MOVFF  2CE,446
06A20:  MOVFF  2CD,445
06A24:  MOVFF  2CC,444
06A28:  MOVFF  2CB,443
06A2C:  MOVLB  4
06A2E:  CLRF   x4A
06A30:  CLRF   x49
06A32:  MOVLW  80
06A34:  MOVWF  x48
06A36:  MOVLW  7E
06A38:  MOVWF  x47
06A3A:  MOVLB  0
06A3C:  CALL   2D88
06A40:  BNC   6AB2
....................                Ganancia+=Integral+0.2; 
06A42:  MOVLB  4
06A44:  CLRF   x55
06A46:  MOVFF  33C,454
06A4A:  MOVLB  0
06A4C:  CALL   1AAC
06A50:  BCF    FD8.1
06A52:  MOVFF  03,457
06A56:  MOVFF  02,456
06A5A:  MOVFF  01,455
06A5E:  MOVFF  00,454
06A62:  MOVLW  CD
06A64:  MOVLB  4
06A66:  MOVWF  x5B
06A68:  MOVLW  CC
06A6A:  MOVWF  x5A
06A6C:  MOVLW  4C
06A6E:  MOVWF  x59
06A70:  MOVLW  7C
06A72:  MOVWF  x58
06A74:  MOVLB  0
06A76:  CALL   1C40
06A7A:  BCF    FD8.1
06A7C:  MOVFF  30B,457
06A80:  MOVFF  30A,456
06A84:  MOVFF  309,455
06A88:  MOVFF  308,454
06A8C:  MOVFF  03,45B
06A90:  MOVFF  02,45A
06A94:  MOVFF  01,459
06A98:  MOVFF  00,458
06A9C:  CALL   1C40
06AA0:  MOVFF  03,30B
06AA4:  MOVFF  02,30A
06AA8:  MOVFF  01,309
06AAC:  MOVFF  00,308
....................             }else{ 
06AB0:  BRA    6BB2
....................                if(Aumento<-0.1){ 
06AB2:  MOVFF  2CE,446
06AB6:  MOVFF  2CD,445
06ABA:  MOVFF  2CC,444
06ABE:  MOVFF  2CB,443
06AC2:  MOVLW  CD
06AC4:  MOVLB  4
06AC6:  MOVWF  x4A
06AC8:  MOVLW  CC
06ACA:  MOVWF  x49
06ACC:  MOVWF  x48
06ACE:  MOVLW  7B
06AD0:  MOVWF  x47
06AD2:  MOVLB  0
06AD4:  CALL   2D88
06AD8:  BNC   6B4A
....................                   Ganancia+=Integral-0.2; 
06ADA:  MOVLB  4
06ADC:  CLRF   x55
06ADE:  MOVFF  33C,454
06AE2:  MOVLB  0
06AE4:  CALL   1AAC
06AE8:  BSF    FD8.1
06AEA:  MOVFF  03,457
06AEE:  MOVFF  02,456
06AF2:  MOVFF  01,455
06AF6:  MOVFF  00,454
06AFA:  MOVLW  CD
06AFC:  MOVLB  4
06AFE:  MOVWF  x5B
06B00:  MOVLW  CC
06B02:  MOVWF  x5A
06B04:  MOVLW  4C
06B06:  MOVWF  x59
06B08:  MOVLW  7C
06B0A:  MOVWF  x58
06B0C:  MOVLB  0
06B0E:  CALL   1C40
06B12:  BCF    FD8.1
06B14:  MOVFF  30B,457
06B18:  MOVFF  30A,456
06B1C:  MOVFF  309,455
06B20:  MOVFF  308,454
06B24:  MOVFF  03,45B
06B28:  MOVFF  02,45A
06B2C:  MOVFF  01,459
06B30:  MOVFF  00,458
06B34:  CALL   1C40
06B38:  MOVFF  03,30B
06B3C:  MOVFF  02,30A
06B40:  MOVFF  01,309
06B44:  MOVFF  00,308
....................                }else{ 
06B48:  BRA    6BB2
....................                   Ganancia+=Integral-0.5; 
06B4A:  MOVLB  4
06B4C:  CLRF   x55
06B4E:  MOVFF  33C,454
06B52:  MOVLB  0
06B54:  CALL   1AAC
06B58:  BSF    FD8.1
06B5A:  MOVFF  03,457
06B5E:  MOVFF  02,456
06B62:  MOVFF  01,455
06B66:  MOVFF  00,454
06B6A:  MOVLB  4
06B6C:  CLRF   x5B
06B6E:  CLRF   x5A
06B70:  CLRF   x59
06B72:  MOVLW  7E
06B74:  MOVWF  x58
06B76:  MOVLB  0
06B78:  CALL   1C40
06B7C:  BCF    FD8.1
06B7E:  MOVFF  30B,457
06B82:  MOVFF  30A,456
06B86:  MOVFF  309,455
06B8A:  MOVFF  308,454
06B8E:  MOVFF  03,45B
06B92:  MOVFF  02,45A
06B96:  MOVFF  01,459
06B9A:  MOVFF  00,458
06B9E:  CALL   1C40
06BA2:  MOVFF  03,30B
06BA6:  MOVFF  02,30A
06BAA:  MOVFF  01,309
06BAE:  MOVFF  00,308
06BB2:  MOVLB  3
....................                } 
....................             } 
....................          } 
....................       }else{ 
06BB4:  BRA    6BBC
06BB6:  MOVLB  0
....................          flagTC=0; 
06BB8:  MOVLB  3
06BBA:  BCF    x53.0
....................       } 
....................    } 
....................     
....................    if(error<-0.3) 
06BBC:  MOVFF  2FB,446
06BC0:  MOVFF  2FA,445
06BC4:  MOVFF  2F9,444
06BC8:  MOVFF  2F8,443
06BCC:  MOVLW  9A
06BCE:  MOVLB  4
06BD0:  MOVWF  x4A
06BD2:  MOVLW  99
06BD4:  MOVWF  x49
06BD6:  MOVWF  x48
06BD8:  MOVLW  7D
06BDA:  MOVWF  x47
06BDC:  MOVLB  0
06BDE:  CALL   2D88
06BE2:  BNC   6BF4
....................       Ganancia=Ganancia2; 
06BE4:  MOVFF  30F,30B
06BE8:  MOVFF  30E,30A
06BEC:  MOVFF  30D,309
06BF0:  MOVFF  30C,308
....................     
....................    if(Ganancia<1) 
06BF4:  MOVFF  30B,446
06BF8:  MOVFF  30A,445
06BFC:  MOVFF  309,444
06C00:  MOVFF  308,443
06C04:  MOVLB  4
06C06:  CLRF   x4A
06C08:  CLRF   x49
06C0A:  CLRF   x48
06C0C:  MOVLW  7F
06C0E:  MOVWF  x47
06C10:  MOVLB  0
06C12:  CALL   2D88
06C16:  BNC   6C24
....................       Ganancia=1; 
06C18:  MOVLB  3
06C1A:  CLRF   x0B
06C1C:  CLRF   x0A
06C1E:  CLRF   x09
06C20:  MOVLW  7F
06C22:  MOVWF  x08
....................        
....................    if(error<0.0)     // Anti Wind_DOWN     
06C24:  MOVFF  2FB,446
06C28:  MOVFF  2FA,445
06C2C:  MOVFF  2F9,444
06C30:  MOVFF  2F8,443
06C34:  MOVLB  4
06C36:  CLRF   x4A
06C38:  CLRF   x49
06C3A:  CLRF   x48
06C3C:  CLRF   x47
06C3E:  MOVLB  0
06C40:  CALL   2D88
06C44:  BNC   6C52
....................       error=0.0; 
06C46:  MOVLB  2
06C48:  CLRF   xFB
06C4A:  CLRF   xFA
06C4C:  CLRF   xF9
06C4E:  CLRF   xF8
06C50:  MOVLB  0
....................     
....................    //tmp=(Setpoint-Prom)*Ganancia;  // Control Proporcional. 
....................    tmp=error*Ganancia;  // Control Proporcional. 
06C52:  MOVFF  2FB,45B
06C56:  MOVFF  2FA,45A
06C5A:  MOVFF  2F9,459
06C5E:  MOVFF  2F8,458
06C62:  MOVFF  30B,45F
06C66:  MOVFF  30A,45E
06C6A:  MOVFF  309,45D
06C6E:  MOVFF  308,45C
06C72:  CALL   39BE
06C76:  MOVFF  03,307
06C7A:  MOVFF  02,306
06C7E:  MOVFF  01,305
06C82:  MOVFF  00,304
....................           
....................    if(tmp>Setpoint)   // Anti Wind-UP       
06C86:  MOVLB  4
06C88:  CLRF   x55
06C8A:  MOVFF  365,454
06C8E:  MOVLB  0
06C90:  CALL   1AAC
06C94:  MOVFF  03,446
06C98:  MOVFF  02,445
06C9C:  MOVFF  01,444
06CA0:  MOVFF  00,443
06CA4:  MOVFF  307,44A
06CA8:  MOVFF  306,449
06CAC:  MOVFF  305,448
06CB0:  MOVFF  304,447
06CB4:  CALL   2D88
06CB8:  BNC   6CD8
....................       tmp=Setpoint; 
06CBA:  MOVLB  4
06CBC:  CLRF   x55
06CBE:  MOVFF  365,454
06CC2:  MOVLB  0
06CC4:  CALL   1AAC
06CC8:  MOVFF  03,307
06CCC:  MOVFF  02,306
06CD0:  MOVFF  01,305
06CD4:  MOVFF  00,304
....................                   
....................    if(tmp<0.0)     // Anti Wind_DOWN     
06CD8:  MOVFF  307,446
06CDC:  MOVFF  306,445
06CE0:  MOVFF  305,444
06CE4:  MOVFF  304,443
06CE8:  MOVLB  4
06CEA:  CLRF   x4A
06CEC:  CLRF   x49
06CEE:  CLRF   x48
06CF0:  CLRF   x47
06CF2:  MOVLB  0
06CF4:  CALL   2D88
06CF8:  BNC   6D04
....................       tmp=0.0; 
06CFA:  MOVLB  3
06CFC:  CLRF   x07
06CFE:  CLRF   x06
06D00:  CLRF   x05
06D02:  CLRF   x04
....................     
....................    // Tpulso(t)= Tciclo*(y(t)-ymin)/(ymax - ymin); calculo de ciclo util para control de resistencia.ymax=140.ymin=0; 
....................    // Tpulso es float, hay que pasar ese ciclo a una salida de un puerto usando el TMR1. 
....................    tmp2=(tmp/Setpoint); 
06D04:  MOVLB  4
06D06:  CLRF   x55
06D08:  MOVFF  365,454
06D0C:  MOVLB  0
06D0E:  CALL   1AAC
06D12:  MOVFF  307,44B
06D16:  MOVFF  306,44A
06D1A:  MOVFF  305,449
06D1E:  MOVFF  304,448
06D22:  MOVFF  03,44F
06D26:  MOVFF  02,44E
06D2A:  MOVFF  01,44D
06D2E:  MOVFF  00,44C
06D32:  CALL   1AE2
06D36:  MOVFF  03,317
06D3A:  MOVFF  02,316
06D3E:  MOVFF  01,315
06D42:  MOVFF  00,314
....................    //if(tmp2>0.8) 
....................    //tmp2=0.8; 
....................    Tpulso=tmp2*Tciclo;   
06D46:  MOVFF  317,45B
06D4A:  MOVFF  316,45A
06D4E:  MOVFF  315,459
06D52:  MOVFF  314,458
06D56:  MOVFF  2F3,45F
06D5A:  MOVFF  2F2,45E
06D5E:  MOVFF  2F1,45D
06D62:  MOVFF  2F0,45C
06D66:  CALL   39BE
06D6A:  MOVFF  03,2F7
06D6E:  MOVFF  02,2F6
06D72:  MOVFF  01,2F5
06D76:  MOVFF  00,2F4
....................                                        
....................    Tp=(Tpulso/0.005); 
06D7A:  MOVFF  2F7,44B
06D7E:  MOVFF  2F6,44A
06D82:  MOVFF  2F5,449
06D86:  MOVFF  2F4,448
06D8A:  MOVLW  0A
06D8C:  MOVLB  4
06D8E:  MOVWF  x4F
06D90:  MOVLW  D7
06D92:  MOVWF  x4E
06D94:  MOVLW  23
06D96:  MOVWF  x4D
06D98:  MOVLW  77
06D9A:  MOVWF  x4C
06D9C:  MOVLB  0
06D9E:  CALL   1AE2
06DA2:  MOVFF  03,457
06DA6:  MOVFF  02,456
06DAA:  MOVFF  01,455
06DAE:  MOVFF  00,454
06DB2:  CALL   40F6
06DB6:  MOVFF  02,AC
06DBA:  MOVFF  01,AB
....................    Tc=(Tciclo/0.005); 
06DBE:  MOVFF  2F3,44B
06DC2:  MOVFF  2F2,44A
06DC6:  MOVFF  2F1,449
06DCA:  MOVFF  2F0,448
06DCE:  MOVLW  0A
06DD0:  MOVLB  4
06DD2:  MOVWF  x4F
06DD4:  MOVLW  D7
06DD6:  MOVWF  x4E
06DD8:  MOVLW  23
06DDA:  MOVWF  x4D
06DDC:  MOVLW  77
06DDE:  MOVWF  x4C
06DE0:  MOVLB  0
06DE2:  CALL   1AE2
06DE6:  MOVFF  03,457
06DEA:  MOVFF  02,456
06DEE:  MOVFF  01,455
06DF2:  MOVFF  00,454
06DF6:  CALL   40F6
06DFA:  MOVFF  02,AE
06DFE:  MOVFF  01,AD
....................    Controlando=1;    
06E02:  MOVLW  01
06E04:  MOVLB  3
06E06:  MOVWF  x56
.................... //--------------------------------------------------------------------------------------------------------------------//    
.................... } 
06E08:  MOVLB  0
06E0A:  RETLW  00
....................  
.................... void ControlaPresion(){ 
....................    float prc=0.0;    
....................    if(tiemporecta>=Derivativo/2.0){ 
....................       ActualizaRectaPresion(); 
....................       tiemporecta=0; 
....................    }  
....................    prc=(float)PresionCamara; 
....................    Tactual=((prc)*(prc)*(prc)*p1)+((prc)*(prc)*p2)+(p3*prc)+p4; 
.................... //-------------------------------Control de Calentamiento------------------------------------------------------------//          
....................    if(Esterilizando){ 
....................       error=desvio+Setpoint-Tactual;      // Clculo del error ****** 
....................    }else{ 
....................       error=desvio+1.0+Setpoint-Tactual;      // Clculo del error ****** 
....................    } 
....................     
....................    if(error>1.0 && error<20 && Aumento2<0.3){ 
....................       if(Tpulso<=6.0){ 
....................          flagTC=1; 
....................          if(TiempoControl>=Derivativo){ 
....................             TiempoControl=0; 
....................             if(Aumento2<-0.5){ 
....................                Ganancia+=Integral+0.2; 
....................             }else{ 
....................                if(Aumento2<-0.1){ 
....................                   Ganancia+=Integral-0.2; 
....................                }else{ 
....................                   Ganancia+=Integral-0.5; 
....................                } 
....................             } 
....................          } 
....................       }else{ 
....................          flagTC=0; 
....................       } 
....................    } 
....................     
....................    if(error<-0.3) 
....................       Ganancia=Ganancia2; 
....................     
....................    if(Ganancia<1) 
....................       Ganancia=1; 
....................     
....................    if(error<0.0)     // Anti Wind_DOWN     
....................       error=0.0; 
....................    //tmp=(Setpoint-Prom)*Ganancia;  // Control Proporcional. 
....................    tmp=error*Ganancia;  // Control Proporcional. 
....................           
....................    if(tmp>Setpoint)   // Anti Wind-UP       
....................       tmp=Setpoint; 
....................                 
....................    if(tmp<0.0)     // Anti Wind_DOWN     
....................       tmp=0.0; 
....................     
....................    // Tpulso(t)= Tciclo*(y(t)-ymin)/(ymax - ymin); calculo de ciclo util para control de resistencia.ymax=140.ymin=0; 
....................    // Tpulso es float, hay que pasar ese ciclo a una salida de un puerto usando el TMR1. 
....................    tmp2=(tmp/Setpoint); 
....................    //if(tmp2>0.8) 
....................    //tmp2=0.8; 
....................    Tpulso=tmp2*Tciclo;   
....................                                        
....................    Tp=(Tpulso/0.005); 
....................    Tc=(Tciclo/0.005); 
....................    Controlando=1;    
.................... //--------------------------------------------------------------------------------------------------------------------//    
.................... } 
....................  
....................  
.................... void Envio_I2C(direccion, posicion, dato){ 
....................  
....................    i2c_start();            // Comienzo comunicacin 
....................    i2c_write(direccion);   // Direccin del esclavo en el bus I2C 
....................    i2c_write(posicion);    // Posicin donde se guardara el dato transmitido 
....................    i2c_write(dato);        // Dato a transmitir 
....................    i2c_stop();             // Fin comunicacin 
....................  } 
....................  
.................... void Lectura_I2C (byte direccion, byte posicion, byte &dato) { 
....................  
....................    i2c_start();            // Comienzo de la comunicacin 
....................    i2c_write(direccion);   // Direccin del esclavo en el bus I2C 
....................    i2c_write(posicion);    // Posicin de donde se leer el dato en el esclavo 
....................    i2c_start();            // Reinicio 
....................    i2c_write(direccion+1); // Direccin del esclavo en modo lectura 
....................    dato=i2c_read(0);       // Lectura del dato 
....................    i2c_stop();             // Fin comunicacin 
.................... } 
....................  
.................... void Carga_Vector(void){ 
....................    SlaveA0Tx[0]=(int8)Temperatura; 
*
044C0:  MOVFF  32B,457
044C4:  MOVFF  32A,456
044C8:  MOVFF  329,455
044CC:  MOVFF  328,454
044D0:  RCALL  40F6
044D2:  MOVFF  01,64
....................    SlaveA0Tx[1]=(Temperatura-((int8)Temperatura))*10; 
044D6:  MOVFF  32B,457
044DA:  MOVFF  32A,456
044DE:  MOVFF  329,455
044E2:  MOVFF  328,454
044E6:  RCALL  40F6
044E8:  MOVLB  4
044EA:  CLRF   x55
044EC:  MOVFF  01,454
044F0:  MOVLB  0
044F2:  CALL   1AAC
044F6:  BSF    FD8.1
044F8:  MOVFF  32B,457
044FC:  MOVFF  32A,456
04500:  MOVFF  329,455
04504:  MOVFF  328,454
04508:  MOVFF  03,45B
0450C:  MOVFF  02,45A
04510:  MOVFF  01,459
04514:  MOVFF  00,458
04518:  CALL   1C40
0451C:  MOVFF  00,454
04520:  MOVFF  01,455
04524:  MOVFF  02,456
04528:  MOVFF  03,457
0452C:  MOVFF  03,45B
04530:  MOVFF  02,45A
04534:  MOVFF  01,459
04538:  MOVFF  00,458
0453C:  MOVLB  4
0453E:  CLRF   x5F
04540:  CLRF   x5E
04542:  MOVLW  20
04544:  MOVWF  x5D
04546:  MOVLW  82
04548:  MOVWF  x5C
0454A:  MOVLB  0
0454C:  CALL   39BE
04550:  MOVFF  03,457
04554:  MOVFF  02,456
04558:  MOVFF  01,455
0455C:  MOVFF  00,454
04560:  RCALL  40F6
04562:  MOVFF  01,65
....................    SlaveA0Tx[2]=make8((int16)PresionCamara,0); 
04566:  MOVFF  377,66
0456A:  MOVLB  0
....................    SlaveA0Tx[3]=make8((int16)PresionCamara,1); 
0456C:  MOVFF  378,67
04570:  MOVLB  0
....................    SlaveA0Tx[4]=make8((int16)PresionPreCamara,0); 
04572:  MOVFF  379,68
04576:  MOVLB  0
....................    SlaveA0Tx[5]=make8((int16)PresionPreCamara,1); 
04578:  MOVFF  37A,69
0457C:  MOVLB  0
....................    SlaveA0Tx[6]=(int8)Tpulso*10; 
0457E:  MOVFF  2F7,457
04582:  MOVFF  2F6,456
04586:  MOVFF  2F5,455
0458A:  MOVFF  2F4,454
0458E:  RCALL  40F6
04590:  MOVF   01,W
04592:  MULLW  0A
04594:  MOVFF  FF3,6A
....................    SlaveA0Tx[7]=HIG; 
04598:  BSF    F94.0
0459A:  CLRF   x6B
0459C:  BTFSC  F82.0
0459E:  INCF   x6B,F
....................    SlaveA0Tx[8]=LOW; 
045A0:  BSF    F94.1
045A2:  CLRF   x6C
045A4:  BTFSC  F82.1
045A6:  INCF   x6C,F
....................    SlaveA0Tx[9]=TERM; 
045A8:  BSF    F93.5
045AA:  CLRF   x6D
045AC:  BTFSS  F81.5
045AE:  INCF   x6D,F
....................    SlaveA0Tx[10]=DOOR; 
045B0:  BSF    F93.6
045B2:  CLRF   x6E
045B4:  BTFSS  F81.6
045B6:  INCF   x6E,F
....................    SlaveA0Tx[11]=STOP; 
045B8:  BSF    F93.7
045BA:  CLRF   x6F
045BC:  BTFSS  F81.7
045BE:  INCF   x6F,F
....................    SlaveA0Tx[12]=(int8)error; 
045C0:  MOVFF  2FB,457
045C4:  MOVFF  2FA,456
045C8:  MOVFF  2F9,455
045CC:  MOVFF  2F8,454
045D0:  RCALL  40F6
045D2:  MOVFF  01,70
....................    SlaveA0Tx[13]=CicloSeleccionado; 
045D6:  MOVFF  364,71
....................    SlaveA0Tx[14]=SetTime; 
045DA:  MOVFF  3AC,72
....................    SlaveA0Tx[15]=Dia; 
045DE:  MOVFF  3A0,73
....................    SlaveA0Tx[16]=Mes; 
045E2:  MOVFF  39F,74
....................    SlaveA0Tx[17]=Year; 
045E6:  MOVFF  39E,75
....................    SlaveA0Tx[18]=Hora; 
045EA:  MOVFF  3A1,76
....................    SlaveA0Tx[19]=Minuto; 
045EE:  MOVFF  3A2,77
....................    SlaveA0Tx[20]=Segundo; 
045F2:  MOVFF  3A3,78
....................    SlaveA0Tx[21]=Imprime; 
045F6:  MOVFF  3AD,79
....................    SlaveA0Tx[22]=Aire; 
045FA:  CLRF   x7A
045FC:  BTFSC  xA3.7
045FE:  INCF   x7A,F
....................    SlaveA0Tx[23]=make8(Ciclos,0); 
04600:  MOVFF  37B,7B
04604:  MOVLB  0
....................    SlaveA0Tx[24]=make8(Ciclos,1); 
04606:  MOVFF  37C,7C
0460A:  MOVLB  0
.................... } 
0460C:  GOTO   4688 (RETURN)
....................  
.................... void Lee_Vector(void){ 
....................    /*Dia=txbuf[0]; 
....................    Mess=txbuf[1]; 
....................    Year=txbuf[2]; 
....................    Hora=txbuf[3]; 
....................    Minuto=txbuf[4]; 
....................    Segundo=txbuf[5]; 
....................    dow=txbuf[6];*/ 
.................... } 
....................  
.................... void Envio_Esclavos(void){ 
....................    Carga_Vector(); 
*
04686:  BRA    44C0
....................    for(i=0;i<25;i++){ 
04688:  MOVLB  3
0468A:  CLRF   x61
0468C:  MOVF   x61,W
0468E:  SUBLW  18
04690:  BNC   4712
....................       direccion=0xB0; 
04692:  MOVLW  B0
04694:  MOVLB  0
04696:  MOVWF  x85
....................       i2c_start();            // Comienzo comunicacin 
04698:  BSF    F94.4
0469A:  MOVLW  05
0469C:  MOVWF  00
0469E:  DECFSZ 00,F
046A0:  BRA    469E
046A2:  BSF    F94.3
046A4:  MOVLW  06
046A6:  MOVWF  00
046A8:  DECFSZ 00,F
046AA:  BRA    46A8
046AC:  BCF    F8B.4
046AE:  BCF    F94.4
046B0:  MOVLW  05
046B2:  MOVWF  00
046B4:  DECFSZ 00,F
046B6:  BRA    46B4
046B8:  BCF    F8B.3
046BA:  BCF    F94.3
....................       i2c_write(direccion);   // Direccin del esclavo en el bus I2C 
046BC:  MOVFF  85,455
046C0:  RCALL  4610
....................       i2c_write(i);   // Direccin del esclavo en el bus I2C 
046C2:  MOVFF  361,455
046C6:  RCALL  4610
....................       i2c_write(0);    // Posicin donde se guardara el dato transmitido 
046C8:  MOVLB  4
046CA:  CLRF   x55
046CC:  MOVLB  0
046CE:  RCALL  4610
....................       i2c_write(SlaveA0Tx[i]); // Dato a transmitir 
046D0:  CLRF   03
046D2:  MOVLB  3
046D4:  MOVF   x61,W
046D6:  ADDLW  64
046D8:  MOVWF  FE9
046DA:  MOVLW  00
046DC:  ADDWFC 03,W
046DE:  MOVWF  FEA
046E0:  MOVFF  FEF,454
046E4:  MOVFF  454,455
046E8:  MOVLB  0
046EA:  RCALL  4610
....................       i2c_stop();  
046EC:  BCF    F94.4
046EE:  NOP   
046F0:  BSF    F94.3
046F2:  BTFSS  F82.3
046F4:  BRA    46F2
046F6:  MOVLW  05
046F8:  MOVWF  00
046FA:  DECFSZ 00,F
046FC:  BRA    46FA
046FE:  BRA    4700
04700:  NOP   
04702:  BSF    F94.4
04704:  MOVLW  05
04706:  MOVWF  00
04708:  DECFSZ 00,F
0470A:  BRA    4708
....................       //Envio_I2C(direccion,i,SlaveB0Tx[i]); 
....................    }  
0470C:  MOVLB  3
0470E:  INCF   x61,F
04710:  BRA    468C
.................... } 
04712:  MOVLB  0
04714:  RETLW  00
.................... void Lectura_Esclavos(void){ 
....................    //for(i=0;i<7;i++) 
....................    //{ 
....................    //   direccion=0xA0;                        //Direccin en el bus I2c 
....................    //   posicion=i;                         //Posicin de memoria a leer 
....................    //   Lectura_I2C(direccion, posicion, dato);    //Lectura por I2C 
....................    //   txbuf[i]=(int8)dato; 
....................    //} 
....................    //Lee_Vector(); 
.................... } 
....................  
.................... void LeeEEPROM(){ 
.................... //Lectura EEPROM//-------------------------- 
....................    Testerilizacionp[0]=read_eeprom(0); 
*
01EB8:  MOVFF  FF2,43F
01EBC:  BCF    FF2.6
01EBE:  BCF    FF2.7
01EC0:  CLRF   FAA
01EC2:  CLRF   FA9
01EC4:  BCF    FA6.6
01EC6:  BCF    FA6.7
01EC8:  BSF    FA6.0
01ECA:  MOVF   FA8,W
01ECC:  MOVLB  4
01ECE:  BTFSC  x3F.6
01ED0:  BSF    FF2.6
01ED2:  BTFSC  x3F.7
01ED4:  BSF    FF2.7
01ED6:  MOVLB  0
01ED8:  MOVWF  xB6
....................    delay_ms(10); 
01EDA:  MOVLW  0A
01EDC:  MOVLB  4
01EDE:  MOVWF  x54
01EE0:  MOVLB  0
01EE2:  RCALL  1A84
....................    Testerilizacionp[1]=read_eeprom(1); 
01EE4:  MOVFF  FF2,43F
01EE8:  BCF    FF2.6
01EEA:  BCF    FF2.7
01EEC:  CLRF   FAA
01EEE:  MOVLW  01
01EF0:  MOVWF  FA9
01EF2:  BCF    FA6.6
01EF4:  BCF    FA6.7
01EF6:  BSF    FA6.0
01EF8:  MOVF   FA8,W
01EFA:  MOVLB  4
01EFC:  BTFSC  x3F.6
01EFE:  BSF    FF2.6
01F00:  BTFSC  x3F.7
01F02:  BSF    FF2.7
01F04:  MOVLB  0
01F06:  MOVWF  xB7
....................    delay_ms(10); 
01F08:  MOVLW  0A
01F0A:  MOVLB  4
01F0C:  MOVWF  x54
01F0E:  MOVLB  0
01F10:  RCALL  1A84
....................    Testerilizacionp[2]=read_eeprom(2); 
01F12:  MOVFF  FF2,43F
01F16:  BCF    FF2.6
01F18:  BCF    FF2.7
01F1A:  CLRF   FAA
01F1C:  MOVLW  02
01F1E:  MOVWF  FA9
01F20:  BCF    FA6.6
01F22:  BCF    FA6.7
01F24:  BSF    FA6.0
01F26:  MOVF   FA8,W
01F28:  MOVLB  4
01F2A:  BTFSC  x3F.6
01F2C:  BSF    FF2.6
01F2E:  BTFSC  x3F.7
01F30:  BSF    FF2.7
01F32:  MOVLB  0
01F34:  MOVWF  xB8
....................    delay_ms(10); 
01F36:  MOVLW  0A
01F38:  MOVLB  4
01F3A:  MOVWF  x54
01F3C:  MOVLB  0
01F3E:  RCALL  1A84
....................    Testerilizacionp[3]=read_eeprom(3); 
01F40:  MOVFF  FF2,43F
01F44:  BCF    FF2.6
01F46:  BCF    FF2.7
01F48:  CLRF   FAA
01F4A:  MOVLW  03
01F4C:  MOVWF  FA9
01F4E:  BCF    FA6.6
01F50:  BCF    FA6.7
01F52:  BSF    FA6.0
01F54:  MOVF   FA8,W
01F56:  MOVLB  4
01F58:  BTFSC  x3F.6
01F5A:  BSF    FF2.6
01F5C:  BTFSC  x3F.7
01F5E:  BSF    FF2.7
01F60:  MOVLB  0
01F62:  MOVWF  xB9
....................    delay_ms(10); 
01F64:  MOVLW  0A
01F66:  MOVLB  4
01F68:  MOVWF  x54
01F6A:  MOVLB  0
01F6C:  RCALL  1A84
....................    Tsecadop[0]=read_eeprom(4); 
01F6E:  MOVFF  FF2,43F
01F72:  BCF    FF2.6
01F74:  BCF    FF2.7
01F76:  CLRF   FAA
01F78:  MOVLW  04
01F7A:  MOVWF  FA9
01F7C:  BCF    FA6.6
01F7E:  BCF    FA6.7
01F80:  BSF    FA6.0
01F82:  MOVF   FA8,W
01F84:  MOVLB  4
01F86:  BTFSC  x3F.6
01F88:  BSF    FF2.6
01F8A:  BTFSC  x3F.7
01F8C:  BSF    FF2.7
01F8E:  MOVLB  0
01F90:  MOVWF  xBF
....................    delay_ms(10); 
01F92:  MOVLW  0A
01F94:  MOVLB  4
01F96:  MOVWF  x54
01F98:  MOVLB  0
01F9A:  RCALL  1A84
....................    Tsecadop[1]=read_eeprom(5); 
01F9C:  MOVFF  FF2,43F
01FA0:  BCF    FF2.6
01FA2:  BCF    FF2.7
01FA4:  CLRF   FAA
01FA6:  MOVLW  05
01FA8:  MOVWF  FA9
01FAA:  BCF    FA6.6
01FAC:  BCF    FA6.7
01FAE:  BSF    FA6.0
01FB0:  MOVF   FA8,W
01FB2:  MOVLB  4
01FB4:  BTFSC  x3F.6
01FB6:  BSF    FF2.6
01FB8:  BTFSC  x3F.7
01FBA:  BSF    FF2.7
01FBC:  MOVLB  0
01FBE:  MOVWF  xC0
....................    delay_ms(10); 
01FC0:  MOVLW  0A
01FC2:  MOVLB  4
01FC4:  MOVWF  x54
01FC6:  MOVLB  0
01FC8:  RCALL  1A84
....................    Tsecadop[2]=read_eeprom(6); 
01FCA:  MOVFF  FF2,43F
01FCE:  BCF    FF2.6
01FD0:  BCF    FF2.7
01FD2:  CLRF   FAA
01FD4:  MOVLW  06
01FD6:  MOVWF  FA9
01FD8:  BCF    FA6.6
01FDA:  BCF    FA6.7
01FDC:  BSF    FA6.0
01FDE:  MOVF   FA8,W
01FE0:  MOVLB  4
01FE2:  BTFSC  x3F.6
01FE4:  BSF    FF2.6
01FE6:  BTFSC  x3F.7
01FE8:  BSF    FF2.7
01FEA:  MOVLB  0
01FEC:  MOVWF  xC1
....................    delay_ms(10); 
01FEE:  MOVLW  0A
01FF0:  MOVLB  4
01FF2:  MOVWF  x54
01FF4:  MOVLB  0
01FF6:  RCALL  1A84
....................    Tsecadop[3]=read_eeprom(7); 
01FF8:  MOVFF  FF2,43F
01FFC:  BCF    FF2.6
01FFE:  BCF    FF2.7
02000:  CLRF   FAA
02002:  MOVLW  07
02004:  MOVWF  FA9
02006:  BCF    FA6.6
02008:  BCF    FA6.7
0200A:  BSF    FA6.0
0200C:  MOVF   FA8,W
0200E:  MOVLB  4
02010:  BTFSC  x3F.6
02012:  BSF    FF2.6
02014:  BTFSC  x3F.7
02016:  BSF    FF2.7
02018:  MOVLB  0
0201A:  MOVWF  xC2
....................    delay_ms(10); 
0201C:  MOVLW  0A
0201E:  MOVLB  4
02020:  MOVWF  x54
02022:  MOVLB  0
02024:  RCALL  1A84
....................    Setpoint=read_eeprom(8); 
02026:  MOVFF  FF2,43F
0202A:  BCF    FF2.6
0202C:  BCF    FF2.7
0202E:  CLRF   FAA
02030:  MOVLW  08
02032:  MOVWF  FA9
02034:  BCF    FA6.6
02036:  BCF    FA6.7
02038:  BSF    FA6.0
0203A:  MOVF   FA8,W
0203C:  MOVLB  4
0203E:  BTFSC  x3F.6
02040:  BSF    FF2.6
02042:  BTFSC  x3F.7
02044:  BSF    FF2.7
02046:  MOVLB  3
02048:  MOVWF  x65
....................    delay_ms(10); 
0204A:  MOVLW  0A
0204C:  MOVLB  4
0204E:  MOVWF  x54
02050:  MOVLB  0
02052:  RCALL  1A84
....................    Nivel=read_eeprom(9); 
02054:  MOVFF  FF2,43F
02058:  BCF    FF2.6
0205A:  BCF    FF2.7
0205C:  CLRF   FAA
0205E:  MOVLW  09
02060:  MOVWF  FA9
02062:  BCF    FA6.6
02064:  BCF    FA6.7
02066:  BSF    FA6.0
02068:  MOVF   FA8,W
0206A:  MOVLB  4
0206C:  BTFSC  x3F.6
0206E:  BSF    FF2.6
02070:  BTFSC  x3F.7
02072:  BSF    FF2.7
02074:  MOVLB  3
02076:  CLRF   x74
02078:  MOVWF  x73
....................    delay_ms(10); 
0207A:  MOVLW  0A
0207C:  MOVLB  4
0207E:  MOVWF  x54
02080:  MOVLB  0
02082:  RCALL  1A84
....................    Password[0]=read_eeprom(10); 
02084:  MOVFF  FF2,43F
02088:  BCF    FF2.6
0208A:  BCF    FF2.7
0208C:  CLRF   FAA
0208E:  MOVLW  0A
02090:  MOVWF  FA9
02092:  BCF    FA6.6
02094:  BCF    FA6.7
02096:  BSF    FA6.0
02098:  MOVF   FA8,W
0209A:  MOVLB  4
0209C:  BTFSC  x3F.6
0209E:  BSF    FF2.6
020A0:  BTFSC  x3F.7
020A2:  BSF    FF2.7
020A4:  MOVLB  3
020A6:  MOVWF  x87
....................    delay_ms(10); 
020A8:  MOVLW  0A
020AA:  MOVLB  4
020AC:  MOVWF  x54
020AE:  MOVLB  0
020B0:  RCALL  1A84
....................    Password[1]=read_eeprom(11); 
020B2:  MOVFF  FF2,43F
020B6:  BCF    FF2.6
020B8:  BCF    FF2.7
020BA:  CLRF   FAA
020BC:  MOVLW  0B
020BE:  MOVWF  FA9
020C0:  BCF    FA6.6
020C2:  BCF    FA6.7
020C4:  BSF    FA6.0
020C6:  MOVF   FA8,W
020C8:  MOVLB  4
020CA:  BTFSC  x3F.6
020CC:  BSF    FF2.6
020CE:  BTFSC  x3F.7
020D0:  BSF    FF2.7
020D2:  MOVLB  3
020D4:  MOVWF  x88
....................    delay_ms(10); 
020D6:  MOVLW  0A
020D8:  MOVLB  4
020DA:  MOVWF  x54
020DC:  MOVLB  0
020DE:  RCALL  1A84
....................    Password[2]=read_eeprom(12); 
020E0:  MOVFF  FF2,43F
020E4:  BCF    FF2.6
020E6:  BCF    FF2.7
020E8:  CLRF   FAA
020EA:  MOVLW  0C
020EC:  MOVWF  FA9
020EE:  BCF    FA6.6
020F0:  BCF    FA6.7
020F2:  BSF    FA6.0
020F4:  MOVF   FA8,W
020F6:  MOVLB  4
020F8:  BTFSC  x3F.6
020FA:  BSF    FF2.6
020FC:  BTFSC  x3F.7
020FE:  BSF    FF2.7
02100:  MOVLB  3
02102:  MOVWF  x89
....................    delay_ms(10); 
02104:  MOVLW  0A
02106:  MOVLB  4
02108:  MOVWF  x54
0210A:  MOVLB  0
0210C:  RCALL  1A84
....................    Password[3]=read_eeprom(13); 
0210E:  MOVFF  FF2,43F
02112:  BCF    FF2.6
02114:  BCF    FF2.7
02116:  CLRF   FAA
02118:  MOVLW  0D
0211A:  MOVWF  FA9
0211C:  BCF    FA6.6
0211E:  BCF    FA6.7
02120:  BSF    FA6.0
02122:  MOVF   FA8,W
02124:  MOVLB  4
02126:  BTFSC  x3F.6
02128:  BSF    FF2.6
0212A:  BTFSC  x3F.7
0212C:  BSF    FF2.7
0212E:  MOVLB  3
02130:  MOVWF  x8A
....................    delay_ms(10); 
02132:  MOVLW  0A
02134:  MOVLB  4
02136:  MOVWF  x54
02138:  MOVLB  0
0213A:  RCALL  1A84
....................    Ganancia=read_eeprom(20); 
0213C:  MOVFF  FF2,43F
02140:  BCF    FF2.6
02142:  BCF    FF2.7
02144:  CLRF   FAA
02146:  MOVLW  14
02148:  MOVWF  FA9
0214A:  BCF    FA6.6
0214C:  BCF    FA6.7
0214E:  BSF    FA6.0
02150:  MOVF   FA8,W
02152:  MOVLB  4
02154:  BTFSC  x3F.6
02156:  BSF    FF2.6
02158:  BTFSC  x3F.7
0215A:  BSF    FF2.7
0215C:  CLRF   x55
0215E:  MOVWF  x54
02160:  MOVLB  0
02162:  RCALL  1AAC
02164:  MOVFF  03,30B
02168:  MOVFF  02,30A
0216C:  MOVFF  01,309
02170:  MOVFF  00,308
....................    delay_ms(10); 
02174:  MOVLW  0A
02176:  MOVLB  4
02178:  MOVWF  x54
0217A:  MOVLB  0
0217C:  RCALL  1A84
....................    Ajuste=read_eeprom(21); 
0217E:  MOVFF  FF2,43F
02182:  BCF    FF2.6
02184:  BCF    FF2.7
02186:  CLRF   FAA
02188:  MOVLW  15
0218A:  MOVWF  FA9
0218C:  BCF    FA6.6
0218E:  BCF    FA6.7
02190:  BSF    FA6.0
02192:  MOVF   FA8,W
02194:  MOVLB  4
02196:  BTFSC  x3F.6
02198:  BSF    FF2.6
0219A:  BTFSC  x3F.7
0219C:  BSF    FF2.7
0219E:  MOVLB  2
021A0:  MOVWF  xD9
....................    delay_ms(10); 
021A2:  MOVLW  0A
021A4:  MOVLB  4
021A6:  MOVWF  x54
021A8:  MOVLB  0
021AA:  RCALL  1A84
....................    Ajusten=read_eeprom(22); 
021AC:  MOVFF  FF2,43F
021B0:  BCF    FF2.6
021B2:  BCF    FF2.7
021B4:  CLRF   FAA
021B6:  MOVLW  16
021B8:  MOVWF  FA9
021BA:  BCF    FA6.6
021BC:  BCF    FA6.7
021BE:  BSF    FA6.0
021C0:  MOVF   FA8,W
021C2:  MOVLB  4
021C4:  BTFSC  x3F.6
021C6:  BSF    FF2.6
021C8:  BTFSC  x3F.7
021CA:  BSF    FF2.7
021CC:  MOVLB  2
021CE:  MOVWF  xDA
....................    delay_ms(10); 
021D0:  MOVLW  0A
021D2:  MOVLB  4
021D4:  MOVWF  x54
021D6:  MOVLB  0
021D8:  RCALL  1A84
....................    //Desvio=read_eeprom(23); 
....................    MediaMovil=read_eeprom(24); 
021DA:  MOVFF  FF2,43F
021DE:  BCF    FF2.6
021E0:  BCF    FF2.7
021E2:  CLRF   FAA
021E4:  MOVLW  18
021E6:  MOVWF  FA9
021E8:  BCF    FA6.6
021EA:  BCF    FA6.7
021EC:  BSF    FA6.0
021EE:  MOVF   FA8,W
021F0:  MOVLB  4
021F2:  BTFSC  x3F.6
021F4:  BSF    FF2.6
021F6:  BTFSC  x3F.7
021F8:  BSF    FF2.7
021FA:  MOVLB  2
021FC:  MOVWF  xDB
....................    delay_ms(10); 
021FE:  MOVLW  0A
02200:  MOVLB  4
02202:  MOVWF  x54
02204:  MOVLB  0
02206:  RCALL  1A84
....................    Tciclo=read_eeprom(25); 
02208:  MOVFF  FF2,43F
0220C:  BCF    FF2.6
0220E:  BCF    FF2.7
02210:  CLRF   FAA
02212:  MOVLW  19
02214:  MOVWF  FA9
02216:  BCF    FA6.6
02218:  BCF    FA6.7
0221A:  BSF    FA6.0
0221C:  MOVF   FA8,W
0221E:  MOVLB  4
02220:  BTFSC  x3F.6
02222:  BSF    FF2.6
02224:  BTFSC  x3F.7
02226:  BSF    FF2.7
02228:  CLRF   x55
0222A:  MOVWF  x54
0222C:  MOVLB  0
0222E:  RCALL  1AAC
02230:  MOVFF  03,2F3
02234:  MOVFF  02,2F2
02238:  MOVFF  01,2F1
0223C:  MOVFF  00,2F0
....................    delay_ms(10); 
02240:  MOVLW  0A
02242:  MOVLB  4
02244:  MOVWF  x54
02246:  MOVLB  0
02248:  RCALL  1A84
....................    Integral=read_eeprom(26); 
0224A:  MOVFF  FF2,43F
0224E:  BCF    FF2.6
02250:  BCF    FF2.7
02252:  CLRF   FAA
02254:  MOVLW  1A
02256:  MOVWF  FA9
02258:  BCF    FA6.6
0225A:  BCF    FA6.7
0225C:  BSF    FA6.0
0225E:  MOVF   FA8,W
02260:  MOVLB  4
02262:  BTFSC  x3F.6
02264:  BSF    FF2.6
02266:  BTFSC  x3F.7
02268:  BSF    FF2.7
0226A:  MOVLB  3
0226C:  MOVWF  x3C
....................    delay_ms(10); 
0226E:  MOVLW  0A
02270:  MOVLB  4
02272:  MOVWF  x54
02274:  MOVLB  0
02276:  RCALL  1A84
....................    Derivativo=read_eeprom(27); 
02278:  MOVFF  FF2,43F
0227C:  BCF    FF2.6
0227E:  BCF    FF2.7
02280:  CLRF   FAA
02282:  MOVLW  1B
02284:  MOVWF  FA9
02286:  BCF    FA6.6
02288:  BCF    FA6.7
0228A:  BSF    FA6.0
0228C:  MOVF   FA8,W
0228E:  MOVLB  4
02290:  BTFSC  x3F.6
02292:  BSF    FF2.6
02294:  BTFSC  x3F.7
02296:  BSF    FF2.7
02298:  MOVLB  3
0229A:  MOVWF  x3D
....................    delay_ms(10); 
0229C:  MOVLW  0A
0229E:  MOVLB  4
022A0:  MOVWF  x54
022A2:  MOVLB  0
022A4:  CALL   1A84
....................    Temporal=read_eeprom(29); 
022A8:  MOVFF  FF2,43F
022AC:  BCF    FF2.6
022AE:  BCF    FF2.7
022B0:  CLRF   FAA
022B2:  MOVLW  1D
022B4:  MOVWF  FA9
022B6:  BCF    FA6.6
022B8:  BCF    FA6.7
022BA:  BSF    FA6.0
022BC:  MOVF   FA8,W
022BE:  MOVLB  4
022C0:  BTFSC  x3F.6
022C2:  BSF    FF2.6
022C4:  BTFSC  x3F.7
022C6:  BSF    FF2.7
022C8:  CLRF   x55
022CA:  MOVWF  x54
022CC:  MOVLB  0
022CE:  CALL   1AAC
022D2:  MOVFF  03,2AE
022D6:  MOVFF  02,2AD
022DA:  MOVFF  01,2AC
022DE:  MOVFF  00,2AB
....................    Temporal=Temporal/10.0; 
022E2:  MOVFF  2AE,44B
022E6:  MOVFF  2AD,44A
022EA:  MOVFF  2AC,449
022EE:  MOVFF  2AB,448
022F2:  MOVLB  4
022F4:  CLRF   x4F
022F6:  CLRF   x4E
022F8:  MOVLW  20
022FA:  MOVWF  x4D
022FC:  MOVLW  82
022FE:  MOVWF  x4C
02300:  MOVLB  0
02302:  CALL   1AE2
02306:  MOVFF  03,2AE
0230A:  MOVFF  02,2AD
0230E:  MOVFF  01,2AC
02312:  MOVFF  00,2AB
....................    delay_ms(10); 
02316:  MOVLW  0A
02318:  MOVLB  4
0231A:  MOVWF  x54
0231C:  MOVLB  0
0231E:  CALL   1A84
....................    Gain=read_eeprom(28)+Temporal; 
02322:  MOVFF  FF2,43F
02326:  BCF    FF2.6
02328:  BCF    FF2.7
0232A:  CLRF   FAA
0232C:  MOVLW  1C
0232E:  MOVWF  FA9
02330:  BCF    FA6.6
02332:  BCF    FA6.7
02334:  BSF    FA6.0
02336:  MOVF   FA8,W
02338:  MOVLB  4
0233A:  BTFSC  x3F.6
0233C:  BSF    FF2.6
0233E:  BTFSC  x3F.7
02340:  BSF    FF2.7
02342:  CLRF   x55
02344:  MOVWF  x54
02346:  MOVLB  0
02348:  CALL   1AAC
0234C:  BCF    FD8.1
0234E:  MOVFF  03,457
02352:  MOVFF  02,456
02356:  MOVFF  01,455
0235A:  MOVFF  00,454
0235E:  MOVFF  2AE,45B
02362:  MOVFF  2AD,45A
02366:  MOVFF  2AC,459
0236A:  MOVFF  2AB,458
0236E:  RCALL  1C40
02370:  MOVFF  03,2A6
02374:  MOVFF  02,2A5
02378:  MOVFF  01,2A4
0237C:  MOVFF  00,2A3
....................    delay_ms(10); 
02380:  MOVLW  0A
02382:  MOVLB  4
02384:  MOVWF  x54
02386:  MOVLB  0
02388:  CALL   1A84
....................    R1=make16(read_eeprom(31),read_eeprom(30)); 
0238C:  MOVFF  FF2,43F
02390:  BCF    FF2.6
02392:  BCF    FF2.7
02394:  CLRF   FAA
02396:  MOVLW  1F
02398:  MOVWF  FA9
0239A:  BCF    FA6.6
0239C:  BCF    FA6.7
0239E:  BSF    FA6.0
023A0:  MOVF   FA8,W
023A2:  MOVLB  4
023A4:  BTFSC  x3F.6
023A6:  BSF    FF2.6
023A8:  BTFSC  x3F.7
023AA:  BSF    FF2.7
023AC:  MOVWF  x40
023AE:  MOVFF  FF2,441
023B2:  BCF    FF2.6
023B4:  BCF    FF2.7
023B6:  CLRF   FAA
023B8:  MOVLW  1E
023BA:  MOVWF  FA9
023BC:  BCF    FA6.6
023BE:  BCF    FA6.7
023C0:  BSF    FA6.0
023C2:  MOVF   FA8,W
023C4:  BTFSC  x41.6
023C6:  BSF    FF2.6
023C8:  BTFSC  x41.7
023CA:  BSF    FF2.7
023CC:  MOVWF  x42
023CE:  MOVFF  440,03
023D2:  MOVF   x42,W
023D4:  MOVWF  x54
023D6:  MOVFF  03,455
023DA:  MOVLB  0
023DC:  CALL   1AAC
023E0:  MOVFF  03,2B2
023E4:  MOVFF  02,2B1
023E8:  MOVFF  01,2B0
023EC:  MOVFF  00,2AF
....................    delay_ms(10); 
023F0:  MOVLW  0A
023F2:  MOVLB  4
023F4:  MOVWF  x54
023F6:  MOVLB  0
023F8:  CALL   1A84
....................    Temporal=read_eeprom(33); 
023FC:  MOVFF  FF2,43F
02400:  BCF    FF2.6
02402:  BCF    FF2.7
02404:  CLRF   FAA
02406:  MOVLW  21
02408:  MOVWF  FA9
0240A:  BCF    FA6.6
0240C:  BCF    FA6.7
0240E:  BSF    FA6.0
02410:  MOVF   FA8,W
02412:  MOVLB  4
02414:  BTFSC  x3F.6
02416:  BSF    FF2.6
02418:  BTFSC  x3F.7
0241A:  BSF    FF2.7
0241C:  CLRF   x55
0241E:  MOVWF  x54
02420:  MOVLB  0
02422:  CALL   1AAC
02426:  MOVFF  03,2AE
0242A:  MOVFF  02,2AD
0242E:  MOVFF  01,2AC
02432:  MOVFF  00,2AB
....................    Temporal=Temporal/10.0; 
02436:  MOVFF  2AE,44B
0243A:  MOVFF  2AD,44A
0243E:  MOVFF  2AC,449
02442:  MOVFF  2AB,448
02446:  MOVLB  4
02448:  CLRF   x4F
0244A:  CLRF   x4E
0244C:  MOVLW  20
0244E:  MOVWF  x4D
02450:  MOVLW  82
02452:  MOVWF  x4C
02454:  MOVLB  0
02456:  CALL   1AE2
0245A:  MOVFF  03,2AE
0245E:  MOVFF  02,2AD
02462:  MOVFF  01,2AC
02466:  MOVFF  00,2AB
....................    delay_ms(10); 
0246A:  MOVLW  0A
0246C:  MOVLB  4
0246E:  MOVWF  x54
02470:  MOVLB  0
02472:  CALL   1A84
....................    RPT100=read_eeprom(32)+Temporal; 
02476:  MOVFF  FF2,43F
0247A:  BCF    FF2.6
0247C:  BCF    FF2.7
0247E:  CLRF   FAA
02480:  MOVLW  20
02482:  MOVWF  FA9
02484:  BCF    FA6.6
02486:  BCF    FA6.7
02488:  BSF    FA6.0
0248A:  MOVF   FA8,W
0248C:  MOVLB  4
0248E:  BTFSC  x3F.6
02490:  BSF    FF2.6
02492:  BTFSC  x3F.7
02494:  BSF    FF2.7
02496:  CLRF   x55
02498:  MOVWF  x54
0249A:  MOVLB  0
0249C:  CALL   1AAC
024A0:  BCF    FD8.1
024A2:  MOVFF  03,457
024A6:  MOVFF  02,456
024AA:  MOVFF  01,455
024AE:  MOVFF  00,454
024B2:  MOVFF  2AE,45B
024B6:  MOVFF  2AD,45A
024BA:  MOVFF  2AC,459
024BE:  MOVFF  2AB,458
024C2:  CALL   1C40
024C6:  MOVFF  03,2AA
024CA:  MOVFF  02,2A9
024CE:  MOVFF  01,2A8
024D2:  MOVFF  00,2A7
....................    delay_ms(10); 
024D6:  MOVLW  0A
024D8:  MOVLB  4
024DA:  MOVWF  x54
024DC:  MOVLB  0
024DE:  CALL   1A84
....................    CiclosL=read_eeprom(37); 
024E2:  MOVFF  FF2,43F
024E6:  BCF    FF2.6
024E8:  BCF    FF2.7
024EA:  CLRF   FAA
024EC:  MOVLW  25
024EE:  MOVWF  FA9
024F0:  BCF    FA6.6
024F2:  BCF    FA6.7
024F4:  BSF    FA6.0
024F6:  MOVF   FA8,W
024F8:  MOVLB  4
024FA:  BTFSC  x3F.6
024FC:  BSF    FF2.6
024FE:  BTFSC  x3F.7
02500:  BSF    FF2.7
02502:  MOVLB  3
02504:  MOVWF  x62
....................    delay_ms(10); 
02506:  MOVLW  0A
02508:  MOVLB  4
0250A:  MOVWF  x54
0250C:  MOVLB  0
0250E:  CALL   1A84
....................    CiclosH=read_eeprom(38); 
02512:  MOVFF  FF2,43F
02516:  BCF    FF2.6
02518:  BCF    FF2.7
0251A:  CLRF   FAA
0251C:  MOVLW  26
0251E:  MOVWF  FA9
02520:  BCF    FA6.6
02522:  BCF    FA6.7
02524:  BSF    FA6.0
02526:  MOVF   FA8,W
02528:  MOVLB  4
0252A:  BTFSC  x3F.6
0252C:  BSF    FF2.6
0252E:  BTFSC  x3F.7
02530:  BSF    FF2.7
02532:  MOVLB  3
02534:  MOVWF  x63
....................    delay_ms(10); 
02536:  MOVLW  0A
02538:  MOVLB  4
0253A:  MOVWF  x54
0253C:  MOVLB  0
0253E:  CALL   1A84
....................    Ciclos=make16(CiclosH,CiclosL); 
02542:  MOVFF  363,37C
02546:  MOVFF  362,37B
....................    delay_ms(10); 
0254A:  MOVLW  0A
0254C:  MOVLB  4
0254E:  MOVWF  x54
02550:  MOVLB  0
02552:  CALL   1A84
....................    TTrampa=read_eeprom(39); 
02556:  MOVFF  FF2,43F
0255A:  BCF    FF2.6
0255C:  BCF    FF2.7
0255E:  CLRF   FAA
02560:  MOVLW  27
02562:  MOVWF  FA9
02564:  BCF    FA6.6
02566:  BCF    FA6.7
02568:  BSF    FA6.0
0256A:  MOVF   FA8,W
0256C:  MOVLB  4
0256E:  BTFSC  x3F.6
02570:  BSF    FF2.6
02572:  BTFSC  x3F.7
02574:  BSF    FF2.7
02576:  MOVLB  2
02578:  MOVWF  xDC
....................    delay_ms(10); 
0257A:  MOVLW  0A
0257C:  MOVLB  4
0257E:  MOVWF  x54
02580:  MOVLB  0
02582:  CALL   1A84
....................    ActivaImpresion=read_eeprom(40); 
02586:  MOVFF  FF2,43F
0258A:  BCF    FF2.6
0258C:  BCF    FF2.7
0258E:  CLRF   FAA
02590:  MOVLW  28
02592:  MOVWF  FA9
02594:  BCF    FA6.6
02596:  BCF    FA6.7
02598:  BSF    FA6.0
0259A:  MOVF   FA8,W
0259C:  MOVLB  4
0259E:  BTFSC  x3F.6
025A0:  BSF    FF2.6
025A2:  BTFSC  x3F.7
025A4:  BSF    FF2.7
025A6:  MOVLB  3
025A8:  MOVWF  x57
....................    delay_ms(10); 
025AA:  MOVLW  0A
025AC:  MOVLB  4
025AE:  MOVWF  x54
025B0:  MOVLB  0
025B2:  CALL   1A84
....................    timpresion=read_eeprom(41); 
025B6:  MOVFF  FF2,43F
025BA:  BCF    FF2.6
025BC:  BCF    FF2.7
025BE:  CLRF   FAA
025C0:  MOVLW  29
025C2:  MOVWF  FA9
025C4:  BCF    FA6.6
025C6:  BCF    FA6.7
025C8:  BSF    FA6.0
025CA:  MOVF   FA8,W
025CC:  MOVLB  4
025CE:  BTFSC  x3F.6
025D0:  BSF    FF2.6
025D2:  BTFSC  x3F.7
025D4:  BSF    FF2.7
025D6:  MOVLB  3
025D8:  MOVWF  x58
....................    delay_ms(10); 
025DA:  MOVLW  0A
025DC:  MOVLB  4
025DE:  MOVWF  x54
025E0:  MOVLB  0
025E2:  CALL   1A84
....................    G1=read_eeprom(42); 
025E6:  MOVFF  FF2,43F
025EA:  BCF    FF2.6
025EC:  BCF    FF2.7
025EE:  CLRF   FAA
025F0:  MOVLW  2A
025F2:  MOVWF  FA9
025F4:  BCF    FA6.6
025F6:  BCF    FA6.7
025F8:  BSF    FA6.0
025FA:  MOVF   FA8,W
025FC:  MOVLB  4
025FE:  BTFSC  x3F.6
02600:  BSF    FF2.6
02602:  BTFSC  x3F.7
02604:  BSF    FF2.7
02606:  MOVLB  3
02608:  MOVWF  xAF
....................    delay_ms(10); 
0260A:  MOVLW  0A
0260C:  MOVLB  4
0260E:  MOVWF  x54
02610:  MOVLB  0
02612:  CALL   1A84
....................    G2=read_eeprom(43); 
02616:  MOVFF  FF2,43F
0261A:  BCF    FF2.6
0261C:  BCF    FF2.7
0261E:  CLRF   FAA
02620:  MOVLW  2B
02622:  MOVWF  FA9
02624:  BCF    FA6.6
02626:  BCF    FA6.7
02628:  BSF    FA6.0
0262A:  MOVF   FA8,W
0262C:  MOVLB  4
0262E:  BTFSC  x3F.6
02630:  BSF    FF2.6
02632:  BTFSC  x3F.7
02634:  BSF    FF2.7
02636:  MOVLB  3
02638:  MOVWF  xB0
....................    delay_ms(10); 
0263A:  MOVLW  0A
0263C:  MOVLB  4
0263E:  MOVWF  x54
02640:  MOVLB  0
02642:  CALL   1A84
....................    sg1=read_eeprom(44); 
02646:  MOVFF  FF2,43F
0264A:  BCF    FF2.6
0264C:  BCF    FF2.7
0264E:  CLRF   FAA
02650:  MOVLW  2C
02652:  MOVWF  FA9
02654:  BCF    FA6.6
02656:  BCF    FA6.7
02658:  BSF    FA6.0
0265A:  MOVF   FA8,W
0265C:  MOVLB  4
0265E:  BTFSC  x3F.6
02660:  BSF    FF2.6
02662:  BTFSC  x3F.7
02664:  BSF    FF2.7
02666:  MOVLB  3
02668:  MOVWF  xB1
....................    delay_ms(10); 
0266A:  MOVLW  0A
0266C:  MOVLB  4
0266E:  MOVWF  x54
02670:  MOVLB  0
02672:  CALL   1A84
....................    sg2=read_eeprom(45); 
02676:  MOVFF  FF2,43F
0267A:  BCF    FF2.6
0267C:  BCF    FF2.7
0267E:  CLRF   FAA
02680:  MOVLW  2D
02682:  MOVWF  FA9
02684:  BCF    FA6.6
02686:  BCF    FA6.7
02688:  BSF    FA6.0
0268A:  MOVF   FA8,W
0268C:  MOVLB  4
0268E:  BTFSC  x3F.6
02690:  BSF    FF2.6
02692:  BTFSC  x3F.7
02694:  BSF    FF2.7
02696:  MOVLB  3
02698:  MOVWF  xB2
....................    delay_ms(10); 
0269A:  MOVLW  0A
0269C:  MOVLB  4
0269E:  MOVWF  x54
026A0:  MOVLB  0
026A2:  CALL   1A84
....................    Atmosferica=read_eeprom(46); 
026A6:  MOVFF  FF2,43F
026AA:  BCF    FF2.6
026AC:  BCF    FF2.7
026AE:  CLRF   FAA
026B0:  MOVLW  2E
026B2:  MOVWF  FA9
026B4:  BCF    FA6.6
026B6:  BCF    FA6.7
026B8:  BSF    FA6.0
026BA:  MOVF   FA8,W
026BC:  MOVLB  4
026BE:  BTFSC  x3F.6
026C0:  BSF    FF2.6
026C2:  BTFSC  x3F.7
026C4:  BSF    FF2.7
026C6:  MOVLB  3
026C8:  MOVWF  xAE
....................     
....................    for(i=0;i<4;i++){//Lee valores almacenados de ciclos personalizados 
026CA:  CLRF   x61
026CC:  MOVF   x61,W
026CE:  SUBLW  03
026D0:  BTFSS  FD8.0
026D2:  BRA    2C9C
....................       CiclosPersonalizados[i].Temperatura=read_eeprom(100+(i*8));  
026D4:  MOVF   x61,W
026D6:  MULLW  0A
026D8:  MOVF   FF3,W
026DA:  MOVLB  4
026DC:  CLRF   x40
026DE:  MOVWF  x3F
026E0:  MOVLW  17
026E2:  ADDWF  x3F,W
026E4:  MOVWF  FE9
026E6:  MOVLW  04
026E8:  ADDWFC x40,W
026EA:  MOVWF  FEA
026EC:  MOVLB  3
026EE:  MOVF   x61,W
026F0:  MULLW  08
026F2:  MOVF   FF3,W
026F4:  ADDLW  64
026F6:  MOVLB  4
026F8:  MOVWF  x41
026FA:  MOVFF  FF2,442
026FE:  BCF    FF2.6
02700:  BCF    FF2.7
02702:  CLRF   FAA
02704:  MOVFF  441,FA9
02708:  BCF    FA6.6
0270A:  BCF    FA6.7
0270C:  BSF    FA6.0
0270E:  MOVF   FA8,W
02710:  BTFSC  x42.6
02712:  BSF    FF2.6
02714:  BTFSC  x42.7
02716:  BSF    FF2.7
02718:  MOVWF  FEF
....................       CiclosPersonalizados[i].MinutoestH=read_eeprom(101+(i*8));  
0271A:  MOVLB  3
0271C:  MOVF   x61,W
0271E:  MULLW  0A
02720:  MOVF   FF3,W
02722:  MOVLB  4
02724:  CLRF   x40
02726:  MOVWF  x3F
02728:  MOVLW  01
0272A:  ADDWF  x3F,W
0272C:  MOVWF  01
0272E:  MOVLW  00
02730:  ADDWFC x40,W
02732:  MOVWF  03
02734:  MOVF   01,W
02736:  ADDLW  17
02738:  MOVWF  FE9
0273A:  MOVLW  04
0273C:  ADDWFC 03,W
0273E:  MOVWF  FEA
02740:  MOVLB  3
02742:  MOVF   x61,W
02744:  MULLW  08
02746:  MOVF   FF3,W
02748:  ADDLW  65
0274A:  MOVLB  4
0274C:  MOVWF  x41
0274E:  MOVFF  FF2,442
02752:  BCF    FF2.6
02754:  BCF    FF2.7
02756:  CLRF   FAA
02758:  MOVFF  441,FA9
0275C:  BCF    FA6.6
0275E:  BCF    FA6.7
02760:  BSF    FA6.0
02762:  MOVF   FA8,W
02764:  BTFSC  x42.6
02766:  BSF    FF2.6
02768:  BTFSC  x42.7
0276A:  BSF    FF2.7
0276C:  MOVWF  FEF
....................       CiclosPersonalizados[i].Minutoest=read_eeprom(102+(i*8));  
0276E:  MOVLB  3
02770:  MOVF   x61,W
02772:  MULLW  0A
02774:  MOVF   FF3,W
02776:  MOVLB  4
02778:  CLRF   x40
0277A:  MOVWF  x3F
0277C:  MOVLW  09
0277E:  ADDWF  x3F,W
02780:  MOVWF  01
02782:  MOVLW  00
02784:  ADDWFC x40,W
02786:  MOVWF  03
02788:  MOVF   01,W
0278A:  ADDLW  17
0278C:  MOVWF  FE9
0278E:  MOVLW  04
02790:  ADDWFC 03,W
02792:  MOVWF  FEA
02794:  MOVLB  3
02796:  MOVF   x61,W
02798:  MULLW  08
0279A:  MOVF   FF3,W
0279C:  ADDLW  66
0279E:  MOVLB  4
027A0:  MOVWF  x41
027A2:  MOVFF  FF2,442
027A6:  BCF    FF2.6
027A8:  BCF    FF2.7
027AA:  CLRF   FAA
027AC:  MOVFF  441,FA9
027B0:  BCF    FA6.6
027B2:  BCF    FA6.7
027B4:  BSF    FA6.0
027B6:  MOVF   FA8,W
027B8:  BTFSC  x42.6
027BA:  BSF    FF2.6
027BC:  BTFSC  x42.7
027BE:  BSF    FF2.7
027C0:  MOVWF  FEF
....................       CiclosPersonalizados[i].Segundoest=read_eeprom(103+(i*8));  
027C2:  MOVLB  3
027C4:  MOVF   x61,W
027C6:  MULLW  0A
027C8:  MOVF   FF3,W
027CA:  MOVLB  4
027CC:  CLRF   x40
027CE:  MOVWF  x3F
027D0:  MOVLW  03
027D2:  ADDWF  x3F,W
027D4:  MOVWF  01
027D6:  MOVLW  00
027D8:  ADDWFC x40,W
027DA:  MOVWF  03
027DC:  MOVF   01,W
027DE:  ADDLW  17
027E0:  MOVWF  FE9
027E2:  MOVLW  04
027E4:  ADDWFC 03,W
027E6:  MOVWF  FEA
027E8:  MOVLB  3
027EA:  MOVF   x61,W
027EC:  MULLW  08
027EE:  MOVF   FF3,W
027F0:  ADDLW  67
027F2:  MOVLB  4
027F4:  MOVWF  x41
027F6:  MOVFF  FF2,442
027FA:  BCF    FF2.6
027FC:  BCF    FF2.7
027FE:  CLRF   FAA
02800:  MOVFF  441,FA9
02804:  BCF    FA6.6
02806:  BCF    FA6.7
02808:  BSF    FA6.0
0280A:  MOVF   FA8,W
0280C:  BTFSC  x42.6
0280E:  BSF    FF2.6
02810:  BTFSC  x42.7
02812:  BSF    FF2.7
02814:  MOVWF  FEF
....................       CiclosPersonalizados[i].Minutosec=read_eeprom(104+(i*8));  
02816:  MOVLB  3
02818:  MOVF   x61,W
0281A:  MULLW  0A
0281C:  MOVF   FF3,W
0281E:  MOVLB  4
02820:  CLRF   x40
02822:  MOVWF  x3F
02824:  MOVLW  04
02826:  ADDWF  x3F,W
02828:  MOVWF  01
0282A:  MOVLW  00
0282C:  ADDWFC x40,W
0282E:  MOVWF  03
02830:  MOVF   01,W
02832:  ADDLW  17
02834:  MOVWF  FE9
02836:  MOVLW  04
02838:  ADDWFC 03,W
0283A:  MOVWF  FEA
0283C:  MOVLB  3
0283E:  MOVF   x61,W
02840:  MULLW  08
02842:  MOVF   FF3,W
02844:  ADDLW  68
02846:  MOVLB  4
02848:  MOVWF  x41
0284A:  MOVFF  FF2,442
0284E:  BCF    FF2.6
02850:  BCF    FF2.7
02852:  CLRF   FAA
02854:  MOVFF  441,FA9
02858:  BCF    FA6.6
0285A:  BCF    FA6.7
0285C:  BSF    FA6.0
0285E:  MOVF   FA8,W
02860:  BTFSC  x42.6
02862:  BSF    FF2.6
02864:  BTFSC  x42.7
02866:  BSF    FF2.7
02868:  MOVWF  FEF
....................       CiclosPersonalizados[i].Segundosec=read_eeprom(105+(i*8));  
0286A:  MOVLB  3
0286C:  MOVF   x61,W
0286E:  MULLW  0A
02870:  MOVF   FF3,W
02872:  MOVLB  4
02874:  CLRF   x40
02876:  MOVWF  x3F
02878:  MOVLW  05
0287A:  ADDWF  x3F,W
0287C:  MOVWF  01
0287E:  MOVLW  00
02880:  ADDWFC x40,W
02882:  MOVWF  03
02884:  MOVF   01,W
02886:  ADDLW  17
02888:  MOVWF  FE9
0288A:  MOVLW  04
0288C:  ADDWFC 03,W
0288E:  MOVWF  FEA
02890:  MOVLB  3
02892:  MOVF   x61,W
02894:  MULLW  08
02896:  MOVF   FF3,W
02898:  ADDLW  69
0289A:  MOVLB  4
0289C:  MOVWF  x41
0289E:  MOVFF  FF2,442
028A2:  BCF    FF2.6
028A4:  BCF    FF2.7
028A6:  CLRF   FAA
028A8:  MOVFF  441,FA9
028AC:  BCF    FA6.6
028AE:  BCF    FA6.7
028B0:  BSF    FA6.0
028B2:  MOVF   FA8,W
028B4:  BTFSC  x42.6
028B6:  BSF    FF2.6
028B8:  BTFSC  x42.7
028BA:  BSF    FF2.7
028BC:  MOVWF  FEF
....................       CiclosPersonalizados[i].PulsosVacio=read_eeprom(106+(i*8));  
028BE:  MOVLB  3
028C0:  MOVF   x61,W
028C2:  MULLW  0A
028C4:  MOVF   FF3,W
028C6:  MOVLB  4
028C8:  CLRF   x40
028CA:  MOVWF  x3F
028CC:  MOVLW  06
028CE:  ADDWF  x3F,W
028D0:  MOVWF  01
028D2:  MOVLW  00
028D4:  ADDWFC x40,W
028D6:  MOVWF  03
028D8:  MOVF   01,W
028DA:  ADDLW  17
028DC:  MOVWF  FE9
028DE:  MOVLW  04
028E0:  ADDWFC 03,W
028E2:  MOVWF  FEA
028E4:  MOVLB  3
028E6:  MOVF   x61,W
028E8:  MULLW  08
028EA:  MOVF   FF3,W
028EC:  ADDLW  6A
028EE:  MOVLB  4
028F0:  MOVWF  x41
028F2:  MOVFF  FF2,442
028F6:  BCF    FF2.6
028F8:  BCF    FF2.7
028FA:  CLRF   FAA
028FC:  MOVFF  441,FA9
02900:  BCF    FA6.6
02902:  BCF    FA6.7
02904:  BSF    FA6.0
02906:  MOVF   FA8,W
02908:  BTFSC  x42.6
0290A:  BSF    FF2.6
0290C:  BTFSC  x42.7
0290E:  BSF    FF2.7
02910:  MOVWF  FEF
....................       CiclosPersonalizados[i].NivelDesfogue=read_eeprom(107+(i*8));  
02912:  MOVLB  3
02914:  MOVF   x61,W
02916:  MULLW  0A
02918:  MOVF   FF3,W
0291A:  MOVLB  4
0291C:  CLRF   x40
0291E:  MOVWF  x3F
02920:  MOVLW  08
02922:  ADDWF  x3F,W
02924:  MOVWF  01
02926:  MOVLW  00
02928:  ADDWFC x40,W
0292A:  MOVWF  03
0292C:  MOVF   01,W
0292E:  ADDLW  17
02930:  MOVWF  FE9
02932:  MOVLW  04
02934:  ADDWFC 03,W
02936:  MOVWF  FEA
02938:  MOVLB  3
0293A:  MOVF   x61,W
0293C:  MULLW  08
0293E:  MOVF   FF3,W
02940:  ADDLW  6B
02942:  MOVLB  4
02944:  MOVWF  x41
02946:  MOVFF  FF2,442
0294A:  BCF    FF2.6
0294C:  BCF    FF2.7
0294E:  CLRF   FAA
02950:  MOVFF  441,FA9
02954:  BCF    FA6.6
02956:  BCF    FA6.7
02958:  BSF    FA6.0
0295A:  MOVF   FA8,W
0295C:  BTFSC  x42.6
0295E:  BSF    FF2.6
02960:  BTFSC  x42.7
02962:  BSF    FF2.7
02964:  MOVWF  FEF
....................        
....................       if(CiclosPersonalizados[i].Temperatura>134 || CiclosPersonalizados[i].Temperatura<105) 
02966:  MOVLB  3
02968:  MOVF   x61,W
0296A:  MULLW  0A
0296C:  MOVF   FF3,W
0296E:  MOVLB  4
02970:  CLRF   x40
02972:  MOVWF  x3F
02974:  MOVLW  17
02976:  ADDWF  x3F,W
02978:  MOVWF  FE9
0297A:  MOVLW  04
0297C:  ADDWFC x40,W
0297E:  MOVWF  FEA
02980:  MOVF   FEF,W
02982:  SUBLW  86
02984:  BNC   29A6
02986:  MOVLB  3
02988:  MOVF   x61,W
0298A:  MULLW  0A
0298C:  MOVF   FF3,W
0298E:  MOVLB  4
02990:  CLRF   x40
02992:  MOVWF  x3F
02994:  MOVLW  17
02996:  ADDWF  x3F,W
02998:  MOVWF  FE9
0299A:  MOVLW  04
0299C:  ADDWFC x40,W
0299E:  MOVWF  FEA
029A0:  MOVF   FEF,W
029A2:  SUBLW  68
029A4:  BNC   29C4
....................          CiclosPersonalizados[i].Temperatura=121; 
029A6:  MOVLB  3
029A8:  MOVF   x61,W
029AA:  MULLW  0A
029AC:  MOVF   FF3,W
029AE:  MOVLB  4
029B0:  CLRF   x40
029B2:  MOVWF  x3F
029B4:  MOVLW  17
029B6:  ADDWF  x3F,W
029B8:  MOVWF  FE9
029BA:  MOVLW  04
029BC:  ADDWFC x40,W
029BE:  MOVWF  FEA
029C0:  MOVLW  79
029C2:  MOVWF  FEF
....................       if(CiclosPersonalizados[i].Minutoest>59) 
029C4:  MOVLB  3
029C6:  MOVF   x61,W
029C8:  MULLW  0A
029CA:  MOVF   FF3,W
029CC:  MOVLB  4
029CE:  CLRF   x40
029D0:  MOVWF  x3F
029D2:  MOVLW  09
029D4:  ADDWF  x3F,W
029D6:  MOVWF  01
029D8:  MOVLW  00
029DA:  ADDWFC x40,W
029DC:  MOVWF  03
029DE:  MOVF   01,W
029E0:  ADDLW  17
029E2:  MOVWF  FE9
029E4:  MOVLW  04
029E6:  ADDWFC 03,W
029E8:  MOVWF  FEA
029EA:  MOVF   FEF,W
029EC:  SUBLW  3B
029EE:  BC    2A18
....................          CiclosPersonalizados[i].Minutoest=0; 
029F0:  MOVLB  3
029F2:  MOVF   x61,W
029F4:  MULLW  0A
029F6:  MOVF   FF3,W
029F8:  MOVLB  4
029FA:  CLRF   x40
029FC:  MOVWF  x3F
029FE:  MOVLW  09
02A00:  ADDWF  x3F,W
02A02:  MOVWF  01
02A04:  MOVLW  00
02A06:  ADDWFC x40,W
02A08:  MOVWF  03
02A0A:  MOVF   01,W
02A0C:  ADDLW  17
02A0E:  MOVWF  FE9
02A10:  MOVLW  04
02A12:  ADDWFC 03,W
02A14:  MOVWF  FEA
02A16:  CLRF   FEF
....................       if(CiclosPersonalizados[i].Segundoest>59) 
02A18:  MOVLB  3
02A1A:  MOVF   x61,W
02A1C:  MULLW  0A
02A1E:  MOVF   FF3,W
02A20:  MOVLB  4
02A22:  CLRF   x40
02A24:  MOVWF  x3F
02A26:  MOVLW  03
02A28:  ADDWF  x3F,W
02A2A:  MOVWF  01
02A2C:  MOVLW  00
02A2E:  ADDWFC x40,W
02A30:  MOVWF  03
02A32:  MOVF   01,W
02A34:  ADDLW  17
02A36:  MOVWF  FE9
02A38:  MOVLW  04
02A3A:  ADDWFC 03,W
02A3C:  MOVWF  FEA
02A3E:  MOVF   FEF,W
02A40:  SUBLW  3B
02A42:  BC    2A6C
....................          CiclosPersonalizados[i].Segundoest=0; 
02A44:  MOVLB  3
02A46:  MOVF   x61,W
02A48:  MULLW  0A
02A4A:  MOVF   FF3,W
02A4C:  MOVLB  4
02A4E:  CLRF   x40
02A50:  MOVWF  x3F
02A52:  MOVLW  03
02A54:  ADDWF  x3F,W
02A56:  MOVWF  01
02A58:  MOVLW  00
02A5A:  ADDWFC x40,W
02A5C:  MOVWF  03
02A5E:  MOVF   01,W
02A60:  ADDLW  17
02A62:  MOVWF  FE9
02A64:  MOVLW  04
02A66:  ADDWFC 03,W
02A68:  MOVWF  FEA
02A6A:  CLRF   FEF
....................       if(CiclosPersonalizados[i].Minutosec>59) 
02A6C:  MOVLB  3
02A6E:  MOVF   x61,W
02A70:  MULLW  0A
02A72:  MOVF   FF3,W
02A74:  MOVLB  4
02A76:  CLRF   x40
02A78:  MOVWF  x3F
02A7A:  MOVLW  04
02A7C:  ADDWF  x3F,W
02A7E:  MOVWF  01
02A80:  MOVLW  00
02A82:  ADDWFC x40,W
02A84:  MOVWF  03
02A86:  MOVF   01,W
02A88:  ADDLW  17
02A8A:  MOVWF  FE9
02A8C:  MOVLW  04
02A8E:  ADDWFC 03,W
02A90:  MOVWF  FEA
02A92:  MOVF   FEF,W
02A94:  SUBLW  3B
02A96:  BC    2AC0
....................          CiclosPersonalizados[i].Minutosec=0;    
02A98:  MOVLB  3
02A9A:  MOVF   x61,W
02A9C:  MULLW  0A
02A9E:  MOVF   FF3,W
02AA0:  MOVLB  4
02AA2:  CLRF   x40
02AA4:  MOVWF  x3F
02AA6:  MOVLW  04
02AA8:  ADDWF  x3F,W
02AAA:  MOVWF  01
02AAC:  MOVLW  00
02AAE:  ADDWFC x40,W
02AB0:  MOVWF  03
02AB2:  MOVF   01,W
02AB4:  ADDLW  17
02AB6:  MOVWF  FE9
02AB8:  MOVLW  04
02ABA:  ADDWFC 03,W
02ABC:  MOVWF  FEA
02ABE:  CLRF   FEF
....................       if(CiclosPersonalizados[i].Segundoest>59) 
02AC0:  MOVLB  3
02AC2:  MOVF   x61,W
02AC4:  MULLW  0A
02AC6:  MOVF   FF3,W
02AC8:  MOVLB  4
02ACA:  CLRF   x40
02ACC:  MOVWF  x3F
02ACE:  MOVLW  03
02AD0:  ADDWF  x3F,W
02AD2:  MOVWF  01
02AD4:  MOVLW  00
02AD6:  ADDWFC x40,W
02AD8:  MOVWF  03
02ADA:  MOVF   01,W
02ADC:  ADDLW  17
02ADE:  MOVWF  FE9
02AE0:  MOVLW  04
02AE2:  ADDWFC 03,W
02AE4:  MOVWF  FEA
02AE6:  MOVF   FEF,W
02AE8:  SUBLW  3B
02AEA:  BC    2B14
....................          CiclosPersonalizados[i].Segundoest=0; 
02AEC:  MOVLB  3
02AEE:  MOVF   x61,W
02AF0:  MULLW  0A
02AF2:  MOVF   FF3,W
02AF4:  MOVLB  4
02AF6:  CLRF   x40
02AF8:  MOVWF  x3F
02AFA:  MOVLW  03
02AFC:  ADDWF  x3F,W
02AFE:  MOVWF  01
02B00:  MOVLW  00
02B02:  ADDWFC x40,W
02B04:  MOVWF  03
02B06:  MOVF   01,W
02B08:  ADDLW  17
02B0A:  MOVWF  FE9
02B0C:  MOVLW  04
02B0E:  ADDWFC 03,W
02B10:  MOVWF  FEA
02B12:  CLRF   FEF
....................       if(CiclosPersonalizados[i].Segundosec>59) 
02B14:  MOVLB  3
02B16:  MOVF   x61,W
02B18:  MULLW  0A
02B1A:  MOVF   FF3,W
02B1C:  MOVLB  4
02B1E:  CLRF   x40
02B20:  MOVWF  x3F
02B22:  MOVLW  05
02B24:  ADDWF  x3F,W
02B26:  MOVWF  01
02B28:  MOVLW  00
02B2A:  ADDWFC x40,W
02B2C:  MOVWF  03
02B2E:  MOVF   01,W
02B30:  ADDLW  17
02B32:  MOVWF  FE9
02B34:  MOVLW  04
02B36:  ADDWFC 03,W
02B38:  MOVWF  FEA
02B3A:  MOVF   FEF,W
02B3C:  SUBLW  3B
02B3E:  BC    2B68
....................          CiclosPersonalizados[i].Segundosec=0;       
02B40:  MOVLB  3
02B42:  MOVF   x61,W
02B44:  MULLW  0A
02B46:  MOVF   FF3,W
02B48:  MOVLB  4
02B4A:  CLRF   x40
02B4C:  MOVWF  x3F
02B4E:  MOVLW  05
02B50:  ADDWF  x3F,W
02B52:  MOVWF  01
02B54:  MOVLW  00
02B56:  ADDWFC x40,W
02B58:  MOVWF  03
02B5A:  MOVF   01,W
02B5C:  ADDLW  17
02B5E:  MOVWF  FE9
02B60:  MOVLW  04
02B62:  ADDWFC 03,W
02B64:  MOVWF  FEA
02B66:  CLRF   FEF
....................       if(CiclosPersonalizados[i].PulsosVacio>15) 
02B68:  MOVLB  3
02B6A:  MOVF   x61,W
02B6C:  MULLW  0A
02B6E:  MOVF   FF3,W
02B70:  MOVLB  4
02B72:  CLRF   x40
02B74:  MOVWF  x3F
02B76:  MOVLW  06
02B78:  ADDWF  x3F,W
02B7A:  MOVWF  01
02B7C:  MOVLW  00
02B7E:  ADDWFC x40,W
02B80:  MOVWF  03
02B82:  MOVF   01,W
02B84:  ADDLW  17
02B86:  MOVWF  FE9
02B88:  MOVLW  04
02B8A:  ADDWFC 03,W
02B8C:  MOVWF  FEA
02B8E:  MOVF   FEF,W
02B90:  SUBLW  0F
02B92:  BC    2BBE
....................          CiclosPersonalizados[i].PulsosVacio=4; 
02B94:  MOVLB  3
02B96:  MOVF   x61,W
02B98:  MULLW  0A
02B9A:  MOVF   FF3,W
02B9C:  MOVLB  4
02B9E:  CLRF   x40
02BA0:  MOVWF  x3F
02BA2:  MOVLW  06
02BA4:  ADDWF  x3F,W
02BA6:  MOVWF  01
02BA8:  MOVLW  00
02BAA:  ADDWFC x40,W
02BAC:  MOVWF  03
02BAE:  MOVF   01,W
02BB0:  ADDLW  17
02BB2:  MOVWF  FE9
02BB4:  MOVLW  04
02BB6:  ADDWFC 03,W
02BB8:  MOVWF  FEA
02BBA:  MOVLW  04
02BBC:  MOVWF  FEF
....................       if(CiclosPersonalizados[i].NivelVacio>100 || CiclosPersonalizados[i].NivelVacio<10) 
02BBE:  MOVLB  3
02BC0:  MOVF   x61,W
02BC2:  MULLW  0A
02BC4:  MOVF   FF3,W
02BC6:  MOVLB  4
02BC8:  CLRF   x40
02BCA:  MOVWF  x3F
02BCC:  MOVLW  07
02BCE:  ADDWF  x3F,W
02BD0:  MOVWF  01
02BD2:  MOVLW  00
02BD4:  ADDWFC x40,W
02BD6:  MOVWF  03
02BD8:  MOVF   01,W
02BDA:  ADDLW  17
02BDC:  MOVWF  FE9
02BDE:  MOVLW  04
02BE0:  ADDWFC 03,W
02BE2:  MOVWF  FEA
02BE4:  MOVF   FEF,W
02BE6:  SUBLW  64
02BE8:  BNC   2C16
02BEA:  MOVLB  3
02BEC:  MOVF   x61,W
02BEE:  MULLW  0A
02BF0:  MOVF   FF3,W
02BF2:  MOVLB  4
02BF4:  CLRF   x40
02BF6:  MOVWF  x3F
02BF8:  MOVLW  07
02BFA:  ADDWF  x3F,W
02BFC:  MOVWF  01
02BFE:  MOVLW  00
02C00:  ADDWFC x40,W
02C02:  MOVWF  03
02C04:  MOVF   01,W
02C06:  ADDLW  17
02C08:  MOVWF  FE9
02C0A:  MOVLW  04
02C0C:  ADDWFC 03,W
02C0E:  MOVWF  FEA
02C10:  MOVF   FEF,W
02C12:  SUBLW  09
02C14:  BNC   2C40
....................          CiclosPersonalizados[i].NivelVacio=25;    
02C16:  MOVLB  3
02C18:  MOVF   x61,W
02C1A:  MULLW  0A
02C1C:  MOVF   FF3,W
02C1E:  MOVLB  4
02C20:  CLRF   x40
02C22:  MOVWF  x3F
02C24:  MOVLW  07
02C26:  ADDWF  x3F,W
02C28:  MOVWF  01
02C2A:  MOVLW  00
02C2C:  ADDWFC x40,W
02C2E:  MOVWF  03
02C30:  MOVF   01,W
02C32:  ADDLW  17
02C34:  MOVWF  FE9
02C36:  MOVLW  04
02C38:  ADDWFC 03,W
02C3A:  MOVWF  FEA
02C3C:  MOVLW  19
02C3E:  MOVWF  FEF
....................       if(CiclosPersonalizados[i].NivelDesfogue>6) 
02C40:  MOVLB  3
02C42:  MOVF   x61,W
02C44:  MULLW  0A
02C46:  MOVF   FF3,W
02C48:  MOVLB  4
02C4A:  CLRF   x40
02C4C:  MOVWF  x3F
02C4E:  MOVLW  08
02C50:  ADDWF  x3F,W
02C52:  MOVWF  01
02C54:  MOVLW  00
02C56:  ADDWFC x40,W
02C58:  MOVWF  03
02C5A:  MOVF   01,W
02C5C:  ADDLW  17
02C5E:  MOVWF  FE9
02C60:  MOVLW  04
02C62:  ADDWFC 03,W
02C64:  MOVWF  FEA
02C66:  MOVF   FEF,W
02C68:  SUBLW  06
02C6A:  BC    2C96
....................          CiclosPersonalizados[i].NivelDesfogue=6; 
02C6C:  MOVLB  3
02C6E:  MOVF   x61,W
02C70:  MULLW  0A
02C72:  MOVF   FF3,W
02C74:  MOVLB  4
02C76:  CLRF   x40
02C78:  MOVWF  x3F
02C7A:  MOVLW  08
02C7C:  ADDWF  x3F,W
02C7E:  MOVWF  01
02C80:  MOVLW  00
02C82:  ADDWFC x40,W
02C84:  MOVWF  03
02C86:  MOVF   01,W
02C88:  ADDLW  17
02C8A:  MOVWF  FE9
02C8C:  MOVLW  04
02C8E:  ADDWFC 03,W
02C90:  MOVWF  FEA
02C92:  MOVLW  06
02C94:  MOVWF  FEF
....................    } 
02C96:  MOVLB  3
02C98:  INCF   x61,F
02C9A:  BRA    26CC
.................... } 
02C9C:  MOVLB  0
02C9E:  GOTO   769A (RETURN)
....................  
.................... void LimitaValores(){ 
....................    if(Testerilizacionp[0]>9 || Testerilizacionp[0]<0){ 
*
02E50:  BTFSC  xB6.7
02E52:  BRA    2E5A
02E54:  MOVF   xB6,W
02E56:  SUBLW  09
02E58:  BNC   2E60
02E5A:  BTFSC  xB6.7
02E5C:  BRA    2E60
02E5E:  BRA    2E98
....................       Testerilizacionp[0]=0; 
02E60:  CLRF   xB6
....................       write_eeprom(0,0); 
02E62:  CLRF   FAA
02E64:  CLRF   FA9
02E66:  CLRF   FA8
02E68:  BCF    FA6.6
02E6A:  BCF    FA6.7
02E6C:  BSF    FA6.2
02E6E:  MOVF   FF2,W
02E70:  MOVWF  00
02E72:  BCF    FF2.6
02E74:  BCF    FF2.7
02E76:  MOVLB  F
02E78:  MOVLW  55
02E7A:  MOVWF  FA7
02E7C:  MOVLW  AA
02E7E:  MOVWF  FA7
02E80:  BSF    FA6.1
02E82:  BTFSC  FA6.1
02E84:  BRA    2E82
02E86:  BCF    FA6.2
02E88:  MOVF   00,W
02E8A:  IORWF  FF2,F
....................       delay_ms(10); 
02E8C:  MOVLW  0A
02E8E:  MOVLB  4
02E90:  MOVWF  x54
02E92:  MOVLB  0
02E94:  CALL   1A84
....................    } 
....................    if(Testerilizacionp[1]>9 || Testerilizacionp[1]<0){ 
02E98:  BTFSC  xB7.7
02E9A:  BRA    2EA2
02E9C:  MOVF   xB7,W
02E9E:  SUBLW  09
02EA0:  BNC   2EA8
02EA2:  BTFSC  xB7.7
02EA4:  BRA    2EA8
02EA6:  BRA    2EE2
....................       Testerilizacionp[1]=0; 
02EA8:  CLRF   xB7
....................       write_eeprom(1,0); 
02EAA:  CLRF   FAA
02EAC:  MOVLW  01
02EAE:  MOVWF  FA9
02EB0:  CLRF   FA8
02EB2:  BCF    FA6.6
02EB4:  BCF    FA6.7
02EB6:  BSF    FA6.2
02EB8:  MOVF   FF2,W
02EBA:  MOVWF  00
02EBC:  BCF    FF2.6
02EBE:  BCF    FF2.7
02EC0:  MOVLB  F
02EC2:  MOVLW  55
02EC4:  MOVWF  FA7
02EC6:  MOVLW  AA
02EC8:  MOVWF  FA7
02ECA:  BSF    FA6.1
02ECC:  BTFSC  FA6.1
02ECE:  BRA    2ECC
02ED0:  BCF    FA6.2
02ED2:  MOVF   00,W
02ED4:  IORWF  FF2,F
....................       delay_ms(10); 
02ED6:  MOVLW  0A
02ED8:  MOVLB  4
02EDA:  MOVWF  x54
02EDC:  MOVLB  0
02EDE:  CALL   1A84
....................    } 
....................    if(Testerilizacionp[2]>9 || Testerilizacionp[2]<0){ 
02EE2:  BTFSC  xB8.7
02EE4:  BRA    2EEC
02EE6:  MOVF   xB8,W
02EE8:  SUBLW  09
02EEA:  BNC   2EF2
02EEC:  BTFSC  xB8.7
02EEE:  BRA    2EF2
02EF0:  BRA    2F2C
....................       Testerilizacionp[2]=0; 
02EF2:  CLRF   xB8
....................       write_eeprom(2,0); 
02EF4:  CLRF   FAA
02EF6:  MOVLW  02
02EF8:  MOVWF  FA9
02EFA:  CLRF   FA8
02EFC:  BCF    FA6.6
02EFE:  BCF    FA6.7
02F00:  BSF    FA6.2
02F02:  MOVF   FF2,W
02F04:  MOVWF  00
02F06:  BCF    FF2.6
02F08:  BCF    FF2.7
02F0A:  MOVLB  F
02F0C:  MOVLW  55
02F0E:  MOVWF  FA7
02F10:  MOVLW  AA
02F12:  MOVWF  FA7
02F14:  BSF    FA6.1
02F16:  BTFSC  FA6.1
02F18:  BRA    2F16
02F1A:  BCF    FA6.2
02F1C:  MOVF   00,W
02F1E:  IORWF  FF2,F
....................       delay_ms(10); 
02F20:  MOVLW  0A
02F22:  MOVLB  4
02F24:  MOVWF  x54
02F26:  MOVLB  0
02F28:  CALL   1A84
....................    } 
....................    if(Testerilizacionp[3]>9 || Testerilizacionp[3]<0){ 
02F2C:  BTFSC  xB9.7
02F2E:  BRA    2F36
02F30:  MOVF   xB9,W
02F32:  SUBLW  09
02F34:  BNC   2F3C
02F36:  BTFSC  xB9.7
02F38:  BRA    2F3C
02F3A:  BRA    2F76
....................       Testerilizacionp[3]=0; 
02F3C:  CLRF   xB9
....................       write_eeprom(3,0); 
02F3E:  CLRF   FAA
02F40:  MOVLW  03
02F42:  MOVWF  FA9
02F44:  CLRF   FA8
02F46:  BCF    FA6.6
02F48:  BCF    FA6.7
02F4A:  BSF    FA6.2
02F4C:  MOVF   FF2,W
02F4E:  MOVWF  00
02F50:  BCF    FF2.6
02F52:  BCF    FF2.7
02F54:  MOVLB  F
02F56:  MOVLW  55
02F58:  MOVWF  FA7
02F5A:  MOVLW  AA
02F5C:  MOVWF  FA7
02F5E:  BSF    FA6.1
02F60:  BTFSC  FA6.1
02F62:  BRA    2F60
02F64:  BCF    FA6.2
02F66:  MOVF   00,W
02F68:  IORWF  FF2,F
....................       delay_ms(10); 
02F6A:  MOVLW  0A
02F6C:  MOVLB  4
02F6E:  MOVWF  x54
02F70:  MOVLB  0
02F72:  CALL   1A84
....................    } 
....................    if(Tsecadop[0]>9 || Tsecadop[0]<0){ 
02F76:  BTFSC  xBF.7
02F78:  BRA    2F80
02F7A:  MOVF   xBF,W
02F7C:  SUBLW  09
02F7E:  BNC   2F86
02F80:  BTFSC  xBF.7
02F82:  BRA    2F86
02F84:  BRA    2FC0
....................       Tsecadop[0]=0; 
02F86:  CLRF   xBF
....................       write_eeprom(4,0); 
02F88:  CLRF   FAA
02F8A:  MOVLW  04
02F8C:  MOVWF  FA9
02F8E:  CLRF   FA8
02F90:  BCF    FA6.6
02F92:  BCF    FA6.7
02F94:  BSF    FA6.2
02F96:  MOVF   FF2,W
02F98:  MOVWF  00
02F9A:  BCF    FF2.6
02F9C:  BCF    FF2.7
02F9E:  MOVLB  F
02FA0:  MOVLW  55
02FA2:  MOVWF  FA7
02FA4:  MOVLW  AA
02FA6:  MOVWF  FA7
02FA8:  BSF    FA6.1
02FAA:  BTFSC  FA6.1
02FAC:  BRA    2FAA
02FAE:  BCF    FA6.2
02FB0:  MOVF   00,W
02FB2:  IORWF  FF2,F
....................       delay_ms(10); 
02FB4:  MOVLW  0A
02FB6:  MOVLB  4
02FB8:  MOVWF  x54
02FBA:  MOVLB  0
02FBC:  CALL   1A84
....................    } 
....................    if(Tsecadop[1]>9 || Tsecadop[1]<0){ 
02FC0:  BTFSC  xC0.7
02FC2:  BRA    2FCA
02FC4:  MOVF   xC0,W
02FC6:  SUBLW  09
02FC8:  BNC   2FD0
02FCA:  BTFSC  xC0.7
02FCC:  BRA    2FD0
02FCE:  BRA    300A
....................       Tsecadop[1]=0; 
02FD0:  CLRF   xC0
....................       write_eeprom(5,0); 
02FD2:  CLRF   FAA
02FD4:  MOVLW  05
02FD6:  MOVWF  FA9
02FD8:  CLRF   FA8
02FDA:  BCF    FA6.6
02FDC:  BCF    FA6.7
02FDE:  BSF    FA6.2
02FE0:  MOVF   FF2,W
02FE2:  MOVWF  00
02FE4:  BCF    FF2.6
02FE6:  BCF    FF2.7
02FE8:  MOVLB  F
02FEA:  MOVLW  55
02FEC:  MOVWF  FA7
02FEE:  MOVLW  AA
02FF0:  MOVWF  FA7
02FF2:  BSF    FA6.1
02FF4:  BTFSC  FA6.1
02FF6:  BRA    2FF4
02FF8:  BCF    FA6.2
02FFA:  MOVF   00,W
02FFC:  IORWF  FF2,F
....................       delay_ms(10); 
02FFE:  MOVLW  0A
03000:  MOVLB  4
03002:  MOVWF  x54
03004:  MOVLB  0
03006:  CALL   1A84
....................    } 
....................    if(Tsecadop[2]>9 || Tsecadop[2]<0){ 
0300A:  BTFSC  xC1.7
0300C:  BRA    3014
0300E:  MOVF   xC1,W
03010:  SUBLW  09
03012:  BNC   301A
03014:  BTFSC  xC1.7
03016:  BRA    301A
03018:  BRA    3054
....................       Tsecadop[2]=0; 
0301A:  CLRF   xC1
....................       write_eeprom(6,0); 
0301C:  CLRF   FAA
0301E:  MOVLW  06
03020:  MOVWF  FA9
03022:  CLRF   FA8
03024:  BCF    FA6.6
03026:  BCF    FA6.7
03028:  BSF    FA6.2
0302A:  MOVF   FF2,W
0302C:  MOVWF  00
0302E:  BCF    FF2.6
03030:  BCF    FF2.7
03032:  MOVLB  F
03034:  MOVLW  55
03036:  MOVWF  FA7
03038:  MOVLW  AA
0303A:  MOVWF  FA7
0303C:  BSF    FA6.1
0303E:  BTFSC  FA6.1
03040:  BRA    303E
03042:  BCF    FA6.2
03044:  MOVF   00,W
03046:  IORWF  FF2,F
....................       delay_ms(10); 
03048:  MOVLW  0A
0304A:  MOVLB  4
0304C:  MOVWF  x54
0304E:  MOVLB  0
03050:  CALL   1A84
....................    } 
....................    if(Tsecadop[3]>9 || Tsecadop[3]<0){ 
03054:  BTFSC  xC2.7
03056:  BRA    305E
03058:  MOVF   xC2,W
0305A:  SUBLW  09
0305C:  BNC   3064
0305E:  BTFSC  xC2.7
03060:  BRA    3064
03062:  BRA    309E
....................       Tsecadop[3]=0; 
03064:  CLRF   xC2
....................       write_eeprom(7,0); 
03066:  CLRF   FAA
03068:  MOVLW  07
0306A:  MOVWF  FA9
0306C:  CLRF   FA8
0306E:  BCF    FA6.6
03070:  BCF    FA6.7
03072:  BSF    FA6.2
03074:  MOVF   FF2,W
03076:  MOVWF  00
03078:  BCF    FF2.6
0307A:  BCF    FF2.7
0307C:  MOVLB  F
0307E:  MOVLW  55
03080:  MOVWF  FA7
03082:  MOVLW  AA
03084:  MOVWF  FA7
03086:  BSF    FA6.1
03088:  BTFSC  FA6.1
0308A:  BRA    3088
0308C:  BCF    FA6.2
0308E:  MOVF   00,W
03090:  IORWF  FF2,F
....................       delay_ms(10); 
03092:  MOVLW  0A
03094:  MOVLB  4
03096:  MOVWF  x54
03098:  MOVLB  0
0309A:  CALL   1A84
....................    } 
....................    if(Setpoint>134){ 
0309E:  MOVLB  3
030A0:  MOVF   x65,W
030A2:  SUBLW  86
030A4:  BC    30E6
....................       Setpoint=134; 
030A6:  MOVLW  86
030A8:  MOVWF  x65
....................       write_eeprom(8,134); 
030AA:  CLRF   FAA
030AC:  MOVLW  08
030AE:  MOVWF  FA9
030B0:  MOVLW  86
030B2:  MOVWF  FA8
030B4:  BCF    FA6.6
030B6:  BCF    FA6.7
030B8:  BSF    FA6.2
030BA:  MOVF   FF2,W
030BC:  MOVWF  00
030BE:  BCF    FF2.6
030C0:  BCF    FF2.7
030C2:  MOVLB  F
030C4:  MOVLW  55
030C6:  MOVWF  FA7
030C8:  MOVLW  AA
030CA:  MOVWF  FA7
030CC:  BSF    FA6.1
030CE:  BTFSC  FA6.1
030D0:  BRA    30CE
030D2:  BCF    FA6.2
030D4:  MOVF   00,W
030D6:  IORWF  FF2,F
....................       delay_ms(10); 
030D8:  MOVLW  0A
030DA:  MOVLB  4
030DC:  MOVWF  x54
030DE:  MOVLB  0
030E0:  CALL   1A84
030E4:  MOVLB  3
....................    } 
....................    if(Nivel>6){ 
030E6:  MOVF   x74,F
030E8:  BNZ   30F0
030EA:  MOVF   x73,W
030EC:  SUBLW  06
030EE:  BC    3132
....................       Nivel=3; 
030F0:  CLRF   x74
030F2:  MOVLW  03
030F4:  MOVWF  x73
....................       write_eeprom(9,3); 
030F6:  CLRF   FAA
030F8:  MOVLW  09
030FA:  MOVWF  FA9
030FC:  MOVLW  03
030FE:  MOVWF  FA8
03100:  BCF    FA6.6
03102:  BCF    FA6.7
03104:  BSF    FA6.2
03106:  MOVF   FF2,W
03108:  MOVWF  00
0310A:  BCF    FF2.6
0310C:  BCF    FF2.7
0310E:  MOVLB  F
03110:  MOVLW  55
03112:  MOVWF  FA7
03114:  MOVLW  AA
03116:  MOVWF  FA7
03118:  BSF    FA6.1
0311A:  BTFSC  FA6.1
0311C:  BRA    311A
0311E:  BCF    FA6.2
03120:  MOVF   00,W
03122:  IORWF  FF2,F
....................       delay_ms(10); 
03124:  MOVLW  0A
03126:  MOVLB  4
03128:  MOVWF  x54
0312A:  MOVLB  0
0312C:  CALL   1A84
03130:  MOVLB  3
....................    } 
....................    if(Password[0]>9 || Password[0]<0){ 
03132:  BTFSC  x87.7
03134:  BRA    313C
03136:  MOVF   x87,W
03138:  SUBLW  09
0313A:  BNC   3142
0313C:  BTFSC  x87.7
0313E:  BRA    3142
03140:  BRA    317E
....................       Password[0]=0; 
03142:  CLRF   x87
....................       write_eeprom(10,0); 
03144:  CLRF   FAA
03146:  MOVLW  0A
03148:  MOVWF  FA9
0314A:  CLRF   FA8
0314C:  BCF    FA6.6
0314E:  BCF    FA6.7
03150:  BSF    FA6.2
03152:  MOVF   FF2,W
03154:  MOVWF  00
03156:  BCF    FF2.6
03158:  BCF    FF2.7
0315A:  MOVLB  F
0315C:  MOVLW  55
0315E:  MOVWF  FA7
03160:  MOVLW  AA
03162:  MOVWF  FA7
03164:  BSF    FA6.1
03166:  BTFSC  FA6.1
03168:  BRA    3166
0316A:  BCF    FA6.2
0316C:  MOVF   00,W
0316E:  IORWF  FF2,F
....................       delay_ms(10); 
03170:  MOVLW  0A
03172:  MOVLB  4
03174:  MOVWF  x54
03176:  MOVLB  0
03178:  CALL   1A84
0317C:  MOVLB  3
....................    } 
....................    if(Password[1]>9 || Password[1]<0){ 
0317E:  BTFSC  x88.7
03180:  BRA    3188
03182:  MOVF   x88,W
03184:  SUBLW  09
03186:  BNC   318E
03188:  BTFSC  x88.7
0318A:  BRA    318E
0318C:  BRA    31CA
....................       Password[1]=0; 
0318E:  CLRF   x88
....................       write_eeprom(11,0); 
03190:  CLRF   FAA
03192:  MOVLW  0B
03194:  MOVWF  FA9
03196:  CLRF   FA8
03198:  BCF    FA6.6
0319A:  BCF    FA6.7
0319C:  BSF    FA6.2
0319E:  MOVF   FF2,W
031A0:  MOVWF  00
031A2:  BCF    FF2.6
031A4:  BCF    FF2.7
031A6:  MOVLB  F
031A8:  MOVLW  55
031AA:  MOVWF  FA7
031AC:  MOVLW  AA
031AE:  MOVWF  FA7
031B0:  BSF    FA6.1
031B2:  BTFSC  FA6.1
031B4:  BRA    31B2
031B6:  BCF    FA6.2
031B8:  MOVF   00,W
031BA:  IORWF  FF2,F
....................       delay_ms(10); 
031BC:  MOVLW  0A
031BE:  MOVLB  4
031C0:  MOVWF  x54
031C2:  MOVLB  0
031C4:  CALL   1A84
031C8:  MOVLB  3
....................    } 
....................    if(Password[2]>9 || Password[2]<0){ 
031CA:  BTFSC  x89.7
031CC:  BRA    31D4
031CE:  MOVF   x89,W
031D0:  SUBLW  09
031D2:  BNC   31DA
031D4:  BTFSC  x89.7
031D6:  BRA    31DA
031D8:  BRA    3216
....................       Password[2]=0; 
031DA:  CLRF   x89
....................       write_eeprom(12,0); 
031DC:  CLRF   FAA
031DE:  MOVLW  0C
031E0:  MOVWF  FA9
031E2:  CLRF   FA8
031E4:  BCF    FA6.6
031E6:  BCF    FA6.7
031E8:  BSF    FA6.2
031EA:  MOVF   FF2,W
031EC:  MOVWF  00
031EE:  BCF    FF2.6
031F0:  BCF    FF2.7
031F2:  MOVLB  F
031F4:  MOVLW  55
031F6:  MOVWF  FA7
031F8:  MOVLW  AA
031FA:  MOVWF  FA7
031FC:  BSF    FA6.1
031FE:  BTFSC  FA6.1
03200:  BRA    31FE
03202:  BCF    FA6.2
03204:  MOVF   00,W
03206:  IORWF  FF2,F
....................       delay_ms(10); 
03208:  MOVLW  0A
0320A:  MOVLB  4
0320C:  MOVWF  x54
0320E:  MOVLB  0
03210:  CALL   1A84
03214:  MOVLB  3
....................    } 
....................    if(Password[3]>9 || Password[3]<0){ 
03216:  BTFSC  x8A.7
03218:  BRA    3220
0321A:  MOVF   x8A,W
0321C:  SUBLW  09
0321E:  BNC   3226
03220:  BTFSC  x8A.7
03222:  BRA    3226
03224:  BRA    3260
....................       Password[3]=0; 
03226:  CLRF   x8A
....................       write_eeprom(13,0); 
03228:  CLRF   FAA
0322A:  MOVLW  0D
0322C:  MOVWF  FA9
0322E:  CLRF   FA8
03230:  BCF    FA6.6
03232:  BCF    FA6.7
03234:  BSF    FA6.2
03236:  MOVF   FF2,W
03238:  MOVWF  00
0323A:  BCF    FF2.6
0323C:  BCF    FF2.7
0323E:  MOVLB  F
03240:  MOVLW  55
03242:  MOVWF  FA7
03244:  MOVLW  AA
03246:  MOVWF  FA7
03248:  BSF    FA6.1
0324A:  BTFSC  FA6.1
0324C:  BRA    324A
0324E:  BCF    FA6.2
03250:  MOVF   00,W
03252:  IORWF  FF2,F
....................       delay_ms(10); 
03254:  MOVLW  0A
03256:  MOVLB  4
03258:  MOVWF  x54
0325A:  MOVLB  0
0325C:  CALL   1A84
....................    } 
....................    if(Ganancia>12.0){ 
03260:  MOVLB  4
03262:  CLRF   x46
03264:  CLRF   x45
03266:  MOVLW  40
03268:  MOVWF  x44
0326A:  MOVLW  82
0326C:  MOVWF  x43
0326E:  MOVFF  30B,44A
03272:  MOVFF  30A,449
03276:  MOVFF  309,448
0327A:  MOVFF  308,447
0327E:  MOVLB  0
03280:  RCALL  2D88
03282:  BNC   32CC
....................       Ganancia=12.0; 
03284:  MOVLB  3
03286:  CLRF   x0B
03288:  CLRF   x0A
0328A:  MOVLW  40
0328C:  MOVWF  x09
0328E:  MOVLW  82
03290:  MOVWF  x08
....................       write_eeprom(20,12); 
03292:  CLRF   FAA
03294:  MOVLW  14
03296:  MOVWF  FA9
03298:  MOVLW  0C
0329A:  MOVWF  FA8
0329C:  BCF    FA6.6
0329E:  BCF    FA6.7
032A0:  BSF    FA6.2
032A2:  MOVF   FF2,W
032A4:  MOVWF  00
032A6:  BCF    FF2.6
032A8:  BCF    FF2.7
032AA:  MOVLB  F
032AC:  MOVLW  55
032AE:  MOVWF  FA7
032B0:  MOVLW  AA
032B2:  MOVWF  FA7
032B4:  BSF    FA6.1
032B6:  BTFSC  FA6.1
032B8:  BRA    32B6
032BA:  BCF    FA6.2
032BC:  MOVF   00,W
032BE:  IORWF  FF2,F
....................       delay_ms(10); 
032C0:  MOVLW  0A
032C2:  MOVLB  4
032C4:  MOVWF  x54
032C6:  MOVLB  0
032C8:  CALL   1A84
....................    } 
....................    if(Ajuste>100){ 
032CC:  MOVLB  2
032CE:  MOVF   xD9,W
032D0:  SUBLW  64
032D2:  BC    3310
....................       Ajuste=0; 
032D4:  CLRF   xD9
....................       write_eeprom(21,0); 
032D6:  CLRF   FAA
032D8:  MOVLW  15
032DA:  MOVWF  FA9
032DC:  CLRF   FA8
032DE:  BCF    FA6.6
032E0:  BCF    FA6.7
032E2:  BSF    FA6.2
032E4:  MOVF   FF2,W
032E6:  MOVWF  00
032E8:  BCF    FF2.6
032EA:  BCF    FF2.7
032EC:  MOVLB  F
032EE:  MOVLW  55
032F0:  MOVWF  FA7
032F2:  MOVLW  AA
032F4:  MOVWF  FA7
032F6:  BSF    FA6.1
032F8:  BTFSC  FA6.1
032FA:  BRA    32F8
032FC:  BCF    FA6.2
032FE:  MOVF   00,W
03300:  IORWF  FF2,F
....................       delay_ms(10); 
03302:  MOVLW  0A
03304:  MOVLB  4
03306:  MOVWF  x54
03308:  MOVLB  0
0330A:  CALL   1A84
0330E:  MOVLB  2
....................    } 
....................    if(Ajusten>100){ 
03310:  MOVF   xDA,W
03312:  SUBLW  64
03314:  BC    3352
....................       Ajusten=0; 
03316:  CLRF   xDA
....................       write_eeprom(22,0); 
03318:  CLRF   FAA
0331A:  MOVLW  16
0331C:  MOVWF  FA9
0331E:  CLRF   FA8
03320:  BCF    FA6.6
03322:  BCF    FA6.7
03324:  BSF    FA6.2
03326:  MOVF   FF2,W
03328:  MOVWF  00
0332A:  BCF    FF2.6
0332C:  BCF    FF2.7
0332E:  MOVLB  F
03330:  MOVLW  55
03332:  MOVWF  FA7
03334:  MOVLW  AA
03336:  MOVWF  FA7
03338:  BSF    FA6.1
0333A:  BTFSC  FA6.1
0333C:  BRA    333A
0333E:  BCF    FA6.2
03340:  MOVF   00,W
03342:  IORWF  FF2,F
....................       delay_ms(10); 
03344:  MOVLW  0A
03346:  MOVLB  4
03348:  MOVWF  x54
0334A:  MOVLB  0
0334C:  CALL   1A84
03350:  MOVLB  2
....................    } 
....................    if(MediaMovil>80){ 
03352:  MOVF   xDB,W
03354:  SUBLW  50
03356:  BC    3396
....................       MediaMovil=80; 
03358:  MOVLW  50
0335A:  MOVWF  xDB
....................       write_eeprom(24,80); 
0335C:  CLRF   FAA
0335E:  MOVLW  18
03360:  MOVWF  FA9
03362:  MOVLW  50
03364:  MOVWF  FA8
03366:  BCF    FA6.6
03368:  BCF    FA6.7
0336A:  BSF    FA6.2
0336C:  MOVF   FF2,W
0336E:  MOVWF  00
03370:  BCF    FF2.6
03372:  BCF    FF2.7
03374:  MOVLB  F
03376:  MOVLW  55
03378:  MOVWF  FA7
0337A:  MOVLW  AA
0337C:  MOVWF  FA7
0337E:  BSF    FA6.1
03380:  BTFSC  FA6.1
03382:  BRA    3380
03384:  BCF    FA6.2
03386:  MOVF   00,W
03388:  IORWF  FF2,F
....................       delay_ms(10); 
0338A:  MOVLW  0A
0338C:  MOVLB  4
0338E:  MOVWF  x54
03390:  MOVLB  0
03392:  CALL   1A84
....................    } 
....................    if(Tciclo>10){ 
03396:  MOVLB  4
03398:  CLRF   x46
0339A:  CLRF   x45
0339C:  MOVLW  20
0339E:  MOVWF  x44
033A0:  MOVLW  82
033A2:  MOVWF  x43
033A4:  MOVFF  2F3,44A
033A8:  MOVFF  2F2,449
033AC:  MOVFF  2F1,448
033B0:  MOVFF  2F0,447
033B4:  MOVLB  0
033B6:  RCALL  2D88
033B8:  BNC   3402
....................       Tciclo=10; 
033BA:  MOVLB  2
033BC:  CLRF   xF3
033BE:  CLRF   xF2
033C0:  MOVLW  20
033C2:  MOVWF  xF1
033C4:  MOVLW  82
033C6:  MOVWF  xF0
....................       write_eeprom(25,10); 
033C8:  CLRF   FAA
033CA:  MOVLW  19
033CC:  MOVWF  FA9
033CE:  MOVLW  0A
033D0:  MOVWF  FA8
033D2:  BCF    FA6.6
033D4:  BCF    FA6.7
033D6:  BSF    FA6.2
033D8:  MOVF   FF2,W
033DA:  MOVWF  00
033DC:  BCF    FF2.6
033DE:  BCF    FF2.7
033E0:  MOVLB  F
033E2:  MOVLW  55
033E4:  MOVWF  FA7
033E6:  MOVLW  AA
033E8:  MOVWF  FA7
033EA:  BSF    FA6.1
033EC:  BTFSC  FA6.1
033EE:  BRA    33EC
033F0:  BCF    FA6.2
033F2:  MOVF   00,W
033F4:  IORWF  FF2,F
....................       delay_ms(10); 
033F6:  MOVLW  0A
033F8:  MOVLB  4
033FA:  MOVWF  x54
033FC:  MOVLB  0
033FE:  CALL   1A84
....................    } 
....................    if(Integral>2.0){ 
03402:  MOVLB  4
03404:  CLRF   x55
03406:  MOVFF  33C,454
0340A:  MOVLB  0
0340C:  CALL   1AAC
03410:  MOVLB  4
03412:  CLRF   x46
03414:  CLRF   x45
03416:  CLRF   x44
03418:  MOVLW  80
0341A:  MOVWF  x43
0341C:  MOVFF  03,44A
03420:  MOVFF  02,449
03424:  MOVFF  01,448
03428:  MOVFF  00,447
0342C:  MOVLB  0
0342E:  RCALL  2D88
03430:  BNC   3472
....................       Integral=1.0; 
03432:  MOVLW  01
03434:  MOVLB  3
03436:  MOVWF  x3C
....................       write_eeprom(26,1); 
03438:  CLRF   FAA
0343A:  MOVLW  1A
0343C:  MOVWF  FA9
0343E:  MOVLW  01
03440:  MOVWF  FA8
03442:  BCF    FA6.6
03444:  BCF    FA6.7
03446:  BSF    FA6.2
03448:  MOVF   FF2,W
0344A:  MOVWF  00
0344C:  BCF    FF2.6
0344E:  BCF    FF2.7
03450:  MOVLB  F
03452:  MOVLW  55
03454:  MOVWF  FA7
03456:  MOVLW  AA
03458:  MOVWF  FA7
0345A:  BSF    FA6.1
0345C:  BTFSC  FA6.1
0345E:  BRA    345C
03460:  BCF    FA6.2
03462:  MOVF   00,W
03464:  IORWF  FF2,F
....................       delay_ms(10); 
03466:  MOVLW  0A
03468:  MOVLB  4
0346A:  MOVWF  x54
0346C:  MOVLB  0
0346E:  CALL   1A84
....................    } 
....................    if(Derivativo>20.0){ 
03472:  MOVLB  4
03474:  CLRF   x55
03476:  MOVFF  33D,454
0347A:  MOVLB  0
0347C:  CALL   1AAC
03480:  MOVLB  4
03482:  CLRF   x46
03484:  CLRF   x45
03486:  MOVLW  20
03488:  MOVWF  x44
0348A:  MOVLW  83
0348C:  MOVWF  x43
0348E:  MOVFF  03,44A
03492:  MOVFF  02,449
03496:  MOVFF  01,448
0349A:  MOVFF  00,447
0349E:  MOVLB  0
034A0:  RCALL  2D88
034A2:  BNC   34E4
....................       Derivativo=15.0; 
034A4:  MOVLW  0F
034A6:  MOVLB  3
034A8:  MOVWF  x3D
....................       write_eeprom(27,15); 
034AA:  CLRF   FAA
034AC:  MOVLW  1B
034AE:  MOVWF  FA9
034B0:  MOVLW  0F
034B2:  MOVWF  FA8
034B4:  BCF    FA6.6
034B6:  BCF    FA6.7
034B8:  BSF    FA6.2
034BA:  MOVF   FF2,W
034BC:  MOVWF  00
034BE:  BCF    FF2.6
034C0:  BCF    FF2.7
034C2:  MOVLB  F
034C4:  MOVLW  55
034C6:  MOVWF  FA7
034C8:  MOVLW  AA
034CA:  MOVWF  FA7
034CC:  BSF    FA6.1
034CE:  BTFSC  FA6.1
034D0:  BRA    34CE
034D2:  BCF    FA6.2
034D4:  MOVF   00,W
034D6:  IORWF  FF2,F
....................       delay_ms(10); 
034D8:  MOVLW  0A
034DA:  MOVLB  4
034DC:  MOVWF  x54
034DE:  MOVLB  0
034E0:  CALL   1A84
....................    } 
....................    if(Gain>50){ 
034E4:  MOVLB  4
034E6:  CLRF   x46
034E8:  CLRF   x45
034EA:  MOVLW  48
034EC:  MOVWF  x44
034EE:  MOVLW  84
034F0:  MOVWF  x43
034F2:  MOVFF  2A6,44A
034F6:  MOVFF  2A5,449
034FA:  MOVFF  2A4,448
034FE:  MOVFF  2A3,447
03502:  MOVLB  0
03504:  RCALL  2D88
03506:  BNC   358E
....................       Gain=40.2; 
03508:  MOVLW  CD
0350A:  MOVLB  2
0350C:  MOVWF  xA6
0350E:  MOVLW  CC
03510:  MOVWF  xA5
03512:  MOVLW  20
03514:  MOVWF  xA4
03516:  MOVLW  84
03518:  MOVWF  xA3
....................       write_eeprom(28,40); 
0351A:  CLRF   FAA
0351C:  MOVLW  1C
0351E:  MOVWF  FA9
03520:  MOVLW  28
03522:  MOVWF  FA8
03524:  BCF    FA6.6
03526:  BCF    FA6.7
03528:  BSF    FA6.2
0352A:  MOVF   FF2,W
0352C:  MOVWF  00
0352E:  BCF    FF2.6
03530:  BCF    FF2.7
03532:  MOVLB  F
03534:  MOVLW  55
03536:  MOVWF  FA7
03538:  MOVLW  AA
0353A:  MOVWF  FA7
0353C:  BSF    FA6.1
0353E:  BTFSC  FA6.1
03540:  BRA    353E
03542:  BCF    FA6.2
03544:  MOVF   00,W
03546:  IORWF  FF2,F
....................       delay_ms(10); 
03548:  MOVLW  0A
0354A:  MOVLB  4
0354C:  MOVWF  x54
0354E:  MOVLB  0
03550:  CALL   1A84
....................       write_eeprom(29,2); 
03554:  CLRF   FAA
03556:  MOVLW  1D
03558:  MOVWF  FA9
0355A:  MOVLW  02
0355C:  MOVWF  FA8
0355E:  BCF    FA6.6
03560:  BCF    FA6.7
03562:  BSF    FA6.2
03564:  MOVF   FF2,W
03566:  MOVWF  00
03568:  BCF    FF2.6
0356A:  BCF    FF2.7
0356C:  MOVLB  F
0356E:  MOVLW  55
03570:  MOVWF  FA7
03572:  MOVLW  AA
03574:  MOVWF  FA7
03576:  BSF    FA6.1
03578:  BTFSC  FA6.1
0357A:  BRA    3578
0357C:  BCF    FA6.2
0357E:  MOVF   00,W
03580:  IORWF  FF2,F
....................       delay_ms(10); 
03582:  MOVLW  0A
03584:  MOVLB  4
03586:  MOVWF  x54
03588:  MOVLB  0
0358A:  CALL   1A84
....................    } 
....................    if(R1>6400){ 
0358E:  MOVLB  4
03590:  CLRF   x46
03592:  CLRF   x45
03594:  MOVLW  48
03596:  MOVWF  x44
03598:  MOVLW  8B
0359A:  MOVWF  x43
0359C:  MOVFF  2B2,44A
035A0:  MOVFF  2B1,449
035A4:  MOVFF  2B0,448
035A8:  MOVFF  2AF,447
035AC:  MOVLB  0
035AE:  CALL   2D88
035B2:  BNC   3638
....................       R1=6200; 
035B4:  MOVLB  2
035B6:  CLRF   xB2
035B8:  MOVLW  C0
035BA:  MOVWF  xB1
035BC:  MOVLW  41
035BE:  MOVWF  xB0
035C0:  MOVLW  8B
035C2:  MOVWF  xAF
....................       write_eeprom(30,0x38); 
035C4:  CLRF   FAA
035C6:  MOVLW  1E
035C8:  MOVWF  FA9
035CA:  MOVLW  38
035CC:  MOVWF  FA8
035CE:  BCF    FA6.6
035D0:  BCF    FA6.7
035D2:  BSF    FA6.2
035D4:  MOVF   FF2,W
035D6:  MOVWF  00
035D8:  BCF    FF2.6
035DA:  BCF    FF2.7
035DC:  MOVLB  F
035DE:  MOVLW  55
035E0:  MOVWF  FA7
035E2:  MOVLW  AA
035E4:  MOVWF  FA7
035E6:  BSF    FA6.1
035E8:  BTFSC  FA6.1
035EA:  BRA    35E8
035EC:  BCF    FA6.2
035EE:  MOVF   00,W
035F0:  IORWF  FF2,F
....................       delay_ms(10); 
035F2:  MOVLW  0A
035F4:  MOVLB  4
035F6:  MOVWF  x54
035F8:  MOVLB  0
035FA:  CALL   1A84
....................       write_eeprom(31,0x18); 
035FE:  CLRF   FAA
03600:  MOVLW  1F
03602:  MOVWF  FA9
03604:  MOVLW  18
03606:  MOVWF  FA8
03608:  BCF    FA6.6
0360A:  BCF    FA6.7
0360C:  BSF    FA6.2
0360E:  MOVF   FF2,W
03610:  MOVWF  00
03612:  BCF    FF2.6
03614:  BCF    FF2.7
03616:  MOVLB  F
03618:  MOVLW  55
0361A:  MOVWF  FA7
0361C:  MOVLW  AA
0361E:  MOVWF  FA7
03620:  BSF    FA6.1
03622:  BTFSC  FA6.1
03624:  BRA    3622
03626:  BCF    FA6.2
03628:  MOVF   00,W
0362A:  IORWF  FF2,F
....................       delay_ms(10); 
0362C:  MOVLW  0A
0362E:  MOVLB  4
03630:  MOVWF  x54
03632:  MOVLB  0
03634:  CALL   1A84
....................    } 
....................    if(RPT100>2.0){ 
03638:  MOVLB  4
0363A:  CLRF   x46
0363C:  CLRF   x45
0363E:  CLRF   x44
03640:  MOVLW  80
03642:  MOVWF  x43
03644:  MOVFF  2AA,44A
03648:  MOVFF  2A9,449
0364C:  MOVFF  2A8,448
03650:  MOVFF  2A7,447
03654:  MOVLB  0
03656:  CALL   2D88
0365A:  BNC   36DA
....................       RPT100=0.5; 
0365C:  MOVLB  2
0365E:  CLRF   xAA
03660:  CLRF   xA9
03662:  CLRF   xA8
03664:  MOVLW  7E
03666:  MOVWF  xA7
....................       write_eeprom(32,0); 
03668:  CLRF   FAA
0366A:  MOVLW  20
0366C:  MOVWF  FA9
0366E:  CLRF   FA8
03670:  BCF    FA6.6
03672:  BCF    FA6.7
03674:  BSF    FA6.2
03676:  MOVF   FF2,W
03678:  MOVWF  00
0367A:  BCF    FF2.6
0367C:  BCF    FF2.7
0367E:  MOVLB  F
03680:  MOVLW  55
03682:  MOVWF  FA7
03684:  MOVLW  AA
03686:  MOVWF  FA7
03688:  BSF    FA6.1
0368A:  BTFSC  FA6.1
0368C:  BRA    368A
0368E:  BCF    FA6.2
03690:  MOVF   00,W
03692:  IORWF  FF2,F
....................       delay_ms(10); 
03694:  MOVLW  0A
03696:  MOVLB  4
03698:  MOVWF  x54
0369A:  MOVLB  0
0369C:  CALL   1A84
....................       write_eeprom(33,5); 
036A0:  CLRF   FAA
036A2:  MOVLW  21
036A4:  MOVWF  FA9
036A6:  MOVLW  05
036A8:  MOVWF  FA8
036AA:  BCF    FA6.6
036AC:  BCF    FA6.7
036AE:  BSF    FA6.2
036B0:  MOVF   FF2,W
036B2:  MOVWF  00
036B4:  BCF    FF2.6
036B6:  BCF    FF2.7
036B8:  MOVLB  F
036BA:  MOVLW  55
036BC:  MOVWF  FA7
036BE:  MOVLW  AA
036C0:  MOVWF  FA7
036C2:  BSF    FA6.1
036C4:  BTFSC  FA6.1
036C6:  BRA    36C4
036C8:  BCF    FA6.2
036CA:  MOVF   00,W
036CC:  IORWF  FF2,F
....................       delay_ms(10); 
036CE:  MOVLW  0A
036D0:  MOVLB  4
036D2:  MOVWF  x54
036D4:  MOVLB  0
036D6:  CALL   1A84
....................    } 
....................    if(Ciclos>60000){ 
036DA:  MOVLB  3
036DC:  MOVF   x7C,W
036DE:  SUBLW  E9
036E0:  BC    3760
036E2:  XORLW  FF
036E4:  BNZ   36EC
036E6:  MOVF   x7B,W
036E8:  SUBLW  60
036EA:  BC    3760
....................       Ciclos=0; 
036EC:  CLRF   x7C
036EE:  CLRF   x7B
....................       write_eeprom(37,0); 
036F0:  CLRF   FAA
036F2:  MOVLW  25
036F4:  MOVWF  FA9
036F6:  CLRF   FA8
036F8:  BCF    FA6.6
036FA:  BCF    FA6.7
036FC:  BSF    FA6.2
036FE:  MOVF   FF2,W
03700:  MOVWF  00
03702:  BCF    FF2.6
03704:  BCF    FF2.7
03706:  MOVLB  F
03708:  MOVLW  55
0370A:  MOVWF  FA7
0370C:  MOVLW  AA
0370E:  MOVWF  FA7
03710:  BSF    FA6.1
03712:  BTFSC  FA6.1
03714:  BRA    3712
03716:  BCF    FA6.2
03718:  MOVF   00,W
0371A:  IORWF  FF2,F
....................       delay_ms(10); 
0371C:  MOVLW  0A
0371E:  MOVLB  4
03720:  MOVWF  x54
03722:  MOVLB  0
03724:  CALL   1A84
....................       write_eeprom(38,0); 
03728:  CLRF   FAA
0372A:  MOVLW  26
0372C:  MOVWF  FA9
0372E:  CLRF   FA8
03730:  BCF    FA6.6
03732:  BCF    FA6.7
03734:  BSF    FA6.2
03736:  MOVF   FF2,W
03738:  MOVWF  00
0373A:  BCF    FF2.6
0373C:  BCF    FF2.7
0373E:  MOVLB  F
03740:  MOVLW  55
03742:  MOVWF  FA7
03744:  MOVLW  AA
03746:  MOVWF  FA7
03748:  BSF    FA6.1
0374A:  BTFSC  FA6.1
0374C:  BRA    374A
0374E:  BCF    FA6.2
03750:  MOVF   00,W
03752:  IORWF  FF2,F
....................       delay_ms(10); 
03754:  MOVLW  0A
03756:  MOVLB  4
03758:  MOVWF  x54
0375A:  MOVLB  0
0375C:  CALL   1A84
....................    } 
....................    if(TTrampa>100){ 
03760:  MOVLB  2
03762:  MOVF   xDC,W
03764:  SUBLW  64
03766:  BC    37A6
....................       TTrampa=80; 
03768:  MOVLW  50
0376A:  MOVWF  xDC
....................       write_eeprom(39,80); 
0376C:  CLRF   FAA
0376E:  MOVLW  27
03770:  MOVWF  FA9
03772:  MOVLW  50
03774:  MOVWF  FA8
03776:  BCF    FA6.6
03778:  BCF    FA6.7
0377A:  BSF    FA6.2
0377C:  MOVF   FF2,W
0377E:  MOVWF  00
03780:  BCF    FF2.6
03782:  BCF    FF2.7
03784:  MOVLB  F
03786:  MOVLW  55
03788:  MOVWF  FA7
0378A:  MOVLW  AA
0378C:  MOVWF  FA7
0378E:  BSF    FA6.1
03790:  BTFSC  FA6.1
03792:  BRA    3790
03794:  BCF    FA6.2
03796:  MOVF   00,W
03798:  IORWF  FF2,F
....................       delay_ms(10); 
0379A:  MOVLW  0A
0379C:  MOVLB  4
0379E:  MOVWF  x54
037A0:  MOVLB  0
037A2:  CALL   1A84
....................    } 
....................    if(ActivaImpresion>1){ 
037A6:  MOVLB  3
037A8:  MOVF   x57,W
037AA:  SUBLW  01
037AC:  BC    37EE
....................       ActivaImpresion=1; 
037AE:  MOVLW  01
037B0:  MOVWF  x57
....................       write_eeprom(40,1); 
037B2:  CLRF   FAA
037B4:  MOVLW  28
037B6:  MOVWF  FA9
037B8:  MOVLW  01
037BA:  MOVWF  FA8
037BC:  BCF    FA6.6
037BE:  BCF    FA6.7
037C0:  BSF    FA6.2
037C2:  MOVF   FF2,W
037C4:  MOVWF  00
037C6:  BCF    FF2.6
037C8:  BCF    FF2.7
037CA:  MOVLB  F
037CC:  MOVLW  55
037CE:  MOVWF  FA7
037D0:  MOVLW  AA
037D2:  MOVWF  FA7
037D4:  BSF    FA6.1
037D6:  BTFSC  FA6.1
037D8:  BRA    37D6
037DA:  BCF    FA6.2
037DC:  MOVF   00,W
037DE:  IORWF  FF2,F
....................       delay_ms(10); 
037E0:  MOVLW  0A
037E2:  MOVLB  4
037E4:  MOVWF  x54
037E6:  MOVLB  0
037E8:  CALL   1A84
037EC:  MOVLB  3
....................    } 
....................    if(timpresion>30){ 
037EE:  MOVF   x58,W
037F0:  SUBLW  1E
037F2:  BC    3834
....................       timpresion=2; 
037F4:  MOVLW  02
037F6:  MOVWF  x58
....................       write_eeprom(41,2); 
037F8:  CLRF   FAA
037FA:  MOVLW  29
037FC:  MOVWF  FA9
037FE:  MOVLW  02
03800:  MOVWF  FA8
03802:  BCF    FA6.6
03804:  BCF    FA6.7
03806:  BSF    FA6.2
03808:  MOVF   FF2,W
0380A:  MOVWF  00
0380C:  BCF    FF2.6
0380E:  BCF    FF2.7
03810:  MOVLB  F
03812:  MOVLW  55
03814:  MOVWF  FA7
03816:  MOVLW  AA
03818:  MOVWF  FA7
0381A:  BSF    FA6.1
0381C:  BTFSC  FA6.1
0381E:  BRA    381C
03820:  BCF    FA6.2
03822:  MOVF   00,W
03824:  IORWF  FF2,F
....................       delay_ms(10); 
03826:  MOVLW  0A
03828:  MOVLB  4
0382A:  MOVWF  x54
0382C:  MOVLB  0
0382E:  CALL   1A84
03832:  MOVLB  3
....................    } 
....................    if(Atmosferica>100 || Atmosferica<50){ 
03834:  MOVF   xAE,W
03836:  SUBLW  64
03838:  BNC   3840
0383A:  MOVF   xAE,W
0383C:  SUBLW  31
0383E:  BNC   3880
....................       Atmosferica=72; 
03840:  MOVLW  48
03842:  MOVWF  xAE
....................       write_eeprom(46,72); 
03844:  CLRF   FAA
03846:  MOVLW  2E
03848:  MOVWF  FA9
0384A:  MOVLW  48
0384C:  MOVWF  FA8
0384E:  BCF    FA6.6
03850:  BCF    FA6.7
03852:  BSF    FA6.2
03854:  MOVF   FF2,W
03856:  MOVWF  00
03858:  BCF    FF2.6
0385A:  BCF    FF2.7
0385C:  MOVLB  F
0385E:  MOVLW  55
03860:  MOVWF  FA7
03862:  MOVLW  AA
03864:  MOVWF  FA7
03866:  BSF    FA6.1
03868:  BTFSC  FA6.1
0386A:  BRA    3868
0386C:  BCF    FA6.2
0386E:  MOVF   00,W
03870:  IORWF  FF2,F
....................       delay_ms(10); 
03872:  MOVLW  0A
03874:  MOVLB  4
03876:  MOVWF  x54
03878:  MOVLB  0
0387A:  CALL   1A84
0387E:  MOVLB  3
....................    } 
....................    if(sg1==10){ 
03880:  MOVF   xB1,W
03882:  SUBLW  0A
03884:  BNZ   389C
....................       G1=G1*(-1); 
03886:  MOVFF  3AF,441
0388A:  MOVLW  FF
0388C:  MOVLB  4
0388E:  MOVWF  x42
03890:  MOVLB  0
03892:  CALL   2E02
03896:  MOVFF  01,3AF
0389A:  MOVLB  3
....................    } 
....................    if(sg2==10){ 
0389C:  MOVF   xB2,W
0389E:  SUBLW  0A
038A0:  BNZ   38B8
....................       G2=G2*(-1); 
038A2:  MOVFF  3B0,441
038A6:  MOVLW  FF
038A8:  MOVLB  4
038AA:  MOVWF  x42
038AC:  MOVLB  0
038AE:  CALL   2E02
038B2:  MOVFF  01,3B0
038B6:  MOVLB  3
....................    } 
.................... } 
038B8:  MOVLB  0
038BA:  GOTO   76AE (RETURN)
....................  
.................... void LeeDisplay(void){ 
....................    if(Dato_Exitoso==5){ 
*
04330:  MOVLB  3
04332:  MOVF   x5B,W
04334:  SUBLW  05
04336:  BTFSS  FD8.2
04338:  BRA    44AE
....................          RX_Buffer[0]=RX_Buffer2[0]; 
0433A:  MOVFF  3B,30
....................          RX_Buffer[1]=RX_Buffer2[1]; 
0433E:  MOVFF  3C,31
....................          RX_Buffer[2]=RX_Buffer2[2]; 
04342:  MOVFF  3D,32
....................          RX_Buffer[3]=RX_Buffer2[3]; 
04346:  MOVFF  3E,33
....................          RX_Buffer[4]=RX_Buffer2[4]; 
0434A:  MOVFF  3F,34
....................          RX_Buffer[5]=RX_Buffer2[5]; 
0434E:  MOVFF  40,35
....................          RX_Buffer[6]=RX_Buffer2[6]; 
04352:  MOVFF  41,36
....................          RX_Buffer[7]=RX_Buffer2[7]; 
04356:  MOVFF  42,37
....................          RX_Buffer[8]=RX_Buffer2[8]; 
0435A:  MOVFF  43,38
....................          RX_Buffer[9]=RX_Buffer2[9]; 
0435E:  MOVFF  44,39
....................           
....................       if(RX_Buffer[3]==0x01){// Pregunta por la pagina en la que esta el display,01 es Contrasea de Acceso 
04362:  DECFSZ 33,W
04364:  BRA    4374
....................          Menu=0; 
04366:  CLRF   x5E
....................          if(MenuAntt!=Menu) 
04368:  MOVF   x5E,W
0436A:  SUBWF  x60,W
0436C:  BZ    4372
....................             MenuAntt=Menu; 
0436E:  MOVFF  35E,360
....................       }else if(RX_Buffer[3]==0x02){//02 es Menu Principal con PantallaPriincipal=0, y con PantallaPrincipal=1 es Ciclo Libre 
04372:  BRA    44AC
04374:  MOVF   33,W
04376:  SUBLW  02
04378:  BNZ   438A
....................          Menu=1; 
0437A:  MOVLW  01
0437C:  MOVWF  x5E
....................          if(MenuAntt!=Menu) 
0437E:  MOVF   x5E,W
04380:  SUBWF  x60,W
04382:  BZ    4388
....................             MenuAntt=Menu; 
04384:  MOVFF  35E,360
....................       }else if(RX_Buffer[3]==0x03){//03 es Tiempo Esterilizacion 
04388:  BRA    44AC
0438A:  MOVF   33,W
0438C:  SUBLW  03
0438E:  BNZ   43A0
....................          Menu=2; 
04390:  MOVLW  02
04392:  MOVWF  x5E
....................          if(MenuAntt!=Menu) 
04394:  MOVF   x5E,W
04396:  SUBWF  x60,W
04398:  BZ    439E
....................             MenuAntt=Menu; 
0439A:  MOVFF  35E,360
....................       }else if(RX_Buffer[3]==0x04){//04 es Tiempo de Secado 
0439E:  BRA    44AC
043A0:  MOVF   33,W
043A2:  SUBLW  04
043A4:  BNZ   43B6
....................          Menu=3; 
043A6:  MOVLW  03
043A8:  MOVWF  x5E
....................          if(MenuAntt!=Menu) 
043AA:  MOVF   x5E,W
043AC:  SUBWF  x60,W
043AE:  BZ    43B4
....................             MenuAntt=Menu; 
043B0:  MOVFF  35E,360
....................       }else if(RX_Buffer[3]==0x05){//05 es Temperatura 
043B4:  BRA    44AC
043B6:  MOVF   33,W
043B8:  SUBLW  05
043BA:  BNZ   43CC
....................          Menu=4; 
043BC:  MOVLW  04
043BE:  MOVWF  x5E
....................          if(MenuAntt!=Menu) 
043C0:  MOVF   x5E,W
043C2:  SUBWF  x60,W
043C4:  BZ    43CA
....................             MenuAntt=Menu; 
043C6:  MOVFF  35E,360
....................       }else if(RX_Buffer[3]==0x06){//06 es Nivel 
043CA:  BRA    44AC
043CC:  MOVF   33,W
043CE:  SUBLW  06
043D0:  BNZ   43E2
....................          Menu=5; 
043D2:  MOVLW  05
043D4:  MOVWF  x5E
....................          if(MenuAntt!=Menu) 
043D6:  MOVF   x5E,W
043D8:  SUBWF  x60,W
043DA:  BZ    43E0
....................             MenuAntt=Menu; 
043DC:  MOVFF  35E,360
....................       }else if(RX_Buffer[3]==0x07){//07 es Test de Componentes 
043E0:  BRA    44AC
043E2:  MOVF   33,W
043E4:  SUBLW  07
043E6:  BNZ   43F8
....................          Menu=6; 
043E8:  MOVLW  06
043EA:  MOVWF  x5E
....................          if(MenuAntt!=Menu) 
043EC:  MOVF   x5E,W
043EE:  SUBWF  x60,W
043F0:  BZ    43F6
....................             MenuAntt=Menu; 
043F2:  MOVFF  35E,360
....................       }else if(RX_Buffer[3]==0x08){//08 es Fecha y hora 
043F6:  BRA    44AC
043F8:  MOVF   33,W
043FA:  SUBLW  08
043FC:  BNZ   440E
....................          Menu=7; 
043FE:  MOVLW  07
04400:  MOVWF  x5E
....................          if(MenuAntt!=Menu) 
04402:  MOVF   x5E,W
04404:  SUBWF  x60,W
04406:  BZ    440C
....................             MenuAntt=Menu; 
04408:  MOVFF  35E,360
....................       }else if(RX_Buffer[3]==0x09){//09 es Ciclos Personalizados 
0440C:  BRA    44AC
0440E:  MOVF   33,W
04410:  SUBLW  09
04412:  BNZ   4424
....................          Menu=8; 
04414:  MOVLW  08
04416:  MOVWF  x5E
....................          if(MenuAntt!=Menu) 
04418:  MOVF   x5E,W
0441A:  SUBWF  x60,W
0441C:  BZ    4422
....................             MenuAntt=Menu; 
0441E:  MOVFF  35E,360
....................       }else if(RX_Buffer[3]==0x0d){//0d es Ciclos 
04422:  BRA    44AC
04424:  MOVF   33,W
04426:  SUBLW  0D
04428:  BNZ   443A
....................          Menu=12; 
0442A:  MOVLW  0C
0442C:  MOVWF  x5E
....................          if(MenuAntt!=Menu) 
0442E:  MOVF   x5E,W
04430:  SUBWF  x60,W
04432:  BZ    4438
....................             MenuAntt=Menu; 
04434:  MOVFF  35E,360
....................       }else if(RX_Buffer[3]==0x0f){//0f es Recibe caracteres de contrasea desde display 
04438:  BRA    44AC
0443A:  MOVF   33,W
0443C:  SUBLW  0F
0443E:  BNZ   4442
....................           
....................       }else if(RX_Buffer[3]==0x1a){//1a es Menu de Funcionamiento 
04440:  BRA    44AC
04442:  MOVF   33,W
04444:  SUBLW  1A
04446:  BNZ   4458
....................          Menu=20; 
04448:  MOVLW  14
0444A:  MOVWF  x5E
....................          if(MenuAntt!=Menu) 
0444C:  MOVF   x5E,W
0444E:  SUBWF  x60,W
04450:  BZ    4456
....................             MenuAntt=Menu; 
04452:  MOVFF  35E,360
....................       }else if(RX_Buffer[3]==0x1b){//1b es Menu de clave correcta 
04456:  BRA    44AC
04458:  MOVF   33,W
0445A:  SUBLW  1B
0445C:  BNZ   446E
....................          Menu=15; 
0445E:  MOVLW  0F
04460:  MOVWF  x5E
....................          if(MenuAntt!=Menu) 
04462:  MOVF   x5E,W
04464:  SUBWF  x60,W
04466:  BZ    446C
....................             MenuAntt=Menu; 
04468:  MOVFF  35E,360
....................       }else if(RX_Buffer[3]==0x1c){//1c es Menu de clave incorrecta 
0446C:  BRA    44AC
0446E:  MOVF   33,W
04470:  SUBLW  1C
04472:  BNZ   4484
....................          Menu=16; 
04474:  MOVLW  10
04476:  MOVWF  x5E
....................          if(MenuAntt!=Menu) 
04478:  MOVF   x5E,W
0447A:  SUBWF  x60,W
0447C:  BZ    4482
....................             MenuAntt=Menu; 
0447E:  MOVFF  35E,360
....................       }else if(RX_Buffer[3]==0x2c){//2c es Menu de Configuracion de Parametros 
04482:  BRA    44AC
04484:  MOVF   33,W
04486:  SUBLW  2C
04488:  BNZ   449A
....................          Menu=100; 
0448A:  MOVLW  64
0448C:  MOVWF  x5E
....................          if(MenuAntt!=Menu) 
0448E:  MOVF   x5E,W
04490:  SUBWF  x60,W
04492:  BZ    4498
....................             MenuAntt=Menu; 
04494:  MOVFF  35E,360
....................       }else if(RX_Buffer[3]==0xcc){//cc es Menu de Bienvenida 
04498:  BRA    44AC
0449A:  MOVF   33,W
0449C:  SUBLW  CC
0449E:  BNZ   44AC
....................          Menu=240; 
044A0:  MOVLW  F0
044A2:  MOVWF  x5E
....................          if(MenuAntt!=240) 
044A4:  MOVF   x60,W
044A6:  SUBLW  F0
044A8:  BZ    44AC
....................             reset_cpu(); 
044AA:  RESET
....................       } 
....................    }else{ 
044AC:  BRA    44BA
....................       for(z=0;z<RX_BUFFER_SIZE;z++){ 
044AE:  CLRF   x5D
044B0:  MOVF   x5D,W
044B2:  SUBLW  09
044B4:  BNC   44BA
....................             //Rx_Buffer[z]=0; 
....................             //Rx_Buffer2[z]=0; 
....................          } 
044B6:  INCF   x5D,F
044B8:  BRA    44B0
....................    } 
.................... } 
044BA:  MOVLB  0
044BC:  GOTO   7824 (RETURN)
....................  
.................... void ConfiguraCiclo(int8 este0,este1,este2,este3,secado0,secado1,secado2,secado3,liquidos,ciclo,temperatura){ 
....................    Testerilizacionp[0]=este0;Testerilizacionp[1]=este1;Testerilizacionp[2]=este2;Testerilizacionp[3]=este3; 
*
04B8E:  MOVFF  449,B6
04B92:  MOVFF  44A,B7
04B96:  MOVFF  44B,B8
04B9A:  MOVFF  44C,B9
....................    Tsecadop[0]=secado0;Tsecadop[1]=secado1;Tsecadop[2]=secado2;Tsecadop[3]=secado3; 
04B9E:  MOVFF  44D,BF
04BA2:  MOVFF  44E,C0
04BA6:  MOVFF  44F,C1
04BAA:  MOVFF  450,C2
....................    Setpoint=temperatura;                
04BAE:  MOVFF  453,365
....................    tiempo_secado=0; 
04BB2:  MOVLB  3
04BB4:  CLRF   x69
....................    desfoguelento=liquidos; 
04BB6:  MOVLB  0
04BB8:  BCF    xA4.4
04BBA:  MOVLB  4
04BBC:  BTFSS  x51.0
04BBE:  BRA    4BC6
04BC0:  MOVLB  0
04BC2:  BSF    xA4.4
04BC4:  MOVLB  4
....................    CicloSeleccionado=ciclo; 
04BC6:  MOVFF  452,364
....................    Testerilizacion[0]=Testerilizacionp[0];Testerilizacion[1]=Testerilizacionp[1];Testerilizacion[2]=Testerilizacionp[2]; 
04BCA:  MOVFF  B6,B1
04BCE:  MOVFF  B7,B2
04BD2:  MOVFF  B8,B3
....................    Testerilizacion[3]=Testerilizacionp[3];Testerilizacion[4]=Testerilizacionp[4]; 
04BD6:  MOVFF  B9,B4
04BDA:  MOVFF  BA,B5
....................    Tsecado[0]=Tsecadop[0];Tsecado[1]=Tsecadop[1];Tsecado[2]=Tsecadop[2];Tsecado[3]=Tsecadop[3]; 
04BDE:  MOVFF  BF,BB
04BE2:  MOVFF  C0,BC
04BE6:  MOVFF  C1,BD
04BEA:  MOVFF  C2,BE
....................    Imprime=15; 
04BEE:  MOVLW  0F
04BF0:  MOVLB  3
04BF2:  MOVWF  xAD
....................    Envio_Esclavos(); 
04BF4:  MOVLB  0
04BF6:  RCALL  4686
....................    delay_ms(100); 
04BF8:  MOVLW  64
04BFA:  MOVLB  4
04BFC:  MOVWF  x54
04BFE:  MOVLB  0
04C00:  CALL   1A84
....................    Imprime=10; 
04C04:  MOVLW  0A
04C06:  MOVLB  3
04C08:  MOVWF  xAD
.................... } 
04C0A:  MOVLB  0
04C0C:  RETLW  00
....................  
.................... void ActivaAlarma(int8 Tipo){ 
....................     
....................    if(tsilencio>12000){ 
*
04748:  MOVLB  3
0474A:  MOVF   x97,W
0474C:  SUBLW  2D
0474E:  BC    4762
04750:  XORLW  FF
04752:  BNZ   475A
04754:  MOVF   x96,W
04756:  SUBLW  E0
04758:  BC    4762
....................       tsilencio=0; 
0475A:  CLRF   x97
0475C:  CLRF   x96
....................       flagSilencio=OFF; 
0475E:  MOVLB  0
04760:  BCF    xA3.1
....................    } 
....................     
....................    if(Tipo==1){ // Alarma por Error 
04762:  MOVLB  4
04764:  DECFSZ x3F,W
04766:  BRA    47BE
....................    if(UP || DOWN || RIGHT || LEFT) 
04768:  BSF    F93.0
0476A:  BTFSS  F81.0
0476C:  BRA    4780
0476E:  BSF    F93.1
04770:  BTFSS  F81.1
04772:  BRA    4780
04774:  BSF    F93.2
04776:  BTFSS  F81.2
04778:  BRA    4780
0477A:  BSF    F93.3
0477C:  BTFSC  F81.3
0477E:  BRA    4784
....................       flagSilencio=ON; 
04780:  MOVLB  0
04782:  BSF    xA3.1
....................        
....................       if(!flagSilencio){ 
04784:  MOVLB  0
04786:  BTFSC  xA3.1
04788:  BRA    47B4
....................          flagAlarma=1; 
0478A:  BSF    xA2.7
....................          if(tbuzzer>200){ 
0478C:  MOVLB  3
0478E:  MOVF   x95,F
04790:  BNZ   4798
04792:  MOVF   x94,W
04794:  SUBLW  C8
04796:  BC    47B0
....................             tbuzzer=0; 
04798:  CLRF   x95
0479A:  CLRF   x94
....................             flagBuzzer=!flagBuzzer; 
0479C:  MOVLB  0
0479E:  BTG    xA3.0
....................             if(flagBuzzer) 
047A0:  BTFSS  xA3.0
047A2:  BRA    47AA
....................                Buzzer_on; 
047A4:  BSF    F8C.0
047A6:  BCF    F95.0
....................             else 
047A8:  BRA    47AE
....................                Buzzer_off; 
047AA:  BCF    F8C.0
047AC:  BCF    F95.0
047AE:  MOVLB  3
....................          } 
....................       }else{ 
047B0:  BRA    47BA
047B2:  MOVLB  0
....................          Buzzer_off; 
047B4:  BCF    F8C.0
047B6:  BCF    F95.0
047B8:  MOVLB  3
....................       } 
....................    }else if(Tipo==2){ 
047BA:  BRA    4818
047BC:  MOVLB  4
047BE:  MOVF   x3F,W
047C0:  SUBLW  02
047C2:  BNZ   481A
....................    if(UP || DOWN || RIGHT || LEFT) 
047C4:  BSF    F93.0
047C6:  BTFSS  F81.0
047C8:  BRA    47DC
047CA:  BSF    F93.1
047CC:  BTFSS  F81.1
047CE:  BRA    47DC
047D0:  BSF    F93.2
047D2:  BTFSS  F81.2
047D4:  BRA    47DC
047D6:  BSF    F93.3
047D8:  BTFSC  F81.3
047DA:  BRA    47E2
....................       ConteoBuzzer=21; 
047DC:  MOVLW  15
047DE:  MOVLB  3
047E0:  MOVWF  x91
....................        
....................       flagAlarma=1; 
047E2:  MOVLB  0
047E4:  BSF    xA2.7
....................       if(ConteoBuzzer<20){    
047E6:  MOVLB  3
047E8:  MOVF   x91,W
047EA:  SUBLW  13
047EC:  BNC   4814
....................          if(tbuzzer>100){ 
047EE:  MOVF   x95,F
047F0:  BNZ   47F8
047F2:  MOVF   x94,W
047F4:  SUBLW  64
047F6:  BC    4812
....................             tbuzzer=0; 
047F8:  CLRF   x95
047FA:  CLRF   x94
....................             flagBuzzer=!flagBuzzer; 
047FC:  MOVLB  0
047FE:  BTG    xA3.0
....................             if(flagBuzzer) 
04800:  BTFSS  xA3.0
04802:  BRA    480A
....................                Buzzer_on; 
04804:  BSF    F8C.0
04806:  BCF    F95.0
....................             else 
04808:  BRA    480E
....................                Buzzer_off; 
0480A:  BCF    F8C.0
0480C:  BCF    F95.0
....................                 
....................             ConteoBuzzer++;    
0480E:  MOVLB  3
04810:  INCF   x91,F
....................          } 
....................       }else{ 
04812:  BRA    4818
....................          Buzzer_off; 
04814:  BCF    F8C.0
04816:  BCF    F95.0
04818:  MOVLB  4
....................       } 
....................    } 
.................... } 
0481A:  MOVLB  0
0481C:  RETLW  00
....................  
.................... void CalientaChaqueta(){ 
....................    /*if(PresionPrecamara<130){ 
....................       SSR_on; 
....................    }else if(PresionPreCamara>150){ 
....................       SSR_off; 
....................    } 
....................    */                                  
....................    Tp=50; 
*
06E0C:  CLRF   xAC
06E0E:  MOVLW  32
06E10:  MOVWF  xAB
....................    Tc=(Tciclo/0.005); 
06E12:  MOVFF  2F3,44B
06E16:  MOVFF  2F2,44A
06E1A:  MOVFF  2F1,449
06E1E:  MOVFF  2F0,448
06E22:  MOVLW  0A
06E24:  MOVLB  4
06E26:  MOVWF  x4F
06E28:  MOVLW  D7
06E2A:  MOVWF  x4E
06E2C:  MOVLW  23
06E2E:  MOVWF  x4D
06E30:  MOVLW  77
06E32:  MOVWF  x4C
06E34:  MOVLB  0
06E36:  CALL   1AE2
06E3A:  MOVFF  03,457
06E3E:  MOVFF  02,456
06E42:  MOVFF  01,455
06E46:  MOVFF  00,454
06E4A:  CALL   40F6
06E4E:  MOVFF  02,AE
06E52:  MOVFF  01,AD
....................    Controlando=1;  
06E56:  MOVLW  01
06E58:  MOVLB  3
06E5A:  MOVWF  x56
.................... } 
06E5C:  MOVLB  0
06E5E:  GOTO   CAA6 (RETURN)
....................  
.................... void ApagaSalidas(){ 
....................    Desfogue_off; 
*
03926:  BCF    F8C.4
03928:  BCF    F95.4
....................    Bomba_off; 
0392A:  BCF    F8C.6
0392C:  BCF    F95.6
....................    Buzzer_off; 
0392E:  BCF    F8C.0
03930:  BCF    F95.0
....................    SSR_off; 
03932:  BSF    F8B.2
03934:  BCF    F94.2
....................    Aire=OFF; 
03936:  BCF    xA3.7
....................    Agua_off; 
03938:  BCF    F8C.5
0393A:  BCF    F95.5
....................    Controlando=0; 
0393C:  MOVLB  3
0393E:  CLRF   x56
.................... } 
03940:  MOVLB  0
03942:  RETLW  00
....................  
.................... void purgaAire(){ 
....................    if(!purga){ 
....................       for(i=0;i<4;i++){ 
....................          Desfogue_on; 
....................          delay_ms(2000); 
....................          Desfogue_off; 
....................          delay_ms(1000); 
....................       } 
....................       purga=ON; 
....................    } 
.................... } 
....................  
.................... int8 extraeDecima(int8 tiempo){ 
*
04ED0:  MOVLB  4
04ED2:  CLRF   x47
04ED4:  CLRF   x48
....................    int8 tmp=0,decima=0; 
....................    tmp=tiempo/10; 
04ED6:  MOVFF  446,449
04EDA:  MOVLW  0A
04EDC:  MOVWF  x4A
04EDE:  MOVLB  0
04EE0:  RCALL  487C
04EE2:  MOVFF  01,447
....................    tmp=tmp*10; 
04EE6:  MOVLB  4
04EE8:  MOVF   x47,W
04EEA:  MULLW  0A
04EEC:  MOVFF  FF3,447
....................    decima=tiempo-tmp; 
04EF0:  MOVF   x47,W
04EF2:  SUBWF  x46,W
04EF4:  MOVWF  x48
....................    return decima; 
04EF6:  MOVFF  448,01
.................... } 
04EFA:  MOVLB  0
04EFC:  RETLW  00
....................  
.................... int8 extraeDecimal(float data){ 
*
0630E:  MOVLB  4
06310:  CLRF   x4C
06312:  CLRF   x4B
06314:  CLRF   x4A
06316:  CLRF   x49
06318:  CLRF   x50
0631A:  CLRF   x4F
0631C:  CLRF   x4E
0631E:  CLRF   x4D
....................    float entero=0; 
....................    float tmp=0.0; 
....................     
....................    entero=(int8)data; 
06320:  MOVFF  448,457
06324:  MOVFF  447,456
06328:  MOVFF  446,455
0632C:  MOVFF  445,454
06330:  MOVLB  0
06332:  CALL   40F6
06336:  MOVLB  4
06338:  CLRF   x55
0633A:  MOVFF  01,454
0633E:  MOVLB  0
06340:  CALL   1AAC
06344:  MOVFF  03,44C
06348:  MOVFF  02,44B
0634C:  MOVFF  01,44A
06350:  MOVFF  00,449
....................    tmp=(data-entero)*10; 
06354:  BSF    FD8.1
06356:  MOVFF  448,457
0635A:  MOVFF  447,456
0635E:  MOVFF  446,455
06362:  MOVFF  445,454
06366:  MOVFF  44C,45B
0636A:  MOVFF  44B,45A
0636E:  MOVFF  44A,459
06372:  MOVFF  449,458
06376:  CALL   1C40
0637A:  MOVFF  00,451
0637E:  MOVFF  01,452
06382:  MOVFF  02,453
06386:  MOVFF  03,454
0638A:  MOVFF  03,45B
0638E:  MOVFF  02,45A
06392:  MOVFF  01,459
06396:  MOVFF  00,458
0639A:  MOVLB  4
0639C:  CLRF   x5F
0639E:  CLRF   x5E
063A0:  MOVLW  20
063A2:  MOVWF  x5D
063A4:  MOVLW  82
063A6:  MOVWF  x5C
063A8:  MOVLB  0
063AA:  CALL   39BE
063AE:  MOVFF  03,450
063B2:  MOVFF  02,44F
063B6:  MOVFF  01,44E
063BA:  MOVFF  00,44D
....................    return (int8)tmp; 
063BE:  MOVFF  450,457
063C2:  MOVFF  44F,456
063C6:  MOVFF  44E,455
063CA:  MOVFF  44D,454
063CE:  CALL   40F6
063D2:  MOVF   01,W
.................... } 
063D4:  GOTO   64E6 (RETURN)
....................  
.................... void actualizaTabla(){ 
....................    diaCiclos=read_ext_eeprom(2+(cicloVisto*320)); 
*
05060:  MOVLB  4
05062:  CLRF   x49
05064:  MOVFF  2E2,448
05068:  MOVLW  01
0506A:  MOVWF  x4B
0506C:  MOVLW  40
0506E:  MOVWF  x4A
05070:  MOVLB  0
05072:  CALL   399C
05076:  MOVFF  02,03
0507A:  MOVF   01,W
0507C:  ADDLW  02
0507E:  MOVLB  4
05080:  MOVWF  x3F
05082:  MOVLW  00
05084:  ADDWFC 02,W
05086:  MOVWF  x40
05088:  MOVWF  x45
0508A:  MOVFF  43F,444
0508E:  MOVLB  0
05090:  RCALL  4F6A
05092:  MOVFF  01,3C5
....................          if(diaCiclos>31) 
05096:  MOVLB  3
05098:  MOVF   xC5,W
0509A:  SUBLW  1F
0509C:  BC    50A2
....................             diaCiclos=1; 
0509E:  MOVLW  01
050A0:  MOVWF  xC5
....................          mesCiclos=read_ext_eeprom(3+(cicloVisto*320)); 
050A2:  MOVLB  4
050A4:  CLRF   x49
050A6:  MOVFF  2E2,448
050AA:  MOVLW  01
050AC:  MOVWF  x4B
050AE:  MOVLW  40
050B0:  MOVWF  x4A
050B2:  MOVLB  0
050B4:  CALL   399C
050B8:  MOVFF  02,03
050BC:  MOVF   01,W
050BE:  ADDLW  03
050C0:  MOVLB  4
050C2:  MOVWF  x3F
050C4:  MOVLW  00
050C6:  ADDWFC 02,W
050C8:  MOVWF  x40
050CA:  MOVWF  x45
050CC:  MOVFF  43F,444
050D0:  MOVLB  0
050D2:  RCALL  4F6A
050D4:  MOVFF  01,3C6
....................          if(mesCiclos>12) 
050D8:  MOVLB  3
050DA:  MOVF   xC6,W
050DC:  SUBLW  0C
050DE:  BC    50E4
....................             mesCiclos=1; 
050E0:  MOVLW  01
050E2:  MOVWF  xC6
....................          yearCiclos=read_ext_eeprom(4+(cicloVisto*320)); 
050E4:  MOVLB  4
050E6:  CLRF   x49
050E8:  MOVFF  2E2,448
050EC:  MOVLW  01
050EE:  MOVWF  x4B
050F0:  MOVLW  40
050F2:  MOVWF  x4A
050F4:  MOVLB  0
050F6:  CALL   399C
050FA:  MOVFF  02,03
050FE:  MOVF   01,W
05100:  ADDLW  04
05102:  MOVLB  4
05104:  MOVWF  x3F
05106:  MOVLW  00
05108:  ADDWFC 02,W
0510A:  MOVWF  x40
0510C:  MOVWF  x45
0510E:  MOVFF  43F,444
05112:  MOVLB  0
05114:  RCALL  4F6A
05116:  MOVFF  01,3C7
....................          if(yearCiclos>99) 
0511A:  MOVLB  3
0511C:  MOVF   xC7,W
0511E:  SUBLW  63
05120:  BC    5126
....................             yearCiclos=19; 
05122:  MOVLW  13
05124:  MOVWF  xC7
....................          cicloCiclos=read_ext_eeprom(1+(cicloVisto*320)); 
05126:  MOVLB  4
05128:  CLRF   x49
0512A:  MOVFF  2E2,448
0512E:  MOVLW  01
05130:  MOVWF  x4B
05132:  MOVLW  40
05134:  MOVWF  x4A
05136:  MOVLB  0
05138:  CALL   399C
0513C:  MOVFF  02,03
05140:  MOVF   01,W
05142:  ADDLW  01
05144:  MOVLB  4
05146:  MOVWF  x3F
05148:  MOVLW  00
0514A:  ADDWFC 02,W
0514C:  MOVWF  x40
0514E:  MOVWF  x45
05150:  MOVFF  43F,444
05154:  MOVLB  0
05156:  RCALL  4F6A
05158:  MOVFF  01,3C9
....................          if(cicloCiclos>20) 
0515C:  MOVLB  3
0515E:  MOVF   xC9,W
05160:  SUBLW  14
05162:  BC    5168
....................             cicloCiclos=1; 
05164:  MOVLW  01
05166:  MOVWF  xC9
....................          usuarioCiclos=read_ext_eeprom((cicloVisto*320)); 
05168:  MOVLB  4
0516A:  CLRF   x49
0516C:  MOVFF  2E2,448
05170:  MOVLW  01
05172:  MOVWF  x4B
05174:  MOVLW  40
05176:  MOVWF  x4A
05178:  MOVLB  0
0517A:  CALL   399C
0517E:  MOVFF  02,440
05182:  MOVFF  01,43F
05186:  MOVFF  02,445
0518A:  MOVFF  01,444
0518E:  RCALL  4F6A
05190:  MOVFF  01,3C8
....................          if(usuarioCiclos>10) 
05194:  MOVLB  3
05196:  MOVF   xC8,W
05198:  SUBLW  0A
0519A:  BC    51A0
....................             usuarioCiclos=1; 
0519C:  MOVLW  01
0519E:  MOVWF  xC8
....................          for(i=0;i<7;i++){//Lee Valores para completar la Tabla 
051A0:  CLRF   x61
051A2:  MOVF   x61,W
051A4:  SUBLW  06
051A6:  BTFSS  FD8.0
051A8:  BRA    56F0
....................             horaCiclos[i]=read_ext_eeprom((cicloVisto*320)+11+((cicloVisualizado+i)*9)); 
051AA:  CLRF   03
051AC:  MOVF   x61,W
051AE:  ADDLW  02
051B0:  MOVWF  01
051B2:  MOVLW  04
051B4:  ADDWFC 03,F
051B6:  MOVFF  01,43F
051BA:  MOVLB  4
051BC:  MOVFF  03,440
051C0:  CLRF   x49
051C2:  MOVFF  2E2,448
051C6:  MOVLW  01
051C8:  MOVWF  x4B
051CA:  MOVLW  40
051CC:  MOVWF  x4A
051CE:  MOVLB  0
051D0:  CALL   399C
051D4:  MOVFF  02,442
051D8:  MOVFF  01,441
051DC:  MOVLW  0B
051DE:  MOVLB  4
051E0:  ADDWF  x41,F
051E2:  MOVLW  00
051E4:  ADDWFC x42,F
051E6:  MOVLB  3
051E8:  MOVF   x61,W
051EA:  MOVLB  2
051EC:  ADDWF  xE3,W
051EE:  MULLW  09
051F0:  MOVF   FF3,W
051F2:  MOVLB  4
051F4:  ADDWF  x41,F
051F6:  MOVLW  00
051F8:  ADDWFC x42,F
051FA:  MOVFF  442,445
051FE:  MOVFF  441,444
05202:  MOVLB  0
05204:  RCALL  4F6A
05206:  MOVFF  440,FEA
0520A:  MOVFF  43F,FE9
0520E:  MOVFF  01,FEF
....................             if(horaCiclos[i]>24) 
05212:  CLRF   03
05214:  MOVLB  3
05216:  MOVF   x61,W
05218:  ADDLW  02
0521A:  MOVWF  FE9
0521C:  MOVLW  04
0521E:  ADDWFC 03,W
05220:  MOVWF  FEA
05222:  MOVF   FEF,W
05224:  SUBLW  18
05226:  BC    5238
....................                horaCiclos[i]=0; 
05228:  CLRF   03
0522A:  MOVF   x61,W
0522C:  ADDLW  02
0522E:  MOVWF  FE9
05230:  MOVLW  04
05232:  ADDWFC 03,W
05234:  MOVWF  FEA
05236:  CLRF   FEF
....................             minutoCiclos[i]=read_ext_eeprom((cicloVisto*320)+12+((cicloVisualizado+i)*9)); 
05238:  CLRF   03
0523A:  MOVF   x61,W
0523C:  ADDLW  09
0523E:  MOVWF  01
05240:  MOVLW  04
05242:  ADDWFC 03,F
05244:  MOVFF  01,43F
05248:  MOVLB  4
0524A:  MOVFF  03,440
0524E:  CLRF   x49
05250:  MOVFF  2E2,448
05254:  MOVLW  01
05256:  MOVWF  x4B
05258:  MOVLW  40
0525A:  MOVWF  x4A
0525C:  MOVLB  0
0525E:  CALL   399C
05262:  MOVFF  02,442
05266:  MOVFF  01,441
0526A:  MOVLW  0C
0526C:  MOVLB  4
0526E:  ADDWF  x41,F
05270:  MOVLW  00
05272:  ADDWFC x42,F
05274:  MOVLB  3
05276:  MOVF   x61,W
05278:  MOVLB  2
0527A:  ADDWF  xE3,W
0527C:  MULLW  09
0527E:  MOVF   FF3,W
05280:  MOVLB  4
05282:  ADDWF  x41,F
05284:  MOVLW  00
05286:  ADDWFC x42,F
05288:  MOVFF  442,445
0528C:  MOVFF  441,444
05290:  MOVLB  0
05292:  RCALL  4F6A
05294:  MOVFF  440,FEA
05298:  MOVFF  43F,FE9
0529C:  MOVFF  01,FEF
....................             if(minutoCiclos[i]>59) 
052A0:  CLRF   03
052A2:  MOVLB  3
052A4:  MOVF   x61,W
052A6:  ADDLW  09
052A8:  MOVWF  FE9
052AA:  MOVLW  04
052AC:  ADDWFC 03,W
052AE:  MOVWF  FEA
052B0:  MOVF   FEF,W
052B2:  SUBLW  3B
052B4:  BC    52C6
....................                minutoCiclos[i]=0; 
052B6:  CLRF   03
052B8:  MOVF   x61,W
052BA:  ADDLW  09
052BC:  MOVWF  FE9
052BE:  MOVLW  04
052C0:  ADDWFC 03,W
052C2:  MOVWF  FEA
052C4:  CLRF   FEF
....................             TCiclos[i]=read_ext_eeprom((cicloVisto*320)+5+((cicloVisualizado+i)*9))+inttofloat(read_ext_eeprom((cicloVisto*320)+6+((cicloVisualizado+i)*9))); 
052C6:  MOVF   x61,W
052C8:  MULLW  04
052CA:  MOVF   FF3,W
052CC:  CLRF   03
052CE:  ADDLW  CA
052D0:  MOVWF  01
052D2:  MOVLW  03
052D4:  ADDWFC 03,F
052D6:  MOVFF  01,43F
052DA:  MOVLB  4
052DC:  MOVFF  03,440
052E0:  CLRF   x49
052E2:  MOVFF  2E2,448
052E6:  MOVLW  01
052E8:  MOVWF  x4B
052EA:  MOVLW  40
052EC:  MOVWF  x4A
052EE:  MOVLB  0
052F0:  CALL   399C
052F4:  MOVFF  02,442
052F8:  MOVFF  01,441
052FC:  MOVLW  05
052FE:  MOVLB  4
05300:  ADDWF  x41,F
05302:  MOVLW  00
05304:  ADDWFC x42,F
05306:  MOVLB  3
05308:  MOVF   x61,W
0530A:  MOVLB  2
0530C:  ADDWF  xE3,W
0530E:  MULLW  09
05310:  MOVF   FF3,W
05312:  MOVLB  4
05314:  ADDWF  x41,F
05316:  MOVLW  00
05318:  ADDWFC x42,F
0531A:  MOVFF  442,445
0531E:  MOVFF  441,444
05322:  MOVLB  0
05324:  RCALL  4F6A
05326:  MOVFF  01,441
0532A:  MOVLB  4
0532C:  CLRF   x49
0532E:  MOVFF  2E2,448
05332:  MOVLW  01
05334:  MOVWF  x4B
05336:  MOVLW  40
05338:  MOVWF  x4A
0533A:  MOVLB  0
0533C:  CALL   399C
05340:  MOVFF  02,443
05344:  MOVFF  01,442
05348:  MOVLW  06
0534A:  MOVLB  4
0534C:  ADDWF  x42,F
0534E:  MOVLW  00
05350:  ADDWFC x43,F
05352:  MOVLB  3
05354:  MOVF   x61,W
05356:  MOVLB  2
05358:  ADDWF  xE3,W
0535A:  MULLW  09
0535C:  MOVF   FF3,W
0535E:  MOVLB  4
05360:  ADDWF  x42,F
05362:  MOVLW  00
05364:  ADDWFC x43,F
05366:  MOVFF  443,445
0536A:  MOVFF  442,444
0536E:  MOVLB  0
05370:  RCALL  4F6A
05372:  MOVFF  01,442
05376:  MOVFF  01,443
0537A:  BRA    501A
0537C:  MOVFF  00,442
05380:  MOVFF  01,443
05384:  MOVFF  02,444
05388:  MOVFF  03,445
0538C:  MOVLB  4
0538E:  CLRF   x55
05390:  MOVFF  441,454
05394:  MOVLB  0
05396:  CALL   1AAC
0539A:  MOVFF  FEA,447
0539E:  MOVFF  FE9,446
053A2:  BCF    FD8.1
053A4:  MOVFF  03,457
053A8:  MOVFF  02,456
053AC:  MOVFF  01,455
053B0:  MOVFF  00,454
053B4:  MOVFF  445,45B
053B8:  MOVFF  444,45A
053BC:  MOVFF  443,459
053C0:  MOVFF  442,458
053C4:  CALL   1C40
053C8:  MOVFF  447,FEA
053CC:  MOVFF  446,FE9
053D0:  MOVFF  440,FEA
053D4:  MOVFF  43F,FE9
053D8:  MOVFF  00,FEF
053DC:  MOVFF  01,FEC
053E0:  MOVFF  02,FEC
053E4:  MOVFF  03,FEC
....................             if(TCiclos[i]>150) 
053E8:  MOVLB  3
053EA:  MOVF   x61,W
053EC:  MULLW  04
053EE:  MOVF   FF3,W
053F0:  CLRF   03
053F2:  ADDLW  CA
053F4:  MOVWF  FE9
053F6:  MOVLW  03
053F8:  ADDWFC 03,W
053FA:  MOVWF  FEA
053FC:  MOVFF  FEF,43F
05400:  MOVFF  FEC,440
05404:  MOVFF  FEC,441
05408:  MOVFF  FEC,442
0540C:  MOVLB  4
0540E:  CLRF   x46
05410:  CLRF   x45
05412:  MOVLW  16
05414:  MOVWF  x44
05416:  MOVLW  86
05418:  MOVWF  x43
0541A:  MOVFF  442,44A
0541E:  MOVFF  441,449
05422:  MOVFF  440,448
05426:  MOVFF  43F,447
0542A:  MOVLB  0
0542C:  CALL   2D88
05430:  BNC   5450
....................                TCiclos[i]=0; 
05432:  MOVLB  3
05434:  MOVF   x61,W
05436:  MULLW  04
05438:  MOVF   FF3,W
0543A:  CLRF   03
0543C:  ADDLW  CA
0543E:  MOVWF  FE9
05440:  MOVLW  03
05442:  ADDWFC 03,W
05444:  MOVWF  FEA
05446:  CLRF   FEF
05448:  CLRF   FEC
0544A:  CLRF   FEC
0544C:  CLRF   FEC
0544E:  MOVLB  0
....................             PcCiclos[i]=make16(read_ext_eeprom((cicloVisto*320)+7+((cicloVisualizado+i)*9)),read_ext_eeprom((cicloVisto*320)+8+((cicloVisualizado+i)*9))); 
05450:  BCF    FD8.0
05452:  MOVLB  3
05454:  RLCF   x61,W
05456:  CLRF   03
05458:  ADDLW  E6
0545A:  MOVWF  01
0545C:  MOVLW  03
0545E:  ADDWFC 03,F
05460:  MOVFF  01,43F
05464:  MOVLB  4
05466:  MOVFF  03,440
0546A:  CLRF   x49
0546C:  MOVFF  2E2,448
05470:  MOVLW  01
05472:  MOVWF  x4B
05474:  MOVLW  40
05476:  MOVWF  x4A
05478:  MOVLB  0
0547A:  CALL   399C
0547E:  MOVFF  02,442
05482:  MOVFF  01,441
05486:  MOVLW  07
05488:  MOVLB  4
0548A:  ADDWF  x41,F
0548C:  MOVLW  00
0548E:  ADDWFC x42,F
05490:  MOVLB  3
05492:  MOVF   x61,W
05494:  MOVLB  2
05496:  ADDWF  xE3,W
05498:  MULLW  09
0549A:  MOVF   FF3,W
0549C:  MOVLB  4
0549E:  ADDWF  x41,F
054A0:  MOVLW  00
054A2:  ADDWFC x42,F
054A4:  MOVFF  442,445
054A8:  MOVFF  441,444
054AC:  MOVLB  0
054AE:  RCALL  4F6A
054B0:  MOVFF  01,441
054B4:  MOVLB  4
054B6:  CLRF   x49
054B8:  MOVFF  2E2,448
054BC:  MOVLW  01
054BE:  MOVWF  x4B
054C0:  MOVLW  40
054C2:  MOVWF  x4A
054C4:  MOVLB  0
054C6:  CALL   399C
054CA:  MOVFF  02,443
054CE:  MOVFF  01,442
054D2:  MOVLW  08
054D4:  MOVLB  4
054D6:  ADDWF  x42,F
054D8:  MOVLW  00
054DA:  ADDWFC x43,F
054DC:  MOVLB  3
054DE:  MOVF   x61,W
054E0:  MOVLB  2
054E2:  ADDWF  xE3,W
054E4:  MULLW  09
054E6:  MOVF   FF3,W
054E8:  MOVLB  4
054EA:  ADDWF  x42,F
054EC:  MOVLW  00
054EE:  ADDWFC x43,F
054F0:  MOVFF  443,445
054F4:  MOVFF  442,444
054F8:  MOVLB  0
054FA:  RCALL  4F6A
054FC:  MOVFF  440,FEA
05500:  MOVFF  43F,FE9
05504:  MOVFF  441,FEC
05508:  MOVF   FED,F
0550A:  MOVFF  01,FEF
....................             if(PcCiclos[i]>400) 
0550E:  BCF    FD8.0
05510:  MOVLB  3
05512:  RLCF   x61,W
05514:  CLRF   03
05516:  ADDLW  E6
05518:  MOVWF  FE9
0551A:  MOVLW  03
0551C:  ADDWFC 03,W
0551E:  MOVWF  FEA
05520:  MOVFF  FEC,440
05524:  MOVF   FED,F
05526:  MOVFF  FEF,43F
0552A:  MOVLB  4
0552C:  MOVF   x40,W
0552E:  SUBLW  00
05530:  BC    5556
05532:  XORLW  FF
05534:  BNZ   553C
05536:  MOVF   x3F,W
05538:  SUBLW  90
0553A:  BC    5556
....................                PcCiclos[i]=0; 
0553C:  BCF    FD8.0
0553E:  MOVLB  3
05540:  RLCF   x61,W
05542:  CLRF   03
05544:  ADDLW  E6
05546:  MOVWF  FE9
05548:  MOVLW  03
0554A:  ADDWFC 03,W
0554C:  MOVWF  FEA
0554E:  CLRF   FEC
05550:  MOVF   FED,F
05552:  CLRF   FEF
05554:  MOVLB  4
....................             PpcCiclos[i]=make16(read_ext_eeprom((cicloVisto*320)+9+((cicloVisualizado+i)*9)),read_ext_eeprom((cicloVisto*320)+10+((cicloVisualizado+i)*9))); 
05556:  BCF    FD8.0
05558:  MOVLB  3
0555A:  RLCF   x61,W
0555C:  CLRF   03
0555E:  ADDLW  F4
05560:  MOVWF  01
05562:  MOVLW  03
05564:  ADDWFC 03,F
05566:  MOVFF  01,43F
0556A:  MOVLB  4
0556C:  MOVFF  03,440
05570:  CLRF   x49
05572:  MOVFF  2E2,448
05576:  MOVLW  01
05578:  MOVWF  x4B
0557A:  MOVLW  40
0557C:  MOVWF  x4A
0557E:  MOVLB  0
05580:  CALL   399C
05584:  MOVFF  02,442
05588:  MOVFF  01,441
0558C:  MOVLW  09
0558E:  MOVLB  4
05590:  ADDWF  x41,F
05592:  MOVLW  00
05594:  ADDWFC x42,F
05596:  MOVLB  3
05598:  MOVF   x61,W
0559A:  MOVLB  2
0559C:  ADDWF  xE3,W
0559E:  MULLW  09
055A0:  MOVF   FF3,W
055A2:  MOVLB  4
055A4:  ADDWF  x41,F
055A6:  MOVLW  00
055A8:  ADDWFC x42,F
055AA:  MOVFF  442,445
055AE:  MOVFF  441,444
055B2:  MOVLB  0
055B4:  RCALL  4F6A
055B6:  MOVFF  01,441
055BA:  MOVLB  4
055BC:  CLRF   x49
055BE:  MOVFF  2E2,448
055C2:  MOVLW  01
055C4:  MOVWF  x4B
055C6:  MOVLW  40
055C8:  MOVWF  x4A
055CA:  MOVLB  0
055CC:  CALL   399C
055D0:  MOVFF  02,443
055D4:  MOVFF  01,442
055D8:  MOVLW  0A
055DA:  MOVLB  4
055DC:  ADDWF  x42,F
055DE:  MOVLW  00
055E0:  ADDWFC x43,F
055E2:  MOVLB  3
055E4:  MOVF   x61,W
055E6:  MOVLB  2
055E8:  ADDWF  xE3,W
055EA:  MULLW  09
055EC:  MOVF   FF3,W
055EE:  MOVLB  4
055F0:  ADDWF  x42,F
055F2:  MOVLW  00
055F4:  ADDWFC x43,F
055F6:  MOVFF  443,445
055FA:  MOVFF  442,444
055FE:  MOVLB  0
05600:  RCALL  4F6A
05602:  MOVFF  440,FEA
05606:  MOVFF  43F,FE9
0560A:  MOVFF  441,FEC
0560E:  MOVF   FED,F
05610:  MOVFF  01,FEF
....................             if(PpcCiclos[i]>400) 
05614:  BCF    FD8.0
05616:  MOVLB  3
05618:  RLCF   x61,W
0561A:  CLRF   03
0561C:  ADDLW  F4
0561E:  MOVWF  FE9
05620:  MOVLW  03
05622:  ADDWFC 03,W
05624:  MOVWF  FEA
05626:  MOVFF  FEC,440
0562A:  MOVF   FED,F
0562C:  MOVFF  FEF,43F
05630:  MOVLB  4
05632:  MOVF   x40,W
05634:  SUBLW  00
05636:  BC    565C
05638:  XORLW  FF
0563A:  BNZ   5642
0563C:  MOVF   x3F,W
0563E:  SUBLW  90
05640:  BC    565C
....................                PpcCiclos[i]=0; 
05642:  BCF    FD8.0
05644:  MOVLB  3
05646:  RLCF   x61,W
05648:  CLRF   03
0564A:  ADDLW  F4
0564C:  MOVWF  FE9
0564E:  MOVLW  03
05650:  ADDWFC 03,W
05652:  MOVWF  FEA
05654:  CLRF   FEC
05656:  MOVF   FED,F
05658:  CLRF   FEF
0565A:  MOVLB  4
....................             ACiclos[i]=read_ext_eeprom((cicloVisto*320)+13+((cicloVisualizado+i)*9)); 
0565C:  CLRF   03
0565E:  MOVLB  3
05660:  MOVF   x61,W
05662:  ADDLW  10
05664:  MOVWF  01
05666:  MOVLW  04
05668:  ADDWFC 03,F
0566A:  MOVFF  01,43F
0566E:  MOVLB  4
05670:  MOVFF  03,440
05674:  CLRF   x49
05676:  MOVFF  2E2,448
0567A:  MOVLW  01
0567C:  MOVWF  x4B
0567E:  MOVLW  40
05680:  MOVWF  x4A
05682:  MOVLB  0
05684:  CALL   399C
05688:  MOVFF  02,442
0568C:  MOVFF  01,441
05690:  MOVLW  0D
05692:  MOVLB  4
05694:  ADDWF  x41,F
05696:  MOVLW  00
05698:  ADDWFC x42,F
0569A:  MOVLB  3
0569C:  MOVF   x61,W
0569E:  MOVLB  2
056A0:  ADDWF  xE3,W
056A2:  MULLW  09
056A4:  MOVF   FF3,W
056A6:  MOVLB  4
056A8:  ADDWF  x41,F
056AA:  MOVLW  00
056AC:  ADDWFC x42,F
056AE:  MOVFF  442,445
056B2:  MOVFF  441,444
056B6:  MOVLB  0
056B8:  RCALL  4F6A
056BA:  MOVFF  440,FEA
056BE:  MOVFF  43F,FE9
056C2:  MOVFF  01,FEF
....................             if(ACiclos[i]>30) 
056C6:  CLRF   03
056C8:  MOVLB  3
056CA:  MOVF   x61,W
056CC:  ADDLW  10
056CE:  MOVWF  FE9
056D0:  MOVLW  04
056D2:  ADDWFC 03,W
056D4:  MOVWF  FEA
056D6:  MOVF   FEF,W
056D8:  SUBLW  1E
056DA:  BC    56EC
....................                ACiclos[i]=0; 
056DC:  CLRF   03
056DE:  MOVF   x61,W
056E0:  ADDLW  10
056E2:  MOVWF  FE9
056E4:  MOVLW  04
056E6:  ADDWFC 03,W
056E8:  MOVWF  FEA
056EA:  CLRF   FEF
....................          } 
056EC:  INCF   x61,F
056EE:  BRA    51A2
.................... } 
056F0:  MOVLB  0
056F2:  RETLW  00
.................... void GuardaDatoEstatico(){ 
*
0611C:  MOVLB  4
0611E:  CLRF   x40
06120:  CLRF   x3F
06122:  CLRF   x42
06124:  CLRF   x41
....................    int16 posCiclo=0,cicloMemoria=0; 
....................    posCiclo=Ciclos/200; 
06126:  MOVFF  37C,444
0612A:  MOVFF  37B,443
0612E:  CLRF   x46
06130:  MOVLW  C8
06132:  MOVWF  x45
06134:  MOVLB  0
06136:  CALL   4CB8
0613A:  MOVFF  02,440
0613E:  MOVFF  01,43F
....................    cicloMemoria=Ciclos-(posCiclo*200); 
06142:  MOVFF  440,449
06146:  MOVFF  43F,448
0614A:  MOVLB  4
0614C:  CLRF   x4B
0614E:  MOVLW  C8
06150:  MOVWF  x4A
06152:  MOVLB  0
06154:  CALL   399C
06158:  MOVF   01,W
0615A:  MOVLB  3
0615C:  SUBWF  x7B,W
0615E:  MOVLB  4
06160:  MOVWF  x41
06162:  MOVF   02,W
06164:  MOVLB  3
06166:  SUBWFB x7C,W
06168:  MOVLB  4
0616A:  MOVWF  x42
....................    if(!disp_Guarda){ 
0616C:  MOVLB  0
0616E:  BTFSC  xA4.0
06170:  BRA    630A
....................       write_ext_eeprom(cicloMemoria*320,1); 
06172:  MOVFF  442,449
06176:  MOVFF  441,448
0617A:  MOVLW  01
0617C:  MOVLB  4
0617E:  MOVWF  x4B
06180:  MOVLW  40
06182:  MOVWF  x4A
06184:  MOVLB  0
06186:  CALL   399C
0618A:  MOVFF  02,444
0618E:  MOVFF  01,443
06192:  MOVFF  02,447
06196:  MOVFF  01,446
0619A:  MOVLW  01
0619C:  MOVLB  4
0619E:  MOVWF  x48
061A0:  MOVLB  0
061A2:  RCALL  6010
....................       delay_ms(10); 
061A4:  MOVLW  0A
061A6:  MOVLB  4
061A8:  MOVWF  x54
061AA:  MOVLB  0
061AC:  CALL   1A84
....................       if(!Libre) 
061B0:  BTFSC  xA3.4
061B2:  BRA    61EE
....................          write_ext_eeprom(1+(cicloMemoria*320),CicloSeleccionado); 
061B4:  MOVFF  442,449
061B8:  MOVFF  441,448
061BC:  MOVLW  01
061BE:  MOVLB  4
061C0:  MOVWF  x4B
061C2:  MOVLW  40
061C4:  MOVWF  x4A
061C6:  MOVLB  0
061C8:  CALL   399C
061CC:  MOVFF  02,03
061D0:  MOVF   01,W
061D2:  ADDLW  01
061D4:  MOVLB  4
061D6:  MOVWF  x43
061D8:  MOVLW  00
061DA:  ADDWFC 02,W
061DC:  MOVWF  x44
061DE:  MOVWF  x47
061E0:  MOVFF  443,446
061E4:  MOVFF  364,448
061E8:  MOVLB  0
061EA:  RCALL  6010
....................       else 
061EC:  BRA    6230
....................          write_ext_eeprom(1+(cicloMemoria*320),CicloLibre+4); 
061EE:  MOVFF  442,449
061F2:  MOVFF  441,448
061F6:  MOVLW  01
061F8:  MOVLB  4
061FA:  MOVWF  x4B
061FC:  MOVLW  40
061FE:  MOVWF  x4A
06200:  MOVLB  0
06202:  CALL   399C
06206:  MOVFF  02,03
0620A:  MOVF   01,W
0620C:  ADDLW  01
0620E:  MOVLB  4
06210:  MOVWF  x43
06212:  MOVLW  00
06214:  ADDWFC 02,W
06216:  MOVWF  x44
06218:  MOVLW  04
0621A:  MOVLB  3
0621C:  ADDWF  x3E,W
0621E:  MOVLB  4
06220:  MOVWF  x45
06222:  MOVFF  444,447
06226:  MOVFF  443,446
0622A:  MOVWF  x48
0622C:  MOVLB  0
0622E:  RCALL  6010
....................       delay_ms(10); 
06230:  MOVLW  0A
06232:  MOVLB  4
06234:  MOVWF  x54
06236:  MOVLB  0
06238:  CALL   1A84
....................       write_ext_eeprom(2+(cicloMemoria*320),Dia); 
0623C:  MOVFF  442,449
06240:  MOVFF  441,448
06244:  MOVLW  01
06246:  MOVLB  4
06248:  MOVWF  x4B
0624A:  MOVLW  40
0624C:  MOVWF  x4A
0624E:  MOVLB  0
06250:  CALL   399C
06254:  MOVFF  02,03
06258:  MOVF   01,W
0625A:  ADDLW  02
0625C:  MOVLB  4
0625E:  MOVWF  x43
06260:  MOVLW  00
06262:  ADDWFC 02,W
06264:  MOVWF  x44
06266:  MOVWF  x47
06268:  MOVFF  443,446
0626C:  MOVFF  3A0,448
06270:  MOVLB  0
06272:  RCALL  6010
....................       delay_ms(10); 
06274:  MOVLW  0A
06276:  MOVLB  4
06278:  MOVWF  x54
0627A:  MOVLB  0
0627C:  CALL   1A84
....................       write_ext_eeprom(3+(cicloMemoria*320),Mes); 
06280:  MOVFF  442,449
06284:  MOVFF  441,448
06288:  MOVLW  01
0628A:  MOVLB  4
0628C:  MOVWF  x4B
0628E:  MOVLW  40
06290:  MOVWF  x4A
06292:  MOVLB  0
06294:  CALL   399C
06298:  MOVFF  02,03
0629C:  MOVF   01,W
0629E:  ADDLW  03
062A0:  MOVLB  4
062A2:  MOVWF  x43
062A4:  MOVLW  00
062A6:  ADDWFC 02,W
062A8:  MOVWF  x44
062AA:  MOVWF  x47
062AC:  MOVFF  443,446
062B0:  MOVFF  39F,448
062B4:  MOVLB  0
062B6:  RCALL  6010
....................       delay_ms(10); 
062B8:  MOVLW  0A
062BA:  MOVLB  4
062BC:  MOVWF  x54
062BE:  MOVLB  0
062C0:  CALL   1A84
....................       write_ext_eeprom(4+(cicloMemoria*320),Year); 
062C4:  MOVFF  442,449
062C8:  MOVFF  441,448
062CC:  MOVLW  01
062CE:  MOVLB  4
062D0:  MOVWF  x4B
062D2:  MOVLW  40
062D4:  MOVWF  x4A
062D6:  MOVLB  0
062D8:  CALL   399C
062DC:  MOVFF  02,03
062E0:  MOVF   01,W
062E2:  ADDLW  04
062E4:  MOVLB  4
062E6:  MOVWF  x43
062E8:  MOVLW  00
062EA:  ADDWFC 02,W
062EC:  MOVWF  x44
062EE:  MOVWF  x47
062F0:  MOVFF  443,446
062F4:  MOVFF  39E,448
062F8:  MOVLB  0
062FA:  RCALL  6010
....................       delay_ms(10);  
062FC:  MOVLW  0A
062FE:  MOVLB  4
06300:  MOVWF  x54
06302:  MOVLB  0
06304:  CALL   1A84
....................       disp_Guarda=1; 
06308:  BSF    xA4.0
....................    }    
.................... } 
0630A:  GOTO   BDEA (RETURN)
....................  
.................... void GuardaDatoCiclo(){ 
*
063D8:  MOVLB  4
063DA:  CLRF   x40
063DC:  CLRF   x3F
063DE:  CLRF   x42
063E0:  CLRF   x41
....................    int16 posCiclo=0,cicloMemoria=0; 
....................    posCiclo=Ciclos/200; 
063E2:  MOVFF  37C,444
063E6:  MOVFF  37B,443
063EA:  CLRF   x46
063EC:  MOVLW  C8
063EE:  MOVWF  x45
063F0:  MOVLB  0
063F2:  CALL   4CB8
063F6:  MOVFF  02,440
063FA:  MOVFF  01,43F
....................    if(!Ciclo){ 
063FE:  BTFSC  xA1.3
06400:  BRA    6778
....................       cicloMemoria=Ciclos-(posCiclo*200); 
06402:  MOVFF  440,449
06406:  MOVFF  43F,448
0640A:  MOVLB  4
0640C:  CLRF   x4B
0640E:  MOVLW  C8
06410:  MOVWF  x4A
06412:  MOVLB  0
06414:  CALL   399C
06418:  MOVF   01,W
0641A:  MOVLB  3
0641C:  SUBWF  x7B,W
0641E:  MOVLB  4
06420:  MOVWF  x41
06422:  MOVF   02,W
06424:  MOVLB  3
06426:  SUBWFB x7C,W
06428:  MOVLB  4
0642A:  MOVWF  x42
....................       write_ext_eeprom(5+(cicloMemoria*320)+(posicionDato*9),(int8)Temperatura); 
0642C:  MOVFF  442,449
06430:  MOVFF  441,448
06434:  MOVLW  01
06436:  MOVWF  x4B
06438:  MOVLW  40
0643A:  MOVWF  x4A
0643C:  MOVLB  0
0643E:  CALL   399C
06442:  MOVFF  02,03
06446:  MOVF   01,W
06448:  ADDLW  05
0644A:  MOVLB  4
0644C:  MOVWF  x43
0644E:  MOVLW  00
06450:  ADDWFC 02,W
06452:  MOVWF  x44
06454:  MOVLB  2
06456:  MOVF   xE4,W
06458:  MULLW  09
0645A:  MOVF   FF3,W
0645C:  MOVLB  4
0645E:  ADDWF  x43,F
06460:  MOVLW  00
06462:  ADDWFC x44,F
06464:  MOVFF  32B,457
06468:  MOVFF  32A,456
0646C:  MOVFF  329,455
06470:  MOVFF  328,454
06474:  MOVLB  0
06476:  CALL   40F6
0647A:  MOVFF  01,445
0647E:  MOVFF  444,447
06482:  MOVFF  443,446
06486:  MOVFF  01,448
0648A:  RCALL  6010
....................       delay_ms(10); 
0648C:  MOVLW  0A
0648E:  MOVLB  4
06490:  MOVWF  x54
06492:  MOVLB  0
06494:  CALL   1A84
....................       write_ext_eeprom(6+(cicloMemoria*320)+(posicionDato*9),extraeDecimal(Temperatura)); 
06498:  MOVFF  442,449
0649C:  MOVFF  441,448
064A0:  MOVLW  01
064A2:  MOVLB  4
064A4:  MOVWF  x4B
064A6:  MOVLW  40
064A8:  MOVWF  x4A
064AA:  MOVLB  0
064AC:  CALL   399C
064B0:  MOVFF  02,03
064B4:  MOVF   01,W
064B6:  ADDLW  06
064B8:  MOVLB  4
064BA:  MOVWF  x43
064BC:  MOVLW  00
064BE:  ADDWFC 02,W
064C0:  MOVWF  x44
064C2:  MOVLB  2
064C4:  MOVF   xE4,W
064C6:  MULLW  09
064C8:  MOVF   FF3,W
064CA:  MOVLB  4
064CC:  ADDWF  x43,F
064CE:  MOVLW  00
064D0:  ADDWFC x44,F
064D2:  MOVFF  32B,448
064D6:  MOVFF  32A,447
064DA:  MOVFF  329,446
064DE:  MOVFF  328,445
064E2:  MOVLB  0
064E4:  BRA    630E
064E6:  MOVFF  01,445
064EA:  MOVFF  444,447
064EE:  MOVFF  443,446
064F2:  MOVFF  01,448
064F6:  RCALL  6010
....................       delay_ms(10); 
064F8:  MOVLW  0A
064FA:  MOVLB  4
064FC:  MOVWF  x54
064FE:  MOVLB  0
06500:  CALL   1A84
....................       write_ext_eeprom(7+(cicloMemoria*320)+(posicionDato*9),make8(PresionCamara,1)); 
06504:  MOVFF  442,449
06508:  MOVFF  441,448
0650C:  MOVLW  01
0650E:  MOVLB  4
06510:  MOVWF  x4B
06512:  MOVLW  40
06514:  MOVWF  x4A
06516:  MOVLB  0
06518:  CALL   399C
0651C:  MOVFF  02,03
06520:  MOVF   01,W
06522:  ADDLW  07
06524:  MOVLB  4
06526:  MOVWF  x43
06528:  MOVLW  00
0652A:  ADDWFC 02,W
0652C:  MOVWF  x44
0652E:  MOVLB  2
06530:  MOVF   xE4,W
06532:  MULLW  09
06534:  MOVF   FF3,W
06536:  MOVLB  4
06538:  ADDWF  x43,F
0653A:  MOVLW  00
0653C:  ADDWFC x44,F
0653E:  MOVFF  378,445
06542:  MOVFF  444,447
06546:  MOVFF  443,446
0654A:  MOVFF  378,448
0654E:  MOVLB  0
06550:  RCALL  6010
....................       delay_ms(10); 
06552:  MOVLW  0A
06554:  MOVLB  4
06556:  MOVWF  x54
06558:  MOVLB  0
0655A:  CALL   1A84
....................       write_ext_eeprom(8+(cicloMemoria*320)+(posicionDato*9),make8(PresionCamara,0)); 
0655E:  MOVFF  442,449
06562:  MOVFF  441,448
06566:  MOVLW  01
06568:  MOVLB  4
0656A:  MOVWF  x4B
0656C:  MOVLW  40
0656E:  MOVWF  x4A
06570:  MOVLB  0
06572:  CALL   399C
06576:  MOVFF  02,03
0657A:  MOVF   01,W
0657C:  ADDLW  08
0657E:  MOVLB  4
06580:  MOVWF  x43
06582:  MOVLW  00
06584:  ADDWFC 02,W
06586:  MOVWF  x44
06588:  MOVLB  2
0658A:  MOVF   xE4,W
0658C:  MULLW  09
0658E:  MOVF   FF3,W
06590:  MOVLB  4
06592:  ADDWF  x43,F
06594:  MOVLW  00
06596:  ADDWFC x44,F
06598:  MOVFF  377,445
0659C:  MOVFF  444,447
065A0:  MOVFF  443,446
065A4:  MOVFF  377,448
065A8:  MOVLB  0
065AA:  RCALL  6010
....................       delay_ms(10); 
065AC:  MOVLW  0A
065AE:  MOVLB  4
065B0:  MOVWF  x54
065B2:  MOVLB  0
065B4:  CALL   1A84
....................       write_ext_eeprom(9+(cicloMemoria*320)+(posicionDato*9),make8(PresionPreCamara,1)); 
065B8:  MOVFF  442,449
065BC:  MOVFF  441,448
065C0:  MOVLW  01
065C2:  MOVLB  4
065C4:  MOVWF  x4B
065C6:  MOVLW  40
065C8:  MOVWF  x4A
065CA:  MOVLB  0
065CC:  CALL   399C
065D0:  MOVFF  02,03
065D4:  MOVF   01,W
065D6:  ADDLW  09
065D8:  MOVLB  4
065DA:  MOVWF  x43
065DC:  MOVLW  00
065DE:  ADDWFC 02,W
065E0:  MOVWF  x44
065E2:  MOVLB  2
065E4:  MOVF   xE4,W
065E6:  MULLW  09
065E8:  MOVF   FF3,W
065EA:  MOVLB  4
065EC:  ADDWF  x43,F
065EE:  MOVLW  00
065F0:  ADDWFC x44,F
065F2:  MOVFF  37A,445
065F6:  MOVFF  444,447
065FA:  MOVFF  443,446
065FE:  MOVFF  37A,448
06602:  MOVLB  0
06604:  RCALL  6010
....................       delay_ms(10); 
06606:  MOVLW  0A
06608:  MOVLB  4
0660A:  MOVWF  x54
0660C:  MOVLB  0
0660E:  CALL   1A84
....................       write_ext_eeprom(10+(cicloMemoria*320)+(posicionDato*9),make8(PresionPreCamara,0)); 
06612:  MOVFF  442,449
06616:  MOVFF  441,448
0661A:  MOVLW  01
0661C:  MOVLB  4
0661E:  MOVWF  x4B
06620:  MOVLW  40
06622:  MOVWF  x4A
06624:  MOVLB  0
06626:  CALL   399C
0662A:  MOVFF  02,03
0662E:  MOVF   01,W
06630:  ADDLW  0A
06632:  MOVLB  4
06634:  MOVWF  x43
06636:  MOVLW  00
06638:  ADDWFC 02,W
0663A:  MOVWF  x44
0663C:  MOVLB  2
0663E:  MOVF   xE4,W
06640:  MULLW  09
06642:  MOVF   FF3,W
06644:  MOVLB  4
06646:  ADDWF  x43,F
06648:  MOVLW  00
0664A:  ADDWFC x44,F
0664C:  MOVFF  379,445
06650:  MOVFF  444,447
06654:  MOVFF  443,446
06658:  MOVFF  379,448
0665C:  MOVLB  0
0665E:  RCALL  6010
....................       delay_ms(10); 
06660:  MOVLW  0A
06662:  MOVLB  4
06664:  MOVWF  x54
06666:  MOVLB  0
06668:  CALL   1A84
....................       write_ext_eeprom(11+(cicloMemoria*320)+(posicionDato*9),Hora); 
0666C:  MOVFF  442,449
06670:  MOVFF  441,448
06674:  MOVLW  01
06676:  MOVLB  4
06678:  MOVWF  x4B
0667A:  MOVLW  40
0667C:  MOVWF  x4A
0667E:  MOVLB  0
06680:  CALL   399C
06684:  MOVFF  02,03
06688:  MOVF   01,W
0668A:  ADDLW  0B
0668C:  MOVLB  4
0668E:  MOVWF  x43
06690:  MOVLW  00
06692:  ADDWFC 02,W
06694:  MOVWF  x44
06696:  MOVLB  2
06698:  MOVF   xE4,W
0669A:  MULLW  09
0669C:  MOVF   FF3,W
0669E:  MOVLB  4
066A0:  ADDWF  x43,F
066A2:  MOVLW  00
066A4:  ADDWFC x44,F
066A6:  MOVFF  444,447
066AA:  MOVFF  443,446
066AE:  MOVFF  3A1,448
066B2:  MOVLB  0
066B4:  RCALL  6010
....................       delay_ms(10); 
066B6:  MOVLW  0A
066B8:  MOVLB  4
066BA:  MOVWF  x54
066BC:  MOVLB  0
066BE:  CALL   1A84
....................       write_ext_eeprom(12+(cicloMemoria*320)+(posicionDato*9),Minuto); 
066C2:  MOVFF  442,449
066C6:  MOVFF  441,448
066CA:  MOVLW  01
066CC:  MOVLB  4
066CE:  MOVWF  x4B
066D0:  MOVLW  40
066D2:  MOVWF  x4A
066D4:  MOVLB  0
066D6:  CALL   399C
066DA:  MOVFF  02,03
066DE:  MOVF   01,W
066E0:  ADDLW  0C
066E2:  MOVLB  4
066E4:  MOVWF  x43
066E6:  MOVLW  00
066E8:  ADDWFC 02,W
066EA:  MOVWF  x44
066EC:  MOVLB  2
066EE:  MOVF   xE4,W
066F0:  MULLW  09
066F2:  MOVF   FF3,W
066F4:  MOVLB  4
066F6:  ADDWF  x43,F
066F8:  MOVLW  00
066FA:  ADDWFC x44,F
066FC:  MOVFF  444,447
06700:  MOVFF  443,446
06704:  MOVFF  3A2,448
06708:  MOVLB  0
0670A:  RCALL  6010
....................       delay_ms(10); 
0670C:  MOVLW  0A
0670E:  MOVLB  4
06710:  MOVWF  x54
06712:  MOVLB  0
06714:  CALL   1A84
....................       write_ext_eeprom(13+(cicloMemoria*320)+(posicionDato*9),codigoAlarma); 
06718:  MOVFF  442,449
0671C:  MOVFF  441,448
06720:  MOVLW  01
06722:  MOVLB  4
06724:  MOVWF  x4B
06726:  MOVLW  40
06728:  MOVWF  x4A
0672A:  MOVLB  0
0672C:  CALL   399C
06730:  MOVFF  02,03
06734:  MOVF   01,W
06736:  ADDLW  0D
06738:  MOVLB  4
0673A:  MOVWF  x43
0673C:  MOVLW  00
0673E:  ADDWFC 02,W
06740:  MOVWF  x44
06742:  MOVLB  2
06744:  MOVF   xE4,W
06746:  MULLW  09
06748:  MOVF   FF3,W
0674A:  MOVLB  4
0674C:  ADDWF  x43,F
0674E:  MOVLW  00
06750:  ADDWFC x44,F
06752:  MOVFF  444,447
06756:  MOVFF  443,446
0675A:  MOVFF  2E6,448
0675E:  MOVLB  0
06760:  RCALL  6010
....................       delay_ms(10); 
06762:  MOVLW  0A
06764:  MOVLB  4
06766:  MOVWF  x54
06768:  MOVLB  0
0676A:  CALL   1A84
....................     
....................       if(posicionDato<35) 
0676E:  MOVLB  2
06770:  MOVF   xE4,W
06772:  SUBLW  22
06774:  BNC   6778
....................          ++posicionDato; 
06776:  INCF   xE4,F
06778:  MOVLB  0
....................    } 
.................... } 
0677A:  RETLW  00
....................  
.................... void incrementaCiclos(){ 
....................    if(!Ciclo){ 
0677C:  BTFSC  xA1.3
0677E:  BRA    6806
....................       Ciclo=ON; 
06780:  BSF    xA1.3
....................       Ciclos++; 
06782:  MOVLB  3
06784:  INCF   x7B,F
06786:  BTFSC  FD8.2
06788:  INCF   x7C,F
....................       CiclosL=make8(Ciclos,0); 
0678A:  MOVFF  37B,362
....................       CiclosH=make8(Ciclos,1); 
0678E:  MOVFF  37C,363
....................       write_eeprom(37,CiclosL); 
06792:  CLRF   FAA
06794:  MOVLW  25
06796:  MOVWF  FA9
06798:  MOVFF  362,FA8
0679C:  BCF    FA6.6
0679E:  BCF    FA6.7
067A0:  BSF    FA6.2
067A2:  MOVF   FF2,W
067A4:  MOVWF  00
067A6:  BCF    FF2.6
067A8:  BCF    FF2.7
067AA:  MOVLB  F
067AC:  MOVLW  55
067AE:  MOVWF  FA7
067B0:  MOVLW  AA
067B2:  MOVWF  FA7
067B4:  BSF    FA6.1
067B6:  BTFSC  FA6.1
067B8:  BRA    67B6
067BA:  BCF    FA6.2
067BC:  MOVF   00,W
067BE:  IORWF  FF2,F
....................       delay_ms(20); 
067C0:  MOVLW  14
067C2:  MOVLB  4
067C4:  MOVWF  x54
067C6:  MOVLB  0
067C8:  CALL   1A84
....................       write_eeprom(38,CiclosH); 
067CC:  CLRF   FAA
067CE:  MOVLW  26
067D0:  MOVWF  FA9
067D2:  MOVFF  363,FA8
067D6:  BCF    FA6.6
067D8:  BCF    FA6.7
067DA:  BSF    FA6.2
067DC:  MOVF   FF2,W
067DE:  MOVWF  00
067E0:  BCF    FF2.6
067E2:  BCF    FF2.7
067E4:  MOVLB  F
067E6:  MOVLW  55
067E8:  MOVWF  FA7
067EA:  MOVLW  AA
067EC:  MOVWF  FA7
067EE:  BSF    FA6.1
067F0:  BTFSC  FA6.1
067F2:  BRA    67F0
067F4:  BCF    FA6.2
067F6:  MOVF   00,W
067F8:  IORWF  FF2,F
....................       delay_ms(20); 
067FA:  MOVLW  14
067FC:  MOVLB  4
067FE:  MOVWF  x54
06800:  MOVLB  0
06802:  CALL   1A84
....................    } 
.................... } 
06806:  RETLW  00
....................  
.................... void exportarData(){ 
*
056F4:  MOVLB  4
056F6:  CLRF   x40
056F8:  CLRF   x3F
056FA:  CLRF   x41
.................... int16 posicion=0; 
.................... int8 tmp=0; 
.................... posicion=40; 
056FC:  CLRF   x40
056FE:  MOVLW  28
05700:  MOVWF  x3F
.................... direccion=0xB0; 
05702:  MOVLW  B0
05704:  MOVLB  0
05706:  MOVWF  x85
.................... //Buzzer_on; 
.................... //Inicio de Transmision 
.................... i2c_start();            // Comienzo comunicacin 
05708:  BSF    F94.4
0570A:  MOVLW  05
0570C:  MOVWF  00
0570E:  DECFSZ 00,F
05710:  BRA    570E
05712:  BSF    F94.3
05714:  MOVLW  06
05716:  MOVWF  00
05718:  DECFSZ 00,F
0571A:  BRA    5718
0571C:  BCF    F8B.4
0571E:  BCF    F94.4
05720:  MOVLW  05
05722:  MOVWF  00
05724:  DECFSZ 00,F
05726:  BRA    5724
05728:  BCF    F8B.3
0572A:  BCF    F94.3
.................... i2c_write(direccion);   // Direccin del esclavo en el bus I2C 
0572C:  MOVFF  85,455
05730:  CALL   4610
.................... i2c_write(make8(posicion,0));    // Posicin donde se guardara el dato transmitido 
05734:  MOVFF  43F,442
05738:  MOVFF  43F,455
0573C:  CALL   4610
.................... i2c_write(make8(posicion,1));    // Posicin donde se guardara el dato transmitido 
05740:  MOVFF  440,442
05744:  MOVFF  440,455
05748:  CALL   4610
.................... i2c_write(0xff);        // Dato a transmitir 
0574C:  MOVLW  FF
0574E:  MOVLB  4
05750:  MOVWF  x55
05752:  MOVLB  0
05754:  CALL   4610
.................... i2c_stop(); 
05758:  BCF    F94.4
0575A:  NOP   
0575C:  BSF    F94.3
0575E:  BTFSS  F82.3
05760:  BRA    575E
05762:  MOVLW  05
05764:  MOVWF  00
05766:  DECFSZ 00,F
05768:  BRA    5766
0576A:  BRA    576C
0576C:  NOP   
0576E:  BSF    F94.4
05770:  MOVLW  05
05772:  MOVWF  00
05774:  DECFSZ 00,F
05776:  BRA    5774
.................... ++posicion; 
05778:  MOVLB  4
0577A:  INCF   x3F,F
0577C:  BTFSC  FD8.2
0577E:  INCF   x40,F
.................... i2c_start();            // Comienzo comunicacin 
05780:  BSF    F94.4
05782:  MOVLW  05
05784:  MOVWF  00
05786:  DECFSZ 00,F
05788:  BRA    5786
0578A:  BSF    F94.3
0578C:  MOVLW  06
0578E:  MOVWF  00
05790:  DECFSZ 00,F
05792:  BRA    5790
05794:  BCF    F8B.4
05796:  BCF    F94.4
05798:  MOVLW  05
0579A:  MOVWF  00
0579C:  DECFSZ 00,F
0579E:  BRA    579C
057A0:  BCF    F8B.3
057A2:  BCF    F94.3
.................... i2c_write(direccion);   // Direccin del esclavo en el bus I2C 
057A4:  MOVFF  85,455
057A8:  MOVLB  0
057AA:  CALL   4610
.................... i2c_write(make8(posicion,0));    // Posicin donde se guardara el dato transmitido 
057AE:  MOVFF  43F,442
057B2:  MOVFF  43F,455
057B6:  CALL   4610
.................... i2c_write(make8(posicion,1));    // Posicin donde se guardara el dato transmitido 
057BA:  MOVFF  440,442
057BE:  MOVFF  440,455
057C2:  CALL   4610
.................... i2c_write(0xff);        // Dato a transmitir 
057C6:  MOVLW  FF
057C8:  MOVLB  4
057CA:  MOVWF  x55
057CC:  MOVLB  0
057CE:  CALL   4610
.................... i2c_stop(); 
057D2:  BCF    F94.4
057D4:  NOP   
057D6:  BSF    F94.3
057D8:  BTFSS  F82.3
057DA:  BRA    57D8
057DC:  MOVLW  05
057DE:  MOVWF  00
057E0:  DECFSZ 00,F
057E2:  BRA    57E0
057E4:  BRA    57E6
057E6:  NOP   
057E8:  BSF    F94.4
057EA:  MOVLW  05
057EC:  MOVWF  00
057EE:  DECFSZ 00,F
057F0:  BRA    57EE
.................... ++posicion; 
057F2:  MOVLB  4
057F4:  INCF   x3F,F
057F6:  BTFSC  FD8.2
057F8:  INCF   x40,F
.................... //Se envian 2 veces ff para indicar que se inicia la transmision. 
....................  
....................    for(i=0;i<5;i++){ 
057FA:  MOVLB  3
057FC:  CLRF   x61
057FE:  MOVF   x61,W
05800:  SUBLW  04
05802:  BNC   58BA
....................       tmp=read_ext_eeprom((cicloVisto*320)+i); 
05804:  MOVLB  4
05806:  CLRF   x49
05808:  MOVFF  2E2,448
0580C:  MOVLW  01
0580E:  MOVWF  x4B
05810:  MOVLW  40
05812:  MOVWF  x4A
05814:  MOVLB  0
05816:  CALL   399C
0581A:  MOVFF  02,443
0581E:  MOVFF  01,442
05822:  MOVLB  3
05824:  MOVF   x61,W
05826:  MOVLB  4
05828:  ADDWF  x42,F
0582A:  MOVLW  00
0582C:  ADDWFC x43,F
0582E:  MOVFF  443,445
05832:  MOVFF  442,444
05836:  MOVLB  0
05838:  CALL   4F6A
0583C:  MOVFF  01,441
....................       //if(tmp>250) 
....................       //   tmp=20; 
....................       i2c_start();            // Comienzo comunicacin 
05840:  BSF    F94.4
05842:  MOVLW  05
05844:  MOVWF  00
05846:  DECFSZ 00,F
05848:  BRA    5846
0584A:  BSF    F94.3
0584C:  MOVLW  06
0584E:  MOVWF  00
05850:  DECFSZ 00,F
05852:  BRA    5850
05854:  BCF    F8B.4
05856:  BCF    F94.4
05858:  MOVLW  05
0585A:  MOVWF  00
0585C:  DECFSZ 00,F
0585E:  BRA    585C
05860:  BCF    F8B.3
05862:  BCF    F94.3
....................       i2c_write(direccion);   // Direccin del esclavo en el bus I2C 
05864:  MOVFF  85,455
05868:  CALL   4610
....................       i2c_write(make8(posicion,0));    // Posicin donde se guardara el dato transmitido 
0586C:  MOVFF  43F,442
05870:  MOVFF  43F,455
05874:  CALL   4610
....................       i2c_write(make8(posicion,1));    // Posicin donde se guardara el dato transmitido 
05878:  MOVFF  440,442
0587C:  MOVFF  440,455
05880:  CALL   4610
....................       i2c_write(tmp);        // Dato a transmitir 
05884:  MOVFF  441,455
05888:  CALL   4610
....................       i2c_stop();  
0588C:  BCF    F94.4
0588E:  NOP   
05890:  BSF    F94.3
05892:  BTFSS  F82.3
05894:  BRA    5892
05896:  MOVLW  05
05898:  MOVWF  00
0589A:  DECFSZ 00,F
0589C:  BRA    589A
0589E:  BRA    58A0
058A0:  NOP   
058A2:  BSF    F94.4
058A4:  MOVLW  05
058A6:  MOVWF  00
058A8:  DECFSZ 00,F
058AA:  BRA    58A8
....................       ++posicion; 
058AC:  MOVLB  4
058AE:  INCF   x3F,F
058B0:  BTFSC  FD8.2
058B2:  INCF   x40,F
....................    } 
058B4:  MOVLB  3
058B6:  INCF   x61,F
058B8:  BRA    57FE
....................    for(i=0;i<35;i++){//Lee Valores para completar la Tabla 
058BA:  CLRF   x61
058BC:  MOVF   x61,W
058BE:  SUBLW  22
058C0:  BNC   599A
....................       for(j=5;j<14;j++){//Lee Valores para completar la Tabla 
058C2:  MOVLW  05
058C4:  MOVLB  2
058C6:  MOVWF  xE5
058C8:  MOVF   xE5,W
058CA:  SUBLW  0D
058CC:  BNC   5994
....................          tmp=read_ext_eeprom((cicloVisto*320)+j+(i*9)); 
058CE:  MOVLB  4
058D0:  CLRF   x49
058D2:  MOVFF  2E2,448
058D6:  MOVLW  01
058D8:  MOVWF  x4B
058DA:  MOVLW  40
058DC:  MOVWF  x4A
058DE:  MOVLB  0
058E0:  CALL   399C
058E4:  MOVFF  02,443
058E8:  MOVFF  01,442
058EC:  MOVLB  2
058EE:  MOVF   xE5,W
058F0:  MOVLB  4
058F2:  ADDWF  x42,F
058F4:  MOVLW  00
058F6:  ADDWFC x43,F
058F8:  MOVLB  3
058FA:  MOVF   x61,W
058FC:  MULLW  09
058FE:  MOVF   FF3,W
05900:  MOVLB  4
05902:  ADDWF  x42,F
05904:  MOVLW  00
05906:  ADDWFC x43,F
05908:  MOVFF  443,445
0590C:  MOVFF  442,444
05910:  MOVLB  0
05912:  CALL   4F6A
05916:  MOVFF  01,441
....................          //if(tmp>250) 
....................          //   tmp=20; 
....................          i2c_start();            // Comienzo comunicacin 
0591A:  BSF    F94.4
0591C:  MOVLW  05
0591E:  MOVWF  00
05920:  DECFSZ 00,F
05922:  BRA    5920
05924:  BSF    F94.3
05926:  MOVLW  06
05928:  MOVWF  00
0592A:  DECFSZ 00,F
0592C:  BRA    592A
0592E:  BCF    F8B.4
05930:  BCF    F94.4
05932:  MOVLW  05
05934:  MOVWF  00
05936:  DECFSZ 00,F
05938:  BRA    5936
0593A:  BCF    F8B.3
0593C:  BCF    F94.3
....................          i2c_write(direccion);   // Direccin del esclavo en el bus I2C 
0593E:  MOVFF  85,455
05942:  CALL   4610
....................          i2c_write(make8(posicion,0));    // Posicin donde se guardara el dato transmitido 
05946:  MOVFF  43F,442
0594A:  MOVFF  43F,455
0594E:  CALL   4610
....................          i2c_write(make8(posicion,1));    // Posicin donde se guardara el dato transmitido 
05952:  MOVFF  440,442
05956:  MOVFF  440,455
0595A:  CALL   4610
....................          i2c_write(tmp);        // Dato a transmitir 
0595E:  MOVFF  441,455
05962:  CALL   4610
....................          i2c_stop();  
05966:  BCF    F94.4
05968:  NOP   
0596A:  BSF    F94.3
0596C:  BTFSS  F82.3
0596E:  BRA    596C
05970:  MOVLW  05
05972:  MOVWF  00
05974:  DECFSZ 00,F
05976:  BRA    5974
05978:  BRA    597A
0597A:  NOP   
0597C:  BSF    F94.4
0597E:  MOVLW  05
05980:  MOVWF  00
05982:  DECFSZ 00,F
05984:  BRA    5982
....................          ++posicion; 
05986:  MOVLB  4
05988:  INCF   x3F,F
0598A:  BTFSC  FD8.2
0598C:  INCF   x40,F
....................       } 
0598E:  MOVLB  2
05990:  INCF   xE5,F
05992:  BRA    58C8
....................    } 
05994:  MOVLB  3
05996:  INCF   x61,F
05998:  BRA    58BC
....................  
.................... //Fin de Transmision 
.................... i2c_start();            // Comienzo comunicacin 
0599A:  BSF    F94.4
0599C:  MOVLW  05
0599E:  MOVWF  00
059A0:  DECFSZ 00,F
059A2:  BRA    59A0
059A4:  BSF    F94.3
059A6:  MOVLW  06
059A8:  MOVWF  00
059AA:  DECFSZ 00,F
059AC:  BRA    59AA
059AE:  BCF    F8B.4
059B0:  BCF    F94.4
059B2:  MOVLW  05
059B4:  MOVWF  00
059B6:  DECFSZ 00,F
059B8:  BRA    59B6
059BA:  BCF    F8B.3
059BC:  BCF    F94.3
.................... i2c_write(direccion);   // Direccin del esclavo en el bus I2C 
059BE:  MOVFF  85,455
059C2:  MOVLB  0
059C4:  CALL   4610
.................... i2c_write(make8(posicion,0));    // Posicin donde se guardara el dato transmitido 
059C8:  MOVFF  43F,442
059CC:  MOVFF  43F,455
059D0:  CALL   4610
.................... i2c_write(make8(posicion,1));    // Posicin donde se guardara el dato transmitido 
059D4:  MOVFF  440,442
059D8:  MOVFF  440,455
059DC:  CALL   4610
.................... i2c_write(0x1f);        // Dato a transmitir 
059E0:  MOVLW  1F
059E2:  MOVLB  4
059E4:  MOVWF  x55
059E6:  MOVLB  0
059E8:  CALL   4610
.................... i2c_stop(); 
059EC:  BCF    F94.4
059EE:  NOP   
059F0:  BSF    F94.3
059F2:  BTFSS  F82.3
059F4:  BRA    59F2
059F6:  MOVLW  05
059F8:  MOVWF  00
059FA:  DECFSZ 00,F
059FC:  BRA    59FA
059FE:  BRA    5A00
05A00:  NOP   
05A02:  BSF    F94.4
05A04:  MOVLW  05
05A06:  MOVWF  00
05A08:  DECFSZ 00,F
05A0A:  BRA    5A08
.................... ++posicion; 
05A0C:  MOVLB  4
05A0E:  INCF   x3F,F
05A10:  BTFSC  FD8.2
05A12:  INCF   x40,F
.................... i2c_start();            // Comienzo comunicacin 
05A14:  BSF    F94.4
05A16:  MOVLW  05
05A18:  MOVWF  00
05A1A:  DECFSZ 00,F
05A1C:  BRA    5A1A
05A1E:  BSF    F94.3
05A20:  MOVLW  06
05A22:  MOVWF  00
05A24:  DECFSZ 00,F
05A26:  BRA    5A24
05A28:  BCF    F8B.4
05A2A:  BCF    F94.4
05A2C:  MOVLW  05
05A2E:  MOVWF  00
05A30:  DECFSZ 00,F
05A32:  BRA    5A30
05A34:  BCF    F8B.3
05A36:  BCF    F94.3
.................... i2c_write(direccion);   // Direccin del esclavo en el bus I2C 
05A38:  MOVFF  85,455
05A3C:  MOVLB  0
05A3E:  CALL   4610
.................... i2c_write(make8(posicion,0));    // Posicin donde se guardara el dato transmitido 
05A42:  MOVFF  43F,442
05A46:  MOVFF  43F,455
05A4A:  CALL   4610
.................... i2c_write(make8(posicion,1));    // Posicin donde se guardara el dato transmitido 
05A4E:  MOVFF  440,442
05A52:  MOVFF  440,455
05A56:  CALL   4610
.................... i2c_write(0x1f);        // Dato a transmitir 
05A5A:  MOVLW  1F
05A5C:  MOVLB  4
05A5E:  MOVWF  x55
05A60:  MOVLB  0
05A62:  CALL   4610
.................... i2c_stop(); 
05A66:  BCF    F94.4
05A68:  NOP   
05A6A:  BSF    F94.3
05A6C:  BTFSS  F82.3
05A6E:  BRA    5A6C
05A70:  MOVLW  05
05A72:  MOVWF  00
05A74:  DECFSZ 00,F
05A76:  BRA    5A74
05A78:  BRA    5A7A
05A7A:  NOP   
05A7C:  BSF    F94.4
05A7E:  MOVLW  05
05A80:  MOVWF  00
05A82:  DECFSZ 00,F
05A84:  BRA    5A82
.................... ++posicion; 
05A86:  MOVLB  4
05A88:  INCF   x3F,F
05A8A:  BTFSC  FD8.2
05A8C:  INCF   x40,F
.................... //Se envian 2 veces 1f para indicar que se inicia la transmision. 
.................... delay_ms(200); 
05A8E:  MOVLW  C8
05A90:  MOVWF  x54
05A92:  MOVLB  0
05A94:  CALL   1A84
.................... //Buzzer_off; 
.................... } 
05A98:  GOTO   B9BA (RETURN)
....................  
.................... void codificaAlarma(){ 
....................    if(ACiclos[i]==0){ 
05A9C:  CLRF   03
05A9E:  MOVLB  3
05AA0:  MOVF   x61,W
05AA2:  ADDLW  10
05AA4:  MOVWF  FE9
05AA6:  MOVLW  04
05AA8:  ADDWFC 03,W
05AAA:  MOVWF  FEA
05AAC:  MOVF   FEF,F
05AAE:  BNZ   5AEE
....................       printf("A%u.txt=\"----\"",i+1); 
05AB0:  MOVLW  01
05AB2:  ADDWF  x61,W
05AB4:  MOVLB  4
05AB6:  MOVWF  x3F
05AB8:  MOVLW  41
05ABA:  BTFSS  F9E.4
05ABC:  BRA    5ABA
05ABE:  MOVWF  FAD
05AC0:  MOVFF  43F,444
05AC4:  MOVLW  1B
05AC6:  MOVWF  x45
05AC8:  MOVLB  0
05ACA:  CALL   48A8
05ACE:  MOVLW  F9
05AD0:  MOVWF  FF6
05AD2:  MOVLW  01
05AD4:  MOVWF  FF7
05AD6:  MOVLW  00
05AD8:  MOVWF  FF8
05ADA:  MOVLW  0B
05ADC:  MOVLB  4
05ADE:  MOVWF  x44
05AE0:  MOVLB  0
05AE2:  CALL   484A
....................       SendDataDisplay(); 
05AE6:  CALL   38F0
....................    }else if(ACiclos[i]==1){ 
05AEA:  BRA    6008
05AEC:  MOVLB  3
05AEE:  CLRF   03
05AF0:  MOVF   x61,W
05AF2:  ADDLW  10
05AF4:  MOVWF  FE9
05AF6:  MOVLW  04
05AF8:  ADDWFC 03,W
05AFA:  MOVWF  FEA
05AFC:  DECFSZ FEF,W
05AFE:  BRA    5B3E
....................       printf("A%u.txt=\"Parada\"",i+1); 
05B00:  MOVLW  01
05B02:  ADDWF  x61,W
05B04:  MOVLB  4
05B06:  MOVWF  x3F
05B08:  MOVLW  41
05B0A:  BTFSS  F9E.4
05B0C:  BRA    5B0A
05B0E:  MOVWF  FAD
05B10:  MOVFF  43F,444
05B14:  MOVLW  1B
05B16:  MOVWF  x45
05B18:  MOVLB  0
05B1A:  CALL   48A8
05B1E:  MOVLW  09
05B20:  MOVWF  FF6
05B22:  MOVLW  02
05B24:  MOVWF  FF7
05B26:  MOVLW  00
05B28:  MOVWF  FF8
05B2A:  MOVLW  0D
05B2C:  MOVLB  4
05B2E:  MOVWF  x44
05B30:  MOVLB  0
05B32:  CALL   484A
....................       SendDataDisplay(); 
05B36:  CALL   38F0
....................    }else if(ACiclos[i]==2){ 
05B3A:  BRA    6008
05B3C:  MOVLB  3
05B3E:  CLRF   03
05B40:  MOVF   x61,W
05B42:  ADDLW  10
05B44:  MOVWF  FE9
05B46:  MOVLW  04
05B48:  ADDWFC 03,W
05B4A:  MOVWF  FEA
05B4C:  MOVF   FEF,W
05B4E:  SUBLW  02
05B50:  BNZ   5B90
....................       printf("A%u.txt=\"Puerta\"",i+1); 
05B52:  MOVLW  01
05B54:  ADDWF  x61,W
05B56:  MOVLB  4
05B58:  MOVWF  x3F
05B5A:  MOVLW  41
05B5C:  BTFSS  F9E.4
05B5E:  BRA    5B5C
05B60:  MOVWF  FAD
05B62:  MOVFF  43F,444
05B66:  MOVLW  1B
05B68:  MOVWF  x45
05B6A:  MOVLB  0
05B6C:  CALL   48A8
05B70:  MOVLW  1B
05B72:  MOVWF  FF6
05B74:  MOVLW  02
05B76:  MOVWF  FF7
05B78:  MOVLW  00
05B7A:  MOVWF  FF8
05B7C:  MOVLW  0D
05B7E:  MOVLB  4
05B80:  MOVWF  x44
05B82:  MOVLB  0
05B84:  CALL   484A
....................       SendDataDisplay(); 
05B88:  CALL   38F0
....................    }else if(ACiclos[i]==3){ 
05B8C:  BRA    6008
05B8E:  MOVLB  3
05B90:  CLRF   03
05B92:  MOVF   x61,W
05B94:  ADDLW  10
05B96:  MOVWF  FE9
05B98:  MOVLW  04
05B9A:  ADDWFC 03,W
05B9C:  MOVWF  FEA
05B9E:  MOVF   FEF,W
05BA0:  SUBLW  03
05BA2:  BNZ   5BE2
....................       printf("A%u.txt=\"Termostato\"",i+1); 
05BA4:  MOVLW  01
05BA6:  ADDWF  x61,W
05BA8:  MOVLB  4
05BAA:  MOVWF  x3F
05BAC:  MOVLW  41
05BAE:  BTFSS  F9E.4
05BB0:  BRA    5BAE
05BB2:  MOVWF  FAD
05BB4:  MOVFF  43F,444
05BB8:  MOVLW  1B
05BBA:  MOVWF  x45
05BBC:  MOVLB  0
05BBE:  CALL   48A8
05BC2:  MOVLW  2D
05BC4:  MOVWF  FF6
05BC6:  MOVLW  02
05BC8:  MOVWF  FF7
05BCA:  MOVLW  00
05BCC:  MOVWF  FF8
05BCE:  MOVLW  11
05BD0:  MOVLB  4
05BD2:  MOVWF  x44
05BD4:  MOVLB  0
05BD6:  CALL   484A
....................       SendDataDisplay(); 
05BDA:  CALL   38F0
....................    }else if(ACiclos[i]==4){ 
05BDE:  BRA    6008
05BE0:  MOVLB  3
05BE2:  CLRF   03
05BE4:  MOVF   x61,W
05BE6:  ADDLW  10
05BE8:  MOVWF  FE9
05BEA:  MOVLW  04
05BEC:  ADDWFC 03,W
05BEE:  MOVWF  FEA
05BF0:  MOVF   FEF,W
05BF2:  SUBLW  04
05BF4:  BNZ   5C34
....................       printf("A%u.txt=\"SobreT\"",i+1); 
05BF6:  MOVLW  01
05BF8:  ADDWF  x61,W
05BFA:  MOVLB  4
05BFC:  MOVWF  x3F
05BFE:  MOVLW  41
05C00:  BTFSS  F9E.4
05C02:  BRA    5C00
05C04:  MOVWF  FAD
05C06:  MOVFF  43F,444
05C0A:  MOVLW  1B
05C0C:  MOVWF  x45
05C0E:  MOVLB  0
05C10:  CALL   48A8
05C14:  MOVLW  43
05C16:  MOVWF  FF6
05C18:  MOVLW  02
05C1A:  MOVWF  FF7
05C1C:  MOVLW  00
05C1E:  MOVWF  FF8
05C20:  MOVLW  0D
05C22:  MOVLB  4
05C24:  MOVWF  x44
05C26:  MOVLB  0
05C28:  CALL   484A
....................       SendDataDisplay(); 
05C2C:  CALL   38F0
....................    }else if(ACiclos[i]==5){ 
05C30:  BRA    6008
05C32:  MOVLB  3
05C34:  CLRF   03
05C36:  MOVF   x61,W
05C38:  ADDLW  10
05C3A:  MOVWF  FE9
05C3C:  MOVLW  04
05C3E:  ADDWFC 03,W
05C40:  MOVWF  FEA
05C42:  MOVF   FEF,W
05C44:  SUBLW  05
05C46:  BNZ   5C86
....................       printf("A%u.txt=\"Tiempo\"",i+1); 
05C48:  MOVLW  01
05C4A:  ADDWF  x61,W
05C4C:  MOVLB  4
05C4E:  MOVWF  x3F
05C50:  MOVLW  41
05C52:  BTFSS  F9E.4
05C54:  BRA    5C52
05C56:  MOVWF  FAD
05C58:  MOVFF  43F,444
05C5C:  MOVLW  1B
05C5E:  MOVWF  x45
05C60:  MOVLB  0
05C62:  CALL   48A8
05C66:  MOVLW  55
05C68:  MOVWF  FF6
05C6A:  MOVLW  02
05C6C:  MOVWF  FF7
05C6E:  MOVLW  00
05C70:  MOVWF  FF8
05C72:  MOVLW  0D
05C74:  MOVLB  4
05C76:  MOVWF  x44
05C78:  MOVLB  0
05C7A:  CALL   484A
....................       SendDataDisplay(); 
05C7E:  CALL   38F0
....................    }else if(ACiclos[i]==6){ 
05C82:  BRA    6008
05C84:  MOVLB  3
05C86:  CLRF   03
05C88:  MOVF   x61,W
05C8A:  ADDLW  10
05C8C:  MOVWF  FE9
05C8E:  MOVLW  04
05C90:  ADDWFC 03,W
05C92:  MOVWF  FEA
05C94:  MOVF   FEF,W
05C96:  SUBLW  06
05C98:  BNZ   5CD8
....................       printf("A%u.txt=\"Presion\"",i+1); 
05C9A:  MOVLW  01
05C9C:  ADDWF  x61,W
05C9E:  MOVLB  4
05CA0:  MOVWF  x3F
05CA2:  MOVLW  41
05CA4:  BTFSS  F9E.4
05CA6:  BRA    5CA4
05CA8:  MOVWF  FAD
05CAA:  MOVFF  43F,444
05CAE:  MOVLW  1B
05CB0:  MOVWF  x45
05CB2:  MOVLB  0
05CB4:  CALL   48A8
05CB8:  MOVLW  67
05CBA:  MOVWF  FF6
05CBC:  MOVLW  02
05CBE:  MOVWF  FF7
05CC0:  MOVLW  00
05CC2:  MOVWF  FF8
05CC4:  MOVLW  0E
05CC6:  MOVLB  4
05CC8:  MOVWF  x44
05CCA:  MOVLB  0
05CCC:  CALL   484A
....................       SendDataDisplay(); 
05CD0:  CALL   38F0
....................    }else if(ACiclos[i]==7){ 
05CD4:  BRA    6008
05CD6:  MOVLB  3
05CD8:  CLRF   03
05CDA:  MOVF   x61,W
05CDC:  ADDLW  10
05CDE:  MOVWF  FE9
05CE0:  MOVLW  04
05CE2:  ADDWFC 03,W
05CE4:  MOVWF  FEA
05CE6:  MOVF   FEF,W
05CE8:  SUBLW  07
05CEA:  BNZ   5D2A
....................       printf("A%u.txt=\"ERR Ciclo\"",i+1); 
05CEC:  MOVLW  01
05CEE:  ADDWF  x61,W
05CF0:  MOVLB  4
05CF2:  MOVWF  x3F
05CF4:  MOVLW  41
05CF6:  BTFSS  F9E.4
05CF8:  BRA    5CF6
05CFA:  MOVWF  FAD
05CFC:  MOVFF  43F,444
05D00:  MOVLW  1B
05D02:  MOVWF  x45
05D04:  MOVLB  0
05D06:  CALL   48A8
05D0A:  MOVLW  79
05D0C:  MOVWF  FF6
05D0E:  MOVLW  02
05D10:  MOVWF  FF7
05D12:  MOVLW  00
05D14:  MOVWF  FF8
05D16:  MOVLW  10
05D18:  MOVLB  4
05D1A:  MOVWF  x44
05D1C:  MOVLB  0
05D1E:  CALL   484A
....................       SendDataDisplay(); 
05D22:  CALL   38F0
....................    }else if(ACiclos[i]==8){ 
05D26:  BRA    6008
05D28:  MOVLB  3
05D2A:  CLRF   03
05D2C:  MOVF   x61,W
05D2E:  ADDLW  10
05D30:  MOVWF  FE9
05D32:  MOVLW  04
05D34:  ADDWFC 03,W
05D36:  MOVWF  FEA
05D38:  MOVF   FEF,W
05D3A:  SUBLW  08
05D3C:  BNZ   5D7C
....................       printf("A%u.txt=\"Llenado\"",i+1); 
05D3E:  MOVLW  01
05D40:  ADDWF  x61,W
05D42:  MOVLB  4
05D44:  MOVWF  x3F
05D46:  MOVLW  41
05D48:  BTFSS  F9E.4
05D4A:  BRA    5D48
05D4C:  MOVWF  FAD
05D4E:  MOVFF  43F,444
05D52:  MOVLW  1B
05D54:  MOVWF  x45
05D56:  MOVLB  0
05D58:  CALL   48A8
05D5C:  MOVLW  8D
05D5E:  MOVWF  FF6
05D60:  MOVLW  02
05D62:  MOVWF  FF7
05D64:  MOVLW  00
05D66:  MOVWF  FF8
05D68:  MOVLW  0E
05D6A:  MOVLB  4
05D6C:  MOVWF  x44
05D6E:  MOVLB  0
05D70:  CALL   484A
....................       SendDataDisplay(); 
05D74:  CALL   38F0
....................    }else if(ACiclos[i]==10){ 
05D78:  BRA    6008
05D7A:  MOVLB  3
05D7C:  CLRF   03
05D7E:  MOVF   x61,W
05D80:  ADDLW  10
05D82:  MOVWF  FE9
05D84:  MOVLW  04
05D86:  ADDWFC 03,W
05D88:  MOVWF  FEA
05D8A:  MOVF   FEF,W
05D8C:  SUBLW  0A
05D8E:  BNZ   5DCE
....................       printf("A%u.txt=\"Llenando\"",i+1); 
05D90:  MOVLW  01
05D92:  ADDWF  x61,W
05D94:  MOVLB  4
05D96:  MOVWF  x3F
05D98:  MOVLW  41
05D9A:  BTFSS  F9E.4
05D9C:  BRA    5D9A
05D9E:  MOVWF  FAD
05DA0:  MOVFF  43F,444
05DA4:  MOVLW  1B
05DA6:  MOVWF  x45
05DA8:  MOVLB  0
05DAA:  CALL   48A8
05DAE:  MOVLW  9F
05DB0:  MOVWF  FF6
05DB2:  MOVLW  02
05DB4:  MOVWF  FF7
05DB6:  MOVLW  00
05DB8:  MOVWF  FF8
05DBA:  MOVLW  0F
05DBC:  MOVLB  4
05DBE:  MOVWF  x44
05DC0:  MOVLB  0
05DC2:  CALL   484A
....................       SendDataDisplay(); 
05DC6:  CALL   38F0
....................    }else if(ACiclos[i]==11){ 
05DCA:  BRA    6008
05DCC:  MOVLB  3
05DCE:  CLRF   03
05DD0:  MOVF   x61,W
05DD2:  ADDLW  10
05DD4:  MOVWF  FE9
05DD6:  MOVLW  04
05DD8:  ADDWFC 03,W
05DDA:  MOVWF  FEA
05DDC:  MOVF   FEF,W
05DDE:  SUBLW  0B
05DE0:  BNZ   5E20
....................       printf("A%u.txt=\"Vacio\"",i+1); 
05DE2:  MOVLW  01
05DE4:  ADDWF  x61,W
05DE6:  MOVLB  4
05DE8:  MOVWF  x3F
05DEA:  MOVLW  41
05DEC:  BTFSS  F9E.4
05DEE:  BRA    5DEC
05DF0:  MOVWF  FAD
05DF2:  MOVFF  43F,444
05DF6:  MOVLW  1B
05DF8:  MOVWF  x45
05DFA:  MOVLB  0
05DFC:  CALL   48A8
05E00:  MOVLW  B3
05E02:  MOVWF  FF6
05E04:  MOVLW  02
05E06:  MOVWF  FF7
05E08:  MOVLW  00
05E0A:  MOVWF  FF8
05E0C:  MOVLW  0C
05E0E:  MOVLB  4
05E10:  MOVWF  x44
05E12:  MOVLB  0
05E14:  CALL   484A
....................       SendDataDisplay(); 
05E18:  CALL   38F0
....................    }else if(ACiclos[i]==12){ 
05E1C:  BRA    6008
05E1E:  MOVLB  3
05E20:  CLRF   03
05E22:  MOVF   x61,W
05E24:  ADDLW  10
05E26:  MOVWF  FE9
05E28:  MOVLW  04
05E2A:  ADDWFC 03,W
05E2C:  MOVWF  FEA
05E2E:  MOVF   FEF,W
05E30:  SUBLW  0C
05E32:  BNZ   5E72
....................       printf("A%u.txt=\"Calen\"",i+1); 
05E34:  MOVLW  01
05E36:  ADDWF  x61,W
05E38:  MOVLB  4
05E3A:  MOVWF  x3F
05E3C:  MOVLW  41
05E3E:  BTFSS  F9E.4
05E40:  BRA    5E3E
05E42:  MOVWF  FAD
05E44:  MOVFF  43F,444
05E48:  MOVLW  1B
05E4A:  MOVWF  x45
05E4C:  MOVLB  0
05E4E:  CALL   48A8
05E52:  MOVLW  C3
05E54:  MOVWF  FF6
05E56:  MOVLW  02
05E58:  MOVWF  FF7
05E5A:  MOVLW  00
05E5C:  MOVWF  FF8
05E5E:  MOVLW  0C
05E60:  MOVLB  4
05E62:  MOVWF  x44
05E64:  MOVLB  0
05E66:  CALL   484A
....................       SendDataDisplay(); 
05E6A:  CALL   38F0
....................    }else if(ACiclos[i]==13){ 
05E6E:  BRA    6008
05E70:  MOVLB  3
05E72:  CLRF   03
05E74:  MOVF   x61,W
05E76:  ADDLW  10
05E78:  MOVWF  FE9
05E7A:  MOVLW  04
05E7C:  ADDWFC 03,W
05E7E:  MOVWF  FEA
05E80:  MOVF   FEF,W
05E82:  SUBLW  0D
05E84:  BNZ   5EC4
....................       printf("A%u.txt=\"Desfoga\"",i+1); 
05E86:  MOVLW  01
05E88:  ADDWF  x61,W
05E8A:  MOVLB  4
05E8C:  MOVWF  x3F
05E8E:  MOVLW  41
05E90:  BTFSS  F9E.4
05E92:  BRA    5E90
05E94:  MOVWF  FAD
05E96:  MOVFF  43F,444
05E9A:  MOVLW  1B
05E9C:  MOVWF  x45
05E9E:  MOVLB  0
05EA0:  CALL   48A8
05EA4:  MOVLW  D3
05EA6:  MOVWF  FF6
05EA8:  MOVLW  02
05EAA:  MOVWF  FF7
05EAC:  MOVLW  00
05EAE:  MOVWF  FF8
05EB0:  MOVLW  0E
05EB2:  MOVLB  4
05EB4:  MOVWF  x44
05EB6:  MOVLB  0
05EB8:  CALL   484A
....................       SendDataDisplay(); 
05EBC:  CALL   38F0
....................    }else if(ACiclos[i]==14){ 
05EC0:  BRA    6008
05EC2:  MOVLB  3
05EC4:  CLRF   03
05EC6:  MOVF   x61,W
05EC8:  ADDLW  10
05ECA:  MOVWF  FE9
05ECC:  MOVLW  04
05ECE:  ADDWFC 03,W
05ED0:  MOVWF  FEA
05ED2:  MOVF   FEF,W
05ED4:  SUBLW  0E
05ED6:  BNZ   5F16
....................       printf("A%u.txt=\"Finalizado\"",i+1); 
05ED8:  MOVLW  01
05EDA:  ADDWF  x61,W
05EDC:  MOVLB  4
05EDE:  MOVWF  x3F
05EE0:  MOVLW  41
05EE2:  BTFSS  F9E.4
05EE4:  BRA    5EE2
05EE6:  MOVWF  FAD
05EE8:  MOVFF  43F,444
05EEC:  MOVLW  1B
05EEE:  MOVWF  x45
05EF0:  MOVLB  0
05EF2:  CALL   48A8
05EF6:  MOVLW  E5
05EF8:  MOVWF  FF6
05EFA:  MOVLW  02
05EFC:  MOVWF  FF7
05EFE:  MOVLW  00
05F00:  MOVWF  FF8
05F02:  MOVLW  11
05F04:  MOVLB  4
05F06:  MOVWF  x44
05F08:  MOVLB  0
05F0A:  CALL   484A
....................       SendDataDisplay(); 
05F0E:  CALL   38F0
....................    }else if(ACiclos[i]==15){ 
05F12:  BRA    6008
05F14:  MOVLB  3
05F16:  CLRF   03
05F18:  MOVF   x61,W
05F1A:  ADDLW  10
05F1C:  MOVWF  FE9
05F1E:  MOVLW  04
05F20:  ADDWFC 03,W
05F22:  MOVWF  FEA
05F24:  MOVF   FEF,W
05F26:  SUBLW  0F
05F28:  BNZ   5F68
....................       printf("A%u.txt=\"Secando\"",i+1); 
05F2A:  MOVLW  01
05F2C:  ADDWF  x61,W
05F2E:  MOVLB  4
05F30:  MOVWF  x3F
05F32:  MOVLW  41
05F34:  BTFSS  F9E.4
05F36:  BRA    5F34
05F38:  MOVWF  FAD
05F3A:  MOVFF  43F,444
05F3E:  MOVLW  1B
05F40:  MOVWF  x45
05F42:  MOVLB  0
05F44:  CALL   48A8
05F48:  MOVLW  FB
05F4A:  MOVWF  FF6
05F4C:  MOVLW  02
05F4E:  MOVWF  FF7
05F50:  MOVLW  00
05F52:  MOVWF  FF8
05F54:  MOVLW  0E
05F56:  MOVLB  4
05F58:  MOVWF  x44
05F5A:  MOVLB  0
05F5C:  CALL   484A
....................       SendDataDisplay(); 
05F60:  CALL   38F0
....................    }else if(ACiclos[i]==16){ 
05F64:  BRA    6008
05F66:  MOVLB  3
05F68:  CLRF   03
05F6A:  MOVF   x61,W
05F6C:  ADDLW  10
05F6E:  MOVWF  FE9
05F70:  MOVLW  04
05F72:  ADDWFC 03,W
05F74:  MOVWF  FEA
05F76:  MOVF   FEF,W
05F78:  SUBLW  10
05F7A:  BNZ   5FBA
....................       printf("A%u.txt=\"Esterilizando\"",i+1); 
05F7C:  MOVLW  01
05F7E:  ADDWF  x61,W
05F80:  MOVLB  4
05F82:  MOVWF  x3F
05F84:  MOVLW  41
05F86:  BTFSS  F9E.4
05F88:  BRA    5F86
05F8A:  MOVWF  FAD
05F8C:  MOVFF  43F,444
05F90:  MOVLW  1B
05F92:  MOVWF  x45
05F94:  MOVLB  0
05F96:  CALL   48A8
05F9A:  MOVLW  0D
05F9C:  MOVWF  FF6
05F9E:  MOVLW  03
05FA0:  MOVWF  FF7
05FA2:  MOVLW  00
05FA4:  MOVWF  FF8
05FA6:  MOVLW  14
05FA8:  MOVLB  4
05FAA:  MOVWF  x44
05FAC:  MOVLB  0
05FAE:  CALL   484A
....................       SendDataDisplay(); 
05FB2:  CALL   38F0
....................    }else if(ACiclos[i]==17){ 
05FB6:  BRA    6008
05FB8:  MOVLB  3
05FBA:  CLRF   03
05FBC:  MOVF   x61,W
05FBE:  ADDLW  10
05FC0:  MOVWF  FE9
05FC2:  MOVLW  04
05FC4:  ADDWFC 03,W
05FC6:  MOVWF  FEA
05FC8:  MOVF   FEF,W
05FCA:  SUBLW  11
05FCC:  BNZ   600A
....................       printf("A%u.txt=\"Enfriando\"",i+1); 
05FCE:  MOVLW  01
05FD0:  ADDWF  x61,W
05FD2:  MOVLB  4
05FD4:  MOVWF  x3F
05FD6:  MOVLW  41
05FD8:  BTFSS  F9E.4
05FDA:  BRA    5FD8
05FDC:  MOVWF  FAD
05FDE:  MOVFF  43F,444
05FE2:  MOVLW  1B
05FE4:  MOVWF  x45
05FE6:  MOVLB  0
05FE8:  CALL   48A8
05FEC:  MOVLW  25
05FEE:  MOVWF  FF6
05FF0:  MOVLW  03
05FF2:  MOVWF  FF7
05FF4:  MOVLW  00
05FF6:  MOVWF  FF8
05FF8:  MOVLW  10
05FFA:  MOVLB  4
05FFC:  MOVWF  x44
05FFE:  MOVLB  0
06000:  CALL   484A
....................       SendDataDisplay(); 
06004:  CALL   38F0
06008:  MOVLB  3
....................    } 
.................... } 
0600A:  MOVLB  0
0600C:  GOTO   BD5C (RETURN)
....................  
.................... void enciendeBombaAgua(){ 
....................    if(tBombaAgua>120){//Enciende 120 segundos 
....................       Agua_off; 
....................       Bomba_off; 
....................       flagBombaAgua=OFF; 
....................       flagBombaAguaOff=ON; 
....................       if(tBombaAguaOff>=60){//Apaga 60 segundos 
....................          tBombaAgua=0; 
....................       } 
....................    }else{ 
....................       Agua_on; 
....................       Bomba_on; 
....................       flagBombaAgua=ON; 
....................       flagBombaAguaOff=OFF; 
....................       tBombaAguaOff=0; 
....................    } 
.................... } 
....................  
.................... void apagaBombaAgua(){ 
....................    Agua_off; 
....................    Bomba_off; 
....................    flagBombaAgua=OFF; 
....................    flagBombaAguaOff=OFF; 
....................    tBombaAguaOff=0; 
....................    tBombaAgua=0; 
.................... } 
....................  
....................  
.................... #int_rda HIGH 
.................... void serial_rx_isr(){ 
....................  
....................    Dato2=fgetc(); 
*
00336:  BTFSS  F9E.5
00338:  BRA    0336
0033A:  MOVFF  FAE,35C
0033E:  MOVLB  3
....................    if(Dato2==0x65){//Inicio Comunicacion 
00340:  MOVF   x5C,W
00342:  SUBLW  65
00344:  BNZ   034C
....................       Inicio=1; 
00346:  MOVLW  01
00348:  MOVWF  x5A
....................       RX_Wr_Index =0; 
0034A:  CLRF   46
....................    } 
....................    //Inicio=1; 
....................    if(Inicio==1){ 
0034C:  DECFSZ x5A,W
0034E:  BRA    0364
....................       Rx_Buffer2[RX_Wr_Index] = Dato2; 
00350:  CLRF   03
00352:  MOVF   46,W
00354:  ADDLW  3B
00356:  MOVWF  FE9
00358:  MOVLW  00
0035A:  ADDWFC 03,W
0035C:  MOVWF  FEA
0035E:  MOVFF  35C,FEF
....................       RX_Wr_Index++; 
00362:  INCF   46,F
....................    } 
....................    if(RX_Wr_Index >= RX_BUFFER_SIZE){ 
00364:  MOVF   46,W
00366:  SUBLW  09
00368:  BC    036E
....................       RX_Wr_Index =0; 
0036A:  CLRF   46
....................       Inicio=0; 
0036C:  CLRF   x5A
....................    } 
....................  
....................    if(RX_Wr_Index==0){ 
0036E:  MOVF   46,F
00370:  BNZ   0392
....................       if(Rx_Buffer2[0]==0x65 && Rx_Buffer2[1]==0xff && Rx_Buffer2[2]==0xff && Rx_Buffer2[8]==0x00 && Rx_Buffer2[9]==0xff ){ 
00372:  MOVF   3B,W
00374:  SUBLW  65
00376:  BNZ   038E
00378:  INCFSZ 3C,W
0037A:  BRA    038E
0037C:  INCFSZ 3D,W
0037E:  BRA    038E
00380:  MOVF   43,F
00382:  BNZ   038E
00384:  INCFSZ 44,W
00386:  BRA    038E
....................          Dato_Exitoso=5; 
00388:  MOVLW  05
0038A:  MOVWF  x5B
....................       }else{ 
0038C:  BRA    0392
....................          Dato_Exitoso=10; 
0038E:  MOVLW  0A
00390:  MOVWF  x5B
....................       } 
....................    } 
....................    //Dato_Exitoso=5; 
....................    if(Menu==20) 
00392:  MOVF   x5E,W
00394:  SUBLW  14
00396:  BNZ   039C
....................      Buzzer_on; 
00398:  BSF    F8C.0
0039A:  BCF    F95.0
.................... } 
....................  
0039C:  BCF    F9E.5
0039E:  MOVLB  0
003A0:  GOTO   010A
.................... #int_TIMER0 
.................... void temp0s(void){ 
....................    set_timer0(0); 
003A4:  CLRF   FD7
003A6:  CLRF   FD6
....................    t_exhaust++; 
003A8:  MOVLB  3
003AA:  INCF   x92,F
003AC:  BTFSC  FD8.2
003AE:  INCF   x93,F
....................    if(DesfogueSuave){ 
003B0:  MOVLB  0
003B2:  BTFSS  xA0.6
003B4:  BRA    03F6
....................       if(Nivel<6){ 
003B6:  MOVLB  3
003B8:  MOVF   x74,F
003BA:  BNZ   03F0
003BC:  MOVF   x73,W
003BE:  SUBLW  05
003C0:  BNC   03F0
....................          if(t_exhaust<=NivelSeleccionado) // Si el tiempo es menor o igual al tiempo de control se enciende la resistencia de lo contrario se apaga. 
003C2:  MOVF   x93,W
003C4:  SUBWF  x7E,W
003C6:  BNC   03D6
003C8:  BNZ   03D0
003CA:  MOVF   x92,W
003CC:  SUBWF  x7D,W
003CE:  BNC   03D6
....................             Desfogue_on; 
003D0:  BSF    F8C.4
003D2:  BCF    F95.4
....................          else             
003D4:  BRA    03DA
....................             Desfogue_off; 
003D6:  BCF    F8C.4
003D8:  BCF    F95.4
....................        
....................          if(t_exhaust>=60000) // Si el tiempo de control es mayor al tiempo de ciclo se reinicia tiempo de control          
003DA:  MOVF   x93,W
003DC:  SUBLW  E9
003DE:  BC    03EE
003E0:  XORLW  FF
003E2:  BNZ   03EA
003E4:  MOVF   x92,W
003E6:  SUBLW  5F
003E8:  BC    03EE
....................             t_exhaust=0; // tiempoctrl incrementa una unidad cada Xms, por eso se dividen los tiempos por 0.005. 
003EA:  CLRF   x93
003EC:  CLRF   x92
....................       }else{ 
003EE:  BRA    03F4
....................          Desfogue_on; 
003F0:  BSF    F8C.4
003F2:  BCF    F95.4
003F4:  MOVLB  0
....................       } 
....................    }   
.................... } 
....................  
003F6:  BCF    FF2.2
003F8:  GOTO   0074
.................... #int_TIMER1 
.................... void temp1s(void){ 
....................    set_timer1(40536); // Se repite cada 5ms 
003FC:  MOVLW  9E
003FE:  MOVWF  FCF
00400:  MOVLW  58
00402:  MOVWF  FCE
....................    tiempos++; 
00404:  MOVLB  3
00406:  INCF   x6B,F
00408:  BTFSC  FD8.2
0040A:  INCF   x6C,F
....................    tiempos2++; 
0040C:  INCF   x6D,F
0040E:  BTFSC  FD8.2
00410:  INCF   x6E,F
....................    tiempos3++; 
00412:  INCF   x6F,F
00414:  BTFSC  FD8.2
00416:  INCF   x70,F
....................    tiempoctrl++; 
00418:  INCF   x71,F
0041A:  BTFSC  FD8.2
0041C:  INCF   x72,F
....................     
....................    if(!STOP){ 
0041E:  BSF    F93.7
00420:  BTFSS  F81.7
00422:  BRA    042C
....................       tStop++; 
00424:  INCF   x9A,F
00426:  BTFSC  FD8.2
00428:  INCF   x9B,F
....................    }else{ 
0042A:  BRA    0430
....................       tStop=0; 
0042C:  CLRF   x9B
0042E:  CLRF   x9A
....................    } 
....................     
....................    if(!TERM){ 
00430:  BSF    F93.5
00432:  BTFSS  F81.5
00434:  BRA    043E
....................       tTermostato++; 
00436:  INCF   x9C,F
00438:  BTFSC  FD8.2
0043A:  INCF   x9D,F
....................    }else{ 
0043C:  BRA    0442
....................       tTermostato=0; 
0043E:  CLRF   x9D
00440:  CLRF   x9C
....................    } 
....................     
....................    if(flagAlarma) 
00442:  MOVLB  0
00444:  BTFSS  xA2.7
00446:  BRA    0452
....................       tbuzzer++; 
00448:  MOVLB  3
0044A:  INCF   x94,F
0044C:  BTFSC  FD8.2
0044E:  INCF   x95,F
00450:  MOVLB  0
....................        
....................    if(flagSilencio)    
00452:  BTFSS  xA3.1
00454:  BRA    045E
....................       tsilencio++; 
00456:  MOVLB  3
00458:  INCF   x96,F
0045A:  BTFSC  FD8.2
0045C:  INCF   x97,F
....................     
....................    if(Controlando==1){ 
0045E:  MOVLB  3
00460:  DECFSZ x56,W
00462:  BRA    04A0
....................       if(tiempoctrl<Tp) // Si el tiempo es menor o igual al tiempo de control se enciende la resistencia de lo contrario se apaga. 
00464:  MOVF   x72,W
00466:  MOVLB  0
00468:  SUBWF  xAC,W
0046A:  BNC   0484
0046C:  BNZ   047E
0046E:  MOVF   xAB,W
00470:  MOVLB  3
00472:  SUBWF  x71,W
00474:  BTFSS  FD8.0
00476:  BRA    047C
00478:  MOVLB  0
0047A:  BRA    0484
0047C:  MOVLB  0
....................          SSR_on; 
0047E:  BCF    F8B.2
00480:  BCF    F94.2
....................       else          
00482:  BRA    0488
....................          SSR_off; 
00484:  BSF    F8B.2
00486:  BCF    F94.2
....................              
....................       if(tiempoctrl>=Tc) // Si el tiempo de control es mayor al tiempo de ciclo se reinicia tiempo de control 
00488:  MOVF   xAE,W
0048A:  MOVLB  3
0048C:  SUBWF  x72,W
0048E:  BNC   04A0
00490:  BNZ   049C
00492:  MOVLB  0
00494:  MOVF   xAD,W
00496:  MOVLB  3
00498:  SUBWF  x71,W
0049A:  BNC   04A0
....................          tiempoctrl=0;// tiempoctrl incrementa una unidad cada 5ms, por eso se dividen los tiempos por 0.005. 
0049C:  CLRF   x72
0049E:  CLRF   x71
....................    } 
....................     
....................    if(tiempos>=200)  // 12000 para que incremente cada minuto, 200para que incremente cada segundo. 
004A0:  MOVF   x6C,F
004A2:  BNZ   04AC
004A4:  MOVF   x6B,W
004A6:  SUBLW  C7
004A8:  BTFSC  FD8.0
004AA:  BRA    05EE
....................    { 
....................       if(flagTC) 
004AC:  BTFSS  x53.0
004AE:  BRA    04B2
....................          TiempoControl++; 
004B0:  INCF   x8F,F
....................        
....................       tiemporecta++; 
004B2:  INCF   x55,F
....................        
....................       if(flagBombaAgua) 
004B4:  MOVLB  0
004B6:  BTFSS  xA4.2
004B8:  BRA    04C4
....................          tBombaAgua++; 
004BA:  MOVLB  3
004BC:  INCF   x7F,F
004BE:  BTFSC  FD8.2
004C0:  INCF   x80,F
004C2:  MOVLB  0
....................        
....................       if(flagBombaAguaOff) 
004C4:  BTFSS  xA4.3
004C6:  BRA    04D2
....................          tBombaAguaOff++; 
004C8:  MOVLB  3
004CA:  INCF   x81,F
004CC:  BTFSC  FD8.2
004CE:  INCF   x82,F
004D0:  MOVLB  0
....................        
....................       if(IniciaCiclo && tiempoImpresion<CalculoImpresion){ 
004D2:  BTFSS  xA0.1
004D4:  BRA    04E8
004D6:  MOVLB  3
004D8:  MOVF   x59,W
004DA:  SUBWF  x6A,W
004DC:  BTFSS  FD8.0
004DE:  BRA    04E4
004E0:  MOVLB  0
004E2:  BRA    04E8
....................          tiempoImpresion++; 
004E4:  INCF   x6A,F
....................       }else if(tiempoImpresion>=CalculoImpresion){ 
004E6:  BRA    04F4
004E8:  MOVLB  3
004EA:  MOVF   x59,W
004EC:  SUBWF  x6A,W
004EE:  BNC   04F4
....................          flagImprime=1; 
004F0:  BSF    x53.1
....................          tiempoImpresion=0; 
004F2:  CLRF   x6A
....................       } 
....................        
....................       if(IniciaCiclo && !Esterilizando){ 
004F4:  MOVLB  0
004F6:  BTFSS  xA0.1
004F8:  BRA    050E
004FA:  BTFSC  xA0.2
004FC:  BRA    050E
....................          TiempoCiclo++; 
004FE:  INCF   xA5,F
00500:  BTFSC  FD8.2
00502:  INCF   xA6,F
....................          tiempoAgua++; 
00504:  MOVLB  3
00506:  INCF   x98,F
00508:  BTFSC  FD8.2
0050A:  INCF   x99,F
0050C:  MOVLB  0
....................       } 
....................        
....................       if(IniciaLlenado && !CalderinLleno){ 
0050E:  BTFSS  x9F.7
00510:  BRA    051C
00512:  BTFSC  xA0.0
00514:  BRA    051C
....................          TiempoLlenado++; 
00516:  INCF   xA7,F
00518:  BTFSC  FD8.2
0051A:  INCF   xA8,F
....................       } 
....................        
....................       if(SensadoNivel){ 
0051C:  BTFSS  xA0.4
0051E:  BRA    0526
....................          TiempoSensadoNivel++; 
00520:  INCF   xA9,F
00522:  BTFSC  FD8.2
00524:  INCF   xAA,F
....................       } 
....................        
....................       if(guardaCiclo) 
00526:  BTFSS  xA4.1
00528:  BRA    0530
....................          tguarda++;  
0052A:  INCF   xAF,F
0052C:  BTFSC  FD8.2
0052E:  INCF   xB0,F
....................        
....................       tiempos=0;Lectura=1;tinicio++; 
00530:  MOVLB  3
00532:  CLRF   x6C
00534:  CLRF   x6B
00536:  MOVLB  0
00538:  BSF    xA4.5
0053A:  MOVLB  3
0053C:  INCF   x75,F
0053E:  BTFSC  FD8.2
00540:  INCF   x76,F
....................     
....................       if(Esterilizando && !Desfogando){                
00542:  MOVLB  0
00544:  BTFSS  xA0.2
00546:  BRA    059A
00548:  BTFSC  xA0.5
0054A:  BRA    059A
....................          if(Testerilizacion[0]>0){ 
0054C:  BTFSC  xB1.7
0054E:  BRA    055A
00550:  MOVF   xB1,W
00552:  SUBLW  00
00554:  BC    055A
....................             Testerilizacion[0]--; 
00556:  DECF   xB1,F
....................          }else if(Testerilizacion[1]>0){ 
00558:  BRA    059A
0055A:  BTFSC  xB2.7
0055C:  BRA    056C
0055E:  MOVF   xB2,W
00560:  SUBLW  00
00562:  BC    056C
....................             Testerilizacion[1]--; 
00564:  DECF   xB2,F
....................             Testerilizacion[0]=9; 
00566:  MOVLW  09
00568:  MOVWF  xB1
....................          }else if(Testerilizacion[2]>0){ 
0056A:  BRA    059A
0056C:  BTFSC  xB3.7
0056E:  BRA    0582
00570:  MOVF   xB3,W
00572:  SUBLW  00
00574:  BC    0582
....................             Testerilizacion[2]--; 
00576:  DECF   xB3,F
....................             Testerilizacion[1]=5; 
00578:  MOVLW  05
0057A:  MOVWF  xB2
....................             Testerilizacion[0]=9; 
0057C:  MOVLW  09
0057E:  MOVWF  xB1
....................          }else if(Testerilizacion[3]>0){ 
00580:  BRA    059A
00582:  BTFSC  xB4.7
00584:  BRA    059A
00586:  MOVF   xB4,W
00588:  SUBLW  00
0058A:  BC    059A
....................             Testerilizacion[3]--; 
0058C:  DECF   xB4,F
....................             Testerilizacion[2]=9; 
0058E:  MOVLW  09
00590:  MOVWF  xB3
....................             Testerilizacion[1]=5; 
00592:  MOVLW  05
00594:  MOVWF  xB2
....................             Testerilizacion[0]=9; 
00596:  MOVLW  09
00598:  MOVWF  xB1
....................          } 
....................       } 
....................        
....................       if(Secando){ 
0059A:  BTFSS  xA0.3
0059C:  BRA    05EC
....................          if(Tsecado[0]>0){ 
0059E:  BTFSC  xBB.7
005A0:  BRA    05AC
005A2:  MOVF   xBB,W
005A4:  SUBLW  00
005A6:  BC    05AC
....................             Tsecado[0]--; 
005A8:  DECF   xBB,F
....................          }else if(Tsecado[1]>0){ 
005AA:  BRA    05EC
005AC:  BTFSC  xBC.7
005AE:  BRA    05BE
005B0:  MOVF   xBC,W
005B2:  SUBLW  00
005B4:  BC    05BE
....................             Tsecado[1]--; 
005B6:  DECF   xBC,F
....................             Tsecado[0]=9; 
005B8:  MOVLW  09
005BA:  MOVWF  xBB
....................          }else if(Tsecado[2]>0){ 
005BC:  BRA    05EC
005BE:  BTFSC  xBD.7
005C0:  BRA    05D4
005C2:  MOVF   xBD,W
005C4:  SUBLW  00
005C6:  BC    05D4
....................             Tsecado[2]--; 
005C8:  DECF   xBD,F
....................             Tsecado[1]=5; 
005CA:  MOVLW  05
005CC:  MOVWF  xBC
....................             Tsecado[0]=9; 
005CE:  MOVLW  09
005D0:  MOVWF  xBB
....................          }else if(Tsecado[3]>0){ 
005D2:  BRA    05EC
005D4:  BTFSC  xBE.7
005D6:  BRA    05EC
005D8:  MOVF   xBE,W
005DA:  SUBLW  00
005DC:  BC    05EC
....................             Tsecado[3]--; 
005DE:  DECF   xBE,F
....................             Tsecado[2]=9; 
005E0:  MOVLW  09
005E2:  MOVWF  xBD
....................             Tsecado[1]=5; 
005E4:  MOVLW  05
005E6:  MOVWF  xBC
....................             Tsecado[0]=9; 
005E8:  MOVLW  09
005EA:  MOVWF  xBB
005EC:  MOVLB  3
....................          } 
....................       } 
....................    } 
.................... } 
....................  
005EE:  BCF    F9E.0
005F0:  MOVLB  0
005F2:  GOTO   0074
.................... void main() 
.................... { 
*
06E62:  CLRF   FF8
06E64:  BCF    FF1.2
06E66:  BCF    F9F.0
06E68:  BSF    F9F.5
06E6A:  BSF    FD0.7
06E6C:  BSF    07.7
06E6E:  CLRF   FEA
06E70:  CLRF   FE9
06E72:  BSF    FB8.3
06E74:  MOVLW  08
06E76:  MOVWF  FAF
06E78:  MOVLW  02
06E7A:  MOVWF  FB0
06E7C:  MOVLW  A6
06E7E:  MOVWF  FAC
06E80:  MOVLW  90
06E82:  MOVWF  FAB
06E84:  CLRF   46
06E86:  CLRF   47
06E88:  CLRF   48
06E8A:  CLRF   x62
06E8C:  CLRF   x63
06E8E:  CLRF   x84
06E90:  CLRF   x85
06E92:  CLRF   x86
06E94:  BCF    x9F.0
06E96:  BCF    x9F.1
06E98:  BCF    x9F.2
06E9A:  BCF    x9F.3
06E9C:  BCF    x9F.4
06E9E:  BCF    x9F.5
06EA0:  BCF    x9F.6
06EA2:  BCF    x9F.7
06EA4:  BCF    xA0.0
06EA6:  BCF    xA0.1
06EA8:  BCF    xA0.2
06EAA:  BCF    xA0.3
06EAC:  BCF    xA0.4
06EAE:  BCF    xA0.5
06EB0:  BCF    xA0.6
06EB2:  BCF    xA0.7
06EB4:  BCF    xA1.0
06EB6:  BCF    xA1.1
06EB8:  BCF    xA1.2
06EBA:  BCF    xA1.3
06EBC:  BCF    xA1.4
06EBE:  BCF    xA1.5
06EC0:  BCF    xA1.6
06EC2:  BCF    xA1.7
06EC4:  BCF    xA2.0
06EC6:  BCF    xA2.1
06EC8:  BCF    xA2.2
06ECA:  BCF    xA2.3
06ECC:  BCF    xA2.4
06ECE:  BCF    xA2.5
06ED0:  BCF    xA2.6
06ED2:  BCF    xA2.7
06ED4:  BCF    xA3.0
06ED6:  BCF    xA3.1
06ED8:  BCF    xA3.2
06EDA:  BCF    xA3.3
06EDC:  BCF    xA3.4
06EDE:  BCF    xA3.5
06EE0:  BCF    xA3.6
06EE2:  BCF    xA3.7
06EE4:  BCF    xA4.0
06EE6:  BCF    xA4.1
06EE8:  BCF    xA4.2
06EEA:  BCF    xA4.3
06EEC:  CLRF   xA6
06EEE:  CLRF   xA5
06EF0:  CLRF   xA8
06EF2:  CLRF   xA7
06EF4:  CLRF   xAA
06EF6:  CLRF   xA9
06EF8:  CLRF   xAC
06EFA:  CLRF   xAB
06EFC:  CLRF   xAE
06EFE:  CLRF   xAD
06F00:  CLRF   xB0
06F02:  CLRF   xAF
06F04:  MOVLW  9A
06F06:  MOVLB  2
06F08:  MOVWF  xA6
06F0A:  MOVLW  99
06F0C:  MOVWF  xA5
06F0E:  MOVLW  0D
06F10:  MOVWF  xA4
06F12:  MOVLW  86
06F14:  MOVWF  xA3
06F16:  CLRF   xAA
06F18:  CLRF   xA9
06F1A:  CLRF   xA8
06F1C:  MOVLW  7E
06F1E:  MOVWF  xA7
06F20:  CLRF   xAE
06F22:  CLRF   xAD
06F24:  CLRF   xAC
06F26:  CLRF   xAB
06F28:  CLRF   xB2
06F2A:  CLRF   xB1
06F2C:  MOVLW  48
06F2E:  MOVWF  xB0
06F30:  MOVLW  85
06F32:  MOVWF  xAF
06F34:  CLRF   xB6
06F36:  MOVLW  80
06F38:  MOVWF  xB5
06F3A:  MOVLW  54
06F3C:  MOVWF  xB4
06F3E:  MOVLW  8B
06F40:  MOVWF  xB3
06F42:  CLRF   xCA
06F44:  CLRF   xC9
06F46:  CLRF   xC8
06F48:  CLRF   xC7
06F4A:  CLRF   xCE
06F4C:  CLRF   xCD
06F4E:  CLRF   xCC
06F50:  CLRF   xCB
06F52:  CLRF   xD2
06F54:  CLRF   xD1
06F56:  CLRF   xD0
06F58:  CLRF   xCF
06F5A:  CLRF   xD6
06F5C:  CLRF   xD5
06F5E:  CLRF   xD4
06F60:  CLRF   xD3
06F62:  CLRF   xD7
06F64:  CLRF   xD8
06F66:  CLRF   xD9
06F68:  CLRF   xDA
06F6A:  MOVLW  14
06F6C:  MOVWF  xDB
06F6E:  CLRF   xDC
06F70:  CLRF   xDD
06F72:  CLRF   xDE
06F74:  CLRF   xDF
06F76:  CLRF   xE0
06F78:  CLRF   xE1
06F7A:  CLRF   xE2
06F7C:  CLRF   xE3
06F7E:  CLRF   xE4
06F80:  CLRF   xE5
06F82:  CLRF   xE6
06F84:  CLRF   xE7
06F86:  CLRF   xEB
06F88:  CLRF   xEA
06F8A:  CLRF   xE9
06F8C:  CLRF   xE8
06F8E:  CLRF   xF3
06F90:  CLRF   xF2
06F92:  MOVLW  20
06F94:  MOVWF  xF1
06F96:  MOVLW  82
06F98:  MOVWF  xF0
06F9A:  CLRF   xF7
06F9C:  CLRF   xF6
06F9E:  CLRF   xF5
06FA0:  CLRF   xF4
06FA2:  CLRF   xFB
06FA4:  CLRF   xFA
06FA6:  CLRF   xF9
06FA8:  CLRF   xF8
06FAA:  CLRF   xFF
06FAC:  CLRF   xFE
06FAE:  CLRF   xFD
06FB0:  CLRF   xFC
06FB2:  MOVLB  3
06FB4:  CLRF   x03
06FB6:  CLRF   x02
06FB8:  CLRF   x01
06FBA:  CLRF   x00
06FBC:  CLRF   x07
06FBE:  CLRF   x06
06FC0:  CLRF   x05
06FC2:  CLRF   x04
06FC4:  CLRF   x0B
06FC6:  CLRF   x0A
06FC8:  MOVLW  48
06FCA:  MOVWF  x09
06FCC:  MOVLW  83
06FCE:  MOVWF  x08
06FD0:  CLRF   x0F
06FD2:  CLRF   x0E
06FD4:  MOVLW  20
06FD6:  MOVWF  x0D
06FD8:  MOVLW  83
06FDA:  MOVWF  x0C
06FDC:  MOVLW  9A
06FDE:  MOVWF  x13
06FE0:  MOVLW  99
06FE2:  MOVWF  x12
06FE4:  MOVLW  19
06FE6:  MOVWF  x11
06FE8:  MOVLW  7F
06FEA:  MOVWF  x10
06FEC:  CLRF   x17
06FEE:  CLRF   x16
06FF0:  CLRF   x15
06FF2:  CLRF   x14
06FF4:  CLRF   x1B
06FF6:  CLRF   x1A
06FF8:  CLRF   x19
06FFA:  CLRF   x18
06FFC:  CLRF   x1F
06FFE:  CLRF   x1E
07000:  CLRF   x1D
07002:  CLRF   x1C
07004:  CLRF   x23
07006:  CLRF   x22
07008:  CLRF   x21
0700A:  CLRF   x20
0700C:  CLRF   x27
0700E:  CLRF   x26
07010:  CLRF   x25
07012:  CLRF   x24
07014:  CLRF   x2B
07016:  CLRF   x2A
07018:  CLRF   x29
0701A:  CLRF   x28
0701C:  MOVLW  4A
0701E:  MOVWF  x2F
07020:  MOVLW  88
07022:  MOVWF  x2E
07024:  MOVLW  28
07026:  MOVWF  x2D
07028:  MOVLW  75
0702A:  MOVWF  x2C
0702C:  MOVLW  E0
0702E:  MOVWF  x33
07030:  MOVLW  2D
07032:  MOVWF  x32
07034:  MOVLW  10
07036:  MOVWF  x31
07038:  MOVLW  75
0703A:  MOVWF  x30
0703C:  MOVLW  FF
0703E:  MOVWF  x37
07040:  MOVLW  21
07042:  MOVWF  x36
07044:  MOVLW  15
07046:  MOVWF  x35
07048:  MOVLW  80
0704A:  MOVWF  x34
0704C:  MOVLW  82
0704E:  MOVWF  x3B
07050:  MOVLW  12
07052:  MOVWF  x3A
07054:  MOVLW  F4
07056:  MOVWF  x39
07058:  MOVLW  86
0705A:  MOVWF  x38
0705C:  CLRF   x3C
0705E:  CLRF   x3D
07060:  CLRF   x3E
07062:  MOVLW  B5
07064:  MOVWF  x42
07066:  MOVLW  EB
07068:  MOVWF  x41
0706A:  MOVLW  1B
0706C:  MOVWF  x40
0706E:  MOVLW  6B
07070:  MOVWF  x3F
07072:  MOVLW  D0
07074:  MOVWF  x46
07076:  MOVLW  9B
07078:  MOVWF  x45
0707A:  MOVLW  8A
0707C:  MOVWF  x44
0707E:  MOVLW  75
07080:  MOVWF  x43
07082:  MOVLW  1A
07084:  MOVWF  x4A
07086:  MOVLW  DD
07088:  MOVWF  x49
0708A:  MOVLW  61
0708C:  MOVWF  x48
0708E:  MOVLW  7D
07090:  MOVWF  x47
07092:  MOVLW  04
07094:  MOVWF  x4E
07096:  MOVLW  16
07098:  MOVWF  x4D
0709A:  MOVLW  02
0709C:  MOVWF  x4C
0709E:  MOVLW  85
070A0:  MOVWF  x4B
070A2:  CLRF   x52
070A4:  CLRF   x51
070A6:  CLRF   x50
070A8:  CLRF   x4F
070AA:  MOVLB  0
070AC:  BCF    xA4.4
070AE:  BCF    xA4.5
070B0:  BCF    xA4.6
070B2:  BCF    xA4.7
070B4:  MOVLB  3
070B6:  BCF    x53.0
070B8:  BCF    x53.1
070BA:  BCF    x53.2
070BC:  CLRF   x54
070BE:  CLRF   x55
070C0:  CLRF   x56
070C2:  MOVLW  01
070C4:  MOVWF  x57
070C6:  MOVLW  02
070C8:  MOVWF  x58
070CA:  CLRF   x59
070CC:  MOVLW  01
070CE:  MOVWF  x5A
070D0:  CLRF   x5B
070D2:  CLRF   x5C
070D4:  CLRF   x5D
070D6:  CLRF   x5E
070D8:  CLRF   x5F
070DA:  MOVLW  F0
070DC:  MOVWF  x60
070DE:  CLRF   x61
070E0:  CLRF   x62
070E2:  CLRF   x63
070E4:  CLRF   x64
070E6:  CLRF   x65
070E8:  MOVLW  01
070EA:  MOVWF  x66
070EC:  MOVWF  x67
070EE:  CLRF   x68
070F0:  CLRF   x69
070F2:  CLRF   x6A
070F4:  CLRF   x6C
070F6:  CLRF   x6B
070F8:  CLRF   x6E
070FA:  CLRF   x6D
070FC:  CLRF   x70
070FE:  CLRF   x6F
07100:  CLRF   x72
07102:  CLRF   x71
07104:  CLRF   x74
07106:  CLRF   x73
07108:  CLRF   x76
0710A:  CLRF   x75
0710C:  CLRF   x78
0710E:  CLRF   x77
07110:  CLRF   x7A
07112:  CLRF   x79
07114:  CLRF   x7C
07116:  CLRF   x7B
07118:  CLRF   x7E
0711A:  CLRF   x7D
0711C:  CLRF   x80
0711E:  CLRF   x7F
07120:  CLRF   x82
07122:  CLRF   x81
07124:  CLRF   x8B
07126:  CLRF   x8C
07128:  CLRF   x8D
0712A:  CLRF   x8E
0712C:  CLRF   x8F
0712E:  CLRF   x90
07130:  CLRF   x91
07132:  CLRF   x93
07134:  CLRF   x92
07136:  CLRF   x95
07138:  CLRF   x94
0713A:  CLRF   x97
0713C:  CLRF   x96
0713E:  CLRF   x99
07140:  CLRF   x98
07142:  CLRF   x9B
07144:  CLRF   x9A
07146:  CLRF   x9D
07148:  CLRF   x9C
0714A:  MOVLW  12
0714C:  MOVWF  x9E
0714E:  MOVLW  09
07150:  MOVWF  x9F
07152:  MOVLW  0D
07154:  MOVWF  xA0
07156:  CLRF   xA1
07158:  CLRF   xA2
0715A:  CLRF   xA3
0715C:  CLRF   xA4
0715E:  CLRF   xA5
07160:  CLRF   xA6
07162:  CLRF   xA7
07164:  CLRF   xA8
07166:  CLRF   xA9
07168:  CLRF   xAA
0716A:  CLRF   xAB
0716C:  CLRF   xAC
0716E:  CLRF   xAD
07170:  MOVLW  48
07172:  MOVWF  xAE
07174:  CLRF   xAF
07176:  CLRF   xB0
07178:  CLRF   xB1
0717A:  CLRF   xB2
0717C:  CLRF   xC5
0717E:  CLRF   xC6
07180:  CLRF   xC7
07182:  CLRF   xC8
07184:  CLRF   xC9
07186:  MOVF   FC1,W
07188:  ANDLW  C0
0718A:  IORLW  0F
0718C:  MOVWF  FC1
0718E:  MOVLW  07
07190:  MOVWF  FB4
07192:  CLRF   2A
07194:  CLRF   2B
07196:  MOVLB  0
07198:  CLRF   x87
0719A:  MOVLW  03
0719C:  MOVWF  x88
0719E:  MOVWF  x89
071A0:  MOVLW  06
071A2:  MOVWF  x8A
071A4:  MOVLW  01
071A6:  MOVWF  x8B
071A8:  MOVLW  04
071AA:  MOVWF  x8C
071AC:  MOVLW  06
071AE:  MOVWF  x8D
071B0:  MOVLW  02
071B2:  MOVWF  x8E
071B4:  MOVLW  05
071B6:  MOVWF  x8F
071B8:  CLRF   x90
071BA:  MOVLW  03
071BC:  MOVWF  x91
071BE:  MOVLW  05
071C0:  MOVWF  x92
071C2:  CLRF   x93
071C4:  MOVLW  03
071C6:  MOVWF  x94
071C8:  MOVLW  04
071CA:  MOVWF  x95
071CC:  CLRF   x96
071CE:  MOVLW  02
071D0:  MOVWF  x97
071D2:  MOVLW  05
071D4:  MOVWF  x98
071D6:  CLRF   x99
071D8:  MOVLW  03
071DA:  MOVWF  x9A
071DC:  MOVLW  06
071DE:  MOVWF  x9B
071E0:  MOVLW  01
071E2:  MOVWF  x9C
071E4:  MOVLW  04
071E6:  MOVWF  x9D
071E8:  MOVLW  06
071EA:  MOVWF  x9E
071EC:  CLRF   xB1
071EE:  CLRF   xB2
071F0:  CLRF   xB3
071F2:  CLRF   xB4
071F4:  CLRF   xB5
071F6:  CLRF   xB6
071F8:  CLRF   xB7
071FA:  CLRF   xB8
071FC:  CLRF   xB9
071FE:  CLRF   xBA
07200:  CLRF   xBB
07202:  CLRF   xBC
07204:  CLRF   xBD
07206:  CLRF   xBE
07208:  CLRF   xBF
0720A:  CLRF   xC0
0720C:  CLRF   xC1
0720E:  CLRF   xC2
07210:  CLRF   xC3
07212:  CLRF   xC4
07214:  CLRF   xC5
07216:  CLRF   xC6
07218:  CLRF   xC7
0721A:  CLRF   xC8
0721C:  CLRF   xC9
0721E:  CLRF   xCA
07220:  CLRF   xCB
07222:  CLRF   xCC
07224:  CLRF   xCD
07226:  CLRF   xCE
07228:  CLRF   xCF
0722A:  CLRF   xD0
0722C:  CLRF   xD1
0722E:  CLRF   xD2
07230:  CLRF   xD3
07232:  CLRF   xD4
07234:  CLRF   xD5
07236:  CLRF   xD6
07238:  CLRF   xD7
0723A:  CLRF   xD8
0723C:  CLRF   xD9
0723E:  CLRF   xDA
07240:  CLRF   xDB
07242:  CLRF   xDC
07244:  CLRF   xDD
07246:  CLRF   xDE
07248:  CLRF   xDF
0724A:  CLRF   xE0
0724C:  CLRF   xE1
0724E:  CLRF   xE2
07250:  CLRF   xE3
07252:  CLRF   xE4
07254:  CLRF   xE5
07256:  CLRF   xE6
07258:  CLRF   xE7
0725A:  CLRF   xE8
0725C:  CLRF   xE9
0725E:  CLRF   xEA
07260:  CLRF   xEB
07262:  CLRF   xEC
07264:  CLRF   xED
07266:  CLRF   xEE
07268:  CLRF   xEF
0726A:  CLRF   xF0
0726C:  CLRF   xF1
0726E:  CLRF   xF2
07270:  CLRF   xF3
07272:  CLRF   xF4
07274:  CLRF   xF5
07276:  CLRF   xF6
07278:  CLRF   xF7
0727A:  CLRF   xF8
0727C:  CLRF   xF9
0727E:  CLRF   xFA
07280:  CLRF   xFB
07282:  CLRF   xFC
07284:  CLRF   xFD
07286:  CLRF   xFE
07288:  CLRF   xFF
0728A:  MOVLB  1
0728C:  CLRF   x00
0728E:  CLRF   x01
07290:  CLRF   x02
07292:  CLRF   x03
07294:  CLRF   x04
07296:  CLRF   x05
07298:  CLRF   x06
0729A:  CLRF   x07
0729C:  CLRF   x08
0729E:  CLRF   x09
072A0:  CLRF   x0A
072A2:  CLRF   x0B
072A4:  CLRF   x0C
072A6:  CLRF   x0D
072A8:  CLRF   x0E
072AA:  CLRF   x0F
072AC:  CLRF   x10
072AE:  CLRF   x11
072B0:  CLRF   x12
072B2:  CLRF   x13
072B4:  CLRF   x14
072B6:  CLRF   x15
072B8:  CLRF   x16
072BA:  CLRF   x17
072BC:  CLRF   x18
072BE:  CLRF   x19
072C0:  CLRF   x1A
072C2:  CLRF   x1B
072C4:  CLRF   x1C
072C6:  CLRF   x1D
072C8:  CLRF   x1E
072CA:  CLRF   x1F
072CC:  CLRF   x20
072CE:  CLRF   x21
072D0:  CLRF   x22
072D2:  CLRF   x23
072D4:  CLRF   x24
072D6:  CLRF   x25
072D8:  CLRF   x26
072DA:  CLRF   x27
072DC:  CLRF   x28
072DE:  CLRF   x29
072E0:  CLRF   x2A
072E2:  CLRF   x2B
072E4:  CLRF   x2C
072E6:  CLRF   x2D
072E8:  CLRF   x2E
072EA:  CLRF   x2F
072EC:  CLRF   x30
072EE:  CLRF   x31
072F0:  CLRF   x32
072F2:  CLRF   x33
072F4:  CLRF   x34
072F6:  CLRF   x35
072F8:  CLRF   x36
072FA:  CLRF   x37
072FC:  CLRF   x38
072FE:  CLRF   x39
07300:  CLRF   x3A
07302:  CLRF   x3B
07304:  CLRF   x3C
07306:  CLRF   x3D
07308:  CLRF   x3E
0730A:  CLRF   x3F
0730C:  CLRF   x40
0730E:  CLRF   x41
07310:  CLRF   x42
07312:  CLRF   x43
07314:  CLRF   x44
07316:  CLRF   x45
07318:  CLRF   x46
0731A:  CLRF   x47
0731C:  CLRF   x48
0731E:  CLRF   x49
07320:  CLRF   x4A
07322:  CLRF   x4B
07324:  CLRF   x4C
07326:  CLRF   x4D
07328:  CLRF   x4E
0732A:  CLRF   x4F
0732C:  CLRF   x50
0732E:  CLRF   x51
07330:  CLRF   x52
07332:  CLRF   x53
07334:  CLRF   x54
07336:  CLRF   x55
07338:  CLRF   x56
0733A:  CLRF   x57
0733C:  CLRF   x58
0733E:  CLRF   x59
07340:  CLRF   x5A
07342:  CLRF   x5B
07344:  CLRF   x5C
07346:  CLRF   x5D
07348:  CLRF   x5E
0734A:  CLRF   x5F
0734C:  CLRF   x60
0734E:  CLRF   x61
07350:  CLRF   x62
07352:  CLRF   x63
07354:  CLRF   x64
07356:  CLRF   x65
07358:  CLRF   x66
0735A:  CLRF   x67
0735C:  CLRF   x68
0735E:  CLRF   x69
07360:  CLRF   x6A
07362:  CLRF   x6B
07364:  CLRF   x6C
07366:  CLRF   x6D
07368:  CLRF   x6E
0736A:  CLRF   x6F
0736C:  CLRF   x70
0736E:  CLRF   x71
07370:  CLRF   x72
07372:  CLRF   x73
07374:  CLRF   x74
07376:  CLRF   x75
07378:  CLRF   x76
0737A:  CLRF   x77
0737C:  CLRF   x78
0737E:  CLRF   x79
07380:  CLRF   x7A
07382:  CLRF   x7B
07384:  CLRF   x7C
07386:  CLRF   x7D
07388:  CLRF   x7E
0738A:  CLRF   x7F
0738C:  CLRF   x80
0738E:  CLRF   x81
07390:  CLRF   x82
07392:  CLRF   x83
07394:  CLRF   x84
07396:  CLRF   x85
07398:  CLRF   x86
0739A:  CLRF   x87
0739C:  CLRF   x88
0739E:  CLRF   x89
073A0:  CLRF   x8A
073A2:  CLRF   x8B
073A4:  CLRF   x8C
073A6:  CLRF   x8D
073A8:  CLRF   x8E
073AA:  CLRF   x8F
073AC:  CLRF   x90
073AE:  CLRF   x91
073B0:  CLRF   x92
073B2:  CLRF   x93
073B4:  CLRF   x94
073B6:  CLRF   x95
073B8:  CLRF   x96
073BA:  CLRF   x97
073BC:  CLRF   x98
073BE:  CLRF   x99
073C0:  CLRF   x9A
073C2:  CLRF   x9B
073C4:  CLRF   x9C
073C6:  CLRF   x9D
073C8:  CLRF   x9E
073CA:  CLRF   x9F
073CC:  CLRF   xA0
073CE:  CLRF   xA1
073D0:  CLRF   xA2
073D2:  CLRF   xA3
073D4:  CLRF   xA4
073D6:  CLRF   xA5
073D8:  CLRF   xA6
073DA:  CLRF   xA7
073DC:  CLRF   xA8
073DE:  CLRF   xA9
073E0:  CLRF   xAA
073E2:  CLRF   xAB
073E4:  CLRF   xAC
073E6:  CLRF   xAD
073E8:  CLRF   xAE
073EA:  CLRF   xAF
073EC:  CLRF   xB0
073EE:  CLRF   xB1
073F0:  CLRF   xB2
073F2:  CLRF   xB3
073F4:  CLRF   xB4
073F6:  CLRF   xB5
073F8:  CLRF   xB6
073FA:  CLRF   xB7
073FC:  CLRF   xB8
073FE:  CLRF   xB9
07400:  CLRF   xBA
07402:  CLRF   xBB
07404:  CLRF   xBC
07406:  CLRF   xBD
07408:  CLRF   xBE
0740A:  CLRF   xBF
0740C:  CLRF   xC0
0740E:  CLRF   xC1
07410:  CLRF   xC2
07412:  CLRF   xC3
07414:  CLRF   xC4
07416:  CLRF   xC5
07418:  CLRF   xC6
0741A:  CLRF   xC7
0741C:  CLRF   xC8
0741E:  CLRF   xC9
07420:  CLRF   xCA
07422:  CLRF   xCB
07424:  CLRF   xCC
07426:  CLRF   xCD
07428:  CLRF   xCE
0742A:  CLRF   xCF
0742C:  CLRF   xD0
0742E:  CLRF   xD1
07430:  CLRF   xD2
07432:  CLRF   xD3
07434:  CLRF   xD4
07436:  CLRF   xD5
07438:  CLRF   xD6
0743A:  CLRF   xD7
0743C:  CLRF   xD8
0743E:  CLRF   xD9
07440:  CLRF   xDA
07442:  CLRF   xDB
07444:  CLRF   xDC
07446:  CLRF   xDD
07448:  CLRF   xDE
0744A:  CLRF   xDF
0744C:  CLRF   xE0
0744E:  CLRF   xE1
07450:  CLRF   xE2
07452:  CLRF   xE3
07454:  CLRF   xE4
07456:  CLRF   xE5
07458:  CLRF   xE6
0745A:  CLRF   xE7
0745C:  CLRF   xE8
0745E:  CLRF   xE9
07460:  CLRF   xEA
07462:  CLRF   xEB
07464:  CLRF   xEC
07466:  CLRF   xED
07468:  CLRF   xEE
0746A:  CLRF   xEF
0746C:  CLRF   xF0
0746E:  CLRF   xF1
07470:  CLRF   xF2
07472:  CLRF   xF3
07474:  CLRF   xF4
07476:  CLRF   xF5
07478:  CLRF   xF6
0747A:  CLRF   xF7
0747C:  CLRF   xF8
0747E:  CLRF   xF9
07480:  CLRF   xFA
07482:  CLRF   xFB
07484:  CLRF   xFC
07486:  CLRF   xFD
07488:  CLRF   xFE
0748A:  CLRF   xFF
0748C:  MOVLB  2
0748E:  CLRF   x00
07490:  CLRF   x01
07492:  CLRF   x02
07494:  CLRF   x03
07496:  CLRF   x04
07498:  CLRF   x05
0749A:  CLRF   x06
0749C:  CLRF   x07
0749E:  CLRF   x08
074A0:  CLRF   x09
074A2:  CLRF   x0A
074A4:  CLRF   x0B
074A6:  CLRF   x0C
074A8:  CLRF   x0D
074AA:  CLRF   x0E
074AC:  CLRF   x0F
074AE:  CLRF   x10
074B0:  CLRF   x11
074B2:  CLRF   x12
074B4:  CLRF   x13
074B6:  CLRF   x14
074B8:  CLRF   x15
074BA:  CLRF   x16
074BC:  CLRF   x17
074BE:  CLRF   x18
074C0:  CLRF   x19
074C2:  CLRF   x1A
074C4:  CLRF   x1B
074C6:  CLRF   x1C
074C8:  CLRF   x1D
074CA:  CLRF   x1E
074CC:  CLRF   x1F
074CE:  CLRF   x20
074D0:  CLRF   x21
074D2:  CLRF   x22
074D4:  CLRF   x23
074D6:  CLRF   x24
074D8:  CLRF   x25
074DA:  CLRF   x26
074DC:  CLRF   x27
074DE:  CLRF   x28
074E0:  CLRF   x29
074E2:  CLRF   x2A
074E4:  CLRF   x2B
074E6:  CLRF   x2C
074E8:  CLRF   x2D
074EA:  CLRF   x2E
074EC:  CLRF   x2F
074EE:  CLRF   x30
074F0:  CLRF   x31
074F2:  CLRF   x32
074F4:  CLRF   x33
074F6:  CLRF   x34
074F8:  CLRF   x35
074FA:  CLRF   x36
074FC:  CLRF   x37
074FE:  CLRF   x38
07500:  CLRF   x39
07502:  CLRF   x3A
07504:  CLRF   x3B
07506:  CLRF   x3C
07508:  CLRF   x3D
0750A:  CLRF   x3E
0750C:  CLRF   x3F
0750E:  CLRF   x40
07510:  CLRF   x41
07512:  CLRF   x42
07514:  CLRF   x43
07516:  CLRF   x44
07518:  CLRF   x45
0751A:  CLRF   x46
0751C:  CLRF   x47
0751E:  CLRF   x48
07520:  CLRF   x49
07522:  CLRF   x4A
07524:  CLRF   x4B
07526:  CLRF   x4C
07528:  CLRF   x4D
0752A:  CLRF   x4E
0752C:  CLRF   x4F
0752E:  CLRF   x50
07530:  CLRF   x51
07532:  CLRF   x52
07534:  CLRF   x53
07536:  CLRF   x54
07538:  CLRF   x55
0753A:  CLRF   x56
0753C:  CLRF   x57
0753E:  CLRF   x58
07540:  CLRF   x59
07542:  CLRF   x5A
07544:  CLRF   x5B
07546:  CLRF   x5C
07548:  CLRF   x5D
0754A:  CLRF   x5E
0754C:  CLRF   x5F
0754E:  CLRF   x60
07550:  CLRF   x61
07552:  CLRF   x62
07554:  CLRF   x63
07556:  CLRF   x64
07558:  CLRF   x65
0755A:  CLRF   x66
0755C:  CLRF   x67
0755E:  CLRF   x68
07560:  CLRF   x69
07562:  CLRF   x6A
07564:  CLRF   x6B
07566:  CLRF   x6C
07568:  CLRF   x6D
0756A:  CLRF   x6E
0756C:  CLRF   x6F
0756E:  CLRF   x70
07570:  CLRF   x71
07572:  CLRF   x72
07574:  CLRF   x73
07576:  CLRF   x74
07578:  CLRF   x75
0757A:  CLRF   x76
0757C:  CLRF   x77
0757E:  CLRF   x78
07580:  CLRF   x79
07582:  CLRF   x7A
07584:  CLRF   x7B
07586:  CLRF   x7C
07588:  CLRF   x7D
0758A:  CLRF   x7E
0758C:  CLRF   x7F
0758E:  CLRF   x80
07590:  CLRF   x81
07592:  CLRF   x82
07594:  CLRF   x83
07596:  CLRF   x84
07598:  CLRF   x85
0759A:  CLRF   x86
0759C:  CLRF   x87
0759E:  CLRF   x88
075A0:  CLRF   x89
075A2:  CLRF   x8A
075A4:  CLRF   x8B
075A6:  CLRF   x8C
075A8:  CLRF   x8D
075AA:  CLRF   x8E
075AC:  CLRF   x8F
075AE:  CLRF   x90
075B0:  CLRF   x91
075B2:  CLRF   x92
075B4:  CLRF   x93
075B6:  CLRF   x94
075B8:  CLRF   x95
075BA:  CLRF   x96
075BC:  CLRF   x97
075BE:  CLRF   x98
075C0:  CLRF   x99
075C2:  CLRF   x9A
075C4:  CLRF   x9B
075C6:  CLRF   x9C
075C8:  CLRF   x9D
075CA:  CLRF   x9E
075CC:  CLRF   x9F
075CE:  CLRF   xA0
075D0:  CLRF   xA1
075D2:  CLRF   xA2
075D4:  CLRF   xB7
075D6:  CLRF   xB8
075D8:  CLRF   xB9
075DA:  CLRF   xBA
075DC:  CLRF   xBB
075DE:  CLRF   xBC
075E0:  CLRF   xBD
075E2:  CLRF   xBE
075E4:  CLRF   xBF
075E6:  CLRF   xC0
075E8:  CLRF   xC1
075EA:  CLRF   xC2
075EC:  CLRF   xC3
075EE:  CLRF   xC4
075F0:  CLRF   xC5
075F2:  CLRF   xC6
075F4:  MOVLB  3
075F6:  CLRF   x83
075F8:  CLRF   x84
075FA:  CLRF   x85
075FC:  CLRF   x86
075FE:  CLRF   x87
07600:  CLRF   x88
07602:  CLRF   x89
07604:  CLRF   x8A
07606:  MOVLW  19
07608:  MOVWF  xB3
0760A:  MOVLW  10
0760C:  MOVWF  xB4
0760E:  MOVLW  16
07610:  MOVWF  xB5
07612:  MOVLW  18
07614:  MOVWF  xB6
07616:  MOVLW  17
07618:  MOVWF  xB7
0761A:  MOVLW  1C
0761C:  MOVWF  xB8
0761E:  MOVLW  14
07620:  MOVWF  xB9
07622:  MOVLW  2E
07624:  MOVWF  xBA
07626:  MOVLW  45
07628:  MOVWF  xBB
0762A:  MOVLW  22
0762C:  MOVWF  xBC
0762E:  MOVLW  24
07630:  MOVWF  xBD
07632:  MOVLW  12
07634:  MOVWF  xBE
07636:  MOVLW  21
07638:  MOVWF  xBF
0763A:  MOVLW  20
0763C:  MOVWF  xC0
0763E:  MOVLW  26
07640:  MOVWF  xC1
07642:  MOVLW  13
07644:  MOVWF  xC2
07646:  MOVLW  11
07648:  MOVWF  xC3
0764A:  MOVLW  44
0764C:  MOVWF  xC4
....................     
....................    for (posicion=0;posicion<0x10;posicion++){ 
0764E:  MOVLB  0
07650:  CLRF   x86
07652:  MOVF   x86,W
07654:  SUBLW  0F
07656:  BNC   766C
....................       SlaveA0Tx[posicion] = 0x00; 
07658:  CLRF   03
0765A:  MOVF   x86,W
0765C:  ADDLW  64
0765E:  MOVWF  FE9
07660:  MOVLW  00
07662:  ADDWFC 03,W
07664:  MOVWF  FEA
07666:  CLRF   FEF
....................    } 
07668:  INCF   x86,F
0766A:  BRA    7652
....................    setup_timer_0(RTCC_8_BIT|RTCC_DIV_1); 
0766C:  MOVLW  C8
0766E:  MOVWF  FD5
....................    enable_interrupts(INT_TIMER0); 
07670:  BSF    FF2.5
....................    setup_timer_1(T1_INTERNAL|T1_DIV_BY_1); 
07672:  MOVLW  85
07674:  MOVWF  FCD
....................    enable_interrupts(INT_TIMER1); 
07676:  BSF    F9D.0
....................    setup_adc_ports(AN0_TO_AN3); 
07678:  MOVF   FC1,W
0767A:  ANDLW  C0
0767C:  IORLW  0B
0767E:  MOVWF  FC1
....................    setup_adc(ADC_CLOCK_DIV_32 ); 
07680:  MOVF   FC0,W
07682:  ANDLW  C0
07684:  IORLW  02
07686:  MOVWF  FC0
07688:  BSF    FC0.7
0768A:  BSF    FC2.0
....................    port_b_pullups(true); 
0768C:  BCF    FF1.7
....................    enable_interrupts(int_rda); 
0768E:  BSF    F9D.5
....................    setup_wdt(WDT_ON); 
07690:  BSF    FD1.0
....................    enable_interrupts(global); 
07692:  MOVLW  C0
07694:  IORWF  FF2,F
....................    LeeEEPROM(); 
07696:  GOTO   1EB8
....................    rtc_init(); 
0769A:  GOTO   2D36
....................    delay_ms(1); 
0769E:  MOVLW  01
076A0:  MOVLB  4
076A2:  MOVWF  x54
076A4:  MOVLB  0
076A6:  CALL   1A84
....................    LimitaValores(); 
076AA:  GOTO   2E50
....................    CalculoImpresion=timpresion*60; 
076AE:  MOVLB  3
076B0:  MOVF   x58,W
076B2:  MULLW  3C
076B4:  MOVFF  FF3,359
....................    printf("page Bienvenida"); 
076B8:  MOVLW  F6
076BA:  MOVWF  FF6
076BC:  MOVLW  05
076BE:  MOVWF  FF7
076C0:  MOVLW  00
076C2:  MOVWF  FF8
076C4:  MOVLB  0
076C6:  CALL   38BE
....................    SendDataDisplay(); 
076CA:  CALL   38F0
....................    printf("bkcmd=0"); 
076CE:  MOVLW  06
076D0:  MOVWF  FF6
076D2:  MOVLW  06
076D4:  MOVWF  FF7
076D6:  MOVLW  00
076D8:  MOVWF  FF8
076DA:  CALL   38BE
....................    SendDataDisplay(); 
076DE:  CALL   38F0
....................    delay_ms(1500); 
076E2:  MOVLW  06
076E4:  MOVLB  4
076E6:  MOVWF  x3F
076E8:  MOVLW  FA
076EA:  MOVWF  x54
076EC:  MOVLB  0
076EE:  CALL   1A84
076F2:  MOVLB  4
076F4:  DECFSZ x3F,F
076F6:  BRA    76E8
....................    printf("page Clave"); 
076F8:  MOVLW  0E
076FA:  MOVWF  FF6
076FC:  MOVLW  06
076FE:  MOVWF  FF7
07700:  MOVLW  00
07702:  MOVWF  FF8
07704:  MOVLB  0
07706:  CALL   38BE
....................    SendDataDisplay(); 
0770A:  CALL   38F0
....................    ApagaSalidas(); 
0770E:  CALL   3926
....................     
....................    for(i=0;i<MediaMovil;i++){ 
07712:  MOVLB  3
07714:  CLRF   x61
07716:  MOVLB  2
07718:  MOVF   xDB,W
0771A:  MOVLB  3
0771C:  SUBWF  x61,W
0771E:  BC    7790
....................       Temperatura=LeerPT100(MediaMovil); 
07720:  MOVFF  2DB,43F
07724:  MOVLB  0
07726:  CALL   3AB4
0772A:  MOVFF  03,32B
0772E:  MOVFF  02,32A
07732:  MOVFF  01,329
07736:  MOVFF  00,328
....................       PresionCamara=Leer_Sensor_Presion_Camara(5); 
0773A:  MOVLW  05
0773C:  MOVLB  4
0773E:  MOVWF  x3F
07740:  MOVLB  0
07742:  CALL   3EFA
07746:  MOVFF  03,457
0774A:  MOVFF  02,456
0774E:  MOVFF  01,455
07752:  MOVFF  00,454
07756:  CALL   40F6
0775A:  MOVFF  02,378
0775E:  MOVFF  01,377
....................       PresionPreCamara=Leer_Sensor_Presion_PreCamara(5); 
07762:  MOVLW  05
07764:  MOVLB  4
07766:  MOVWF  x3F
07768:  MOVLB  0
0776A:  CALL   4132
0776E:  MOVFF  03,457
07772:  MOVFF  02,456
07776:  MOVFF  01,455
0777A:  MOVFF  00,454
0777E:  CALL   40F6
07782:  MOVFF  02,37A
07786:  MOVFF  01,379
....................    } 
0778A:  MOVLB  3
0778C:  INCF   x61,F
0778E:  BRA    7716
....................     
....................    if(UP && DOWN && RIGHT && LEFT)//Si oprime boton de Toma. 
07790:  BSF    F93.0
07792:  BTFSC  F81.0
07794:  BRA    781C
07796:  BSF    F93.1
07798:  BTFSC  F81.1
0779A:  BRA    781C
0779C:  BSF    F93.2
0779E:  BTFSC  F81.2
077A0:  BRA    781C
077A2:  BSF    F93.3
077A4:  BTFSC  F81.3
077A6:  BRA    781C
....................    { 
....................       write_eeprom(37,0); 
077A8:  CLRF   FAA
077AA:  MOVLW  25
077AC:  MOVWF  FA9
077AE:  CLRF   FA8
077B0:  BCF    FA6.6
077B2:  BCF    FA6.7
077B4:  BSF    FA6.2
077B6:  MOVF   FF2,W
077B8:  MOVWF  00
077BA:  BCF    FF2.6
077BC:  BCF    FF2.7
077BE:  MOVLB  F
077C0:  MOVLW  55
077C2:  MOVWF  FA7
077C4:  MOVLW  AA
077C6:  MOVWF  FA7
077C8:  BSF    FA6.1
077CA:  BTFSC  FA6.1
077CC:  BRA    77CA
077CE:  BCF    FA6.2
077D0:  MOVF   00,W
077D2:  IORWF  FF2,F
....................       delay_ms(20); 
077D4:  MOVLW  14
077D6:  MOVLB  4
077D8:  MOVWF  x54
077DA:  MOVLB  0
077DC:  CALL   1A84
....................       write_eeprom(38,0); 
077E0:  CLRF   FAA
077E2:  MOVLW  26
077E4:  MOVWF  FA9
077E6:  CLRF   FA8
077E8:  BCF    FA6.6
077EA:  BCF    FA6.7
077EC:  BSF    FA6.2
077EE:  MOVF   FF2,W
077F0:  MOVWF  00
077F2:  BCF    FF2.6
077F4:  BCF    FF2.7
077F6:  MOVLB  F
077F8:  MOVLW  55
077FA:  MOVWF  FA7
077FC:  MOVLW  AA
077FE:  MOVWF  FA7
07800:  BSF    FA6.1
07802:  BTFSC  FA6.1
07804:  BRA    7802
07806:  BCF    FA6.2
07808:  MOVF   00,W
0780A:  IORWF  FF2,F
....................       delay_ms(20); 
0780C:  MOVLW  14
0780E:  MOVLB  4
07810:  MOVWF  x54
07812:  MOVLB  0
07814:  CALL   1A84
....................       reset_cpu(); 
07818:  RESET
0781A:  MOVLB  3
....................    } 
....................     
....................    #ifdef PT100Fija 
....................       Atmosferica=0; 
0781C:  CLRF   xAE
....................    #else 
....................       if(!DOOR){ 
....................          if(abs((float)PresionCamara-(float)Atmosferica)>=3 && PresionCamara<102){//Funcion de Auto Ajuste de Presion Atmosferica 
....................             Atmosferica=PresionCamara; 
....................             write_eeprom(31,Atmosferica); 
....................             delay_ms(10); 
....................             Buzzer_on; 
....................             delay_ms(1000); 
....................             Buzzer_off; 
....................          } 
....................       } 
....................    #endif 
....................    while(true) 
....................    { 
....................       LeeDisplay(); 
0781E:  MOVLB  0
07820:  GOTO   4330
....................       Envio_Esclavos(); 
07824:  CALL   4686
....................       delay_ms(1); 
07828:  MOVLW  01
0782A:  MOVLB  4
0782C:  MOVWF  x54
0782E:  MOVLB  0
07830:  CALL   1A84
....................       //Lectura_Esclavos(); 
....................       restart_wdt(); 
07834:  CLRWDT
....................        
....................       if(!Esterilizando || Desfogando){ 
07836:  BTFSS  xA0.2
07838:  BRA    783E
0783A:  BTFSS  xA0.5
0783C:  BRA    7848
....................          CalculoImpresion=180; 
0783E:  MOVLW  B4
07840:  MOVLB  3
07842:  MOVWF  x59
....................       }else{ 
07844:  BRA    784E
07846:  MOVLB  0
....................          CalculoImpresion=60; 
07848:  MOVLW  3C
0784A:  MOVLB  3
0784C:  MOVWF  x59
....................       } 
....................        
....................       // Monitoreo Nivel de Agua//-------------------------------------- 
....................             if(!LOW){//Si no sensa agua en el nivel alto y no se ha llenado el calderin          
0784E:  BSF    F94.1
07850:  BTFSC  F82.1
07852:  BRA    787C
....................                TiempoSensadoNivel=0; 
07854:  MOVLB  0
07856:  CLRF   xAA
07858:  CLRF   xA9
....................                Controlando=0;    
0785A:  MOVLB  3
0785C:  CLRF   x56
....................                if(tiempoAgua<600){ 
0785E:  MOVF   x99,W
07860:  SUBLW  02
07862:  BNC   7870
07864:  BNZ   786C
07866:  MOVF   x98,W
07868:  SUBLW  57
0786A:  BNC   7870
....................                   CalderinLleno=OFF; 
0786C:  MOVLB  0
0786E:  BCF    xA0.0
....................                } 
....................                SensadoNivel=OFF; 
07870:  MOVLB  0
07872:  BCF    xA0.4
....................                TiempoSensadoNivel=0; 
07874:  CLRF   xAA
07876:  CLRF   xA9
....................                #ifdef ULKA 
....................                   if(!PruebaEstados){ 
....................                      if(PresionCamara<=((int16)Atmosferica+10) && Menu!=20 && HIG && Menu!=255){ 
....................                         enciendeBombaAgua(); 
....................                      } 
....................                      if(!HIG){ 
....................                         apagaBombaAgua(); 
....................                      } 
....................                   } 
....................                #endif 
....................             } else{ 
07878:  BRA    7890
0787A:  MOVLB  3
....................                SensadoNivel=ON; 
0787C:  MOVLB  0
0787E:  BSF    xA0.4
....................                if(TiempoSensadoNivel>5){ 
07880:  MOVF   xAA,F
07882:  BNZ   788A
07884:  MOVF   xA9,W
07886:  SUBLW  05
07888:  BC    7890
....................                   SensadoNivel=OFF; 
0788A:  BCF    xA0.4
....................                   CalderinLleno=ON; 
0788C:  BSF    xA0.0
....................                   IniciaLlenado=OFF;                   
0788E:  BCF    x9F.7
....................                   #ifdef ULKA 
....................                      if(!PruebaEstados){ 
....................                         if(Menu!=20){ 
....................                            apagaBombaAgua(); 
....................                         } 
....................                      } 
....................                   #endif 
....................                } 
....................             } 
.................... // Tiempo de Grafica//-------------------------------------- 
....................       if(tiempos2>=6000){ 
07890:  MOVLB  3
07892:  MOVF   x6E,W
07894:  SUBLW  16
07896:  BC    78AC
07898:  XORLW  FF
0789A:  BNZ   78A2
0789C:  MOVF   x6D,W
0789E:  SUBLW  6F
078A0:  BC    78AC
....................          Grafica=1; 
078A2:  MOVLB  0
078A4:  BSF    xA4.6
....................          tiempos2=0; 
078A6:  MOVLB  3
078A8:  CLRF   x6E
078AA:  CLRF   x6D
....................       } 
....................  
.................... // Tiempo de Muestreo//-------------------------------------- 
....................       if(tiempos3>=20){ 
078AC:  MOVF   x70,F
078AE:  BNZ   78B8
078B0:  MOVF   x6F,W
078B2:  SUBLW  13
078B4:  BTFSC  FD8.0
078B6:  BRA    79EC
....................          Temperatura=LeerPt100(MediaMovil); 
078B8:  MOVFF  2DB,43F
078BC:  MOVLB  0
078BE:  CALL   3AB4
078C2:  MOVFF  03,32B
078C6:  MOVFF  02,32A
078CA:  MOVFF  01,329
078CE:  MOVFF  00,328
....................          PresionCamara=Leer_Sensor_Presion_Camara(10); 
078D2:  MOVLW  0A
078D4:  MOVLB  4
078D6:  MOVWF  x3F
078D8:  MOVLB  0
078DA:  CALL   3EFA
078DE:  MOVFF  03,457
078E2:  MOVFF  02,456
078E6:  MOVFF  01,455
078EA:  MOVFF  00,454
078EE:  CALL   40F6
078F2:  MOVFF  02,378
078F6:  MOVFF  01,377
....................          PresionPreCamara=Leer_Sensor_Presion_PreCamara(10); 
078FA:  MOVLW  0A
078FC:  MOVLB  4
078FE:  MOVWF  x3F
07900:  MOVLB  0
07902:  CALL   4132
07906:  MOVFF  03,457
0790A:  MOVFF  02,456
0790E:  MOVFF  01,455
07912:  MOVFF  00,454
07916:  CALL   40F6
0791A:  MOVFF  02,37A
0791E:  MOVFF  01,379
....................          rtc_get_date(Dia,Mes,Year,dow); 
....................          rtc_get_time(Hora,Minuto,Segundo); 
....................          tiempos3=0; 
*
079E6:  MOVLB  3
079E8:  CLRF   x70
079EA:  CLRF   x6F
....................       } 
....................        
.................... // Monitoreo Parada Emergencia//--------------------------------------       
....................       if(!STOP && !IniciaCiclo && !PruebaEstados){ 
079EC:  BSF    F93.7
079EE:  BTFSS  F81.7
079F0:  BRA    7A52
079F2:  MOVLB  0
079F4:  BTFSS  xA0.1
079F6:  BRA    79FC
079F8:  MOVLB  3
079FA:  BRA    7A52
079FC:  BTFSS  xA1.2
079FE:  BRA    7A04
07A00:  MOVLB  3
07A02:  BRA    7A52
....................          if(!disp_Stop){ 
07A04:  BTFSC  xA4.7
07A06:  BRA    7A26
....................             disp_Stop=1;Menu=255; 
07A08:  BSF    xA4.7
07A0A:  MOVLW  FF
07A0C:  MOVLB  3
07A0E:  MOVWF  x5E
....................             printf("page Emergencia"); 
07A10:  MOVLW  1A
07A12:  MOVWF  FF6
07A14:  MOVLW  06
07A16:  MOVWF  FF7
07A18:  MOVLW  00
07A1A:  MOVWF  FF8
07A1C:  MOVLB  0
07A1E:  CALL   38BE
....................             SendDataDisplay(); 
07A22:  CALL   38F0
....................          } 
....................          Controlando=0; 
07A26:  MOVLB  3
07A28:  CLRF   x56
....................          Desfogue_on; 
07A2A:  BSF    F8C.4
07A2C:  BCF    F95.4
....................          SSR_off; 
07A2E:  BSF    F8B.2
07A30:  BCF    F94.2
....................          Bomba_off; 
07A32:  BCF    F8C.6
07A34:  BCF    F95.6
....................          Agua_off; 
07A36:  BCF    F8C.5
07A38:  BCF    F95.5
....................          DesfogueSuave=OFF; 
07A3A:  MOVLB  0
07A3C:  BCF    xA0.6
....................          ActivaAlarma(1); 
07A3E:  MOVLW  01
07A40:  MOVLB  4
07A42:  MOVWF  x3F
07A44:  MOVLB  0
07A46:  CALL   4748
....................          BorraBuffer(); 
07A4A:  GOTO   481E
....................       }else{ 
07A4E:  BRA    7A5A
07A50:  MOVLB  3
....................          if(disp_Stop){ 
07A52:  MOVLB  0
07A54:  BTFSS  xA4.7
07A56:  BRA    7A5A
....................             reset_cpu(); 
07A58:  RESET
....................          } 
....................       }            
....................    //Buzzer_off;    
.................... //_-------------------------------------------------------------------------------------------------------------------------------------------------------- 
....................    if(Menu==240){ //Menu de Bienvenida. 
07A5A:  MOVLB  3
07A5C:  MOVF   x5E,W
07A5E:  SUBLW  F0
07A60:  BNZ   7AAA
....................       printf("bkcmd=0"); 
07A62:  MOVLW  2A
07A64:  MOVWF  FF6
07A66:  MOVLW  06
07A68:  MOVWF  FF7
07A6A:  MOVLW  00
07A6C:  MOVWF  FF8
07A6E:  MOVLB  0
07A70:  CALL   38BE
....................       SendDataDisplay(); 
07A74:  CALL   38F0
....................       delay_ms(1500); 
07A78:  MOVLW  06
07A7A:  MOVLB  4
07A7C:  MOVWF  x3F
07A7E:  MOVLW  FA
07A80:  MOVWF  x54
07A82:  MOVLB  0
07A84:  CALL   1A84
07A88:  MOVLB  4
07A8A:  DECFSZ x3F,F
07A8C:  BRA    7A7E
....................       printf("page Clave"); 
07A8E:  MOVLW  32
07A90:  MOVWF  FF6
07A92:  MOVLW  06
07A94:  MOVWF  FF7
07A96:  MOVLW  00
07A98:  MOVWF  FF8
07A9A:  MOVLB  0
07A9C:  CALL   38BE
....................       SendDataDisplay(); 
07AA0:  CALL   38F0
....................       ApagaSalidas(); 
07AA4:  CALL   3926
07AA8:  MOVLB  3
....................    } 
.................... //_-------------------------------------------------------------------------------------------------------------------------------------------------------- 
....................  
.................... //_-------------------------------------------------------------------------------------------------------------------------------------------------------- 
....................     if(Menu==0){ //Menu de Contrasea de acceso. 
07AAA:  MOVF   x5E,F
07AAC:  BTFSS  FD8.2
07AAE:  GOTO   8524
....................       //ApagaSalidas(); 
....................       entro=OFF; 
07AB2:  MOVLB  0
07AB4:  BCF    xA3.6
....................       if(Digito==1){ 
07AB6:  MOVLB  2
07AB8:  DECFSZ xE0,W
07ABA:  BRA    7B06
....................          printf("t0.txt=\"%u\"",Contrasena[0]); 
07ABC:  MOVLW  3E
07ABE:  MOVWF  FF6
07AC0:  MOVLW  06
07AC2:  MOVWF  FF7
07AC4:  MOVLW  00
07AC6:  MOVWF  FF8
07AC8:  MOVLW  08
07ACA:  MOVLB  4
07ACC:  MOVWF  x44
07ACE:  MOVLB  0
07AD0:  CALL   484A
07AD4:  MOVFF  383,444
07AD8:  MOVLW  1B
07ADA:  MOVLB  4
07ADC:  MOVWF  x45
07ADE:  MOVLB  0
07AE0:  CALL   48A8
07AE4:  MOVLW  22
07AE6:  BTFSS  F9E.4
07AE8:  BRA    7AE6
07AEA:  MOVWF  FAD
....................          SendDataDisplay(); 
07AEC:  CALL   38F0
....................          printf("va0.val=1"); 
07AF0:  MOVLW  4A
07AF2:  MOVWF  FF6
07AF4:  MOVLW  06
07AF6:  MOVWF  FF7
07AF8:  MOVLW  00
07AFA:  MOVWF  FF8
07AFC:  CALL   38BE
....................          SendDataDisplay(); 
07B00:  CALL   38F0
07B04:  MOVLB  2
....................       } 
....................        
....................       if(Digito==2){ 
07B06:  MOVF   xE0,W
07B08:  SUBLW  02
07B0A:  BNZ   7B66
....................          printf("t0.txt=\"%u%u\"",Contrasena[0],Contrasena[1]); 
07B0C:  MOVLW  54
07B0E:  MOVWF  FF6
07B10:  MOVLW  06
07B12:  MOVWF  FF7
07B14:  MOVLW  00
07B16:  MOVWF  FF8
07B18:  MOVLW  08
07B1A:  MOVLB  4
07B1C:  MOVWF  x44
07B1E:  MOVLB  0
07B20:  CALL   484A
07B24:  MOVFF  383,444
07B28:  MOVLW  1B
07B2A:  MOVLB  4
07B2C:  MOVWF  x45
07B2E:  MOVLB  0
07B30:  CALL   48A8
07B34:  MOVFF  384,444
07B38:  MOVLW  1B
07B3A:  MOVLB  4
07B3C:  MOVWF  x45
07B3E:  MOVLB  0
07B40:  CALL   48A8
07B44:  MOVLW  22
07B46:  BTFSS  F9E.4
07B48:  BRA    7B46
07B4A:  MOVWF  FAD
....................          SendDataDisplay(); 
07B4C:  CALL   38F0
....................          printf("va0.val=2"); 
07B50:  MOVLW  62
07B52:  MOVWF  FF6
07B54:  MOVLW  06
07B56:  MOVWF  FF7
07B58:  MOVLW  00
07B5A:  MOVWF  FF8
07B5C:  CALL   38BE
....................          SendDataDisplay(); 
07B60:  CALL   38F0
07B64:  MOVLB  2
....................       } 
....................        
....................       if(Digito==3){ 
07B66:  MOVF   xE0,W
07B68:  SUBLW  03
07B6A:  BNZ   7BD6
....................          printf("t0.txt=\"%u%u%u\"",Contrasena[0],Contrasena[1],Contrasena[2]); 
07B6C:  MOVLW  6C
07B6E:  MOVWF  FF6
07B70:  MOVLW  06
07B72:  MOVWF  FF7
07B74:  MOVLW  00
07B76:  MOVWF  FF8
07B78:  MOVLW  08
07B7A:  MOVLB  4
07B7C:  MOVWF  x44
07B7E:  MOVLB  0
07B80:  CALL   484A
07B84:  MOVFF  383,444
07B88:  MOVLW  1B
07B8A:  MOVLB  4
07B8C:  MOVWF  x45
07B8E:  MOVLB  0
07B90:  CALL   48A8
07B94:  MOVFF  384,444
07B98:  MOVLW  1B
07B9A:  MOVLB  4
07B9C:  MOVWF  x45
07B9E:  MOVLB  0
07BA0:  CALL   48A8
07BA4:  MOVFF  385,444
07BA8:  MOVLW  1B
07BAA:  MOVLB  4
07BAC:  MOVWF  x45
07BAE:  MOVLB  0
07BB0:  CALL   48A8
07BB4:  MOVLW  22
07BB6:  BTFSS  F9E.4
07BB8:  BRA    7BB6
07BBA:  MOVWF  FAD
....................          SendDataDisplay(); 
07BBC:  CALL   38F0
....................          printf("va0.val=3"); 
07BC0:  MOVLW  7C
07BC2:  MOVWF  FF6
07BC4:  MOVLW  06
07BC6:  MOVWF  FF7
07BC8:  MOVLW  00
07BCA:  MOVWF  FF8
07BCC:  CALL   38BE
....................          SendDataDisplay(); 
07BD0:  CALL   38F0
07BD4:  MOVLB  2
....................       } 
....................        
....................       if(Digito==4){ 
07BD6:  MOVF   xE0,W
07BD8:  SUBLW  04
07BDA:  BNZ   7C56
....................          printf("t0.txt=\"%u%u%u%u\"",Contrasena[0],Contrasena[1],Contrasena[2],Contrasena[3]); 
07BDC:  MOVLW  86
07BDE:  MOVWF  FF6
07BE0:  MOVLW  06
07BE2:  MOVWF  FF7
07BE4:  MOVLW  00
07BE6:  MOVWF  FF8
07BE8:  MOVLW  08
07BEA:  MOVLB  4
07BEC:  MOVWF  x44
07BEE:  MOVLB  0
07BF0:  CALL   484A
07BF4:  MOVFF  383,444
07BF8:  MOVLW  1B
07BFA:  MOVLB  4
07BFC:  MOVWF  x45
07BFE:  MOVLB  0
07C00:  CALL   48A8
07C04:  MOVFF  384,444
07C08:  MOVLW  1B
07C0A:  MOVLB  4
07C0C:  MOVWF  x45
07C0E:  MOVLB  0
07C10:  CALL   48A8
07C14:  MOVFF  385,444
07C18:  MOVLW  1B
07C1A:  MOVLB  4
07C1C:  MOVWF  x45
07C1E:  MOVLB  0
07C20:  CALL   48A8
07C24:  MOVFF  386,444
07C28:  MOVLW  1B
07C2A:  MOVLB  4
07C2C:  MOVWF  x45
07C2E:  MOVLB  0
07C30:  CALL   48A8
07C34:  MOVLW  22
07C36:  BTFSS  F9E.4
07C38:  BRA    7C36
07C3A:  MOVWF  FAD
....................          SendDataDisplay(); 
07C3C:  CALL   38F0
....................          printf("va0.val=4"); 
07C40:  MOVLW  98
07C42:  MOVWF  FF6
07C44:  MOVLW  06
07C46:  MOVWF  FF7
07C48:  MOVLW  00
07C4A:  MOVWF  FF8
07C4C:  CALL   38BE
....................          SendDataDisplay(); 
07C50:  CALL   38F0
07C54:  MOVLB  2
....................       } 
....................        
....................       if(UP){ 
07C56:  BSF    F93.0
07C58:  BTFSC  F81.0
07C5A:  BRA    7CA4
....................          delay_ms(100); 
07C5C:  MOVLW  64
07C5E:  MOVLB  4
07C60:  MOVWF  x54
07C62:  MOVLB  0
07C64:  CALL   1A84
....................          if(UP){ 
07C68:  BSF    F93.0
07C6A:  BTFSC  F81.0
07C6C:  BRA    7CA6
....................          if(Digito==0) 
07C6E:  MOVLB  2
07C70:  MOVF   xE0,F
07C72:  BNZ   7C78
....................             Digito=1; 
07C74:  MOVLW  01
07C76:  MOVWF  xE0
....................             if(Contrasena[Digito-1]<9) 
07C78:  MOVLW  01
07C7A:  SUBWF  xE0,W
07C7C:  CLRF   03
07C7E:  ADDLW  83
07C80:  MOVWF  FE9
07C82:  MOVLW  03
07C84:  ADDWFC 03,W
07C86:  MOVWF  FEA
07C88:  BTFSC  FEF.7
07C8A:  BRA    7C92
07C8C:  MOVF   FEF,W
07C8E:  SUBLW  08
07C90:  BNC   7CA4
....................                Contrasena[Digito-1]++; 
07C92:  MOVLW  01
07C94:  SUBWF  xE0,W
07C96:  CLRF   03
07C98:  ADDLW  83
07C9A:  MOVWF  FE9
07C9C:  MOVLW  03
07C9E:  ADDWFC 03,W
07CA0:  MOVWF  FEA
07CA2:  INCF   FEF,F
07CA4:  MOVLB  0
....................          } 
....................       } 
....................        
....................       if(DOWN){ 
07CA6:  BSF    F93.1
07CA8:  BTFSC  F81.1
07CAA:  BRA    7CF6
....................          delay_ms(100); 
07CAC:  MOVLW  64
07CAE:  MOVLB  4
07CB0:  MOVWF  x54
07CB2:  MOVLB  0
07CB4:  CALL   1A84
....................          if(Digito==0) 
07CB8:  MOVLB  2
07CBA:  MOVF   xE0,F
07CBC:  BNZ   7CC2
....................             Digito=1; 
07CBE:  MOVLW  01
07CC0:  MOVWF  xE0
....................          if(DOWN){ 
07CC2:  BSF    F93.1
07CC4:  BTFSC  F81.1
07CC6:  BRA    7CF4
....................             if(Contrasena[Digito-1]>0) 
07CC8:  MOVLW  01
07CCA:  SUBWF  xE0,W
07CCC:  CLRF   03
07CCE:  ADDLW  83
07CD0:  MOVWF  FE9
07CD2:  MOVLW  03
07CD4:  ADDWFC 03,W
07CD6:  MOVWF  FEA
07CD8:  BTFSC  FEF.7
07CDA:  BRA    7CF4
07CDC:  MOVF   FEF,W
07CDE:  SUBLW  00
07CE0:  BC    7CF4
....................                Contrasena[Digito-1]--; 
07CE2:  MOVLW  01
07CE4:  SUBWF  xE0,W
07CE6:  CLRF   03
07CE8:  ADDLW  83
07CEA:  MOVWF  FE9
07CEC:  MOVLW  03
07CEE:  ADDWFC 03,W
07CF0:  MOVWF  FEA
07CF2:  DECF   FEF,F
07CF4:  MOVLB  0
....................          } 
....................       } 
....................        
....................       if(RIGHT){ 
07CF6:  BSF    F93.2
07CF8:  BTFSC  F81.2
07CFA:  BRA    7D14
....................          delay_ms(100); 
07CFC:  MOVLW  64
07CFE:  MOVLB  4
07D00:  MOVWF  x54
07D02:  MOVLB  0
07D04:  CALL   1A84
....................          if(RIGHT){ 
07D08:  BSF    F93.2
07D0A:  BTFSC  F81.2
07D0C:  BRA    7D14
....................             Digito++; 
07D0E:  MOVLB  2
07D10:  INCF   xE0,F
07D12:  MOVLB  0
....................          } 
....................       } 
....................        
....................       if(Digito>4){ 
07D14:  MOVLB  2
07D16:  MOVF   xE0,W
07D18:  SUBLW  04
07D1A:  BTFSC  FD8.0
07D1C:  BRA    806E
....................       Digito=0; 
07D1E:  CLRF   xE0
....................       printf("t0.txt=\"\""); 
07D20:  MOVLW  A2
07D22:  MOVWF  FF6
07D24:  MOVLW  06
07D26:  MOVWF  FF7
07D28:  MOVLW  00
07D2A:  MOVWF  FF8
07D2C:  MOVLB  0
07D2E:  CALL   38BE
....................       SendDataDisplay(); 
07D32:  CALL   38F0
....................          if(TipoClave==0){ 
07D36:  MOVLB  2
07D38:  MOVF   xDE,F
07D3A:  BTFSS  FD8.2
07D3C:  BRA    7E8C
....................             if(Contrasena[0]==3&&Contrasena[1]==8&&Contrasena[2]==9&&Contrasena[3]==2){ // Si Ingresa clave para reset general del sistema. 
07D3E:  MOVLB  3
07D40:  MOVF   x83,W
07D42:  SUBLW  03
07D44:  BTFSS  FD8.2
07D46:  BRA    7E40
07D48:  MOVF   x84,W
07D4A:  SUBLW  08
07D4C:  BTFSS  FD8.2
07D4E:  BRA    7E40
07D50:  MOVF   x85,W
07D52:  SUBLW  09
07D54:  BNZ   7E40
07D56:  MOVF   x86,W
07D58:  SUBLW  02
07D5A:  BNZ   7E40
....................                write_eeprom(10,0);delay_ms(20);write_eeprom(11,0);delay_ms(20);// Reestablece a contrasea de Fabrica y reinicia Programa. 
07D5C:  CLRF   FAA
07D5E:  MOVLW  0A
07D60:  MOVWF  FA9
07D62:  CLRF   FA8
07D64:  BCF    FA6.6
07D66:  BCF    FA6.7
07D68:  BSF    FA6.2
07D6A:  MOVF   FF2,W
07D6C:  MOVWF  00
07D6E:  BCF    FF2.6
07D70:  BCF    FF2.7
07D72:  MOVLB  F
07D74:  MOVLW  55
07D76:  MOVWF  FA7
07D78:  MOVLW  AA
07D7A:  MOVWF  FA7
07D7C:  BSF    FA6.1
07D7E:  BTFSC  FA6.1
07D80:  BRA    7D7E
07D82:  BCF    FA6.2
07D84:  MOVF   00,W
07D86:  IORWF  FF2,F
07D88:  MOVLW  14
07D8A:  MOVLB  4
07D8C:  MOVWF  x54
07D8E:  MOVLB  0
07D90:  CALL   1A84
07D94:  CLRF   FAA
07D96:  MOVLW  0B
07D98:  MOVWF  FA9
07D9A:  CLRF   FA8
07D9C:  BCF    FA6.6
07D9E:  BCF    FA6.7
07DA0:  BSF    FA6.2
07DA2:  MOVF   FF2,W
07DA4:  MOVWF  00
07DA6:  BCF    FF2.6
07DA8:  BCF    FF2.7
07DAA:  MOVLB  F
07DAC:  MOVLW  55
07DAE:  MOVWF  FA7
07DB0:  MOVLW  AA
07DB2:  MOVWF  FA7
07DB4:  BSF    FA6.1
07DB6:  BTFSC  FA6.1
07DB8:  BRA    7DB6
07DBA:  BCF    FA6.2
07DBC:  MOVF   00,W
07DBE:  IORWF  FF2,F
07DC0:  MOVLW  14
07DC2:  MOVLB  4
07DC4:  MOVWF  x54
07DC6:  MOVLB  0
07DC8:  CALL   1A84
....................                write_eeprom(12,0);delay_ms(20);write_eeprom(13,0);delay_ms(20); 
07DCC:  CLRF   FAA
07DCE:  MOVLW  0C
07DD0:  MOVWF  FA9
07DD2:  CLRF   FA8
07DD4:  BCF    FA6.6
07DD6:  BCF    FA6.7
07DD8:  BSF    FA6.2
07DDA:  MOVF   FF2,W
07DDC:  MOVWF  00
07DDE:  BCF    FF2.6
07DE0:  BCF    FF2.7
07DE2:  MOVLB  F
07DE4:  MOVLW  55
07DE6:  MOVWF  FA7
07DE8:  MOVLW  AA
07DEA:  MOVWF  FA7
07DEC:  BSF    FA6.1
07DEE:  BTFSC  FA6.1
07DF0:  BRA    7DEE
07DF2:  BCF    FA6.2
07DF4:  MOVF   00,W
07DF6:  IORWF  FF2,F
07DF8:  MOVLW  14
07DFA:  MOVLB  4
07DFC:  MOVWF  x54
07DFE:  MOVLB  0
07E00:  CALL   1A84
07E04:  CLRF   FAA
07E06:  MOVLW  0D
07E08:  MOVWF  FA9
07E0A:  CLRF   FA8
07E0C:  BCF    FA6.6
07E0E:  BCF    FA6.7
07E10:  BSF    FA6.2
07E12:  MOVF   FF2,W
07E14:  MOVWF  00
07E16:  BCF    FF2.6
07E18:  BCF    FF2.7
07E1A:  MOVLB  F
07E1C:  MOVLW  55
07E1E:  MOVWF  FA7
07E20:  MOVLW  AA
07E22:  MOVWF  FA7
07E24:  BSF    FA6.1
07E26:  BTFSC  FA6.1
07E28:  BRA    7E26
07E2A:  BCF    FA6.2
07E2C:  MOVF   00,W
07E2E:  IORWF  FF2,F
07E30:  MOVLW  14
07E32:  MOVLB  4
07E34:  MOVWF  x54
07E36:  MOVLB  0
07E38:  CALL   1A84
....................                reset_cpu(); 
07E3C:  RESET
07E3E:  MOVLB  3
....................             } 
....................              
....................             if((Contrasena[0]==Password[0])&&(Contrasena[1]==Password[1])&&(Contrasena[2]==Password[2])&&(Contrasena[3]==Password[3])){ 
07E40:  MOVF   x87,W
07E42:  SUBWF  x83,W
07E44:  BNZ   7E72
07E46:  MOVF   x88,W
07E48:  SUBWF  x84,W
07E4A:  BNZ   7E72
07E4C:  MOVF   x89,W
07E4E:  SUBWF  x85,W
07E50:  BNZ   7E72
07E52:  MOVF   x8A,W
07E54:  SUBWF  x86,W
07E56:  BNZ   7E72
....................                //BorraBuffer(); 
....................                printf("page ClaveCorrecta"); 
07E58:  MOVLW  AC
07E5A:  MOVWF  FF6
07E5C:  MOVLW  06
07E5E:  MOVWF  FF7
07E60:  MOVLW  00
07E62:  MOVWF  FF8
07E64:  MOVLB  0
07E66:  CALL   38BE
....................                SendDataDisplay(); 
07E6A:  CALL   38F0
....................             }else{ 
07E6E:  BRA    7E88
07E70:  MOVLB  3
....................                //BorraBuffer(); 
....................                printf("page ClaveBad"); 
07E72:  MOVLW  C0
07E74:  MOVWF  FF6
07E76:  MOVLW  06
07E78:  MOVWF  FF7
07E7A:  MOVLW  00
07E7C:  MOVWF  FF8
07E7E:  MOVLB  0
07E80:  CALL   38BE
....................                SendDataDisplay(); 
07E84:  CALL   38F0
....................             }  
....................          }else if(TipoClave==1){ 
07E88:  BRA    806C
07E8A:  MOVLB  2
07E8C:  DECFSZ xDE,W
07E8E:  BRA    7EDE
....................             if(Contrasena[0]==4&&Contrasena[1]==4&&Contrasena[2]==4&&Contrasena[3]==4){ // Si Ingresa clave de Servicio Tecnico 
07E90:  MOVLB  3
07E92:  MOVF   x83,W
07E94:  SUBLW  04
07E96:  BNZ   7EC4
07E98:  MOVF   x84,W
07E9A:  SUBLW  04
07E9C:  BNZ   7EC4
07E9E:  MOVF   x85,W
07EA0:  SUBLW  04
07EA2:  BNZ   7EC4
07EA4:  MOVF   x86,W
07EA6:  SUBLW  04
07EA8:  BNZ   7EC4
....................                printf("page Config"); 
07EAA:  MOVLW  CE
07EAC:  MOVWF  FF6
07EAE:  MOVLW  06
07EB0:  MOVWF  FF7
07EB2:  MOVLW  00
07EB4:  MOVWF  FF8
07EB6:  MOVLB  0
07EB8:  CALL   38BE
....................                SendDataDisplay(); 
07EBC:  CALL   38F0
....................             }else{ 
07EC0:  BRA    7EDA
07EC2:  MOVLB  3
....................                printf("page MenuPrincipal"); 
07EC4:  MOVLW  DA
07EC6:  MOVWF  FF6
07EC8:  MOVLW  06
07ECA:  MOVWF  FF7
07ECC:  MOVLW  00
07ECE:  MOVWF  FF8
07ED0:  MOVLB  0
07ED2:  CALL   38BE
....................                SendDataDisplay(); 
07ED6:  CALL   38F0
....................             } 
....................          }else if(TipoClave==2){ 
07EDA:  BRA    806C
07EDC:  MOVLB  2
07EDE:  MOVF   xDE,W
07EE0:  SUBLW  02
07EE2:  BNZ   7F4C
....................             if((Contrasena[0]==Password[0])&&(Contrasena[1]==Password[1])&&(Contrasena[2]==Password[2])&&(Contrasena[3]==Password[3])){ 
07EE4:  MOVLB  3
07EE6:  MOVF   x87,W
07EE8:  SUBWF  x83,W
07EEA:  BNZ   7F32
07EEC:  MOVF   x88,W
07EEE:  SUBWF  x84,W
07EF0:  BNZ   7F32
07EF2:  MOVF   x89,W
07EF4:  SUBWF  x85,W
07EF6:  BNZ   7F32
07EF8:  MOVF   x8A,W
07EFA:  SUBWF  x86,W
07EFC:  BNZ   7F32
....................                printf("page Clave"); 
07EFE:  MOVLW  EE
07F00:  MOVWF  FF6
07F02:  MOVLW  06
07F04:  MOVWF  FF7
07F06:  MOVLW  00
07F08:  MOVWF  FF8
07F0A:  MOVLB  0
07F0C:  CALL   38BE
....................                SendDataDisplay(); 
07F10:  CALL   38F0
....................                printf("titulo.txt=\"Clave Nueva\""); 
07F14:  MOVLW  FA
07F16:  MOVWF  FF6
07F18:  MOVLW  06
07F1A:  MOVWF  FF7
07F1C:  MOVLW  00
07F1E:  MOVWF  FF8
07F20:  CALL   38BE
....................                SendDataDisplay(); 
07F24:  CALL   38F0
....................                TipoClave=3; 
07F28:  MOVLW  03
07F2A:  MOVLB  2
07F2C:  MOVWF  xDE
....................             }else{ 
07F2E:  BRA    7F4A
07F30:  MOVLB  3
....................                printf("page MenuPrincipal"); 
07F32:  MOVLW  14
07F34:  MOVWF  FF6
07F36:  MOVLW  07
07F38:  MOVWF  FF7
07F3A:  MOVLW  00
07F3C:  MOVWF  FF8
07F3E:  MOVLB  0
07F40:  CALL   38BE
....................                SendDataDisplay(); 
07F44:  CALL   38F0
07F48:  MOVLB  2
....................             }  
....................          }else if(TipoClave==3){ 
07F4A:  BRA    806E
07F4C:  MOVF   xDE,W
07F4E:  SUBLW  03
07F50:  BTFSS  FD8.2
07F52:  BRA    806E
....................             printf("titulo.txt=\"Clave Nueva\""); 
07F54:  MOVLW  28
07F56:  MOVWF  FF6
07F58:  MOVLW  07
07F5A:  MOVWF  FF7
07F5C:  MOVLW  00
07F5E:  MOVWF  FF8
07F60:  MOVLB  0
07F62:  CALL   38BE
....................             SendDataDisplay(); 
07F66:  CALL   38F0
....................             printf("page MenuPrincipal"); 
07F6A:  MOVLW  42
07F6C:  MOVWF  FF6
07F6E:  MOVLW  07
07F70:  MOVWF  FF7
07F72:  MOVLW  00
07F74:  MOVWF  FF8
07F76:  CALL   38BE
....................             SendDataDisplay(); 
07F7A:  CALL   38F0
....................             if(!GuardaEEPROM){ 
07F7E:  BTFSC  xA2.4
07F80:  BRA    806C
....................                write_eeprom(10,Contrasena[0]);delay_ms(20);write_eeprom(11,Contrasena[1]);delay_ms(20); 
07F82:  CLRF   FAA
07F84:  MOVLW  0A
07F86:  MOVWF  FA9
07F88:  MOVFF  383,FA8
07F8C:  BCF    FA6.6
07F8E:  BCF    FA6.7
07F90:  BSF    FA6.2
07F92:  MOVF   FF2,W
07F94:  MOVWF  00
07F96:  BCF    FF2.6
07F98:  BCF    FF2.7
07F9A:  MOVLB  F
07F9C:  MOVLW  55
07F9E:  MOVWF  FA7
07FA0:  MOVLW  AA
07FA2:  MOVWF  FA7
07FA4:  BSF    FA6.1
07FA6:  BTFSC  FA6.1
07FA8:  BRA    7FA6
07FAA:  BCF    FA6.2
07FAC:  MOVF   00,W
07FAE:  IORWF  FF2,F
07FB0:  MOVLW  14
07FB2:  MOVLB  4
07FB4:  MOVWF  x54
07FB6:  MOVLB  0
07FB8:  CALL   1A84
07FBC:  CLRF   FAA
07FBE:  MOVLW  0B
07FC0:  MOVWF  FA9
07FC2:  MOVFF  384,FA8
07FC6:  BCF    FA6.6
07FC8:  BCF    FA6.7
07FCA:  BSF    FA6.2
07FCC:  MOVF   FF2,W
07FCE:  MOVWF  00
07FD0:  BCF    FF2.6
07FD2:  BCF    FF2.7
07FD4:  MOVLB  F
07FD6:  MOVLW  55
07FD8:  MOVWF  FA7
07FDA:  MOVLW  AA
07FDC:  MOVWF  FA7
07FDE:  BSF    FA6.1
07FE0:  BTFSC  FA6.1
07FE2:  BRA    7FE0
07FE4:  BCF    FA6.2
07FE6:  MOVF   00,W
07FE8:  IORWF  FF2,F
07FEA:  MOVLW  14
07FEC:  MOVLB  4
07FEE:  MOVWF  x54
07FF0:  MOVLB  0
07FF2:  CALL   1A84
....................                write_eeprom(12,Contrasena[2]);delay_ms(20);write_eeprom(13,Contrasena[3]);delay_ms(20); 
07FF6:  CLRF   FAA
07FF8:  MOVLW  0C
07FFA:  MOVWF  FA9
07FFC:  MOVFF  385,FA8
08000:  BCF    FA6.6
08002:  BCF    FA6.7
08004:  BSF    FA6.2
08006:  MOVF   FF2,W
08008:  MOVWF  00
0800A:  BCF    FF2.6
0800C:  BCF    FF2.7
0800E:  MOVLB  F
08010:  MOVLW  55
08012:  MOVWF  FA7
08014:  MOVLW  AA
08016:  MOVWF  FA7
08018:  BSF    FA6.1
0801A:  BTFSC  FA6.1
0801C:  BRA    801A
0801E:  BCF    FA6.2
08020:  MOVF   00,W
08022:  IORWF  FF2,F
08024:  MOVLW  14
08026:  MOVLB  4
08028:  MOVWF  x54
0802A:  MOVLB  0
0802C:  CALL   1A84
08030:  CLRF   FAA
08032:  MOVLW  0D
08034:  MOVWF  FA9
08036:  MOVFF  386,FA8
0803A:  BCF    FA6.6
0803C:  BCF    FA6.7
0803E:  BSF    FA6.2
08040:  MOVF   FF2,W
08042:  MOVWF  00
08044:  BCF    FF2.6
08046:  BCF    FF2.7
08048:  MOVLB  F
0804A:  MOVLW  55
0804C:  MOVWF  FA7
0804E:  MOVLW  AA
08050:  MOVWF  FA7
08052:  BSF    FA6.1
08054:  BTFSC  FA6.1
08056:  BRA    8054
08058:  BCF    FA6.2
0805A:  MOVF   00,W
0805C:  IORWF  FF2,F
0805E:  MOVLW  14
08060:  MOVLB  4
08062:  MOVWF  x54
08064:  MOVLB  0
08066:  CALL   1A84
....................                GuardaEEPROM=ON; 
0806A:  BSF    xA2.4
0806C:  MOVLB  2
....................             } 
....................          } 
....................       } 
....................        
....................       if(RX_Buffer[4]==0x11){//11 
0806E:  MOVF   34,W
08070:  SUBLW  11
08072:  BNZ   8092
....................          if(TipoClave!=0){ 
08074:  MOVF   xDE,F
08076:  BZ    8092
....................             printf("page MenuPrincipal"); 
08078:  MOVLW  56
0807A:  MOVWF  FF6
0807C:  MOVLW  07
0807E:  MOVWF  FF7
08080:  MOVLW  00
08082:  MOVWF  FF8
08084:  MOVLB  0
08086:  CALL   38BE
....................             SendDataDisplay(); 
0808A:  CALL   38F0
....................             PantallaPrincipal=0; 
0808E:  MOVLB  2
08090:  CLRF   xDD
....................          } 
....................       } 
....................        
....................       if(TipoClave==3){ 
08092:  MOVF   xDE,W
08094:  SUBLW  03
08096:  BNZ   80C4
....................          printf("titulo.txt=\"Clave Nueva\""); 
08098:  MOVLW  6A
0809A:  MOVWF  FF6
0809C:  MOVLW  07
0809E:  MOVWF  FF7
080A0:  MOVLW  00
080A2:  MOVWF  FF8
080A4:  MOVLB  0
080A6:  CALL   38BE
....................          SendDataDisplay(); 
080AA:  CALL   38F0
....................          printf("doevents"); 
080AE:  MOVLW  84
080B0:  MOVWF  FF6
080B2:  MOVLW  07
080B4:  MOVWF  FF7
080B6:  MOVLW  00
080B8:  MOVWF  FF8
080BA:  CALL   38BE
....................          SendDataDisplay(); 
080BE:  CALL   38F0
080C2:  MOVLB  2
....................       } 
....................        
....................       if(TipoClave==2){ 
080C4:  MOVF   xDE,W
080C6:  SUBLW  02
080C8:  BNZ   80F6
....................          printf("titulo.txt=\"Clave Actual\""); 
080CA:  MOVLW  8E
080CC:  MOVWF  FF6
080CE:  MOVLW  07
080D0:  MOVWF  FF7
080D2:  MOVLW  00
080D4:  MOVWF  FF8
080D6:  MOVLB  0
080D8:  CALL   38BE
....................          SendDataDisplay(); 
080DC:  CALL   38F0
....................          printf("doevents"); 
080E0:  MOVLW  A8
080E2:  MOVWF  FF6
080E4:  MOVLW  07
080E6:  MOVWF  FF7
080E8:  MOVLW  00
080EA:  MOVWF  FF8
080EC:  CALL   38BE
....................          SendDataDisplay(); 
080F0:  CALL   38F0
080F4:  MOVLB  2
....................       } 
....................        
....................       if(TipoClave==1){ 
080F6:  DECFSZ xDE,W
080F8:  BRA    8126
....................          printf("titulo.txt=\"Clave Tecnico\""); 
080FA:  MOVLW  B2
080FC:  MOVWF  FF6
080FE:  MOVLW  07
08100:  MOVWF  FF7
08102:  MOVLW  00
08104:  MOVWF  FF8
08106:  MOVLB  0
08108:  CALL   38BE
....................          SendDataDisplay(); 
0810C:  CALL   38F0
....................          printf("doevents"); 
08110:  MOVLW  CE
08112:  MOVWF  FF6
08114:  MOVLW  07
08116:  MOVWF  FF7
08118:  MOVLW  00
0811A:  MOVWF  FF8
0811C:  CALL   38BE
....................          SendDataDisplay(); 
08120:  CALL   38F0
08124:  MOVLB  2
....................       } 
....................        
....................       if(TipoClave==0){ 
08126:  MOVF   xDE,F
08128:  BNZ   8142
....................          printf("titulo.txt=\"Ingrese Contrasea\""); 
0812A:  MOVLW  D8
0812C:  MOVWF  FF6
0812E:  MOVLW  07
08130:  MOVWF  FF7
08132:  MOVLW  00
08134:  MOVWF  FF8
08136:  MOVLB  0
08138:  CALL   38BE
....................          SendDataDisplay(); 
0813C:  CALL   38F0
08140:  MOVLB  2
....................       } 
....................       if(RX_Buffer[3]==0x0f){//0f, recibe caracteres ingresados desde el Display 
08142:  MOVF   33,W
08144:  SUBLW  0F
08146:  BTFSS  FD8.2
08148:  BRA    8522
....................          if(TipoClave==0){ 
0814A:  MOVF   xDE,F
0814C:  BTFSS  FD8.2
0814E:  BRA    82DE
....................             if(RX_Buffer[4]==0x33&&RX_Buffer[5]==0x38&&RX_Buffer[6]==0x39&&RX_Buffer[7]==0x32){ // Si Ingresa clave para reset general del sistema. 
08150:  MOVF   34,W
08152:  SUBLW  33
08154:  BTFSS  FD8.2
08156:  BRA    8250
08158:  MOVF   35,W
0815A:  SUBLW  38
0815C:  BTFSS  FD8.2
0815E:  BRA    8250
08160:  MOVF   36,W
08162:  SUBLW  39
08164:  BNZ   8250
08166:  MOVF   37,W
08168:  SUBLW  32
0816A:  BNZ   8250
....................                write_eeprom(10,0);delay_ms(20);write_eeprom(11,0);delay_ms(20);// Reestablece a contrasea de Fabrica y reinicia Programa. 
0816C:  CLRF   FAA
0816E:  MOVLW  0A
08170:  MOVWF  FA9
08172:  CLRF   FA8
08174:  BCF    FA6.6
08176:  BCF    FA6.7
08178:  BSF    FA6.2
0817A:  MOVF   FF2,W
0817C:  MOVWF  00
0817E:  BCF    FF2.6
08180:  BCF    FF2.7
08182:  MOVLB  F
08184:  MOVLW  55
08186:  MOVWF  FA7
08188:  MOVLW  AA
0818A:  MOVWF  FA7
0818C:  BSF    FA6.1
0818E:  BTFSC  FA6.1
08190:  BRA    818E
08192:  BCF    FA6.2
08194:  MOVF   00,W
08196:  IORWF  FF2,F
08198:  MOVLW  14
0819A:  MOVLB  4
0819C:  MOVWF  x54
0819E:  MOVLB  0
081A0:  CALL   1A84
081A4:  CLRF   FAA
081A6:  MOVLW  0B
081A8:  MOVWF  FA9
081AA:  CLRF   FA8
081AC:  BCF    FA6.6
081AE:  BCF    FA6.7
081B0:  BSF    FA6.2
081B2:  MOVF   FF2,W
081B4:  MOVWF  00
081B6:  BCF    FF2.6
081B8:  BCF    FF2.7
081BA:  MOVLB  F
081BC:  MOVLW  55
081BE:  MOVWF  FA7
081C0:  MOVLW  AA
081C2:  MOVWF  FA7
081C4:  BSF    FA6.1
081C6:  BTFSC  FA6.1
081C8:  BRA    81C6
081CA:  BCF    FA6.2
081CC:  MOVF   00,W
081CE:  IORWF  FF2,F
081D0:  MOVLW  14
081D2:  MOVLB  4
081D4:  MOVWF  x54
081D6:  MOVLB  0
081D8:  CALL   1A84
....................                write_eeprom(12,0);delay_ms(20);write_eeprom(13,0);delay_ms(20); 
081DC:  CLRF   FAA
081DE:  MOVLW  0C
081E0:  MOVWF  FA9
081E2:  CLRF   FA8
081E4:  BCF    FA6.6
081E6:  BCF    FA6.7
081E8:  BSF    FA6.2
081EA:  MOVF   FF2,W
081EC:  MOVWF  00
081EE:  BCF    FF2.6
081F0:  BCF    FF2.7
081F2:  MOVLB  F
081F4:  MOVLW  55
081F6:  MOVWF  FA7
081F8:  MOVLW  AA
081FA:  MOVWF  FA7
081FC:  BSF    FA6.1
081FE:  BTFSC  FA6.1
08200:  BRA    81FE
08202:  BCF    FA6.2
08204:  MOVF   00,W
08206:  IORWF  FF2,F
08208:  MOVLW  14
0820A:  MOVLB  4
0820C:  MOVWF  x54
0820E:  MOVLB  0
08210:  CALL   1A84
08214:  CLRF   FAA
08216:  MOVLW  0D
08218:  MOVWF  FA9
0821A:  CLRF   FA8
0821C:  BCF    FA6.6
0821E:  BCF    FA6.7
08220:  BSF    FA6.2
08222:  MOVF   FF2,W
08224:  MOVWF  00
08226:  BCF    FF2.6
08228:  BCF    FF2.7
0822A:  MOVLB  F
0822C:  MOVLW  55
0822E:  MOVWF  FA7
08230:  MOVLW  AA
08232:  MOVWF  FA7
08234:  BSF    FA6.1
08236:  BTFSC  FA6.1
08238:  BRA    8236
0823A:  BCF    FA6.2
0823C:  MOVF   00,W
0823E:  IORWF  FF2,F
08240:  MOVLW  14
08242:  MOVLB  4
08244:  MOVWF  x54
08246:  MOVLB  0
08248:  CALL   1A84
....................                reset_cpu(); 
0824C:  RESET
0824E:  MOVLB  2
....................             } 
....................             if(RX_Buffer[4]>=0x30 && RX_Buffer[5]>=0x30 && RX_Buffer[6]>=0x30 && RX_Buffer[7]>=0x30 
....................             && RX_Buffer[4]<=0x39 && RX_Buffer[5]<=0x39 && RX_Buffer[6]<=0x39 && RX_Buffer[7]<=0x39){ 
08250:  MOVF   34,W
08252:  SUBLW  2F
08254:  BC    82DC
08256:  MOVF   35,W
08258:  SUBLW  2F
0825A:  BC    82DC
0825C:  MOVF   36,W
0825E:  SUBLW  2F
08260:  BC    82DC
08262:  MOVF   37,W
08264:  SUBLW  2F
08266:  BC    82DC
08268:  MOVF   34,W
0826A:  SUBLW  39
0826C:  BNC   82DC
0826E:  MOVF   35,W
08270:  SUBLW  39
08272:  BNC   82DC
08274:  MOVF   36,W
08276:  SUBLW  39
08278:  BNC   82DC
0827A:  MOVF   37,W
0827C:  SUBLW  39
0827E:  BNC   82DC
....................             if((RX_Buffer[4]==Password[0]+0x30)&&(RX_Buffer[5]==Password[1]+0x30)&&(RX_Buffer[6]==Password[2]+0x30)&&(RX_Buffer[7]==Password[3]+0x30)){ 
08280:  MOVLW  30
08282:  MOVLB  3
08284:  ADDWF  x87,W
08286:  SUBWF  34,W
08288:  BNZ   82C0
0828A:  MOVLW  30
0828C:  ADDWF  x88,W
0828E:  SUBWF  35,W
08290:  BNZ   82C0
08292:  MOVLW  30
08294:  ADDWF  x89,W
08296:  SUBWF  36,W
08298:  BNZ   82C0
0829A:  MOVLW  30
0829C:  ADDWF  x8A,W
0829E:  SUBWF  37,W
082A0:  BNZ   82C0
....................                   printf("page ClaveCorrecta"); 
082A2:  MOVLW  F8
082A4:  MOVWF  FF6
082A6:  MOVLW  07
082A8:  MOVWF  FF7
082AA:  MOVLW  00
082AC:  MOVWF  FF8
082AE:  MOVLB  0
082B0:  CALL   38BE
....................                   //printf("page MenuPrincipal"); 
....................                   SendDataDisplay(); 
082B4:  CALL   38F0
....................                   RX_Buffer[3]=0x00;RX_Buffer2[3]=0x00;   
082B8:  CLRF   33
082BA:  CLRF   3E
....................                }else{ 
082BC:  BRA    82DA
082BE:  MOVLB  3
....................                   printf("page ClaveBad"); 
082C0:  MOVLW  0C
082C2:  MOVWF  FF6
082C4:  MOVLW  08
082C6:  MOVWF  FF7
082C8:  MOVLW  00
082CA:  MOVWF  FF8
082CC:  MOVLB  0
082CE:  CALL   38BE
....................                   SendDataDisplay(); 
082D2:  CALL   38F0
....................                   RX_Buffer[3]=0x00;RX_Buffer2[3]=0x00;   
082D6:  CLRF   33
082D8:  CLRF   3E
082DA:  MOVLB  2
....................                }  
....................             } 
....................          }else if(TipoClave==1){ 
082DC:  BRA    8522
082DE:  DECFSZ xDE,W
082E0:  BRA    832E
....................             if(RX_Buffer[4]==0x34&&RX_Buffer[5]==0x34&&RX_Buffer[6]==0x34&&RX_Buffer[7]==0x34){ // Si Ingresa clave de Servicio Tecnico 
082E2:  MOVF   34,W
082E4:  SUBLW  34
082E6:  BNZ   8314
082E8:  MOVF   35,W
082EA:  SUBLW  34
082EC:  BNZ   8314
082EE:  MOVF   36,W
082F0:  SUBLW  34
082F2:  BNZ   8314
082F4:  MOVF   37,W
082F6:  SUBLW  34
082F8:  BNZ   8314
....................                printf("page Config"); 
082FA:  MOVLW  1A
082FC:  MOVWF  FF6
082FE:  MOVLW  08
08300:  MOVWF  FF7
08302:  MOVLW  00
08304:  MOVWF  FF8
08306:  MOVLB  0
08308:  CALL   38BE
....................                SendDataDisplay(); 
0830C:  CALL   38F0
....................             }else{ 
08310:  BRA    832A
08312:  MOVLB  2
....................                printf("page MenuPrincipal"); 
08314:  MOVLW  26
08316:  MOVWF  FF6
08318:  MOVLW  08
0831A:  MOVWF  FF7
0831C:  MOVLW  00
0831E:  MOVWF  FF8
08320:  MOVLB  0
08322:  CALL   38BE
....................                SendDataDisplay(); 
08326:  CALL   38F0
....................             } 
....................          }else if(TipoClave==2){ 
0832A:  BRA    8520
0832C:  MOVLB  2
0832E:  MOVF   xDE,W
08330:  SUBLW  02
08332:  BNZ   83DC
....................             if(RX_Buffer[4]>=0x30 && RX_Buffer[5]>=0x30 && RX_Buffer[6]>=0x30 && RX_Buffer[7]>=0x30 
....................             && RX_Buffer[4]<=0x39 && RX_Buffer[5]<=0x39 && RX_Buffer[6]<=0x39 && RX_Buffer[7]<=0x39){ 
08334:  MOVF   34,W
08336:  SUBLW  2F
08338:  BC    83DA
0833A:  MOVF   35,W
0833C:  SUBLW  2F
0833E:  BC    83DA
08340:  MOVF   36,W
08342:  SUBLW  2F
08344:  BC    83DA
08346:  MOVF   37,W
08348:  SUBLW  2F
0834A:  BC    83DA
0834C:  MOVF   34,W
0834E:  SUBLW  39
08350:  BNC   83DA
08352:  MOVF   35,W
08354:  SUBLW  39
08356:  BNC   83DA
08358:  MOVF   36,W
0835A:  SUBLW  39
0835C:  BNC   83DA
0835E:  MOVF   37,W
08360:  SUBLW  39
08362:  BNC   83DA
....................             if((RX_Buffer[4]==Password[0]+0x30)&&(RX_Buffer[5]==Password[1]+0x30)&&(RX_Buffer[6]==Password[2]+0x30)&&(RX_Buffer[7]==Password[3]+0x30)){ 
08364:  MOVLW  30
08366:  MOVLB  3
08368:  ADDWF  x87,W
0836A:  SUBWF  34,W
0836C:  BNZ   83BE
0836E:  MOVLW  30
08370:  ADDWF  x88,W
08372:  SUBWF  35,W
08374:  BNZ   83BE
08376:  MOVLW  30
08378:  ADDWF  x89,W
0837A:  SUBWF  36,W
0837C:  BNZ   83BE
0837E:  MOVLW  30
08380:  ADDWF  x8A,W
08382:  SUBWF  37,W
08384:  BNZ   83BE
....................                printf("page Clave"); 
08386:  MOVLW  3A
08388:  MOVWF  FF6
0838A:  MOVLW  08
0838C:  MOVWF  FF7
0838E:  MOVLW  00
08390:  MOVWF  FF8
08392:  MOVLB  0
08394:  CALL   38BE
....................                SendDataDisplay(); 
08398:  CALL   38F0
....................                printf("titulo.txt=\"Clave Nueva\""); 
0839C:  MOVLW  46
0839E:  MOVWF  FF6
083A0:  MOVLW  08
083A2:  MOVWF  FF7
083A4:  MOVLW  00
083A6:  MOVWF  FF8
083A8:  CALL   38BE
....................                SendDataDisplay(); 
083AC:  CALL   38F0
....................                TipoClave=3; 
083B0:  MOVLW  03
083B2:  MOVLB  2
083B4:  MOVWF  xDE
....................                RX_Buffer[3]=0x00; 
083B6:  CLRF   33
....................                RX_Buffer2[3]=0x00; 
083B8:  CLRF   3E
....................             }else{ 
083BA:  BRA    83DA
083BC:  MOVLB  3
....................                printf("page MenuPrincipal"); 
083BE:  MOVLW  60
083C0:  MOVWF  FF6
083C2:  MOVLW  08
083C4:  MOVWF  FF7
083C6:  MOVLW  00
083C8:  MOVWF  FF8
083CA:  MOVLB  0
083CC:  CALL   38BE
....................                SendDataDisplay(); 
083D0:  CALL   38F0
....................                RX_Buffer[3]=0x00; 
083D4:  CLRF   33
....................                RX_Buffer2[3]=0x00; 
083D6:  CLRF   3E
083D8:  MOVLB  2
....................             }  
....................             } 
....................          }else if(TipoClave==3){ 
083DA:  BRA    8522
083DC:  MOVF   xDE,W
083DE:  SUBLW  03
083E0:  BTFSS  FD8.2
083E2:  BRA    8522
....................             printf("titulo.txt=\"Clave Nueva\""); 
083E4:  MOVLW  74
083E6:  MOVWF  FF6
083E8:  MOVLW  08
083EA:  MOVWF  FF7
083EC:  MOVLW  00
083EE:  MOVWF  FF8
083F0:  MOVLB  0
083F2:  CALL   38BE
....................             SendDataDisplay(); 
083F6:  CALL   38F0
....................             printf("page MenuPrincipal"); 
083FA:  MOVLW  8E
083FC:  MOVWF  FF6
083FE:  MOVLW  08
08400:  MOVWF  FF7
08402:  MOVLW  00
08404:  MOVWF  FF8
08406:  CALL   38BE
....................             SendDataDisplay(); 
0840A:  CALL   38F0
....................             if(!GuardaEEPROM){ 
0840E:  BTFSC  xA2.4
08410:  BRA    851C
....................                write_eeprom(10,RX_Buffer[4]-0x30);delay_ms(20);write_eeprom(11,RX_Buffer[5]-0x30);delay_ms(20); 
08412:  MOVLW  30
08414:  SUBWF  34,W
08416:  MOVLB  4
08418:  MOVWF  x3F
0841A:  CLRF   FAA
0841C:  MOVLW  0A
0841E:  MOVWF  FA9
08420:  MOVFF  43F,FA8
08424:  BCF    FA6.6
08426:  BCF    FA6.7
08428:  BSF    FA6.2
0842A:  MOVF   FF2,W
0842C:  MOVWF  00
0842E:  BCF    FF2.6
08430:  BCF    FF2.7
08432:  MOVLB  F
08434:  MOVLW  55
08436:  MOVWF  FA7
08438:  MOVLW  AA
0843A:  MOVWF  FA7
0843C:  BSF    FA6.1
0843E:  BTFSC  FA6.1
08440:  BRA    843E
08442:  BCF    FA6.2
08444:  MOVF   00,W
08446:  IORWF  FF2,F
08448:  MOVLW  14
0844A:  MOVLB  4
0844C:  MOVWF  x54
0844E:  MOVLB  0
08450:  CALL   1A84
08454:  MOVLW  30
08456:  SUBWF  35,W
08458:  MOVLB  4
0845A:  MOVWF  x3F
0845C:  CLRF   FAA
0845E:  MOVLW  0B
08460:  MOVWF  FA9
08462:  MOVFF  43F,FA8
08466:  BCF    FA6.6
08468:  BCF    FA6.7
0846A:  BSF    FA6.2
0846C:  MOVF   FF2,W
0846E:  MOVWF  00
08470:  BCF    FF2.6
08472:  BCF    FF2.7
08474:  MOVLB  F
08476:  MOVLW  55
08478:  MOVWF  FA7
0847A:  MOVLW  AA
0847C:  MOVWF  FA7
0847E:  BSF    FA6.1
08480:  BTFSC  FA6.1
08482:  BRA    8480
08484:  BCF    FA6.2
08486:  MOVF   00,W
08488:  IORWF  FF2,F
0848A:  MOVLW  14
0848C:  MOVLB  4
0848E:  MOVWF  x54
08490:  MOVLB  0
08492:  CALL   1A84
....................                write_eeprom(12,RX_Buffer[6]-0x30);delay_ms(20);write_eeprom(13,RX_Buffer[7]-0x30);delay_ms(20); 
08496:  MOVLW  30
08498:  SUBWF  36,W
0849A:  MOVLB  4
0849C:  MOVWF  x3F
0849E:  CLRF   FAA
084A0:  MOVLW  0C
084A2:  MOVWF  FA9
084A4:  MOVFF  43F,FA8
084A8:  BCF    FA6.6
084AA:  BCF    FA6.7
084AC:  BSF    FA6.2
084AE:  MOVF   FF2,W
084B0:  MOVWF  00
084B2:  BCF    FF2.6
084B4:  BCF    FF2.7
084B6:  MOVLB  F
084B8:  MOVLW  55
084BA:  MOVWF  FA7
084BC:  MOVLW  AA
084BE:  MOVWF  FA7
084C0:  BSF    FA6.1
084C2:  BTFSC  FA6.1
084C4:  BRA    84C2
084C6:  BCF    FA6.2
084C8:  MOVF   00,W
084CA:  IORWF  FF2,F
084CC:  MOVLW  14
084CE:  MOVLB  4
084D0:  MOVWF  x54
084D2:  MOVLB  0
084D4:  CALL   1A84
084D8:  MOVLW  30
084DA:  SUBWF  37,W
084DC:  MOVLB  4
084DE:  MOVWF  x3F
084E0:  CLRF   FAA
084E2:  MOVLW  0D
084E4:  MOVWF  FA9
084E6:  MOVFF  43F,FA8
084EA:  BCF    FA6.6
084EC:  BCF    FA6.7
084EE:  BSF    FA6.2
084F0:  MOVF   FF2,W
084F2:  MOVWF  00
084F4:  BCF    FF2.6
084F6:  BCF    FF2.7
084F8:  MOVLB  F
084FA:  MOVLW  55
084FC:  MOVWF  FA7
084FE:  MOVLW  AA
08500:  MOVWF  FA7
08502:  BSF    FA6.1
08504:  BTFSC  FA6.1
08506:  BRA    8504
08508:  BCF    FA6.2
0850A:  MOVF   00,W
0850C:  IORWF  FF2,F
0850E:  MOVLW  14
08510:  MOVLB  4
08512:  MOVWF  x54
08514:  MOVLB  0
08516:  CALL   1A84
....................                GuardaEEPROM=ON; 
0851A:  BSF    xA2.4
....................             } 
....................             RX_Buffer[3]=0x00; 
0851C:  CLRF   33
....................             RX_Buffer2[3]=0x00; 
0851E:  CLRF   3E
08520:  MOVLB  2
08522:  MOVLB  3
....................          } 
....................       } 
....................     } 
.................... //_--------------------------------------------------------------------------------------------------------------------------------------------------------        
....................  
.................... //_-------------------------------------------------------------------------------------------------------------------------------------------------------- 
....................    if(Menu==1){ //Menu Principal. 
08524:  DECFSZ x5E,W
08526:  GOTO   8F0A
....................       printf("fecha.txt=\"T:%3.1fC Fecha:%02u/%02u/20%02u Hora: %02u:%02u:%02u\"",Temperatura,Dia,Mes,Year,Hora,Minuto,Segundo); 
0852A:  MOVLW  A2
0852C:  MOVWF  FF6
0852E:  MOVLW  08
08530:  MOVWF  FF7
08532:  MOVLW  00
08534:  MOVWF  FF8
08536:  MOVLW  0D
08538:  MOVLB  4
0853A:  MOVWF  x44
0853C:  MOVLB  0
0853E:  CALL   484A
08542:  MOVLW  02
08544:  MOVWF  FE9
08546:  MOVFF  32B,447
0854A:  MOVFF  32A,446
0854E:  MOVFF  329,445
08552:  MOVFF  328,444
08556:  MOVLW  01
08558:  MOVLB  4
0855A:  MOVWF  x48
0855C:  MOVLB  0
0855E:  CALL   49EA
08562:  MOVLW  B4
08564:  MOVWF  FF6
08566:  MOVLW  08
08568:  MOVWF  FF7
0856A:  MOVLW  00
0856C:  MOVWF  FF8
0856E:  MOVLW  09
08570:  MOVLB  4
08572:  MOVWF  x44
08574:  MOVLB  0
08576:  CALL   484A
0857A:  MOVFF  3A0,444
0857E:  MOVLW  01
08580:  MOVLB  4
08582:  MOVWF  x45
08584:  MOVLB  0
08586:  CALL   48A8
0858A:  MOVLW  2F
0858C:  BTFSS  F9E.4
0858E:  BRA    858C
08590:  MOVWF  FAD
08592:  MOVFF  39F,444
08596:  MOVLW  01
08598:  MOVLB  4
0859A:  MOVWF  x45
0859C:  MOVLB  0
0859E:  CALL   48A8
085A2:  MOVLW  2F
085A4:  BTFSS  F9E.4
085A6:  BRA    85A4
085A8:  MOVWF  FAD
085AA:  MOVLW  32
085AC:  BTFSS  F9E.4
085AE:  BRA    85AC
085B0:  MOVWF  FAD
085B2:  MOVLW  30
085B4:  BTFSS  F9E.4
085B6:  BRA    85B4
085B8:  MOVWF  FAD
085BA:  MOVFF  39E,444
085BE:  MOVLW  01
085C0:  MOVLB  4
085C2:  MOVWF  x45
085C4:  MOVLB  0
085C6:  CALL   48A8
085CA:  MOVLW  CD
085CC:  MOVWF  FF6
085CE:  MOVLW  08
085D0:  MOVWF  FF7
085D2:  MOVLW  00
085D4:  MOVWF  FF8
085D6:  MOVLW  07
085D8:  MOVLB  4
085DA:  MOVWF  x44
085DC:  MOVLB  0
085DE:  CALL   484A
085E2:  MOVFF  3A1,444
085E6:  MOVLW  01
085E8:  MOVLB  4
085EA:  MOVWF  x45
085EC:  MOVLB  0
085EE:  CALL   48A8
085F2:  MOVLW  3A
085F4:  BTFSS  F9E.4
085F6:  BRA    85F4
085F8:  MOVWF  FAD
085FA:  MOVFF  3A2,444
085FE:  MOVLW  01
08600:  MOVLB  4
08602:  MOVWF  x45
08604:  MOVLB  0
08606:  CALL   48A8
0860A:  MOVLW  3A
0860C:  BTFSS  F9E.4
0860E:  BRA    860C
08610:  MOVWF  FAD
08612:  MOVFF  3A3,444
08616:  MOVLW  01
08618:  MOVLB  4
0861A:  MOVWF  x45
0861C:  MOVLB  0
0861E:  CALL   48A8
08622:  MOVLW  22
08624:  BTFSS  F9E.4
08626:  BRA    8624
08628:  MOVWF  FAD
....................       SendDataDisplay(); 
0862A:  CALL   38F0
....................       PruebaEstados=OFF; 
0862E:  BCF    xA1.2
....................       GuardaEEPROM=OFF; 
08630:  BCF    xA2.4
....................       if(RX_Buffer[3]==0x0f || UP){//0f, recibe caracteres ingresados desde el Display 
08632:  MOVF   33,W
08634:  SUBLW  0F
08636:  BZ    863E
08638:  BSF    F93.0
0863A:  BTFSC  F81.0
0863C:  BRA    88C2
....................          delay_ms(5); 
0863E:  MOVLW  05
08640:  MOVLB  4
08642:  MOVWF  x54
08644:  MOVLB  0
08646:  CALL   1A84
....................          if(RX_Buffer[3]==0x0f || UP){ 
0864A:  MOVF   33,W
0864C:  SUBLW  0F
0864E:  BZ    8656
08650:  BSF    F93.0
08652:  BTFSC  F81.0
08654:  BRA    88BC
....................          if(PantallaPrincipal==0){//Si esta en menu principal 
08656:  MOVLB  2
08658:  MOVF   xDD,F
0865A:  BTFSS  FD8.2
0865C:  BRA    88C0
....................             if(RX_Buffer[4]==0x37){//Ajustes y pasa a solicitud de password de tecnico 
0865E:  MOVF   34,W
08660:  SUBLW  37
08662:  BNZ   8690
....................                printf("page Clave"); 
08664:  MOVLW  E4
08666:  MOVWF  FF6
08668:  MOVLW  08
0866A:  MOVWF  FF7
0866C:  MOVLW  00
0866E:  MOVWF  FF8
08670:  MOVLB  0
08672:  CALL   38BE
....................                SendDataDisplay();  
08676:  CALL   38F0
....................                Op=OFF; 
0867A:  BCF    xA2.0
....................                Op2=OFF; 
0867C:  BCF    xA2.1
....................                MenuAnt=Menu; 
0867E:  MOVFF  35E,35F
....................                TipoClave=1; 
08682:  MOVLW  01
08684:  MOVLB  2
08686:  MOVWF  xDE
....................                RX_Buffer[3]=0x00; 
08688:  CLRF   33
....................                RX_Buffer2[3]=0x00; 
0868A:  CLRF   3E
....................                Opcion=0; 
0868C:  MOVLB  3
0868E:  CLRF   x66
....................             }if(Opcion==9){// Datos Ciclo 
08690:  MOVLB  3
08692:  MOVF   x66,W
08694:  SUBLW  09
08696:  BNZ   86C2
....................                printf("page Ciclos"); 
08698:  MOVLW  F0
0869A:  MOVWF  FF6
0869C:  MOVLW  08
0869E:  MOVWF  FF7
086A0:  MOVLW  00
086A2:  MOVWF  FF8
086A4:  MOVLB  0
086A6:  CALL   38BE
....................                SendDataDisplay();  
086AA:  CALL   38F0
....................                Op=OFF; 
086AE:  BCF    xA2.0
....................                Op2=OFF; 
086B0:  BCF    xA2.1
....................                MenuAnt=Menu; 
086B2:  MOVFF  35E,35F
....................                RX_Buffer[3]=0x00; 
086B6:  CLRF   33
....................                RX_Buffer2[3]=0x00; 
086B8:  CLRF   3E
....................                Opcion=1; 
086BA:  MOVLW  01
086BC:  MOVLB  3
086BE:  MOVWF  x66
....................             }else if(Opcion==8){// Cambio de Clave 
086C0:  BRA    88BE
086C2:  MOVF   x66,W
086C4:  SUBLW  08
086C6:  BNZ   86F6
....................                printf("page Clave"); 
086C8:  MOVLW  FC
086CA:  MOVWF  FF6
086CC:  MOVLW  08
086CE:  MOVWF  FF7
086D0:  MOVLW  00
086D2:  MOVWF  FF8
086D4:  MOVLB  0
086D6:  CALL   38BE
....................                SendDataDisplay();  
086DA:  CALL   38F0
....................                Op=OFF; 
086DE:  BCF    xA2.0
....................                Op2=OFF; 
086E0:  BCF    xA2.1
....................                MenuAnt=Menu; 
086E2:  MOVFF  35E,35F
....................                TipoClave=2; 
086E6:  MOVLW  02
086E8:  MOVLB  2
086EA:  MOVWF  xDE
....................                RX_Buffer[3]=0x00; 
086EC:  CLRF   33
....................                RX_Buffer2[3]=0x00; 
086EE:  CLRF   3E
....................                Opcion=0; 
086F0:  MOVLB  3
086F2:  CLRF   x66
....................             }else if(Opcion==7){//Hora y Fecha 
086F4:  BRA    88BE
086F6:  MOVF   x66,W
086F8:  SUBLW  07
086FA:  BNZ   8738
....................                printf("page Fecha"); 
086FC:  MOVLW  08
086FE:  MOVWF  FF6
08700:  MOVLW  09
08702:  MOVWF  FF7
08704:  MOVLW  00
08706:  MOVWF  FF8
08708:  MOVLB  0
0870A:  CALL   38BE
....................                SendDataDisplay();      
0870E:  CALL   38F0
....................                PantallaPrincipal=0; 
08712:  MOVLB  2
08714:  CLRF   xDD
....................                MenuAnt=Menu; 
08716:  MOVFF  35E,35F
....................                Op=OFF; 
0871A:  MOVLB  0
0871C:  BCF    xA2.0
....................                Op2=OFF; 
0871E:  BCF    xA2.1
....................                DiaTx=Dia; 
08720:  MOVFF  3A0,3A7
....................                MesTx=Mes; 
08724:  MOVFF  39F,3A6
....................                YearTx=Year; 
08728:  MOVFF  39E,3A5
....................                HoraTx=Hora; 
0872C:  MOVFF  3A1,3A8
....................                MinutoTx=Minuto; 
08730:  MOVFF  3A2,3A9
....................             }else if(Opcion==6){//Test 
08734:  BRA    88BC
08736:  MOVLB  3
08738:  MOVF   x66,W
0873A:  SUBLW  06
0873C:  BNZ   8766
....................                printf("page Test"); 
0873E:  MOVLW  14
08740:  MOVWF  FF6
08742:  MOVLW  09
08744:  MOVWF  FF7
08746:  MOVLW  00
08748:  MOVWF  FF8
0874A:  MOVLB  0
0874C:  CALL   38BE
....................                SendDataDisplay();      
08750:  CALL   38F0
....................                PantallaPrincipal=0; 
08754:  MOVLB  2
08756:  CLRF   xDD
....................                MenuAnt=Menu; 
08758:  MOVFF  35E,35F
....................                Op=OFF; 
0875C:  MOVLB  0
0875E:  BCF    xA2.0
....................                Op2=OFF; 
08760:  BCF    xA2.1
....................             }else if(Opcion==5){//Ciclo Personalizado 
08762:  BRA    88BC
08764:  MOVLB  3
08766:  MOVF   x66,W
08768:  SUBLW  05
0876A:  BNZ   878E
....................                printf("page CicloPersona"); 
0876C:  MOVLW  1E
0876E:  MOVWF  FF6
08770:  MOVLW  09
08772:  MOVWF  FF7
08774:  MOVLW  00
08776:  MOVWF  FF8
08778:  MOVLB  0
0877A:  CALL   38BE
....................                SendDataDisplay();  
0877E:  CALL   38F0
....................                MenuAnt=Menu; 
08782:  MOVFF  35E,35F
....................                Op=OFF; 
08786:  BCF    xA2.0
....................                Op2=OFF; 
08788:  BCF    xA2.1
....................             }else if(Opcion==4){//LiquidosB 
0878A:  BRA    88BC
0878C:  MOVLB  3
0878E:  MOVF   x66,W
08790:  SUBLW  04
08792:  BNZ   87DC
....................                printf("page Nivel"); 
08794:  MOVLW  30
08796:  MOVWF  FF6
08798:  MOVLW  09
0879A:  MOVWF  FF7
0879C:  MOVLW  00
0879E:  MOVWF  FF8
087A0:  MOVLB  0
087A2:  CALL   38BE
....................                SendDataDisplay();        
087A6:  CALL   38F0
....................                ConfiguraCiclo(0,0,0,3,0,0,0,0,1,4,121); 
087AA:  MOVLB  4
087AC:  CLRF   x49
087AE:  CLRF   x4A
087B0:  CLRF   x4B
087B2:  MOVLW  03
087B4:  MOVWF  x4C
087B6:  CLRF   x4D
087B8:  CLRF   x4E
087BA:  CLRF   x4F
087BC:  CLRF   x50
087BE:  MOVLW  01
087C0:  MOVWF  x51
087C2:  MOVLW  04
087C4:  MOVWF  x52
087C6:  MOVLW  79
087C8:  MOVWF  x53
087CA:  MOVLB  0
087CC:  CALL   4B8E
....................                Op=OFF; 
087D0:  BCF    xA2.0
....................                Op2=OFF; 
087D2:  BCF    xA2.1
....................                MenuAnt=2; 
087D4:  MOVLW  02
087D6:  MOVLB  3
087D8:  MOVWF  x5F
....................             }else if(Opcion==1){//LiquidosA 
087DA:  BRA    88BE
087DC:  DECFSZ x66,W
087DE:  BRA    8826
....................                printf("page Nivel"); 
087E0:  MOVLW  3C
087E2:  MOVWF  FF6
087E4:  MOVLW  09
087E6:  MOVWF  FF7
087E8:  MOVLW  00
087EA:  MOVWF  FF8
087EC:  MOVLB  0
087EE:  CALL   38BE
....................                SendDataDisplay();        
087F2:  CALL   38F0
....................                ConfiguraCiclo(0,0,5,1,0,0,0,0,1,1,121); 
087F6:  MOVLB  4
087F8:  CLRF   x49
087FA:  CLRF   x4A
087FC:  MOVLW  05
087FE:  MOVWF  x4B
08800:  MOVLW  01
08802:  MOVWF  x4C
08804:  CLRF   x4D
08806:  CLRF   x4E
08808:  CLRF   x4F
0880A:  CLRF   x50
0880C:  MOVWF  x51
0880E:  MOVWF  x52
08810:  MOVLW  79
08812:  MOVWF  x53
08814:  MOVLB  0
08816:  CALL   4B8E
....................                Op=OFF; 
0881A:  BCF    xA2.0
....................                Op2=OFF; 
0881C:  BCF    xA2.1
....................                MenuAnt=2; 
0881E:  MOVLW  02
08820:  MOVLB  3
08822:  MOVWF  x5F
....................             }else if(Opcion==3){//Instrumental 
08824:  BRA    88BE
08826:  MOVF   x66,W
08828:  SUBLW  03
0882A:  BNZ   8870
....................                printf("page Funcionamiento"); 
0882C:  MOVLW  48
0882E:  MOVWF  FF6
08830:  MOVLW  09
08832:  MOVWF  FF7
08834:  MOVLW  00
08836:  MOVWF  FF8
08838:  MOVLB  0
0883A:  CALL   38BE
....................                SendDataDisplay();        
0883E:  CALL   38F0
....................                ConfiguraCiclo(0,0,0,3,0,0,0,3,0,3,121); 
08842:  MOVLB  4
08844:  CLRF   x49
08846:  CLRF   x4A
08848:  CLRF   x4B
0884A:  MOVLW  03
0884C:  MOVWF  x4C
0884E:  CLRF   x4D
08850:  CLRF   x4E
08852:  CLRF   x4F
08854:  MOVWF  x50
08856:  CLRF   x51
08858:  MOVWF  x52
0885A:  MOVLW  79
0885C:  MOVWF  x53
0885E:  MOVLB  0
08860:  CALL   4B8E
....................                Op=OFF; 
08864:  BCF    xA2.0
....................                Op2=OFF; 
08866:  BCF    xA2.1
....................                MenuAnt=Menu; 
08868:  MOVFF  35E,35F
....................                //if(Temperatura>60)TTrampa=TTrampa+5; 
....................             }else if(Opcion==2){//Caucho 
0886C:  BRA    88BC
0886E:  MOVLB  3
08870:  MOVF   x66,W
08872:  SUBLW  02
08874:  BNZ   88BE
....................                printf("page Funcionamiento"); 
08876:  MOVLW  5C
08878:  MOVWF  FF6
0887A:  MOVLW  09
0887C:  MOVWF  FF7
0887E:  MOVLW  00
08880:  MOVWF  FF8
08882:  MOVLB  0
08884:  CALL   38BE
....................                SendDataDisplay();        
08888:  CALL   38F0
....................                ConfiguraCiclo(0,0,5,1,0,0,3,0,0,2,121); 
0888C:  MOVLB  4
0888E:  CLRF   x49
08890:  CLRF   x4A
08892:  MOVLW  05
08894:  MOVWF  x4B
08896:  MOVLW  01
08898:  MOVWF  x4C
0889A:  CLRF   x4D
0889C:  CLRF   x4E
0889E:  MOVLW  03
088A0:  MOVWF  x4F
088A2:  CLRF   x50
088A4:  CLRF   x51
088A6:  MOVLW  02
088A8:  MOVWF  x52
088AA:  MOVLW  79
088AC:  MOVWF  x53
088AE:  MOVLB  0
088B0:  CALL   4B8E
....................                Op=OFF; 
088B4:  BCF    xA2.0
....................                Op2=OFF; 
088B6:  BCF    xA2.1
....................                MenuAnt=Menu; 
088B8:  MOVFF  35E,35F
088BC:  MOVLB  3
088BE:  MOVLB  2
....................                //if(Temperatura>60)TTrampa=TTrampa+5; 
....................             } 
....................          } 
....................          } 
....................       }else if(PantallaPrincipal==0){ 
088C0:  BRA    8EBC
088C2:  MOVLB  2
088C4:  MOVF   xDD,F
088C6:  BTFSS  FD8.2
088C8:  BRA    8EBC
....................          if(Opcion>sizeof(iconoGrande)) 
088CA:  MOVLB  3
088CC:  MOVF   x66,W
088CE:  SUBLW  09
088D0:  BC    88D6
....................             Opcion=1; 
088D2:  MOVLW  01
088D4:  MOVWF  x66
....................              
....................          if(Opcion<1) 
088D6:  MOVF   x66,F
088D8:  BNZ   88DE
....................             Opcion=sizeof(iconoGrande); 
088DA:  MOVLW  09
088DC:  MOVWF  x66
....................           
....................          if(Opcion==1){ 
088DE:  DECFSZ x66,W
088E0:  BRA    8A8E
....................             printf("bc.pic=%u",iconoGrande[Opcion-1]); 
088E2:  MOVLW  01
088E4:  SUBWF  x66,W
088E6:  CLRF   03
088E8:  ADDLW  B3
088EA:  MOVWF  FE9
088EC:  MOVLW  03
088EE:  ADDWFC 03,W
088F0:  MOVWF  FEA
088F2:  MOVFF  FEF,43F
088F6:  MOVLW  70
088F8:  MOVWF  FF6
088FA:  MOVLW  09
088FC:  MOVWF  FF7
088FE:  MOVLW  00
08900:  MOVWF  FF8
08902:  MOVLW  07
08904:  MOVLB  4
08906:  MOVWF  x44
08908:  MOVLB  0
0890A:  CALL   484A
0890E:  MOVFF  43F,444
08912:  MOVLW  1B
08914:  MOVLB  4
08916:  MOVWF  x45
08918:  MOVLB  0
0891A:  CALL   48A8
....................             SendDataDisplay(); 
0891E:  CALL   38F0
....................             printf("bd.pic=%u",iconoPeque[Opcion]); 
08922:  CLRF   03
08924:  MOVLB  3
08926:  MOVF   x66,W
08928:  ADDLW  BC
0892A:  MOVWF  FE9
0892C:  MOVLW  03
0892E:  ADDWFC 03,W
08930:  MOVWF  FEA
08932:  MOVFF  FEF,43F
08936:  MOVLW  7A
08938:  MOVWF  FF6
0893A:  MOVLW  09
0893C:  MOVWF  FF7
0893E:  MOVLW  00
08940:  MOVWF  FF8
08942:  MOVLW  07
08944:  MOVLB  4
08946:  MOVWF  x44
08948:  MOVLB  0
0894A:  CALL   484A
0894E:  MOVFF  43F,444
08952:  MOVLW  1B
08954:  MOVLB  4
08956:  MOVWF  x45
08958:  MOVLB  0
0895A:  CALL   48A8
....................             SendDataDisplay(); 
0895E:  CALL   38F0
....................             printf("bi.pic=%u",iconoPeque[sizeof(iconoGrande)-1]); 
08962:  MOVLW  84
08964:  MOVWF  FF6
08966:  MOVLW  09
08968:  MOVWF  FF7
0896A:  MOVLW  00
0896C:  MOVWF  FF8
0896E:  MOVLW  07
08970:  MOVLB  4
08972:  MOVWF  x44
08974:  MOVLB  0
08976:  CALL   484A
0897A:  MOVFF  3C4,444
0897E:  MOVLW  1B
08980:  MOVLB  4
08982:  MOVWF  x45
08984:  MOVLB  0
08986:  CALL   48A8
....................             SendDataDisplay(); 
0898A:  CALL   38F0
....................             printf("bc.pic2=%u",iconoGrande[Opcion-1]); 
0898E:  MOVLW  01
08990:  MOVLB  3
08992:  SUBWF  x66,W
08994:  CLRF   03
08996:  ADDLW  B3
08998:  MOVWF  FE9
0899A:  MOVLW  03
0899C:  ADDWFC 03,W
0899E:  MOVWF  FEA
089A0:  MOVFF  FEF,43F
089A4:  MOVLW  8E
089A6:  MOVWF  FF6
089A8:  MOVLW  09
089AA:  MOVWF  FF7
089AC:  MOVLW  00
089AE:  MOVWF  FF8
089B0:  MOVLW  08
089B2:  MOVLB  4
089B4:  MOVWF  x44
089B6:  MOVLB  0
089B8:  CALL   484A
089BC:  MOVFF  43F,444
089C0:  MOVLW  1B
089C2:  MOVLB  4
089C4:  MOVWF  x45
089C6:  MOVLB  0
089C8:  CALL   48A8
....................             SendDataDisplay(); 
089CC:  CALL   38F0
....................             printf("bd.pic2=%u",iconoPeque[Opcion]); 
089D0:  CLRF   03
089D2:  MOVLB  3
089D4:  MOVF   x66,W
089D6:  ADDLW  BC
089D8:  MOVWF  FE9
089DA:  MOVLW  03
089DC:  ADDWFC 03,W
089DE:  MOVWF  FEA
089E0:  MOVFF  FEF,43F
089E4:  MOVLW  9A
089E6:  MOVWF  FF6
089E8:  MOVLW  09
089EA:  MOVWF  FF7
089EC:  MOVLW  00
089EE:  MOVWF  FF8
089F0:  MOVLW  08
089F2:  MOVLB  4
089F4:  MOVWF  x44
089F6:  MOVLB  0
089F8:  CALL   484A
089FC:  MOVFF  43F,444
08A00:  MOVLW  1B
08A02:  MOVLB  4
08A04:  MOVWF  x45
08A06:  MOVLB  0
08A08:  CALL   48A8
....................             SendDataDisplay(); 
08A0C:  CALL   38F0
....................             printf("bi.pic2=%u",iconoPeque[sizeof(iconoGrande)-1]); 
08A10:  MOVLW  A6
08A12:  MOVWF  FF6
08A14:  MOVLW  09
08A16:  MOVWF  FF7
08A18:  MOVLW  00
08A1A:  MOVWF  FF8
08A1C:  MOVLW  08
08A1E:  MOVLB  4
08A20:  MOVWF  x44
08A22:  MOVLB  0
08A24:  CALL   484A
08A28:  MOVFF  3C4,444
08A2C:  MOVLW  1B
08A2E:  MOVLB  4
08A30:  MOVWF  x45
08A32:  MOVLB  0
08A34:  CALL   48A8
....................             SendDataDisplay(); 
08A38:  CALL   38F0
....................             printf("textop.txt=\"%s\"",texto[Opcion-1]); 
08A3C:  MOVLW  01
08A3E:  MOVLB  3
08A40:  SUBWF  x66,W
08A42:  MULLW  14
08A44:  MOVF   FF3,W
08A46:  CLRF   03
08A48:  MOVLB  4
08A4A:  MOVWF  x3F
08A4C:  MOVLW  B2
08A4E:  MOVWF  FF6
08A50:  MOVLW  09
08A52:  MOVWF  FF7
08A54:  MOVLW  00
08A56:  MOVWF  FF8
08A58:  MOVLW  0C
08A5A:  MOVWF  x44
08A5C:  MOVLB  0
08A5E:  CALL   484A
08A62:  MOVLW  50
08A64:  MOVWF  FF6
08A66:  MOVLW  01
08A68:  MOVWF  FF7
08A6A:  MOVLW  00
08A6C:  MOVWF  FF8
08A6E:  MOVLB  4
08A70:  MOVF   x3F,W
08A72:  ADDWF  FF6,F
08A74:  MOVLW  00
08A76:  ADDWFC FF7,F
08A78:  MOVLB  0
08A7A:  CALL   38BE
08A7E:  MOVLW  22
08A80:  BTFSS  F9E.4
08A82:  BRA    8A80
08A84:  MOVWF  FAD
....................             SendDataDisplay(); 
08A86:  CALL   38F0
....................          }else if(Opcion==sizeof(iconoGrande)){ 
08A8A:  BRA    8E1A
08A8C:  MOVLB  3
08A8E:  MOVF   x66,W
08A90:  SUBLW  09
08A92:  BTFSS  FD8.2
08A94:  BRA    8C46
....................             printf("bc.pic=%u",iconoGrande[Opcion-1]); 
08A96:  MOVLW  01
08A98:  SUBWF  x66,W
08A9A:  CLRF   03
08A9C:  ADDLW  B3
08A9E:  MOVWF  FE9
08AA0:  MOVLW  03
08AA2:  ADDWFC 03,W
08AA4:  MOVWF  FEA
08AA6:  MOVFF  FEF,43F
08AAA:  MOVLW  C2
08AAC:  MOVWF  FF6
08AAE:  MOVLW  09
08AB0:  MOVWF  FF7
08AB2:  MOVLW  00
08AB4:  MOVWF  FF8
08AB6:  MOVLW  07
08AB8:  MOVLB  4
08ABA:  MOVWF  x44
08ABC:  MOVLB  0
08ABE:  CALL   484A
08AC2:  MOVFF  43F,444
08AC6:  MOVLW  1B
08AC8:  MOVLB  4
08ACA:  MOVWF  x45
08ACC:  MOVLB  0
08ACE:  CALL   48A8
....................             SendDataDisplay(); 
08AD2:  CALL   38F0
....................             printf("bd.pic=%u",iconoPeque[0]); 
08AD6:  MOVLW  CC
08AD8:  MOVWF  FF6
08ADA:  MOVLW  09
08ADC:  MOVWF  FF7
08ADE:  MOVLW  00
08AE0:  MOVWF  FF8
08AE2:  MOVLW  07
08AE4:  MOVLB  4
08AE6:  MOVWF  x44
08AE8:  MOVLB  0
08AEA:  CALL   484A
08AEE:  MOVFF  3BC,444
08AF2:  MOVLW  1B
08AF4:  MOVLB  4
08AF6:  MOVWF  x45
08AF8:  MOVLB  0
08AFA:  CALL   48A8
....................             SendDataDisplay(); 
08AFE:  CALL   38F0
....................             printf("bi.pic=%u",iconoPeque[Opcion-2]); 
08B02:  MOVLW  02
08B04:  MOVLB  3
08B06:  SUBWF  x66,W
08B08:  CLRF   03
08B0A:  ADDLW  BC
08B0C:  MOVWF  FE9
08B0E:  MOVLW  03
08B10:  ADDWFC 03,W
08B12:  MOVWF  FEA
08B14:  MOVFF  FEF,43F
08B18:  MOVLW  D6
08B1A:  MOVWF  FF6
08B1C:  MOVLW  09
08B1E:  MOVWF  FF7
08B20:  MOVLW  00
08B22:  MOVWF  FF8
08B24:  MOVLW  07
08B26:  MOVLB  4
08B28:  MOVWF  x44
08B2A:  MOVLB  0
08B2C:  CALL   484A
08B30:  MOVFF  43F,444
08B34:  MOVLW  1B
08B36:  MOVLB  4
08B38:  MOVWF  x45
08B3A:  MOVLB  0
08B3C:  CALL   48A8
....................             SendDataDisplay(); 
08B40:  CALL   38F0
....................             printf("bc.pic2=%u",iconoGrande[Opcion-1]); 
08B44:  MOVLW  01
08B46:  MOVLB  3
08B48:  SUBWF  x66,W
08B4A:  CLRF   03
08B4C:  ADDLW  B3
08B4E:  MOVWF  FE9
08B50:  MOVLW  03
08B52:  ADDWFC 03,W
08B54:  MOVWF  FEA
08B56:  MOVFF  FEF,43F
08B5A:  MOVLW  E0
08B5C:  MOVWF  FF6
08B5E:  MOVLW  09
08B60:  MOVWF  FF7
08B62:  MOVLW  00
08B64:  MOVWF  FF8
08B66:  MOVLW  08
08B68:  MOVLB  4
08B6A:  MOVWF  x44
08B6C:  MOVLB  0
08B6E:  CALL   484A
08B72:  MOVFF  43F,444
08B76:  MOVLW  1B
08B78:  MOVLB  4
08B7A:  MOVWF  x45
08B7C:  MOVLB  0
08B7E:  CALL   48A8
....................             SendDataDisplay(); 
08B82:  CALL   38F0
....................             printf("bd.pic2=%u",iconoPeque[0]); 
08B86:  MOVLW  EC
08B88:  MOVWF  FF6
08B8A:  MOVLW  09
08B8C:  MOVWF  FF7
08B8E:  MOVLW  00
08B90:  MOVWF  FF8
08B92:  MOVLW  08
08B94:  MOVLB  4
08B96:  MOVWF  x44
08B98:  MOVLB  0
08B9A:  CALL   484A
08B9E:  MOVFF  3BC,444
08BA2:  MOVLW  1B
08BA4:  MOVLB  4
08BA6:  MOVWF  x45
08BA8:  MOVLB  0
08BAA:  CALL   48A8
....................             SendDataDisplay(); 
08BAE:  CALL   38F0
....................             printf("bi.pic2=%u",iconoPeque[Opcion-2]); 
08BB2:  MOVLW  02
08BB4:  MOVLB  3
08BB6:  SUBWF  x66,W
08BB8:  CLRF   03
08BBA:  ADDLW  BC
08BBC:  MOVWF  FE9
08BBE:  MOVLW  03
08BC0:  ADDWFC 03,W
08BC2:  MOVWF  FEA
08BC4:  MOVFF  FEF,43F
08BC8:  MOVLW  F8
08BCA:  MOVWF  FF6
08BCC:  MOVLW  09
08BCE:  MOVWF  FF7
08BD0:  MOVLW  00
08BD2:  MOVWF  FF8
08BD4:  MOVLW  08
08BD6:  MOVLB  4
08BD8:  MOVWF  x44
08BDA:  MOVLB  0
08BDC:  CALL   484A
08BE0:  MOVFF  43F,444
08BE4:  MOVLW  1B
08BE6:  MOVLB  4
08BE8:  MOVWF  x45
08BEA:  MOVLB  0
08BEC:  CALL   48A8
....................             SendDataDisplay(); 
08BF0:  CALL   38F0
....................             printf("textop.txt=\"%s\"",texto[Opcion-1]); 
08BF4:  MOVLW  01
08BF6:  MOVLB  3
08BF8:  SUBWF  x66,W
08BFA:  MULLW  14
08BFC:  MOVF   FF3,W
08BFE:  CLRF   03
08C00:  MOVLB  4
08C02:  MOVWF  x3F
08C04:  MOVLW  04
08C06:  MOVWF  FF6
08C08:  MOVLW  0A
08C0A:  MOVWF  FF7
08C0C:  MOVLW  00
08C0E:  MOVWF  FF8
08C10:  MOVLW  0C
08C12:  MOVWF  x44
08C14:  MOVLB  0
08C16:  CALL   484A
08C1A:  MOVLW  50
08C1C:  MOVWF  FF6
08C1E:  MOVLW  01
08C20:  MOVWF  FF7
08C22:  MOVLW  00
08C24:  MOVWF  FF8
08C26:  MOVLB  4
08C28:  MOVF   x3F,W
08C2A:  ADDWF  FF6,F
08C2C:  MOVLW  00
08C2E:  ADDWFC FF7,F
08C30:  MOVLB  0
08C32:  CALL   38BE
08C36:  MOVLW  22
08C38:  BTFSS  F9E.4
08C3A:  BRA    8C38
08C3C:  MOVWF  FAD
....................             SendDataDisplay(); 
08C3E:  CALL   38F0
....................          }else{ 
08C42:  BRA    8E1A
08C44:  MOVLB  3
....................             printf("bc.pic=%u",iconoGrande[Opcion-1]); 
08C46:  MOVLW  01
08C48:  SUBWF  x66,W
08C4A:  CLRF   03
08C4C:  ADDLW  B3
08C4E:  MOVWF  FE9
08C50:  MOVLW  03
08C52:  ADDWFC 03,W
08C54:  MOVWF  FEA
08C56:  MOVFF  FEF,43F
08C5A:  MOVLW  14
08C5C:  MOVWF  FF6
08C5E:  MOVLW  0A
08C60:  MOVWF  FF7
08C62:  MOVLW  00
08C64:  MOVWF  FF8
08C66:  MOVLW  07
08C68:  MOVLB  4
08C6A:  MOVWF  x44
08C6C:  MOVLB  0
08C6E:  CALL   484A
08C72:  MOVFF  43F,444
08C76:  MOVLW  1B
08C78:  MOVLB  4
08C7A:  MOVWF  x45
08C7C:  MOVLB  0
08C7E:  CALL   48A8
....................             SendDataDisplay(); 
08C82:  CALL   38F0
....................             printf("bd.pic=%u",iconoPeque[Opcion]); 
08C86:  CLRF   03
08C88:  MOVLB  3
08C8A:  MOVF   x66,W
08C8C:  ADDLW  BC
08C8E:  MOVWF  FE9
08C90:  MOVLW  03
08C92:  ADDWFC 03,W
08C94:  MOVWF  FEA
08C96:  MOVFF  FEF,43F
08C9A:  MOVLW  1E
08C9C:  MOVWF  FF6
08C9E:  MOVLW  0A
08CA0:  MOVWF  FF7
08CA2:  MOVLW  00
08CA4:  MOVWF  FF8
08CA6:  MOVLW  07
08CA8:  MOVLB  4
08CAA:  MOVWF  x44
08CAC:  MOVLB  0
08CAE:  CALL   484A
08CB2:  MOVFF  43F,444
08CB6:  MOVLW  1B
08CB8:  MOVLB  4
08CBA:  MOVWF  x45
08CBC:  MOVLB  0
08CBE:  CALL   48A8
....................             SendDataDisplay(); 
08CC2:  CALL   38F0
....................             printf("bi.pic=%u",iconoPeque[Opcion-2]); 
08CC6:  MOVLW  02
08CC8:  MOVLB  3
08CCA:  SUBWF  x66,W
08CCC:  CLRF   03
08CCE:  ADDLW  BC
08CD0:  MOVWF  FE9
08CD2:  MOVLW  03
08CD4:  ADDWFC 03,W
08CD6:  MOVWF  FEA
08CD8:  MOVFF  FEF,43F
08CDC:  MOVLW  28
08CDE:  MOVWF  FF6
08CE0:  MOVLW  0A
08CE2:  MOVWF  FF7
08CE4:  MOVLW  00
08CE6:  MOVWF  FF8
08CE8:  MOVLW  07
08CEA:  MOVLB  4
08CEC:  MOVWF  x44
08CEE:  MOVLB  0
08CF0:  CALL   484A
08CF4:  MOVFF  43F,444
08CF8:  MOVLW  1B
08CFA:  MOVLB  4
08CFC:  MOVWF  x45
08CFE:  MOVLB  0
08D00:  CALL   48A8
....................             SendDataDisplay(); 
08D04:  CALL   38F0
....................             printf("bc.pic2=%u",iconoGrande[Opcion-1]); 
08D08:  MOVLW  01
08D0A:  MOVLB  3
08D0C:  SUBWF  x66,W
08D0E:  CLRF   03
08D10:  ADDLW  B3
08D12:  MOVWF  FE9
08D14:  MOVLW  03
08D16:  ADDWFC 03,W
08D18:  MOVWF  FEA
08D1A:  MOVFF  FEF,43F
08D1E:  MOVLW  32
08D20:  MOVWF  FF6
08D22:  MOVLW  0A
08D24:  MOVWF  FF7
08D26:  MOVLW  00
08D28:  MOVWF  FF8
08D2A:  MOVLW  08
08D2C:  MOVLB  4
08D2E:  MOVWF  x44
08D30:  MOVLB  0
08D32:  CALL   484A
08D36:  MOVFF  43F,444
08D3A:  MOVLW  1B
08D3C:  MOVLB  4
08D3E:  MOVWF  x45
08D40:  MOVLB  0
08D42:  CALL   48A8
....................             SendDataDisplay(); 
08D46:  CALL   38F0
....................             printf("bd.pic2=%u",iconoPeque[Opcion]); 
08D4A:  CLRF   03
08D4C:  MOVLB  3
08D4E:  MOVF   x66,W
08D50:  ADDLW  BC
08D52:  MOVWF  FE9
08D54:  MOVLW  03
08D56:  ADDWFC 03,W
08D58:  MOVWF  FEA
08D5A:  MOVFF  FEF,43F
08D5E:  MOVLW  3E
08D60:  MOVWF  FF6
08D62:  MOVLW  0A
08D64:  MOVWF  FF7
08D66:  MOVLW  00
08D68:  MOVWF  FF8
08D6A:  MOVLW  08
08D6C:  MOVLB  4
08D6E:  MOVWF  x44
08D70:  MOVLB  0
08D72:  CALL   484A
08D76:  MOVFF  43F,444
08D7A:  MOVLW  1B
08D7C:  MOVLB  4
08D7E:  MOVWF  x45
08D80:  MOVLB  0
08D82:  CALL   48A8
....................             SendDataDisplay(); 
08D86:  CALL   38F0
....................             printf("bi.pic2=%u",iconoPeque[Opcion-2]); 
08D8A:  MOVLW  02
08D8C:  MOVLB  3
08D8E:  SUBWF  x66,W
08D90:  CLRF   03
08D92:  ADDLW  BC
08D94:  MOVWF  FE9
08D96:  MOVLW  03
08D98:  ADDWFC 03,W
08D9A:  MOVWF  FEA
08D9C:  MOVFF  FEF,43F
08DA0:  MOVLW  4A
08DA2:  MOVWF  FF6
08DA4:  MOVLW  0A
08DA6:  MOVWF  FF7
08DA8:  MOVLW  00
08DAA:  MOVWF  FF8
08DAC:  MOVLW  08
08DAE:  MOVLB  4
08DB0:  MOVWF  x44
08DB2:  MOVLB  0
08DB4:  CALL   484A
08DB8:  MOVFF  43F,444
08DBC:  MOVLW  1B
08DBE:  MOVLB  4
08DC0:  MOVWF  x45
08DC2:  MOVLB  0
08DC4:  CALL   48A8
....................             SendDataDisplay(); 
08DC8:  CALL   38F0
....................             printf("textop.txt=\"%s\"",texto[Opcion-1]); 
08DCC:  MOVLW  01
08DCE:  MOVLB  3
08DD0:  SUBWF  x66,W
08DD2:  MULLW  14
08DD4:  MOVF   FF3,W
08DD6:  CLRF   03
08DD8:  MOVLB  4
08DDA:  MOVWF  x3F
08DDC:  MOVLW  56
08DDE:  MOVWF  FF6
08DE0:  MOVLW  0A
08DE2:  MOVWF  FF7
08DE4:  MOVLW  00
08DE6:  MOVWF  FF8
08DE8:  MOVLW  0C
08DEA:  MOVWF  x44
08DEC:  MOVLB  0
08DEE:  CALL   484A
08DF2:  MOVLW  50
08DF4:  MOVWF  FF6
08DF6:  MOVLW  01
08DF8:  MOVWF  FF7
08DFA:  MOVLW  00
08DFC:  MOVWF  FF8
08DFE:  MOVLB  4
08E00:  MOVF   x3F,W
08E02:  ADDWF  FF6,F
08E04:  MOVLW  00
08E06:  ADDWFC FF7,F
08E08:  MOVLB  0
08E0A:  CALL   38BE
08E0E:  MOVLW  22
08E10:  BTFSS  F9E.4
08E12:  BRA    8E10
08E14:  MOVWF  FAD
....................             SendDataDisplay(); 
08E16:  CALL   38F0
....................          } 
....................           
....................          printf("ttitulo.txt=\"SELECCIONE SU CICLO\""); 
08E1A:  MOVLW  66
08E1C:  MOVWF  FF6
08E1E:  MOVLW  0A
08E20:  MOVWF  FF7
08E22:  MOVLW  00
08E24:  MOVWF  FF8
08E26:  CALL   38BE
....................          SendDataDisplay(); 
08E2A:  CALL   38F0
....................           
....................          if(RIGHT){ 
08E2E:  BSF    F93.2
08E30:  BTFSC  F81.2
08E32:  BRA    8E4C
....................             delay_ms(20); 
08E34:  MOVLW  14
08E36:  MOVLB  4
08E38:  MOVWF  x54
08E3A:  MOVLB  0
08E3C:  CALL   1A84
....................             if(RIGHT){ 
08E40:  BSF    F93.2
08E42:  BTFSC  F81.2
08E44:  BRA    8E4C
....................                Opcion++; 
08E46:  MOVLB  3
08E48:  INCF   x66,F
08E4A:  MOVLB  0
....................             } 
....................          } 
....................           
....................          if(LEFT){ 
08E4C:  BSF    F93.3
08E4E:  BTFSC  F81.3
08E50:  BRA    8E6A
....................             delay_ms(20); 
08E52:  MOVLW  14
08E54:  MOVLB  4
08E56:  MOVWF  x54
08E58:  MOVLB  0
08E5A:  CALL   1A84
....................             if(LEFT){ 
08E5E:  BSF    F93.3
08E60:  BTFSC  F81.3
08E62:  BRA    8E6A
....................                Opcion--; 
08E64:  MOVLB  3
08E66:  DECF   x66,F
08E68:  MOVLB  0
....................             } 
....................          } 
....................           
....................          if(RX_Buffer[4]==0x0d && !Op){//Tecla Derecha Oprimida 
08E6A:  MOVF   34,W
08E6C:  SUBLW  0D
08E6E:  BNZ   8E7E
08E70:  BTFSC  xA2.0
08E72:  BRA    8E7E
....................             Opcion++; 
08E74:  MOVLB  3
08E76:  INCF   x66,F
....................             RX_Buffer[4]=0x00; 
08E78:  CLRF   34
....................             Op=ON; 
08E7A:  MOVLB  0
08E7C:  BSF    xA2.0
....................             //BorraBuffer(); 
....................          } 
....................           
....................          if(RX_Buffer[4]==0x0c && Op){//Tecla Derecha Oprimida 
08E7E:  MOVF   34,W
08E80:  SUBLW  0C
08E82:  BNZ   8E92
08E84:  BTFSS  xA2.0
08E86:  BRA    8E92
....................             Opcion++; 
08E88:  MOVLB  3
08E8A:  INCF   x66,F
....................             RX_Buffer[4]=0x00; 
08E8C:  CLRF   34
....................             Op=OFF; 
08E8E:  MOVLB  0
08E90:  BCF    xA2.0
....................             //BorraBuffer(); 
....................          } 
....................           
....................          if(RX_Buffer[4]==0x0e && !Op2){//Tecla Izquierda Oprimida 
08E92:  MOVF   34,W
08E94:  SUBLW  0E
08E96:  BNZ   8EA6
08E98:  BTFSC  xA2.1
08E9A:  BRA    8EA6
....................             Opcion--; 
08E9C:  MOVLB  3
08E9E:  DECF   x66,F
....................             RX_Buffer[4]=0x00; 
08EA0:  CLRF   34
....................             Op2=ON; 
08EA2:  MOVLB  0
08EA4:  BSF    xA2.1
....................             //BorraBuffer(); 
....................          } 
....................           
....................          if(RX_Buffer[4]==0x0f && Op2){//Tecla Izquierda Oprimida 
08EA6:  MOVF   34,W
08EA8:  SUBLW  0F
08EAA:  BNZ   8EBA
08EAC:  BTFSS  xA2.1
08EAE:  BRA    8EBA
....................             Opcion--; 
08EB0:  MOVLB  3
08EB2:  DECF   x66,F
....................             RX_Buffer[4]=0x00; 
08EB4:  CLRF   34
....................             Op2=OFF; 
08EB6:  MOVLB  0
08EB8:  BCF    xA2.1
08EBA:  MOVLB  2
....................             //BorraBuffer(); 
....................          } 
....................           
....................       } 
....................          if(RIGHT && LEFT){ 
08EBC:  BSF    F93.2
08EBE:  BTFSC  F81.2
08EC0:  BRA    8F0E
08EC2:  BSF    F93.3
08EC4:  BTFSC  F81.3
08EC6:  BRA    8F0E
....................             delay_ms(20); 
08EC8:  MOVLW  14
08ECA:  MOVLB  4
08ECC:  MOVWF  x54
08ECE:  MOVLB  0
08ED0:  CALL   1A84
....................             if(RIGHT && LEFT){ 
08ED4:  BSF    F93.2
08ED6:  BTFSC  F81.2
08ED8:  BRA    8F0C
08EDA:  BSF    F93.3
08EDC:  BTFSC  F81.3
08EDE:  BRA    8F0C
....................                printf("page Clave"); 
08EE0:  MOVLW  88
08EE2:  MOVWF  FF6
08EE4:  MOVLW  0A
08EE6:  MOVWF  FF7
08EE8:  MOVLW  00
08EEA:  MOVWF  FF8
08EEC:  CALL   38BE
....................                SendDataDisplay();  
08EF0:  CALL   38F0
....................                Op=OFF; 
08EF4:  BCF    xA2.0
....................                Op2=OFF; 
08EF6:  BCF    xA2.1
....................                MenuAnt=Menu; 
08EF8:  MOVFF  35E,35F
....................                TipoClave=1; 
08EFC:  MOVLW  01
08EFE:  MOVLB  2
08F00:  MOVWF  xDE
....................                RX_Buffer[3]=0x00; 
08F02:  CLRF   33
....................                RX_Buffer2[3]=0x00; 
08F04:  CLRF   3E
....................                Opcion=0; 
08F06:  MOVLB  3
08F08:  CLRF   x66
08F0A:  MOVLB  0
08F0C:  MOVLB  2
....................             } 
....................          } 
....................    } 
.................... //_--------------------------------------------------------------------------------------------------------------------------------------------------------        
....................  
.................... //_-------------------------------------------------------------------------------------------------------------------------------------------------------- 
....................     if(Menu==2){ //Menu de Tiempo Esterilizacion      
08F0E:  MOVLB  3
08F10:  MOVF   x5E,W
08F12:  SUBLW  02
08F14:  BTFSS  FD8.2
08F16:  BRA    9442
....................       printf("fecha.txt=\"T:%3.1fC Fecha:%02u/%02u/20%02u Hora: %02u:%02u:%02u\"",Temperatura,Dia,Mes,Year,Hora,Minuto,Segundo); 
08F18:  MOVLW  94
08F1A:  MOVWF  FF6
08F1C:  MOVLW  0A
08F1E:  MOVWF  FF7
08F20:  MOVLW  00
08F22:  MOVWF  FF8
08F24:  MOVLW  0D
08F26:  MOVLB  4
08F28:  MOVWF  x44
08F2A:  MOVLB  0
08F2C:  CALL   484A
08F30:  MOVLW  02
08F32:  MOVWF  FE9
08F34:  MOVFF  32B,447
08F38:  MOVFF  32A,446
08F3C:  MOVFF  329,445
08F40:  MOVFF  328,444
08F44:  MOVLW  01
08F46:  MOVLB  4
08F48:  MOVWF  x48
08F4A:  MOVLB  0
08F4C:  CALL   49EA
08F50:  MOVLW  A6
08F52:  MOVWF  FF6
08F54:  MOVLW  0A
08F56:  MOVWF  FF7
08F58:  MOVLW  00
08F5A:  MOVWF  FF8
08F5C:  MOVLW  09
08F5E:  MOVLB  4
08F60:  MOVWF  x44
08F62:  MOVLB  0
08F64:  CALL   484A
08F68:  MOVFF  3A0,444
08F6C:  MOVLW  01
08F6E:  MOVLB  4
08F70:  MOVWF  x45
08F72:  MOVLB  0
08F74:  CALL   48A8
08F78:  MOVLW  2F
08F7A:  BTFSS  F9E.4
08F7C:  BRA    8F7A
08F7E:  MOVWF  FAD
08F80:  MOVFF  39F,444
08F84:  MOVLW  01
08F86:  MOVLB  4
08F88:  MOVWF  x45
08F8A:  MOVLB  0
08F8C:  CALL   48A8
08F90:  MOVLW  2F
08F92:  BTFSS  F9E.4
08F94:  BRA    8F92
08F96:  MOVWF  FAD
08F98:  MOVLW  32
08F9A:  BTFSS  F9E.4
08F9C:  BRA    8F9A
08F9E:  MOVWF  FAD
08FA0:  MOVLW  30
08FA2:  BTFSS  F9E.4
08FA4:  BRA    8FA2
08FA6:  MOVWF  FAD
08FA8:  MOVFF  39E,444
08FAC:  MOVLW  01
08FAE:  MOVLB  4
08FB0:  MOVWF  x45
08FB2:  MOVLB  0
08FB4:  CALL   48A8
08FB8:  MOVLW  BF
08FBA:  MOVWF  FF6
08FBC:  MOVLW  0A
08FBE:  MOVWF  FF7
08FC0:  MOVLW  00
08FC2:  MOVWF  FF8
08FC4:  MOVLW  07
08FC6:  MOVLB  4
08FC8:  MOVWF  x44
08FCA:  MOVLB  0
08FCC:  CALL   484A
08FD0:  MOVFF  3A1,444
08FD4:  MOVLW  01
08FD6:  MOVLB  4
08FD8:  MOVWF  x45
08FDA:  MOVLB  0
08FDC:  CALL   48A8
08FE0:  MOVLW  3A
08FE2:  BTFSS  F9E.4
08FE4:  BRA    8FE2
08FE6:  MOVWF  FAD
08FE8:  MOVFF  3A2,444
08FEC:  MOVLW  01
08FEE:  MOVLB  4
08FF0:  MOVWF  x45
08FF2:  MOVLB  0
08FF4:  CALL   48A8
08FF8:  MOVLW  3A
08FFA:  BTFSS  F9E.4
08FFC:  BRA    8FFA
08FFE:  MOVWF  FAD
09000:  MOVFF  3A3,444
09004:  MOVLW  01
09006:  MOVLB  4
09008:  MOVWF  x45
0900A:  MOVLB  0
0900C:  CALL   48A8
09010:  MOVLW  22
09012:  BTFSS  F9E.4
09014:  BRA    9012
09016:  MOVWF  FAD
....................       SendDataDisplay(); 
09018:  CALL   38F0
....................          if(RX_Buffer[4]==0x0a){//Selecciono Minutos 
0901C:  MOVF   34,W
0901E:  SUBLW  0A
09020:  BNZ   9026
....................             Minutos=ON; 
09022:  BSF    xA2.2
....................             Segundos=OFF; 
09024:  BCF    xA2.3
....................          } 
....................           
....................          if(RX_Buffer[4]==0x0b){//Selecciono Segundos 
09026:  MOVF   34,W
09028:  SUBLW  0B
0902A:  BNZ   9030
....................             Segundos=ON; 
0902C:  BSF    xA2.3
....................             Minutos=OFF; 
0902E:  BCF    xA2.2
....................          }            
....................           
....................          if(RX_Buffer[4]==0x11 || LEFT){//Selecciono Regresar 
09030:  MOVF   34,W
09032:  SUBLW  11
09034:  BZ    903C
09036:  BSF    F93.3
09038:  BTFSC  F81.3
0903A:  BRA    91C6
....................             delay_ms(100); 
0903C:  MOVLW  64
0903E:  MOVLB  4
09040:  MOVWF  x54
09042:  MOVLB  0
09044:  CALL   1A84
....................             if(RX_Buffer[4]==0x11 || LEFT){ 
09048:  MOVF   34,W
0904A:  SUBLW  11
0904C:  BZ    9054
0904E:  BSF    F93.3
09050:  BTFSC  F81.3
09052:  BRA    91C6
....................                Segundos=OFF; 
09054:  BCF    xA2.3
....................                Minutos=OFF; 
09056:  BCF    xA2.2
....................                printf("page CicloPersona"); 
09058:  MOVLW  D6
0905A:  MOVWF  FF6
0905C:  MOVLW  0A
0905E:  MOVWF  FF7
09060:  MOVLW  00
09062:  MOVWF  FF8
09064:  CALL   38BE
....................                SendDataDisplay();   
09068:  CALL   38F0
....................                PantallaPrincipal=1; 
0906C:  MOVLW  01
0906E:  MOVLB  2
09070:  MOVWF  xDD
....................                Op=OFF; 
09072:  MOVLB  0
09074:  BCF    xA2.0
....................                Op2=OFF; 
09076:  BCF    xA2.1
....................                if(!GuardaEEPROM){ 
09078:  BTFSC  xA2.4
0907A:  BRA    91C6
....................                   CiclosPersonalizados[CicloLibre-1].Minutoest=Testerilizacionp[2]+(Testerilizacionp[3]*10); 
0907C:  MOVLW  01
0907E:  MOVLB  3
09080:  SUBWF  x3E,W
09082:  MULLW  0A
09084:  MOVF   FF3,W
09086:  MOVLB  4
09088:  CLRF   x40
0908A:  MOVWF  x3F
0908C:  MOVLW  09
0908E:  ADDWF  x3F,W
09090:  MOVWF  01
09092:  MOVLW  00
09094:  ADDWFC x40,W
09096:  MOVWF  03
09098:  MOVF   01,W
0909A:  ADDLW  17
0909C:  MOVWF  FE9
0909E:  MOVLW  04
090A0:  ADDWFC 03,W
090A2:  MOVWF  FEA
090A4:  MOVFF  B9,441
090A8:  MOVLW  0A
090AA:  MOVWF  x42
090AC:  MOVLB  0
090AE:  CALL   2E02
090B2:  MOVF   01,W
090B4:  ADDWF  xB8,W
090B6:  MOVWF  FEF
....................                   CiclosPersonalizados[CicloLibre-1].Segundoest=Testerilizacionp[0]+(Testerilizacionp[1]*10); 
090B8:  MOVLW  01
090BA:  MOVLB  3
090BC:  SUBWF  x3E,W
090BE:  MULLW  0A
090C0:  MOVF   FF3,W
090C2:  MOVLB  4
090C4:  CLRF   x40
090C6:  MOVWF  x3F
090C8:  MOVLW  03
090CA:  ADDWF  x3F,W
090CC:  MOVWF  01
090CE:  MOVLW  00
090D0:  ADDWFC x40,W
090D2:  MOVWF  03
090D4:  MOVF   01,W
090D6:  ADDLW  17
090D8:  MOVWF  FE9
090DA:  MOVLW  04
090DC:  ADDWFC 03,W
090DE:  MOVWF  FEA
090E0:  MOVFF  B7,441
090E4:  MOVLW  0A
090E6:  MOVWF  x42
090E8:  MOVLB  0
090EA:  CALL   2E02
090EE:  MOVF   01,W
090F0:  ADDWF  xB6,W
090F2:  MOVWF  FEF
....................                   write_eeprom(102+((CicloLibre-1)*8),Testerilizacionp[2]+(Testerilizacionp[3]*10)); 
090F4:  MOVLW  01
090F6:  MOVLB  3
090F8:  SUBWF  x3E,W
090FA:  MULLW  08
090FC:  MOVF   FF3,W
090FE:  ADDLW  66
09100:  MOVLB  4
09102:  MOVWF  x3F
09104:  MOVFF  B9,441
09108:  MOVLW  0A
0910A:  MOVWF  x42
0910C:  MOVLB  0
0910E:  CALL   2E02
09112:  MOVF   01,W
09114:  ADDWF  xB8,W
09116:  MOVLB  4
09118:  MOVWF  x40
0911A:  CLRF   FAA
0911C:  MOVFF  43F,FA9
09120:  MOVFF  440,FA8
09124:  BCF    FA6.6
09126:  BCF    FA6.7
09128:  BSF    FA6.2
0912A:  MOVF   FF2,W
0912C:  MOVWF  00
0912E:  BCF    FF2.6
09130:  BCF    FF2.7
09132:  MOVLB  F
09134:  MOVLW  55
09136:  MOVWF  FA7
09138:  MOVLW  AA
0913A:  MOVWF  FA7
0913C:  BSF    FA6.1
0913E:  BTFSC  FA6.1
09140:  BRA    913E
09142:  BCF    FA6.2
09144:  MOVF   00,W
09146:  IORWF  FF2,F
....................                   delay_ms(10); 
09148:  MOVLW  0A
0914A:  MOVLB  4
0914C:  MOVWF  x54
0914E:  MOVLB  0
09150:  CALL   1A84
....................                   write_eeprom(103+((CicloLibre-1)*8),Testerilizacionp[0]+(Testerilizacionp[1]*10)); 
09154:  MOVLW  01
09156:  MOVLB  3
09158:  SUBWF  x3E,W
0915A:  MULLW  08
0915C:  MOVF   FF3,W
0915E:  ADDLW  67
09160:  MOVLB  4
09162:  MOVWF  x3F
09164:  MOVFF  B7,441
09168:  MOVLW  0A
0916A:  MOVWF  x42
0916C:  MOVLB  0
0916E:  CALL   2E02
09172:  MOVF   01,W
09174:  ADDWF  xB6,W
09176:  MOVLB  4
09178:  MOVWF  x40
0917A:  CLRF   FAA
0917C:  MOVFF  43F,FA9
09180:  MOVFF  440,FA8
09184:  BCF    FA6.6
09186:  BCF    FA6.7
09188:  BSF    FA6.2
0918A:  MOVF   FF2,W
0918C:  MOVWF  00
0918E:  BCF    FF2.6
09190:  BCF    FF2.7
09192:  MOVLB  F
09194:  MOVLW  55
09196:  MOVWF  FA7
09198:  MOVLW  AA
0919A:  MOVWF  FA7
0919C:  BSF    FA6.1
0919E:  BTFSC  FA6.1
091A0:  BRA    919E
091A2:  BCF    FA6.2
091A4:  MOVF   00,W
091A6:  IORWF  FF2,F
....................                   delay_ms(10); 
091A8:  MOVLW  0A
091AA:  MOVLB  4
091AC:  MOVWF  x54
091AE:  MOVLB  0
091B0:  CALL   1A84
....................                   Testerilizacion[0]=Testerilizacionp[0]; 
091B4:  MOVFF  B6,B1
....................                   Testerilizacion[1]=Testerilizacionp[1]; 
091B8:  MOVFF  B7,B2
....................                   Testerilizacion[2]=Testerilizacionp[2]; 
091BC:  MOVFF  B8,B3
....................                   Testerilizacion[3]=Testerilizacionp[3];                   
091C0:  MOVFF  B9,B4
....................                   GuardaEEPROM=ON; 
091C4:  BSF    xA2.4
....................                } 
....................             } 
....................          } 
....................           
....................          if(RIGHT){ 
091C6:  BSF    F93.2
091C8:  BTFSC  F81.2
091CA:  BRA    9240
....................             delay_ms(100); 
091CC:  MOVLW  64
091CE:  MOVLB  4
091D0:  MOVWF  x54
091D2:  MOVLB  0
091D4:  CALL   1A84
....................             if(RIGHT){ 
091D8:  BSF    F93.2
091DA:  BTFSC  F81.2
091DC:  BRA    9240
....................                if(!Segundos){ 
091DE:  BTFSC  xA2.3
091E0:  BRA    9210
....................                   Segundos=ON; 
091E2:  BSF    xA2.3
....................                   Minutos=OFF; 
091E4:  BCF    xA2.2
....................                   printf("tsecest.pco=65535"); 
091E6:  MOVLW  E8
091E8:  MOVWF  FF6
091EA:  MOVLW  0A
091EC:  MOVWF  FF7
091EE:  MOVLW  00
091F0:  MOVWF  FF8
091F2:  CALL   38BE
....................                   SendDataDisplay();   
091F6:  CALL   38F0
....................                   printf("tminest.pco=0"); 
091FA:  MOVLW  FA
091FC:  MOVWF  FF6
091FE:  MOVLW  0A
09200:  MOVWF  FF7
09202:  MOVLW  00
09204:  MOVWF  FF8
09206:  CALL   38BE
....................                   SendDataDisplay();   
0920A:  CALL   38F0
....................                }else if(!Minutos){ 
0920E:  BRA    9240
09210:  BTFSC  xA2.2
09212:  BRA    9240
....................                   Segundos=OFF; 
09214:  BCF    xA2.3
....................                   Minutos=ON; 
09216:  BSF    xA2.2
....................                   printf("tsecest.pco=0"); 
09218:  MOVLW  08
0921A:  MOVWF  FF6
0921C:  MOVLW  0B
0921E:  MOVWF  FF7
09220:  MOVLW  00
09222:  MOVWF  FF8
09224:  CALL   38BE
....................                   SendDataDisplay();   
09228:  CALL   38F0
....................                   printf("tminest.pco=65535"); 
0922C:  MOVLW  16
0922E:  MOVWF  FF6
09230:  MOVLW  0B
09232:  MOVWF  FF7
09234:  MOVLW  00
09236:  MOVWF  FF8
09238:  CALL   38BE
....................                   SendDataDisplay();   
0923C:  CALL   38F0
....................                } 
....................             } 
....................          } 
....................           
....................          if(UP){ 
09240:  BSF    F93.0
09242:  BTFSC  F81.0
09244:  BRA    928C
....................             delay_ms(100); 
09246:  MOVLW  64
09248:  MOVLB  4
0924A:  MOVWF  x54
0924C:  MOVLB  0
0924E:  CALL   1A84
....................             if(UP){ 
09252:  BSF    F93.0
09254:  BTFSC  F81.0
09256:  BRA    928C
....................                if(Segundos){ 
09258:  BTFSS  xA2.3
0925A:  BRA    926C
....................                   Testerilizacionp[0]++; 
0925C:  INCF   xB6,F
....................                   if(Testerilizacionp[0]>9){ 
0925E:  BTFSC  xB6.7
09260:  BRA    926C
09262:  MOVF   xB6,W
09264:  SUBLW  09
09266:  BC    926C
....................                      Testerilizacionp[1]++; 
09268:  INCF   xB7,F
....................                      Testerilizacionp[0]=0; 
0926A:  CLRF   xB6
....................                   } 
....................                } 
....................                if(Minutos){ 
0926C:  BTFSS  xA2.2
0926E:  BRA    928C
....................                   Testerilizacionp[2]++; 
09270:  INCF   xB8,F
....................                   if(Testerilizacionp[2]>9){ 
09272:  BTFSC  xB8.7
09274:  BRA    9280
09276:  MOVF   xB8,W
09278:  SUBLW  09
0927A:  BC    9280
....................                      Testerilizacionp[3]++; 
0927C:  INCF   xB9,F
....................                      Testerilizacionp[2]=0; 
0927E:  CLRF   xB8
....................                   } 
....................                   if(Testerilizacionp[3]>9){                      
09280:  BTFSC  xB9.7
09282:  BRA    928C
09284:  MOVF   xB9,W
09286:  SUBLW  09
09288:  BC    928C
....................                      Testerilizacionp[3]=0; 
0928A:  CLRF   xB9
....................                   } 
....................                }     
....................             } 
....................          } 
....................           
....................          if(DOWN){ 
0928C:  BSF    F93.1
0928E:  BTFSC  F81.1
09290:  BRA    92D2
....................             delay_ms(100); 
09292:  MOVLW  64
09294:  MOVLB  4
09296:  MOVWF  x54
09298:  MOVLB  0
0929A:  CALL   1A84
....................             if(DOWN){ 
0929E:  BSF    F93.1
092A0:  BTFSC  F81.1
092A2:  BRA    92D2
....................                if(Segundos){ 
092A4:  BTFSS  xA2.3
092A6:  BRA    92B6
....................                   Testerilizacionp[0]--; 
092A8:  DECF   xB6,F
....................                   if(Testerilizacionp[0]<0){ 
092AA:  BTFSC  xB6.7
092AC:  BRA    92B0
092AE:  BRA    92B6
....................                      Testerilizacionp[1]--; 
092B0:  DECF   xB7,F
....................                      Testerilizacionp[0]=9; 
092B2:  MOVLW  09
092B4:  MOVWF  xB6
....................                   } 
....................                } 
....................                if(Minutos){ 
092B6:  BTFSS  xA2.2
092B8:  BRA    92D2
....................                   Testerilizacionp[2]--; 
092BA:  DECF   xB8,F
....................                   if(Testerilizacionp[2]<0){ 
092BC:  BTFSC  xB8.7
092BE:  BRA    92C2
092C0:  BRA    92C8
....................                      Testerilizacionp[3]--; 
092C2:  DECF   xB9,F
....................                      Testerilizacionp[2]=9; 
092C4:  MOVLW  09
092C6:  MOVWF  xB8
....................                   } 
....................                   if(Testerilizacionp[3]<0){ 
092C8:  BTFSC  xB9.7
092CA:  BRA    92CE
092CC:  BRA    92D2
....................                      Testerilizacionp[3]=9; 
092CE:  MOVLW  09
092D0:  MOVWF  xB9
....................                   } 
....................                }     
....................             } 
....................          } 
....................           
....................          if(RX_Buffer[4]==0x0c || RX_Buffer[4]==0x0d){//Tecla Derecha Oprimida 
092D2:  MOVF   34,W
092D4:  SUBLW  0C
092D6:  BZ    92DE
092D8:  MOVF   34,W
092DA:  SUBLW  0D
092DC:  BNZ   9316
....................             if(Segundos){ 
092DE:  BTFSS  xA2.3
092E0:  BRA    92F2
....................                Testerilizacionp[0]++; 
092E2:  INCF   xB6,F
....................                if(Testerilizacionp[0]>9){ 
092E4:  BTFSC  xB6.7
092E6:  BRA    92F2
092E8:  MOVF   xB6,W
092EA:  SUBLW  09
092EC:  BC    92F2
....................                   Testerilizacionp[1]++; 
092EE:  INCF   xB7,F
....................                   Testerilizacionp[0]=0; 
092F0:  CLRF   xB6
....................                } 
....................             } 
....................             if(Minutos){ 
092F2:  BTFSS  xA2.2
092F4:  BRA    9312
....................                Testerilizacionp[2]++; 
092F6:  INCF   xB8,F
....................                if(Testerilizacionp[2]>9){ 
092F8:  BTFSC  xB8.7
092FA:  BRA    9306
092FC:  MOVF   xB8,W
092FE:  SUBLW  09
09300:  BC    9306
....................                   Testerilizacionp[3]++; 
09302:  INCF   xB9,F
....................                   Testerilizacionp[2]=0; 
09304:  CLRF   xB8
....................                } 
....................                if(Testerilizacionp[3]>9){                   
09306:  BTFSC  xB9.7
09308:  BRA    9312
0930A:  MOVF   xB9,W
0930C:  SUBLW  09
0930E:  BC    9312
....................                   Testerilizacionp[3]=0; 
09310:  CLRF   xB9
....................                } 
....................             } 
....................             RX_Buffer[4]=0x00;   
09312:  CLRF   34
....................             RX_Buffer2[4]=0x00; 
09314:  CLRF   3F
....................          } 
....................           
....................          if(RX_Buffer[4]==0x0f || RX_Buffer[4]==0x0e){//Tecla Izquierda Oprimida 
09316:  MOVF   34,W
09318:  SUBLW  0F
0931A:  BZ    9322
0931C:  MOVF   34,W
0931E:  SUBLW  0E
09320:  BNZ   9354
....................              
....................             if(Segundos){ 
09322:  BTFSS  xA2.3
09324:  BRA    9334
....................                Testerilizacionp[0]--; 
09326:  DECF   xB6,F
....................                if(Testerilizacionp[0]<0){ 
09328:  BTFSC  xB6.7
0932A:  BRA    932E
0932C:  BRA    9334
....................                   Testerilizacionp[1]--; 
0932E:  DECF   xB7,F
....................                   Testerilizacionp[0]=9; 
09330:  MOVLW  09
09332:  MOVWF  xB6
....................                } 
....................             } 
....................             if(Minutos){ 
09334:  BTFSS  xA2.2
09336:  BRA    9350
....................                Testerilizacionp[2]--; 
09338:  DECF   xB8,F
....................                if(Testerilizacionp[2]<0){ 
0933A:  BTFSC  xB8.7
0933C:  BRA    9340
0933E:  BRA    9346
....................                   Testerilizacionp[3]--; 
09340:  DECF   xB9,F
....................                   Testerilizacionp[2]=9; 
09342:  MOVLW  09
09344:  MOVWF  xB8
....................                } 
....................                if(Testerilizacionp[3]<0){ 
09346:  BTFSC  xB9.7
09348:  BRA    934C
0934A:  BRA    9350
....................                   Testerilizacionp[3]=9; 
0934C:  MOVLW  09
0934E:  MOVWF  xB9
....................                } 
....................             } 
....................             RX_Buffer[4]=0x00;   
09350:  CLRF   34
....................             RX_Buffer2[4]=0x00; 
09352:  CLRF   3F
....................          } 
....................           
....................          if(Testerilizacionp[0]<0) 
09354:  BTFSC  xB6.7
09356:  BRA    935A
09358:  BRA    935E
....................             Testerilizacionp[0]=9;             
0935A:  MOVLW  09
0935C:  MOVWF  xB6
....................          if(Testerilizacionp[1]<0) 
0935E:  BTFSC  xB7.7
09360:  BRA    9364
09362:  BRA    9368
....................             Testerilizacionp[1]=5;             
09364:  MOVLW  05
09366:  MOVWF  xB7
....................          if(Testerilizacionp[2]<0) 
09368:  BTFSC  xB8.7
0936A:  BRA    936E
0936C:  BRA    9372
....................             Testerilizacionp[2]=9;             
0936E:  MOVLW  09
09370:  MOVWF  xB8
....................          if(Testerilizacionp[3]<0) 
09372:  BTFSC  xB9.7
09374:  BRA    9378
09376:  BRA    937C
....................             Testerilizacionp[3]=9;             
09378:  MOVLW  09
0937A:  MOVWF  xB9
....................           
....................          if(Testerilizacionp[0]>9) 
0937C:  BTFSC  xB6.7
0937E:  BRA    9388
09380:  MOVF   xB6,W
09382:  SUBLW  09
09384:  BC    9388
....................             Testerilizacionp[0]=0;             
09386:  CLRF   xB6
....................          if(Testerilizacionp[1]>5) 
09388:  BTFSC  xB7.7
0938A:  BRA    9394
0938C:  MOVF   xB7,W
0938E:  SUBLW  05
09390:  BC    9394
....................             Testerilizacionp[1]=0;             
09392:  CLRF   xB7
....................          if(Testerilizacionp[2]>9) 
09394:  BTFSC  xB8.7
09396:  BRA    93A0
09398:  MOVF   xB8,W
0939A:  SUBLW  09
0939C:  BC    93A0
....................             Testerilizacionp[2]=0;             
0939E:  CLRF   xB8
....................          if(Testerilizacionp[3]>9) 
093A0:  BTFSC  xB9.7
093A2:  BRA    93AC
093A4:  MOVF   xB9,W
093A6:  SUBLW  09
093A8:  BC    93AC
....................             Testerilizacionp[3]=0;  
093AA:  CLRF   xB9
....................              
....................          printf("tminest.txt=\"%02u\"",((Testerilizacionp[3]*10)+Testerilizacionp[2])); 
093AC:  MOVFF  B9,441
093B0:  MOVLW  0A
093B2:  MOVLB  4
093B4:  MOVWF  x42
093B6:  MOVLB  0
093B8:  CALL   2E02
093BC:  MOVF   xB8,W
093BE:  ADDWF  01,W
093C0:  MOVLB  4
093C2:  MOVWF  x3F
093C4:  MOVLW  28
093C6:  MOVWF  FF6
093C8:  MOVLW  0B
093CA:  MOVWF  FF7
093CC:  MOVLW  00
093CE:  MOVWF  FF8
093D0:  MOVLW  0D
093D2:  MOVWF  x44
093D4:  MOVLB  0
093D6:  CALL   484A
093DA:  MOVFF  43F,444
093DE:  MOVLW  01
093E0:  MOVLB  4
093E2:  MOVWF  x45
093E4:  MOVLB  0
093E6:  CALL   48A8
093EA:  MOVLW  22
093EC:  BTFSS  F9E.4
093EE:  BRA    93EC
093F0:  MOVWF  FAD
....................          SendDataDisplay(); 
093F2:  CALL   38F0
....................          printf("tsecest.txt=\"%02u\"",((Testerilizacionp[1]*10)+Testerilizacionp[0])); 
093F6:  MOVFF  B7,441
093FA:  MOVLW  0A
093FC:  MOVLB  4
093FE:  MOVWF  x42
09400:  MOVLB  0
09402:  CALL   2E02
09406:  MOVF   xB6,W
09408:  ADDWF  01,W
0940A:  MOVLB  4
0940C:  MOVWF  x3F
0940E:  MOVLW  3C
09410:  MOVWF  FF6
09412:  MOVLW  0B
09414:  MOVWF  FF7
09416:  MOVLW  00
09418:  MOVWF  FF8
0941A:  MOVLW  0D
0941C:  MOVWF  x44
0941E:  MOVLB  0
09420:  CALL   484A
09424:  MOVFF  43F,444
09428:  MOVLW  01
0942A:  MOVLB  4
0942C:  MOVWF  x45
0942E:  MOVLB  0
09430:  CALL   48A8
09434:  MOVLW  22
09436:  BTFSS  F9E.4
09438:  BRA    9436
0943A:  MOVWF  FAD
....................          SendDataDisplay(); 
0943C:  CALL   38F0
09440:  MOVLB  3
....................     } 
.................... //_--------------------------------------------------------------------------------------------------------------------------------------------------------        
....................  
.................... //_-------------------------------------------------------------------------------------------------------------------------------------------------------- 
....................     if(Menu==3){ //Menu de Tiempo de Secado 
09442:  MOVF   x5E,W
09444:  SUBLW  03
09446:  BTFSS  FD8.2
09448:  BRA    9944
....................       printf("fecha.txt=\"T:%3.1fC Fecha:%02u/%02u/20%02u Hora: %02u:%02u:%02u\"",Temperatura,Dia,Mes,Year,Hora,Minuto,Segundo); 
0944A:  MOVLW  50
0944C:  MOVWF  FF6
0944E:  MOVLW  0B
09450:  MOVWF  FF7
09452:  MOVLW  00
09454:  MOVWF  FF8
09456:  MOVLW  0D
09458:  MOVLB  4
0945A:  MOVWF  x44
0945C:  MOVLB  0
0945E:  CALL   484A
09462:  MOVLW  02
09464:  MOVWF  FE9
09466:  MOVFF  32B,447
0946A:  MOVFF  32A,446
0946E:  MOVFF  329,445
09472:  MOVFF  328,444
09476:  MOVLW  01
09478:  MOVLB  4
0947A:  MOVWF  x48
0947C:  MOVLB  0
0947E:  CALL   49EA
09482:  MOVLW  62
09484:  MOVWF  FF6
09486:  MOVLW  0B
09488:  MOVWF  FF7
0948A:  MOVLW  00
0948C:  MOVWF  FF8
0948E:  MOVLW  09
09490:  MOVLB  4
09492:  MOVWF  x44
09494:  MOVLB  0
09496:  CALL   484A
0949A:  MOVFF  3A0,444
0949E:  MOVLW  01
094A0:  MOVLB  4
094A2:  MOVWF  x45
094A4:  MOVLB  0
094A6:  CALL   48A8
094AA:  MOVLW  2F
094AC:  BTFSS  F9E.4
094AE:  BRA    94AC
094B0:  MOVWF  FAD
094B2:  MOVFF  39F,444
094B6:  MOVLW  01
094B8:  MOVLB  4
094BA:  MOVWF  x45
094BC:  MOVLB  0
094BE:  CALL   48A8
094C2:  MOVLW  2F
094C4:  BTFSS  F9E.4
094C6:  BRA    94C4
094C8:  MOVWF  FAD
094CA:  MOVLW  32
094CC:  BTFSS  F9E.4
094CE:  BRA    94CC
094D0:  MOVWF  FAD
094D2:  MOVLW  30
094D4:  BTFSS  F9E.4
094D6:  BRA    94D4
094D8:  MOVWF  FAD
094DA:  MOVFF  39E,444
094DE:  MOVLW  01
094E0:  MOVLB  4
094E2:  MOVWF  x45
094E4:  MOVLB  0
094E6:  CALL   48A8
094EA:  MOVLW  7B
094EC:  MOVWF  FF6
094EE:  MOVLW  0B
094F0:  MOVWF  FF7
094F2:  MOVLW  00
094F4:  MOVWF  FF8
094F6:  MOVLW  07
094F8:  MOVLB  4
094FA:  MOVWF  x44
094FC:  MOVLB  0
094FE:  CALL   484A
09502:  MOVFF  3A1,444
09506:  MOVLW  01
09508:  MOVLB  4
0950A:  MOVWF  x45
0950C:  MOVLB  0
0950E:  CALL   48A8
09512:  MOVLW  3A
09514:  BTFSS  F9E.4
09516:  BRA    9514
09518:  MOVWF  FAD
0951A:  MOVFF  3A2,444
0951E:  MOVLW  01
09520:  MOVLB  4
09522:  MOVWF  x45
09524:  MOVLB  0
09526:  CALL   48A8
0952A:  MOVLW  3A
0952C:  BTFSS  F9E.4
0952E:  BRA    952C
09530:  MOVWF  FAD
09532:  MOVFF  3A3,444
09536:  MOVLW  01
09538:  MOVLB  4
0953A:  MOVWF  x45
0953C:  MOVLB  0
0953E:  CALL   48A8
09542:  MOVLW  22
09544:  BTFSS  F9E.4
09546:  BRA    9544
09548:  MOVWF  FAD
....................       SendDataDisplay();             
0954A:  CALL   38F0
....................              
....................          if(RX_Buffer[4]==0x0a){//Selecciono Minutos 
0954E:  MOVF   34,W
09550:  SUBLW  0A
09552:  BNZ   9558
....................             Minutos=ON; 
09554:  BSF    xA2.2
....................             Segundos=OFF; 
09556:  BCF    xA2.3
....................          } 
....................           
....................          if(RX_Buffer[4]==0x0b){//Selecciono Segundos 
09558:  MOVF   34,W
0955A:  SUBLW  0B
0955C:  BNZ   9562
....................             Segundos=ON; 
0955E:  BSF    xA2.3
....................             Minutos=OFF; 
09560:  BCF    xA2.2
....................          } 
....................           
....................          if(RX_Buffer[4]==0x11 || LEFT){//Selecciono Regresar 
09562:  MOVF   34,W
09564:  SUBLW  11
09566:  BZ    956E
09568:  BSF    F93.3
0956A:  BTFSC  F81.3
0956C:  BRA    96D8
....................             Segundos=OFF; 
0956E:  BCF    xA2.3
....................             Minutos=OFF; 
09570:  BCF    xA2.2
....................             printf("page CicloPersona"); 
09572:  MOVLW  92
09574:  MOVWF  FF6
09576:  MOVLW  0B
09578:  MOVWF  FF7
0957A:  MOVLW  00
0957C:  MOVWF  FF8
0957E:  CALL   38BE
....................             SendDataDisplay();   
09582:  CALL   38F0
....................             //PantallaPrincipal=1; 
....................             Op=OFF; 
09586:  BCF    xA2.0
....................             Op2=OFF; 
09588:  BCF    xA2.1
....................             if(!GuardaEEPROM){ 
0958A:  BTFSC  xA2.4
0958C:  BRA    96D8
....................                CiclosPersonalizados[CicloLibre-1].Minutosec=Tsecadop[2]+(Tsecadop[3]*10); 
0958E:  MOVLW  01
09590:  MOVLB  3
09592:  SUBWF  x3E,W
09594:  MULLW  0A
09596:  MOVF   FF3,W
09598:  MOVLB  4
0959A:  CLRF   x40
0959C:  MOVWF  x3F
0959E:  MOVLW  04
095A0:  ADDWF  x3F,W
095A2:  MOVWF  01
095A4:  MOVLW  00
095A6:  ADDWFC x40,W
095A8:  MOVWF  03
095AA:  MOVF   01,W
095AC:  ADDLW  17
095AE:  MOVWF  FE9
095B0:  MOVLW  04
095B2:  ADDWFC 03,W
095B4:  MOVWF  FEA
095B6:  MOVFF  C2,441
095BA:  MOVLW  0A
095BC:  MOVWF  x42
095BE:  MOVLB  0
095C0:  CALL   2E02
095C4:  MOVF   01,W
095C6:  ADDWF  xC1,W
095C8:  MOVWF  FEF
....................                CiclosPersonalizados[CicloLibre-1].Segundosec=Tsecadop[0]+(Tsecadop[1]*10); 
095CA:  MOVLW  01
095CC:  MOVLB  3
095CE:  SUBWF  x3E,W
095D0:  MULLW  0A
095D2:  MOVF   FF3,W
095D4:  MOVLB  4
095D6:  CLRF   x40
095D8:  MOVWF  x3F
095DA:  MOVLW  05
095DC:  ADDWF  x3F,W
095DE:  MOVWF  01
095E0:  MOVLW  00
095E2:  ADDWFC x40,W
095E4:  MOVWF  03
095E6:  MOVF   01,W
095E8:  ADDLW  17
095EA:  MOVWF  FE9
095EC:  MOVLW  04
095EE:  ADDWFC 03,W
095F0:  MOVWF  FEA
095F2:  MOVFF  C0,441
095F6:  MOVLW  0A
095F8:  MOVWF  x42
095FA:  MOVLB  0
095FC:  CALL   2E02
09600:  MOVF   01,W
09602:  ADDWF  xBF,W
09604:  MOVWF  FEF
....................                write_eeprom(104+((CicloLibre-1)*8),Tsecadop[2]+(Tsecadop[3]*10)); 
09606:  MOVLW  01
09608:  MOVLB  3
0960A:  SUBWF  x3E,W
0960C:  MULLW  08
0960E:  MOVF   FF3,W
09610:  ADDLW  68
09612:  MOVLB  4
09614:  MOVWF  x3F
09616:  MOVFF  C2,441
0961A:  MOVLW  0A
0961C:  MOVWF  x42
0961E:  MOVLB  0
09620:  CALL   2E02
09624:  MOVF   01,W
09626:  ADDWF  xC1,W
09628:  MOVLB  4
0962A:  MOVWF  x40
0962C:  CLRF   FAA
0962E:  MOVFF  43F,FA9
09632:  MOVFF  440,FA8
09636:  BCF    FA6.6
09638:  BCF    FA6.7
0963A:  BSF    FA6.2
0963C:  MOVF   FF2,W
0963E:  MOVWF  00
09640:  BCF    FF2.6
09642:  BCF    FF2.7
09644:  MOVLB  F
09646:  MOVLW  55
09648:  MOVWF  FA7
0964A:  MOVLW  AA
0964C:  MOVWF  FA7
0964E:  BSF    FA6.1
09650:  BTFSC  FA6.1
09652:  BRA    9650
09654:  BCF    FA6.2
09656:  MOVF   00,W
09658:  IORWF  FF2,F
....................                delay_ms(10); 
0965A:  MOVLW  0A
0965C:  MOVLB  4
0965E:  MOVWF  x54
09660:  MOVLB  0
09662:  CALL   1A84
....................                write_eeprom(105+((CicloLibre-1)*8),Tsecadop[0]+(Tsecadop[1]*10)); 
09666:  MOVLW  01
09668:  MOVLB  3
0966A:  SUBWF  x3E,W
0966C:  MULLW  08
0966E:  MOVF   FF3,W
09670:  ADDLW  69
09672:  MOVLB  4
09674:  MOVWF  x3F
09676:  MOVFF  C0,441
0967A:  MOVLW  0A
0967C:  MOVWF  x42
0967E:  MOVLB  0
09680:  CALL   2E02
09684:  MOVF   01,W
09686:  ADDWF  xBF,W
09688:  MOVLB  4
0968A:  MOVWF  x40
0968C:  CLRF   FAA
0968E:  MOVFF  43F,FA9
09692:  MOVFF  440,FA8
09696:  BCF    FA6.6
09698:  BCF    FA6.7
0969A:  BSF    FA6.2
0969C:  MOVF   FF2,W
0969E:  MOVWF  00
096A0:  BCF    FF2.6
096A2:  BCF    FF2.7
096A4:  MOVLB  F
096A6:  MOVLW  55
096A8:  MOVWF  FA7
096AA:  MOVLW  AA
096AC:  MOVWF  FA7
096AE:  BSF    FA6.1
096B0:  BTFSC  FA6.1
096B2:  BRA    96B0
096B4:  BCF    FA6.2
096B6:  MOVF   00,W
096B8:  IORWF  FF2,F
....................                delay_ms(10); 
096BA:  MOVLW  0A
096BC:  MOVLB  4
096BE:  MOVWF  x54
096C0:  MOVLB  0
096C2:  CALL   1A84
....................                Tsecado[0]=Tsecadop[0]; 
096C6:  MOVFF  BF,BB
....................                Tsecado[1]=Tsecadop[1]; 
096CA:  MOVFF  C0,BC
....................                Tsecado[2]=Tsecadop[2]; 
096CE:  MOVFF  C1,BD
....................                Tsecado[3]=Tsecadop[3]; 
096D2:  MOVFF  C2,BE
....................                GuardaEEPROM=ON; 
096D6:  BSF    xA2.4
....................             } 
....................          } 
....................           
....................          if(RIGHT){ 
096D8:  BSF    F93.2
096DA:  BTFSC  F81.2
096DC:  BRA    9752
....................             delay_ms(100); 
096DE:  MOVLW  64
096E0:  MOVLB  4
096E2:  MOVWF  x54
096E4:  MOVLB  0
096E6:  CALL   1A84
....................             if(RIGHT){ 
096EA:  BSF    F93.2
096EC:  BTFSC  F81.2
096EE:  BRA    9752
....................                if(!Segundos){ 
096F0:  BTFSC  xA2.3
096F2:  BRA    9722
....................                   Segundos=ON; 
096F4:  BSF    xA2.3
....................                   Minutos=OFF; 
096F6:  BCF    xA2.2
....................                   printf("tminsec.pco=0"); 
096F8:  MOVLW  A4
096FA:  MOVWF  FF6
096FC:  MOVLW  0B
096FE:  MOVWF  FF7
09700:  MOVLW  00
09702:  MOVWF  FF8
09704:  CALL   38BE
....................                   SendDataDisplay();                    
09708:  CALL   38F0
....................                   printf("tsecsec.pco=65535"); 
0970C:  MOVLW  B2
0970E:  MOVWF  FF6
09710:  MOVLW  0B
09712:  MOVWF  FF7
09714:  MOVLW  00
09716:  MOVWF  FF8
09718:  CALL   38BE
....................                   SendDataDisplay();   
0971C:  CALL   38F0
....................                }else if(!Minutos){ 
09720:  BRA    9752
09722:  BTFSC  xA2.2
09724:  BRA    9752
....................                   Segundos=OFF; 
09726:  BCF    xA2.3
....................                   Minutos=ON; 
09728:  BSF    xA2.2
....................                   printf("tminsec.pco=65535"); 
0972A:  MOVLW  C4
0972C:  MOVWF  FF6
0972E:  MOVLW  0B
09730:  MOVWF  FF7
09732:  MOVLW  00
09734:  MOVWF  FF8
09736:  CALL   38BE
....................                   SendDataDisplay();   
0973A:  CALL   38F0
....................                   printf("tsecsec.pco=0"); 
0973E:  MOVLW  D6
09740:  MOVWF  FF6
09742:  MOVLW  0B
09744:  MOVWF  FF7
09746:  MOVLW  00
09748:  MOVWF  FF8
0974A:  CALL   38BE
....................                   SendDataDisplay();   
0974E:  CALL   38F0
....................                } 
....................             } 
....................          } 
....................           
....................          if(UP){ 
09752:  BSF    F93.0
09754:  BTFSC  F81.0
09756:  BRA    9792
....................             delay_ms(100); 
09758:  MOVLW  64
0975A:  MOVLB  4
0975C:  MOVWF  x54
0975E:  MOVLB  0
09760:  CALL   1A84
....................             if(UP){ 
09764:  BSF    F93.0
09766:  BTFSC  F81.0
09768:  BRA    9792
....................                if(Segundos){ 
0976A:  BTFSS  xA2.3
0976C:  BRA    977E
....................                   Tsecadop[0]++; 
0976E:  INCF   xBF,F
....................                   if(Tsecadop[0]>9){ 
09770:  BTFSC  xBF.7
09772:  BRA    977E
09774:  MOVF   xBF,W
09776:  SUBLW  09
09778:  BC    977E
....................                      Tsecadop[1]++; 
0977A:  INCF   xC0,F
....................                      Tsecadop[0]=0; 
0977C:  CLRF   xBF
....................                   } 
....................                } 
....................                if(Minutos){ 
0977E:  BTFSS  xA2.2
09780:  BRA    9792
....................                   Tsecado[2]++; 
09782:  INCF   xBD,F
....................                   if(Tsecadop[2]>9){ 
09784:  BTFSC  xC1.7
09786:  BRA    9792
09788:  MOVF   xC1,W
0978A:  SUBLW  09
0978C:  BC    9792
....................                      Tsecadop[3]++; 
0978E:  INCF   xC2,F
....................                      Tsecadop[2]=0; 
09790:  CLRF   xC1
....................                   } 
....................                }   
....................             } 
....................          } 
....................           
....................          if(DOWN){ 
09792:  BSF    F93.1
09794:  BTFSC  F81.1
09796:  BRA    97DC
....................             delay_ms(100); 
09798:  MOVLW  64
0979A:  MOVLB  4
0979C:  MOVWF  x54
0979E:  MOVLB  0
097A0:  CALL   1A84
....................             if(DOWN){ 
097A4:  BSF    F93.1
097A6:  BTFSC  F81.1
097A8:  BRA    97DC
....................                if(Segundos){ 
097AA:  BTFSS  xA2.3
097AC:  BRA    97CA
....................                   Tsecadop[0]--; 
097AE:  DECF   xBF,F
....................                   if(Tsecadop[0]<0){ 
097B0:  BTFSC  xBF.7
097B2:  BRA    97B6
097B4:  BRA    97BC
....................                      Tsecadop[1]--; 
097B6:  DECF   xC0,F
....................                      Tsecadop[0]=9; 
097B8:  MOVLW  09
097BA:  MOVWF  xBF
....................                   } 
....................                   if(Tsecadop[1]<0){ 
097BC:  BTFSC  xC0.7
097BE:  BRA    97C2
097C0:  BRA    97CA
....................                      Tsecadop[1]=5; 
097C2:  MOVLW  05
097C4:  MOVWF  xC0
....................                      Tsecadop[0]=9; 
097C6:  MOVLW  09
097C8:  MOVWF  xBF
....................                   } 
....................                } 
....................                if(Minutos){ 
097CA:  BTFSS  xA2.2
097CC:  BRA    97DC
....................                   Tsecadop[2]--; 
097CE:  DECF   xC1,F
....................                   if(Tsecadop[2]<0){ 
097D0:  BTFSC  xC1.7
097D2:  BRA    97D6
097D4:  BRA    97DC
....................                      Tsecadop[3]--; 
097D6:  DECF   xC2,F
....................                      Tsecadop[2]=9; 
097D8:  MOVLW  09
097DA:  MOVWF  xC1
....................                   } 
....................                }   
....................             } 
....................          } 
....................           
....................          if(RX_Buffer[4]==0x0c || RX_Buffer[4]==0x0d){//Tecla Derecha Oprimida 
097DC:  MOVF   34,W
097DE:  SUBLW  0C
097E0:  BZ    97E8
097E2:  MOVF   34,W
097E4:  SUBLW  0D
097E6:  BNZ   9814
....................             if(Segundos){ 
097E8:  BTFSS  xA2.3
097EA:  BRA    97FC
....................                Tsecadop[0]++; 
097EC:  INCF   xBF,F
....................                if(Tsecadop[0]>9){ 
097EE:  BTFSC  xBF.7
097F0:  BRA    97FC
097F2:  MOVF   xBF,W
097F4:  SUBLW  09
097F6:  BC    97FC
....................                   Tsecadop[1]++; 
097F8:  INCF   xC0,F
....................                   Tsecadop[0]=0; 
097FA:  CLRF   xBF
....................                } 
....................             } 
....................             if(Minutos){ 
097FC:  BTFSS  xA2.2
097FE:  BRA    9810
....................                Tsecadop[2]++; 
09800:  INCF   xC1,F
....................                if(Tsecadop[2]>9){ 
09802:  BTFSC  xC1.7
09804:  BRA    9810
09806:  MOVF   xC1,W
09808:  SUBLW  09
0980A:  BC    9810
....................                   Tsecadop[3]++; 
0980C:  INCF   xC2,F
....................                   Tsecadop[2]=0; 
0980E:  CLRF   xC1
....................                } 
....................             } 
....................             RX_Buffer[4]=0x00;   
09810:  CLRF   34
....................             RX_Buffer2[4]=0x00;  
09812:  CLRF   3F
....................          } 
....................           
....................          if(RX_Buffer[4]==0x0f || RX_Buffer[4]==0x0e){//Tecla Izquierda Oprimida 
09814:  MOVF   34,W
09816:  SUBLW  0F
09818:  BZ    9820
0981A:  MOVF   34,W
0981C:  SUBLW  0E
0981E:  BNZ   9856
....................             if(Segundos){ 
09820:  BTFSS  xA2.3
09822:  BRA    9840
....................                Tsecadop[0]--; 
09824:  DECF   xBF,F
....................                if(Tsecadop[0]<0){ 
09826:  BTFSC  xBF.7
09828:  BRA    982C
0982A:  BRA    9832
....................                   Tsecadop[1]--; 
0982C:  DECF   xC0,F
....................                   Tsecadop[0]=9; 
0982E:  MOVLW  09
09830:  MOVWF  xBF
....................                } 
....................                if(Tsecadop[1]<0){ 
09832:  BTFSC  xC0.7
09834:  BRA    9838
09836:  BRA    9840
....................                   Tsecadop[1]=5; 
09838:  MOVLW  05
0983A:  MOVWF  xC0
....................                   Tsecadop[0]=9; 
0983C:  MOVLW  09
0983E:  MOVWF  xBF
....................                } 
....................             } 
....................             if(Minutos){ 
09840:  BTFSS  xA2.2
09842:  BRA    9852
....................                Tsecadop[2]--; 
09844:  DECF   xC1,F
....................                if(Tsecadop[2]<0){ 
09846:  BTFSC  xC1.7
09848:  BRA    984C
0984A:  BRA    9852
....................                   Tsecadop[3]--; 
0984C:  DECF   xC2,F
....................                   Tsecadop[2]=9; 
0984E:  MOVLW  09
09850:  MOVWF  xC1
....................                } 
....................             } 
....................             RX_Buffer[4]=0x00;   
09852:  CLRF   34
....................             RX_Buffer2[4]=0x00;             
09854:  CLRF   3F
....................          } 
....................        
....................          if(Tsecadop[0]<0) 
09856:  BTFSC  xBF.7
09858:  BRA    985C
0985A:  BRA    9860
....................             Tsecadop[0]=9;             
0985C:  MOVLW  09
0985E:  MOVWF  xBF
....................          if(Tsecadop[1]<0) 
09860:  BTFSC  xC0.7
09862:  BRA    9866
09864:  BRA    986A
....................             Tsecadop[1]=5;             
09866:  MOVLW  05
09868:  MOVWF  xC0
....................          if(Tsecadop[2]<0) 
0986A:  BTFSC  xC1.7
0986C:  BRA    9870
0986E:  BRA    9874
....................             Tsecadop[2]=9;             
09870:  MOVLW  09
09872:  MOVWF  xC1
....................          if(Tsecadop[3]<0) 
09874:  BTFSC  xC2.7
09876:  BRA    987A
09878:  BRA    987E
....................             Tsecadop[3]=9;             
0987A:  MOVLW  09
0987C:  MOVWF  xC2
....................           
....................          if(Tsecadop[0]>9) 
0987E:  BTFSC  xBF.7
09880:  BRA    988A
09882:  MOVF   xBF,W
09884:  SUBLW  09
09886:  BC    988A
....................             Tsecadop[0]=0;             
09888:  CLRF   xBF
....................          if(Tsecadop[1]>5) 
0988A:  BTFSC  xC0.7
0988C:  BRA    9896
0988E:  MOVF   xC0,W
09890:  SUBLW  05
09892:  BC    9896
....................             Tsecadop[1]=0;             
09894:  CLRF   xC0
....................          if(Tsecadop[2]>9) 
09896:  BTFSC  xC1.7
09898:  BRA    98A2
0989A:  MOVF   xC1,W
0989C:  SUBLW  09
0989E:  BC    98A2
....................             Tsecadop[2]=0;             
098A0:  CLRF   xC1
....................          if(Tsecadop[3]>9) 
098A2:  BTFSC  xC2.7
098A4:  BRA    98AE
098A6:  MOVF   xC2,W
098A8:  SUBLW  09
098AA:  BC    98AE
....................             Tsecadop[3]=0; 
098AC:  CLRF   xC2
....................              
....................       printf("tminsec.txt=\"%02u\"",((Tsecadop[3]*10)+Tsecadop[2])); 
098AE:  MOVFF  C2,441
098B2:  MOVLW  0A
098B4:  MOVLB  4
098B6:  MOVWF  x42
098B8:  MOVLB  0
098BA:  CALL   2E02
098BE:  MOVF   xC1,W
098C0:  ADDWF  01,W
098C2:  MOVLB  4
098C4:  MOVWF  x3F
098C6:  MOVLW  E4
098C8:  MOVWF  FF6
098CA:  MOVLW  0B
098CC:  MOVWF  FF7
098CE:  MOVLW  00
098D0:  MOVWF  FF8
098D2:  MOVLW  0D
098D4:  MOVWF  x44
098D6:  MOVLB  0
098D8:  CALL   484A
098DC:  MOVFF  43F,444
098E0:  MOVLW  01
098E2:  MOVLB  4
098E4:  MOVWF  x45
098E6:  MOVLB  0
098E8:  CALL   48A8
098EC:  MOVLW  22
098EE:  BTFSS  F9E.4
098F0:  BRA    98EE
098F2:  MOVWF  FAD
....................       SendDataDisplay(); 
098F4:  CALL   38F0
....................       printf("tsecsec.txt=\"%02u\"",((Tsecadop[1]*10)+Tsecadop[0])); 
098F8:  MOVFF  C0,441
098FC:  MOVLW  0A
098FE:  MOVLB  4
09900:  MOVWF  x42
09902:  MOVLB  0
09904:  CALL   2E02
09908:  MOVF   xBF,W
0990A:  ADDWF  01,W
0990C:  MOVLB  4
0990E:  MOVWF  x3F
09910:  MOVLW  F8
09912:  MOVWF  FF6
09914:  MOVLW  0B
09916:  MOVWF  FF7
09918:  MOVLW  00
0991A:  MOVWF  FF8
0991C:  MOVLW  0D
0991E:  MOVWF  x44
09920:  MOVLB  0
09922:  CALL   484A
09926:  MOVFF  43F,444
0992A:  MOVLW  01
0992C:  MOVLB  4
0992E:  MOVWF  x45
09930:  MOVLB  0
09932:  CALL   48A8
09936:  MOVLW  22
09938:  BTFSS  F9E.4
0993A:  BRA    9938
0993C:  MOVWF  FAD
....................       SendDataDisplay(); 
0993E:  CALL   38F0
09942:  MOVLB  3
....................     } 
.................... //_--------------------------------------------------------------------------------------------------------------------------------------------------------        
....................  
.................... //_-------------------------------------------------------------------------------------------------------------------------------------------------------- 
....................     if(Menu==4){ //Menu de Temperatura 
09944:  MOVF   x5E,W
09946:  SUBLW  04
09948:  BTFSS  FD8.2
0994A:  BRA    9B4C
....................       printf("fecha.txt=\"Fecha:%02u/%02u/20%02u    Hora: %02u:%02u\"",Dia,Mes,Year,Hora,Minuto); 
0994C:  MOVLW  0C
0994E:  MOVWF  FF6
09950:  MOVLW  0C
09952:  MOVWF  FF7
09954:  MOVLW  00
09956:  MOVWF  FF8
09958:  MOVLW  11
0995A:  MOVLB  4
0995C:  MOVWF  x44
0995E:  MOVLB  0
09960:  CALL   484A
09964:  MOVFF  3A0,444
09968:  MOVLW  01
0996A:  MOVLB  4
0996C:  MOVWF  x45
0996E:  MOVLB  0
09970:  CALL   48A8
09974:  MOVLW  2F
09976:  BTFSS  F9E.4
09978:  BRA    9976
0997A:  MOVWF  FAD
0997C:  MOVFF  39F,444
09980:  MOVLW  01
09982:  MOVLB  4
09984:  MOVWF  x45
09986:  MOVLB  0
09988:  CALL   48A8
0998C:  MOVLW  2F
0998E:  BTFSS  F9E.4
09990:  BRA    998E
09992:  MOVWF  FAD
09994:  MOVLW  32
09996:  BTFSS  F9E.4
09998:  BRA    9996
0999A:  MOVWF  FAD
0999C:  MOVLW  30
0999E:  BTFSS  F9E.4
099A0:  BRA    999E
099A2:  MOVWF  FAD
099A4:  MOVFF  39E,444
099A8:  MOVLW  01
099AA:  MOVLB  4
099AC:  MOVWF  x45
099AE:  MOVLB  0
099B0:  CALL   48A8
099B4:  MOVLW  2D
099B6:  MOVWF  FF6
099B8:  MOVLW  0C
099BA:  MOVWF  FF7
099BC:  MOVLW  00
099BE:  MOVWF  FF8
099C0:  MOVLW  0A
099C2:  MOVLB  4
099C4:  MOVWF  x44
099C6:  MOVLB  0
099C8:  CALL   484A
099CC:  MOVFF  3A1,444
099D0:  MOVLW  01
099D2:  MOVLB  4
099D4:  MOVWF  x45
099D6:  MOVLB  0
099D8:  CALL   48A8
099DC:  MOVLW  3A
099DE:  BTFSS  F9E.4
099E0:  BRA    99DE
099E2:  MOVWF  FAD
099E4:  MOVFF  3A2,444
099E8:  MOVLW  01
099EA:  MOVLB  4
099EC:  MOVWF  x45
099EE:  MOVLB  0
099F0:  CALL   48A8
099F4:  MOVLW  22
099F6:  BTFSS  F9E.4
099F8:  BRA    99F6
099FA:  MOVWF  FAD
....................       SendDataDisplay(); 
099FC:  CALL   38F0
....................          if(Setpoint<Tmin) 
09A00:  MOVLB  3
09A02:  MOVF   x65,W
09A04:  SUBLW  68
09A06:  BNC   9A0C
....................             Setpoint=Tmax; 
09A08:  MOVLW  86
09A0A:  MOVWF  x65
....................          if(Setpoint>Tmax) 
09A0C:  MOVF   x65,W
09A0E:  SUBLW  86
09A10:  BC    9A16
....................             Setpoint=Tmin; 
09A12:  MOVLW  69
09A14:  MOVWF  x65
....................           
....................          if(RX_Buffer[4]==0x11 || LEFT){//Selecciono Regresar 
09A16:  MOVF   34,W
09A18:  SUBLW  11
09A1A:  BZ    9A22
09A1C:  BSF    F93.3
09A1E:  BTFSC  F81.3
09A20:  BRA    9ABA
....................             Segundos=OFF; 
09A22:  MOVLB  0
09A24:  BCF    xA2.3
....................             Minutos=OFF; 
09A26:  BCF    xA2.2
....................             printf("page CicloPersona"); 
09A28:  MOVLW  42
09A2A:  MOVWF  FF6
09A2C:  MOVLW  0C
09A2E:  MOVWF  FF7
09A30:  MOVLW  00
09A32:  MOVWF  FF8
09A34:  CALL   38BE
....................             SendDataDisplay();   
09A38:  CALL   38F0
....................             PantallaPrincipal=1; 
09A3C:  MOVLW  01
09A3E:  MOVLB  2
09A40:  MOVWF  xDD
....................             Op=OFF; 
09A42:  MOVLB  0
09A44:  BCF    xA2.0
....................             Op2=OFF; 
09A46:  BCF    xA2.1
....................             if(!GuardaEEPROM){ 
09A48:  BTFSC  xA2.4
09A4A:  BRA    9AB8
....................                CiclosPersonalizados[CicloLibre-1].Temperatura=Setpoint; 
09A4C:  MOVLW  01
09A4E:  MOVLB  3
09A50:  SUBWF  x3E,W
09A52:  MULLW  0A
09A54:  MOVF   FF3,W
09A56:  MOVLB  4
09A58:  CLRF   x40
09A5A:  MOVWF  x3F
09A5C:  MOVLW  17
09A5E:  ADDWF  x3F,W
09A60:  MOVWF  FE9
09A62:  MOVLW  04
09A64:  ADDWFC x40,W
09A66:  MOVWF  FEA
09A68:  MOVFF  365,FEF
....................                write_eeprom(100+((CicloLibre-1)*8),Setpoint); 
09A6C:  MOVLW  01
09A6E:  MOVLB  3
09A70:  SUBWF  x3E,W
09A72:  MULLW  08
09A74:  MOVF   FF3,W
09A76:  ADDLW  64
09A78:  MOVLB  4
09A7A:  MOVWF  x3F
09A7C:  CLRF   FAA
09A7E:  MOVFF  43F,FA9
09A82:  MOVFF  365,FA8
09A86:  BCF    FA6.6
09A88:  BCF    FA6.7
09A8A:  BSF    FA6.2
09A8C:  MOVF   FF2,W
09A8E:  MOVWF  00
09A90:  BCF    FF2.6
09A92:  BCF    FF2.7
09A94:  MOVLB  F
09A96:  MOVLW  55
09A98:  MOVWF  FA7
09A9A:  MOVLW  AA
09A9C:  MOVWF  FA7
09A9E:  BSF    FA6.1
09AA0:  BTFSC  FA6.1
09AA2:  BRA    9AA0
09AA4:  BCF    FA6.2
09AA6:  MOVF   00,W
09AA8:  IORWF  FF2,F
....................                delay_ms(10); 
09AAA:  MOVLW  0A
09AAC:  MOVLB  4
09AAE:  MOVWF  x54
09AB0:  MOVLB  0
09AB2:  CALL   1A84
....................                GuardaEEPROM=ON; 
09AB6:  BSF    xA2.4
09AB8:  MOVLB  3
....................             } 
....................          } 
....................           
....................          if(UP){ 
09ABA:  BSF    F93.0
09ABC:  BTFSC  F81.0
09ABE:  BRA    9AD6
....................             delay_ms(100); 
09AC0:  MOVLW  64
09AC2:  MOVLB  4
09AC4:  MOVWF  x54
09AC6:  MOVLB  0
09AC8:  CALL   1A84
....................             if(UP){ 
09ACC:  BSF    F93.0
09ACE:  BTFSC  F81.0
09AD0:  BRA    9AD8
....................                Setpoint++; 
09AD2:  MOVLB  3
09AD4:  INCF   x65,F
09AD6:  MOVLB  0
....................             } 
....................          } 
....................           
....................          if(DOWN){ 
09AD8:  BSF    F93.1
09ADA:  BTFSC  F81.1
09ADC:  BRA    9AF6
....................             delay_ms(100); 
09ADE:  MOVLW  64
09AE0:  MOVLB  4
09AE2:  MOVWF  x54
09AE4:  MOVLB  0
09AE6:  CALL   1A84
....................             if(DOWN){ 
09AEA:  BSF    F93.1
09AEC:  BTFSC  F81.1
09AEE:  BRA    9AF6
....................                Setpoint--; 
09AF0:  MOVLB  3
09AF2:  DECF   x65,F
09AF4:  MOVLB  0
....................             } 
....................          } 
....................           
....................          if(RX_Buffer[4]==0x0d){//Tecla Arriba Oprimida 
09AF6:  MOVF   34,W
09AF8:  SUBLW  0D
09AFA:  BNZ   9B06
....................             Setpoint++; 
09AFC:  MOVLB  3
09AFE:  INCF   x65,F
....................             RX_Buffer[4]=0x00;   
09B00:  CLRF   34
....................             RX_Buffer2[4]=0x00;             
09B02:  CLRF   3F
09B04:  MOVLB  0
....................             //BorraBuffer(); 
....................          } 
....................           
....................          if(RX_Buffer[4]==0x0c){//Tecla Abajo Oprimida 
09B06:  MOVF   34,W
09B08:  SUBLW  0C
09B0A:  BNZ   9B16
....................             Setpoint--; 
09B0C:  MOVLB  3
09B0E:  DECF   x65,F
....................             RX_Buffer[4]=0x00; 
09B10:  CLRF   34
....................             RX_Buffer2[4]=0x00;             
09B12:  CLRF   3F
09B14:  MOVLB  0
....................             //BorraBuffer(); 
....................          } 
....................           
....................       printf("tsettem.txt=\"%03u\"",Setpoint); 
09B16:  MOVLW  54
09B18:  MOVWF  FF6
09B1A:  MOVLW  0C
09B1C:  MOVWF  FF7
09B1E:  MOVLW  00
09B20:  MOVWF  FF8
09B22:  MOVLW  0D
09B24:  MOVLB  4
09B26:  MOVWF  x44
09B28:  MOVLB  0
09B2A:  CALL   484A
09B2E:  MOVFF  365,444
09B32:  MOVLW  03
09B34:  MOVLB  4
09B36:  MOVWF  x45
09B38:  MOVLB  0
09B3A:  CALL   48A8
09B3E:  MOVLW  22
09B40:  BTFSS  F9E.4
09B42:  BRA    9B40
09B44:  MOVWF  FAD
....................       SendDataDisplay(); 
09B46:  CALL   38F0
09B4A:  MOVLB  3
....................     } 
.................... //_--------------------------------------------------------------------------------------------------------------------------------------------------------        
....................  
.................... //_--------------------------------------------------------------------------------------------------------------------------------------------------------       
....................    if(Menu==5){//Menu de Nivel 
09B4C:  MOVF   x5E,W
09B4E:  SUBLW  05
09B50:  BTFSS  FD8.2
09B52:  BRA    9E26
....................       printf("fecha.txt=\"T:%3.1fC Fecha:%02u/%02u/20%02u Hora: %02u:%02u:%02u\"",Temperatura,Dia,Mes,Year,Hora,Minuto,Segundo); 
09B54:  MOVLW  68
09B56:  MOVWF  FF6
09B58:  MOVLW  0C
09B5A:  MOVWF  FF7
09B5C:  MOVLW  00
09B5E:  MOVWF  FF8
09B60:  MOVLW  0D
09B62:  MOVLB  4
09B64:  MOVWF  x44
09B66:  MOVLB  0
09B68:  CALL   484A
09B6C:  MOVLW  02
09B6E:  MOVWF  FE9
09B70:  MOVFF  32B,447
09B74:  MOVFF  32A,446
09B78:  MOVFF  329,445
09B7C:  MOVFF  328,444
09B80:  MOVLW  01
09B82:  MOVLB  4
09B84:  MOVWF  x48
09B86:  MOVLB  0
09B88:  CALL   49EA
09B8C:  MOVLW  7A
09B8E:  MOVWF  FF6
09B90:  MOVLW  0C
09B92:  MOVWF  FF7
09B94:  MOVLW  00
09B96:  MOVWF  FF8
09B98:  MOVLW  09
09B9A:  MOVLB  4
09B9C:  MOVWF  x44
09B9E:  MOVLB  0
09BA0:  CALL   484A
09BA4:  MOVFF  3A0,444
09BA8:  MOVLW  01
09BAA:  MOVLB  4
09BAC:  MOVWF  x45
09BAE:  MOVLB  0
09BB0:  CALL   48A8
09BB4:  MOVLW  2F
09BB6:  BTFSS  F9E.4
09BB8:  BRA    9BB6
09BBA:  MOVWF  FAD
09BBC:  MOVFF  39F,444
09BC0:  MOVLW  01
09BC2:  MOVLB  4
09BC4:  MOVWF  x45
09BC6:  MOVLB  0
09BC8:  CALL   48A8
09BCC:  MOVLW  2F
09BCE:  BTFSS  F9E.4
09BD0:  BRA    9BCE
09BD2:  MOVWF  FAD
09BD4:  MOVLW  32
09BD6:  BTFSS  F9E.4
09BD8:  BRA    9BD6
09BDA:  MOVWF  FAD
09BDC:  MOVLW  30
09BDE:  BTFSS  F9E.4
09BE0:  BRA    9BDE
09BE2:  MOVWF  FAD
09BE4:  MOVFF  39E,444
09BE8:  MOVLW  01
09BEA:  MOVLB  4
09BEC:  MOVWF  x45
09BEE:  MOVLB  0
09BF0:  CALL   48A8
09BF4:  MOVLW  93
09BF6:  MOVWF  FF6
09BF8:  MOVLW  0C
09BFA:  MOVWF  FF7
09BFC:  MOVLW  00
09BFE:  MOVWF  FF8
09C00:  MOVLW  07
09C02:  MOVLB  4
09C04:  MOVWF  x44
09C06:  MOVLB  0
09C08:  CALL   484A
09C0C:  MOVFF  3A1,444
09C10:  MOVLW  01
09C12:  MOVLB  4
09C14:  MOVWF  x45
09C16:  MOVLB  0
09C18:  CALL   48A8
09C1C:  MOVLW  3A
09C1E:  BTFSS  F9E.4
09C20:  BRA    9C1E
09C22:  MOVWF  FAD
09C24:  MOVFF  3A2,444
09C28:  MOVLW  01
09C2A:  MOVLB  4
09C2C:  MOVWF  x45
09C2E:  MOVLB  0
09C30:  CALL   48A8
09C34:  MOVLW  3A
09C36:  BTFSS  F9E.4
09C38:  BRA    9C36
09C3A:  MOVWF  FAD
09C3C:  MOVFF  3A3,444
09C40:  MOVLW  01
09C42:  MOVLB  4
09C44:  MOVWF  x45
09C46:  MOVLB  0
09C48:  CALL   48A8
09C4C:  MOVLW  22
09C4E:  BTFSS  F9E.4
09C50:  BRA    9C4E
09C52:  MOVWF  FAD
....................       SendDataDisplay(); 
09C54:  CALL   38F0
....................          if(Nivel<1) 
09C58:  MOVLB  3
09C5A:  MOVF   x73,F
09C5C:  BNZ   9C68
09C5E:  MOVF   x74,F
09C60:  BNZ   9C68
....................             Nivel=6; 
09C62:  CLRF   x74
09C64:  MOVLW  06
09C66:  MOVWF  x73
....................          if(Nivel>6) 
09C68:  MOVF   x74,F
09C6A:  BNZ   9C72
09C6C:  MOVF   x73,W
09C6E:  SUBLW  06
09C70:  BC    9C78
....................             Nivel=1; 
09C72:  CLRF   x74
09C74:  MOVLW  01
09C76:  MOVWF  x73
....................           
....................          if(RX_Buffer[4]==0x11 || LEFT){//Selecciono Regresar 
09C78:  MOVF   34,W
09C7A:  SUBLW  11
09C7C:  BZ    9C84
09C7E:  BSF    F93.3
09C80:  BTFSC  F81.3
09C82:  BRA    9D80
....................             Segundos=OFF; 
09C84:  MOVLB  0
09C86:  BCF    xA2.3
....................             Minutos=OFF;             
09C88:  BCF    xA2.2
....................             tiempo_secado=0; 
09C8A:  MOVLB  3
09C8C:  CLRF   x69
....................              
....................             if(!GuardaEEPROM){     
09C8E:  MOVLB  0
09C90:  BTFSC  xA2.4
09C92:  BRA    9D2C
....................                CiclosPersonalizados[CicloLibre-1].NivelDesfogue=Nivel; 
09C94:  MOVLW  01
09C96:  MOVLB  3
09C98:  SUBWF  x3E,W
09C9A:  MULLW  0A
09C9C:  MOVF   FF3,W
09C9E:  MOVLB  4
09CA0:  CLRF   x40
09CA2:  MOVWF  x3F
09CA4:  MOVLW  08
09CA6:  ADDWF  x3F,W
09CA8:  MOVWF  01
09CAA:  MOVLW  00
09CAC:  ADDWFC x40,W
09CAE:  MOVWF  03
09CB0:  MOVF   01,W
09CB2:  ADDLW  17
09CB4:  MOVWF  FE9
09CB6:  MOVLW  04
09CB8:  ADDWFC 03,W
09CBA:  MOVWF  FEA
09CBC:  MOVFF  373,FEF
....................                write_eeprom(107+((CicloLibre-1)*8),Nivel); 
09CC0:  MOVLW  01
09CC2:  MOVLB  3
09CC4:  SUBWF  x3E,W
09CC6:  MULLW  08
09CC8:  MOVF   FF3,W
09CCA:  ADDLW  6B
09CCC:  MOVLB  4
09CCE:  MOVWF  x3F
09CD0:  CLRF   FAA
09CD2:  MOVFF  43F,FA9
09CD6:  MOVFF  373,FA8
09CDA:  BCF    FA6.6
09CDC:  BCF    FA6.7
09CDE:  BSF    FA6.2
09CE0:  MOVF   FF2,W
09CE2:  MOVWF  00
09CE4:  BCF    FF2.6
09CE6:  BCF    FF2.7
09CE8:  MOVLB  F
09CEA:  MOVLW  55
09CEC:  MOVWF  FA7
09CEE:  MOVLW  AA
09CF0:  MOVWF  FA7
09CF2:  BSF    FA6.1
09CF4:  BTFSC  FA6.1
09CF6:  BRA    9CF4
09CF8:  BCF    FA6.2
09CFA:  MOVF   00,W
09CFC:  IORWF  FF2,F
....................                delay_ms(20);             
09CFE:  MOVLW  14
09D00:  MOVLB  4
09D02:  MOVWF  x54
09D04:  MOVLB  0
09D06:  CALL   1A84
....................                NivelSeleccionado=4995*Nivel; 
09D0A:  MOVLW  13
09D0C:  MOVLB  4
09D0E:  MOVWF  x49
09D10:  MOVLW  83
09D12:  MOVWF  x48
09D14:  MOVFF  374,44B
09D18:  MOVFF  373,44A
09D1C:  MOVLB  0
09D1E:  CALL   399C
09D22:  MOVFF  02,37E
09D26:  MOVFF  01,37D
....................                GuardaEEPROM=ON; 
09D2A:  BSF    xA2.4
....................             } 
....................              
....................             if(Nivel<6) 
09D2C:  MOVLB  3
09D2E:  MOVF   x74,F
09D30:  BNZ   9D3E
09D32:  MOVF   x73,W
09D34:  SUBLW  05
09D36:  BNC   9D3E
....................                desfoguelento=1; 
09D38:  MOVLB  0
09D3A:  BSF    xA4.4
....................             else             
09D3C:  BRA    9D42
....................                desfoguelento=0; 
09D3E:  MOVLB  0
09D40:  BCF    xA4.4
....................  
....................             if(MenuAnt==1){ 
09D42:  MOVLB  3
09D44:  DECFSZ x5F,W
09D46:  BRA    9D62
....................                //Buzzer_on; 
....................                printf("page CicloPersona"); 
09D48:  MOVLW  AA
09D4A:  MOVWF  FF6
09D4C:  MOVLW  0C
09D4E:  MOVWF  FF7
09D50:  MOVLW  00
09D52:  MOVWF  FF8
09D54:  MOVLB  0
09D56:  CALL   38BE
....................                SendDataDisplay();  
09D5A:  CALL   38F0
....................                //PantallaPrincipal=1; 
....................             }else if(MenuAnt==2){ 
09D5E:  BRA    9D7E
09D60:  MOVLB  3
09D62:  MOVF   x5F,W
09D64:  SUBLW  02
09D66:  BNZ   9D80
....................                printf("page Funcionamiento"); 
09D68:  MOVLW  BC
09D6A:  MOVWF  FF6
09D6C:  MOVLW  0C
09D6E:  MOVWF  FF7
09D70:  MOVLW  00
09D72:  MOVWF  FF8
09D74:  MOVLB  0
09D76:  CALL   38BE
....................                SendDataDisplay();  
09D7A:  CALL   38F0
09D7E:  MOVLB  3
....................                //if(Temperatura>60)TTrampa=TTrampa+5; 
....................             } 
....................          } 
....................           
....................          if(UP){ 
09D80:  BSF    F93.0
09D82:  BTFSC  F81.0
09D84:  BRA    9DA0
....................             delay_ms(100); 
09D86:  MOVLW  64
09D88:  MOVLB  4
09D8A:  MOVWF  x54
09D8C:  MOVLB  0
09D8E:  CALL   1A84
....................             if(UP){ 
09D92:  BSF    F93.0
09D94:  BTFSC  F81.0
09D96:  BRA    9DA2
....................                Nivel++; 
09D98:  MOVLB  3
09D9A:  INCF   x73,F
09D9C:  BTFSC  FD8.2
09D9E:  INCF   x74,F
09DA0:  MOVLB  0
....................             } 
....................          } 
....................           
....................          if(DOWN){ 
09DA2:  BSF    F93.1
09DA4:  BTFSC  F81.1
09DA6:  BRA    9DC6
....................             delay_ms(100); 
09DA8:  MOVLW  64
09DAA:  MOVLB  4
09DAC:  MOVWF  x54
09DAE:  MOVLB  0
09DB0:  CALL   1A84
....................             if(DOWN){ 
09DB4:  BSF    F93.1
09DB6:  BTFSC  F81.1
09DB8:  BRA    9DC6
....................                Nivel--; 
09DBA:  MOVLB  3
09DBC:  MOVF   x73,W
09DBE:  BTFSC  FD8.2
09DC0:  DECF   x74,F
09DC2:  DECF   x73,F
09DC4:  MOVLB  0
....................             } 
....................          } 
....................           
....................          if(RX_Buffer[4]==0x0d){//Tecla Arriba Oprimida 
09DC6:  MOVF   34,W
09DC8:  SUBLW  0D
09DCA:  BNZ   9DDA
....................             Nivel++; 
09DCC:  MOVLB  3
09DCE:  INCF   x73,F
09DD0:  BTFSC  FD8.2
09DD2:  INCF   x74,F
....................             RX_Buffer[4]=0x00;             
09DD4:  CLRF   34
....................             RX_Buffer2[4]=0x00;             
09DD6:  CLRF   3F
09DD8:  MOVLB  0
....................             //BorraBuffer(); 
....................          } 
....................           
....................          if(RX_Buffer[4]==0x0c){//Tecla Abajo Oprimida 
09DDA:  MOVF   34,W
09DDC:  SUBLW  0C
09DDE:  BNZ   9DF0
....................             Nivel--; 
09DE0:  MOVLB  3
09DE2:  MOVF   x73,W
09DE4:  BTFSC  FD8.2
09DE6:  DECF   x74,F
09DE8:  DECF   x73,F
....................             RX_Buffer[4]=0x00; 
09DEA:  CLRF   34
....................             RX_Buffer2[4]=0x00;             
09DEC:  CLRF   3F
09DEE:  MOVLB  0
....................             //BorraBuffer(); 
....................          } 
....................           
....................       printf("tnivel.txt=\"%Lu\"",Nivel); 
09DF0:  MOVLW  D0
09DF2:  MOVWF  FF6
09DF4:  MOVLW  0C
09DF6:  MOVWF  FF7
09DF8:  MOVLW  00
09DFA:  MOVWF  FF8
09DFC:  MOVLW  0C
09DFE:  MOVLB  4
09E00:  MOVWF  x44
09E02:  MOVLB  0
09E04:  CALL   484A
09E08:  MOVLW  10
09E0A:  MOVWF  FE9
09E0C:  MOVFF  374,444
09E10:  MOVFF  373,443
09E14:  CALL   4C0E
09E18:  MOVLW  22
09E1A:  BTFSS  F9E.4
09E1C:  BRA    9E1A
09E1E:  MOVWF  FAD
....................       SendDataDisplay(); 
09E20:  CALL   38F0
09E24:  MOVLB  3
....................    } 
.................... //_--------------------------------------------------------------------------------------------------------------------------------------------------------       
....................  
.................... //_--------------------------------------------------------------------------------------------------------------------------------------------------------       
....................       if(Menu==6){ // Menu de Prueba de Componentes 
09E26:  MOVF   x5E,W
09E28:  SUBLW  06
09E2A:  BTFSS  FD8.2
09E2C:  BRA    A578
....................          PruebaEstados=ON; 
09E2E:  MOVLB  0
09E30:  BSF    xA1.2
....................           
....................          if(RX_Buffer[4]==0x02)//Oprimio EV Desfogue 
09E32:  MOVF   34,W
09E34:  SUBLW  02
09E36:  BNZ   9E3E
....................          { 
....................             EstadoDesfogue=!EstadoDesfogue; 
09E38:  BTG    xA0.7
....................             RX_Buffer[4]=0x00; 
09E3A:  CLRF   34
....................             RX_Buffer2[4]=0x00; 
09E3C:  CLRF   3F
....................          } 
....................           
....................          if(EstadoDesfogue){ 
09E3E:  BTFSS  xA0.7
09E40:  BRA    9E5C
....................             printf("b1.bco=2016"); 
09E42:  MOVLW  E2
09E44:  MOVWF  FF6
09E46:  MOVLW  0C
09E48:  MOVWF  FF7
09E4A:  MOVLW  00
09E4C:  MOVWF  FF8
09E4E:  CALL   38BE
....................             SendDataDisplay();  
09E52:  CALL   38F0
....................             Desfogue_on; 
09E56:  BSF    F8C.4
09E58:  BCF    F95.4
....................          } 
....................          else{ 
09E5A:  BRA    9E74
....................             printf("b1.bco=63488"); 
09E5C:  MOVLW  EE
09E5E:  MOVWF  FF6
09E60:  MOVLW  0C
09E62:  MOVWF  FF7
09E64:  MOVLW  00
09E66:  MOVWF  FF8
09E68:  CALL   38BE
....................             SendDataDisplay();  
09E6C:  CALL   38F0
....................             Desfogue_off; 
09E70:  BCF    F8C.4
09E72:  BCF    F95.4
....................          } 
....................           
....................          if(RX_Buffer[4]==0x01)//Oprimio EV Agua 
09E74:  DECFSZ 34,W
09E76:  BRA    9E7E
....................          { 
....................             EstadoAgua=!EstadoAgua; 
09E78:  BTG    xA1.0
....................             RX_Buffer[4]=0x00; 
09E7A:  CLRF   34
....................             RX_Buffer2[4]=0x00; 
09E7C:  CLRF   3F
....................          } 
....................           
....................          if(EstadoAgua){ 
09E7E:  BTFSS  xA1.0
09E80:  BRA    9E9C
....................             printf("b0.bco=2016"); 
09E82:  MOVLW  FC
09E84:  MOVWF  FF6
09E86:  MOVLW  0C
09E88:  MOVWF  FF7
09E8A:  MOVLW  00
09E8C:  MOVWF  FF8
09E8E:  CALL   38BE
....................             SendDataDisplay();  
09E92:  CALL   38F0
....................             Agua_on; 
09E96:  BSF    F8C.5
09E98:  BCF    F95.5
....................          } 
....................          else{ 
09E9A:  BRA    9EB4
....................             printf("b0.bco=63488"); 
09E9C:  MOVLW  08
09E9E:  MOVWF  FF6
09EA0:  MOVLW  0D
09EA2:  MOVWF  FF7
09EA4:  MOVLW  00
09EA6:  MOVWF  FF8
09EA8:  CALL   38BE
....................             SendDataDisplay();  
09EAC:  CALL   38F0
....................             Agua_off; 
09EB0:  BCF    F8C.5
09EB2:  BCF    F95.5
....................          } 
....................           
....................          if(RX_Buffer[4]==0x03)//Oprimio EV Paso 
09EB4:  MOVF   34,W
09EB6:  SUBLW  03
09EB8:  BNZ   9EC0
....................          { 
....................             EstadoPaso=!EstadoPaso; 
09EBA:  BTG    xA2.5
....................             RX_Buffer[4]=0x00; 
09EBC:  CLRF   34
....................             RX_Buffer2[4]=0x00; 
09EBE:  CLRF   3F
....................          } 
....................           
....................          if(EstadoPaso){ 
09EC0:  BTFSS  xA2.5
09EC2:  BRA    9EDE
....................             printf("b2.bco=2016"); 
09EC4:  MOVLW  16
09EC6:  MOVWF  FF6
09EC8:  MOVLW  0D
09ECA:  MOVWF  FF7
09ECC:  MOVLW  00
09ECE:  MOVWF  FF8
09ED0:  CALL   38BE
....................             SendDataDisplay();  
09ED4:  CALL   38F0
....................             Bomba_on; 
09ED8:  BSF    F8C.6
09EDA:  BCF    F95.6
....................          } 
....................          else{ 
09EDC:  BRA    9EF6
....................             printf("b2.bco=63488"); 
09EDE:  MOVLW  22
09EE0:  MOVWF  FF6
09EE2:  MOVLW  0D
09EE4:  MOVWF  FF7
09EE6:  MOVLW  00
09EE8:  MOVWF  FF8
09EEA:  CALL   38BE
....................             SendDataDisplay();  
09EEE:  CALL   38F0
....................             Bomba_off; 
09EF2:  BCF    F8C.6
09EF4:  BCF    F95.6
....................          } 
....................          
....................           
....................          if(RX_Buffer[4]==0x05)//Oprimio Bloqueo 
09EF6:  MOVF   34,W
09EF8:  SUBLW  05
09EFA:  BNZ   9F02
....................          { 
....................             EstadoAire=!EstadoAire; 
09EFC:  BTG    xA1.6
....................             RX_Buffer[4]=0x00; 
09EFE:  CLRF   34
....................             RX_Buffer2[4]=0x00; 
09F00:  CLRF   3F
....................          } 
....................           
....................          if(EstadoAire){ 
09F02:  BTFSS  xA1.6
09F04:  BRA    9F1E
....................             printf("b4.bco=2016"); 
09F06:  MOVLW  30
09F08:  MOVWF  FF6
09F0A:  MOVLW  0D
09F0C:  MOVWF  FF7
09F0E:  MOVLW  00
09F10:  MOVWF  FF8
09F12:  CALL   38BE
....................             SendDataDisplay();  
09F16:  CALL   38F0
....................             Aire=ON;    
09F1A:  BSF    xA3.7
....................          }else{ 
09F1C:  BRA    9F34
....................             printf("b4.bco=63488"); 
09F1E:  MOVLW  3C
09F20:  MOVWF  FF6
09F22:  MOVLW  0D
09F24:  MOVWF  FF7
09F26:  MOVLW  00
09F28:  MOVWF  FF8
09F2A:  CALL   38BE
....................             SendDataDisplay();  
09F2E:  CALL   38F0
....................             Aire=OFF; 
09F32:  BCF    xA3.7
....................          } 
....................           
....................           
....................          if(RX_Buffer[4]==0x04)//Oprimio SSR1 
09F34:  MOVF   34,W
09F36:  SUBLW  04
09F38:  BNZ   9F40
....................          { 
....................             EstadoSSR=!EstadoSSR; 
09F3A:  BTG    xA1.1
....................             RX_Buffer[4]=0x00; 
09F3C:  CLRF   34
....................             RX_Buffer2[4]=0x00; 
09F3E:  CLRF   3F
....................          } 
....................           
....................          if(EstadoSSR){ 
09F40:  BTFSS  xA1.1
09F42:  BRA    9F5E
....................             printf("b3.bco=2016"); 
09F44:  MOVLW  4A
09F46:  MOVWF  FF6
09F48:  MOVLW  0D
09F4A:  MOVWF  FF7
09F4C:  MOVLW  00
09F4E:  MOVWF  FF8
09F50:  CALL   38BE
....................             SendDataDisplay();  
09F54:  CALL   38F0
....................             SSR_on; 
09F58:  BCF    F8B.2
09F5A:  BCF    F94.2
....................          } 
....................          else{ 
09F5C:  BRA    9F76
....................             printf("b3.bco=63488"); 
09F5E:  MOVLW  56
09F60:  MOVWF  FF6
09F62:  MOVLW  0D
09F64:  MOVWF  FF7
09F66:  MOVLW  00
09F68:  MOVWF  FF8
09F6A:  CALL   38BE
....................             SendDataDisplay();  
09F6E:  CALL   38F0
....................             SSR_off; 
09F72:  BSF    F8B.2
09F74:  BCF    F94.2
....................          } 
....................           
....................          if(DOOR){ 
09F76:  BSF    F93.6
09F78:  BTFSC  F81.6
09F7A:  BRA    9F92
....................             printf("b8.bco=2016"); 
09F7C:  MOVLW  64
09F7E:  MOVWF  FF6
09F80:  MOVLW  0D
09F82:  MOVWF  FF7
09F84:  MOVLW  00
09F86:  MOVWF  FF8
09F88:  CALL   38BE
....................             SendDataDisplay();  
09F8C:  CALL   38F0
....................          }else{ 
09F90:  BRA    9FA6
....................             printf("b8.bco=63488"); 
09F92:  MOVLW  70
09F94:  MOVWF  FF6
09F96:  MOVLW  0D
09F98:  MOVWF  FF7
09F9A:  MOVLW  00
09F9C:  MOVWF  FF8
09F9E:  CALL   38BE
....................             SendDataDisplay();  
09FA2:  CALL   38F0
....................          } 
....................           
....................          if(TERM){ 
09FA6:  BSF    F93.5
09FA8:  BTFSC  F81.5
09FAA:  BRA    9FC2
....................             printf("b9.bco=2016"); 
09FAC:  MOVLW  7E
09FAE:  MOVWF  FF6
09FB0:  MOVLW  0D
09FB2:  MOVWF  FF7
09FB4:  MOVLW  00
09FB6:  MOVWF  FF8
09FB8:  CALL   38BE
....................             SendDataDisplay();  
09FBC:  CALL   38F0
....................          }else{ 
09FC0:  BRA    9FD6
....................             printf("b9.bco=63488"); 
09FC2:  MOVLW  8A
09FC4:  MOVWF  FF6
09FC6:  MOVLW  0D
09FC8:  MOVWF  FF7
09FCA:  MOVLW  00
09FCC:  MOVWF  FF8
09FCE:  CALL   38BE
....................             SendDataDisplay();  
09FD2:  CALL   38F0
....................          } 
....................           
....................          if(STOP){ 
09FD6:  BSF    F93.7
09FD8:  BTFSC  F81.7
09FDA:  BRA    9FF2
....................             printf("b10.bco=2016"); 
09FDC:  MOVLW  98
09FDE:  MOVWF  FF6
09FE0:  MOVLW  0D
09FE2:  MOVWF  FF7
09FE4:  MOVLW  00
09FE6:  MOVWF  FF8
09FE8:  CALL   38BE
....................             SendDataDisplay();  
09FEC:  CALL   38F0
....................          }else{ 
09FF0:  BRA    A006
....................             printf("b10.bco=63488"); 
09FF2:  MOVLW  A6
09FF4:  MOVWF  FF6
09FF6:  MOVLW  0D
09FF8:  MOVWF  FF7
09FFA:  MOVLW  00
09FFC:  MOVWF  FF8
09FFE:  CALL   38BE
....................             SendDataDisplay();  
0A002:  CALL   38F0
....................          } 
....................           
....................          /*if(PRES){ 
....................             printf("b11.bco=2016"); 
....................             SendDataDisplay();  
....................          }else{ 
....................             printf("b11.bco=63488"); 
....................             SendDataDisplay();  
....................          }*/ 
....................           
....................          if(RX_Buffer[4]==0x13)//Oprimio Buzzer 
0A006:  MOVF   34,W
0A008:  SUBLW  13
0A00A:  BNZ   A012
....................          { 
....................             EstadoBuzzer=!EstadoBuzzer; 
0A00C:  BTG    xA2.6
....................             RX_Buffer[4]=0x00; 
0A00E:  CLRF   34
....................             RX_Buffer2[4]=0x00; 
0A010:  CLRF   3F
....................          } 
....................           
....................          if(EstadoBuzzer){ 
0A012:  BTFSS  xA2.6
0A014:  BRA    A030
....................             printf("b12.bco=2016"); 
0A016:  MOVLW  B4
0A018:  MOVWF  FF6
0A01A:  MOVLW  0D
0A01C:  MOVWF  FF7
0A01E:  MOVLW  00
0A020:  MOVWF  FF8
0A022:  CALL   38BE
....................             SendDataDisplay();  
0A026:  CALL   38F0
....................             Buzzer_on; 
0A02A:  BSF    F8C.0
0A02C:  BCF    F95.0
....................          } 
....................          else{ 
0A02E:  BRA    A048
....................             printf("b12.bco=63488"); 
0A030:  MOVLW  C2
0A032:  MOVWF  FF6
0A034:  MOVLW  0D
0A036:  MOVWF  FF7
0A038:  MOVLW  00
0A03A:  MOVWF  FF8
0A03C:  CALL   38BE
....................             SendDataDisplay();  
0A040:  CALL   38F0
....................             Buzzer_off; 
0A044:  BCF    F8C.0
0A046:  BCF    F95.0
....................          } 
....................           
....................          if(HIG){ 
0A048:  BSF    F94.0
0A04A:  BTFSS  F82.0
0A04C:  BRA    A064
....................             printf("b16.bco=2016"); 
0A04E:  MOVLW  D0
0A050:  MOVWF  FF6
0A052:  MOVLW  0D
0A054:  MOVWF  FF7
0A056:  MOVLW  00
0A058:  MOVWF  FF8
0A05A:  CALL   38BE
....................             SendDataDisplay();  
0A05E:  CALL   38F0
....................          }else{ 
0A062:  BRA    A078
....................             printf("b16.bco=63488"); 
0A064:  MOVLW  DE
0A066:  MOVWF  FF6
0A068:  MOVLW  0D
0A06A:  MOVWF  FF7
0A06C:  MOVLW  00
0A06E:  MOVWF  FF8
0A070:  CALL   38BE
....................             SendDataDisplay();  
0A074:  CALL   38F0
....................          } 
....................           
....................          if(LOW){ 
0A078:  BSF    F94.1
0A07A:  BTFSS  F82.1
0A07C:  BRA    A094
....................             printf("b17.bco=2016"); 
0A07E:  MOVLW  EC
0A080:  MOVWF  FF6
0A082:  MOVLW  0D
0A084:  MOVWF  FF7
0A086:  MOVLW  00
0A088:  MOVWF  FF8
0A08A:  CALL   38BE
....................             SendDataDisplay();  
0A08E:  CALL   38F0
....................          }else{ 
0A092:  BRA    A0A8
....................             printf("b17.bco=63488"); 
0A094:  MOVLW  FA
0A096:  MOVWF  FF6
0A098:  MOVLW  0D
0A09A:  MOVWF  FF7
0A09C:  MOVLW  00
0A09E:  MOVWF  FF8
0A0A0:  CALL   38BE
....................             SendDataDisplay();  
0A0A4:  CALL   38F0
....................          } 
....................           
....................          printf("b13.txt=\"ADC0:%3.0f\"",sensores(0));          
0A0A8:  MOVLB  4
0A0AA:  CLRF   x48
0A0AC:  MOVLB  0
0A0AE:  CALL   3944
0A0B2:  MOVFF  00,43F
0A0B6:  MOVFF  01,440
0A0BA:  MOVFF  02,441
0A0BE:  MOVFF  03,442
0A0C2:  MOVLW  08
0A0C4:  MOVWF  FF6
0A0C6:  MOVLW  0E
0A0C8:  MOVWF  FF7
0A0CA:  MOVLW  00
0A0CC:  MOVWF  FF8
0A0CE:  MOVLW  0E
0A0D0:  MOVLB  4
0A0D2:  MOVWF  x44
0A0D4:  MOVLB  0
0A0D6:  CALL   484A
0A0DA:  MOVLW  02
0A0DC:  MOVWF  FE9
0A0DE:  MOVFF  442,447
0A0E2:  MOVFF  441,446
0A0E6:  MOVFF  440,445
0A0EA:  MOVFF  43F,444
0A0EE:  MOVLB  4
0A0F0:  CLRF   x48
0A0F2:  MOVLB  0
0A0F4:  CALL   49EA
0A0F8:  MOVLW  22
0A0FA:  BTFSS  F9E.4
0A0FC:  BRA    A0FA
0A0FE:  MOVWF  FAD
....................          SendDataDisplay(); 
0A100:  CALL   38F0
....................          printf("b14.txt=\"ADC1:%3.0f\"",sensores(1));          
0A104:  MOVLW  01
0A106:  MOVLB  4
0A108:  MOVWF  x48
0A10A:  MOVLB  0
0A10C:  CALL   3944
0A110:  MOVFF  00,43F
0A114:  MOVFF  01,440
0A118:  MOVFF  02,441
0A11C:  MOVFF  03,442
0A120:  MOVLW  1E
0A122:  MOVWF  FF6
0A124:  MOVLW  0E
0A126:  MOVWF  FF7
0A128:  MOVLW  00
0A12A:  MOVWF  FF8
0A12C:  MOVLW  0E
0A12E:  MOVLB  4
0A130:  MOVWF  x44
0A132:  MOVLB  0
0A134:  CALL   484A
0A138:  MOVLW  02
0A13A:  MOVWF  FE9
0A13C:  MOVFF  442,447
0A140:  MOVFF  441,446
0A144:  MOVFF  440,445
0A148:  MOVFF  43F,444
0A14C:  MOVLB  4
0A14E:  CLRF   x48
0A150:  MOVLB  0
0A152:  CALL   49EA
0A156:  MOVLW  22
0A158:  BTFSS  F9E.4
0A15A:  BRA    A158
0A15C:  MOVWF  FAD
....................          SendDataDisplay(); 
0A15E:  CALL   38F0
....................          printf("b15.txt=\"A2:%3.0f %03Lu\"",sensores(2),PresionCamara); 
0A162:  MOVLW  02
0A164:  MOVLB  4
0A166:  MOVWF  x48
0A168:  MOVLB  0
0A16A:  CALL   3944
0A16E:  MOVFF  00,43F
0A172:  MOVFF  01,440
0A176:  MOVFF  02,441
0A17A:  MOVFF  03,442
0A17E:  MOVLW  34
0A180:  MOVWF  FF6
0A182:  MOVLW  0E
0A184:  MOVWF  FF7
0A186:  MOVLW  00
0A188:  MOVWF  FF8
0A18A:  MOVLW  0C
0A18C:  MOVLB  4
0A18E:  MOVWF  x44
0A190:  MOVLB  0
0A192:  CALL   484A
0A196:  MOVLW  02
0A198:  MOVWF  FE9
0A19A:  MOVFF  442,447
0A19E:  MOVFF  441,446
0A1A2:  MOVFF  440,445
0A1A6:  MOVFF  43F,444
0A1AA:  MOVLB  4
0A1AC:  CLRF   x48
0A1AE:  MOVLB  0
0A1B0:  CALL   49EA
0A1B4:  MOVLW  20
0A1B6:  BTFSS  F9E.4
0A1B8:  BRA    A1B6
0A1BA:  MOVWF  FAD
0A1BC:  MOVLW  0A
0A1BE:  MOVWF  FE9
0A1C0:  MOVFF  378,444
0A1C4:  MOVFF  377,443
0A1C8:  CALL   4C0E
0A1CC:  MOVLW  22
0A1CE:  BTFSS  F9E.4
0A1D0:  BRA    A1CE
0A1D2:  MOVWF  FAD
....................          SendDataDisplay(); 
0A1D4:  CALL   38F0
....................          printf("b18.txt=\"A3:%3.0f %03Lu\"",sensores(3),PresionPreCamara); 
0A1D8:  MOVLW  03
0A1DA:  MOVLB  4
0A1DC:  MOVWF  x48
0A1DE:  MOVLB  0
0A1E0:  CALL   3944
0A1E4:  MOVFF  00,43F
0A1E8:  MOVFF  01,440
0A1EC:  MOVFF  02,441
0A1F0:  MOVFF  03,442
0A1F4:  MOVLW  4E
0A1F6:  MOVWF  FF6
0A1F8:  MOVLW  0E
0A1FA:  MOVWF  FF7
0A1FC:  MOVLW  00
0A1FE:  MOVWF  FF8
0A200:  MOVLW  0C
0A202:  MOVLB  4
0A204:  MOVWF  x44
0A206:  MOVLB  0
0A208:  CALL   484A
0A20C:  MOVLW  02
0A20E:  MOVWF  FE9
0A210:  MOVFF  442,447
0A214:  MOVFF  441,446
0A218:  MOVFF  440,445
0A21C:  MOVFF  43F,444
0A220:  MOVLB  4
0A222:  CLRF   x48
0A224:  MOVLB  0
0A226:  CALL   49EA
0A22A:  MOVLW  20
0A22C:  BTFSS  F9E.4
0A22E:  BRA    A22C
0A230:  MOVWF  FAD
0A232:  MOVLW  0A
0A234:  MOVWF  FE9
0A236:  MOVFF  37A,444
0A23A:  MOVFF  379,443
0A23E:  CALL   4C0E
0A242:  MOVLW  22
0A244:  BTFSS  F9E.4
0A246:  BRA    A244
0A248:  MOVWF  FAD
....................          SendDataDisplay(); 
0A24A:  CALL   38F0
....................          printf("b20.txt=\"T1:%3.1f\"",Temperatura); 
0A24E:  MOVLW  68
0A250:  MOVWF  FF6
0A252:  MOVLW  0E
0A254:  MOVWF  FF7
0A256:  MOVLW  00
0A258:  MOVWF  FF8
0A25A:  MOVLW  0C
0A25C:  MOVLB  4
0A25E:  MOVWF  x44
0A260:  MOVLB  0
0A262:  CALL   484A
0A266:  MOVLW  02
0A268:  MOVWF  FE9
0A26A:  MOVFF  32B,447
0A26E:  MOVFF  32A,446
0A272:  MOVFF  329,445
0A276:  MOVFF  328,444
0A27A:  MOVLW  01
0A27C:  MOVLB  4
0A27E:  MOVWF  x48
0A280:  MOVLB  0
0A282:  CALL   49EA
0A286:  MOVLW  22
0A288:  BTFSS  F9E.4
0A28A:  BRA    A288
0A28C:  MOVWF  FAD
....................          SendDataDisplay(); 
0A28E:  CALL   38F0
....................           
....................          if(RX_Buffer[4]==0x21 || LEFT){//Oprimio salir 
0A292:  MOVF   34,W
0A294:  SUBLW  21
0A296:  BZ    A29E
0A298:  BSF    F93.3
0A29A:  BTFSC  F81.3
0A29C:  BRA    A2E6
....................             delay_ms(100); 
0A29E:  MOVLW  64
0A2A0:  MOVLB  4
0A2A2:  MOVWF  x54
0A2A4:  MOVLB  0
0A2A6:  CALL   1A84
....................             if(RX_Buffer[4]==0x21 || LEFT){ 
0A2AA:  MOVF   34,W
0A2AC:  SUBLW  21
0A2AE:  BZ    A2B6
0A2B0:  BSF    F93.3
0A2B2:  BTFSC  F81.3
0A2B4:  BRA    A2E6
....................                printf("page MenuPrincipal"); 
0A2B6:  MOVLW  7C
0A2B8:  MOVWF  FF6
0A2BA:  MOVLW  0E
0A2BC:  MOVWF  FF7
0A2BE:  MOVLW  00
0A2C0:  MOVWF  FF8
0A2C2:  CALL   38BE
....................                SendDataDisplay(); 
0A2C6:  CALL   38F0
....................                PantallaPrincipal=0; 
0A2CA:  MOVLB  2
0A2CC:  CLRF   xDD
....................                PruebaEstados=OFF;Desfogue_off;Agua_off;Bomba_off;SSR_off; 
0A2CE:  MOVLB  0
0A2D0:  BCF    xA1.2
0A2D2:  BCF    F8C.4
0A2D4:  BCF    F95.4
0A2D6:  BCF    F8C.5
0A2D8:  BCF    F95.5
0A2DA:  BCF    F8C.6
0A2DC:  BCF    F95.6
0A2DE:  BSF    F8B.2
0A2E0:  BCF    F94.2
....................                ApagaSalidas(); 
0A2E2:  CALL   3926
....................                // Falta apagar Todo 
....................             } 
....................          } 
....................           
....................          if(UP){ 
0A2E6:  BSF    F93.0
0A2E8:  BTFSC  F81.0
0A2EA:  BRA    A42E
....................             delay_ms(100); 
0A2EC:  MOVLW  64
0A2EE:  MOVLB  4
0A2F0:  MOVWF  x54
0A2F2:  MOVLB  0
0A2F4:  CALL   1A84
....................             if(UP){ 
0A2F8:  BSF    F93.0
0A2FA:  BTFSC  F81.0
0A2FC:  BRA    A42E
....................                G1=41-sensores(2); 
0A2FE:  MOVLW  02
0A300:  MOVLB  4
0A302:  MOVWF  x48
0A304:  MOVLB  0
0A306:  CALL   3944
0A30A:  MOVFF  FEA,440
0A30E:  MOVFF  FE9,43F
0A312:  BSF    FD8.1
0A314:  MOVLB  4
0A316:  CLRF   x57
0A318:  CLRF   x56
0A31A:  MOVLW  24
0A31C:  MOVWF  x55
0A31E:  MOVLW  84
0A320:  MOVWF  x54
0A322:  MOVFF  03,45B
0A326:  MOVFF  02,45A
0A32A:  MOVFF  01,459
0A32E:  MOVFF  00,458
0A332:  MOVLB  0
0A334:  CALL   1C40
0A338:  MOVFF  440,FEA
0A33C:  MOVFF  43F,FE9
0A340:  MOVFF  03,457
0A344:  MOVFF  02,456
0A348:  MOVFF  01,455
0A34C:  MOVFF  00,454
0A350:  CALL   40F6
0A354:  MOVFF  01,3AF
....................                if(G1<0) 
0A358:  MOVLB  3
0A35A:  BTFSC  xAF.7
0A35C:  BRA    A360
0A35E:  BRA    A366
....................                   sg1=10; 
0A360:  MOVLW  0A
0A362:  MOVWF  xB1
....................                else 
0A364:  BRA    A36A
....................                   sg1=5; 
0A366:  MOVLW  05
0A368:  MOVWF  xB1
....................                    
....................                write_eeprom(42,(int8)G1); 
0A36A:  CLRF   FAA
0A36C:  MOVLW  2A
0A36E:  MOVWF  FA9
0A370:  MOVFF  3AF,FA8
0A374:  BCF    FA6.6
0A376:  BCF    FA6.7
0A378:  BSF    FA6.2
0A37A:  MOVF   FF2,W
0A37C:  MOVWF  00
0A37E:  BCF    FF2.6
0A380:  BCF    FF2.7
0A382:  MOVLB  F
0A384:  MOVLW  55
0A386:  MOVWF  FA7
0A388:  MOVLW  AA
0A38A:  MOVWF  FA7
0A38C:  BSF    FA6.1
0A38E:  BTFSC  FA6.1
0A390:  BRA    A38E
0A392:  BCF    FA6.2
0A394:  MOVF   00,W
0A396:  IORWF  FF2,F
....................                delay_ms(10); 
0A398:  MOVLW  0A
0A39A:  MOVLB  4
0A39C:  MOVWF  x54
0A39E:  MOVLB  0
0A3A0:  CALL   1A84
....................                write_eeprom(44,(int8)sg1); 
0A3A4:  CLRF   FAA
0A3A6:  MOVLW  2C
0A3A8:  MOVWF  FA9
0A3AA:  MOVFF  3B1,FA8
0A3AE:  BCF    FA6.6
0A3B0:  BCF    FA6.7
0A3B2:  BSF    FA6.2
0A3B4:  MOVF   FF2,W
0A3B6:  MOVWF  00
0A3B8:  BCF    FF2.6
0A3BA:  BCF    FF2.7
0A3BC:  MOVLB  F
0A3BE:  MOVLW  55
0A3C0:  MOVWF  FA7
0A3C2:  MOVLW  AA
0A3C4:  MOVWF  FA7
0A3C6:  BSF    FA6.1
0A3C8:  BTFSC  FA6.1
0A3CA:  BRA    A3C8
0A3CC:  BCF    FA6.2
0A3CE:  MOVF   00,W
0A3D0:  IORWF  FF2,F
....................                delay_ms(10); 
0A3D2:  MOVLW  0A
0A3D4:  MOVLB  4
0A3D6:  MOVWF  x54
0A3D8:  MOVLB  0
0A3DA:  CALL   1A84
....................                Buzzer_on; 
0A3DE:  BSF    F8C.0
0A3E0:  BCF    F95.0
....................                delay_ms(1000); 
0A3E2:  MOVLW  04
0A3E4:  MOVLB  4
0A3E6:  MOVWF  x3F
0A3E8:  MOVLW  FA
0A3EA:  MOVWF  x54
0A3EC:  MOVLB  0
0A3EE:  CALL   1A84
0A3F2:  MOVLB  4
0A3F4:  DECFSZ x3F,F
0A3F6:  BRA    A3E8
....................                Buzzer_off; 
0A3F8:  BCF    F8C.0
0A3FA:  BCF    F95.0
....................                delay_ms(1000); 
0A3FC:  MOVLW  04
0A3FE:  MOVWF  x3F
0A400:  MOVLW  FA
0A402:  MOVWF  x54
0A404:  MOVLB  0
0A406:  CALL   1A84
0A40A:  MOVLB  4
0A40C:  DECFSZ x3F,F
0A40E:  BRA    A400
....................                Buzzer_on; 
0A410:  BSF    F8C.0
0A412:  BCF    F95.0
....................                delay_ms(1000); 
0A414:  MOVLW  04
0A416:  MOVWF  x3F
0A418:  MOVLW  FA
0A41A:  MOVWF  x54
0A41C:  MOVLB  0
0A41E:  CALL   1A84
0A422:  MOVLB  4
0A424:  DECFSZ x3F,F
0A426:  BRA    A418
....................                Buzzer_off; 
0A428:  BCF    F8C.0
0A42A:  BCF    F95.0
0A42C:  MOVLB  0
....................             } 
....................          } 
....................           
....................          if(DOWN){ 
0A42E:  BSF    F93.1
0A430:  BTFSC  F81.1
0A432:  BRA    A576
....................             delay_ms(100); 
0A434:  MOVLW  64
0A436:  MOVLB  4
0A438:  MOVWF  x54
0A43A:  MOVLB  0
0A43C:  CALL   1A84
....................             if(DOWN){ 
0A440:  BSF    F93.1
0A442:  BTFSC  F81.1
0A444:  BRA    A576
....................                G2=41-sensores(3); 
0A446:  MOVLW  03
0A448:  MOVLB  4
0A44A:  MOVWF  x48
0A44C:  MOVLB  0
0A44E:  CALL   3944
0A452:  MOVFF  FEA,440
0A456:  MOVFF  FE9,43F
0A45A:  BSF    FD8.1
0A45C:  MOVLB  4
0A45E:  CLRF   x57
0A460:  CLRF   x56
0A462:  MOVLW  24
0A464:  MOVWF  x55
0A466:  MOVLW  84
0A468:  MOVWF  x54
0A46A:  MOVFF  03,45B
0A46E:  MOVFF  02,45A
0A472:  MOVFF  01,459
0A476:  MOVFF  00,458
0A47A:  MOVLB  0
0A47C:  CALL   1C40
0A480:  MOVFF  440,FEA
0A484:  MOVFF  43F,FE9
0A488:  MOVFF  03,457
0A48C:  MOVFF  02,456
0A490:  MOVFF  01,455
0A494:  MOVFF  00,454
0A498:  CALL   40F6
0A49C:  MOVFF  01,3B0
....................                if(G2<0) 
0A4A0:  MOVLB  3
0A4A2:  BTFSC  xB0.7
0A4A4:  BRA    A4A8
0A4A6:  BRA    A4AE
....................                   sg2=10; 
0A4A8:  MOVLW  0A
0A4AA:  MOVWF  xB2
....................                else 
0A4AC:  BRA    A4B2
....................                   sg2=5; 
0A4AE:  MOVLW  05
0A4B0:  MOVWF  xB2
....................                    
....................                write_eeprom(43,(int8)G2); 
0A4B2:  CLRF   FAA
0A4B4:  MOVLW  2B
0A4B6:  MOVWF  FA9
0A4B8:  MOVFF  3B0,FA8
0A4BC:  BCF    FA6.6
0A4BE:  BCF    FA6.7
0A4C0:  BSF    FA6.2
0A4C2:  MOVF   FF2,W
0A4C4:  MOVWF  00
0A4C6:  BCF    FF2.6
0A4C8:  BCF    FF2.7
0A4CA:  MOVLB  F
0A4CC:  MOVLW  55
0A4CE:  MOVWF  FA7
0A4D0:  MOVLW  AA
0A4D2:  MOVWF  FA7
0A4D4:  BSF    FA6.1
0A4D6:  BTFSC  FA6.1
0A4D8:  BRA    A4D6
0A4DA:  BCF    FA6.2
0A4DC:  MOVF   00,W
0A4DE:  IORWF  FF2,F
....................                delay_ms(10); 
0A4E0:  MOVLW  0A
0A4E2:  MOVLB  4
0A4E4:  MOVWF  x54
0A4E6:  MOVLB  0
0A4E8:  CALL   1A84
....................                write_eeprom(45,(int8)sg2); 
0A4EC:  CLRF   FAA
0A4EE:  MOVLW  2D
0A4F0:  MOVWF  FA9
0A4F2:  MOVFF  3B2,FA8
0A4F6:  BCF    FA6.6
0A4F8:  BCF    FA6.7
0A4FA:  BSF    FA6.2
0A4FC:  MOVF   FF2,W
0A4FE:  MOVWF  00
0A500:  BCF    FF2.6
0A502:  BCF    FF2.7
0A504:  MOVLB  F
0A506:  MOVLW  55
0A508:  MOVWF  FA7
0A50A:  MOVLW  AA
0A50C:  MOVWF  FA7
0A50E:  BSF    FA6.1
0A510:  BTFSC  FA6.1
0A512:  BRA    A510
0A514:  BCF    FA6.2
0A516:  MOVF   00,W
0A518:  IORWF  FF2,F
....................                delay_ms(10); 
0A51A:  MOVLW  0A
0A51C:  MOVLB  4
0A51E:  MOVWF  x54
0A520:  MOVLB  0
0A522:  CALL   1A84
....................                Buzzer_on; 
0A526:  BSF    F8C.0
0A528:  BCF    F95.0
....................                delay_ms(1000); 
0A52A:  MOVLW  04
0A52C:  MOVLB  4
0A52E:  MOVWF  x3F
0A530:  MOVLW  FA
0A532:  MOVWF  x54
0A534:  MOVLB  0
0A536:  CALL   1A84
0A53A:  MOVLB  4
0A53C:  DECFSZ x3F,F
0A53E:  BRA    A530
....................                Buzzer_off; 
0A540:  BCF    F8C.0
0A542:  BCF    F95.0
....................                delay_ms(1000); 
0A544:  MOVLW  04
0A546:  MOVWF  x3F
0A548:  MOVLW  FA
0A54A:  MOVWF  x54
0A54C:  MOVLB  0
0A54E:  CALL   1A84
0A552:  MOVLB  4
0A554:  DECFSZ x3F,F
0A556:  BRA    A548
....................                Buzzer_on; 
0A558:  BSF    F8C.0
0A55A:  BCF    F95.0
....................                delay_ms(1000); 
0A55C:  MOVLW  04
0A55E:  MOVWF  x3F
0A560:  MOVLW  FA
0A562:  MOVWF  x54
0A564:  MOVLB  0
0A566:  CALL   1A84
0A56A:  MOVLB  4
0A56C:  DECFSZ x3F,F
0A56E:  BRA    A560
....................                Buzzer_off; 
0A570:  BCF    F8C.0
0A572:  BCF    F95.0
0A574:  MOVLB  0
0A576:  MOVLB  3
....................             } 
....................          } 
....................      } 
.................... //_--------------------------------------------------------------------------------------------------------------------------------------------------------     
....................  
.................... //_--------------------------------------------------------------------------------------------------------------------------------------------------------       
....................       if(Menu==7){ //Menu de Configuracin de Fecha y Hora 
0A578:  MOVF   x5E,W
0A57A:  SUBLW  07
0A57C:  BTFSS  FD8.2
0A57E:  BRA    A9A6
....................        
....................          if(RX_Buffer[4]==0x0a){//Selecciono Hora 
0A580:  MOVF   34,W
0A582:  SUBLW  0A
0A584:  BNZ   A58A
....................             Opcion=4; 
0A586:  MOVLW  04
0A588:  MOVWF  x66
....................          } 
....................           
....................          if(RX_Buffer[4]==0x0b){//Selecciono Minuto 
0A58A:  MOVF   34,W
0A58C:  SUBLW  0B
0A58E:  BNZ   A594
....................             Opcion=5; 
0A590:  MOVLW  05
0A592:  MOVWF  x66
....................          } 
....................           
....................          if(RX_Buffer[4]==0x0c){//Selecciono Dia 
0A594:  MOVF   34,W
0A596:  SUBLW  0C
0A598:  BNZ   A59E
....................             Opcion=1; 
0A59A:  MOVLW  01
0A59C:  MOVWF  x66
....................          } 
....................           
....................          if(RX_Buffer[4]==0x0d){//Selecciono Hora 
0A59E:  MOVF   34,W
0A5A0:  SUBLW  0D
0A5A2:  BNZ   A5A8
....................             Opcion=2; 
0A5A4:  MOVLW  02
0A5A6:  MOVWF  x66
....................          } 
....................           
....................          if(RX_Buffer[4]==0x0e){//Selecciono Year 
0A5A8:  MOVF   34,W
0A5AA:  SUBLW  0E
0A5AC:  BNZ   A5B2
....................             Opcion=3; 
0A5AE:  MOVLW  03
0A5B0:  MOVWF  x66
....................          } 
....................           
....................          if(RIGHT){ 
0A5B2:  BSF    F93.2
0A5B4:  BTFSC  F81.2
0A5B6:  BRA    A5CE
....................             delay_ms(200); 
0A5B8:  MOVLW  C8
0A5BA:  MOVLB  4
0A5BC:  MOVWF  x54
0A5BE:  MOVLB  0
0A5C0:  CALL   1A84
....................             if(RIGHT){ 
0A5C4:  BSF    F93.2
0A5C6:  BTFSC  F81.2
0A5C8:  BRA    A5D0
....................                Opcion++; 
0A5CA:  MOVLB  3
0A5CC:  INCF   x66,F
0A5CE:  MOVLB  0
....................             } 
....................          } 
....................          if(Opcion>5) 
0A5D0:  MOVLB  3
0A5D2:  MOVF   x66,W
0A5D4:  SUBLW  05
0A5D6:  BC    A5DC
....................             Opcion=1; 
0A5D8:  MOVLW  01
0A5DA:  MOVWF  x66
....................          if(Opcion<1) 
0A5DC:  MOVF   x66,F
0A5DE:  BNZ   A5E4
....................             Opcion=5; 
0A5E0:  MOVLW  05
0A5E2:  MOVWF  x66
....................              
....................          if(RX_Buffer[4]==0x11 || LEFT){//Selecciono Regresar 
0A5E4:  MOVF   34,W
0A5E6:  SUBLW  11
0A5E8:  BZ    A5F0
0A5EA:  BSF    F93.3
0A5EC:  BTFSC  F81.3
0A5EE:  BRA    A708
....................             printf("page MenuPrincipal"); 
0A5F0:  MOVLW  90
0A5F2:  MOVWF  FF6
0A5F4:  MOVLW  0E
0A5F6:  MOVWF  FF7
0A5F8:  MOVLW  00
0A5FA:  MOVWF  FF8
0A5FC:  MOVLB  0
0A5FE:  CALL   38BE
....................             SendDataDisplay();   
0A602:  CALL   38F0
....................             PantallaPrincipal=0; 
0A606:  MOVLB  2
0A608:  CLRF   xDD
....................             Op=OFF; 
0A60A:  MOVLB  0
0A60C:  BCF    xA2.0
....................             Op2=OFF; 
0A60E:  BCF    xA2.1
....................              
....................             if(esBisiesto(YearTx)) 
0A610:  MOVFF  3A5,43F
0A614:  CALL   4CFE
0A618:  MOVF   01,F
0A61A:  BZ    A636
....................                Modulo=Bisiesto[MesTx]; 
0A61C:  CLRF   03
0A61E:  MOVLB  3
0A620:  MOVF   xA6,W
0A622:  ADDLW  93
0A624:  MOVWF  FE9
0A626:  MOVLW  00
0A628:  ADDWFC 03,W
0A62A:  MOVWF  FEA
0A62C:  MOVFF  FEF,2DF
0A630:  MOVLB  2
....................             else 
0A632:  BRA    A64C
0A634:  MOVLB  0
....................                Modulo=Regular[MesTx]; 
0A636:  CLRF   03
0A638:  MOVLB  3
0A63A:  MOVF   xA6,W
0A63C:  ADDLW  87
0A63E:  MOVWF  FE9
0A640:  MOVLW  00
0A642:  ADDWFC 03,W
0A644:  MOVWF  FEA
0A646:  MOVFF  FEF,2DF
0A64A:  MOVLB  2
....................           
....................             dowTx=((YearTx-1)%7+((YearTx-1)/4-3*((YearTx-1)/100+1)/4)%7+Modulo+DiaTx%7)%7; 
0A64C:  MOVLW  01
0A64E:  MOVLB  3
0A650:  SUBWF  xA5,W
0A652:  MOVLB  4
0A654:  MOVWF  x40
0A656:  MOVWF  x49
0A658:  MOVLW  07
0A65A:  MOVWF  x4A
0A65C:  MOVLB  0
0A65E:  CALL   487C
0A662:  MOVFF  00,43F
0A666:  MOVLW  01
0A668:  MOVLB  3
0A66A:  SUBWF  xA5,W
0A66C:  MOVWF  00
0A66E:  RRCF   00,W
0A670:  MOVLB  4
0A672:  MOVWF  x40
0A674:  RRCF   x40,F
0A676:  MOVLW  3F
0A678:  ANDWF  x40,F
0A67A:  MOVLW  01
0A67C:  MOVLB  3
0A67E:  SUBWF  xA5,W
0A680:  MOVLB  4
0A682:  MOVWF  x42
0A684:  MOVWF  x49
0A686:  MOVLW  64
0A688:  MOVWF  x4A
0A68A:  MOVLB  0
0A68C:  CALL   487C
0A690:  MOVLW  01
0A692:  ADDWF  01,W
0A694:  MULLW  03
0A696:  MOVFF  FF3,00
0A69A:  RRCF   00,F
0A69C:  RRCF   00,F
0A69E:  MOVLW  3F
0A6A0:  ANDWF  00,F
0A6A2:  MOVF   00,W
0A6A4:  MOVLB  4
0A6A6:  SUBWF  x40,W
0A6A8:  MOVWF  x41
0A6AA:  MOVWF  x49
0A6AC:  MOVLW  07
0A6AE:  MOVWF  x4A
0A6B0:  MOVLB  0
0A6B2:  CALL   487C
0A6B6:  MOVF   00,W
0A6B8:  MOVLB  4
0A6BA:  ADDWF  x3F,W
0A6BC:  MOVLB  2
0A6BE:  ADDWF  xDF,W
0A6C0:  MOVLB  4
0A6C2:  MOVWF  x3F
0A6C4:  MOVFF  3A7,449
0A6C8:  MOVLW  07
0A6CA:  MOVWF  x4A
0A6CC:  MOVLB  0
0A6CE:  CALL   487C
0A6D2:  MOVF   00,W
0A6D4:  MOVLB  4
0A6D6:  ADDWF  x3F,W
0A6D8:  MOVWF  x40
0A6DA:  MOVWF  x49
0A6DC:  MOVLW  07
0A6DE:  MOVWF  x4A
0A6E0:  MOVLB  0
0A6E2:  CALL   487C
0A6E6:  MOVFF  00,3AB
....................             rtc_set_datetime(DiaTx,MesTx,YearTx,dowTx,HoraTx,MinutoTx); 
0A6EA:  MOVFF  3A7,43F
0A6EE:  MOVFF  3A6,440
0A6F2:  MOVFF  3A5,441
0A6F6:  MOVFF  3AB,442
0A6FA:  MOVFF  3A8,443
0A6FE:  MOVFF  3A9,444
0A702:  GOTO   4D80
0A706:  MOVLB  3
....................          } 
....................           
....................          if((RX_Buffer[4]==0x2a)|| UP){//Tecla Arriba Oprimida 
0A708:  MOVF   34,W
0A70A:  SUBLW  2A
0A70C:  BZ    A714
0A70E:  BSF    F93.0
0A710:  BTFSC  F81.0
0A712:  BRA    A812
....................             delay_ms(200); 
0A714:  MOVLW  C8
0A716:  MOVLB  4
0A718:  MOVWF  x54
0A71A:  MOVLB  0
0A71C:  CALL   1A84
....................             if((RX_Buffer[4]==0x2a)|| UP){    
0A720:  MOVF   34,W
0A722:  SUBLW  2A
0A724:  BZ    A72C
0A726:  BSF    F93.0
0A728:  BTFSC  F81.0
0A72A:  BRA    A814
....................                if(Opcion==1){ 
0A72C:  MOVLB  3
0A72E:  DECFSZ x66,W
0A730:  BRA    A7BE
....................                   if(MesTx==2){ 
0A732:  MOVF   xA6,W
0A734:  SUBLW  02
0A736:  BNZ   A76C
....................                      if(esBisiesto(YearTx)){ 
0A738:  MOVFF  3A5,43F
0A73C:  MOVLB  0
0A73E:  CALL   4CFE
0A742:  MOVF   01,F
0A744:  BZ    A75A
....................                         if(DiaTx<29) 
0A746:  MOVLB  3
0A748:  MOVF   xA7,W
0A74A:  SUBLW  1C
0A74C:  BNC   A752
....................                            DiaTx++; 
0A74E:  INCF   xA7,F
....................                         else 
0A750:  BRA    A756
....................                            DiaTx=1;    
0A752:  MOVLW  01
0A754:  MOVWF  xA7
....................                      }else{ 
0A756:  BRA    A76A
0A758:  MOVLB  0
....................                         if(DiaTx<28) 
0A75A:  MOVLB  3
0A75C:  MOVF   xA7,W
0A75E:  SUBLW  1B
0A760:  BNC   A766
....................                            DiaTx++; 
0A762:  INCF   xA7,F
....................                         else 
0A764:  BRA    A76A
....................                            DiaTx=1;    
0A766:  MOVLW  01
0A768:  MOVWF  xA7
....................                      } 
....................                   }else{ 
0A76A:  BRA    A7BC
....................                      if(MesTx<=7){ 
0A76C:  MOVF   xA6,W
0A76E:  SUBLW  07
0A770:  BNC   A798
....................                         if(MesTx % 2 ==0){ 
0A772:  MOVF   xA6,W
0A774:  ANDLW  01
0A776:  BNZ   A788
....................                            if(DiaTx<30) 
0A778:  MOVF   xA7,W
0A77A:  SUBLW  1D
0A77C:  BNC   A782
....................                               DiaTx++;     
0A77E:  INCF   xA7,F
....................                            else 
0A780:  BRA    A786
....................                               DiaTx=1;    
0A782:  MOVLW  01
0A784:  MOVWF  xA7
....................                         }else{ 
0A786:  BRA    A796
....................                            if(DiaTx<31) 
0A788:  MOVF   xA7,W
0A78A:  SUBLW  1E
0A78C:  BNC   A792
....................                               DiaTx++;     
0A78E:  INCF   xA7,F
....................                            else 
0A790:  BRA    A796
....................                               DiaTx=1;    
0A792:  MOVLW  01
0A794:  MOVWF  xA7
....................                         }     
....................                      }else{ 
0A796:  BRA    A7BC
....................                         if(MesTx % 2 ==0){ 
0A798:  MOVF   xA6,W
0A79A:  ANDLW  01
0A79C:  BNZ   A7AE
....................                            if(DiaTx<31) 
0A79E:  MOVF   xA7,W
0A7A0:  SUBLW  1E
0A7A2:  BNC   A7A8
....................                               DiaTx++;   
0A7A4:  INCF   xA7,F
....................                            else 
0A7A6:  BRA    A7AC
....................                               DiaTx=1; 
0A7A8:  MOVLW  01
0A7AA:  MOVWF  xA7
....................                         }else{ 
0A7AC:  BRA    A7BC
....................                            if(DiaTx<30) 
0A7AE:  MOVF   xA7,W
0A7B0:  SUBLW  1D
0A7B2:  BNC   A7B8
....................                               DiaTx++;     
0A7B4:  INCF   xA7,F
....................                            else 
0A7B6:  BRA    A7BC
....................                               DiaTx=1; 
0A7B8:  MOVLW  01
0A7BA:  MOVWF  xA7
....................                         }     
....................                      } 
....................                   } 
....................                }else if(Opcion==2){ 
0A7BC:  BRA    A80E
0A7BE:  MOVF   x66,W
0A7C0:  SUBLW  02
0A7C2:  BNZ   A7D4
....................                   if(MesTx<12) 
0A7C4:  MOVF   xA6,W
0A7C6:  SUBLW  0B
0A7C8:  BNC   A7CE
....................                      MesTx++; 
0A7CA:  INCF   xA6,F
....................                   else 
0A7CC:  BRA    A7D2
....................                      MesTx=1; 
0A7CE:  MOVLW  01
0A7D0:  MOVWF  xA6
....................                }else if(Opcion==3){ 
0A7D2:  BRA    A80E
0A7D4:  MOVF   x66,W
0A7D6:  SUBLW  03
0A7D8:  BNZ   A7E8
....................                   if(YearTx<99) 
0A7DA:  MOVF   xA5,W
0A7DC:  SUBLW  62
0A7DE:  BNC   A7E4
....................                      YearTx++; 
0A7E0:  INCF   xA5,F
....................                   else  
0A7E2:  BRA    A7E6
....................                      YearTx=0; 
0A7E4:  CLRF   xA5
....................                }else if(Opcion==4){ 
0A7E6:  BRA    A80E
0A7E8:  MOVF   x66,W
0A7EA:  SUBLW  04
0A7EC:  BNZ   A7FC
....................                   if(HoraTx<24) 
0A7EE:  MOVF   xA8,W
0A7F0:  SUBLW  17
0A7F2:  BNC   A7F8
....................                      HoraTx++; 
0A7F4:  INCF   xA8,F
....................                   else 
0A7F6:  BRA    A7FA
....................                      HoraTx=0; 
0A7F8:  CLRF   xA8
....................                }else if(Opcion==5){ 
0A7FA:  BRA    A80E
0A7FC:  MOVF   x66,W
0A7FE:  SUBLW  05
0A800:  BNZ   A80E
....................                   if(MinutoTx<59) 
0A802:  MOVF   xA9,W
0A804:  SUBLW  3A
0A806:  BNC   A80C
....................                      MinutoTx++; 
0A808:  INCF   xA9,F
....................                   else 
0A80A:  BRA    A80E
....................                      MinutoTx=0; 
0A80C:  CLRF   xA9
....................                } 
....................                RX_Buffer[4]=0x00; 
0A80E:  CLRF   34
....................                RX_Buffer2[4]=0x00; 
0A810:  CLRF   3F
0A812:  MOVLB  0
....................             } 
....................          } 
....................           
....................          if(RX_Buffer[4]==0x2b || DOWN){//Tecla Abajo Oprimida 
0A814:  MOVF   34,W
0A816:  SUBLW  2B
0A818:  BZ    A820
0A81A:  BSF    F93.1
0A81C:  BTFSC  F81.1
0A81E:  BRA    A89C
....................             delay_ms(200); 
0A820:  MOVLW  C8
0A822:  MOVLB  4
0A824:  MOVWF  x54
0A826:  MOVLB  0
0A828:  CALL   1A84
....................             if(RX_Buffer[4]==0x2b || DOWN){    
0A82C:  MOVF   34,W
0A82E:  SUBLW  2B
0A830:  BZ    A838
0A832:  BSF    F93.1
0A834:  BTFSC  F81.1
0A836:  BRA    A89C
....................                if(Opcion==1){ 
0A838:  MOVLB  3
0A83A:  DECFSZ x66,W
0A83C:  BRA    A846
....................                   if(DiaTx>0) 
0A83E:  MOVF   xA7,F
0A840:  BZ    A844
....................                      DiaTx--; 
0A842:  DECF   xA7,F
....................                }else if(Opcion==2){ 
0A844:  BRA    A896
0A846:  MOVF   x66,W
0A848:  SUBLW  02
0A84A:  BNZ   A85C
....................                   if(MesTx>1) 
0A84C:  MOVF   xA6,W
0A84E:  SUBLW  01
0A850:  BC    A856
....................                      MesTx--; 
0A852:  DECF   xA6,F
....................                   else 
0A854:  BRA    A85A
....................                      MesTx=12; 
0A856:  MOVLW  0C
0A858:  MOVWF  xA6
....................                }else if(Opcion==3){ 
0A85A:  BRA    A896
0A85C:  MOVF   x66,W
0A85E:  SUBLW  03
0A860:  BNZ   A870
....................                   if(YearTx>0) 
0A862:  MOVF   xA5,F
0A864:  BZ    A86A
....................                      YearTx--; 
0A866:  DECF   xA5,F
....................                   else 
0A868:  BRA    A86E
....................                      YearTx=99; 
0A86A:  MOVLW  63
0A86C:  MOVWF  xA5
....................                }else if(Opcion==4){ 
0A86E:  BRA    A896
0A870:  MOVF   x66,W
0A872:  SUBLW  04
0A874:  BNZ   A884
....................                   if(HoraTx>0) 
0A876:  MOVF   xA8,F
0A878:  BZ    A87E
....................                      HoraTx--; 
0A87A:  DECF   xA8,F
....................                   else 
0A87C:  BRA    A882
....................                      HoraTx=23; 
0A87E:  MOVLW  17
0A880:  MOVWF  xA8
....................                }else if(Opcion==5){ 
0A882:  BRA    A896
0A884:  MOVF   x66,W
0A886:  SUBLW  05
0A888:  BNZ   A896
....................                   if(MinutoTx>0) 
0A88A:  MOVF   xA9,F
0A88C:  BZ    A892
....................                      MinutoTx--; 
0A88E:  DECF   xA9,F
....................                   else 
0A890:  BRA    A896
....................                      MinutoTx=59; 
0A892:  MOVLW  3B
0A894:  MOVWF  xA9
....................                } 
....................                RX_Buffer[4]=0x00; 
0A896:  CLRF   34
....................                RX_Buffer2[4]=0x00; 
0A898:  CLRF   3F
0A89A:  MOVLB  0
....................             } 
....................          } 
....................        
....................       printf("thora.txt=\"%02u\"",HoraTx); 
0A89C:  MOVLW  A4
0A89E:  MOVWF  FF6
0A8A0:  MOVLW  0E
0A8A2:  MOVWF  FF7
0A8A4:  MOVLW  00
0A8A6:  MOVWF  FF8
0A8A8:  MOVLW  0B
0A8AA:  MOVLB  4
0A8AC:  MOVWF  x44
0A8AE:  MOVLB  0
0A8B0:  CALL   484A
0A8B4:  MOVFF  3A8,444
0A8B8:  MOVLW  01
0A8BA:  MOVLB  4
0A8BC:  MOVWF  x45
0A8BE:  MOVLB  0
0A8C0:  CALL   48A8
0A8C4:  MOVLW  22
0A8C6:  BTFSS  F9E.4
0A8C8:  BRA    A8C6
0A8CA:  MOVWF  FAD
....................       SendDataDisplay(); 
0A8CC:  CALL   38F0
....................       printf("tminutos.txt=\"%02u\"",MinutoTx); 
0A8D0:  MOVLW  B6
0A8D2:  MOVWF  FF6
0A8D4:  MOVLW  0E
0A8D6:  MOVWF  FF7
0A8D8:  MOVLW  00
0A8DA:  MOVWF  FF8
0A8DC:  MOVLW  0E
0A8DE:  MOVLB  4
0A8E0:  MOVWF  x44
0A8E2:  MOVLB  0
0A8E4:  CALL   484A
0A8E8:  MOVFF  3A9,444
0A8EC:  MOVLW  01
0A8EE:  MOVLB  4
0A8F0:  MOVWF  x45
0A8F2:  MOVLB  0
0A8F4:  CALL   48A8
0A8F8:  MOVLW  22
0A8FA:  BTFSS  F9E.4
0A8FC:  BRA    A8FA
0A8FE:  MOVWF  FAD
....................       SendDataDisplay(); 
0A900:  CALL   38F0
....................       printf("tdia.txt=\"%02u\"",DiaTx); 
0A904:  MOVLW  CA
0A906:  MOVWF  FF6
0A908:  MOVLW  0E
0A90A:  MOVWF  FF7
0A90C:  MOVLW  00
0A90E:  MOVWF  FF8
0A910:  MOVLW  0A
0A912:  MOVLB  4
0A914:  MOVWF  x44
0A916:  MOVLB  0
0A918:  CALL   484A
0A91C:  MOVFF  3A7,444
0A920:  MOVLW  01
0A922:  MOVLB  4
0A924:  MOVWF  x45
0A926:  MOVLB  0
0A928:  CALL   48A8
0A92C:  MOVLW  22
0A92E:  BTFSS  F9E.4
0A930:  BRA    A92E
0A932:  MOVWF  FAD
....................       SendDataDisplay(); 
0A934:  CALL   38F0
....................       printf("tmes.txt=\"%02u\"",MesTx); 
0A938:  MOVLW  DA
0A93A:  MOVWF  FF6
0A93C:  MOVLW  0E
0A93E:  MOVWF  FF7
0A940:  MOVLW  00
0A942:  MOVWF  FF8
0A944:  MOVLW  0A
0A946:  MOVLB  4
0A948:  MOVWF  x44
0A94A:  MOVLB  0
0A94C:  CALL   484A
0A950:  MOVFF  3A6,444
0A954:  MOVLW  01
0A956:  MOVLB  4
0A958:  MOVWF  x45
0A95A:  MOVLB  0
0A95C:  CALL   48A8
0A960:  MOVLW  22
0A962:  BTFSS  F9E.4
0A964:  BRA    A962
0A966:  MOVWF  FAD
....................       SendDataDisplay(); 
0A968:  CALL   38F0
....................       printf("tyear.txt=\"%02u\"",YearTx); 
0A96C:  MOVLW  EA
0A96E:  MOVWF  FF6
0A970:  MOVLW  0E
0A972:  MOVWF  FF7
0A974:  MOVLW  00
0A976:  MOVWF  FF8
0A978:  MOVLW  0B
0A97A:  MOVLB  4
0A97C:  MOVWF  x44
0A97E:  MOVLB  0
0A980:  CALL   484A
0A984:  MOVFF  3A5,444
0A988:  MOVLW  01
0A98A:  MOVLB  4
0A98C:  MOVWF  x45
0A98E:  MOVLB  0
0A990:  CALL   48A8
0A994:  MOVLW  22
0A996:  BTFSS  F9E.4
0A998:  BRA    A996
0A99A:  MOVWF  FAD
....................       SendDataDisplay(); 
0A99C:  CALL   38F0
....................       LimitaDia();   
0A9A0:  GOTO   4E3C
0A9A4:  MOVLB  3
....................     } 
.................... //_--------------------------------------------------------------------------------------------------------------------------------------------------------        
....................  
.................... //_-------------------------------------------------------------------------------------------------------------------------------------------------------- 
....................    if(Menu==8){ //Menu Ciclos Personalizados 
0A9A6:  MOVF   x5E,W
0A9A8:  SUBLW  08
0A9AA:  BTFSS  FD8.2
0A9AC:  GOTO   B808
....................       printf("fecha.txt=\"T:%3.1fC Fecha:%02u/%02u/20%02u Hora: %02u:%02u:%02u\"",Temperatura,Dia,Mes,Year,Hora,Minuto,Segundo); 
0A9B0:  MOVLW  FC
0A9B2:  MOVWF  FF6
0A9B4:  MOVLW  0E
0A9B6:  MOVWF  FF7
0A9B8:  MOVLW  00
0A9BA:  MOVWF  FF8
0A9BC:  MOVLW  0D
0A9BE:  MOVLB  4
0A9C0:  MOVWF  x44
0A9C2:  MOVLB  0
0A9C4:  CALL   484A
0A9C8:  MOVLW  02
0A9CA:  MOVWF  FE9
0A9CC:  MOVFF  32B,447
0A9D0:  MOVFF  32A,446
0A9D4:  MOVFF  329,445
0A9D8:  MOVFF  328,444
0A9DC:  MOVLW  01
0A9DE:  MOVLB  4
0A9E0:  MOVWF  x48
0A9E2:  MOVLB  0
0A9E4:  CALL   49EA
0A9E8:  MOVLW  0E
0A9EA:  MOVWF  FF6
0A9EC:  MOVLW  0F
0A9EE:  MOVWF  FF7
0A9F0:  MOVLW  00
0A9F2:  MOVWF  FF8
0A9F4:  MOVLW  09
0A9F6:  MOVLB  4
0A9F8:  MOVWF  x44
0A9FA:  MOVLB  0
0A9FC:  CALL   484A
0AA00:  MOVFF  3A0,444
0AA04:  MOVLW  01
0AA06:  MOVLB  4
0AA08:  MOVWF  x45
0AA0A:  MOVLB  0
0AA0C:  CALL   48A8
0AA10:  MOVLW  2F
0AA12:  BTFSS  F9E.4
0AA14:  BRA    AA12
0AA16:  MOVWF  FAD
0AA18:  MOVFF  39F,444
0AA1C:  MOVLW  01
0AA1E:  MOVLB  4
0AA20:  MOVWF  x45
0AA22:  MOVLB  0
0AA24:  CALL   48A8
0AA28:  MOVLW  2F
0AA2A:  BTFSS  F9E.4
0AA2C:  BRA    AA2A
0AA2E:  MOVWF  FAD
0AA30:  MOVLW  32
0AA32:  BTFSS  F9E.4
0AA34:  BRA    AA32
0AA36:  MOVWF  FAD
0AA38:  MOVLW  30
0AA3A:  BTFSS  F9E.4
0AA3C:  BRA    AA3A
0AA3E:  MOVWF  FAD
0AA40:  MOVFF  39E,444
0AA44:  MOVLW  01
0AA46:  MOVLB  4
0AA48:  MOVWF  x45
0AA4A:  MOVLB  0
0AA4C:  CALL   48A8
0AA50:  MOVLW  27
0AA52:  MOVWF  FF6
0AA54:  MOVLW  0F
0AA56:  MOVWF  FF7
0AA58:  MOVLW  00
0AA5A:  MOVWF  FF8
0AA5C:  MOVLW  07
0AA5E:  MOVLB  4
0AA60:  MOVWF  x44
0AA62:  MOVLB  0
0AA64:  CALL   484A
0AA68:  MOVFF  3A1,444
0AA6C:  MOVLW  01
0AA6E:  MOVLB  4
0AA70:  MOVWF  x45
0AA72:  MOVLB  0
0AA74:  CALL   48A8
0AA78:  MOVLW  3A
0AA7A:  BTFSS  F9E.4
0AA7C:  BRA    AA7A
0AA7E:  MOVWF  FAD
0AA80:  MOVFF  3A2,444
0AA84:  MOVLW  01
0AA86:  MOVLB  4
0AA88:  MOVWF  x45
0AA8A:  MOVLB  0
0AA8C:  CALL   48A8
0AA90:  MOVLW  3A
0AA92:  BTFSS  F9E.4
0AA94:  BRA    AA92
0AA96:  MOVWF  FAD
0AA98:  MOVFF  3A3,444
0AA9C:  MOVLW  01
0AA9E:  MOVLB  4
0AAA0:  MOVWF  x45
0AAA2:  MOVLB  0
0AAA4:  CALL   48A8
0AAA8:  MOVLW  22
0AAAA:  BTFSS  F9E.4
0AAAC:  BRA    AAAA
0AAAE:  MOVWF  FAD
....................       SendDataDisplay(); 
0AAB0:  CALL   38F0
....................       GuardaEEPROM=OFF; 
0AAB4:  BCF    xA2.4
....................        
....................       if(RX_Buffer[4]>0x00 && RX_Buffer[4]<0x04){//Personalizados 
0AAB6:  MOVF   34,F
0AAB8:  BTFSC  FD8.2
0AABA:  BRA    ACE8
0AABC:  MOVF   34,W
0AABE:  SUBLW  03
0AAC0:  BTFSS  FD8.0
0AAC2:  BRA    ACE8
....................          printf("ciclo.txt=\"CICLO P%02u\"",RX_Buffer[4]+0x04); 
0AAC4:  MOVLW  04
0AAC6:  ADDWF  34,W
0AAC8:  MOVLB  4
0AACA:  MOVWF  x3F
0AACC:  MOVLW  3E
0AACE:  MOVWF  FF6
0AAD0:  MOVLW  0F
0AAD2:  MOVWF  FF7
0AAD4:  MOVLW  00
0AAD6:  MOVWF  FF8
0AAD8:  MOVLW  12
0AADA:  MOVWF  x44
0AADC:  MOVLB  0
0AADE:  CALL   484A
0AAE2:  MOVFF  43F,444
0AAE6:  MOVLW  01
0AAE8:  MOVLB  4
0AAEA:  MOVWF  x45
0AAEC:  MOVLB  0
0AAEE:  CALL   48A8
0AAF2:  MOVLW  22
0AAF4:  BTFSS  F9E.4
0AAF6:  BRA    AAF4
0AAF8:  MOVWF  FAD
....................          SendDataDisplay();           
0AAFA:  CALL   38F0
....................          printf("temp.txt=\"%u\"",CiclosPersonalizados[RX_Buffer[4]-1].Temperatura); 
0AAFE:  MOVLW  01
0AB00:  SUBWF  34,W
0AB02:  MULLW  0A
0AB04:  MOVF   FF3,W
0AB06:  MOVLB  4
0AB08:  CLRF   x40
0AB0A:  MOVWF  x3F
0AB0C:  MOVLW  17
0AB0E:  ADDWF  x3F,W
0AB10:  MOVWF  FE9
0AB12:  MOVLW  04
0AB14:  ADDWFC x40,W
0AB16:  MOVWF  FEA
0AB18:  MOVFF  FEF,43F
0AB1C:  MOVLW  56
0AB1E:  MOVWF  FF6
0AB20:  MOVLW  0F
0AB22:  MOVWF  FF7
0AB24:  MOVLW  00
0AB26:  MOVWF  FF8
0AB28:  MOVLW  0A
0AB2A:  MOVWF  x44
0AB2C:  MOVLB  0
0AB2E:  CALL   484A
0AB32:  MOVFF  43F,444
0AB36:  MOVLW  1B
0AB38:  MOVLB  4
0AB3A:  MOVWF  x45
0AB3C:  MOVLB  0
0AB3E:  CALL   48A8
0AB42:  MOVLW  22
0AB44:  BTFSS  F9E.4
0AB46:  BRA    AB44
0AB48:  MOVWF  FAD
....................          SendDataDisplay(); 
0AB4A:  CALL   38F0
....................          printf("test.txt=\"%02u:%02u\"",CiclosPersonalizados[RX_Buffer[4]-1].Minutoest,CiclosPersonalizados[RX_Buffer[4]-1].Segundoest); 
0AB4E:  MOVLW  01
0AB50:  SUBWF  34,W
0AB52:  MULLW  0A
0AB54:  MOVF   FF3,W
0AB56:  MOVLB  4
0AB58:  CLRF   x40
0AB5A:  MOVWF  x3F
0AB5C:  MOVLW  09
0AB5E:  ADDWF  x3F,W
0AB60:  MOVWF  01
0AB62:  MOVLW  00
0AB64:  ADDWFC x40,W
0AB66:  MOVWF  03
0AB68:  MOVF   01,W
0AB6A:  ADDLW  17
0AB6C:  MOVWF  FE9
0AB6E:  MOVLW  04
0AB70:  ADDWFC 03,W
0AB72:  MOVWF  FEA
0AB74:  MOVFF  FEF,43F
0AB78:  MOVLW  01
0AB7A:  SUBWF  34,W
0AB7C:  MULLW  0A
0AB7E:  MOVF   FF3,W
0AB80:  CLRF   x41
0AB82:  MOVWF  x40
0AB84:  MOVLW  03
0AB86:  ADDWF  x40,W
0AB88:  MOVWF  01
0AB8A:  MOVLW  00
0AB8C:  ADDWFC x41,W
0AB8E:  MOVWF  03
0AB90:  MOVF   01,W
0AB92:  ADDLW  17
0AB94:  MOVWF  FE9
0AB96:  MOVLW  04
0AB98:  ADDWFC 03,W
0AB9A:  MOVWF  FEA
0AB9C:  MOVFF  FEF,440
0ABA0:  MOVLW  64
0ABA2:  MOVWF  FF6
0ABA4:  MOVLW  0F
0ABA6:  MOVWF  FF7
0ABA8:  MOVLW  00
0ABAA:  MOVWF  FF8
0ABAC:  MOVLW  0A
0ABAE:  MOVWF  x44
0ABB0:  MOVLB  0
0ABB2:  CALL   484A
0ABB6:  MOVFF  43F,444
0ABBA:  MOVLW  01
0ABBC:  MOVLB  4
0ABBE:  MOVWF  x45
0ABC0:  MOVLB  0
0ABC2:  CALL   48A8
0ABC6:  MOVLW  3A
0ABC8:  BTFSS  F9E.4
0ABCA:  BRA    ABC8
0ABCC:  MOVWF  FAD
0ABCE:  MOVFF  440,444
0ABD2:  MOVLW  01
0ABD4:  MOVLB  4
0ABD6:  MOVWF  x45
0ABD8:  MOVLB  0
0ABDA:  CALL   48A8
0ABDE:  MOVLW  22
0ABE0:  BTFSS  F9E.4
0ABE2:  BRA    ABE0
0ABE4:  MOVWF  FAD
....................          SendDataDisplay(); 
0ABE6:  CALL   38F0
....................          printf("tsec.txt=\"%02u:%02u\"",CiclosPersonalizados[RX_Buffer[4]-1].Minutosec,CiclosPersonalizados[RX_Buffer[4]-1].Segundosec); 
0ABEA:  MOVLW  01
0ABEC:  SUBWF  34,W
0ABEE:  MULLW  0A
0ABF0:  MOVF   FF3,W
0ABF2:  MOVLB  4
0ABF4:  CLRF   x40
0ABF6:  MOVWF  x3F
0ABF8:  MOVLW  04
0ABFA:  ADDWF  x3F,W
0ABFC:  MOVWF  01
0ABFE:  MOVLW  00
0AC00:  ADDWFC x40,W
0AC02:  MOVWF  03
0AC04:  MOVF   01,W
0AC06:  ADDLW  17
0AC08:  MOVWF  FE9
0AC0A:  MOVLW  04
0AC0C:  ADDWFC 03,W
0AC0E:  MOVWF  FEA
0AC10:  MOVFF  FEF,43F
0AC14:  MOVLW  01
0AC16:  SUBWF  34,W
0AC18:  MULLW  0A
0AC1A:  MOVF   FF3,W
0AC1C:  CLRF   x41
0AC1E:  MOVWF  x40
0AC20:  MOVLW  05
0AC22:  ADDWF  x40,W
0AC24:  MOVWF  01
0AC26:  MOVLW  00
0AC28:  ADDWFC x41,W
0AC2A:  MOVWF  03
0AC2C:  MOVF   01,W
0AC2E:  ADDLW  17
0AC30:  MOVWF  FE9
0AC32:  MOVLW  04
0AC34:  ADDWFC 03,W
0AC36:  MOVWF  FEA
0AC38:  MOVFF  FEF,440
0AC3C:  MOVLW  7A
0AC3E:  MOVWF  FF6
0AC40:  MOVLW  0F
0AC42:  MOVWF  FF7
0AC44:  MOVLW  00
0AC46:  MOVWF  FF8
0AC48:  MOVLW  0A
0AC4A:  MOVWF  x44
0AC4C:  MOVLB  0
0AC4E:  CALL   484A
0AC52:  MOVFF  43F,444
0AC56:  MOVLW  01
0AC58:  MOVLB  4
0AC5A:  MOVWF  x45
0AC5C:  MOVLB  0
0AC5E:  CALL   48A8
0AC62:  MOVLW  3A
0AC64:  BTFSS  F9E.4
0AC66:  BRA    AC64
0AC68:  MOVWF  FAD
0AC6A:  MOVFF  440,444
0AC6E:  MOVLW  01
0AC70:  MOVLB  4
0AC72:  MOVWF  x45
0AC74:  MOVLB  0
0AC76:  CALL   48A8
0AC7A:  MOVLW  22
0AC7C:  BTFSS  F9E.4
0AC7E:  BRA    AC7C
0AC80:  MOVWF  FAD
....................          SendDataDisplay(); 
0AC82:  CALL   38F0
....................          printf("desfogue.txt=\"%u\"",CiclosPersonalizados[RX_Buffer[4]-1].NivelDesfogue); 
0AC86:  MOVLW  01
0AC88:  SUBWF  34,W
0AC8A:  MULLW  0A
0AC8C:  MOVF   FF3,W
0AC8E:  MOVLB  4
0AC90:  CLRF   x40
0AC92:  MOVWF  x3F
0AC94:  MOVLW  08
0AC96:  ADDWF  x3F,W
0AC98:  MOVWF  01
0AC9A:  MOVLW  00
0AC9C:  ADDWFC x40,W
0AC9E:  MOVWF  03
0ACA0:  MOVF   01,W
0ACA2:  ADDLW  17
0ACA4:  MOVWF  FE9
0ACA6:  MOVLW  04
0ACA8:  ADDWFC 03,W
0ACAA:  MOVWF  FEA
0ACAC:  MOVFF  FEF,43F
0ACB0:  MOVLW  90
0ACB2:  MOVWF  FF6
0ACB4:  MOVLW  0F
0ACB6:  MOVWF  FF7
0ACB8:  MOVLW  00
0ACBA:  MOVWF  FF8
0ACBC:  MOVLW  0E
0ACBE:  MOVWF  x44
0ACC0:  MOVLB  0
0ACC2:  CALL   484A
0ACC6:  MOVFF  43F,444
0ACCA:  MOVLW  1B
0ACCC:  MOVLB  4
0ACCE:  MOVWF  x45
0ACD0:  MOVLB  0
0ACD2:  CALL   48A8
0ACD6:  MOVLW  22
0ACD8:  BTFSS  F9E.4
0ACDA:  BRA    ACD8
0ACDC:  MOVWF  FAD
....................          SendDataDisplay(); 
0ACDE:  CALL   38F0
....................          CicloLibre=RX_Buffer[4]; 
0ACE2:  MOVFF  34,33E
....................       }else if(CicloLibre==0x00){ 
0ACE6:  BRA    AF94
0ACE8:  MOVLB  3
0ACEA:  MOVF   x3E,F
0ACEC:  BNZ   AD58
....................          printf("ciclo.txt=\"CICLO P--\""); 
0ACEE:  MOVLW  A2
0ACF0:  MOVWF  FF6
0ACF2:  MOVLW  0F
0ACF4:  MOVWF  FF7
0ACF6:  MOVLW  00
0ACF8:  MOVWF  FF8
0ACFA:  MOVLB  0
0ACFC:  CALL   38BE
....................          SendDataDisplay();           
0AD00:  CALL   38F0
....................          printf("temp.txt=\"--\""); 
0AD04:  MOVLW  B8
0AD06:  MOVWF  FF6
0AD08:  MOVLW  0F
0AD0A:  MOVWF  FF7
0AD0C:  MOVLW  00
0AD0E:  MOVWF  FF8
0AD10:  CALL   38BE
....................          SendDataDisplay(); 
0AD14:  CALL   38F0
....................          printf("test.txt=\"--:--\""); 
0AD18:  MOVLW  C6
0AD1A:  MOVWF  FF6
0AD1C:  MOVLW  0F
0AD1E:  MOVWF  FF7
0AD20:  MOVLW  00
0AD22:  MOVWF  FF8
0AD24:  CALL   38BE
....................          SendDataDisplay(); 
0AD28:  CALL   38F0
....................          printf("tsec.txt=\"--:--\""); 
0AD2C:  MOVLW  D8
0AD2E:  MOVWF  FF6
0AD30:  MOVLW  0F
0AD32:  MOVWF  FF7
0AD34:  MOVLW  00
0AD36:  MOVWF  FF8
0AD38:  CALL   38BE
....................          SendDataDisplay(); 
0AD3C:  CALL   38F0
....................          printf("desfogue.txt=\"--\""); 
0AD40:  MOVLW  EA
0AD42:  MOVWF  FF6
0AD44:  MOVLW  0F
0AD46:  MOVWF  FF7
0AD48:  MOVLW  00
0AD4A:  MOVWF  FF8
0AD4C:  CALL   38BE
....................          SendDataDisplay(); 
0AD50:  CALL   38F0
....................       }else if(CicloLibre>0 && CicloLibre<4){ 
0AD54:  BRA    AF94
0AD56:  MOVLB  3
0AD58:  MOVF   x3E,F
0AD5A:  BTFSC  FD8.2
0AD5C:  BRA    AF96
0AD5E:  MOVF   x3E,W
0AD60:  SUBLW  03
0AD62:  BTFSS  FD8.0
0AD64:  BRA    AF96
....................          printf("ciclo.txt=\"CICLO P%02u\"",CicloLibre+0x04); 
0AD66:  MOVLW  04
0AD68:  ADDWF  x3E,W
0AD6A:  MOVLB  4
0AD6C:  MOVWF  x3F
0AD6E:  MOVLW  FC
0AD70:  MOVWF  FF6
0AD72:  MOVLW  0F
0AD74:  MOVWF  FF7
0AD76:  MOVLW  00
0AD78:  MOVWF  FF8
0AD7A:  MOVLW  12
0AD7C:  MOVWF  x44
0AD7E:  MOVLB  0
0AD80:  CALL   484A
0AD84:  MOVFF  43F,444
0AD88:  MOVLW  01
0AD8A:  MOVLB  4
0AD8C:  MOVWF  x45
0AD8E:  MOVLB  0
0AD90:  CALL   48A8
0AD94:  MOVLW  22
0AD96:  BTFSS  F9E.4
0AD98:  BRA    AD96
0AD9A:  MOVWF  FAD
....................          SendDataDisplay();           
0AD9C:  CALL   38F0
....................          printf("temp.txt=\"%u\"",CiclosPersonalizados[CicloLibre-1].Temperatura); 
0ADA0:  MOVLW  01
0ADA2:  MOVLB  3
0ADA4:  SUBWF  x3E,W
0ADA6:  MULLW  0A
0ADA8:  MOVF   FF3,W
0ADAA:  MOVLB  4
0ADAC:  CLRF   x40
0ADAE:  MOVWF  x3F
0ADB0:  MOVLW  17
0ADB2:  ADDWF  x3F,W
0ADB4:  MOVWF  FE9
0ADB6:  MOVLW  04
0ADB8:  ADDWFC x40,W
0ADBA:  MOVWF  FEA
0ADBC:  MOVFF  FEF,43F
0ADC0:  MOVLW  14
0ADC2:  MOVWF  FF6
0ADC4:  MOVLW  10
0ADC6:  MOVWF  FF7
0ADC8:  MOVLW  00
0ADCA:  MOVWF  FF8
0ADCC:  MOVLW  0A
0ADCE:  MOVWF  x44
0ADD0:  MOVLB  0
0ADD2:  CALL   484A
0ADD6:  MOVFF  43F,444
0ADDA:  MOVLW  1B
0ADDC:  MOVLB  4
0ADDE:  MOVWF  x45
0ADE0:  MOVLB  0
0ADE2:  CALL   48A8
0ADE6:  MOVLW  22
0ADE8:  BTFSS  F9E.4
0ADEA:  BRA    ADE8
0ADEC:  MOVWF  FAD
....................          SendDataDisplay(); 
0ADEE:  CALL   38F0
....................          printf("test.txt=\"%02u:%02u\"",CiclosPersonalizados[CicloLibre-1].Minutoest,CiclosPersonalizados[CicloLibre-1].Segundoest); 
0ADF2:  MOVLW  01
0ADF4:  MOVLB  3
0ADF6:  SUBWF  x3E,W
0ADF8:  MULLW  0A
0ADFA:  MOVF   FF3,W
0ADFC:  MOVLB  4
0ADFE:  CLRF   x40
0AE00:  MOVWF  x3F
0AE02:  MOVLW  09
0AE04:  ADDWF  x3F,W
0AE06:  MOVWF  01
0AE08:  MOVLW  00
0AE0A:  ADDWFC x40,W
0AE0C:  MOVWF  03
0AE0E:  MOVF   01,W
0AE10:  ADDLW  17
0AE12:  MOVWF  FE9
0AE14:  MOVLW  04
0AE16:  ADDWFC 03,W
0AE18:  MOVWF  FEA
0AE1A:  MOVFF  FEF,43F
0AE1E:  MOVLW  01
0AE20:  MOVLB  3
0AE22:  SUBWF  x3E,W
0AE24:  MULLW  0A
0AE26:  MOVF   FF3,W
0AE28:  MOVLB  4
0AE2A:  CLRF   x41
0AE2C:  MOVWF  x40
0AE2E:  MOVLW  03
0AE30:  ADDWF  x40,W
0AE32:  MOVWF  01
0AE34:  MOVLW  00
0AE36:  ADDWFC x41,W
0AE38:  MOVWF  03
0AE3A:  MOVF   01,W
0AE3C:  ADDLW  17
0AE3E:  MOVWF  FE9
0AE40:  MOVLW  04
0AE42:  ADDWFC 03,W
0AE44:  MOVWF  FEA
0AE46:  MOVFF  FEF,440
0AE4A:  MOVLW  22
0AE4C:  MOVWF  FF6
0AE4E:  MOVLW  10
0AE50:  MOVWF  FF7
0AE52:  MOVLW  00
0AE54:  MOVWF  FF8
0AE56:  MOVLW  0A
0AE58:  MOVWF  x44
0AE5A:  MOVLB  0
0AE5C:  CALL   484A
0AE60:  MOVFF  43F,444
0AE64:  MOVLW  01
0AE66:  MOVLB  4
0AE68:  MOVWF  x45
0AE6A:  MOVLB  0
0AE6C:  CALL   48A8
0AE70:  MOVLW  3A
0AE72:  BTFSS  F9E.4
0AE74:  BRA    AE72
0AE76:  MOVWF  FAD
0AE78:  MOVFF  440,444
0AE7C:  MOVLW  01
0AE7E:  MOVLB  4
0AE80:  MOVWF  x45
0AE82:  MOVLB  0
0AE84:  CALL   48A8
0AE88:  MOVLW  22
0AE8A:  BTFSS  F9E.4
0AE8C:  BRA    AE8A
0AE8E:  MOVWF  FAD
....................          SendDataDisplay(); 
0AE90:  CALL   38F0
....................          printf("tsec.txt=\"%02u:%02u\"",CiclosPersonalizados[CicloLibre-1].Minutosec,CiclosPersonalizados[CicloLibre-1].Segundosec); 
0AE94:  MOVLW  01
0AE96:  MOVLB  3
0AE98:  SUBWF  x3E,W
0AE9A:  MULLW  0A
0AE9C:  MOVF   FF3,W
0AE9E:  MOVLB  4
0AEA0:  CLRF   x40
0AEA2:  MOVWF  x3F
0AEA4:  MOVLW  04
0AEA6:  ADDWF  x3F,W
0AEA8:  MOVWF  01
0AEAA:  MOVLW  00
0AEAC:  ADDWFC x40,W
0AEAE:  MOVWF  03
0AEB0:  MOVF   01,W
0AEB2:  ADDLW  17
0AEB4:  MOVWF  FE9
0AEB6:  MOVLW  04
0AEB8:  ADDWFC 03,W
0AEBA:  MOVWF  FEA
0AEBC:  MOVFF  FEF,43F
0AEC0:  MOVLW  01
0AEC2:  MOVLB  3
0AEC4:  SUBWF  x3E,W
0AEC6:  MULLW  0A
0AEC8:  MOVF   FF3,W
0AECA:  MOVLB  4
0AECC:  CLRF   x41
0AECE:  MOVWF  x40
0AED0:  MOVLW  05
0AED2:  ADDWF  x40,W
0AED4:  MOVWF  01
0AED6:  MOVLW  00
0AED8:  ADDWFC x41,W
0AEDA:  MOVWF  03
0AEDC:  MOVF   01,W
0AEDE:  ADDLW  17
0AEE0:  MOVWF  FE9
0AEE2:  MOVLW  04
0AEE4:  ADDWFC 03,W
0AEE6:  MOVWF  FEA
0AEE8:  MOVFF  FEF,440
0AEEC:  MOVLW  38
0AEEE:  MOVWF  FF6
0AEF0:  MOVLW  10
0AEF2:  MOVWF  FF7
0AEF4:  MOVLW  00
0AEF6:  MOVWF  FF8
0AEF8:  MOVLW  0A
0AEFA:  MOVWF  x44
0AEFC:  MOVLB  0
0AEFE:  CALL   484A
0AF02:  MOVFF  43F,444
0AF06:  MOVLW  01
0AF08:  MOVLB  4
0AF0A:  MOVWF  x45
0AF0C:  MOVLB  0
0AF0E:  CALL   48A8
0AF12:  MOVLW  3A
0AF14:  BTFSS  F9E.4
0AF16:  BRA    AF14
0AF18:  MOVWF  FAD
0AF1A:  MOVFF  440,444
0AF1E:  MOVLW  01
0AF20:  MOVLB  4
0AF22:  MOVWF  x45
0AF24:  MOVLB  0
0AF26:  CALL   48A8
0AF2A:  MOVLW  22
0AF2C:  BTFSS  F9E.4
0AF2E:  BRA    AF2C
0AF30:  MOVWF  FAD
....................          SendDataDisplay(); 
0AF32:  CALL   38F0
....................          printf("desfogue.txt=\"%u\"",CiclosPersonalizados[CicloLibre-1].NivelDesfogue); 
0AF36:  MOVLW  01
0AF38:  MOVLB  3
0AF3A:  SUBWF  x3E,W
0AF3C:  MULLW  0A
0AF3E:  MOVF   FF3,W
0AF40:  MOVLB  4
0AF42:  CLRF   x40
0AF44:  MOVWF  x3F
0AF46:  MOVLW  08
0AF48:  ADDWF  x3F,W
0AF4A:  MOVWF  01
0AF4C:  MOVLW  00
0AF4E:  ADDWFC x40,W
0AF50:  MOVWF  03
0AF52:  MOVF   01,W
0AF54:  ADDLW  17
0AF56:  MOVWF  FE9
0AF58:  MOVLW  04
0AF5A:  ADDWFC 03,W
0AF5C:  MOVWF  FEA
0AF5E:  MOVFF  FEF,43F
0AF62:  MOVLW  4E
0AF64:  MOVWF  FF6
0AF66:  MOVLW  10
0AF68:  MOVWF  FF7
0AF6A:  MOVLW  00
0AF6C:  MOVWF  FF8
0AF6E:  MOVLW  0E
0AF70:  MOVWF  x44
0AF72:  MOVLB  0
0AF74:  CALL   484A
0AF78:  MOVFF  43F,444
0AF7C:  MOVLW  1B
0AF7E:  MOVLB  4
0AF80:  MOVWF  x45
0AF82:  MOVLB  0
0AF84:  CALL   48A8
0AF88:  MOVLW  22
0AF8A:  BTFSS  F9E.4
0AF8C:  BRA    AF8A
0AF8E:  MOVWF  FAD
....................          SendDataDisplay(); 
0AF90:  CALL   38F0
0AF94:  MOVLB  3
....................       } 
....................        
....................       if(RIGHT){ 
0AF96:  BSF    F93.2
0AF98:  BTFSC  F81.2
0AF9A:  BRA    AFB2
....................          delay_ms(100); 
0AF9C:  MOVLW  64
0AF9E:  MOVLB  4
0AFA0:  MOVWF  x54
0AFA2:  MOVLB  0
0AFA4:  CALL   1A84
....................          if(RIGHT){ 
0AFA8:  BSF    F93.2
0AFAA:  BTFSC  F81.2
0AFAC:  BRA    AFB4
....................             CicloLibre++; 
0AFAE:  MOVLB  3
0AFB0:  INCF   x3E,F
0AFB2:  MOVLB  0
....................          } 
....................       }       
....................        
....................       if(CicloLibre<1) 
0AFB4:  MOVLB  3
0AFB6:  MOVF   x3E,F
0AFB8:  BNZ   AFBE
....................          CicloLibre=1; 
0AFBA:  MOVLW  01
0AFBC:  MOVWF  x3E
....................       if(CicloLibre>4) 
0AFBE:  MOVF   x3E,W
0AFC0:  SUBLW  04
0AFC2:  BC    AFC8
....................          CicloLibre=4; 
0AFC4:  MOVLW  04
0AFC6:  MOVWF  x3E
....................        
....................       if(RX_Buffer[4]==0xa0 || LEFT){//a0, Menu Principal 
0AFC8:  MOVF   34,W
0AFCA:  SUBLW  A0
0AFCC:  BZ    AFD4
0AFCE:  BSF    F93.3
0AFD0:  BTFSC  F81.3
0AFD2:  BRA    B00C
....................          delay_ms(100); 
0AFD4:  MOVLW  64
0AFD6:  MOVLB  4
0AFD8:  MOVWF  x54
0AFDA:  MOVLB  0
0AFDC:  CALL   1A84
....................          if(RX_Buffer[4]==0xa0 || LEFT){ 
0AFE0:  MOVF   34,W
0AFE2:  SUBLW  A0
0AFE4:  BZ    AFEC
0AFE6:  BSF    F93.3
0AFE8:  BTFSC  F81.3
0AFEA:  BRA    B00A
....................             printf("page MenuPrincipal"); 
0AFEC:  MOVLW  60
0AFEE:  MOVWF  FF6
0AFF0:  MOVLW  10
0AFF2:  MOVWF  FF7
0AFF4:  MOVLW  00
0AFF6:  MOVWF  FF8
0AFF8:  CALL   38BE
....................             SendDataDisplay();      
0AFFC:  CALL   38F0
....................             PantallaPrincipal=0; 
0B000:  MOVLB  2
0B002:  CLRF   xDD
....................             Op=OFF; 
0B004:  MOVLB  0
0B006:  BCF    xA2.0
....................             Op2=OFF; 
0B008:  BCF    xA2.1
0B00A:  MOVLB  3
....................          } 
....................       } 
....................        
....................       if(RX_Buffer[4]==0x20 && CicloLibre>0){//20, Temperatura 
0B00C:  MOVF   34,W
0B00E:  SUBLW  20
0B010:  BNZ   B04E
0B012:  MOVF   x3E,F
0B014:  BZ    B04E
....................             printf("page Temperatura"); 
0B016:  MOVLW  74
0B018:  MOVWF  FF6
0B01A:  MOVLW  10
0B01C:  MOVWF  FF7
0B01E:  MOVLW  00
0B020:  MOVWF  FF8
0B022:  MOVLB  0
0B024:  CALL   38BE
....................             SendDataDisplay();      
0B028:  CALL   38F0
....................             Setpoint=CiclosPersonalizados[CicloLibre-1].Temperatura; 
0B02C:  MOVLW  01
0B02E:  MOVLB  3
0B030:  SUBWF  x3E,W
0B032:  MULLW  0A
0B034:  MOVF   FF3,W
0B036:  MOVLB  4
0B038:  CLRF   x40
0B03A:  MOVWF  x3F
0B03C:  MOVLW  17
0B03E:  ADDWF  x3F,W
0B040:  MOVWF  FE9
0B042:  MOVLW  04
0B044:  ADDWFC x40,W
0B046:  MOVWF  FEA
0B048:  MOVFF  FEF,365
0B04C:  MOVLB  3
....................       } 
....................        
....................       if(RX_Buffer[4]==0x30 && CicloLibre>0){//30, Test 
0B04E:  MOVF   34,W
0B050:  SUBLW  30
0B052:  BTFSS  FD8.2
0B054:  BRA    B170
0B056:  MOVF   x3E,F
0B058:  BTFSC  FD8.2
0B05A:  BRA    B170
....................             printf("page TiempoEst"); 
0B05C:  MOVLW  86
0B05E:  MOVWF  FF6
0B060:  MOVLW  10
0B062:  MOVWF  FF7
0B064:  MOVLW  00
0B066:  MOVWF  FF8
0B068:  MOVLB  0
0B06A:  CALL   38BE
....................             SendDataDisplay();      
0B06E:  CALL   38F0
....................             Testerilizacionp[3]=CiclosPersonalizados[CicloLibre-1].Minutoest/10; 
0B072:  MOVLW  01
0B074:  MOVLB  3
0B076:  SUBWF  x3E,W
0B078:  MULLW  0A
0B07A:  MOVF   FF3,W
0B07C:  MOVLB  4
0B07E:  CLRF   x40
0B080:  MOVWF  x3F
0B082:  MOVLW  09
0B084:  ADDWF  x3F,W
0B086:  MOVWF  01
0B088:  MOVLW  00
0B08A:  ADDWFC x40,W
0B08C:  MOVWF  03
0B08E:  MOVF   01,W
0B090:  ADDLW  17
0B092:  MOVWF  FE9
0B094:  MOVLW  04
0B096:  ADDWFC 03,W
0B098:  MOVWF  FEA
0B09A:  MOVFF  FEF,449
0B09E:  MOVLW  0A
0B0A0:  MOVWF  x4A
0B0A2:  MOVLB  0
0B0A4:  CALL   487C
0B0A8:  MOVFF  01,B9
....................             Testerilizacionp[2]=CiclosPersonalizados[CicloLibre-1].Minutoest-(Testerilizacionp[3]*10); 
0B0AC:  MOVLW  01
0B0AE:  MOVLB  3
0B0B0:  SUBWF  x3E,W
0B0B2:  MULLW  0A
0B0B4:  MOVF   FF3,W
0B0B6:  MOVLB  4
0B0B8:  CLRF   x40
0B0BA:  MOVWF  x3F
0B0BC:  MOVLW  09
0B0BE:  ADDWF  x3F,W
0B0C0:  MOVWF  01
0B0C2:  MOVLW  00
0B0C4:  ADDWFC x40,W
0B0C6:  MOVWF  03
0B0C8:  MOVF   01,W
0B0CA:  ADDLW  17
0B0CC:  MOVWF  FE9
0B0CE:  MOVLW  04
0B0D0:  ADDWFC 03,W
0B0D2:  MOVWF  FEA
0B0D4:  MOVFF  FEF,43F
0B0D8:  MOVFF  B9,441
0B0DC:  MOVLW  0A
0B0DE:  MOVWF  x42
0B0E0:  MOVLB  0
0B0E2:  CALL   2E02
0B0E6:  MOVF   01,W
0B0E8:  MOVLB  4
0B0EA:  SUBWF  x3F,W
0B0EC:  MOVLB  0
0B0EE:  MOVWF  xB8
....................             Testerilizacionp[1]=CiclosPersonalizados[CicloLibre-1].Segundoest/10; 
0B0F0:  MOVLW  01
0B0F2:  MOVLB  3
0B0F4:  SUBWF  x3E,W
0B0F6:  MULLW  0A
0B0F8:  MOVF   FF3,W
0B0FA:  MOVLB  4
0B0FC:  CLRF   x40
0B0FE:  MOVWF  x3F
0B100:  MOVLW  03
0B102:  ADDWF  x3F,W
0B104:  MOVWF  01
0B106:  MOVLW  00
0B108:  ADDWFC x40,W
0B10A:  MOVWF  03
0B10C:  MOVF   01,W
0B10E:  ADDLW  17
0B110:  MOVWF  FE9
0B112:  MOVLW  04
0B114:  ADDWFC 03,W
0B116:  MOVWF  FEA
0B118:  MOVFF  FEF,449
0B11C:  MOVLW  0A
0B11E:  MOVWF  x4A
0B120:  MOVLB  0
0B122:  CALL   487C
0B126:  MOVFF  01,B7
....................             Testerilizacionp[0]=CiclosPersonalizados[CicloLibre-1].Segundoest-(Testerilizacionp[1]*10); 
0B12A:  MOVLW  01
0B12C:  MOVLB  3
0B12E:  SUBWF  x3E,W
0B130:  MULLW  0A
0B132:  MOVF   FF3,W
0B134:  MOVLB  4
0B136:  CLRF   x40
0B138:  MOVWF  x3F
0B13A:  MOVLW  03
0B13C:  ADDWF  x3F,W
0B13E:  MOVWF  01
0B140:  MOVLW  00
0B142:  ADDWFC x40,W
0B144:  MOVWF  03
0B146:  MOVF   01,W
0B148:  ADDLW  17
0B14A:  MOVWF  FE9
0B14C:  MOVLW  04
0B14E:  ADDWFC 03,W
0B150:  MOVWF  FEA
0B152:  MOVFF  FEF,43F
0B156:  MOVFF  B7,441
0B15A:  MOVLW  0A
0B15C:  MOVWF  x42
0B15E:  MOVLB  0
0B160:  CALL   2E02
0B164:  MOVF   01,W
0B166:  MOVLB  4
0B168:  SUBWF  x3F,W
0B16A:  MOVLB  0
0B16C:  MOVWF  xB6
0B16E:  MOVLB  3
....................       } 
....................        
....................       if(RX_Buffer[4]==0x40 && CicloLibre>0){//30, Test 
0B170:  MOVF   34,W
0B172:  SUBLW  40
0B174:  BTFSS  FD8.2
0B176:  BRA    B292
0B178:  MOVF   x3E,F
0B17A:  BTFSC  FD8.2
0B17C:  BRA    B292
....................             printf("page TiempoSec"); 
0B17E:  MOVLW  96
0B180:  MOVWF  FF6
0B182:  MOVLW  10
0B184:  MOVWF  FF7
0B186:  MOVLW  00
0B188:  MOVWF  FF8
0B18A:  MOVLB  0
0B18C:  CALL   38BE
....................             SendDataDisplay();      
0B190:  CALL   38F0
....................             Tsecadop[3]=CiclosPersonalizados[CicloLibre-1].Minutosec/10; 
0B194:  MOVLW  01
0B196:  MOVLB  3
0B198:  SUBWF  x3E,W
0B19A:  MULLW  0A
0B19C:  MOVF   FF3,W
0B19E:  MOVLB  4
0B1A0:  CLRF   x40
0B1A2:  MOVWF  x3F
0B1A4:  MOVLW  04
0B1A6:  ADDWF  x3F,W
0B1A8:  MOVWF  01
0B1AA:  MOVLW  00
0B1AC:  ADDWFC x40,W
0B1AE:  MOVWF  03
0B1B0:  MOVF   01,W
0B1B2:  ADDLW  17
0B1B4:  MOVWF  FE9
0B1B6:  MOVLW  04
0B1B8:  ADDWFC 03,W
0B1BA:  MOVWF  FEA
0B1BC:  MOVFF  FEF,449
0B1C0:  MOVLW  0A
0B1C2:  MOVWF  x4A
0B1C4:  MOVLB  0
0B1C6:  CALL   487C
0B1CA:  MOVFF  01,C2
....................             Tsecadop[2]=CiclosPersonalizados[CicloLibre-1].Minutosec-(Tsecadop[3]*10); 
0B1CE:  MOVLW  01
0B1D0:  MOVLB  3
0B1D2:  SUBWF  x3E,W
0B1D4:  MULLW  0A
0B1D6:  MOVF   FF3,W
0B1D8:  MOVLB  4
0B1DA:  CLRF   x40
0B1DC:  MOVWF  x3F
0B1DE:  MOVLW  04
0B1E0:  ADDWF  x3F,W
0B1E2:  MOVWF  01
0B1E4:  MOVLW  00
0B1E6:  ADDWFC x40,W
0B1E8:  MOVWF  03
0B1EA:  MOVF   01,W
0B1EC:  ADDLW  17
0B1EE:  MOVWF  FE9
0B1F0:  MOVLW  04
0B1F2:  ADDWFC 03,W
0B1F4:  MOVWF  FEA
0B1F6:  MOVFF  FEF,43F
0B1FA:  MOVFF  C2,441
0B1FE:  MOVLW  0A
0B200:  MOVWF  x42
0B202:  MOVLB  0
0B204:  CALL   2E02
0B208:  MOVF   01,W
0B20A:  MOVLB  4
0B20C:  SUBWF  x3F,W
0B20E:  MOVLB  0
0B210:  MOVWF  xC1
....................             Tsecadop[1]=CiclosPersonalizados[CicloLibre-1].Segundosec/10; 
0B212:  MOVLW  01
0B214:  MOVLB  3
0B216:  SUBWF  x3E,W
0B218:  MULLW  0A
0B21A:  MOVF   FF3,W
0B21C:  MOVLB  4
0B21E:  CLRF   x40
0B220:  MOVWF  x3F
0B222:  MOVLW  05
0B224:  ADDWF  x3F,W
0B226:  MOVWF  01
0B228:  MOVLW  00
0B22A:  ADDWFC x40,W
0B22C:  MOVWF  03
0B22E:  MOVF   01,W
0B230:  ADDLW  17
0B232:  MOVWF  FE9
0B234:  MOVLW  04
0B236:  ADDWFC 03,W
0B238:  MOVWF  FEA
0B23A:  MOVFF  FEF,449
0B23E:  MOVLW  0A
0B240:  MOVWF  x4A
0B242:  MOVLB  0
0B244:  CALL   487C
0B248:  MOVFF  01,C0
....................             Tsecadop[0]=CiclosPersonalizados[CicloLibre-1].Segundosec-(Tsecadop[1]*10); 
0B24C:  MOVLW  01
0B24E:  MOVLB  3
0B250:  SUBWF  x3E,W
0B252:  MULLW  0A
0B254:  MOVF   FF3,W
0B256:  MOVLB  4
0B258:  CLRF   x40
0B25A:  MOVWF  x3F
0B25C:  MOVLW  05
0B25E:  ADDWF  x3F,W
0B260:  MOVWF  01
0B262:  MOVLW  00
0B264:  ADDWFC x40,W
0B266:  MOVWF  03
0B268:  MOVF   01,W
0B26A:  ADDLW  17
0B26C:  MOVWF  FE9
0B26E:  MOVLW  04
0B270:  ADDWFC 03,W
0B272:  MOVWF  FEA
0B274:  MOVFF  FEF,43F
0B278:  MOVFF  C0,441
0B27C:  MOVLW  0A
0B27E:  MOVWF  x42
0B280:  MOVLB  0
0B282:  CALL   2E02
0B286:  MOVF   01,W
0B288:  MOVLB  4
0B28A:  SUBWF  x3F,W
0B28C:  MOVLB  0
0B28E:  MOVWF  xBF
0B290:  MOVLB  3
....................       } 
....................        
....................       if(RX_Buffer[4]==0x80 && CicloLibre>0){//80, NivelDesfogue          
0B292:  MOVF   34,W
0B294:  SUBLW  80
0B296:  BNZ   B2E6
0B298:  MOVF   x3E,F
0B29A:  BZ    B2E6
....................             printf("page Nivel"); 
0B29C:  MOVLW  A6
0B29E:  MOVWF  FF6
0B2A0:  MOVLW  10
0B2A2:  MOVWF  FF7
0B2A4:  MOVLW  00
0B2A6:  MOVWF  FF8
0B2A8:  MOVLB  0
0B2AA:  CALL   38BE
....................             SendDataDisplay();      
0B2AE:  CALL   38F0
....................             Nivel=CiclosPersonalizados[CicloLibre-1].NivelDesfogue;          
0B2B2:  MOVLW  01
0B2B4:  MOVLB  3
0B2B6:  SUBWF  x3E,W
0B2B8:  MULLW  0A
0B2BA:  MOVF   FF3,W
0B2BC:  MOVLB  4
0B2BE:  CLRF   x40
0B2C0:  MOVWF  x3F
0B2C2:  MOVLW  08
0B2C4:  ADDWF  x3F,W
0B2C6:  MOVWF  01
0B2C8:  MOVLW  00
0B2CA:  ADDWFC x40,W
0B2CC:  MOVWF  03
0B2CE:  MOVF   01,W
0B2D0:  ADDLW  17
0B2D2:  MOVWF  FE9
0B2D4:  MOVLW  04
0B2D6:  ADDWFC 03,W
0B2D8:  MOVWF  FEA
0B2DA:  MOVF   FEF,W
0B2DC:  CLRF   03
0B2DE:  MOVLB  3
0B2E0:  MOVWF  x73
0B2E2:  MOVFF  03,374
....................       } 
....................        
....................       if((RX_Buffer[4]==0x70 || UP)&& CicloLibre>0){//70, Iniciar Ciclo 
0B2E6:  MOVF   34,W
0B2E8:  SUBLW  70
0B2EA:  BZ    B2F2
0B2EC:  BSF    F93.0
0B2EE:  BTFSC  F81.0
0B2F0:  BRA    B808
0B2F2:  MOVF   x3E,F
0B2F4:  BTFSC  FD8.2
0B2F6:  BRA    B808
....................          delay_ms(100); 
0B2F8:  MOVLW  64
0B2FA:  MOVLB  4
0B2FC:  MOVWF  x54
0B2FE:  MOVLB  0
0B300:  CALL   1A84
....................          if((RX_Buffer[4]==0x70 || UP)&& CicloLibre>0){ 
0B304:  MOVF   34,W
0B306:  SUBLW  70
0B308:  BZ    B310
0B30A:  BSF    F93.0
0B30C:  BTFSC  F81.0
0B30E:  BRA    B806
0B310:  MOVLB  3
0B312:  MOVF   x3E,F
0B314:  BTFSS  FD8.2
0B316:  BRA    B31C
0B318:  MOVLB  0
0B31A:  BRA    B806
....................             printf("page Funcionamiento"); 
0B31C:  MOVLW  B2
0B31E:  MOVWF  FF6
0B320:  MOVLW  10
0B322:  MOVWF  FF7
0B324:  MOVLW  00
0B326:  MOVWF  FF8
0B328:  MOVLB  0
0B32A:  CALL   38BE
....................             SendDataDisplay();        
0B32E:  CALL   38F0
....................             Libre=ON; 
0B332:  BSF    xA3.4
....................             if(CiclosPersonalizados[CicloLibre-1].NivelDesfogue>5){ 
0B334:  MOVLW  01
0B336:  MOVLB  3
0B338:  SUBWF  x3E,W
0B33A:  MULLW  0A
0B33C:  MOVF   FF3,W
0B33E:  MOVLB  4
0B340:  CLRF   x40
0B342:  MOVWF  x3F
0B344:  MOVLW  08
0B346:  ADDWF  x3F,W
0B348:  MOVWF  01
0B34A:  MOVLW  00
0B34C:  ADDWFC x40,W
0B34E:  MOVWF  03
0B350:  MOVF   01,W
0B352:  ADDLW  17
0B354:  MOVWF  FE9
0B356:  MOVLW  04
0B358:  ADDWFC 03,W
0B35A:  MOVWF  FEA
0B35C:  MOVF   FEF,W
0B35E:  SUBLW  05
0B360:  BTFSC  FD8.0
0B362:  BRA    B592
....................                ConfiguraCiclo(extraeDecima(CiclosPersonalizados[CicloLibre-1].Segundoest), 
....................                            CiclosPersonalizados[CicloLibre-1].Segundoest/10, 
....................                            extraeDecima(CiclosPersonalizados[CicloLibre-1].Minutoest), 
....................                            CiclosPersonalizados[CicloLibre-1].Minutoest/10, 
....................                            extraeDecima(CiclosPersonalizados[CicloLibre-1].Segundosec), 
....................                            CiclosPersonalizados[CicloLibre-1].Segundosec/10, 
....................                            extraeDecima(CiclosPersonalizados[CicloLibre-1].Minutosec), 
....................                            CiclosPersonalizados[CicloLibre-1].Minutosec/10,0,CicloLibre+4,CiclosPersonalizados[CicloLibre-1].Temperatura);             
0B364:  MOVLW  01
0B366:  MOVLB  3
0B368:  SUBWF  x3E,W
0B36A:  MULLW  0A
0B36C:  MOVF   FF3,W
0B36E:  MOVLB  4
0B370:  CLRF   x40
0B372:  MOVWF  x3F
0B374:  MOVLW  03
0B376:  ADDWF  x3F,W
0B378:  MOVWF  01
0B37A:  MOVLW  00
0B37C:  ADDWFC x40,W
0B37E:  MOVWF  03
0B380:  MOVF   01,W
0B382:  ADDLW  17
0B384:  MOVWF  FE9
0B386:  MOVLW  04
0B388:  ADDWFC 03,W
0B38A:  MOVWF  FEA
0B38C:  MOVFF  FEF,43F
0B390:  MOVFF  43F,446
0B394:  MOVLB  0
0B396:  CALL   4ED0
0B39A:  MOVFF  01,43F
0B39E:  MOVLW  01
0B3A0:  MOVLB  3
0B3A2:  SUBWF  x3E,W
0B3A4:  MULLW  0A
0B3A6:  MOVF   FF3,W
0B3A8:  MOVLB  4
0B3AA:  CLRF   x41
0B3AC:  MOVWF  x40
0B3AE:  MOVLW  03
0B3B0:  ADDWF  x40,W
0B3B2:  MOVWF  01
0B3B4:  MOVLW  00
0B3B6:  ADDWFC x41,W
0B3B8:  MOVWF  03
0B3BA:  MOVF   01,W
0B3BC:  ADDLW  17
0B3BE:  MOVWF  FE9
0B3C0:  MOVLW  04
0B3C2:  ADDWFC 03,W
0B3C4:  MOVWF  FEA
0B3C6:  MOVFF  FEF,449
0B3CA:  MOVLW  0A
0B3CC:  MOVWF  x4A
0B3CE:  MOVLB  0
0B3D0:  CALL   487C
0B3D4:  MOVFF  01,440
0B3D8:  MOVLW  01
0B3DA:  MOVLB  3
0B3DC:  SUBWF  x3E,W
0B3DE:  MULLW  0A
0B3E0:  MOVF   FF3,W
0B3E2:  MOVLB  4
0B3E4:  CLRF   x42
0B3E6:  MOVWF  x41
0B3E8:  MOVLW  09
0B3EA:  ADDWF  x41,W
0B3EC:  MOVWF  01
0B3EE:  MOVLW  00
0B3F0:  ADDWFC x42,W
0B3F2:  MOVWF  03
0B3F4:  MOVF   01,W
0B3F6:  ADDLW  17
0B3F8:  MOVWF  FE9
0B3FA:  MOVLW  04
0B3FC:  ADDWFC 03,W
0B3FE:  MOVWF  FEA
0B400:  MOVFF  FEF,441
0B404:  MOVFF  441,446
0B408:  MOVLB  0
0B40A:  CALL   4ED0
0B40E:  MOVFF  01,441
0B412:  MOVLW  01
0B414:  MOVLB  3
0B416:  SUBWF  x3E,W
0B418:  MULLW  0A
0B41A:  MOVF   FF3,W
0B41C:  MOVLB  4
0B41E:  CLRF   x43
0B420:  MOVWF  x42
0B422:  MOVLW  09
0B424:  ADDWF  x42,W
0B426:  MOVWF  01
0B428:  MOVLW  00
0B42A:  ADDWFC x43,W
0B42C:  MOVWF  03
0B42E:  MOVF   01,W
0B430:  ADDLW  17
0B432:  MOVWF  FE9
0B434:  MOVLW  04
0B436:  ADDWFC 03,W
0B438:  MOVWF  FEA
0B43A:  MOVFF  FEF,449
0B43E:  MOVLW  0A
0B440:  MOVWF  x4A
0B442:  MOVLB  0
0B444:  CALL   487C
0B448:  MOVFF  01,442
0B44C:  MOVLW  01
0B44E:  MOVLB  3
0B450:  SUBWF  x3E,W
0B452:  MULLW  0A
0B454:  MOVF   FF3,W
0B456:  MOVLB  4
0B458:  CLRF   x44
0B45A:  MOVWF  x43
0B45C:  MOVLW  05
0B45E:  ADDWF  x43,W
0B460:  MOVWF  01
0B462:  MOVLW  00
0B464:  ADDWFC x44,W
0B466:  MOVWF  03
0B468:  MOVF   01,W
0B46A:  ADDLW  17
0B46C:  MOVWF  FE9
0B46E:  MOVLW  04
0B470:  ADDWFC 03,W
0B472:  MOVWF  FEA
0B474:  MOVFF  FEF,443
0B478:  MOVFF  443,446
0B47C:  MOVLB  0
0B47E:  CALL   4ED0
0B482:  MOVFF  01,443
0B486:  MOVLW  01
0B488:  MOVLB  3
0B48A:  SUBWF  x3E,W
0B48C:  MULLW  0A
0B48E:  MOVF   FF3,W
0B490:  MOVLB  4
0B492:  CLRF   x45
0B494:  MOVWF  x44
0B496:  MOVLW  05
0B498:  ADDWF  x44,W
0B49A:  MOVWF  01
0B49C:  MOVLW  00
0B49E:  ADDWFC x45,W
0B4A0:  MOVWF  03
0B4A2:  MOVF   01,W
0B4A4:  ADDLW  17
0B4A6:  MOVWF  FE9
0B4A8:  MOVLW  04
0B4AA:  ADDWFC 03,W
0B4AC:  MOVWF  FEA
0B4AE:  MOVFF  FEF,449
0B4B2:  MOVLW  0A
0B4B4:  MOVWF  x4A
0B4B6:  MOVLB  0
0B4B8:  CALL   487C
0B4BC:  MOVFF  01,444
0B4C0:  MOVLW  01
0B4C2:  MOVLB  3
0B4C4:  SUBWF  x3E,W
0B4C6:  MULLW  0A
0B4C8:  MOVF   FF3,W
0B4CA:  MOVLB  4
0B4CC:  CLRF   x46
0B4CE:  MOVWF  x45
0B4D0:  MOVLW  04
0B4D2:  ADDWF  x45,W
0B4D4:  MOVWF  01
0B4D6:  MOVLW  00
0B4D8:  ADDWFC x46,W
0B4DA:  MOVWF  03
0B4DC:  MOVF   01,W
0B4DE:  ADDLW  17
0B4E0:  MOVWF  FE9
0B4E2:  MOVLW  04
0B4E4:  ADDWFC 03,W
0B4E6:  MOVWF  FEA
0B4E8:  MOVFF  FEF,445
0B4EC:  MOVFF  445,446
0B4F0:  MOVLB  0
0B4F2:  CALL   4ED0
0B4F6:  MOVFF  01,445
0B4FA:  MOVLW  01
0B4FC:  MOVLB  3
0B4FE:  SUBWF  x3E,W
0B500:  MULLW  0A
0B502:  MOVF   FF3,W
0B504:  MOVLB  4
0B506:  CLRF   x47
0B508:  MOVWF  x46
0B50A:  MOVLW  04
0B50C:  ADDWF  x46,W
0B50E:  MOVWF  01
0B510:  MOVLW  00
0B512:  ADDWFC x47,W
0B514:  MOVWF  03
0B516:  MOVF   01,W
0B518:  ADDLW  17
0B51A:  MOVWF  FE9
0B51C:  MOVLW  04
0B51E:  ADDWFC 03,W
0B520:  MOVWF  FEA
0B522:  MOVFF  FEF,449
0B526:  MOVLW  0A
0B528:  MOVWF  x4A
0B52A:  MOVLB  0
0B52C:  CALL   487C
0B530:  MOVFF  01,446
0B534:  MOVLW  04
0B536:  MOVLB  3
0B538:  ADDWF  x3E,W
0B53A:  MOVLB  4
0B53C:  MOVWF  x47
0B53E:  MOVLW  01
0B540:  MOVLB  3
0B542:  SUBWF  x3E,W
0B544:  MULLW  0A
0B546:  MOVF   FF3,W
0B548:  MOVLB  4
0B54A:  CLRF   x49
0B54C:  MOVWF  x48
0B54E:  MOVLW  17
0B550:  ADDWF  x48,W
0B552:  MOVWF  FE9
0B554:  MOVLW  04
0B556:  ADDWFC x49,W
0B558:  MOVWF  FEA
0B55A:  MOVFF  FEF,448
0B55E:  MOVFF  43F,449
0B562:  MOVFF  440,44A
0B566:  MOVFF  441,44B
0B56A:  MOVFF  442,44C
0B56E:  MOVFF  443,44D
0B572:  MOVFF  444,44E
0B576:  MOVFF  445,44F
0B57A:  MOVFF  01,450
0B57E:  CLRF   x51
0B580:  MOVFF  447,452
0B584:  MOVFF  448,453
0B588:  MOVLB  0
0B58A:  CALL   4B8E
....................             }else{ 
0B58E:  BRA    B806
0B590:  MOVLB  4
....................                ConfiguraCiclo(extraeDecima(CiclosPersonalizados[CicloLibre-1].Segundoest), 
....................                            CiclosPersonalizados[CicloLibre-1].Segundoest/10, 
....................                            extraeDecima(CiclosPersonalizados[CicloLibre-1].Minutoest), 
....................                            CiclosPersonalizados[CicloLibre-1].Minutoest/10, 
....................                            extraeDecima(CiclosPersonalizados[CicloLibre-1].Segundosec), 
....................                            CiclosPersonalizados[CicloLibre-1].Segundosec/10, 
....................                            extraeDecima(CiclosPersonalizados[CicloLibre-1].Minutosec), 
....................                            CiclosPersonalizados[CicloLibre-1].Minutosec/10,1,CicloLibre+4,CiclosPersonalizados[CicloLibre-1].Temperatura);             
0B592:  MOVLW  01
0B594:  MOVLB  3
0B596:  SUBWF  x3E,W
0B598:  MULLW  0A
0B59A:  MOVF   FF3,W
0B59C:  MOVLB  4
0B59E:  CLRF   x40
0B5A0:  MOVWF  x3F
0B5A2:  MOVLW  03
0B5A4:  ADDWF  x3F,W
0B5A6:  MOVWF  01
0B5A8:  MOVLW  00
0B5AA:  ADDWFC x40,W
0B5AC:  MOVWF  03
0B5AE:  MOVF   01,W
0B5B0:  ADDLW  17
0B5B2:  MOVWF  FE9
0B5B4:  MOVLW  04
0B5B6:  ADDWFC 03,W
0B5B8:  MOVWF  FEA
0B5BA:  MOVFF  FEF,43F
0B5BE:  MOVFF  43F,446
0B5C2:  MOVLB  0
0B5C4:  CALL   4ED0
0B5C8:  MOVFF  01,43F
0B5CC:  MOVLW  01
0B5CE:  MOVLB  3
0B5D0:  SUBWF  x3E,W
0B5D2:  MULLW  0A
0B5D4:  MOVF   FF3,W
0B5D6:  MOVLB  4
0B5D8:  CLRF   x41
0B5DA:  MOVWF  x40
0B5DC:  MOVLW  03
0B5DE:  ADDWF  x40,W
0B5E0:  MOVWF  01
0B5E2:  MOVLW  00
0B5E4:  ADDWFC x41,W
0B5E6:  MOVWF  03
0B5E8:  MOVF   01,W
0B5EA:  ADDLW  17
0B5EC:  MOVWF  FE9
0B5EE:  MOVLW  04
0B5F0:  ADDWFC 03,W
0B5F2:  MOVWF  FEA
0B5F4:  MOVFF  FEF,449
0B5F8:  MOVLW  0A
0B5FA:  MOVWF  x4A
0B5FC:  MOVLB  0
0B5FE:  CALL   487C
0B602:  MOVFF  01,440
0B606:  MOVLW  01
0B608:  MOVLB  3
0B60A:  SUBWF  x3E,W
0B60C:  MULLW  0A
0B60E:  MOVF   FF3,W
0B610:  MOVLB  4
0B612:  CLRF   x42
0B614:  MOVWF  x41
0B616:  MOVLW  09
0B618:  ADDWF  x41,W
0B61A:  MOVWF  01
0B61C:  MOVLW  00
0B61E:  ADDWFC x42,W
0B620:  MOVWF  03
0B622:  MOVF   01,W
0B624:  ADDLW  17
0B626:  MOVWF  FE9
0B628:  MOVLW  04
0B62A:  ADDWFC 03,W
0B62C:  MOVWF  FEA
0B62E:  MOVFF  FEF,441
0B632:  MOVFF  441,446
0B636:  MOVLB  0
0B638:  CALL   4ED0
0B63C:  MOVFF  01,441
0B640:  MOVLW  01
0B642:  MOVLB  3
0B644:  SUBWF  x3E,W
0B646:  MULLW  0A
0B648:  MOVF   FF3,W
0B64A:  MOVLB  4
0B64C:  CLRF   x43
0B64E:  MOVWF  x42
0B650:  MOVLW  09
0B652:  ADDWF  x42,W
0B654:  MOVWF  01
0B656:  MOVLW  00
0B658:  ADDWFC x43,W
0B65A:  MOVWF  03
0B65C:  MOVF   01,W
0B65E:  ADDLW  17
0B660:  MOVWF  FE9
0B662:  MOVLW  04
0B664:  ADDWFC 03,W
0B666:  MOVWF  FEA
0B668:  MOVFF  FEF,449
0B66C:  MOVLW  0A
0B66E:  MOVWF  x4A
0B670:  MOVLB  0
0B672:  CALL   487C
0B676:  MOVFF  01,442
0B67A:  MOVLW  01
0B67C:  MOVLB  3
0B67E:  SUBWF  x3E,W
0B680:  MULLW  0A
0B682:  MOVF   FF3,W
0B684:  MOVLB  4
0B686:  CLRF   x44
0B688:  MOVWF  x43
0B68A:  MOVLW  05
0B68C:  ADDWF  x43,W
0B68E:  MOVWF  01
0B690:  MOVLW  00
0B692:  ADDWFC x44,W
0B694:  MOVWF  03
0B696:  MOVF   01,W
0B698:  ADDLW  17
0B69A:  MOVWF  FE9
0B69C:  MOVLW  04
0B69E:  ADDWFC 03,W
0B6A0:  MOVWF  FEA
0B6A2:  MOVFF  FEF,443
0B6A6:  MOVFF  443,446
0B6AA:  MOVLB  0
0B6AC:  CALL   4ED0
0B6B0:  MOVFF  01,443
0B6B4:  MOVLW  01
0B6B6:  MOVLB  3
0B6B8:  SUBWF  x3E,W
0B6BA:  MULLW  0A
0B6BC:  MOVF   FF3,W
0B6BE:  MOVLB  4
0B6C0:  CLRF   x45
0B6C2:  MOVWF  x44
0B6C4:  MOVLW  05
0B6C6:  ADDWF  x44,W
0B6C8:  MOVWF  01
0B6CA:  MOVLW  00
0B6CC:  ADDWFC x45,W
0B6CE:  MOVWF  03
0B6D0:  MOVF   01,W
0B6D2:  ADDLW  17
0B6D4:  MOVWF  FE9
0B6D6:  MOVLW  04
0B6D8:  ADDWFC 03,W
0B6DA:  MOVWF  FEA
0B6DC:  MOVFF  FEF,449
0B6E0:  MOVLW  0A
0B6E2:  MOVWF  x4A
0B6E4:  MOVLB  0
0B6E6:  CALL   487C
0B6EA:  MOVFF  01,444
0B6EE:  MOVLW  01
0B6F0:  MOVLB  3
0B6F2:  SUBWF  x3E,W
0B6F4:  MULLW  0A
0B6F6:  MOVF   FF3,W
0B6F8:  MOVLB  4
0B6FA:  CLRF   x46
0B6FC:  MOVWF  x45
0B6FE:  MOVLW  04
0B700:  ADDWF  x45,W
0B702:  MOVWF  01
0B704:  MOVLW  00
0B706:  ADDWFC x46,W
0B708:  MOVWF  03
0B70A:  MOVF   01,W
0B70C:  ADDLW  17
0B70E:  MOVWF  FE9
0B710:  MOVLW  04
0B712:  ADDWFC 03,W
0B714:  MOVWF  FEA
0B716:  MOVFF  FEF,445
0B71A:  MOVFF  445,446
0B71E:  MOVLB  0
0B720:  CALL   4ED0
0B724:  MOVFF  01,445
0B728:  MOVLW  01
0B72A:  MOVLB  3
0B72C:  SUBWF  x3E,W
0B72E:  MULLW  0A
0B730:  MOVF   FF3,W
0B732:  MOVLB  4
0B734:  CLRF   x47
0B736:  MOVWF  x46
0B738:  MOVLW  04
0B73A:  ADDWF  x46,W
0B73C:  MOVWF  01
0B73E:  MOVLW  00
0B740:  ADDWFC x47,W
0B742:  MOVWF  03
0B744:  MOVF   01,W
0B746:  ADDLW  17
0B748:  MOVWF  FE9
0B74A:  MOVLW  04
0B74C:  ADDWFC 03,W
0B74E:  MOVWF  FEA
0B750:  MOVFF  FEF,449
0B754:  MOVLW  0A
0B756:  MOVWF  x4A
0B758:  MOVLB  0
0B75A:  CALL   487C
0B75E:  MOVFF  01,446
0B762:  MOVLW  04
0B764:  MOVLB  3
0B766:  ADDWF  x3E,W
0B768:  MOVLB  4
0B76A:  MOVWF  x47
0B76C:  MOVLW  01
0B76E:  MOVLB  3
0B770:  SUBWF  x3E,W
0B772:  MULLW  0A
0B774:  MOVF   FF3,W
0B776:  MOVLB  4
0B778:  CLRF   x49
0B77A:  MOVWF  x48
0B77C:  MOVLW  17
0B77E:  ADDWF  x48,W
0B780:  MOVWF  FE9
0B782:  MOVLW  04
0B784:  ADDWFC x49,W
0B786:  MOVWF  FEA
0B788:  MOVFF  FEF,448
0B78C:  MOVFF  43F,449
0B790:  MOVFF  440,44A
0B794:  MOVFF  441,44B
0B798:  MOVFF  442,44C
0B79C:  MOVFF  443,44D
0B7A0:  MOVFF  444,44E
0B7A4:  MOVFF  445,44F
0B7A8:  MOVFF  01,450
0B7AC:  MOVLW  01
0B7AE:  MOVWF  x51
0B7B0:  MOVFF  447,452
0B7B4:  MOVFF  448,453
0B7B8:  MOVLB  0
0B7BA:  CALL   4B8E
....................                NivelSeleccionado=4995*CiclosPersonalizados[CicloLibre-1].NivelDesfogue; 
0B7BE:  MOVLW  01
0B7C0:  MOVLB  3
0B7C2:  SUBWF  x3E,W
0B7C4:  MULLW  0A
0B7C6:  MOVF   FF3,W
0B7C8:  MOVLB  4
0B7CA:  CLRF   x40
0B7CC:  MOVWF  x3F
0B7CE:  MOVLW  08
0B7D0:  ADDWF  x3F,W
0B7D2:  MOVWF  01
0B7D4:  MOVLW  00
0B7D6:  ADDWFC x40,W
0B7D8:  MOVWF  03
0B7DA:  MOVF   01,W
0B7DC:  ADDLW  17
0B7DE:  MOVWF  FE9
0B7E0:  MOVLW  04
0B7E2:  ADDWFC 03,W
0B7E4:  MOVWF  FEA
0B7E6:  MOVFF  FEF,43F
0B7EA:  MOVLW  13
0B7EC:  MOVWF  x49
0B7EE:  MOVLW  83
0B7F0:  MOVWF  x48
0B7F2:  CLRF   x4B
0B7F4:  MOVFF  43F,44A
0B7F8:  MOVLB  0
0B7FA:  CALL   399C
0B7FE:  MOVFF  02,37E
0B802:  MOVFF  01,37D
0B806:  MOVLB  3
....................             } 
....................          } 
....................       } 
....................    } 
.................... //_--------------------------------------------------------------------------------------------------------------------------------------------------------        
....................  
.................... //_--------------------------------------------------------------------------------------------------------------------------------------------------------       
....................    if(Menu==12){//Menu de Visualizacion de Ciclos Realizados 
0B808:  MOVF   x5E,W
0B80A:  SUBLW  0C
0B80C:  BTFSS  FD8.2
0B80E:  BRA    BD62
....................       //printf("fecha.txt=\"Fecha:%02u/%02u/20%02u    Hora: %02u:%02u\"",Dia,Mes,Year,Hora,Minuto); 
....................       //SendDataDisplay(); 
....................       GuardaEEPROM=OFF; 
0B810:  MOVLB  0
0B812:  BCF    xA2.4
....................       /*  
....................       i2c_start();            // Comienzo de la comunicacin 
....................       i2c_write(0xA0);   // Direccin del esclavo en el bus I2C 
....................       i2c_write(9);    // Posicin de donde se leer el dato en el esclavo 
....................       i2c_write(0);    // Posicin de donde se leer el dato en el esclavo 
....................       i2c_start();            // Reinicio 
....................       i2c_write(direccion+1); // Direccin del esclavo en modo lectura 
....................       dato=i2c_read(0);       // Lectura del dato 
....................       i2c_stop(); 
....................       */       
....................        
....................       if(RX_Buffer[6]==0x01){//01, Ciclos 
0B814:  DECFSZ 36,W
0B816:  BRA    B82C
....................          printf("page MenuPrincipal"); 
0B818:  MOVLW  C6
0B81A:  MOVWF  FF6
0B81C:  MOVLW  10
0B81E:  MOVWF  FF7
0B820:  MOVLW  00
0B822:  MOVWF  FF8
0B824:  CALL   38BE
....................          SendDataDisplay();      
0B828:  CALL   38F0
....................       } 
....................        
....................       if(RX_Buffer[6]==0x02 || LEFT){//02, Izquierda 
0B82C:  MOVF   36,W
0B82E:  SUBLW  02
0B830:  BZ    B838
0B832:  BSF    F93.3
0B834:  BTFSC  F81.3
0B836:  BRA    B886
....................          RX_Buffer[6]=0x00;   
0B838:  CLRF   36
....................          RX_Buffer2[6]=0x00; 
0B83A:  CLRF   41
....................          if(cicloVisto>0) 
0B83C:  MOVLB  2
0B83E:  MOVF   xE2,F
0B840:  BZ    B844
....................             cicloVisto--; 
0B842:  DECF   xE2,F
....................          printf("h0.val=%u",cicloVisto+1); 
0B844:  MOVLW  01
0B846:  ADDWF  xE2,W
0B848:  MOVLB  4
0B84A:  MOVWF  x3F
0B84C:  MOVLW  DA
0B84E:  MOVWF  FF6
0B850:  MOVLW  10
0B852:  MOVWF  FF7
0B854:  MOVLW  00
0B856:  MOVWF  FF8
0B858:  MOVLW  07
0B85A:  MOVWF  x44
0B85C:  MOVLB  0
0B85E:  CALL   484A
0B862:  MOVFF  43F,444
0B866:  MOVLW  1B
0B868:  MOVLB  4
0B86A:  MOVWF  x45
0B86C:  MOVLB  0
0B86E:  CALL   48A8
....................          SendDataDisplay();      
0B872:  CALL   38F0
....................          actualizaTabla(); 
0B876:  CALL   5060
....................          delay_ms(100); 
0B87A:  MOVLW  64
0B87C:  MOVLB  4
0B87E:  MOVWF  x54
0B880:  MOVLB  0
0B882:  CALL   1A84
....................       } 
....................        
....................       if(RX_Buffer[6]==0x03 || UP){//03, Arriba 
0B886:  MOVF   36,W
0B888:  SUBLW  03
0B88A:  BZ    B892
0B88C:  BSF    F93.0
0B88E:  BTFSC  F81.0
0B890:  BRA    B8E2
....................          RX_Buffer[6]=0x00;   
0B892:  CLRF   36
....................          RX_Buffer2[6]=0x00; 
0B894:  CLRF   41
....................          if(cicloVisualizado<28) 
0B896:  MOVLB  2
0B898:  MOVF   xE3,W
0B89A:  SUBLW  1B
0B89C:  BNC   B8A0
....................             cicloVisualizado++; 
0B89E:  INCF   xE3,F
....................          printf("h1.val=%u",cicloVisualizado+1); 
0B8A0:  MOVLW  01
0B8A2:  ADDWF  xE3,W
0B8A4:  MOVLB  4
0B8A6:  MOVWF  x3F
0B8A8:  MOVLW  E4
0B8AA:  MOVWF  FF6
0B8AC:  MOVLW  10
0B8AE:  MOVWF  FF7
0B8B0:  MOVLW  00
0B8B2:  MOVWF  FF8
0B8B4:  MOVLW  07
0B8B6:  MOVWF  x44
0B8B8:  MOVLB  0
0B8BA:  CALL   484A
0B8BE:  MOVFF  43F,444
0B8C2:  MOVLW  1B
0B8C4:  MOVLB  4
0B8C6:  MOVWF  x45
0B8C8:  MOVLB  0
0B8CA:  CALL   48A8
....................          SendDataDisplay();     
0B8CE:  CALL   38F0
....................          actualizaTabla(); 
0B8D2:  CALL   5060
....................          delay_ms(100); 
0B8D6:  MOVLW  64
0B8D8:  MOVLB  4
0B8DA:  MOVWF  x54
0B8DC:  MOVLB  0
0B8DE:  CALL   1A84
....................          //exportarData(); 
....................       } 
....................        
....................       if(RX_Buffer[6]==0x04 || DOWN){//04, Abajo 
0B8E2:  MOVF   36,W
0B8E4:  SUBLW  04
0B8E6:  BZ    B8EE
0B8E8:  BSF    F93.1
0B8EA:  BTFSC  F81.1
0B8EC:  BRA    B93C
....................          RX_Buffer[6]=0x00;   
0B8EE:  CLRF   36
....................          RX_Buffer2[6]=0x00; 
0B8F0:  CLRF   41
....................          if(cicloVisualizado>0) 
0B8F2:  MOVLB  2
0B8F4:  MOVF   xE3,F
0B8F6:  BZ    B8FA
....................             cicloVisualizado--; 
0B8F8:  DECF   xE3,F
....................          printf("h1.val=%u",cicloVisualizado+1); 
0B8FA:  MOVLW  01
0B8FC:  ADDWF  xE3,W
0B8FE:  MOVLB  4
0B900:  MOVWF  x3F
0B902:  MOVLW  EE
0B904:  MOVWF  FF6
0B906:  MOVLW  10
0B908:  MOVWF  FF7
0B90A:  MOVLW  00
0B90C:  MOVWF  FF8
0B90E:  MOVLW  07
0B910:  MOVWF  x44
0B912:  MOVLB  0
0B914:  CALL   484A
0B918:  MOVFF  43F,444
0B91C:  MOVLW  1B
0B91E:  MOVLB  4
0B920:  MOVWF  x45
0B922:  MOVLB  0
0B924:  CALL   48A8
....................          SendDataDisplay();   
0B928:  CALL   38F0
....................          actualizaTabla(); 
0B92C:  CALL   5060
....................          delay_ms(100); 
0B930:  MOVLW  64
0B932:  MOVLB  4
0B934:  MOVWF  x54
0B936:  MOVLB  0
0B938:  CALL   1A84
....................          //exportarData(); 
....................       } 
....................        
....................       if(RX_Buffer[6]==0x05 || RIGHT){//05, Derecha 
0B93C:  MOVF   36,W
0B93E:  SUBLW  05
0B940:  BZ    B948
0B942:  BSF    F93.2
0B944:  BTFSC  F81.2
0B946:  BRA    B998
....................          RX_Buffer[6]=0x00;   
0B948:  CLRF   36
....................          RX_Buffer2[6]=0x00; 
0B94A:  CLRF   41
....................          if(cicloVisto<200) 
0B94C:  MOVLB  2
0B94E:  MOVF   xE2,W
0B950:  SUBLW  C7
0B952:  BNC   B956
....................             cicloVisto++; 
0B954:  INCF   xE2,F
....................          printf("h0.val=%u",cicloVisto+1); 
0B956:  MOVLW  01
0B958:  ADDWF  xE2,W
0B95A:  MOVLB  4
0B95C:  MOVWF  x3F
0B95E:  MOVLW  F8
0B960:  MOVWF  FF6
0B962:  MOVLW  10
0B964:  MOVWF  FF7
0B966:  MOVLW  00
0B968:  MOVWF  FF8
0B96A:  MOVLW  07
0B96C:  MOVWF  x44
0B96E:  MOVLB  0
0B970:  CALL   484A
0B974:  MOVFF  43F,444
0B978:  MOVLW  1B
0B97A:  MOVLB  4
0B97C:  MOVWF  x45
0B97E:  MOVLB  0
0B980:  CALL   48A8
....................          SendDataDisplay();   
0B984:  CALL   38F0
....................          actualizaTabla(); 
0B988:  CALL   5060
....................          delay_ms(100); 
0B98C:  MOVLW  64
0B98E:  MOVLB  4
0B990:  MOVWF  x54
0B992:  MOVLB  0
0B994:  CALL   1A84
....................          //exportarData(); 
....................       } 
....................        
....................       if(RX_Buffer[6]==0x06){//06, Imprime 
0B998:  MOVF   36,W
0B99A:  SUBLW  06
0B99C:  BNZ   B9BA
....................          RX_Buffer[6]=0x00;   
0B99E:  CLRF   36
....................          RX_Buffer2[6]=0x00; 
0B9A0:  CLRF   41
....................          printf("t0.txt=\"!IMPRIMIENDO!\""); 
0B9A2:  MOVLW  02
0B9A4:  MOVWF  FF6
0B9A6:  MOVLW  11
0B9A8:  MOVWF  FF7
0B9AA:  MOVLW  00
0B9AC:  MOVWF  FF8
0B9AE:  CALL   38BE
....................          SendDataDisplay();  
0B9B2:  CALL   38F0
....................          exportarData(); 
0B9B6:  GOTO   56F4
....................       } 
....................        
....................       if(RX_Buffer[4]>0x00 || RX_Buffer[5]>0x00){ 
0B9BA:  MOVF   34,F
0B9BC:  BNZ   B9C2
0B9BE:  MOVF   35,F
0B9C0:  BZ    B9DE
....................          cicloVisualizado=RX_Buffer[4]-1; 
0B9C2:  MOVLW  01
0B9C4:  SUBWF  34,W
0B9C6:  MOVLB  2
0B9C8:  MOVWF  xE3
....................          cicloVisto=RX_Buffer[5]-1; 
0B9CA:  MOVLW  01
0B9CC:  SUBWF  35,W
0B9CE:  MOVWF  xE2
....................          RX_Buffer[4]=0x00; 
0B9D0:  CLRF   34
....................          RX_Buffer[5]=0x00; 
0B9D2:  CLRF   35
....................          RX_Buffer2[4]=0x00; 
0B9D4:  CLRF   3F
....................          RX_Buffer2[5]=0x00; 
0B9D6:  CLRF   40
....................          actualizaTabla(); 
0B9D8:  MOVLB  0
0B9DA:  CALL   5060
....................       } 
....................        
....................       //Imprime Valores Estaticos 
....................       printf("fecha.txt=\"%02u/%02u/%02u\"",diaCiclos,mesCiclos,yearCiclos); 
0B9DE:  MOVLW  1A
0B9E0:  MOVWF  FF6
0B9E2:  MOVLW  11
0B9E4:  MOVWF  FF7
0B9E6:  MOVLW  00
0B9E8:  MOVWF  FF8
0B9EA:  MOVLW  0B
0B9EC:  MOVLB  4
0B9EE:  MOVWF  x44
0B9F0:  MOVLB  0
0B9F2:  CALL   484A
0B9F6:  MOVFF  3C5,444
0B9FA:  MOVLW  01
0B9FC:  MOVLB  4
0B9FE:  MOVWF  x45
0BA00:  MOVLB  0
0BA02:  CALL   48A8
0BA06:  MOVLW  2F
0BA08:  BTFSS  F9E.4
0BA0A:  BRA    BA08
0BA0C:  MOVWF  FAD
0BA0E:  MOVFF  3C6,444
0BA12:  MOVLW  01
0BA14:  MOVLB  4
0BA16:  MOVWF  x45
0BA18:  MOVLB  0
0BA1A:  CALL   48A8
0BA1E:  MOVLW  2F
0BA20:  BTFSS  F9E.4
0BA22:  BRA    BA20
0BA24:  MOVWF  FAD
0BA26:  MOVFF  3C7,444
0BA2A:  MOVLW  01
0BA2C:  MOVLB  4
0BA2E:  MOVWF  x45
0BA30:  MOVLB  0
0BA32:  CALL   48A8
0BA36:  MOVLW  22
0BA38:  BTFSS  F9E.4
0BA3A:  BRA    BA38
0BA3C:  MOVWF  FAD
....................       SendDataDisplay(); 
0BA3E:  CALL   38F0
....................        
....................       printf("ciclo.txt=\"%02u\"",cicloCiclos); 
0BA42:  MOVLW  36
0BA44:  MOVWF  FF6
0BA46:  MOVLW  11
0BA48:  MOVWF  FF7
0BA4A:  MOVLW  00
0BA4C:  MOVWF  FF8
0BA4E:  MOVLW  0B
0BA50:  MOVLB  4
0BA52:  MOVWF  x44
0BA54:  MOVLB  0
0BA56:  CALL   484A
0BA5A:  MOVFF  3C9,444
0BA5E:  MOVLW  01
0BA60:  MOVLB  4
0BA62:  MOVWF  x45
0BA64:  MOVLB  0
0BA66:  CALL   48A8
0BA6A:  MOVLW  22
0BA6C:  BTFSS  F9E.4
0BA6E:  BRA    BA6C
0BA70:  MOVWF  FAD
....................       SendDataDisplay(); 
0BA72:  CALL   38F0
....................        
....................       printf("t0.txt=\"Ciclo %02u\"",cicloVisto); 
0BA76:  MOVLW  48
0BA78:  MOVWF  FF6
0BA7A:  MOVLW  11
0BA7C:  MOVWF  FF7
0BA7E:  MOVLW  00
0BA80:  MOVWF  FF8
0BA82:  MOVLW  0E
0BA84:  MOVLB  4
0BA86:  MOVWF  x44
0BA88:  MOVLB  0
0BA8A:  CALL   484A
0BA8E:  MOVFF  2E2,444
0BA92:  MOVLW  01
0BA94:  MOVLB  4
0BA96:  MOVWF  x45
0BA98:  MOVLB  0
0BA9A:  CALL   48A8
0BA9E:  MOVLW  22
0BAA0:  BTFSS  F9E.4
0BAA2:  BRA    BAA0
0BAA4:  MOVWF  FAD
....................       SendDataDisplay(); 
0BAA6:  CALL   38F0
....................        
....................       printf("usuario.txt=\"---\""); 
0BAAA:  MOVLW  5C
0BAAC:  MOVWF  FF6
0BAAE:  MOVLW  11
0BAB0:  MOVWF  FF7
0BAB2:  MOVLW  00
0BAB4:  MOVWF  FF8
0BAB6:  CALL   38BE
....................       SendDataDisplay(); 
0BABA:  CALL   38F0
....................        
....................       //Imprime Valores Dinamicos 
....................       for(i=0;i<7;i++){ 
0BABE:  MOVLB  3
0BAC0:  CLRF   x61
0BAC2:  MOVF   x61,W
0BAC4:  SUBLW  06
0BAC6:  BTFSS  FD8.0
0BAC8:  BRA    BD62
....................          printf("hora%u.txt=\"%02u.  %02u:%02u\"",i+1,cicloVisualizado+i+1,horaCiclos[i],minutoCiclos[i]); 
0BACA:  MOVLW  01
0BACC:  ADDWF  x61,W
0BACE:  MOVLB  4
0BAD0:  MOVWF  x3F
0BAD2:  MOVLB  3
0BAD4:  MOVF   x61,W
0BAD6:  MOVLB  2
0BAD8:  ADDWF  xE3,W
0BADA:  ADDLW  01
0BADC:  MOVLB  4
0BADE:  MOVWF  x40
0BAE0:  CLRF   03
0BAE2:  MOVLB  3
0BAE4:  MOVF   x61,W
0BAE6:  ADDLW  02
0BAE8:  MOVWF  FE9
0BAEA:  MOVLW  04
0BAEC:  ADDWFC 03,W
0BAEE:  MOVWF  FEA
0BAF0:  MOVFF  FEF,441
0BAF4:  CLRF   03
0BAF6:  MOVF   x61,W
0BAF8:  ADDLW  09
0BAFA:  MOVWF  FE9
0BAFC:  MOVLW  04
0BAFE:  ADDWFC 03,W
0BB00:  MOVWF  FEA
0BB02:  MOVFF  FEF,442
0BB06:  MOVLW  6E
0BB08:  MOVWF  FF6
0BB0A:  MOVLW  11
0BB0C:  MOVWF  FF7
0BB0E:  MOVLW  00
0BB10:  MOVWF  FF8
0BB12:  MOVLW  04
0BB14:  MOVLB  4
0BB16:  MOVWF  x44
0BB18:  MOVLB  0
0BB1A:  CALL   484A
0BB1E:  MOVFF  43F,444
0BB22:  MOVLW  1B
0BB24:  MOVLB  4
0BB26:  MOVWF  x45
0BB28:  MOVLB  0
0BB2A:  CALL   48A8
0BB2E:  MOVLW  74
0BB30:  MOVWF  FF6
0BB32:  MOVLW  11
0BB34:  MOVWF  FF7
0BB36:  MOVLW  00
0BB38:  MOVWF  FF8
0BB3A:  MOVLW  06
0BB3C:  MOVLB  4
0BB3E:  MOVWF  x44
0BB40:  MOVLB  0
0BB42:  CALL   484A
0BB46:  MOVFF  440,444
0BB4A:  MOVLW  01
0BB4C:  MOVLB  4
0BB4E:  MOVWF  x45
0BB50:  MOVLB  0
0BB52:  CALL   48A8
0BB56:  MOVLW  2E
0BB58:  BTFSS  F9E.4
0BB5A:  BRA    BB58
0BB5C:  MOVWF  FAD
0BB5E:  MOVLW  20
0BB60:  BTFSS  F9E.4
0BB62:  BRA    BB60
0BB64:  MOVWF  FAD
0BB66:  MOVLW  20
0BB68:  BTFSS  F9E.4
0BB6A:  BRA    BB68
0BB6C:  MOVWF  FAD
0BB6E:  MOVFF  441,444
0BB72:  MOVLW  01
0BB74:  MOVLB  4
0BB76:  MOVWF  x45
0BB78:  MOVLB  0
0BB7A:  CALL   48A8
0BB7E:  MOVLW  3A
0BB80:  BTFSS  F9E.4
0BB82:  BRA    BB80
0BB84:  MOVWF  FAD
0BB86:  MOVFF  442,444
0BB8A:  MOVLW  01
0BB8C:  MOVLB  4
0BB8E:  MOVWF  x45
0BB90:  MOVLB  0
0BB92:  CALL   48A8
0BB96:  MOVLW  22
0BB98:  BTFSS  F9E.4
0BB9A:  BRA    BB98
0BB9C:  MOVWF  FAD
....................          SendDataDisplay(); 
0BB9E:  CALL   38F0
....................          printf("T%u.txt=\"%3.1fC\"",i+1,TCiclos[i]); 
0BBA2:  MOVLW  01
0BBA4:  MOVLB  3
0BBA6:  ADDWF  x61,W
0BBA8:  MOVLB  4
0BBAA:  MOVWF  x3F
0BBAC:  MOVLB  3
0BBAE:  MOVF   x61,W
0BBB0:  MULLW  04
0BBB2:  MOVF   FF3,W
0BBB4:  CLRF   03
0BBB6:  ADDLW  CA
0BBB8:  MOVWF  FE9
0BBBA:  MOVLW  03
0BBBC:  ADDWFC 03,W
0BBBE:  MOVWF  FEA
0BBC0:  MOVFF  FEF,440
0BBC4:  MOVFF  FEC,441
0BBC8:  MOVFF  FEC,442
0BBCC:  MOVFF  FEC,443
0BBD0:  MOVLW  54
0BBD2:  BTFSS  F9E.4
0BBD4:  BRA    BBD2
0BBD6:  MOVWF  FAD
0BBD8:  MOVFF  43F,444
0BBDC:  MOVLW  1B
0BBDE:  MOVLB  4
0BBE0:  MOVWF  x45
0BBE2:  MOVLB  0
0BBE4:  CALL   48A8
0BBE8:  MOVLW  8F
0BBEA:  MOVWF  FF6
0BBEC:  MOVLW  11
0BBEE:  MOVWF  FF7
0BBF0:  MOVLW  00
0BBF2:  MOVWF  FF8
0BBF4:  MOVLW  06
0BBF6:  MOVLB  4
0BBF8:  MOVWF  x44
0BBFA:  MOVLB  0
0BBFC:  CALL   484A
0BC00:  MOVLW  02
0BC02:  MOVWF  FE9
0BC04:  MOVFF  443,447
0BC08:  MOVFF  442,446
0BC0C:  MOVFF  441,445
0BC10:  MOVFF  440,444
0BC14:  MOVLW  01
0BC16:  MOVLB  4
0BC18:  MOVWF  x48
0BC1A:  MOVLB  0
0BC1C:  CALL   49EA
0BC20:  MOVLW  B0
0BC22:  BTFSS  F9E.4
0BC24:  BRA    BC22
0BC26:  MOVWF  FAD
0BC28:  MOVLW  43
0BC2A:  BTFSS  F9E.4
0BC2C:  BRA    BC2A
0BC2E:  MOVWF  FAD
0BC30:  MOVLW  22
0BC32:  BTFSS  F9E.4
0BC34:  BRA    BC32
0BC36:  MOVWF  FAD
....................          SendDataDisplay(); 
0BC38:  CALL   38F0
....................          printf("Pc%u.txt=\"%03LukPa\"",i+1,PcCiclos[i]); 
0BC3C:  MOVLW  01
0BC3E:  MOVLB  3
0BC40:  ADDWF  x61,W
0BC42:  MOVLB  4
0BC44:  MOVWF  x3F
0BC46:  BCF    FD8.0
0BC48:  MOVLB  3
0BC4A:  RLCF   x61,W
0BC4C:  CLRF   03
0BC4E:  ADDLW  E6
0BC50:  MOVWF  FE9
0BC52:  MOVLW  03
0BC54:  ADDWFC 03,W
0BC56:  MOVWF  FEA
0BC58:  MOVFF  FEC,441
0BC5C:  MOVF   FED,F
0BC5E:  MOVFF  FEF,440
0BC62:  MOVLW  50
0BC64:  BTFSS  F9E.4
0BC66:  BRA    BC64
0BC68:  MOVWF  FAD
0BC6A:  MOVLW  63
0BC6C:  BTFSS  F9E.4
0BC6E:  BRA    BC6C
0BC70:  MOVWF  FAD
0BC72:  MOVFF  43F,444
0BC76:  MOVLW  1B
0BC78:  MOVLB  4
0BC7A:  MOVWF  x45
0BC7C:  MOVLB  0
0BC7E:  CALL   48A8
0BC82:  MOVLW  A2
0BC84:  MOVWF  FF6
0BC86:  MOVLW  11
0BC88:  MOVWF  FF7
0BC8A:  MOVLW  00
0BC8C:  MOVWF  FF8
0BC8E:  MOVLW  06
0BC90:  MOVLB  4
0BC92:  MOVWF  x44
0BC94:  MOVLB  0
0BC96:  CALL   484A
0BC9A:  MOVLW  0A
0BC9C:  MOVWF  FE9
0BC9E:  MOVFF  441,444
0BCA2:  MOVFF  440,443
0BCA6:  CALL   4C0E
0BCAA:  MOVLW  AD
0BCAC:  MOVWF  FF6
0BCAE:  MOVLW  11
0BCB0:  MOVWF  FF7
0BCB2:  MOVLW  00
0BCB4:  MOVWF  FF8
0BCB6:  MOVLW  04
0BCB8:  MOVLB  4
0BCBA:  MOVWF  x44
0BCBC:  MOVLB  0
0BCBE:  CALL   484A
....................          SendDataDisplay(); 
0BCC2:  CALL   38F0
....................          printf("Ppc%u.txt=\"%03LukPa\"",i+1,PpcCiclos[i]); 
0BCC6:  MOVLW  01
0BCC8:  MOVLB  3
0BCCA:  ADDWF  x61,W
0BCCC:  MOVLB  4
0BCCE:  MOVWF  x3F
0BCD0:  BCF    FD8.0
0BCD2:  MOVLB  3
0BCD4:  RLCF   x61,W
0BCD6:  CLRF   03
0BCD8:  ADDLW  F4
0BCDA:  MOVWF  FE9
0BCDC:  MOVLW  03
0BCDE:  ADDWFC 03,W
0BCE0:  MOVWF  FEA
0BCE2:  MOVFF  FEC,441
0BCE6:  MOVF   FED,F
0BCE8:  MOVFF  FEF,440
0BCEC:  MOVLW  50
0BCEE:  BTFSS  F9E.4
0BCF0:  BRA    BCEE
0BCF2:  MOVWF  FAD
0BCF4:  MOVLW  70
0BCF6:  BTFSS  F9E.4
0BCF8:  BRA    BCF6
0BCFA:  MOVWF  FAD
0BCFC:  MOVLW  63
0BCFE:  BTFSS  F9E.4
0BD00:  BRA    BCFE
0BD02:  MOVWF  FAD
0BD04:  MOVFF  43F,444
0BD08:  MOVLW  1B
0BD0A:  MOVLB  4
0BD0C:  MOVWF  x45
0BD0E:  MOVLB  0
0BD10:  CALL   48A8
0BD14:  MOVLW  B7
0BD16:  MOVWF  FF6
0BD18:  MOVLW  11
0BD1A:  MOVWF  FF7
0BD1C:  MOVLW  00
0BD1E:  MOVWF  FF8
0BD20:  MOVLW  06
0BD22:  MOVLB  4
0BD24:  MOVWF  x44
0BD26:  MOVLB  0
0BD28:  CALL   484A
0BD2C:  MOVLW  0A
0BD2E:  MOVWF  FE9
0BD30:  MOVFF  441,444
0BD34:  MOVFF  440,443
0BD38:  CALL   4C0E
0BD3C:  MOVLW  C2
0BD3E:  MOVWF  FF6
0BD40:  MOVLW  11
0BD42:  MOVWF  FF7
0BD44:  MOVLW  00
0BD46:  MOVWF  FF8
0BD48:  MOVLW  04
0BD4A:  MOVLB  4
0BD4C:  MOVWF  x44
0BD4E:  MOVLB  0
0BD50:  CALL   484A
....................          SendDataDisplay();          
0BD54:  CALL   38F0
....................          codificaAlarma(); 
0BD58:  GOTO   5A9C
....................       }   
0BD5C:  MOVLB  3
0BD5E:  INCF   x61,F
0BD60:  BRA    BAC2
....................    } 
.................... //_--------------------------------------------------------------------------------------------------------------------------------------------------------       
....................  
.................... //_--------------------------------------------------------------------------------------------------------------------------------------------------------       
....................     if(Menu==15){//Menu de Clave Correcta 
0BD62:  MOVF   x5E,W
0BD64:  SUBLW  0F
0BD66:  BNZ   BD9E
....................       if(!entro){ 
0BD68:  MOVLB  0
0BD6A:  BTFSC  xA3.6
0BD6C:  BRA    BD88
....................          delay_ms(2000); 
0BD6E:  MOVLW  08
0BD70:  MOVLB  4
0BD72:  MOVWF  x3F
0BD74:  MOVLW  FA
0BD76:  MOVWF  x54
0BD78:  MOVLB  0
0BD7A:  CALL   1A84
0BD7E:  MOVLB  4
0BD80:  DECFSZ x3F,F
0BD82:  BRA    BD74
....................          entro=ON; 
0BD84:  MOVLB  0
0BD86:  BSF    xA3.6
....................       } 
....................       printf("page MenuPrincipal"); 
0BD88:  MOVLW  C8
0BD8A:  MOVWF  FF6
0BD8C:  MOVLW  11
0BD8E:  MOVWF  FF7
0BD90:  MOVLW  00
0BD92:  MOVWF  FF8
0BD94:  CALL   38BE
....................       SendDataDisplay(); 
0BD98:  CALL   38F0
0BD9C:  MOVLB  3
....................    } 
.................... //_--------------------------------------------------------------------------------------------------------------------------------------------------------       
....................  
.................... //_--------------------------------------------------------------------------------------------------------------------------------------------------------       
....................     if(Menu==16){//Menu de Clave InCorrecta 
0BD9E:  MOVF   x5E,W
0BDA0:  SUBLW  10
0BDA2:  BNZ   BDDA
....................       if(!entro){ 
0BDA4:  MOVLB  0
0BDA6:  BTFSC  xA3.6
0BDA8:  BRA    BDC4
....................          delay_ms(2000); 
0BDAA:  MOVLW  08
0BDAC:  MOVLB  4
0BDAE:  MOVWF  x3F
0BDB0:  MOVLW  FA
0BDB2:  MOVWF  x54
0BDB4:  MOVLB  0
0BDB6:  CALL   1A84
0BDBA:  MOVLB  4
0BDBC:  DECFSZ x3F,F
0BDBE:  BRA    BDB0
....................          entro=ON; 
0BDC0:  MOVLB  0
0BDC2:  BSF    xA3.6
....................       } 
....................       printf("page Clave"); 
0BDC4:  MOVLW  DC
0BDC6:  MOVWF  FF6
0BDC8:  MOVLW  11
0BDCA:  MOVWF  FF7
0BDCC:  MOVLW  00
0BDCE:  MOVWF  FF8
0BDD0:  CALL   38BE
....................       SendDataDisplay(); 
0BDD4:  CALL   38F0
0BDD8:  MOVLB  3
....................    } 
.................... //_--------------------------------------------------------------------------------------------------------------------------------------------------------       
....................  
.................... //_--------------------------------------------------------------------------------------------------------------------------------------------------------     
....................    if(Menu==20){ // Este es el menu de cuando el proceso se inicio. 
0BDDA:  MOVF   x5E,W
0BDDC:  SUBLW  14
0BDDE:  BTFSS  FD8.2
0BDE0:  GOTO   CE92
....................    //Lectura_Esclavos(); 
....................    GuardaDatoEstatico(); 
0BDE4:  MOVLB  0
0BDE6:  GOTO   611C
....................    guardaCiclo=ON; 
0BDEA:  BSF    xA4.1
....................    if(!Libre){ 
0BDEC:  BTFSC  xA3.4
0BDEE:  BRA    BE74
....................       printf("t2f.txt=\"%u\"",CicloSeleccionado); 
0BDF0:  MOVLW  E8
0BDF2:  MOVWF  FF6
0BDF4:  MOVLW  11
0BDF6:  MOVWF  FF7
0BDF8:  MOVLW  00
0BDFA:  MOVWF  FF8
0BDFC:  MOVLW  09
0BDFE:  MOVLB  4
0BE00:  MOVWF  x44
0BE02:  MOVLB  0
0BE04:  CALL   484A
0BE08:  MOVFF  364,444
0BE0C:  MOVLW  1B
0BE0E:  MOVLB  4
0BE10:  MOVWF  x45
0BE12:  MOVLB  0
0BE14:  CALL   48A8
0BE18:  MOVLW  22
0BE1A:  BTFSS  F9E.4
0BE1C:  BRA    BE1A
0BE1E:  MOVWF  FAD
....................       SendDataDisplay(); 
0BE20:  CALL   38F0
....................       printf("t3f.txt=\"%s\"",texto[CicloSeleccionado-1]); 
0BE24:  MOVLW  01
0BE26:  MOVLB  3
0BE28:  SUBWF  x64,W
0BE2A:  MULLW  14
0BE2C:  MOVF   FF3,W
0BE2E:  CLRF   03
0BE30:  MOVLB  4
0BE32:  MOVWF  x3F
0BE34:  MOVLW  F6
0BE36:  MOVWF  FF6
0BE38:  MOVLW  11
0BE3A:  MOVWF  FF7
0BE3C:  MOVLW  00
0BE3E:  MOVWF  FF8
0BE40:  MOVLW  09
0BE42:  MOVWF  x44
0BE44:  MOVLB  0
0BE46:  CALL   484A
0BE4A:  MOVLW  50
0BE4C:  MOVWF  FF6
0BE4E:  MOVLW  01
0BE50:  MOVWF  FF7
0BE52:  MOVLW  00
0BE54:  MOVWF  FF8
0BE56:  MOVLB  4
0BE58:  MOVF   x3F,W
0BE5A:  ADDWF  FF6,F
0BE5C:  MOVLW  00
0BE5E:  ADDWFC FF7,F
0BE60:  MOVLB  0
0BE62:  CALL   38BE
0BE66:  MOVLW  22
0BE68:  BTFSS  F9E.4
0BE6A:  BRA    BE68
0BE6C:  MOVWF  FAD
....................       SendDataDisplay(); 
0BE6E:  CALL   38F0
....................    }else{ 
0BE72:  BRA    BEC4
....................       printf("t2f.txt=\"%u\"",CicloLibre+4); 
0BE74:  MOVLW  04
0BE76:  MOVLB  3
0BE78:  ADDWF  x3E,W
0BE7A:  MOVLB  4
0BE7C:  MOVWF  x3F
0BE7E:  MOVLW  04
0BE80:  MOVWF  FF6
0BE82:  MOVLW  12
0BE84:  MOVWF  FF7
0BE86:  MOVLW  00
0BE88:  MOVWF  FF8
0BE8A:  MOVLW  09
0BE8C:  MOVWF  x44
0BE8E:  MOVLB  0
0BE90:  CALL   484A
0BE94:  MOVFF  43F,444
0BE98:  MOVLW  1B
0BE9A:  MOVLB  4
0BE9C:  MOVWF  x45
0BE9E:  MOVLB  0
0BEA0:  CALL   48A8
0BEA4:  MOVLW  22
0BEA6:  BTFSS  F9E.4
0BEA8:  BRA    BEA6
0BEAA:  MOVWF  FAD
....................       SendDataDisplay(); 
0BEAC:  CALL   38F0
....................       printf("t3f.txt=\"Personalizado\""); 
0BEB0:  MOVLW  12
0BEB2:  MOVWF  FF6
0BEB4:  MOVLW  12
0BEB6:  MOVWF  FF7
0BEB8:  MOVLW  00
0BEBA:  MOVWF  FF8
0BEBC:  CALL   38BE
....................       SendDataDisplay(); 
0BEC0:  CALL   38F0
....................    } 
....................     
....................    if(RIGHT){ 
0BEC4:  BSF    F93.2
0BEC6:  BTFSC  F81.2
0BEC8:  BRA    BEE0
....................       //glcd_init(ON); 
....................       delay_ms(1000); 
0BECA:  MOVLW  04
0BECC:  MOVLB  4
0BECE:  MOVWF  x3F
0BED0:  MOVLW  FA
0BED2:  MOVWF  x54
0BED4:  MOVLB  0
0BED6:  CALL   1A84
0BEDA:  MOVLB  4
0BEDC:  DECFSZ x3F,F
0BEDE:  BRA    BED0
....................       /*flagCalentando=OFF; 
....................       flagDesfogando=OFF; 
....................       flagEsterilizando=OFF;*/ 
....................    } 
....................     
....................    if(PresionCamara>Atmosferica+275){ 
0BEE0:  MOVLW  13
0BEE2:  MOVLB  3
0BEE4:  ADDWF  xAE,W
0BEE6:  MOVWF  01
0BEE8:  MOVLW  01
0BEEA:  MOVWF  03
0BEEC:  BTFSC  FD8.0
0BEEE:  INCF   03,F
0BEF0:  MOVF   03,W
0BEF2:  SUBWF  x78,W
0BEF4:  BNC   BF02
0BEF6:  BNZ   BEFE
0BEF8:  MOVF   x77,W
0BEFA:  SUBWF  01,W
0BEFC:  BC    BF02
....................       AlarmaPresion=ON; 
0BEFE:  MOVLB  0
0BF00:  BSF    xA3.3
....................    } 
....................     
....................    if(Temperatura>105 && PresionCamara<Atmosferica+10 && !Desfogando){ 
0BF02:  MOVLB  4
0BF04:  CLRF   x46
0BF06:  CLRF   x45
0BF08:  MOVLW  52
0BF0A:  MOVWF  x44
0BF0C:  MOVLW  85
0BF0E:  MOVWF  x43
0BF10:  MOVFF  32B,44A
0BF14:  MOVFF  32A,449
0BF18:  MOVFF  329,448
0BF1C:  MOVFF  328,447
0BF20:  MOVLB  0
0BF22:  CALL   2D88
0BF26:  BNC   BF4A
0BF28:  MOVLW  0A
0BF2A:  MOVLB  3
0BF2C:  ADDWF  xAE,W
0BF2E:  MOVF   x78,F
0BF30:  BTFSC  FD8.2
0BF32:  BRA    BF38
0BF34:  MOVLB  0
0BF36:  BRA    BF4A
0BF38:  SUBWF  x77,W
0BF3A:  BTFSS  FD8.0
0BF3C:  BRA    BF42
0BF3E:  MOVLB  0
0BF40:  BRA    BF4A
0BF42:  MOVLB  0
0BF44:  BTFSC  xA0.5
0BF46:  BRA    BF4A
....................       AlarmaCiclo=ON; 
0BF48:  BSF    x9F.6
....................    } 
....................     
....................    if(TiempoCiclo>3000){ 
0BF4A:  MOVF   xA6,W
0BF4C:  SUBLW  0A
0BF4E:  BC    BF84
0BF50:  XORLW  FF
0BF52:  BNZ   BF5A
0BF54:  MOVF   xA5,W
0BF56:  SUBLW  B8
0BF58:  BC    BF84
....................       if(TiempoCiclo>5000) 
0BF5A:  MOVF   xA6,W
0BF5C:  SUBLW  12
0BF5E:  BC    BF6C
0BF60:  XORLW  FF
0BF62:  BNZ   BF6A
0BF64:  MOVF   xA5,W
0BF66:  SUBLW  88
0BF68:  BC    BF6C
....................          AlarmaTiempoProlongado=ON; 
0BF6A:  BSF    x9F.0
....................       if(PresionCamara<Atmosferica+10){ 
0BF6C:  MOVLW  0A
0BF6E:  MOVLB  3
0BF70:  ADDWF  xAE,W
0BF72:  MOVF   x78,F
0BF74:  BNZ   BF80
0BF76:  SUBWF  x77,W
0BF78:  BC    BF80
....................          AlarmaTiempoProlongado=ON; 
0BF7A:  MOVLB  0
0BF7C:  BSF    x9F.0
0BF7E:  MOVLB  3
....................       } 
....................    }else{ 
0BF80:  BRA    BF86
0BF82:  MOVLB  0
....................       AlarmaTiempoProlongado=OFF; 
0BF84:  BCF    x9F.0
....................    } 
....................     
....................    if(Temperatura>Setpoint+3.0){ 
0BF86:  MOVLB  4
0BF88:  CLRF   x55
0BF8A:  MOVFF  365,454
0BF8E:  MOVLB  0
0BF90:  CALL   1AAC
0BF94:  BCF    FD8.1
0BF96:  MOVFF  03,457
0BF9A:  MOVFF  02,456
0BF9E:  MOVFF  01,455
0BFA2:  MOVFF  00,454
0BFA6:  MOVLB  4
0BFA8:  CLRF   x5B
0BFAA:  CLRF   x5A
0BFAC:  MOVLW  40
0BFAE:  MOVWF  x59
0BFB0:  MOVLW  80
0BFB2:  MOVWF  x58
0BFB4:  MOVLB  0
0BFB6:  CALL   1C40
0BFBA:  MOVFF  03,446
0BFBE:  MOVFF  02,445
0BFC2:  MOVFF  01,444
0BFC6:  MOVFF  00,443
0BFCA:  MOVFF  32B,44A
0BFCE:  MOVFF  32A,449
0BFD2:  MOVFF  329,448
0BFD6:  MOVFF  328,447
0BFDA:  CALL   2D88
0BFDE:  BNC   BFE2
....................       AlarmaSobreTemperatura=ON; 
0BFE0:  BSF    x9F.1
....................    } 
....................     
....................    if(TiempoLlenado>1800){ 
0BFE2:  MOVF   xA8,W
0BFE4:  SUBLW  06
0BFE6:  BC    BFF6
0BFE8:  XORLW  FF
0BFEA:  BNZ   BFF2
0BFEC:  MOVF   xA7,W
0BFEE:  SUBLW  08
0BFF0:  BC    BFF6
....................       AlarmaLlenado=ON; 
0BFF2:  BSF    x9F.2
....................    }else{ 
0BFF4:  BRA    BFF8
....................       AlarmaLlenado=OFF; 
0BFF6:  BCF    x9F.2
....................    } 
....................     
....................    if(tTermostato>=2000){ 
0BFF8:  MOVLB  3
0BFFA:  MOVF   x9D,W
0BFFC:  SUBLW  06
0BFFE:  BC    C010
0C000:  XORLW  FF
0C002:  BNZ   C00A
0C004:  MOVF   x9C,W
0C006:  SUBLW  CF
0C008:  BC    C010
....................       AlarmaTermostato=ON; 
0C00A:  MOVLB  0
0C00C:  BSF    x9F.3
0C00E:  MOVLB  3
....................    } 
....................     
....................    if(!DOOR){ 
0C010:  BSF    F93.6
0C012:  BTFSS  F81.6
0C014:  BRA    C02A
....................       //Desfogue_off; 
....................       //Solenoide_off; 
....................       //Agua_off; 
....................       //Bomba_off; 
....................       //Aire=OFF; 
....................       if(!Secando && !Finalizo && !Desfogando){ 
0C016:  MOVLB  0
0C018:  BTFSC  xA0.3
0C01A:  BRA    C026
0C01C:  BTFSC  xA3.2
0C01E:  BRA    C026
0C020:  BTFSC  xA0.5
0C022:  BRA    C026
....................          AlarmaPuerta=ON; 
0C024:  BSF    x9F.4
....................       } 
....................    }else{ 
0C026:  BRA    C02E
0C028:  MOVLB  3
....................       AlarmaPuerta=OFF; 
0C02A:  MOVLB  0
0C02C:  BCF    x9F.4
....................    } 
....................  
....................    if(tStop>=300){ 
0C02E:  MOVLB  3
0C030:  MOVF   x9B,W
0C032:  SUBLW  00
0C034:  BC    C046
0C036:  XORLW  FF
0C038:  BNZ   C040
0C03A:  MOVF   x9A,W
0C03C:  SUBLW  2B
0C03E:  BC    C046
....................       AlarmaEmergencia=ON; 
0C040:  MOVLB  0
0C042:  BSF    x9F.5
0C044:  MOVLB  3
....................    } 
....................     
....................    if(AlarmaPuerta || AlarmaTermostato || AlarmaLlenado || AlarmaSobreTemperatura || AlarmaTiempoProlongado || AlarmaEmergencia || AlarmaPresion 
....................    || AlarmaCiclo){ 
0C046:  MOVLB  0
0C048:  BTFSC  x9F.4
0C04A:  BRA    C068
0C04C:  BTFSC  x9F.3
0C04E:  BRA    C068
0C050:  BTFSC  x9F.2
0C052:  BRA    C068
0C054:  BTFSC  x9F.1
0C056:  BRA    C068
0C058:  BTFSC  x9F.0
0C05A:  BRA    C068
0C05C:  BTFSC  x9F.5
0C05E:  BRA    C068
0C060:  BTFSC  xA3.3
0C062:  BRA    C068
0C064:  BTFSS  x9F.6
0C066:  BRA    C4C0
....................       ActivaAlarma(1); 
0C068:  MOVLW  01
0C06A:  MOVLB  4
0C06C:  MOVWF  x3F
0C06E:  MOVLB  0
0C070:  CALL   4748
....................       if(AlarmaEmergencia){ 
0C074:  BTFSS  x9F.5
0C076:  BRA    C100
....................          printf("Funcionamiento.t4f.txt=\" Parada de Emergencia\""); 
0C078:  MOVLW  2A
0C07A:  MOVWF  FF6
0C07C:  MOVLW  12
0C07E:  MOVWF  FF7
0C080:  MOVLW  00
0C082:  MOVWF  FF8
0C084:  CALL   38BE
....................          SendDataDisplay(); 
0C088:  CALL   38F0
....................          printf("Funcionamiento.t5f.txt=\" Cancelado\""); 
0C08C:  MOVLW  5A
0C08E:  MOVWF  FF6
0C090:  MOVLW  12
0C092:  MOVWF  FF7
0C094:  MOVLW  00
0C096:  MOVWF  FF8
0C098:  CALL   38BE
....................          SendDataDisplay(); 
0C09C:  CALL   38F0
....................          Desfogue_on; 
0C0A0:  BSF    F8C.4
0C0A2:  BCF    F95.4
....................          SSR_off; 
0C0A4:  BSF    F8B.2
0C0A6:  BCF    F94.2
....................          Agua_off; 
0C0A8:  BCF    F8C.5
0C0AA:  BCF    F95.5
....................          Bomba_off; 
0C0AC:  BCF    F8C.6
0C0AE:  BCF    F95.6
....................          Aire=OFF; 
0C0B0:  BCF    xA3.7
....................          Esterilizando=OFF; 
0C0B2:  BCF    xA0.2
....................          Desfogando=OFF; 
0C0B4:  BCF    xA0.5
....................          DesfogueSuave=OFF; 
0C0B6:  BCF    xA0.6
....................          Esterilizando=OFF; 
0C0B8:  BCF    xA0.2
....................          //IniciaCiclo=OFF; 
....................          Controlando=0; 
0C0BA:  MOVLB  3
0C0BC:  CLRF   x56
....................          codigoAlarma=1; 
0C0BE:  MOVLW  01
0C0C0:  MOVLB  2
0C0C2:  MOVWF  xE6
....................          if(codigoAnt!=codigoAlarma){ 
0C0C4:  MOVF   xE6,W
0C0C6:  SUBWF  xE7,W
0C0C8:  BZ    C0D8
....................             codigoAnt=codigoAlarma; 
0C0CA:  MOVFF  2E6,2E7
....................             GuardaDatoCiclo(); 
0C0CE:  MOVLB  0
0C0D0:  CALL   63D8
....................             incrementaCiclos(); 
0C0D4:  CALL   677C
....................          } 
....................          if(!flagImprimir){ 
0C0D8:  MOVLB  3
0C0DA:  BTFSC  x53.2
0C0DC:  BRA    C0FC
....................             Imprime=20; 
0C0DE:  MOVLW  14
0C0E0:  MOVWF  xAD
....................             Envio_Esclavos(); 
0C0E2:  MOVLB  0
0C0E4:  CALL   4686
....................             delay_ms(100); 
0C0E8:  MOVLW  64
0C0EA:  MOVLB  4
0C0EC:  MOVWF  x54
0C0EE:  MOVLB  0
0C0F0:  CALL   1A84
....................             Imprime=10; 
0C0F4:  MOVLW  0A
0C0F6:  MOVLB  3
0C0F8:  MOVWF  xAD
....................             flagImprimir=1; 
0C0FA:  BSF    x53.2
....................          } 
....................       }else if(AlarmaPuerta){ 
0C0FC:  BRA    C4BA
0C0FE:  MOVLB  0
0C100:  BTFSS  x9F.4
0C102:  BRA    C164
....................             codigoAlarma=2; 
0C104:  MOVLW  02
0C106:  MOVLB  2
0C108:  MOVWF  xE6
....................             printf("Funcionamiento.t4f.txt=\" Puerta Abierta\""); 
0C10A:  MOVLW  7E
0C10C:  MOVWF  FF6
0C10E:  MOVLW  12
0C110:  MOVWF  FF7
0C112:  MOVLW  00
0C114:  MOVWF  FF8
0C116:  MOVLB  0
0C118:  CALL   38BE
....................             SendDataDisplay(); 
0C11C:  CALL   38F0
....................             printf("Funcionamiento.t5f.txt=\" Pausado\""); 
0C120:  MOVLW  A8
0C122:  MOVWF  FF6
0C124:  MOVLW  12
0C126:  MOVWF  FF7
0C128:  MOVLW  00
0C12A:  MOVWF  FF8
0C12C:  CALL   38BE
....................             SendDataDisplay(); 
0C130:  CALL   38F0
....................             SSR_off; 
0C134:  BSF    F8B.2
0C136:  BCF    F94.2
....................             Agua_off; 
0C138:  BCF    F8C.5
0C13A:  BCF    F95.5
....................             Bomba_off; 
0C13C:  BCF    F8C.6
0C13E:  BCF    F95.6
....................             Aire=OFF; 
0C140:  BCF    xA3.7
....................             IniciaLlenado=OFF; 
0C142:  BCF    x9F.7
....................             IniciaCiclo=OFF; 
0C144:  BCF    xA0.1
....................             Esterilizando=OFF; 
0C146:  BCF    xA0.2
....................             Controlando=0; 
0C148:  MOVLB  3
0C14A:  CLRF   x56
....................             if(codigoAnt!=codigoAlarma){ 
0C14C:  MOVLB  2
0C14E:  MOVF   xE6,W
0C150:  SUBWF  xE7,W
0C152:  BZ    C160
....................                codigoAnt=codigoAlarma; 
0C154:  MOVFF  2E6,2E7
....................                GuardaDatoCiclo(); 
0C158:  MOVLB  0
0C15A:  CALL   63D8
0C15E:  MOVLB  2
....................                //incrementaCiclos(); 
....................             } 
....................       }else if(AlarmaLlenado){ 
0C160:  BRA    C4BC
0C162:  MOVLB  0
0C164:  BTFSS  x9F.2
0C166:  BRA    C1F2
....................             codigoAlarma=8; 
0C168:  MOVLW  08
0C16A:  MOVLB  2
0C16C:  MOVWF  xE6
....................             printf("Funcionamiento.t4f.txt=\" Tiempo Llenado\""); 
0C16E:  MOVLW  CA
0C170:  MOVWF  FF6
0C172:  MOVLW  12
0C174:  MOVWF  FF7
0C176:  MOVLW  00
0C178:  MOVWF  FF8
0C17A:  MOVLB  0
0C17C:  CALL   38BE
....................             SendDataDisplay(); 
0C180:  CALL   38F0
....................             printf("Funcionamiento.t5f.txt=\" Cancelado\""); 
0C184:  MOVLW  F4
0C186:  MOVWF  FF6
0C188:  MOVLW  12
0C18A:  MOVWF  FF7
0C18C:  MOVLW  00
0C18E:  MOVWF  FF8
0C190:  CALL   38BE
....................             SendDataDisplay(); 
0C194:  CALL   38F0
....................             Desfogue_off; 
0C198:  BCF    F8C.4
0C19A:  BCF    F95.4
....................             SSR_off; 
0C19C:  BSF    F8B.2
0C19E:  BCF    F94.2
....................             Agua_off; 
0C1A0:  BCF    F8C.5
0C1A2:  BCF    F95.5
....................             Bomba_off; 
0C1A4:  BCF    F8C.6
0C1A6:  BCF    F95.6
....................             Aire=OFF; 
0C1A8:  BCF    xA3.7
....................             IniciaLlenado=OFF; 
0C1AA:  BCF    x9F.7
....................             IniciaCiclo=OFF; 
0C1AC:  BCF    xA0.1
....................             Esterilizando=OFF; 
0C1AE:  BCF    xA0.2
....................             Controlando=0; 
0C1B0:  MOVLB  3
0C1B2:  CLRF   x56
....................             if(codigoAnt!=codigoAlarma){ 
0C1B4:  MOVLB  2
0C1B6:  MOVF   xE6,W
0C1B8:  SUBWF  xE7,W
0C1BA:  BZ    C1CA
....................                codigoAnt=codigoAlarma; 
0C1BC:  MOVFF  2E6,2E7
....................                GuardaDatoCiclo(); 
0C1C0:  MOVLB  0
0C1C2:  CALL   63D8
....................                incrementaCiclos(); 
0C1C6:  CALL   677C
....................             } 
....................             if(!flagImprimir){ 
0C1CA:  MOVLB  3
0C1CC:  BTFSC  x53.2
0C1CE:  BRA    C1EE
....................                Imprime=21; 
0C1D0:  MOVLW  15
0C1D2:  MOVWF  xAD
....................                Envio_Esclavos(); 
0C1D4:  MOVLB  0
0C1D6:  CALL   4686
....................                delay_ms(100); 
0C1DA:  MOVLW  64
0C1DC:  MOVLB  4
0C1DE:  MOVWF  x54
0C1E0:  MOVLB  0
0C1E2:  CALL   1A84
....................                Imprime=10; 
0C1E6:  MOVLW  0A
0C1E8:  MOVLB  3
0C1EA:  MOVWF  xAD
....................                flagImprimir=1; 
0C1EC:  BSF    x53.2
....................             } 
....................       }else if(AlarmaTermostato){ // Alarma de Termostato 
0C1EE:  BRA    C4BA
0C1F0:  MOVLB  0
0C1F2:  BTFSS  x9F.3
0C1F4:  BRA    C286
....................             codigoAlarma=3; 
0C1F6:  MOVLW  03
0C1F8:  MOVLB  2
0C1FA:  MOVWF  xE6
....................             tiempo_esterilizacion=0;tiempo_secado=0; 
0C1FC:  MOVLB  3
0C1FE:  CLRF   x68
0C200:  CLRF   x69
....................             printf("Funcionamiento.t4f.txt=\" Termostato\""); 
0C202:  MOVLW  18
0C204:  MOVWF  FF6
0C206:  MOVLW  13
0C208:  MOVWF  FF7
0C20A:  MOVLW  00
0C20C:  MOVWF  FF8
0C20E:  MOVLB  0
0C210:  CALL   38BE
....................             SendDataDisplay(); 
0C214:  CALL   38F0
....................             printf("Funcionamiento.t5f.txt=\" Cancelado\""); 
0C218:  MOVLW  3E
0C21A:  MOVWF  FF6
0C21C:  MOVLW  13
0C21E:  MOVWF  FF7
0C220:  MOVLW  00
0C222:  MOVWF  FF8
0C224:  CALL   38BE
....................             SendDataDisplay(); 
0C228:  CALL   38F0
....................             Desfogue_on;             
0C22C:  BSF    F8C.4
0C22E:  BCF    F95.4
....................             SSR_off; 
0C230:  BSF    F8B.2
0C232:  BCF    F94.2
....................             Agua_off; 
0C234:  BCF    F8C.5
0C236:  BCF    F95.5
....................             Bomba_off; 
0C238:  BCF    F8C.6
0C23A:  BCF    F95.6
....................             Aire=OFF; 
0C23C:  BCF    xA3.7
....................             Esterilizando=OFF; 
0C23E:  BCF    xA0.2
....................             Desfogando=OFF; 
0C240:  BCF    xA0.5
....................             IniciaCiclo=OFF; 
0C242:  BCF    xA0.1
....................             Controlando=0; 
0C244:  MOVLB  3
0C246:  CLRF   x56
....................             if(codigoAnt!=codigoAlarma){ 
0C248:  MOVLB  2
0C24A:  MOVF   xE6,W
0C24C:  SUBWF  xE7,W
0C24E:  BZ    C25E
....................                codigoAnt=codigoAlarma; 
0C250:  MOVFF  2E6,2E7
....................                GuardaDatoCiclo(); 
0C254:  MOVLB  0
0C256:  CALL   63D8
....................                incrementaCiclos(); 
0C25A:  CALL   677C
....................             } 
....................             if(!flagImprimir){ 
0C25E:  MOVLB  3
0C260:  BTFSC  x53.2
0C262:  BRA    C282
....................                Imprime=22; 
0C264:  MOVLW  16
0C266:  MOVWF  xAD
....................                Envio_Esclavos(); 
0C268:  MOVLB  0
0C26A:  CALL   4686
....................                delay_ms(100); 
0C26E:  MOVLW  64
0C270:  MOVLB  4
0C272:  MOVWF  x54
0C274:  MOVLB  0
0C276:  CALL   1A84
....................                Imprime=10; 
0C27A:  MOVLW  0A
0C27C:  MOVLB  3
0C27E:  MOVWF  xAD
....................                flagImprimir=1; 
0C280:  BSF    x53.2
....................             } 
....................       }else if(AlarmaSobreTemperatura){ // Alarma de Sobre Temperatura 
0C282:  BRA    C4BA
0C284:  MOVLB  0
0C286:  BTFSS  x9F.1
0C288:  BRA    C31C
....................          codigoAlarma=4; 
0C28A:  MOVLW  04
0C28C:  MOVLB  2
0C28E:  MOVWF  xE6
....................          tiempo_esterilizacion=0;tiempo_secado=0; 
0C290:  MOVLB  3
0C292:  CLRF   x68
0C294:  CLRF   x69
....................          printf("Funcionamiento.t4f.txt=\" Sobretemperatura\""); 
0C296:  MOVLW  62
0C298:  MOVWF  FF6
0C29A:  MOVLW  13
0C29C:  MOVWF  FF7
0C29E:  MOVLW  00
0C2A0:  MOVWF  FF8
0C2A2:  MOVLB  0
0C2A4:  CALL   38BE
....................          SendDataDisplay(); 
0C2A8:  CALL   38F0
....................          printf("Funcionamiento.t5f.txt=\" Cancelado\""); 
0C2AC:  MOVLW  8E
0C2AE:  MOVWF  FF6
0C2B0:  MOVLW  13
0C2B2:  MOVWF  FF7
0C2B4:  MOVLW  00
0C2B6:  MOVWF  FF8
0C2B8:  CALL   38BE
....................          SendDataDisplay();   
0C2BC:  CALL   38F0
....................          Desfogue_on; 
0C2C0:  BSF    F8C.4
0C2C2:  BCF    F95.4
....................          SSR_off; 
0C2C4:  BSF    F8B.2
0C2C6:  BCF    F94.2
....................          Agua_off; 
0C2C8:  BCF    F8C.5
0C2CA:  BCF    F95.5
....................          Bomba_off; 
0C2CC:  BCF    F8C.6
0C2CE:  BCF    F95.6
....................          Aire=OFF; 
0C2D0:  BCF    xA3.7
....................          Controlando=0; 
0C2D2:  MOVLB  3
0C2D4:  CLRF   x56
....................          IniciaLlenado=OFF; 
0C2D6:  MOVLB  0
0C2D8:  BCF    x9F.7
....................          IniciaCiclo=OFF; 
0C2DA:  BCF    xA0.1
....................          Esterilizando=OFF; 
0C2DC:  BCF    xA0.2
....................          if(codigoAnt!=codigoAlarma){ 
0C2DE:  MOVLB  2
0C2E0:  MOVF   xE6,W
0C2E2:  SUBWF  xE7,W
0C2E4:  BZ    C2F4
....................             codigoAnt=codigoAlarma; 
0C2E6:  MOVFF  2E6,2E7
....................             GuardaDatoCiclo(); 
0C2EA:  MOVLB  0
0C2EC:  CALL   63D8
....................             incrementaCiclos(); 
0C2F0:  CALL   677C
....................          } 
....................          if(!flagImprimir){ 
0C2F4:  MOVLB  3
0C2F6:  BTFSC  x53.2
0C2F8:  BRA    C318
....................             Imprime=23; 
0C2FA:  MOVLW  17
0C2FC:  MOVWF  xAD
....................             Envio_Esclavos(); 
0C2FE:  MOVLB  0
0C300:  CALL   4686
....................             delay_ms(100); 
0C304:  MOVLW  64
0C306:  MOVLB  4
0C308:  MOVWF  x54
0C30A:  MOVLB  0
0C30C:  CALL   1A84
....................             Imprime=10; 
0C310:  MOVLW  0A
0C312:  MOVLB  3
0C314:  MOVWF  xAD
....................             flagImprimir=1; 
0C316:  BSF    x53.2
....................          } 
....................       }else if(AlarmaTiempoProlongado){ // Alarma de Error de Tiempo: Error por exceso de tiempo de calentamiento. 
0C318:  BRA    C4BA
0C31A:  MOVLB  0
0C31C:  BTFSS  x9F.0
0C31E:  BRA    C3AC
....................          codigoAlarma=5; 
0C320:  MOVLW  05
0C322:  MOVLB  2
0C324:  MOVWF  xE6
....................          printf("Funcionamiento.t4f.txt=\" Tiempo Prolongado\""); 
0C326:  MOVLW  B2
0C328:  MOVWF  FF6
0C32A:  MOVLW  13
0C32C:  MOVWF  FF7
0C32E:  MOVLW  00
0C330:  MOVWF  FF8
0C332:  MOVLB  0
0C334:  CALL   38BE
....................          SendDataDisplay(); 
0C338:  CALL   38F0
....................          printf("Funcionamiento.t5f.txt=\" Cancelado\""); 
0C33C:  MOVLW  DE
0C33E:  MOVWF  FF6
0C340:  MOVLW  13
0C342:  MOVWF  FF7
0C344:  MOVLW  00
0C346:  MOVWF  FF8
0C348:  CALL   38BE
....................          SendDataDisplay(); 
0C34C:  CALL   38F0
....................          Desfogue_on; 
0C350:  BSF    F8C.4
0C352:  BCF    F95.4
....................          SSR_off; 
0C354:  BSF    F8B.2
0C356:  BCF    F94.2
....................          Agua_off; 
0C358:  BCF    F8C.5
0C35A:  BCF    F95.5
....................          Bomba_off; 
0C35C:  BCF    F8C.6
0C35E:  BCF    F95.6
....................          Aire=OFF; 
0C360:  BCF    xA3.7
....................          Controlando=0; 
0C362:  MOVLB  3
0C364:  CLRF   x56
....................          IniciaLlenado=OFF; 
0C366:  MOVLB  0
0C368:  BCF    x9F.7
....................          IniciaCiclo=OFF; 
0C36A:  BCF    xA0.1
....................          Esterilizando=OFF; 
0C36C:  BCF    xA0.2
....................          if(codigoAnt!=codigoAlarma){ 
0C36E:  MOVLB  2
0C370:  MOVF   xE6,W
0C372:  SUBWF  xE7,W
0C374:  BZ    C384
....................             codigoAnt=codigoAlarma; 
0C376:  MOVFF  2E6,2E7
....................             GuardaDatoCiclo(); 
0C37A:  MOVLB  0
0C37C:  CALL   63D8
....................             incrementaCiclos(); 
0C380:  CALL   677C
....................          } 
....................          if(!flagImprimir){ 
0C384:  MOVLB  3
0C386:  BTFSC  x53.2
0C388:  BRA    C3A8
....................             Imprime=24; 
0C38A:  MOVLW  18
0C38C:  MOVWF  xAD
....................             Envio_Esclavos(); 
0C38E:  MOVLB  0
0C390:  CALL   4686
....................             delay_ms(100); 
0C394:  MOVLW  64
0C396:  MOVLB  4
0C398:  MOVWF  x54
0C39A:  MOVLB  0
0C39C:  CALL   1A84
....................             Imprime=10; 
0C3A0:  MOVLW  0A
0C3A2:  MOVLB  3
0C3A4:  MOVWF  xAD
....................             flagImprimir=1; 
0C3A6:  BSF    x53.2
....................          } 
....................       }else if(AlarmaPresion){ // Alarma de Error de SobrePresion: Error por exceso de Presion. 
0C3A8:  BRA    C4BA
0C3AA:  MOVLB  0
0C3AC:  BTFSS  xA3.3
0C3AE:  BRA    C43A
....................          codigoAlarma=6; 
0C3B0:  MOVLW  06
0C3B2:  MOVLB  2
0C3B4:  MOVWF  xE6
....................          printf("Funcionamiento.t4f.txt=\" SobrePresin\""); 
0C3B6:  MOVLW  02
0C3B8:  MOVWF  FF6
0C3BA:  MOVLW  14
0C3BC:  MOVWF  FF7
0C3BE:  MOVLW  00
0C3C0:  MOVWF  FF8
0C3C2:  MOVLB  0
0C3C4:  CALL   38BE
....................          SendDataDisplay(); 
0C3C8:  CALL   38F0
....................          printf("Funcionamiento.t5f.txt=\" Cancelado\""); 
0C3CC:  MOVLW  2A
0C3CE:  MOVWF  FF6
0C3D0:  MOVLW  14
0C3D2:  MOVWF  FF7
0C3D4:  MOVLW  00
0C3D6:  MOVWF  FF8
0C3D8:  CALL   38BE
....................          SendDataDisplay(); 
0C3DC:  CALL   38F0
....................          Desfogue_on; 
0C3E0:  BSF    F8C.4
0C3E2:  BCF    F95.4
....................          SSR_off; 
0C3E4:  BSF    F8B.2
0C3E6:  BCF    F94.2
....................          IniciaLlenado=OFF; 
0C3E8:  BCF    x9F.7
....................          IniciaCiclo=OFF; 
0C3EA:  BCF    xA0.1
....................          Esterilizando=OFF; 
0C3EC:  BCF    xA0.2
....................          Agua_off; 
0C3EE:  BCF    F8C.5
0C3F0:  BCF    F95.5
....................          Bomba_off; 
0C3F2:  BCF    F8C.6
0C3F4:  BCF    F95.6
....................          Aire=OFF; 
0C3F6:  BCF    xA3.7
....................          Controlando=0; 
0C3F8:  MOVLB  3
0C3FA:  CLRF   x56
....................          if(codigoAnt!=codigoAlarma){ 
0C3FC:  MOVLB  2
0C3FE:  MOVF   xE6,W
0C400:  SUBWF  xE7,W
0C402:  BZ    C412
....................             codigoAnt=codigoAlarma; 
0C404:  MOVFF  2E6,2E7
....................             GuardaDatoCiclo(); 
0C408:  MOVLB  0
0C40A:  CALL   63D8
....................             incrementaCiclos(); 
0C40E:  CALL   677C
....................          } 
....................          if(!flagImprimir){ 
0C412:  MOVLB  3
0C414:  BTFSC  x53.2
0C416:  BRA    C436
....................             Imprime=25; 
0C418:  MOVLW  19
0C41A:  MOVWF  xAD
....................             Envio_Esclavos(); 
0C41C:  MOVLB  0
0C41E:  CALL   4686
....................             delay_ms(100); 
0C422:  MOVLW  64
0C424:  MOVLB  4
0C426:  MOVWF  x54
0C428:  MOVLB  0
0C42A:  CALL   1A84
....................             Imprime=10; 
0C42E:  MOVLW  0A
0C430:  MOVLB  3
0C432:  MOVWF  xAD
....................             flagImprimir=1; 
0C434:  BSF    x53.2
....................          } 
....................       }else if(AlarmaCiclo){ // Alarma de Error de SobrePresion: Error por exceso de Presion. 
0C436:  BRA    C4BA
0C438:  MOVLB  0
0C43A:  BTFSS  x9F.6
0C43C:  BRA    C4BA
....................          codigoAlarma=7; 
0C43E:  MOVLW  07
0C440:  MOVLB  2
0C442:  MOVWF  xE6
....................          printf("Funcionamiento.t4f.txt=\" Error Ciclo\""); 
0C444:  MOVLW  4E
0C446:  MOVWF  FF6
0C448:  MOVLW  14
0C44A:  MOVWF  FF7
0C44C:  MOVLW  00
0C44E:  MOVWF  FF8
0C450:  MOVLB  0
0C452:  CALL   38BE
....................          SendDataDisplay(); 
0C456:  CALL   38F0
....................          printf("Funcionamiento.t5f.txt=\" Cancelado\""); 
0C45A:  MOVLW  74
0C45C:  MOVWF  FF6
0C45E:  MOVLW  14
0C460:  MOVWF  FF7
0C462:  MOVLW  00
0C464:  MOVWF  FF8
0C466:  CALL   38BE
....................          SendDataDisplay(); 
0C46A:  CALL   38F0
....................          Desfogue_on; 
0C46E:  BSF    F8C.4
0C470:  BCF    F95.4
....................          SSR_off; 
0C472:  BSF    F8B.2
0C474:  BCF    F94.2
....................          IniciaLlenado=OFF; 
0C476:  BCF    x9F.7
....................          IniciaCiclo=OFF; 
0C478:  BCF    xA0.1
....................          Esterilizando=OFF; 
0C47A:  BCF    xA0.2
....................          Controlando=0; 
0C47C:  MOVLB  3
0C47E:  CLRF   x56
....................          if(codigoAnt!=codigoAlarma){ 
0C480:  MOVLB  2
0C482:  MOVF   xE6,W
0C484:  SUBWF  xE7,W
0C486:  BZ    C496
....................             codigoAnt=codigoAlarma; 
0C488:  MOVFF  2E6,2E7
....................             GuardaDatoCiclo(); 
0C48C:  MOVLB  0
0C48E:  CALL   63D8
....................             incrementaCiclos(); 
0C492:  CALL   677C
....................          } 
....................          if(!flagImprimir){ 
0C496:  MOVLB  3
0C498:  BTFSC  x53.2
0C49A:  BRA    C4BA
....................             Imprime=26; 
0C49C:  MOVLW  1A
0C49E:  MOVWF  xAD
....................             Envio_Esclavos(); 
0C4A0:  MOVLB  0
0C4A2:  CALL   4686
....................             delay_ms(100); 
0C4A6:  MOVLW  64
0C4A8:  MOVLB  4
0C4AA:  MOVWF  x54
0C4AC:  MOVLB  0
0C4AE:  CALL   1A84
....................             Imprime=10; 
0C4B2:  MOVLW  0A
0C4B4:  MOVLB  3
0C4B6:  MOVWF  xAD
....................             flagImprimir=1; 
0C4B8:  BSF    x53.2
0C4BA:  MOVLB  2
....................          } 
....................       } 
....................    } 
....................    else{   
0C4BC:  BRA    CB76
0C4BE:  MOVLB  0
....................       Buzzer_off; 
0C4C0:  BCF    F8C.0
0C4C2:  BCF    F95.0
....................       IniciaCiclo=ON; 
0C4C4:  BSF    xA0.1
....................       if(flagImprime){ 
0C4C6:  MOVLB  3
0C4C8:  BTFSS  x53.1
0C4CA:  BRA    C4EA
....................          Imprime=5; 
0C4CC:  MOVLW  05
0C4CE:  MOVWF  xAD
....................          Envio_Esclavos(); 
0C4D0:  MOVLB  0
0C4D2:  CALL   4686
....................          delay_ms(100); 
0C4D6:  MOVLW  64
0C4D8:  MOVLB  4
0C4DA:  MOVWF  x54
0C4DC:  MOVLB  0
0C4DE:  CALL   1A84
....................          Imprime=10; 
0C4E2:  MOVLW  0A
0C4E4:  MOVLB  3
0C4E6:  MOVWF  xAD
....................          flagImprime=0; 
0C4E8:  BCF    x53.1
....................       } 
....................          if(!CalderinLleno){ 
0C4EA:  MOVLB  0
0C4EC:  BTFSC  xA0.0
0C4EE:  BRA    C58E
....................             //Agua_on; 
....................             #ifdef Reservorio 
....................                if(!HIG){ 
0C4F0:  BSF    F94.0
0C4F2:  BTFSC  F82.0
0C4F4:  BRA    C528
....................                   printf("Funcionamiento.t4f.txt=\" Reservorio Bajo \""); 
0C4F6:  MOVLW  98
0C4F8:  MOVWF  FF6
0C4FA:  MOVLW  14
0C4FC:  MOVWF  FF7
0C4FE:  MOVLW  00
0C500:  MOVWF  FF8
0C502:  CALL   38BE
....................                   SendDataDisplay(); 
0C506:  CALL   38F0
....................                   printf("Funcionamiento.t5f.txt=\" Llenando Camara\""); 
0C50A:  MOVLW  C4
0C50C:  MOVWF  FF6
0C50E:  MOVLW  14
0C510:  MOVWF  FF7
0C512:  MOVLW  00
0C514:  MOVWF  FF8
0C516:  CALL   38BE
....................                   SendDataDisplay(); 
0C51A:  CALL   38F0
....................                   #ifdef ULKA               
....................                      apagaBombaAgua(); 
....................                   #else 
....................                      Agua_on; 
0C51E:  BSF    F8C.5
0C520:  BCF    F95.5
....................                      Bomba_off; 
0C522:  BCF    F8C.6
0C524:  BCF    F95.6
....................                   #endif 
....................                }else{ 
0C526:  BRA    C558
....................                   printf("Funcionamiento.t4f.txt=\" Ninguna\""); 
0C528:  MOVLW  EE
0C52A:  MOVWF  FF6
0C52C:  MOVLW  14
0C52E:  MOVWF  FF7
0C530:  MOVLW  00
0C532:  MOVWF  FF8
0C534:  CALL   38BE
....................                   SendDataDisplay(); 
0C538:  CALL   38F0
....................                   printf("Funcionamiento.t5f.txt=\" Llenando Camara\""); 
0C53C:  MOVLW  10
0C53E:  MOVWF  FF6
0C540:  MOVLW  15
0C542:  MOVWF  FF7
0C544:  MOVLW  00
0C546:  MOVWF  FF8
0C548:  CALL   38BE
....................                   SendDataDisplay(); 
0C54C:  CALL   38F0
....................                   #ifdef ULKA               
....................                      enciendeBombaAgua(); 
....................                   #else 
....................                      Agua_on; 
0C550:  BSF    F8C.5
0C552:  BCF    F95.5
....................                      Bomba_on; 
0C554:  BSF    F8C.6
0C556:  BCF    F95.6
....................                   #endif 
....................                }  
....................             #else 
....................                printf("Funcionamiento.t4f.txt=\" Ninguna\""); 
....................                SendDataDisplay(); 
....................                printf("Funcionamiento.t5f.txt=\" Nivel Bajo\""); 
....................                SendDataDisplay(); 
....................                Agua_on; 
....................             #endif 
....................             SSR_off; 
0C558:  BSF    F8B.2
0C55A:  BCF    F94.2
....................             Controlando=0; 
0C55C:  MOVLB  3
0C55E:  CLRF   x56
....................             Control=0; 
0C560:  CLRF   x54
....................             IniciaLlenado=ON; 
0C562:  MOVLB  0
0C564:  BSF    x9F.7
....................             Controlando=0; 
0C566:  MOVLB  3
0C568:  CLRF   x56
....................             Desfogue_off; 
0C56A:  BCF    F8C.4
0C56C:  BCF    F95.4
....................             Aire=ON; 
0C56E:  MOVLB  0
0C570:  BSF    xA3.7
....................             codigoAlarma=10; 
0C572:  MOVLW  0A
0C574:  MOVLB  2
0C576:  MOVWF  xE6
....................             if(codigoAnt!=codigoAlarma){ 
0C578:  MOVF   xE6,W
0C57A:  SUBWF  xE7,W
0C57C:  BZ    C58A
....................                codigoAnt=codigoAlarma; 
0C57E:  MOVFF  2E6,2E7
....................                GuardaDatoCiclo(); 
0C582:  MOVLB  0
0C584:  CALL   63D8
0C588:  MOVLB  2
....................             } 
....................          } 
....................          else{ 
0C58A:  BRA    CB76
0C58C:  MOVLB  0
....................             Agua_off; 
0C58E:  BCF    F8C.5
0C590:  BCF    F95.5
....................             if(Temperatura>=((float)Setpoint)){ 
0C592:  MOVLB  4
0C594:  CLRF   x55
0C596:  MOVFF  365,454
0C59A:  MOVLB  0
0C59C:  CALL   1AAC
0C5A0:  MOVFF  03,446
0C5A4:  MOVFF  02,445
0C5A8:  MOVFF  01,444
0C5AC:  MOVFF  00,443
0C5B0:  MOVFF  32B,44A
0C5B4:  MOVFF  32A,449
0C5B8:  MOVFF  329,448
0C5BC:  MOVFF  328,447
0C5C0:  CALL   2D88
0C5C4:  BC    C5C8
0C5C6:  BNZ   C5CA
....................                Esterilizando=ON; 
0C5C8:  BSF    xA0.2
....................             } 
....................              
....................             if(Temperatura<((float)Setpoint-0.9) && !Desfogando){ 
0C5CA:  MOVLB  4
0C5CC:  CLRF   x55
0C5CE:  MOVFF  365,454
0C5D2:  MOVLB  0
0C5D4:  CALL   1AAC
0C5D8:  MOVFF  00,43F
0C5DC:  MOVFF  01,440
0C5E0:  MOVFF  02,441
0C5E4:  MOVFF  03,442
0C5E8:  BSF    FD8.1
0C5EA:  MOVFF  03,457
0C5EE:  MOVFF  02,456
0C5F2:  MOVFF  01,455
0C5F6:  MOVFF  00,454
0C5FA:  MOVLW  66
0C5FC:  MOVLB  4
0C5FE:  MOVWF  x5B
0C600:  MOVWF  x5A
0C602:  MOVWF  x59
0C604:  MOVLW  7E
0C606:  MOVWF  x58
0C608:  MOVLB  0
0C60A:  CALL   1C40
0C60E:  MOVFF  32B,446
0C612:  MOVFF  32A,445
0C616:  MOVFF  329,444
0C61A:  MOVFF  328,443
0C61E:  MOVFF  03,44A
0C622:  MOVFF  02,449
0C626:  MOVFF  01,448
0C62A:  MOVFF  00,447
0C62E:  CALL   2D88
0C632:  BNC   C63A
0C634:  BTFSC  xA0.5
0C636:  BRA    C63A
....................                Esterilizando=OFF; 
0C638:  BCF    xA0.2
....................             } 
....................              
....................             if(!Esterilizando){ 
0C63A:  BTFSC  xA0.2
0C63C:  BRA    C6D8
....................                codigoAlarma=12; 
0C63E:  MOVLW  0C
0C640:  MOVLB  2
0C642:  MOVWF  xE6
....................                if(codigoAnt!=codigoAlarma){ 
0C644:  MOVF   xE6,W
0C646:  SUBWF  xE7,W
0C648:  BZ    C656
....................                   codigoAnt=codigoAlarma; 
0C64A:  MOVFF  2E6,2E7
....................                   GuardaDatoCiclo();                   
0C64E:  MOVLB  0
0C650:  CALL   63D8
0C654:  MOVLB  2
....................                } 
....................                printf("Funcionamiento.t4f.txt=\" Ninguna\""); 
0C656:  MOVLW  3A
0C658:  MOVWF  FF6
0C65A:  MOVLW  15
0C65C:  MOVWF  FF7
0C65E:  MOVLW  00
0C660:  MOVWF  FF8
0C662:  MOVLB  0
0C664:  CALL   38BE
....................                SendDataDisplay(); 
0C668:  CALL   38F0
....................                printf("Funcionamiento.t5f.txt=\" Calentando\""); 
0C66C:  MOVLW  5C
0C66E:  MOVWF  FF6
0C670:  MOVLW  15
0C672:  MOVWF  FF7
0C674:  MOVLW  00
0C676:  MOVWF  FF8
0C678:  CALL   38BE
....................                SendDataDisplay(); 
0C67C:  CALL   38F0
....................                Control=1; 
0C680:  MOVLW  01
0C682:  MOVLB  3
0C684:  MOVWF  x54
....................                Bomba_off; 
0C686:  BCF    F8C.6
0C688:  BCF    F95.6
....................                if(Temperatura<=TTrampa){ 
0C68A:  MOVLB  4
0C68C:  CLRF   x55
0C68E:  MOVFF  2DC,454
0C692:  MOVLB  0
0C694:  CALL   1AAC
0C698:  MOVFF  32B,446
0C69C:  MOVFF  32A,445
0C6A0:  MOVFF  329,444
0C6A4:  MOVFF  328,443
0C6A8:  MOVFF  03,44A
0C6AC:  MOVFF  02,449
0C6B0:  MOVFF  01,448
0C6B4:  MOVFF  00,447
0C6B8:  CALL   2D88
0C6BC:  BC    C6C0
0C6BE:  BNZ   C6CC
....................                   Aire=ON; 
0C6C0:  BSF    xA3.7
....................                   Controla(); 
0C6C2:  CALL   6876
....................                   #ifdef Reservorio 
....................                      Desfogue_off; 
0C6C6:  BCF    F8C.4
0C6C8:  BCF    F95.4
....................                   #else 
....................                      Desfogue_on; 
....................                   #endif 
....................                }else{ 
0C6CA:  BRA    C6D6
....................                   Aire=OFF; 
0C6CC:  BCF    xA3.7
....................                   Desfogue_off; 
0C6CE:  BCF    F8C.4
0C6D0:  BCF    F95.4
....................                   #ifdef PT100Fija 
....................                      Controla(); 
0C6D2:  CALL   6876
....................                   #else 
....................                      ControlaPresion(); 
....................                   #endif 
....................                } 
....................             }else{ 
0C6D6:  BRA    CB72
....................                TiempoCiclo=0; 
0C6D8:  CLRF   xA6
0C6DA:  CLRF   xA5
....................                if((Testerilizacion[0]==0)&&(Testerilizacion[1]==0)&& 
....................                (Testerilizacion[2]==0)&&(Testerilizacion[3]==0)){  
0C6DC:  MOVF   xB1,F
0C6DE:  BTFSS  FD8.2
0C6E0:  BRA    CB1E
0C6E2:  MOVF   xB2,F
0C6E4:  BTFSS  FD8.2
0C6E6:  BRA    CB1E
0C6E8:  MOVF   xB3,F
0C6EA:  BTFSS  FD8.2
0C6EC:  BRA    CB1E
0C6EE:  MOVF   xB4,F
0C6F0:  BTFSS  FD8.2
0C6F2:  BRA    CB1E
....................                   if(desfoguelento){ 
0C6F4:  BTFSS  xA4.4
0C6F6:  BRA    C8CE
....................                      Controlando=0; 
0C6F8:  MOVLB  3
0C6FA:  CLRF   x56
....................                      if(PresionCamara<=Atmosferica+25){ 
0C6FC:  MOVLW  19
0C6FE:  ADDWF  xAE,W
0C700:  MOVF   x78,F
0C702:  BTFSS  FD8.2
0C704:  BRA    C876
0C706:  SUBWF  x77,W
0C708:  BZ    C70E
0C70A:  BTFSC  FD8.0
0C70C:  BRA    C876
....................                         Secando=OFF; 
0C70E:  MOVLB  0
0C710:  BCF    xA0.3
....................                         DesfogueSuave=OFF; 
0C712:  BCF    xA0.6
....................                         Bomba_off; 
0C714:  BCF    F8C.6
0C716:  BCF    F95.6
....................                         Aire=OFF; 
0C718:  BCF    xA3.7
....................                         if(PresionCamara<Atmosferica+2){ 
0C71A:  MOVLW  02
0C71C:  MOVLB  3
0C71E:  ADDWF  xAE,W
0C720:  MOVF   x78,F
0C722:  BTFSS  FD8.2
0C724:  BRA    C860
0C726:  SUBWF  x77,W
0C728:  BTFSC  FD8.0
0C72A:  BRA    C860
....................                            if(!DOOR){ 
0C72C:  BSF    F93.6
0C72E:  BTFSS  F81.6
0C730:  BRA    C738
....................                               Desfogue_off; 
0C732:  BCF    F8C.4
0C734:  BCF    F95.4
....................                            }else{ 
0C736:  BRA    C73C
....................                               Desfogue_on; 
0C738:  BSF    F8C.4
0C73A:  BCF    F95.4
....................                            } 
....................                            if(Temperatura<=90){ 
0C73C:  MOVFF  32B,446
0C740:  MOVFF  32A,445
0C744:  MOVFF  329,444
0C748:  MOVFF  328,443
0C74C:  MOVLB  4
0C74E:  CLRF   x4A
0C750:  CLRF   x49
0C752:  MOVLW  34
0C754:  MOVWF  x48
0C756:  MOVLW  85
0C758:  MOVWF  x47
0C75A:  MOVLB  0
0C75C:  CALL   2D88
0C760:  BC    C764
0C762:  BNZ   C79A
....................                               ActivaAlarma(2); 
0C764:  MOVLW  02
0C766:  MOVLB  4
0C768:  MOVWF  x3F
0C76A:  MOVLB  0
0C76C:  CALL   4748
....................                               printf("Funcionamiento.t4f.txt=\" Ninguna\""); 
0C770:  MOVLW  82
0C772:  MOVWF  FF6
0C774:  MOVLW  15
0C776:  MOVWF  FF7
0C778:  MOVLW  00
0C77A:  MOVWF  FF8
0C77C:  CALL   38BE
....................                               SendDataDisplay(); 
0C780:  CALL   38F0
....................                               printf("Funcionamiento.t5f.txt=\" Finalizado\""); 
0C784:  MOVLW  A4
0C786:  MOVWF  FF6
0C788:  MOVLW  15
0C78A:  MOVWF  FF7
0C78C:  MOVLW  00
0C78E:  MOVWF  FF8
0C790:  CALL   38BE
....................                               SendDataDisplay(); 
0C794:  CALL   38F0
....................                               Finalizo=ON; 
0C798:  BSF    xA3.2
....................                            } 
....................                            codigoAlarma=14; 
0C79A:  MOVLW  0E
0C79C:  MOVLB  2
0C79E:  MOVWF  xE6
....................                            if(codigoAnt!=codigoAlarma){ 
0C7A0:  MOVF   xE6,W
0C7A2:  SUBWF  xE7,W
0C7A4:  BZ    C7B0
....................                               codigoAnt=codigoAlarma; 
0C7A6:  MOVFF  2E6,2E7
....................                               GuardaDatoCiclo();                   
0C7AA:  MOVLB  0
0C7AC:  CALL   63D8
....................                            } 
....................                            if(!Ciclo){ 
0C7B0:  MOVLB  0
0C7B2:  BTFSC  xA1.3
0C7B4:  BRA    C85C
....................                               Ciclo=ON; 
0C7B6:  BSF    xA1.3
....................                               Ciclos++; 
0C7B8:  MOVLB  3
0C7BA:  INCF   x7B,F
0C7BC:  BTFSC  FD8.2
0C7BE:  INCF   x7C,F
....................                               CiclosL=make8(Ciclos,0); 
0C7C0:  MOVFF  37B,362
....................                               CiclosH=make8(Ciclos,1); 
0C7C4:  MOVFF  37C,363
....................                               write_eeprom(37,CiclosL); 
0C7C8:  CLRF   FAA
0C7CA:  MOVLW  25
0C7CC:  MOVWF  FA9
0C7CE:  MOVFF  362,FA8
0C7D2:  BCF    FA6.6
0C7D4:  BCF    FA6.7
0C7D6:  BSF    FA6.2
0C7D8:  MOVF   FF2,W
0C7DA:  MOVWF  00
0C7DC:  BCF    FF2.6
0C7DE:  BCF    FF2.7
0C7E0:  MOVLB  F
0C7E2:  MOVLW  55
0C7E4:  MOVWF  FA7
0C7E6:  MOVLW  AA
0C7E8:  MOVWF  FA7
0C7EA:  BSF    FA6.1
0C7EC:  BTFSC  FA6.1
0C7EE:  BRA    C7EC
0C7F0:  BCF    FA6.2
0C7F2:  MOVF   00,W
0C7F4:  IORWF  FF2,F
....................                               delay_ms(20); 
0C7F6:  MOVLW  14
0C7F8:  MOVLB  4
0C7FA:  MOVWF  x54
0C7FC:  MOVLB  0
0C7FE:  CALL   1A84
....................                               write_eeprom(38,CiclosH); 
0C802:  CLRF   FAA
0C804:  MOVLW  26
0C806:  MOVWF  FA9
0C808:  MOVFF  363,FA8
0C80C:  BCF    FA6.6
0C80E:  BCF    FA6.7
0C810:  BSF    FA6.2
0C812:  MOVF   FF2,W
0C814:  MOVWF  00
0C816:  BCF    FF2.6
0C818:  BCF    FF2.7
0C81A:  MOVLB  F
0C81C:  MOVLW  55
0C81E:  MOVWF  FA7
0C820:  MOVLW  AA
0C822:  MOVWF  FA7
0C824:  BSF    FA6.1
0C826:  BTFSC  FA6.1
0C828:  BRA    C826
0C82A:  BCF    FA6.2
0C82C:  MOVF   00,W
0C82E:  IORWF  FF2,F
....................                               delay_ms(20);                               
0C830:  MOVLW  14
0C832:  MOVLB  4
0C834:  MOVWF  x54
0C836:  MOVLB  0
0C838:  CALL   1A84
....................                               Imprime=28; 
0C83C:  MOVLW  1C
0C83E:  MOVLB  3
0C840:  MOVWF  xAD
....................                               Envio_Esclavos(); 
0C842:  MOVLB  0
0C844:  CALL   4686
....................                               delay_ms(100); 
0C848:  MOVLW  64
0C84A:  MOVLB  4
0C84C:  MOVWF  x54
0C84E:  MOVLB  0
0C850:  CALL   1A84
....................                               Imprime=10;                               
0C854:  MOVLW  0A
0C856:  MOVLB  3
0C858:  MOVWF  xAD
0C85A:  MOVLB  0
....................                            } 
....................                         }else if(PresionCamara>=Atmosferica+7){ 
0C85C:  BRA    C872
0C85E:  MOVLB  3
0C860:  MOVLW  07
0C862:  ADDWF  xAE,W
0C864:  MOVF   x78,F
0C866:  BNZ   C86C
0C868:  SUBWF  x77,W
0C86A:  BNC   C870
....................                            Desfogue_on; 
0C86C:  BSF    F8C.4
0C86E:  BCF    F95.4
0C870:  MOVLB  0
....................                         } 
....................                      }else{ 
0C872:  BRA    C8CC
0C874:  MOVLB  3
....................                         codigoAlarma=13; 
0C876:  MOVLW  0D
0C878:  MOVLB  2
0C87A:  MOVWF  xE6
....................                         if(codigoAnt!=codigoAlarma){ 
0C87C:  MOVF   xE6,W
0C87E:  SUBWF  xE7,W
0C880:  BZ    C88C
....................                            codigoAnt=codigoAlarma; 
0C882:  MOVFF  2E6,2E7
....................                            GuardaDatoCiclo();                   
0C886:  MOVLB  0
0C888:  CALL   63D8
....................                         } 
....................                         Desfogando=ON; 
0C88C:  MOVLB  0
0C88E:  BSF    xA0.5
....................                         DesfogueSuave=ON; 
0C890:  BSF    xA0.6
....................                         printf("Funcionamiento.t4f.txt=\" Ninguna\""); 
0C892:  MOVLW  CA
0C894:  MOVWF  FF6
0C896:  MOVLW  15
0C898:  MOVWF  FF7
0C89A:  MOVLW  00
0C89C:  MOVWF  FF8
0C89E:  CALL   38BE
....................                         SendDataDisplay(); 
0C8A2:  CALL   38F0
....................                         printf("Funcionamiento.t5f.txt=\" Despresurizando\""); 
0C8A6:  MOVLW  EC
0C8A8:  MOVWF  FF6
0C8AA:  MOVLW  15
0C8AC:  MOVWF  FF7
0C8AE:  MOVLW  00
0C8B0:  MOVWF  FF8
0C8B2:  CALL   38BE
....................                         SendDataDisplay(); 
0C8B6:  CALL   38F0
....................                         Control=0; 
0C8BA:  MOVLB  3
0C8BC:  CLRF   x54
....................                         Controlando=0; 
0C8BE:  CLRF   x56
....................                         SSR_off; 
0C8C0:  BSF    F8B.2
0C8C2:  BCF    F94.2
....................                         Bomba_off; 
0C8C4:  BCF    F8C.6
0C8C6:  BCF    F95.6
....................                         Aire=OFF; 
0C8C8:  MOVLB  0
0C8CA:  BCF    xA3.7
....................                      } 
....................                   }else{ 
0C8CC:  BRA    CB18
....................                      //SSR_off; 
....................                      Controlando=0; 
0C8CE:  MOVLB  3
0C8D0:  CLRF   x56
....................                      Control=0; 
0C8D2:  CLRF   x54
....................                      if(PresionCamara<=Atmosferica+5){ 
0C8D4:  MOVLW  05
0C8D6:  ADDWF  xAE,W
0C8D8:  MOVF   x78,F
0C8DA:  BTFSS  FD8.2
0C8DC:  BRA    CAB4
0C8DE:  SUBWF  x77,W
0C8E0:  BZ    C8E6
0C8E2:  BTFSC  FD8.0
0C8E4:  BRA    CAB4
....................                         if((Tsecado[0]==0)&&(Tsecado[1]==0)&&(Tsecado[2]==0)&&(Tsecado[3]==0)){ 
0C8E6:  MOVLB  0
0C8E8:  MOVF   xBB,F
0C8EA:  BTFSS  FD8.2
0C8EC:  BRA    CA52
0C8EE:  MOVF   xBC,F
0C8F0:  BTFSS  FD8.2
0C8F2:  BRA    CA52
0C8F4:  MOVF   xBD,F
0C8F6:  BTFSS  FD8.2
0C8F8:  BRA    CA52
0C8FA:  MOVF   xBE,F
0C8FC:  BTFSS  FD8.2
0C8FE:  BRA    CA52
....................                            SSR_off; 
0C900:  BSF    F8B.2
0C902:  BCF    F94.2
....................                            Secando=OFF; 
0C904:  BCF    xA0.3
....................                            if(!DOOR){ 
0C906:  BSF    F93.6
0C908:  BTFSS  F81.6
0C90A:  BRA    C916
....................                               Bomba_off; 
0C90C:  BCF    F8C.6
0C90E:  BCF    F95.6
....................                               Aire=OFF; 
0C910:  BCF    xA3.7
....................                               Desfogue_off; 
0C912:  BCF    F8C.4
0C914:  BCF    F95.4
....................                            } 
....................                            if(Temperatura<=90){ 
0C916:  MOVFF  32B,446
0C91A:  MOVFF  32A,445
0C91E:  MOVFF  329,444
0C922:  MOVFF  328,443
0C926:  MOVLB  4
0C928:  CLRF   x4A
0C92A:  CLRF   x49
0C92C:  MOVLW  34
0C92E:  MOVWF  x48
0C930:  MOVLW  85
0C932:  MOVWF  x47
0C934:  MOVLB  0
0C936:  CALL   2D88
0C93A:  BC    C93E
0C93C:  BNZ   C97C
....................                               ActivaAlarma(2); 
0C93E:  MOVLW  02
0C940:  MOVLB  4
0C942:  MOVWF  x3F
0C944:  MOVLB  0
0C946:  CALL   4748
....................                               printf("Funcionamiento.t4f.txt=\" Ninguna\""); 
0C94A:  MOVLW  16
0C94C:  MOVWF  FF6
0C94E:  MOVLW  16
0C950:  MOVWF  FF7
0C952:  MOVLW  00
0C954:  MOVWF  FF8
0C956:  CALL   38BE
....................                               SendDataDisplay(); 
0C95A:  CALL   38F0
....................                               printf("Funcionamiento.t5f.txt=\" Finalizado\""); 
0C95E:  MOVLW  38
0C960:  MOVWF  FF6
0C962:  MOVLW  16
0C964:  MOVWF  FF7
0C966:  MOVLW  00
0C968:  MOVWF  FF8
0C96A:  CALL   38BE
....................                               SendDataDisplay(); 
0C96E:  CALL   38F0
....................                               Finalizo=ON; 
0C972:  BSF    xA3.2
....................                               Bomba_off; 
0C974:  BCF    F8C.6
0C976:  BCF    F95.6
....................                               Aire=OFF; 
0C978:  BCF    xA3.7
....................                            }else{ 
0C97A:  BRA    C988
....................                               if(DOOR){ 
0C97C:  BSF    F93.6
0C97E:  BTFSC  F81.6
0C980:  BRA    C988
....................                                  Aire=ON; 
0C982:  BSF    xA3.7
....................                                  Desfogue_on; 
0C984:  BSF    F8C.4
0C986:  BCF    F95.4
....................                               } 
....................                            } 
....................                            codigoAlarma=14; 
0C988:  MOVLW  0E
0C98A:  MOVLB  2
0C98C:  MOVWF  xE6
....................                            if(codigoAnt!=codigoAlarma){ 
0C98E:  MOVF   xE6,W
0C990:  SUBWF  xE7,W
0C992:  BZ    C99E
....................                               codigoAnt=codigoAlarma; 
0C994:  MOVFF  2E6,2E7
....................                               GuardaDatoCiclo();                   
0C998:  MOVLB  0
0C99A:  CALL   63D8
....................                            } 
....................                            if(!Ciclo){ 
0C99E:  MOVLB  0
0C9A0:  BTFSC  xA1.3
0C9A2:  BRA    CA4E
....................                               Ciclo=ON; 
0C9A4:  BSF    xA1.3
....................                               Ciclos++; 
0C9A6:  MOVLB  3
0C9A8:  INCF   x7B,F
0C9AA:  BTFSC  FD8.2
0C9AC:  INCF   x7C,F
....................                               CiclosL=make8(Ciclos,0); 
0C9AE:  MOVFF  37B,362
....................                               CiclosH=make8(Ciclos,1); 
0C9B2:  MOVFF  37C,363
....................                               write_eeprom(37,CiclosL); 
0C9B6:  CLRF   FAA
0C9B8:  MOVLW  25
0C9BA:  MOVWF  FA9
0C9BC:  MOVFF  362,FA8
0C9C0:  BCF    FA6.6
0C9C2:  BCF    FA6.7
0C9C4:  BSF    FA6.2
0C9C6:  MOVF   FF2,W
0C9C8:  MOVWF  00
0C9CA:  BCF    FF2.6
0C9CC:  BCF    FF2.7
0C9CE:  MOVLB  F
0C9D0:  MOVLW  55
0C9D2:  MOVWF  FA7
0C9D4:  MOVLW  AA
0C9D6:  MOVWF  FA7
0C9D8:  BSF    FA6.1
0C9DA:  BTFSC  FA6.1
0C9DC:  BRA    C9DA
0C9DE:  BCF    FA6.2
0C9E0:  MOVF   00,W
0C9E2:  IORWF  FF2,F
....................                               delay_ms(20); 
0C9E4:  MOVLW  14
0C9E6:  MOVLB  4
0C9E8:  MOVWF  x54
0C9EA:  MOVLB  0
0C9EC:  CALL   1A84
....................                               write_eeprom(38,CiclosH); 
0C9F0:  CLRF   FAA
0C9F2:  MOVLW  26
0C9F4:  MOVWF  FA9
0C9F6:  MOVFF  363,FA8
0C9FA:  BCF    FA6.6
0C9FC:  BCF    FA6.7
0C9FE:  BSF    FA6.2
0CA00:  MOVF   FF2,W
0CA02:  MOVWF  00
0CA04:  BCF    FF2.6
0CA06:  BCF    FF2.7
0CA08:  MOVLB  F
0CA0A:  MOVLW  55
0CA0C:  MOVWF  FA7
0CA0E:  MOVLW  AA
0CA10:  MOVWF  FA7
0CA12:  BSF    FA6.1
0CA14:  BTFSC  FA6.1
0CA16:  BRA    CA14
0CA18:  BCF    FA6.2
0CA1A:  MOVF   00,W
0CA1C:  IORWF  FF2,F
....................                               delay_ms(20); 
0CA1E:  MOVLW  14
0CA20:  MOVLB  4
0CA22:  MOVWF  x54
0CA24:  MOVLB  0
0CA26:  CALL   1A84
....................                               if(ActivaImpresion==1){ 
0CA2A:  MOVLB  3
0CA2C:  DECFSZ x57,W
0CA2E:  BRA    CA4C
....................                                  Imprime=28; 
0CA30:  MOVLW  1C
0CA32:  MOVWF  xAD
....................                                  Envio_Esclavos(); 
0CA34:  MOVLB  0
0CA36:  CALL   4686
....................                                  delay_ms(100); 
0CA3A:  MOVLW  64
0CA3C:  MOVLB  4
0CA3E:  MOVWF  x54
0CA40:  MOVLB  0
0CA42:  CALL   1A84
....................                                  Imprime=10; 
0CA46:  MOVLW  0A
0CA48:  MOVLB  3
0CA4A:  MOVWF  xAD
0CA4C:  MOVLB  0
....................                               } 
....................                            } 
....................                            Secando=OFF; 
0CA4E:  BCF    xA0.3
....................                         }else{ 
0CA50:  BRA    CAB0
....................                            codigoAlarma=15; 
0CA52:  MOVLW  0F
0CA54:  MOVLB  2
0CA56:  MOVWF  xE6
....................                            if(codigoAnt!=codigoAlarma){ 
0CA58:  MOVF   xE6,W
0CA5A:  SUBWF  xE7,W
0CA5C:  BZ    CA68
....................                               codigoAnt=codigoAlarma; 
0CA5E:  MOVFF  2E6,2E7
....................                               GuardaDatoCiclo();                   
0CA62:  MOVLB  0
0CA64:  CALL   63D8
....................                            } 
....................                            Secando=ON; 
0CA68:  MOVLB  0
0CA6A:  BSF    xA0.3
....................                            printf("Funcionamiento.t4f.txt=\" Ninguna\""); 
0CA6C:  MOVLW  5E
0CA6E:  MOVWF  FF6
0CA70:  MOVLW  16
0CA72:  MOVWF  FF7
0CA74:  MOVLW  00
0CA76:  MOVWF  FF8
0CA78:  CALL   38BE
....................                            SendDataDisplay(); 
0CA7C:  CALL   38F0
....................                            printf("Funcionamiento.t5f.txt=\" Secando\""); 
0CA80:  MOVLW  80
0CA82:  MOVWF  FF6
0CA84:  MOVLW  16
0CA86:  MOVWF  FF7
0CA88:  MOVLW  00
0CA8A:  MOVWF  FF8
0CA8C:  CALL   38BE
....................                            SendDataDisplay();                            
0CA90:  CALL   38F0
....................                            if(DOOR){ 
0CA94:  BSF    F93.6
0CA96:  BTFSC  F81.6
0CA98:  BRA    CAA2
....................                               Aire=ON; 
0CA9A:  BSF    xA3.7
....................                               Desfogue_on; 
0CA9C:  BSF    F8C.4
0CA9E:  BCF    F95.4
....................                            }else{ 
0CAA0:  BRA    CAB0
....................                               CalientaChaqueta(); 
0CAA2:  GOTO   6E0C
....................                               Bomba_off; 
0CAA6:  BCF    F8C.6
0CAA8:  BCF    F95.6
....................                               Aire=OFF; 
0CAAA:  BCF    xA3.7
....................                               Desfogue_off; 
0CAAC:  BCF    F8C.4
0CAAE:  BCF    F95.4
....................                            } 
....................                         } 
....................                      }else if(PresionCamara>Atmosferica+6){ 
0CAB0:  BRA    CB18
0CAB2:  MOVLB  3
0CAB4:  MOVLW  06
0CAB6:  ADDWF  xAE,W
0CAB8:  MOVF   x78,F
0CABA:  BNZ   CAC2
0CABC:  SUBWF  x77,W
0CABE:  BZ    CB1A
0CAC0:  BNC   CB1A
....................                         codigoAlarma=13; 
0CAC2:  MOVLW  0D
0CAC4:  MOVLB  2
0CAC6:  MOVWF  xE6
....................                         if(codigoAnt!=codigoAlarma){ 
0CAC8:  MOVF   xE6,W
0CACA:  SUBWF  xE7,W
0CACC:  BZ    CAD8
....................                            codigoAnt=codigoAlarma; 
0CACE:  MOVFF  2E6,2E7
....................                            GuardaDatoCiclo();                   
0CAD2:  MOVLB  0
0CAD4:  CALL   63D8
....................                         } 
....................                         Desfogando=ON; 
0CAD8:  MOVLB  0
0CADA:  BSF    xA0.5
....................                         printf("Funcionamiento.t4f.txt=\" Ninguna\""); 
0CADC:  MOVLW  A2
0CADE:  MOVWF  FF6
0CAE0:  MOVLW  16
0CAE2:  MOVWF  FF7
0CAE4:  MOVLW  00
0CAE6:  MOVWF  FF8
0CAE8:  CALL   38BE
....................                         SendDataDisplay(); 
0CAEC:  CALL   38F0
....................                         printf("Funcionamiento.t5f.txt=\" Despresurizando\""); 
0CAF0:  MOVLW  C4
0CAF2:  MOVWF  FF6
0CAF4:  MOVLW  16
0CAF6:  MOVWF  FF7
0CAF8:  MOVLW  00
0CAFA:  MOVWF  FF8
0CAFC:  CALL   38BE
....................                         SendDataDisplay();                         
0CB00:  CALL   38F0
....................                         Controlando=0; 
0CB04:  MOVLB  3
0CB06:  CLRF   x56
....................                         SSR_off; 
0CB08:  BSF    F8B.2
0CB0A:  BCF    F94.2
....................                         Bomba_off; 
0CB0C:  BCF    F8C.6
0CB0E:  BCF    F95.6
....................                         Aire=OFF; 
0CB10:  MOVLB  0
0CB12:  BCF    xA3.7
....................                         Desfogue_on; 
0CB14:  BSF    F8C.4
0CB16:  BCF    F95.4
0CB18:  MOVLB  3
....................                      } 
....................                   } 
....................                    
....................                }else{ 
0CB1A:  BRA    CB74
0CB1C:  MOVLB  0
....................                   printf("Funcionamiento.t4f.txt=\" Ninguna\""); 
0CB1E:  MOVLW  EE
0CB20:  MOVWF  FF6
0CB22:  MOVLW  16
0CB24:  MOVWF  FF7
0CB26:  MOVLW  00
0CB28:  MOVWF  FF8
0CB2A:  CALL   38BE
....................                   SendDataDisplay(); 
0CB2E:  CALL   38F0
....................                   printf("Funcionamiento.t5f.txt=\" Esterilizando\""); 
0CB32:  MOVLW  10
0CB34:  MOVWF  FF6
0CB36:  MOVLW  17
0CB38:  MOVWF  FF7
0CB3A:  MOVLW  00
0CB3C:  MOVWF  FF8
0CB3E:  CALL   38BE
....................                   SendDataDisplay(); 
0CB42:  CALL   38F0
....................                   Bomba_off; 
0CB46:  BCF    F8C.6
0CB48:  BCF    F95.6
....................                   Aire=OFF; 
0CB4A:  BCF    xA3.7
....................                   Desfogue_off; 
0CB4C:  BCF    F8C.4
0CB4E:  BCF    F95.4
....................                   Control=1; 
0CB50:  MOVLW  01
0CB52:  MOVLB  3
0CB54:  MOVWF  x54
....................                   codigoAlarma=16; 
0CB56:  MOVLW  10
0CB58:  MOVLB  2
0CB5A:  MOVWF  xE6
....................                   if(codigoAnt!=codigoAlarma){ 
0CB5C:  MOVF   xE6,W
0CB5E:  SUBWF  xE7,W
0CB60:  BZ    CB6C
....................                      codigoAnt=codigoAlarma; 
0CB62:  MOVFF  2E6,2E7
....................                      GuardaDatoCiclo();                   
0CB66:  MOVLB  0
0CB68:  CALL   63D8
....................                   } 
....................                   #ifdef PT100Fija 
....................                      Controla(); 
0CB6C:  MOVLB  0
0CB6E:  CALL   6876
0CB72:  MOVLB  3
0CB74:  MOVLB  2
....................                   #else 
....................                      ControlaPresion(); 
....................                   #endif 
....................                } 
....................             } 
....................          } 
....................    } 
....................  
....................    if(tguarda>=180){ 
0CB76:  MOVLB  0
0CB78:  MOVF   xB0,F
0CB7A:  BNZ   CB82
0CB7C:  MOVF   xAF,W
0CB7E:  SUBLW  B3
0CB80:  BC    CB8E
....................       if(!Ciclo){ 
0CB82:  BTFSC  xA1.3
0CB84:  BRA    CB8E
....................          GuardaDatoCiclo(); 
0CB86:  CALL   63D8
....................          tguarda=0; 
0CB8A:  CLRF   xB0
0CB8C:  CLRF   xAF
....................       } 
....................    } 
....................     
....................    if(Grafica==1){ 
0CB8E:  BTFSS  xA4.6
0CB90:  BRA    CBCE
....................       printf("add 14,0,%1.0f",Temperatura); 
0CB92:  MOVLW  38
0CB94:  MOVWF  FF6
0CB96:  MOVLW  17
0CB98:  MOVWF  FF7
0CB9A:  MOVLW  00
0CB9C:  MOVWF  FF8
0CB9E:  MOVLW  09
0CBA0:  MOVLB  4
0CBA2:  MOVWF  x44
0CBA4:  MOVLB  0
0CBA6:  CALL   484A
0CBAA:  MOVLW  00
0CBAC:  MOVWF  FE9
0CBAE:  MOVFF  32B,447
0CBB2:  MOVFF  32A,446
0CBB6:  MOVFF  329,445
0CBBA:  MOVFF  328,444
0CBBE:  MOVLB  4
0CBC0:  CLRF   x48
0CBC2:  MOVLB  0
0CBC4:  CALL   49EA
....................       SendDataDisplay(); 
0CBC8:  CALL   38F0
....................       //printf("add 14,1,%1.0f",PresionCamara/1.667); 
....................       //SendDataDisplay(); 
....................       //printf("add 14,0,%1.0f",Temperatura); 
....................       //SendDataDisplay(); 
....................       Grafica=0; 
0CBCC:  BCF    xA4.6
....................    } 
....................    if(Lectura==1)// Utilizado para visualizar la lectura de la temperatura 
0CBCE:  BTFSS  xA4.5
0CBD0:  BRA    CE90
....................    {                             
....................       Lectura=0; 
0CBD2:  BCF    xA4.5
....................       printf("t6f.txt=\"%3.1fC\"",Temperatura); 
0CBD4:  MOVLW  48
0CBD6:  MOVWF  FF6
0CBD8:  MOVLW  17
0CBDA:  MOVWF  FF7
0CBDC:  MOVLW  00
0CBDE:  MOVWF  FF8
0CBE0:  MOVLW  09
0CBE2:  MOVLB  4
0CBE4:  MOVWF  x44
0CBE6:  MOVLB  0
0CBE8:  CALL   484A
0CBEC:  MOVLW  02
0CBEE:  MOVWF  FE9
0CBF0:  MOVFF  32B,447
0CBF4:  MOVFF  32A,446
0CBF8:  MOVFF  329,445
0CBFC:  MOVFF  328,444
0CC00:  MOVLW  01
0CC02:  MOVLB  4
0CC04:  MOVWF  x48
0CC06:  MOVLB  0
0CC08:  CALL   49EA
0CC0C:  MOVLW  B0
0CC0E:  BTFSS  F9E.4
0CC10:  BRA    CC0E
0CC12:  MOVWF  FAD
0CC14:  MOVLW  43
0CC16:  BTFSS  F9E.4
0CC18:  BRA    CC16
0CC1A:  MOVWF  FAD
0CC1C:  MOVLW  22
0CC1E:  BTFSS  F9E.4
0CC20:  BRA    CC1E
0CC22:  MOVWF  FAD
....................       SendDataDisplay(); 
0CC24:  CALL   38F0
....................       printf("Funcionamiento.t7f.txt=\"%03LukPa\"",PresionCamara); 
0CC28:  MOVLW  5A
0CC2A:  MOVWF  FF6
0CC2C:  MOVLW  17
0CC2E:  MOVWF  FF7
0CC30:  MOVLW  00
0CC32:  MOVWF  FF8
0CC34:  MOVLW  18
0CC36:  MOVLB  4
0CC38:  MOVWF  x44
0CC3A:  MOVLB  0
0CC3C:  CALL   484A
0CC40:  MOVLW  0A
0CC42:  MOVWF  FE9
0CC44:  MOVFF  378,444
0CC48:  MOVFF  377,443
0CC4C:  CALL   4C0E
0CC50:  MOVLW  77
0CC52:  MOVWF  FF6
0CC54:  MOVLW  17
0CC56:  MOVWF  FF7
0CC58:  MOVLW  00
0CC5A:  MOVWF  FF8
0CC5C:  MOVLW  04
0CC5E:  MOVLB  4
0CC60:  MOVWF  x44
0CC62:  MOVLB  0
0CC64:  CALL   484A
....................       SendDataDisplay(); 
0CC68:  CALL   38F0
....................       //printf("Funcionamiento.t12f.txt=\"%03LukPa\"",PresionPreCamara); 
....................       printf("Funcionamiento.t12f.txt=\"000kPa\""); 
0CC6C:  MOVLW  7C
0CC6E:  MOVWF  FF6
0CC70:  MOVLW  17
0CC72:  MOVWF  FF7
0CC74:  MOVLW  00
0CC76:  MOVWF  FF8
0CC78:  CALL   38BE
....................       SendDataDisplay(); 
0CC7C:  CALL   38F0
....................       printf("Funcionamiento.t9f.txt=\"%03u\"",Setpoint); 
0CC80:  MOVLW  9E
0CC82:  MOVWF  FF6
0CC84:  MOVLW  17
0CC86:  MOVWF  FF7
0CC88:  MOVLW  00
0CC8A:  MOVWF  FF8
0CC8C:  MOVLW  18
0CC8E:  MOVLB  4
0CC90:  MOVWF  x44
0CC92:  MOVLB  0
0CC94:  CALL   484A
0CC98:  MOVFF  365,444
0CC9C:  MOVLW  03
0CC9E:  MOVLB  4
0CCA0:  MOVWF  x45
0CCA2:  MOVLB  0
0CCA4:  CALL   48A8
0CCA8:  MOVLW  22
0CCAA:  BTFSS  F9E.4
0CCAC:  BRA    CCAA
0CCAE:  MOVWF  FAD
....................       SendDataDisplay();       
0CCB0:  CALL   38F0
....................       printf("Funcionamiento.t10f.txt=\"%02u\"",((Testerilizacion[3]*10)+Testerilizacion[2])); 
0CCB4:  MOVFF  B4,441
0CCB8:  MOVLW  0A
0CCBA:  MOVLB  4
0CCBC:  MOVWF  x42
0CCBE:  MOVLB  0
0CCC0:  CALL   2E02
0CCC4:  MOVF   xB3,W
0CCC6:  ADDWF  01,W
0CCC8:  MOVLB  4
0CCCA:  MOVWF  x3F
0CCCC:  MOVLW  BC
0CCCE:  MOVWF  FF6
0CCD0:  MOVLW  17
0CCD2:  MOVWF  FF7
0CCD4:  MOVLW  00
0CCD6:  MOVWF  FF8
0CCD8:  MOVLW  19
0CCDA:  MOVWF  x44
0CCDC:  MOVLB  0
0CCDE:  CALL   484A
0CCE2:  MOVFF  43F,444
0CCE6:  MOVLW  01
0CCE8:  MOVLB  4
0CCEA:  MOVWF  x45
0CCEC:  MOVLB  0
0CCEE:  CALL   48A8
0CCF2:  MOVLW  22
0CCF4:  BTFSS  F9E.4
0CCF6:  BRA    CCF4
0CCF8:  MOVWF  FAD
....................       SendDataDisplay();       
0CCFA:  CALL   38F0
....................       printf("Funcionamiento.t13f.txt=\"%02u\"",((Testerilizacion[1]*10)+Testerilizacion[0])); 
0CCFE:  MOVFF  B2,441
0CD02:  MOVLW  0A
0CD04:  MOVLB  4
0CD06:  MOVWF  x42
0CD08:  MOVLB  0
0CD0A:  CALL   2E02
0CD0E:  MOVF   xB1,W
0CD10:  ADDWF  01,W
0CD12:  MOVLB  4
0CD14:  MOVWF  x3F
0CD16:  MOVLW  DC
0CD18:  MOVWF  FF6
0CD1A:  MOVLW  17
0CD1C:  MOVWF  FF7
0CD1E:  MOVLW  00
0CD20:  MOVWF  FF8
0CD22:  MOVLW  19
0CD24:  MOVWF  x44
0CD26:  MOVLB  0
0CD28:  CALL   484A
0CD2C:  MOVFF  43F,444
0CD30:  MOVLW  01
0CD32:  MOVLB  4
0CD34:  MOVWF  x45
0CD36:  MOVLB  0
0CD38:  CALL   48A8
0CD3C:  MOVLW  22
0CD3E:  BTFSS  F9E.4
0CD40:  BRA    CD3E
0CD42:  MOVWF  FAD
....................       SendDataDisplay();       
0CD44:  CALL   38F0
....................       printf("Funcionamiento.t11f.txt=\"%02u\"",((Tsecado[3]*10)+Tsecado[2])); 
0CD48:  MOVFF  BE,441
0CD4C:  MOVLW  0A
0CD4E:  MOVLB  4
0CD50:  MOVWF  x42
0CD52:  MOVLB  0
0CD54:  CALL   2E02
0CD58:  MOVF   xBD,W
0CD5A:  ADDWF  01,W
0CD5C:  MOVLB  4
0CD5E:  MOVWF  x3F
0CD60:  MOVLW  FC
0CD62:  MOVWF  FF6
0CD64:  MOVLW  17
0CD66:  MOVWF  FF7
0CD68:  MOVLW  00
0CD6A:  MOVWF  FF8
0CD6C:  MOVLW  19
0CD6E:  MOVWF  x44
0CD70:  MOVLB  0
0CD72:  CALL   484A
0CD76:  MOVFF  43F,444
0CD7A:  MOVLW  01
0CD7C:  MOVLB  4
0CD7E:  MOVWF  x45
0CD80:  MOVLB  0
0CD82:  CALL   48A8
0CD86:  MOVLW  22
0CD88:  BTFSS  F9E.4
0CD8A:  BRA    CD88
0CD8C:  MOVWF  FAD
....................       SendDataDisplay();       
0CD8E:  CALL   38F0
....................       printf("Funcionamiento.t16f.txt=\"%02u\"",((Tsecado[1]*10)+Tsecado[0])); 
0CD92:  MOVFF  BC,441
0CD96:  MOVLW  0A
0CD98:  MOVLB  4
0CD9A:  MOVWF  x42
0CD9C:  MOVLB  0
0CD9E:  CALL   2E02
0CDA2:  MOVF   xBB,W
0CDA4:  ADDWF  01,W
0CDA6:  MOVLB  4
0CDA8:  MOVWF  x3F
0CDAA:  MOVLW  1C
0CDAC:  MOVWF  FF6
0CDAE:  MOVLW  18
0CDB0:  MOVWF  FF7
0CDB2:  MOVLW  00
0CDB4:  MOVWF  FF8
0CDB6:  MOVLW  19
0CDB8:  MOVWF  x44
0CDBA:  MOVLB  0
0CDBC:  CALL   484A
0CDC0:  MOVFF  43F,444
0CDC4:  MOVLW  01
0CDC6:  MOVLB  4
0CDC8:  MOVWF  x45
0CDCA:  MOVLB  0
0CDCC:  CALL   48A8
0CDD0:  MOVLW  22
0CDD2:  BTFSS  F9E.4
0CDD4:  BRA    CDD2
0CDD6:  MOVWF  FAD
....................       SendDataDisplay();       
0CDD8:  CALL   38F0
....................        
....................       printf("fecha.txt=\"Fecha:%02u/%02u/20%02u    Hora: %02u:%02u\"",Dia,Mes,Year,Hora,Minuto); 
0CDDC:  MOVLW  3C
0CDDE:  MOVWF  FF6
0CDE0:  MOVLW  18
0CDE2:  MOVWF  FF7
0CDE4:  MOVLW  00
0CDE6:  MOVWF  FF8
0CDE8:  MOVLW  11
0CDEA:  MOVLB  4
0CDEC:  MOVWF  x44
0CDEE:  MOVLB  0
0CDF0:  CALL   484A
0CDF4:  MOVFF  3A0,444
0CDF8:  MOVLW  01
0CDFA:  MOVLB  4
0CDFC:  MOVWF  x45
0CDFE:  MOVLB  0
0CE00:  CALL   48A8
0CE04:  MOVLW  2F
0CE06:  BTFSS  F9E.4
0CE08:  BRA    CE06
0CE0A:  MOVWF  FAD
0CE0C:  MOVFF  39F,444
0CE10:  MOVLW  01
0CE12:  MOVLB  4
0CE14:  MOVWF  x45
0CE16:  MOVLB  0
0CE18:  CALL   48A8
0CE1C:  MOVLW  2F
0CE1E:  BTFSS  F9E.4
0CE20:  BRA    CE1E
0CE22:  MOVWF  FAD
0CE24:  MOVLW  32
0CE26:  BTFSS  F9E.4
0CE28:  BRA    CE26
0CE2A:  MOVWF  FAD
0CE2C:  MOVLW  30
0CE2E:  BTFSS  F9E.4
0CE30:  BRA    CE2E
0CE32:  MOVWF  FAD
0CE34:  MOVFF  39E,444
0CE38:  MOVLW  01
0CE3A:  MOVLB  4
0CE3C:  MOVWF  x45
0CE3E:  MOVLB  0
0CE40:  CALL   48A8
0CE44:  MOVLW  5D
0CE46:  MOVWF  FF6
0CE48:  MOVLW  18
0CE4A:  MOVWF  FF7
0CE4C:  MOVLW  00
0CE4E:  MOVWF  FF8
0CE50:  MOVLW  0A
0CE52:  MOVLB  4
0CE54:  MOVWF  x44
0CE56:  MOVLB  0
0CE58:  CALL   484A
0CE5C:  MOVFF  3A1,444
0CE60:  MOVLW  01
0CE62:  MOVLB  4
0CE64:  MOVWF  x45
0CE66:  MOVLB  0
0CE68:  CALL   48A8
0CE6C:  MOVLW  3A
0CE6E:  BTFSS  F9E.4
0CE70:  BRA    CE6E
0CE72:  MOVWF  FAD
0CE74:  MOVFF  3A2,444
0CE78:  MOVLW  01
0CE7A:  MOVLB  4
0CE7C:  MOVWF  x45
0CE7E:  MOVLB  0
0CE80:  CALL   48A8
0CE84:  MOVLW  22
0CE86:  BTFSS  F9E.4
0CE88:  BRA    CE86
0CE8A:  MOVWF  FAD
....................       SendDataDisplay(); 
0CE8C:  CALL   38F0
0CE90:  MOVLB  3
....................    } 
....................  
....................  
.................... } 
.................... //_-------------------------------------------------------------------------------------------------------------------------------------------------------- 
....................  
.................... //_-------------------------------------------------------------------------------------------------------------------------------------------------------- 
....................       if(Menu==100){ //Menu de Configuracin de Parametros de Control 
0CE92:  MOVF   x5E,W
0CE94:  SUBLW  64
0CE96:  BTFSS  FD8.2
0CE98:  GOTO   DD04
....................       
....................       if(Opcion2>11) 
0CE9C:  MOVF   x67,W
0CE9E:  SUBLW  0B
0CEA0:  BC    CEA6
....................          Opcion2=1; 
0CEA2:  MOVLW  01
0CEA4:  MOVWF  x67
....................       if(Opcion2<1) 
0CEA6:  MOVF   x67,F
0CEA8:  BNZ   CEAE
....................          Opcion2=11; 
0CEAA:  MOVLW  0B
0CEAC:  MOVWF  x67
....................        
....................       if(Opcion2==1){ 
0CEAE:  DECFSZ x67,W
0CEB0:  BRA    D02E
....................          printf("Config.t2c.txt=\"Proporcional\""); 
0CEB2:  MOVLW  72
0CEB4:  MOVWF  FF6
0CEB6:  MOVLW  18
0CEB8:  MOVWF  FF7
0CEBA:  MOVLW  00
0CEBC:  MOVWF  FF8
0CEBE:  MOVLB  0
0CEC0:  CALL   38BE
....................          SendDataDisplay();       
0CEC4:  CALL   38F0
....................          printf("t3c.txt=\"%2.0f\"",Ganancia); 
0CEC8:  MOVLW  90
0CECA:  MOVWF  FF6
0CECC:  MOVLW  18
0CECE:  MOVWF  FF7
0CED0:  MOVLW  00
0CED2:  MOVWF  FF8
0CED4:  MOVLW  09
0CED6:  MOVLB  4
0CED8:  MOVWF  x44
0CEDA:  MOVLB  0
0CEDC:  CALL   484A
0CEE0:  MOVLW  01
0CEE2:  MOVWF  FE9
0CEE4:  MOVFF  30B,447
0CEE8:  MOVFF  30A,446
0CEEC:  MOVFF  309,445
0CEF0:  MOVFF  308,444
0CEF4:  MOVLB  4
0CEF6:  CLRF   x48
0CEF8:  MOVLB  0
0CEFA:  CALL   49EA
0CEFE:  MOVLW  22
0CF00:  BTFSS  F9E.4
0CF02:  BRA    CF00
0CF04:  MOVWF  FAD
....................          SendDataDisplay(); 
0CF06:  CALL   38F0
....................          if(RX_Buffer[4]==0x0a || UP){//Tecla Arriba Oprimida 
0CF0A:  MOVF   34,W
0CF0C:  SUBLW  0A
0CF0E:  BZ    CF16
0CF10:  BSF    F93.0
0CF12:  BTFSC  F81.0
0CF14:  BRA    CF66
....................             delay_ms(20); 
0CF16:  MOVLW  14
0CF18:  MOVLB  4
0CF1A:  MOVWF  x54
0CF1C:  MOVLB  0
0CF1E:  CALL   1A84
....................             if(RX_Buffer[4]==0x0a || UP){ 
0CF22:  MOVF   34,W
0CF24:  SUBLW  0A
0CF26:  BZ    CF2E
0CF28:  BSF    F93.0
0CF2A:  BTFSC  F81.0
0CF2C:  BRA    CF66
....................                Ganancia+=1.0; 
0CF2E:  BCF    FD8.1
0CF30:  MOVFF  30B,457
0CF34:  MOVFF  30A,456
0CF38:  MOVFF  309,455
0CF3C:  MOVFF  308,454
0CF40:  MOVLB  4
0CF42:  CLRF   x5B
0CF44:  CLRF   x5A
0CF46:  CLRF   x59
0CF48:  MOVLW  7F
0CF4A:  MOVWF  x58
0CF4C:  MOVLB  0
0CF4E:  CALL   1C40
0CF52:  MOVFF  03,30B
0CF56:  MOVFF  02,30A
0CF5A:  MOVFF  01,309
0CF5E:  MOVFF  00,308
....................                RX_Buffer[4]=0x00;   
0CF62:  CLRF   34
....................                RX_Buffer2[4]=0x00;             
0CF64:  CLRF   3F
....................                //BorraBuffer(); 
....................             } 
....................          } 
....................              
....................          if(RX_Buffer[4]==0x0b || DOWN){//Tecla Abajo Oprimida 
0CF66:  MOVF   34,W
0CF68:  SUBLW  0B
0CF6A:  BZ    CF72
0CF6C:  BSF    F93.1
0CF6E:  BTFSC  F81.1
0CF70:  BRA    CFC2
....................             delay_ms(20); 
0CF72:  MOVLW  14
0CF74:  MOVLB  4
0CF76:  MOVWF  x54
0CF78:  MOVLB  0
0CF7A:  CALL   1A84
....................             if(RX_Buffer[4]==0x0b || DOWN){ 
0CF7E:  MOVF   34,W
0CF80:  SUBLW  0B
0CF82:  BZ    CF8A
0CF84:  BSF    F93.1
0CF86:  BTFSC  F81.1
0CF88:  BRA    CFC2
....................                Ganancia-=1.0; 
0CF8A:  BSF    FD8.1
0CF8C:  MOVFF  30B,457
0CF90:  MOVFF  30A,456
0CF94:  MOVFF  309,455
0CF98:  MOVFF  308,454
0CF9C:  MOVLB  4
0CF9E:  CLRF   x5B
0CFA0:  CLRF   x5A
0CFA2:  CLRF   x59
0CFA4:  MOVLW  7F
0CFA6:  MOVWF  x58
0CFA8:  MOVLB  0
0CFAA:  CALL   1C40
0CFAE:  MOVFF  03,30B
0CFB2:  MOVFF  02,30A
0CFB6:  MOVFF  01,309
0CFBA:  MOVFF  00,308
....................                RX_Buffer[4]=0x00; 
0CFBE:  CLRF   34
....................                RX_Buffer2[4]=0x00;             
0CFC0:  CLRF   3F
....................                //BorraBuffer(); 
....................             } 
....................          } 
....................           
....................          if(Ganancia>40) 
0CFC2:  MOVLB  4
0CFC4:  CLRF   x46
0CFC6:  CLRF   x45
0CFC8:  MOVLW  20
0CFCA:  MOVWF  x44
0CFCC:  MOVLW  84
0CFCE:  MOVWF  x43
0CFD0:  MOVFF  30B,44A
0CFD4:  MOVFF  30A,449
0CFD8:  MOVFF  309,448
0CFDC:  MOVFF  308,447
0CFE0:  MOVLB  0
0CFE2:  CALL   2D88
0CFE6:  BNC   CFF4
....................             Ganancia=1; 
0CFE8:  MOVLB  3
0CFEA:  CLRF   x0B
0CFEC:  CLRF   x0A
0CFEE:  CLRF   x09
0CFF0:  MOVLW  7F
0CFF2:  MOVWF  x08
....................          if(Ganancia<1) 
0CFF4:  MOVFF  30B,446
0CFF8:  MOVFF  30A,445
0CFFC:  MOVFF  309,444
0D000:  MOVFF  308,443
0D004:  MOVLB  4
0D006:  CLRF   x4A
0D008:  CLRF   x49
0D00A:  CLRF   x48
0D00C:  MOVLW  7F
0D00E:  MOVWF  x47
0D010:  MOVLB  0
0D012:  CALL   2D88
0D016:  BNC   D028
....................             Ganancia=40; 
0D018:  MOVLB  3
0D01A:  CLRF   x0B
0D01C:  CLRF   x0A
0D01E:  MOVLW  20
0D020:  MOVWF  x09
0D022:  MOVLW  84
0D024:  MOVWF  x08
0D026:  MOVLB  0
....................       }else if(Opcion2==2){ 
0D028:  GOTO   D83E
0D02C:  MOVLB  3
0D02E:  MOVF   x67,W
0D030:  SUBLW  02
0D032:  BNZ   D0F2
....................          printf("Config.t2c.txt=\"Derivativo\""); 
0D034:  MOVLW  A0
0D036:  MOVWF  FF6
0D038:  MOVLW  18
0D03A:  MOVWF  FF7
0D03C:  MOVLW  00
0D03E:  MOVWF  FF8
0D040:  MOVLB  0
0D042:  CALL   38BE
....................          SendDataDisplay();       
0D046:  CALL   38F0
....................          printf("t3c.txt=\"%u\"",Derivativo); 
0D04A:  MOVLW  BC
0D04C:  MOVWF  FF6
0D04E:  MOVLW  18
0D050:  MOVWF  FF7
0D052:  MOVLW  00
0D054:  MOVWF  FF8
0D056:  MOVLW  09
0D058:  MOVLB  4
0D05A:  MOVWF  x44
0D05C:  MOVLB  0
0D05E:  CALL   484A
0D062:  MOVFF  33D,444
0D066:  MOVLW  1B
0D068:  MOVLB  4
0D06A:  MOVWF  x45
0D06C:  MOVLB  0
0D06E:  CALL   48A8
0D072:  MOVLW  22
0D074:  BTFSS  F9E.4
0D076:  BRA    D074
0D078:  MOVWF  FAD
....................          SendDataDisplay(); 
0D07A:  CALL   38F0
....................          if(RX_Buffer[4]==0x0a || UP){//Tecla Arriba Oprimida 
0D07E:  MOVF   34,W
0D080:  SUBLW  0A
0D082:  BZ    D08A
0D084:  BSF    F93.0
0D086:  BTFSC  F81.0
0D088:  BRA    D0AC
....................             delay_ms(20); 
0D08A:  MOVLW  14
0D08C:  MOVLB  4
0D08E:  MOVWF  x54
0D090:  MOVLB  0
0D092:  CALL   1A84
....................             if(RX_Buffer[4]==0x0a || UP){ 
0D096:  MOVF   34,W
0D098:  SUBLW  0A
0D09A:  BZ    D0A2
0D09C:  BSF    F93.0
0D09E:  BTFSC  F81.0
0D0A0:  BRA    D0AC
....................                Derivativo++; 
0D0A2:  MOVLB  3
0D0A4:  INCF   x3D,F
....................                RX_Buffer[4]=0x00;   
0D0A6:  CLRF   34
....................                RX_Buffer2[4]=0x00;             
0D0A8:  CLRF   3F
0D0AA:  MOVLB  0
....................                //BorraBuffer(); 
....................             } 
....................          } 
....................              
....................          if(RX_Buffer[4]==0x0b || DOWN){//Tecla Abajo Oprimida 
0D0AC:  MOVF   34,W
0D0AE:  SUBLW  0B
0D0B0:  BZ    D0B8
0D0B2:  BSF    F93.1
0D0B4:  BTFSC  F81.1
0D0B6:  BRA    D0DA
....................             delay_ms(20); 
0D0B8:  MOVLW  14
0D0BA:  MOVLB  4
0D0BC:  MOVWF  x54
0D0BE:  MOVLB  0
0D0C0:  CALL   1A84
....................             if(RX_Buffer[4]==0x0b || DOWN){ 
0D0C4:  MOVF   34,W
0D0C6:  SUBLW  0B
0D0C8:  BZ    D0D0
0D0CA:  BSF    F93.1
0D0CC:  BTFSC  F81.1
0D0CE:  BRA    D0DA
....................                Derivativo--; 
0D0D0:  MOVLB  3
0D0D2:  DECF   x3D,F
....................                RX_Buffer[4]=0x00; 
0D0D4:  CLRF   34
....................                RX_Buffer2[4]=0x00;             
0D0D6:  CLRF   3F
0D0D8:  MOVLB  0
....................                //BorraBuffer(); 
....................             } 
....................          } 
....................           
....................           
....................          if(Derivativo>40) 
0D0DA:  MOVLB  3
0D0DC:  MOVF   x3D,W
0D0DE:  SUBLW  28
0D0E0:  BC    D0E6
....................             Derivativo=1; 
0D0E2:  MOVLW  01
0D0E4:  MOVWF  x3D
....................          if(Derivativo<1) 
0D0E6:  MOVF   x3D,F
0D0E8:  BNZ   D0EE
....................             Derivativo=40; 
0D0EA:  MOVLW  28
0D0EC:  MOVWF  x3D
....................       }else if(Opcion2==3){ 
0D0EE:  GOTO   D83C
0D0F2:  MOVF   x67,W
0D0F4:  SUBLW  03
0D0F6:  BNZ   D1B4
....................          printf("Config.t2c.txt=\"Integral\""); 
0D0F8:  MOVLW  CA
0D0FA:  MOVWF  FF6
0D0FC:  MOVLW  18
0D0FE:  MOVWF  FF7
0D100:  MOVLW  00
0D102:  MOVWF  FF8
0D104:  MOVLB  0
0D106:  CALL   38BE
....................          SendDataDisplay();       
0D10A:  CALL   38F0
....................          printf("t3c.txt=\"%u\"",Integral); 
0D10E:  MOVLW  E4
0D110:  MOVWF  FF6
0D112:  MOVLW  18
0D114:  MOVWF  FF7
0D116:  MOVLW  00
0D118:  MOVWF  FF8
0D11A:  MOVLW  09
0D11C:  MOVLB  4
0D11E:  MOVWF  x44
0D120:  MOVLB  0
0D122:  CALL   484A
0D126:  MOVFF  33C,444
0D12A:  MOVLW  1B
0D12C:  MOVLB  4
0D12E:  MOVWF  x45
0D130:  MOVLB  0
0D132:  CALL   48A8
0D136:  MOVLW  22
0D138:  BTFSS  F9E.4
0D13A:  BRA    D138
0D13C:  MOVWF  FAD
....................          SendDataDisplay(); 
0D13E:  CALL   38F0
....................          if(RX_Buffer[4]==0x0a || UP){//Tecla Arriba Oprimida 
0D142:  MOVF   34,W
0D144:  SUBLW  0A
0D146:  BZ    D14E
0D148:  BSF    F93.0
0D14A:  BTFSC  F81.0
0D14C:  BRA    D170
....................             delay_ms(20); 
0D14E:  MOVLW  14
0D150:  MOVLB  4
0D152:  MOVWF  x54
0D154:  MOVLB  0
0D156:  CALL   1A84
....................             if(RX_Buffer[4]==0x0a || UP){ 
0D15A:  MOVF   34,W
0D15C:  SUBLW  0A
0D15E:  BZ    D166
0D160:  BSF    F93.0
0D162:  BTFSC  F81.0
0D164:  BRA    D170
....................                Integral++; 
0D166:  MOVLB  3
0D168:  INCF   x3C,F
....................                RX_Buffer[4]=0x00;   
0D16A:  CLRF   34
....................                RX_Buffer2[4]=0x00;             
0D16C:  CLRF   3F
0D16E:  MOVLB  0
....................                //BorraBuffer(); 
....................             } 
....................          } 
....................              
....................          if(RX_Buffer[4]==0x0b || DOWN){//Tecla Abajo Oprimida 
0D170:  MOVF   34,W
0D172:  SUBLW  0B
0D174:  BZ    D17C
0D176:  BSF    F93.1
0D178:  BTFSC  F81.1
0D17A:  BRA    D19E
....................             delay_ms(20); 
0D17C:  MOVLW  14
0D17E:  MOVLB  4
0D180:  MOVWF  x54
0D182:  MOVLB  0
0D184:  CALL   1A84
....................             if(RX_Buffer[4]==0x0b || DOWN){ 
0D188:  MOVF   34,W
0D18A:  SUBLW  0B
0D18C:  BZ    D194
0D18E:  BSF    F93.1
0D190:  BTFSC  F81.1
0D192:  BRA    D19E
....................                Integral--; 
0D194:  MOVLB  3
0D196:  DECF   x3C,F
....................                RX_Buffer[4]=0x00; 
0D198:  CLRF   34
....................                RX_Buffer2[4]=0x00;             
0D19A:  CLRF   3F
0D19C:  MOVLB  0
....................                //BorraBuffer(); 
....................             } 
....................          } 
....................           
....................          if(Integral>40) 
0D19E:  MOVLB  3
0D1A0:  MOVF   x3C,W
0D1A2:  SUBLW  28
0D1A4:  BC    D1AA
....................             Integral=1; 
0D1A6:  MOVLW  01
0D1A8:  MOVWF  x3C
....................          if(Integral<1) 
0D1AA:  MOVF   x3C,F
0D1AC:  BNZ   D1B2
....................             Integral=40; 
0D1AE:  MOVLW  28
0D1B0:  MOVWF  x3C
....................       }else if(Opcion2==4){ 
0D1B2:  BRA    D83C
0D1B4:  MOVF   x67,W
0D1B6:  SUBLW  04
0D1B8:  BTFSS  FD8.2
0D1BA:  BRA    D33A
....................          printf("Config.t2c.txt=\"Tciclo\""); 
0D1BC:  MOVLW  F2
0D1BE:  MOVWF  FF6
0D1C0:  MOVLW  18
0D1C2:  MOVWF  FF7
0D1C4:  MOVLW  00
0D1C6:  MOVWF  FF8
0D1C8:  MOVLB  0
0D1CA:  CALL   38BE
....................          SendDataDisplay();       
0D1CE:  CALL   38F0
....................          printf("t3c.txt=\"%2.0f\"",Tciclo); 
0D1D2:  MOVLW  0A
0D1D4:  MOVWF  FF6
0D1D6:  MOVLW  19
0D1D8:  MOVWF  FF7
0D1DA:  MOVLW  00
0D1DC:  MOVWF  FF8
0D1DE:  MOVLW  09
0D1E0:  MOVLB  4
0D1E2:  MOVWF  x44
0D1E4:  MOVLB  0
0D1E6:  CALL   484A
0D1EA:  MOVLW  01
0D1EC:  MOVWF  FE9
0D1EE:  MOVFF  2F3,447
0D1F2:  MOVFF  2F2,446
0D1F6:  MOVFF  2F1,445
0D1FA:  MOVFF  2F0,444
0D1FE:  MOVLB  4
0D200:  CLRF   x48
0D202:  MOVLB  0
0D204:  CALL   49EA
0D208:  MOVLW  22
0D20A:  BTFSS  F9E.4
0D20C:  BRA    D20A
0D20E:  MOVWF  FAD
....................          SendDataDisplay(); 
0D210:  CALL   38F0
....................          if(RX_Buffer[4]==0x0a || UP){//Tecla Arriba Oprimida 
0D214:  MOVF   34,W
0D216:  SUBLW  0A
0D218:  BZ    D220
0D21A:  BSF    F93.0
0D21C:  BTFSC  F81.0
0D21E:  BRA    D270
....................             delay_ms(20); 
0D220:  MOVLW  14
0D222:  MOVLB  4
0D224:  MOVWF  x54
0D226:  MOVLB  0
0D228:  CALL   1A84
....................             if(RX_Buffer[4]==0x0a || UP){ 
0D22C:  MOVF   34,W
0D22E:  SUBLW  0A
0D230:  BZ    D238
0D232:  BSF    F93.0
0D234:  BTFSC  F81.0
0D236:  BRA    D270
....................                Tciclo+=1.0; 
0D238:  BCF    FD8.1
0D23A:  MOVFF  2F3,457
0D23E:  MOVFF  2F2,456
0D242:  MOVFF  2F1,455
0D246:  MOVFF  2F0,454
0D24A:  MOVLB  4
0D24C:  CLRF   x5B
0D24E:  CLRF   x5A
0D250:  CLRF   x59
0D252:  MOVLW  7F
0D254:  MOVWF  x58
0D256:  MOVLB  0
0D258:  CALL   1C40
0D25C:  MOVFF  03,2F3
0D260:  MOVFF  02,2F2
0D264:  MOVFF  01,2F1
0D268:  MOVFF  00,2F0
....................                RX_Buffer[4]=0x00;   
0D26C:  CLRF   34
....................                RX_Buffer2[4]=0x00;             
0D26E:  CLRF   3F
....................                //BorraBuffer(); 
....................             } 
....................          } 
....................              
....................          if(RX_Buffer[4]==0x0b || DOWN){//Tecla Abajo Oprimida 
0D270:  MOVF   34,W
0D272:  SUBLW  0B
0D274:  BZ    D27C
0D276:  BSF    F93.1
0D278:  BTFSC  F81.1
0D27A:  BRA    D2CC
....................             delay_ms(20); 
0D27C:  MOVLW  14
0D27E:  MOVLB  4
0D280:  MOVWF  x54
0D282:  MOVLB  0
0D284:  CALL   1A84
....................             if(RX_Buffer[4]==0x0b || DOWN){ 
0D288:  MOVF   34,W
0D28A:  SUBLW  0B
0D28C:  BZ    D294
0D28E:  BSF    F93.1
0D290:  BTFSC  F81.1
0D292:  BRA    D2CC
....................                Tciclo-=1.0; 
0D294:  BSF    FD8.1
0D296:  MOVFF  2F3,457
0D29A:  MOVFF  2F2,456
0D29E:  MOVFF  2F1,455
0D2A2:  MOVFF  2F0,454
0D2A6:  MOVLB  4
0D2A8:  CLRF   x5B
0D2AA:  CLRF   x5A
0D2AC:  CLRF   x59
0D2AE:  MOVLW  7F
0D2B0:  MOVWF  x58
0D2B2:  MOVLB  0
0D2B4:  CALL   1C40
0D2B8:  MOVFF  03,2F3
0D2BC:  MOVFF  02,2F2
0D2C0:  MOVFF  01,2F1
0D2C4:  MOVFF  00,2F0
....................                RX_Buffer[4]=0x00; 
0D2C8:  CLRF   34
....................                RX_Buffer2[4]=0x00;             
0D2CA:  CLRF   3F
....................                //BorraBuffer(); 
....................             } 
....................          } 
....................           
....................          if(Tciclo>20) 
0D2CC:  MOVLB  4
0D2CE:  CLRF   x46
0D2D0:  CLRF   x45
0D2D2:  MOVLW  20
0D2D4:  MOVWF  x44
0D2D6:  MOVLW  83
0D2D8:  MOVWF  x43
0D2DA:  MOVFF  2F3,44A
0D2DE:  MOVFF  2F2,449
0D2E2:  MOVFF  2F1,448
0D2E6:  MOVFF  2F0,447
0D2EA:  MOVLB  0
0D2EC:  CALL   2D88
0D2F0:  BNC   D300
....................             Tciclo=5; 
0D2F2:  MOVLB  2
0D2F4:  CLRF   xF3
0D2F6:  CLRF   xF2
0D2F8:  MOVLW  20
0D2FA:  MOVWF  xF1
0D2FC:  MOVLW  81
0D2FE:  MOVWF  xF0
....................          if(Tciclo<5) 
0D300:  MOVFF  2F3,446
0D304:  MOVFF  2F2,445
0D308:  MOVFF  2F1,444
0D30C:  MOVFF  2F0,443
0D310:  MOVLB  4
0D312:  CLRF   x4A
0D314:  CLRF   x49
0D316:  MOVLW  20
0D318:  MOVWF  x48
0D31A:  MOVLW  81
0D31C:  MOVWF  x47
0D31E:  MOVLB  0
0D320:  CALL   2D88
0D324:  BNC   D336
....................             Tciclo=20; 
0D326:  MOVLB  2
0D328:  CLRF   xF3
0D32A:  CLRF   xF2
0D32C:  MOVLW  20
0D32E:  MOVWF  xF1
0D330:  MOVLW  83
0D332:  MOVWF  xF0
0D334:  MOVLB  0
....................       }else if(Opcion2==5){ 
0D336:  BRA    D83E
0D338:  MOVLB  3
0D33A:  MOVF   x67,W
0D33C:  SUBLW  05
0D33E:  BNZ   D3F4
....................          printf("Config.t2c.txt=\"Ajuste +\""); 
0D340:  MOVLW  1A
0D342:  MOVWF  FF6
0D344:  MOVLW  19
0D346:  MOVWF  FF7
0D348:  MOVLW  00
0D34A:  MOVWF  FF8
0D34C:  MOVLB  0
0D34E:  CALL   38BE
....................          SendDataDisplay();       
0D352:  CALL   38F0
....................          printf("t3c.txt=\"%u\"",Ajuste); 
0D356:  MOVLW  34
0D358:  MOVWF  FF6
0D35A:  MOVLW  19
0D35C:  MOVWF  FF7
0D35E:  MOVLW  00
0D360:  MOVWF  FF8
0D362:  MOVLW  09
0D364:  MOVLB  4
0D366:  MOVWF  x44
0D368:  MOVLB  0
0D36A:  CALL   484A
0D36E:  MOVFF  2D9,444
0D372:  MOVLW  1B
0D374:  MOVLB  4
0D376:  MOVWF  x45
0D378:  MOVLB  0
0D37A:  CALL   48A8
0D37E:  MOVLW  22
0D380:  BTFSS  F9E.4
0D382:  BRA    D380
0D384:  MOVWF  FAD
....................          SendDataDisplay(); 
0D386:  CALL   38F0
....................          if(RX_Buffer[4]==0x0a || UP){//Tecla Arriba Oprimida 
0D38A:  MOVF   34,W
0D38C:  SUBLW  0A
0D38E:  BZ    D396
0D390:  BSF    F93.0
0D392:  BTFSC  F81.0
0D394:  BRA    D3BE
....................             delay_ms(20); 
0D396:  MOVLW  14
0D398:  MOVLB  4
0D39A:  MOVWF  x54
0D39C:  MOVLB  0
0D39E:  CALL   1A84
....................             if(RX_Buffer[4]==0x0a || UP){ 
0D3A2:  MOVF   34,W
0D3A4:  SUBLW  0A
0D3A6:  BZ    D3AE
0D3A8:  BSF    F93.0
0D3AA:  BTFSC  F81.0
0D3AC:  BRA    D3BE
....................                if(Ajuste<100) 
0D3AE:  MOVLB  2
0D3B0:  MOVF   xD9,W
0D3B2:  SUBLW  63
0D3B4:  BNC   D3B8
....................                   Ajuste++; 
0D3B6:  INCF   xD9,F
....................                RX_Buffer[4]=0x00;   
0D3B8:  CLRF   34
....................                RX_Buffer2[4]=0x00;             
0D3BA:  CLRF   3F
0D3BC:  MOVLB  0
....................                //BorraBuffer(); 
....................             } 
....................          } 
....................              
....................          if(RX_Buffer[4]==0x0b || DOWN){//Tecla Abajo Oprimida 
0D3BE:  MOVF   34,W
0D3C0:  SUBLW  0B
0D3C2:  BZ    D3CA
0D3C4:  BSF    F93.1
0D3C6:  BTFSC  F81.1
0D3C8:  BRA    D3F0
....................             delay_ms(20); 
0D3CA:  MOVLW  14
0D3CC:  MOVLB  4
0D3CE:  MOVWF  x54
0D3D0:  MOVLB  0
0D3D2:  CALL   1A84
....................             if(RX_Buffer[4]==0x0b || DOWN){ 
0D3D6:  MOVF   34,W
0D3D8:  SUBLW  0B
0D3DA:  BZ    D3E2
0D3DC:  BSF    F93.1
0D3DE:  BTFSC  F81.1
0D3E0:  BRA    D3F0
....................                if(Ajuste>0) 
0D3E2:  MOVLB  2
0D3E4:  MOVF   xD9,F
0D3E6:  BZ    D3EA
....................                   Ajuste--; 
0D3E8:  DECF   xD9,F
....................                RX_Buffer[4]=0x00; 
0D3EA:  CLRF   34
....................                RX_Buffer2[4]=0x00;             
0D3EC:  CLRF   3F
0D3EE:  MOVLB  0
....................                //BorraBuffer(); 
....................             } 
....................          } 
....................       }else if(Opcion2==6){ 
0D3F0:  BRA    D83E
0D3F2:  MOVLB  3
0D3F4:  MOVF   x67,W
0D3F6:  SUBLW  06
0D3F8:  BNZ   D4AE
....................          printf("Config.t2c.txt=\"Ajuste -\""); 
0D3FA:  MOVLW  42
0D3FC:  MOVWF  FF6
0D3FE:  MOVLW  19
0D400:  MOVWF  FF7
0D402:  MOVLW  00
0D404:  MOVWF  FF8
0D406:  MOVLB  0
0D408:  CALL   38BE
....................          SendDataDisplay();       
0D40C:  CALL   38F0
....................          printf("t3c.txt=\"%u\"",Ajusten); 
0D410:  MOVLW  5C
0D412:  MOVWF  FF6
0D414:  MOVLW  19
0D416:  MOVWF  FF7
0D418:  MOVLW  00
0D41A:  MOVWF  FF8
0D41C:  MOVLW  09
0D41E:  MOVLB  4
0D420:  MOVWF  x44
0D422:  MOVLB  0
0D424:  CALL   484A
0D428:  MOVFF  2DA,444
0D42C:  MOVLW  1B
0D42E:  MOVLB  4
0D430:  MOVWF  x45
0D432:  MOVLB  0
0D434:  CALL   48A8
0D438:  MOVLW  22
0D43A:  BTFSS  F9E.4
0D43C:  BRA    D43A
0D43E:  MOVWF  FAD
....................          SendDataDisplay(); 
0D440:  CALL   38F0
....................          if(RX_Buffer[4]==0x0a || UP){//Tecla Arriba Oprimida 
0D444:  MOVF   34,W
0D446:  SUBLW  0A
0D448:  BZ    D450
0D44A:  BSF    F93.0
0D44C:  BTFSC  F81.0
0D44E:  BRA    D478
....................             delay_ms(20); 
0D450:  MOVLW  14
0D452:  MOVLB  4
0D454:  MOVWF  x54
0D456:  MOVLB  0
0D458:  CALL   1A84
....................             if(RX_Buffer[4]==0x0a || UP){ 
0D45C:  MOVF   34,W
0D45E:  SUBLW  0A
0D460:  BZ    D468
0D462:  BSF    F93.0
0D464:  BTFSC  F81.0
0D466:  BRA    D478
....................                if(Ajusten<100) 
0D468:  MOVLB  2
0D46A:  MOVF   xDA,W
0D46C:  SUBLW  63
0D46E:  BNC   D472
....................                   Ajusten++; 
0D470:  INCF   xDA,F
....................                RX_Buffer[4]=0x00;   
0D472:  CLRF   34
....................                RX_Buffer2[4]=0x00;             
0D474:  CLRF   3F
0D476:  MOVLB  0
....................                //BorraBuffer(); 
....................             } 
....................          } 
....................              
....................          if(RX_Buffer[4]==0x0b || DOWN){//Tecla Abajo Oprimida 
0D478:  MOVF   34,W
0D47A:  SUBLW  0B
0D47C:  BZ    D484
0D47E:  BSF    F93.1
0D480:  BTFSC  F81.1
0D482:  BRA    D4AA
....................             delay_ms(20); 
0D484:  MOVLW  14
0D486:  MOVLB  4
0D488:  MOVWF  x54
0D48A:  MOVLB  0
0D48C:  CALL   1A84
....................             if(RX_Buffer[4]==0x0b || DOWN){ 
0D490:  MOVF   34,W
0D492:  SUBLW  0B
0D494:  BZ    D49C
0D496:  BSF    F93.1
0D498:  BTFSC  F81.1
0D49A:  BRA    D4AA
....................                if(Ajusten>0) 
0D49C:  MOVLB  2
0D49E:  MOVF   xDA,F
0D4A0:  BZ    D4A4
....................                   Ajusten--; 
0D4A2:  DECF   xDA,F
....................                RX_Buffer[4]=0x00; 
0D4A4:  CLRF   34
....................                RX_Buffer2[4]=0x00;             
0D4A6:  CLRF   3F
0D4A8:  MOVLB  0
....................                //BorraBuffer(); 
....................             } 
....................          } 
....................       }else if(Opcion2==7){ 
0D4AA:  BRA    D83E
0D4AC:  MOVLB  3
0D4AE:  MOVF   x67,W
0D4B0:  SUBLW  07
0D4B2:  BNZ   D56A
....................          printf("Config.t2c.txt=\"Media\""); 
0D4B4:  MOVLW  6A
0D4B6:  MOVWF  FF6
0D4B8:  MOVLW  19
0D4BA:  MOVWF  FF7
0D4BC:  MOVLW  00
0D4BE:  MOVWF  FF8
0D4C0:  MOVLB  0
0D4C2:  CALL   38BE
....................          SendDataDisplay();       
0D4C6:  CALL   38F0
....................          printf("t3c.txt=\"%u\"",MediaMovil); 
0D4CA:  MOVLW  82
0D4CC:  MOVWF  FF6
0D4CE:  MOVLW  19
0D4D0:  MOVWF  FF7
0D4D2:  MOVLW  00
0D4D4:  MOVWF  FF8
0D4D6:  MOVLW  09
0D4D8:  MOVLB  4
0D4DA:  MOVWF  x44
0D4DC:  MOVLB  0
0D4DE:  CALL   484A
0D4E2:  MOVFF  2DB,444
0D4E6:  MOVLW  1B
0D4E8:  MOVLB  4
0D4EA:  MOVWF  x45
0D4EC:  MOVLB  0
0D4EE:  CALL   48A8
0D4F2:  MOVLW  22
0D4F4:  BTFSS  F9E.4
0D4F6:  BRA    D4F4
0D4F8:  MOVWF  FAD
....................          SendDataDisplay(); 
0D4FA:  CALL   38F0
....................          if(RX_Buffer[4]==0x0a || UP){//Tecla Arriba Oprimida 
0D4FE:  MOVF   34,W
0D500:  SUBLW  0A
0D502:  BZ    D50A
0D504:  BSF    F93.0
0D506:  BTFSC  F81.0
0D508:  BRA    D532
....................             delay_ms(20); 
0D50A:  MOVLW  14
0D50C:  MOVLB  4
0D50E:  MOVWF  x54
0D510:  MOVLB  0
0D512:  CALL   1A84
....................             if(RX_Buffer[4]==0x0a || UP){ 
0D516:  MOVF   34,W
0D518:  SUBLW  0A
0D51A:  BZ    D522
0D51C:  BSF    F93.0
0D51E:  BTFSC  F81.0
0D520:  BRA    D532
....................                if(MediaMovil<80) 
0D522:  MOVLB  2
0D524:  MOVF   xDB,W
0D526:  SUBLW  4F
0D528:  BNC   D52C
....................                   MediaMovil++; 
0D52A:  INCF   xDB,F
....................                RX_Buffer[4]=0x00;   
0D52C:  CLRF   34
....................                RX_Buffer2[4]=0x00;             
0D52E:  CLRF   3F
0D530:  MOVLB  0
....................                //BorraBuffer(); 
....................             } 
....................          } 
....................              
....................          if(RX_Buffer[4]==0x0b || DOWN){//Tecla Abajo Oprimida 
0D532:  MOVF   34,W
0D534:  SUBLW  0B
0D536:  BZ    D53E
0D538:  BSF    F93.1
0D53A:  BTFSC  F81.1
0D53C:  BRA    D566
....................             delay_ms(20); 
0D53E:  MOVLW  14
0D540:  MOVLB  4
0D542:  MOVWF  x54
0D544:  MOVLB  0
0D546:  CALL   1A84
....................             if(RX_Buffer[4]==0x0b || DOWN){ 
0D54A:  MOVF   34,W
0D54C:  SUBLW  0B
0D54E:  BZ    D556
0D550:  BSF    F93.1
0D552:  BTFSC  F81.1
0D554:  BRA    D566
....................                if(MediaMovil>10) 
0D556:  MOVLB  2
0D558:  MOVF   xDB,W
0D55A:  SUBLW  0A
0D55C:  BC    D560
....................                   MediaMovil--; 
0D55E:  DECF   xDB,F
....................                RX_Buffer[4]=0x00; 
0D560:  CLRF   34
....................                RX_Buffer2[4]=0x00;             
0D562:  CLRF   3F
0D564:  MOVLB  0
....................                //BorraBuffer(); 
....................             } 
....................          } 
....................       }else if(Opcion2==8){ 
0D566:  BRA    D83E
0D568:  MOVLB  3
0D56A:  MOVF   x67,W
0D56C:  SUBLW  08
0D56E:  BTFSS  FD8.2
0D570:  BRA    D6D8
....................          printf("Config.t2c.txt=\"RPT100B\""); 
0D572:  MOVLW  90
0D574:  MOVWF  FF6
0D576:  MOVLW  19
0D578:  MOVWF  FF7
0D57A:  MOVLW  00
0D57C:  MOVWF  FF8
0D57E:  MOVLB  0
0D580:  CALL   38BE
....................          SendDataDisplay();       
0D584:  CALL   38F0
....................          printf("t3c.txt=\"%2.1f\"",RPT100); 
0D588:  MOVLW  AA
0D58A:  MOVWF  FF6
0D58C:  MOVLW  19
0D58E:  MOVWF  FF7
0D590:  MOVLW  00
0D592:  MOVWF  FF8
0D594:  MOVLW  09
0D596:  MOVLB  4
0D598:  MOVWF  x44
0D59A:  MOVLB  0
0D59C:  CALL   484A
0D5A0:  MOVLW  01
0D5A2:  MOVWF  FE9
0D5A4:  MOVFF  2AA,447
0D5A8:  MOVFF  2A9,446
0D5AC:  MOVFF  2A8,445
0D5B0:  MOVFF  2A7,444
0D5B4:  MOVLB  4
0D5B6:  MOVWF  x48
0D5B8:  MOVLB  0
0D5BA:  CALL   49EA
0D5BE:  MOVLW  22
0D5C0:  BTFSS  F9E.4
0D5C2:  BRA    D5C0
0D5C4:  MOVWF  FAD
....................          SendDataDisplay(); 
0D5C6:  CALL   38F0
....................          if(RX_Buffer[4]==0x0a || UP){//Tecla Arriba Oprimida 
0D5CA:  MOVF   34,W
0D5CC:  SUBLW  0A
0D5CE:  BZ    D5D6
0D5D0:  BSF    F93.0
0D5D2:  BTFSC  F81.0
0D5D4:  BRA    D650
....................             delay_ms(20); 
0D5D6:  MOVLW  14
0D5D8:  MOVLB  4
0D5DA:  MOVWF  x54
0D5DC:  MOVLB  0
0D5DE:  CALL   1A84
....................             if(RX_Buffer[4]==0x0a || UP){ 
0D5E2:  MOVF   34,W
0D5E4:  SUBLW  0A
0D5E6:  BZ    D5EE
0D5E8:  BSF    F93.0
0D5EA:  BTFSC  F81.0
0D5EC:  BRA    D650
....................                if(RPT100<2.0) 
0D5EE:  MOVFF  2AA,446
0D5F2:  MOVFF  2A9,445
0D5F6:  MOVFF  2A8,444
0D5FA:  MOVFF  2A7,443
0D5FE:  MOVLB  4
0D600:  CLRF   x4A
0D602:  CLRF   x49
0D604:  CLRF   x48
0D606:  MOVLW  80
0D608:  MOVWF  x47
0D60A:  MOVLB  0
0D60C:  CALL   2D88
0D610:  BNC   D64C
....................                   RPT100+=0.1; 
0D612:  BCF    FD8.1
0D614:  MOVFF  2AA,457
0D618:  MOVFF  2A9,456
0D61C:  MOVFF  2A8,455
0D620:  MOVFF  2A7,454
0D624:  MOVLW  CD
0D626:  MOVLB  4
0D628:  MOVWF  x5B
0D62A:  MOVLW  CC
0D62C:  MOVWF  x5A
0D62E:  MOVLW  4C
0D630:  MOVWF  x59
0D632:  MOVLW  7B
0D634:  MOVWF  x58
0D636:  MOVLB  0
0D638:  CALL   1C40
0D63C:  MOVFF  03,2AA
0D640:  MOVFF  02,2A9
0D644:  MOVFF  01,2A8
0D648:  MOVFF  00,2A7
....................                RX_Buffer[4]=0x00;   
0D64C:  CLRF   34
....................                RX_Buffer2[4]=0x00;             
0D64E:  CLRF   3F
....................                //BorraBuffer(); 
....................             } 
....................          } 
....................              
....................          if(RX_Buffer[4]==0x0b || DOWN){//Tecla Abajo Oprimida 
0D650:  MOVF   34,W
0D652:  SUBLW  0B
0D654:  BZ    D65C
0D656:  BSF    F93.1
0D658:  BTFSC  F81.1
0D65A:  BRA    D6D4
....................             delay_ms(20); 
0D65C:  MOVLW  14
0D65E:  MOVLB  4
0D660:  MOVWF  x54
0D662:  MOVLB  0
0D664:  CALL   1A84
....................             if(RX_Buffer[4]==0x0b || DOWN){ 
0D668:  MOVF   34,W
0D66A:  SUBLW  0B
0D66C:  BZ    D674
0D66E:  BSF    F93.1
0D670:  BTFSC  F81.1
0D672:  BRA    D6D4
....................                if(RPT100>0.0) 
0D674:  MOVLB  4
0D676:  CLRF   x46
0D678:  CLRF   x45
0D67A:  CLRF   x44
0D67C:  CLRF   x43
0D67E:  MOVFF  2AA,44A
0D682:  MOVFF  2A9,449
0D686:  MOVFF  2A8,448
0D68A:  MOVFF  2A7,447
0D68E:  MOVLB  0
0D690:  CALL   2D88
0D694:  BNC   D6D0
....................                   RPT100-=0.1; 
0D696:  BSF    FD8.1
0D698:  MOVFF  2AA,457
0D69C:  MOVFF  2A9,456
0D6A0:  MOVFF  2A8,455
0D6A4:  MOVFF  2A7,454
0D6A8:  MOVLW  CD
0D6AA:  MOVLB  4
0D6AC:  MOVWF  x5B
0D6AE:  MOVLW  CC
0D6B0:  MOVWF  x5A
0D6B2:  MOVLW  4C
0D6B4:  MOVWF  x59
0D6B6:  MOVLW  7B
0D6B8:  MOVWF  x58
0D6BA:  MOVLB  0
0D6BC:  CALL   1C40
0D6C0:  MOVFF  03,2AA
0D6C4:  MOVFF  02,2A9
0D6C8:  MOVFF  01,2A8
0D6CC:  MOVFF  00,2A7
....................                RX_Buffer[4]=0x00; 
0D6D0:  CLRF   34
....................                RX_Buffer2[4]=0x00;             
0D6D2:  CLRF   3F
....................                //BorraBuffer(); 
....................             } 
....................          } 
....................       }else if(Opcion2==9){ 
0D6D4:  BRA    D83E
0D6D6:  MOVLB  3
0D6D8:  MOVF   x67,W
0D6DA:  SUBLW  09
0D6DC:  BNZ   D794
....................          printf("Config.t2c.txt=\"TTrampa\""); 
0D6DE:  MOVLW  BA
0D6E0:  MOVWF  FF6
0D6E2:  MOVLW  19
0D6E4:  MOVWF  FF7
0D6E6:  MOVLW  00
0D6E8:  MOVWF  FF8
0D6EA:  MOVLB  0
0D6EC:  CALL   38BE
....................          SendDataDisplay();       
0D6F0:  CALL   38F0
....................          printf("t3c.txt=\"%02u\"",TTrampa); 
0D6F4:  MOVLW  D4
0D6F6:  MOVWF  FF6
0D6F8:  MOVLW  19
0D6FA:  MOVWF  FF7
0D6FC:  MOVLW  00
0D6FE:  MOVWF  FF8
0D700:  MOVLW  09
0D702:  MOVLB  4
0D704:  MOVWF  x44
0D706:  MOVLB  0
0D708:  CALL   484A
0D70C:  MOVFF  2DC,444
0D710:  MOVLW  01
0D712:  MOVLB  4
0D714:  MOVWF  x45
0D716:  MOVLB  0
0D718:  CALL   48A8
0D71C:  MOVLW  22
0D71E:  BTFSS  F9E.4
0D720:  BRA    D71E
0D722:  MOVWF  FAD
....................          SendDataDisplay(); 
0D724:  CALL   38F0
....................          if(RX_Buffer[4]==0x0a || UP){//Tecla Arriba Oprimida 
0D728:  MOVF   34,W
0D72A:  SUBLW  0A
0D72C:  BZ    D734
0D72E:  BSF    F93.0
0D730:  BTFSC  F81.0
0D732:  BRA    D75C
....................             delay_ms(20); 
0D734:  MOVLW  14
0D736:  MOVLB  4
0D738:  MOVWF  x54
0D73A:  MOVLB  0
0D73C:  CALL   1A84
....................             if(RX_Buffer[4]==0x0a || UP){ 
0D740:  MOVF   34,W
0D742:  SUBLW  0A
0D744:  BZ    D74C
0D746:  BSF    F93.0
0D748:  BTFSC  F81.0
0D74A:  BRA    D75C
....................                if(TTrampa<100) 
0D74C:  MOVLB  2
0D74E:  MOVF   xDC,W
0D750:  SUBLW  63
0D752:  BNC   D756
....................                   TTrampa++; 
0D754:  INCF   xDC,F
....................                RX_Buffer[4]=0x00;   
0D756:  CLRF   34
....................                RX_Buffer2[4]=0x00;             
0D758:  CLRF   3F
0D75A:  MOVLB  0
....................                //BorraBuffer(); 
....................             } 
....................          } 
....................              
....................          if(RX_Buffer[4]==0x0b || DOWN){//Tecla Abajo Oprimida 
0D75C:  MOVF   34,W
0D75E:  SUBLW  0B
0D760:  BZ    D768
0D762:  BSF    F93.1
0D764:  BTFSC  F81.1
0D766:  BRA    D790
....................             delay_ms(20); 
0D768:  MOVLW  14
0D76A:  MOVLB  4
0D76C:  MOVWF  x54
0D76E:  MOVLB  0
0D770:  CALL   1A84
....................             if(RX_Buffer[4]==0x0b || DOWN){ 
0D774:  MOVF   34,W
0D776:  SUBLW  0B
0D778:  BZ    D780
0D77A:  BSF    F93.1
0D77C:  BTFSC  F81.1
0D77E:  BRA    D790
....................                if(TTrampa>50) 
0D780:  MOVLB  2
0D782:  MOVF   xDC,W
0D784:  SUBLW  32
0D786:  BC    D78A
....................                   TTrampa--; 
0D788:  DECF   xDC,F
....................                RX_Buffer[4]=0x00; 
0D78A:  CLRF   34
....................                RX_Buffer2[4]=0x00;             
0D78C:  CLRF   3F
0D78E:  MOVLB  0
....................                //BorraBuffer(); 
....................             } 
....................          } 
....................       }else if(Opcion2==10){ 
0D790:  BRA    D83E
0D792:  MOVLB  3
0D794:  MOVF   x67,W
0D796:  SUBLW  0A
0D798:  BNZ   D7E8
....................          printf("Config.t2c.txt=\"Ciclos\""); 
0D79A:  MOVLW  E4
0D79C:  MOVWF  FF6
0D79E:  MOVLW  19
0D7A0:  MOVWF  FF7
0D7A2:  MOVLW  00
0D7A4:  MOVWF  FF8
0D7A6:  MOVLB  0
0D7A8:  CALL   38BE
....................          SendDataDisplay();       
0D7AC:  CALL   38F0
....................          printf("t3c.txt=\"%05Lu\"",Ciclos); 
0D7B0:  MOVLW  FC
0D7B2:  MOVWF  FF6
0D7B4:  MOVLW  19
0D7B6:  MOVWF  FF7
0D7B8:  MOVLW  00
0D7BA:  MOVWF  FF8
0D7BC:  MOVLW  09
0D7BE:  MOVLB  4
0D7C0:  MOVWF  x44
0D7C2:  MOVLB  0
0D7C4:  CALL   484A
0D7C8:  MOVLW  08
0D7CA:  MOVWF  FE9
0D7CC:  MOVFF  37C,444
0D7D0:  MOVFF  37B,443
0D7D4:  CALL   4C0E
0D7D8:  MOVLW  22
0D7DA:  BTFSS  F9E.4
0D7DC:  BRA    D7DA
0D7DE:  MOVWF  FAD
....................          SendDataDisplay(); 
0D7E0:  CALL   38F0
....................       }else if(Opcion2==11){ 
0D7E4:  BRA    D83E
0D7E6:  MOVLB  3
0D7E8:  MOVF   x67,W
0D7EA:  SUBLW  0B
0D7EC:  BNZ   D83C
....................          printf("Config.t2c.txt=\"Atmosferica\""); 
0D7EE:  MOVLW  0C
0D7F0:  MOVWF  FF6
0D7F2:  MOVLW  1A
0D7F4:  MOVWF  FF7
0D7F6:  MOVLW  00
0D7F8:  MOVWF  FF8
0D7FA:  MOVLB  0
0D7FC:  CALL   38BE
....................          SendDataDisplay();    
0D800:  CALL   38F0
....................          printf("t3c.txt=\"%02u\"",Atmosferica); 
0D804:  MOVLW  2A
0D806:  MOVWF  FF6
0D808:  MOVLW  1A
0D80A:  MOVWF  FF7
0D80C:  MOVLW  00
0D80E:  MOVWF  FF8
0D810:  MOVLW  09
0D812:  MOVLB  4
0D814:  MOVWF  x44
0D816:  MOVLB  0
0D818:  CALL   484A
0D81C:  MOVFF  3AE,444
0D820:  MOVLW  01
0D822:  MOVLB  4
0D824:  MOVWF  x45
0D826:  MOVLB  0
0D828:  CALL   48A8
0D82C:  MOVLW  22
0D82E:  BTFSS  F9E.4
0D830:  BRA    D82E
0D832:  MOVWF  FAD
....................          SendDataDisplay(); 
0D834:  CALL   38F0
....................           
....................          #ifdef PT100Fija 
....................             Atmosferica=0; 
0D838:  MOVLB  3
0D83A:  CLRF   xAE
0D83C:  MOVLB  0
....................          #else 
....................             if(RX_Buffer[4]==0x0a || UP){//Tecla Arriba Oprimida 
....................                delay_ms(20); 
....................                if(RX_Buffer[4]==0x0a || UP){ 
....................                   if(Atmosferica<100) 
....................                      Atmosferica++; 
....................                   RX_Buffer[4]=0x00;   
....................                   RX_Buffer2[4]=0x00;             
....................                   //BorraBuffer(); 
....................                } 
....................             } 
....................                 
....................             if(RX_Buffer[4]==0x0b || DOWN){//Tecla Abajo Oprimida 
....................                delay_ms(20); 
....................                if(RX_Buffer[4]==0x0b || DOWN){ 
....................                   if(Atmosferica>50) 
....................                      Atmosferica--; 
....................                   RX_Buffer[4]=0x00; 
....................                   RX_Buffer2[4]=0x00;             
....................                   //BorraBuffer(); 
....................                } 
....................             }  
....................          #endif 
....................       } 
....................        
....................       if(RX_Buffer[4]==0x0c || LEFT){//Tecla Izquierda Oprimida 
0D83E:  MOVF   34,W
0D840:  SUBLW  0C
0D842:  BZ    D84A
0D844:  BSF    F93.3
0D846:  BTFSC  F81.3
0D848:  BRA    D86C
....................          delay_ms(20); 
0D84A:  MOVLW  14
0D84C:  MOVLB  4
0D84E:  MOVWF  x54
0D850:  MOVLB  0
0D852:  CALL   1A84
....................          if(RX_Buffer[4]==0x0c || LEFT){ 
0D856:  MOVF   34,W
0D858:  SUBLW  0C
0D85A:  BZ    D862
0D85C:  BSF    F93.3
0D85E:  BTFSC  F81.3
0D860:  BRA    D86C
....................             Opcion2++; 
0D862:  MOVLB  3
0D864:  INCF   x67,F
....................             RX_Buffer[4]=0x00;   
0D866:  CLRF   34
....................             RX_Buffer2[4]=0x00;             
0D868:  CLRF   3F
0D86A:  MOVLB  0
....................             //BorraBuffer(); 
....................          } 
....................       } 
....................           
....................       if(RX_Buffer[4]==0x0d || RIGHT){//Tecla Derecha Oprimida 
0D86C:  MOVF   34,W
0D86E:  SUBLW  0D
0D870:  BZ    D878
0D872:  BSF    F93.2
0D874:  BTFSC  F81.2
0D876:  BRA    D89A
....................          delay_ms(20); 
0D878:  MOVLW  14
0D87A:  MOVLB  4
0D87C:  MOVWF  x54
0D87E:  MOVLB  0
0D880:  CALL   1A84
....................          if(RX_Buffer[4]==0x0d || RIGHT){ 
0D884:  MOVF   34,W
0D886:  SUBLW  0D
0D888:  BZ    D890
0D88A:  BSF    F93.2
0D88C:  BTFSC  F81.2
0D88E:  BRA    D89A
....................             Opcion2--; 
0D890:  MOVLB  3
0D892:  DECF   x67,F
....................             RX_Buffer[4]=0x00; 
0D894:  CLRF   34
....................             RX_Buffer2[4]=0x00;             
0D896:  CLRF   3F
0D898:  MOVLB  0
....................             //BorraBuffer(); 
....................          } 
....................       } 
....................        
....................       if(RX_Buffer[4]==0x11 || (RIGHT && LEFT)){//Tecla Regresar 
0D89A:  MOVF   34,W
0D89C:  SUBLW  11
0D89E:  BZ    D8AC
0D8A0:  BSF    F93.2
0D8A2:  BTFSC  F81.2
0D8A4:  BRA    DC4E
0D8A6:  BSF    F93.3
0D8A8:  BTFSC  F81.3
0D8AA:  BRA    DC4E
....................          delay_ms(20); 
0D8AC:  MOVLW  14
0D8AE:  MOVLB  4
0D8B0:  MOVWF  x54
0D8B2:  MOVLB  0
0D8B4:  CALL   1A84
....................          if(RX_Buffer[4]==0x11 || (RIGHT && LEFT)){ 
0D8B8:  MOVF   34,W
0D8BA:  SUBLW  11
0D8BC:  BZ    D8CA
0D8BE:  BSF    F93.2
0D8C0:  BTFSC  F81.2
0D8C2:  BRA    DC4E
0D8C4:  BSF    F93.3
0D8C6:  BTFSC  F81.3
0D8C8:  BRA    DC4E
....................             if(!GuardaEEPROM){ 
0D8CA:  BTFSC  xA2.4
0D8CC:  BRA    DC3A
....................                write_eeprom(20,(int8)Ganancia); 
0D8CE:  MOVFF  30B,457
0D8D2:  MOVFF  30A,456
0D8D6:  MOVFF  309,455
0D8DA:  MOVFF  308,454
0D8DE:  CALL   40F6
0D8E2:  MOVFF  01,43F
0D8E6:  CLRF   FAA
0D8E8:  MOVLW  14
0D8EA:  MOVWF  FA9
0D8EC:  MOVFF  43F,FA8
0D8F0:  BCF    FA6.6
0D8F2:  BCF    FA6.7
0D8F4:  BSF    FA6.2
0D8F6:  MOVF   FF2,W
0D8F8:  MOVWF  00
0D8FA:  BCF    FF2.6
0D8FC:  BCF    FF2.7
0D8FE:  MOVLB  F
0D900:  MOVLW  55
0D902:  MOVWF  FA7
0D904:  MOVLW  AA
0D906:  MOVWF  FA7
0D908:  BSF    FA6.1
0D90A:  BTFSC  FA6.1
0D90C:  BRA    D90A
0D90E:  BCF    FA6.2
0D910:  MOVF   00,W
0D912:  IORWF  FF2,F
....................                delay_ms(10); 
0D914:  MOVLW  0A
0D916:  MOVLB  4
0D918:  MOVWF  x54
0D91A:  MOVLB  0
0D91C:  CALL   1A84
....................                write_eeprom(26,(int8)Integral); 
0D920:  CLRF   FAA
0D922:  MOVLW  1A
0D924:  MOVWF  FA9
0D926:  MOVFF  33C,FA8
0D92A:  BCF    FA6.6
0D92C:  BCF    FA6.7
0D92E:  BSF    FA6.2
0D930:  MOVF   FF2,W
0D932:  MOVWF  00
0D934:  BCF    FF2.6
0D936:  BCF    FF2.7
0D938:  MOVLB  F
0D93A:  MOVLW  55
0D93C:  MOVWF  FA7
0D93E:  MOVLW  AA
0D940:  MOVWF  FA7
0D942:  BSF    FA6.1
0D944:  BTFSC  FA6.1
0D946:  BRA    D944
0D948:  BCF    FA6.2
0D94A:  MOVF   00,W
0D94C:  IORWF  FF2,F
....................                delay_ms(10); 
0D94E:  MOVLW  0A
0D950:  MOVLB  4
0D952:  MOVWF  x54
0D954:  MOVLB  0
0D956:  CALL   1A84
....................                write_eeprom(27,(int8)Derivativo); 
0D95A:  CLRF   FAA
0D95C:  MOVLW  1B
0D95E:  MOVWF  FA9
0D960:  MOVFF  33D,FA8
0D964:  BCF    FA6.6
0D966:  BCF    FA6.7
0D968:  BSF    FA6.2
0D96A:  MOVF   FF2,W
0D96C:  MOVWF  00
0D96E:  BCF    FF2.6
0D970:  BCF    FF2.7
0D972:  MOVLB  F
0D974:  MOVLW  55
0D976:  MOVWF  FA7
0D978:  MOVLW  AA
0D97A:  MOVWF  FA7
0D97C:  BSF    FA6.1
0D97E:  BTFSC  FA6.1
0D980:  BRA    D97E
0D982:  BCF    FA6.2
0D984:  MOVF   00,W
0D986:  IORWF  FF2,F
....................                delay_ms(10); 
0D988:  MOVLW  0A
0D98A:  MOVLB  4
0D98C:  MOVWF  x54
0D98E:  MOVLB  0
0D990:  CALL   1A84
....................                write_eeprom(25,(int8)Tciclo); 
0D994:  MOVFF  2F3,457
0D998:  MOVFF  2F2,456
0D99C:  MOVFF  2F1,455
0D9A0:  MOVFF  2F0,454
0D9A4:  CALL   40F6
0D9A8:  MOVFF  01,43F
0D9AC:  CLRF   FAA
0D9AE:  MOVLW  19
0D9B0:  MOVWF  FA9
0D9B2:  MOVFF  43F,FA8
0D9B6:  BCF    FA6.6
0D9B8:  BCF    FA6.7
0D9BA:  BSF    FA6.2
0D9BC:  MOVF   FF2,W
0D9BE:  MOVWF  00
0D9C0:  BCF    FF2.6
0D9C2:  BCF    FF2.7
0D9C4:  MOVLB  F
0D9C6:  MOVLW  55
0D9C8:  MOVWF  FA7
0D9CA:  MOVLW  AA
0D9CC:  MOVWF  FA7
0D9CE:  BSF    FA6.1
0D9D0:  BTFSC  FA6.1
0D9D2:  BRA    D9D0
0D9D4:  BCF    FA6.2
0D9D6:  MOVF   00,W
0D9D8:  IORWF  FF2,F
....................                delay_ms(10); 
0D9DA:  MOVLW  0A
0D9DC:  MOVLB  4
0D9DE:  MOVWF  x54
0D9E0:  MOVLB  0
0D9E2:  CALL   1A84
....................                write_eeprom(21,Ajuste); 
0D9E6:  CLRF   FAA
0D9E8:  MOVLW  15
0D9EA:  MOVWF  FA9
0D9EC:  MOVFF  2D9,FA8
0D9F0:  BCF    FA6.6
0D9F2:  BCF    FA6.7
0D9F4:  BSF    FA6.2
0D9F6:  MOVF   FF2,W
0D9F8:  MOVWF  00
0D9FA:  BCF    FF2.6
0D9FC:  BCF    FF2.7
0D9FE:  MOVLB  F
0DA00:  MOVLW  55
0DA02:  MOVWF  FA7
0DA04:  MOVLW  AA
0DA06:  MOVWF  FA7
0DA08:  BSF    FA6.1
0DA0A:  BTFSC  FA6.1
0DA0C:  BRA    DA0A
0DA0E:  BCF    FA6.2
0DA10:  MOVF   00,W
0DA12:  IORWF  FF2,F
....................                delay_ms(10); 
0DA14:  MOVLW  0A
0DA16:  MOVLB  4
0DA18:  MOVWF  x54
0DA1A:  MOVLB  0
0DA1C:  CALL   1A84
....................                write_eeprom(22,Ajusten); 
0DA20:  CLRF   FAA
0DA22:  MOVLW  16
0DA24:  MOVWF  FA9
0DA26:  MOVFF  2DA,FA8
0DA2A:  BCF    FA6.6
0DA2C:  BCF    FA6.7
0DA2E:  BSF    FA6.2
0DA30:  MOVF   FF2,W
0DA32:  MOVWF  00
0DA34:  BCF    FF2.6
0DA36:  BCF    FF2.7
0DA38:  MOVLB  F
0DA3A:  MOVLW  55
0DA3C:  MOVWF  FA7
0DA3E:  MOVLW  AA
0DA40:  MOVWF  FA7
0DA42:  BSF    FA6.1
0DA44:  BTFSC  FA6.1
0DA46:  BRA    DA44
0DA48:  BCF    FA6.2
0DA4A:  MOVF   00,W
0DA4C:  IORWF  FF2,F
....................                delay_ms(10); 
0DA4E:  MOVLW  0A
0DA50:  MOVLB  4
0DA52:  MOVWF  x54
0DA54:  MOVLB  0
0DA56:  CALL   1A84
....................                write_eeprom(24,(int8)MediaMovil); 
0DA5A:  CLRF   FAA
0DA5C:  MOVLW  18
0DA5E:  MOVWF  FA9
0DA60:  MOVFF  2DB,FA8
0DA64:  BCF    FA6.6
0DA66:  BCF    FA6.7
0DA68:  BSF    FA6.2
0DA6A:  MOVF   FF2,W
0DA6C:  MOVWF  00
0DA6E:  BCF    FF2.6
0DA70:  BCF    FF2.7
0DA72:  MOVLB  F
0DA74:  MOVLW  55
0DA76:  MOVWF  FA7
0DA78:  MOVLW  AA
0DA7A:  MOVWF  FA7
0DA7C:  BSF    FA6.1
0DA7E:  BTFSC  FA6.1
0DA80:  BRA    DA7E
0DA82:  BCF    FA6.2
0DA84:  MOVF   00,W
0DA86:  IORWF  FF2,F
....................                delay_ms(10); 
0DA88:  MOVLW  0A
0DA8A:  MOVLB  4
0DA8C:  MOVWF  x54
0DA8E:  MOVLB  0
0DA90:  CALL   1A84
....................                write_eeprom(32,(int8)RPT100); 
0DA94:  MOVFF  2AA,457
0DA98:  MOVFF  2A9,456
0DA9C:  MOVFF  2A8,455
0DAA0:  MOVFF  2A7,454
0DAA4:  CALL   40F6
0DAA8:  MOVFF  01,43F
0DAAC:  CLRF   FAA
0DAAE:  MOVLW  20
0DAB0:  MOVWF  FA9
0DAB2:  MOVFF  43F,FA8
0DAB6:  BCF    FA6.6
0DAB8:  BCF    FA6.7
0DABA:  BSF    FA6.2
0DABC:  MOVF   FF2,W
0DABE:  MOVWF  00
0DAC0:  BCF    FF2.6
0DAC2:  BCF    FF2.7
0DAC4:  MOVLB  F
0DAC6:  MOVLW  55
0DAC8:  MOVWF  FA7
0DACA:  MOVLW  AA
0DACC:  MOVWF  FA7
0DACE:  BSF    FA6.1
0DAD0:  BTFSC  FA6.1
0DAD2:  BRA    DAD0
0DAD4:  BCF    FA6.2
0DAD6:  MOVF   00,W
0DAD8:  IORWF  FF2,F
....................                delay_ms(10); 
0DADA:  MOVLW  0A
0DADC:  MOVLB  4
0DADE:  MOVWF  x54
0DAE0:  MOVLB  0
0DAE2:  CALL   1A84
....................                Temporal=RPT100-((int8)RPT100); 
0DAE6:  MOVFF  2AA,457
0DAEA:  MOVFF  2A9,456
0DAEE:  MOVFF  2A8,455
0DAF2:  MOVFF  2A7,454
0DAF6:  CALL   40F6
0DAFA:  MOVLB  4
0DAFC:  CLRF   x55
0DAFE:  MOVFF  01,454
0DB02:  MOVLB  0
0DB04:  CALL   1AAC
0DB08:  BSF    FD8.1
0DB0A:  MOVFF  2AA,457
0DB0E:  MOVFF  2A9,456
0DB12:  MOVFF  2A8,455
0DB16:  MOVFF  2A7,454
0DB1A:  MOVFF  03,45B
0DB1E:  MOVFF  02,45A
0DB22:  MOVFF  01,459
0DB26:  MOVFF  00,458
0DB2A:  CALL   1C40
0DB2E:  MOVFF  03,2AE
0DB32:  MOVFF  02,2AD
0DB36:  MOVFF  01,2AC
0DB3A:  MOVFF  00,2AB
....................                Temporal=Temporal*10; 
0DB3E:  MOVFF  2AE,45B
0DB42:  MOVFF  2AD,45A
0DB46:  MOVFF  2AC,459
0DB4A:  MOVFF  2AB,458
0DB4E:  MOVLB  4
0DB50:  CLRF   x5F
0DB52:  CLRF   x5E
0DB54:  MOVLW  20
0DB56:  MOVWF  x5D
0DB58:  MOVLW  82
0DB5A:  MOVWF  x5C
0DB5C:  MOVLB  0
0DB5E:  CALL   39BE
0DB62:  MOVFF  03,2AE
0DB66:  MOVFF  02,2AD
0DB6A:  MOVFF  01,2AC
0DB6E:  MOVFF  00,2AB
....................                write_eeprom(33,(int8)Temporal); 
0DB72:  MOVFF  2AE,457
0DB76:  MOVFF  2AD,456
0DB7A:  MOVFF  2AC,455
0DB7E:  MOVFF  2AB,454
0DB82:  CALL   40F6
0DB86:  MOVFF  01,43F
0DB8A:  CLRF   FAA
0DB8C:  MOVLW  21
0DB8E:  MOVWF  FA9
0DB90:  MOVFF  43F,FA8
0DB94:  BCF    FA6.6
0DB96:  BCF    FA6.7
0DB98:  BSF    FA6.2
0DB9A:  MOVF   FF2,W
0DB9C:  MOVWF  00
0DB9E:  BCF    FF2.6
0DBA0:  BCF    FF2.7
0DBA2:  MOVLB  F
0DBA4:  MOVLW  55
0DBA6:  MOVWF  FA7
0DBA8:  MOVLW  AA
0DBAA:  MOVWF  FA7
0DBAC:  BSF    FA6.1
0DBAE:  BTFSC  FA6.1
0DBB0:  BRA    DBAE
0DBB2:  BCF    FA6.2
0DBB4:  MOVF   00,W
0DBB6:  IORWF  FF2,F
....................                delay_ms(10); 
0DBB8:  MOVLW  0A
0DBBA:  MOVLB  4
0DBBC:  MOVWF  x54
0DBBE:  MOVLB  0
0DBC0:  CALL   1A84
....................                write_eeprom(39,TTrampa); 
0DBC4:  CLRF   FAA
0DBC6:  MOVLW  27
0DBC8:  MOVWF  FA9
0DBCA:  MOVFF  2DC,FA8
0DBCE:  BCF    FA6.6
0DBD0:  BCF    FA6.7
0DBD2:  BSF    FA6.2
0DBD4:  MOVF   FF2,W
0DBD6:  MOVWF  00
0DBD8:  BCF    FF2.6
0DBDA:  BCF    FF2.7
0DBDC:  MOVLB  F
0DBDE:  MOVLW  55
0DBE0:  MOVWF  FA7
0DBE2:  MOVLW  AA
0DBE4:  MOVWF  FA7
0DBE6:  BSF    FA6.1
0DBE8:  BTFSC  FA6.1
0DBEA:  BRA    DBE8
0DBEC:  BCF    FA6.2
0DBEE:  MOVF   00,W
0DBF0:  IORWF  FF2,F
....................                delay_ms(10); 
0DBF2:  MOVLW  0A
0DBF4:  MOVLB  4
0DBF6:  MOVWF  x54
0DBF8:  MOVLB  0
0DBFA:  CALL   1A84
....................                write_eeprom(46,Atmosferica); 
0DBFE:  CLRF   FAA
0DC00:  MOVLW  2E
0DC02:  MOVWF  FA9
0DC04:  MOVFF  3AE,FA8
0DC08:  BCF    FA6.6
0DC0A:  BCF    FA6.7
0DC0C:  BSF    FA6.2
0DC0E:  MOVF   FF2,W
0DC10:  MOVWF  00
0DC12:  BCF    FF2.6
0DC14:  BCF    FF2.7
0DC16:  MOVLB  F
0DC18:  MOVLW  55
0DC1A:  MOVWF  FA7
0DC1C:  MOVLW  AA
0DC1E:  MOVWF  FA7
0DC20:  BSF    FA6.1
0DC22:  BTFSC  FA6.1
0DC24:  BRA    DC22
0DC26:  BCF    FA6.2
0DC28:  MOVF   00,W
0DC2A:  IORWF  FF2,F
....................                delay_ms(10); 
0DC2C:  MOVLW  0A
0DC2E:  MOVLB  4
0DC30:  MOVWF  x54
0DC32:  MOVLB  0
0DC34:  CALL   1A84
....................                GuardaEEPROM=ON; 
0DC38:  BSF    xA2.4
....................             } 
....................             printf("page MenuPrincipal"); 
0DC3A:  MOVLW  3A
0DC3C:  MOVWF  FF6
0DC3E:  MOVLW  1A
0DC40:  MOVWF  FF7
0DC42:  MOVLW  00
0DC44:  MOVWF  FF8
0DC46:  CALL   38BE
....................             SendDataDisplay(); 
0DC4A:  CALL   38F0
....................             //BorraBuffer(); 
....................          } 
....................       } 
....................       printf("fecha.txt=\"Fecha:%02u/%02u/20%02u    Hora: %02u:%02u\"",Dia,Mes,Year,Hora,Minuto); 
0DC4E:  MOVLW  4E
0DC50:  MOVWF  FF6
0DC52:  MOVLW  1A
0DC54:  MOVWF  FF7
0DC56:  MOVLW  00
0DC58:  MOVWF  FF8
0DC5A:  MOVLW  11
0DC5C:  MOVLB  4
0DC5E:  MOVWF  x44
0DC60:  MOVLB  0
0DC62:  CALL   484A
0DC66:  MOVFF  3A0,444
0DC6A:  MOVLW  01
0DC6C:  MOVLB  4
0DC6E:  MOVWF  x45
0DC70:  MOVLB  0
0DC72:  CALL   48A8
0DC76:  MOVLW  2F
0DC78:  BTFSS  F9E.4
0DC7A:  BRA    DC78
0DC7C:  MOVWF  FAD
0DC7E:  MOVFF  39F,444
0DC82:  MOVLW  01
0DC84:  MOVLB  4
0DC86:  MOVWF  x45
0DC88:  MOVLB  0
0DC8A:  CALL   48A8
0DC8E:  MOVLW  2F
0DC90:  BTFSS  F9E.4
0DC92:  BRA    DC90
0DC94:  MOVWF  FAD
0DC96:  MOVLW  32
0DC98:  BTFSS  F9E.4
0DC9A:  BRA    DC98
0DC9C:  MOVWF  FAD
0DC9E:  MOVLW  30
0DCA0:  BTFSS  F9E.4
0DCA2:  BRA    DCA0
0DCA4:  MOVWF  FAD
0DCA6:  MOVFF  39E,444
0DCAA:  MOVLW  01
0DCAC:  MOVLB  4
0DCAE:  MOVWF  x45
0DCB0:  MOVLB  0
0DCB2:  CALL   48A8
0DCB6:  MOVLW  6F
0DCB8:  MOVWF  FF6
0DCBA:  MOVLW  1A
0DCBC:  MOVWF  FF7
0DCBE:  MOVLW  00
0DCC0:  MOVWF  FF8
0DCC2:  MOVLW  0A
0DCC4:  MOVLB  4
0DCC6:  MOVWF  x44
0DCC8:  MOVLB  0
0DCCA:  CALL   484A
0DCCE:  MOVFF  3A1,444
0DCD2:  MOVLW  01
0DCD4:  MOVLB  4
0DCD6:  MOVWF  x45
0DCD8:  MOVLB  0
0DCDA:  CALL   48A8
0DCDE:  MOVLW  3A
0DCE0:  BTFSS  F9E.4
0DCE2:  BRA    DCE0
0DCE4:  MOVWF  FAD
0DCE6:  MOVFF  3A2,444
0DCEA:  MOVLW  01
0DCEC:  MOVLB  4
0DCEE:  MOVWF  x45
0DCF0:  MOVLB  0
0DCF2:  CALL   48A8
0DCF6:  MOVLW  22
0DCF8:  BTFSS  F9E.4
0DCFA:  BRA    DCF8
0DCFC:  MOVWF  FAD
....................       SendDataDisplay();  
0DCFE:  CALL   38F0
0DD02:  MOVLB  3
....................     } 
.................... //_--------------------------------------------------------------------------------------------------------------------------------------------------------        
....................  
....................    } 
0DD04:  GOTO   781E
.................... } 
0DD08:  SLEEP 

Configuration Fuses:
   Word  1: 0200   HS NOIESO NOFCMEN
   Word  2: 1B1F   BROWNOUT WDT BORV20 NOPUT WDT8192
   Word  3: 0000   NOPBADEN NOLPT1OSC NOMCLR
   Word  4: 00B0   NOSTVREN NODEBUG NOLVP NOXINST BBSIZ4K
   Word  5: C03F   NOPROTECT NOCPD NOCPB
   Word  6: E03F   NOWRT NOWRTD NOWRTC NOWRTB
   Word  7: 403F   NOEBTR NOEBTRB
