CCS PCH C Compiler, Version 4.104, 5967               24-mar.-21 07:20

               Filename: D:\Laboratorio\Autoclave\Autoclave Horizontal\Con Precamara\2019\Autoclave 250L Doble Puerta UCC#0045879XX\FirmwareV3.0.0\NextionController\GLCD_Controller.lst

               ROM used: 63434 bytes (65%)
                         Largest free fragment is 32768
               RAM used: 1726 (52%) at main() level
                         1753 (53%) worst case
               Stack:    5 worst case (4 in main + 1 for interrupts)

*
00000:  GOTO   7BB0
*
00008:  GOTO   00AE
0000C:  NOP   
0000E:  NOP   
00010:  NOP   
00012:  NOP   
00014:  NOP   
00016:  NOP   
00018:  MOVWF  04
0001A:  MOVFF  FD8,05
0001E:  MOVFF  FE0,06
00022:  MOVLB  0
00024:  MOVFF  FE9,0C
00028:  MOVFF  FEA,07
0002C:  MOVFF  FE1,08
00030:  MOVFF  FE2,09
00034:  MOVFF  FD9,0A
00038:  MOVFF  FDA,0B
0003C:  MOVFF  FF3,12
00040:  MOVFF  FF4,13
00044:  MOVFF  FFA,14
00048:  MOVFF  FFB,15
0004C:  MOVFF  00,0E
00050:  MOVFF  01,0F
00054:  MOVFF  02,10
00058:  MOVFF  03,11
0005C:  BTFSS  F9D.0
0005E:  GOTO   0068
00062:  BTFSC  F9E.0
00064:  GOTO   05CC
00068:  MOVFF  0E,00
0006C:  MOVFF  0F,01
00070:  MOVFF  10,02
00074:  MOVFF  11,03
00078:  MOVFF  0C,FE9
0007C:  MOVFF  07,FEA
00080:  BSF    07.7
00082:  MOVFF  08,FE1
00086:  MOVFF  09,FE2
0008A:  MOVFF  0A,FD9
0008E:  MOVFF  0B,FDA
00092:  MOVFF  12,FF3
00096:  MOVFF  13,FF4
0009A:  MOVFF  14,FFA
0009E:  MOVFF  15,FFB
000A2:  MOVF   04,W
000A4:  MOVFF  06,FE0
000A8:  MOVFF  05,FD8
000AC:  RETFIE 0
000AE:  MOVWF  17
000B0:  MOVFF  FD8,18
000B4:  MOVFF  FE0,19
000B8:  MOVLB  0
000BA:  MOVFF  FE9,1F
000BE:  MOVFF  FEA,1A
000C2:  MOVFF  FE1,1B
000C6:  MOVFF  FE2,1C
000CA:  MOVFF  FD9,1D
000CE:  MOVFF  FDA,1E
000D2:  MOVFF  FF3,25
000D6:  MOVFF  FF4,26
000DA:  MOVFF  FFA,27
000DE:  MOVFF  FFB,28
000E2:  MOVFF  00,21
000E6:  MOVFF  01,22
000EA:  MOVFF  02,23
000EE:  MOVFF  03,24
000F2:  BTFSS  F9D.5
000F4:  GOTO   00FE
000F8:  BTFSC  F9E.5
000FA:  GOTO   0568
000FE:  MOVFF  21,00
00102:  MOVFF  22,01
00106:  MOVFF  23,02
0010A:  MOVFF  24,03
0010E:  MOVFF  1F,FE9
00112:  MOVFF  1A,FEA
00116:  BSF    1A.7
00118:  MOVFF  1B,FE1
0011C:  MOVFF  1C,FE2
00120:  MOVFF  1D,FD9
00124:  MOVFF  1E,FDA
00128:  MOVFF  25,FF3
0012C:  MOVFF  26,FF4
00130:  MOVFF  27,FFA
00134:  MOVFF  28,FFB
00138:  MOVF   17,W
0013A:  MOVFF  19,FE0
0013E:  MOVFF  18,FD8
00142:  RETFIE 0
.................... //Falta crear menu de ajuste de variables y de norma CFR21 
.................... //Falta revisar niveles de agua con variable calderin lleno de bomba de agua 
....................  
.................... #include <18F4685.h> 
.................... //////// Standard Header file for the PIC18F4685 device //////////////// 
.................... #device PIC18F4685 
.................... #list 
....................  
.................... #device adc=10 
.................... #device HIGH_INTS=TRUE //Activamos niveles de prioridad 
.................... #fuses HS,WDT8192,NOPROTECT,NOLVP,NODEBUG,NOSTVREN,NOPUT,NOCPD,NOWRT,NOIESO,NOFCMEN,NOPBADEN,NOWRTC,NOWRTB,NOEBTR,NOEBTRB,NOCPB,NOXINST,NOLPT1OSC,NOMCLR 
.................... #use delay(clock=20000000) 
*
020B8:  MOVLW  06
020BA:  MOVWF  FEA
020BC:  MOVLW  C7
020BE:  MOVWF  FE9
020C0:  MOVF   FEF,W
020C2:  BZ    20DE
020C4:  MOVLW  06
020C6:  MOVWF  01
020C8:  CLRF   00
020CA:  DECFSZ 00,F
020CC:  BRA    20CA
020CE:  DECFSZ 01,F
020D0:  BRA    20C8
020D2:  MOVLW  7B
020D4:  MOVWF  00
020D6:  DECFSZ 00,F
020D8:  BRA    20D6
020DA:  DECFSZ FEF,F
020DC:  BRA    20C4
020DE:  RETLW  00
.................... #use i2c(Master,slow,sda=PIN_C4,scl=PIN_C3) 
.................... #use rs232(baud=9600, xmit=PIN_C6, rcv=PIN_C7, bits=8, parity=N) 
*
04162:  BTFSS  F9E.4
04164:  BRA    4162
04166:  MOVWF  FAD
04168:  RETLW  00
.................... #include <stdio.h> 
.................... /////////////////////////////////////////////////////////////////////////// 
.................... ////        (C) Copyright 1996,2003 Custom Computer Services           //// 
.................... //// This source code may only be used by licensed users of the CCS C  //// 
.................... //// compiler.  This source code may only be distributed to other      //// 
.................... //// licensed users of the CCS C compiler.  No other use, reproduction //// 
.................... //// or distribution is permitted without written permission.          //// 
.................... //// Derivative programs created using this software in object code    //// 
.................... //// form are not restricted in any way.                               //// 
.................... /////////////////////////////////////////////////////////////////////////// 
....................  
.................... #ifndef _STDIO 
.................... #define _STDIO 
.................... #include <string.h> 
.................... //////////////////////////////////////////////////////////////////////////// 
.................... ////        (C) Copyright 1996,2008 Custom Computer Services            //// 
.................... //// This source code may only be used by licensed users of the CCS C   //// 
.................... //// compiler.  This source code may only be distributed to other       //// 
.................... //// licensed users of the CCS C compiler.  No other use, reproduction  //// 
.................... //// or distribution is permitted without written permission.           //// 
.................... //// Derivative programs created using this software in object code     //// 
.................... //// form are not restricted in any way.                                //// 
.................... //////////////////////////////////////////////////////////////////////////// 
....................  
.................... #ifndef _STRING 
.................... #define _STRING 
.................... #include <stddef.h> 
.................... /////////////////////////////////////////////////////////////////////////// 
.................... ////        (C) Copyright 1996,2003 Custom Computer Services           //// 
.................... //// This source code may only be used by licensed users of the CCS C  //// 
.................... //// compiler.  This source code may only be distributed to other      //// 
.................... //// licensed users of the CCS C compiler.  No other use, reproduction //// 
.................... //// or distribution is permitted without written permission.          //// 
.................... //// Derivative programs created using this software in object code    //// 
.................... //// form are not restricted in any way.                               //// 
.................... /////////////////////////////////////////////////////////////////////////// 
....................  
.................... #ifndef _STDDEF 
....................  
.................... #define _STDDEF 
....................  
.................... #if sizeof(unsigned int8 *)==1 
.................... #define ptrdiff_t unsigned int8 
.................... #else 
.................... #define ptrdiff_t unsigned int16 
.................... #endif 
....................  
.................... #define size_t unsigned int8 
.................... #define wchar_t char 
.................... #define NULL 0 
....................  
.................... #define offsetof(s,f) (offsetofbit(s,f)/8) 
....................  
.................... #endif 
....................  
.................... #include <ctype.h> 
.................... //////////////////////////////////////////////////////////////////////////// 
.................... ////        (C) Copyright 1996,2003 Custom Computer Services            //// 
.................... //// This source code may only be used by licensed users of the CCS C   //// 
.................... //// compiler.  This source code may only be distributed to other       //// 
.................... //// licensed users of the CCS C compiler.  No other use, reproduction  //// 
.................... //// or distribution is permitted without written permission.           //// 
.................... //// Derivative programs created using this software in object code     //// 
.................... //// form are not restricted in any way.                                //// 
.................... //////////////////////////////////////////////////////////////////////////// 
....................  
.................... #ifndef _CTYPE 
.................... #define _CTYPE 
....................  
.................... #define islower(x)  isamong(x,"abcdefghijklmnopqrstuvwxyz") 
.................... #define isupper(x)  isamong(x,"ABCDEFGHIJKLMNOPQRSTUVWXYZ") 
.................... #define isalnum(x)  isamong(x,"0123456789ABCDEFGHIJKLMNOPQRSTUVWXYZabcdefghijklmnopqrstuvwxyz") 
.................... #define isalpha(x)  isamong(x,"ABCDEFGHIJKLMNOPQRSTUVWXYZabcdefghijklmnopqrstuvwxyz") 
.................... #define isdigit(x)  isamong(x,"0123456789") 
.................... #define isspace(x)  ((x)==' ') 
.................... #define isxdigit(x) isamong(x,"0123456789ABCDEFabcdef") 
.................... #define iscntrl(x)  ((x)<' ') 
.................... #define isprint(x)  ((x)>=' ') 
.................... #define isgraph(x)  ((x)>' ') 
.................... #define ispunct(x)  (((x)>' ')&&!isalnum(x)) 
....................  
.................... #endif 
....................  
....................  
....................  
....................  
....................  
.................... ////////////////////////////////////////////// 
.................... //// Uncomment the following define to    //// 
.................... //// allow some functions to use a        //// 
.................... //// quicker algorithm, but use more ROM  //// 
.................... ////                                      //// 
.................... //// #define FASTER_BUT_MORE_ROM          //// 
.................... ////////////////////////////////////////////// 
....................  
....................  
....................  
.................... /*Copying functions*/ 
.................... /* standard template: 
....................    void *memmove(void *s1, void *s2, size_t n). 
....................    Copies max of n characters safely (not following ending '\0') 
....................    from s2 in s1; if s2 has less than n characters, appends 0 */ 
....................  
.................... char *memmove(void *s1,char *s2,size_t n) 
.................... { 
....................    char *sc1; 
....................    char *sc2; 
....................    sc1=s1; 
....................    sc2=s2; 
....................    if(sc2<sc1 && sc1 <sc2 +n) 
....................       for(sc1+=n,sc2+=n;0<n;--n) 
....................          *--sc1=*--sc2; 
....................    else 
....................       for(;0<n;--n) 
....................          *sc1++=*sc2++; 
....................   return s1; 
....................   } 
....................  
.................... /* Standard template: char *strcpy(char *s1, const char *s2) 
....................    copies the string s2 including the null character to s1. 
....................    This is a compiler built in to handle the different address 
....................    spaces */ 
....................  
.................... #define strcopy strcpy 
....................  
.................... /* standard template: 
....................    char *strncpy(char *s1, const char *s2, size_t n). 
....................    Copies max of n characters (not following ending '\0') 
....................    from s2 in s1; if s2 has less than n characters, appends 0 */ 
....................  
.................... char *strncpy(char *s1, char *s2, size_t n) 
.................... { 
....................   char *s; 
....................  
....................   for (s = s1; n > 0 && *s2 != '\0'; n--) 
....................      *s++ = *s2++; 
....................   for (; n > 0; n--) 
....................      *s++ = '\0'; 
....................  
....................   return(s1); 
.................... } 
.................... /***********************************************************/ 
....................  
.................... /*concatenation functions*/ 
.................... /* standard template: char *strcat(char *s1, const char *s2) 
.................... appends s2 to s1*/ 
....................  
.................... char *strcat(char *s1, char *s2) 
.................... { 
....................    char *s; 
....................  
....................    for (s = s1; *s != '\0'; ++s); 
....................    while(*s2 != '\0') 
....................    { 
....................       *s = *s2; 
....................       ++s; 
....................       ++s2; 
....................    } 
....................  
....................    *s = '\0'; 
....................    return(s1); 
.................... } 
.................... /* standard template: char *strncat(char *s1, char *s2,size_t n) 
.................... appends not more than n characters from s2 to s1*/ 
....................  
.................... char *strncat(char *s1, char *s2, size_t n) 
.................... { 
....................    char *s; 
....................  
....................    for (s = s1; *s != '\0'; ++s); 
....................    while(*s2 != '\0' && 0<n) 
....................    { 
....................       *s = *s2; 
....................       ++s; 
....................       ++s2; 
....................       --n; 
....................    } 
....................  
....................    *s = '\0'; 
....................    return(s1); 
.................... } 
....................  
.................... /***********************************************************/ 
....................  
....................  
.................... /*comparison functions*/ 
.................... /* standard template: signed int memcmp(void *s1, void *s2). 
....................    Compares s1 & s2; returns -1 if s1<s2, 0 if s1=s2, 1 if s1>s2 */ 
....................  
.................... signed int8 memcmp(void * s1,char *s2,size_t n) 
.................... { 
.................... char *su1, *su2; 
.................... for(su1=s1, su2=s2; 0<n; ++su1, ++su2, --n) 
.................... { 
....................    if(*su1!=*su2) 
....................       return ((*su1<*su2)?-1:+1); 
.................... } 
.................... return 0; 
.................... } 
....................  
.................... /* standard template: int strcmp(const char *s1, const char *s2). 
....................    Compares s1 & s2; returns -1 if s1<s2, 0 if s1=s2, 1 if s1>s2 */ 
....................  
.................... signed int8 strcmp(char *s1, char *s2) 
.................... { 
....................    for (; *s1 == *s2; s1++, s2++) 
....................       if (*s1 == '\0') 
....................          return(0); 
....................    return((*s1 < *s2) ? -1: 1); 
.................... } 
.................... /* standard template: int strcoll(const char *s1, const char *s2). 
....................    Compares s1 & s2; returns -1 if s1<s2, 0 if s1=s2, 1 if s1>s2 */ 
....................  
.................... signed int8 strcoll(char *s1, char *s2) 
.................... { 
....................    for (; *s1 == *s2; s1++, s2++) 
....................       if (*s1 == '\0') 
....................          return(0); 
....................    return((*s1 < *s2) ? -1: 1); 
.................... } 
....................  
.................... /* standard template: 
....................    int strncmp(const char *s1, const char *s2, size_t n). 
....................    Compares max of n characters (not following 0) from s1 to s2; 
....................    returns same as strcmp */ 
....................  
.................... signed int8 strncmp(char *s1, char *s2, size_t n) 
.................... { 
....................    for (; n > 0; s1++, s2++, n--) 
....................       if (*s1 != *s2) 
....................          return((*s1 <*s2) ? -1: 1); 
....................       else if (*s1 == '\0') 
....................          return(0); 
....................    return(0); 
.................... } 
.................... /* standard template: 
....................    int strxfrm(const char *s1, const char *s2, size_t n). 
....................    transforms maximum of n characters from s2 and places them into s1*/ 
.................... size_t strxfrm(char *s1, char *s2, size_t n) 
.................... { 
....................   char *s; 
....................   unsigned int8 n1; 
....................   n1=n; 
....................   for (s = s1; n > 0 && *s2 != '\0'; n--) 
....................      *s++ = *s2++; 
....................   for (; n > 0; n--) 
....................      *s++ = '\0'; 
....................  
....................   return(n1); 
.................... } 
....................  
....................  
....................  
....................  
....................  
.................... /***********************************************************/ 
.................... /*Search functions*/ 
.................... /* standard template: void *memchr(const char *s, int c). 
....................    Finds first occurrence of c in n characters of s */ 
....................  
.................... char *memchr(void *s,unsigned int8 c,size_t n) 
.................... { 
....................    char uc; 
....................    char *su; 
....................    uc=c; 
....................    for(su=s;0<n;++su,--n) 
....................       if(*su==uc) 
....................       return su; 
....................    return NULL; 
.................... } 
....................  
.................... /* standard template: char *strchr(const char *s, int c). 
....................    Finds first occurrence of c in s */ 
....................  
.................... char *strchr(char *s, unsigned int8 c) 
.................... { 
....................    for (; *s != c; s++) 
....................       if (*s == '\0') 
....................          return(0); 
....................    return(s); 
.................... } 
.................... /* standard template: 
....................    size_t strcspn(const char *s1, const char *s2). 
....................    Computes length of max initial segment of s1 that 
....................    consists entirely of characters NOT from s2*/ 
....................  
.................... unsigned int8  strcspn(char *s1, char *s2) 
.................... { 
....................    char *sc1, *sc2; 
....................  
....................    for (sc1 = s1; *sc1 != 0; sc1++) 
....................       for (sc2 = s2; *sc2 != 0; sc2++) 
....................          if (*sc1 == *sc2) 
....................             return(sc1 - s1); 
....................    return(sc1 - s1); 
.................... } 
.................... /* standard template: 
....................    char *strpbrk(const char *s1, const char *s2). 
....................    Locates first occurence of any character from s2 in s1; 
....................    returns s1 if s2 is empty string */ 
....................  
.................... char *strpbrk(char *s1, char *s2) 
.................... { 
....................    char *sc1, *sc2; 
....................  
....................    for (sc1 = s1; *sc1 != 0; sc1++) 
....................       for (sc2 = s2; *sc2 != 0; sc2++) 
....................          if (*sc1 == *sc2) 
....................             return(sc1); 
....................    return(0); 
.................... } 
....................  
....................  
.................... /* standard template: char *strrchr(const char *s, int c). 
....................    Finds last occurrence of c in s */ 
....................  
.................... char *strrchr(char *s, unsigned int8 c) 
.................... { 
....................    char *p; 
....................  
....................    for (p = 0; ; s++) 
....................    { 
....................       if (*s == c) 
....................          p = s; 
....................       if (*s == '\0') 
....................          return(p); 
....................    } 
.................... } 
.................... /* computes length of max initial segment of s1 consisting 
....................    entirely of characters from s2 */ 
....................  
.................... unsigned int8  strspn(char *s1, char *s2) 
.................... { 
....................    char *sc1, *sc2; 
....................  
....................    for (sc1 = s1; *sc1 != 0; sc1++) 
....................       for (sc2 = s2; ; sc2++) 
....................     if (*sc2 == '\0') 
....................        return(sc1 - s1); 
....................          else if (*sc1 == *sc2) 
....................             break; 
....................    return(sc1 - s1); 
.................... } 
.................... /* standard template: 
....................    char *strstr(const char *s1, const char *s2); 
....................    Locates first occurence of character sequence s2 in s1; 
....................    returns 0 if s2 is empty string 
....................  
....................    Uncomment #define FASTER_BUT_MORE_ROM at the top of the 
....................    file to use the faster algorithm */ 
.................... char *strstr(char *s1, char *s2) 
.................... { 
....................    char *s, *t; 
....................  
....................    #ifdef FASTER_BUT_MORE_ROM 
....................    if (*s2 == '\0') 
....................          return(s1); 
....................    #endif 
....................  
....................    while (*s1) 
....................    { 
....................       for(s = s1, t = s2; *t && (*s == *t); ++s, ++t); 
....................  
....................       if (*t == '\0') 
....................          return s1; 
....................       ++s1; 
....................       #ifdef FASTER_BUT_MORE_ROM 
....................          while(*s1 != '\0' && *s1 != *s2) 
....................             ++s1; 
....................       #endif 
....................    } 
....................    return 0; 
.................... } 
....................  
.................... /* standard template: char *strtok(char *s1, const char *s2). 
....................  
....................    Finds next token in s1 delimited by a character from separator 
....................    string s2 (which can be different from call to call).  First call 
....................    starts at beginning of s1 searching for first character NOT 
....................    contained in s2; returns 0 if none is found. 
....................    If one is found, it is the start of first token (return value). 
....................    Function then searches from there for a character contained in s2. 
....................    If none is found, current token extends to end of s1, and subsequent 
....................    searches for a token will return 0.  If one is found, it is 
....................    overwritten by '\0', which terminates current token.  Function saves 
....................    pointer to following character from which next search will start. 
....................    Each subsequent call, with 0 as first argument, starts searching 
....................    from saved pointer */ 
....................  
.................... char *strtok(char *s1, char *s2) 
.................... { 
....................    char *beg, *end; 
....................    static char *save; 
....................  
....................    beg = (s1)? s1: save; 
....................    beg += strspn(beg, s2); 
....................    if (*beg == '\0') 
....................    { 
....................       *save = ' '; 
....................       return(0); 
....................    } 
....................    end = strpbrk(beg, s2); 
....................    if (*end != '\0') 
....................    { 
....................       *end = '\0'; 
....................       end++; 
....................    } 
....................    save = end; 
....................    return(beg); 
.................... } 
....................  
.................... /*****************************************************************/ 
.................... /*Miscellaneous functions*/ 
.................... /* standard template 
.................... maps error number in errnum to an error message string 
.................... Returns: Pointer to string 
.................... */ 
.................... #ifdef _ERRNO 
.................... char * strerror(unsigned int8 errnum) 
.................... { 
.................... char s[15]; 
.................... switch( errnum) 
.................... { 
.................... case 0: 
....................    strcpy(s,"no errors"); 
....................    return s; 
.................... case EDOM : 
....................    strcpy(s,"domain error"); 
....................    return s; 
.................... case ERANGE: 
....................    strcpy(s,"range error"); 
....................    return s; 
.................... } 
.................... } 
.................... #ENDIF 
.................... /* standard template: size_t strlen(const char *s). 
....................    Computes length of s1 (preceding terminating 0) */ 
....................  
.................... unsigned int8 strlen(char *s) 
.................... { 
....................    char *sc; 
....................  
....................    for (sc = s; *sc != 0; sc++); 
....................    return(sc - s); 
.................... } 
....................  
.................... /* standard template: size_t stricmp(const char *s1, const char *s2). 
....................    Compares s1 to s2 ignoring case (upper vs. lower) */ 
....................  
.................... signed int8 stricmp(char *s1, char *s2) 
.................... { 
....................  for(; *s1==*s2||(isalpha(*s1)&&isalpha(*s2)&&(*s1==*s2+32||*s2==*s1+32)); 
....................     s1++, s2++) 
....................     if (*s1 == '\0') 
....................        return(0); 
....................  return((*s1 < *s2) ? -1: 1); 
.................... } 
....................  
....................  
.................... /* standard template: char *strlwr(char *s). 
....................    Replaces uppercase letters by lowercase; 
....................    returns pointer to new string s */ 
....................  
.................... char *strlwr(char *s) 
.................... { 
....................    char *p; 
....................  
....................    for (p = s; *p != '\0'; p++) 
....................       if (*p >= 'A' && *p <='Z') 
....................          *p += 'a' - 'A'; 
....................    return(s); 
.................... } 
....................  
....................  
.................... /************************************************************/ 
....................  
....................  
.................... #endif 
....................  
.................... #ifndef getc 
.................... #define getc getch 
.................... #define getchar getch 
.................... #define puts(s) {printf(s); putchar(13); putchar(10);} 
.................... #define putc putchar 
.................... #endif 
.................... /* maps error number to an error message. Writes a sequence of characters to 
.................... stderr stream thus: if s is not null then string pointed to by s follwed by 
.................... a colon (:) and a space and the appropriate error message returned by strerror 
.................... function with argument errno 
....................  
.................... Returns: no value 
.................... */ 
....................  
.................... #ifdef _ERRNO 
.................... void perror(char *s) 
.................... { 
....................   if(s) 
....................   fprintf(STDERR,"%s: ",s); 
....................   fprintf(STDERR,"%s\r\n",strerror(errno)); 
.................... } 
.................... #endif 
.................... #endif 
....................  
.................... #include <string.h> 
.................... //////////////////////////////////////////////////////////////////////////// 
.................... ////        (C) Copyright 1996,2008 Custom Computer Services            //// 
.................... //// This source code may only be used by licensed users of the CCS C   //// 
.................... //// compiler.  This source code may only be distributed to other       //// 
.................... //// licensed users of the CCS C compiler.  No other use, reproduction  //// 
.................... //// or distribution is permitted without written permission.           //// 
.................... //// Derivative programs created using this software in object code     //// 
.................... //// form are not restricted in any way.                                //// 
.................... //////////////////////////////////////////////////////////////////////////// 
....................  
.................... #ifndef _STRING 
.................... #define _STRING 
.................... #include <stddef.h> 
.................... #include <ctype.h> 
....................  
....................  
....................  
.................... ////////////////////////////////////////////// 
.................... //// Uncomment the following define to    //// 
.................... //// allow some functions to use a        //// 
.................... //// quicker algorithm, but use more ROM  //// 
.................... ////                                      //// 
.................... //// #define FASTER_BUT_MORE_ROM          //// 
.................... ////////////////////////////////////////////// 
....................  
....................  
....................  
.................... /*Copying functions*/ 
.................... /* standard template: 
....................    void *memmove(void *s1, void *s2, size_t n). 
....................    Copies max of n characters safely (not following ending '\0') 
....................    from s2 in s1; if s2 has less than n characters, appends 0 */ 
....................  
.................... char *memmove(void *s1,char *s2,size_t n) 
.................... { 
....................    char *sc1; 
....................    char *sc2; 
....................    sc1=s1; 
....................    sc2=s2; 
....................    if(sc2<sc1 && sc1 <sc2 +n) 
....................       for(sc1+=n,sc2+=n;0<n;--n) 
....................          *--sc1=*--sc2; 
....................    else 
....................       for(;0<n;--n) 
....................          *sc1++=*sc2++; 
....................   return s1; 
....................   } 
....................  
.................... /* Standard template: char *strcpy(char *s1, const char *s2) 
....................    copies the string s2 including the null character to s1. 
....................    This is a compiler built in to handle the different address 
....................    spaces */ 
....................  
.................... #define strcopy strcpy 
....................  
.................... /* standard template: 
....................    char *strncpy(char *s1, const char *s2, size_t n). 
....................    Copies max of n characters (not following ending '\0') 
....................    from s2 in s1; if s2 has less than n characters, appends 0 */ 
....................  
.................... char *strncpy(char *s1, char *s2, size_t n) 
.................... { 
....................   char *s; 
....................  
....................   for (s = s1; n > 0 && *s2 != '\0'; n--) 
....................      *s++ = *s2++; 
....................   for (; n > 0; n--) 
....................      *s++ = '\0'; 
....................  
....................   return(s1); 
.................... } 
.................... /***********************************************************/ 
....................  
.................... /*concatenation functions*/ 
.................... /* standard template: char *strcat(char *s1, const char *s2) 
.................... appends s2 to s1*/ 
....................  
.................... char *strcat(char *s1, char *s2) 
.................... { 
....................    char *s; 
....................  
....................    for (s = s1; *s != '\0'; ++s); 
....................    while(*s2 != '\0') 
....................    { 
....................       *s = *s2; 
....................       ++s; 
....................       ++s2; 
....................    } 
....................  
....................    *s = '\0'; 
....................    return(s1); 
.................... } 
.................... /* standard template: char *strncat(char *s1, char *s2,size_t n) 
.................... appends not more than n characters from s2 to s1*/ 
....................  
.................... char *strncat(char *s1, char *s2, size_t n) 
.................... { 
....................    char *s; 
....................  
....................    for (s = s1; *s != '\0'; ++s); 
....................    while(*s2 != '\0' && 0<n) 
....................    { 
....................       *s = *s2; 
....................       ++s; 
....................       ++s2; 
....................       --n; 
....................    } 
....................  
....................    *s = '\0'; 
....................    return(s1); 
.................... } 
....................  
.................... /***********************************************************/ 
....................  
....................  
.................... /*comparison functions*/ 
.................... /* standard template: signed int memcmp(void *s1, void *s2). 
....................    Compares s1 & s2; returns -1 if s1<s2, 0 if s1=s2, 1 if s1>s2 */ 
....................  
.................... signed int8 memcmp(void * s1,char *s2,size_t n) 
.................... { 
.................... char *su1, *su2; 
.................... for(su1=s1, su2=s2; 0<n; ++su1, ++su2, --n) 
.................... { 
....................    if(*su1!=*su2) 
....................       return ((*su1<*su2)?-1:+1); 
.................... } 
.................... return 0; 
.................... } 
....................  
.................... /* standard template: int strcmp(const char *s1, const char *s2). 
....................    Compares s1 & s2; returns -1 if s1<s2, 0 if s1=s2, 1 if s1>s2 */ 
....................  
.................... signed int8 strcmp(char *s1, char *s2) 
.................... { 
....................    for (; *s1 == *s2; s1++, s2++) 
....................       if (*s1 == '\0') 
....................          return(0); 
....................    return((*s1 < *s2) ? -1: 1); 
.................... } 
.................... /* standard template: int strcoll(const char *s1, const char *s2). 
....................    Compares s1 & s2; returns -1 if s1<s2, 0 if s1=s2, 1 if s1>s2 */ 
....................  
.................... signed int8 strcoll(char *s1, char *s2) 
.................... { 
....................    for (; *s1 == *s2; s1++, s2++) 
....................       if (*s1 == '\0') 
....................          return(0); 
....................    return((*s1 < *s2) ? -1: 1); 
.................... } 
....................  
.................... /* standard template: 
....................    int strncmp(const char *s1, const char *s2, size_t n). 
....................    Compares max of n characters (not following 0) from s1 to s2; 
....................    returns same as strcmp */ 
....................  
.................... signed int8 strncmp(char *s1, char *s2, size_t n) 
.................... { 
....................    for (; n > 0; s1++, s2++, n--) 
....................       if (*s1 != *s2) 
....................          return((*s1 <*s2) ? -1: 1); 
....................       else if (*s1 == '\0') 
....................          return(0); 
....................    return(0); 
.................... } 
.................... /* standard template: 
....................    int strxfrm(const char *s1, const char *s2, size_t n). 
....................    transforms maximum of n characters from s2 and places them into s1*/ 
.................... size_t strxfrm(char *s1, char *s2, size_t n) 
.................... { 
....................   char *s; 
....................   unsigned int8 n1; 
....................   n1=n; 
....................   for (s = s1; n > 0 && *s2 != '\0'; n--) 
....................      *s++ = *s2++; 
....................   for (; n > 0; n--) 
....................      *s++ = '\0'; 
....................  
....................   return(n1); 
.................... } 
....................  
....................  
....................  
....................  
....................  
.................... /***********************************************************/ 
.................... /*Search functions*/ 
.................... /* standard template: void *memchr(const char *s, int c). 
....................    Finds first occurrence of c in n characters of s */ 
....................  
.................... char *memchr(void *s,unsigned int8 c,size_t n) 
.................... { 
....................    char uc; 
....................    char *su; 
....................    uc=c; 
....................    for(su=s;0<n;++su,--n) 
....................       if(*su==uc) 
....................       return su; 
....................    return NULL; 
.................... } 
....................  
.................... /* standard template: char *strchr(const char *s, int c). 
....................    Finds first occurrence of c in s */ 
....................  
.................... char *strchr(char *s, unsigned int8 c) 
.................... { 
....................    for (; *s != c; s++) 
....................       if (*s == '\0') 
....................          return(0); 
....................    return(s); 
.................... } 
.................... /* standard template: 
....................    size_t strcspn(const char *s1, const char *s2). 
....................    Computes length of max initial segment of s1 that 
....................    consists entirely of characters NOT from s2*/ 
....................  
.................... unsigned int8  strcspn(char *s1, char *s2) 
.................... { 
....................    char *sc1, *sc2; 
....................  
....................    for (sc1 = s1; *sc1 != 0; sc1++) 
....................       for (sc2 = s2; *sc2 != 0; sc2++) 
....................          if (*sc1 == *sc2) 
....................             return(sc1 - s1); 
....................    return(sc1 - s1); 
.................... } 
.................... /* standard template: 
....................    char *strpbrk(const char *s1, const char *s2). 
....................    Locates first occurence of any character from s2 in s1; 
....................    returns s1 if s2 is empty string */ 
....................  
.................... char *strpbrk(char *s1, char *s2) 
.................... { 
....................    char *sc1, *sc2; 
....................  
....................    for (sc1 = s1; *sc1 != 0; sc1++) 
....................       for (sc2 = s2; *sc2 != 0; sc2++) 
....................          if (*sc1 == *sc2) 
....................             return(sc1); 
....................    return(0); 
.................... } 
....................  
....................  
.................... /* standard template: char *strrchr(const char *s, int c). 
....................    Finds last occurrence of c in s */ 
....................  
.................... char *strrchr(char *s, unsigned int8 c) 
.................... { 
....................    char *p; 
....................  
....................    for (p = 0; ; s++) 
....................    { 
....................       if (*s == c) 
....................          p = s; 
....................       if (*s == '\0') 
....................          return(p); 
....................    } 
.................... } 
.................... /* computes length of max initial segment of s1 consisting 
....................    entirely of characters from s2 */ 
....................  
.................... unsigned int8  strspn(char *s1, char *s2) 
.................... { 
....................    char *sc1, *sc2; 
....................  
....................    for (sc1 = s1; *sc1 != 0; sc1++) 
....................       for (sc2 = s2; ; sc2++) 
....................     if (*sc2 == '\0') 
....................        return(sc1 - s1); 
....................          else if (*sc1 == *sc2) 
....................             break; 
....................    return(sc1 - s1); 
.................... } 
.................... /* standard template: 
....................    char *strstr(const char *s1, const char *s2); 
....................    Locates first occurence of character sequence s2 in s1; 
....................    returns 0 if s2 is empty string 
....................  
....................    Uncomment #define FASTER_BUT_MORE_ROM at the top of the 
....................    file to use the faster algorithm */ 
.................... char *strstr(char *s1, char *s2) 
.................... { 
....................    char *s, *t; 
....................  
....................    #ifdef FASTER_BUT_MORE_ROM 
....................    if (*s2 == '\0') 
....................          return(s1); 
....................    #endif 
....................  
....................    while (*s1) 
....................    { 
....................       for(s = s1, t = s2; *t && (*s == *t); ++s, ++t); 
....................  
....................       if (*t == '\0') 
....................          return s1; 
....................       ++s1; 
....................       #ifdef FASTER_BUT_MORE_ROM 
....................          while(*s1 != '\0' && *s1 != *s2) 
....................             ++s1; 
....................       #endif 
....................    } 
....................    return 0; 
.................... } 
....................  
.................... /* standard template: char *strtok(char *s1, const char *s2). 
....................  
....................    Finds next token in s1 delimited by a character from separator 
....................    string s2 (which can be different from call to call).  First call 
....................    starts at beginning of s1 searching for first character NOT 
....................    contained in s2; returns 0 if none is found. 
....................    If one is found, it is the start of first token (return value). 
....................    Function then searches from there for a character contained in s2. 
....................    If none is found, current token extends to end of s1, and subsequent 
....................    searches for a token will return 0.  If one is found, it is 
....................    overwritten by '\0', which terminates current token.  Function saves 
....................    pointer to following character from which next search will start. 
....................    Each subsequent call, with 0 as first argument, starts searching 
....................    from saved pointer */ 
....................  
.................... char *strtok(char *s1, char *s2) 
.................... { 
....................    char *beg, *end; 
....................    static char *save; 
....................  
....................    beg = (s1)? s1: save; 
....................    beg += strspn(beg, s2); 
....................    if (*beg == '\0') 
....................    { 
....................       *save = ' '; 
....................       return(0); 
....................    } 
....................    end = strpbrk(beg, s2); 
....................    if (*end != '\0') 
....................    { 
....................       *end = '\0'; 
....................       end++; 
....................    } 
....................    save = end; 
....................    return(beg); 
.................... } 
....................  
.................... /*****************************************************************/ 
.................... /*Miscellaneous functions*/ 
.................... /* standard template 
.................... maps error number in errnum to an error message string 
.................... Returns: Pointer to string 
.................... */ 
.................... #ifdef _ERRNO 
.................... char * strerror(unsigned int8 errnum) 
.................... { 
.................... char s[15]; 
.................... switch( errnum) 
.................... { 
.................... case 0: 
....................    strcpy(s,"no errors"); 
....................    return s; 
.................... case EDOM : 
....................    strcpy(s,"domain error"); 
....................    return s; 
.................... case ERANGE: 
....................    strcpy(s,"range error"); 
....................    return s; 
.................... } 
.................... } 
.................... #ENDIF 
.................... /* standard template: size_t strlen(const char *s). 
....................    Computes length of s1 (preceding terminating 0) */ 
....................  
.................... unsigned int8 strlen(char *s) 
.................... { 
....................    char *sc; 
....................  
....................    for (sc = s; *sc != 0; sc++); 
....................    return(sc - s); 
.................... } 
....................  
.................... /* standard template: size_t stricmp(const char *s1, const char *s2). 
....................    Compares s1 to s2 ignoring case (upper vs. lower) */ 
....................  
.................... signed int8 stricmp(char *s1, char *s2) 
.................... { 
....................  for(; *s1==*s2||(isalpha(*s1)&&isalpha(*s2)&&(*s1==*s2+32||*s2==*s1+32)); 
....................     s1++, s2++) 
....................     if (*s1 == '\0') 
....................        return(0); 
....................  return((*s1 < *s2) ? -1: 1); 
.................... } 
....................  
....................  
.................... /* standard template: char *strlwr(char *s). 
....................    Replaces uppercase letters by lowercase; 
....................    returns pointer to new string s */ 
....................  
.................... char *strlwr(char *s) 
.................... { 
....................    char *p; 
....................  
....................    for (p = s; *p != '\0'; p++) 
....................       if (*p >= 'A' && *p <='Z') 
....................          *p += 'a' - 'A'; 
....................    return(s); 
.................... } 
....................  
....................  
.................... /************************************************************/ 
....................  
....................  
.................... #endif 
....................  
.................... #include <stdlib.h> 
.................... /////////////////////////////////////////////////////////////////////////// 
.................... ////        (C) Copyright 1996,2007 Custom Computer Services           //// 
.................... //// This source code may only be used by licensed users of the CCS C  //// 
.................... //// compiler.  This source code may only be distributed to other      //// 
.................... //// licensed users of the CCS C compiler.  No other use, reproduction //// 
.................... //// or distribution is permitted without written permission.          //// 
.................... //// Derivative programs created using this software in object code    //// 
.................... //// form are not restricted in any way.                               //// 
.................... /////////////////////////////////////////////////////////////////////////// 
....................  
.................... #ifndef _STDLIB 
.................... #define _STDLIB 
....................  
.................... //--------------------------------------------------------------------------- 
.................... // Definitions and types 
.................... //--------------------------------------------------------------------------- 
....................  
.................... #ifndef RAND_MAX 
.................... #define RAND_MAX  32767    // The value of which is the maximum value 
....................                            // ... returned by the rand function 
.................... #endif 
....................  
....................  
.................... #IF (sizeof(int16*)>1) 
.................... #DEFINE LONG_POINTERS 1 
.................... #ELSE  
.................... #DEFINE LONG_POINTERS 0 
.................... #ENDIF 
....................  
.................... typedef struct { 
....................    signed int quot; 
....................    signed int rem; 
.................... } div_t; 
....................  
.................... typedef struct { 
....................    signed long quot; 
....................    signed long rem; 
.................... } ldiv_t; 
....................  
.................... #include <stddef.h> 
.................... /////////////////////////////////////////////////////////////////////////// 
.................... ////        (C) Copyright 1996,2003 Custom Computer Services           //// 
.................... //// This source code may only be used by licensed users of the CCS C  //// 
.................... //// compiler.  This source code may only be distributed to other      //// 
.................... //// licensed users of the CCS C compiler.  No other use, reproduction //// 
.................... //// or distribution is permitted without written permission.          //// 
.................... //// Derivative programs created using this software in object code    //// 
.................... //// form are not restricted in any way.                               //// 
.................... /////////////////////////////////////////////////////////////////////////// 
....................  
.................... #ifndef _STDDEF 
....................  
.................... #define _STDDEF 
....................  
.................... #if sizeof(unsigned int8 *)==1 
.................... #define ptrdiff_t unsigned int8 
.................... #else 
.................... #define ptrdiff_t unsigned int16 
.................... #endif 
....................  
.................... #define size_t unsigned int8 
.................... #define wchar_t char 
.................... #define NULL 0 
....................  
.................... #define offsetof(s,f) (offsetofbit(s,f)/8) 
....................  
.................... #endif 
....................  
....................  
.................... //--------------------------------------------------------------------------- 
.................... // String conversion functions 
.................... //--------------------------------------------------------------------------- 
....................  
.................... /* Standard template: signed int  atoi(char * s) 
....................  * converts the initial portion of the string s to a signed int 
....................  * returns the converted value if any, 0 otherwise 
....................  */ 
.................... signed int atoi(char *s); 
....................  
.................... /* Syntax: signed int32  atoi32(char * s) 
....................    converts the initial portion of the string s to a signed int32 
....................    returns the converted value if any, 0 otherwise*/ 
.................... #if (sizeof(long)==4) 
....................  #define atoi32(s) atol(s) 
.................... #else  
....................  signed int32 atoi32(char *s); 
.................... #endif 
....................  
.................... #if defined(__PCD__) 
.................... // The following functions only work on the 24 bit compiler 
.................... // for the 30F, 33F, 24F and 24H parts 
.................... /* Syntax: signed int48  atoi48(char * s) 
....................    converts the initial portion of the string s to a signed int48 
....................    returns the converted value if any, 0 otherwise*/ 
....................     
.................... signed int48 atoi48(char *s); 
....................  
.................... /* Syntax: signed int64  atoi64(char * s) 
....................    converts the initial portion of the string s to a signed int64 
....................    returns the converted value if any, 0 otherwise*/ 
.................... signed int64 atoi64(char *s); 
.................... #endif 
....................  
.................... /* Syntax: char *  itoa(signed int32 num, int8 base, char * s) 
....................    converts the signed int32 to a string and 
....................    returns the converted value if any, 0 otherwise*/ 
.................... char * itoa(signed int32 num, unsigned int base, char * s); 
....................  
.................... /* Standard template: signed int16  atol(char * s) 
....................  * converts the initial portion of the string s to a signed int16 
....................  * returns the converted value if any, 0 otherwise 
....................  */ 
.................... signed long atol(char *s); 
....................  
.................... /* Standard template: int16 strtoul(char * s,char *endptr,signed int base) 
....................  * converts the initial portion of the string s, represented as an 
....................  * integral value of radix base  to a signed long. 
....................  * Returns the converted value if any, 0 otherwise 
....................  * the final string is returned in the endptr, if endptr is not null 
....................  */ 
.................... signed long strtol(char *s,char *endptr, signed int base); 
....................  
.................... /* Standard template: int16 strtoul(char * s,char *endptr,signed int base) 
....................  * converts the initial portion of the string s, represented as an 
....................  * integral value of radix base to a unsigned long. 
....................  * returns the converted value if any, 0 otherwise 
....................  * the final string is returned in the endptr, if endptr is not null 
....................  */ 
.................... unsigned long strtoul(char *s,char *endptr, signed int base); 
....................  
.................... /* Standart template: float strtof(char * s,char *endptr) 
....................                       float48 strtof48(char *s,char *endptr); 
....................                       float64 strtod(char *s,char *endptr); 
....................  * converts the initial portion of the string s to a float32, float48 or float64, 
....................  * returns the converted value if any, 0 otherwise 
....................  * the final string is returned in the endptr, if endptr is not null                    
.................... */ 
.................... float strtof(char *s,char *endptr); 
.................... #if defined(__PCD__) 
.................... float48 strtof48(char *s,char *endptr); 
.................... float64 strtod(char *s,char *endptr); 
.................... #else 
.................... //provided for compatibility 
.................... #define strtof48(s, e) strtof(s, e) 
.................... #define strtod(s, e) strtof(s, e) 
.................... #endif 
....................  
.................... /* Standard template: float32 atof(char * s) 
....................  * converts the initial portion of the string s to a float. 
....................  * returns the converted value if any, 0 otherwise 
....................  */ 
.................... #define atof(s)   strtof(s, 0) 
....................  
.................... #if defined(__PCD__) 
.................... // The following functions only work on the 24 bit compiler 
.................... // for the 30F, 33F, 24F and 24H parts 
....................  
.................... /* Standard template: float48 atof48(char * s) 
....................  * converts the initial portion of the string s to a float. 
....................  * returns the converted value if any, 0 otherwise 
....................  */ 
.................... #define atof48(s) strtof48(s, 0) 
....................  
.................... /* Standard template: float64 atof64(char * s) 
....................  * converts the initial portion of the string s to a float. 
....................  * returns the converted value if any, 0 otherwise 
....................  */ 
.................... #define atof64(s) strtod(s, 0) 
.................... #endif 
....................  
.................... /* Standard template: float32 atoe(char * s) 
....................  * converts the initial portion of the string s to a float. 
....................  * returns the converted value if any, 0 otherwise 
....................  * also handles E format numbers 
....................  */ 
.................... #if !defined(__PCD__) 
.................... float atoe(char * s); 
.................... #endif 
....................  
.................... #if defined(__PCD__) 
.................... float32 atoe(char * s); 
.................... #endif 
....................  
.................... //--------------------------------------------------------------------------- 
.................... // Pseudo-random sequence generation functions 
.................... //--------------------------------------------------------------------------- 
....................  
.................... /* The rand function computes a sequence of pseudo-random integers in 
....................  * the range 0 to RAND_MAX 
....................  * 
....................  * Parameters: 
....................  *       (none) 
....................  * 
....................  * Returns: 
....................  *       The pseudo-random integer 
....................  */ 
.................... unsigned int16 rand(void); 
....................  
.................... /* The srand function uses the argument as a seed for a new sequence of 
....................  * pseudo-random numbers to be returned by subsequent calls to rand. 
....................  * 
....................  * Parameters: 
....................  *       [in] seed: The seed value to start from. You might need to pass 
....................  * 
....................  * Returns: 
....................  *       (none) 
....................  * 
....................  * Remarks 
....................  *          The srand function sets the starting point for generating 
....................  *       a series of pseudorandom integers. To reinitialize the 
....................  *       generator, use 1 as the seed argument. Any other value for 
....................  *       seed sets the generator to a random starting point. rand 
....................  *       retrieves the pseudorandom numbers that are generated. 
....................  *       Calling rand before any call to srand generates the same 
....................  *       sequence as calling srand with seed passed as 1. 
....................  *          Usually, you need to pass a time here from outer source 
....................  *       so that the numbers will be different every time you run. 
....................  */ 
.................... void srand(unsigned int32 seed); 
....................  
.................... //--------------------------------------------------------------------------- 
.................... // Memory management functions 
.................... //--------------------------------------------------------------------------- 
....................  
.................... // Comming soon 
....................  
.................... //--------------------------------------------------------------------------- 
.................... // Communication with the environment 
.................... //--------------------------------------------------------------------------- 
....................  
.................... /* The function returns 0 always 
....................  */ 
.................... signed int8 system(char *string); 
....................  
.................... //--------------------------------------------------------------------------- 
.................... // Searching and sorting utilities 
.................... //--------------------------------------------------------------------------- 
....................  
.................... /* Performs a binary search of a sorted array.. 
....................  * 
....................  * Parameters: 
....................  *       [in] key: Object to search for 
....................  *       [in] base: Pointer to base of search data 
....................  *       [in] num: Number of elements 
....................  *       [in] width: Width of elements 
....................  *       [in] compare: Function that compares two elements 
....................  * 
....................  * Returns: 
....................  *       bsearch returns a pointer to an occurrence of key in the array pointed 
....................  *       to by base. If key is not found, the function returns NULL. If the 
....................  *       array is not in order or contains duplicate records with identical keys, 
....................  *       the result is unpredictable. 
....................  */ 
.................... //void *bsearch(const void *key, const void *base, size_t num, size_t width, 
.................... //              int (*compare)(const void *, const void *)); 
....................  
.................... /* Performs the shell-metzner sort (not the quick sort algorithm). The contents 
....................  * of the array are sorted into ascending order according to a comparison 
....................  * function pointed to by compar. 
....................  * 
....................  * Parameters: 
....................  *       [in] base: Pointer to base of search data 
....................  *       [in] num: Number of elements 
....................  *       [in] width: Width of elements 
....................  *       [in] compare: Function that compares two elements 
....................  * 
....................  * Returns: 
....................  *       (none) 
....................  */ 
.................... //void *qsort(const void *base, size_t num, size_t width, 
.................... //              int (*compare)(const void *, const void *)); 
....................  
.................... //--------------------------------------------------------------------------- 
.................... // Integer arithmetic functions 
.................... //--------------------------------------------------------------------------- 
....................  
.................... #define labs abs 
....................  
.................... div_t div(signed int numer, signed int denom); 
.................... ldiv_t ldiv(signed long numer, signed long denom); 
....................  
.................... //--------------------------------------------------------------------------- 
.................... // Multibyte character functions 
.................... //--------------------------------------------------------------------------- 
....................  
.................... // Not supported 
....................  
.................... //--------------------------------------------------------------------------- 
.................... // Multibyte string functions 
.................... //--------------------------------------------------------------------------- 
....................  
.................... // Not supported 
....................  
....................  
.................... //--------------------------------------------------------------------------- 
.................... // Internal implementation 
.................... //--------------------------------------------------------------------------- 
....................  
.................... #include <stddef.h> 
.................... /////////////////////////////////////////////////////////////////////////// 
.................... ////        (C) Copyright 1996,2003 Custom Computer Services           //// 
.................... //// This source code may only be used by licensed users of the CCS C  //// 
.................... //// compiler.  This source code may only be distributed to other      //// 
.................... //// licensed users of the CCS C compiler.  No other use, reproduction //// 
.................... //// or distribution is permitted without written permission.          //// 
.................... //// Derivative programs created using this software in object code    //// 
.................... //// form are not restricted in any way.                               //// 
.................... /////////////////////////////////////////////////////////////////////////// 
....................  
.................... #ifndef _STDDEF 
....................  
.................... #define _STDDEF 
....................  
.................... #if sizeof(unsigned int8 *)==1 
.................... #define ptrdiff_t unsigned int8 
.................... #else 
.................... #define ptrdiff_t unsigned int16 
.................... #endif 
....................  
.................... #define size_t unsigned int8 
.................... #define wchar_t char 
.................... #define NULL 0 
....................  
.................... #define offsetof(s,f) (offsetofbit(s,f)/8) 
....................  
.................... #endif 
....................  
.................... #include <string.h> 
.................... //////////////////////////////////////////////////////////////////////////// 
.................... ////        (C) Copyright 1996,2008 Custom Computer Services            //// 
.................... //// This source code may only be used by licensed users of the CCS C   //// 
.................... //// compiler.  This source code may only be distributed to other       //// 
.................... //// licensed users of the CCS C compiler.  No other use, reproduction  //// 
.................... //// or distribution is permitted without written permission.           //// 
.................... //// Derivative programs created using this software in object code     //// 
.................... //// form are not restricted in any way.                                //// 
.................... //////////////////////////////////////////////////////////////////////////// 
....................  
.................... #ifndef _STRING 
.................... #define _STRING 
.................... #include <stddef.h> 
.................... #include <ctype.h> 
....................  
....................  
....................  
.................... ////////////////////////////////////////////// 
.................... //// Uncomment the following define to    //// 
.................... //// allow some functions to use a        //// 
.................... //// quicker algorithm, but use more ROM  //// 
.................... ////                                      //// 
.................... //// #define FASTER_BUT_MORE_ROM          //// 
.................... ////////////////////////////////////////////// 
....................  
....................  
....................  
.................... /*Copying functions*/ 
.................... /* standard template: 
....................    void *memmove(void *s1, void *s2, size_t n). 
....................    Copies max of n characters safely (not following ending '\0') 
....................    from s2 in s1; if s2 has less than n characters, appends 0 */ 
....................  
.................... char *memmove(void *s1,char *s2,size_t n) 
.................... { 
....................    char *sc1; 
....................    char *sc2; 
....................    sc1=s1; 
....................    sc2=s2; 
....................    if(sc2<sc1 && sc1 <sc2 +n) 
....................       for(sc1+=n,sc2+=n;0<n;--n) 
....................          *--sc1=*--sc2; 
....................    else 
....................       for(;0<n;--n) 
....................          *sc1++=*sc2++; 
....................   return s1; 
....................   } 
....................  
.................... /* Standard template: char *strcpy(char *s1, const char *s2) 
....................    copies the string s2 including the null character to s1. 
....................    This is a compiler built in to handle the different address 
....................    spaces */ 
....................  
.................... #define strcopy strcpy 
....................  
.................... /* standard template: 
....................    char *strncpy(char *s1, const char *s2, size_t n). 
....................    Copies max of n characters (not following ending '\0') 
....................    from s2 in s1; if s2 has less than n characters, appends 0 */ 
....................  
.................... char *strncpy(char *s1, char *s2, size_t n) 
.................... { 
....................   char *s; 
....................  
....................   for (s = s1; n > 0 && *s2 != '\0'; n--) 
....................      *s++ = *s2++; 
....................   for (; n > 0; n--) 
....................      *s++ = '\0'; 
....................  
....................   return(s1); 
.................... } 
.................... /***********************************************************/ 
....................  
.................... /*concatenation functions*/ 
.................... /* standard template: char *strcat(char *s1, const char *s2) 
.................... appends s2 to s1*/ 
....................  
.................... char *strcat(char *s1, char *s2) 
.................... { 
....................    char *s; 
....................  
....................    for (s = s1; *s != '\0'; ++s); 
....................    while(*s2 != '\0') 
....................    { 
....................       *s = *s2; 
....................       ++s; 
....................       ++s2; 
....................    } 
....................  
....................    *s = '\0'; 
....................    return(s1); 
.................... } 
.................... /* standard template: char *strncat(char *s1, char *s2,size_t n) 
.................... appends not more than n characters from s2 to s1*/ 
....................  
.................... char *strncat(char *s1, char *s2, size_t n) 
.................... { 
....................    char *s; 
....................  
....................    for (s = s1; *s != '\0'; ++s); 
....................    while(*s2 != '\0' && 0<n) 
....................    { 
....................       *s = *s2; 
....................       ++s; 
....................       ++s2; 
....................       --n; 
....................    } 
....................  
....................    *s = '\0'; 
....................    return(s1); 
.................... } 
....................  
.................... /***********************************************************/ 
....................  
....................  
.................... /*comparison functions*/ 
.................... /* standard template: signed int memcmp(void *s1, void *s2). 
....................    Compares s1 & s2; returns -1 if s1<s2, 0 if s1=s2, 1 if s1>s2 */ 
....................  
.................... signed int8 memcmp(void * s1,char *s2,size_t n) 
.................... { 
.................... char *su1, *su2; 
.................... for(su1=s1, su2=s2; 0<n; ++su1, ++su2, --n) 
.................... { 
....................    if(*su1!=*su2) 
....................       return ((*su1<*su2)?-1:+1); 
.................... } 
.................... return 0; 
.................... } 
....................  
.................... /* standard template: int strcmp(const char *s1, const char *s2). 
....................    Compares s1 & s2; returns -1 if s1<s2, 0 if s1=s2, 1 if s1>s2 */ 
....................  
.................... signed int8 strcmp(char *s1, char *s2) 
.................... { 
....................    for (; *s1 == *s2; s1++, s2++) 
....................       if (*s1 == '\0') 
....................          return(0); 
....................    return((*s1 < *s2) ? -1: 1); 
.................... } 
.................... /* standard template: int strcoll(const char *s1, const char *s2). 
....................    Compares s1 & s2; returns -1 if s1<s2, 0 if s1=s2, 1 if s1>s2 */ 
....................  
.................... signed int8 strcoll(char *s1, char *s2) 
.................... { 
....................    for (; *s1 == *s2; s1++, s2++) 
....................       if (*s1 == '\0') 
....................          return(0); 
....................    return((*s1 < *s2) ? -1: 1); 
.................... } 
....................  
.................... /* standard template: 
....................    int strncmp(const char *s1, const char *s2, size_t n). 
....................    Compares max of n characters (not following 0) from s1 to s2; 
....................    returns same as strcmp */ 
....................  
.................... signed int8 strncmp(char *s1, char *s2, size_t n) 
.................... { 
....................    for (; n > 0; s1++, s2++, n--) 
....................       if (*s1 != *s2) 
....................          return((*s1 <*s2) ? -1: 1); 
....................       else if (*s1 == '\0') 
....................          return(0); 
....................    return(0); 
.................... } 
.................... /* standard template: 
....................    int strxfrm(const char *s1, const char *s2, size_t n). 
....................    transforms maximum of n characters from s2 and places them into s1*/ 
.................... size_t strxfrm(char *s1, char *s2, size_t n) 
.................... { 
....................   char *s; 
....................   unsigned int8 n1; 
....................   n1=n; 
....................   for (s = s1; n > 0 && *s2 != '\0'; n--) 
....................      *s++ = *s2++; 
....................   for (; n > 0; n--) 
....................      *s++ = '\0'; 
....................  
....................   return(n1); 
.................... } 
....................  
....................  
....................  
....................  
....................  
.................... /***********************************************************/ 
.................... /*Search functions*/ 
.................... /* standard template: void *memchr(const char *s, int c). 
....................    Finds first occurrence of c in n characters of s */ 
....................  
.................... char *memchr(void *s,unsigned int8 c,size_t n) 
.................... { 
....................    char uc; 
....................    char *su; 
....................    uc=c; 
....................    for(su=s;0<n;++su,--n) 
....................       if(*su==uc) 
....................       return su; 
....................    return NULL; 
.................... } 
....................  
.................... /* standard template: char *strchr(const char *s, int c). 
....................    Finds first occurrence of c in s */ 
....................  
.................... char *strchr(char *s, unsigned int8 c) 
.................... { 
....................    for (; *s != c; s++) 
....................       if (*s == '\0') 
....................          return(0); 
....................    return(s); 
.................... } 
.................... /* standard template: 
....................    size_t strcspn(const char *s1, const char *s2). 
....................    Computes length of max initial segment of s1 that 
....................    consists entirely of characters NOT from s2*/ 
....................  
.................... unsigned int8  strcspn(char *s1, char *s2) 
.................... { 
....................    char *sc1, *sc2; 
....................  
....................    for (sc1 = s1; *sc1 != 0; sc1++) 
....................       for (sc2 = s2; *sc2 != 0; sc2++) 
....................          if (*sc1 == *sc2) 
....................             return(sc1 - s1); 
....................    return(sc1 - s1); 
.................... } 
.................... /* standard template: 
....................    char *strpbrk(const char *s1, const char *s2). 
....................    Locates first occurence of any character from s2 in s1; 
....................    returns s1 if s2 is empty string */ 
....................  
.................... char *strpbrk(char *s1, char *s2) 
.................... { 
....................    char *sc1, *sc2; 
....................  
....................    for (sc1 = s1; *sc1 != 0; sc1++) 
....................       for (sc2 = s2; *sc2 != 0; sc2++) 
....................          if (*sc1 == *sc2) 
....................             return(sc1); 
....................    return(0); 
.................... } 
....................  
....................  
.................... /* standard template: char *strrchr(const char *s, int c). 
....................    Finds last occurrence of c in s */ 
....................  
.................... char *strrchr(char *s, unsigned int8 c) 
.................... { 
....................    char *p; 
....................  
....................    for (p = 0; ; s++) 
....................    { 
....................       if (*s == c) 
....................          p = s; 
....................       if (*s == '\0') 
....................          return(p); 
....................    } 
.................... } 
.................... /* computes length of max initial segment of s1 consisting 
....................    entirely of characters from s2 */ 
....................  
.................... unsigned int8  strspn(char *s1, char *s2) 
.................... { 
....................    char *sc1, *sc2; 
....................  
....................    for (sc1 = s1; *sc1 != 0; sc1++) 
....................       for (sc2 = s2; ; sc2++) 
....................     if (*sc2 == '\0') 
....................        return(sc1 - s1); 
....................          else if (*sc1 == *sc2) 
....................             break; 
....................    return(sc1 - s1); 
.................... } 
.................... /* standard template: 
....................    char *strstr(const char *s1, const char *s2); 
....................    Locates first occurence of character sequence s2 in s1; 
....................    returns 0 if s2 is empty string 
....................  
....................    Uncomment #define FASTER_BUT_MORE_ROM at the top of the 
....................    file to use the faster algorithm */ 
.................... char *strstr(char *s1, char *s2) 
.................... { 
....................    char *s, *t; 
....................  
....................    #ifdef FASTER_BUT_MORE_ROM 
....................    if (*s2 == '\0') 
....................          return(s1); 
....................    #endif 
....................  
....................    while (*s1) 
....................    { 
....................       for(s = s1, t = s2; *t && (*s == *t); ++s, ++t); 
....................  
....................       if (*t == '\0') 
....................          return s1; 
....................       ++s1; 
....................       #ifdef FASTER_BUT_MORE_ROM 
....................          while(*s1 != '\0' && *s1 != *s2) 
....................             ++s1; 
....................       #endif 
....................    } 
....................    return 0; 
.................... } 
....................  
.................... /* standard template: char *strtok(char *s1, const char *s2). 
....................  
....................    Finds next token in s1 delimited by a character from separator 
....................    string s2 (which can be different from call to call).  First call 
....................    starts at beginning of s1 searching for first character NOT 
....................    contained in s2; returns 0 if none is found. 
....................    If one is found, it is the start of first token (return value). 
....................    Function then searches from there for a character contained in s2. 
....................    If none is found, current token extends to end of s1, and subsequent 
....................    searches for a token will return 0.  If one is found, it is 
....................    overwritten by '\0', which terminates current token.  Function saves 
....................    pointer to following character from which next search will start. 
....................    Each subsequent call, with 0 as first argument, starts searching 
....................    from saved pointer */ 
....................  
.................... char *strtok(char *s1, char *s2) 
.................... { 
....................    char *beg, *end; 
....................    static char *save; 
....................  
....................    beg = (s1)? s1: save; 
....................    beg += strspn(beg, s2); 
....................    if (*beg == '\0') 
....................    { 
....................       *save = ' '; 
....................       return(0); 
....................    } 
....................    end = strpbrk(beg, s2); 
....................    if (*end != '\0') 
....................    { 
....................       *end = '\0'; 
....................       end++; 
....................    } 
....................    save = end; 
....................    return(beg); 
.................... } 
....................  
.................... /*****************************************************************/ 
.................... /*Miscellaneous functions*/ 
.................... /* standard template 
.................... maps error number in errnum to an error message string 
.................... Returns: Pointer to string 
.................... */ 
.................... #ifdef _ERRNO 
.................... char * strerror(unsigned int8 errnum) 
.................... { 
.................... char s[15]; 
.................... switch( errnum) 
.................... { 
.................... case 0: 
....................    strcpy(s,"no errors"); 
....................    return s; 
.................... case EDOM : 
....................    strcpy(s,"domain error"); 
....................    return s; 
.................... case ERANGE: 
....................    strcpy(s,"range error"); 
....................    return s; 
.................... } 
.................... } 
.................... #ENDIF 
.................... /* standard template: size_t strlen(const char *s). 
....................    Computes length of s1 (preceding terminating 0) */ 
....................  
.................... unsigned int8 strlen(char *s) 
.................... { 
....................    char *sc; 
....................  
....................    for (sc = s; *sc != 0; sc++); 
....................    return(sc - s); 
.................... } 
....................  
.................... /* standard template: size_t stricmp(const char *s1, const char *s2). 
....................    Compares s1 to s2 ignoring case (upper vs. lower) */ 
....................  
.................... signed int8 stricmp(char *s1, char *s2) 
.................... { 
....................  for(; *s1==*s2||(isalpha(*s1)&&isalpha(*s2)&&(*s1==*s2+32||*s2==*s1+32)); 
....................     s1++, s2++) 
....................     if (*s1 == '\0') 
....................        return(0); 
....................  return((*s1 < *s2) ? -1: 1); 
.................... } 
....................  
....................  
.................... /* standard template: char *strlwr(char *s). 
....................    Replaces uppercase letters by lowercase; 
....................    returns pointer to new string s */ 
....................  
.................... char *strlwr(char *s) 
.................... { 
....................    char *p; 
....................  
....................    for (p = s; *p != '\0'; p++) 
....................       if (*p >= 'A' && *p <='Z') 
....................          *p += 'a' - 'A'; 
....................    return(s); 
.................... } 
....................  
....................  
.................... /************************************************************/ 
....................  
....................  
.................... #endif 
....................  
....................  
.................... div_t div(signed int numer, signed int denom) 
.................... { 
....................    div_t val; 
....................    val.quot = numer / denom; 
....................    val.rem = numer - (denom * val.quot); 
....................    return (val); 
.................... } 
....................  
.................... ldiv_t ldiv(signed long numer, signed long denom) 
.................... { 
....................    ldiv_t val; 
....................  
....................    val.quot = numer / denom; 
....................    val.rem = numer - (denom * val.quot); 
....................    return (val); 
.................... } 
....................  
.................... #if defined(__PCD__) 
.................... float32 atoe(char * s) 
.................... { 
....................    float32 pow10 = 1.0; 
....................    float32 result = 0.0; 
....................    unsigned int8 sign = 0; 
....................    unsigned int8 expsign = 0; 
....................    char c; 
....................    unsigned int8 ptr = 0; 
....................    unsigned int8 i; 
....................    float32 exp = 1.0; 
....................    unsigned int8 expcnt = 0; 
....................  
....................    c = s[ptr++]; 
....................  
....................    if ((c>='0' && c<='9') || c=='+' || c=='-' || c=='.' || c=='E' || c=='e') { 
....................       if(c == '-') { 
....................          sign = 1; 
....................          c = s[ptr++]; 
....................       } 
....................       if(c == '+') 
....................          c = s[ptr++]; 
....................  
....................       while((c >= '0' && c <= '9')) { 
....................          result = 10*result + c - '0'; 
....................          c = s[ptr++]; 
....................       } 
....................  
....................       if (c == '.') { 
....................          c = s[ptr++]; 
....................          while((c >= '0' && c <= '9')) { 
....................              pow10 = pow10*10; 
....................              result += (c - '0')/pow10; 
....................              c = s[ptr++]; 
....................          } 
....................       } 
....................  
....................       // Handling the exponent 
....................       if (c=='e' || c=='E') { 
....................          c = s[ptr++]; 
....................  
....................          if(c == '-') { 
....................             expsign = 1; 
....................             c = s[ptr++]; 
....................          } 
....................          if(c == '+') 
....................             c = s[ptr++]; 
....................  
....................          while((c >= '0' && c <= '9')) { 
....................             expcnt = 10*expcnt + c - '0'; 
....................             c = s[ptr++]; 
....................          } 
....................  
....................          for(i=0;i<expcnt;i++) 
....................             exp*=10; 
....................  
....................          if(expsign==1) 
....................             result/=exp; 
....................          else 
....................             result*=exp; 
....................       } 
....................    } 
....................  
....................    if (sign == 1) 
....................       result = -1*result; 
....................    return(result); 
.................... } 
.................... #endif 
....................  
.................... #if !defined(__PCD__) 
.................... float atoe(char * s) 
.................... { 
....................    float pow10 = 1.0; 
....................    float result = 0.0; 
....................    unsigned int8 sign = 0; 
....................    unsigned int8 expsign = 0; 
....................    char c; 
....................    unsigned int8 ptr = 0; 
....................    unsigned int8 i; 
....................    float exp = 1.0; 
....................    unsigned int8 expcnt = 0; 
....................  
....................    c = s[ptr++]; 
....................  
....................    if ((c>='0' && c<='9') || c=='+' || c=='-' || c=='.' || c=='E' || c=='e') { 
....................       if(c == '-') { 
....................          sign = 1; 
....................          c = s[ptr++]; 
....................       } 
....................       if(c == '+') 
....................          c = s[ptr++]; 
....................  
....................       while((c >= '0' && c <= '9')) { 
....................          result = 10*result + c - '0'; 
....................          c = s[ptr++]; 
....................       } 
....................  
....................       if (c == '.') { 
....................          c = s[ptr++]; 
....................          while((c >= '0' && c <= '9')) { 
....................              pow10 = pow10*10; 
....................              result += (c - '0')/pow10; 
....................              c = s[ptr++]; 
....................          } 
....................       } 
....................  
....................       // Handling the exponent 
....................       if (c=='e' || c=='E') { 
....................          c = s[ptr++]; 
....................  
....................          if(c == '-') { 
....................             expsign = 1; 
....................             c = s[ptr++]; 
....................          } 
....................          if(c == '+') 
....................             c = s[ptr++]; 
....................  
....................          while((c >= '0' && c <= '9')) { 
....................             expcnt = 10*expcnt + c - '0'; 
....................             c = s[ptr++]; 
....................          } 
....................  
....................          for(i=0;i<expcnt;i++) 
....................             exp*=10; 
....................  
....................          if(expsign==1) 
....................             result/=exp; 
....................          else 
....................             result*=exp; 
....................       } 
....................    } 
....................  
....................    if (sign == 1) 
....................       result = -1*result; 
....................    return(result); 
.................... } 
.................... #endif 
....................  
.................... signed int atoi(char *s) 
.................... { 
....................    signed int result; 
....................    unsigned int sign, base, index; 
....................    char c; 
....................  
....................    index = 0; 
....................    sign = 0; 
....................    base = 10; 
....................    result = 0; 
....................  
....................    if (!s) 
....................       return 0; 
....................    // Omit all preceeding alpha characters 
....................    c = s[index++]; 
....................  
....................    // increase index if either positive or negative sign is detected 
....................    if (c == '-') 
....................    { 
....................       sign = 1;         // Set the sign to negative 
....................       c = s[index++]; 
....................    } 
....................    else if (c == '+') 
....................    { 
....................       c = s[index++]; 
....................    } 
....................  
....................    if (c >= '0' && c <= '9') 
....................    { 
....................  
....................       // Check for hexa number 
....................       if (c == '0' && (s[index] == 'x' || s[index] == 'X')) 
....................       { 
....................          base = 16; 
....................          index++; 
....................          c = s[index++]; 
....................       } 
....................  
....................       // The number is a decimal number 
....................       if (base == 10) 
....................       { 
....................          while (c >= '0' && c <= '9') 
....................          { 
....................             result = 10*result + (c - '0'); 
....................             c = s[index++]; 
....................          } 
....................       } 
....................       else if (base == 16)    // The number is a hexa number 
....................       { 
....................          c = toupper(c); 
....................          while ( (c >= '0' && c <= '9') || (c >= 'A' && c<='F')) 
....................          { 
....................             if (c >= '0' && c <= '9') 
....................                result = (result << 4) + (c - '0'); 
....................             else 
....................                result = (result << 4) + (c - 'A' + 10); 
....................  
....................             c = s[index++]; 
....................             c = toupper(c); 
....................          } 
....................       } 
....................    } 
....................  
....................    if (sign == 1 && base == 10) 
....................        result = -result; 
....................  
....................    return(result); 
.................... } 
....................  
.................... signed long atol(char *s) 
.................... { 
....................    signed long result; 
....................    unsigned int sign, base, index; 
....................    char c; 
....................  
....................    index = 0; 
....................    sign = 0; 
....................    base = 10; 
....................    result = 0; 
....................  
....................    if (!s) 
....................       return 0; 
....................    c = s[index++]; 
....................  
....................    // increase index if either positive or negative sign is detected 
....................    if (c == '-') 
....................    { 
....................       sign = 1;         // Set the sign to negative 
....................       c = s[index++]; 
....................    } 
....................    else if (c == '+') 
....................    { 
....................       c = s[index++]; 
....................    } 
....................  
....................    if (c >= '0' && c <= '9') 
....................    { 
....................       if (c == '0' && (s[index] == 'x' || s[index] == 'X')) 
....................       { 
....................          base = 16; 
....................          index++; 
....................          c = s[index++]; 
....................       } 
....................  
....................       // The number is a decimal number 
....................       if (base == 10) 
....................       { 
....................          while (c >= '0' && c <= '9') 
....................          { 
....................             result = 10*result + (c - '0'); 
....................             c = s[index++]; 
....................          } 
....................       } 
....................       else if (base == 16)    // The number is a hexa number 
....................       { 
....................          c = toupper(c); 
....................          while ( (c >= '0' && c <= '9') || (c >= 'A' && c <='F')) 
....................          { 
....................             if (c >= '0' && c <= '9') 
....................                result = (result << 4) + (c - '0'); 
....................             else 
....................                result = (result << 4) + (c - 'A' + 10); 
....................  
....................             c = s[index++];c = toupper(c); 
....................          } 
....................       } 
....................    } 
....................  
....................    if (base == 10 && sign == 1) 
....................       result = -result; 
....................  
....................    return(result); 
.................... } 
....................  
.................... /* A fast routine to multiply by 10 
....................  */ 
.................... signed int32 mult_with10(int32 num) 
.................... { 
....................    return ( (num << 1) + (num << 3) ); 
.................... } 
....................  
.................... #if sizeof(long)==2 
.................... signed int32 atoi32(char *s) 
.................... { 
....................    signed int32 result; 
....................    int8 sign, base, index; 
....................    char c; 
....................  
....................    index = 0; 
....................    sign = 0; 
....................    base = 10; 
....................    result = 0; 
....................  
....................    if (!s) 
....................       return 0; 
....................    c = s[index++]; 
....................  
....................    // increase index if either positive or negative sign is detected 
....................    if (c == '-') 
....................    { 
....................       sign = 1;         // Set the sign to negative 
....................       c = s[index++]; 
....................    } 
....................    else if (c == '+') 
....................    { 
....................       c = s[index++]; 
....................    } 
....................  
....................    if (c >= '0' && c <= '9') 
....................    { 
....................       if (c == '0' && (s[index] == 'x' || s[index] == 'X')) 
....................       { 
....................          base = 16; 
....................          index++; 
....................          c = s[index++]; 
....................       } 
....................  
....................       // The number is a decimal number 
....................       if (base == 10) 
....................       { 
....................          while (c >= '0' && c <= '9') { 
....................             result = (result << 1) + (result << 3);  // result *= 10; 
....................             result += (c - '0'); 
....................             c = s[index++]; 
....................          } 
....................       } 
....................       else if (base == 16)    // The number is a hexa number 
....................       { 
....................          c = toupper(c); 
....................          while ((c >= '0' && c <= '9') || (c >= 'A' && c <='F')) 
....................          { 
....................             if (c >= '0' && c <= '9') 
....................                result = (result << 4) + (c - '0'); 
....................             else 
....................                result = (result << 4) + (c - 'A' + 10); 
....................  
....................             c = s[index++];c = toupper(c); 
....................          } 
....................       } 
....................    } 
....................  
....................    if (base == 10 && sign == 1) 
....................       result = -result; 
....................  
....................    return(result); 
.................... } 
.................... #endif 
....................  
.................... #if defined(__PCD__) 
....................  
.................... signed int48 atoi48(char *s) 
.................... { 
....................    signed int48 result; 
....................    int8 sign, base, index; 
....................    char c; 
....................  
....................    index = 0; 
....................    sign = 0; 
....................    base = 10; 
....................    result = 0; 
....................  
....................    if (!s) 
....................       return 0; 
....................    c = s[index++]; 
....................  
....................    // increase index if either positive or negative sign is detected 
....................    if (c == '-') 
....................    { 
....................       sign = 1;         // Set the sign to negative 
....................       c = s[index++]; 
....................    } 
....................    else if (c == '+') 
....................    { 
....................       c = s[index++]; 
....................    } 
....................  
....................    if (c >= '0' && c <= '9') 
....................    { 
....................       if (c == '0' && (s[index] == 'x' || s[index] == 'X')) 
....................       { 
....................          base = 16; 
....................          index++; 
....................          c = s[index++]; 
....................       } 
....................  
....................       // The number is a decimal number 
....................       if (base == 10) 
....................       { 
....................          while (c >= '0' && c <= '9') { 
....................             result = (result << 1) + (result << 3);  // result *= 10; 
....................             result += (c - '0'); 
....................             c = s[index++]; 
....................          } 
....................       } 
....................       else if (base == 16)    // The number is a hexa number 
....................       { 
....................          c = toupper(c); 
....................          while ((c >= '0' && c <= '9') || (c >= 'A' && c <='F')) 
....................          { 
....................             if (c >= '0' && c <= '9') 
....................                result = (result << 4) + (c - '0'); 
....................             else 
....................                result = (result << 4) + (c - 'A' + 10); 
....................  
....................             c = s[index++];c = toupper(c); 
....................          } 
....................       } 
....................    } 
....................  
....................    if (base == 10 && sign == 1) 
....................       result = -result; 
....................  
....................    return(result); 
.................... } 
....................  
.................... signed int64 atoi64(char *s) 
.................... { 
....................    signed int64 result; 
....................    int8 sign, base, index; 
....................    char c; 
....................  
....................    index = 0; 
....................    sign = 0; 
....................    base = 10; 
....................    result = 0; 
....................  
....................    if (!s) 
....................       return 0; 
....................    c = s[index++]; 
....................  
....................    // increase index if either positive or negative sign is detected 
....................    if (c == '-') 
....................    { 
....................       sign = 1;         // Set the sign to negative 
....................       c = s[index++]; 
....................    } 
....................    else if (c == '+') 
....................    { 
....................       c = s[index++]; 
....................    } 
....................  
....................    if (c >= '0' && c <= '9') 
....................    { 
....................       if (c == '0' && (s[index] == 'x' || s[index] == 'X')) 
....................       { 
....................          base = 16; 
....................          index++; 
....................          c = s[index++]; 
....................       } 
....................  
....................       // The number is a decimal number 
....................       if (base == 10) 
....................       { 
....................          while (c >= '0' && c <= '9') { 
....................             result = (result << 1) + (result << 3);  // result *= 10; 
....................             result += (c - '0'); 
....................             c = s[index++]; 
....................          } 
....................       } 
....................       else if (base == 16)    // The number is a hexa number 
....................       { 
....................          c = toupper(c); 
....................          while ((c >= '0' && c <= '9') || (c >= 'A' && c <='F')) 
....................          { 
....................             if (c >= '0' && c <= '9') 
....................                result = (result << 4) + (c - '0'); 
....................             else 
....................                result = (result << 4) + (c - 'A' + 10); 
....................  
....................             c = s[index++];c = toupper(c); 
....................          } 
....................       } 
....................    } 
....................  
....................    if (base == 10 && sign == 1) 
....................       result = -result; 
....................  
....................    return(result); 
.................... } 
.................... #endif 
....................  
.................... char * itoa(signed int32 num, unsigned int base, char * s) 
.................... { 
....................      unsigned int32 temp=1; 
....................      unsigned int8 i,sign=0,cnt=0; 
....................      char c; 
....................  
....................      if(num<0) { 
....................          sign=1;        // Check for negative number 
....................          num*=-1; 
....................      } 
....................  
....................      while(temp>0) { 
....................          temp=(num/base); 
....................          s[cnt]=(num%base)+'0';    // Conversion 
....................  
....................          if(s[cnt]>0x39) 
....................             s[cnt]+=0x7; 
....................  
....................          cnt++; 
....................          num=temp; 
....................      } 
....................  
....................      if(sign==1) { 
....................          s[cnt]=0x2D;      // Negative sign 
....................          cnt++; 
....................      } 
....................  
....................      for(i = 0;i<(int8)(cnt/2);i++) { 
....................  
....................          c=s[i]; 
....................          s[i]=s[cnt-i-1];        // Reverse the number 
....................          s[cnt-i-1]=c; 
....................      } 
....................      s[cnt]='\0';     // End the string 
....................      return s; 
.................... } 
....................  
.................... float strtof(char *s, char *endptr) 
.................... { 
....................    float pow10 = 1.0; 
....................    float result = 0.0; 
....................    int1 skip = 1, sign = 0, point = 0; 
....................    char c; 
....................    unsigned int8 ptr = 0; 
....................  
....................    if (!s) 
....................       return 0; 
....................  
....................    for(c=s[ptr++]; c!=0; c=s[ptr++]) 
....................    { 
....................       if (skip && !isspace(c)) 
....................       { 
....................          skip = 0; 
....................          if (c == '+') 
....................          { 
....................             sign = 0; 
....................             continue; 
....................          }             
....................          else if (c == '-') 
....................          { 
....................             sign = 1; 
....................             continue; 
....................          } 
....................       } 
....................       if (!skip && (c == '.') && !point) 
....................          point = 1; 
....................       else if (!skip && isdigit(c)) 
....................       { 
....................          c -= '0'; 
....................          if (point) 
....................          { 
....................             pow10 = pow10 * 10.0; 
....................             result += (float)c / pow10;    
....................          } 
....................          else 
....................          { 
....................             result = 10.0 * result + (float)c; 
....................          } 
....................       } 
....................       else if (!skip) 
....................          break; 
....................    } 
....................  
....................    if (sign) 
....................       result = -1*result; 
....................        
....................    if(endptr) 
....................    { 
....................       if (ptr) { 
....................          ptr--; 
....................        #IF LONG_POINTERS  
....................          *((long *)endptr)= s+ptr;  
....................        #ELSE 
....................          *((char *)endptr)=s+ptr; 
....................        #ENDIF 
....................       } 
....................       else 
....................       { 
....................       #IF LONG_POINTERS 
....................       *((long *)endptr)= s;  
....................       #ELSE 
....................       *((char *)endptr)=s; 
....................       #ENDIF 
....................       } 
....................    } 
....................  
....................    return(result); 
.................... } 
....................  
.................... #if defined(__PCD__) 
.................... float48 strtof48(char *s, char *endptr) 
.................... { 
....................    float48 pow10 = 1.0; 
....................    float48 result = 0.0; 
....................    int1 skip = 1, sign = 0, point = 0; 
....................    char c; 
....................    unsigned int8 ptr = 0; 
....................  
....................    if (!s) 
....................       return 0; 
....................  
....................    for(c=s[ptr++]; c!=0; c=s[ptr++]) 
....................    { 
....................       if (skip && !isspace(c)) 
....................       { 
....................          skip = 0; 
....................          if (c == '+') 
....................          { 
....................             sign = 0; 
....................             continue; 
....................          }             
....................          else if (c == '-') 
....................          { 
....................             sign = 1; 
....................             continue; 
....................          } 
....................       } 
....................       if (!skip && (c == '.') && !point) 
....................          point = 1; 
....................       else if (!skip && isdigit(c)) 
....................       { 
....................          c -= '0'; 
....................          if (point) 
....................          { 
....................             pow10 = pow10 * 10.0; 
....................             result += (float48)c / pow10;    
....................          } 
....................          else 
....................          { 
....................             result = 10.0 * result + (float48)c; 
....................          } 
....................       } 
....................       else if (!skip) 
....................          break; 
....................    } 
....................  
....................    if (sign) 
....................       result = -1*result; 
....................        
....................    if(endptr) 
....................    { 
....................       if (ptr) { 
....................          ptr--; 
....................        #IF LONG_POINTERS  
....................          *((long *)endptr)= s+ptr;  
....................        #ELSE 
....................          *((char *)endptr)=s+ptr; 
....................        #ENDIF 
....................       } 
....................       else 
....................       { 
....................       #IF LONG_POINTERS 
....................       *((long *)endptr)= s;  
....................       #ELSE 
....................       *((char *)endptr)=s; 
....................       #ENDIF 
....................       } 
....................    } 
....................  
....................    return(result); 
.................... } 
....................  
.................... float64 strtod(char *s, char *endptr) 
.................... { 
....................    float64 pow10 = 1.0; 
....................    float64 result = 0.0; 
....................    int1 skip = 1, sign = 0, point = 0; 
....................    char c; 
....................    unsigned int8 ptr = 0; 
....................  
....................    if (!s) 
....................       return 0; 
....................  
....................    for(c=s[ptr++]; c!=0; c=s[ptr++]) 
....................    { 
....................       if (skip && !isspace(c)) 
....................       { 
....................          skip = 0; 
....................          if (c == '+') 
....................          { 
....................             sign = 0; 
....................             continue; 
....................          }             
....................          else if (c == '-') 
....................          { 
....................             sign = 1; 
....................             continue; 
....................          } 
....................       } 
....................       if (!skip && (c == '.') && !point) 
....................          point = 1; 
....................       else if (!skip && isdigit(c)) 
....................       { 
....................          c -= '0'; 
....................          if (point) 
....................          { 
....................             pow10 = pow10 * 10.0; 
....................             result += (float64)c / pow10;    
....................          } 
....................          else 
....................          { 
....................             result = 10.0 * result + (float64)c; 
....................          } 
....................       } 
....................       else if (!skip) 
....................          break; 
....................    } 
....................  
....................    if (sign) 
....................       result = -1*result; 
....................        
....................    if(endptr) 
....................    { 
....................       if (ptr) { 
....................          ptr--; 
....................        #IF LONG_POINTERS  
....................          *((long *)endptr)= s+ptr;  
....................        #ELSE 
....................          *((char *)endptr)=s+ptr; 
....................        #ENDIF 
....................       } 
....................       else 
....................       { 
....................       #IF LONG_POINTERS 
....................       *((long *)endptr)= s;  
....................       #ELSE 
....................       *((char *)endptr)=s; 
....................       #ENDIF 
....................       } 
....................    } 
....................  
....................    return(result); 
.................... } 
.................... #endif 
....................  
.................... unsigned long strtoul(char *s, char *endptr, signed int base) 
.................... { 
....................    char *sc,*s1,*sd; 
....................    unsigned long x=0; 
....................    char sign; 
....................    char digits[]="0123456789abcdefghijklmnopqstuvwxyz"; 
....................    for(sc=s;isspace(*sc);++sc); 
....................    sign=*sc=='-'||*sc=='+'?*sc++:'+'; 
....................    if(sign=='-' || base <0 || base ==1|| base >36) // invalid base 
....................    goto StrtoulGO; 
....................  
....................    else if (base) 
....................    { 
....................       if(base==16 && *sc =='0'&&(sc[1]=='x' || sc[1]=='X')) 
....................          sc+=2; 
....................       if(base==8 && *sc =='0') 
....................          sc+=1; 
....................       if(base==2 && *sc =='0'&&sc[1]=='b') 
....................          sc+=2; 
....................  
....................    } 
....................    else if(*sc!='0') // base is 0, find base 
....................       base=10; 
....................    else if (sc[1]=='x' || sc[1]=='X') 
....................       base =16,sc+=2; 
....................    else if(sc[1]=='b') 
....................       base=2,sc+=2; 
....................    else 
....................       base=8; 
....................    for (s1=sc;*sc=='0';++sc);// skip leading zeroes 
....................    sd=memchr(digits,tolower(*sc),base); 
....................    for(; sd!=0; ) 
....................    { 
....................       x=x*base+(int16)(sd-digits); 
....................       ++sc; 
....................       sd=memchr(digits,tolower(*sc),base); 
....................    } 
....................    if(s1==sc) 
....................    { 
....................    StrtoulGO: 
....................       if (endptr) 
....................       { 
....................          #IF LONG_POINTERS 
....................          *((long *)endptr)= s;  
....................          #ELSE 
....................          *((char *)endptr)=s; 
....................          #ENDIF 
....................          } 
....................    return 0; 
....................    } 
....................    if (endptr) 
....................    { 
....................          #IF LONG_POINTERS 
....................          *((long *)endptr)= sc;  
....................          #ELSE 
....................          *((char *)endptr)=sc;  
....................          #ENDIF 
....................    } 
....................    return x; 
.................... } 
....................  
....................  
.................... signed long strtol(char *s,char *endptr, signed int base) 
.................... { 
....................    char *sc,*s1,*sd; 
....................    signed long x=0; 
....................    char sign; 
....................    char digits[]="0123456789abcdefghijklmnopqstuvwxyz"; 
....................    for(sc=s;isspace(*sc);++sc); 
....................    sign=*sc=='-'||*sc=='+'?*sc++:'+'; 
....................    if (base <0 || base ==1|| base >36) // invalid base 
....................    goto StrtolGO; 
....................    else if (base) 
....................    { 
....................       if(base==16 && *sc =='0'&&(sc[1]=='x' || sc[1]=='X')) 
....................          sc+=2; 
....................       if(base==8 && *sc =='0') 
....................          sc+=1; 
....................       if(base==2 && *sc =='0'&&sc[1]=='b') 
....................          sc+=2; 
....................  
....................    } 
....................    else if(*sc!='0') // base is 0, find base 
....................       base=10; 
....................    else if (sc[1]=='x' || sc[1]=='X') 
....................       base =16,sc+=2; 
....................    else if(sc[1]=='b') 
....................       base=2,sc+=2; 
....................    else 
....................       base=8; 
....................    for (s1=sc;*sc=='0';++sc);// skip leading zeroes 
....................  
....................    sd=memchr(digits,tolower(*sc),base); 
....................    for(;sd!=0;) 
....................    { 
....................       x=x*base+(int16)(sd-digits); 
....................       ++sc; 
....................       sd=memchr(digits,tolower(*sc),base); 
....................    } 
....................    if(s1==sc) 
....................    { 
....................    StrtolGO: 
....................       if (endptr) 
....................       { 
....................          #IF LONG_POINTERS 
....................          *((long *)endptr)= s;  
....................          #ELSE 
....................          *((char *)endptr)=s; 
....................          #ENDIF 
....................       } 
....................    return 0; 
....................    } 
....................    if(sign=='-') 
....................       x  =-x; 
....................    if (endptr) 
....................    { 
....................         #IF LONG_POINTERS 
....................          *((long *)endptr)= sc;  
....................         #ELSE 
....................         *((char *)endptr)=sc; 
....................         #ENDIF 
....................    } 
....................    return x; 
.................... } 
....................  
.................... signed int8 system(char *string) 
.................... { 
....................    return 0; 
.................... } 
....................  
.................... int8 mblen(char *s,size_t n) 
.................... { 
....................    return strlen(s); 
.................... } 
....................  
.................... int8 mbtowc(wchar_t *pwc,char *s,size_t n) 
.................... { 
....................    *pwc=*s; 
....................    return 1; 
.................... } 
....................  
.................... int8 wctomb(char *s,wchar_t wchar) 
.................... { 
....................    *s=wchar; 
....................    return 1; 
.................... } 
....................  
.................... size_t mbstowcs(wchar_t *pwcs,char *s,size_t n) 
.................... { 
....................    strncpy(pwcs,s,n); 
....................    return strlen(pwcs); 
.................... } 
....................  
.................... size_t wcstombs(char *s,wchar_t *pwcs,size_t n) 
.................... { 
....................    strncpy(s,pwcs,n); 
....................    return strlen(s); 
.................... } 
....................  
.................... //--------------------------------------------------------------------------- 
.................... // The random number implementation 
.................... //--------------------------------------------------------------------------- 
....................  
.................... unsigned int32 _Randseed; 
....................  
.................... unsigned int16 rand(void) 
.................... { 
....................    _Randseed = _Randseed * 1103515245 + 12345; 
....................    return ((unsigned int16)(_Randseed >> 16) % RAND_MAX); 
.................... } 
....................  
.................... void srand(unsigned int32 seed) 
.................... { 
....................    _Randseed = seed; 
.................... } 
....................  
.................... //--------------------------------------------------------------------------- 
.................... // Searching and sorting utilities implementation 
.................... //--------------------------------------------------------------------------- 
....................  
.................... #if !defined(__PCD__) 
.................... typedef signed int8 (*_Cmpfun)(char * p1,char * p2);  
.................... #else  
.................... typedef signed int16 (*_Cmpfun)(char * p1,char * p2);  
.................... #endif 
....................  
....................  
....................  
.................... void qsort(char * qdata, unsigned int qitems, unsigned int qsize, _Cmpfun cmp) { 
....................    unsigned int m,j,i,l; 
....................    int1 done; 
....................    unsigned int8 t[16]; 
....................  
....................    m = qitems/2; 
....................    while( m > 0 ) { 
....................      for(j=0; j<(qitems-m); ++j) { 
....................         i = j; 
....................         do 
....................         { 
....................            done=1; 
....................            l = i+m; 
....................            if( (*cmp)(qdata+i*qsize, qdata+l*qsize) > 0 ) { 
....................               memcpy(t, qdata+i*qsize, qsize); 
....................               memcpy(qdata+i*qsize, qdata+l*qsize, qsize); 
....................               memcpy(qdata+l*qsize, t, qsize); 
....................               if(m <= i) 
....................                 i -= m; 
....................                 done = 0; 
....................            } 
....................         } while(!done); 
....................      } 
....................      m = m/2; 
....................    } 
.................... } 
....................  
....................  
.................... char *bsearch(char *key, char *base, size_t num, size_t width,_Cmpfun cmp) 
.................... { 
....................    char *p, *q; 
....................    size_t n; 
....................    size_t pivot; 
....................    signed int val; 
....................  
....................    p = base; 
....................    n = num; 
....................  
....................    while (n > 0) 
....................    { 
....................       pivot = n >> 1; 
....................       q = p + width * pivot; 
....................  
....................       val = (*cmp)(key, q); 
....................  
....................       if (val < 0) 
....................          n = pivot; 
....................       else if (val == 0) 
....................          return ((char *)q); 
....................       else { 
....................          p = q + width; 
....................          n -= pivot + 1; 
....................       } 
....................    } 
....................  
....................    return NULL;      // There's no match 
.................... } 
....................  
....................  
.................... #endif 
....................  
.................... #include <DS1302.c> 
.................... ////////////////////////////////////////////////////////////////////////// 
.................... ////                               DS1302.C                           //// 
.................... ////                     Driver for Real Time Clock                   //// 
.................... ////                                                                  //// 
.................... ////  rtc_init()                                   Call after power up//// 
.................... ////                                                                  //// 
.................... ////  rtc_set_datetime(day,mth,year,dow,hour,min)  Set the date/time  //// 
.................... ////                                                                  //// 
.................... ////  rtc_get_date(day,mth,year,dow)               Get the date       //// 
.................... ////                                                                  //// 
.................... ////  rtc_get_time(hr,min,sec)                     Get the time       //// 
.................... ////                                                                  //// 
.................... ////  rtc_write_nvr(address,data)                  Write to NVR       //// 
.................... ////                                                                  //// 
.................... ////  data = rtc_read_nvr(address)                 Read from NVR      //// 
.................... ////                                                                  //// 
.................... ////  get_bcd(data)                              Convert data to BCD  //// 
.................... ////                                                                  //// 
.................... ////  rm_bcd(data)                               Convert data to int  //// 
.................... ////                                                                  //// 
.................... ////////////////////////////////////////////////////////////////////////// 
.................... ////        (C) Copyright 1996,2003 Custom Computer Services          //// 
.................... //// This source code may only be used by licensed users of the CCS C //// 
.................... //// compiler.  This source code may only be distributed to other     //// 
.................... //// licensed users of the CCS C compiler.  No other use, reproduction//// 
.................... //// or distribution is permitted without written permission.         //// 
.................... //// Derivative programs created using this software in object code   //// 
.................... //// form are not restricted in any way.                              //// 
.................... ////////////////////////////////////////////////////////////////////////// 
....................  
.................... //#ifndef RTC_SCLK 
....................  
.................... #define RTC_SCLK PIN_C0 
.................... #define RTC_IO   PIN_C1 
.................... #define RTC_RST  PIN_C2 
....................  
.................... //#endif 
....................  
.................... void write_ds1302_byte(BYTE cmd) { 
....................    BYTE i; 
....................  
....................    for(i=0;i<=7;++i) { 
*
03A98:  MOVLB  6
03A9A:  CLRF   xBF
03A9C:  MOVF   xBF,W
03A9E:  SUBLW  07
03AA0:  BNC   3ABC
....................       output_bit(RTC_IO, shift_right(&cmd,1,0) ); 
03AA2:  BCF    FD8.0
03AA4:  RRCF   xBE,F
03AA6:  BC    3AAC
03AA8:  BCF    F8B.1
03AAA:  BRA    3AAE
03AAC:  BSF    F8B.1
03AAE:  BCF    F94.1
....................       output_high(RTC_SCLK); 
03AB0:  BCF    F94.0
03AB2:  BSF    F8B.0
....................       output_low(RTC_SCLK); 
03AB4:  BCF    F94.0
03AB6:  BCF    F8B.0
....................    } 
03AB8:  INCF   xBF,F
03ABA:  BRA    3A9C
.................... } 
03ABC:  MOVLB  0
03ABE:  RETLW  00
....................  
.................... void write_ds1302(BYTE cmd, BYTE data) { 
....................  
....................    output_high(RTC_RST); 
03AC0:  BCF    F94.2
03AC2:  BSF    F8B.2
....................    write_ds1302_byte(cmd); 
03AC4:  MOVFF  6BC,6BE
03AC8:  RCALL  3A98
....................    write_ds1302_byte(data); 
03ACA:  MOVFF  6BD,6BE
03ACE:  RCALL  3A98
....................    output_low(RTC_RST); 
03AD0:  BCF    F94.2
03AD2:  BCF    F8B.2
.................... } 
03AD4:  RETLW  00
....................  
.................... BYTE read_ds1302(BYTE cmd) { 
....................    BYTE i,data; 
....................  
....................    output_high(RTC_RST); 
03AD6:  BCF    F94.2
03AD8:  BSF    F8B.2
....................    write_ds1302_byte(cmd); 
03ADA:  MOVFF  6B9,6BE
03ADE:  RCALL  3A98
....................     
....................    input(RTC_IO); 
03AE0:  BSF    F94.1
....................    delay_us(10); 
03AE2:  MOVLW  10
03AE4:  MOVWF  00
03AE6:  DECFSZ 00,F
03AE8:  BRA    3AE6
03AEA:  NOP   
....................           
....................    for(i=0;i<=7;++i) { 
03AEC:  MOVLB  6
03AEE:  CLRF   xBA
03AF0:  MOVF   xBA,W
03AF2:  SUBLW  07
03AF4:  BNC   3B20
....................       shift_right(&data,1,input(RTC_IO)); 
03AF6:  BSF    F94.1
03AF8:  BTFSC  F82.1
03AFA:  BRA    3B00
03AFC:  BCF    FD8.0
03AFE:  BRA    3B02
03B00:  BSF    FD8.0
03B02:  RRCF   xBB,F
....................       output_high(RTC_SCLK); 
03B04:  BCF    F94.0
03B06:  BSF    F8B.0
....................       delay_us(20); 
03B08:  MOVLW  21
03B0A:  MOVWF  00
03B0C:  DECFSZ 00,F
03B0E:  BRA    3B0C
....................       output_low(RTC_SCLK); 
03B10:  BCF    F94.0
03B12:  BCF    F8B.0
....................       delay_us(20); 
03B14:  MOVLW  21
03B16:  MOVWF  00
03B18:  DECFSZ 00,F
03B1A:  BRA    3B18
....................    } 
03B1C:  INCF   xBA,F
03B1E:  BRA    3AF0
....................    output_low(RTC_RST); 
03B20:  BCF    F94.2
03B22:  BCF    F8B.2
....................  
....................    return(data); 
03B24:  MOVFF  6BB,01
.................... } 
03B28:  MOVLB  0
03B2A:  RETLW  00
....................  
.................... void rtc_init() { 
....................    BYTE x; 
....................    output_low(RTC_RST); 
03B2C:  BCF    F94.2
03B2E:  BCF    F8B.2
....................    delay_us(20); 
03B30:  MOVLW  21
03B32:  MOVWF  00
03B34:  DECFSZ 00,F
03B36:  BRA    3B34
....................    output_low(RTC_SCLK); 
03B38:  BCF    F94.0
03B3A:  BCF    F8B.0
....................    write_ds1302(0x8e,0); 
03B3C:  MOVLW  8E
03B3E:  MOVLB  6
03B40:  MOVWF  xBC
03B42:  CLRF   xBD
03B44:  MOVLB  0
03B46:  RCALL  3AC0
....................    write_ds1302(0x90,0xa4); 
03B48:  MOVLW  90
03B4A:  MOVLB  6
03B4C:  MOVWF  xBC
03B4E:  MOVLW  A4
03B50:  MOVWF  xBD
03B52:  MOVLB  0
03B54:  RCALL  3AC0
....................    x=read_ds1302(0x81); 
03B56:  MOVLW  81
03B58:  MOVLB  6
03B5A:  MOVWF  xB9
03B5C:  MOVLB  0
03B5E:  RCALL  3AD6
03B60:  MOVFF  01,6B5
....................    if((x & 0x80)!=0) 
03B64:  MOVLB  6
03B66:  MOVF   xB5,W
03B68:  ANDLW  80
03B6A:  BZ    3B78
....................      write_ds1302(0x80,0); 
03B6C:  MOVLW  80
03B6E:  MOVWF  xBC
03B70:  CLRF   xBD
03B72:  MOVLB  0
03B74:  RCALL  3AC0
03B76:  MOVLB  6
.................... } 
03B78:  MOVLB  0
03B7A:  GOTO   8120 (RETURN)
....................  
.................... byte get_bcd(BYTE data) 
.................... { 
....................    byte nibh; 
....................    byte nibl; 
....................  
....................    nibh=data/10; 
*
0610E:  MOVFF  6BB,6BE
06112:  MOVLW  0A
06114:  MOVLB  6
06116:  MOVWF  xBF
06118:  MOVLB  0
0611A:  RCALL  5C42
0611C:  MOVFF  01,6BC
....................    nibl=data-(nibh*10); 
06120:  MOVLB  6
06122:  MOVF   xBC,W
06124:  MULLW  0A
06126:  MOVF   FF3,W
06128:  SUBWF  xBB,W
0612A:  MOVWF  xBD
....................  
....................    return((nibh<<4)|nibl); 
0612C:  SWAPF  xBC,W
0612E:  MOVWF  00
06130:  MOVLW  F0
06132:  ANDWF  00,F
06134:  MOVF   00,W
06136:  IORWF  xBD,W
06138:  MOVWF  01
.................... } 
0613A:  MOVLB  0
0613C:  RETLW  00
....................  
.................... byte rm_bcd(BYTE data) 
.................... { 
....................    byte i; 
....................  
....................    i=data; 
*
0597E:  MOVFF  6BA,6BB
....................    data=(i>>4)*10; 
05982:  MOVLB  6
05984:  SWAPF  xBB,W
05986:  MOVWF  00
05988:  MOVLW  0F
0598A:  ANDWF  00,F
0598C:  MOVF   00,W
0598E:  MULLW  0A
05990:  MOVFF  FF3,6BA
....................    data=data+(i<<4>>4); 
05994:  SWAPF  xBB,W
05996:  MOVWF  00
05998:  MOVLW  F0
0599A:  ANDWF  00,F
0599C:  MOVF   00,W
0599E:  SWAPF  00,F
059A0:  MOVLW  0F
059A2:  ANDWF  00,F
059A4:  MOVF   00,W
059A6:  ADDWF  xBA,F
....................  
....................    return data; 
059A8:  MOVFF  6BA,01
.................... } 
059AC:  MOVLB  0
059AE:  RETLW  00
....................  
.................... void rtc_set_datetime(BYTE day, BYTE mth, BYTE year, BYTE dow, BYTE hr, BYTE min) { 
....................  
....................    write_ds1302(0x86,get_bcd(day)); 
*
0613E:  MOVFF  6B5,6BB
06142:  RCALL  610E
06144:  MOVFF  01,6BB
06148:  MOVLW  86
0614A:  MOVLB  6
0614C:  MOVWF  xBC
0614E:  MOVFF  01,6BD
06152:  MOVLB  0
06154:  CALL   3AC0
....................    write_ds1302(0x88,get_bcd(mth)); 
06158:  MOVFF  6B6,6BB
0615C:  RCALL  610E
0615E:  MOVFF  01,6BB
06162:  MOVLW  88
06164:  MOVLB  6
06166:  MOVWF  xBC
06168:  MOVFF  01,6BD
0616C:  MOVLB  0
0616E:  CALL   3AC0
....................    write_ds1302(0x8c,get_bcd(year)); 
06172:  MOVFF  6B7,6BB
06176:  RCALL  610E
06178:  MOVFF  01,6BB
0617C:  MOVLW  8C
0617E:  MOVLB  6
06180:  MOVWF  xBC
06182:  MOVFF  01,6BD
06186:  MOVLB  0
06188:  CALL   3AC0
....................    write_ds1302(0x8a,get_bcd(dow)); 
0618C:  MOVFF  6B8,6BB
06190:  RCALL  610E
06192:  MOVFF  01,6BB
06196:  MOVLW  8A
06198:  MOVLB  6
0619A:  MOVWF  xBC
0619C:  MOVFF  01,6BD
061A0:  MOVLB  0
061A2:  CALL   3AC0
....................    write_ds1302(0x84,get_bcd(hr)); 
061A6:  MOVFF  6B9,6BB
061AA:  RCALL  610E
061AC:  MOVFF  01,6BB
061B0:  MOVLW  84
061B2:  MOVLB  6
061B4:  MOVWF  xBC
061B6:  MOVFF  01,6BD
061BA:  MOVLB  0
061BC:  CALL   3AC0
....................    write_ds1302(0x82,get_bcd(min)); 
061C0:  MOVFF  6BA,6BB
061C4:  RCALL  610E
061C6:  MOVFF  01,6BB
061CA:  MOVLW  82
061CC:  MOVLB  6
061CE:  MOVWF  xBC
061D0:  MOVFF  01,6BD
061D4:  MOVLB  0
061D6:  CALL   3AC0
....................    write_ds1302(0x80,get_bcd(0)); 
061DA:  MOVLB  6
061DC:  CLRF   xBB
061DE:  MOVLB  0
061E0:  RCALL  610E
061E2:  MOVFF  01,6BB
061E6:  MOVLW  80
061E8:  MOVLB  6
061EA:  MOVWF  xBC
061EC:  MOVFF  01,6BD
061F0:  MOVLB  0
061F2:  CALL   3AC0
.................... } 
061F6:  GOTO   A5B8 (RETURN)
....................  
.................... void rtc_get_date(BYTE& day, BYTE& mth, BYTE& year, BYTE& dow) { 
....................    day = rm_bcd(read_ds1302(0x87)); 
*
082A0:  MOVLW  87
082A2:  MOVLB  6
082A4:  MOVWF  xB9
082A6:  MOVLB  0
082A8:  CALL   3AD6
082AC:  MOVFF  01,6B5
082B0:  MOVFF  01,6BA
082B4:  CALL   597E
082B8:  MOVFF  01,2A0
....................    mth = rm_bcd(read_ds1302(0x89)); 
082BC:  MOVLW  89
082BE:  MOVLB  6
082C0:  MOVWF  xB9
082C2:  MOVLB  0
082C4:  CALL   3AD6
082C8:  MOVFF  01,6B5
082CC:  MOVFF  01,6BA
082D0:  CALL   597E
082D4:  MOVFF  01,29F
....................    year = rm_bcd(read_ds1302(0x8d)); 
082D8:  MOVLW  8D
082DA:  MOVLB  6
082DC:  MOVWF  xB9
082DE:  MOVLB  0
082E0:  CALL   3AD6
082E4:  MOVFF  01,6B5
082E8:  MOVFF  01,6BA
082EC:  CALL   597E
082F0:  MOVFF  01,29E
....................    dow = rm_bcd(read_ds1302(0x8b)); 
082F4:  MOVLW  8B
082F6:  MOVLB  6
082F8:  MOVWF  xB9
082FA:  MOVLB  0
082FC:  CALL   3AD6
08300:  MOVFF  01,6B5
08304:  MOVFF  01,6BA
08308:  CALL   597E
0830C:  MOVFF  01,2A4
.................... } 
....................  
.................... void rtc_get_time(BYTE& hr, BYTE& min, BYTE& sec) { 
....................    hr = rm_bcd(read_ds1302(0x85)); 
08310:  MOVLW  85
08312:  MOVLB  6
08314:  MOVWF  xB9
08316:  MOVLB  0
08318:  CALL   3AD6
0831C:  MOVFF  01,6B5
08320:  MOVFF  01,6BA
08324:  CALL   597E
08328:  MOVFF  01,2A1
....................    min = rm_bcd(read_ds1302(0x83)); 
0832C:  MOVLW  83
0832E:  MOVLB  6
08330:  MOVWF  xB9
08332:  MOVLB  0
08334:  CALL   3AD6
08338:  MOVFF  01,6B5
0833C:  MOVFF  01,6BA
08340:  CALL   597E
08344:  MOVFF  01,2A2
....................    sec = rm_bcd(read_ds1302(0x81)); 
08348:  MOVLW  81
0834A:  MOVLB  6
0834C:  MOVWF  xB9
0834E:  MOVLB  0
08350:  CALL   3AD6
08354:  MOVFF  01,6B5
08358:  MOVFF  01,6BA
0835C:  CALL   597E
08360:  MOVFF  01,2A3
.................... } 
....................  
.................... void rtc_write_nvr(BYTE address, BYTE data) { 
....................    write_ds1302(address|0xc0,data); 
.................... } 
....................  
.................... BYTE rtc_read_nvr(BYTE address) { 
....................     return(read_ds1302(address|0xc1)); 
.................... } 
....................  
.................... #include <24512.c> 
.................... /////////////////////////////////////////////////////////////////////////// 
.................... ////   Library for a 24LC512 serial EEPROM                             //// 
.................... ////                                                                   //// 
.................... ////   init_ext_eeprom();    Call before the other functions are used  //// 
.................... ////                                                                   //// 
.................... ////   write_ext_eeprom(a, d);  Write the byte d to the address a      //// 
.................... ////                                                                   //// 
.................... ////   d = read_ext_eeprom(a);   Read the byte d from the address a    //// 
.................... ////                                                                   //// 
.................... ////   The main program may define eeprom_sda                          //// 
.................... ////   and eeprom_scl to override the defaults below.                  //// 
.................... ////                                                                   //// 
.................... /////////////////////////////////////////////////////////////////////////// 
.................... ////        (C) Copyright 1996,2003 Custom Computer Services           //// 
.................... //// This source code may only be used by licensed users of the CCS C  //// 
.................... //// compiler.  This source code may only be distributed to other      //// 
.................... //// licensed users of the CCS C compiler.  No other use, reproduction //// 
.................... //// or distribution is permitted without written permission.          //// 
.................... //// Derivative programs created using this software in object code    //// 
.................... //// form are not restricted in any way.                               //// 
.................... /////////////////////////////////////////////////////////////////////////// 
....................  
.................... #ifndef EEPROM_SDA 
....................  
.................... #define EEPROM_SDA  PIN_C4 
.................... #define EEPROM_SCL  PIN_C3 
....................  
.................... #endif 
....................  
.................... #use i2c(master, sda=EEPROM_SDA, scl=EEPROM_SCL) 
*
0254C:  MOVLW  08
0254E:  MOVWF  01
02550:  MOVLW  05
02552:  MOVWF  00
02554:  DECFSZ 00,F
02556:  BRA    2554
02558:  BCF    F8B.3
0255A:  BCF    F94.3
0255C:  MOVLW  06
0255E:  MOVWF  00
02560:  DECFSZ 00,F
02562:  BRA    2560
02564:  MOVLB  6
02566:  RLCF   xCB,F
02568:  BCF    F8B.4
0256A:  BTFSC  FD8.0
0256C:  BSF    F94.4
0256E:  BTFSS  FD8.0
02570:  BCF    F94.4
02572:  BSF    F94.3
02574:  BTFSS  F82.3
02576:  BRA    2574
02578:  DECFSZ 01,F
0257A:  BRA    257E
0257C:  BRA    2582
0257E:  MOVLB  0
02580:  BRA    2550
02582:  MOVLW  05
02584:  MOVWF  00
02586:  DECFSZ 00,F
02588:  BRA    2586
0258A:  BCF    F8B.3
0258C:  BCF    F94.3
0258E:  NOP   
02590:  BSF    F94.4
02592:  MOVLW  06
02594:  MOVWF  00
02596:  DECFSZ 00,F
02598:  BRA    2596
0259A:  MOVLW  06
0259C:  MOVWF  00
0259E:  DECFSZ 00,F
025A0:  BRA    259E
025A2:  BSF    F94.3
025A4:  BTFSS  F82.3
025A6:  BRA    25A4
025A8:  CLRF   01
025AA:  MOVLW  06
025AC:  MOVWF  00
025AE:  DECFSZ 00,F
025B0:  BRA    25AE
025B2:  BTFSC  F82.4
025B4:  BSF    01.0
025B6:  BCF    F8B.3
025B8:  BCF    F94.3
025BA:  BCF    F8B.4
025BC:  BCF    F94.4
025BE:  MOVLB  0
025C0:  RETLW  00
025C2:  MOVLW  08
025C4:  MOVLB  6
025C6:  MOVWF  xBE
025C8:  MOVFF  00,6BF
025CC:  BSF    F94.4
025CE:  MOVLW  06
025D0:  MOVWF  00
025D2:  DECFSZ 00,F
025D4:  BRA    25D2
025D6:  BSF    F94.3
025D8:  BTFSS  F82.3
025DA:  BRA    25D8
025DC:  BTFSC  F82.4
025DE:  BSF    FD8.0
025E0:  BTFSS  F82.4
025E2:  BCF    FD8.0
025E4:  RLCF   01,F
025E6:  MOVLW  05
025E8:  MOVWF  00
025EA:  DECFSZ 00,F
025EC:  BRA    25EA
025EE:  BCF    F94.3
025F0:  BCF    F8B.3
025F2:  DECFSZ xBE,F
025F4:  BRA    25CC
025F6:  BSF    F94.4
025F8:  MOVLW  06
025FA:  MOVWF  00
025FC:  DECFSZ 00,F
025FE:  BRA    25FC
02600:  BCF    F8B.4
02602:  MOVF   xBF,W
02604:  BTFSS  FD8.2
02606:  BCF    F94.4
02608:  NOP   
0260A:  BSF    F94.3
0260C:  BTFSS  F82.3
0260E:  BRA    260C
02610:  MOVLW  05
02612:  MOVWF  00
02614:  DECFSZ 00,F
02616:  BRA    2614
02618:  BCF    F8B.3
0261A:  BCF    F94.3
0261C:  MOVLW  06
0261E:  MOVWF  00
02620:  DECFSZ 00,F
02622:  BRA    2620
02624:  BCF    F8B.4
02626:  BCF    F94.4
02628:  MOVLB  0
0262A:  RETLW  00
....................  
.................... #define EEPROM_ADDRESS long int 
.................... #define EEPROM_SIZE   65535 
....................  
.................... void init_ext_eeprom() 
.................... { 
....................    output_float(EEPROM_SCL); 
....................    output_float(EEPROM_SDA); 
....................  
.................... } 
....................  
.................... void write_ext_eeprom(long int address, BYTE data) 
.................... { 
....................    short int status; 
....................    i2c_start(); 
*
06B54:  BSF    F94.4
06B56:  MOVLW  05
06B58:  MOVWF  00
06B5A:  DECFSZ 00,F
06B5C:  BRA    6B5A
06B5E:  BSF    F94.3
06B60:  MOVLW  06
06B62:  MOVWF  00
06B64:  DECFSZ 00,F
06B66:  BRA    6B64
06B68:  BCF    F8B.4
06B6A:  BCF    F94.4
06B6C:  MOVLW  05
06B6E:  MOVWF  00
06B70:  DECFSZ 00,F
06B72:  BRA    6B70
06B74:  BCF    F8B.3
06B76:  BCF    F94.3
....................    i2c_write(0xa0); 
06B78:  MOVLW  A0
06B7A:  MOVLB  6
06B7C:  MOVWF  xCB
06B7E:  MOVLB  0
06B80:  CALL   254C
....................    i2c_write(address>>8); 
06B84:  MOVFF  6BD,6C0
06B88:  MOVLB  6
06B8A:  CLRF   xC1
06B8C:  MOVFF  6BD,6CB
06B90:  MOVLB  0
06B92:  CALL   254C
....................    i2c_write(address); 
06B96:  MOVFF  6BC,6CB
06B9A:  CALL   254C
....................    i2c_write(data); 
06B9E:  MOVFF  6BE,6CB
06BA2:  CALL   254C
....................    i2c_stop(); 
06BA6:  BCF    F94.4
06BA8:  NOP   
06BAA:  BSF    F94.3
06BAC:  BTFSS  F82.3
06BAE:  BRA    6BAC
06BB0:  MOVLW  05
06BB2:  MOVWF  00
06BB4:  DECFSZ 00,F
06BB6:  BRA    6BB4
06BB8:  BRA    6BBA
06BBA:  NOP   
06BBC:  BSF    F94.4
06BBE:  MOVLW  05
06BC0:  MOVWF  00
06BC2:  DECFSZ 00,F
06BC4:  BRA    6BC2
....................    i2c_start(); 
06BC6:  BSF    F94.4
06BC8:  MOVLW  05
06BCA:  MOVWF  00
06BCC:  DECFSZ 00,F
06BCE:  BRA    6BCC
06BD0:  BSF    F94.3
06BD2:  MOVLW  06
06BD4:  MOVWF  00
06BD6:  DECFSZ 00,F
06BD8:  BRA    6BD6
06BDA:  BCF    F8B.4
06BDC:  BCF    F94.4
06BDE:  MOVLW  05
06BE0:  MOVWF  00
06BE2:  DECFSZ 00,F
06BE4:  BRA    6BE2
06BE6:  BCF    F8B.3
06BE8:  BCF    F94.3
....................    status=i2c_write(0xa0); 
06BEA:  MOVLW  A0
06BEC:  MOVLB  6
06BEE:  MOVWF  xCB
06BF0:  MOVLB  0
06BF2:  CALL   254C
06BF6:  MOVF   01,W
06BF8:  MOVLB  6
06BFA:  BCF    xBF.0
06BFC:  BTFSC  01.0
06BFE:  BSF    xBF.0
....................    while(status==1) 
....................    { 
06C00:  BTFSS  xBF.0
06C02:  BRA    6C42
....................       i2c_start(); 
06C04:  BSF    F94.4
06C06:  MOVLW  05
06C08:  MOVWF  00
06C0A:  DECFSZ 00,F
06C0C:  BRA    6C0A
06C0E:  BSF    F94.3
06C10:  MOVLW  06
06C12:  MOVWF  00
06C14:  DECFSZ 00,F
06C16:  BRA    6C14
06C18:  BTFSS  F82.3
06C1A:  BRA    6C18
06C1C:  BCF    F8B.4
06C1E:  BCF    F94.4
06C20:  MOVLW  05
06C22:  MOVWF  00
06C24:  DECFSZ 00,F
06C26:  BRA    6C24
06C28:  BCF    F8B.3
06C2A:  BCF    F94.3
....................       status=i2c_write(0xa0); 
06C2C:  MOVLW  A0
06C2E:  MOVWF  xCB
06C30:  MOVLB  0
06C32:  CALL   254C
06C36:  MOVF   01,W
06C38:  MOVLB  6
06C3A:  BCF    xBF.0
06C3C:  BTFSC  01.0
06C3E:  BSF    xBF.0
....................    } 
06C40:  BRA    6C00
....................    i2c_stop(); 
06C42:  BCF    F94.4
06C44:  NOP   
06C46:  BSF    F94.3
06C48:  BTFSS  F82.3
06C4A:  BRA    6C48
06C4C:  MOVLW  05
06C4E:  MOVWF  00
06C50:  DECFSZ 00,F
06C52:  BRA    6C50
06C54:  BRA    6C56
06C56:  NOP   
06C58:  BSF    F94.4
06C5A:  MOVLW  05
06C5C:  MOVWF  00
06C5E:  DECFSZ 00,F
06C60:  BRA    6C5E
.................... } 
06C62:  MOVLB  0
06C64:  RETLW  00
....................  
.................... BYTE read_ext_eeprom(long int address) { 
....................    BYTE data; 
....................    i2c_start(); 
*
0262C:  BSF    F94.4
0262E:  MOVLW  05
02630:  MOVWF  00
02632:  DECFSZ 00,F
02634:  BRA    2632
02636:  BSF    F94.3
02638:  MOVLW  06
0263A:  MOVWF  00
0263C:  DECFSZ 00,F
0263E:  BRA    263C
02640:  BCF    F8B.4
02642:  BCF    F94.4
02644:  MOVLW  05
02646:  MOVWF  00
02648:  DECFSZ 00,F
0264A:  BRA    2648
0264C:  BCF    F8B.3
0264E:  BCF    F94.3
....................    i2c_write(0xa0); 
02650:  MOVLW  A0
02652:  MOVLB  6
02654:  MOVWF  xCB
02656:  MOVLB  0
02658:  RCALL  254C
....................    i2c_write(address>>8); 
0265A:  MOVFF  6BB,6BD
0265E:  MOVLB  6
02660:  CLRF   xBE
02662:  MOVFF  6BB,6CB
02666:  MOVLB  0
02668:  RCALL  254C
....................    i2c_write(address); 
0266A:  MOVFF  6BA,6CB
0266E:  RCALL  254C
....................    i2c_start(); 
02670:  BSF    F94.4
02672:  MOVLW  05
02674:  MOVWF  00
02676:  DECFSZ 00,F
02678:  BRA    2676
0267A:  BSF    F94.3
0267C:  MOVLW  06
0267E:  MOVWF  00
02680:  DECFSZ 00,F
02682:  BRA    2680
02684:  BTFSS  F82.3
02686:  BRA    2684
02688:  BCF    F8B.4
0268A:  BCF    F94.4
0268C:  MOVLW  05
0268E:  MOVWF  00
02690:  DECFSZ 00,F
02692:  BRA    2690
02694:  BCF    F8B.3
02696:  BCF    F94.3
....................    i2c_write(0xa1); 
02698:  MOVLW  A1
0269A:  MOVLB  6
0269C:  MOVWF  xCB
0269E:  MOVLB  0
026A0:  RCALL  254C
....................    data=i2c_read(0); 
026A2:  CLRF   00
026A4:  RCALL  25C2
026A6:  MOVFF  01,6BC
....................    i2c_stop(); 
026AA:  BCF    F94.4
026AC:  NOP   
026AE:  BSF    F94.3
026B0:  BTFSS  F82.3
026B2:  BRA    26B0
026B4:  MOVLW  05
026B6:  MOVWF  00
026B8:  DECFSZ 00,F
026BA:  BRA    26B8
026BC:  BRA    26BE
026BE:  NOP   
026C0:  BSF    F94.4
026C2:  MOVLW  05
026C4:  MOVWF  00
026C6:  DECFSZ 00,F
026C8:  BRA    26C6
....................    return(data); 
026CA:  MOVLB  6
026CC:  MOVFF  6BC,01
.................... } 
026D0:  MOVLB  0
026D2:  RETLW  00
....................  
....................  
.................... #define   STOP          !input(PIN_B0) 
.................... #define   EMPAQUES      !input(PIN_B1) 
.................... #define   EMPAQUEL      !input(PIN_B2) 
.................... #define   DOORS         !input(PIN_B3) 
.................... #define   DOORL         !input(PIN_B4) 
.................... #define   LOWB          !input(PIN_B5) 
.................... #define   BLOQUEOS      !input(PIN_B6) 
.................... #define   BLOQUEOL      !input(PIN_B7) 
....................  
....................  
.................... #define OFF 0 
.................... #define ON  1 
.................... #define RX_BUFFER_SIZE  10 
.................... char Rx_Buffer[RX_BUFFER_SIZE+1]; 
.................... char Rx_Buffer2[RX_BUFFER_SIZE+1]; 
.................... char RX_Wr_Index=0; 
....................  
.................... //Comunicacion//------------------------ 
.................... byte txbuf[0X25]; 
.................... byte SlaveB0Tx[0X26]; 
.................... byte SlaveC0Tx[0X25]; 
.................... byte SlaveC0Rx[0X25]; 
.................... byte dato=0;            //Contendr la informacin a enviar o recibir 
.................... byte direccion=0;       //Contendr la direccin del esclavo en el bus I2C 
.................... byte posicion=0;        //Contendr la posicin en el buffer de memoria del esclavo donde se almacenar o de donde se recuperar el dato 
.................... //byte ByteConfig1=0,ByteConfig2=0,ByteConfig3=0; 
....................  
.................... /* Tabla de Modulos, Primera Fila Ao Regular y el siguiente ao Bisiesto 
.................... E   F   M   A   M   J   J   A   S   O   N   D 
.................... 0   3   3   6   1   4   6   2   5   0   3   5 
.................... 0   3   4   0   2   5   0   3   6   1   4   6 
.................... */ 
.................... int8 Regular[12]={0,3,3,6,1,4,6,2,5,0,3,5}; 
.................... int8 Bisiesto[12]={0,3,4,0,2,5,0,3,6,1,4,6}; 
....................  
.................... //Salidas//------------------------ 
.................... short suministroAire=OFF,aguaEnfriador=OFF,bombaVacio=OFF,empaqueLimpio=OFF,empaqueSucio=OFF,suministroVapor=OFF,Paso=OFF,outVacio=OFF,Desfogue=OFF,Aire=OFF,cilindroSucio=OFF,cilindroLimpio=OFF,Aux=OFF; 
.................... short seguroValvula=OFF,seguroValvula2=OFF,EstadoAux1=OFF,EstadoAux2=OFF; 
....................  
.................... //Alarmas//--------------------- 
.................... short AlarmaTiempoProlongado=OFF,AlarmaSobreTemperatura=OFF,AlarmaTermostato=OFF,AlarmaPuertaS=OFF,AlarmaPuertaL=OFF,AlarmaEmergencia=OFF,AlarmaVacio=OFF,AlarmaEmpaqueL=OFF,AlarmaEmpaqueS=OFF; 
.................... short AlarmaBomba=OFF,guardaCiclo=OFF,Cilindro=OFF,AlarmaLlenado=OFF,cerroSucio=OFF,cerroLimpio=OFF,pulsoSubirS=OFF,pulsoSubirL=OFF,vacioEmpaqueL=OFF,vacioEmpaqueS=OFF,abrirPuertaL=OFF,abrirPuertaS=OFF,pulsoBajarS=OFF; 
.................... int16 TiempoVacio=600,tVacioEmpaqueS=0,tVacioEmpaqueL=0; 
....................  
.................... //Banderas//-------------------- 
.................... short EstadoAguaEnfriador=OFF,EstadoSuministroV=OFF,EstadoCilindrosL=OFF,EstadoCilindrosS=OFF,EstadoEmpaqueL=OFF,EstadoEmpaqueS=OFF,oprimioIniciar=OFF,oprimioCiclo=OFF,oprimioCicloP=OFF,oprimioConfig=OFF; 
.................... short IniciaLlenado=OFF,IniciaCiclo=OFF,Esterilizando=OFF,Secando=OFF,SensadoNivel=OFF,Desfogando=OFF,DesfogueSuave=OFF,CalderinLleno=OFF,Start=OFF; 
.................... short EstadoDesfogue=OFF,EstadoSuministro=OFF,EstadoAire=OFF,PruebaEstados=OFF,disp_Guarda=OFF,Ciclo=OFF,EstadoAgua2=OFF; 
.................... short Op=OFF,Op2=OFF,Minutos=OFF,Segundos=OFF,GuardaEEPROM=OFF,EstadoPaso=OFF,EstadoVacio=OFF,EstadoBuzzer=OFF,flagAlarma=OFF; 
.................... short flagBuzzer=OFF,flagSilencio=OFF,Finalizo=OFF,AlarmaPresion=OFF,EstadoACierre=OFF,EstadoBomba=OFF,Libre=OFF,ingreso=OFF,Fugas=OFF; 
.................... short PreCalentamiento=OFF,IniciaVacio=OFF,IniciaVacio2=OFF,Vacio=OFF,flag_vac=OFF,flag_vacio=OFF,flag_pulso=OFF,EstadoAireBomba=OFF; 
.................... short SensadoNivelL=OFF,NivelBajo=OFF,onBomba=OFF,flagBombaAgua=OFF,flagBombaAguaOff=OFF,flagImprimir=OFF,entro=OFF; 
.................... short EstadoEmpaque=OFF,EstadoSSR1=OFF,EstadoSSR2=OFF,ReservorioLleno=OFF,SensadoNivelR=OFF; 
....................  
.................... //Tiempos//--------------------- 
.................... int16 TiempoCiclo=0,TiempoSensadoNivel=0,Tp=0,Tc=0,tguarda=0,tNivelBajo=0,tIniciar=0,tCiclof=0,tCicloP=0,tConfig=0,TiempoLlenado=OFF,tStop=0; 
.................... int8 sEst=0,mEst=0,sSec=0,mSec=0,sEstp=0,mEstp=0,sSecp=0,mSecp=0;// Tiempo transcurrido 
....................  
.................... //Control//------------------------ 
.................... float PromPresion[20]={0.0,0.0,0.0,0.0,0.0,0.0,0.0,0.0,0.0,0.0,0.0,0.0,0.0,0.0,0.0,0.0,0.0,0.0,0.0,0.0}; 
.................... float PromPresionp[20]={0.0,0.0,0.0,0.0,0.0,0.0,0.0,0.0,0.0,0.0,0.0,0.0,0.0,0.0,0.0,0.0,0.0,0.0,0.0,0.0}; 
.................... float Temporal=0.0,Aumento=0.0,tmp2=0.0; 
.................... float K=0.0012858; 
.................... float R10=6800,AN=0,BN=0; 
.................... float X[2]={0.0,0.0}; 
.................... float promediopresion=0.0,promediopresionp=0.0; 
.................... int8 h=0,l=0,MediaMovil=20,PantallaPrincipal=0,TipoClave=0,Modulo=0,TiempoSensadoNivelR=0,subirPuertaLimpio=0,cerroSucioInt=0,cerroLimpioInt=0; 
.................... float V0=0.0,Pt,Tciclo=10.0,Tpulso=0.0,error=0.0,Prom=0.0,Temperature=0.0,tmp=0.0,Ganancia=25.0,Ganancia2=20.0,desvio=1.0; 
.................... float V1=0.0,Presion=0.0,V2=0.0,Presionp=0.0; 
.................... float Temperatura=0.0,Temperatura2=0.0; 
.................... float a=0.0011,b=2.3302,c=-244.0723; 
.................... int8 Integral=0,Derivativo=0,CicloLibre=0; 
....................  
.................... //Varios//-------------------------------- 
.................... short desfoguelento=0,Lectura=0,Grafica=0; 
.................... short disp_Stop=0,flagTC=0,flagImprime=0; 
.................... int8 Control=0,tiemporecta=0,Controlando=0,timpresion=2,CalculoImpresion=0,Inicio=1,Dato_Exitoso=0,Dato2=0,Codigo=0; 
.................... int8 Menu=0, MenuAnt=0,MenuAntt=240,i=0,CiclosL=0,CiclosH=0,CicloSeleccionado=0,Tapertura=0; 
.................... int16 CantidadPulsos=4,tEmpaqueS=0,tEmpaqueL=0; 
.................... int8 Setpoint=0,Opcion=1,Opcion2=1,tiempo_esterilizacion=0,tiempo_secado=0; 
.................... int16 tiempos=0,tiempos2=0,tiempos3=0,tiempoctrl=0,Nivel=0,tinicio=0,PresionCamara=0,PresionPreCamara=0,Ciclos=0,tbomba=0,tvacio=0,tiempoImpresion=0,PresionFinal=0; 
.................... signed int  Password[4]={0,0,0,0};        // Contrasena Almacenada de 4 digitos 
.................... int8 r=0,t=0,r22=0,t2=0,TiempoControl=0,NivelDes=0; 
.................... int8 y=0,ConteoBuzzer=0,posicionDato=0,codigoAlarma=0,codigoAnt=0,codigoUsuario2=0; 
.................... int16 tbuzzer=0,tsilencio=0; 
.................... int8 Year=18,Mes=9,Dia=13,Hora=0,Minuto=0,Segundo=0,dow=0,cicloVisualizado=0,cicloVisto=0,NivelVacio=25,Atmosferica=75,PulsoPositivo=10,PulsosVacio=0; 
.................... int8 YearTx=0,MesTx=0,DiaTx=0,HoraTx=0,MinutoTx=0,dowTx=0,SetTime=0,Imprime=0,Pulsos=0,j=0,codigoUsuario=0,codigoUsuarioant=0; 
.................... signed int8 G1=0,G2=0,sg1=0,sg2=0; 
.................... const char Texto[12][20]={"CALENTAMIENTO","NO ENVUELTOS 134","NO ENVUELTOS 121","ENVUELTOS 134","ENVUELTOS 121","ENVUELTO DOBLE 1", 
.................... "ENVUELTO DOBLE 2","PRION","BOWIE & DICK","TEST DE FUGAS","TEST DE COMPONENTES","HORA Y FECHA"}; 
....................  
.................... //Textil & Instrumental 134C, 5m,15m 
.................... //Prion 134C, 20m,15m 
.................... //Caucho 121C, 25m,15m 
.................... //Contenedores 134C, 5m,25m 
.................... //Rapid 134C, 5m,8m 
....................  
.................... char usuario[20]; 
.................... float TCiclos[7]; 
.................... int16 PcCiclos[7]; 
.................... int16 PpcCiclos[7]; 
.................... int8 horaCiclos[7]; 
.................... int8 minutoCiclos[7]; 
.................... int8 ACiclos[7]; 
.................... int8 diaCiclos=0,mesCiclos=0,yearCiclos=0,usuarioCiclos=0,cicloCiclos=0; 
.................... short estados[30]={0,0,0,0,0,0,0,0,0,0,0,0,0,0,0,0,0,0,0,0,0,0,0,0,0,0,0,0,0,0}; 
....................  
.................... typedef struct{ 
....................    int8 Password[4]; 
.................... }Claves; 
....................  
.................... typedef struct{ 
....................    int8 Temperatura; 
....................    int8 Minutoest; 
....................    int8 Segundoest; 
....................    int8 Minutosec; 
....................    int8 Segundosec; 
....................    int8 PulsosVacio; 
....................    int8 NivelVacio; 
....................    int8 NivelDesfogue; 
.................... }Personalizado; 
....................  
.................... typedef struct{ 
....................    float BN; 
....................    float AN; 
....................    float V0; 
....................    float Pt; 
....................    float RPT100; 
....................    int8 l; 
....................    int8 h; 
....................    float Prom; 
....................    float Temperature; 
....................    int8 Ajuste; 
....................    int8 Ajusten; 
....................    float promedio[80]; 
....................    float Gain; 
.................... }SensorPT100; 
....................  
.................... SensorPT100 Sensor[2]; 
.................... Personalizado CiclosPersonalizados[20]; 
.................... Claves Clave[10]; 
....................  
.................... #include "Funciones.h" 
....................  
.................... void BorraBuffer(void){ 
.................... RX_Buffer[0]=0; 
*
05B3C:  CLRF   30
.................... RX_Buffer[1]=0; 
05B3E:  CLRF   31
.................... RX_Buffer[2]=0; 
05B40:  CLRF   32
.................... RX_Buffer[3]=0; 
05B42:  CLRF   33
.................... RX_Buffer[4]=0; 
05B44:  CLRF   34
.................... RX_Buffer[5]=0; 
05B46:  CLRF   35
.................... RX_Buffer[6]=0; 
05B48:  CLRF   36
.................... RX_Buffer[7]=0; 
05B4A:  CLRF   37
.................... RX_Buffer[8]=0; 
05B4C:  CLRF   38
.................... RX_Buffer[9]=0; 
05B4E:  CLRF   39
....................  
.................... RX_Buffer2[0]=0; 
05B50:  CLRF   3B
.................... RX_Buffer2[1]=0; 
05B52:  CLRF   3C
.................... RX_Buffer2[2]=0; 
05B54:  CLRF   3D
.................... RX_Buffer2[3]=0; 
05B56:  CLRF   3E
.................... RX_Buffer2[4]=0; 
05B58:  CLRF   3F
.................... RX_Buffer2[5]=0; 
05B5A:  CLRF   40
.................... RX_Buffer2[6]=0; 
05B5C:  CLRF   41
.................... RX_Buffer2[7]=0; 
05B5E:  CLRF   42
.................... RX_Buffer2[8]=0; 
05B60:  CLRF   43
.................... RX_Buffer2[9]=0; 
05B62:  CLRF   44
.................... } 
05B64:  GOTO   5BDA (RETURN)
....................  
.................... void SendDataDisplay(void){ 
.................... delay_us(10); 
*
0416A:  MOVLW  10
0416C:  MOVWF  00
0416E:  DECFSZ 00,F
04170:  BRA    416E
04172:  NOP   
.................... putc(0xFF); 
04174:  MOVLW  FF
04176:  RCALL  4162
.................... delay_us(10); 
04178:  MOVLW  10
0417A:  MOVWF  00
0417C:  DECFSZ 00,F
0417E:  BRA    417C
04180:  NOP   
.................... putc(0xFF); 
04182:  MOVLW  FF
04184:  RCALL  4162
.................... delay_us(10); 
04186:  MOVLW  10
04188:  MOVWF  00
0418A:  DECFSZ 00,F
0418C:  BRA    418A
0418E:  NOP   
.................... putc(0xFF); 
04190:  MOVLW  FF
04192:  RCALL  4162
.................... delay_us(10); 
04194:  MOVLW  10
04196:  MOVWF  00
04198:  DECFSZ 00,F
0419A:  BRA    4198
0419C:  NOP   
.................... } 
0419E:  RETLW  00
....................  
.................... short esBisiesto(int8 year) { 
....................      return ((year % 4 == 0 && year % 100 != 0) || year % 400 == 0); 
*
060BC:  MOVLB  6
060BE:  MOVF   xB5,W
060C0:  ANDLW  03
060C2:  BNZ   60D6
060C4:  MOVFF  6B5,6BE
060C8:  MOVLW  64
060CA:  MOVWF  xBF
060CC:  MOVLB  0
060CE:  RCALL  5C42
060D0:  MOVF   00,F
060D2:  BNZ   6104
060D4:  MOVLB  6
060D6:  CLRF   xBA
060D8:  MOVFF  6B5,6B9
060DC:  MOVLW  01
060DE:  MOVWF  xBC
060E0:  MOVLW  90
060E2:  MOVWF  xBB
060E4:  MOVLB  0
060E6:  RCALL  6076
060E8:  MOVFF  00,6B6
060EC:  MOVLB  6
060EE:  MOVFF  03,6B7
060F2:  MOVF   xB6,F
060F4:  BNZ   6100
060F6:  MOVF   xB7,F
060F8:  BTFSS  FD8.2
060FA:  BRA    6100
060FC:  MOVLB  0
060FE:  BRA    6104
06100:  MOVLW  00
06102:  BRA    6108
06104:  MOVLW  01
06106:  MOVLB  6
06108:  MOVWF  01
.................... } 
0610A:  MOVLB  0
0610C:  RETLW  00
....................  
.................... void LimitaDia(){ 
....................    if(MesTx>12) 
*
061FA:  MOVLB  2
061FC:  MOVF   xAC,W
061FE:  SUBLW  0C
06200:  BC    6206
....................       MesTx=10; 
06202:  MOVLW  0A
06204:  MOVWF  xAC
....................    if(DiaTx>31) 
06206:  MOVF   xAD,W
06208:  SUBLW  1F
0620A:  BC    6210
....................       DiaTx=16; 
0620C:  MOVLW  10
0620E:  MOVWF  xAD
....................    if(YearTx>99) 
06210:  MOVF   xAB,W
06212:  SUBLW  63
06214:  BC    621A
....................       YearTx=18;    
06216:  MOVLW  12
06218:  MOVWF  xAB
....................    if(HoraTx>24) 
0621A:  MOVF   xAE,W
0621C:  SUBLW  18
0621E:  BC    6224
....................       HoraTx=11;       
06220:  MOVLW  0B
06222:  MOVWF  xAE
....................    if(MinutoTx>59) 
06224:  MOVF   xAF,W
06226:  SUBLW  3B
06228:  BC    622E
....................       MinutoTx=30;       
0622A:  MOVLW  1E
0622C:  MOVWF  xAF
....................     
....................       if(MesTx==2){ 
0622E:  MOVF   xAC,W
06230:  SUBLW  02
06232:  BNZ   625E
....................          if(esBisiesto(YearTx)){ 
06234:  MOVFF  2AB,6B5
06238:  MOVLB  0
0623A:  RCALL  60BC
0623C:  MOVF   01,F
0623E:  BZ    6250
....................             if(DiaTx>29){ 
06240:  MOVLB  2
06242:  MOVF   xAD,W
06244:  SUBLW  1D
06246:  BC    624C
....................                DiaTx=29; 
06248:  MOVLW  1D
0624A:  MOVWF  xAD
....................                //glcd_fillScreen(OFF); 
....................             } 
....................          }else{ 
0624C:  BRA    625C
0624E:  MOVLB  0
....................             if(DiaTx>28){ 
06250:  MOVLB  2
06252:  MOVF   xAD,W
06254:  SUBLW  1C
06256:  BC    625C
....................                DiaTx=28; 
06258:  MOVLW  1C
0625A:  MOVWF  xAD
....................                //glcd_fillScreen(OFF); 
....................             } 
....................          } 
....................       }else{ 
0625C:  BRA    6288
....................          if(MesTx<=7){ 
0625E:  MOVF   xAC,W
06260:  SUBLW  07
06262:  BNC   6276
....................             if(MesTx % 2 ==0){ 
06264:  MOVF   xAC,W
06266:  ANDLW  01
06268:  BNZ   6274
....................                if(DiaTx>30){ 
0626A:  MOVF   xAD,W
0626C:  SUBLW  1E
0626E:  BC    6274
....................                   DiaTx=30;  
06270:  MOVLW  1E
06272:  MOVWF  xAD
....................                   //glcd_fillScreen(OFF); 
....................                } 
....................             } 
....................          }else{ 
06274:  BRA    6288
....................             if(MesTx % 2 ==1){ 
06276:  MOVF   xAC,W
06278:  ANDLW  01
0627A:  SUBLW  01
0627C:  BNZ   6288
....................                if(DiaTx>30){ 
0627E:  MOVF   xAD,W
06280:  SUBLW  1E
06282:  BC    6288
....................                   DiaTx=30;  
06284:  MOVLW  1E
06286:  MOVWF  xAD
....................                   //glcd_fillScreen(OFF); 
....................                } 
....................             } 
....................          } 
....................       } 
.................... } 
06288:  MOVLB  0
0628A:  GOTO   A814 (RETURN)
....................  
.................... void ActualizaRecta(){ 
....................    X[y]=Temperature; 
*
07536:  MOVLB  2
07538:  MOVF   x94,W
0753A:  MULLW  04
0753C:  MOVF   FF3,W
0753E:  CLRF   03
07540:  ADDLW  E6
07542:  MOVWF  FE9
07544:  MOVLW  01
07546:  ADDWFC 03,W
07548:  MOVWF  FEA
0754A:  MOVFF  218,FEF
0754E:  MOVFF  219,FEC
07552:  MOVFF  21A,FEC
07556:  MOVFF  21B,FEC
....................    y++; 
0755A:  INCF   x94,F
....................    if(y>=2){ 
0755C:  MOVF   x94,W
0755E:  SUBLW  01
07560:  BC    759E
....................       y=0; 
07562:  CLRF   x94
....................       Aumento=X[1]-X[0]; 
07564:  BSF    FD8.1
07566:  MOVFF  1ED,6CA
0756A:  MOVFF  1EC,6C9
0756E:  MOVFF  1EB,6C8
07572:  MOVFF  1EA,6C7
07576:  MOVFF  1E9,6CE
0757A:  MOVFF  1E8,6CD
0757E:  MOVFF  1E7,6CC
07582:  MOVFF  1E6,6CB
07586:  MOVLB  0
07588:  CALL   223E
0758C:  MOVFF  03,1D1
07590:  MOVFF  02,1D0
07594:  MOVFF  01,1CF
07598:  MOVFF  00,1CE
0759C:  MOVLB  2
....................    } 
.................... } 
0759E:  MOVLB  0
075A0:  GOTO   761C (RETURN)
....................  
.................... // Funcion para conversor analogo-digital 
.................... float sensores(int x){ 
.................... float y;set_adc_channel(x);delay_ms(1);y=read_adc();return (y); 
*
041A8:  MOVLB  6
041AA:  RLCF   xBB,W
041AC:  MOVWF  00
041AE:  RLCF   00,F
041B0:  MOVLW  FC
041B2:  ANDWF  00,F
041B4:  MOVFF  00,01
041B8:  MOVF   FC2,W
041BA:  ANDLW  C3
041BC:  IORWF  00,W
041BE:  MOVWF  FC2
041C0:  MOVLW  01
041C2:  MOVWF  xC7
041C4:  MOVLB  0
041C6:  CALL   20B8
041CA:  BSF    FC2.1
041CC:  BTFSC  FC2.1
041CE:  BRA    41CC
041D0:  MOVFF  FC4,6C8
041D4:  MOVFF  FC3,6C7
041D8:  MOVLB  0
041DA:  CALL   2082
041DE:  MOVFF  03,6BF
041E2:  MOVFF  02,6BE
041E6:  MOVFF  01,6BD
041EA:  MOVFF  00,6BC
041EE:  MOVFF  6BC,00
041F2:  MOVFF  6BD,01
041F6:  MOVFF  6BE,02
041FA:  MOVFF  6BF,03
.................... } 
041FE:  RETLW  00
....................  
.................... float LeerPT100(int8 canal,int media) 
.................... { 
....................    Prom=0.0;  
*
042F6:  MOVLB  2
042F8:  CLRF   x17
042FA:  CLRF   x16
042FC:  CLRF   x15
042FE:  CLRF   x14
....................    Sensor[canal].V0 = sensores(canal);   //Lectura de Divisor de Voltaje de PT100 con resistencia de 6.18k (+-2%) 
04300:  MOVLB  6
04302:  CLRF   xC0
04304:  MOVFF  6B7,6BF
04308:  MOVLW  01
0430A:  MOVWF  xC2
0430C:  MOVLW  64
0430E:  MOVWF  xC1
04310:  MOVLB  0
04312:  CALL   252A
04316:  MOVFF  01,6B9
0431A:  MOVLW  08
0431C:  MOVLB  6
0431E:  ADDWF  01,W
04320:  MOVWF  01
04322:  MOVLW  00
04324:  ADDWFC 02,W
04326:  MOVWF  03
04328:  MOVF   01,W
0432A:  ADDLW  25
0432C:  MOVWF  01
0432E:  MOVLW  03
04330:  ADDWFC 03,F
04332:  MOVFF  01,6B9
04336:  MOVFF  03,6BA
0433A:  MOVFF  6B7,6BB
0433E:  MOVLB  0
04340:  RCALL  41A8
04342:  MOVFF  6BA,FEA
04346:  MOVFF  6B9,FE9
0434A:  MOVFF  00,FEF
0434E:  MOVFF  01,FEC
04352:  MOVFF  02,FEC
04356:  MOVFF  03,FEC
....................    Sensor[canal].V0 = Sensor[canal].V0/Sensor[canal].Gain; // Se elimina la ganancia 
0435A:  MOVLB  6
0435C:  CLRF   xC0
0435E:  MOVFF  6B7,6BF
04362:  MOVLW  01
04364:  MOVWF  xC2
04366:  MOVLW  64
04368:  MOVWF  xC1
0436A:  MOVLB  0
0436C:  CALL   252A
04370:  MOVFF  01,6B9
04374:  MOVLW  08
04376:  MOVLB  6
04378:  ADDWF  01,W
0437A:  MOVWF  01
0437C:  MOVLW  00
0437E:  ADDWFC 02,W
04380:  MOVWF  03
04382:  MOVF   01,W
04384:  ADDLW  25
04386:  MOVWF  01
04388:  MOVLW  03
0438A:  ADDWFC 03,F
0438C:  MOVFF  01,6B9
04390:  MOVFF  03,6BA
04394:  CLRF   xC0
04396:  MOVFF  6B7,6BF
0439A:  MOVLW  01
0439C:  MOVWF  xC2
0439E:  MOVLW  64
043A0:  MOVWF  xC1
043A2:  MOVLB  0
043A4:  CALL   252A
043A8:  MOVFF  01,6BB
043AC:  MOVLW  08
043AE:  MOVLB  6
043B0:  ADDWF  01,W
043B2:  MOVWF  01
043B4:  MOVLW  00
043B6:  ADDWFC 02,W
043B8:  MOVWF  03
043BA:  MOVF   01,W
043BC:  ADDLW  25
043BE:  MOVWF  FE9
043C0:  MOVLW  03
043C2:  ADDWFC 03,W
043C4:  MOVWF  FEA
043C6:  MOVFF  FEF,6BB
043CA:  MOVFF  FEC,6BC
043CE:  MOVFF  FEC,6BD
043D2:  MOVFF  FEC,6BE
043D6:  CLRF   xC0
043D8:  MOVFF  6B7,6BF
043DC:  MOVLW  01
043DE:  MOVWF  xC2
043E0:  MOVLW  64
043E2:  MOVWF  xC1
043E4:  MOVLB  0
043E6:  CALL   252A
043EA:  MOVFF  02,6C0
043EE:  MOVFF  01,6BF
043F2:  MOVLW  60
043F4:  MOVLB  6
043F6:  ADDWF  01,W
043F8:  MOVWF  01
043FA:  MOVLW  01
043FC:  ADDWFC 02,W
043FE:  MOVWF  03
04400:  MOVF   01,W
04402:  ADDLW  25
04404:  MOVWF  FE9
04406:  MOVLW  03
04408:  ADDWFC 03,W
0440A:  MOVWF  FEA
0440C:  MOVFF  FEF,00
04410:  MOVFF  FEC,01
04414:  MOVFF  FEC,02
04418:  MOVFF  FEC,03
0441C:  MOVFF  6BE,6C4
04420:  MOVFF  6BD,6C3
04424:  MOVFF  6BC,6C2
04428:  MOVFF  6BB,6C1
0442C:  MOVFF  03,6C8
04430:  MOVFF  02,6C7
04434:  MOVFF  01,6C6
04438:  MOVFF  00,6C5
0443C:  MOVLB  0
0443E:  CALL   20E0
04442:  MOVFF  6BA,FEA
04446:  MOVFF  6B9,FE9
0444A:  MOVFF  00,FEF
0444E:  MOVFF  01,FEC
04452:  MOVFF  02,FEC
04456:  MOVFF  03,FEC
....................    Sensor[canal].V0 = Sensor[canal].V0+14.83; // Se suma voltaje de divisor fijo 
0445A:  MOVLB  6
0445C:  CLRF   xC0
0445E:  MOVFF  6B7,6BF
04462:  MOVLW  01
04464:  MOVWF  xC2
04466:  MOVLW  64
04468:  MOVWF  xC1
0446A:  MOVLB  0
0446C:  CALL   252A
04470:  MOVFF  01,6B9
04474:  MOVLW  08
04476:  MOVLB  6
04478:  ADDWF  01,W
0447A:  MOVWF  01
0447C:  MOVLW  00
0447E:  ADDWFC 02,W
04480:  MOVWF  03
04482:  MOVF   01,W
04484:  ADDLW  25
04486:  MOVWF  01
04488:  MOVLW  03
0448A:  ADDWFC 03,F
0448C:  MOVFF  01,6B9
04490:  MOVFF  03,6BA
04494:  CLRF   xC0
04496:  MOVFF  6B7,6BF
0449A:  MOVLW  01
0449C:  MOVWF  xC2
0449E:  MOVLW  64
044A0:  MOVWF  xC1
044A2:  MOVLB  0
044A4:  CALL   252A
044A8:  MOVFF  01,6BB
044AC:  MOVLW  08
044AE:  MOVLB  6
044B0:  ADDWF  01,W
044B2:  MOVWF  01
044B4:  MOVLW  00
044B6:  ADDWFC 02,W
044B8:  MOVWF  03
044BA:  MOVF   01,W
044BC:  ADDLW  25
044BE:  MOVWF  FE9
044C0:  MOVLW  03
044C2:  ADDWFC 03,W
044C4:  MOVWF  FEA
044C6:  MOVFF  FEF,6BB
044CA:  MOVFF  FEC,6BC
044CE:  MOVFF  FEC,6BD
044D2:  MOVFF  FEC,6BE
044D6:  MOVFF  FEA,6C0
044DA:  MOVFF  FE9,6BF
044DE:  BCF    FD8.1
044E0:  MOVFF  6BE,6CA
044E4:  MOVFF  6BD,6C9
044E8:  MOVFF  6BC,6C8
044EC:  MOVFF  6BB,6C7
044F0:  MOVLW  AE
044F2:  MOVWF  xCE
044F4:  MOVLW  47
044F6:  MOVWF  xCD
044F8:  MOVLW  6D
044FA:  MOVWF  xCC
044FC:  MOVLW  82
044FE:  MOVWF  xCB
04500:  MOVLB  0
04502:  CALL   223E
04506:  MOVFF  6C0,FEA
0450A:  MOVFF  6BF,FE9
0450E:  MOVFF  6BA,FEA
04512:  MOVFF  6B9,FE9
04516:  MOVFF  00,FEF
0451A:  MOVFF  01,FEC
0451E:  MOVFF  02,FEC
04522:  MOVFF  03,FEC
....................    //Sensor[canal].BN=(Sensor[canal].V0*(R8+R9))+(1023*R9); 
....................    Sensor[canal].Pt = R10/((1023/Sensor[canal].V0)-1); 
04526:  MOVLB  6
04528:  CLRF   xC0
0452A:  MOVFF  6B7,6BF
0452E:  MOVLW  01
04530:  MOVWF  xC2
04532:  MOVLW  64
04534:  MOVWF  xC1
04536:  MOVLB  0
04538:  CALL   252A
0453C:  MOVFF  01,6B9
04540:  MOVLW  0C
04542:  MOVLB  6
04544:  ADDWF  01,W
04546:  MOVWF  01
04548:  MOVLW  00
0454A:  ADDWFC 02,W
0454C:  MOVWF  03
0454E:  MOVF   01,W
04550:  ADDLW  25
04552:  MOVWF  01
04554:  MOVLW  03
04556:  ADDWFC 03,F
04558:  MOVFF  01,6B9
0455C:  MOVFF  03,6BA
04560:  CLRF   xC0
04562:  MOVFF  6B7,6BF
04566:  MOVLW  01
04568:  MOVWF  xC2
0456A:  MOVLW  64
0456C:  MOVWF  xC1
0456E:  MOVLB  0
04570:  CALL   252A
04574:  MOVFF  02,6BC
04578:  MOVFF  01,6BB
0457C:  MOVLW  08
0457E:  MOVLB  6
04580:  ADDWF  01,W
04582:  MOVWF  01
04584:  MOVLW  00
04586:  ADDWFC 02,W
04588:  MOVWF  03
0458A:  MOVF   01,W
0458C:  ADDLW  25
0458E:  MOVWF  FE9
04590:  MOVLW  03
04592:  ADDWFC 03,W
04594:  MOVWF  FEA
04596:  MOVFF  FEF,00
0459A:  MOVFF  FEC,01
0459E:  MOVFF  FEC,02
045A2:  MOVFF  FEC,03
045A6:  CLRF   xC4
045A8:  MOVLW  C0
045AA:  MOVWF  xC3
045AC:  MOVLW  7F
045AE:  MOVWF  xC2
045B0:  MOVLW  88
045B2:  MOVWF  xC1
045B4:  MOVFF  03,6C8
045B8:  MOVFF  02,6C7
045BC:  MOVFF  01,6C6
045C0:  MOVFF  00,6C5
045C4:  MOVLB  0
045C6:  CALL   20E0
045CA:  MOVFF  00,6BB
045CE:  MOVFF  01,6BC
045D2:  MOVFF  02,6BD
045D6:  MOVFF  03,6BE
045DA:  MOVFF  FEA,6C0
045DE:  MOVFF  FE9,6BF
045E2:  BSF    FD8.1
045E4:  MOVFF  03,6CA
045E8:  MOVFF  02,6C9
045EC:  MOVFF  01,6C8
045F0:  MOVFF  00,6C7
045F4:  MOVLB  6
045F6:  CLRF   xCE
045F8:  CLRF   xCD
045FA:  CLRF   xCC
045FC:  MOVLW  7F
045FE:  MOVWF  xCB
04600:  MOVLB  0
04602:  CALL   223E
04606:  MOVFF  6C0,FEA
0460A:  MOVFF  6BF,FE9
0460E:  MOVFF  1DD,6C4
04612:  MOVFF  1DC,6C3
04616:  MOVFF  1DB,6C2
0461A:  MOVFF  1DA,6C1
0461E:  MOVFF  03,6C8
04622:  MOVFF  02,6C7
04626:  MOVFF  01,6C6
0462A:  MOVFF  00,6C5
0462E:  CALL   20E0
04632:  MOVFF  6BA,FEA
04636:  MOVFF  6B9,FE9
0463A:  MOVFF  00,FEF
0463E:  MOVFF  01,FEC
04642:  MOVFF  02,FEC
04646:  MOVFF  03,FEC
....................    //Sensor[canal].Pt=Sensor[canal].Pt-Sensor[canal].RPT100; //Ajuste de impedancia de cableado de PT100    
....................              
....................    if(Sensor[canal].l>(media-1)) 
0464A:  MOVLB  6
0464C:  CLRF   xC0
0464E:  MOVFF  6B7,6BF
04652:  MOVLW  01
04654:  MOVWF  xC2
04656:  MOVLW  64
04658:  MOVWF  xC1
0465A:  MOVLB  0
0465C:  CALL   252A
04660:  MOVFF  02,6BA
04664:  MOVFF  01,6B9
04668:  MOVLW  14
0466A:  MOVLB  6
0466C:  ADDWF  01,W
0466E:  MOVWF  01
04670:  MOVLW  00
04672:  ADDWFC 02,W
04674:  MOVWF  03
04676:  MOVF   01,W
04678:  ADDLW  25
0467A:  MOVWF  FE9
0467C:  MOVLW  03
0467E:  ADDWFC 03,W
04680:  MOVWF  FEA
04682:  MOVFF  FEF,6B9
04686:  MOVLW  01
04688:  SUBWF  xB8,W
0468A:  SUBWF  xB9,W
0468C:  BZ    46C4
0468E:  BNC   46C4
....................    {Sensor[canal].l=0;} 
04690:  CLRF   xC0
04692:  MOVFF  6B7,6BF
04696:  MOVLW  01
04698:  MOVWF  xC2
0469A:  MOVLW  64
0469C:  MOVWF  xC1
0469E:  MOVLB  0
046A0:  CALL   252A
046A4:  MOVFF  01,6B9
046A8:  MOVLW  14
046AA:  MOVLB  6
046AC:  ADDWF  01,W
046AE:  MOVWF  01
046B0:  MOVLW  00
046B2:  ADDWFC 02,W
046B4:  MOVWF  03
046B6:  MOVF   01,W
046B8:  ADDLW  25
046BA:  MOVWF  FE9
046BC:  MOVLW  03
046BE:  ADDWFC 03,W
046C0:  MOVWF  FEA
046C2:  CLRF   FEF
....................     
....................    Sensor[canal].promedio[Sensor[canal].l]=Sensor[canal].Pt;Sensor[canal].l++; 
046C4:  CLRF   xC0
046C6:  MOVFF  6B7,6BF
046CA:  MOVLW  01
046CC:  MOVWF  xC2
046CE:  MOVLW  64
046D0:  MOVWF  xC1
046D2:  MOVLB  0
046D4:  CALL   252A
046D8:  MOVFF  02,6BA
046DC:  MOVFF  01,6B9
046E0:  MOVLW  20
046E2:  MOVLB  6
046E4:  ADDWF  xB9,F
046E6:  MOVLW  00
046E8:  ADDWFC xBA,F
046EA:  CLRF   xC0
046EC:  MOVFF  6B7,6BF
046F0:  MOVLW  01
046F2:  MOVWF  xC2
046F4:  MOVLW  64
046F6:  MOVWF  xC1
046F8:  MOVLB  0
046FA:  CALL   252A
046FE:  MOVFF  02,6BC
04702:  MOVFF  01,6BB
04706:  MOVLW  14
04708:  MOVLB  6
0470A:  ADDWF  01,W
0470C:  MOVWF  01
0470E:  MOVLW  00
04710:  ADDWFC 02,W
04712:  MOVWF  03
04714:  MOVF   01,W
04716:  ADDLW  25
04718:  MOVWF  FE9
0471A:  MOVLW  03
0471C:  ADDWFC 03,W
0471E:  MOVWF  FEA
04720:  CLRF   xC0
04722:  MOVFF  FEF,6BF
04726:  CLRF   xC2
04728:  MOVLW  04
0472A:  MOVWF  xC1
0472C:  MOVLB  0
0472E:  CALL   252A
04732:  MOVFF  02,03
04736:  MOVF   01,W
04738:  MOVLB  6
0473A:  ADDWF  xB9,W
0473C:  MOVWF  01
0473E:  MOVF   xBA,W
04740:  ADDWFC 03,F
04742:  MOVF   01,W
04744:  ADDLW  25
04746:  MOVWF  01
04748:  MOVLW  03
0474A:  ADDWFC 03,F
0474C:  MOVFF  01,6B9
04750:  MOVFF  03,6BA
04754:  CLRF   xC0
04756:  MOVFF  6B7,6BF
0475A:  MOVLW  01
0475C:  MOVWF  xC2
0475E:  MOVLW  64
04760:  MOVWF  xC1
04762:  MOVLB  0
04764:  CALL   252A
04768:  MOVFF  02,6BC
0476C:  MOVFF  01,6BB
04770:  MOVLW  0C
04772:  MOVLB  6
04774:  ADDWF  01,W
04776:  MOVWF  01
04778:  MOVLW  00
0477A:  ADDWFC 02,W
0477C:  MOVWF  03
0477E:  MOVF   01,W
04780:  ADDLW  25
04782:  MOVWF  FE9
04784:  MOVLW  03
04786:  ADDWFC 03,W
04788:  MOVWF  FEA
0478A:  MOVFF  FEF,00
0478E:  MOVFF  FEC,01
04792:  MOVFF  FEC,02
04796:  MOVFF  FEC,03
0479A:  MOVFF  6BA,FEA
0479E:  MOVFF  6B9,FE9
047A2:  MOVFF  00,FEF
047A6:  MOVFF  01,FEC
047AA:  MOVFF  02,FEC
047AE:  MOVFF  03,FEC
047B2:  CLRF   xC0
047B4:  MOVFF  6B7,6BF
047B8:  MOVLW  01
047BA:  MOVWF  xC2
047BC:  MOVLW  64
047BE:  MOVWF  xC1
047C0:  MOVLB  0
047C2:  CALL   252A
047C6:  MOVFF  01,6B9
047CA:  MOVLW  14
047CC:  MOVLB  6
047CE:  ADDWF  01,W
047D0:  MOVWF  01
047D2:  MOVLW  00
047D4:  ADDWFC 02,W
047D6:  MOVWF  03
047D8:  MOVF   01,W
047DA:  ADDLW  25
047DC:  MOVWF  FE9
047DE:  MOVLW  03
047E0:  ADDWFC 03,W
047E2:  MOVWF  FEA
047E4:  INCF   FEF,F
....................           
....................    for(Sensor[canal].h=0;Sensor[canal].h<media;Sensor[canal].h++) 
047E6:  CLRF   xC0
047E8:  MOVFF  6B7,6BF
047EC:  MOVLW  01
047EE:  MOVWF  xC2
047F0:  MOVLW  64
047F2:  MOVWF  xC1
047F4:  MOVLB  0
047F6:  CALL   252A
047FA:  MOVFF  02,6BA
047FE:  MOVFF  01,6B9
04802:  MOVLW  15
04804:  MOVLB  6
04806:  ADDWF  01,W
04808:  MOVWF  01
0480A:  MOVLW  00
0480C:  ADDWFC 02,W
0480E:  MOVWF  03
04810:  MOVF   01,W
04812:  ADDLW  25
04814:  MOVWF  FE9
04816:  MOVLW  03
04818:  ADDWFC 03,W
0481A:  MOVWF  FEA
0481C:  CLRF   FEF
0481E:  CLRF   xC0
04820:  MOVFF  6B7,6BF
04824:  MOVLW  01
04826:  MOVWF  xC2
04828:  MOVLW  64
0482A:  MOVWF  xC1
0482C:  MOVLB  0
0482E:  CALL   252A
04832:  MOVFF  02,6BA
04836:  MOVFF  01,6B9
0483A:  MOVLW  15
0483C:  MOVLB  6
0483E:  ADDWF  01,W
04840:  MOVWF  01
04842:  MOVLW  00
04844:  ADDWFC 02,W
04846:  MOVWF  03
04848:  MOVF   01,W
0484A:  ADDLW  25
0484C:  MOVWF  FE9
0484E:  MOVLW  03
04850:  ADDWFC 03,W
04852:  MOVWF  FEA
04854:  MOVF   xB8,W
04856:  SUBWF  FEF,W
04858:  BTFSC  FD8.0
0485A:  BRA    497A
....................    { 
....................       Prom+=Sensor[canal].promedio[Sensor[canal].h]; 
0485C:  CLRF   xC0
0485E:  MOVFF  6B7,6BF
04862:  MOVLW  01
04864:  MOVWF  xC2
04866:  MOVLW  64
04868:  MOVWF  xC1
0486A:  MOVLB  0
0486C:  CALL   252A
04870:  MOVFF  02,6BA
04874:  MOVFF  01,6B9
04878:  MOVLW  20
0487A:  MOVLB  6
0487C:  ADDWF  xB9,F
0487E:  MOVLW  00
04880:  ADDWFC xBA,F
04882:  CLRF   xC0
04884:  MOVFF  6B7,6BF
04888:  MOVLW  01
0488A:  MOVWF  xC2
0488C:  MOVLW  64
0488E:  MOVWF  xC1
04890:  MOVLB  0
04892:  CALL   252A
04896:  MOVFF  02,6BC
0489A:  MOVFF  01,6BB
0489E:  MOVLW  15
048A0:  MOVLB  6
048A2:  ADDWF  01,W
048A4:  MOVWF  01
048A6:  MOVLW  00
048A8:  ADDWFC 02,W
048AA:  MOVWF  03
048AC:  MOVF   01,W
048AE:  ADDLW  25
048B0:  MOVWF  FE9
048B2:  MOVLW  03
048B4:  ADDWFC 03,W
048B6:  MOVWF  FEA
048B8:  CLRF   xC0
048BA:  MOVFF  FEF,6BF
048BE:  CLRF   xC2
048C0:  MOVLW  04
048C2:  MOVWF  xC1
048C4:  MOVLB  0
048C6:  CALL   252A
048CA:  MOVFF  02,03
048CE:  MOVF   01,W
048D0:  MOVLB  6
048D2:  ADDWF  xB9,W
048D4:  MOVWF  01
048D6:  MOVF   xBA,W
048D8:  ADDWFC 03,F
048DA:  MOVF   01,W
048DC:  ADDLW  25
048DE:  MOVWF  FE9
048E0:  MOVLW  03
048E2:  ADDWFC 03,W
048E4:  MOVWF  FEA
048E6:  MOVFF  FEF,00
048EA:  MOVFF  FEC,01
048EE:  MOVFF  FEC,02
048F2:  MOVFF  FEC,03
048F6:  MOVFF  FEA,6BA
048FA:  MOVFF  FE9,6B9
048FE:  BCF    FD8.1
04900:  MOVFF  217,6CA
04904:  MOVFF  216,6C9
04908:  MOVFF  215,6C8
0490C:  MOVFF  214,6C7
04910:  MOVFF  03,6CE
04914:  MOVFF  02,6CD
04918:  MOVFF  01,6CC
0491C:  MOVFF  00,6CB
04920:  MOVLB  0
04922:  CALL   223E
04926:  MOVFF  6BA,FEA
0492A:  MOVFF  6B9,FE9
0492E:  MOVFF  03,217
04932:  MOVFF  02,216
04936:  MOVFF  01,215
0493A:  MOVFF  00,214
....................    }  
0493E:  MOVLB  6
04940:  CLRF   xC0
04942:  MOVFF  6B7,6BF
04946:  MOVLW  01
04948:  MOVWF  xC2
0494A:  MOVLW  64
0494C:  MOVWF  xC1
0494E:  MOVLB  0
04950:  CALL   252A
04954:  MOVFF  02,6BA
04958:  MOVFF  01,6B9
0495C:  MOVLW  15
0495E:  MOVLB  6
04960:  ADDWF  01,W
04962:  MOVWF  01
04964:  MOVLW  00
04966:  ADDWFC 02,W
04968:  MOVWF  03
0496A:  MOVF   01,W
0496C:  ADDLW  25
0496E:  MOVWF  FE9
04970:  MOVLW  03
04972:  ADDWFC 03,W
04974:  MOVWF  FEA
04976:  INCF   FEF,F
04978:  BRA    481E
....................    Prom=Prom/media;    
0497A:  CLRF   xC8
0497C:  MOVFF  6B8,6C7
04980:  MOVLB  0
04982:  CALL   2082
04986:  MOVFF  217,6C4
0498A:  MOVFF  216,6C3
0498E:  MOVFF  215,6C2
04992:  MOVFF  214,6C1
04996:  MOVFF  03,6C8
0499A:  MOVFF  02,6C7
0499E:  MOVFF  01,6C6
049A2:  MOVFF  00,6C5
049A6:  CALL   20E0
049AA:  MOVFF  03,217
049AE:  MOVFF  02,216
049B2:  MOVFF  01,215
049B6:  MOVFF  00,214
....................    //Temperature=(Prom-100.0)/(0.385);  // Ecuacin determinada por linealizacin en Matlab. Revisar este polinomio.   
....................    Temperature=((Prom*Prom)*a)+(Prom*b)+c;  // Ecuacin determinada por linealizacin en Matlab. Revisar este polinomio. 
049BA:  MOVFF  217,6CE
049BE:  MOVFF  216,6CD
049C2:  MOVFF  215,6CC
049C6:  MOVFF  214,6CB
049CA:  MOVFF  217,6D2
049CE:  MOVFF  216,6D1
049D2:  MOVFF  215,6D0
049D6:  MOVFF  214,6CF
049DA:  RCALL  4200
049DC:  MOVFF  00,6B9
049E0:  MOVFF  01,6BA
049E4:  MOVFF  02,6BB
049E8:  MOVFF  03,6BC
049EC:  MOVFF  03,6CE
049F0:  MOVFF  02,6CD
049F4:  MOVFF  01,6CC
049F8:  MOVFF  00,6CB
049FC:  MOVFF  247,6D2
04A00:  MOVFF  246,6D1
04A04:  MOVFF  245,6D0
04A08:  MOVFF  244,6CF
04A0C:  CALL   4200
04A10:  MOVFF  00,6B9
04A14:  MOVFF  01,6BA
04A18:  MOVFF  02,6BB
04A1C:  MOVFF  03,6BC
04A20:  MOVFF  217,6CE
04A24:  MOVFF  216,6CD
04A28:  MOVFF  215,6CC
04A2C:  MOVFF  214,6CB
04A30:  MOVFF  24B,6D2
04A34:  MOVFF  24A,6D1
04A38:  MOVFF  249,6D0
04A3C:  MOVFF  248,6CF
04A40:  CALL   4200
04A44:  BCF    FD8.1
04A46:  MOVFF  6BC,6CA
04A4A:  MOVFF  6BB,6C9
04A4E:  MOVFF  6BA,6C8
04A52:  MOVFF  6B9,6C7
04A56:  MOVFF  03,6CE
04A5A:  MOVFF  02,6CD
04A5E:  MOVFF  01,6CC
04A62:  MOVFF  00,6CB
04A66:  CALL   223E
04A6A:  MOVFF  00,6B9
04A6E:  MOVFF  01,6BA
04A72:  MOVFF  02,6BB
04A76:  MOVFF  03,6BC
04A7A:  BCF    FD8.1
04A7C:  MOVFF  03,6CA
04A80:  MOVFF  02,6C9
04A84:  MOVFF  01,6C8
04A88:  MOVFF  00,6C7
04A8C:  MOVFF  24F,6CE
04A90:  MOVFF  24E,6CD
04A94:  MOVFF  24D,6CC
04A98:  MOVFF  24C,6CB
04A9C:  CALL   223E
04AA0:  MOVFF  03,21B
04AA4:  MOVFF  02,21A
04AA8:  MOVFF  01,219
04AAC:  MOVFF  00,218
....................    Temperature+=((float)Sensor[canal].Ajuste-(float)Sensor[canal].Ajusten); 
04AB0:  MOVLB  6
04AB2:  CLRF   xC0
04AB4:  MOVFF  6B7,6BF
04AB8:  MOVLW  01
04ABA:  MOVWF  xC2
04ABC:  MOVLW  64
04ABE:  MOVWF  xC1
04AC0:  MOVLB  0
04AC2:  CALL   252A
04AC6:  MOVFF  02,6BA
04ACA:  MOVFF  01,6B9
04ACE:  MOVLW  1E
04AD0:  MOVLB  6
04AD2:  ADDWF  01,W
04AD4:  MOVWF  01
04AD6:  MOVLW  00
04AD8:  ADDWFC 02,W
04ADA:  MOVWF  03
04ADC:  MOVF   01,W
04ADE:  ADDLW  25
04AE0:  MOVWF  FE9
04AE2:  MOVLW  03
04AE4:  ADDWFC 03,W
04AE6:  MOVWF  FEA
04AE8:  MOVF   FEF,W
04AEA:  CLRF   xC8
04AEC:  MOVWF  xC7
04AEE:  MOVLB  0
04AF0:  CALL   2082
04AF4:  MOVFF  00,6B9
04AF8:  MOVFF  01,6BA
04AFC:  MOVFF  02,6BB
04B00:  MOVFF  03,6BC
04B04:  MOVLB  6
04B06:  CLRF   xC0
04B08:  MOVFF  6B7,6BF
04B0C:  MOVLW  01
04B0E:  MOVWF  xC2
04B10:  MOVLW  64
04B12:  MOVWF  xC1
04B14:  MOVLB  0
04B16:  CALL   252A
04B1A:  MOVFF  02,6BE
04B1E:  MOVFF  01,6BD
04B22:  MOVLW  1F
04B24:  MOVLB  6
04B26:  ADDWF  01,W
04B28:  MOVWF  01
04B2A:  MOVLW  00
04B2C:  ADDWFC 02,W
04B2E:  MOVWF  03
04B30:  MOVF   01,W
04B32:  ADDLW  25
04B34:  MOVWF  FE9
04B36:  MOVLW  03
04B38:  ADDWFC 03,W
04B3A:  MOVWF  FEA
04B3C:  MOVF   FEF,W
04B3E:  CLRF   xC8
04B40:  MOVWF  xC7
04B42:  MOVLB  0
04B44:  CALL   2082
04B48:  MOVFF  FEA,6BE
04B4C:  MOVFF  FE9,6BD
04B50:  BSF    FD8.1
04B52:  MOVFF  6BC,6CA
04B56:  MOVFF  6BB,6C9
04B5A:  MOVFF  6BA,6C8
04B5E:  MOVFF  6B9,6C7
04B62:  MOVFF  03,6CE
04B66:  MOVFF  02,6CD
04B6A:  MOVFF  01,6CC
04B6E:  MOVFF  00,6CB
04B72:  CALL   223E
04B76:  MOVFF  6BE,FEA
04B7A:  MOVFF  6BD,FE9
04B7E:  MOVFF  FEA,6BA
04B82:  MOVFF  FE9,6B9
04B86:  BCF    FD8.1
04B88:  MOVFF  21B,6CA
04B8C:  MOVFF  21A,6C9
04B90:  MOVFF  219,6C8
04B94:  MOVFF  218,6C7
04B98:  MOVFF  03,6CE
04B9C:  MOVFF  02,6CD
04BA0:  MOVFF  01,6CC
04BA4:  MOVFF  00,6CB
04BA8:  CALL   223E
04BAC:  MOVFF  6BA,FEA
04BB0:  MOVFF  6B9,FE9
04BB4:  MOVFF  03,21B
04BB8:  MOVFF  02,21A
04BBC:  MOVFF  01,219
04BC0:  MOVFF  00,218
....................     
....................    return Temperature; 
04BC4:  MOVFF  218,00
04BC8:  MOVFF  219,01
04BCC:  MOVFF  21A,02
04BD0:  MOVFF  21B,03
.................... } 
04BD4:  RETLW  00
....................  
.................... float Leer_Sensor_Presion_Camara(int8 media){ 
....................    promediopresion=0.0; 
04BD6:  MOVLB  1
04BD8:  CLRF   xF1
04BDA:  CLRF   xF0
04BDC:  CLRF   xEF
04BDE:  CLRF   xEE
....................    V1 = sensores(5);   //Lectura de Divisor de Voltaje de PT100 con resistencia de 1k (+-10%) 
04BE0:  MOVLW  05
04BE2:  MOVLB  6
04BE4:  MOVWF  xBB
04BE6:  MOVLB  0
04BE8:  CALL   41A8
04BEC:  MOVFF  03,22F
04BF0:  MOVFF  02,22E
04BF4:  MOVFF  01,22D
04BF8:  MOVFF  00,22C
....................    //V1 = V1*(5.0/1024.0); 
....................    //Presion=(V1-0.2)/(K); 
....................    Presion=(((V1)/1023)-0.04)/K; 
04BFC:  MOVFF  22F,6C4
04C00:  MOVFF  22E,6C3
04C04:  MOVFF  22D,6C2
04C08:  MOVFF  22C,6C1
04C0C:  MOVLB  6
04C0E:  CLRF   xC8
04C10:  MOVLW  C0
04C12:  MOVWF  xC7
04C14:  MOVLW  7F
04C16:  MOVWF  xC6
04C18:  MOVLW  88
04C1A:  MOVWF  xC5
04C1C:  MOVLB  0
04C1E:  CALL   20E0
04C22:  MOVFF  00,6B8
04C26:  MOVFF  01,6B9
04C2A:  MOVFF  02,6BA
04C2E:  MOVFF  03,6BB
04C32:  BSF    FD8.1
04C34:  MOVFF  03,6CA
04C38:  MOVFF  02,6C9
04C3C:  MOVFF  01,6C8
04C40:  MOVFF  00,6C7
04C44:  MOVLW  0A
04C46:  MOVLB  6
04C48:  MOVWF  xCE
04C4A:  MOVLW  D7
04C4C:  MOVWF  xCD
04C4E:  MOVLW  23
04C50:  MOVWF  xCC
04C52:  MOVLW  7A
04C54:  MOVWF  xCB
04C56:  MOVLB  0
04C58:  CALL   223E
04C5C:  MOVFF  00,6B8
04C60:  MOVFF  01,6B9
04C64:  MOVFF  02,6BA
04C68:  MOVFF  03,6BB
04C6C:  MOVFF  03,6C4
04C70:  MOVFF  02,6C3
04C74:  MOVFF  01,6C2
04C78:  MOVFF  00,6C1
04C7C:  MOVFF  1D9,6C8
04C80:  MOVFF  1D8,6C7
04C84:  MOVFF  1D7,6C6
04C88:  MOVFF  1D6,6C5
04C8C:  CALL   20E0
04C90:  MOVFF  03,233
04C94:  MOVFF  02,232
04C98:  MOVFF  01,231
04C9C:  MOVFF  00,230
....................     
....................    if(Presion<0.0) 
04CA0:  MOVFF  233,6BC
04CA4:  MOVFF  232,6BB
04CA8:  MOVFF  231,6BA
04CAC:  MOVFF  230,6B9
04CB0:  MOVLB  6
04CB2:  CLRF   xC0
04CB4:  CLRF   xBF
04CB6:  CLRF   xBE
04CB8:  CLRF   xBD
04CBA:  MOVLB  0
04CBC:  CALL   2714
04CC0:  BNC   4CCC
....................       Presion=0.0; 
04CC2:  MOVLB  2
04CC4:  CLRF   x33
04CC6:  CLRF   x32
04CC8:  CLRF   x31
04CCA:  CLRF   x30
....................     
....................    if(r>media-1) 
04CCC:  MOVLW  01
04CCE:  MOVLB  6
04CD0:  SUBWF  xB7,W
04CD2:  MOVLB  2
04CD4:  SUBWF  x8E,W
04CD6:  BZ    4CDC
04CD8:  BNC   4CDC
....................       r=0; 
04CDA:  CLRF   x8E
....................    PromPresion[r]=Presion;r++; 
04CDC:  MOVF   x8E,W
04CDE:  MULLW  04
04CE0:  MOVF   FF3,W
04CE2:  CLRF   03
04CE4:  ADDLW  2A
04CE6:  MOVWF  FE9
04CE8:  MOVLW  01
04CEA:  ADDWFC 03,W
04CEC:  MOVWF  FEA
04CEE:  MOVFF  230,FEF
04CF2:  MOVFF  231,FEC
04CF6:  MOVFF  232,FEC
04CFA:  MOVFF  233,FEC
04CFE:  INCF   x8E,F
....................           
....................    for(t=0;t<=(media-1);t++) 
04D00:  CLRF   x8F
04D02:  MOVLW  01
04D04:  MOVLB  6
04D06:  SUBWF  xB7,W
04D08:  MOVLB  2
04D0A:  SUBWF  x8F,W
04D0C:  BZ    4D10
04D0E:  BC    4D80
....................       promediopresion+=PromPresion[t]; 
04D10:  MOVF   x8F,W
04D12:  MULLW  04
04D14:  MOVF   FF3,W
04D16:  CLRF   03
04D18:  ADDLW  2A
04D1A:  MOVWF  FE9
04D1C:  MOVLW  01
04D1E:  ADDWFC 03,W
04D20:  MOVWF  FEA
04D22:  MOVFF  FEF,00
04D26:  MOVFF  FEC,01
04D2A:  MOVFF  FEC,02
04D2E:  MOVFF  FEC,03
04D32:  MOVFF  FEA,6B9
04D36:  MOVFF  FE9,6B8
04D3A:  BCF    FD8.1
04D3C:  MOVFF  1F1,6CA
04D40:  MOVFF  1F0,6C9
04D44:  MOVFF  1EF,6C8
04D48:  MOVFF  1EE,6C7
04D4C:  MOVFF  03,6CE
04D50:  MOVFF  02,6CD
04D54:  MOVFF  01,6CC
04D58:  MOVFF  00,6CB
04D5C:  MOVLB  0
04D5E:  CALL   223E
04D62:  MOVFF  6B9,FEA
04D66:  MOVFF  6B8,FE9
04D6A:  MOVFF  03,1F1
04D6E:  MOVFF  02,1F0
04D72:  MOVFF  01,1EF
04D76:  MOVFF  00,1EE
04D7A:  MOVLB  2
04D7C:  INCF   x8F,F
04D7E:  BRA    4D02
....................      
....................    promediopresion=promediopresion/media;    
04D80:  MOVLB  6
04D82:  CLRF   xC8
04D84:  MOVFF  6B7,6C7
04D88:  MOVLB  0
04D8A:  CALL   2082
04D8E:  MOVFF  1F1,6C4
04D92:  MOVFF  1F0,6C3
04D96:  MOVFF  1EF,6C2
04D9A:  MOVFF  1EE,6C1
04D9E:  MOVFF  03,6C8
04DA2:  MOVFF  02,6C7
04DA6:  MOVFF  01,6C6
04DAA:  MOVFF  00,6C5
04DAE:  CALL   20E0
04DB2:  MOVFF  03,1F1
04DB6:  MOVFF  02,1F0
04DBA:  MOVFF  01,1EF
04DBE:  MOVFF  00,1EE
....................     
....................    return promediopresion; 
04DC2:  MOVFF  1EE,00
04DC6:  MOVFF  1EF,01
04DCA:  MOVFF  1F0,02
04DCE:  MOVFF  1F1,03
.................... } 
04DD2:  RETLW  00
....................  
.................... float Leer_Sensor_Presion_PreCamara(int8 media){ 
....................    promediopresionp=0.0; 
*
04E10:  MOVLB  1
04E12:  CLRF   xF5
04E14:  CLRF   xF4
04E16:  CLRF   xF3
04E18:  CLRF   xF2
....................    V2 = sensores(4);   //Lectura de Divisor de Voltaje de PT100 con resistencia de 1k (+-10%) 
04E1A:  MOVLW  04
04E1C:  MOVLB  6
04E1E:  MOVWF  xBB
04E20:  MOVLB  0
04E22:  CALL   41A8
04E26:  MOVFF  03,237
04E2A:  MOVFF  02,236
04E2E:  MOVFF  01,235
04E32:  MOVFF  00,234
....................    //V2 = V2*(5.0/1024.0); 
....................    //Presionp=(V2-0.2)/(K); 
....................    Presionp=(((V2)/1023)-0.04)/K; 
04E36:  MOVFF  237,6C4
04E3A:  MOVFF  236,6C3
04E3E:  MOVFF  235,6C2
04E42:  MOVFF  234,6C1
04E46:  MOVLB  6
04E48:  CLRF   xC8
04E4A:  MOVLW  C0
04E4C:  MOVWF  xC7
04E4E:  MOVLW  7F
04E50:  MOVWF  xC6
04E52:  MOVLW  88
04E54:  MOVWF  xC5
04E56:  MOVLB  0
04E58:  CALL   20E0
04E5C:  MOVFF  00,6B8
04E60:  MOVFF  01,6B9
04E64:  MOVFF  02,6BA
04E68:  MOVFF  03,6BB
04E6C:  BSF    FD8.1
04E6E:  MOVFF  03,6CA
04E72:  MOVFF  02,6C9
04E76:  MOVFF  01,6C8
04E7A:  MOVFF  00,6C7
04E7E:  MOVLW  0A
04E80:  MOVLB  6
04E82:  MOVWF  xCE
04E84:  MOVLW  D7
04E86:  MOVWF  xCD
04E88:  MOVLW  23
04E8A:  MOVWF  xCC
04E8C:  MOVLW  7A
04E8E:  MOVWF  xCB
04E90:  MOVLB  0
04E92:  CALL   223E
04E96:  MOVFF  00,6B8
04E9A:  MOVFF  01,6B9
04E9E:  MOVFF  02,6BA
04EA2:  MOVFF  03,6BB
04EA6:  MOVFF  03,6C4
04EAA:  MOVFF  02,6C3
04EAE:  MOVFF  01,6C2
04EB2:  MOVFF  00,6C1
04EB6:  MOVFF  1D9,6C8
04EBA:  MOVFF  1D8,6C7
04EBE:  MOVFF  1D7,6C6
04EC2:  MOVFF  1D6,6C5
04EC6:  CALL   20E0
04ECA:  MOVFF  03,23B
04ECE:  MOVFF  02,23A
04ED2:  MOVFF  01,239
04ED6:  MOVFF  00,238
....................     
....................    if(Presionp<0.0) 
04EDA:  MOVFF  23B,6BC
04EDE:  MOVFF  23A,6BB
04EE2:  MOVFF  239,6BA
04EE6:  MOVFF  238,6B9
04EEA:  MOVLB  6
04EEC:  CLRF   xC0
04EEE:  CLRF   xBF
04EF0:  CLRF   xBE
04EF2:  CLRF   xBD
04EF4:  MOVLB  0
04EF6:  CALL   2714
04EFA:  BNC   4F06
....................       Presionp=0.0; 
04EFC:  MOVLB  2
04EFE:  CLRF   x3B
04F00:  CLRF   x3A
04F02:  CLRF   x39
04F04:  CLRF   x38
....................     
....................    if(r22>media-1) 
04F06:  MOVLW  01
04F08:  MOVLB  6
04F0A:  SUBWF  xB7,W
04F0C:  MOVLB  2
04F0E:  SUBWF  x90,W
04F10:  BZ    4F16
04F12:  BNC   4F16
....................       r22=0; 
04F14:  CLRF   x90
....................    PromPresionp[r22]=Presionp;r22++; 
04F16:  MOVF   x90,W
04F18:  MULLW  04
04F1A:  MOVF   FF3,W
04F1C:  CLRF   03
04F1E:  ADDLW  7A
04F20:  MOVWF  FE9
04F22:  MOVLW  01
04F24:  ADDWFC 03,W
04F26:  MOVWF  FEA
04F28:  MOVFF  238,FEF
04F2C:  MOVFF  239,FEC
04F30:  MOVFF  23A,FEC
04F34:  MOVFF  23B,FEC
04F38:  INCF   x90,F
....................           
....................    for(t2=0;t2<=(media-1);t2++) 
04F3A:  CLRF   x91
04F3C:  MOVLW  01
04F3E:  MOVLB  6
04F40:  SUBWF  xB7,W
04F42:  MOVLB  2
04F44:  SUBWF  x91,W
04F46:  BZ    4F4A
04F48:  BC    4FBA
....................       promediopresionp+=PromPresionp[t2];  
04F4A:  MOVF   x91,W
04F4C:  MULLW  04
04F4E:  MOVF   FF3,W
04F50:  CLRF   03
04F52:  ADDLW  7A
04F54:  MOVWF  FE9
04F56:  MOVLW  01
04F58:  ADDWFC 03,W
04F5A:  MOVWF  FEA
04F5C:  MOVFF  FEF,00
04F60:  MOVFF  FEC,01
04F64:  MOVFF  FEC,02
04F68:  MOVFF  FEC,03
04F6C:  MOVFF  FEA,6B9
04F70:  MOVFF  FE9,6B8
04F74:  BCF    FD8.1
04F76:  MOVFF  1F5,6CA
04F7A:  MOVFF  1F4,6C9
04F7E:  MOVFF  1F3,6C8
04F82:  MOVFF  1F2,6C7
04F86:  MOVFF  03,6CE
04F8A:  MOVFF  02,6CD
04F8E:  MOVFF  01,6CC
04F92:  MOVFF  00,6CB
04F96:  MOVLB  0
04F98:  CALL   223E
04F9C:  MOVFF  6B9,FEA
04FA0:  MOVFF  6B8,FE9
04FA4:  MOVFF  03,1F5
04FA8:  MOVFF  02,1F4
04FAC:  MOVFF  01,1F3
04FB0:  MOVFF  00,1F2
04FB4:  MOVLB  2
04FB6:  INCF   x91,F
04FB8:  BRA    4F3C
....................        
....................    promediopresionp=promediopresionp/media;    
04FBA:  MOVLB  6
04FBC:  CLRF   xC8
04FBE:  MOVFF  6B7,6C7
04FC2:  MOVLB  0
04FC4:  CALL   2082
04FC8:  MOVFF  1F5,6C4
04FCC:  MOVFF  1F4,6C3
04FD0:  MOVFF  1F3,6C2
04FD4:  MOVFF  1F2,6C1
04FD8:  MOVFF  03,6C8
04FDC:  MOVFF  02,6C7
04FE0:  MOVFF  01,6C6
04FE4:  MOVFF  00,6C5
04FE8:  CALL   20E0
04FEC:  MOVFF  03,1F5
04FF0:  MOVFF  02,1F4
04FF4:  MOVFF  01,1F3
04FF8:  MOVFF  00,1F2
....................     
....................    return promediopresionp; 
04FFC:  MOVFF  1F2,00
05000:  MOVFF  1F3,01
05004:  MOVFF  1F4,02
05008:  MOVFF  1F5,03
.................... } 
0500C:  RETLW  00
....................  
.................... void Controla(){ 
....................    if(tiemporecta>=Derivativo/2.0){ 
*
075A4:  MOVLB  6
075A6:  CLRF   xC8
075A8:  MOVFF  251,6C7
075AC:  MOVLB  0
075AE:  CALL   2082
075B2:  MOVFF  03,6C4
075B6:  MOVFF  02,6C3
075BA:  MOVFF  01,6C2
075BE:  MOVFF  00,6C1
075C2:  MOVLB  6
075C4:  CLRF   xC8
075C6:  CLRF   xC7
075C8:  CLRF   xC6
075CA:  MOVLW  80
075CC:  MOVWF  xC5
075CE:  MOVLB  0
075D0:  CALL   20E0
075D4:  MOVFF  00,6B5
075D8:  MOVFF  01,6B6
075DC:  MOVFF  02,6B7
075E0:  MOVFF  03,6B8
075E4:  MOVLB  6
075E6:  CLRF   xC8
075E8:  MOVFF  255,6C7
075EC:  MOVLB  0
075EE:  CALL   2082
075F2:  MOVFF  6B8,6BC
075F6:  MOVFF  6B7,6BB
075FA:  MOVFF  6B6,6BA
075FE:  MOVFF  6B5,6B9
07602:  MOVFF  03,6C0
07606:  MOVFF  02,6BF
0760A:  MOVFF  01,6BE
0760E:  MOVFF  00,6BD
07612:  CALL   2714
07616:  BC    761A
07618:  BNZ   7620
....................       ActualizaRecta(); 
0761A:  BRA    7536
....................       tiemporecta=0; 
0761C:  MOVLB  2
0761E:  CLRF   x55
....................    }  
.................... //-------------------------------Control de Calentamiento------------------------------------------------------------//          
....................    error=desvio+Setpoint-Temperatura;      // Clculo del error ****** 
07620:  MOVLB  6
07622:  CLRF   xC8
07624:  MOVFF  26B,6C7
07628:  MOVLB  0
0762A:  CALL   2082
0762E:  BCF    FD8.1
07630:  MOVFF  22B,6CA
07634:  MOVFF  22A,6C9
07638:  MOVFF  229,6C8
0763C:  MOVFF  228,6C7
07640:  MOVFF  03,6CE
07644:  MOVFF  02,6CD
07648:  MOVFF  01,6CC
0764C:  MOVFF  00,6CB
07650:  CALL   223E
07654:  MOVFF  00,6B5
07658:  MOVFF  01,6B6
0765C:  MOVFF  02,6B7
07660:  MOVFF  03,6B8
07664:  BSF    FD8.1
07666:  MOVFF  03,6CA
0766A:  MOVFF  02,6C9
0766E:  MOVFF  01,6C8
07672:  MOVFF  00,6C7
07676:  MOVFF  23F,6CE
0767A:  MOVFF  23E,6CD
0767E:  MOVFF  23D,6CC
07682:  MOVFF  23C,6CB
07686:  CALL   223E
0768A:  MOVFF  03,213
0768E:  MOVFF  02,212
07692:  MOVFF  01,211
07696:  MOVFF  00,210
....................     
....................    if(error>1.0 && error<15 && Aumento<0.3){ 
0769A:  MOVLB  6
0769C:  CLRF   xBC
0769E:  CLRF   xBB
076A0:  CLRF   xBA
076A2:  MOVLW  7F
076A4:  MOVWF  xB9
076A6:  MOVFF  213,6C0
076AA:  MOVFF  212,6BF
076AE:  MOVFF  211,6BE
076B2:  MOVFF  210,6BD
076B6:  MOVLB  0
076B8:  CALL   2714
076BC:  BTFSS  FD8.0
076BE:  BRA    789A
076C0:  MOVFF  213,6BC
076C4:  MOVFF  212,6BB
076C8:  MOVFF  211,6BA
076CC:  MOVFF  210,6B9
076D0:  MOVLB  6
076D2:  CLRF   xC0
076D4:  CLRF   xBF
076D6:  MOVLW  70
076D8:  MOVWF  xBE
076DA:  MOVLW  82
076DC:  MOVWF  xBD
076DE:  MOVLB  0
076E0:  CALL   2714
076E4:  BTFSS  FD8.0
076E6:  BRA    789A
076E8:  MOVFF  1D1,6BC
076EC:  MOVFF  1D0,6BB
076F0:  MOVFF  1CF,6BA
076F4:  MOVFF  1CE,6B9
076F8:  MOVLW  9A
076FA:  MOVLB  6
076FC:  MOVWF  xC0
076FE:  MOVLW  99
07700:  MOVWF  xBF
07702:  MOVLW  19
07704:  MOVWF  xBE
07706:  MOVLW  7D
07708:  MOVWF  xBD
0770A:  MOVLB  0
0770C:  CALL   2714
07710:  BTFSS  FD8.0
07712:  BRA    789A
....................       if(Tpulso<7.0){ 
07714:  MOVFF  20F,6BC
07718:  MOVFF  20E,6BB
0771C:  MOVFF  20D,6BA
07720:  MOVFF  20C,6B9
07724:  MOVLB  6
07726:  CLRF   xC0
07728:  CLRF   xBF
0772A:  MOVLW  60
0772C:  MOVWF  xBE
0772E:  MOVLW  81
07730:  MOVWF  xBD
07732:  MOVLB  0
07734:  CALL   2714
07738:  BTFSS  FD8.0
0773A:  BRA    7896
....................          flagTC=1; 
0773C:  MOVLB  2
0773E:  BSF    x53.3
....................          if(TiempoControl>=Derivativo){ 
07740:  MOVF   x51,W
07742:  SUBWF  x92,W
07744:  BTFSS  FD8.0
07746:  BRA    7892
....................             TiempoControl=0; 
07748:  CLRF   x92
....................             if(Aumento<-0.5){ 
0774A:  MOVFF  1D1,6BC
0774E:  MOVFF  1D0,6BB
07752:  MOVFF  1CF,6BA
07756:  MOVFF  1CE,6B9
0775A:  MOVLB  6
0775C:  CLRF   xC0
0775E:  CLRF   xBF
07760:  MOVLW  80
07762:  MOVWF  xBE
07764:  MOVLW  7E
07766:  MOVWF  xBD
07768:  MOVLB  0
0776A:  CALL   2714
0776E:  BNC   77BA
....................                Ganancia+=Integral+1; 
07770:  MOVLW  01
07772:  MOVLB  2
07774:  ADDWF  x50,W
07776:  MOVLB  6
07778:  CLRF   xC8
0777A:  MOVWF  xC7
0777C:  MOVLB  0
0777E:  CALL   2082
07782:  BCF    FD8.1
07784:  MOVFF  223,6CA
07788:  MOVFF  222,6C9
0778C:  MOVFF  221,6C8
07790:  MOVFF  220,6C7
07794:  MOVFF  03,6CE
07798:  MOVFF  02,6CD
0779C:  MOVFF  01,6CC
077A0:  MOVFF  00,6CB
077A4:  CALL   223E
077A8:  MOVFF  03,223
077AC:  MOVFF  02,222
077B0:  MOVFF  01,221
077B4:  MOVFF  00,220
....................             }else{ 
077B8:  BRA    7890
....................                if(Aumento<-0.1){ 
077BA:  MOVFF  1D1,6BC
077BE:  MOVFF  1D0,6BB
077C2:  MOVFF  1CF,6BA
077C6:  MOVFF  1CE,6B9
077CA:  MOVLW  CD
077CC:  MOVLB  6
077CE:  MOVWF  xC0
077D0:  MOVLW  CC
077D2:  MOVWF  xBF
077D4:  MOVWF  xBE
077D6:  MOVLW  7B
077D8:  MOVWF  xBD
077DA:  MOVLB  0
077DC:  CALL   2714
077E0:  BNC   784C
....................                   Ganancia+=Integral+0.5; 
077E2:  MOVLB  6
077E4:  CLRF   xC8
077E6:  MOVFF  250,6C7
077EA:  MOVLB  0
077EC:  CALL   2082
077F0:  BCF    FD8.1
077F2:  MOVFF  03,6CA
077F6:  MOVFF  02,6C9
077FA:  MOVFF  01,6C8
077FE:  MOVFF  00,6C7
07802:  MOVLB  6
07804:  CLRF   xCE
07806:  CLRF   xCD
07808:  CLRF   xCC
0780A:  MOVLW  7E
0780C:  MOVWF  xCB
0780E:  MOVLB  0
07810:  CALL   223E
07814:  BCF    FD8.1
07816:  MOVFF  223,6CA
0781A:  MOVFF  222,6C9
0781E:  MOVFF  221,6C8
07822:  MOVFF  220,6C7
07826:  MOVFF  03,6CE
0782A:  MOVFF  02,6CD
0782E:  MOVFF  01,6CC
07832:  MOVFF  00,6CB
07836:  CALL   223E
0783A:  MOVFF  03,223
0783E:  MOVFF  02,222
07842:  MOVFF  01,221
07846:  MOVFF  00,220
....................                }else{ 
0784A:  BRA    7890
....................                   Ganancia+=Integral; 
0784C:  MOVLB  6
0784E:  CLRF   xC8
07850:  MOVFF  250,6C7
07854:  MOVLB  0
07856:  CALL   2082
0785A:  BCF    FD8.1
0785C:  MOVFF  223,6CA
07860:  MOVFF  222,6C9
07864:  MOVFF  221,6C8
07868:  MOVFF  220,6C7
0786C:  MOVFF  03,6CE
07870:  MOVFF  02,6CD
07874:  MOVFF  01,6CC
07878:  MOVFF  00,6CB
0787C:  CALL   223E
07880:  MOVFF  03,223
07884:  MOVFF  02,222
07888:  MOVFF  01,221
0788C:  MOVFF  00,220
07890:  MOVLB  2
....................                } 
....................             } 
....................          } 
....................       }else{ 
07892:  BRA    789A
07894:  MOVLB  0
....................          flagTC=0; 
07896:  MOVLB  2
07898:  BCF    x53.3
....................       } 
....................    } 
....................     
....................    if(error<-0.3) 
0789A:  MOVFF  213,6BC
0789E:  MOVFF  212,6BB
078A2:  MOVFF  211,6BA
078A6:  MOVFF  210,6B9
078AA:  MOVLW  9A
078AC:  MOVLB  6
078AE:  MOVWF  xC0
078B0:  MOVLW  99
078B2:  MOVWF  xBF
078B4:  MOVWF  xBE
078B6:  MOVLW  7D
078B8:  MOVWF  xBD
078BA:  MOVLB  0
078BC:  CALL   2714
078C0:  BNC   78D2
....................       Ganancia=Ganancia2; 
078C2:  MOVFF  227,223
078C6:  MOVFF  226,222
078CA:  MOVFF  225,221
078CE:  MOVFF  224,220
....................     
....................    if(Ganancia<1) 
078D2:  MOVFF  223,6BC
078D6:  MOVFF  222,6BB
078DA:  MOVFF  221,6BA
078DE:  MOVFF  220,6B9
078E2:  MOVLB  6
078E4:  CLRF   xC0
078E6:  CLRF   xBF
078E8:  CLRF   xBE
078EA:  MOVLW  7F
078EC:  MOVWF  xBD
078EE:  MOVLB  0
078F0:  CALL   2714
078F4:  BNC   7902
....................       Ganancia=1; 
078F6:  MOVLB  2
078F8:  CLRF   x23
078FA:  CLRF   x22
078FC:  CLRF   x21
078FE:  MOVLW  7F
07900:  MOVWF  x20
....................     
....................    if(error<0.0)     // Anti Wind_DOWN     
07902:  MOVFF  213,6BC
07906:  MOVFF  212,6BB
0790A:  MOVFF  211,6BA
0790E:  MOVFF  210,6B9
07912:  MOVLB  6
07914:  CLRF   xC0
07916:  CLRF   xBF
07918:  CLRF   xBE
0791A:  CLRF   xBD
0791C:  MOVLB  0
0791E:  CALL   2714
07922:  BNC   7930
....................       error=0.0; 
07924:  MOVLB  2
07926:  CLRF   x13
07928:  CLRF   x12
0792A:  CLRF   x11
0792C:  CLRF   x10
0792E:  MOVLB  0
....................    //tmp=(Setpoint-Prom)*Ganancia;  // Control Proporcional. 
....................    tmp=error*Ganancia;  // Control Proporcional. 
07930:  MOVFF  213,6CE
07934:  MOVFF  212,6CD
07938:  MOVFF  211,6CC
0793C:  MOVFF  210,6CB
07940:  MOVFF  223,6D2
07944:  MOVFF  222,6D1
07948:  MOVFF  221,6D0
0794C:  MOVFF  220,6CF
07950:  CALL   4200
07954:  MOVFF  03,21F
07958:  MOVFF  02,21E
0795C:  MOVFF  01,21D
07960:  MOVFF  00,21C
....................           
....................    if(tmp>Setpoint)   // Anti Wind-UP       
07964:  MOVLB  6
07966:  CLRF   xC8
07968:  MOVFF  26B,6C7
0796C:  MOVLB  0
0796E:  CALL   2082
07972:  MOVFF  03,6BC
07976:  MOVFF  02,6BB
0797A:  MOVFF  01,6BA
0797E:  MOVFF  00,6B9
07982:  MOVFF  21F,6C0
07986:  MOVFF  21E,6BF
0798A:  MOVFF  21D,6BE
0798E:  MOVFF  21C,6BD
07992:  CALL   2714
07996:  BNC   79B6
....................       tmp=Setpoint; 
07998:  MOVLB  6
0799A:  CLRF   xC8
0799C:  MOVFF  26B,6C7
079A0:  MOVLB  0
079A2:  CALL   2082
079A6:  MOVFF  03,21F
079AA:  MOVFF  02,21E
079AE:  MOVFF  01,21D
079B2:  MOVFF  00,21C
....................                 
....................    if(tmp<0.0)     // Anti Wind_DOWN     
079B6:  MOVFF  21F,6BC
079BA:  MOVFF  21E,6BB
079BE:  MOVFF  21D,6BA
079C2:  MOVFF  21C,6B9
079C6:  MOVLB  6
079C8:  CLRF   xC0
079CA:  CLRF   xBF
079CC:  CLRF   xBE
079CE:  CLRF   xBD
079D0:  MOVLB  0
079D2:  CALL   2714
079D6:  BNC   79E2
....................       tmp=0.0; 
079D8:  MOVLB  2
079DA:  CLRF   x1F
079DC:  CLRF   x1E
079DE:  CLRF   x1D
079E0:  CLRF   x1C
....................     
....................    // Tpulso(t)= Tciclo*(y(t)-ymin)/(ymax - ymin); calculo de ciclo util para control de resistencia.ymax=140.ymin=0; 
....................    // Tpulso es float, hay que pasar ese ciclo a una salida de un puerto usando el TMR1. 
....................    tmp2=(tmp/Setpoint); 
079E2:  MOVLB  6
079E4:  CLRF   xC8
079E6:  MOVFF  26B,6C7
079EA:  MOVLB  0
079EC:  CALL   2082
079F0:  MOVFF  21F,6C4
079F4:  MOVFF  21E,6C3
079F8:  MOVFF  21D,6C2
079FC:  MOVFF  21C,6C1
07A00:  MOVFF  03,6C8
07A04:  MOVFF  02,6C7
07A08:  MOVFF  01,6C6
07A0C:  MOVFF  00,6C5
07A10:  CALL   20E0
07A14:  MOVFF  03,1D5
07A18:  MOVFF  02,1D4
07A1C:  MOVFF  01,1D3
07A20:  MOVFF  00,1D2
....................    //if(tmp2>0.8) 
....................    //tmp2=0.8; 
....................    Tpulso=tmp2*Tciclo;   
07A24:  MOVFF  1D5,6CE
07A28:  MOVFF  1D4,6CD
07A2C:  MOVFF  1D3,6CC
07A30:  MOVFF  1D2,6CB
07A34:  MOVFF  20B,6D2
07A38:  MOVFF  20A,6D1
07A3C:  MOVFF  209,6D0
07A40:  MOVFF  208,6CF
07A44:  CALL   4200
07A48:  MOVFF  03,20F
07A4C:  MOVFF  02,20E
07A50:  MOVFF  01,20D
07A54:  MOVFF  00,20C
....................                                        
....................    Tp=(Tpulso/0.005); 
07A58:  MOVFF  20F,6C4
07A5C:  MOVFF  20E,6C3
07A60:  MOVFF  20D,6C2
07A64:  MOVFF  20C,6C1
07A68:  MOVLW  0A
07A6A:  MOVLB  6
07A6C:  MOVWF  xC8
07A6E:  MOVLW  D7
07A70:  MOVWF  xC7
07A72:  MOVLW  23
07A74:  MOVWF  xC6
07A76:  MOVLW  77
07A78:  MOVWF  xC5
07A7A:  MOVLB  0
07A7C:  CALL   20E0
07A80:  MOVFF  03,6CA
07A84:  MOVFF  02,6C9
07A88:  MOVFF  01,6C8
07A8C:  MOVFF  00,6C7
07A90:  CALL   4DD4
07A94:  MOVFF  02,10F
07A98:  MOVFF  01,10E
....................    Tc=(Tciclo/0.005); 
07A9C:  MOVFF  20B,6C4
07AA0:  MOVFF  20A,6C3
07AA4:  MOVFF  209,6C2
07AA8:  MOVFF  208,6C1
07AAC:  MOVLW  0A
07AAE:  MOVLB  6
07AB0:  MOVWF  xC8
07AB2:  MOVLW  D7
07AB4:  MOVWF  xC7
07AB6:  MOVLW  23
07AB8:  MOVWF  xC6
07ABA:  MOVLW  77
07ABC:  MOVWF  xC5
07ABE:  MOVLB  0
07AC0:  CALL   20E0
07AC4:  MOVFF  03,6CA
07AC8:  MOVFF  02,6C9
07ACC:  MOVFF  01,6C8
07AD0:  MOVFF  00,6C7
07AD4:  CALL   4DD4
07AD8:  MOVFF  02,111
07ADC:  MOVFF  01,110
....................    Controlando=1;    
07AE0:  MOVLW  01
07AE2:  MOVLB  2
07AE4:  MOVWF  x56
....................     
....................    if(Temperatura>Setpoint+0.3){ 
07AE6:  MOVLB  6
07AE8:  CLRF   xC8
07AEA:  MOVFF  26B,6C7
07AEE:  MOVLB  0
07AF0:  CALL   2082
07AF4:  BCF    FD8.1
07AF6:  MOVFF  03,6CA
07AFA:  MOVFF  02,6C9
07AFE:  MOVFF  01,6C8
07B02:  MOVFF  00,6C7
07B06:  MOVLW  9A
07B08:  MOVLB  6
07B0A:  MOVWF  xCE
07B0C:  MOVLW  99
07B0E:  MOVWF  xCD
07B10:  MOVLW  19
07B12:  MOVWF  xCC
07B14:  MOVLW  7D
07B16:  MOVWF  xCB
07B18:  MOVLB  0
07B1A:  CALL   223E
07B1E:  MOVFF  03,6BC
07B22:  MOVFF  02,6BB
07B26:  MOVFF  01,6BA
07B2A:  MOVFF  00,6B9
07B2E:  MOVFF  23F,6C0
07B32:  MOVFF  23E,6BF
07B36:  MOVFF  23D,6BE
07B3A:  MOVFF  23C,6BD
07B3E:  CALL   2714
07B42:  BNC   7B4A
....................       suministroVapor=OFF; 
07B44:  BCF    xF7.5
....................       Paso=ON; 
07B46:  BSF    xF7.6
....................    }else if(Temperatura<=Setpoint+0.2){ 
07B48:  BRA    7BAE
07B4A:  MOVLB  6
07B4C:  CLRF   xC8
07B4E:  MOVFF  26B,6C7
07B52:  MOVLB  0
07B54:  CALL   2082
07B58:  BCF    FD8.1
07B5A:  MOVFF  03,6CA
07B5E:  MOVFF  02,6C9
07B62:  MOVFF  01,6C8
07B66:  MOVFF  00,6C7
07B6A:  MOVLW  CD
07B6C:  MOVLB  6
07B6E:  MOVWF  xCE
07B70:  MOVLW  CC
07B72:  MOVWF  xCD
07B74:  MOVLW  4C
07B76:  MOVWF  xCC
07B78:  MOVLW  7C
07B7A:  MOVWF  xCB
07B7C:  MOVLB  0
07B7E:  CALL   223E
07B82:  MOVFF  23F,6BC
07B86:  MOVFF  23E,6BB
07B8A:  MOVFF  23D,6BA
07B8E:  MOVFF  23C,6B9
07B92:  MOVFF  03,6C0
07B96:  MOVFF  02,6BF
07B9A:  MOVFF  01,6BE
07B9E:  MOVFF  00,6BD
07BA2:  CALL   2714
07BA6:  BC    7BAA
07BA8:  BNZ   7BAE
....................       suministroVapor=ON; 
07BAA:  BSF    xF7.5
....................       Paso=ON; 
07BAC:  BSF    xF7.6
....................    } 
.................... //--------------------------------------------------------------------------------------------------------------------//    
.................... } 
07BAE:  RETLW  00
....................  
.................... void Envio_I2C(direccion, posicion, dato){ 
....................    i2c_start();            // Comienzo comunicacin 
*
056D4:  BSF    F94.4
056D6:  MOVLW  05
056D8:  MOVWF  00
056DA:  DECFSZ 00,F
056DC:  BRA    56DA
056DE:  BSF    F94.3
056E0:  MOVLW  06
056E2:  MOVWF  00
056E4:  DECFSZ 00,F
056E6:  BRA    56E4
056E8:  BCF    F8B.4
056EA:  BCF    F94.4
056EC:  MOVLW  05
056EE:  MOVWF  00
056F0:  DECFSZ 00,F
056F2:  BRA    56F0
056F4:  BCF    F8B.3
056F6:  BCF    F94.3
....................    i2c_write(direccion);   // Direccin del esclavo en el bus I2C 
056F8:  MOVFF  6C8,6CB
056FC:  CALL   254C
....................    i2c_write(posicion);    // Posicin donde se guardara el dato transmitido 
05700:  MOVFF  6C9,6CB
05704:  CALL   254C
....................    i2c_write(dato);        // Dato a transmitir 
05708:  MOVFF  6CA,6CB
0570C:  CALL   254C
....................    i2c_stop();             // Fin comunicacin 
05710:  BCF    F94.4
05712:  NOP   
05714:  BSF    F94.3
05716:  BTFSS  F82.3
05718:  BRA    5716
0571A:  MOVLW  05
0571C:  MOVWF  00
0571E:  DECFSZ 00,F
05720:  BRA    571E
05722:  BRA    5724
05724:  NOP   
05726:  BSF    F94.4
05728:  MOVLW  05
0572A:  MOVWF  00
0572C:  DECFSZ 00,F
0572E:  BRA    572C
....................  } 
05730:  GOTO   57FA (RETURN)
....................  
.................... void Lectura_I2C (byte direccion, byte posicion, byte &dato) { 
....................  
....................    i2c_start();            // Comienzo de la comunicacin 
*
05820:  BSF    F94.4
05822:  MOVLW  05
05824:  MOVWF  00
05826:  DECFSZ 00,F
05828:  BRA    5826
0582A:  BSF    F94.3
0582C:  MOVLW  06
0582E:  MOVWF  00
05830:  DECFSZ 00,F
05832:  BRA    5830
05834:  BCF    F8B.4
05836:  BCF    F94.4
05838:  MOVLW  05
0583A:  MOVWF  00
0583C:  DECFSZ 00,F
0583E:  BRA    583C
05840:  BCF    F8B.3
05842:  BCF    F94.3
*
058D6:  BSF    F94.4
058D8:  MOVLW  05
058DA:  MOVWF  00
058DC:  DECFSZ 00,F
058DE:  BRA    58DC
058E0:  BSF    F94.3
058E2:  MOVLW  06
058E4:  MOVWF  00
058E6:  DECFSZ 00,F
058E8:  BRA    58E6
058EA:  BCF    F8B.4
058EC:  BCF    F94.4
058EE:  MOVLW  05
058F0:  MOVWF  00
058F2:  DECFSZ 00,F
058F4:  BRA    58F2
058F6:  BCF    F8B.3
058F8:  BCF    F94.3
....................    i2c_write(direccion);   // Direccin del esclavo en el bus I2C 
*
05844:  MOVFF  6B5,6CB
05848:  CALL   254C
*
058FA:  MOVFF  6B5,6CB
058FE:  MOVLB  0
05900:  CALL   254C
....................    i2c_write(posicion);    // Posicin de donde se leer el dato en el esclavo 
*
0584C:  MOVFF  6B6,6CB
05850:  CALL   254C
*
05904:  MOVFF  6B6,6CB
05908:  CALL   254C
....................    i2c_start();            // Reinicio 
*
05854:  BSF    F94.4
05856:  MOVLW  05
05858:  MOVWF  00
0585A:  DECFSZ 00,F
0585C:  BRA    585A
0585E:  BSF    F94.3
05860:  MOVLW  06
05862:  MOVWF  00
05864:  DECFSZ 00,F
05866:  BRA    5864
05868:  BTFSS  F82.3
0586A:  BRA    5868
0586C:  BCF    F8B.4
0586E:  BCF    F94.4
05870:  MOVLW  05
05872:  MOVWF  00
05874:  DECFSZ 00,F
05876:  BRA    5874
05878:  BCF    F8B.3
0587A:  BCF    F94.3
*
0590C:  BSF    F94.4
0590E:  MOVLW  05
05910:  MOVWF  00
05912:  DECFSZ 00,F
05914:  BRA    5912
05916:  BSF    F94.3
05918:  MOVLW  06
0591A:  MOVWF  00
0591C:  DECFSZ 00,F
0591E:  BRA    591C
05920:  BTFSS  F82.3
05922:  BRA    5920
05924:  BCF    F8B.4
05926:  BCF    F94.4
05928:  MOVLW  05
0592A:  MOVWF  00
0592C:  DECFSZ 00,F
0592E:  BRA    592C
05930:  BCF    F8B.3
05932:  BCF    F94.3
....................    i2c_write(direccion+1); // Direccin del esclavo en modo lectura 
*
0587C:  MOVLW  01
0587E:  MOVLB  6
05880:  ADDWF  xB5,W
05882:  MOVWF  xB7
05884:  MOVWF  xCB
05886:  MOVLB  0
05888:  CALL   254C
*
05934:  MOVLW  01
05936:  MOVLB  6
05938:  ADDWF  xB5,W
0593A:  MOVWF  xB7
0593C:  MOVWF  xCB
0593E:  MOVLB  0
05940:  CALL   254C
....................    dato=i2c_read(0);       // Lectura del dato 
*
0588C:  CLRF   00
0588E:  CALL   25C2
05892:  MOVFF  01,DC
*
05944:  CLRF   00
05946:  CALL   25C2
0594A:  MOVFF  01,DC
....................    i2c_stop();             // Fin comunicacin 
*
05896:  BCF    F94.4
05898:  NOP   
0589A:  BSF    F94.3
0589C:  BTFSS  F82.3
0589E:  BRA    589C
058A0:  MOVLW  05
058A2:  MOVWF  00
058A4:  DECFSZ 00,F
058A6:  BRA    58A4
058A8:  BRA    58AA
058AA:  NOP   
058AC:  BSF    F94.4
058AE:  MOVLW  05
058B0:  MOVWF  00
058B2:  DECFSZ 00,F
058B4:  BRA    58B2
*
0594E:  BCF    F94.4
05950:  NOP   
05952:  BSF    F94.3
05954:  BTFSS  F82.3
05956:  BRA    5954
05958:  MOVLW  05
0595A:  MOVWF  00
0595C:  DECFSZ 00,F
0595E:  BRA    595C
05960:  BRA    5962
05962:  NOP   
05964:  BSF    F94.4
05966:  MOVLW  05
05968:  MOVWF  00
0596A:  DECFSZ 00,F
0596C:  BRA    596A
.................... } 
....................  
.................... void Carga_Vector(void){ 
....................    SlaveB0Tx[0]=(int8)Temperatura; 
*
053FC:  MOVFF  23F,6CA
05400:  MOVFF  23E,6C9
05404:  MOVFF  23D,6C8
05408:  MOVFF  23C,6C7
0540C:  RCALL  4DD4
0540E:  MOVFF  01,6C
....................    SlaveB0Tx[1]=(Temperatura-((int8)Temperatura))*10; 
05412:  MOVFF  23F,6CA
05416:  MOVFF  23E,6C9
0541A:  MOVFF  23D,6C8
0541E:  MOVFF  23C,6C7
05422:  RCALL  4DD4
05424:  MOVLB  6
05426:  CLRF   xC8
05428:  MOVFF  01,6C7
0542C:  MOVLB  0
0542E:  CALL   2082
05432:  BSF    FD8.1
05434:  MOVFF  23F,6CA
05438:  MOVFF  23E,6C9
0543C:  MOVFF  23D,6C8
05440:  MOVFF  23C,6C7
05444:  MOVFF  03,6CE
05448:  MOVFF  02,6CD
0544C:  MOVFF  01,6CC
05450:  MOVFF  00,6CB
05454:  CALL   223E
05458:  MOVFF  00,6C7
0545C:  MOVFF  01,6C8
05460:  MOVFF  02,6C9
05464:  MOVFF  03,6CA
05468:  MOVFF  03,6CE
0546C:  MOVFF  02,6CD
05470:  MOVFF  01,6CC
05474:  MOVFF  00,6CB
05478:  MOVLB  6
0547A:  CLRF   xD2
0547C:  CLRF   xD1
0547E:  MOVLW  20
05480:  MOVWF  xD0
05482:  MOVLW  82
05484:  MOVWF  xCF
05486:  MOVLB  0
05488:  CALL   4200
0548C:  MOVFF  03,6CA
05490:  MOVFF  02,6C9
05494:  MOVFF  01,6C8
05498:  MOVFF  00,6C7
0549C:  RCALL  4DD4
0549E:  MOVFF  01,6D
....................    SlaveB0Tx[2]=make8((int16)PresionCamara,0); 
054A2:  MOVFF  27C,6E
054A6:  MOVLB  0
....................    SlaveB0Tx[3]=make8((int16)PresionCamara,1); 
054A8:  MOVFF  27D,6F
054AC:  MOVLB  0
....................    SlaveB0Tx[4]=make8((int16)PresionPreCamara,0); 
054AE:  MOVFF  27E,70
054B2:  MOVLB  0
....................    SlaveB0Tx[5]=make8((int16)PresionPreCamara,1); 
054B4:  MOVFF  27F,71
054B8:  MOVLB  0
....................    SlaveB0Tx[6]=(int8)Tpulso*10; 
054BA:  MOVFF  20F,6CA
054BE:  MOVFF  20E,6C9
054C2:  MOVFF  20D,6C8
054C6:  MOVFF  20C,6C7
054CA:  RCALL  4DD4
054CC:  MOVF   01,W
054CE:  MULLW  0A
054D0:  MOVFF  FF3,72
....................    SlaveB0Tx[7]=seguroValvula; 
054D4:  CLRF   x73
054D6:  BTFSC  xF8.5
054D8:  INCF   x73,F
....................    SlaveB0Tx[8]=seguroValvula2; 
054DA:  CLRF   x74
054DC:  BTFSC  xF8.6
054DE:  INCF   x74,F
....................    //SlaveB0Tx[9]=TERM; 
....................    //SlaveB0Tx[10]=DOOR; 
....................    SlaveB0Tx[11]=STOP; 
054E0:  BSF    F93.0
054E2:  CLRF   x77
054E4:  BTFSS  F81.0
054E6:  INCF   x77,F
....................    SlaveB0Tx[12]=(int8)error; 
054E8:  MOVFF  213,6CA
054EC:  MOVFF  212,6C9
054F0:  MOVFF  211,6C8
054F4:  MOVFF  210,6C7
054F8:  RCALL  4DD4
054FA:  MOVFF  01,78
....................    SlaveB0Tx[13]=CicloSeleccionado; 
054FE:  MOVFF  263,79
....................    SlaveB0Tx[14]=SetTime; 
05502:  MOVFF  2B1,7A
....................    SlaveB0Tx[15]=Dia; 
05506:  MOVFF  2A0,7B
....................    SlaveB0Tx[16]=Mes; 
0550A:  MOVFF  29F,7C
....................    SlaveB0Tx[17]=Year; 
0550E:  MOVFF  29E,7D
....................    SlaveB0Tx[18]=Hora; 
05512:  MOVFF  2A1,7E
....................    SlaveB0Tx[19]=Minuto; 
05516:  MOVFF  2A2,7F
....................    SlaveB0Tx[20]=Segundo; 
0551A:  MOVFF  2A3,80
....................    SlaveB0Tx[21]=Imprime; 
0551E:  MOVFF  2B2,81
....................    SlaveB0Tx[22]=make8(Ciclos,0); 
05522:  MOVFF  280,82
05526:  MOVLB  0
....................    SlaveB0Tx[23]=make8(Ciclos,1); 
05528:  MOVFF  281,83
0552C:  MOVLB  0
....................    SlaveB0Tx[24]=EstadoBuzzer; 
0552E:  CLRF   x84
05530:  MOVLB  1
05532:  BTFSS  x06.0
05534:  BRA    553C
05536:  MOVLB  0
05538:  INCF   x84,F
0553A:  MOVLB  1
....................    SlaveB0Tx[25]=suministroAire; 
0553C:  MOVLB  0
0553E:  CLRF   x85
05540:  BTFSC  xF7.0
05542:  INCF   x85,F
....................    SlaveB0Tx[26]=AguaEnfriador; 
05544:  CLRF   x86
05546:  BTFSC  xF7.1
05548:  INCF   x86,F
....................    SlaveB0Tx[27]=BombaVacio; 
0554A:  CLRF   x87
0554C:  BTFSC  xF7.2
0554E:  INCF   x87,F
....................    SlaveB0Tx[28]=empaqueLimpio; 
05550:  CLRF   x88
05552:  BTFSC  xF7.3
05554:  INCF   x88,F
....................    SlaveB0Tx[29]=empaqueSucio; 
05556:  CLRF   x89
05558:  BTFSC  xF7.4
0555A:  INCF   x89,F
....................    SlaveB0Tx[30]=cilindroSucio; 
0555C:  CLRF   x8A
0555E:  BTFSC  xF8.2
05560:  INCF   x8A,F
....................    SlaveB0Tx[31]=cilindroLimpio; 
05562:  CLRF   x8B
05564:  BTFSC  xF8.3
05566:  INCF   x8B,F
....................    SlaveB0Tx[32]=suministroVapor; 
05568:  CLRF   x8C
0556A:  BTFSC  xF7.5
0556C:  INCF   x8C,F
....................    SlaveB0Tx[33]=Paso; 
0556E:  CLRF   x8D
05570:  BTFSC  xF7.6
05572:  INCF   x8D,F
....................    SlaveB0Tx[34]=outVacio; 
05574:  CLRF   x8E
05576:  BTFSC  xF7.7
05578:  INCF   x8E,F
....................    SlaveB0Tx[35]=Desfogue; 
0557A:  CLRF   x8F
0557C:  BTFSC  xF8.0
0557E:  INCF   x8F,F
....................    SlaveB0Tx[36]=Aire; 
05580:  CLRF   x90
05582:  BTFSC  xF8.1
05584:  INCF   x90,F
....................    SlaveB0Tx[37]=Aux; 
05586:  CLRF   x91
05588:  BTFSC  xF8.4
0558A:  INCF   x91,F
....................     
....................    SlaveC0Tx[0]=(int8)Temperatura; 
0558C:  MOVFF  23F,6CA
05590:  MOVFF  23E,6C9
05594:  MOVFF  23D,6C8
05598:  MOVFF  23C,6C7
0559C:  RCALL  4DD4
0559E:  MOVFF  01,92
....................    SlaveC0Tx[1]=(Temperatura-((int8)Temperatura))*10; 
055A2:  MOVFF  23F,6CA
055A6:  MOVFF  23E,6C9
055AA:  MOVFF  23D,6C8
055AE:  MOVFF  23C,6C7
055B2:  RCALL  4DD4
055B4:  MOVLB  6
055B6:  CLRF   xC8
055B8:  MOVFF  01,6C7
055BC:  MOVLB  0
055BE:  CALL   2082
055C2:  BSF    FD8.1
055C4:  MOVFF  23F,6CA
055C8:  MOVFF  23E,6C9
055CC:  MOVFF  23D,6C8
055D0:  MOVFF  23C,6C7
055D4:  MOVFF  03,6CE
055D8:  MOVFF  02,6CD
055DC:  MOVFF  01,6CC
055E0:  MOVFF  00,6CB
055E4:  CALL   223E
055E8:  MOVFF  00,6C7
055EC:  MOVFF  01,6C8
055F0:  MOVFF  02,6C9
055F4:  MOVFF  03,6CA
055F8:  MOVFF  03,6CE
055FC:  MOVFF  02,6CD
05600:  MOVFF  01,6CC
05604:  MOVFF  00,6CB
05608:  MOVLB  6
0560A:  CLRF   xD2
0560C:  CLRF   xD1
0560E:  MOVLW  20
05610:  MOVWF  xD0
05612:  MOVLW  82
05614:  MOVWF  xCF
05616:  MOVLB  0
05618:  CALL   4200
0561C:  MOVFF  03,6CA
05620:  MOVFF  02,6C9
05624:  MOVFF  01,6C8
05628:  MOVFF  00,6C7
0562C:  CALL   4DD4
05630:  MOVFF  01,93
....................    SlaveC0Tx[2]=make8((int16)PresionCamara,0); 
05634:  MOVFF  27C,94
05638:  MOVLB  0
....................    SlaveC0Tx[3]=make8((int16)PresionCamara,1); 
0563A:  MOVFF  27D,95
0563E:  MOVLB  0
....................    SlaveC0Tx[4]=make8((int16)PresionPreCamara,0); 
05640:  MOVFF  27E,96
05644:  MOVLB  0
....................    SlaveC0Tx[5]=make8((int16)PresionPreCamara,1); 
05646:  MOVFF  27F,97
0564A:  MOVLB  0
....................    SlaveC0Tx[6]=(int8)Tpulso*10; 
0564C:  MOVFF  20F,6CA
05650:  MOVFF  20E,6C9
05654:  MOVFF  20D,6C8
05658:  MOVFF  20C,6C7
0565C:  CALL   4DD4
05660:  MOVF   01,W
05662:  MULLW  0A
05664:  MOVFF  FF3,98
....................    //SlaveC0Tx[7]=HIG; 
....................    //SlaveC0Tx[8]=LOW; 
....................    //SlaveC0Tx[9]=TERM; 
....................    //SlaveC0Tx[10]=DOOR; 
....................    SlaveC0Tx[11]=STOP; 
05668:  BSF    F93.0
0566A:  CLRF   x9D
0566C:  BTFSS  F81.0
0566E:  INCF   x9D,F
....................    SlaveC0Tx[12]=(int8)error; 
05670:  MOVFF  213,6CA
05674:  MOVFF  212,6C9
05678:  MOVFF  211,6C8
0567C:  MOVFF  210,6C7
05680:  CALL   4DD4
05684:  MOVFF  01,9E
....................    SlaveC0Tx[13]=CicloSeleccionado; 
05688:  MOVFF  263,9F
....................    SlaveC0Tx[14]=SetTime; 
0568C:  MOVFF  2B1,A0
....................    SlaveC0Tx[15]=Dia; 
05690:  MOVFF  2A0,A1
....................    SlaveC0Tx[16]=Mes; 
05694:  MOVFF  29F,A2
....................    SlaveC0Tx[17]=Year; 
05698:  MOVFF  29E,A3
....................    SlaveC0Tx[18]=Hora; 
0569C:  MOVFF  2A1,A4
....................    SlaveC0Tx[19]=Minuto; 
056A0:  MOVFF  2A2,A5
....................    SlaveC0Tx[20]=Segundo; 
056A4:  MOVFF  2A3,A6
....................    SlaveC0Tx[21]=mEst; 
056A8:  MOVFF  123,A7
....................    SlaveC0Tx[22]=sEst; 
056AC:  MOVFF  122,A8
....................    SlaveC0Tx[23]=mSec; 
056B0:  MOVFF  125,A9
....................    SlaveC0Tx[24]=sSec; 
056B4:  MOVFF  124,AA
....................    SlaveC0Tx[25]=Menu; 
056B8:  MOVFF  25D,AB
....................    SlaveC0Tx[26]=Setpoint; 
056BC:  MOVFF  26B,AC
....................    SlaveC0Tx[27]=codigoAlarma; 
056C0:  MOVFF  297,AD
....................    SlaveC0Tx[28]=255; 
056C4:  MOVLW  FF
056C6:  MOVWF  xAE
....................    SlaveC0Tx[29]=128; 
056C8:  MOVLW  80
056CA:  MOVWF  xAF
....................    SlaveC0Tx[30]=50; 
056CC:  MOVLW  32
056CE:  MOVWF  xB0
.................... } 
056D0:  GOTO   5736 (RETURN)
....................  
.................... void Lee_Vector(void){ 
....................    //Dia=txbuf[0];    
.................... } 
*
00004:  GOTO   597A (RETURN)
....................  
.................... void Envio_Esclavos(void){ 
....................    Carga_Vector(); 
*
05734:  BRA    53FC
....................    for(i=0;i<38;i++){ 
05736:  MOVLB  2
05738:  CLRF   x60
0573A:  MOVF   x60,W
0573C:  SUBLW  25
0573E:  BNC   57C8
....................       direccion=0xB0; 
05740:  MOVLW  B0
05742:  MOVLB  0
05744:  MOVWF  xDD
....................       i2c_start();            // Comienzo comunicacin 
05746:  BSF    F94.4
05748:  MOVLW  05
0574A:  MOVWF  00
0574C:  DECFSZ 00,F
0574E:  BRA    574C
05750:  BSF    F94.3
05752:  MOVLW  06
05754:  MOVWF  00
05756:  DECFSZ 00,F
05758:  BRA    5756
0575A:  BCF    F8B.4
0575C:  BCF    F94.4
0575E:  MOVLW  05
05760:  MOVWF  00
05762:  DECFSZ 00,F
05764:  BRA    5762
05766:  BCF    F8B.3
05768:  BCF    F94.3
....................       i2c_write(direccion);   // Direccin del esclavo en el bus I2C 
0576A:  MOVFF  DD,6CB
0576E:  CALL   254C
....................       i2c_write(i);   // Direccin del esclavo en el bus I2C 
05772:  MOVFF  260,6CB
05776:  CALL   254C
....................       i2c_write(0);    // Posicin donde se guardara el dato transmitido 
0577A:  MOVLB  6
0577C:  CLRF   xCB
0577E:  MOVLB  0
05780:  CALL   254C
....................       i2c_write(SlaveB0Tx[i]); // Dato a transmitir 
05784:  CLRF   03
05786:  MOVLB  2
05788:  MOVF   x60,W
0578A:  ADDLW  6C
0578C:  MOVWF  FE9
0578E:  MOVLW  00
05790:  ADDWFC 03,W
05792:  MOVWF  FEA
05794:  MOVFF  FEF,6C7
05798:  MOVFF  6C7,6CB
0579C:  MOVLB  0
0579E:  CALL   254C
....................       i2c_stop();  
057A2:  BCF    F94.4
057A4:  NOP   
057A6:  BSF    F94.3
057A8:  BTFSS  F82.3
057AA:  BRA    57A8
057AC:  MOVLW  05
057AE:  MOVWF  00
057B0:  DECFSZ 00,F
057B2:  BRA    57B0
057B4:  BRA    57B6
057B6:  NOP   
057B8:  BSF    F94.4
057BA:  MOVLW  05
057BC:  MOVWF  00
057BE:  DECFSZ 00,F
057C0:  BRA    57BE
....................       //Envio_I2C(direccion,i,SlaveB0Tx[i]); 
....................    }  
057C2:  MOVLB  2
057C4:  INCF   x60,F
057C6:  BRA    573A
....................     
....................    for(i=0;i<31;i++){ 
057C8:  CLRF   x60
057CA:  MOVF   x60,W
057CC:  SUBLW  1E
057CE:  BNC   5800
....................       direccion=0xC0; 
057D0:  MOVLW  C0
057D2:  MOVLB  0
057D4:  MOVWF  xDD
....................       Envio_I2C(direccion,i,SlaveC0Tx[i]); 
057D6:  CLRF   03
057D8:  MOVLB  2
057DA:  MOVF   x60,W
057DC:  ADDLW  92
057DE:  MOVWF  FE9
057E0:  MOVLW  00
057E2:  ADDWFC 03,W
057E4:  MOVWF  FEA
057E6:  MOVFF  FEF,6C7
057EA:  MOVFF  DD,6C8
057EE:  MOVFF  260,6C9
057F2:  MOVFF  6C7,6CA
057F6:  MOVLB  0
057F8:  BRA    56D4
....................    } 
057FA:  MOVLB  2
057FC:  INCF   x60,F
057FE:  BRA    57CA
.................... } 
05800:  MOVLB  0
05802:  RETLW  00
.................... void Lectura_Esclavos(void){ 
....................    for(i=0;i<9;i++){ 
05804:  MOVLB  2
05806:  CLRF   x60
05808:  MOVF   x60,W
0580A:  SUBLW  08
0580C:  BNC   58CE
....................       direccion=0xB0;                        //Direccin en el bus I2c 
0580E:  MOVLW  B0
05810:  MOVLB  0
05812:  MOVWF  xDD
....................       posicion=i;                         //Posicin de memoria a leer 
05814:  MOVFF  260,DE
....................       Lectura_I2C(direccion, posicion, dato);    //Lectura por I2C 
05818:  MOVFF  DD,6B5
0581C:  MOVFF  DE,6B6
....................       txbuf[i]=(int8)dato; 
*
058B6:  CLRF   03
058B8:  MOVLB  2
058BA:  MOVF   x60,W
058BC:  ADDLW  47
058BE:  MOVWF  FE9
058C0:  MOVLW  00
058C2:  ADDWFC 03,W
058C4:  MOVWF  FEA
058C6:  MOVFF  DC,FEF
....................    } 
058CA:  INCF   x60,F
058CC:  BRA    5808
....................    Lectura_I2C(0XC0, 0, dato);    //Lectura por I2C 
058CE:  MOVLW  C0
058D0:  MOVLB  6
058D2:  MOVWF  xB5
058D4:  CLRF   xB6
....................    SlaveC0Rx[0]=(int8)dato; 
*
0596E:  MOVFF  DC,B7
....................    subirPuertaLimpio=SlaveC0Rx[0]; 
05972:  MOVFF  B7,1FD
....................    Lee_Vector(); 
05976:  GOTO   0004
.................... } 
0597A:  GOTO   82A0 (RETURN)
....................  
.................... int8 extraeDecimal(float data){ 
*
06FCC:  MOVLB  6
06FCE:  CLRF   xC2
06FD0:  CLRF   xC1
06FD2:  CLRF   xC0
06FD4:  CLRF   xBF
06FD6:  CLRF   xC6
06FD8:  CLRF   xC5
06FDA:  CLRF   xC4
06FDC:  CLRF   xC3
....................    float entero=0; 
....................    float tmp=0.0; 
....................     
....................    entero=(int8)data; 
06FDE:  MOVFF  6BE,6CA
06FE2:  MOVFF  6BD,6C9
06FE6:  MOVFF  6BC,6C8
06FEA:  MOVFF  6BB,6C7
06FEE:  MOVLB  0
06FF0:  CALL   4DD4
06FF4:  MOVLB  6
06FF6:  CLRF   xC8
06FF8:  MOVFF  01,6C7
06FFC:  MOVLB  0
06FFE:  CALL   2082
07002:  MOVFF  03,6C2
07006:  MOVFF  02,6C1
0700A:  MOVFF  01,6C0
0700E:  MOVFF  00,6BF
....................    tmp=(data-entero)*10; 
07012:  BSF    FD8.1
07014:  MOVFF  6BE,6CA
07018:  MOVFF  6BD,6C9
0701C:  MOVFF  6BC,6C8
07020:  MOVFF  6BB,6C7
07024:  MOVFF  6C2,6CE
07028:  MOVFF  6C1,6CD
0702C:  MOVFF  6C0,6CC
07030:  MOVFF  6BF,6CB
07034:  CALL   223E
07038:  MOVFF  00,6C7
0703C:  MOVFF  01,6C8
07040:  MOVFF  02,6C9
07044:  MOVFF  03,6CA
07048:  MOVFF  03,6CE
0704C:  MOVFF  02,6CD
07050:  MOVFF  01,6CC
07054:  MOVFF  00,6CB
07058:  MOVLB  6
0705A:  CLRF   xD2
0705C:  CLRF   xD1
0705E:  MOVLW  20
07060:  MOVWF  xD0
07062:  MOVLW  82
07064:  MOVWF  xCF
07066:  MOVLB  0
07068:  CALL   4200
0706C:  MOVFF  03,6C6
07070:  MOVFF  02,6C5
07074:  MOVFF  01,6C4
07078:  MOVFF  00,6C3
....................    return (int8)tmp; 
0707C:  MOVFF  6C6,6CA
07080:  MOVFF  6C5,6C9
07084:  MOVFF  6C4,6C8
07088:  MOVFF  6C3,6C7
0708C:  CALL   4DD4
07090:  MOVF   01,W
.................... } 
07092:  GOTO   71A6 (RETURN)
....................  
.................... float inttofloat(int8 decimal){ 
....................    float tmp; 
....................    tmp=decimal; 
*
026D4:  MOVLB  6
026D6:  CLRF   xC8
026D8:  MOVFF  6B9,6C7
026DC:  MOVLB  0
026DE:  RCALL  2082
026E0:  MOVFF  03,6BD
026E4:  MOVFF  02,6BC
026E8:  MOVFF  01,6BB
026EC:  MOVFF  00,6BA
....................    return tmp/10; 
026F0:  MOVFF  6BD,6C4
026F4:  MOVFF  6BC,6C3
026F8:  MOVFF  6BB,6C2
026FC:  MOVFF  6BA,6C1
02700:  MOVLB  6
02702:  CLRF   xC8
02704:  CLRF   xC7
02706:  MOVLW  20
02708:  MOVWF  xC6
0270A:  MOVLW  82
0270C:  MOVWF  xC5
0270E:  MOVLB  0
02710:  RCALL  20E0
.................... } 
02712:  RETLW  00
....................  
.................... void LeeEEPROM(){ 
.................... //Lectura EEPROM//-------------------------- 
....................    Ganancia=read_eeprom(20); 
*
0278E:  MOVFF  FF2,6B5
02792:  BCF    FF2.6
02794:  BCF    FF2.7
02796:  CLRF   FAA
02798:  MOVLW  14
0279A:  MOVWF  FA9
0279C:  BCF    FA6.6
0279E:  BCF    FA6.7
027A0:  BSF    FA6.0
027A2:  MOVF   FA8,W
027A4:  MOVLB  6
027A6:  BTFSC  xB5.6
027A8:  BSF    FF2.6
027AA:  BTFSC  xB5.7
027AC:  BSF    FF2.7
027AE:  CLRF   xC8
027B0:  MOVWF  xC7
027B2:  MOVLB  0
027B4:  RCALL  2082
027B6:  MOVFF  03,223
027BA:  MOVFF  02,222
027BE:  MOVFF  01,221
027C2:  MOVFF  00,220
....................    delay_ms(10); 
027C6:  MOVLW  0A
027C8:  MOVLB  6
027CA:  MOVWF  xC7
027CC:  MOVLB  0
027CE:  RCALL  20B8
....................    Sensor[0].Ajuste=read_eeprom(21); 
027D0:  MOVFF  FF2,6B5
027D4:  BCF    FF2.6
027D6:  BCF    FF2.7
027D8:  CLRF   FAA
027DA:  MOVLW  15
027DC:  MOVWF  FA9
027DE:  BCF    FA6.6
027E0:  BCF    FA6.7
027E2:  BSF    FA6.0
027E4:  MOVF   FA8,W
027E6:  MOVLB  6
027E8:  BTFSC  xB5.6
027EA:  BSF    FF2.6
027EC:  BTFSC  xB5.7
027EE:  BSF    FF2.7
027F0:  MOVLB  3
027F2:  MOVWF  x43
....................    delay_ms(10); 
027F4:  MOVLW  0A
027F6:  MOVLB  6
027F8:  MOVWF  xC7
027FA:  MOVLB  0
027FC:  RCALL  20B8
....................    Sensor[0].Ajusten=read_eeprom(22); 
027FE:  MOVFF  FF2,6B5
02802:  BCF    FF2.6
02804:  BCF    FF2.7
02806:  CLRF   FAA
02808:  MOVLW  16
0280A:  MOVWF  FA9
0280C:  BCF    FA6.6
0280E:  BCF    FA6.7
02810:  BSF    FA6.0
02812:  MOVF   FA8,W
02814:  MOVLB  6
02816:  BTFSC  xB5.6
02818:  BSF    FF2.6
0281A:  BTFSC  xB5.7
0281C:  BSF    FF2.7
0281E:  MOVLB  3
02820:  MOVWF  x44
....................    delay_ms(10); 
02822:  MOVLW  0A
02824:  MOVLB  6
02826:  MOVWF  xC7
02828:  MOVLB  0
0282A:  RCALL  20B8
....................    Sensor[1].Ajuste=read_eeprom(23); 
0282C:  MOVFF  FF2,6B5
02830:  BCF    FF2.6
02832:  BCF    FF2.7
02834:  CLRF   FAA
02836:  MOVLW  17
02838:  MOVWF  FA9
0283A:  BCF    FA6.6
0283C:  BCF    FA6.7
0283E:  BSF    FA6.0
02840:  MOVF   FA8,W
02842:  MOVLB  6
02844:  BTFSC  xB5.6
02846:  BSF    FF2.6
02848:  BTFSC  xB5.7
0284A:  BSF    FF2.7
0284C:  MOVLB  4
0284E:  MOVWF  xA7
....................    delay_ms(10); 
02850:  MOVLW  0A
02852:  MOVLB  6
02854:  MOVWF  xC7
02856:  MOVLB  0
02858:  RCALL  20B8
....................    Sensor[1].Ajusten=read_eeprom(24); 
0285A:  MOVFF  FF2,6B5
0285E:  BCF    FF2.6
02860:  BCF    FF2.7
02862:  CLRF   FAA
02864:  MOVLW  18
02866:  MOVWF  FA9
02868:  BCF    FA6.6
0286A:  BCF    FA6.7
0286C:  BSF    FA6.0
0286E:  MOVF   FA8,W
02870:  MOVLB  6
02872:  BTFSC  xB5.6
02874:  BSF    FF2.6
02876:  BTFSC  xB5.7
02878:  BSF    FF2.7
0287A:  MOVLB  4
0287C:  MOVWF  xA8
....................    delay_ms(10);    
0287E:  MOVLW  0A
02880:  MOVLB  6
02882:  MOVWF  xC7
02884:  MOVLB  0
02886:  RCALL  20B8
....................    MediaMovil=read_eeprom(25); 
02888:  MOVFF  FF2,6B5
0288C:  BCF    FF2.6
0288E:  BCF    FF2.7
02890:  CLRF   FAA
02892:  MOVLW  19
02894:  MOVWF  FA9
02896:  BCF    FA6.6
02898:  BCF    FA6.7
0289A:  BSF    FA6.0
0289C:  MOVF   FA8,W
0289E:  MOVLB  6
028A0:  BTFSC  xB5.6
028A2:  BSF    FF2.6
028A4:  BTFSC  xB5.7
028A6:  BSF    FF2.7
028A8:  MOVLB  1
028AA:  MOVWF  xF8
....................    delay_ms(10); 
028AC:  MOVLW  0A
028AE:  MOVLB  6
028B0:  MOVWF  xC7
028B2:  MOVLB  0
028B4:  RCALL  20B8
....................    Tciclo=read_eeprom(26); 
028B6:  MOVFF  FF2,6B5
028BA:  BCF    FF2.6
028BC:  BCF    FF2.7
028BE:  CLRF   FAA
028C0:  MOVLW  1A
028C2:  MOVWF  FA9
028C4:  BCF    FA6.6
028C6:  BCF    FA6.7
028C8:  BSF    FA6.0
028CA:  MOVF   FA8,W
028CC:  MOVLB  6
028CE:  BTFSC  xB5.6
028D0:  BSF    FF2.6
028D2:  BTFSC  xB5.7
028D4:  BSF    FF2.7
028D6:  CLRF   xC8
028D8:  MOVWF  xC7
028DA:  MOVLB  0
028DC:  CALL   2082
028E0:  MOVFF  03,20B
028E4:  MOVFF  02,20A
028E8:  MOVFF  01,209
028EC:  MOVFF  00,208
....................    delay_ms(10); 
028F0:  MOVLW  0A
028F2:  MOVLB  6
028F4:  MOVWF  xC7
028F6:  MOVLB  0
028F8:  CALL   20B8
....................    Temporal=read_eeprom(27); 
028FC:  MOVFF  FF2,6B5
02900:  BCF    FF2.6
02902:  BCF    FF2.7
02904:  CLRF   FAA
02906:  MOVLW  1B
02908:  MOVWF  FA9
0290A:  BCF    FA6.6
0290C:  BCF    FA6.7
0290E:  BSF    FA6.0
02910:  MOVF   FA8,W
02912:  MOVLB  6
02914:  BTFSC  xB5.6
02916:  BSF    FF2.6
02918:  BTFSC  xB5.7
0291A:  BSF    FF2.7
0291C:  CLRF   xC8
0291E:  MOVWF  xC7
02920:  MOVLB  0
02922:  CALL   2082
02926:  MOVFF  03,1CD
0292A:  MOVFF  02,1CC
0292E:  MOVFF  01,1CB
02932:  MOVFF  00,1CA
....................    Temporal=Temporal/10.0; 
02936:  MOVFF  1CD,6C4
0293A:  MOVFF  1CC,6C3
0293E:  MOVFF  1CB,6C2
02942:  MOVFF  1CA,6C1
02946:  MOVLB  6
02948:  CLRF   xC8
0294A:  CLRF   xC7
0294C:  MOVLW  20
0294E:  MOVWF  xC6
02950:  MOVLW  82
02952:  MOVWF  xC5
02954:  MOVLB  0
02956:  CALL   20E0
0295A:  MOVFF  03,1CD
0295E:  MOVFF  02,1CC
02962:  MOVFF  01,1CB
02966:  MOVFF  00,1CA
....................    delay_ms(10); 
0296A:  MOVLW  0A
0296C:  MOVLB  6
0296E:  MOVWF  xC7
02970:  MOVLB  0
02972:  CALL   20B8
....................    Sensor[0].RPT100=read_eeprom(28)+Temporal; 
02976:  MOVFF  FF2,6B5
0297A:  BCF    FF2.6
0297C:  BCF    FF2.7
0297E:  CLRF   FAA
02980:  MOVLW  1C
02982:  MOVWF  FA9
02984:  BCF    FA6.6
02986:  BCF    FA6.7
02988:  BSF    FA6.0
0298A:  MOVF   FA8,W
0298C:  MOVLB  6
0298E:  BTFSC  xB5.6
02990:  BSF    FF2.6
02992:  BTFSC  xB5.7
02994:  BSF    FF2.7
02996:  CLRF   xC8
02998:  MOVWF  xC7
0299A:  MOVLB  0
0299C:  CALL   2082
029A0:  BCF    FD8.1
029A2:  MOVFF  03,6CA
029A6:  MOVFF  02,6C9
029AA:  MOVFF  01,6C8
029AE:  MOVFF  00,6C7
029B2:  MOVFF  1CD,6CE
029B6:  MOVFF  1CC,6CD
029BA:  MOVFF  1CB,6CC
029BE:  MOVFF  1CA,6CB
029C2:  RCALL  223E
029C4:  MOVFF  03,338
029C8:  MOVFF  02,337
029CC:  MOVFF  01,336
029D0:  MOVFF  00,335
....................    delay_ms(10); 
029D4:  MOVLW  0A
029D6:  MOVLB  6
029D8:  MOVWF  xC7
029DA:  MOVLB  0
029DC:  CALL   20B8
....................    Temporal=read_eeprom(29); 
029E0:  MOVFF  FF2,6B5
029E4:  BCF    FF2.6
029E6:  BCF    FF2.7
029E8:  CLRF   FAA
029EA:  MOVLW  1D
029EC:  MOVWF  FA9
029EE:  BCF    FA6.6
029F0:  BCF    FA6.7
029F2:  BSF    FA6.0
029F4:  MOVF   FA8,W
029F6:  MOVLB  6
029F8:  BTFSC  xB5.6
029FA:  BSF    FF2.6
029FC:  BTFSC  xB5.7
029FE:  BSF    FF2.7
02A00:  CLRF   xC8
02A02:  MOVWF  xC7
02A04:  MOVLB  0
02A06:  CALL   2082
02A0A:  MOVFF  03,1CD
02A0E:  MOVFF  02,1CC
02A12:  MOVFF  01,1CB
02A16:  MOVFF  00,1CA
....................    Temporal=Temporal/10.0; 
02A1A:  MOVFF  1CD,6C4
02A1E:  MOVFF  1CC,6C3
02A22:  MOVFF  1CB,6C2
02A26:  MOVFF  1CA,6C1
02A2A:  MOVLB  6
02A2C:  CLRF   xC8
02A2E:  CLRF   xC7
02A30:  MOVLW  20
02A32:  MOVWF  xC6
02A34:  MOVLW  82
02A36:  MOVWF  xC5
02A38:  MOVLB  0
02A3A:  CALL   20E0
02A3E:  MOVFF  03,1CD
02A42:  MOVFF  02,1CC
02A46:  MOVFF  01,1CB
02A4A:  MOVFF  00,1CA
....................    delay_ms(10); 
02A4E:  MOVLW  0A
02A50:  MOVLB  6
02A52:  MOVWF  xC7
02A54:  MOVLB  0
02A56:  CALL   20B8
....................    Sensor[1].RPT100=read_eeprom(30)+Temporal; 
02A5A:  MOVFF  FF2,6B5
02A5E:  BCF    FF2.6
02A60:  BCF    FF2.7
02A62:  CLRF   FAA
02A64:  MOVLW  1E
02A66:  MOVWF  FA9
02A68:  BCF    FA6.6
02A6A:  BCF    FA6.7
02A6C:  BSF    FA6.0
02A6E:  MOVF   FA8,W
02A70:  MOVLB  6
02A72:  BTFSC  xB5.6
02A74:  BSF    FF2.6
02A76:  BTFSC  xB5.7
02A78:  BSF    FF2.7
02A7A:  CLRF   xC8
02A7C:  MOVWF  xC7
02A7E:  MOVLB  0
02A80:  CALL   2082
02A84:  BCF    FD8.1
02A86:  MOVFF  03,6CA
02A8A:  MOVFF  02,6C9
02A8E:  MOVFF  01,6C8
02A92:  MOVFF  00,6C7
02A96:  MOVFF  1CD,6CE
02A9A:  MOVFF  1CC,6CD
02A9E:  MOVFF  1CB,6CC
02AA2:  MOVFF  1CA,6CB
02AA6:  CALL   223E
02AAA:  MOVFF  03,49C
02AAE:  MOVFF  02,49B
02AB2:  MOVFF  01,49A
02AB6:  MOVFF  00,499
....................    delay_ms(10); 
02ABA:  MOVLW  0A
02ABC:  MOVLB  6
02ABE:  MOVWF  xC7
02AC0:  MOVLB  0
02AC2:  CALL   20B8
....................    Atmosferica=read_eeprom(31); 
02AC6:  MOVFF  FF2,6B5
02ACA:  BCF    FF2.6
02ACC:  BCF    FF2.7
02ACE:  CLRF   FAA
02AD0:  MOVLW  1F
02AD2:  MOVWF  FA9
02AD4:  BCF    FA6.6
02AD6:  BCF    FA6.7
02AD8:  BSF    FA6.0
02ADA:  MOVF   FA8,W
02ADC:  MOVLB  6
02ADE:  BTFSC  xB5.6
02AE0:  BSF    FF2.6
02AE2:  BTFSC  xB5.7
02AE4:  BSF    FF2.7
02AE6:  MOVLB  2
02AE8:  MOVWF  xA8
....................    delay_ms(10); 
02AEA:  MOVLW  0A
02AEC:  MOVLB  6
02AEE:  MOVWF  xC7
02AF0:  MOVLB  0
02AF2:  CALL   20B8
....................    Tapertura=read_eeprom(32); 
02AF6:  MOVFF  FF2,6B5
02AFA:  BCF    FF2.6
02AFC:  BCF    FF2.7
02AFE:  CLRF   FAA
02B00:  MOVLW  20
02B02:  MOVWF  FA9
02B04:  BCF    FA6.6
02B06:  BCF    FA6.7
02B08:  BSF    FA6.0
02B0A:  MOVF   FA8,W
02B0C:  MOVLB  6
02B0E:  BTFSC  xB5.6
02B10:  BSF    FF2.6
02B12:  BTFSC  xB5.7
02B14:  BSF    FF2.7
02B16:  MOVLB  2
02B18:  MOVWF  x64
....................    delay_ms(10); 
02B1A:  MOVLW  0A
02B1C:  MOVLB  6
02B1E:  MOVWF  xC7
02B20:  MOVLB  0
02B22:  CALL   20B8
....................    CiclosL=read_eeprom(37); 
02B26:  MOVFF  FF2,6B5
02B2A:  BCF    FF2.6
02B2C:  BCF    FF2.7
02B2E:  CLRF   FAA
02B30:  MOVLW  25
02B32:  MOVWF  FA9
02B34:  BCF    FA6.6
02B36:  BCF    FA6.7
02B38:  BSF    FA6.0
02B3A:  MOVF   FA8,W
02B3C:  MOVLB  6
02B3E:  BTFSC  xB5.6
02B40:  BSF    FF2.6
02B42:  BTFSC  xB5.7
02B44:  BSF    FF2.7
02B46:  MOVLB  2
02B48:  MOVWF  x61
....................    delay_ms(10); 
02B4A:  MOVLW  0A
02B4C:  MOVLB  6
02B4E:  MOVWF  xC7
02B50:  MOVLB  0
02B52:  CALL   20B8
....................    CiclosH=read_eeprom(38); 
02B56:  MOVFF  FF2,6B5
02B5A:  BCF    FF2.6
02B5C:  BCF    FF2.7
02B5E:  CLRF   FAA
02B60:  MOVLW  26
02B62:  MOVWF  FA9
02B64:  BCF    FA6.6
02B66:  BCF    FA6.7
02B68:  BSF    FA6.0
02B6A:  MOVF   FA8,W
02B6C:  MOVLB  6
02B6E:  BTFSC  xB5.6
02B70:  BSF    FF2.6
02B72:  BTFSC  xB5.7
02B74:  BSF    FF2.7
02B76:  MOVLB  2
02B78:  MOVWF  x62
....................    delay_ms(10); 
02B7A:  MOVLW  0A
02B7C:  MOVLB  6
02B7E:  MOVWF  xC7
02B80:  MOVLB  0
02B82:  CALL   20B8
....................    Ciclos=make16(CiclosH,CiclosL); 
02B86:  MOVFF  262,281
02B8A:  MOVFF  261,280
....................    delay_ms(10); 
02B8E:  MOVLW  0A
02B90:  MOVLB  6
02B92:  MOVWF  xC7
02B94:  MOVLB  0
02B96:  CALL   20B8
....................    G1=read_eeprom(42); 
02B9A:  MOVFF  FF2,6B5
02B9E:  BCF    FF2.6
02BA0:  BCF    FF2.7
02BA2:  CLRF   FAA
02BA4:  MOVLW  2A
02BA6:  MOVWF  FA9
02BA8:  BCF    FA6.6
02BAA:  BCF    FA6.7
02BAC:  BSF    FA6.0
02BAE:  MOVF   FA8,W
02BB0:  MOVLB  6
02BB2:  BTFSC  xB5.6
02BB4:  BSF    FF2.6
02BB6:  BTFSC  xB5.7
02BB8:  BSF    FF2.7
02BBA:  MOVLB  2
02BBC:  MOVWF  xB7
....................    delay_ms(10); 
02BBE:  MOVLW  0A
02BC0:  MOVLB  6
02BC2:  MOVWF  xC7
02BC4:  MOVLB  0
02BC6:  CALL   20B8
....................    G2=read_eeprom(43); 
02BCA:  MOVFF  FF2,6B5
02BCE:  BCF    FF2.6
02BD0:  BCF    FF2.7
02BD2:  CLRF   FAA
02BD4:  MOVLW  2B
02BD6:  MOVWF  FA9
02BD8:  BCF    FA6.6
02BDA:  BCF    FA6.7
02BDC:  BSF    FA6.0
02BDE:  MOVF   FA8,W
02BE0:  MOVLB  6
02BE2:  BTFSC  xB5.6
02BE4:  BSF    FF2.6
02BE6:  BTFSC  xB5.7
02BE8:  BSF    FF2.7
02BEA:  MOVLB  2
02BEC:  MOVWF  xB8
....................    delay_ms(10); 
02BEE:  MOVLW  0A
02BF0:  MOVLB  6
02BF2:  MOVWF  xC7
02BF4:  MOVLB  0
02BF6:  CALL   20B8
....................    sg1=read_eeprom(44); 
02BFA:  MOVFF  FF2,6B5
02BFE:  BCF    FF2.6
02C00:  BCF    FF2.7
02C02:  CLRF   FAA
02C04:  MOVLW  2C
02C06:  MOVWF  FA9
02C08:  BCF    FA6.6
02C0A:  BCF    FA6.7
02C0C:  BSF    FA6.0
02C0E:  MOVF   FA8,W
02C10:  MOVLB  6
02C12:  BTFSC  xB5.6
02C14:  BSF    FF2.6
02C16:  BTFSC  xB5.7
02C18:  BSF    FF2.7
02C1A:  MOVLB  2
02C1C:  MOVWF  xB9
....................    delay_ms(10); 
02C1E:  MOVLW  0A
02C20:  MOVLB  6
02C22:  MOVWF  xC7
02C24:  MOVLB  0
02C26:  CALL   20B8
....................    sg2=read_eeprom(45); 
02C2A:  MOVFF  FF2,6B5
02C2E:  BCF    FF2.6
02C30:  BCF    FF2.7
02C32:  CLRF   FAA
02C34:  MOVLW  2D
02C36:  MOVWF  FA9
02C38:  BCF    FA6.6
02C3A:  BCF    FA6.7
02C3C:  BSF    FA6.0
02C3E:  MOVF   FA8,W
02C40:  MOVLB  6
02C42:  BTFSC  xB5.6
02C44:  BSF    FF2.6
02C46:  BTFSC  xB5.7
02C48:  BSF    FF2.7
02C4A:  MOVLB  2
02C4C:  MOVWF  xBA
....................    delay_ms(10); 
02C4E:  MOVLW  0A
02C50:  MOVLB  6
02C52:  MOVWF  xC7
02C54:  MOVLB  0
02C56:  CALL   20B8
....................    cerroSucioInt=read_eeprom(46); 
02C5A:  MOVFF  FF2,6B5
02C5E:  BCF    FF2.6
02C60:  BCF    FF2.7
02C62:  CLRF   FAA
02C64:  MOVLW  2E
02C66:  MOVWF  FA9
02C68:  BCF    FA6.6
02C6A:  BCF    FA6.7
02C6C:  BSF    FA6.0
02C6E:  MOVF   FA8,W
02C70:  MOVLB  6
02C72:  BTFSC  xB5.6
02C74:  BSF    FF2.6
02C76:  BTFSC  xB5.7
02C78:  BSF    FF2.7
02C7A:  MOVLB  1
02C7C:  MOVWF  xFE
....................    delay_ms(10); 
02C7E:  MOVLW  0A
02C80:  MOVLB  6
02C82:  MOVWF  xC7
02C84:  MOVLB  0
02C86:  CALL   20B8
....................    cerroLimpioInt=read_eeprom(47); 
02C8A:  MOVFF  FF2,6B5
02C8E:  BCF    FF2.6
02C90:  BCF    FF2.7
02C92:  CLRF   FAA
02C94:  MOVLW  2F
02C96:  MOVWF  FA9
02C98:  BCF    FA6.6
02C9A:  BCF    FA6.7
02C9C:  BSF    FA6.0
02C9E:  MOVF   FA8,W
02CA0:  MOVLB  6
02CA2:  BTFSC  xB5.6
02CA4:  BSF    FF2.6
02CA6:  BTFSC  xB5.7
02CA8:  BSF    FF2.7
02CAA:  MOVLB  1
02CAC:  MOVWF  xFF
....................    delay_ms(10); 
02CAE:  MOVLW  0A
02CB0:  MOVLB  6
02CB2:  MOVWF  xC7
02CB4:  MOVLB  0
02CB6:  CALL   20B8
....................     
....................    for(i=0;i<30;i++){ 
02CBA:  MOVLB  2
02CBC:  CLRF   x60
02CBE:  MOVF   x60,W
02CC0:  SUBLW  1D
02CC2:  BNC   2D3C
....................       estados[i]=read_eeprom(i+50); 
02CC4:  MOVLW  32
02CC6:  ADDWF  x60,W
02CC8:  MOVLB  6
02CCA:  MOVWF  xB5
02CCC:  MOVFF  FF2,6B6
02CD0:  BCF    FF2.6
02CD2:  BCF    FF2.7
02CD4:  CLRF   FAA
02CD6:  MOVFF  6B5,FA9
02CDA:  BCF    FA6.6
02CDC:  BCF    FA6.7
02CDE:  BSF    FA6.0
02CE0:  MOVF   FA8,W
02CE2:  BTFSC  xB6.6
02CE4:  BSF    FF2.6
02CE6:  BTFSC  xB6.7
02CE8:  BSF    FF2.7
02CEA:  MOVFF  260,6B7
02CEE:  MOVWF  xB8
02CF0:  MOVLW  03
02CF2:  MOVWF  xBA
02CF4:  MOVLW  21
02CF6:  MOVWF  xB9
02CF8:  MOVLB  0
02CFA:  CALL   24B6
....................       if(estados[i]>1) 
02CFE:  MOVFF  260,6B6
02D02:  MOVLW  03
02D04:  MOVLB  6
02D06:  MOVWF  xB8
02D08:  MOVLW  21
02D0A:  MOVWF  xB7
02D0C:  MOVLB  0
02D0E:  CALL   24F8
02D12:  MOVLW  00
02D14:  BTFSC  01.0
02D16:  MOVLW  01
02D18:  ANDLW  01
02D1A:  SUBLW  01
02D1C:  BC    2D36
....................          estados[i]=1; 
02D1E:  MOVFF  260,6B7
02D22:  MOVLW  01
02D24:  MOVLB  6
02D26:  MOVWF  xB8
02D28:  MOVLW  03
02D2A:  MOVWF  xBA
02D2C:  MOVLW  21
02D2E:  MOVWF  xB9
02D30:  MOVLB  0
02D32:  CALL   24B6
....................    } 
02D36:  MOVLB  2
02D38:  INCF   x60,F
02D3A:  BRA    2CBE
....................     
....................    for(i=0;i<20;i++){//Lee valores almacenados de ciclos personalizados 
02D3C:  CLRF   x60
02D3E:  MOVF   x60,W
02D40:  SUBLW  13
02D42:  BTFSS  FD8.0
02D44:  BRA    3312
....................       CiclosPersonalizados[i].Temperatura=read_eeprom(100+(i*8));  
02D46:  MOVF   x60,W
02D48:  MULLW  08
02D4A:  MOVF   FF3,W
02D4C:  MOVLB  6
02D4E:  CLRF   xB6
02D50:  MOVWF  xB5
02D52:  MOVLW  ED
02D54:  ADDWF  xB5,W
02D56:  MOVWF  FE9
02D58:  MOVLW  05
02D5A:  ADDWFC xB6,W
02D5C:  MOVWF  FEA
02D5E:  MOVLB  2
02D60:  MOVF   x60,W
02D62:  MULLW  08
02D64:  MOVF   FF3,W
02D66:  ADDLW  64
02D68:  MOVLB  6
02D6A:  MOVWF  xB7
02D6C:  MOVFF  FF2,6B8
02D70:  BCF    FF2.6
02D72:  BCF    FF2.7
02D74:  CLRF   FAA
02D76:  MOVFF  6B7,FA9
02D7A:  BCF    FA6.6
02D7C:  BCF    FA6.7
02D7E:  BSF    FA6.0
02D80:  MOVF   FA8,W
02D82:  BTFSC  xB8.6
02D84:  BSF    FF2.6
02D86:  BTFSC  xB8.7
02D88:  BSF    FF2.7
02D8A:  MOVWF  FEF
....................       CiclosPersonalizados[i].Minutoest=read_eeprom(101+(i*8));  
02D8C:  MOVLB  2
02D8E:  MOVF   x60,W
02D90:  MULLW  08
02D92:  MOVF   FF3,W
02D94:  MOVLB  6
02D96:  CLRF   xB6
02D98:  MOVWF  xB5
02D9A:  MOVLW  01
02D9C:  ADDWF  xB5,W
02D9E:  MOVWF  01
02DA0:  MOVLW  00
02DA2:  ADDWFC xB6,W
02DA4:  MOVWF  03
02DA6:  MOVF   01,W
02DA8:  ADDLW  ED
02DAA:  MOVWF  FE9
02DAC:  MOVLW  05
02DAE:  ADDWFC 03,W
02DB0:  MOVWF  FEA
02DB2:  MOVLB  2
02DB4:  MOVF   x60,W
02DB6:  MULLW  08
02DB8:  MOVF   FF3,W
02DBA:  ADDLW  65
02DBC:  MOVLB  6
02DBE:  MOVWF  xB7
02DC0:  MOVFF  FF2,6B8
02DC4:  BCF    FF2.6
02DC6:  BCF    FF2.7
02DC8:  CLRF   FAA
02DCA:  MOVFF  6B7,FA9
02DCE:  BCF    FA6.6
02DD0:  BCF    FA6.7
02DD2:  BSF    FA6.0
02DD4:  MOVF   FA8,W
02DD6:  BTFSC  xB8.6
02DD8:  BSF    FF2.6
02DDA:  BTFSC  xB8.7
02DDC:  BSF    FF2.7
02DDE:  MOVWF  FEF
....................       CiclosPersonalizados[i].Segundoest=read_eeprom(102+(i*8));  
02DE0:  MOVLB  2
02DE2:  MOVF   x60,W
02DE4:  MULLW  08
02DE6:  MOVF   FF3,W
02DE8:  MOVLB  6
02DEA:  CLRF   xB6
02DEC:  MOVWF  xB5
02DEE:  MOVLW  02
02DF0:  ADDWF  xB5,W
02DF2:  MOVWF  01
02DF4:  MOVLW  00
02DF6:  ADDWFC xB6,W
02DF8:  MOVWF  03
02DFA:  MOVF   01,W
02DFC:  ADDLW  ED
02DFE:  MOVWF  FE9
02E00:  MOVLW  05
02E02:  ADDWFC 03,W
02E04:  MOVWF  FEA
02E06:  MOVLB  2
02E08:  MOVF   x60,W
02E0A:  MULLW  08
02E0C:  MOVF   FF3,W
02E0E:  ADDLW  66
02E10:  MOVLB  6
02E12:  MOVWF  xB7
02E14:  MOVFF  FF2,6B8
02E18:  BCF    FF2.6
02E1A:  BCF    FF2.7
02E1C:  CLRF   FAA
02E1E:  MOVFF  6B7,FA9
02E22:  BCF    FA6.6
02E24:  BCF    FA6.7
02E26:  BSF    FA6.0
02E28:  MOVF   FA8,W
02E2A:  BTFSC  xB8.6
02E2C:  BSF    FF2.6
02E2E:  BTFSC  xB8.7
02E30:  BSF    FF2.7
02E32:  MOVWF  FEF
....................       CiclosPersonalizados[i].Minutosec=read_eeprom(103+(i*8));  
02E34:  MOVLB  2
02E36:  MOVF   x60,W
02E38:  MULLW  08
02E3A:  MOVF   FF3,W
02E3C:  MOVLB  6
02E3E:  CLRF   xB6
02E40:  MOVWF  xB5
02E42:  MOVLW  03
02E44:  ADDWF  xB5,W
02E46:  MOVWF  01
02E48:  MOVLW  00
02E4A:  ADDWFC xB6,W
02E4C:  MOVWF  03
02E4E:  MOVF   01,W
02E50:  ADDLW  ED
02E52:  MOVWF  FE9
02E54:  MOVLW  05
02E56:  ADDWFC 03,W
02E58:  MOVWF  FEA
02E5A:  MOVLB  2
02E5C:  MOVF   x60,W
02E5E:  MULLW  08
02E60:  MOVF   FF3,W
02E62:  ADDLW  67
02E64:  MOVLB  6
02E66:  MOVWF  xB7
02E68:  MOVFF  FF2,6B8
02E6C:  BCF    FF2.6
02E6E:  BCF    FF2.7
02E70:  CLRF   FAA
02E72:  MOVFF  6B7,FA9
02E76:  BCF    FA6.6
02E78:  BCF    FA6.7
02E7A:  BSF    FA6.0
02E7C:  MOVF   FA8,W
02E7E:  BTFSC  xB8.6
02E80:  BSF    FF2.6
02E82:  BTFSC  xB8.7
02E84:  BSF    FF2.7
02E86:  MOVWF  FEF
....................       CiclosPersonalizados[i].Segundosec=read_eeprom(104+(i*8));  
02E88:  MOVLB  2
02E8A:  MOVF   x60,W
02E8C:  MULLW  08
02E8E:  MOVF   FF3,W
02E90:  MOVLB  6
02E92:  CLRF   xB6
02E94:  MOVWF  xB5
02E96:  MOVLW  04
02E98:  ADDWF  xB5,W
02E9A:  MOVWF  01
02E9C:  MOVLW  00
02E9E:  ADDWFC xB6,W
02EA0:  MOVWF  03
02EA2:  MOVF   01,W
02EA4:  ADDLW  ED
02EA6:  MOVWF  FE9
02EA8:  MOVLW  05
02EAA:  ADDWFC 03,W
02EAC:  MOVWF  FEA
02EAE:  MOVLB  2
02EB0:  MOVF   x60,W
02EB2:  MULLW  08
02EB4:  MOVF   FF3,W
02EB6:  ADDLW  68
02EB8:  MOVLB  6
02EBA:  MOVWF  xB7
02EBC:  MOVFF  FF2,6B8
02EC0:  BCF    FF2.6
02EC2:  BCF    FF2.7
02EC4:  CLRF   FAA
02EC6:  MOVFF  6B7,FA9
02ECA:  BCF    FA6.6
02ECC:  BCF    FA6.7
02ECE:  BSF    FA6.0
02ED0:  MOVF   FA8,W
02ED2:  BTFSC  xB8.6
02ED4:  BSF    FF2.6
02ED6:  BTFSC  xB8.7
02ED8:  BSF    FF2.7
02EDA:  MOVWF  FEF
....................       CiclosPersonalizados[i].PulsosVacio=read_eeprom(105+(i*8));  
02EDC:  MOVLB  2
02EDE:  MOVF   x60,W
02EE0:  MULLW  08
02EE2:  MOVF   FF3,W
02EE4:  MOVLB  6
02EE6:  CLRF   xB6
02EE8:  MOVWF  xB5
02EEA:  MOVLW  05
02EEC:  ADDWF  xB5,W
02EEE:  MOVWF  01
02EF0:  MOVLW  00
02EF2:  ADDWFC xB6,W
02EF4:  MOVWF  03
02EF6:  MOVF   01,W
02EF8:  ADDLW  ED
02EFA:  MOVWF  FE9
02EFC:  MOVLW  05
02EFE:  ADDWFC 03,W
02F00:  MOVWF  FEA
02F02:  MOVLB  2
02F04:  MOVF   x60,W
02F06:  MULLW  08
02F08:  MOVF   FF3,W
02F0A:  ADDLW  69
02F0C:  MOVLB  6
02F0E:  MOVWF  xB7
02F10:  MOVFF  FF2,6B8
02F14:  BCF    FF2.6
02F16:  BCF    FF2.7
02F18:  CLRF   FAA
02F1A:  MOVFF  6B7,FA9
02F1E:  BCF    FA6.6
02F20:  BCF    FA6.7
02F22:  BSF    FA6.0
02F24:  MOVF   FA8,W
02F26:  BTFSC  xB8.6
02F28:  BSF    FF2.6
02F2A:  BTFSC  xB8.7
02F2C:  BSF    FF2.7
02F2E:  MOVWF  FEF
....................       CiclosPersonalizados[i].NivelVacio=read_eeprom(106+(i*8));  
02F30:  MOVLB  2
02F32:  MOVF   x60,W
02F34:  MULLW  08
02F36:  MOVF   FF3,W
02F38:  MOVLB  6
02F3A:  CLRF   xB6
02F3C:  MOVWF  xB5
02F3E:  MOVLW  06
02F40:  ADDWF  xB5,W
02F42:  MOVWF  01
02F44:  MOVLW  00
02F46:  ADDWFC xB6,W
02F48:  MOVWF  03
02F4A:  MOVF   01,W
02F4C:  ADDLW  ED
02F4E:  MOVWF  FE9
02F50:  MOVLW  05
02F52:  ADDWFC 03,W
02F54:  MOVWF  FEA
02F56:  MOVLB  2
02F58:  MOVF   x60,W
02F5A:  MULLW  08
02F5C:  MOVF   FF3,W
02F5E:  ADDLW  6A
02F60:  MOVLB  6
02F62:  MOVWF  xB7
02F64:  MOVFF  FF2,6B8
02F68:  BCF    FF2.6
02F6A:  BCF    FF2.7
02F6C:  CLRF   FAA
02F6E:  MOVFF  6B7,FA9
02F72:  BCF    FA6.6
02F74:  BCF    FA6.7
02F76:  BSF    FA6.0
02F78:  MOVF   FA8,W
02F7A:  BTFSC  xB8.6
02F7C:  BSF    FF2.6
02F7E:  BTFSC  xB8.7
02F80:  BSF    FF2.7
02F82:  MOVWF  FEF
....................       CiclosPersonalizados[i].NivelDesfogue=read_eeprom(107+(i*8));  
02F84:  MOVLB  2
02F86:  MOVF   x60,W
02F88:  MULLW  08
02F8A:  MOVF   FF3,W
02F8C:  MOVLB  6
02F8E:  CLRF   xB6
02F90:  MOVWF  xB5
02F92:  MOVLW  07
02F94:  ADDWF  xB5,W
02F96:  MOVWF  01
02F98:  MOVLW  00
02F9A:  ADDWFC xB6,W
02F9C:  MOVWF  03
02F9E:  MOVF   01,W
02FA0:  ADDLW  ED
02FA2:  MOVWF  FE9
02FA4:  MOVLW  05
02FA6:  ADDWFC 03,W
02FA8:  MOVWF  FEA
02FAA:  MOVLB  2
02FAC:  MOVF   x60,W
02FAE:  MULLW  08
02FB0:  MOVF   FF3,W
02FB2:  ADDLW  6B
02FB4:  MOVLB  6
02FB6:  MOVWF  xB7
02FB8:  MOVFF  FF2,6B8
02FBC:  BCF    FF2.6
02FBE:  BCF    FF2.7
02FC0:  CLRF   FAA
02FC2:  MOVFF  6B7,FA9
02FC6:  BCF    FA6.6
02FC8:  BCF    FA6.7
02FCA:  BSF    FA6.0
02FCC:  MOVF   FA8,W
02FCE:  BTFSC  xB8.6
02FD0:  BSF    FF2.6
02FD2:  BTFSC  xB8.7
02FD4:  BSF    FF2.7
02FD6:  MOVWF  FEF
....................        
....................       if(CiclosPersonalizados[i].Temperatura>138 || CiclosPersonalizados[i].Temperatura<110) 
02FD8:  MOVLB  2
02FDA:  MOVF   x60,W
02FDC:  MULLW  08
02FDE:  MOVF   FF3,W
02FE0:  MOVLB  6
02FE2:  CLRF   xB6
02FE4:  MOVWF  xB5
02FE6:  MOVLW  ED
02FE8:  ADDWF  xB5,W
02FEA:  MOVWF  FE9
02FEC:  MOVLW  05
02FEE:  ADDWFC xB6,W
02FF0:  MOVWF  FEA
02FF2:  MOVF   FEF,W
02FF4:  SUBLW  8A
02FF6:  BNC   3018
02FF8:  MOVLB  2
02FFA:  MOVF   x60,W
02FFC:  MULLW  08
02FFE:  MOVF   FF3,W
03000:  MOVLB  6
03002:  CLRF   xB6
03004:  MOVWF  xB5
03006:  MOVLW  ED
03008:  ADDWF  xB5,W
0300A:  MOVWF  FE9
0300C:  MOVLW  05
0300E:  ADDWFC xB6,W
03010:  MOVWF  FEA
03012:  MOVF   FEF,W
03014:  SUBLW  6D
03016:  BNC   3036
....................          CiclosPersonalizados[i].Temperatura=121; 
03018:  MOVLB  2
0301A:  MOVF   x60,W
0301C:  MULLW  08
0301E:  MOVF   FF3,W
03020:  MOVLB  6
03022:  CLRF   xB6
03024:  MOVWF  xB5
03026:  MOVLW  ED
03028:  ADDWF  xB5,W
0302A:  MOVWF  FE9
0302C:  MOVLW  05
0302E:  ADDWFC xB6,W
03030:  MOVWF  FEA
03032:  MOVLW  79
03034:  MOVWF  FEF
....................       if(CiclosPersonalizados[i].Minutoest>99 || CiclosPersonalizados[i].Minutoest<1) 
03036:  MOVLB  2
03038:  MOVF   x60,W
0303A:  MULLW  08
0303C:  MOVF   FF3,W
0303E:  MOVLB  6
03040:  CLRF   xB6
03042:  MOVWF  xB5
03044:  MOVLW  01
03046:  ADDWF  xB5,W
03048:  MOVWF  01
0304A:  MOVLW  00
0304C:  ADDWFC xB6,W
0304E:  MOVWF  03
03050:  MOVF   01,W
03052:  ADDLW  ED
03054:  MOVWF  FE9
03056:  MOVLW  05
03058:  ADDWFC 03,W
0305A:  MOVWF  FEA
0305C:  MOVF   FEF,W
0305E:  SUBLW  63
03060:  BNC   308C
03062:  MOVLB  2
03064:  MOVF   x60,W
03066:  MULLW  08
03068:  MOVF   FF3,W
0306A:  MOVLB  6
0306C:  CLRF   xB6
0306E:  MOVWF  xB5
03070:  MOVLW  01
03072:  ADDWF  xB5,W
03074:  MOVWF  01
03076:  MOVLW  00
03078:  ADDWFC xB6,W
0307A:  MOVWF  03
0307C:  MOVF   01,W
0307E:  ADDLW  ED
03080:  MOVWF  FE9
03082:  MOVLW  05
03084:  ADDWFC 03,W
03086:  MOVWF  FEA
03088:  MOVF   FEF,F
0308A:  BNZ   30B6
....................          CiclosPersonalizados[i].Minutoest=3; 
0308C:  MOVLB  2
0308E:  MOVF   x60,W
03090:  MULLW  08
03092:  MOVF   FF3,W
03094:  MOVLB  6
03096:  CLRF   xB6
03098:  MOVWF  xB5
0309A:  MOVLW  01
0309C:  ADDWF  xB5,W
0309E:  MOVWF  01
030A0:  MOVLW  00
030A2:  ADDWFC xB6,W
030A4:  MOVWF  03
030A6:  MOVF   01,W
030A8:  ADDLW  ED
030AA:  MOVWF  FE9
030AC:  MOVLW  05
030AE:  ADDWFC 03,W
030B0:  MOVWF  FEA
030B2:  MOVLW  03
030B4:  MOVWF  FEF
....................       if(CiclosPersonalizados[i].Minutosec>99 || CiclosPersonalizados[i].Minutosec<1) 
030B6:  MOVLB  2
030B8:  MOVF   x60,W
030BA:  MULLW  08
030BC:  MOVF   FF3,W
030BE:  MOVLB  6
030C0:  CLRF   xB6
030C2:  MOVWF  xB5
030C4:  MOVLW  03
030C6:  ADDWF  xB5,W
030C8:  MOVWF  01
030CA:  MOVLW  00
030CC:  ADDWFC xB6,W
030CE:  MOVWF  03
030D0:  MOVF   01,W
030D2:  ADDLW  ED
030D4:  MOVWF  FE9
030D6:  MOVLW  05
030D8:  ADDWFC 03,W
030DA:  MOVWF  FEA
030DC:  MOVF   FEF,W
030DE:  SUBLW  63
030E0:  BNC   310C
030E2:  MOVLB  2
030E4:  MOVF   x60,W
030E6:  MULLW  08
030E8:  MOVF   FF3,W
030EA:  MOVLB  6
030EC:  CLRF   xB6
030EE:  MOVWF  xB5
030F0:  MOVLW  03
030F2:  ADDWF  xB5,W
030F4:  MOVWF  01
030F6:  MOVLW  00
030F8:  ADDWFC xB6,W
030FA:  MOVWF  03
030FC:  MOVF   01,W
030FE:  ADDLW  ED
03100:  MOVWF  FE9
03102:  MOVLW  05
03104:  ADDWFC 03,W
03106:  MOVWF  FEA
03108:  MOVF   FEF,F
0310A:  BNZ   3136
....................          CiclosPersonalizados[i].Minutosec=1;    
0310C:  MOVLB  2
0310E:  MOVF   x60,W
03110:  MULLW  08
03112:  MOVF   FF3,W
03114:  MOVLB  6
03116:  CLRF   xB6
03118:  MOVWF  xB5
0311A:  MOVLW  03
0311C:  ADDWF  xB5,W
0311E:  MOVWF  01
03120:  MOVLW  00
03122:  ADDWFC xB6,W
03124:  MOVWF  03
03126:  MOVF   01,W
03128:  ADDLW  ED
0312A:  MOVWF  FE9
0312C:  MOVLW  05
0312E:  ADDWFC 03,W
03130:  MOVWF  FEA
03132:  MOVLW  01
03134:  MOVWF  FEF
....................       if(CiclosPersonalizados[i].Segundoest>59) 
03136:  MOVLB  2
03138:  MOVF   x60,W
0313A:  MULLW  08
0313C:  MOVF   FF3,W
0313E:  MOVLB  6
03140:  CLRF   xB6
03142:  MOVWF  xB5
03144:  MOVLW  02
03146:  ADDWF  xB5,W
03148:  MOVWF  01
0314A:  MOVLW  00
0314C:  ADDWFC xB6,W
0314E:  MOVWF  03
03150:  MOVF   01,W
03152:  ADDLW  ED
03154:  MOVWF  FE9
03156:  MOVLW  05
03158:  ADDWFC 03,W
0315A:  MOVWF  FEA
0315C:  MOVF   FEF,W
0315E:  SUBLW  3B
03160:  BC    318A
....................          CiclosPersonalizados[i].Segundoest=0; 
03162:  MOVLB  2
03164:  MOVF   x60,W
03166:  MULLW  08
03168:  MOVF   FF3,W
0316A:  MOVLB  6
0316C:  CLRF   xB6
0316E:  MOVWF  xB5
03170:  MOVLW  02
03172:  ADDWF  xB5,W
03174:  MOVWF  01
03176:  MOVLW  00
03178:  ADDWFC xB6,W
0317A:  MOVWF  03
0317C:  MOVF   01,W
0317E:  ADDLW  ED
03180:  MOVWF  FE9
03182:  MOVLW  05
03184:  ADDWFC 03,W
03186:  MOVWF  FEA
03188:  CLRF   FEF
....................       if(CiclosPersonalizados[i].Segundosec>59) 
0318A:  MOVLB  2
0318C:  MOVF   x60,W
0318E:  MULLW  08
03190:  MOVF   FF3,W
03192:  MOVLB  6
03194:  CLRF   xB6
03196:  MOVWF  xB5
03198:  MOVLW  04
0319A:  ADDWF  xB5,W
0319C:  MOVWF  01
0319E:  MOVLW  00
031A0:  ADDWFC xB6,W
031A2:  MOVWF  03
031A4:  MOVF   01,W
031A6:  ADDLW  ED
031A8:  MOVWF  FE9
031AA:  MOVLW  05
031AC:  ADDWFC 03,W
031AE:  MOVWF  FEA
031B0:  MOVF   FEF,W
031B2:  SUBLW  3B
031B4:  BC    31DE
....................          CiclosPersonalizados[i].Segundosec=0;       
031B6:  MOVLB  2
031B8:  MOVF   x60,W
031BA:  MULLW  08
031BC:  MOVF   FF3,W
031BE:  MOVLB  6
031C0:  CLRF   xB6
031C2:  MOVWF  xB5
031C4:  MOVLW  04
031C6:  ADDWF  xB5,W
031C8:  MOVWF  01
031CA:  MOVLW  00
031CC:  ADDWFC xB6,W
031CE:  MOVWF  03
031D0:  MOVF   01,W
031D2:  ADDLW  ED
031D4:  MOVWF  FE9
031D6:  MOVLW  05
031D8:  ADDWFC 03,W
031DA:  MOVWF  FEA
031DC:  CLRF   FEF
....................       if(CiclosPersonalizados[i].PulsosVacio>15) 
031DE:  MOVLB  2
031E0:  MOVF   x60,W
031E2:  MULLW  08
031E4:  MOVF   FF3,W
031E6:  MOVLB  6
031E8:  CLRF   xB6
031EA:  MOVWF  xB5
031EC:  MOVLW  05
031EE:  ADDWF  xB5,W
031F0:  MOVWF  01
031F2:  MOVLW  00
031F4:  ADDWFC xB6,W
031F6:  MOVWF  03
031F8:  MOVF   01,W
031FA:  ADDLW  ED
031FC:  MOVWF  FE9
031FE:  MOVLW  05
03200:  ADDWFC 03,W
03202:  MOVWF  FEA
03204:  MOVF   FEF,W
03206:  SUBLW  0F
03208:  BC    3234
....................          CiclosPersonalizados[i].PulsosVacio=4; 
0320A:  MOVLB  2
0320C:  MOVF   x60,W
0320E:  MULLW  08
03210:  MOVF   FF3,W
03212:  MOVLB  6
03214:  CLRF   xB6
03216:  MOVWF  xB5
03218:  MOVLW  05
0321A:  ADDWF  xB5,W
0321C:  MOVWF  01
0321E:  MOVLW  00
03220:  ADDWFC xB6,W
03222:  MOVWF  03
03224:  MOVF   01,W
03226:  ADDLW  ED
03228:  MOVWF  FE9
0322A:  MOVLW  05
0322C:  ADDWFC 03,W
0322E:  MOVWF  FEA
03230:  MOVLW  04
03232:  MOVWF  FEF
....................       if(CiclosPersonalizados[i].NivelVacio>100 || CiclosPersonalizados[i].NivelVacio<10) 
03234:  MOVLB  2
03236:  MOVF   x60,W
03238:  MULLW  08
0323A:  MOVF   FF3,W
0323C:  MOVLB  6
0323E:  CLRF   xB6
03240:  MOVWF  xB5
03242:  MOVLW  06
03244:  ADDWF  xB5,W
03246:  MOVWF  01
03248:  MOVLW  00
0324A:  ADDWFC xB6,W
0324C:  MOVWF  03
0324E:  MOVF   01,W
03250:  ADDLW  ED
03252:  MOVWF  FE9
03254:  MOVLW  05
03256:  ADDWFC 03,W
03258:  MOVWF  FEA
0325A:  MOVF   FEF,W
0325C:  SUBLW  64
0325E:  BNC   328C
03260:  MOVLB  2
03262:  MOVF   x60,W
03264:  MULLW  08
03266:  MOVF   FF3,W
03268:  MOVLB  6
0326A:  CLRF   xB6
0326C:  MOVWF  xB5
0326E:  MOVLW  06
03270:  ADDWF  xB5,W
03272:  MOVWF  01
03274:  MOVLW  00
03276:  ADDWFC xB6,W
03278:  MOVWF  03
0327A:  MOVF   01,W
0327C:  ADDLW  ED
0327E:  MOVWF  FE9
03280:  MOVLW  05
03282:  ADDWFC 03,W
03284:  MOVWF  FEA
03286:  MOVF   FEF,W
03288:  SUBLW  09
0328A:  BNC   32B6
....................          CiclosPersonalizados[i].NivelVacio=25;    
0328C:  MOVLB  2
0328E:  MOVF   x60,W
03290:  MULLW  08
03292:  MOVF   FF3,W
03294:  MOVLB  6
03296:  CLRF   xB6
03298:  MOVWF  xB5
0329A:  MOVLW  06
0329C:  ADDWF  xB5,W
0329E:  MOVWF  01
032A0:  MOVLW  00
032A2:  ADDWFC xB6,W
032A4:  MOVWF  03
032A6:  MOVF   01,W
032A8:  ADDLW  ED
032AA:  MOVWF  FE9
032AC:  MOVLW  05
032AE:  ADDWFC 03,W
032B0:  MOVWF  FEA
032B2:  MOVLW  19
032B4:  MOVWF  FEF
....................       if(CiclosPersonalizados[i].NivelDesfogue>6) 
032B6:  MOVLB  2
032B8:  MOVF   x60,W
032BA:  MULLW  08
032BC:  MOVF   FF3,W
032BE:  MOVLB  6
032C0:  CLRF   xB6
032C2:  MOVWF  xB5
032C4:  MOVLW  07
032C6:  ADDWF  xB5,W
032C8:  MOVWF  01
032CA:  MOVLW  00
032CC:  ADDWFC xB6,W
032CE:  MOVWF  03
032D0:  MOVF   01,W
032D2:  ADDLW  ED
032D4:  MOVWF  FE9
032D6:  MOVLW  05
032D8:  ADDWFC 03,W
032DA:  MOVWF  FEA
032DC:  MOVF   FEF,W
032DE:  SUBLW  06
032E0:  BC    330C
....................          CiclosPersonalizados[i].NivelDesfogue=6; 
032E2:  MOVLB  2
032E4:  MOVF   x60,W
032E6:  MULLW  08
032E8:  MOVF   FF3,W
032EA:  MOVLB  6
032EC:  CLRF   xB6
032EE:  MOVWF  xB5
032F0:  MOVLW  07
032F2:  ADDWF  xB5,W
032F4:  MOVWF  01
032F6:  MOVLW  00
032F8:  ADDWFC xB6,W
032FA:  MOVWF  03
032FC:  MOVF   01,W
032FE:  ADDLW  ED
03300:  MOVWF  FE9
03302:  MOVLW  05
03304:  ADDWFC 03,W
03306:  MOVWF  FEA
03308:  MOVLW  06
0330A:  MOVWF  FEF
....................    } 
0330C:  MOVLB  2
0330E:  INCF   x60,F
03310:  BRA    2D3E
....................     
....................    for(i=0;i<10;i++){//Lee contraseas de usuarios 
03312:  CLRF   x60
03314:  MOVF   x60,W
03316:  SUBLW  09
03318:  BNC   33F4
....................       for(j=0;j<4;j++){ 
0331A:  CLRF   xB4
0331C:  MOVF   xB4,W
0331E:  SUBLW  03
03320:  BNC   33F0
....................          Clave[i].Password[j]=read_eeprom((300+j)+(i*4)); 
03322:  MOVF   x60,W
03324:  MULLW  04
03326:  MOVF   FF3,W
03328:  MOVLB  6
0332A:  CLRF   xB6
0332C:  MOVWF  xB5
0332E:  CLRF   03
03330:  MOVLB  2
03332:  MOVF   xB4,W
03334:  MOVLB  6
03336:  ADDWF  xB5,W
03338:  MOVWF  01
0333A:  MOVF   xB6,W
0333C:  ADDWFC 03,F
0333E:  MOVF   01,W
03340:  ADDLW  8D
03342:  MOVWF  FE9
03344:  MOVLW  06
03346:  ADDWFC 03,W
03348:  MOVWF  FEA
0334A:  MOVLW  2C
0334C:  MOVLB  2
0334E:  ADDWF  xB4,W
03350:  MOVLB  6
03352:  MOVWF  xB7
03354:  MOVLW  01
03356:  MOVWF  xB8
03358:  BTFSC  FD8.0
0335A:  INCF   xB8,F
0335C:  MOVLB  2
0335E:  MOVF   x60,W
03360:  MULLW  04
03362:  MOVF   FF3,W
03364:  MOVLB  6
03366:  ADDWF  xB7,F
03368:  MOVLW  00
0336A:  ADDWFC xB8,F
0336C:  MOVFF  FF2,6B9
03370:  BCF    FF2.6
03372:  BCF    FF2.7
03374:  MOVFF  6B8,FAA
03378:  MOVFF  6B7,FA9
0337C:  BCF    FA6.6
0337E:  BCF    FA6.7
03380:  BSF    FA6.0
03382:  MOVF   FA8,W
03384:  BTFSC  xB9.6
03386:  BSF    FF2.6
03388:  BTFSC  xB9.7
0338A:  BSF    FF2.7
0338C:  MOVWF  FEF
....................          if(Clave[i].Password[j]>9) 
0338E:  MOVLB  2
03390:  MOVF   x60,W
03392:  MULLW  04
03394:  MOVF   FF3,W
03396:  MOVLB  6
03398:  CLRF   xB6
0339A:  MOVWF  xB5
0339C:  CLRF   03
0339E:  MOVLB  2
033A0:  MOVF   xB4,W
033A2:  MOVLB  6
033A4:  ADDWF  xB5,W
033A6:  MOVWF  01
033A8:  MOVF   xB6,W
033AA:  ADDWFC 03,F
033AC:  MOVF   01,W
033AE:  ADDLW  8D
033B0:  MOVWF  FE9
033B2:  MOVLW  06
033B4:  ADDWFC 03,W
033B6:  MOVWF  FEA
033B8:  MOVF   FEF,W
033BA:  SUBLW  09
033BC:  BC    33EA
....................             Clave[i].Password[j]=0; 
033BE:  MOVLB  2
033C0:  MOVF   x60,W
033C2:  MULLW  04
033C4:  MOVF   FF3,W
033C6:  MOVLB  6
033C8:  CLRF   xB6
033CA:  MOVWF  xB5
033CC:  CLRF   03
033CE:  MOVLB  2
033D0:  MOVF   xB4,W
033D2:  MOVLB  6
033D4:  ADDWF  xB5,W
033D6:  MOVWF  01
033D8:  MOVF   xB6,W
033DA:  ADDWFC 03,F
033DC:  MOVF   01,W
033DE:  ADDLW  8D
033E0:  MOVWF  FE9
033E2:  MOVLW  06
033E4:  ADDWFC 03,W
033E6:  MOVWF  FEA
033E8:  CLRF   FEF
....................       } 
033EA:  MOVLB  2
033EC:  INCF   xB4,F
033EE:  BRA    331C
....................    } 
033F0:  INCF   x60,F
033F2:  BRA    3314
....................     
....................    diaCiclos=read_ext_eeprom(2+(cicloVisto*320)); 
033F4:  MOVLB  6
033F6:  CLRF   xC0
033F8:  MOVFF  2A6,6BF
033FC:  MOVLW  01
033FE:  MOVWF  xC2
03400:  MOVLW  40
03402:  MOVWF  xC1
03404:  MOVLB  0
03406:  CALL   252A
0340A:  MOVFF  02,03
0340E:  MOVF   01,W
03410:  ADDLW  02
03412:  MOVLB  6
03414:  MOVWF  xB5
03416:  MOVLW  00
03418:  ADDWFC 02,W
0341A:  MOVWF  xB6
0341C:  MOVWF  xBB
0341E:  MOVFF  6B5,6BA
03422:  MOVLB  0
03424:  CALL   262C
03428:  MOVFF  01,31C
....................    if(diaCiclos>31) 
0342C:  MOVLB  3
0342E:  MOVF   x1C,W
03430:  SUBLW  1F
03432:  BC    3438
....................       diaCiclos=1; 
03434:  MOVLW  01
03436:  MOVWF  x1C
....................    mesCiclos=read_ext_eeprom(3+(cicloVisto*320)); 
03438:  MOVLB  6
0343A:  CLRF   xC0
0343C:  MOVFF  2A6,6BF
03440:  MOVLW  01
03442:  MOVWF  xC2
03444:  MOVLW  40
03446:  MOVWF  xC1
03448:  MOVLB  0
0344A:  CALL   252A
0344E:  MOVFF  02,03
03452:  MOVF   01,W
03454:  ADDLW  03
03456:  MOVLB  6
03458:  MOVWF  xB5
0345A:  MOVLW  00
0345C:  ADDWFC 02,W
0345E:  MOVWF  xB6
03460:  MOVWF  xBB
03462:  MOVFF  6B5,6BA
03466:  MOVLB  0
03468:  CALL   262C
0346C:  MOVFF  01,31D
....................    if(mesCiclos>12) 
03470:  MOVLB  3
03472:  MOVF   x1D,W
03474:  SUBLW  0C
03476:  BC    347C
....................       mesCiclos=1; 
03478:  MOVLW  01
0347A:  MOVWF  x1D
....................    yearCiclos=read_ext_eeprom(4+(cicloVisto*320)); 
0347C:  MOVLB  6
0347E:  CLRF   xC0
03480:  MOVFF  2A6,6BF
03484:  MOVLW  01
03486:  MOVWF  xC2
03488:  MOVLW  40
0348A:  MOVWF  xC1
0348C:  MOVLB  0
0348E:  CALL   252A
03492:  MOVFF  02,03
03496:  MOVF   01,W
03498:  ADDLW  04
0349A:  MOVLB  6
0349C:  MOVWF  xB5
0349E:  MOVLW  00
034A0:  ADDWFC 02,W
034A2:  MOVWF  xB6
034A4:  MOVWF  xBB
034A6:  MOVFF  6B5,6BA
034AA:  MOVLB  0
034AC:  CALL   262C
034B0:  MOVFF  01,31E
....................    if(yearCiclos>99) 
034B4:  MOVLB  3
034B6:  MOVF   x1E,W
034B8:  SUBLW  63
034BA:  BC    34C0
....................       yearCiclos=19; 
034BC:  MOVLW  13
034BE:  MOVWF  x1E
....................    cicloCiclos=read_ext_eeprom(1+(cicloVisto*320)); 
034C0:  MOVLB  6
034C2:  CLRF   xC0
034C4:  MOVFF  2A6,6BF
034C8:  MOVLW  01
034CA:  MOVWF  xC2
034CC:  MOVLW  40
034CE:  MOVWF  xC1
034D0:  MOVLB  0
034D2:  CALL   252A
034D6:  MOVFF  02,03
034DA:  MOVF   01,W
034DC:  ADDLW  01
034DE:  MOVLB  6
034E0:  MOVWF  xB5
034E2:  MOVLW  00
034E4:  ADDWFC 02,W
034E6:  MOVWF  xB6
034E8:  MOVWF  xBB
034EA:  MOVFF  6B5,6BA
034EE:  MOVLB  0
034F0:  CALL   262C
034F4:  MOVFF  01,320
....................    if(cicloCiclos>20) 
034F8:  MOVLB  3
034FA:  MOVF   x20,W
034FC:  SUBLW  14
034FE:  BC    3504
....................       cicloCiclos=1; 
03500:  MOVLW  01
03502:  MOVWF  x20
....................    usuarioCiclos=read_ext_eeprom((cicloVisto*320)); 
03504:  MOVLB  6
03506:  CLRF   xC0
03508:  MOVFF  2A6,6BF
0350C:  MOVLW  01
0350E:  MOVWF  xC2
03510:  MOVLW  40
03512:  MOVWF  xC1
03514:  MOVLB  0
03516:  CALL   252A
0351A:  MOVFF  02,6B6
0351E:  MOVFF  01,6B5
03522:  MOVFF  02,6BB
03526:  MOVFF  01,6BA
0352A:  CALL   262C
0352E:  MOVFF  01,31F
....................    if(usuarioCiclos>10) 
03532:  MOVLB  3
03534:  MOVF   x1F,W
03536:  SUBLW  0A
03538:  BC    353E
....................       usuarioCiclos=1; 
0353A:  MOVLW  01
0353C:  MOVWF  x1F
....................    for(i=0;i<7;i++){//Lee Valores para completar la Tabla 
0353E:  MOVLB  2
03540:  CLRF   x60
03542:  MOVF   x60,W
03544:  SUBLW  06
03546:  BTFSS  FD8.0
03548:  BRA    3A92
....................       horaCiclos[i]=read_ext_eeprom((cicloVisto*320)+11+((cicloVisualizado+i)*9)); 
0354A:  CLRF   03
0354C:  MOVF   x60,W
0354E:  ADDLW  07
03550:  MOVWF  01
03552:  MOVLW  03
03554:  ADDWFC 03,F
03556:  MOVFF  01,6B5
0355A:  MOVLB  6
0355C:  MOVFF  03,6B6
03560:  CLRF   xC0
03562:  MOVFF  2A6,6BF
03566:  MOVLW  01
03568:  MOVWF  xC2
0356A:  MOVLW  40
0356C:  MOVWF  xC1
0356E:  MOVLB  0
03570:  CALL   252A
03574:  MOVFF  02,6B8
03578:  MOVFF  01,6B7
0357C:  MOVLW  0B
0357E:  MOVLB  6
03580:  ADDWF  xB7,F
03582:  MOVLW  00
03584:  ADDWFC xB8,F
03586:  MOVLB  2
03588:  MOVF   x60,W
0358A:  ADDWF  xA5,W
0358C:  MULLW  09
0358E:  MOVF   FF3,W
03590:  MOVLB  6
03592:  ADDWF  xB7,F
03594:  MOVLW  00
03596:  ADDWFC xB8,F
03598:  MOVFF  6B8,6BB
0359C:  MOVFF  6B7,6BA
035A0:  MOVLB  0
035A2:  CALL   262C
035A6:  MOVFF  6B6,FEA
035AA:  MOVFF  6B5,FE9
035AE:  MOVFF  01,FEF
....................       if(horaCiclos[i]>24) 
035B2:  CLRF   03
035B4:  MOVLB  2
035B6:  MOVF   x60,W
035B8:  ADDLW  07
035BA:  MOVWF  FE9
035BC:  MOVLW  03
035BE:  ADDWFC 03,W
035C0:  MOVWF  FEA
035C2:  MOVF   FEF,W
035C4:  SUBLW  18
035C6:  BC    35D8
....................          horaCiclos[i]=0; 
035C8:  CLRF   03
035CA:  MOVF   x60,W
035CC:  ADDLW  07
035CE:  MOVWF  FE9
035D0:  MOVLW  03
035D2:  ADDWFC 03,W
035D4:  MOVWF  FEA
035D6:  CLRF   FEF
....................       minutoCiclos[i]=read_ext_eeprom((cicloVisto*320)+12+((cicloVisualizado+i)*9)); 
035D8:  CLRF   03
035DA:  MOVF   x60,W
035DC:  ADDLW  0E
035DE:  MOVWF  01
035E0:  MOVLW  03
035E2:  ADDWFC 03,F
035E4:  MOVFF  01,6B5
035E8:  MOVLB  6
035EA:  MOVFF  03,6B6
035EE:  CLRF   xC0
035F0:  MOVFF  2A6,6BF
035F4:  MOVLW  01
035F6:  MOVWF  xC2
035F8:  MOVLW  40
035FA:  MOVWF  xC1
035FC:  MOVLB  0
035FE:  CALL   252A
03602:  MOVFF  02,6B8
03606:  MOVFF  01,6B7
0360A:  MOVLW  0C
0360C:  MOVLB  6
0360E:  ADDWF  xB7,F
03610:  MOVLW  00
03612:  ADDWFC xB8,F
03614:  MOVLB  2
03616:  MOVF   x60,W
03618:  ADDWF  xA5,W
0361A:  MULLW  09
0361C:  MOVF   FF3,W
0361E:  MOVLB  6
03620:  ADDWF  xB7,F
03622:  MOVLW  00
03624:  ADDWFC xB8,F
03626:  MOVFF  6B8,6BB
0362A:  MOVFF  6B7,6BA
0362E:  MOVLB  0
03630:  CALL   262C
03634:  MOVFF  6B6,FEA
03638:  MOVFF  6B5,FE9
0363C:  MOVFF  01,FEF
....................       if(minutoCiclos[i]>59) 
03640:  CLRF   03
03642:  MOVLB  2
03644:  MOVF   x60,W
03646:  ADDLW  0E
03648:  MOVWF  FE9
0364A:  MOVLW  03
0364C:  ADDWFC 03,W
0364E:  MOVWF  FEA
03650:  MOVF   FEF,W
03652:  SUBLW  3B
03654:  BC    3666
....................          minutoCiclos[i]=0; 
03656:  CLRF   03
03658:  MOVF   x60,W
0365A:  ADDLW  0E
0365C:  MOVWF  FE9
0365E:  MOVLW  03
03660:  ADDWFC 03,W
03662:  MOVWF  FEA
03664:  CLRF   FEF
....................       TCiclos[i]=read_ext_eeprom((cicloVisto*320)+5+((cicloVisualizado+i)*9))+inttofloat(read_ext_eeprom((cicloVisto*320)+6+((cicloVisualizado+i)*9))); 
03666:  MOVF   x60,W
03668:  MULLW  04
0366A:  MOVF   FF3,W
0366C:  CLRF   03
0366E:  ADDLW  CF
03670:  MOVWF  01
03672:  MOVLW  02
03674:  ADDWFC 03,F
03676:  MOVFF  01,6B5
0367A:  MOVLB  6
0367C:  MOVFF  03,6B6
03680:  CLRF   xC0
03682:  MOVFF  2A6,6BF
03686:  MOVLW  01
03688:  MOVWF  xC2
0368A:  MOVLW  40
0368C:  MOVWF  xC1
0368E:  MOVLB  0
03690:  CALL   252A
03694:  MOVFF  02,6B8
03698:  MOVFF  01,6B7
0369C:  MOVLW  05
0369E:  MOVLB  6
036A0:  ADDWF  xB7,F
036A2:  MOVLW  00
036A4:  ADDWFC xB8,F
036A6:  MOVLB  2
036A8:  MOVF   x60,W
036AA:  ADDWF  xA5,W
036AC:  MULLW  09
036AE:  MOVF   FF3,W
036B0:  MOVLB  6
036B2:  ADDWF  xB7,F
036B4:  MOVLW  00
036B6:  ADDWFC xB8,F
036B8:  MOVFF  6B8,6BB
036BC:  MOVFF  6B7,6BA
036C0:  MOVLB  0
036C2:  CALL   262C
036C6:  MOVFF  01,6B7
036CA:  MOVLB  6
036CC:  CLRF   xC0
036CE:  MOVFF  2A6,6BF
036D2:  MOVLW  01
036D4:  MOVWF  xC2
036D6:  MOVLW  40
036D8:  MOVWF  xC1
036DA:  MOVLB  0
036DC:  CALL   252A
036E0:  MOVFF  02,6B9
036E4:  MOVFF  01,6B8
036E8:  MOVLW  06
036EA:  MOVLB  6
036EC:  ADDWF  xB8,F
036EE:  MOVLW  00
036F0:  ADDWFC xB9,F
036F2:  MOVLB  2
036F4:  MOVF   x60,W
036F6:  ADDWF  xA5,W
036F8:  MULLW  09
036FA:  MOVF   FF3,W
036FC:  MOVLB  6
036FE:  ADDWF  xB8,F
03700:  MOVLW  00
03702:  ADDWFC xB9,F
03704:  MOVFF  6B9,6BB
03708:  MOVFF  6B8,6BA
0370C:  MOVLB  0
0370E:  CALL   262C
03712:  MOVFF  01,6B8
03716:  MOVFF  01,6B9
0371A:  CALL   26D4
0371E:  MOVFF  00,6B8
03722:  MOVFF  01,6B9
03726:  MOVFF  02,6BA
0372A:  MOVFF  03,6BB
0372E:  MOVLB  6
03730:  CLRF   xC8
03732:  MOVFF  6B7,6C7
03736:  MOVLB  0
03738:  CALL   2082
0373C:  MOVFF  FEA,6BD
03740:  MOVFF  FE9,6BC
03744:  BCF    FD8.1
03746:  MOVFF  03,6CA
0374A:  MOVFF  02,6C9
0374E:  MOVFF  01,6C8
03752:  MOVFF  00,6C7
03756:  MOVFF  6BB,6CE
0375A:  MOVFF  6BA,6CD
0375E:  MOVFF  6B9,6CC
03762:  MOVFF  6B8,6CB
03766:  CALL   223E
0376A:  MOVFF  6BD,FEA
0376E:  MOVFF  6BC,FE9
03772:  MOVFF  6B6,FEA
03776:  MOVFF  6B5,FE9
0377A:  MOVFF  00,FEF
0377E:  MOVFF  01,FEC
03782:  MOVFF  02,FEC
03786:  MOVFF  03,FEC
....................       if(TCiclos[i]>200) 
0378A:  MOVLB  2
0378C:  MOVF   x60,W
0378E:  MULLW  04
03790:  MOVF   FF3,W
03792:  CLRF   03
03794:  ADDLW  CF
03796:  MOVWF  FE9
03798:  MOVLW  02
0379A:  ADDWFC 03,W
0379C:  MOVWF  FEA
0379E:  MOVFF  FEF,6B5
037A2:  MOVFF  FEC,6B6
037A6:  MOVFF  FEC,6B7
037AA:  MOVFF  FEC,6B8
037AE:  MOVLB  6
037B0:  CLRF   xBC
037B2:  CLRF   xBB
037B4:  MOVLW  48
037B6:  MOVWF  xBA
037B8:  MOVLW  86
037BA:  MOVWF  xB9
037BC:  MOVFF  6B8,6C0
037C0:  MOVFF  6B7,6BF
037C4:  MOVFF  6B6,6BE
037C8:  MOVFF  6B5,6BD
037CC:  MOVLB  0
037CE:  CALL   2714
037D2:  BNC   37F2
....................          TCiclos[i]=0; 
037D4:  MOVLB  2
037D6:  MOVF   x60,W
037D8:  MULLW  04
037DA:  MOVF   FF3,W
037DC:  CLRF   03
037DE:  ADDLW  CF
037E0:  MOVWF  FE9
037E2:  MOVLW  02
037E4:  ADDWFC 03,W
037E6:  MOVWF  FEA
037E8:  CLRF   FEF
037EA:  CLRF   FEC
037EC:  CLRF   FEC
037EE:  CLRF   FEC
037F0:  MOVLB  0
....................       PcCiclos[i]=make16(read_ext_eeprom((cicloVisto*320)+7+((cicloVisualizado+i)*9)),read_ext_eeprom((cicloVisto*320)+8+((cicloVisualizado+i)*9))); 
037F2:  BCF    FD8.0
037F4:  MOVLB  2
037F6:  RLCF   x60,W
037F8:  CLRF   03
037FA:  ADDLW  EB
037FC:  MOVWF  01
037FE:  MOVLW  02
03800:  ADDWFC 03,F
03802:  MOVFF  01,6B5
03806:  MOVLB  6
03808:  MOVFF  03,6B6
0380C:  CLRF   xC0
0380E:  MOVFF  2A6,6BF
03812:  MOVLW  01
03814:  MOVWF  xC2
03816:  MOVLW  40
03818:  MOVWF  xC1
0381A:  MOVLB  0
0381C:  CALL   252A
03820:  MOVFF  02,6B8
03824:  MOVFF  01,6B7
03828:  MOVLW  07
0382A:  MOVLB  6
0382C:  ADDWF  xB7,F
0382E:  MOVLW  00
03830:  ADDWFC xB8,F
03832:  MOVLB  2
03834:  MOVF   x60,W
03836:  ADDWF  xA5,W
03838:  MULLW  09
0383A:  MOVF   FF3,W
0383C:  MOVLB  6
0383E:  ADDWF  xB7,F
03840:  MOVLW  00
03842:  ADDWFC xB8,F
03844:  MOVFF  6B8,6BB
03848:  MOVFF  6B7,6BA
0384C:  MOVLB  0
0384E:  CALL   262C
03852:  MOVFF  01,6B7
03856:  MOVLB  6
03858:  CLRF   xC0
0385A:  MOVFF  2A6,6BF
0385E:  MOVLW  01
03860:  MOVWF  xC2
03862:  MOVLW  40
03864:  MOVWF  xC1
03866:  MOVLB  0
03868:  CALL   252A
0386C:  MOVFF  02,6B9
03870:  MOVFF  01,6B8
03874:  MOVLW  08
03876:  MOVLB  6
03878:  ADDWF  xB8,F
0387A:  MOVLW  00
0387C:  ADDWFC xB9,F
0387E:  MOVLB  2
03880:  MOVF   x60,W
03882:  ADDWF  xA5,W
03884:  MULLW  09
03886:  MOVF   FF3,W
03888:  MOVLB  6
0388A:  ADDWF  xB8,F
0388C:  MOVLW  00
0388E:  ADDWFC xB9,F
03890:  MOVFF  6B9,6BB
03894:  MOVFF  6B8,6BA
03898:  MOVLB  0
0389A:  CALL   262C
0389E:  MOVFF  6B6,FEA
038A2:  MOVFF  6B5,FE9
038A6:  MOVFF  6B7,FEC
038AA:  MOVF   FED,F
038AC:  MOVFF  01,FEF
....................       if(PcCiclos[i]>500) 
038B0:  BCF    FD8.0
038B2:  MOVLB  2
038B4:  RLCF   x60,W
038B6:  CLRF   03
038B8:  ADDLW  EB
038BA:  MOVWF  FE9
038BC:  MOVLW  02
038BE:  ADDWFC 03,W
038C0:  MOVWF  FEA
038C2:  MOVFF  FEC,6B6
038C6:  MOVF   FED,F
038C8:  MOVFF  FEF,6B5
038CC:  MOVLB  6
038CE:  MOVF   xB6,W
038D0:  SUBLW  00
038D2:  BC    38F8
038D4:  XORLW  FF
038D6:  BNZ   38DE
038D8:  MOVF   xB5,W
038DA:  SUBLW  F4
038DC:  BC    38F8
....................          PcCiclos[i]=0; 
038DE:  BCF    FD8.0
038E0:  MOVLB  2
038E2:  RLCF   x60,W
038E4:  CLRF   03
038E6:  ADDLW  EB
038E8:  MOVWF  FE9
038EA:  MOVLW  02
038EC:  ADDWFC 03,W
038EE:  MOVWF  FEA
038F0:  CLRF   FEC
038F2:  MOVF   FED,F
038F4:  CLRF   FEF
038F6:  MOVLB  6
....................       PpcCiclos[i]=make16(read_ext_eeprom((cicloVisto*320)+9+((cicloVisualizado+i)*9)),read_ext_eeprom((cicloVisto*320)+10+((cicloVisualizado+i)*9))); 
038F8:  BCF    FD8.0
038FA:  MOVLB  2
038FC:  RLCF   x60,W
038FE:  CLRF   03
03900:  ADDLW  F9
03902:  MOVWF  01
03904:  MOVLW  02
03906:  ADDWFC 03,F
03908:  MOVFF  01,6B5
0390C:  MOVLB  6
0390E:  MOVFF  03,6B6
03912:  CLRF   xC0
03914:  MOVFF  2A6,6BF
03918:  MOVLW  01
0391A:  MOVWF  xC2
0391C:  MOVLW  40
0391E:  MOVWF  xC1
03920:  MOVLB  0
03922:  CALL   252A
03926:  MOVFF  02,6B8
0392A:  MOVFF  01,6B7
0392E:  MOVLW  09
03930:  MOVLB  6
03932:  ADDWF  xB7,F
03934:  MOVLW  00
03936:  ADDWFC xB8,F
03938:  MOVLB  2
0393A:  MOVF   x60,W
0393C:  ADDWF  xA5,W
0393E:  MULLW  09
03940:  MOVF   FF3,W
03942:  MOVLB  6
03944:  ADDWF  xB7,F
03946:  MOVLW  00
03948:  ADDWFC xB8,F
0394A:  MOVFF  6B8,6BB
0394E:  MOVFF  6B7,6BA
03952:  MOVLB  0
03954:  CALL   262C
03958:  MOVFF  01,6B7
0395C:  MOVLB  6
0395E:  CLRF   xC0
03960:  MOVFF  2A6,6BF
03964:  MOVLW  01
03966:  MOVWF  xC2
03968:  MOVLW  40
0396A:  MOVWF  xC1
0396C:  MOVLB  0
0396E:  CALL   252A
03972:  MOVFF  02,6B9
03976:  MOVFF  01,6B8
0397A:  MOVLW  0A
0397C:  MOVLB  6
0397E:  ADDWF  xB8,F
03980:  MOVLW  00
03982:  ADDWFC xB9,F
03984:  MOVLB  2
03986:  MOVF   x60,W
03988:  ADDWF  xA5,W
0398A:  MULLW  09
0398C:  MOVF   FF3,W
0398E:  MOVLB  6
03990:  ADDWF  xB8,F
03992:  MOVLW  00
03994:  ADDWFC xB9,F
03996:  MOVFF  6B9,6BB
0399A:  MOVFF  6B8,6BA
0399E:  MOVLB  0
039A0:  CALL   262C
039A4:  MOVFF  6B6,FEA
039A8:  MOVFF  6B5,FE9
039AC:  MOVFF  6B7,FEC
039B0:  MOVF   FED,F
039B2:  MOVFF  01,FEF
....................       if(PpcCiclos[i]>500) 
039B6:  BCF    FD8.0
039B8:  MOVLB  2
039BA:  RLCF   x60,W
039BC:  CLRF   03
039BE:  ADDLW  F9
039C0:  MOVWF  FE9
039C2:  MOVLW  02
039C4:  ADDWFC 03,W
039C6:  MOVWF  FEA
039C8:  MOVFF  FEC,6B6
039CC:  MOVF   FED,F
039CE:  MOVFF  FEF,6B5
039D2:  MOVLB  6
039D4:  MOVF   xB6,W
039D6:  SUBLW  00
039D8:  BC    39FE
039DA:  XORLW  FF
039DC:  BNZ   39E4
039DE:  MOVF   xB5,W
039E0:  SUBLW  F4
039E2:  BC    39FE
....................          PpcCiclos[i]=0; 
039E4:  BCF    FD8.0
039E6:  MOVLB  2
039E8:  RLCF   x60,W
039EA:  CLRF   03
039EC:  ADDLW  F9
039EE:  MOVWF  FE9
039F0:  MOVLW  02
039F2:  ADDWFC 03,W
039F4:  MOVWF  FEA
039F6:  CLRF   FEC
039F8:  MOVF   FED,F
039FA:  CLRF   FEF
039FC:  MOVLB  6
....................       ACiclos[i]=read_ext_eeprom((cicloVisto*320)+13+((cicloVisualizado+i)*9)); 
039FE:  CLRF   03
03A00:  MOVLB  2
03A02:  MOVF   x60,W
03A04:  ADDLW  15
03A06:  MOVWF  01
03A08:  MOVLW  03
03A0A:  ADDWFC 03,F
03A0C:  MOVFF  01,6B5
03A10:  MOVLB  6
03A12:  MOVFF  03,6B6
03A16:  CLRF   xC0
03A18:  MOVFF  2A6,6BF
03A1C:  MOVLW  01
03A1E:  MOVWF  xC2
03A20:  MOVLW  40
03A22:  MOVWF  xC1
03A24:  MOVLB  0
03A26:  CALL   252A
03A2A:  MOVFF  02,6B8
03A2E:  MOVFF  01,6B7
03A32:  MOVLW  0D
03A34:  MOVLB  6
03A36:  ADDWF  xB7,F
03A38:  MOVLW  00
03A3A:  ADDWFC xB8,F
03A3C:  MOVLB  2
03A3E:  MOVF   x60,W
03A40:  ADDWF  xA5,W
03A42:  MULLW  09
03A44:  MOVF   FF3,W
03A46:  MOVLB  6
03A48:  ADDWF  xB7,F
03A4A:  MOVLW  00
03A4C:  ADDWFC xB8,F
03A4E:  MOVFF  6B8,6BB
03A52:  MOVFF  6B7,6BA
03A56:  MOVLB  0
03A58:  CALL   262C
03A5C:  MOVFF  6B6,FEA
03A60:  MOVFF  6B5,FE9
03A64:  MOVFF  01,FEF
....................       if(ACiclos[i]>10) 
03A68:  CLRF   03
03A6A:  MOVLB  2
03A6C:  MOVF   x60,W
03A6E:  ADDLW  15
03A70:  MOVWF  FE9
03A72:  MOVLW  03
03A74:  ADDWFC 03,W
03A76:  MOVWF  FEA
03A78:  MOVF   FEF,W
03A7A:  SUBLW  0A
03A7C:  BC    3A8E
....................          ACiclos[i]=0; 
03A7E:  CLRF   03
03A80:  MOVF   x60,W
03A82:  ADDLW  15
03A84:  MOVWF  FE9
03A86:  MOVLW  03
03A88:  ADDWFC 03,W
03A8A:  MOVWF  FEA
03A8C:  CLRF   FEF
....................    } 
03A8E:  INCF   x60,F
03A90:  BRA    3542
.................... } 
03A92:  MOVLB  0
03A94:  GOTO   811C (RETURN)
....................  
.................... void LimitaValores(){ 
....................    if(Ganancia>20.0){ 
*
03BCC:  MOVLB  6
03BCE:  CLRF   xBC
03BD0:  CLRF   xBB
03BD2:  MOVLW  20
03BD4:  MOVWF  xBA
03BD6:  MOVLW  83
03BD8:  MOVWF  xB9
03BDA:  MOVFF  223,6C0
03BDE:  MOVFF  222,6BF
03BE2:  MOVFF  221,6BE
03BE6:  MOVFF  220,6BD
03BEA:  MOVLB  0
03BEC:  CALL   2714
03BF0:  BNC   3C3A
....................       Ganancia=15.0; 
03BF2:  MOVLB  2
03BF4:  CLRF   x23
03BF6:  CLRF   x22
03BF8:  MOVLW  70
03BFA:  MOVWF  x21
03BFC:  MOVLW  82
03BFE:  MOVWF  x20
....................       write_eeprom(20,15); 
03C00:  CLRF   FAA
03C02:  MOVLW  14
03C04:  MOVWF  FA9
03C06:  MOVLW  0F
03C08:  MOVWF  FA8
03C0A:  BCF    FA6.6
03C0C:  BCF    FA6.7
03C0E:  BSF    FA6.2
03C10:  MOVF   FF2,W
03C12:  MOVWF  00
03C14:  BCF    FF2.6
03C16:  BCF    FF2.7
03C18:  MOVLB  F
03C1A:  MOVLW  55
03C1C:  MOVWF  FA7
03C1E:  MOVLW  AA
03C20:  MOVWF  FA7
03C22:  BSF    FA6.1
03C24:  BTFSC  FA6.1
03C26:  BRA    3C24
03C28:  BCF    FA6.2
03C2A:  MOVF   00,W
03C2C:  IORWF  FF2,F
....................       delay_ms(10); 
03C2E:  MOVLW  0A
03C30:  MOVLB  6
03C32:  MOVWF  xC7
03C34:  MOVLB  0
03C36:  CALL   20B8
....................    } 
....................    if(Sensor[0].Ajuste>20){ 
03C3A:  MOVLB  3
03C3C:  MOVF   x43,W
03C3E:  SUBLW  14
03C40:  BC    3C7E
....................       Sensor[0].Ajuste=0; 
03C42:  CLRF   x43
....................       write_eeprom(21,0); 
03C44:  CLRF   FAA
03C46:  MOVLW  15
03C48:  MOVWF  FA9
03C4A:  CLRF   FA8
03C4C:  BCF    FA6.6
03C4E:  BCF    FA6.7
03C50:  BSF    FA6.2
03C52:  MOVF   FF2,W
03C54:  MOVWF  00
03C56:  BCF    FF2.6
03C58:  BCF    FF2.7
03C5A:  MOVLB  F
03C5C:  MOVLW  55
03C5E:  MOVWF  FA7
03C60:  MOVLW  AA
03C62:  MOVWF  FA7
03C64:  BSF    FA6.1
03C66:  BTFSC  FA6.1
03C68:  BRA    3C66
03C6A:  BCF    FA6.2
03C6C:  MOVF   00,W
03C6E:  IORWF  FF2,F
....................       delay_ms(10); 
03C70:  MOVLW  0A
03C72:  MOVLB  6
03C74:  MOVWF  xC7
03C76:  MOVLB  0
03C78:  CALL   20B8
03C7C:  MOVLB  3
....................    } 
....................    if(Sensor[0].Ajusten>20){ 
03C7E:  MOVF   x44,W
03C80:  SUBLW  14
03C82:  BC    3CBE
....................       Sensor[0].Ajusten=0; 
03C84:  CLRF   x44
....................       write_eeprom(22,0); 
03C86:  CLRF   FAA
03C88:  MOVLW  16
03C8A:  MOVWF  FA9
03C8C:  CLRF   FA8
03C8E:  BCF    FA6.6
03C90:  BCF    FA6.7
03C92:  BSF    FA6.2
03C94:  MOVF   FF2,W
03C96:  MOVWF  00
03C98:  BCF    FF2.6
03C9A:  BCF    FF2.7
03C9C:  MOVLB  F
03C9E:  MOVLW  55
03CA0:  MOVWF  FA7
03CA2:  MOVLW  AA
03CA4:  MOVWF  FA7
03CA6:  BSF    FA6.1
03CA8:  BTFSC  FA6.1
03CAA:  BRA    3CA8
03CAC:  BCF    FA6.2
03CAE:  MOVF   00,W
03CB0:  IORWF  FF2,F
....................       delay_ms(10); 
03CB2:  MOVLW  0A
03CB4:  MOVLB  6
03CB6:  MOVWF  xC7
03CB8:  MOVLB  0
03CBA:  CALL   20B8
....................    } 
....................    if(Sensor[1].Ajuste>20){ 
03CBE:  MOVLB  4
03CC0:  MOVF   xA7,W
03CC2:  SUBLW  14
03CC4:  BC    3D02
....................       Sensor[1].Ajuste=0; 
03CC6:  CLRF   xA7
....................       write_eeprom(23,0); 
03CC8:  CLRF   FAA
03CCA:  MOVLW  17
03CCC:  MOVWF  FA9
03CCE:  CLRF   FA8
03CD0:  BCF    FA6.6
03CD2:  BCF    FA6.7
03CD4:  BSF    FA6.2
03CD6:  MOVF   FF2,W
03CD8:  MOVWF  00
03CDA:  BCF    FF2.6
03CDC:  BCF    FF2.7
03CDE:  MOVLB  F
03CE0:  MOVLW  55
03CE2:  MOVWF  FA7
03CE4:  MOVLW  AA
03CE6:  MOVWF  FA7
03CE8:  BSF    FA6.1
03CEA:  BTFSC  FA6.1
03CEC:  BRA    3CEA
03CEE:  BCF    FA6.2
03CF0:  MOVF   00,W
03CF2:  IORWF  FF2,F
....................       delay_ms(10); 
03CF4:  MOVLW  0A
03CF6:  MOVLB  6
03CF8:  MOVWF  xC7
03CFA:  MOVLB  0
03CFC:  CALL   20B8
03D00:  MOVLB  4
....................    } 
....................    if(Sensor[1].Ajusten>20){ 
03D02:  MOVF   xA8,W
03D04:  SUBLW  14
03D06:  BC    3D42
....................       Sensor[1].Ajusten=0; 
03D08:  CLRF   xA8
....................       write_eeprom(24,0); 
03D0A:  CLRF   FAA
03D0C:  MOVLW  18
03D0E:  MOVWF  FA9
03D10:  CLRF   FA8
03D12:  BCF    FA6.6
03D14:  BCF    FA6.7
03D16:  BSF    FA6.2
03D18:  MOVF   FF2,W
03D1A:  MOVWF  00
03D1C:  BCF    FF2.6
03D1E:  BCF    FF2.7
03D20:  MOVLB  F
03D22:  MOVLW  55
03D24:  MOVWF  FA7
03D26:  MOVLW  AA
03D28:  MOVWF  FA7
03D2A:  BSF    FA6.1
03D2C:  BTFSC  FA6.1
03D2E:  BRA    3D2C
03D30:  BCF    FA6.2
03D32:  MOVF   00,W
03D34:  IORWF  FF2,F
....................       delay_ms(10); 
03D36:  MOVLW  0A
03D38:  MOVLB  6
03D3A:  MOVWF  xC7
03D3C:  MOVLB  0
03D3E:  CALL   20B8
....................    } 
....................    if(MediaMovil>80){ 
03D42:  MOVLB  1
03D44:  MOVF   xF8,W
03D46:  SUBLW  50
03D48:  BC    3D88
....................       MediaMovil=40; 
03D4A:  MOVLW  28
03D4C:  MOVWF  xF8
....................       write_eeprom(25,40); 
03D4E:  CLRF   FAA
03D50:  MOVLW  19
03D52:  MOVWF  FA9
03D54:  MOVLW  28
03D56:  MOVWF  FA8
03D58:  BCF    FA6.6
03D5A:  BCF    FA6.7
03D5C:  BSF    FA6.2
03D5E:  MOVF   FF2,W
03D60:  MOVWF  00
03D62:  BCF    FF2.6
03D64:  BCF    FF2.7
03D66:  MOVLB  F
03D68:  MOVLW  55
03D6A:  MOVWF  FA7
03D6C:  MOVLW  AA
03D6E:  MOVWF  FA7
03D70:  BSF    FA6.1
03D72:  BTFSC  FA6.1
03D74:  BRA    3D72
03D76:  BCF    FA6.2
03D78:  MOVF   00,W
03D7A:  IORWF  FF2,F
....................       delay_ms(10); 
03D7C:  MOVLW  0A
03D7E:  MOVLB  6
03D80:  MOVWF  xC7
03D82:  MOVLB  0
03D84:  CALL   20B8
....................    } 
....................    if(Tciclo>10){ 
03D88:  MOVLB  6
03D8A:  CLRF   xBC
03D8C:  CLRF   xBB
03D8E:  MOVLW  20
03D90:  MOVWF  xBA
03D92:  MOVLW  82
03D94:  MOVWF  xB9
03D96:  MOVFF  20B,6C0
03D9A:  MOVFF  20A,6BF
03D9E:  MOVFF  209,6BE
03DA2:  MOVFF  208,6BD
03DA6:  MOVLB  0
03DA8:  CALL   2714
03DAC:  BNC   3DF6
....................       Tciclo=10; 
03DAE:  MOVLB  2
03DB0:  CLRF   x0B
03DB2:  CLRF   x0A
03DB4:  MOVLW  20
03DB6:  MOVWF  x09
03DB8:  MOVLW  82
03DBA:  MOVWF  x08
....................       write_eeprom(26,10); 
03DBC:  CLRF   FAA
03DBE:  MOVLW  1A
03DC0:  MOVWF  FA9
03DC2:  MOVLW  0A
03DC4:  MOVWF  FA8
03DC6:  BCF    FA6.6
03DC8:  BCF    FA6.7
03DCA:  BSF    FA6.2
03DCC:  MOVF   FF2,W
03DCE:  MOVWF  00
03DD0:  BCF    FF2.6
03DD2:  BCF    FF2.7
03DD4:  MOVLB  F
03DD6:  MOVLW  55
03DD8:  MOVWF  FA7
03DDA:  MOVLW  AA
03DDC:  MOVWF  FA7
03DDE:  BSF    FA6.1
03DE0:  BTFSC  FA6.1
03DE2:  BRA    3DE0
03DE4:  BCF    FA6.2
03DE6:  MOVF   00,W
03DE8:  IORWF  FF2,F
....................       delay_ms(10); 
03DEA:  MOVLW  0A
03DEC:  MOVLB  6
03DEE:  MOVWF  xC7
03DF0:  MOVLB  0
03DF2:  CALL   20B8
....................    } 
....................    if(Sensor[0].RPT100>2.0){ 
03DF6:  MOVLB  6
03DF8:  CLRF   xBC
03DFA:  CLRF   xBB
03DFC:  CLRF   xBA
03DFE:  MOVLW  80
03E00:  MOVWF  xB9
03E02:  MOVFF  338,6C0
03E06:  MOVFF  337,6BF
03E0A:  MOVFF  336,6BE
03E0E:  MOVFF  335,6BD
03E12:  MOVLB  0
03E14:  CALL   2714
03E18:  BNC   3E98
....................       Sensor[0].RPT100=0.5; 
03E1A:  MOVLB  3
03E1C:  CLRF   x38
03E1E:  CLRF   x37
03E20:  CLRF   x36
03E22:  MOVLW  7E
03E24:  MOVWF  x35
....................       write_eeprom(28,0); 
03E26:  CLRF   FAA
03E28:  MOVLW  1C
03E2A:  MOVWF  FA9
03E2C:  CLRF   FA8
03E2E:  BCF    FA6.6
03E30:  BCF    FA6.7
03E32:  BSF    FA6.2
03E34:  MOVF   FF2,W
03E36:  MOVWF  00
03E38:  BCF    FF2.6
03E3A:  BCF    FF2.7
03E3C:  MOVLB  F
03E3E:  MOVLW  55
03E40:  MOVWF  FA7
03E42:  MOVLW  AA
03E44:  MOVWF  FA7
03E46:  BSF    FA6.1
03E48:  BTFSC  FA6.1
03E4A:  BRA    3E48
03E4C:  BCF    FA6.2
03E4E:  MOVF   00,W
03E50:  IORWF  FF2,F
....................       delay_ms(10); 
03E52:  MOVLW  0A
03E54:  MOVLB  6
03E56:  MOVWF  xC7
03E58:  MOVLB  0
03E5A:  CALL   20B8
....................       write_eeprom(27,5); 
03E5E:  CLRF   FAA
03E60:  MOVLW  1B
03E62:  MOVWF  FA9
03E64:  MOVLW  05
03E66:  MOVWF  FA8
03E68:  BCF    FA6.6
03E6A:  BCF    FA6.7
03E6C:  BSF    FA6.2
03E6E:  MOVF   FF2,W
03E70:  MOVWF  00
03E72:  BCF    FF2.6
03E74:  BCF    FF2.7
03E76:  MOVLB  F
03E78:  MOVLW  55
03E7A:  MOVWF  FA7
03E7C:  MOVLW  AA
03E7E:  MOVWF  FA7
03E80:  BSF    FA6.1
03E82:  BTFSC  FA6.1
03E84:  BRA    3E82
03E86:  BCF    FA6.2
03E88:  MOVF   00,W
03E8A:  IORWF  FF2,F
....................       delay_ms(10); 
03E8C:  MOVLW  0A
03E8E:  MOVLB  6
03E90:  MOVWF  xC7
03E92:  MOVLB  0
03E94:  CALL   20B8
....................    } 
....................    if(Sensor[1].RPT100>2.0){ 
03E98:  MOVLB  6
03E9A:  CLRF   xBC
03E9C:  CLRF   xBB
03E9E:  CLRF   xBA
03EA0:  MOVLW  80
03EA2:  MOVWF  xB9
03EA4:  MOVFF  49C,6C0
03EA8:  MOVFF  49B,6BF
03EAC:  MOVFF  49A,6BE
03EB0:  MOVFF  499,6BD
03EB4:  MOVLB  0
03EB6:  CALL   2714
03EBA:  BNC   3F3A
....................       Sensor[1].RPT100=0.5; 
03EBC:  MOVLB  4
03EBE:  CLRF   x9C
03EC0:  CLRF   x9B
03EC2:  CLRF   x9A
03EC4:  MOVLW  7E
03EC6:  MOVWF  x99
....................       write_eeprom(30,0); 
03EC8:  CLRF   FAA
03ECA:  MOVLW  1E
03ECC:  MOVWF  FA9
03ECE:  CLRF   FA8
03ED0:  BCF    FA6.6
03ED2:  BCF    FA6.7
03ED4:  BSF    FA6.2
03ED6:  MOVF   FF2,W
03ED8:  MOVWF  00
03EDA:  BCF    FF2.6
03EDC:  BCF    FF2.7
03EDE:  MOVLB  F
03EE0:  MOVLW  55
03EE2:  MOVWF  FA7
03EE4:  MOVLW  AA
03EE6:  MOVWF  FA7
03EE8:  BSF    FA6.1
03EEA:  BTFSC  FA6.1
03EEC:  BRA    3EEA
03EEE:  BCF    FA6.2
03EF0:  MOVF   00,W
03EF2:  IORWF  FF2,F
....................       delay_ms(10); 
03EF4:  MOVLW  0A
03EF6:  MOVLB  6
03EF8:  MOVWF  xC7
03EFA:  MOVLB  0
03EFC:  CALL   20B8
....................       write_eeprom(29,5); 
03F00:  CLRF   FAA
03F02:  MOVLW  1D
03F04:  MOVWF  FA9
03F06:  MOVLW  05
03F08:  MOVWF  FA8
03F0A:  BCF    FA6.6
03F0C:  BCF    FA6.7
03F0E:  BSF    FA6.2
03F10:  MOVF   FF2,W
03F12:  MOVWF  00
03F14:  BCF    FF2.6
03F16:  BCF    FF2.7
03F18:  MOVLB  F
03F1A:  MOVLW  55
03F1C:  MOVWF  FA7
03F1E:  MOVLW  AA
03F20:  MOVWF  FA7
03F22:  BSF    FA6.1
03F24:  BTFSC  FA6.1
03F26:  BRA    3F24
03F28:  BCF    FA6.2
03F2A:  MOVF   00,W
03F2C:  IORWF  FF2,F
....................       delay_ms(10); 
03F2E:  MOVLW  0A
03F30:  MOVLB  6
03F32:  MOVWF  xC7
03F34:  MOVLB  0
03F36:  CALL   20B8
....................    } 
....................    if(Atmosferica>100){ 
03F3A:  MOVLB  2
03F3C:  MOVF   xA8,W
03F3E:  SUBLW  64
03F40:  BC    3F82
....................       Atmosferica=69; 
03F42:  MOVLW  45
03F44:  MOVWF  xA8
....................       write_eeprom(31,69); 
03F46:  CLRF   FAA
03F48:  MOVLW  1F
03F4A:  MOVWF  FA9
03F4C:  MOVLW  45
03F4E:  MOVWF  FA8
03F50:  BCF    FA6.6
03F52:  BCF    FA6.7
03F54:  BSF    FA6.2
03F56:  MOVF   FF2,W
03F58:  MOVWF  00
03F5A:  BCF    FF2.6
03F5C:  BCF    FF2.7
03F5E:  MOVLB  F
03F60:  MOVLW  55
03F62:  MOVWF  FA7
03F64:  MOVLW  AA
03F66:  MOVWF  FA7
03F68:  BSF    FA6.1
03F6A:  BTFSC  FA6.1
03F6C:  BRA    3F6A
03F6E:  BCF    FA6.2
03F70:  MOVF   00,W
03F72:  IORWF  FF2,F
....................       delay_ms(10); 
03F74:  MOVLW  0A
03F76:  MOVLB  6
03F78:  MOVWF  xC7
03F7A:  MOVLB  0
03F7C:  CALL   20B8
03F80:  MOVLB  2
....................    } 
....................    if(Tapertura>100){ 
03F82:  MOVF   x64,W
03F84:  SUBLW  64
03F86:  BC    3FC8
....................       Tapertura=85; 
03F88:  MOVLW  55
03F8A:  MOVWF  x64
....................       write_eeprom(32,85); 
03F8C:  CLRF   FAA
03F8E:  MOVLW  20
03F90:  MOVWF  FA9
03F92:  MOVLW  55
03F94:  MOVWF  FA8
03F96:  BCF    FA6.6
03F98:  BCF    FA6.7
03F9A:  BSF    FA6.2
03F9C:  MOVF   FF2,W
03F9E:  MOVWF  00
03FA0:  BCF    FF2.6
03FA2:  BCF    FF2.7
03FA4:  MOVLB  F
03FA6:  MOVLW  55
03FA8:  MOVWF  FA7
03FAA:  MOVLW  AA
03FAC:  MOVWF  FA7
03FAE:  BSF    FA6.1
03FB0:  BTFSC  FA6.1
03FB2:  BRA    3FB0
03FB4:  BCF    FA6.2
03FB6:  MOVF   00,W
03FB8:  IORWF  FF2,F
....................       delay_ms(10); 
03FBA:  MOVLW  0A
03FBC:  MOVLB  6
03FBE:  MOVWF  xC7
03FC0:  MOVLB  0
03FC2:  CALL   20B8
03FC6:  MOVLB  2
....................    } 
....................    if(Ciclos>60000){ 
03FC8:  MOVF   x81,W
03FCA:  SUBLW  E9
03FCC:  BC    404E
03FCE:  XORLW  FF
03FD0:  BNZ   3FD8
03FD2:  MOVF   x80,W
03FD4:  SUBLW  60
03FD6:  BC    404E
....................       Ciclos=0; 
03FD8:  CLRF   x81
03FDA:  CLRF   x80
....................       write_eeprom(37,0); 
03FDC:  CLRF   FAA
03FDE:  MOVLW  25
03FE0:  MOVWF  FA9
03FE2:  CLRF   FA8
03FE4:  BCF    FA6.6
03FE6:  BCF    FA6.7
03FE8:  BSF    FA6.2
03FEA:  MOVF   FF2,W
03FEC:  MOVWF  00
03FEE:  BCF    FF2.6
03FF0:  BCF    FF2.7
03FF2:  MOVLB  F
03FF4:  MOVLW  55
03FF6:  MOVWF  FA7
03FF8:  MOVLW  AA
03FFA:  MOVWF  FA7
03FFC:  BSF    FA6.1
03FFE:  BTFSC  FA6.1
04000:  BRA    3FFE
04002:  BCF    FA6.2
04004:  MOVF   00,W
04006:  IORWF  FF2,F
....................       delay_ms(10); 
04008:  MOVLW  0A
0400A:  MOVLB  6
0400C:  MOVWF  xC7
0400E:  MOVLB  0
04010:  CALL   20B8
....................       write_eeprom(38,0); 
04014:  CLRF   FAA
04016:  MOVLW  26
04018:  MOVWF  FA9
0401A:  CLRF   FA8
0401C:  BCF    FA6.6
0401E:  BCF    FA6.7
04020:  BSF    FA6.2
04022:  MOVF   FF2,W
04024:  MOVWF  00
04026:  BCF    FF2.6
04028:  BCF    FF2.7
0402A:  MOVLB  F
0402C:  MOVLW  55
0402E:  MOVWF  FA7
04030:  MOVLW  AA
04032:  MOVWF  FA7
04034:  BSF    FA6.1
04036:  BTFSC  FA6.1
04038:  BRA    4036
0403A:  BCF    FA6.2
0403C:  MOVF   00,W
0403E:  IORWF  FF2,F
....................       delay_ms(10); 
04040:  MOVLW  0A
04042:  MOVLB  6
04044:  MOVWF  xC7
04046:  MOVLB  0
04048:  CALL   20B8
0404C:  MOVLB  2
....................    } 
....................    if(sg1==10){ 
0404E:  MOVF   xB9,W
04050:  SUBLW  0A
04052:  BNZ   4068
....................       G1=G1*(-1); 
04054:  MOVFF  2B7,6B5
04058:  MOVLW  FF
0405A:  MOVLB  6
0405C:  MOVWF  xB6
0405E:  MOVLB  0
04060:  RCALL  3B7E
04062:  MOVFF  01,2B7
04066:  MOVLB  2
....................    } 
....................    if(sg2==10){ 
04068:  MOVF   xBA,W
0406A:  SUBLW  0A
0406C:  BNZ   4080
....................       G2=G2*(-1); 
0406E:  MOVFF  2B8,6B5
04072:  MOVLW  FF
04074:  MOVLB  6
04076:  MOVWF  xB6
04078:  MOVLB  0
0407A:  RCALL  3B7E
0407C:  MOVFF  01,2B8
....................    } 
....................    if(cerroSucioInt>1){ 
04080:  MOVLB  1
04082:  MOVF   xFE,W
04084:  SUBLW  01
04086:  BC    40C6
....................       cerroSucioInt=0; 
04088:  CLRF   xFE
....................       write_eeprom(46,0); 
0408A:  CLRF   FAA
0408C:  MOVLW  2E
0408E:  MOVWF  FA9
04090:  CLRF   FA8
04092:  BCF    FA6.6
04094:  BCF    FA6.7
04096:  BSF    FA6.2
04098:  MOVF   FF2,W
0409A:  MOVWF  00
0409C:  BCF    FF2.6
0409E:  BCF    FF2.7
040A0:  MOVLB  F
040A2:  MOVLW  55
040A4:  MOVWF  FA7
040A6:  MOVLW  AA
040A8:  MOVWF  FA7
040AA:  BSF    FA6.1
040AC:  BTFSC  FA6.1
040AE:  BRA    40AC
040B0:  BCF    FA6.2
040B2:  MOVF   00,W
040B4:  IORWF  FF2,F
....................       delay_ms(10); 
040B6:  MOVLW  0A
040B8:  MOVLB  6
040BA:  MOVWF  xC7
040BC:  MOVLB  0
040BE:  CALL   20B8
....................       cerroSucio=OFF; 
040C2:  BCF    xFA.6
040C4:  MOVLB  1
....................    } 
....................    if(cerroLimpioInt>1){ 
040C6:  MOVF   xFF,W
040C8:  SUBLW  01
040CA:  BC    410A
....................       cerroLimpioInt=0; 
040CC:  CLRF   xFF
....................       write_eeprom(47,0); 
040CE:  CLRF   FAA
040D0:  MOVLW  2F
040D2:  MOVWF  FA9
040D4:  CLRF   FA8
040D6:  BCF    FA6.6
040D8:  BCF    FA6.7
040DA:  BSF    FA6.2
040DC:  MOVF   FF2,W
040DE:  MOVWF  00
040E0:  BCF    FF2.6
040E2:  BCF    FF2.7
040E4:  MOVLB  F
040E6:  MOVLW  55
040E8:  MOVWF  FA7
040EA:  MOVLW  AA
040EC:  MOVWF  FA7
040EE:  BSF    FA6.1
040F0:  BTFSC  FA6.1
040F2:  BRA    40F0
040F4:  BCF    FA6.2
040F6:  MOVF   00,W
040F8:  IORWF  FF2,F
....................       delay_ms(10); 
040FA:  MOVLW  0A
040FC:  MOVLB  6
040FE:  MOVWF  xC7
04100:  MOVLB  0
04102:  CALL   20B8
....................       cerroLimpio=OFF; 
04106:  BCF    xFA.7
04108:  MOVLB  1
....................    } 
....................    if(cerroSucioInt==1) 
0410A:  DECFSZ xFE,W
0410C:  BRA    4114
....................       cerroSucio=ON; 
0410E:  MOVLB  0
04110:  BSF    xFA.6
04112:  MOVLB  1
....................    if(cerroSucioInt==0) 
04114:  MOVF   xFE,F
04116:  BNZ   411E
....................       cerroSucio=OFF;    
04118:  MOVLB  0
0411A:  BCF    xFA.6
0411C:  MOVLB  1
....................    if(cerroLimpioInt==1) 
0411E:  DECFSZ xFF,W
04120:  BRA    4128
....................       cerroLimpio=ON; 
04122:  MOVLB  0
04124:  BSF    xFA.7
04126:  MOVLB  1
....................    if(cerroLimpioInt==0) 
04128:  MOVF   xFF,F
0412A:  BNZ   4132
....................       cerroLimpio=OFF;       
0412C:  MOVLB  0
0412E:  BCF    xFA.7
04130:  MOVLB  1
.................... } 
04132:  MOVLB  0
04134:  GOTO   8130 (RETURN)
....................  
.................... void LeeDisplay(void){ 
....................    if(Dato_Exitoso==5){ 
*
0520C:  MOVLB  2
0520E:  MOVF   x5A,W
05210:  SUBLW  05
05212:  BTFSS  FD8.2
05214:  BRA    53F6
....................          RX_Buffer[0]=RX_Buffer2[0]; 
05216:  MOVFF  3B,30
....................          RX_Buffer[1]=RX_Buffer2[1]; 
0521A:  MOVFF  3C,31
....................          RX_Buffer[2]=RX_Buffer2[2]; 
0521E:  MOVFF  3D,32
....................          RX_Buffer[3]=RX_Buffer2[3]; 
05222:  MOVFF  3E,33
....................          RX_Buffer[4]=RX_Buffer2[4]; 
05226:  MOVFF  3F,34
....................          RX_Buffer[5]=RX_Buffer2[5]; 
0522A:  MOVFF  40,35
....................          RX_Buffer[6]=RX_Buffer2[6]; 
0522E:  MOVFF  41,36
....................          RX_Buffer[7]=RX_Buffer2[7]; 
05232:  MOVFF  42,37
....................          RX_Buffer[8]=RX_Buffer2[8]; 
05236:  MOVFF  43,38
....................          RX_Buffer[9]=RX_Buffer2[9]; 
0523A:  MOVFF  44,39
....................           
....................       if(RX_Buffer[3]==0x01){// Pregunta por la pagina en la que esta el display,01 es Contrasea de Acceso 
0523E:  DECFSZ 33,W
05240:  BRA    5250
....................          Menu=0; 
05242:  CLRF   x5D
....................          if(MenuAntt!=Menu) 
05244:  MOVF   x5D,W
05246:  SUBWF  x5F,W
05248:  BZ    524E
....................             MenuAntt=Menu; 
0524A:  MOVFF  25D,25F
....................       }else if(RX_Buffer[3]==0x02){//02 es Ciclos Fijos 
0524E:  BRA    53F6
05250:  MOVF   33,W
05252:  SUBLW  02
05254:  BNZ   5266
....................          Menu=1; 
05256:  MOVLW  01
05258:  MOVWF  x5D
....................          if(MenuAntt!=Menu) 
0525A:  MOVF   x5D,W
0525C:  SUBWF  x5F,W
0525E:  BZ    5264
....................             MenuAntt=Menu; 
05260:  MOVFF  25D,25F
....................       }else if(RX_Buffer[3]==0x03){//03 es Tiempo Esterilizacion 
05264:  BRA    53F6
05266:  MOVF   33,W
05268:  SUBLW  03
0526A:  BNZ   527C
....................          Menu=2; 
0526C:  MOVLW  02
0526E:  MOVWF  x5D
....................          if(MenuAntt!=Menu) 
05270:  MOVF   x5D,W
05272:  SUBWF  x5F,W
05274:  BZ    527A
....................             MenuAntt=Menu; 
05276:  MOVFF  25D,25F
....................       }else if(RX_Buffer[3]==0x04){//04 es Tiempo de Secado 
0527A:  BRA    53F6
0527C:  MOVF   33,W
0527E:  SUBLW  04
05280:  BNZ   5292
....................          Menu=3; 
05282:  MOVLW  03
05284:  MOVWF  x5D
....................          if(MenuAntt!=Menu) 
05286:  MOVF   x5D,W
05288:  SUBWF  x5F,W
0528A:  BZ    5290
....................             MenuAntt=Menu; 
0528C:  MOVFF  25D,25F
....................       }else if(RX_Buffer[3]==0x05){//05 es Temperatura 
05290:  BRA    53F6
05292:  MOVF   33,W
05294:  SUBLW  05
05296:  BNZ   52A8
....................          Menu=4; 
05298:  MOVLW  04
0529A:  MOVWF  x5D
....................          if(MenuAntt!=Menu) 
0529C:  MOVF   x5D,W
0529E:  SUBWF  x5F,W
052A0:  BZ    52A6
....................             MenuAntt=Menu; 
052A2:  MOVFF  25D,25F
....................       }else if(RX_Buffer[3]==0x06){//06 es Nivel de Vacio 
052A6:  BRA    53F6
052A8:  MOVF   33,W
052AA:  SUBLW  06
052AC:  BNZ   52BE
....................          Menu=5; 
052AE:  MOVLW  05
052B0:  MOVWF  x5D
....................          if(MenuAntt!=Menu) 
052B2:  MOVF   x5D,W
052B4:  SUBWF  x5F,W
052B6:  BZ    52BC
....................             MenuAntt=Menu; 
052B8:  MOVFF  25D,25F
....................       }else if(RX_Buffer[3]==0x07){//07 es Test de Componentes 
052BC:  BRA    53F6
052BE:  MOVF   33,W
052C0:  SUBLW  07
052C2:  BNZ   52D4
....................          Menu=6; 
052C4:  MOVLW  06
052C6:  MOVWF  x5D
....................          if(MenuAntt!=Menu) 
052C8:  MOVF   x5D,W
052CA:  SUBWF  x5F,W
052CC:  BZ    52D2
....................             MenuAntt=Menu; 
052CE:  MOVFF  25D,25F
....................       }else if(RX_Buffer[3]==0x08){//08 es Fecha y hora 
052D2:  BRA    53F6
052D4:  MOVF   33,W
052D6:  SUBLW  08
052D8:  BNZ   52EA
....................          Menu=7; 
052DA:  MOVLW  07
052DC:  MOVWF  x5D
....................          if(MenuAntt!=Menu) 
052DE:  MOVF   x5D,W
052E0:  SUBWF  x5F,W
052E2:  BZ    52E8
....................             MenuAntt=Menu; 
052E4:  MOVFF  25D,25F
....................       }else if(RX_Buffer[3]==0x09){//09 es Ciclos Personalizados 
052E8:  BRA    53F6
052EA:  MOVF   33,W
052EC:  SUBLW  09
052EE:  BNZ   5300
....................          Menu=8; 
052F0:  MOVLW  08
052F2:  MOVWF  x5D
....................          if(MenuAntt!=Menu) 
052F4:  MOVF   x5D,W
052F6:  SUBWF  x5F,W
052F8:  BZ    52FE
....................             MenuAntt=Menu; 
052FA:  MOVFF  25D,25F
....................       }else if(RX_Buffer[3]==0x0a){//0a es Pulsos de Vacio 
052FE:  BRA    53F6
05300:  MOVF   33,W
05302:  SUBLW  0A
05304:  BNZ   5316
....................          Menu=9; 
05306:  MOVLW  09
05308:  MOVWF  x5D
....................          if(MenuAntt!=Menu) 
0530A:  MOVF   x5D,W
0530C:  SUBWF  x5F,W
0530E:  BZ    5314
....................             MenuAntt=Menu; 
05310:  MOVFF  25D,25F
....................       }else if(RX_Buffer[3]==0x0b){//0b es Usuarios 
05314:  BRA    53F6
05316:  MOVF   33,W
05318:  SUBLW  0B
0531A:  BNZ   532C
....................          Menu=10; 
0531C:  MOVLW  0A
0531E:  MOVWF  x5D
....................          if(MenuAntt!=Menu) 
05320:  MOVF   x5D,W
05322:  SUBWF  x5F,W
05324:  BZ    532A
....................             MenuAntt=Menu; 
05326:  MOVFF  25D,25F
....................       }else if(RX_Buffer[3]==0x0c){//0c es Configuraciones 
0532A:  BRA    53F6
0532C:  MOVF   33,W
0532E:  SUBLW  0C
05330:  BNZ   5342
....................          Menu=11; 
05332:  MOVLW  0B
05334:  MOVWF  x5D
....................          if(MenuAntt!=Menu) 
05336:  MOVF   x5D,W
05338:  SUBWF  x5F,W
0533A:  BZ    5340
....................             MenuAntt=Menu; 
0533C:  MOVFF  25D,25F
....................       }else if(RX_Buffer[3]==0x0d){//0d es Ciclos 
05340:  BRA    53F6
05342:  MOVF   33,W
05344:  SUBLW  0D
05346:  BNZ   5358
....................          Menu=12; 
05348:  MOVLW  0C
0534A:  MOVWF  x5D
....................          if(MenuAntt!=Menu) 
0534C:  MOVF   x5D,W
0534E:  SUBWF  x5F,W
05350:  BZ    5356
....................             MenuAntt=Menu; 
05352:  MOVFF  25D,25F
....................       }else if(RX_Buffer[3]==0x0e){//0d es Activacion de Ciclos 
05356:  BRA    53F6
05358:  MOVF   33,W
0535A:  SUBLW  0E
0535C:  BNZ   536E
....................          Menu=14; 
0535E:  MOVLW  0E
05360:  MOVWF  x5D
....................          if(MenuAntt!=Menu) 
05362:  MOVF   x5D,W
05364:  SUBWF  x5F,W
05366:  BZ    536C
....................             MenuAntt=Menu; 
05368:  MOVFF  25D,25F
....................       }else if(RX_Buffer[3]==0x10){//10 es Nivel de Desfogue 
0536C:  BRA    53F6
0536E:  MOVF   33,W
05370:  SUBLW  10
05372:  BNZ   5384
....................          Menu=13; 
05374:  MOVLW  0D
05376:  MOVWF  x5D
....................          if(MenuAntt!=Menu) 
05378:  MOVF   x5D,W
0537A:  SUBWF  x5F,W
0537C:  BZ    5382
....................             MenuAntt=Menu; 
0537E:  MOVFF  25D,25F
....................       }else if(RX_Buffer[3]==0x0f){//0f es Recibe caracteres de contrasea desde display 
05382:  BRA    53F6
05384:  MOVF   33,W
05386:  SUBLW  0F
05388:  BNZ   538C
....................           
....................       }else if(RX_Buffer[3]==0x1a){//1a es Menu de Funcionamiento 
0538A:  BRA    53F6
0538C:  MOVF   33,W
0538E:  SUBLW  1A
05390:  BNZ   53A2
....................          Menu=20; 
05392:  MOVLW  14
05394:  MOVWF  x5D
....................          if(MenuAntt!=Menu) 
05396:  MOVF   x5D,W
05398:  SUBWF  x5F,W
0539A:  BZ    53A0
....................             MenuAntt=Menu; 
0539C:  MOVFF  25D,25F
....................       }else if(RX_Buffer[3]==0x1b){//1b es Menu de clave correcta 
053A0:  BRA    53F6
053A2:  MOVF   33,W
053A4:  SUBLW  1B
053A6:  BNZ   53B8
....................          Menu=15; 
053A8:  MOVLW  0F
053AA:  MOVWF  x5D
....................          if(MenuAntt!=Menu) 
053AC:  MOVF   x5D,W
053AE:  SUBWF  x5F,W
053B0:  BZ    53B6
....................             MenuAntt=Menu; 
053B2:  MOVFF  25D,25F
....................       }else if(RX_Buffer[3]==0x1c){//1c es Menu de clave incorrecta 
053B6:  BRA    53F6
053B8:  MOVF   33,W
053BA:  SUBLW  1C
053BC:  BNZ   53CE
....................          Menu=16; 
053BE:  MOVLW  10
053C0:  MOVWF  x5D
....................          if(MenuAntt!=Menu) 
053C2:  MOVF   x5D,W
053C4:  SUBWF  x5F,W
053C6:  BZ    53CC
....................             MenuAntt=Menu; 
053C8:  MOVFF  25D,25F
....................       }else if(RX_Buffer[3]==0x2c){//2c es Menu de Configuracion de Parametros 
053CC:  BRA    53F6
053CE:  MOVF   33,W
053D0:  SUBLW  2C
053D2:  BNZ   53E4
....................          Menu=100; 
053D4:  MOVLW  64
053D6:  MOVWF  x5D
....................          if(MenuAntt!=Menu) 
053D8:  MOVF   x5D,W
053DA:  SUBWF  x5F,W
053DC:  BZ    53E2
....................             MenuAntt=Menu; 
053DE:  MOVFF  25D,25F
....................       }else if(RX_Buffer[3]==0xcc){//cc es Menu de Bienvenida 
053E2:  BRA    53F6
053E4:  MOVF   33,W
053E6:  SUBLW  CC
053E8:  BNZ   53F6
....................          Menu=240; 
053EA:  MOVLW  F0
053EC:  MOVWF  x5D
....................          if(MenuAntt!=240) 
053EE:  MOVF   x5F,W
053F0:  SUBLW  F0
053F2:  BZ    53F6
....................             reset_cpu(); 
053F4:  RESET
....................       } 
....................    } 
.................... } 
053F6:  MOVLB  0
053F8:  GOTO   828C (RETURN)
....................  
.................... void ConfiguraCiclo(int8 segest,minest,segsec,minsec,liquidos,ciclo,temperatura,pulsos,nvacio,fug){ 
....................    sEstp=segest; 
*
05CEC:  MOVFF  6BD,126
....................    mEstp=minest; 
05CF0:  MOVFF  6BE,127
....................    sSecp=segsec; 
05CF4:  MOVFF  6BF,128
....................    mSecp=minsec; 
05CF8:  MOVFF  6C0,129
....................    Setpoint=temperatura;                
05CFC:  MOVFF  6C3,26B
....................    tiempo_secado=0; 
05D00:  MOVLB  2
05D02:  CLRF   x6F
....................    desfoguelento=liquidos; 
05D04:  MOVLB  1
05D06:  BCF    x09.7
05D08:  MOVLB  6
05D0A:  BTFSS  xC1.0
05D0C:  BRA    5D14
05D0E:  MOVLB  1
05D10:  BSF    x09.7
05D12:  MOVLB  6
....................    CicloSeleccionado=ciclo; 
05D14:  MOVFF  6C2,263
....................    sEst=sEstp; 
05D18:  MOVFF  126,122
....................    mEst=mEstp; 
05D1C:  MOVFF  127,123
....................    sSec=sSecp; 
05D20:  MOVFF  128,124
....................    mSec=mSecp; 
05D24:  MOVFF  129,125
....................    CantidadPulsos=pulsos; 
05D28:  MOVLB  2
05D2A:  CLRF   x66
05D2C:  MOVFF  6C4,265
....................    NivelVacio=nvacio; 
05D30:  MOVFF  6C5,2A7
....................    Fugas=fug; 
05D34:  MOVLB  1
05D36:  BCF    x07.2
05D38:  MOVLB  6
05D3A:  BTFSS  xC6.0
05D3C:  BRA    5D44
05D3E:  MOVLB  1
05D40:  BSF    x07.2
05D42:  MOVLB  6
....................    //TiempoVacio=CantidadPulsos*180; 
....................    Imprime=15; 
05D44:  MOVLW  0F
05D46:  MOVLB  2
05D48:  MOVWF  xB2
....................    Envio_Esclavos(); 
05D4A:  MOVLB  0
05D4C:  RCALL  5734
....................    delay_ms(10); 
05D4E:  MOVLW  0A
05D50:  MOVLB  6
05D52:  MOVWF  xC7
05D54:  MOVLB  0
05D56:  CALL   20B8
....................    Imprime=10; 
05D5A:  MOVLW  0A
05D5C:  MOVLB  2
05D5E:  MOVWF  xB2
.................... } 
05D60:  MOVLB  0
05D62:  RETLW  00
....................  
.................... void ActivaAlarma(int8 Tipo){ 
....................     
....................    if(tsilencio>12000){ 
*
05AA8:  MOVLB  2
05AAA:  MOVF   x9D,W
05AAC:  SUBLW  2D
05AAE:  BC    5AC2
05AB0:  XORLW  FF
05AB2:  BNZ   5ABA
05AB4:  MOVF   x9C,W
05AB6:  SUBLW  E0
05AB8:  BC    5AC2
....................       tsilencio=0; 
05ABA:  CLRF   x9D
05ABC:  CLRF   x9C
....................       flagSilencio=OFF; 
05ABE:  MOVLB  1
05AC0:  BCF    x06.3
....................    } 
....................     
....................    if(Tipo==1){ // Alarma por Error 
05AC2:  MOVLB  6
05AC4:  DECFSZ xB5,W
05AC6:  BRA    5AFC
....................        
....................       if(!flagSilencio){ 
05AC8:  MOVLB  1
05ACA:  BTFSC  x06.3
05ACC:  BRA    5AF4
....................          flagAlarma=1; 
05ACE:  BSF    x06.1
....................          if(tbuzzer>200){ 
05AD0:  MOVLB  2
05AD2:  MOVF   x9B,F
05AD4:  BNZ   5ADC
05AD6:  MOVF   x9A,W
05AD8:  SUBLW  C8
05ADA:  BC    5AF0
....................             tbuzzer=0; 
05ADC:  CLRF   x9B
05ADE:  CLRF   x9A
....................             flagBuzzer=!flagBuzzer; 
05AE0:  MOVLB  1
05AE2:  BTG    x06.2
....................             if(flagBuzzer) 
05AE4:  BTFSS  x06.2
05AE6:  BRA    5AEC
....................                EstadoBuzzer=ON; 
05AE8:  BSF    x06.0
....................             else 
05AEA:  BRA    5AEE
....................                EstadoBuzzer=OFF; 
05AEC:  BCF    x06.0
05AEE:  MOVLB  2
....................          } 
....................       }else{ 
05AF0:  BRA    5AF8
05AF2:  MOVLB  1
....................          EstadoBuzzer=OFF; 
05AF4:  BCF    x06.0
05AF6:  MOVLB  2
....................       } 
....................    }else if(Tipo==2){  
05AF8:  BRA    5B36
05AFA:  MOVLB  6
05AFC:  MOVF   xB5,W
05AFE:  SUBLW  02
05B00:  BNZ   5B38
....................       flagAlarma=1; 
05B02:  MOVLB  1
05B04:  BSF    x06.1
....................       if(ConteoBuzzer<20){    
05B06:  MOVLB  2
05B08:  MOVF   x95,W
05B0A:  SUBLW  13
05B0C:  BNC   5B30
....................          if(tbuzzer>100){ 
05B0E:  MOVF   x9B,F
05B10:  BNZ   5B18
05B12:  MOVF   x9A,W
05B14:  SUBLW  64
05B16:  BC    5B2E
....................             tbuzzer=0; 
05B18:  CLRF   x9B
05B1A:  CLRF   x9A
....................             flagBuzzer=!flagBuzzer; 
05B1C:  MOVLB  1
05B1E:  BTG    x06.2
....................             if(flagBuzzer) 
05B20:  BTFSS  x06.2
05B22:  BRA    5B28
....................                EstadoBuzzer=ON; 
05B24:  BSF    x06.0
....................             else 
05B26:  BRA    5B2A
....................                EstadoBuzzer=OFF; 
05B28:  BCF    x06.0
....................                 
....................             ConteoBuzzer++;    
05B2A:  MOVLB  2
05B2C:  INCF   x95,F
....................          } 
....................       }else{ 
05B2E:  BRA    5B36
....................          EstadoBuzzer=OFF; 
05B30:  MOVLB  1
05B32:  BCF    x06.0
05B34:  MOVLB  2
05B36:  MOVLB  6
....................       } 
....................    } 
.................... } 
05B38:  MOVLB  0
05B3A:  RETLW  00
....................  
.................... void ControlaPresion(){ 
....................    if(Setpoint>125){ 
*
074D6:  MOVLB  2
074D8:  MOVF   x6B,W
074DA:  SUBLW  7D
074DC:  BC    750E
....................       if(PresionPrecamara>=300){ 
074DE:  MOVF   x7F,W
074E0:  SUBLW  00
074E2:  BC    74F8
074E4:  XORLW  FF
074E6:  BNZ   74EE
074E8:  MOVF   x7E,W
074EA:  SUBLW  2B
074EC:  BC    74F8
....................          suministroVapor=OFF; 
074EE:  MOVLB  0
074F0:  BCF    xF7.5
....................          Precalentamiento=ON; 
074F2:  MOVLB  1
074F4:  BSF    x07.3
074F6:  MOVLB  2
....................       } 
....................       if(PresionPrecamara<290) 
074F8:  MOVF   x7F,W
074FA:  SUBLW  01
074FC:  BNC   750C
074FE:  BNZ   7506
07500:  MOVF   x7E,W
07502:  SUBLW  21
07504:  BNC   750C
....................          suministroVapor=ON; 
07506:  MOVLB  0
07508:  BSF    xF7.5
0750A:  MOVLB  2
....................    }else{ 
0750C:  BRA    7532
....................       if(PresionPrecamara>=230){ 
0750E:  MOVF   x7F,F
07510:  BNZ   7518
07512:  MOVF   x7E,W
07514:  SUBLW  E5
07516:  BC    7522
....................          suministroVapor=OFF; 
07518:  MOVLB  0
0751A:  BCF    xF7.5
....................          Precalentamiento=ON; 
0751C:  MOVLB  1
0751E:  BSF    x07.3
07520:  MOVLB  2
....................       } 
....................       if(PresionPrecamara<220) 
07522:  MOVF   x7F,F
07524:  BNZ   7532
07526:  MOVF   x7E,W
07528:  SUBLW  DB
0752A:  BNC   7532
....................          suministroVapor=ON; 
0752C:  MOVLB  0
0752E:  BSF    xF7.5
07530:  MOVLB  2
....................    } 
.................... } 
07532:  MOVLB  0
07534:  RETLW  00
....................  
.................... void GuardaDatoEstatico(){ 
*
06C66:  MOVLB  6
06C68:  CLRF   xB6
06C6A:  CLRF   xB5
06C6C:  CLRF   xB8
06C6E:  CLRF   xB7
....................    int16 posCiclo=0,cicloMemoria=0; 
....................    posCiclo=Ciclos/200; 
06C70:  MOVFF  281,6BA
06C74:  MOVFF  280,6B9
06C78:  CLRF   xBC
06C7A:  MOVLW  C8
06C7C:  MOVWF  xBB
06C7E:  MOVLB  0
06C80:  CALL   6076
06C84:  MOVFF  02,6B6
06C88:  MOVFF  01,6B5
....................    cicloMemoria=Ciclos-(posCiclo*200); 
06C8C:  MOVFF  6B6,6C0
06C90:  MOVFF  6B5,6BF
06C94:  MOVLB  6
06C96:  CLRF   xC2
06C98:  MOVLW  C8
06C9A:  MOVWF  xC1
06C9C:  MOVLB  0
06C9E:  CALL   252A
06CA2:  MOVF   01,W
06CA4:  MOVLB  2
06CA6:  SUBWF  x80,W
06CA8:  MOVLB  6
06CAA:  MOVWF  xB7
06CAC:  MOVF   02,W
06CAE:  MOVLB  2
06CB0:  SUBWFB x81,W
06CB2:  MOVLB  6
06CB4:  MOVWF  xB8
....................    if(!disp_Guarda){ 
06CB6:  MOVLB  1
06CB8:  BTFSC  x04.6
06CBA:  BRA    6E54
....................       write_ext_eeprom(cicloMemoria*320,codigoUsuario); 
06CBC:  MOVFF  6B8,6C0
06CC0:  MOVFF  6B7,6BF
06CC4:  MOVLW  01
06CC6:  MOVLB  6
06CC8:  MOVWF  xC2
06CCA:  MOVLW  40
06CCC:  MOVWF  xC1
06CCE:  MOVLB  0
06CD0:  CALL   252A
06CD4:  MOVFF  02,6BA
06CD8:  MOVFF  01,6B9
06CDC:  MOVFF  02,6BD
06CE0:  MOVFF  01,6BC
06CE4:  MOVFF  2B5,6BE
06CE8:  RCALL  6B54
....................       delay_ms(10); 
06CEA:  MOVLW  0A
06CEC:  MOVLB  6
06CEE:  MOVWF  xC7
06CF0:  MOVLB  0
06CF2:  CALL   20B8
....................       if(!Libre) 
06CF6:  MOVLB  1
06CF8:  BTFSC  x07.0
06CFA:  BRA    6D36
....................          write_ext_eeprom(1+(cicloMemoria*320),CicloSeleccionado); 
06CFC:  MOVFF  6B8,6C0
06D00:  MOVFF  6B7,6BF
06D04:  MOVLW  01
06D06:  MOVLB  6
06D08:  MOVWF  xC2
06D0A:  MOVLW  40
06D0C:  MOVWF  xC1
06D0E:  MOVLB  0
06D10:  CALL   252A
06D14:  MOVFF  02,03
06D18:  MOVF   01,W
06D1A:  ADDLW  01
06D1C:  MOVLB  6
06D1E:  MOVWF  xB9
06D20:  MOVLW  00
06D22:  ADDWFC 02,W
06D24:  MOVWF  xBA
06D26:  MOVWF  xBD
06D28:  MOVFF  6B9,6BC
06D2C:  MOVFF  263,6BE
06D30:  MOVLB  0
06D32:  RCALL  6B54
....................       else 
06D34:  BRA    6D78
....................          write_ext_eeprom(1+(cicloMemoria*320),CicloLibre+10); 
06D36:  MOVFF  6B8,6C0
06D3A:  MOVFF  6B7,6BF
06D3E:  MOVLW  01
06D40:  MOVLB  6
06D42:  MOVWF  xC2
06D44:  MOVLW  40
06D46:  MOVWF  xC1
06D48:  MOVLB  0
06D4A:  CALL   252A
06D4E:  MOVFF  02,03
06D52:  MOVF   01,W
06D54:  ADDLW  01
06D56:  MOVLB  6
06D58:  MOVWF  xB9
06D5A:  MOVLW  00
06D5C:  ADDWFC 02,W
06D5E:  MOVWF  xBA
06D60:  MOVLW  0A
06D62:  MOVLB  2
06D64:  ADDWF  x52,W
06D66:  MOVLB  6
06D68:  MOVWF  xBB
06D6A:  MOVFF  6BA,6BD
06D6E:  MOVFF  6B9,6BC
06D72:  MOVWF  xBE
06D74:  MOVLB  0
06D76:  RCALL  6B54
....................       delay_ms(10); 
06D78:  MOVLW  0A
06D7A:  MOVLB  6
06D7C:  MOVWF  xC7
06D7E:  MOVLB  0
06D80:  CALL   20B8
....................       write_ext_eeprom(2+(cicloMemoria*320),Dia); 
06D84:  MOVFF  6B8,6C0
06D88:  MOVFF  6B7,6BF
06D8C:  MOVLW  01
06D8E:  MOVLB  6
06D90:  MOVWF  xC2
06D92:  MOVLW  40
06D94:  MOVWF  xC1
06D96:  MOVLB  0
06D98:  CALL   252A
06D9C:  MOVFF  02,03
06DA0:  MOVF   01,W
06DA2:  ADDLW  02
06DA4:  MOVLB  6
06DA6:  MOVWF  xB9
06DA8:  MOVLW  00
06DAA:  ADDWFC 02,W
06DAC:  MOVWF  xBA
06DAE:  MOVWF  xBD
06DB0:  MOVFF  6B9,6BC
06DB4:  MOVFF  2A0,6BE
06DB8:  MOVLB  0
06DBA:  RCALL  6B54
....................       delay_ms(10); 
06DBC:  MOVLW  0A
06DBE:  MOVLB  6
06DC0:  MOVWF  xC7
06DC2:  MOVLB  0
06DC4:  CALL   20B8
....................       write_ext_eeprom(3+(cicloMemoria*320),Mes); 
06DC8:  MOVFF  6B8,6C0
06DCC:  MOVFF  6B7,6BF
06DD0:  MOVLW  01
06DD2:  MOVLB  6
06DD4:  MOVWF  xC2
06DD6:  MOVLW  40
06DD8:  MOVWF  xC1
06DDA:  MOVLB  0
06DDC:  CALL   252A
06DE0:  MOVFF  02,03
06DE4:  MOVF   01,W
06DE6:  ADDLW  03
06DE8:  MOVLB  6
06DEA:  MOVWF  xB9
06DEC:  MOVLW  00
06DEE:  ADDWFC 02,W
06DF0:  MOVWF  xBA
06DF2:  MOVWF  xBD
06DF4:  MOVFF  6B9,6BC
06DF8:  MOVFF  29F,6BE
06DFC:  MOVLB  0
06DFE:  RCALL  6B54
....................       delay_ms(10); 
06E00:  MOVLW  0A
06E02:  MOVLB  6
06E04:  MOVWF  xC7
06E06:  MOVLB  0
06E08:  CALL   20B8
....................       write_ext_eeprom(4+(cicloMemoria*320),Year); 
06E0C:  MOVFF  6B8,6C0
06E10:  MOVFF  6B7,6BF
06E14:  MOVLW  01
06E16:  MOVLB  6
06E18:  MOVWF  xC2
06E1A:  MOVLW  40
06E1C:  MOVWF  xC1
06E1E:  MOVLB  0
06E20:  CALL   252A
06E24:  MOVFF  02,03
06E28:  MOVF   01,W
06E2A:  ADDLW  04
06E2C:  MOVLB  6
06E2E:  MOVWF  xB9
06E30:  MOVLW  00
06E32:  ADDWFC 02,W
06E34:  MOVWF  xBA
06E36:  MOVWF  xBD
06E38:  MOVFF  6B9,6BC
06E3C:  MOVFF  29E,6BE
06E40:  MOVLB  0
06E42:  RCALL  6B54
....................       delay_ms(10);  
06E44:  MOVLW  0A
06E46:  MOVLB  6
06E48:  MOVWF  xC7
06E4A:  MOVLB  0
06E4C:  CALL   20B8
....................       disp_Guarda=1; 
06E50:  MOVLB  1
06E52:  BSF    x04.6
....................    }    
.................... } 
06E54:  MOVLB  0
06E56:  GOTO   CD20 (RETURN)
....................  
.................... void GuardaDatoCiclo(){ 
*
07096:  MOVLB  6
07098:  CLRF   xB6
0709A:  CLRF   xB5
0709C:  CLRF   xB8
0709E:  CLRF   xB7
....................    int16 posCiclo=0,cicloMemoria=0; 
....................    posCiclo=Ciclos/200; 
070A0:  MOVFF  281,6BA
070A4:  MOVFF  280,6B9
070A8:  CLRF   xBC
070AA:  MOVLW  C8
070AC:  MOVWF  xBB
070AE:  MOVLB  0
070B0:  CALL   6076
070B4:  MOVFF  02,6B6
070B8:  MOVFF  01,6B5
....................    if(!Ciclo){ 
070BC:  MOVLB  1
070BE:  BTFSC  x04.7
070C0:  BRA    7440
....................       cicloMemoria=Ciclos-(posCiclo*200); 
070C2:  MOVFF  6B6,6C0
070C6:  MOVFF  6B5,6BF
070CA:  MOVLB  6
070CC:  CLRF   xC2
070CE:  MOVLW  C8
070D0:  MOVWF  xC1
070D2:  MOVLB  0
070D4:  CALL   252A
070D8:  MOVF   01,W
070DA:  MOVLB  2
070DC:  SUBWF  x80,W
070DE:  MOVLB  6
070E0:  MOVWF  xB7
070E2:  MOVF   02,W
070E4:  MOVLB  2
070E6:  SUBWFB x81,W
070E8:  MOVLB  6
070EA:  MOVWF  xB8
....................       write_ext_eeprom(5+(cicloMemoria*320)+(posicionDato*9),(int8)Temperatura); 
070EC:  MOVFF  6B8,6C0
070F0:  MOVFF  6B7,6BF
070F4:  MOVLW  01
070F6:  MOVWF  xC2
070F8:  MOVLW  40
070FA:  MOVWF  xC1
070FC:  MOVLB  0
070FE:  CALL   252A
07102:  MOVFF  02,03
07106:  MOVF   01,W
07108:  ADDLW  05
0710A:  MOVLB  6
0710C:  MOVWF  xB9
0710E:  MOVLW  00
07110:  ADDWFC 02,W
07112:  MOVWF  xBA
07114:  MOVLB  2
07116:  MOVF   x96,W
07118:  MULLW  09
0711A:  MOVF   FF3,W
0711C:  MOVLB  6
0711E:  ADDWF  xB9,F
07120:  MOVLW  00
07122:  ADDWFC xBA,F
07124:  MOVFF  23F,6CA
07128:  MOVFF  23E,6C9
0712C:  MOVFF  23D,6C8
07130:  MOVFF  23C,6C7
07134:  MOVLB  0
07136:  CALL   4DD4
0713A:  MOVFF  01,6BB
0713E:  MOVFF  6BA,6BD
07142:  MOVFF  6B9,6BC
07146:  MOVFF  01,6BE
0714A:  RCALL  6B54
....................       delay_ms(10); 
0714C:  MOVLW  0A
0714E:  MOVLB  6
07150:  MOVWF  xC7
07152:  MOVLB  0
07154:  CALL   20B8
....................       write_ext_eeprom(6+(cicloMemoria*320)+(posicionDato*9),extraeDecimal(Temperatura)); 
07158:  MOVFF  6B8,6C0
0715C:  MOVFF  6B7,6BF
07160:  MOVLW  01
07162:  MOVLB  6
07164:  MOVWF  xC2
07166:  MOVLW  40
07168:  MOVWF  xC1
0716A:  MOVLB  0
0716C:  CALL   252A
07170:  MOVFF  02,03
07174:  MOVF   01,W
07176:  ADDLW  06
07178:  MOVLB  6
0717A:  MOVWF  xB9
0717C:  MOVLW  00
0717E:  ADDWFC 02,W
07180:  MOVWF  xBA
07182:  MOVLB  2
07184:  MOVF   x96,W
07186:  MULLW  09
07188:  MOVF   FF3,W
0718A:  MOVLB  6
0718C:  ADDWF  xB9,F
0718E:  MOVLW  00
07190:  ADDWFC xBA,F
07192:  MOVFF  23F,6BE
07196:  MOVFF  23E,6BD
0719A:  MOVFF  23D,6BC
0719E:  MOVFF  23C,6BB
071A2:  MOVLB  0
071A4:  BRA    6FCC
071A6:  MOVFF  01,6BB
071AA:  MOVFF  6BA,6BD
071AE:  MOVFF  6B9,6BC
071B2:  MOVFF  01,6BE
071B6:  RCALL  6B54
....................       delay_ms(10); 
071B8:  MOVLW  0A
071BA:  MOVLB  6
071BC:  MOVWF  xC7
071BE:  MOVLB  0
071C0:  CALL   20B8
....................       write_ext_eeprom(7+(cicloMemoria*320)+(posicionDato*9),make8(PresionCamara,1)); 
071C4:  MOVFF  6B8,6C0
071C8:  MOVFF  6B7,6BF
071CC:  MOVLW  01
071CE:  MOVLB  6
071D0:  MOVWF  xC2
071D2:  MOVLW  40
071D4:  MOVWF  xC1
071D6:  MOVLB  0
071D8:  CALL   252A
071DC:  MOVFF  02,03
071E0:  MOVF   01,W
071E2:  ADDLW  07
071E4:  MOVLB  6
071E6:  MOVWF  xB9
071E8:  MOVLW  00
071EA:  ADDWFC 02,W
071EC:  MOVWF  xBA
071EE:  MOVLB  2
071F0:  MOVF   x96,W
071F2:  MULLW  09
071F4:  MOVF   FF3,W
071F6:  MOVLB  6
071F8:  ADDWF  xB9,F
071FA:  MOVLW  00
071FC:  ADDWFC xBA,F
071FE:  MOVFF  27D,6BB
07202:  MOVFF  6BA,6BD
07206:  MOVFF  6B9,6BC
0720A:  MOVFF  27D,6BE
0720E:  MOVLB  0
07210:  RCALL  6B54
....................       delay_ms(10); 
07212:  MOVLW  0A
07214:  MOVLB  6
07216:  MOVWF  xC7
07218:  MOVLB  0
0721A:  CALL   20B8
....................       write_ext_eeprom(8+(cicloMemoria*320)+(posicionDato*9),make8(PresionCamara,0)); 
0721E:  MOVFF  6B8,6C0
07222:  MOVFF  6B7,6BF
07226:  MOVLW  01
07228:  MOVLB  6
0722A:  MOVWF  xC2
0722C:  MOVLW  40
0722E:  MOVWF  xC1
07230:  MOVLB  0
07232:  CALL   252A
07236:  MOVFF  02,03
0723A:  MOVF   01,W
0723C:  ADDLW  08
0723E:  MOVLB  6
07240:  MOVWF  xB9
07242:  MOVLW  00
07244:  ADDWFC 02,W
07246:  MOVWF  xBA
07248:  MOVLB  2
0724A:  MOVF   x96,W
0724C:  MULLW  09
0724E:  MOVF   FF3,W
07250:  MOVLB  6
07252:  ADDWF  xB9,F
07254:  MOVLW  00
07256:  ADDWFC xBA,F
07258:  MOVFF  27C,6BB
0725C:  MOVFF  6BA,6BD
07260:  MOVFF  6B9,6BC
07264:  MOVFF  27C,6BE
07268:  MOVLB  0
0726A:  RCALL  6B54
....................       delay_ms(10); 
0726C:  MOVLW  0A
0726E:  MOVLB  6
07270:  MOVWF  xC7
07272:  MOVLB  0
07274:  CALL   20B8
....................       write_ext_eeprom(9+(cicloMemoria*320)+(posicionDato*9),make8(PresionPreCamara,1)); 
07278:  MOVFF  6B8,6C0
0727C:  MOVFF  6B7,6BF
07280:  MOVLW  01
07282:  MOVLB  6
07284:  MOVWF  xC2
07286:  MOVLW  40
07288:  MOVWF  xC1
0728A:  MOVLB  0
0728C:  CALL   252A
07290:  MOVFF  02,03
07294:  MOVF   01,W
07296:  ADDLW  09
07298:  MOVLB  6
0729A:  MOVWF  xB9
0729C:  MOVLW  00
0729E:  ADDWFC 02,W
072A0:  MOVWF  xBA
072A2:  MOVLB  2
072A4:  MOVF   x96,W
072A6:  MULLW  09
072A8:  MOVF   FF3,W
072AA:  MOVLB  6
072AC:  ADDWF  xB9,F
072AE:  MOVLW  00
072B0:  ADDWFC xBA,F
072B2:  MOVFF  27F,6BB
072B6:  MOVFF  6BA,6BD
072BA:  MOVFF  6B9,6BC
072BE:  MOVFF  27F,6BE
072C2:  MOVLB  0
072C4:  RCALL  6B54
....................       delay_ms(10); 
072C6:  MOVLW  0A
072C8:  MOVLB  6
072CA:  MOVWF  xC7
072CC:  MOVLB  0
072CE:  CALL   20B8
....................       write_ext_eeprom(10+(cicloMemoria*320)+(posicionDato*9),make8(PresionPreCamara,0)); 
072D2:  MOVFF  6B8,6C0
072D6:  MOVFF  6B7,6BF
072DA:  MOVLW  01
072DC:  MOVLB  6
072DE:  MOVWF  xC2
072E0:  MOVLW  40
072E2:  MOVWF  xC1
072E4:  MOVLB  0
072E6:  CALL   252A
072EA:  MOVFF  02,03
072EE:  MOVF   01,W
072F0:  ADDLW  0A
072F2:  MOVLB  6
072F4:  MOVWF  xB9
072F6:  MOVLW  00
072F8:  ADDWFC 02,W
072FA:  MOVWF  xBA
072FC:  MOVLB  2
072FE:  MOVF   x96,W
07300:  MULLW  09
07302:  MOVF   FF3,W
07304:  MOVLB  6
07306:  ADDWF  xB9,F
07308:  MOVLW  00
0730A:  ADDWFC xBA,F
0730C:  MOVFF  27E,6BB
07310:  MOVFF  6BA,6BD
07314:  MOVFF  6B9,6BC
07318:  MOVFF  27E,6BE
0731C:  MOVLB  0
0731E:  RCALL  6B54
....................       delay_ms(10); 
07320:  MOVLW  0A
07322:  MOVLB  6
07324:  MOVWF  xC7
07326:  MOVLB  0
07328:  CALL   20B8
....................       write_ext_eeprom(11+(cicloMemoria*320)+(posicionDato*9),Hora); 
0732C:  MOVFF  6B8,6C0
07330:  MOVFF  6B7,6BF
07334:  MOVLW  01
07336:  MOVLB  6
07338:  MOVWF  xC2
0733A:  MOVLW  40
0733C:  MOVWF  xC1
0733E:  MOVLB  0
07340:  CALL   252A
07344:  MOVFF  02,03
07348:  MOVF   01,W
0734A:  ADDLW  0B
0734C:  MOVLB  6
0734E:  MOVWF  xB9
07350:  MOVLW  00
07352:  ADDWFC 02,W
07354:  MOVWF  xBA
07356:  MOVLB  2
07358:  MOVF   x96,W
0735A:  MULLW  09
0735C:  MOVF   FF3,W
0735E:  MOVLB  6
07360:  ADDWF  xB9,F
07362:  MOVLW  00
07364:  ADDWFC xBA,F
07366:  MOVFF  6BA,6BD
0736A:  MOVFF  6B9,6BC
0736E:  MOVFF  2A1,6BE
07372:  MOVLB  0
07374:  CALL   6B54
....................       delay_ms(10); 
07378:  MOVLW  0A
0737A:  MOVLB  6
0737C:  MOVWF  xC7
0737E:  MOVLB  0
07380:  CALL   20B8
....................       write_ext_eeprom(12+(cicloMemoria*320)+(posicionDato*9),Minuto); 
07384:  MOVFF  6B8,6C0
07388:  MOVFF  6B7,6BF
0738C:  MOVLW  01
0738E:  MOVLB  6
07390:  MOVWF  xC2
07392:  MOVLW  40
07394:  MOVWF  xC1
07396:  MOVLB  0
07398:  CALL   252A
0739C:  MOVFF  02,03
073A0:  MOVF   01,W
073A2:  ADDLW  0C
073A4:  MOVLB  6
073A6:  MOVWF  xB9
073A8:  MOVLW  00
073AA:  ADDWFC 02,W
073AC:  MOVWF  xBA
073AE:  MOVLB  2
073B0:  MOVF   x96,W
073B2:  MULLW  09
073B4:  MOVF   FF3,W
073B6:  MOVLB  6
073B8:  ADDWF  xB9,F
073BA:  MOVLW  00
073BC:  ADDWFC xBA,F
073BE:  MOVFF  6BA,6BD
073C2:  MOVFF  6B9,6BC
073C6:  MOVFF  2A2,6BE
073CA:  MOVLB  0
073CC:  CALL   6B54
....................       delay_ms(10); 
073D0:  MOVLW  0A
073D2:  MOVLB  6
073D4:  MOVWF  xC7
073D6:  MOVLB  0
073D8:  CALL   20B8
....................       write_ext_eeprom(13+(cicloMemoria*320)+(posicionDato*9),codigoAlarma); 
073DC:  MOVFF  6B8,6C0
073E0:  MOVFF  6B7,6BF
073E4:  MOVLW  01
073E6:  MOVLB  6
073E8:  MOVWF  xC2
073EA:  MOVLW  40
073EC:  MOVWF  xC1
073EE:  MOVLB  0
073F0:  CALL   252A
073F4:  MOVFF  02,03
073F8:  MOVF   01,W
073FA:  ADDLW  0D
073FC:  MOVLB  6
073FE:  MOVWF  xB9
07400:  MOVLW  00
07402:  ADDWFC 02,W
07404:  MOVWF  xBA
07406:  MOVLB  2
07408:  MOVF   x96,W
0740A:  MULLW  09
0740C:  MOVF   FF3,W
0740E:  MOVLB  6
07410:  ADDWF  xB9,F
07412:  MOVLW  00
07414:  ADDWFC xBA,F
07416:  MOVFF  6BA,6BD
0741A:  MOVFF  6B9,6BC
0741E:  MOVFF  297,6BE
07422:  MOVLB  0
07424:  CALL   6B54
....................       delay_ms(10); 
07428:  MOVLW  0A
0742A:  MOVLB  6
0742C:  MOVWF  xC7
0742E:  MOVLB  0
07430:  CALL   20B8
....................     
....................       if(posicionDato<35) 
07434:  MOVLB  2
07436:  MOVF   x96,W
07438:  SUBLW  22
0743A:  BNC   743E
....................          ++posicionDato; 
0743C:  INCF   x96,F
0743E:  MOVLB  1
....................    } 
.................... } 
07440:  MOVLB  0
07442:  RETLW  00
....................  
.................... void incrementaCiclos(){ 
....................    if(!Ciclo){ 
07444:  MOVLB  1
07446:  BTFSC  x04.7
07448:  BRA    74D2
....................       Ciclo=ON; 
0744A:  BSF    x04.7
....................       Ciclos++; 
0744C:  MOVLB  2
0744E:  INCF   x80,F
07450:  BTFSC  FD8.2
07452:  INCF   x81,F
....................       CiclosL=make8(Ciclos,0); 
07454:  MOVFF  280,261
....................       CiclosH=make8(Ciclos,1); 
07458:  MOVFF  281,262
....................       write_eeprom(37,CiclosL); 
0745C:  CLRF   FAA
0745E:  MOVLW  25
07460:  MOVWF  FA9
07462:  MOVFF  261,FA8
07466:  BCF    FA6.6
07468:  BCF    FA6.7
0746A:  BSF    FA6.2
0746C:  MOVF   FF2,W
0746E:  MOVWF  00
07470:  BCF    FF2.6
07472:  BCF    FF2.7
07474:  MOVLB  F
07476:  MOVLW  55
07478:  MOVWF  FA7
0747A:  MOVLW  AA
0747C:  MOVWF  FA7
0747E:  BSF    FA6.1
07480:  BTFSC  FA6.1
07482:  BRA    7480
07484:  BCF    FA6.2
07486:  MOVF   00,W
07488:  IORWF  FF2,F
....................       delay_ms(20); 
0748A:  MOVLW  14
0748C:  MOVLB  6
0748E:  MOVWF  xC7
07490:  MOVLB  0
07492:  CALL   20B8
....................       write_eeprom(38,CiclosH); 
07496:  CLRF   FAA
07498:  MOVLW  26
0749A:  MOVWF  FA9
0749C:  MOVFF  262,FA8
074A0:  BCF    FA6.6
074A2:  BCF    FA6.7
074A4:  BSF    FA6.2
074A6:  MOVF   FF2,W
074A8:  MOVWF  00
074AA:  BCF    FF2.6
074AC:  BCF    FF2.7
074AE:  MOVLB  F
074B0:  MOVLW  55
074B2:  MOVWF  FA7
074B4:  MOVLW  AA
074B6:  MOVWF  FA7
074B8:  BSF    FA6.1
074BA:  BTFSC  FA6.1
074BC:  BRA    74BA
074BE:  BCF    FA6.2
074C0:  MOVF   00,W
074C2:  IORWF  FF2,F
....................       delay_ms(20); 
074C4:  MOVLW  14
074C6:  MOVLB  6
074C8:  MOVWF  xC7
074CA:  MOVLB  0
074CC:  CALL   20B8
074D0:  MOVLB  1
....................    } 
.................... } 
074D2:  MOVLB  0
074D4:  RETLW  00
....................  
.................... void exportarData(){ 
*
0628E:  MOVLB  6
06290:  CLRF   xB6
06292:  CLRF   xB5
06294:  CLRF   xB7
.................... int16 posicion=0; 
.................... int8 tmp=0; 
.................... posicion=40; 
06296:  CLRF   xB6
06298:  MOVLW  28
0629A:  MOVWF  xB5
.................... direccion=0xB0; 
0629C:  MOVLW  B0
0629E:  MOVLB  0
062A0:  MOVWF  xDD
.................... //Buzzer_on; 
.................... //Inicio de Transmision 
.................... i2c_start();            // Comienzo comunicacin 
062A2:  BSF    F94.4
062A4:  MOVLW  05
062A6:  MOVWF  00
062A8:  DECFSZ 00,F
062AA:  BRA    62A8
062AC:  BSF    F94.3
062AE:  MOVLW  06
062B0:  MOVWF  00
062B2:  DECFSZ 00,F
062B4:  BRA    62B2
062B6:  BCF    F8B.4
062B8:  BCF    F94.4
062BA:  MOVLW  05
062BC:  MOVWF  00
062BE:  DECFSZ 00,F
062C0:  BRA    62BE
062C2:  BCF    F8B.3
062C4:  BCF    F94.3
.................... i2c_write(direccion);   // Direccin del esclavo en el bus I2C 
062C6:  MOVFF  DD,6CB
062CA:  CALL   254C
.................... i2c_write(make8(posicion,0));    // Posicin donde se guardara el dato transmitido 
062CE:  MOVFF  6B5,6B8
062D2:  MOVFF  6B5,6CB
062D6:  CALL   254C
.................... i2c_write(make8(posicion,1));    // Posicin donde se guardara el dato transmitido 
062DA:  MOVFF  6B6,6B8
062DE:  MOVFF  6B6,6CB
062E2:  CALL   254C
.................... i2c_write(0xff);        // Dato a transmitir 
062E6:  MOVLW  FF
062E8:  MOVLB  6
062EA:  MOVWF  xCB
062EC:  MOVLB  0
062EE:  CALL   254C
.................... i2c_stop(); 
062F2:  BCF    F94.4
062F4:  NOP   
062F6:  BSF    F94.3
062F8:  BTFSS  F82.3
062FA:  BRA    62F8
062FC:  MOVLW  05
062FE:  MOVWF  00
06300:  DECFSZ 00,F
06302:  BRA    6300
06304:  BRA    6306
06306:  NOP   
06308:  BSF    F94.4
0630A:  MOVLW  05
0630C:  MOVWF  00
0630E:  DECFSZ 00,F
06310:  BRA    630E
.................... ++posicion; 
06312:  MOVLB  6
06314:  INCF   xB5,F
06316:  BTFSC  FD8.2
06318:  INCF   xB6,F
.................... i2c_start();            // Comienzo comunicacin 
0631A:  BSF    F94.4
0631C:  MOVLW  05
0631E:  MOVWF  00
06320:  DECFSZ 00,F
06322:  BRA    6320
06324:  BSF    F94.3
06326:  MOVLW  06
06328:  MOVWF  00
0632A:  DECFSZ 00,F
0632C:  BRA    632A
0632E:  BCF    F8B.4
06330:  BCF    F94.4
06332:  MOVLW  05
06334:  MOVWF  00
06336:  DECFSZ 00,F
06338:  BRA    6336
0633A:  BCF    F8B.3
0633C:  BCF    F94.3
.................... i2c_write(direccion);   // Direccin del esclavo en el bus I2C 
0633E:  MOVFF  DD,6CB
06342:  MOVLB  0
06344:  CALL   254C
.................... i2c_write(make8(posicion,0));    // Posicin donde se guardara el dato transmitido 
06348:  MOVFF  6B5,6B8
0634C:  MOVFF  6B5,6CB
06350:  CALL   254C
.................... i2c_write(make8(posicion,1));    // Posicin donde se guardara el dato transmitido 
06354:  MOVFF  6B6,6B8
06358:  MOVFF  6B6,6CB
0635C:  CALL   254C
.................... i2c_write(0xff);        // Dato a transmitir 
06360:  MOVLW  FF
06362:  MOVLB  6
06364:  MOVWF  xCB
06366:  MOVLB  0
06368:  CALL   254C
.................... i2c_stop(); 
0636C:  BCF    F94.4
0636E:  NOP   
06370:  BSF    F94.3
06372:  BTFSS  F82.3
06374:  BRA    6372
06376:  MOVLW  05
06378:  MOVWF  00
0637A:  DECFSZ 00,F
0637C:  BRA    637A
0637E:  BRA    6380
06380:  NOP   
06382:  BSF    F94.4
06384:  MOVLW  05
06386:  MOVWF  00
06388:  DECFSZ 00,F
0638A:  BRA    6388
.................... ++posicion; 
0638C:  MOVLB  6
0638E:  INCF   xB5,F
06390:  BTFSC  FD8.2
06392:  INCF   xB6,F
.................... //Se envian 2 veces ff para indicar que se inicia la transmision. 
....................  
....................    for(i=0;i<5;i++){ 
06394:  MOVLB  2
06396:  CLRF   x60
06398:  MOVF   x60,W
0639A:  SUBLW  04
0639C:  BNC   6454
....................       tmp=read_ext_eeprom((cicloVisto*320)+i); 
0639E:  MOVLB  6
063A0:  CLRF   xC0
063A2:  MOVFF  2A6,6BF
063A6:  MOVLW  01
063A8:  MOVWF  xC2
063AA:  MOVLW  40
063AC:  MOVWF  xC1
063AE:  MOVLB  0
063B0:  CALL   252A
063B4:  MOVFF  02,6B9
063B8:  MOVFF  01,6B8
063BC:  MOVLB  2
063BE:  MOVF   x60,W
063C0:  MOVLB  6
063C2:  ADDWF  xB8,F
063C4:  MOVLW  00
063C6:  ADDWFC xB9,F
063C8:  MOVFF  6B9,6BB
063CC:  MOVFF  6B8,6BA
063D0:  MOVLB  0
063D2:  CALL   262C
063D6:  MOVFF  01,6B7
....................       //if(tmp>250) 
....................       //   tmp=20; 
....................       i2c_start();            // Comienzo comunicacin 
063DA:  BSF    F94.4
063DC:  MOVLW  05
063DE:  MOVWF  00
063E0:  DECFSZ 00,F
063E2:  BRA    63E0
063E4:  BSF    F94.3
063E6:  MOVLW  06
063E8:  MOVWF  00
063EA:  DECFSZ 00,F
063EC:  BRA    63EA
063EE:  BCF    F8B.4
063F0:  BCF    F94.4
063F2:  MOVLW  05
063F4:  MOVWF  00
063F6:  DECFSZ 00,F
063F8:  BRA    63F6
063FA:  BCF    F8B.3
063FC:  BCF    F94.3
....................       i2c_write(direccion);   // Direccin del esclavo en el bus I2C 
063FE:  MOVFF  DD,6CB
06402:  CALL   254C
....................       i2c_write(make8(posicion,0));    // Posicin donde se guardara el dato transmitido 
06406:  MOVFF  6B5,6B8
0640A:  MOVFF  6B5,6CB
0640E:  CALL   254C
....................       i2c_write(make8(posicion,1));    // Posicin donde se guardara el dato transmitido 
06412:  MOVFF  6B6,6B8
06416:  MOVFF  6B6,6CB
0641A:  CALL   254C
....................       i2c_write(tmp);        // Dato a transmitir 
0641E:  MOVFF  6B7,6CB
06422:  CALL   254C
....................       i2c_stop();  
06426:  BCF    F94.4
06428:  NOP   
0642A:  BSF    F94.3
0642C:  BTFSS  F82.3
0642E:  BRA    642C
06430:  MOVLW  05
06432:  MOVWF  00
06434:  DECFSZ 00,F
06436:  BRA    6434
06438:  BRA    643A
0643A:  NOP   
0643C:  BSF    F94.4
0643E:  MOVLW  05
06440:  MOVWF  00
06442:  DECFSZ 00,F
06444:  BRA    6442
....................       ++posicion; 
06446:  MOVLB  6
06448:  INCF   xB5,F
0644A:  BTFSC  FD8.2
0644C:  INCF   xB6,F
....................    } 
0644E:  MOVLB  2
06450:  INCF   x60,F
06452:  BRA    6398
....................    for(i=0;i<35;i++){//Lee Valores para completar la Tabla 
06454:  CLRF   x60
06456:  MOVF   x60,W
06458:  SUBLW  22
0645A:  BNC   6530
....................       for(j=5;j<14;j++){//Lee Valores para completar la Tabla 
0645C:  MOVLW  05
0645E:  MOVWF  xB4
06460:  MOVF   xB4,W
06462:  SUBLW  0D
06464:  BNC   652C
....................          tmp=read_ext_eeprom((cicloVisto*320)+j+(i*9)); 
06466:  MOVLB  6
06468:  CLRF   xC0
0646A:  MOVFF  2A6,6BF
0646E:  MOVLW  01
06470:  MOVWF  xC2
06472:  MOVLW  40
06474:  MOVWF  xC1
06476:  MOVLB  0
06478:  CALL   252A
0647C:  MOVFF  02,6B9
06480:  MOVFF  01,6B8
06484:  MOVLB  2
06486:  MOVF   xB4,W
06488:  MOVLB  6
0648A:  ADDWF  xB8,F
0648C:  MOVLW  00
0648E:  ADDWFC xB9,F
06490:  MOVLB  2
06492:  MOVF   x60,W
06494:  MULLW  09
06496:  MOVF   FF3,W
06498:  MOVLB  6
0649A:  ADDWF  xB8,F
0649C:  MOVLW  00
0649E:  ADDWFC xB9,F
064A0:  MOVFF  6B9,6BB
064A4:  MOVFF  6B8,6BA
064A8:  MOVLB  0
064AA:  CALL   262C
064AE:  MOVFF  01,6B7
....................          //if(tmp>250) 
....................          //   tmp=20; 
....................          i2c_start();            // Comienzo comunicacin 
064B2:  BSF    F94.4
064B4:  MOVLW  05
064B6:  MOVWF  00
064B8:  DECFSZ 00,F
064BA:  BRA    64B8
064BC:  BSF    F94.3
064BE:  MOVLW  06
064C0:  MOVWF  00
064C2:  DECFSZ 00,F
064C4:  BRA    64C2
064C6:  BCF    F8B.4
064C8:  BCF    F94.4
064CA:  MOVLW  05
064CC:  MOVWF  00
064CE:  DECFSZ 00,F
064D0:  BRA    64CE
064D2:  BCF    F8B.3
064D4:  BCF    F94.3
....................          i2c_write(direccion);   // Direccin del esclavo en el bus I2C 
064D6:  MOVFF  DD,6CB
064DA:  CALL   254C
....................          i2c_write(make8(posicion,0));    // Posicin donde se guardara el dato transmitido 
064DE:  MOVFF  6B5,6B8
064E2:  MOVFF  6B5,6CB
064E6:  CALL   254C
....................          i2c_write(make8(posicion,1));    // Posicin donde se guardara el dato transmitido 
064EA:  MOVFF  6B6,6B8
064EE:  MOVFF  6B6,6CB
064F2:  CALL   254C
....................          i2c_write(tmp);        // Dato a transmitir 
064F6:  MOVFF  6B7,6CB
064FA:  CALL   254C
....................          i2c_stop();  
064FE:  BCF    F94.4
06500:  NOP   
06502:  BSF    F94.3
06504:  BTFSS  F82.3
06506:  BRA    6504
06508:  MOVLW  05
0650A:  MOVWF  00
0650C:  DECFSZ 00,F
0650E:  BRA    650C
06510:  BRA    6512
06512:  NOP   
06514:  BSF    F94.4
06516:  MOVLW  05
06518:  MOVWF  00
0651A:  DECFSZ 00,F
0651C:  BRA    651A
....................          ++posicion; 
0651E:  MOVLB  6
06520:  INCF   xB5,F
06522:  BTFSC  FD8.2
06524:  INCF   xB6,F
....................       } 
06526:  MOVLB  2
06528:  INCF   xB4,F
0652A:  BRA    6460
....................    } 
0652C:  INCF   x60,F
0652E:  BRA    6456
....................  
.................... //Fin de Transmision 
.................... i2c_start();            // Comienzo comunicacin 
06530:  BSF    F94.4
06532:  MOVLW  05
06534:  MOVWF  00
06536:  DECFSZ 00,F
06538:  BRA    6536
0653A:  BSF    F94.3
0653C:  MOVLW  06
0653E:  MOVWF  00
06540:  DECFSZ 00,F
06542:  BRA    6540
06544:  BCF    F8B.4
06546:  BCF    F94.4
06548:  MOVLW  05
0654A:  MOVWF  00
0654C:  DECFSZ 00,F
0654E:  BRA    654C
06550:  BCF    F8B.3
06552:  BCF    F94.3
.................... i2c_write(direccion);   // Direccin del esclavo en el bus I2C 
06554:  MOVFF  DD,6CB
06558:  MOVLB  0
0655A:  CALL   254C
.................... i2c_write(make8(posicion,0));    // Posicin donde se guardara el dato transmitido 
0655E:  MOVFF  6B5,6B8
06562:  MOVFF  6B5,6CB
06566:  CALL   254C
.................... i2c_write(make8(posicion,1));    // Posicin donde se guardara el dato transmitido 
0656A:  MOVFF  6B6,6B8
0656E:  MOVFF  6B6,6CB
06572:  CALL   254C
.................... i2c_write(0x1f);        // Dato a transmitir 
06576:  MOVLW  1F
06578:  MOVLB  6
0657A:  MOVWF  xCB
0657C:  MOVLB  0
0657E:  CALL   254C
.................... i2c_stop(); 
06582:  BCF    F94.4
06584:  NOP   
06586:  BSF    F94.3
06588:  BTFSS  F82.3
0658A:  BRA    6588
0658C:  MOVLW  05
0658E:  MOVWF  00
06590:  DECFSZ 00,F
06592:  BRA    6590
06594:  BRA    6596
06596:  NOP   
06598:  BSF    F94.4
0659A:  MOVLW  05
0659C:  MOVWF  00
0659E:  DECFSZ 00,F
065A0:  BRA    659E
.................... ++posicion; 
065A2:  MOVLB  6
065A4:  INCF   xB5,F
065A6:  BTFSC  FD8.2
065A8:  INCF   xB6,F
.................... i2c_start();            // Comienzo comunicacin 
065AA:  BSF    F94.4
065AC:  MOVLW  05
065AE:  MOVWF  00
065B0:  DECFSZ 00,F
065B2:  BRA    65B0
065B4:  BSF    F94.3
065B6:  MOVLW  06
065B8:  MOVWF  00
065BA:  DECFSZ 00,F
065BC:  BRA    65BA
065BE:  BCF    F8B.4
065C0:  BCF    F94.4
065C2:  MOVLW  05
065C4:  MOVWF  00
065C6:  DECFSZ 00,F
065C8:  BRA    65C6
065CA:  BCF    F8B.3
065CC:  BCF    F94.3
.................... i2c_write(direccion);   // Direccin del esclavo en el bus I2C 
065CE:  MOVFF  DD,6CB
065D2:  MOVLB  0
065D4:  CALL   254C
.................... i2c_write(make8(posicion,0));    // Posicin donde se guardara el dato transmitido 
065D8:  MOVFF  6B5,6B8
065DC:  MOVFF  6B5,6CB
065E0:  CALL   254C
.................... i2c_write(make8(posicion,1));    // Posicin donde se guardara el dato transmitido 
065E4:  MOVFF  6B6,6B8
065E8:  MOVFF  6B6,6CB
065EC:  CALL   254C
.................... i2c_write(0x1f);        // Dato a transmitir 
065F0:  MOVLW  1F
065F2:  MOVLB  6
065F4:  MOVWF  xCB
065F6:  MOVLB  0
065F8:  CALL   254C
.................... i2c_stop(); 
065FC:  BCF    F94.4
065FE:  NOP   
06600:  BSF    F94.3
06602:  BTFSS  F82.3
06604:  BRA    6602
06606:  MOVLW  05
06608:  MOVWF  00
0660A:  DECFSZ 00,F
0660C:  BRA    660A
0660E:  BRA    6610
06610:  NOP   
06612:  BSF    F94.4
06614:  MOVLW  05
06616:  MOVWF  00
06618:  DECFSZ 00,F
0661A:  BRA    6618
.................... ++posicion; 
0661C:  MOVLB  6
0661E:  INCF   xB5,F
06620:  BTFSC  FD8.2
06622:  INCF   xB6,F
.................... //Se envian 2 veces 1f para indicar que se inicia la transmision. 
.................... delay_ms(200); 
06624:  MOVLW  C8
06626:  MOVWF  xC7
06628:  MOVLB  0
0662A:  CALL   20B8
.................... //Buzzer_off; 
.................... } 
0662E:  GOTO   BDC4 (RETURN)
....................  
.................... void codificaAlarma(){ 
....................    if(ACiclos[i]==0){ 
06632:  CLRF   03
06634:  MOVLB  2
06636:  MOVF   x60,W
06638:  ADDLW  15
0663A:  MOVWF  FE9
0663C:  MOVLW  03
0663E:  ADDWFC 03,W
06640:  MOVWF  FEA
06642:  MOVF   FEF,F
06644:  BNZ   6684
....................       printf("A%u.txt=\"----\"",i+1); 
06646:  MOVLW  01
06648:  ADDWF  x60,W
0664A:  MOVLB  6
0664C:  MOVWF  xB5
0664E:  MOVLW  41
06650:  BTFSS  F9E.4
06652:  BRA    6650
06654:  MOVWF  FAD
06656:  MOVFF  6B5,6BA
0665A:  MOVLW  1B
0665C:  MOVWF  xBB
0665E:  MOVLB  0
06660:  CALL   5C6E
06664:  MOVLW  07
06666:  MOVWF  FF6
06668:  MOVLW  04
0666A:  MOVWF  FF7
0666C:  MOVLW  00
0666E:  MOVWF  FF8
06670:  MOVLW  0B
06672:  MOVLB  6
06674:  MOVWF  xBA
06676:  MOVLB  0
06678:  CALL   5BEA
....................       SendDataDisplay(); 
0667C:  CALL   416A
....................    }else if(ACiclos[i]==1){ 
06680:  BRA    6B4C
06682:  MOVLB  2
06684:  CLRF   03
06686:  MOVF   x60,W
06688:  ADDLW  15
0668A:  MOVWF  FE9
0668C:  MOVLW  03
0668E:  ADDWFC 03,W
06690:  MOVWF  FEA
06692:  DECFSZ FEF,W
06694:  BRA    66D4
....................       printf("A%u.txt=\"Parada\"",i+1); 
06696:  MOVLW  01
06698:  ADDWF  x60,W
0669A:  MOVLB  6
0669C:  MOVWF  xB5
0669E:  MOVLW  41
066A0:  BTFSS  F9E.4
066A2:  BRA    66A0
066A4:  MOVWF  FAD
066A6:  MOVFF  6B5,6BA
066AA:  MOVLW  1B
066AC:  MOVWF  xBB
066AE:  MOVLB  0
066B0:  CALL   5C6E
066B4:  MOVLW  17
066B6:  MOVWF  FF6
066B8:  MOVLW  04
066BA:  MOVWF  FF7
066BC:  MOVLW  00
066BE:  MOVWF  FF8
066C0:  MOVLW  0D
066C2:  MOVLB  6
066C4:  MOVWF  xBA
066C6:  MOVLB  0
066C8:  CALL   5BEA
....................       SendDataDisplay(); 
066CC:  CALL   416A
....................    }else if(ACiclos[i]==2){ 
066D0:  BRA    6B4C
066D2:  MOVLB  2
066D4:  CLRF   03
066D6:  MOVF   x60,W
066D8:  ADDLW  15
066DA:  MOVWF  FE9
066DC:  MOVLW  03
066DE:  ADDWFC 03,W
066E0:  MOVWF  FEA
066E2:  MOVF   FEF,W
066E4:  SUBLW  02
066E6:  BNZ   6726
....................       printf("A%u.txt=\"Puerta\"",i+1); 
066E8:  MOVLW  01
066EA:  ADDWF  x60,W
066EC:  MOVLB  6
066EE:  MOVWF  xB5
066F0:  MOVLW  41
066F2:  BTFSS  F9E.4
066F4:  BRA    66F2
066F6:  MOVWF  FAD
066F8:  MOVFF  6B5,6BA
066FC:  MOVLW  1B
066FE:  MOVWF  xBB
06700:  MOVLB  0
06702:  CALL   5C6E
06706:  MOVLW  29
06708:  MOVWF  FF6
0670A:  MOVLW  04
0670C:  MOVWF  FF7
0670E:  MOVLW  00
06710:  MOVWF  FF8
06712:  MOVLW  0D
06714:  MOVLB  6
06716:  MOVWF  xBA
06718:  MOVLB  0
0671A:  CALL   5BEA
....................       SendDataDisplay(); 
0671E:  CALL   416A
....................    }else if(ACiclos[i]==3){ 
06722:  BRA    6B4C
06724:  MOVLB  2
06726:  CLRF   03
06728:  MOVF   x60,W
0672A:  ADDLW  15
0672C:  MOVWF  FE9
0672E:  MOVLW  03
06730:  ADDWFC 03,W
06732:  MOVWF  FEA
06734:  MOVF   FEF,W
06736:  SUBLW  03
06738:  BNZ   6778
....................       printf("A%u.txt=\"Termostato\"",i+1); 
0673A:  MOVLW  01
0673C:  ADDWF  x60,W
0673E:  MOVLB  6
06740:  MOVWF  xB5
06742:  MOVLW  41
06744:  BTFSS  F9E.4
06746:  BRA    6744
06748:  MOVWF  FAD
0674A:  MOVFF  6B5,6BA
0674E:  MOVLW  1B
06750:  MOVWF  xBB
06752:  MOVLB  0
06754:  CALL   5C6E
06758:  MOVLW  3B
0675A:  MOVWF  FF6
0675C:  MOVLW  04
0675E:  MOVWF  FF7
06760:  MOVLW  00
06762:  MOVWF  FF8
06764:  MOVLW  11
06766:  MOVLB  6
06768:  MOVWF  xBA
0676A:  MOVLB  0
0676C:  CALL   5BEA
....................       SendDataDisplay(); 
06770:  CALL   416A
....................    }else if(ACiclos[i]==4){ 
06774:  BRA    6B4C
06776:  MOVLB  2
06778:  CLRF   03
0677A:  MOVF   x60,W
0677C:  ADDLW  15
0677E:  MOVWF  FE9
06780:  MOVLW  03
06782:  ADDWFC 03,W
06784:  MOVWF  FEA
06786:  MOVF   FEF,W
06788:  SUBLW  04
0678A:  BNZ   67CA
....................       printf("A%u.txt=\"SobreT\"",i+1); 
0678C:  MOVLW  01
0678E:  ADDWF  x60,W
06790:  MOVLB  6
06792:  MOVWF  xB5
06794:  MOVLW  41
06796:  BTFSS  F9E.4
06798:  BRA    6796
0679A:  MOVWF  FAD
0679C:  MOVFF  6B5,6BA
067A0:  MOVLW  1B
067A2:  MOVWF  xBB
067A4:  MOVLB  0
067A6:  CALL   5C6E
067AA:  MOVLW  51
067AC:  MOVWF  FF6
067AE:  MOVLW  04
067B0:  MOVWF  FF7
067B2:  MOVLW  00
067B4:  MOVWF  FF8
067B6:  MOVLW  0D
067B8:  MOVLB  6
067BA:  MOVWF  xBA
067BC:  MOVLB  0
067BE:  CALL   5BEA
....................       SendDataDisplay(); 
067C2:  CALL   416A
....................    }else if(ACiclos[i]==5){ 
067C6:  BRA    6B4C
067C8:  MOVLB  2
067CA:  CLRF   03
067CC:  MOVF   x60,W
067CE:  ADDLW  15
067D0:  MOVWF  FE9
067D2:  MOVLW  03
067D4:  ADDWFC 03,W
067D6:  MOVWF  FEA
067D8:  MOVF   FEF,W
067DA:  SUBLW  05
067DC:  BNZ   681C
....................       printf("A%u.txt=\"Tiempo\"",i+1); 
067DE:  MOVLW  01
067E0:  ADDWF  x60,W
067E2:  MOVLB  6
067E4:  MOVWF  xB5
067E6:  MOVLW  41
067E8:  BTFSS  F9E.4
067EA:  BRA    67E8
067EC:  MOVWF  FAD
067EE:  MOVFF  6B5,6BA
067F2:  MOVLW  1B
067F4:  MOVWF  xBB
067F6:  MOVLB  0
067F8:  CALL   5C6E
067FC:  MOVLW  63
067FE:  MOVWF  FF6
06800:  MOVLW  04
06802:  MOVWF  FF7
06804:  MOVLW  00
06806:  MOVWF  FF8
06808:  MOVLW  0D
0680A:  MOVLB  6
0680C:  MOVWF  xBA
0680E:  MOVLB  0
06810:  CALL   5BEA
....................       SendDataDisplay(); 
06814:  CALL   416A
....................    }else if(ACiclos[i]==6){ 
06818:  BRA    6B4C
0681A:  MOVLB  2
0681C:  CLRF   03
0681E:  MOVF   x60,W
06820:  ADDLW  15
06822:  MOVWF  FE9
06824:  MOVLW  03
06826:  ADDWFC 03,W
06828:  MOVWF  FEA
0682A:  MOVF   FEF,W
0682C:  SUBLW  06
0682E:  BNZ   686E
....................       printf("A%u.txt=\"Presion\"",i+1); 
06830:  MOVLW  01
06832:  ADDWF  x60,W
06834:  MOVLB  6
06836:  MOVWF  xB5
06838:  MOVLW  41
0683A:  BTFSS  F9E.4
0683C:  BRA    683A
0683E:  MOVWF  FAD
06840:  MOVFF  6B5,6BA
06844:  MOVLW  1B
06846:  MOVWF  xBB
06848:  MOVLB  0
0684A:  CALL   5C6E
0684E:  MOVLW  75
06850:  MOVWF  FF6
06852:  MOVLW  04
06854:  MOVWF  FF7
06856:  MOVLW  00
06858:  MOVWF  FF8
0685A:  MOVLW  0E
0685C:  MOVLB  6
0685E:  MOVWF  xBA
06860:  MOVLB  0
06862:  CALL   5BEA
....................       SendDataDisplay(); 
06866:  CALL   416A
....................    }else if(ACiclos[i]==7){ 
0686A:  BRA    6B4C
0686C:  MOVLB  2
0686E:  CLRF   03
06870:  MOVF   x60,W
06872:  ADDLW  15
06874:  MOVWF  FE9
06876:  MOVLW  03
06878:  ADDWFC 03,W
0687A:  MOVWF  FEA
0687C:  MOVF   FEF,W
0687E:  SUBLW  07
06880:  BNZ   68C0
....................       printf("A%u.txt=\"Bomba\"",i+1); 
06882:  MOVLW  01
06884:  ADDWF  x60,W
06886:  MOVLB  6
06888:  MOVWF  xB5
0688A:  MOVLW  41
0688C:  BTFSS  F9E.4
0688E:  BRA    688C
06890:  MOVWF  FAD
06892:  MOVFF  6B5,6BA
06896:  MOVLW  1B
06898:  MOVWF  xBB
0689A:  MOVLB  0
0689C:  CALL   5C6E
068A0:  MOVLW  87
068A2:  MOVWF  FF6
068A4:  MOVLW  04
068A6:  MOVWF  FF7
068A8:  MOVLW  00
068AA:  MOVWF  FF8
068AC:  MOVLW  0C
068AE:  MOVLB  6
068B0:  MOVWF  xBA
068B2:  MOVLB  0
068B4:  CALL   5BEA
....................       SendDataDisplay(); 
068B8:  CALL   416A
....................    }else if(ACiclos[i]==8){ 
068BC:  BRA    6B4C
068BE:  MOVLB  2
068C0:  CLRF   03
068C2:  MOVF   x60,W
068C4:  ADDLW  15
068C6:  MOVWF  FE9
068C8:  MOVLW  03
068CA:  ADDWFC 03,W
068CC:  MOVWF  FEA
068CE:  MOVF   FEF,W
068D0:  SUBLW  08
068D2:  BNZ   6912
....................       printf("A%u.txt=\"ErrorVacio\"",i+1); 
068D4:  MOVLW  01
068D6:  ADDWF  x60,W
068D8:  MOVLB  6
068DA:  MOVWF  xB5
068DC:  MOVLW  41
068DE:  BTFSS  F9E.4
068E0:  BRA    68DE
068E2:  MOVWF  FAD
068E4:  MOVFF  6B5,6BA
068E8:  MOVLW  1B
068EA:  MOVWF  xBB
068EC:  MOVLB  0
068EE:  CALL   5C6E
068F2:  MOVLW  97
068F4:  MOVWF  FF6
068F6:  MOVLW  04
068F8:  MOVWF  FF7
068FA:  MOVLW  00
068FC:  MOVWF  FF8
068FE:  MOVLW  11
06900:  MOVLB  6
06902:  MOVWF  xBA
06904:  MOVLB  0
06906:  CALL   5BEA
....................       SendDataDisplay(); 
0690A:  CALL   416A
....................    }else if(ACiclos[i]==10){ 
0690E:  BRA    6B4C
06910:  MOVLB  2
06912:  CLRF   03
06914:  MOVF   x60,W
06916:  ADDLW  15
06918:  MOVWF  FE9
0691A:  MOVLW  03
0691C:  ADDWFC 03,W
0691E:  MOVWF  FEA
06920:  MOVF   FEF,W
06922:  SUBLW  0A
06924:  BNZ   6964
....................       printf("A%u.txt=\"PreCale\"",i+1); 
06926:  MOVLW  01
06928:  ADDWF  x60,W
0692A:  MOVLB  6
0692C:  MOVWF  xB5
0692E:  MOVLW  41
06930:  BTFSS  F9E.4
06932:  BRA    6930
06934:  MOVWF  FAD
06936:  MOVFF  6B5,6BA
0693A:  MOVLW  1B
0693C:  MOVWF  xBB
0693E:  MOVLB  0
06940:  CALL   5C6E
06944:  MOVLW  AD
06946:  MOVWF  FF6
06948:  MOVLW  04
0694A:  MOVWF  FF7
0694C:  MOVLW  00
0694E:  MOVWF  FF8
06950:  MOVLW  0E
06952:  MOVLB  6
06954:  MOVWF  xBA
06956:  MOVLB  0
06958:  CALL   5BEA
....................       SendDataDisplay(); 
0695C:  CALL   416A
....................    }else if(ACiclos[i]==11){ 
06960:  BRA    6B4C
06962:  MOVLB  2
06964:  CLRF   03
06966:  MOVF   x60,W
06968:  ADDLW  15
0696A:  MOVWF  FE9
0696C:  MOVLW  03
0696E:  ADDWFC 03,W
06970:  MOVWF  FEA
06972:  MOVF   FEF,W
06974:  SUBLW  0B
06976:  BNZ   69B6
....................       printf("A%u.txt=\"Vacio\"",i+1); 
06978:  MOVLW  01
0697A:  ADDWF  x60,W
0697C:  MOVLB  6
0697E:  MOVWF  xB5
06980:  MOVLW  41
06982:  BTFSS  F9E.4
06984:  BRA    6982
06986:  MOVWF  FAD
06988:  MOVFF  6B5,6BA
0698C:  MOVLW  1B
0698E:  MOVWF  xBB
06990:  MOVLB  0
06992:  CALL   5C6E
06996:  MOVLW  BF
06998:  MOVWF  FF6
0699A:  MOVLW  04
0699C:  MOVWF  FF7
0699E:  MOVLW  00
069A0:  MOVWF  FF8
069A2:  MOVLW  0C
069A4:  MOVLB  6
069A6:  MOVWF  xBA
069A8:  MOVLB  0
069AA:  CALL   5BEA
....................       SendDataDisplay(); 
069AE:  CALL   416A
....................    }else if(ACiclos[i]==12){ 
069B2:  BRA    6B4C
069B4:  MOVLB  2
069B6:  CLRF   03
069B8:  MOVF   x60,W
069BA:  ADDLW  15
069BC:  MOVWF  FE9
069BE:  MOVLW  03
069C0:  ADDWFC 03,W
069C2:  MOVWF  FEA
069C4:  MOVF   FEF,W
069C6:  SUBLW  0C
069C8:  BNZ   6A08
....................       printf("A%u.txt=\"Calen\"",i+1); 
069CA:  MOVLW  01
069CC:  ADDWF  x60,W
069CE:  MOVLB  6
069D0:  MOVWF  xB5
069D2:  MOVLW  41
069D4:  BTFSS  F9E.4
069D6:  BRA    69D4
069D8:  MOVWF  FAD
069DA:  MOVFF  6B5,6BA
069DE:  MOVLW  1B
069E0:  MOVWF  xBB
069E2:  MOVLB  0
069E4:  CALL   5C6E
069E8:  MOVLW  CF
069EA:  MOVWF  FF6
069EC:  MOVLW  04
069EE:  MOVWF  FF7
069F0:  MOVLW  00
069F2:  MOVWF  FF8
069F4:  MOVLW  0C
069F6:  MOVLB  6
069F8:  MOVWF  xBA
069FA:  MOVLB  0
069FC:  CALL   5BEA
....................       SendDataDisplay(); 
06A00:  CALL   416A
....................    }else if(ACiclos[i]==13){ 
06A04:  BRA    6B4C
06A06:  MOVLB  2
06A08:  CLRF   03
06A0A:  MOVF   x60,W
06A0C:  ADDLW  15
06A0E:  MOVWF  FE9
06A10:  MOVLW  03
06A12:  ADDWFC 03,W
06A14:  MOVWF  FEA
06A16:  MOVF   FEF,W
06A18:  SUBLW  0D
06A1A:  BNZ   6A5A
....................       printf("A%u.txt=\"Desfoga\"",i+1); 
06A1C:  MOVLW  01
06A1E:  ADDWF  x60,W
06A20:  MOVLB  6
06A22:  MOVWF  xB5
06A24:  MOVLW  41
06A26:  BTFSS  F9E.4
06A28:  BRA    6A26
06A2A:  MOVWF  FAD
06A2C:  MOVFF  6B5,6BA
06A30:  MOVLW  1B
06A32:  MOVWF  xBB
06A34:  MOVLB  0
06A36:  CALL   5C6E
06A3A:  MOVLW  DF
06A3C:  MOVWF  FF6
06A3E:  MOVLW  04
06A40:  MOVWF  FF7
06A42:  MOVLW  00
06A44:  MOVWF  FF8
06A46:  MOVLW  0E
06A48:  MOVLB  6
06A4A:  MOVWF  xBA
06A4C:  MOVLB  0
06A4E:  CALL   5BEA
....................       SendDataDisplay(); 
06A52:  CALL   416A
....................    }else if(ACiclos[i]==14){ 
06A56:  BRA    6B4C
06A58:  MOVLB  2
06A5A:  CLRF   03
06A5C:  MOVF   x60,W
06A5E:  ADDLW  15
06A60:  MOVWF  FE9
06A62:  MOVLW  03
06A64:  ADDWFC 03,W
06A66:  MOVWF  FEA
06A68:  MOVF   FEF,W
06A6A:  SUBLW  0E
06A6C:  BNZ   6AAC
....................       printf("A%u.txt=\"Finalizado\"",i+1); 
06A6E:  MOVLW  01
06A70:  ADDWF  x60,W
06A72:  MOVLB  6
06A74:  MOVWF  xB5
06A76:  MOVLW  41
06A78:  BTFSS  F9E.4
06A7A:  BRA    6A78
06A7C:  MOVWF  FAD
06A7E:  MOVFF  6B5,6BA
06A82:  MOVLW  1B
06A84:  MOVWF  xBB
06A86:  MOVLB  0
06A88:  CALL   5C6E
06A8C:  MOVLW  F1
06A8E:  MOVWF  FF6
06A90:  MOVLW  04
06A92:  MOVWF  FF7
06A94:  MOVLW  00
06A96:  MOVWF  FF8
06A98:  MOVLW  11
06A9A:  MOVLB  6
06A9C:  MOVWF  xBA
06A9E:  MOVLB  0
06AA0:  CALL   5BEA
....................       SendDataDisplay(); 
06AA4:  CALL   416A
....................    }else if(ACiclos[i]==15){ 
06AA8:  BRA    6B4C
06AAA:  MOVLB  2
06AAC:  CLRF   03
06AAE:  MOVF   x60,W
06AB0:  ADDLW  15
06AB2:  MOVWF  FE9
06AB4:  MOVLW  03
06AB6:  ADDWFC 03,W
06AB8:  MOVWF  FEA
06ABA:  MOVF   FEF,W
06ABC:  SUBLW  0F
06ABE:  BNZ   6AFE
....................       printf("A%u.txt=\"Secando\"",i+1); 
06AC0:  MOVLW  01
06AC2:  ADDWF  x60,W
06AC4:  MOVLB  6
06AC6:  MOVWF  xB5
06AC8:  MOVLW  41
06ACA:  BTFSS  F9E.4
06ACC:  BRA    6ACA
06ACE:  MOVWF  FAD
06AD0:  MOVFF  6B5,6BA
06AD4:  MOVLW  1B
06AD6:  MOVWF  xBB
06AD8:  MOVLB  0
06ADA:  CALL   5C6E
06ADE:  MOVLW  07
06AE0:  MOVWF  FF6
06AE2:  MOVLW  05
06AE4:  MOVWF  FF7
06AE6:  MOVLW  00
06AE8:  MOVWF  FF8
06AEA:  MOVLW  0E
06AEC:  MOVLB  6
06AEE:  MOVWF  xBA
06AF0:  MOVLB  0
06AF2:  CALL   5BEA
....................       SendDataDisplay(); 
06AF6:  CALL   416A
....................    }else if(ACiclos[i]==16){ 
06AFA:  BRA    6B4C
06AFC:  MOVLB  2
06AFE:  CLRF   03
06B00:  MOVF   x60,W
06B02:  ADDLW  15
06B04:  MOVWF  FE9
06B06:  MOVLW  03
06B08:  ADDWFC 03,W
06B0A:  MOVWF  FEA
06B0C:  MOVF   FEF,W
06B0E:  SUBLW  10
06B10:  BNZ   6B4E
....................       printf("A%u.txt=\"Esterilizando\"",i+1); 
06B12:  MOVLW  01
06B14:  ADDWF  x60,W
06B16:  MOVLB  6
06B18:  MOVWF  xB5
06B1A:  MOVLW  41
06B1C:  BTFSS  F9E.4
06B1E:  BRA    6B1C
06B20:  MOVWF  FAD
06B22:  MOVFF  6B5,6BA
06B26:  MOVLW  1B
06B28:  MOVWF  xBB
06B2A:  MOVLB  0
06B2C:  CALL   5C6E
06B30:  MOVLW  19
06B32:  MOVWF  FF6
06B34:  MOVLW  05
06B36:  MOVWF  FF7
06B38:  MOVLW  00
06B3A:  MOVWF  FF8
06B3C:  MOVLW  14
06B3E:  MOVLB  6
06B40:  MOVWF  xBA
06B42:  MOVLB  0
06B44:  CALL   5BEA
....................       SendDataDisplay(); 
06B48:  CALL   416A
06B4C:  MOVLB  2
....................    } 
.................... } 
06B4E:  MOVLB  0
06B50:  GOTO   C86C (RETURN)
....................  
.................... void graficaCurva(int16 tGrafica){ 
....................    if(tiempos2>=tGrafica){ 
*
059B0:  MOVLB  6
059B2:  MOVF   xB6,W
059B4:  MOVLB  2
059B6:  SUBWF  x73,W
059B8:  BNC   59CC
059BA:  BNZ   59C6
059BC:  MOVLB  6
059BE:  MOVF   xB5,W
059C0:  MOVLB  2
059C2:  SUBWF  x72,W
059C4:  BNC   59CC
....................       Grafica=1; 
059C6:  BSF    x53.1
....................       tiempos2=0; 
059C8:  CLRF   x73
059CA:  CLRF   x72
....................    } 
.................... } 
059CC:  MOVLB  0
059CE:  GOTO   8390 (RETURN)
....................  
.................... void muestreo(int16 tmuestreo){ 
....................    if(tiempos3>=tmuestreo){ 
059D2:  MOVLB  6
059D4:  MOVF   xB6,W
059D6:  MOVLB  2
059D8:  SUBWF  x75,W
059DA:  BNC   5A7C
059DC:  BNZ   59E8
059DE:  MOVLB  6
059E0:  MOVF   xB5,W
059E2:  MOVLB  2
059E4:  SUBWF  x74,W
059E6:  BNC   5A7C
....................       Temperatura=LeerPt100(0,MediaMovil); 
059E8:  MOVLB  6
059EA:  CLRF   xB7
059EC:  MOVFF  1F8,6B8
059F0:  MOVLB  0
059F2:  CALL   42F6
059F6:  MOVFF  03,23F
059FA:  MOVFF  02,23E
059FE:  MOVFF  01,23D
05A02:  MOVFF  00,23C
....................       Temperatura2=LeerPt100(1,MediaMovil); 
05A06:  MOVLW  01
05A08:  MOVLB  6
05A0A:  MOVWF  xB7
05A0C:  MOVFF  1F8,6B8
05A10:  MOVLB  0
05A12:  CALL   42F6
05A16:  MOVFF  03,243
05A1A:  MOVFF  02,242
05A1E:  MOVFF  01,241
05A22:  MOVFF  00,240
....................       PresionCamara=Leer_Sensor_Presion_Camara(20); 
05A26:  MOVLW  14
05A28:  MOVLB  6
05A2A:  MOVWF  xB7
05A2C:  MOVLB  0
05A2E:  CALL   4BD6
05A32:  MOVFF  03,6CA
05A36:  MOVFF  02,6C9
05A3A:  MOVFF  01,6C8
05A3E:  MOVFF  00,6C7
05A42:  CALL   4DD4
05A46:  MOVFF  02,27D
05A4A:  MOVFF  01,27C
....................       PresionPreCamara=Leer_Sensor_Presion_PreCamara(20); 
05A4E:  MOVLW  14
05A50:  MOVLB  6
05A52:  MOVWF  xB7
05A54:  MOVLB  0
05A56:  CALL   4E10
05A5A:  MOVFF  03,6CA
05A5E:  MOVFF  02,6C9
05A62:  MOVFF  01,6C8
05A66:  MOVFF  00,6C7
05A6A:  CALL   4DD4
05A6E:  MOVFF  02,27F
05A72:  MOVFF  01,27E
....................       tiempos3=0; 
05A76:  MOVLB  2
05A78:  CLRF   x75
05A7A:  CLRF   x74
....................    } 
.................... } 
05A7C:  MOVLB  0
05A7E:  GOTO   839E (RETURN)
....................  
.................... void monitoreaAgua(){ 
....................    if(LOWB){ 
05A82:  BSF    F93.5
05A84:  BTFSC  F81.5
05A86:  BRA    5A9A
....................       SensadoNivelR=ON; 
05A88:  MOVLB  1
05A8A:  BSF    x09.6
....................       if(TiempoSensadoNivelR>2){ 
05A8C:  MOVF   xFC,W
05A8E:  SUBLW  02
05A90:  BC    5A96
....................          SensadoNivelR=OFF; 
05A92:  BCF    x09.6
....................          ReservorioLleno=ON; 
05A94:  BSF    x09.5
....................       } 
....................    }else{ 
05A96:  BRA    5AA2
05A98:  MOVLB  0
....................       SensadoNivelR=OFF; 
05A9A:  MOVLB  1
05A9C:  BCF    x09.6
....................       TiempoSensadoNivelR=0; 
05A9E:  CLRF   xFC
....................       ReservorioLleno=OFF; 
05AA0:  BCF    x09.5
....................    }  
.................... } 
05AA2:  MOVLB  0
05AA4:  GOTO   83A2 (RETURN)
....................  
.................... void monitoreaStop(){ 
....................       if(!STOP && !IniciaCiclo && !PruebaEstados){ 
*
05B68:  BSF    F93.0
05B6A:  BTFSS  F81.0
05B6C:  BRA    5BDC
05B6E:  MOVLB  1
05B70:  BTFSS  x03.2
05B72:  BRA    5B78
05B74:  MOVLB  0
05B76:  BRA    5BDC
05B78:  BTFSS  x04.5
05B7A:  BRA    5B80
05B7C:  MOVLB  0
05B7E:  BRA    5BDC
....................          if(!disp_Stop){ 
05B80:  MOVLB  2
05B82:  BTFSC  x53.2
05B84:  BRA    5B8C
....................             disp_Stop=1;Menu=255; 
05B86:  BSF    x53.2
05B88:  MOVLW  FF
05B8A:  MOVWF  x5D
....................          } 
....................          codigoAlarma=200; 
05B8C:  MOVLW  C8
05B8E:  MOVWF  x97
....................          Controlando=0; 
05B90:  CLRF   x56
....................          Desfogue=ON; 
05B92:  MOVLB  0
05B94:  BSF    xF8.0
....................          Paso=OFF; 
05B96:  BCF    xF7.6
....................          //Suministro_off; 
....................          if(PresionCamara<Atmosferica) 
05B98:  MOVLB  2
05B9A:  MOVF   x7D,F
05B9C:  BNZ   5BAA
05B9E:  MOVF   xA8,W
05BA0:  SUBWF  x7C,W
05BA2:  BC    5BAA
....................             Aire=ON; 
05BA4:  MOVLB  0
05BA6:  BSF    xF8.1
....................          else 
05BA8:  BRA    5BAE
....................             Aire=ON; 
05BAA:  MOVLB  0
05BAC:  BSF    xF8.1
....................          outVacio=OFF;    
05BAE:  BCF    xF7.7
....................          aguaEnfriador=OFF; 
05BB0:  BCF    xF7.1
....................          bombaVacio=OFF; 
05BB2:  BCF    xF7.2
....................          DesfogueSuave=OFF; 
05BB4:  MOVLB  1
05BB6:  BCF    x03.7
....................          printf("page Emergencia"); 
05BB8:  MOVLW  2E
05BBA:  MOVWF  FF6
05BBC:  MOVLW  05
05BBE:  MOVWF  FF7
05BC0:  MOVLW  00
05BC2:  MOVWF  FF8
05BC4:  MOVLB  0
05BC6:  CALL   4138
....................          SendDataDisplay(); 
05BCA:  CALL   416A
....................          ActivaAlarma(1); 
05BCE:  MOVLW  01
05BD0:  MOVLB  6
05BD2:  MOVWF  xB5
05BD4:  MOVLB  0
05BD6:  RCALL  5AA8
....................          BorraBuffer(); 
05BD8:  BRA    5B3C
....................       }else{ 
05BDA:  BRA    5BE4
....................          if(disp_Stop){ 
05BDC:  MOVLB  2
05BDE:  BTFSS  x53.2
05BE0:  BRA    5BE4
....................             reset_cpu(); 
05BE2:  RESET
05BE4:  MOVLB  0
....................          } 
....................       }           
.................... } 
05BE6:  GOTO   83A6 (RETURN)
....................  
.................... void cierraPuertaS(){// Aadir logica de puertas 
....................    abrirPuertaS=OFF; 
*
05072:  BCF    xFB.5
....................    tVacioEmpaqueS=0; 
05074:  CLRF   xFF
05076:  CLRF   xFE
....................    if(!BLOQUEOS){ 
05078:  BSF    F93.6
0507A:  BTFSS  F81.6
0507C:  BRA    5098
....................       cilindroSucio=OFF; 
0507E:  BCF    xF8.2
....................       estadoCilindrosS=ON; 
05080:  MOVLB  1
05082:  BSF    x02.2
....................       if(DOORS){ 
05084:  BSF    F93.3
05086:  BTFSC  F81.3
05088:  BRA    5092
....................          empaqueSucio=ON; 
0508A:  MOVLB  0
0508C:  BSF    xF7.4
....................          //cerroSucio=ON; 
....................       }else{ 
0508E:  BRA    5096
05090:  MOVLB  1
....................          empaqueSucio=OFF; 
05092:  MOVLB  0
05094:  BCF    xF7.4
....................       } 
....................    }else{ 
05096:  BRA    50A8
....................       if(!DOORS){ 
05098:  BSF    F93.3
0509A:  BTFSS  F81.3
0509C:  BRA    50A8
....................          cilindroSucio=ON; 
0509E:  BSF    xF8.2
....................          estadoCilindrosS=OFF; 
050A0:  MOVLB  1
050A2:  BCF    x02.2
....................          pulsoSubirS=OFF; 
050A4:  MOVLB  0
050A6:  BCF    xFB.0
....................       } 
....................    } 
....................    suministroAire=ON; 
050A8:  BSF    xF7.0
....................    seguroValvula=OFF; 
050AA:  BCF    xF8.5
....................    seguroValvula2=OFF; 
050AC:  BCF    xF8.6
....................    estadoSuministro=ON; 
050AE:  MOVLB  1
050B0:  BSF    x04.3
.................... } 
050B2:  MOVLB  0
050B4:  RETLW  00
....................  
.................... void abrePuertaS(){ 
....................    abrirPuertaS=ON; 
*
0500E:  BSF    xFB.5
....................    if(PresionCamara<=Atmosferica+15 && PresionCamara>Atmosferica-10){ 
05010:  MOVLW  0F
05012:  MOVLB  2
05014:  ADDWF  xA8,W
05016:  MOVF   x7D,F
05018:  BNZ   5066
0501A:  SUBWF  x7C,W
0501C:  BZ    5020
0501E:  BC    5066
05020:  MOVLW  0A
05022:  SUBWF  xA8,W
05024:  MOVF   x7D,F
05026:  BNZ   502E
05028:  SUBWF  x7C,W
0502A:  BZ    5066
0502C:  BNC   5066
....................       empaqueSucio=OFF; 
0502E:  MOVLB  0
05030:  BCF    xF7.4
....................       seguroValvula=ON; 
05032:  BSF    xF8.5
....................       seguroValvula2=OFF; 
05034:  BCF    xF8.6
....................       if(DOORS){ 
05036:  BSF    F93.3
05038:  BTFSC  F81.3
0503A:  BRA    5056
....................          if(tVacioEmpaqueS>=10){ 
0503C:  MOVF   xFF,F
0503E:  BNZ   5046
05040:  MOVF   xFE,W
05042:  SUBLW  09
05044:  BC    5050
....................             cilindroSucio=ON; 
05046:  BSF    xF8.2
....................             cerroSucio=OFF; 
05048:  BCF    xFA.6
....................             vacioEmpaqueS=OFF; 
0504A:  BCF    xFB.3
....................             BombaVacio=OFF; 
0504C:  BCF    xF7.2
....................          }else{ 
0504E:  BRA    5054
....................             BombaVacio=ON; 
05050:  BSF    xF7.2
....................             vacioEmpaqueS=ON; 
05052:  BSF    xFB.3
....................          } 
....................       }else{ 
05054:  BRA    5066
....................          cilindroSucio=ON; 
05056:  BSF    xF8.2
....................          estadoCilindrosS=OFF; 
05058:  MOVLB  1
0505A:  BCF    x02.2
....................          cerroSucio=OFF; 
0505C:  MOVLB  0
0505E:  BCF    xFA.6
....................          vacioEmpaqueS=OFF; 
05060:  BCF    xFB.3
....................          BombaVacio=OFF; 
05062:  BCF    xF7.2
....................          pulsoBajarS=OFF; 
05064:  BCF    xFB.6
....................       } 
....................    } 
....................    suministroAire=ON; 
05066:  MOVLB  0
05068:  BSF    xF7.0
....................    estadoSuministro=ON; 
0506A:  MOVLB  1
0506C:  BSF    x04.3
.................... } 
0506E:  MOVLB  0
05070:  RETLW  00
....................  
.................... void cierraPuertaL(){// Aadir logica de puertas 
....................    abrirPuertaL=OFF; 
*
050B6:  BCF    xFB.4
....................    tVacioEmpaqueL=0; 
050B8:  MOVLB  1
050BA:  CLRF   x01
050BC:  CLRF   x00
....................    if(!BLOQUEOL){ 
050BE:  BSF    F93.7
050C0:  BTFSS  F81.7
050C2:  BRA    50E2
....................       cilindroLimpio=OFF; 
050C4:  MOVLB  0
050C6:  BCF    xF8.3
....................       estadoCilindrosL=ON; 
050C8:  MOVLB  1
050CA:  BSF    x02.1
....................       if(DOORL){ 
050CC:  BSF    F93.4
050CE:  BTFSC  F81.4
050D0:  BRA    50DA
....................          empaqueLimpio=ON; 
050D2:  MOVLB  0
050D4:  BSF    xF7.3
....................          //cerroLimpio=ON; 
....................       }else{ 
050D6:  BRA    50DE
050D8:  MOVLB  1
....................          empaqueLimpio=OFF; 
050DA:  MOVLB  0
050DC:  BCF    xF7.3
....................       } 
....................    }else{ 
050DE:  BRA    50F4
050E0:  MOVLB  1
....................       if(!DOORL){ 
050E2:  BSF    F93.4
050E4:  BTFSS  F81.4
050E6:  BRA    50F6
....................          cilindroLimpio=ON; 
050E8:  MOVLB  0
050EA:  BSF    xF8.3
....................          estadoCilindrosL=OFF; 
050EC:  MOVLB  1
050EE:  BCF    x02.1
....................          pulsoSubirL=OFF; 
050F0:  MOVLB  0
050F2:  BCF    xFB.1
050F4:  MOVLB  1
....................       } 
....................    } 
....................    seguroValvula2=OFF; 
050F6:  MOVLB  0
050F8:  BCF    xF8.6
....................    seguroValvula=OFF; 
050FA:  BCF    xF8.5
....................    suministroAire=ON; 
050FC:  BSF    xF7.0
....................    estadoSuministro=ON; 
050FE:  MOVLB  1
05100:  BSF    x04.3
.................... } 
05102:  MOVLB  0
05104:  RETLW  00
....................  
.................... void abrePuertaL(){ 
....................    abrirPuertaL=ON; 
05106:  BSF    xFB.4
....................    if(PresionCamara<=Atmosferica+15 && PresionCamara>Atmosferica-10){ 
05108:  MOVLW  0F
0510A:  MOVLB  2
0510C:  ADDWF  xA8,W
0510E:  MOVF   x7D,F
05110:  BNZ   5164
05112:  SUBWF  x7C,W
05114:  BZ    5118
05116:  BC    5164
05118:  MOVLW  0A
0511A:  SUBWF  xA8,W
0511C:  MOVF   x7D,F
0511E:  BNZ   5126
05120:  SUBWF  x7C,W
05122:  BZ    5164
05124:  BNC   5164
....................       empaqueLimpio=OFF; 
05126:  MOVLB  0
05128:  BCF    xF7.3
....................       seguroValvula2=ON; 
0512A:  BSF    xF8.6
....................       seguroValvula=OFF; 
0512C:  BCF    xF8.5
....................       if(DOORL){ 
0512E:  BSF    F93.4
05130:  BTFSC  F81.4
05132:  BRA    5156
....................          if(tVacioEmpaqueL>=10){ 
05134:  MOVLB  1
05136:  MOVF   x01,F
05138:  BNZ   5140
0513A:  MOVF   x00,W
0513C:  SUBLW  09
0513E:  BC    514E
....................             cilindroLimpio=ON; 
05140:  MOVLB  0
05142:  BSF    xF8.3
....................             cerroLimpio=OFF; 
05144:  BCF    xFA.7
....................             vacioEmpaqueL=OFF; 
05146:  BCF    xFB.2
....................             BombaVacio=OFF; 
05148:  BCF    xF7.2
....................          }else{ 
0514A:  BRA    5154
0514C:  MOVLB  1
....................             BombaVacio=ON; 
0514E:  MOVLB  0
05150:  BSF    xF7.2
....................             vacioEmpaqueL=ON; 
05152:  BSF    xFB.2
....................          } 
....................       }else{ 
05154:  BRA    5164
....................          cilindroLimpio=ON; 
05156:  BSF    xF8.3
....................          estadoCilindrosL=OFF; 
05158:  MOVLB  1
0515A:  BCF    x02.1
....................          cerroLimpio=OFF; 
0515C:  MOVLB  0
0515E:  BCF    xFA.7
....................          vacioEmpaqueL=OFF; 
05160:  BCF    xFB.2
....................          BombaVacio=OFF; 
05162:  BCF    xF7.2
....................          //pulsoBajarL=OFF; 
....................       } 
....................    } 
....................    suministroAire=ON; 
05164:  MOVLB  0
05166:  BSF    xF7.0
....................    estadoSuministro=ON; 
05168:  MOVLB  1
0516A:  BSF    x04.3
.................... } 
0516C:  MOVLB  0
0516E:  RETLW  00
....................  
.................... void monitoreaPuertaLimpio(){ 
....................    if(pulsoSubirL) 
05170:  BTFSS  xFB.1
05172:  BRA    5176
....................       cierraPuertaL(); 
05174:  RCALL  50B6
....................        
....................    if(subirPuertaLimpio==5){//Oprimio Subir Puerta Limpio 
05176:  MOVLB  1
05178:  MOVF   xFD,W
0517A:  SUBLW  05
0517C:  BNZ   5186
....................       //cierraPuertaL(); 
....................       pulsoSubirL=ON; 
0517E:  MOVLB  0
05180:  BSF    xFB.1
....................    }else if(subirPuertaLimpio==10){//Solto Subir Puerta Limpio 
05182:  BRA    520A
05184:  MOVLB  1
05186:  MOVF   xFD,W
05188:  SUBLW  0A
0518A:  BNZ   51A6
....................       pulsoSubirL=OFF; 
0518C:  MOVLB  0
0518E:  BCF    xFB.1
....................       if(!DOORL && !EMPAQUEL) 
05190:  BSF    F93.4
05192:  BTFSS  F81.4
05194:  BRA    51A0
05196:  BSF    F93.2
05198:  BTFSS  F81.2
0519A:  BRA    51A0
....................          abrePuertaL(); 
0519C:  RCALL  5106
....................       else 
0519E:  BRA    51A2
....................          cierraPuertaL(); 
051A0:  RCALL  50B6
....................    }else if(subirPuertaLimpio==15){//Oprimio Bajar Puerta Limpio 
051A2:  BRA    520A
051A4:  MOVLB  1
051A6:  MOVF   xFD,W
051A8:  SUBLW  0F
051AA:  BNZ   51FA
....................       pulsoSubirL=OFF; 
051AC:  MOVLB  0
051AE:  BCF    xFB.1
....................       if(Temperatura<Tapertura && Finalizo && cerroSucio) 
051B0:  MOVLB  6
051B2:  CLRF   xC8
051B4:  MOVFF  264,6C7
051B8:  MOVLB  0
051BA:  CALL   2082
051BE:  MOVFF  23F,6BC
051C2:  MOVFF  23E,6BB
051C6:  MOVFF  23D,6BA
051CA:  MOVFF  23C,6B9
051CE:  MOVFF  03,6C0
051D2:  MOVFF  02,6BF
051D6:  MOVFF  01,6BE
051DA:  MOVFF  00,6BD
051DE:  CALL   2714
051E2:  BNC   51F6
051E4:  MOVLB  1
051E6:  BTFSC  x06.4
051E8:  BRA    51EE
051EA:  MOVLB  0
051EC:  BRA    51F6
051EE:  MOVLB  0
051F0:  BTFSS  xFA.6
051F2:  BRA    51F6
....................       //if(Temperatura<Tapertura && cerroSucio) 
....................          abrePuertaL(); 
051F4:  RCALL  5106
....................    }else{ 
051F6:  BRA    520A
051F8:  MOVLB  1
....................       if(!DOORL) 
051FA:  BSF    F93.4
051FC:  BTFSS  F81.4
051FE:  BRA    5206
....................          abrePuertaL(); 
05200:  MOVLB  0
05202:  RCALL  5106
....................       else 
05204:  BRA    520A
....................          cierraPuertaL(); 
05206:  MOVLB  0
05208:  RCALL  50B6
....................    }   
.................... } 
0520A:  RETLW  00
....................  
.................... void ApagaSalidas(){ 
....................     
....................    Controlando=0; 
*
041A0:  MOVLB  2
041A2:  CLRF   x56
.................... } 
041A4:  MOVLB  0
041A6:  RETLW  00
....................  
.................... void borraVariables(){ 
....................    flag_pulso=0; 
*
06E5A:  MOVLB  1
06E5C:  BCF    x08.1
....................    Start=OFF; 
06E5E:  BCF    x04.1
....................    codigoAlarma=0; 
06E60:  MOVLB  2
06E62:  CLRF   x97
....................    Desfogue=OFF; 
06E64:  MOVLB  0
06E66:  BCF    xF8.0
....................    suministroVapor=OFF; 
06E68:  BCF    xF7.5
....................    BombaVacio=OFF; 
06E6A:  BCF    xF7.2
....................    Aire=OFF; 
06E6C:  BCF    xF8.1
....................    aguaEnfriador=OFF; 
06E6E:  BCF    xF7.1
....................    outVacio=OFF; 
06E70:  BCF    xF7.7
....................    Controlando=0; 
06E72:  MOVLB  2
06E74:  CLRF   x56
....................    EstadoBuzzer=OFF; 
06E76:  MOVLB  1
06E78:  BCF    x06.0
....................    Precalentamiento=OFF; 
06E7A:  BCF    x07.3
....................    IniciaVacio=OFF; 
06E7C:  BCF    x07.4
....................    IniciaVacio2=OFF; 
06E7E:  BCF    x07.5
....................    Vacio=OFF; 
06E80:  BCF    x07.6
....................    flag_vac=OFF; 
06E82:  BCF    x07.7
....................    PulsoPositivo=10; 
06E84:  MOVLW  0A
06E86:  MOVLB  2
06E88:  MOVWF  xA9
....................    PulsosVacio=0; 
06E8A:  CLRF   xAA
....................    tvacio=0; 
06E8C:  CLRF   x85
06E8E:  CLRF   x84
....................    Esterilizando=OFF; 
06E90:  MOVLB  1
06E92:  BCF    x03.3
....................    Desfogando=OFF; 
06E94:  BCF    x03.6
....................    mEst=0; 
06E96:  CLRF   x23
....................    sEst=0; 
06E98:  CLRF   x22
....................    Secando=OFF; 
06E9A:  BCF    x03.4
....................    DesfogueSuave=OFF; 
06E9C:  BCF    x03.7
....................    Secando=OFF; 
06E9E:  BCF    x03.4
....................    mSec=0; 
06EA0:  CLRF   x25
....................    sSec=0; 
06EA2:  CLRF   x24
....................    Control=0; 
06EA4:  MOVLB  2
06EA6:  CLRF   x54
....................    Finalizo=OFF; 
06EA8:  MOVLB  1
06EAA:  BCF    x06.4
....................    AlarmaLlenado=OFF; 
06EAC:  MOVLB  0
06EAE:  BCF    xFA.5
....................    AlarmaSobreTemperatura=OFF; 
06EB0:  BCF    xF9.2
....................    AlarmaTiempoProlongado=OFF; 
06EB2:  BCF    xF9.1
....................    AlarmaPresion=OFF; 
06EB4:  MOVLB  1
06EB6:  BCF    x06.5
....................    AlarmaEmergencia=OFF; 
06EB8:  MOVLB  0
06EBA:  BCF    xF9.6
....................    AlarmaEmpaqueS=OFF; 
06EBC:  BCF    xFA.1
....................    AlarmaEmpaqueL=OFF; 
06EBE:  BCF    xFA.0
....................    AlarmaVacio=OFF; 
06EC0:  BCF    xF9.7
....................    AlarmaBomba=OFF; 
06EC2:  BCF    xFA.2
....................    AlarmaTermostato=OFF; 
06EC4:  BCF    xF9.3
....................    TiempoLlenado=0; 
06EC6:  MOVLB  1
06EC8:  CLRF   x1F
06ECA:  CLRF   x1E
....................    TiempoCiclo=0; 
06ECC:  CLRF   x0B
06ECE:  CLRF   x0A
....................    tEmpaqueS=0; 
06ED0:  MOVLB  2
06ED2:  CLRF   x68
06ED4:  CLRF   x67
....................    tEmpaqueL=0; 
06ED6:  CLRF   x6A
06ED8:  CLRF   x69
....................    tBomba=0; 
06EDA:  CLRF   x83
06EDC:  CLRF   x82
....................    tvacio=0; 
06EDE:  CLRF   x85
06EE0:  CLRF   x84
....................    IniciaCiclo=OFF; 
06EE2:  MOVLB  1
06EE4:  BCF    x03.2
....................    flagImprimir=0; 
06EE6:  BCF    x09.0
....................    flagImprime=0; 
06EE8:  MOVLB  2
06EEA:  BCF    x53.4
....................    tiempoImpresion=0; 
06EEC:  CLRF   x87
06EEE:  CLRF   x86
....................    ingreso=OFF; 
06EF0:  MOVLB  1
06EF2:  BCF    x07.1
....................    ConteoBuzzer=0; 
06EF4:  MOVLB  2
06EF6:  CLRF   x95
....................    tbuzzer=0; 
06EF8:  CLRF   x9B
06EFA:  CLRF   x9A
.................... } 
06EFC:  MOVLB  0
06EFE:  RETLW  00
....................  
.................... void leePulsadores(){ 
....................    if(tIniciar>=2){ 
06F00:  MOVLB  1
06F02:  MOVF   x17,F
06F04:  BNZ   6F0C
06F06:  MOVF   x16,W
06F08:  SUBLW  01
06F0A:  BC    6F14
....................       Start=!Start; 
06F0C:  BTG    x04.1
....................       oprimioIniciar=OFF; 
06F0E:  BCF    x02.5
....................       tIniciar=0; 
06F10:  CLRF   x17
06F12:  CLRF   x16
....................    } 
....................     
....................    if(tCiclof>=3){ 
06F14:  MOVF   x19,F
06F16:  BNZ   6F1E
06F18:  MOVF   x18,W
06F1A:  SUBLW  02
06F1C:  BC    6F3E
....................       //printf("page Menu"); 
....................       printf("page Usuarios"); 
06F1E:  MOVLW  3E
06F20:  MOVWF  FF6
06F22:  MOVLW  05
06F24:  MOVWF  FF7
06F26:  MOVLW  00
06F28:  MOVWF  FF8
06F2A:  MOVLB  0
06F2C:  CALL   4138
....................       SendDataDisplay(); 
06F30:  CALL   416A
....................       oprimioCiclo=OFF;       
06F34:  MOVLB  1
06F36:  BCF    x02.6
....................       borraVariables(); 
06F38:  MOVLB  0
06F3A:  RCALL  6E5A
06F3C:  MOVLB  1
....................    } 
....................     
....................    if(tCicloP>=3){ 
06F3E:  MOVF   x1B,F
06F40:  BNZ   6F48
06F42:  MOVF   x1A,W
06F44:  SUBLW  02
06F46:  BC    6F68
....................       //printf("page CicloPersona"); 
....................       printf("page Usuarios"); 
06F48:  MOVLW  4C
06F4A:  MOVWF  FF6
06F4C:  MOVLW  05
06F4E:  MOVWF  FF7
06F50:  MOVLW  00
06F52:  MOVWF  FF8
06F54:  MOVLB  0
06F56:  CALL   4138
....................       SendDataDisplay(); 
06F5A:  CALL   416A
....................       oprimioCicloP=OFF; 
06F5E:  MOVLB  1
06F60:  BCF    x02.7
....................       borraVariables(); 
06F62:  MOVLB  0
06F64:  RCALL  6E5A
06F66:  MOVLB  1
....................    } 
....................     
....................    if(tConfig>=3){ 
06F68:  MOVF   x1D,F
06F6A:  BNZ   6F72
06F6C:  MOVF   x1C,W
06F6E:  SUBLW  02
06F70:  BC    6F92
....................       //printf("page Ajustes"); 
....................       printf("page Usuarios"); 
06F72:  MOVLW  5A
06F74:  MOVWF  FF6
06F76:  MOVLW  05
06F78:  MOVWF  FF7
06F7A:  MOVLW  00
06F7C:  MOVWF  FF8
06F7E:  MOVLB  0
06F80:  CALL   4138
....................       SendDataDisplay(); 
06F84:  CALL   416A
....................       oprimioConfig=OFF; 
06F88:  MOVLB  1
06F8A:  BCF    x03.0
....................       borraVariables(); 
06F8C:  MOVLB  0
06F8E:  RCALL  6E5A
06F90:  MOVLB  1
....................    } 
....................     
....................    if(RX_Buffer[4]==0x10){//Oprimio Iniciar Ciclo 
06F92:  MOVF   34,W
06F94:  SUBLW  10
06F96:  BNZ   6F9C
....................       oprimioIniciar=ON; 
06F98:  BSF    x02.5
....................       RX_Buffer[4]=0x00; 
06F9A:  CLRF   34
....................       //RX_Buffer2[4]=0x00;                        
....................    } 
....................     
....................    if(RX_Buffer[4]==0x11){//Solto Iniciar Ciclo 
06F9C:  MOVF   34,W
06F9E:  SUBLW  11
06FA0:  BNZ   6FAA
....................       oprimioIniciar=OFF; 
06FA2:  BCF    x02.5
....................       tIniciar=0; 
06FA4:  CLRF   x17
06FA6:  CLRF   x16
....................       RX_Buffer[4]=0x00; 
06FA8:  CLRF   34
....................       //RX_Buffer2[4]=0x00;                        
....................    } 
....................     
....................    if(RX_Buffer[4]==0x20){//Oprimio Seleccionar Ciclo 
06FAA:  MOVF   34,W
06FAC:  SUBLW  20
06FAE:  BNZ   6FBC
....................       if(!Start || Finalizo) 
06FB0:  BTFSS  x04.1
06FB2:  BRA    6FB8
06FB4:  BTFSS  x06.4
06FB6:  BRA    6FBA
....................          oprimioCiclo=ON; 
06FB8:  BSF    x02.6
....................       RX_Buffer[4]=0x00; 
06FBA:  CLRF   34
....................       //RX_Buffer2[4]=0x00;                        
....................    } 
....................     
....................    if(RX_Buffer[4]==0x21){//Solto Seleccionar Ciclo 
06FBC:  MOVF   34,W
06FBE:  SUBLW  21
06FC0:  BNZ   6FC6
....................       oprimioCiclo=OFF; 
06FC2:  BCF    x02.6
....................       RX_Buffer[4]=0x00; 
06FC4:  CLRF   34
....................       //RX_Buffer2[4]=0x00;                        
....................    } 
....................    /* 
....................    if(RX_Buffer[4]==0x30){//Oprimio Ciclos Libres 
....................       if(!Start || Finalizo) 
....................          oprimioCicloP=ON; 
....................       RX_Buffer[4]=0x00; 
....................       //RX_Buffer2[4]=0x00;                        
....................    } 
....................     
....................    if(RX_Buffer[4]==0x31){//Solto Ciclos Libres 
....................       oprimioCicloP=OFF; 
....................       RX_Buffer[4]=0x00; 
....................       //RX_Buffer2[4]=0x00;                        
....................    } 
....................     
....................    if(RX_Buffer[4]==0x40){//Oprimio Configuraciones 
....................       if(!Start || Finalizo) 
....................          oprimioConfig=ON; 
....................       RX_Buffer[4]=0x00; 
....................       //RX_Buffer2[4]=0x00;                        
....................    } 
....................     
....................    if(RX_Buffer[4]==0x41){//Solto Configuraciones 
....................       oprimioConfig=OFF; 
....................       RX_Buffer[4]=0x00; 
....................       //RX_Buffer2[4]=0x00;                        
....................    } 
....................    */ 
.................... } 
06FC6:  MOVLB  0
06FC8:  GOTO   CE02 (RETURN)
....................  
....................  
.................... #int_rda HIGH 
.................... void serial_rx_isr(){ 
....................    Dato2=fgetc(); 
*
00568:  BTFSS  F9E.5
0056A:  BRA    0568
0056C:  MOVFF  FAE,25B
00570:  MOVLB  2
....................    if(Dato2==0x65){//Inicio Comunicacion 
00572:  MOVF   x5B,W
00574:  SUBLW  65
00576:  BNZ   057E
....................       Inicio=1; 
00578:  MOVLW  01
0057A:  MOVWF  x59
....................       RX_Wr_Index =0; 
0057C:  CLRF   46
....................    } 
....................     
....................    if(Inicio==1){ 
0057E:  DECFSZ x59,W
00580:  BRA    0596
....................       Rx_Buffer2[RX_Wr_Index] = Dato2; 
00582:  CLRF   03
00584:  MOVF   46,W
00586:  ADDLW  3B
00588:  MOVWF  FE9
0058A:  MOVLW  00
0058C:  ADDWFC 03,W
0058E:  MOVWF  FEA
00590:  MOVFF  25B,FEF
....................       RX_Wr_Index++; 
00594:  INCF   46,F
....................    } 
....................    if(RX_Wr_Index >= RX_BUFFER_SIZE){ 
00596:  MOVF   46,W
00598:  SUBLW  09
0059A:  BC    05A0
....................       RX_Wr_Index =0; 
0059C:  CLRF   46
....................       Inicio=0; 
0059E:  CLRF   x59
....................    } 
....................  
....................    if(RX_Wr_Index==0){ 
005A0:  MOVF   46,F
005A2:  BNZ   05C4
....................       if(Rx_Buffer2[0]==0x65 && Rx_Buffer2[1]==0xff && Rx_Buffer2[2]==0xff && Rx_Buffer2[8]==0x00 && Rx_Buffer2[9]==0xff ){ 
005A4:  MOVF   3B,W
005A6:  SUBLW  65
005A8:  BNZ   05C0
005AA:  INCFSZ 3C,W
005AC:  BRA    05C0
005AE:  INCFSZ 3D,W
005B0:  BRA    05C0
005B2:  MOVF   43,F
005B4:  BNZ   05C0
005B6:  INCFSZ 44,W
005B8:  BRA    05C0
....................          Dato_Exitoso=5; 
005BA:  MOVLW  05
005BC:  MOVWF  x5A
....................       }else{ 
005BE:  BRA    05C4
....................          Dato_Exitoso=10; 
005C0:  MOVLW  0A
005C2:  MOVWF  x5A
....................       } 
....................    } 
.................... } 
....................  
005C4:  BCF    F9E.5
005C6:  MOVLB  0
005C8:  GOTO   00FE
.................... #int_TIMER1 
.................... void temp1s(void){ 
....................    set_timer1(40536); // Se repite cada 5ms 
005CC:  MOVLW  9E
005CE:  MOVWF  FCF
005D0:  MOVLW  58
005D2:  MOVWF  FCE
....................    tiempos++; 
005D4:  MOVLB  2
005D6:  INCF   x70,F
005D8:  BTFSC  FD8.2
005DA:  INCF   x71,F
....................    tiempos2++; 
005DC:  INCF   x72,F
005DE:  BTFSC  FD8.2
005E0:  INCF   x73,F
....................    tiempos3++; 
005E2:  INCF   x74,F
005E4:  BTFSC  FD8.2
005E6:  INCF   x75,F
....................    tiempoctrl++; 
005E8:  INCF   x76,F
005EA:  BTFSC  FD8.2
005EC:  INCF   x77,F
....................     
....................    if(!STOP){ 
005EE:  BSF    F93.0
005F0:  BTFSS  F81.0
005F2:  BRA    0600
....................       tStop++; 
005F4:  MOVLB  1
005F6:  INCF   x20,F
005F8:  BTFSC  FD8.2
005FA:  INCF   x21,F
....................    }else{ 
005FC:  BRA    0606
005FE:  MOVLB  2
....................       tStop=0; 
00600:  MOVLB  1
00602:  CLRF   x21
00604:  CLRF   x20
....................    } 
....................     
....................    if(flagAlarma) 
00606:  BTFSS  x06.1
00608:  BRA    0614
....................       tbuzzer++; 
0060A:  MOVLB  2
0060C:  INCF   x9A,F
0060E:  BTFSC  FD8.2
00610:  INCF   x9B,F
00612:  MOVLB  1
....................        
....................    if(flagSilencio)    
00614:  BTFSS  x06.3
00616:  BRA    0620
....................       tsilencio++; 
00618:  MOVLB  2
0061A:  INCF   x9C,F
0061C:  BTFSC  FD8.2
0061E:  INCF   x9D,F
....................  
....................    if(tiempos>=200){  // 12000 para que incremente cada minuto, 200para que incremente cada segundo. 
00620:  MOVLB  2
00622:  MOVF   x71,F
00624:  BNZ   062E
00626:  MOVF   x70,W
00628:  SUBLW  C7
0062A:  BTFSC  FD8.0
0062C:  BRA    07C8
....................       if(flagTC) 
0062E:  BTFSS  x53.3
00630:  BRA    0634
....................          TiempoControl++; 
00632:  INCF   x92,F
....................        
....................       tiemporecta++; 
00634:  INCF   x55,F
....................        
....................       if(IniciaCiclo && tiempoImpresion<CalculoImpresion){ 
00636:  MOVLB  1
00638:  BTFSS  x03.2
0063A:  BRA    065C
0063C:  MOVLB  2
0063E:  MOVF   x87,F
00640:  BTFSC  FD8.2
00642:  BRA    0648
00644:  MOVLB  1
00646:  BRA    065C
00648:  MOVF   x58,W
0064A:  SUBWF  x86,W
0064C:  BTFSS  FD8.0
0064E:  BRA    0654
00650:  MOVLB  1
00652:  BRA    065C
....................          tiempoImpresion++; 
00654:  INCF   x86,F
00656:  BTFSC  FD8.2
00658:  INCF   x87,F
....................       }else if(tiempoImpresion>=CalculoImpresion){ 
0065A:  BRA    066E
0065C:  MOVLB  2
0065E:  MOVF   x87,F
00660:  BNZ   0668
00662:  MOVF   x58,W
00664:  SUBWF  x86,W
00666:  BNC   066E
....................          flagImprime=1; 
00668:  BSF    x53.4
....................          tiempoImpresion=0; 
0066A:  CLRF   x87
0066C:  CLRF   x86
....................       } 
....................        
....................       if(oprimioIniciar) 
0066E:  MOVLB  1
00670:  BTFSS  x02.5
00672:  BRA    067C
....................          tIniciar++; 
00674:  INCF   x16,F
00676:  BTFSC  FD8.2
00678:  INCF   x17,F
....................       else 
0067A:  BRA    0680
....................          tIniciar=0; 
0067C:  CLRF   x17
0067E:  CLRF   x16
....................           
....................       if(oprimioCiclo) 
00680:  BTFSS  x02.6
00682:  BRA    068C
....................          tCiclof++; 
00684:  INCF   x18,F
00686:  BTFSC  FD8.2
00688:  INCF   x19,F
....................       else 
0068A:  BRA    0690
....................          tCiclof=0; 
0068C:  CLRF   x19
0068E:  CLRF   x18
....................        
....................       if(oprimioCicloP) 
00690:  BTFSS  x02.7
00692:  BRA    069C
....................          tCicloP++; 
00694:  INCF   x1A,F
00696:  BTFSC  FD8.2
00698:  INCF   x1B,F
....................       else 
0069A:  BRA    06A0
....................          tCicloP=0; 
0069C:  CLRF   x1B
0069E:  CLRF   x1A
....................           
....................       if(oprimioConfig) 
006A0:  BTFSS  x03.0
006A2:  BRA    06AC
....................          tConfig++; 
006A4:  INCF   x1C,F
006A6:  BTFSC  FD8.2
006A8:  INCF   x1D,F
....................       else 
006AA:  BRA    06B0
....................          tConfig=0; 
006AC:  CLRF   x1D
006AE:  CLRF   x1C
....................        
....................       if(vacioEmpaqueL) 
006B0:  MOVLB  0
006B2:  BTFSS  xFB.2
006B4:  BRA    06C0
....................          tVacioEmpaqueL++; 
006B6:  MOVLB  1
006B8:  INCF   x00,F
006BA:  BTFSC  FD8.2
006BC:  INCF   x01,F
....................       else 
006BE:  BRA    06C6
....................          tVacioEmpaqueL=0; 
006C0:  MOVLB  1
006C2:  CLRF   x01
006C4:  CLRF   x00
....................        
....................       if(vacioEmpaqueS) 
006C6:  MOVLB  0
006C8:  BTFSS  xFB.3
006CA:  BRA    06D4
....................          tVacioEmpaqueS++; 
006CC:  INCF   xFE,F
006CE:  BTFSC  FD8.2
006D0:  INCF   xFF,F
....................       else 
006D2:  BRA    06D8
....................          tVacioEmpaqueS=0; 
006D4:  CLRF   xFF
006D6:  CLRF   xFE
....................           
....................       if(empaqueLimpio && !EMPAQUEL) 
006D8:  BTFSS  xF7.3
006DA:  BRA    06EC
006DC:  BSF    F93.2
006DE:  BTFSS  F81.2
006E0:  BRA    06EC
....................          tEmpaqueL++; 
006E2:  MOVLB  2
006E4:  INCF   x69,F
006E6:  BTFSC  FD8.2
006E8:  INCF   x6A,F
....................       else 
006EA:  BRA    06F2
....................          tEmpaqueL=0; 
006EC:  MOVLB  2
006EE:  CLRF   x6A
006F0:  CLRF   x69
....................        
....................       if(empaqueSucio && !EMPAQUES) 
006F2:  MOVLB  0
006F4:  BTFSS  xF7.4
006F6:  BRA    0708
006F8:  BSF    F93.1
006FA:  BTFSS  F81.1
006FC:  BRA    0708
....................          tEmpaqueS++; 
006FE:  MOVLB  2
00700:  INCF   x67,F
00702:  BTFSC  FD8.2
00704:  INCF   x68,F
....................       else 
00706:  BRA    070E
....................          tEmpaqueS=0; 
00708:  MOVLB  2
0070A:  CLRF   x68
0070C:  CLRF   x67
....................        
....................       if(IniciaLlenado && !CalderinLleno) 
0070E:  MOVLB  1
00710:  BTFSS  x03.1
00712:  BRA    071E
00714:  BTFSC  x04.0
00716:  BRA    071E
....................          TiempoLlenado++; 
00718:  INCF   x1E,F
0071A:  BTFSC  FD8.2
0071C:  INCF   x1F,F
....................        
....................       if(SensadoNivel) 
0071E:  BTFSS  x03.5
00720:  BRA    0728
....................          TiempoSensadoNivel++; 
00722:  INCF   x0C,F
00724:  BTFSC  FD8.2
00726:  INCF   x0D,F
....................           
....................       if(SensadoNivelR) 
00728:  BTFSS  x09.6
0072A:  BRA    072E
....................          TiempoSensadoNivelR++;    
0072C:  INCF   xFC,F
....................        
....................       if(guardaCiclo) 
0072E:  MOVLB  0
00730:  BTFSS  xFA.3
00732:  BRA    073C
....................          tguarda++; 
00734:  MOVLB  1
00736:  INCF   x12,F
00738:  BTFSC  FD8.2
0073A:  INCF   x13,F
....................        
....................       if(IniciaCiclo && !Esterilizando && DOORS && DOORL) 
0073C:  MOVLB  1
0073E:  BTFSS  x03.2
00740:  BRA    0758
00742:  BTFSC  x03.3
00744:  BRA    0758
00746:  BSF    F93.3
00748:  BTFSC  F81.3
0074A:  BRA    0758
0074C:  BSF    F93.4
0074E:  BTFSC  F81.4
00750:  BRA    0758
....................          TiempoCiclo++; 
00752:  INCF   x0A,F
00754:  BTFSC  FD8.2
00756:  INCF   x0B,F
....................        
....................       if(SensadoNivel) 
00758:  BTFSS  x03.5
0075A:  BRA    0762
....................          TiempoSensadoNivel++; 
0075C:  INCF   x0C,F
0075E:  BTFSC  FD8.2
00760:  INCF   x0D,F
....................           
....................       if(SensadoNivelL) 
00762:  BTFSS  x08.3
00764:  BRA    076C
....................          tNivelBajo++; 
00766:  INCF   x14,F
00768:  BTFSC  FD8.2
0076A:  INCF   x15,F
....................        
....................       if(IniciaVacio) 
0076C:  BTFSS  x07.4
0076E:  BRA    077A
....................          tvacio++;          
00770:  MOVLB  2
00772:  INCF   x84,F
00774:  BTFSC  FD8.2
00776:  INCF   x85,F
00778:  MOVLB  1
....................        
....................       if(IniciaVacio2) 
0077A:  BTFSS  x07.5
0077C:  BRA    0786
....................          tbomba++; 
0077E:  MOVLB  2
00780:  INCF   x82,F
00782:  BTFSC  FD8.2
00784:  INCF   x83,F
....................       
....................       tiempos=0;Lectura=1;tinicio++; 
00786:  MOVLB  2
00788:  CLRF   x71
0078A:  CLRF   x70
0078C:  BSF    x53.0
0078E:  INCF   x7A,F
00790:  BTFSC  FD8.2
00792:  INCF   x7B,F
....................     
....................       if(Esterilizando && !Desfogando){                
00794:  MOVLB  1
00796:  BTFSS  x03.3
00798:  BRA    07B0
0079A:  BTFSC  x03.6
0079C:  BRA    07B0
....................          if(sEst>0){ 
0079E:  MOVF   x22,F
007A0:  BZ    07A6
....................             sEst--; 
007A2:  DECF   x22,F
....................          }else if(mEst>0){ 
007A4:  BRA    07B0
007A6:  MOVF   x23,F
007A8:  BZ    07B0
....................             mEst--; 
007AA:  DECF   x23,F
....................             sEst=59; 
007AC:  MOVLW  3B
007AE:  MOVWF  x22
....................          } 
....................       } 
....................       if(Secando){ 
007B0:  BTFSS  x03.4
007B2:  BRA    07C6
....................          if(sSec>0){ 
007B4:  MOVF   x24,F
007B6:  BZ    07BC
....................             sSec--; 
007B8:  DECF   x24,F
....................          }else if(mSec>0){ 
007BA:  BRA    07C6
007BC:  MOVF   x25,F
007BE:  BZ    07C6
....................             mSec--; 
007C0:  DECF   x25,F
....................             sSec=59; 
007C2:  MOVLW  3B
007C4:  MOVWF  x24
007C6:  MOVLB  2
....................          } 
....................       } 
....................    } 
.................... } 
....................  
007C8:  BCF    F9E.0
007CA:  MOVLB  0
007CC:  GOTO   0068
.................... void main() 
.................... { 
*
07BB0:  CLRF   FF8
07BB2:  BCF    F9F.0
07BB4:  BSF    F9F.5
07BB6:  BSF    FD0.7
07BB8:  BSF    07.7
07BBA:  CLRF   FEA
07BBC:  CLRF   FE9
07BBE:  BSF    FB8.3
07BC0:  MOVLW  08
07BC2:  MOVWF  FAF
07BC4:  MOVLW  02
07BC6:  MOVWF  FB0
07BC8:  MOVLW  A6
07BCA:  MOVWF  FAC
07BCC:  MOVLW  90
07BCE:  MOVWF  FAB
07BD0:  CLRF   46
07BD2:  CLRF   xDC
07BD4:  CLRF   xDD
07BD6:  CLRF   xDE
07BD8:  BCF    xF7.0
07BDA:  BCF    xF7.1
07BDC:  BCF    xF7.2
07BDE:  BCF    xF7.3
07BE0:  BCF    xF7.4
07BE2:  BCF    xF7.5
07BE4:  BCF    xF7.6
07BE6:  BCF    xF7.7
07BE8:  BCF    xF8.0
07BEA:  BCF    xF8.1
07BEC:  BCF    xF8.2
07BEE:  BCF    xF8.3
07BF0:  BCF    xF8.4
07BF2:  BCF    xF8.5
07BF4:  BCF    xF8.6
07BF6:  BCF    xF8.7
07BF8:  BCF    xF9.0
07BFA:  BCF    xF9.1
07BFC:  BCF    xF9.2
07BFE:  BCF    xF9.3
07C00:  BCF    xF9.4
07C02:  BCF    xF9.5
07C04:  BCF    xF9.6
07C06:  BCF    xF9.7
07C08:  BCF    xFA.0
07C0A:  BCF    xFA.1
07C0C:  BCF    xFA.2
07C0E:  BCF    xFA.3
07C10:  BCF    xFA.4
07C12:  BCF    xFA.5
07C14:  BCF    xFA.6
07C16:  BCF    xFA.7
07C18:  BCF    xFB.0
07C1A:  BCF    xFB.1
07C1C:  BCF    xFB.2
07C1E:  BCF    xFB.3
07C20:  BCF    xFB.4
07C22:  BCF    xFB.5
07C24:  BCF    xFB.6
07C26:  MOVLW  02
07C28:  MOVWF  xFD
07C2A:  MOVLW  58
07C2C:  MOVWF  xFC
07C2E:  CLRF   xFF
07C30:  CLRF   xFE
07C32:  MOVLB  1
07C34:  CLRF   x01
07C36:  CLRF   x00
07C38:  MOVLB  0
07C3A:  BCF    xFB.7
07C3C:  MOVLB  1
07C3E:  BCF    x02.0
07C40:  BCF    x02.1
07C42:  BCF    x02.2
07C44:  BCF    x02.3
07C46:  BCF    x02.4
07C48:  BCF    x02.5
07C4A:  BCF    x02.6
07C4C:  BCF    x02.7
07C4E:  BCF    x03.0
07C50:  BCF    x03.1
07C52:  BCF    x03.2
07C54:  BCF    x03.3
07C56:  BCF    x03.4
07C58:  BCF    x03.5
07C5A:  BCF    x03.6
07C5C:  BCF    x03.7
07C5E:  BCF    x04.0
07C60:  BCF    x04.1
07C62:  BCF    x04.2
07C64:  BCF    x04.3
07C66:  BCF    x04.4
07C68:  BCF    x04.5
07C6A:  BCF    x04.6
07C6C:  BCF    x04.7
07C6E:  BCF    x05.0
07C70:  BCF    x05.1
07C72:  BCF    x05.2
07C74:  BCF    x05.3
07C76:  BCF    x05.4
07C78:  BCF    x05.5
07C7A:  BCF    x05.6
07C7C:  BCF    x05.7
07C7E:  BCF    x06.0
07C80:  BCF    x06.1
07C82:  BCF    x06.2
07C84:  BCF    x06.3
07C86:  BCF    x06.4
07C88:  BCF    x06.5
07C8A:  BCF    x06.6
07C8C:  BCF    x06.7
07C8E:  BCF    x07.0
07C90:  BCF    x07.1
07C92:  BCF    x07.2
07C94:  BCF    x07.3
07C96:  BCF    x07.4
07C98:  BCF    x07.5
07C9A:  BCF    x07.6
07C9C:  BCF    x07.7
07C9E:  BCF    x08.0
07CA0:  BCF    x08.1
07CA2:  BCF    x08.2
07CA4:  BCF    x08.3
07CA6:  BCF    x08.4
07CA8:  BCF    x08.5
07CAA:  BCF    x08.6
07CAC:  BCF    x08.7
07CAE:  BCF    x09.0
07CB0:  BCF    x09.1
07CB2:  BCF    x09.2
07CB4:  BCF    x09.3
07CB6:  BCF    x09.4
07CB8:  BCF    x09.5
07CBA:  BCF    x09.6
07CBC:  CLRF   x0B
07CBE:  CLRF   x0A
07CC0:  CLRF   x0D
07CC2:  CLRF   x0C
07CC4:  CLRF   x0F
07CC6:  CLRF   x0E
07CC8:  CLRF   x11
07CCA:  CLRF   x10
07CCC:  CLRF   x13
07CCE:  CLRF   x12
07CD0:  CLRF   x15
07CD2:  CLRF   x14
07CD4:  CLRF   x17
07CD6:  CLRF   x16
07CD8:  CLRF   x19
07CDA:  CLRF   x18
07CDC:  CLRF   x1B
07CDE:  CLRF   x1A
07CE0:  CLRF   x1D
07CE2:  CLRF   x1C
07CE4:  CLRF   x1F
07CE6:  CLRF   x1E
07CE8:  CLRF   x21
07CEA:  CLRF   x20
07CEC:  CLRF   x22
07CEE:  CLRF   x23
07CF0:  CLRF   x24
07CF2:  CLRF   x25
07CF4:  CLRF   x26
07CF6:  CLRF   x27
07CF8:  CLRF   x28
07CFA:  CLRF   x29
07CFC:  CLRF   xCD
07CFE:  CLRF   xCC
07D00:  CLRF   xCB
07D02:  CLRF   xCA
07D04:  CLRF   xD1
07D06:  CLRF   xD0
07D08:  CLRF   xCF
07D0A:  CLRF   xCE
07D0C:  CLRF   xD5
07D0E:  CLRF   xD4
07D10:  CLRF   xD3
07D12:  CLRF   xD2
07D14:  MOVLW  4A
07D16:  MOVWF  xD9
07D18:  MOVLW  88
07D1A:  MOVWF  xD8
07D1C:  MOVLW  28
07D1E:  MOVWF  xD7
07D20:  MOVLW  75
07D22:  MOVWF  xD6
07D24:  CLRF   xDD
07D26:  MOVLW  80
07D28:  MOVWF  xDC
07D2A:  MOVLW  54
07D2C:  MOVWF  xDB
07D2E:  MOVLW  8B
07D30:  MOVWF  xDA
07D32:  CLRF   xE1
07D34:  CLRF   xE0
07D36:  CLRF   xDF
07D38:  CLRF   xDE
07D3A:  CLRF   xE5
07D3C:  CLRF   xE4
07D3E:  CLRF   xE3
07D40:  CLRF   xE2
07D42:  CLRF   xF1
07D44:  CLRF   xF0
07D46:  CLRF   xEF
07D48:  CLRF   xEE
07D4A:  CLRF   xF5
07D4C:  CLRF   xF4
07D4E:  CLRF   xF3
07D50:  CLRF   xF2
07D52:  CLRF   xF6
07D54:  CLRF   xF7
07D56:  MOVLW  14
07D58:  MOVWF  xF8
07D5A:  CLRF   xF9
07D5C:  CLRF   xFA
07D5E:  CLRF   xFB
07D60:  CLRF   xFC
07D62:  CLRF   xFD
07D64:  CLRF   xFE
07D66:  CLRF   xFF
07D68:  MOVLB  2
07D6A:  CLRF   x03
07D6C:  CLRF   x02
07D6E:  CLRF   x01
07D70:  CLRF   x00
07D72:  CLRF   x0B
07D74:  CLRF   x0A
07D76:  MOVLW  20
07D78:  MOVWF  x09
07D7A:  MOVLW  82
07D7C:  MOVWF  x08
07D7E:  CLRF   x0F
07D80:  CLRF   x0E
07D82:  CLRF   x0D
07D84:  CLRF   x0C
07D86:  CLRF   x13
07D88:  CLRF   x12
07D8A:  CLRF   x11
07D8C:  CLRF   x10
07D8E:  CLRF   x17
07D90:  CLRF   x16
07D92:  CLRF   x15
07D94:  CLRF   x14
07D96:  CLRF   x1B
07D98:  CLRF   x1A
07D9A:  CLRF   x19
07D9C:  CLRF   x18
07D9E:  CLRF   x1F
07DA0:  CLRF   x1E
07DA2:  CLRF   x1D
07DA4:  CLRF   x1C
07DA6:  CLRF   x23
07DA8:  CLRF   x22
07DAA:  MOVLW  48
07DAC:  MOVWF  x21
07DAE:  MOVLW  83
07DB0:  MOVWF  x20
07DB2:  CLRF   x27
07DB4:  CLRF   x26
07DB6:  MOVLW  20
07DB8:  MOVWF  x25
07DBA:  MOVLW  83
07DBC:  MOVWF  x24
07DBE:  CLRF   x2B
07DC0:  CLRF   x2A
07DC2:  CLRF   x29
07DC4:  MOVLW  7F
07DC6:  MOVWF  x28
07DC8:  CLRF   x2F
07DCA:  CLRF   x2E
07DCC:  CLRF   x2D
07DCE:  CLRF   x2C
07DD0:  CLRF   x33
07DD2:  CLRF   x32
07DD4:  CLRF   x31
07DD6:  CLRF   x30
07DD8:  CLRF   x37
07DDA:  CLRF   x36
07DDC:  CLRF   x35
07DDE:  CLRF   x34
07DE0:  CLRF   x3B
07DE2:  CLRF   x3A
07DE4:  CLRF   x39
07DE6:  CLRF   x38
07DE8:  CLRF   x3F
07DEA:  CLRF   x3E
07DEC:  CLRF   x3D
07DEE:  CLRF   x3C
07DF0:  CLRF   x43
07DF2:  CLRF   x42
07DF4:  CLRF   x41
07DF6:  CLRF   x40
07DF8:  MOVLW  E0
07DFA:  MOVWF  x47
07DFC:  MOVLW  2D
07DFE:  MOVWF  x46
07E00:  MOVLW  10
07E02:  MOVWF  x45
07E04:  MOVLW  75
07E06:  MOVWF  x44
07E08:  MOVLW  FF
07E0A:  MOVWF  x4B
07E0C:  MOVLW  21
07E0E:  MOVWF  x4A
07E10:  MOVLW  15
07E12:  MOVWF  x49
07E14:  MOVLW  80
07E16:  MOVWF  x48
07E18:  MOVLW  82
07E1A:  MOVWF  x4F
07E1C:  MOVLW  12
07E1E:  MOVWF  x4E
07E20:  MOVLW  F4
07E22:  MOVWF  x4D
07E24:  MOVLW  86
07E26:  MOVWF  x4C
07E28:  CLRF   x50
07E2A:  CLRF   x51
07E2C:  CLRF   x52
07E2E:  MOVLB  1
07E30:  BCF    x09.7
07E32:  MOVLB  2
07E34:  BCF    x53.0
07E36:  BCF    x53.1
07E38:  BCF    x53.2
07E3A:  BCF    x53.3
07E3C:  BCF    x53.4
07E3E:  CLRF   x54
07E40:  CLRF   x55
07E42:  CLRF   x56
07E44:  MOVLW  02
07E46:  MOVWF  x57
07E48:  CLRF   x58
07E4A:  MOVLW  01
07E4C:  MOVWF  x59
07E4E:  CLRF   x5A
07E50:  CLRF   x5B
07E52:  CLRF   x5C
07E54:  CLRF   x5D
07E56:  CLRF   x5E
07E58:  MOVLW  F0
07E5A:  MOVWF  x5F
07E5C:  CLRF   x60
07E5E:  CLRF   x61
07E60:  CLRF   x62
07E62:  CLRF   x63
07E64:  CLRF   x64
07E66:  CLRF   x66
07E68:  MOVLW  04
07E6A:  MOVWF  x65
07E6C:  CLRF   x68
07E6E:  CLRF   x67
07E70:  CLRF   x6A
07E72:  CLRF   x69
07E74:  CLRF   x6B
07E76:  MOVLW  01
07E78:  MOVWF  x6C
07E7A:  MOVWF  x6D
07E7C:  CLRF   x6E
07E7E:  CLRF   x6F
07E80:  CLRF   x71
07E82:  CLRF   x70
07E84:  CLRF   x73
07E86:  CLRF   x72
07E88:  CLRF   x75
07E8A:  CLRF   x74
07E8C:  CLRF   x77
07E8E:  CLRF   x76
07E90:  CLRF   x79
07E92:  CLRF   x78
07E94:  CLRF   x7B
07E96:  CLRF   x7A
07E98:  CLRF   x7D
07E9A:  CLRF   x7C
07E9C:  CLRF   x7F
07E9E:  CLRF   x7E
07EA0:  CLRF   x81
07EA2:  CLRF   x80
07EA4:  CLRF   x83
07EA6:  CLRF   x82
07EA8:  CLRF   x85
07EAA:  CLRF   x84
07EAC:  CLRF   x87
07EAE:  CLRF   x86
07EB0:  CLRF   x89
07EB2:  CLRF   x88
07EB4:  CLRF   x8E
07EB6:  CLRF   x8F
07EB8:  CLRF   x90
07EBA:  CLRF   x91
07EBC:  CLRF   x92
07EBE:  CLRF   x93
07EC0:  CLRF   x94
07EC2:  CLRF   x95
07EC4:  CLRF   x96
07EC6:  CLRF   x97
07EC8:  CLRF   x98
07ECA:  CLRF   x99
07ECC:  CLRF   x9B
07ECE:  CLRF   x9A
07ED0:  CLRF   x9D
07ED2:  CLRF   x9C
07ED4:  MOVLW  12
07ED6:  MOVWF  x9E
07ED8:  MOVLW  09
07EDA:  MOVWF  x9F
07EDC:  MOVLW  0D
07EDE:  MOVWF  xA0
07EE0:  CLRF   xA1
07EE2:  CLRF   xA2
07EE4:  CLRF   xA3
07EE6:  CLRF   xA4
07EE8:  CLRF   xA5
07EEA:  CLRF   xA6
07EEC:  MOVLW  19
07EEE:  MOVWF  xA7
07EF0:  MOVLW  4B
07EF2:  MOVWF  xA8
07EF4:  MOVLW  0A
07EF6:  MOVWF  xA9
07EF8:  CLRF   xAA
07EFA:  CLRF   xAB
07EFC:  CLRF   xAC
07EFE:  CLRF   xAD
07F00:  CLRF   xAE
07F02:  CLRF   xAF
07F04:  CLRF   xB0
07F06:  CLRF   xB1
07F08:  CLRF   xB2
07F0A:  CLRF   xB3
07F0C:  CLRF   xB4
07F0E:  CLRF   xB5
07F10:  CLRF   xB6
07F12:  CLRF   xB7
07F14:  CLRF   xB8
07F16:  CLRF   xB9
07F18:  CLRF   xBA
07F1A:  MOVLB  3
07F1C:  CLRF   x1C
07F1E:  CLRF   x1D
07F20:  CLRF   x1E
07F22:  CLRF   x1F
07F24:  CLRF   x20
07F26:  MOVF   FC1,W
07F28:  ANDLW  C0
07F2A:  IORLW  0F
07F2C:  MOVWF  FC1
07F2E:  MOVLW  07
07F30:  MOVWF  FB4
07F32:  CLRF   2A
07F34:  CLRF   2B
07F36:  MOVLB  0
07F38:  CLRF   xDF
07F3A:  MOVLW  03
07F3C:  MOVWF  xE0
07F3E:  MOVWF  xE1
07F40:  MOVLW  06
07F42:  MOVWF  xE2
07F44:  MOVLW  01
07F46:  MOVWF  xE3
07F48:  MOVLW  04
07F4A:  MOVWF  xE4
07F4C:  MOVLW  06
07F4E:  MOVWF  xE5
07F50:  MOVLW  02
07F52:  MOVWF  xE6
07F54:  MOVLW  05
07F56:  MOVWF  xE7
07F58:  CLRF   xE8
07F5A:  MOVLW  03
07F5C:  MOVWF  xE9
07F5E:  MOVLW  05
07F60:  MOVWF  xEA
07F62:  CLRF   xEB
07F64:  MOVLW  03
07F66:  MOVWF  xEC
07F68:  MOVLW  04
07F6A:  MOVWF  xED
07F6C:  CLRF   xEE
07F6E:  MOVLW  02
07F70:  MOVWF  xEF
07F72:  MOVLW  05
07F74:  MOVWF  xF0
07F76:  CLRF   xF1
07F78:  MOVLW  03
07F7A:  MOVWF  xF2
07F7C:  MOVLW  06
07F7E:  MOVWF  xF3
07F80:  MOVLW  01
07F82:  MOVWF  xF4
07F84:  MOVLW  04
07F86:  MOVWF  xF5
07F88:  MOVLW  06
07F8A:  MOVWF  xF6
07F8C:  MOVLB  1
07F8E:  CLRF   x2A
07F90:  CLRF   x2B
07F92:  CLRF   x2C
07F94:  CLRF   x2D
07F96:  CLRF   x2E
07F98:  CLRF   x2F
07F9A:  CLRF   x30
07F9C:  CLRF   x31
07F9E:  CLRF   x32
07FA0:  CLRF   x33
07FA2:  CLRF   x34
07FA4:  CLRF   x35
07FA6:  CLRF   x36
07FA8:  CLRF   x37
07FAA:  CLRF   x38
07FAC:  CLRF   x39
07FAE:  CLRF   x3A
07FB0:  CLRF   x3B
07FB2:  CLRF   x3C
07FB4:  CLRF   x3D
07FB6:  CLRF   x3E
07FB8:  CLRF   x3F
07FBA:  CLRF   x40
07FBC:  CLRF   x41
07FBE:  CLRF   x42
07FC0:  CLRF   x43
07FC2:  CLRF   x44
07FC4:  CLRF   x45
07FC6:  CLRF   x46
07FC8:  CLRF   x47
07FCA:  CLRF   x48
07FCC:  CLRF   x49
07FCE:  CLRF   x4A
07FD0:  CLRF   x4B
07FD2:  CLRF   x4C
07FD4:  CLRF   x4D
07FD6:  CLRF   x4E
07FD8:  CLRF   x4F
07FDA:  CLRF   x50
07FDC:  CLRF   x51
07FDE:  CLRF   x52
07FE0:  CLRF   x53
07FE2:  CLRF   x54
07FE4:  CLRF   x55
07FE6:  CLRF   x56
07FE8:  CLRF   x57
07FEA:  CLRF   x58
07FEC:  CLRF   x59
07FEE:  CLRF   x5A
07FF0:  CLRF   x5B
07FF2:  CLRF   x5C
07FF4:  CLRF   x5D
07FF6:  CLRF   x5E
07FF8:  CLRF   x5F
07FFA:  CLRF   x60
07FFC:  CLRF   x61
07FFE:  CLRF   x62
08000:  CLRF   x63
08002:  CLRF   x64
08004:  CLRF   x65
08006:  CLRF   x66
08008:  CLRF   x67
0800A:  CLRF   x68
0800C:  CLRF   x69
0800E:  CLRF   x6A
08010:  CLRF   x6B
08012:  CLRF   x6C
08014:  CLRF   x6D
08016:  CLRF   x6E
08018:  CLRF   x6F
0801A:  CLRF   x70
0801C:  CLRF   x71
0801E:  CLRF   x72
08020:  CLRF   x73
08022:  CLRF   x74
08024:  CLRF   x75
08026:  CLRF   x76
08028:  CLRF   x77
0802A:  CLRF   x78
0802C:  CLRF   x79
0802E:  CLRF   x7A
08030:  CLRF   x7B
08032:  CLRF   x7C
08034:  CLRF   x7D
08036:  CLRF   x7E
08038:  CLRF   x7F
0803A:  CLRF   x80
0803C:  CLRF   x81
0803E:  CLRF   x82
08040:  CLRF   x83
08042:  CLRF   x84
08044:  CLRF   x85
08046:  CLRF   x86
08048:  CLRF   x87
0804A:  CLRF   x88
0804C:  CLRF   x89
0804E:  CLRF   x8A
08050:  CLRF   x8B
08052:  CLRF   x8C
08054:  CLRF   x8D
08056:  CLRF   x8E
08058:  CLRF   x8F
0805A:  CLRF   x90
0805C:  CLRF   x91
0805E:  CLRF   x92
08060:  CLRF   x93
08062:  CLRF   x94
08064:  CLRF   x95
08066:  CLRF   x96
08068:  CLRF   x97
0806A:  CLRF   x98
0806C:  CLRF   x99
0806E:  CLRF   x9A
08070:  CLRF   x9B
08072:  CLRF   x9C
08074:  CLRF   x9D
08076:  CLRF   x9E
08078:  CLRF   x9F
0807A:  CLRF   xA0
0807C:  CLRF   xA1
0807E:  CLRF   xA2
08080:  CLRF   xA3
08082:  CLRF   xA4
08084:  CLRF   xA5
08086:  CLRF   xA6
08088:  CLRF   xA7
0808A:  CLRF   xA8
0808C:  CLRF   xA9
0808E:  CLRF   xAA
08090:  CLRF   xAB
08092:  CLRF   xAC
08094:  CLRF   xAD
08096:  CLRF   xAE
08098:  CLRF   xAF
0809A:  CLRF   xB0
0809C:  CLRF   xB1
0809E:  CLRF   xB2
080A0:  CLRF   xB3
080A2:  CLRF   xB4
080A4:  CLRF   xB5
080A6:  CLRF   xB6
080A8:  CLRF   xB7
080AA:  CLRF   xB8
080AC:  CLRF   xB9
080AE:  CLRF   xBA
080B0:  CLRF   xBB
080B2:  CLRF   xBC
080B4:  CLRF   xBD
080B6:  CLRF   xBE
080B8:  CLRF   xBF
080BA:  CLRF   xC0
080BC:  CLRF   xC1
080BE:  CLRF   xC2
080C0:  CLRF   xC3
080C2:  CLRF   xC4
080C4:  CLRF   xC5
080C6:  CLRF   xC6
080C8:  CLRF   xC7
080CA:  CLRF   xC8
080CC:  CLRF   xC9
080CE:  CLRF   xE6
080D0:  CLRF   xE7
080D2:  CLRF   xE8
080D4:  CLRF   xE9
080D6:  CLRF   xEA
080D8:  CLRF   xEB
080DA:  CLRF   xEC
080DC:  CLRF   xED
080DE:  MOVLB  2
080E0:  CLRF   x8A
080E2:  CLRF   x8B
080E4:  CLRF   x8C
080E6:  CLRF   x8D
080E8:  MOVLB  3
080EA:  CLRF   x21
080EC:  CLRF   x22
080EE:  CLRF   x23
080F0:  CLRF   x24
....................    setup_timer_1(T1_INTERNAL|T1_DIV_BY_1); 
080F2:  MOVLW  85
080F4:  MOVWF  FCD
....................    enable_interrupts(INT_TIMER1); 
080F6:  BSF    F9D.0
....................    setup_adc(ADC_CLOCK_DIV_64); 
080F8:  MOVF   FC0,W
080FA:  ANDLW  C0
080FC:  IORLW  06
080FE:  MOVWF  FC0
08100:  BSF    FC0.7
08102:  BSF    FC2.0
....................    setup_adc_ports(AN0_TO_AN5); 
08104:  MOVF   FC1,W
08106:  ANDLW  C0
08108:  IORLW  09
0810A:  MOVWF  FC1
....................    port_b_pullups(true); 
0810C:  BCF    FF1.7
....................    enable_interrupts(int_rda); 
0810E:  BSF    F9D.5
....................    setup_wdt(WDT_ON); 
08110:  BSF    FD1.0
....................    enable_interrupts(global); 
08112:  MOVLW  C0
08114:  IORWF  FF2,F
....................    LeeEEPROM(); 
08116:  MOVLB  0
08118:  GOTO   278E
....................    rtc_init(); 
0811C:  GOTO   3B2C
....................    delay_ms(1); 
08120:  MOVLW  01
08122:  MOVLB  6
08124:  MOVWF  xC7
08126:  MOVLB  0
08128:  CALL   20B8
....................    LimitaValores(); 
0812C:  GOTO   3BCC
....................    printf("page Bienvenida"); 
08130:  MOVLW  D0
08132:  MOVWF  FF6
08134:  MOVLW  07
08136:  MOVWF  FF7
08138:  MOVLW  00
0813A:  MOVWF  FF8
0813C:  CALL   4138
....................    SendDataDisplay(); 
08140:  CALL   416A
....................    printf("bkcmd=0"); 
08144:  MOVLW  E0
08146:  MOVWF  FF6
08148:  MOVLW  07
0814A:  MOVWF  FF7
0814C:  MOVLW  00
0814E:  MOVWF  FF8
08150:  CALL   4138
....................    SendDataDisplay(); 
08154:  CALL   416A
....................    delay_ms(3500);  
08158:  MOVLW  0E
0815A:  MOVLB  6
0815C:  MOVWF  xB5
0815E:  MOVLW  FA
08160:  MOVWF  xC7
08162:  MOVLB  0
08164:  CALL   20B8
08168:  MOVLB  6
0816A:  DECFSZ xB5,F
0816C:  BRA    815E
....................    printf("page Usuarios"); 
0816E:  MOVLW  E8
08170:  MOVWF  FF6
08172:  MOVLW  07
08174:  MOVWF  FF7
08176:  MOVLW  00
08178:  MOVWF  FF8
0817A:  MOVLB  0
0817C:  CALL   4138
....................    SendDataDisplay(); 
08180:  CALL   416A
....................    ApagaSalidas();    
08184:  CALL   41A0
....................    TiempoVacio=840;  
08188:  MOVLW  03
0818A:  MOVWF  xFD
0818C:  MOVLW  48
0818E:  MOVWF  xFC
....................    Sensor[0].Gain=106.07; 
08190:  MOVLW  D7
08192:  MOVLB  4
08194:  MOVWF  x88
08196:  MOVLW  23
08198:  MOVWF  x87
0819A:  MOVLW  54
0819C:  MOVWF  x86
0819E:  MOVLW  85
081A0:  MOVWF  x85
....................    Sensor[1].Gain=106.07; 
081A2:  MOVLW  D7
081A4:  MOVLB  5
081A6:  MOVWF  xEC
081A8:  MOVLW  23
081AA:  MOVWF  xEB
081AC:  MOVLW  54
081AE:  MOVWF  xEA
081B0:  MOVLW  85
081B2:  MOVWF  xE9
....................    Imprime=10; 
081B4:  MOVLW  0A
081B6:  MOVLB  2
081B8:  MOVWF  xB2
....................    CalculoImpresion=timpresion*60; 
081BA:  MOVF   x57,W
081BC:  MULLW  3C
081BE:  MOVFF  FF3,258
....................     
....................    for(i=0;i<MediaMovil;i++){ 
081C2:  CLRF   x60
081C4:  MOVLB  1
081C6:  MOVF   xF8,W
081C8:  MOVLB  2
081CA:  SUBWF  x60,W
081CC:  BC    8262
....................       Temperatura=LeerPT100(0,MediaMovil); 
081CE:  MOVLB  6
081D0:  CLRF   xB7
081D2:  MOVFF  1F8,6B8
081D6:  MOVLB  0
081D8:  CALL   42F6
081DC:  MOVFF  03,23F
081E0:  MOVFF  02,23E
081E4:  MOVFF  01,23D
081E8:  MOVFF  00,23C
....................       Temperatura2=LeerPT100(1,MediaMovil); 
081EC:  MOVLW  01
081EE:  MOVLB  6
081F0:  MOVWF  xB7
081F2:  MOVFF  1F8,6B8
081F6:  MOVLB  0
081F8:  CALL   42F6
081FC:  MOVFF  03,243
08200:  MOVFF  02,242
08204:  MOVFF  01,241
08208:  MOVFF  00,240
....................       PresionCamara=Leer_Sensor_Presion_Camara(20); 
0820C:  MOVLW  14
0820E:  MOVLB  6
08210:  MOVWF  xB7
08212:  MOVLB  0
08214:  CALL   4BD6
08218:  MOVFF  03,6CA
0821C:  MOVFF  02,6C9
08220:  MOVFF  01,6C8
08224:  MOVFF  00,6C7
08228:  CALL   4DD4
0822C:  MOVFF  02,27D
08230:  MOVFF  01,27C
....................       PresionPreCamara=Leer_Sensor_Presion_PreCamara(20); 
08234:  MOVLW  14
08236:  MOVLB  6
08238:  MOVWF  xB7
0823A:  MOVLB  0
0823C:  CALL   4E10
08240:  MOVFF  03,6CA
08244:  MOVFF  02,6C9
08248:  MOVFF  01,6C8
0824C:  MOVFF  00,6C7
08250:  CALL   4DD4
08254:  MOVFF  02,27F
08258:  MOVFF  01,27E
....................    } 
0825C:  MOVLB  2
0825E:  INCF   x60,F
08260:  BRA    81C4
....................    seguroValvula=OFF; 
08262:  MOVLB  0
08264:  BCF    xF8.5
....................    seguroValvula2=OFF; 
08266:  BCF    xF8.6
....................    if(!DOORS){ 
08268:  BSF    F93.3
0826A:  BTFSS  F81.3
0826C:  BRA    8274
....................       abrePuertaS(); 
0826E:  CALL   500E
....................    }else{ 
08272:  BRA    8278
....................       cierraPuertaS(); 
08274:  CALL   5072
....................    } 
....................           
....................    //if(ingreso){ 
....................    if(!DOORL){ 
08278:  BSF    F93.4
0827A:  BTFSS  F81.4
0827C:  BRA    8284
....................       //abrePuertaL(); 
....................       monitoreaPuertaLimpio(); 
0827E:  CALL   5170
....................    }else{ 
08282:  BRA    8288
....................       cierraPuertaL(); 
08284:  CALL   50B6
....................    } 
....................     
....................    while(true){ 
....................        
....................       LeeDisplay(); 
08288:  GOTO   520C
....................       Envio_Esclavos(); 
0828C:  CALL   5734
....................       delay_ms(10); 
08290:  MOVLW  0A
08292:  MOVLB  6
08294:  MOVWF  xC7
08296:  MOVLB  0
08298:  CALL   20B8
....................       Lectura_Esclavos(); 
0829C:  GOTO   5804
....................       rtc_get_date(Dia,Mes,Year,dow); 
....................       rtc_get_time(Hora,Minuto,Segundo); 
....................       restart_wdt(); 
*
08364:  CLRWDT
....................       if(!Esterilizando || Desfogando){ 
08366:  MOVLB  1
08368:  BTFSS  x03.3
0836A:  BRA    8370
0836C:  BTFSS  x03.6
0836E:  BRA    837A
....................          CalculoImpresion=180; 
08370:  MOVLW  B4
08372:  MOVLB  2
08374:  MOVWF  x58
....................       }else{ 
08376:  BRA    8380
08378:  MOVLB  1
....................          CalculoImpresion=60; 
0837A:  MOVLW  3C
0837C:  MOVLB  2
0837E:  MOVWF  x58
....................       } 
....................        
....................       graficaCurva(2000); 
08380:  MOVLW  07
08382:  MOVLB  6
08384:  MOVWF  xB6
08386:  MOVLW  D0
08388:  MOVWF  xB5
0838A:  MOVLB  0
0838C:  GOTO   59B0
....................       muestreo(20); 
08390:  MOVLB  6
08392:  CLRF   xB6
08394:  MOVLW  14
08396:  MOVWF  xB5
08398:  MOVLB  0
0839A:  GOTO   59D2
....................       monitoreaAgua(); 
0839E:  GOTO   5A82
....................       monitoreaStop(); 
083A2:  GOTO   5B68
....................        
....................       if(Menu!=20 && !PruebaEstados){ 
083A6:  MOVLB  2
083A8:  MOVF   x5D,W
083AA:  SUBLW  14
083AC:  BZ    83DE
083AE:  MOVLB  1
083B0:  BTFSS  x04.5
083B2:  BRA    83B8
083B4:  MOVLB  2
083B6:  BRA    83DE
....................          if(!DOORS){ 
083B8:  BSF    F93.3
083BA:  BTFSS  F81.3
083BC:  BRA    83C8
....................             abrePuertaS(); 
083BE:  MOVLB  0
083C0:  CALL   500E
....................          }else{ 
083C4:  BRA    83CE
083C6:  MOVLB  1
....................             cierraPuertaS(); 
083C8:  MOVLB  0
083CA:  CALL   5072
....................          } 
....................           
....................          //if(ingreso){ 
....................             if(!DOORL){ 
083CE:  BSF    F93.4
083D0:  BTFSS  F81.4
083D2:  BRA    83DA
....................                //abrePuertaL(); 
....................                monitoreaPuertaLimpio(); 
083D4:  CALL   5170
....................             }else{ 
083D8:  BRA    83DE
....................                cierraPuertaL(); 
083DA:  CALL   50B6
....................             } 
....................          //} 
....................       } 
....................        
....................       if(ingreso && !PruebaEstados) 
083DE:  MOVLB  1
083E0:  BTFSS  x07.1
083E2:  BRA    83EE
083E4:  BTFSC  x04.5
083E6:  BRA    83EE
....................          monitoreaPuertaLimpio(); 
083E8:  MOVLB  0
083EA:  CALL   5170
....................           
....................       if(PresionCamara>Atmosferica+15){ 
083EE:  MOVLW  0F
083F0:  MOVLB  2
083F2:  ADDWF  xA8,W
083F4:  MOVF   x7D,F
083F6:  BNZ   83FE
083F8:  SUBWF  x7C,W
083FA:  BZ    840A
083FC:  BNC   840A
....................          cierraPuertaS(); 
083FE:  MOVLB  0
08400:  CALL   5072
....................          cierraPuertaL(); 
08404:  CALL   50B6
08408:  MOVLB  2
....................       } 
....................  
....................  
.................... //_-------------------------------------------------------------------------------------------------------------------------------------------------------- 
....................    if(Menu==240){ //Menu de Bienvenida. 
0840A:  MOVF   x5D,W
0840C:  SUBLW  F0
0840E:  BNZ   845C
....................       printf("bkcmd=0"); 
08410:  MOVLW  F6
08412:  MOVWF  FF6
08414:  MOVLW  07
08416:  MOVWF  FF7
08418:  MOVLW  00
0841A:  MOVWF  FF8
0841C:  MOVLB  0
0841E:  CALL   4138
....................       SendDataDisplay(); 
08422:  CALL   416A
....................       delay_ms(1500); 
08426:  MOVLW  06
08428:  MOVLB  6
0842A:  MOVWF  xB5
0842C:  MOVLW  FA
0842E:  MOVWF  xC7
08430:  MOVLB  0
08432:  CALL   20B8
08436:  MOVLB  6
08438:  DECFSZ xB5,F
0843A:  BRA    842C
....................       printf("page Usuarios"); 
0843C:  MOVLW  FE
0843E:  MOVWF  FF6
08440:  MOVLW  07
08442:  MOVWF  FF7
08444:  MOVLW  00
08446:  MOVWF  FF8
08448:  MOVLB  0
0844A:  CALL   4138
....................       SendDataDisplay(); 
0844E:  CALL   416A
....................       ApagaSalidas(); 
08452:  CALL   41A0
....................    }else if(Menu==0){ //Menu de Contrasea de acceso. 
08456:  GOTO   F7C2
0845A:  MOVLB  2
0845C:  MOVF   x5D,F
0845E:  BTFSS  FD8.2
08460:  BRA    8A98
....................       entro=OFF; 
08462:  MOVLB  1
08464:  BCF    x09.1
....................       ApagaSalidas(); 
08466:  MOVLB  0
08468:  CALL   41A0
....................       //printf("bkcmd=0"); 
....................       //SendDataDisplay(); 
....................       if(RX_Buffer[4]==0x11){//11 
0846C:  MOVF   34,W
0846E:  SUBLW  11
08470:  BNZ   8492
....................          if(TipoClave!=0){ 
08472:  MOVLB  1
08474:  MOVF   xFA,F
08476:  BZ    8492
....................             printf("page Menu"); 
08478:  MOVLW  0C
0847A:  MOVWF  FF6
0847C:  MOVLW  08
0847E:  MOVWF  FF7
08480:  MOVLW  00
08482:  MOVWF  FF8
08484:  MOVLB  0
08486:  CALL   4138
....................             SendDataDisplay(); 
0848A:  CALL   416A
....................             PantallaPrincipal=0; 
0848E:  MOVLB  1
08490:  CLRF   xF9
....................          } 
....................       } 
....................        
....................       if(TipoClave==3){ 
08492:  MOVLB  1
08494:  MOVF   xFA,W
08496:  SUBLW  03
08498:  BNZ   84B2
....................          printf("titulo.txt=\"Clave Nueva\""); 
0849A:  MOVLW  16
0849C:  MOVWF  FF6
0849E:  MOVLW  08
084A0:  MOVWF  FF7
084A2:  MOVLW  00
084A4:  MOVWF  FF8
084A6:  MOVLB  0
084A8:  CALL   4138
....................          SendDataDisplay(); 
084AC:  CALL   416A
084B0:  MOVLB  1
....................       } 
....................        
....................       if(TipoClave==2){ 
084B2:  MOVF   xFA,W
084B4:  SUBLW  02
084B6:  BNZ   84D0
....................          printf("titulo.txt=\"Clave Actual\""); 
084B8:  MOVLW  30
084BA:  MOVWF  FF6
084BC:  MOVLW  08
084BE:  MOVWF  FF7
084C0:  MOVLW  00
084C2:  MOVWF  FF8
084C4:  MOVLB  0
084C6:  CALL   4138
....................          SendDataDisplay();         
084CA:  CALL   416A
084CE:  MOVLB  1
....................       } 
....................        
....................       if(TipoClave==1){ 
084D0:  DECFSZ xFA,W
084D2:  BRA    84EC
....................          printf("titulo.txt=\"Clave Tecnico\""); 
084D4:  MOVLW  4A
084D6:  MOVWF  FF6
084D8:  MOVLW  08
084DA:  MOVWF  FF7
084DC:  MOVLW  00
084DE:  MOVWF  FF8
084E0:  MOVLB  0
084E2:  CALL   4138
....................          SendDataDisplay(); 
084E6:  CALL   416A
084EA:  MOVLB  1
....................       } 
....................        
....................       if(TipoClave==0){ 
084EC:  MOVF   xFA,F
084EE:  BNZ   8522
....................          printf("titulo.txt=\"%s\"",usuario); 
084F0:  MOVLW  66
084F2:  MOVWF  FF6
084F4:  MOVLW  08
084F6:  MOVWF  FF7
084F8:  MOVLW  00
084FA:  MOVWF  FF8
084FC:  MOVLW  0C
084FE:  MOVLB  6
08500:  MOVWF  xBA
08502:  MOVLB  0
08504:  CALL   5BEA
08508:  MOVLW  02
0850A:  MOVWF  FEA
0850C:  MOVLW  BB
0850E:  MOVWF  FE9
08510:  CALL   5C1C
08514:  MOVLW  22
08516:  BTFSS  F9E.4
08518:  BRA    8516
0851A:  MOVWF  FAD
....................          SendDataDisplay(); 
0851C:  CALL   416A
08520:  MOVLB  1
....................       } 
....................        
....................       if(RX_Buffer[4]==0x11){//11, Regresar 
08522:  MOVF   34,W
08524:  SUBLW  11
08526:  BNZ   855E
....................          if(TipoClave==1){ 
08528:  DECFSZ xFA,W
0852A:  BRA    8546
....................             printf("page Ajustes"); 
0852C:  MOVLW  76
0852E:  MOVWF  FF6
08530:  MOVLW  08
08532:  MOVWF  FF7
08534:  MOVLW  00
08536:  MOVWF  FF8
08538:  MOVLB  0
0853A:  CALL   4138
....................             SendDataDisplay();        
0853E:  CALL   416A
....................          }else{ 
08542:  BRA    855C
08544:  MOVLB  1
....................             printf("page Usuarios"); 
08546:  MOVLW  84
08548:  MOVWF  FF6
0854A:  MOVLW  08
0854C:  MOVWF  FF7
0854E:  MOVLW  00
08550:  MOVWF  FF8
08552:  MOVLB  0
08554:  CALL   4138
....................             SendDataDisplay();        
08558:  CALL   416A
0855C:  MOVLB  1
....................          } 
....................       } 
....................        
....................       if(RX_Buffer[3]==0x0f){//0f, recibe caracteres ingresados desde el Display 
0855E:  MOVF   33,W
08560:  SUBLW  0F
08562:  BTFSS  FD8.2
08564:  BRA    8A90
....................          delay_ms(800); 
08566:  MOVLW  04
08568:  MOVLB  6
0856A:  MOVWF  xB5
0856C:  MOVLW  C8
0856E:  MOVWF  xC7
08570:  MOVLB  0
08572:  CALL   20B8
08576:  MOVLB  6
08578:  DECFSZ xB5,F
0857A:  BRA    856C
....................          if(TipoClave==0){ 
0857C:  MOVLB  1
0857E:  MOVF   xFA,F
08580:  BTFSS  FD8.2
08582:  BRA    8736
....................             if(RX_Buffer[4]==0x33&&RX_Buffer[5]==0x38&&RX_Buffer[6]==0x39&&RX_Buffer[7]==0x32 &&RX_Buffer[8]==0x00 &&RX_Buffer[9]==0xff){ // Si Ingresa clave para reset general del sistema. 
08584:  MOVF   34,W
08586:  SUBLW  33
08588:  BNZ   8602
0858A:  MOVF   35,W
0858C:  SUBLW  38
0858E:  BNZ   8602
08590:  MOVF   36,W
08592:  SUBLW  39
08594:  BNZ   8602
08596:  MOVF   37,W
08598:  SUBLW  32
0859A:  BNZ   8602
0859C:  MOVF   38,F
0859E:  BNZ   8602
085A0:  INCFSZ 39,W
085A2:  BRA    8602
....................                for(i=0;i<40;i++){//Lee contraseas de usuarios 
085A4:  MOVLB  2
085A6:  CLRF   x60
085A8:  MOVF   x60,W
085AA:  SUBLW  27
085AC:  BNC   85FE
....................                   write_eeprom(300+i,0);delay_ms(20); 
085AE:  MOVLW  2C
085B0:  ADDWF  x60,W
085B2:  MOVLB  6
085B4:  MOVWF  xB5
085B6:  MOVLW  01
085B8:  MOVWF  xB6
085BA:  BTFSC  FD8.0
085BC:  INCF   xB6,F
085BE:  MOVFF  6B6,FAA
085C2:  MOVFF  6B5,FA9
085C6:  CLRF   FA8
085C8:  BCF    FA6.6
085CA:  BCF    FA6.7
085CC:  BSF    FA6.2
085CE:  MOVF   FF2,W
085D0:  MOVWF  00
085D2:  BCF    FF2.6
085D4:  BCF    FF2.7
085D6:  MOVLB  F
085D8:  MOVLW  55
085DA:  MOVWF  FA7
085DC:  MOVLW  AA
085DE:  MOVWF  FA7
085E0:  BSF    FA6.1
085E2:  BTFSC  FA6.1
085E4:  BRA    85E2
085E6:  BCF    FA6.2
085E8:  MOVF   00,W
085EA:  IORWF  FF2,F
085EC:  MOVLW  14
085EE:  MOVLB  6
085F0:  MOVWF  xC7
085F2:  MOVLB  0
085F4:  CALL   20B8
....................                } 
085F8:  MOVLB  2
085FA:  INCF   x60,F
085FC:  BRA    85A8
....................                reset_cpu(); 
085FE:  RESET
08600:  MOVLB  1
....................             } 
....................              
....................             if(RX_Buffer[4]>=0x30 && RX_Buffer[5]>=0x30 && RX_Buffer[6]>=0x30 && RX_Buffer[7]>=0x30 
....................             && RX_Buffer[4]<=0x39 && RX_Buffer[5]<=0x39 && RX_Buffer[6]<=0x39 && RX_Buffer[7]<=0x39){ 
08602:  MOVF   34,W
08604:  SUBLW  2F
08606:  BTFSC  FD8.0
08608:  BRA    8734
0860A:  MOVF   35,W
0860C:  SUBLW  2F
0860E:  BTFSC  FD8.0
08610:  BRA    8734
08612:  MOVF   36,W
08614:  SUBLW  2F
08616:  BTFSC  FD8.0
08618:  BRA    8734
0861A:  MOVF   37,W
0861C:  SUBLW  2F
0861E:  BTFSC  FD8.0
08620:  BRA    8734
08622:  MOVF   34,W
08624:  SUBLW  39
08626:  BTFSS  FD8.0
08628:  BRA    8734
0862A:  MOVF   35,W
0862C:  SUBLW  39
0862E:  BTFSS  FD8.0
08630:  BRA    8734
08632:  MOVF   36,W
08634:  SUBLW  39
08636:  BTFSS  FD8.0
08638:  BRA    8734
0863A:  MOVF   37,W
0863C:  SUBLW  39
0863E:  BTFSS  FD8.0
08640:  BRA    8734
....................                if((RX_Buffer[4]==Clave[codigoUsuario].Password[0]+0x30)&&(RX_Buffer[5]==Clave[codigoUsuario].Password[1]+0x30)&& 
....................                (RX_Buffer[6]==Clave[codigoUsuario].Password[2]+0x30)&&(RX_Buffer[7]==Clave[codigoUsuario].Password[3]+0x30) 
....................                &&RX_Buffer[8]==0x00 &&RX_Buffer[9]==0xff){ 
08642:  MOVLB  2
08644:  MOVF   xB5,W
08646:  MULLW  04
08648:  MOVF   FF3,W
0864A:  MOVLB  6
0864C:  CLRF   xB6
0864E:  MOVWF  xB5
08650:  MOVLW  8D
08652:  ADDWF  xB5,W
08654:  MOVWF  FE9
08656:  MOVLW  06
08658:  ADDWFC xB6,W
0865A:  MOVWF  FEA
0865C:  MOVLW  30
0865E:  ADDWF  FEF,W
08660:  SUBWF  34,W
08662:  BNZ   8718
08664:  MOVLB  2
08666:  MOVF   xB5,W
08668:  MULLW  04
0866A:  MOVF   FF3,W
0866C:  MOVLB  6
0866E:  CLRF   xB6
08670:  MOVWF  xB5
08672:  MOVLW  01
08674:  ADDWF  xB5,W
08676:  MOVWF  01
08678:  MOVLW  00
0867A:  ADDWFC xB6,W
0867C:  MOVWF  03
0867E:  MOVF   01,W
08680:  ADDLW  8D
08682:  MOVWF  FE9
08684:  MOVLW  06
08686:  ADDWFC 03,W
08688:  MOVWF  FEA
0868A:  MOVLW  30
0868C:  ADDWF  FEF,W
0868E:  SUBWF  35,W
08690:  BNZ   8718
08692:  MOVLB  2
08694:  MOVF   xB5,W
08696:  MULLW  04
08698:  MOVF   FF3,W
0869A:  MOVLB  6
0869C:  CLRF   xB6
0869E:  MOVWF  xB5
086A0:  MOVLW  02
086A2:  ADDWF  xB5,W
086A4:  MOVWF  01
086A6:  MOVLW  00
086A8:  ADDWFC xB6,W
086AA:  MOVWF  03
086AC:  MOVF   01,W
086AE:  ADDLW  8D
086B0:  MOVWF  FE9
086B2:  MOVLW  06
086B4:  ADDWFC 03,W
086B6:  MOVWF  FEA
086B8:  MOVLW  30
086BA:  ADDWF  FEF,W
086BC:  SUBWF  36,W
086BE:  BNZ   8718
086C0:  MOVLB  2
086C2:  MOVF   xB5,W
086C4:  MULLW  04
086C6:  MOVF   FF3,W
086C8:  MOVLB  6
086CA:  CLRF   xB6
086CC:  MOVWF  xB5
086CE:  MOVLW  03
086D0:  ADDWF  xB5,W
086D2:  MOVWF  01
086D4:  MOVLW  00
086D6:  ADDWFC xB6,W
086D8:  MOVWF  03
086DA:  MOVF   01,W
086DC:  ADDLW  8D
086DE:  MOVWF  FE9
086E0:  MOVLW  06
086E2:  ADDWFC 03,W
086E4:  MOVWF  FEA
086E6:  MOVLW  30
086E8:  ADDWF  FEF,W
086EA:  SUBWF  37,W
086EC:  BNZ   8718
086EE:  MOVF   38,F
086F0:  BNZ   8718
086F2:  INCFSZ 39,W
086F4:  BRA    8718
....................                   printf("page ClaveCorrecta"); 
086F6:  MOVLW  92
086F8:  MOVWF  FF6
086FA:  MOVLW  08
086FC:  MOVWF  FF7
086FE:  MOVLW  00
08700:  MOVWF  FF8
08702:  MOVLB  0
08704:  CALL   4138
....................                   SendDataDisplay(); 
08708:  CALL   416A
....................                   ingreso=ON; 
0870C:  MOVLB  1
0870E:  BSF    x07.1
....................                   RX_Buffer[3]=0x00;RX_Buffer2[3]=0x00;   
08710:  CLRF   33
08712:  CLRF   3E
....................                }else{ 
08714:  BRA    8734
08716:  MOVLB  6
....................                   printf("page ClaveBad"); 
08718:  MOVLW  A6
0871A:  MOVWF  FF6
0871C:  MOVLW  08
0871E:  MOVWF  FF7
08720:  MOVLW  00
08722:  MOVWF  FF8
08724:  MOVLB  0
08726:  CALL   4138
....................                   SendDataDisplay(); 
0872A:  CALL   416A
....................                   RX_Buffer[3]=0x00;RX_Buffer2[3]=0x00;   
0872E:  CLRF   33
08730:  CLRF   3E
08732:  MOVLB  1
....................                }  
....................             } 
....................          }else if(TipoClave==1){ 
08734:  BRA    8A90
08736:  DECFSZ xFA,W
08738:  BRA    8796
....................             if(RX_Buffer[4]==0x34&&RX_Buffer[5]==0x34&&RX_Buffer[6]==0x34&&RX_Buffer[7]==0x34&&RX_Buffer[8]==0x00 &&RX_Buffer[9]==0xff){ // Si Ingresa clave de Servicio Tecnico 
0873A:  MOVF   34,W
0873C:  SUBLW  34
0873E:  BNZ   8778
08740:  MOVF   35,W
08742:  SUBLW  34
08744:  BNZ   8778
08746:  MOVF   36,W
08748:  SUBLW  34
0874A:  BNZ   8778
0874C:  MOVF   37,W
0874E:  SUBLW  34
08750:  BNZ   8778
08752:  MOVF   38,F
08754:  BNZ   8778
08756:  INCFSZ 39,W
08758:  BRA    8778
....................                printf("page Config"); 
0875A:  MOVLW  B4
0875C:  MOVWF  FF6
0875E:  MOVLW  08
08760:  MOVWF  FF7
08762:  MOVLW  00
08764:  MOVWF  FF8
08766:  MOVLB  0
08768:  CALL   4138
....................                SendDataDisplay(); 
0876C:  CALL   416A
....................                RX_Buffer[3]=0x00;RX_Buffer2[3]=0x00;   
08770:  CLRF   33
08772:  CLRF   3E
....................             }else{ 
08774:  BRA    8792
08776:  MOVLB  1
....................                printf("page Menu"); 
08778:  MOVLW  C0
0877A:  MOVWF  FF6
0877C:  MOVLW  08
0877E:  MOVWF  FF7
08780:  MOVLW  00
08782:  MOVWF  FF8
08784:  MOVLB  0
08786:  CALL   4138
....................                SendDataDisplay(); 
0878A:  CALL   416A
....................                RX_Buffer[3]=0x00;RX_Buffer2[3]=0x00;   
0878E:  CLRF   33
08790:  CLRF   3E
....................             } 
....................          }else if(TipoClave==2){ 
08792:  BRA    8A92
08794:  MOVLB  1
08796:  MOVF   xFA,W
08798:  SUBLW  02
0879A:  BTFSS  FD8.2
0879C:  BRA    88EC
....................             if(RX_Buffer[4]>=0x30 && RX_Buffer[5]>=0x30 && RX_Buffer[6]>=0x30 && RX_Buffer[7]>=0x30 
....................             && RX_Buffer[4]<=0x39 && RX_Buffer[5]<=0x39 && RX_Buffer[6]<=0x39 && RX_Buffer[7]<=0x39){ 
0879E:  MOVF   34,W
087A0:  SUBLW  2F
087A2:  BTFSC  FD8.0
087A4:  BRA    88EA
087A6:  MOVF   35,W
087A8:  SUBLW  2F
087AA:  BTFSC  FD8.0
087AC:  BRA    88EA
087AE:  MOVF   36,W
087B0:  SUBLW  2F
087B2:  BTFSC  FD8.0
087B4:  BRA    88EA
087B6:  MOVF   37,W
087B8:  SUBLW  2F
087BA:  BTFSC  FD8.0
087BC:  BRA    88EA
087BE:  MOVF   34,W
087C0:  SUBLW  39
087C2:  BTFSS  FD8.0
087C4:  BRA    88EA
087C6:  MOVF   35,W
087C8:  SUBLW  39
087CA:  BTFSS  FD8.0
087CC:  BRA    88EA
087CE:  MOVF   36,W
087D0:  SUBLW  39
087D2:  BTFSS  FD8.0
087D4:  BRA    88EA
087D6:  MOVF   37,W
087D8:  SUBLW  39
087DA:  BTFSS  FD8.0
087DC:  BRA    88EA
....................                if((RX_Buffer[4]==Clave[codigoUsuario2].Password[0]+0x30)&&(RX_Buffer[5]==Clave[codigoUsuario2].Password[1]+0x30)&& 
....................                (RX_Buffer[6]==Clave[codigoUsuario2].Password[2]+0x30)&&(RX_Buffer[7]==Clave[codigoUsuario2].Password[3]+0x30) 
....................                &&RX_Buffer[8]==0x00 &&RX_Buffer[9]==0xff){ 
087DE:  MOVLB  2
087E0:  MOVF   x99,W
087E2:  MULLW  04
087E4:  MOVF   FF3,W
087E6:  MOVLB  6
087E8:  CLRF   xB6
087EA:  MOVWF  xB5
087EC:  MOVLW  8D
087EE:  ADDWF  xB5,W
087F0:  MOVWF  FE9
087F2:  MOVLW  06
087F4:  ADDWFC xB6,W
087F6:  MOVWF  FEA
087F8:  MOVLW  30
087FA:  ADDWF  FEF,W
087FC:  SUBWF  34,W
087FE:  BNZ   88CA
08800:  MOVLB  2
08802:  MOVF   x99,W
08804:  MULLW  04
08806:  MOVF   FF3,W
08808:  MOVLB  6
0880A:  CLRF   xB6
0880C:  MOVWF  xB5
0880E:  MOVLW  01
08810:  ADDWF  xB5,W
08812:  MOVWF  01
08814:  MOVLW  00
08816:  ADDWFC xB6,W
08818:  MOVWF  03
0881A:  MOVF   01,W
0881C:  ADDLW  8D
0881E:  MOVWF  FE9
08820:  MOVLW  06
08822:  ADDWFC 03,W
08824:  MOVWF  FEA
08826:  MOVLW  30
08828:  ADDWF  FEF,W
0882A:  SUBWF  35,W
0882C:  BNZ   88CA
0882E:  MOVLB  2
08830:  MOVF   x99,W
08832:  MULLW  04
08834:  MOVF   FF3,W
08836:  MOVLB  6
08838:  CLRF   xB6
0883A:  MOVWF  xB5
0883C:  MOVLW  02
0883E:  ADDWF  xB5,W
08840:  MOVWF  01
08842:  MOVLW  00
08844:  ADDWFC xB6,W
08846:  MOVWF  03
08848:  MOVF   01,W
0884A:  ADDLW  8D
0884C:  MOVWF  FE9
0884E:  MOVLW  06
08850:  ADDWFC 03,W
08852:  MOVWF  FEA
08854:  MOVLW  30
08856:  ADDWF  FEF,W
08858:  SUBWF  36,W
0885A:  BNZ   88CA
0885C:  MOVLB  2
0885E:  MOVF   x99,W
08860:  MULLW  04
08862:  MOVF   FF3,W
08864:  MOVLB  6
08866:  CLRF   xB6
08868:  MOVWF  xB5
0886A:  MOVLW  03
0886C:  ADDWF  xB5,W
0886E:  MOVWF  01
08870:  MOVLW  00
08872:  ADDWFC xB6,W
08874:  MOVWF  03
08876:  MOVF   01,W
08878:  ADDLW  8D
0887A:  MOVWF  FE9
0887C:  MOVLW  06
0887E:  ADDWFC 03,W
08880:  MOVWF  FEA
08882:  MOVLW  30
08884:  ADDWF  FEF,W
08886:  SUBWF  37,W
08888:  BNZ   88CA
0888A:  MOVF   38,F
0888C:  BNZ   88CA
0888E:  INCFSZ 39,W
08890:  BRA    88CA
....................                   printf("page Clave"); 
08892:  MOVLW  CA
08894:  MOVWF  FF6
08896:  MOVLW  08
08898:  MOVWF  FF7
0889A:  MOVLW  00
0889C:  MOVWF  FF8
0889E:  MOVLB  0
088A0:  CALL   4138
....................                   SendDataDisplay(); 
088A4:  CALL   416A
....................                   printf("titulo.txt=\"Clave Nueva\""); 
088A8:  MOVLW  D6
088AA:  MOVWF  FF6
088AC:  MOVLW  08
088AE:  MOVWF  FF7
088B0:  MOVLW  00
088B2:  MOVWF  FF8
088B4:  CALL   4138
....................                   SendDataDisplay(); 
088B8:  CALL   416A
....................                   TipoClave=3; 
088BC:  MOVLW  03
088BE:  MOVLB  1
088C0:  MOVWF  xFA
....................                   RX_Buffer[3]=0x00; 
088C2:  CLRF   33
....................                   RX_Buffer2[3]=0x00; 
088C4:  CLRF   3E
....................                }else{ 
088C6:  BRA    88EA
088C8:  MOVLB  6
....................                   printf("page Menu"); 
088CA:  MOVLW  F0
088CC:  MOVWF  FF6
088CE:  MOVLW  08
088D0:  MOVWF  FF7
088D2:  MOVLW  00
088D4:  MOVWF  FF8
088D6:  MOVLB  0
088D8:  CALL   4138
....................                   SendDataDisplay(); 
088DC:  CALL   416A
....................                   RX_Buffer[3]=0x00; 
088E0:  CLRF   33
....................                   RX_Buffer2[3]=0x00; 
088E2:  CLRF   3E
....................                   codigoUsuario=codigoUsuarioant; 
088E4:  MOVFF  2B6,2B5
088E8:  MOVLB  1
....................                }  
....................             } 
....................          }else if(TipoClave==3){ 
088EA:  BRA    8A90
088EC:  MOVF   xFA,W
088EE:  SUBLW  03
088F0:  BTFSS  FD8.2
088F2:  BRA    8A90
....................             printf("titulo.txt=\"Clave Nueva\""); 
088F4:  MOVLW  FA
088F6:  MOVWF  FF6
088F8:  MOVLW  08
088FA:  MOVWF  FF7
088FC:  MOVLW  00
088FE:  MOVWF  FF8
08900:  MOVLB  0
08902:  CALL   4138
....................             SendDataDisplay(); 
08906:  CALL   416A
....................             printf("page Menu"); 
0890A:  MOVLW  14
0890C:  MOVWF  FF6
0890E:  MOVLW  09
08910:  MOVWF  FF7
08912:  MOVLW  00
08914:  MOVWF  FF8
08916:  CALL   4138
....................             SendDataDisplay(); 
0891A:  CALL   416A
....................             if(!GuardaEEPROM){ 
0891E:  MOVLB  1
08920:  BTFSC  x05.5
08922:  BRA    8A8C
....................                write_eeprom(300+(codigoUsuario2*4),RX_Buffer[4]-0x30);delay_ms(20); 
08924:  MOVLB  2
08926:  MOVF   x99,W
08928:  MULLW  04
0892A:  MOVF   FF3,W
0892C:  ADDLW  2C
0892E:  MOVLB  6
08930:  MOVWF  xB5
08932:  MOVLW  01
08934:  MOVWF  xB6
08936:  BTFSC  FD8.0
08938:  INCF   xB6,F
0893A:  MOVLW  30
0893C:  SUBWF  34,W
0893E:  MOVWF  xB7
08940:  MOVFF  6B6,FAA
08944:  MOVFF  6B5,FA9
08948:  MOVFF  6B7,FA8
0894C:  BCF    FA6.6
0894E:  BCF    FA6.7
08950:  BSF    FA6.2
08952:  MOVF   FF2,W
08954:  MOVWF  00
08956:  BCF    FF2.6
08958:  BCF    FF2.7
0895A:  MOVLB  F
0895C:  MOVLW  55
0895E:  MOVWF  FA7
08960:  MOVLW  AA
08962:  MOVWF  FA7
08964:  BSF    FA6.1
08966:  BTFSC  FA6.1
08968:  BRA    8966
0896A:  BCF    FA6.2
0896C:  MOVF   00,W
0896E:  IORWF  FF2,F
08970:  MOVLW  14
08972:  MOVLB  6
08974:  MOVWF  xC7
08976:  MOVLB  0
08978:  CALL   20B8
....................                write_eeprom(301+(codigoUsuario2*4),RX_Buffer[5]-0x30);delay_ms(20); 
0897C:  MOVLB  2
0897E:  MOVF   x99,W
08980:  MULLW  04
08982:  MOVF   FF3,W
08984:  ADDLW  2D
08986:  MOVLB  6
08988:  MOVWF  xB5
0898A:  MOVLW  01
0898C:  MOVWF  xB6
0898E:  BTFSC  FD8.0
08990:  INCF   xB6,F
08992:  MOVLW  30
08994:  SUBWF  35,W
08996:  MOVWF  xB7
08998:  MOVFF  6B6,FAA
0899C:  MOVFF  6B5,FA9
089A0:  MOVFF  6B7,FA8
089A4:  BCF    FA6.6
089A6:  BCF    FA6.7
089A8:  BSF    FA6.2
089AA:  MOVF   FF2,W
089AC:  MOVWF  00
089AE:  BCF    FF2.6
089B0:  BCF    FF2.7
089B2:  MOVLB  F
089B4:  MOVLW  55
089B6:  MOVWF  FA7
089B8:  MOVLW  AA
089BA:  MOVWF  FA7
089BC:  BSF    FA6.1
089BE:  BTFSC  FA6.1
089C0:  BRA    89BE
089C2:  BCF    FA6.2
089C4:  MOVF   00,W
089C6:  IORWF  FF2,F
089C8:  MOVLW  14
089CA:  MOVLB  6
089CC:  MOVWF  xC7
089CE:  MOVLB  0
089D0:  CALL   20B8
....................                write_eeprom(302+(codigoUsuario2*4),RX_Buffer[6]-0x30);delay_ms(20); 
089D4:  MOVLB  2
089D6:  MOVF   x99,W
089D8:  MULLW  04
089DA:  MOVF   FF3,W
089DC:  ADDLW  2E
089DE:  MOVLB  6
089E0:  MOVWF  xB5
089E2:  MOVLW  01
089E4:  MOVWF  xB6
089E6:  BTFSC  FD8.0
089E8:  INCF   xB6,F
089EA:  MOVLW  30
089EC:  SUBWF  36,W
089EE:  MOVWF  xB7
089F0:  MOVFF  6B6,FAA
089F4:  MOVFF  6B5,FA9
089F8:  MOVFF  6B7,FA8
089FC:  BCF    FA6.6
089FE:  BCF    FA6.7
08A00:  BSF    FA6.2
08A02:  MOVF   FF2,W
08A04:  MOVWF  00
08A06:  BCF    FF2.6
08A08:  BCF    FF2.7
08A0A:  MOVLB  F
08A0C:  MOVLW  55
08A0E:  MOVWF  FA7
08A10:  MOVLW  AA
08A12:  MOVWF  FA7
08A14:  BSF    FA6.1
08A16:  BTFSC  FA6.1
08A18:  BRA    8A16
08A1A:  BCF    FA6.2
08A1C:  MOVF   00,W
08A1E:  IORWF  FF2,F
08A20:  MOVLW  14
08A22:  MOVLB  6
08A24:  MOVWF  xC7
08A26:  MOVLB  0
08A28:  CALL   20B8
....................                write_eeprom(303+(codigoUsuario2*4),RX_Buffer[7]-0x30);delay_ms(20); 
08A2C:  MOVLB  2
08A2E:  MOVF   x99,W
08A30:  MULLW  04
08A32:  MOVF   FF3,W
08A34:  ADDLW  2F
08A36:  MOVLB  6
08A38:  MOVWF  xB5
08A3A:  MOVLW  01
08A3C:  MOVWF  xB6
08A3E:  BTFSC  FD8.0
08A40:  INCF   xB6,F
08A42:  MOVLW  30
08A44:  SUBWF  37,W
08A46:  MOVWF  xB7
08A48:  MOVFF  6B6,FAA
08A4C:  MOVFF  6B5,FA9
08A50:  MOVFF  6B7,FA8
08A54:  BCF    FA6.6
08A56:  BCF    FA6.7
08A58:  BSF    FA6.2
08A5A:  MOVF   FF2,W
08A5C:  MOVWF  00
08A5E:  BCF    FF2.6
08A60:  BCF    FF2.7
08A62:  MOVLB  F
08A64:  MOVLW  55
08A66:  MOVWF  FA7
08A68:  MOVLW  AA
08A6A:  MOVWF  FA7
08A6C:  BSF    FA6.1
08A6E:  BTFSC  FA6.1
08A70:  BRA    8A6E
08A72:  BCF    FA6.2
08A74:  MOVF   00,W
08A76:  IORWF  FF2,F
08A78:  MOVLW  14
08A7A:  MOVLB  6
08A7C:  MOVWF  xC7
08A7E:  MOVLB  0
08A80:  CALL   20B8
....................                GuardaEEPROM=ON; 
08A84:  MOVLB  1
08A86:  BSF    x05.5
....................                codigoUsuario=codigoUsuarioant; 
08A88:  MOVFF  2B6,2B5
....................             } 
....................             RX_Buffer[3]=0x00; 
08A8C:  CLRF   33
....................             RX_Buffer2[3]=0x00; 
08A8E:  CLRF   3E
08A90:  MOVLB  0
....................          } 
....................       } 
....................     }else if(Menu==1){ //Menu Principal. 
08A92:  GOTO   F7C2
08A96:  MOVLB  2
08A98:  DECFSZ x5D,W
08A9A:  GOTO   924E
....................       tCiclof=0; 
08A9E:  MOVLB  1
08AA0:  CLRF   x19
08AA2:  CLRF   x18
....................       oprimioCiclo=OFF; 
08AA4:  BCF    x02.6
....................       printf("fecha.txt=\"Fecha:%02u/%02u/20%02u Hora: %02u:%02u:%02u\"",Dia,Mes,Year,Hora,Minuto,Segundo); 
08AA6:  MOVLW  1E
08AA8:  MOVWF  FF6
08AAA:  MOVLW  09
08AAC:  MOVWF  FF7
08AAE:  MOVLW  00
08AB0:  MOVWF  FF8
08AB2:  MOVLW  11
08AB4:  MOVLB  6
08AB6:  MOVWF  xBA
08AB8:  MOVLB  0
08ABA:  CALL   5BEA
08ABE:  MOVFF  2A0,6BA
08AC2:  MOVLW  01
08AC4:  MOVLB  6
08AC6:  MOVWF  xBB
08AC8:  MOVLB  0
08ACA:  CALL   5C6E
08ACE:  MOVLW  2F
08AD0:  BTFSS  F9E.4
08AD2:  BRA    8AD0
08AD4:  MOVWF  FAD
08AD6:  MOVFF  29F,6BA
08ADA:  MOVLW  01
08ADC:  MOVLB  6
08ADE:  MOVWF  xBB
08AE0:  MOVLB  0
08AE2:  CALL   5C6E
08AE6:  MOVLW  2F
08AE8:  BTFSS  F9E.4
08AEA:  BRA    8AE8
08AEC:  MOVWF  FAD
08AEE:  MOVLW  32
08AF0:  BTFSS  F9E.4
08AF2:  BRA    8AF0
08AF4:  MOVWF  FAD
08AF6:  MOVLW  30
08AF8:  BTFSS  F9E.4
08AFA:  BRA    8AF8
08AFC:  MOVWF  FAD
08AFE:  MOVFF  29E,6BA
08B02:  MOVLW  01
08B04:  MOVLB  6
08B06:  MOVWF  xBB
08B08:  MOVLB  0
08B0A:  CALL   5C6E
08B0E:  MOVLW  3F
08B10:  MOVWF  FF6
08B12:  MOVLW  09
08B14:  MOVWF  FF7
08B16:  MOVLW  00
08B18:  MOVWF  FF8
08B1A:  MOVLW  07
08B1C:  MOVLB  6
08B1E:  MOVWF  xBA
08B20:  MOVLB  0
08B22:  CALL   5BEA
08B26:  MOVFF  2A1,6BA
08B2A:  MOVLW  01
08B2C:  MOVLB  6
08B2E:  MOVWF  xBB
08B30:  MOVLB  0
08B32:  CALL   5C6E
08B36:  MOVLW  3A
08B38:  BTFSS  F9E.4
08B3A:  BRA    8B38
08B3C:  MOVWF  FAD
08B3E:  MOVFF  2A2,6BA
08B42:  MOVLW  01
08B44:  MOVLB  6
08B46:  MOVWF  xBB
08B48:  MOVLB  0
08B4A:  CALL   5C6E
08B4E:  MOVLW  3A
08B50:  BTFSS  F9E.4
08B52:  BRA    8B50
08B54:  MOVWF  FAD
08B56:  MOVFF  2A3,6BA
08B5A:  MOVLW  01
08B5C:  MOVLB  6
08B5E:  MOVWF  xBB
08B60:  MOVLB  0
08B62:  CALL   5C6E
08B66:  MOVLW  22
08B68:  BTFSS  F9E.4
08B6A:  BRA    8B68
08B6C:  MOVWF  FAD
....................       SendDataDisplay(); 
08B6E:  CALL   416A
....................       GuardaEEPROM=OFF; 
08B72:  MOVLB  1
08B74:  BCF    x05.5
....................       printf("tuser.txt=\"%s\"",usuario); 
08B76:  MOVLW  56
08B78:  MOVWF  FF6
08B7A:  MOVLW  09
08B7C:  MOVWF  FF7
08B7E:  MOVLW  00
08B80:  MOVWF  FF8
08B82:  MOVLW  0B
08B84:  MOVLB  6
08B86:  MOVWF  xBA
08B88:  MOVLB  0
08B8A:  CALL   5BEA
08B8E:  MOVLW  02
08B90:  MOVWF  FEA
08B92:  MOVLW  BB
08B94:  MOVWF  FE9
08B96:  CALL   5C1C
08B9A:  MOVLW  22
08B9C:  BTFSS  F9E.4
08B9E:  BRA    8B9C
08BA0:  MOVWF  FAD
....................       SendDataDisplay(); 
08BA2:  CALL   416A
....................       codigoUsuarioant=codigoUsuario; 
08BA6:  MOVFF  2B5,2B6
....................        
....................       if(RX_Buffer[4]==0x01 && RX_Buffer[5]==0x0f && estados[19+RX_Buffer[4]]){//01, Calentamiento 
08BAA:  DECFSZ 34,W
08BAC:  BRA    8C44
08BAE:  MOVF   35,W
08BB0:  SUBLW  0F
08BB2:  BNZ   8C44
08BB4:  MOVLW  13
08BB6:  ADDWF  34,W
08BB8:  MOVLB  6
08BBA:  MOVWF  xB6
08BBC:  MOVLW  03
08BBE:  MOVWF  xB8
08BC0:  MOVLW  21
08BC2:  MOVWF  xB7
08BC4:  MOVLB  0
08BC6:  CALL   24F8
08BCA:  BTFSS  01.0
08BCC:  BRA    8C44
....................          delay_ms(5); 
08BCE:  MOVLW  05
08BD0:  MOVLB  6
08BD2:  MOVWF  xC7
08BD4:  MOVLB  0
08BD6:  CALL   20B8
....................          if(RX_Buffer[4]==0x01 && RX_Buffer[5]==0x0f && estados[19+RX_Buffer[4]]){//01, Calentamiento 
08BDA:  DECFSZ 34,W
08BDC:  BRA    8C44
08BDE:  MOVF   35,W
08BE0:  SUBLW  0F
08BE2:  BNZ   8C44
08BE4:  MOVLW  13
08BE6:  ADDWF  34,W
08BE8:  MOVLB  6
08BEA:  MOVWF  xB6
08BEC:  MOVLW  03
08BEE:  MOVWF  xB8
08BF0:  MOVLW  21
08BF2:  MOVWF  xB7
08BF4:  MOVLB  0
08BF6:  CALL   24F8
08BFA:  BTFSS  01.0
08BFC:  BRA    8C44
....................             printf("page Funcionamiento"); 
08BFE:  MOVLW  66
08C00:  MOVWF  FF6
08C02:  MOVLW  09
08C04:  MOVWF  FF7
08C06:  MOVLW  00
08C08:  MOVWF  FF8
08C0A:  CALL   4138
....................             SendDataDisplay(); 
08C0E:  CALL   416A
....................             ConfiguraCiclo(0,15,0,1,0,1,121,6,25,0); 
08C12:  MOVLB  6
08C14:  CLRF   xBD
08C16:  MOVLW  0F
08C18:  MOVWF  xBE
08C1A:  CLRF   xBF
08C1C:  MOVLW  01
08C1E:  MOVWF  xC0
08C20:  CLRF   xC1
08C22:  MOVWF  xC2
08C24:  MOVLW  79
08C26:  MOVWF  xC3
08C28:  MOVLW  06
08C2A:  MOVWF  xC4
08C2C:  MOVLW  19
08C2E:  MOVWF  xC5
08C30:  CLRF   xC6
08C32:  MOVLB  0
08C34:  CALL   5CEC
....................             Op=OFF; 
08C38:  MOVLB  1
08C3A:  BCF    x05.1
....................             Op2=OFF; 
08C3C:  BCF    x05.2
....................             MenuAnt=Menu; 
08C3E:  MOVFF  25D,25E
08C42:  MOVLB  0
....................             //TiempoVacio=CantidadPulsos*180; 
....................          } 
....................       } 
....................        
....................       if(RX_Buffer[4]==0x02 && RX_Buffer[5]==0x0f && estados[19+RX_Buffer[4]]){//02, No Envueltos 134 
08C44:  MOVF   34,W
08C46:  SUBLW  02
08C48:  BNZ   8CE4
08C4A:  MOVF   35,W
08C4C:  SUBLW  0F
08C4E:  BNZ   8CE4
08C50:  MOVLW  13
08C52:  ADDWF  34,W
08C54:  MOVLB  6
08C56:  MOVWF  xB6
08C58:  MOVLW  03
08C5A:  MOVWF  xB8
08C5C:  MOVLW  21
08C5E:  MOVWF  xB7
08C60:  MOVLB  0
08C62:  CALL   24F8
08C66:  BTFSS  01.0
08C68:  BRA    8CE4
....................          delay_ms(5); 
08C6A:  MOVLW  05
08C6C:  MOVLB  6
08C6E:  MOVWF  xC7
08C70:  MOVLB  0
08C72:  CALL   20B8
....................          if(RX_Buffer[4]==0x02 && RX_Buffer[5]==0x0f && estados[19+RX_Buffer[4]]){ 
08C76:  MOVF   34,W
08C78:  SUBLW  02
08C7A:  BNZ   8CE4
08C7C:  MOVF   35,W
08C7E:  SUBLW  0F
08C80:  BNZ   8CE4
08C82:  MOVLW  13
08C84:  ADDWF  34,W
08C86:  MOVLB  6
08C88:  MOVWF  xB6
08C8A:  MOVLW  03
08C8C:  MOVWF  xB8
08C8E:  MOVLW  21
08C90:  MOVWF  xB7
08C92:  MOVLB  0
08C94:  CALL   24F8
08C98:  BTFSS  01.0
08C9A:  BRA    8CE4
....................             printf("page Funcionamiento"); 
08C9C:  MOVLW  7A
08C9E:  MOVWF  FF6
08CA0:  MOVLW  09
08CA2:  MOVWF  FF7
08CA4:  MOVLW  00
08CA6:  MOVWF  FF8
08CA8:  CALL   4138
....................             SendDataDisplay();        
08CAC:  CALL   416A
....................             ConfiguraCiclo(0,3,0,1,0,2,134,6,25,0);             
08CB0:  MOVLB  6
08CB2:  CLRF   xBD
08CB4:  MOVLW  03
08CB6:  MOVWF  xBE
08CB8:  CLRF   xBF
08CBA:  MOVLW  01
08CBC:  MOVWF  xC0
08CBE:  CLRF   xC1
08CC0:  MOVLW  02
08CC2:  MOVWF  xC2
08CC4:  MOVLW  86
08CC6:  MOVWF  xC3
08CC8:  MOVLW  06
08CCA:  MOVWF  xC4
08CCC:  MOVLW  19
08CCE:  MOVWF  xC5
08CD0:  CLRF   xC6
08CD2:  MOVLB  0
08CD4:  CALL   5CEC
....................             Op=OFF; 
08CD8:  MOVLB  1
08CDA:  BCF    x05.1
....................             Op2=OFF; 
08CDC:  BCF    x05.2
....................             MenuAnt=Menu; 
08CDE:  MOVFF  25D,25E
08CE2:  MOVLB  0
....................             //TiempoVacio=CantidadPulsos*180; 
....................          } 
....................       } 
....................        
....................       if(RX_Buffer[4]==0x03  && RX_Buffer[5]==0x0f && estados[19+RX_Buffer[4]]){//03, No Envueltos 121 
08CE4:  MOVF   34,W
08CE6:  SUBLW  03
08CE8:  BNZ   8D84
08CEA:  MOVF   35,W
08CEC:  SUBLW  0F
08CEE:  BNZ   8D84
08CF0:  MOVLW  13
08CF2:  ADDWF  34,W
08CF4:  MOVLB  6
08CF6:  MOVWF  xB6
08CF8:  MOVLW  03
08CFA:  MOVWF  xB8
08CFC:  MOVLW  21
08CFE:  MOVWF  xB7
08D00:  MOVLB  0
08D02:  CALL   24F8
08D06:  BTFSS  01.0
08D08:  BRA    8D84
....................          delay_ms(5); 
08D0A:  MOVLW  05
08D0C:  MOVLB  6
08D0E:  MOVWF  xC7
08D10:  MOVLB  0
08D12:  CALL   20B8
....................          if(RX_Buffer[4]==0x03 && RX_Buffer[5]==0x0f && estados[19+RX_Buffer[4]]){ 
08D16:  MOVF   34,W
08D18:  SUBLW  03
08D1A:  BNZ   8D84
08D1C:  MOVF   35,W
08D1E:  SUBLW  0F
08D20:  BNZ   8D84
08D22:  MOVLW  13
08D24:  ADDWF  34,W
08D26:  MOVLB  6
08D28:  MOVWF  xB6
08D2A:  MOVLW  03
08D2C:  MOVWF  xB8
08D2E:  MOVLW  21
08D30:  MOVWF  xB7
08D32:  MOVLB  0
08D34:  CALL   24F8
08D38:  BTFSS  01.0
08D3A:  BRA    8D84
....................             printf("page Funcionamiento"); 
08D3C:  MOVLW  8E
08D3E:  MOVWF  FF6
08D40:  MOVLW  09
08D42:  MOVWF  FF7
08D44:  MOVLW  00
08D46:  MOVWF  FF8
08D48:  CALL   4138
....................             SendDataDisplay();      
08D4C:  CALL   416A
....................             ConfiguraCiclo(0,15,0,1,0,3,121,6,25,0);   
08D50:  MOVLB  6
08D52:  CLRF   xBD
08D54:  MOVLW  0F
08D56:  MOVWF  xBE
08D58:  CLRF   xBF
08D5A:  MOVLW  01
08D5C:  MOVWF  xC0
08D5E:  CLRF   xC1
08D60:  MOVLW  03
08D62:  MOVWF  xC2
08D64:  MOVLW  79
08D66:  MOVWF  xC3
08D68:  MOVLW  06
08D6A:  MOVWF  xC4
08D6C:  MOVLW  19
08D6E:  MOVWF  xC5
08D70:  CLRF   xC6
08D72:  MOVLB  0
08D74:  CALL   5CEC
....................             Op=OFF; 
08D78:  MOVLB  1
08D7A:  BCF    x05.1
....................             Op2=OFF; 
08D7C:  BCF    x05.2
....................             MenuAnt=Menu; 
08D7E:  MOVFF  25D,25E
08D82:  MOVLB  0
....................             //TiempoVacio=CantidadPulsos*180; 
....................          } 
....................       } 
....................        
....................       if(RX_Buffer[4]==0x04 && RX_Buffer[5]==0x0f && estados[19+RX_Buffer[4]]){//04, Envueltos 134 
08D84:  MOVF   34,W
08D86:  SUBLW  04
08D88:  BNZ   8E24
08D8A:  MOVF   35,W
08D8C:  SUBLW  0F
08D8E:  BNZ   8E24
08D90:  MOVLW  13
08D92:  ADDWF  34,W
08D94:  MOVLB  6
08D96:  MOVWF  xB6
08D98:  MOVLW  03
08D9A:  MOVWF  xB8
08D9C:  MOVLW  21
08D9E:  MOVWF  xB7
08DA0:  MOVLB  0
08DA2:  CALL   24F8
08DA6:  BTFSS  01.0
08DA8:  BRA    8E24
....................          delay_ms(5); 
08DAA:  MOVLW  05
08DAC:  MOVLB  6
08DAE:  MOVWF  xC7
08DB0:  MOVLB  0
08DB2:  CALL   20B8
....................          if(RX_Buffer[4]==0x04 && RX_Buffer[5]==0x0f && estados[19+RX_Buffer[4]]){ 
08DB6:  MOVF   34,W
08DB8:  SUBLW  04
08DBA:  BNZ   8E24
08DBC:  MOVF   35,W
08DBE:  SUBLW  0F
08DC0:  BNZ   8E24
08DC2:  MOVLW  13
08DC4:  ADDWF  34,W
08DC6:  MOVLB  6
08DC8:  MOVWF  xB6
08DCA:  MOVLW  03
08DCC:  MOVWF  xB8
08DCE:  MOVLW  21
08DD0:  MOVWF  xB7
08DD2:  MOVLB  0
08DD4:  CALL   24F8
08DD8:  BTFSS  01.0
08DDA:  BRA    8E24
....................             printf("page Funcionamiento"); 
08DDC:  MOVLW  A2
08DDE:  MOVWF  FF6
08DE0:  MOVLW  09
08DE2:  MOVWF  FF7
08DE4:  MOVLW  00
08DE6:  MOVWF  FF8
08DE8:  CALL   4138
....................             SendDataDisplay();        
08DEC:  CALL   416A
....................             ConfiguraCiclo(0,4,0,15,0,4,134,6,25,0);   
08DF0:  MOVLB  6
08DF2:  CLRF   xBD
08DF4:  MOVLW  04
08DF6:  MOVWF  xBE
08DF8:  CLRF   xBF
08DFA:  MOVLW  0F
08DFC:  MOVWF  xC0
08DFE:  CLRF   xC1
08E00:  MOVLW  04
08E02:  MOVWF  xC2
08E04:  MOVLW  86
08E06:  MOVWF  xC3
08E08:  MOVLW  06
08E0A:  MOVWF  xC4
08E0C:  MOVLW  19
08E0E:  MOVWF  xC5
08E10:  CLRF   xC6
08E12:  MOVLB  0
08E14:  CALL   5CEC
....................             Op=OFF; 
08E18:  MOVLB  1
08E1A:  BCF    x05.1
....................             Op2=OFF; 
08E1C:  BCF    x05.2
....................             MenuAnt=Menu; 
08E1E:  MOVFF  25D,25E
08E22:  MOVLB  0
....................             //TiempoVacio=CantidadPulsos*180; 
....................          } 
....................       } 
....................        
....................       if(RX_Buffer[4]==0x05 && RX_Buffer[5]==0x0f && estados[19+RX_Buffer[4]]){//05, Envueltos 121 
08E24:  MOVF   34,W
08E26:  SUBLW  05
08E28:  BNZ   8ED2
08E2A:  MOVF   35,W
08E2C:  SUBLW  0F
08E2E:  BNZ   8ED2
08E30:  MOVLW  13
08E32:  ADDWF  34,W
08E34:  MOVLB  6
08E36:  MOVWF  xB6
08E38:  MOVLW  03
08E3A:  MOVWF  xB8
08E3C:  MOVLW  21
08E3E:  MOVWF  xB7
08E40:  MOVLB  0
08E42:  CALL   24F8
08E46:  BTFSS  01.0
08E48:  BRA    8ED2
....................          delay_ms(5); 
08E4A:  MOVLW  05
08E4C:  MOVLB  6
08E4E:  MOVWF  xC7
08E50:  MOVLB  0
08E52:  CALL   20B8
....................          if(RX_Buffer[4]==0x05 && RX_Buffer[5]==0x0f && estados[19+RX_Buffer[4]]){ 
08E56:  MOVF   34,W
08E58:  SUBLW  05
08E5A:  BNZ   8ED2
08E5C:  MOVF   35,W
08E5E:  SUBLW  0F
08E60:  BNZ   8ED2
08E62:  MOVLW  13
08E64:  ADDWF  34,W
08E66:  MOVLB  6
08E68:  MOVWF  xB6
08E6A:  MOVLW  03
08E6C:  MOVWF  xB8
08E6E:  MOVLW  21
08E70:  MOVWF  xB7
08E72:  MOVLB  0
08E74:  CALL   24F8
08E78:  BTFSS  01.0
08E7A:  BRA    8ED2
....................             printf("page Funcionamiento"); 
08E7C:  MOVLW  B6
08E7E:  MOVWF  FF6
08E80:  MOVLW  09
08E82:  MOVWF  FF7
08E84:  MOVLW  00
08E86:  MOVWF  FF8
08E88:  CALL   4138
....................             SendDataDisplay();        
08E8C:  CALL   416A
....................             ConfiguraCiclo(0,15,0,15,0,5,121,6,25,0);   
08E90:  MOVLB  6
08E92:  CLRF   xBD
08E94:  MOVLW  0F
08E96:  MOVWF  xBE
08E98:  CLRF   xBF
08E9A:  MOVWF  xC0
08E9C:  CLRF   xC1
08E9E:  MOVLW  05
08EA0:  MOVWF  xC2
08EA2:  MOVLW  79
08EA4:  MOVWF  xC3
08EA6:  MOVLW  06
08EA8:  MOVWF  xC4
08EAA:  MOVLW  19
08EAC:  MOVWF  xC5
08EAE:  CLRF   xC6
08EB0:  MOVLB  0
08EB2:  CALL   5CEC
....................             Op=OFF; 
08EB6:  MOVLB  1
08EB8:  BCF    x05.1
....................             Op2=OFF; 
08EBA:  BCF    x05.2
....................             MenuAnt=Menu; 
08EBC:  MOVFF  25D,25E
....................             CantidadPulsos=7; 
08EC0:  MOVLB  2
08EC2:  CLRF   x66
08EC4:  MOVLW  07
08EC6:  MOVWF  x65
....................             NivelVacio=32; 
08EC8:  MOVLW  20
08ECA:  MOVWF  xA7
....................             Fugas=OFF; 
08ECC:  MOVLB  1
08ECE:  BCF    x07.2
08ED0:  MOVLB  0
....................             //TiempoVacio=CantidadPulsos*180; 
....................          } 
....................       } 
....................        
....................       if(RX_Buffer[4]==0x06 && RX_Buffer[5]==0x0f && estados[19+RX_Buffer[4]]){//06, Envuelto Doble 1 
08ED2:  MOVF   34,W
08ED4:  SUBLW  06
08ED6:  BNZ   8F72
08ED8:  MOVF   35,W
08EDA:  SUBLW  0F
08EDC:  BNZ   8F72
08EDE:  MOVLW  13
08EE0:  ADDWF  34,W
08EE2:  MOVLB  6
08EE4:  MOVWF  xB6
08EE6:  MOVLW  03
08EE8:  MOVWF  xB8
08EEA:  MOVLW  21
08EEC:  MOVWF  xB7
08EEE:  MOVLB  0
08EF0:  CALL   24F8
08EF4:  BTFSS  01.0
08EF6:  BRA    8F72
....................          delay_ms(5); 
08EF8:  MOVLW  05
08EFA:  MOVLB  6
08EFC:  MOVWF  xC7
08EFE:  MOVLB  0
08F00:  CALL   20B8
....................          if(RX_Buffer[4]==0x06 && RX_Buffer[5]==0x0f && estados[19+RX_Buffer[4]]){ 
08F04:  MOVF   34,W
08F06:  SUBLW  06
08F08:  BNZ   8F72
08F0A:  MOVF   35,W
08F0C:  SUBLW  0F
08F0E:  BNZ   8F72
08F10:  MOVLW  13
08F12:  ADDWF  34,W
08F14:  MOVLB  6
08F16:  MOVWF  xB6
08F18:  MOVLW  03
08F1A:  MOVWF  xB8
08F1C:  MOVLW  21
08F1E:  MOVWF  xB7
08F20:  MOVLB  0
08F22:  CALL   24F8
08F26:  BTFSS  01.0
08F28:  BRA    8F72
....................             printf("page Funcionamiento"); 
08F2A:  MOVLW  CA
08F2C:  MOVWF  FF6
08F2E:  MOVLW  09
08F30:  MOVWF  FF7
08F32:  MOVLW  00
08F34:  MOVWF  FF8
08F36:  CALL   4138
....................             SendDataDisplay();        
08F3A:  CALL   416A
....................             ConfiguraCiclo(0,7,0,20,0,6,134,6,25,0);   
08F3E:  MOVLB  6
08F40:  CLRF   xBD
08F42:  MOVLW  07
08F44:  MOVWF  xBE
08F46:  CLRF   xBF
08F48:  MOVLW  14
08F4A:  MOVWF  xC0
08F4C:  CLRF   xC1
08F4E:  MOVLW  06
08F50:  MOVWF  xC2
08F52:  MOVLW  86
08F54:  MOVWF  xC3
08F56:  MOVLW  06
08F58:  MOVWF  xC4
08F5A:  MOVLW  19
08F5C:  MOVWF  xC5
08F5E:  CLRF   xC6
08F60:  MOVLB  0
08F62:  CALL   5CEC
....................             Op=OFF; 
08F66:  MOVLB  1
08F68:  BCF    x05.1
....................             Op2=OFF; 
08F6A:  BCF    x05.2
....................             MenuAnt=Menu; 
08F6C:  MOVFF  25D,25E
08F70:  MOVLB  0
....................             //TiempoVacio=CantidadPulsos*180; 
....................          } 
....................       } 
....................        
....................       if(RX_Buffer[4]==0x07 && RX_Buffer[5]==0x0f && estados[19+RX_Buffer[4]]){//07, Envuelto Doble 2 
08F72:  MOVF   34,W
08F74:  SUBLW  07
08F76:  BNZ   9012
08F78:  MOVF   35,W
08F7A:  SUBLW  0F
08F7C:  BNZ   9012
08F7E:  MOVLW  13
08F80:  ADDWF  34,W
08F82:  MOVLB  6
08F84:  MOVWF  xB6
08F86:  MOVLW  03
08F88:  MOVWF  xB8
08F8A:  MOVLW  21
08F8C:  MOVWF  xB7
08F8E:  MOVLB  0
08F90:  CALL   24F8
08F94:  BTFSS  01.0
08F96:  BRA    9012
....................          delay_ms(5); 
08F98:  MOVLW  05
08F9A:  MOVLB  6
08F9C:  MOVWF  xC7
08F9E:  MOVLB  0
08FA0:  CALL   20B8
....................          if(RX_Buffer[4]==0x07 && RX_Buffer[5]==0x0f && estados[19+RX_Buffer[4]]){ 
08FA4:  MOVF   34,W
08FA6:  SUBLW  07
08FA8:  BNZ   9012
08FAA:  MOVF   35,W
08FAC:  SUBLW  0F
08FAE:  BNZ   9012
08FB0:  MOVLW  13
08FB2:  ADDWF  34,W
08FB4:  MOVLB  6
08FB6:  MOVWF  xB6
08FB8:  MOVLW  03
08FBA:  MOVWF  xB8
08FBC:  MOVLW  21
08FBE:  MOVWF  xB7
08FC0:  MOVLB  0
08FC2:  CALL   24F8
08FC6:  BTFSS  01.0
08FC8:  BRA    9012
....................             printf("page Funcionamiento"); 
08FCA:  MOVLW  DE
08FCC:  MOVWF  FF6
08FCE:  MOVLW  09
08FD0:  MOVWF  FF7
08FD2:  MOVLW  00
08FD4:  MOVWF  FF8
08FD6:  CALL   4138
....................             SendDataDisplay();        
08FDA:  CALL   416A
....................             ConfiguraCiclo(0,7,0,30,0,7,134,6,25,0);   
08FDE:  MOVLB  6
08FE0:  CLRF   xBD
08FE2:  MOVLW  07
08FE4:  MOVWF  xBE
08FE6:  CLRF   xBF
08FE8:  MOVLW  1E
08FEA:  MOVWF  xC0
08FEC:  CLRF   xC1
08FEE:  MOVLW  07
08FF0:  MOVWF  xC2
08FF2:  MOVLW  86
08FF4:  MOVWF  xC3
08FF6:  MOVLW  06
08FF8:  MOVWF  xC4
08FFA:  MOVLW  19
08FFC:  MOVWF  xC5
08FFE:  CLRF   xC6
09000:  MOVLB  0
09002:  CALL   5CEC
....................             Op=OFF; 
09006:  MOVLB  1
09008:  BCF    x05.1
....................             Op2=OFF; 
0900A:  BCF    x05.2
....................             MenuAnt=Menu; 
0900C:  MOVFF  25D,25E
09010:  MOVLB  0
....................             //TiempoVacio=CantidadPulsos*180; 
....................          } 
....................       } 
....................        
....................       if(RX_Buffer[4]==0x08 && RX_Buffer[5]==0x0f && estados[19+RX_Buffer[4]]){//08, Prion 
09012:  MOVF   34,W
09014:  SUBLW  08
09016:  BNZ   90B2
09018:  MOVF   35,W
0901A:  SUBLW  0F
0901C:  BNZ   90B2
0901E:  MOVLW  13
09020:  ADDWF  34,W
09022:  MOVLB  6
09024:  MOVWF  xB6
09026:  MOVLW  03
09028:  MOVWF  xB8
0902A:  MOVLW  21
0902C:  MOVWF  xB7
0902E:  MOVLB  0
09030:  CALL   24F8
09034:  BTFSS  01.0
09036:  BRA    90B2
....................          delay_ms(5); 
09038:  MOVLW  05
0903A:  MOVLB  6
0903C:  MOVWF  xC7
0903E:  MOVLB  0
09040:  CALL   20B8
....................          if(RX_Buffer[4]==0x08 && RX_Buffer[5]==0x0f && estados[19+RX_Buffer[4]]){ 
09044:  MOVF   34,W
09046:  SUBLW  08
09048:  BNZ   90B2
0904A:  MOVF   35,W
0904C:  SUBLW  0F
0904E:  BNZ   90B2
09050:  MOVLW  13
09052:  ADDWF  34,W
09054:  MOVLB  6
09056:  MOVWF  xB6
09058:  MOVLW  03
0905A:  MOVWF  xB8
0905C:  MOVLW  21
0905E:  MOVWF  xB7
09060:  MOVLB  0
09062:  CALL   24F8
09066:  BTFSS  01.0
09068:  BRA    90B2
....................             printf("page Funcionamiento"); 
0906A:  MOVLW  F2
0906C:  MOVWF  FF6
0906E:  MOVLW  09
09070:  MOVWF  FF7
09072:  MOVLW  00
09074:  MOVWF  FF8
09076:  CALL   4138
....................             SendDataDisplay();        
0907A:  CALL   416A
....................             ConfiguraCiclo(0,20,0,15,0,8,134,6,25,0);   
0907E:  MOVLB  6
09080:  CLRF   xBD
09082:  MOVLW  14
09084:  MOVWF  xBE
09086:  CLRF   xBF
09088:  MOVLW  0F
0908A:  MOVWF  xC0
0908C:  CLRF   xC1
0908E:  MOVLW  08
09090:  MOVWF  xC2
09092:  MOVLW  86
09094:  MOVWF  xC3
09096:  MOVLW  06
09098:  MOVWF  xC4
0909A:  MOVLW  19
0909C:  MOVWF  xC5
0909E:  CLRF   xC6
090A0:  MOVLB  0
090A2:  CALL   5CEC
....................             Op=OFF; 
090A6:  MOVLB  1
090A8:  BCF    x05.1
....................             Op2=OFF; 
090AA:  BCF    x05.2
....................             MenuAnt=Menu; 
090AC:  MOVFF  25D,25E
090B0:  MOVLB  0
....................             //TiempoVacio=CantidadPulsos*180; 
....................          } 
....................       } 
....................        
....................       if(RX_Buffer[4]==0x09 && RX_Buffer[5]==0x0f && estados[19+RX_Buffer[4]]){//09, Bowie & Dick 
090B2:  MOVF   34,W
090B4:  SUBLW  09
090B6:  BNZ   9154
090B8:  MOVF   35,W
090BA:  SUBLW  0F
090BC:  BNZ   9154
090BE:  MOVLW  13
090C0:  ADDWF  34,W
090C2:  MOVLB  6
090C4:  MOVWF  xB6
090C6:  MOVLW  03
090C8:  MOVWF  xB8
090CA:  MOVLW  21
090CC:  MOVWF  xB7
090CE:  MOVLB  0
090D0:  CALL   24F8
090D4:  BTFSS  01.0
090D6:  BRA    9154
....................          delay_ms(5); 
090D8:  MOVLW  05
090DA:  MOVLB  6
090DC:  MOVWF  xC7
090DE:  MOVLB  0
090E0:  CALL   20B8
....................          if(RX_Buffer[4]==0x09 && RX_Buffer[5]==0x0f && estados[19+RX_Buffer[4]]){ 
090E4:  MOVF   34,W
090E6:  SUBLW  09
090E8:  BNZ   9154
090EA:  MOVF   35,W
090EC:  SUBLW  0F
090EE:  BNZ   9154
090F0:  MOVLW  13
090F2:  ADDWF  34,W
090F4:  MOVLB  6
090F6:  MOVWF  xB6
090F8:  MOVLW  03
090FA:  MOVWF  xB8
090FC:  MOVLW  21
090FE:  MOVWF  xB7
09100:  MOVLB  0
09102:  CALL   24F8
09106:  BTFSS  01.0
09108:  BRA    9154
....................             printf("page Funcionamiento"); 
0910A:  MOVLW  06
0910C:  MOVWF  FF6
0910E:  MOVLW  0A
09110:  MOVWF  FF7
09112:  MOVLW  00
09114:  MOVWF  FF8
09116:  CALL   4138
....................             SendDataDisplay();        
0911A:  CALL   416A
....................             ConfiguraCiclo(30,3,0,1,0,9,134,6,25,0);   
0911E:  MOVLW  1E
09120:  MOVLB  6
09122:  MOVWF  xBD
09124:  MOVLW  03
09126:  MOVWF  xBE
09128:  CLRF   xBF
0912A:  MOVLW  01
0912C:  MOVWF  xC0
0912E:  CLRF   xC1
09130:  MOVLW  09
09132:  MOVWF  xC2
09134:  MOVLW  86
09136:  MOVWF  xC3
09138:  MOVLW  06
0913A:  MOVWF  xC4
0913C:  MOVLW  19
0913E:  MOVWF  xC5
09140:  CLRF   xC6
09142:  MOVLB  0
09144:  CALL   5CEC
....................             Op=OFF; 
09148:  MOVLB  1
0914A:  BCF    x05.1
....................             Op2=OFF; 
0914C:  BCF    x05.2
....................             MenuAnt=Menu; 
0914E:  MOVFF  25D,25E
09152:  MOVLB  0
....................             //TiempoVacio=CantidadPulsos*180; 
....................          } 
....................       } 
....................        
....................       if(RX_Buffer[4]==0x0a && RX_Buffer[5]==0x0f && estados[19+RX_Buffer[4]]){//0a, Test de Fugas 
09154:  MOVF   34,W
09156:  SUBLW  0A
09158:  BNZ   91EC
0915A:  MOVF   35,W
0915C:  SUBLW  0F
0915E:  BNZ   91EC
09160:  MOVLW  13
09162:  ADDWF  34,W
09164:  MOVLB  6
09166:  MOVWF  xB6
09168:  MOVLW  03
0916A:  MOVWF  xB8
0916C:  MOVLW  21
0916E:  MOVWF  xB7
09170:  MOVLB  0
09172:  CALL   24F8
09176:  BTFSS  01.0
09178:  BRA    91EC
....................          delay_ms(5); 
0917A:  MOVLW  05
0917C:  MOVLB  6
0917E:  MOVWF  xC7
09180:  MOVLB  0
09182:  CALL   20B8
....................          if(RX_Buffer[4]==0x0a && RX_Buffer[5]==0x0f && estados[19+RX_Buffer[4]]){ 
09186:  MOVF   34,W
09188:  SUBLW  0A
0918A:  BNZ   91EC
0918C:  MOVF   35,W
0918E:  SUBLW  0F
09190:  BNZ   91EC
09192:  MOVLW  13
09194:  ADDWF  34,W
09196:  MOVLB  6
09198:  MOVWF  xB6
0919A:  MOVLW  03
0919C:  MOVWF  xB8
0919E:  MOVLW  21
091A0:  MOVWF  xB7
091A2:  MOVLB  0
091A4:  CALL   24F8
091A8:  BTFSS  01.0
091AA:  BRA    91EC
....................             printf("page Funcionamiento"); 
091AC:  MOVLW  1A
091AE:  MOVWF  FF6
091B0:  MOVLW  0A
091B2:  MOVWF  FF7
091B4:  MOVLW  00
091B6:  MOVWF  FF8
091B8:  CALL   4138
....................             SendDataDisplay();        
091BC:  CALL   416A
....................             ConfiguraCiclo(0,15,0,0,0,10,30,1,17,1); 
091C0:  MOVLB  6
091C2:  CLRF   xBD
091C4:  MOVLW  0F
091C6:  MOVWF  xBE
091C8:  CLRF   xBF
091CA:  CLRF   xC0
091CC:  CLRF   xC1
091CE:  MOVLW  0A
091D0:  MOVWF  xC2
091D2:  MOVLW  1E
091D4:  MOVWF  xC3
091D6:  MOVLW  01
091D8:  MOVWF  xC4
091DA:  MOVLW  11
091DC:  MOVWF  xC5
091DE:  MOVLW  01
091E0:  MOVWF  xC6
091E2:  MOVLB  0
091E4:  CALL   5CEC
....................             MenuAnt=Menu; 
091E8:  MOVFF  25D,25E
....................             //TiempoVacio=CantidadPulsos*180; 
....................          } 
....................       } 
....................        
....................       if(RX_Buffer[4]==0xa0){//a0, Ciclos Fijos 
091EC:  MOVF   34,W
091EE:  SUBLW  A0
091F0:  BNZ   9206
....................          printf("page Menu"); 
091F2:  MOVLW  2E
091F4:  MOVWF  FF6
091F6:  MOVLW  0A
091F8:  MOVWF  FF7
091FA:  MOVLW  00
091FC:  MOVWF  FF8
091FE:  CALL   4138
....................          SendDataDisplay();      
09202:  CALL   416A
....................       } 
....................        
....................       if(RX_Buffer[4]==0xb0){//b0, Personalizados 
09206:  MOVF   34,W
09208:  SUBLW  B0
0920A:  BNZ   9220
....................          printf("page CicloPersona"); 
0920C:  MOVLW  38
0920E:  MOVWF  FF6
09210:  MOVLW  0A
09212:  MOVWF  FF7
09214:  MOVLW  00
09216:  MOVWF  FF8
09218:  CALL   4138
....................          SendDataDisplay();      
0921C:  CALL   416A
....................       } 
....................        
....................       if(RX_Buffer[4]==0xc0){//c0, Configuraciones 
09220:  MOVF   34,W
09222:  SUBLW  C0
09224:  BNZ   9248
....................          if(codigoUsuario==0 || codigoUsuario==9){        
09226:  MOVLB  2
09228:  MOVF   xB5,F
0922A:  BZ    9232
0922C:  MOVF   xB5,W
0922E:  SUBLW  09
09230:  BNZ   924A
....................             printf("page Ajustes"); 
09232:  MOVLW  4A
09234:  MOVWF  FF6
09236:  MOVLW  0A
09238:  MOVWF  FF7
0923A:  MOVLW  00
0923C:  MOVWF  FF8
0923E:  MOVLB  0
09240:  CALL   4138
....................             SendDataDisplay();      
09244:  CALL   416A
09248:  MOVLB  2
....................          } 
....................       } 
....................    }else if(Menu==2){ //Menu de Tiempo Esterilizacion      
0924A:  GOTO   F7C2
0924E:  MOVF   x5D,W
09250:  SUBLW  02
09252:  BTFSS  FD8.2
09254:  BRA    952E
....................          printf("fecha.txt=\"Fecha:%02u/%02u/20%02u Hora: %02u:%02u:%02u\"",Dia,Mes,Year,Hora,Minuto,Segundo); 
09256:  MOVLW  58
09258:  MOVWF  FF6
0925A:  MOVLW  0A
0925C:  MOVWF  FF7
0925E:  MOVLW  00
09260:  MOVWF  FF8
09262:  MOVLW  11
09264:  MOVLB  6
09266:  MOVWF  xBA
09268:  MOVLB  0
0926A:  CALL   5BEA
0926E:  MOVFF  2A0,6BA
09272:  MOVLW  01
09274:  MOVLB  6
09276:  MOVWF  xBB
09278:  MOVLB  0
0927A:  CALL   5C6E
0927E:  MOVLW  2F
09280:  BTFSS  F9E.4
09282:  BRA    9280
09284:  MOVWF  FAD
09286:  MOVFF  29F,6BA
0928A:  MOVLW  01
0928C:  MOVLB  6
0928E:  MOVWF  xBB
09290:  MOVLB  0
09292:  CALL   5C6E
09296:  MOVLW  2F
09298:  BTFSS  F9E.4
0929A:  BRA    9298
0929C:  MOVWF  FAD
0929E:  MOVLW  32
092A0:  BTFSS  F9E.4
092A2:  BRA    92A0
092A4:  MOVWF  FAD
092A6:  MOVLW  30
092A8:  BTFSS  F9E.4
092AA:  BRA    92A8
092AC:  MOVWF  FAD
092AE:  MOVFF  29E,6BA
092B2:  MOVLW  01
092B4:  MOVLB  6
092B6:  MOVWF  xBB
092B8:  MOVLB  0
092BA:  CALL   5C6E
092BE:  MOVLW  79
092C0:  MOVWF  FF6
092C2:  MOVLW  0A
092C4:  MOVWF  FF7
092C6:  MOVLW  00
092C8:  MOVWF  FF8
092CA:  MOVLW  07
092CC:  MOVLB  6
092CE:  MOVWF  xBA
092D0:  MOVLB  0
092D2:  CALL   5BEA
092D6:  MOVFF  2A1,6BA
092DA:  MOVLW  01
092DC:  MOVLB  6
092DE:  MOVWF  xBB
092E0:  MOVLB  0
092E2:  CALL   5C6E
092E6:  MOVLW  3A
092E8:  BTFSS  F9E.4
092EA:  BRA    92E8
092EC:  MOVWF  FAD
092EE:  MOVFF  2A2,6BA
092F2:  MOVLW  01
092F4:  MOVLB  6
092F6:  MOVWF  xBB
092F8:  MOVLB  0
092FA:  CALL   5C6E
092FE:  MOVLW  3A
09300:  BTFSS  F9E.4
09302:  BRA    9300
09304:  MOVWF  FAD
09306:  MOVFF  2A3,6BA
0930A:  MOVLW  01
0930C:  MOVLB  6
0930E:  MOVWF  xBB
09310:  MOVLB  0
09312:  CALL   5C6E
09316:  MOVLW  22
09318:  BTFSS  F9E.4
0931A:  BRA    9318
0931C:  MOVWF  FAD
....................          SendDataDisplay(); 
0931E:  CALL   416A
....................          if(RX_Buffer[4]==0x0a){//Selecciono Minutos 
09322:  MOVF   34,W
09324:  SUBLW  0A
09326:  BNZ   9330
....................             Minutos=ON; 
09328:  MOVLB  1
0932A:  BSF    x05.3
....................             Segundos=OFF; 
0932C:  BCF    x05.4
0932E:  MOVLB  0
....................          } 
....................           
....................          if(RX_Buffer[4]==0x0b){//Selecciono Segundos 
09330:  MOVF   34,W
09332:  SUBLW  0B
09334:  BNZ   933E
....................             Segundos=ON; 
09336:  MOVLB  1
09338:  BSF    x05.4
....................             Minutos=OFF; 
0933A:  BCF    x05.3
0933C:  MOVLB  0
....................          }            
....................           
....................          if(RX_Buffer[4]==0x11){//Selecciono Regresar             
0933E:  MOVF   34,W
09340:  SUBLW  11
09342:  BTFSS  FD8.2
09344:  BRA    9462
....................                Segundos=OFF; 
09346:  MOVLB  1
09348:  BCF    x05.4
....................                Minutos=OFF; 
0934A:  BCF    x05.3
....................                printf("page CicloPersona"); 
0934C:  MOVLW  90
0934E:  MOVWF  FF6
09350:  MOVLW  0A
09352:  MOVWF  FF7
09354:  MOVLW  00
09356:  MOVWF  FF8
09358:  MOVLB  0
0935A:  CALL   4138
....................                SendDataDisplay();   
0935E:  CALL   416A
....................                if(!GuardaEEPROM){ 
09362:  MOVLB  1
09364:  BTFSC  x05.5
09366:  BRA    9460
....................                   CiclosPersonalizados[CicloLibre-1].Minutoest=mEstp; 
09368:  MOVLW  01
0936A:  MOVLB  2
0936C:  SUBWF  x52,W
0936E:  MULLW  08
09370:  MOVF   FF3,W
09372:  MOVLB  6
09374:  CLRF   xB6
09376:  MOVWF  xB5
09378:  MOVLW  01
0937A:  ADDWF  xB5,W
0937C:  MOVWF  01
0937E:  MOVLW  00
09380:  ADDWFC xB6,W
09382:  MOVWF  03
09384:  MOVF   01,W
09386:  ADDLW  ED
09388:  MOVWF  FE9
0938A:  MOVLW  05
0938C:  ADDWFC 03,W
0938E:  MOVWF  FEA
09390:  MOVFF  127,FEF
....................                   CiclosPersonalizados[CicloLibre-1].Segundoest=sEstp; 
09394:  MOVLW  01
09396:  MOVLB  2
09398:  SUBWF  x52,W
0939A:  MULLW  08
0939C:  MOVF   FF3,W
0939E:  MOVLB  6
093A0:  CLRF   xB6
093A2:  MOVWF  xB5
093A4:  MOVLW  02
093A6:  ADDWF  xB5,W
093A8:  MOVWF  01
093AA:  MOVLW  00
093AC:  ADDWFC xB6,W
093AE:  MOVWF  03
093B0:  MOVF   01,W
093B2:  ADDLW  ED
093B4:  MOVWF  FE9
093B6:  MOVLW  05
093B8:  ADDWFC 03,W
093BA:  MOVWF  FEA
093BC:  MOVFF  126,FEF
....................                   write_eeprom(101+((CicloLibre-1)*8),mEstp); 
093C0:  MOVLW  01
093C2:  MOVLB  2
093C4:  SUBWF  x52,W
093C6:  MULLW  08
093C8:  MOVF   FF3,W
093CA:  ADDLW  65
093CC:  MOVLB  6
093CE:  MOVWF  xB5
093D0:  CLRF   FAA
093D2:  MOVFF  6B5,FA9
093D6:  MOVFF  127,FA8
093DA:  BCF    FA6.6
093DC:  BCF    FA6.7
093DE:  BSF    FA6.2
093E0:  MOVF   FF2,W
093E2:  MOVWF  00
093E4:  BCF    FF2.6
093E6:  BCF    FF2.7
093E8:  MOVLB  F
093EA:  MOVLW  55
093EC:  MOVWF  FA7
093EE:  MOVLW  AA
093F0:  MOVWF  FA7
093F2:  BSF    FA6.1
093F4:  BTFSC  FA6.1
093F6:  BRA    93F4
093F8:  BCF    FA6.2
093FA:  MOVF   00,W
093FC:  IORWF  FF2,F
....................                   delay_ms(10); 
093FE:  MOVLW  0A
09400:  MOVLB  6
09402:  MOVWF  xC7
09404:  MOVLB  0
09406:  CALL   20B8
....................                   write_eeprom(102+((CicloLibre-1)*8),sEstp); 
0940A:  MOVLW  01
0940C:  MOVLB  2
0940E:  SUBWF  x52,W
09410:  MULLW  08
09412:  MOVF   FF3,W
09414:  ADDLW  66
09416:  MOVLB  6
09418:  MOVWF  xB5
0941A:  CLRF   FAA
0941C:  MOVFF  6B5,FA9
09420:  MOVFF  126,FA8
09424:  BCF    FA6.6
09426:  BCF    FA6.7
09428:  BSF    FA6.2
0942A:  MOVF   FF2,W
0942C:  MOVWF  00
0942E:  BCF    FF2.6
09430:  BCF    FF2.7
09432:  MOVLB  F
09434:  MOVLW  55
09436:  MOVWF  FA7
09438:  MOVLW  AA
0943A:  MOVWF  FA7
0943C:  BSF    FA6.1
0943E:  BTFSC  FA6.1
09440:  BRA    943E
09442:  BCF    FA6.2
09444:  MOVF   00,W
09446:  IORWF  FF2,F
....................                   delay_ms(10); 
09448:  MOVLW  0A
0944A:  MOVLB  6
0944C:  MOVWF  xC7
0944E:  MOVLB  0
09450:  CALL   20B8
....................                   mEst=mEstp; 
09454:  MOVFF  127,123
....................                   sEst=sEstp; 
09458:  MOVFF  126,122
....................                   GuardaEEPROM=ON; 
0945C:  MOVLB  1
0945E:  BSF    x05.5
09460:  MOVLB  0
....................                } 
....................          } 
....................           
....................          if(RX_Buffer[4]==0x0c || RX_Buffer[4]==0x0d){//Tecla arriba Oprimida 
09462:  MOVF   34,W
09464:  SUBLW  0C
09466:  BZ    946E
09468:  MOVF   34,W
0946A:  SUBLW  0D
0946C:  BNZ   9482
....................             if(Segundos){ 
0946E:  MOVLB  1
09470:  BTFSS  x05.4
09472:  BRA    9476
....................                sEstp++; 
09474:  INCF   x26,F
....................             } 
....................             if(Minutos){ 
09476:  BTFSS  x05.3
09478:  BRA    947C
....................                mEstp++; 
0947A:  INCF   x27,F
....................             }   
....................             RX_Buffer[4]=0x00;   
0947C:  CLRF   34
....................             RX_Buffer2[4]=0x00; 
0947E:  CLRF   3F
09480:  MOVLB  0
....................          } 
....................           
....................          if(RX_Buffer[4]==0x0f || RX_Buffer[4]==0x0e){//Tecla abajo oprimida 
09482:  MOVF   34,W
09484:  SUBLW  0F
09486:  BZ    948E
09488:  MOVF   34,W
0948A:  SUBLW  0E
0948C:  BNZ   94A4
....................             if(Segundos && sEstp>0){ 
0948E:  MOVLB  1
09490:  BTFSS  x05.4
09492:  BRA    949A
09494:  MOVF   x26,F
09496:  BZ    949A
....................                sEstp--; 
09498:  DECF   x26,F
....................             } 
....................             if(Minutos){ 
0949A:  BTFSS  x05.3
0949C:  BRA    94A0
....................                mEstp--; 
0949E:  DECF   x27,F
....................             } 
....................             RX_Buffer[4]=0x00;   
094A0:  CLRF   34
....................             RX_Buffer2[4]=0x00; 
094A2:  CLRF   3F
....................          } 
....................           
....................          if(mEstp<1)mEstp=99; 
094A4:  MOVLB  1
094A6:  MOVF   x27,F
094A8:  BNZ   94AE
094AA:  MOVLW  63
094AC:  MOVWF  x27
....................          if(mEstp>99)mEstp=1; 
094AE:  MOVF   x27,W
094B0:  SUBLW  63
094B2:  BC    94B8
094B4:  MOVLW  01
094B6:  MOVWF  x27
....................          if(sEstp>59)sEstp=0; 
094B8:  MOVF   x26,W
094BA:  SUBLW  3B
094BC:  BTFSS  FD8.0
094BE:  CLRF   x26
....................              
....................          printf("tminest.txt=\"%02u\"",mEstp); 
094C0:  MOVLW  A2
094C2:  MOVWF  FF6
094C4:  MOVLW  0A
094C6:  MOVWF  FF7
094C8:  MOVLW  00
094CA:  MOVWF  FF8
094CC:  MOVLW  0D
094CE:  MOVLB  6
094D0:  MOVWF  xBA
094D2:  MOVLB  0
094D4:  CALL   5BEA
094D8:  MOVFF  127,6BA
094DC:  MOVLW  01
094DE:  MOVLB  6
094E0:  MOVWF  xBB
094E2:  MOVLB  0
094E4:  CALL   5C6E
094E8:  MOVLW  22
094EA:  BTFSS  F9E.4
094EC:  BRA    94EA
094EE:  MOVWF  FAD
....................          SendDataDisplay(); 
094F0:  CALL   416A
....................          printf("tsecest.txt=\"%02u\"",sEstp); 
094F4:  MOVLW  B6
094F6:  MOVWF  FF6
094F8:  MOVLW  0A
094FA:  MOVWF  FF7
094FC:  MOVLW  00
094FE:  MOVWF  FF8
09500:  MOVLW  0D
09502:  MOVLB  6
09504:  MOVWF  xBA
09506:  MOVLB  0
09508:  CALL   5BEA
0950C:  MOVFF  126,6BA
09510:  MOVLW  01
09512:  MOVLB  6
09514:  MOVWF  xBB
09516:  MOVLB  0
09518:  CALL   5C6E
0951C:  MOVLW  22
0951E:  BTFSS  F9E.4
09520:  BRA    951E
09522:  MOVWF  FAD
....................          SendDataDisplay(); 
09524:  CALL   416A
....................     }else if(Menu==3){ //Menu de Tiempo de Secado 
09528:  GOTO   F7C2
0952C:  MOVLB  2
0952E:  MOVF   x5D,W
09530:  SUBLW  03
09532:  BTFSS  FD8.2
09534:  BRA    980E
....................       printf("fecha.txt=\"Fecha:%02u/%02u/20%02u Hora: %02u:%02u:%02u\"",Dia,Mes,Year,Hora,Minuto,Segundo); 
09536:  MOVLW  CA
09538:  MOVWF  FF6
0953A:  MOVLW  0A
0953C:  MOVWF  FF7
0953E:  MOVLW  00
09540:  MOVWF  FF8
09542:  MOVLW  11
09544:  MOVLB  6
09546:  MOVWF  xBA
09548:  MOVLB  0
0954A:  CALL   5BEA
0954E:  MOVFF  2A0,6BA
09552:  MOVLW  01
09554:  MOVLB  6
09556:  MOVWF  xBB
09558:  MOVLB  0
0955A:  CALL   5C6E
0955E:  MOVLW  2F
09560:  BTFSS  F9E.4
09562:  BRA    9560
09564:  MOVWF  FAD
09566:  MOVFF  29F,6BA
0956A:  MOVLW  01
0956C:  MOVLB  6
0956E:  MOVWF  xBB
09570:  MOVLB  0
09572:  CALL   5C6E
09576:  MOVLW  2F
09578:  BTFSS  F9E.4
0957A:  BRA    9578
0957C:  MOVWF  FAD
0957E:  MOVLW  32
09580:  BTFSS  F9E.4
09582:  BRA    9580
09584:  MOVWF  FAD
09586:  MOVLW  30
09588:  BTFSS  F9E.4
0958A:  BRA    9588
0958C:  MOVWF  FAD
0958E:  MOVFF  29E,6BA
09592:  MOVLW  01
09594:  MOVLB  6
09596:  MOVWF  xBB
09598:  MOVLB  0
0959A:  CALL   5C6E
0959E:  MOVLW  EB
095A0:  MOVWF  FF6
095A2:  MOVLW  0A
095A4:  MOVWF  FF7
095A6:  MOVLW  00
095A8:  MOVWF  FF8
095AA:  MOVLW  07
095AC:  MOVLB  6
095AE:  MOVWF  xBA
095B0:  MOVLB  0
095B2:  CALL   5BEA
095B6:  MOVFF  2A1,6BA
095BA:  MOVLW  01
095BC:  MOVLB  6
095BE:  MOVWF  xBB
095C0:  MOVLB  0
095C2:  CALL   5C6E
095C6:  MOVLW  3A
095C8:  BTFSS  F9E.4
095CA:  BRA    95C8
095CC:  MOVWF  FAD
095CE:  MOVFF  2A2,6BA
095D2:  MOVLW  01
095D4:  MOVLB  6
095D6:  MOVWF  xBB
095D8:  MOVLB  0
095DA:  CALL   5C6E
095DE:  MOVLW  3A
095E0:  BTFSS  F9E.4
095E2:  BRA    95E0
095E4:  MOVWF  FAD
095E6:  MOVFF  2A3,6BA
095EA:  MOVLW  01
095EC:  MOVLB  6
095EE:  MOVWF  xBB
095F0:  MOVLB  0
095F2:  CALL   5C6E
095F6:  MOVLW  22
095F8:  BTFSS  F9E.4
095FA:  BRA    95F8
095FC:  MOVWF  FAD
....................       SendDataDisplay();             
095FE:  CALL   416A
....................              
....................          if(RX_Buffer[4]==0x0a){//Selecciono Minutos 
09602:  MOVF   34,W
09604:  SUBLW  0A
09606:  BNZ   9610
....................             Minutos=ON; 
09608:  MOVLB  1
0960A:  BSF    x05.3
....................             Segundos=OFF; 
0960C:  BCF    x05.4
0960E:  MOVLB  0
....................          } 
....................           
....................          if(RX_Buffer[4]==0x0b){//Selecciono Segundos 
09610:  MOVF   34,W
09612:  SUBLW  0B
09614:  BNZ   961E
....................             Segundos=ON; 
09616:  MOVLB  1
09618:  BSF    x05.4
....................             Minutos=OFF; 
0961A:  BCF    x05.3
0961C:  MOVLB  0
....................          } 
....................           
....................          if(RX_Buffer[4]==0x11){//Selecciono Regresar 
0961E:  MOVF   34,W
09620:  SUBLW  11
09622:  BTFSS  FD8.2
09624:  BRA    9742
....................             Segundos=OFF; 
09626:  MOVLB  1
09628:  BCF    x05.4
....................             Minutos=OFF; 
0962A:  BCF    x05.3
....................             printf("page CicloPersona"); 
0962C:  MOVLW  02
0962E:  MOVWF  FF6
09630:  MOVLW  0B
09632:  MOVWF  FF7
09634:  MOVLW  00
09636:  MOVWF  FF8
09638:  MOVLB  0
0963A:  CALL   4138
....................             SendDataDisplay();   
0963E:  CALL   416A
....................             if(!GuardaEEPROM){ 
09642:  MOVLB  1
09644:  BTFSC  x05.5
09646:  BRA    9740
....................                CiclosPersonalizados[CicloLibre-1].Minutosec=mSecp; 
09648:  MOVLW  01
0964A:  MOVLB  2
0964C:  SUBWF  x52,W
0964E:  MULLW  08
09650:  MOVF   FF3,W
09652:  MOVLB  6
09654:  CLRF   xB6
09656:  MOVWF  xB5
09658:  MOVLW  03
0965A:  ADDWF  xB5,W
0965C:  MOVWF  01
0965E:  MOVLW  00
09660:  ADDWFC xB6,W
09662:  MOVWF  03
09664:  MOVF   01,W
09666:  ADDLW  ED
09668:  MOVWF  FE9
0966A:  MOVLW  05
0966C:  ADDWFC 03,W
0966E:  MOVWF  FEA
09670:  MOVFF  129,FEF
....................                CiclosPersonalizados[CicloLibre-1].Segundosec=sSecp; 
09674:  MOVLW  01
09676:  MOVLB  2
09678:  SUBWF  x52,W
0967A:  MULLW  08
0967C:  MOVF   FF3,W
0967E:  MOVLB  6
09680:  CLRF   xB6
09682:  MOVWF  xB5
09684:  MOVLW  04
09686:  ADDWF  xB5,W
09688:  MOVWF  01
0968A:  MOVLW  00
0968C:  ADDWFC xB6,W
0968E:  MOVWF  03
09690:  MOVF   01,W
09692:  ADDLW  ED
09694:  MOVWF  FE9
09696:  MOVLW  05
09698:  ADDWFC 03,W
0969A:  MOVWF  FEA
0969C:  MOVFF  128,FEF
....................                write_eeprom(103+((CicloLibre-1)*8),mSecp); 
096A0:  MOVLW  01
096A2:  MOVLB  2
096A4:  SUBWF  x52,W
096A6:  MULLW  08
096A8:  MOVF   FF3,W
096AA:  ADDLW  67
096AC:  MOVLB  6
096AE:  MOVWF  xB5
096B0:  CLRF   FAA
096B2:  MOVFF  6B5,FA9
096B6:  MOVFF  129,FA8
096BA:  BCF    FA6.6
096BC:  BCF    FA6.7
096BE:  BSF    FA6.2
096C0:  MOVF   FF2,W
096C2:  MOVWF  00
096C4:  BCF    FF2.6
096C6:  BCF    FF2.7
096C8:  MOVLB  F
096CA:  MOVLW  55
096CC:  MOVWF  FA7
096CE:  MOVLW  AA
096D0:  MOVWF  FA7
096D2:  BSF    FA6.1
096D4:  BTFSC  FA6.1
096D6:  BRA    96D4
096D8:  BCF    FA6.2
096DA:  MOVF   00,W
096DC:  IORWF  FF2,F
....................                delay_ms(10); 
096DE:  MOVLW  0A
096E0:  MOVLB  6
096E2:  MOVWF  xC7
096E4:  MOVLB  0
096E6:  CALL   20B8
....................                write_eeprom(104+((CicloLibre-1)*8),sSecp); 
096EA:  MOVLW  01
096EC:  MOVLB  2
096EE:  SUBWF  x52,W
096F0:  MULLW  08
096F2:  MOVF   FF3,W
096F4:  ADDLW  68
096F6:  MOVLB  6
096F8:  MOVWF  xB5
096FA:  CLRF   FAA
096FC:  MOVFF  6B5,FA9
09700:  MOVFF  128,FA8
09704:  BCF    FA6.6
09706:  BCF    FA6.7
09708:  BSF    FA6.2
0970A:  MOVF   FF2,W
0970C:  MOVWF  00
0970E:  BCF    FF2.6
09710:  BCF    FF2.7
09712:  MOVLB  F
09714:  MOVLW  55
09716:  MOVWF  FA7
09718:  MOVLW  AA
0971A:  MOVWF  FA7
0971C:  BSF    FA6.1
0971E:  BTFSC  FA6.1
09720:  BRA    971E
09722:  BCF    FA6.2
09724:  MOVF   00,W
09726:  IORWF  FF2,F
....................                delay_ms(10); 
09728:  MOVLW  0A
0972A:  MOVLB  6
0972C:  MOVWF  xC7
0972E:  MOVLB  0
09730:  CALL   20B8
....................                mSec=mSecp; 
09734:  MOVFF  129,125
....................                sSec=sSecp; 
09738:  MOVFF  128,124
....................                GuardaEEPROM=ON; 
0973C:  MOVLB  1
0973E:  BSF    x05.5
09740:  MOVLB  0
....................             } 
....................          } 
....................           
....................          if(RX_Buffer[4]==0x0c || RX_Buffer[4]==0x0d){//Tecla Derecha Oprimida 
09742:  MOVF   34,W
09744:  SUBLW  0C
09746:  BZ    974E
09748:  MOVF   34,W
0974A:  SUBLW  0D
0974C:  BNZ   9762
....................             if(Segundos){ 
0974E:  MOVLB  1
09750:  BTFSS  x05.4
09752:  BRA    9756
....................                sSecp++; 
09754:  INCF   x28,F
....................             } 
....................             if(Minutos){ 
09756:  BTFSS  x05.3
09758:  BRA    975C
....................                mSecp++; 
0975A:  INCF   x29,F
....................             }   
....................             RX_Buffer[4]=0x00;   
0975C:  CLRF   34
....................             RX_Buffer2[4]=0x00;  
0975E:  CLRF   3F
09760:  MOVLB  0
....................          } 
....................           
....................          if(RX_Buffer[4]==0x0f || RX_Buffer[4]==0x0e){//Tecla Izquierda Oprimida 
09762:  MOVF   34,W
09764:  SUBLW  0F
09766:  BZ    976E
09768:  MOVF   34,W
0976A:  SUBLW  0E
0976C:  BNZ   9784
....................             if(Segundos && sSecp>0){ 
0976E:  MOVLB  1
09770:  BTFSS  x05.4
09772:  BRA    977A
09774:  MOVF   x28,F
09776:  BZ    977A
....................                sSecp--; 
09778:  DECF   x28,F
....................             } 
....................             if(Minutos){ 
0977A:  BTFSS  x05.3
0977C:  BRA    9780
....................                mSecp--; 
0977E:  DECF   x29,F
....................             }  
....................             RX_Buffer[4]=0x00;   
09780:  CLRF   34
....................             RX_Buffer2[4]=0x00;             
09782:  CLRF   3F
....................          } 
....................          if(mSecp<1)mSecp=99; 
09784:  MOVLB  1
09786:  MOVF   x29,F
09788:  BNZ   978E
0978A:  MOVLW  63
0978C:  MOVWF  x29
....................          if(mSecp>99)mSecp=1; 
0978E:  MOVF   x29,W
09790:  SUBLW  63
09792:  BC    9798
09794:  MOVLW  01
09796:  MOVWF  x29
....................          if(sSecp>59)mSecp=0; 
09798:  MOVF   x28,W
0979A:  SUBLW  3B
0979C:  BTFSS  FD8.0
0979E:  CLRF   x29
....................              
....................       printf("tminsec.txt=\"%02u\"",mSecp); 
097A0:  MOVLW  14
097A2:  MOVWF  FF6
097A4:  MOVLW  0B
097A6:  MOVWF  FF7
097A8:  MOVLW  00
097AA:  MOVWF  FF8
097AC:  MOVLW  0D
097AE:  MOVLB  6
097B0:  MOVWF  xBA
097B2:  MOVLB  0
097B4:  CALL   5BEA
097B8:  MOVFF  129,6BA
097BC:  MOVLW  01
097BE:  MOVLB  6
097C0:  MOVWF  xBB
097C2:  MOVLB  0
097C4:  CALL   5C6E
097C8:  MOVLW  22
097CA:  BTFSS  F9E.4
097CC:  BRA    97CA
097CE:  MOVWF  FAD
....................       SendDataDisplay(); 
097D0:  CALL   416A
....................       printf("tsecsec.txt=\"%02u\"",sSecp); 
097D4:  MOVLW  28
097D6:  MOVWF  FF6
097D8:  MOVLW  0B
097DA:  MOVWF  FF7
097DC:  MOVLW  00
097DE:  MOVWF  FF8
097E0:  MOVLW  0D
097E2:  MOVLB  6
097E4:  MOVWF  xBA
097E6:  MOVLB  0
097E8:  CALL   5BEA
097EC:  MOVFF  128,6BA
097F0:  MOVLW  01
097F2:  MOVLB  6
097F4:  MOVWF  xBB
097F6:  MOVLB  0
097F8:  CALL   5C6E
097FC:  MOVLW  22
097FE:  BTFSS  F9E.4
09800:  BRA    97FE
09802:  MOVWF  FAD
....................       SendDataDisplay(); 
09804:  CALL   416A
....................     }else if(Menu==4){ //Menu de Temperatura 
09808:  GOTO   F7C2
0980C:  MOVLB  2
0980E:  MOVF   x5D,W
09810:  SUBLW  04
09812:  BTFSS  FD8.2
09814:  BRA    99EA
....................       printf("fecha.txt=\"Fecha:%02u/%02u/20%02u Hora: %02u:%02u:%02u\"",Dia,Mes,Year,Hora,Minuto,Segundo); 
09816:  MOVLW  3C
09818:  MOVWF  FF6
0981A:  MOVLW  0B
0981C:  MOVWF  FF7
0981E:  MOVLW  00
09820:  MOVWF  FF8
09822:  MOVLW  11
09824:  MOVLB  6
09826:  MOVWF  xBA
09828:  MOVLB  0
0982A:  CALL   5BEA
0982E:  MOVFF  2A0,6BA
09832:  MOVLW  01
09834:  MOVLB  6
09836:  MOVWF  xBB
09838:  MOVLB  0
0983A:  CALL   5C6E
0983E:  MOVLW  2F
09840:  BTFSS  F9E.4
09842:  BRA    9840
09844:  MOVWF  FAD
09846:  MOVFF  29F,6BA
0984A:  MOVLW  01
0984C:  MOVLB  6
0984E:  MOVWF  xBB
09850:  MOVLB  0
09852:  CALL   5C6E
09856:  MOVLW  2F
09858:  BTFSS  F9E.4
0985A:  BRA    9858
0985C:  MOVWF  FAD
0985E:  MOVLW  32
09860:  BTFSS  F9E.4
09862:  BRA    9860
09864:  MOVWF  FAD
09866:  MOVLW  30
09868:  BTFSS  F9E.4
0986A:  BRA    9868
0986C:  MOVWF  FAD
0986E:  MOVFF  29E,6BA
09872:  MOVLW  01
09874:  MOVLB  6
09876:  MOVWF  xBB
09878:  MOVLB  0
0987A:  CALL   5C6E
0987E:  MOVLW  5D
09880:  MOVWF  FF6
09882:  MOVLW  0B
09884:  MOVWF  FF7
09886:  MOVLW  00
09888:  MOVWF  FF8
0988A:  MOVLW  07
0988C:  MOVLB  6
0988E:  MOVWF  xBA
09890:  MOVLB  0
09892:  CALL   5BEA
09896:  MOVFF  2A1,6BA
0989A:  MOVLW  01
0989C:  MOVLB  6
0989E:  MOVWF  xBB
098A0:  MOVLB  0
098A2:  CALL   5C6E
098A6:  MOVLW  3A
098A8:  BTFSS  F9E.4
098AA:  BRA    98A8
098AC:  MOVWF  FAD
098AE:  MOVFF  2A2,6BA
098B2:  MOVLW  01
098B4:  MOVLB  6
098B6:  MOVWF  xBB
098B8:  MOVLB  0
098BA:  CALL   5C6E
098BE:  MOVLW  3A
098C0:  BTFSS  F9E.4
098C2:  BRA    98C0
098C4:  MOVWF  FAD
098C6:  MOVFF  2A3,6BA
098CA:  MOVLW  01
098CC:  MOVLB  6
098CE:  MOVWF  xBB
098D0:  MOVLB  0
098D2:  CALL   5C6E
098D6:  MOVLW  22
098D8:  BTFSS  F9E.4
098DA:  BRA    98D8
098DC:  MOVWF  FAD
....................       SendDataDisplay(); 
098DE:  CALL   416A
....................          if(Setpoint<110) 
098E2:  MOVLB  2
098E4:  MOVF   x6B,W
098E6:  SUBLW  6D
098E8:  BNC   98EE
....................             Setpoint=138; 
098EA:  MOVLW  8A
098EC:  MOVWF  x6B
....................          if(Setpoint>138) 
098EE:  MOVF   x6B,W
098F0:  SUBLW  8A
098F2:  BC    98F8
....................             Setpoint=110; 
098F4:  MOVLW  6E
098F6:  MOVWF  x6B
....................           
....................          if(RX_Buffer[4]==0x11){//Selecciono Regresar 
098F8:  MOVF   34,W
098FA:  SUBLW  11
098FC:  BNZ   9998
....................             Segundos=OFF; 
098FE:  MOVLB  1
09900:  BCF    x05.4
....................             Minutos=OFF; 
09902:  BCF    x05.3
....................             printf("page CicloPersona"); 
09904:  MOVLW  74
09906:  MOVWF  FF6
09908:  MOVLW  0B
0990A:  MOVWF  FF7
0990C:  MOVLW  00
0990E:  MOVWF  FF8
09910:  MOVLB  0
09912:  CALL   4138
....................             SendDataDisplay();   
09916:  CALL   416A
....................             PantallaPrincipal=1; 
0991A:  MOVLW  01
0991C:  MOVLB  1
0991E:  MOVWF  xF9
....................             Op=OFF; 
09920:  BCF    x05.1
....................             Op2=OFF; 
09922:  BCF    x05.2
....................             if(!GuardaEEPROM){ 
09924:  BTFSC  x05.5
09926:  BRA    9996
....................                CiclosPersonalizados[CicloLibre-1].Temperatura=Setpoint; 
09928:  MOVLW  01
0992A:  MOVLB  2
0992C:  SUBWF  x52,W
0992E:  MULLW  08
09930:  MOVF   FF3,W
09932:  MOVLB  6
09934:  CLRF   xB6
09936:  MOVWF  xB5
09938:  MOVLW  ED
0993A:  ADDWF  xB5,W
0993C:  MOVWF  FE9
0993E:  MOVLW  05
09940:  ADDWFC xB6,W
09942:  MOVWF  FEA
09944:  MOVFF  26B,FEF
....................                write_eeprom(100+((CicloLibre-1)*8),Setpoint); 
09948:  MOVLW  01
0994A:  MOVLB  2
0994C:  SUBWF  x52,W
0994E:  MULLW  08
09950:  MOVF   FF3,W
09952:  ADDLW  64
09954:  MOVLB  6
09956:  MOVWF  xB5
09958:  CLRF   FAA
0995A:  MOVFF  6B5,FA9
0995E:  MOVFF  26B,FA8
09962:  BCF    FA6.6
09964:  BCF    FA6.7
09966:  BSF    FA6.2
09968:  MOVF   FF2,W
0996A:  MOVWF  00
0996C:  BCF    FF2.6
0996E:  BCF    FF2.7
09970:  MOVLB  F
09972:  MOVLW  55
09974:  MOVWF  FA7
09976:  MOVLW  AA
09978:  MOVWF  FA7
0997A:  BSF    FA6.1
0997C:  BTFSC  FA6.1
0997E:  BRA    997C
09980:  BCF    FA6.2
09982:  MOVF   00,W
09984:  IORWF  FF2,F
....................                delay_ms(10); 
09986:  MOVLW  0A
09988:  MOVLB  6
0998A:  MOVWF  xC7
0998C:  MOVLB  0
0998E:  CALL   20B8
....................                GuardaEEPROM=ON; 
09992:  MOVLB  1
09994:  BSF    x05.5
09996:  MOVLB  2
....................             } 
....................          } 
....................           
....................          if(RX_Buffer[4]==0x0d){//Tecla Arriba Oprimida 
09998:  MOVF   34,W
0999A:  SUBLW  0D
0999C:  BNZ   99A4
....................             Setpoint++; 
0999E:  INCF   x6B,F
....................             RX_Buffer[4]=0x00;   
099A0:  CLRF   34
....................             RX_Buffer2[4]=0x00;             
099A2:  CLRF   3F
....................             //BorraBuffer(); 
....................          } 
....................           
....................          if(RX_Buffer[4]==0x0c){//Tecla Abajo Oprimida 
099A4:  MOVF   34,W
099A6:  SUBLW  0C
099A8:  BNZ   99B0
....................             Setpoint--; 
099AA:  DECF   x6B,F
....................             RX_Buffer[4]=0x00; 
099AC:  CLRF   34
....................             RX_Buffer2[4]=0x00;             
099AE:  CLRF   3F
....................             //BorraBuffer(); 
....................          } 
....................           
....................       printf("tsettem.txt=\"%03u\"",Setpoint); 
099B0:  MOVLW  86
099B2:  MOVWF  FF6
099B4:  MOVLW  0B
099B6:  MOVWF  FF7
099B8:  MOVLW  00
099BA:  MOVWF  FF8
099BC:  MOVLW  0D
099BE:  MOVLB  6
099C0:  MOVWF  xBA
099C2:  MOVLB  0
099C4:  CALL   5BEA
099C8:  MOVFF  26B,6BA
099CC:  MOVLW  03
099CE:  MOVLB  6
099D0:  MOVWF  xBB
099D2:  MOVLB  0
099D4:  CALL   5C6E
099D8:  MOVLW  22
099DA:  BTFSS  F9E.4
099DC:  BRA    99DA
099DE:  MOVWF  FAD
....................       SendDataDisplay(); 
099E0:  CALL   416A
....................     }else if(Menu==5){//Menu de Nivel de Vacio 
099E4:  GOTO   F7C2
099E8:  MOVLB  2
099EA:  MOVF   x5D,W
099EC:  SUBLW  05
099EE:  BTFSS  FD8.2
099F0:  BRA    9BE4
....................       printf("fecha.txt=\"Fecha:%02u/%02u/20%02u Hora: %02u:%02u:%02u\"",Dia,Mes,Year,Hora,Minuto,Segundo); 
099F2:  MOVLW  9A
099F4:  MOVWF  FF6
099F6:  MOVLW  0B
099F8:  MOVWF  FF7
099FA:  MOVLW  00
099FC:  MOVWF  FF8
099FE:  MOVLW  11
09A00:  MOVLB  6
09A02:  MOVWF  xBA
09A04:  MOVLB  0
09A06:  CALL   5BEA
09A0A:  MOVFF  2A0,6BA
09A0E:  MOVLW  01
09A10:  MOVLB  6
09A12:  MOVWF  xBB
09A14:  MOVLB  0
09A16:  CALL   5C6E
09A1A:  MOVLW  2F
09A1C:  BTFSS  F9E.4
09A1E:  BRA    9A1C
09A20:  MOVWF  FAD
09A22:  MOVFF  29F,6BA
09A26:  MOVLW  01
09A28:  MOVLB  6
09A2A:  MOVWF  xBB
09A2C:  MOVLB  0
09A2E:  CALL   5C6E
09A32:  MOVLW  2F
09A34:  BTFSS  F9E.4
09A36:  BRA    9A34
09A38:  MOVWF  FAD
09A3A:  MOVLW  32
09A3C:  BTFSS  F9E.4
09A3E:  BRA    9A3C
09A40:  MOVWF  FAD
09A42:  MOVLW  30
09A44:  BTFSS  F9E.4
09A46:  BRA    9A44
09A48:  MOVWF  FAD
09A4A:  MOVFF  29E,6BA
09A4E:  MOVLW  01
09A50:  MOVLB  6
09A52:  MOVWF  xBB
09A54:  MOVLB  0
09A56:  CALL   5C6E
09A5A:  MOVLW  BB
09A5C:  MOVWF  FF6
09A5E:  MOVLW  0B
09A60:  MOVWF  FF7
09A62:  MOVLW  00
09A64:  MOVWF  FF8
09A66:  MOVLW  07
09A68:  MOVLB  6
09A6A:  MOVWF  xBA
09A6C:  MOVLB  0
09A6E:  CALL   5BEA
09A72:  MOVFF  2A1,6BA
09A76:  MOVLW  01
09A78:  MOVLB  6
09A7A:  MOVWF  xBB
09A7C:  MOVLB  0
09A7E:  CALL   5C6E
09A82:  MOVLW  3A
09A84:  BTFSS  F9E.4
09A86:  BRA    9A84
09A88:  MOVWF  FAD
09A8A:  MOVFF  2A2,6BA
09A8E:  MOVLW  01
09A90:  MOVLB  6
09A92:  MOVWF  xBB
09A94:  MOVLB  0
09A96:  CALL   5C6E
09A9A:  MOVLW  3A
09A9C:  BTFSS  F9E.4
09A9E:  BRA    9A9C
09AA0:  MOVWF  FAD
09AA2:  MOVFF  2A3,6BA
09AA6:  MOVLW  01
09AA8:  MOVLB  6
09AAA:  MOVWF  xBB
09AAC:  MOVLB  0
09AAE:  CALL   5C6E
09AB2:  MOVLW  22
09AB4:  BTFSS  F9E.4
09AB6:  BRA    9AB4
09AB8:  MOVWF  FAD
....................       SendDataDisplay(); 
09ABA:  CALL   416A
....................          if(Nivel<25) 
09ABE:  MOVLB  2
09AC0:  MOVF   x79,F
09AC2:  BNZ   9AD0
09AC4:  MOVF   x78,W
09AC6:  SUBLW  18
09AC8:  BNC   9AD0
....................             Nivel=100; 
09ACA:  CLRF   x79
09ACC:  MOVLW  64
09ACE:  MOVWF  x78
....................          if(Nivel>100) 
09AD0:  MOVF   x79,F
09AD2:  BNZ   9ADA
09AD4:  MOVF   x78,W
09AD6:  SUBLW  64
09AD8:  BC    9AE0
....................             Nivel=25; 
09ADA:  CLRF   x79
09ADC:  MOVLW  19
09ADE:  MOVWF  x78
....................           
....................          if(RX_Buffer[4]==0x11){//Selecciono Regresar 
09AE0:  MOVF   34,W
09AE2:  SUBLW  11
09AE4:  BNZ   9B88
....................             Segundos=OFF; 
09AE6:  MOVLB  1
09AE8:  BCF    x05.4
....................             Minutos=OFF;             
09AEA:  BCF    x05.3
....................             tiempo_secado=0; 
09AEC:  MOVLB  2
09AEE:  CLRF   x6F
....................             printf("page CicloPersona"); 
09AF0:  MOVLW  D2
09AF2:  MOVWF  FF6
09AF4:  MOVLW  0B
09AF6:  MOVWF  FF7
09AF8:  MOVLW  00
09AFA:  MOVWF  FF8
09AFC:  MOVLB  0
09AFE:  CALL   4138
....................             SendDataDisplay();   
09B02:  CALL   416A
....................             if(!GuardaEEPROM){     
09B06:  MOVLB  1
09B08:  BTFSC  x05.5
09B0A:  BRA    9B86
....................                CiclosPersonalizados[CicloLibre-1].NivelVacio=Nivel; 
09B0C:  MOVLW  01
09B0E:  MOVLB  2
09B10:  SUBWF  x52,W
09B12:  MULLW  08
09B14:  MOVF   FF3,W
09B16:  MOVLB  6
09B18:  CLRF   xB6
09B1A:  MOVWF  xB5
09B1C:  MOVLW  06
09B1E:  ADDWF  xB5,W
09B20:  MOVWF  01
09B22:  MOVLW  00
09B24:  ADDWFC xB6,W
09B26:  MOVWF  03
09B28:  MOVF   01,W
09B2A:  ADDLW  ED
09B2C:  MOVWF  FE9
09B2E:  MOVLW  05
09B30:  ADDWFC 03,W
09B32:  MOVWF  FEA
09B34:  MOVFF  278,FEF
....................                write_eeprom(106+((CicloLibre-1)*8),Nivel); 
09B38:  MOVLW  01
09B3A:  MOVLB  2
09B3C:  SUBWF  x52,W
09B3E:  MULLW  08
09B40:  MOVF   FF3,W
09B42:  ADDLW  6A
09B44:  MOVLB  6
09B46:  MOVWF  xB5
09B48:  CLRF   FAA
09B4A:  MOVFF  6B5,FA9
09B4E:  MOVFF  278,FA8
09B52:  BCF    FA6.6
09B54:  BCF    FA6.7
09B56:  BSF    FA6.2
09B58:  MOVF   FF2,W
09B5A:  MOVWF  00
09B5C:  BCF    FF2.6
09B5E:  BCF    FF2.7
09B60:  MOVLB  F
09B62:  MOVLW  55
09B64:  MOVWF  FA7
09B66:  MOVLW  AA
09B68:  MOVWF  FA7
09B6A:  BSF    FA6.1
09B6C:  BTFSC  FA6.1
09B6E:  BRA    9B6C
09B70:  BCF    FA6.2
09B72:  MOVF   00,W
09B74:  IORWF  FF2,F
....................                delay_ms(20);             
09B76:  MOVLW  14
09B78:  MOVLB  6
09B7A:  MOVWF  xC7
09B7C:  MOVLB  0
09B7E:  CALL   20B8
....................                GuardaEEPROM=ON; 
09B82:  MOVLB  1
09B84:  BSF    x05.5
09B86:  MOVLB  2
....................             } 
....................          } 
....................           
....................          if(RX_Buffer[4]==0x0d){//Tecla Arriba Oprimida 
09B88:  MOVF   34,W
09B8A:  SUBLW  0D
09B8C:  BNZ   9B98
....................             Nivel++; 
09B8E:  INCF   x78,F
09B90:  BTFSC  FD8.2
09B92:  INCF   x79,F
....................             RX_Buffer[4]=0x00;             
09B94:  CLRF   34
....................             RX_Buffer2[4]=0x00;             
09B96:  CLRF   3F
....................             //BorraBuffer(); 
....................          } 
....................           
....................          if(RX_Buffer[4]==0x0c){//Tecla Abajo Oprimida 
09B98:  MOVF   34,W
09B9A:  SUBLW  0C
09B9C:  BNZ   9BAA
....................             Nivel--; 
09B9E:  MOVF   x78,W
09BA0:  BTFSC  FD8.2
09BA2:  DECF   x79,F
09BA4:  DECF   x78,F
....................             RX_Buffer[4]=0x00; 
09BA6:  CLRF   34
....................             RX_Buffer2[4]=0x00;             
09BA8:  CLRF   3F
....................             //BorraBuffer(); 
....................          } 
....................           
....................       printf("tnivel.txt=\"%Lu\"",Nivel); 
09BAA:  MOVLW  E4
09BAC:  MOVWF  FF6
09BAE:  MOVLW  0B
09BB0:  MOVWF  FF7
09BB2:  MOVLW  00
09BB4:  MOVWF  FF8
09BB6:  MOVLW  0C
09BB8:  MOVLB  6
09BBA:  MOVWF  xBA
09BBC:  MOVLB  0
09BBE:  CALL   5BEA
09BC2:  MOVLW  10
09BC4:  MOVWF  FE9
09BC6:  MOVFF  279,6BA
09BCA:  MOVFF  278,6B9
09BCE:  CALL   5D64
09BD2:  MOVLW  22
09BD4:  BTFSS  F9E.4
09BD6:  BRA    9BD4
09BD8:  MOVWF  FAD
....................       SendDataDisplay(); 
09BDA:  CALL   416A
....................    }else if(Menu==6){ // Menu de Prueba de Componentes 
09BDE:  GOTO   F7C2
09BE2:  MOVLB  2
09BE4:  MOVF   x5D,W
09BE6:  SUBLW  06
09BE8:  BTFSS  FD8.2
09BEA:  GOTO   A42E
....................          PruebaEstados=ON; 
09BEE:  MOVLB  1
09BF0:  BSF    x04.5
....................           
....................          printf("t0.txt=\"Test %02u\"",Codigo); 
09BF2:  MOVLW  F6
09BF4:  MOVWF  FF6
09BF6:  MOVLW  0B
09BF8:  MOVWF  FF7
09BFA:  MOVLW  00
09BFC:  MOVWF  FF8
09BFE:  MOVLW  0D
09C00:  MOVLB  6
09C02:  MOVWF  xBA
09C04:  MOVLB  0
09C06:  CALL   5BEA
09C0A:  MOVFF  25C,6BA
09C0E:  MOVLW  01
09C10:  MOVLB  6
09C12:  MOVWF  xBB
09C14:  MOVLB  0
09C16:  CALL   5C6E
09C1A:  MOVLW  22
09C1C:  BTFSS  F9E.4
09C1E:  BRA    9C1C
09C20:  MOVWF  FAD
....................          SendDataDisplay(); 
09C22:  CALL   416A
....................           
....................          if(RX_Buffer[4]==0x01){//Oprimio EV Suministro 
09C26:  DECFSZ 34,W
09C28:  BRA    9C32
....................             EstadoSuministro=!EstadoSuministro; 
09C2A:  MOVLB  1
09C2C:  BTG    x04.3
....................             RX_Buffer[4]=0x00; 
09C2E:  CLRF   34
....................             RX_Buffer2[4]=0x00; 
09C30:  CLRF   3F
....................          } 
....................           
....................          if(EstadoSuministro){ 
09C32:  MOVLB  1
09C34:  BTFSS  x04.3
09C36:  BRA    9C54
....................             printf("b0.bco=2016"); 
09C38:  MOVLW  0A
09C3A:  MOVWF  FF6
09C3C:  MOVLW  0C
09C3E:  MOVWF  FF7
09C40:  MOVLW  00
09C42:  MOVWF  FF8
09C44:  MOVLB  0
09C46:  CALL   4138
....................             SendDataDisplay();  
09C4A:  CALL   416A
....................             suministroAire=ON; 
09C4E:  BSF    xF7.0
....................          }else{ 
09C50:  BRA    9C6C
09C52:  MOVLB  1
....................             printf("b0.bco=63488"); 
09C54:  MOVLW  16
09C56:  MOVWF  FF6
09C58:  MOVLW  0C
09C5A:  MOVWF  FF7
09C5C:  MOVLW  00
09C5E:  MOVWF  FF8
09C60:  MOVLB  0
09C62:  CALL   4138
....................             SendDataDisplay();  
09C66:  CALL   416A
....................             suministroAire=OFF; 
09C6A:  BCF    xF7.0
....................          } 
....................           
....................          if(RX_Buffer[4]==0x02){//Oprimio EV Desfogue 
09C6C:  MOVF   34,W
09C6E:  SUBLW  02
09C70:  BNZ   9C7A
....................             EstadoDesfogue=!EstadoDesfogue; 
09C72:  MOVLB  1
09C74:  BTG    x04.2
....................             RX_Buffer[4]=0x00; 
09C76:  CLRF   34
....................             RX_Buffer2[4]=0x00; 
09C78:  CLRF   3F
....................          } 
....................           
....................          if(EstadoDesfogue){ 
09C7A:  MOVLB  1
09C7C:  BTFSS  x04.2
09C7E:  BRA    9C9C
....................             printf("b1.bco=2016"); 
09C80:  MOVLW  24
09C82:  MOVWF  FF6
09C84:  MOVLW  0C
09C86:  MOVWF  FF7
09C88:  MOVLW  00
09C8A:  MOVWF  FF8
09C8C:  MOVLB  0
09C8E:  CALL   4138
....................             SendDataDisplay();  
09C92:  CALL   416A
....................             Desfogue=ON; 
09C96:  BSF    xF8.0
....................          }else{ 
09C98:  BRA    9CB4
09C9A:  MOVLB  1
....................             printf("b1.bco=63488"); 
09C9C:  MOVLW  30
09C9E:  MOVWF  FF6
09CA0:  MOVLW  0C
09CA2:  MOVWF  FF7
09CA4:  MOVLW  00
09CA6:  MOVWF  FF8
09CA8:  MOVLB  0
09CAA:  CALL   4138
....................             SendDataDisplay();  
09CAE:  CALL   416A
....................             Desfogue=OFF; 
09CB2:  BCF    xF8.0
....................          } 
....................           
....................          if(RX_Buffer[4]==0x03){//Oprimio EV Paso 
09CB4:  MOVF   34,W
09CB6:  SUBLW  03
09CB8:  BNZ   9CC2
....................             EstadoPaso=!EstadoPaso; 
09CBA:  MOVLB  1
09CBC:  BTG    x05.6
....................             RX_Buffer[4]=0x00; 
09CBE:  CLRF   34
....................             RX_Buffer2[4]=0x00; 
09CC0:  CLRF   3F
....................          } 
....................           
....................          if(EstadoPaso){ 
09CC2:  MOVLB  1
09CC4:  BTFSS  x05.6
09CC6:  BRA    9CE4
....................             printf("b2.bco=2016"); 
09CC8:  MOVLW  3E
09CCA:  MOVWF  FF6
09CCC:  MOVLW  0C
09CCE:  MOVWF  FF7
09CD0:  MOVLW  00
09CD2:  MOVWF  FF8
09CD4:  MOVLB  0
09CD6:  CALL   4138
....................             SendDataDisplay();  
09CDA:  CALL   416A
....................             Paso=ON; 
09CDE:  BSF    xF7.6
....................          }else{ 
09CE0:  BRA    9CFC
09CE2:  MOVLB  1
....................             printf("b2.bco=63488"); 
09CE4:  MOVLW  4A
09CE6:  MOVWF  FF6
09CE8:  MOVLW  0C
09CEA:  MOVWF  FF7
09CEC:  MOVLW  00
09CEE:  MOVWF  FF8
09CF0:  MOVLB  0
09CF2:  CALL   4138
....................             SendDataDisplay();  
09CF6:  CALL   416A
....................             Paso=OFF; 
09CFA:  BCF    xF7.6
....................          } 
....................          
....................          if(RX_Buffer[4]==0x04){//Oprimio Vacio 
09CFC:  MOVF   34,W
09CFE:  SUBLW  04
09D00:  BNZ   9D0A
....................             EstadoVacio=!EstadoVacio; 
09D02:  MOVLB  1
09D04:  BTG    x05.7
....................             RX_Buffer[4]=0x00; 
09D06:  CLRF   34
....................             RX_Buffer2[4]=0x00; 
09D08:  CLRF   3F
....................          } 
....................           
....................          if(EstadoVacio){ 
09D0A:  MOVLB  1
09D0C:  BTFSS  x05.7
09D0E:  BRA    9D2C
....................             printf("b3.bco=2016"); 
09D10:  MOVLW  58
09D12:  MOVWF  FF6
09D14:  MOVLW  0C
09D16:  MOVWF  FF7
09D18:  MOVLW  00
09D1A:  MOVWF  FF8
09D1C:  MOVLB  0
09D1E:  CALL   4138
....................             SendDataDisplay();  
09D22:  CALL   416A
....................             outVacio=ON; 
09D26:  BSF    xF7.7
....................          }else{ 
09D28:  BRA    9D44
09D2A:  MOVLB  1
....................             printf("b3.bco=63488"); 
09D2C:  MOVLW  64
09D2E:  MOVWF  FF6
09D30:  MOVLW  0C
09D32:  MOVWF  FF7
09D34:  MOVLW  00
09D36:  MOVWF  FF8
09D38:  MOVLB  0
09D3A:  CALL   4138
....................             SendDataDisplay();  
09D3E:  CALL   416A
....................             outVacio=OFF; 
09D42:  BCF    xF7.7
....................          } 
....................           
....................          if(RX_Buffer[4]==0x05){//Oprimio Aire 
09D44:  MOVF   34,W
09D46:  SUBLW  05
09D48:  BNZ   9D52
....................             EstadoAire=!EstadoAire; 
09D4A:  MOVLB  1
09D4C:  BTG    x04.4
....................             RX_Buffer[4]=0x00; 
09D4E:  CLRF   34
....................             RX_Buffer2[4]=0x00; 
09D50:  CLRF   3F
....................          } 
....................           
....................          if(EstadoAire){ 
09D52:  MOVLB  1
09D54:  BTFSS  x04.4
09D56:  BRA    9D74
....................             printf("b4.bco=2016"); 
09D58:  MOVLW  72
09D5A:  MOVWF  FF6
09D5C:  MOVLW  0C
09D5E:  MOVWF  FF7
09D60:  MOVLW  00
09D62:  MOVWF  FF8
09D64:  MOVLB  0
09D66:  CALL   4138
....................             SendDataDisplay();  
09D6A:  CALL   416A
....................             Aire=ON; 
09D6E:  BSF    xF8.1
....................          }else{ 
09D70:  BRA    9D8C
09D72:  MOVLB  1
....................             printf("b4.bco=63488"); 
09D74:  MOVLW  7E
09D76:  MOVWF  FF6
09D78:  MOVLW  0C
09D7A:  MOVWF  FF7
09D7C:  MOVLW  00
09D7E:  MOVWF  FF8
09D80:  MOVLB  0
09D82:  CALL   4138
....................             SendDataDisplay();  
09D86:  CALL   416A
....................             Aire=OFF; 
09D8A:  BCF    xF8.1
....................          } 
....................           
....................          if(RX_Buffer[4]==0x06){//Oprimio Bomba Vacio 
09D8C:  MOVF   34,W
09D8E:  SUBLW  06
09D90:  BNZ   9D9A
....................             EstadoBomba=!EstadoBomba; 
09D92:  MOVLB  1
09D94:  BTG    x06.7
....................             RX_Buffer[4]=0x00; 
09D96:  CLRF   34
....................             RX_Buffer2[4]=0x00; 
09D98:  CLRF   3F
....................          } 
....................           
....................          if(EstadoBomba){ 
09D9A:  MOVLB  1
09D9C:  BTFSS  x06.7
09D9E:  BRA    9DCA
....................             printf("b5.bco=2016"); 
09DA0:  MOVLW  8C
09DA2:  MOVWF  FF6
09DA4:  MOVLW  0C
09DA6:  MOVWF  FF7
09DA8:  MOVLW  00
09DAA:  MOVWF  FF8
09DAC:  MOVLB  0
09DAE:  CALL   4138
....................             SendDataDisplay();  
09DB2:  CALL   416A
....................             if(ReservorioLleno) 
09DB6:  MOVLB  1
09DB8:  BTFSS  x09.5
09DBA:  BRA    9DC2
....................                bombaVacio=ON; 
09DBC:  MOVLB  0
09DBE:  BSF    xF7.2
....................             else 
09DC0:  BRA    9DC6
....................                bombaVacio=OFF; 
09DC2:  MOVLB  0
09DC4:  BCF    xF7.2
....................          }else{ 
09DC6:  BRA    9DE2
09DC8:  MOVLB  1
....................             printf("b5.bco=63488"); 
09DCA:  MOVLW  98
09DCC:  MOVWF  FF6
09DCE:  MOVLW  0C
09DD0:  MOVWF  FF7
09DD2:  MOVLW  00
09DD4:  MOVWF  FF8
09DD6:  MOVLB  0
09DD8:  CALL   4138
....................             SendDataDisplay();  
09DDC:  CALL   416A
....................             bombaVacio=OFF; 
09DE0:  BCF    xF7.2
....................          } 
....................           
....................          if(RX_Buffer[4]==0x07){//Oprimio EV Agua 
09DE2:  MOVF   34,W
09DE4:  SUBLW  07
09DE6:  BNZ   9DEE
....................             EstadoAguaEnfriador=!EstadoAguaEnfriador; 
09DE8:  BTG    xFB.7
....................             RX_Buffer[4]=0x00; 
09DEA:  CLRF   34
....................             RX_Buffer2[4]=0x00; 
09DEC:  CLRF   3F
....................          } 
....................           
....................          if(EstadoAguaEnfriador){ 
09DEE:  BTFSS  xFB.7
09DF0:  BRA    9E0A
....................             printf("b7.bco=2016"); 
09DF2:  MOVLW  A6
09DF4:  MOVWF  FF6
09DF6:  MOVLW  0C
09DF8:  MOVWF  FF7
09DFA:  MOVLW  00
09DFC:  MOVWF  FF8
09DFE:  CALL   4138
....................             SendDataDisplay();  
09E02:  CALL   416A
....................             aguaEnfriador=ON; 
09E06:  BSF    xF7.1
....................          }else{ 
09E08:  BRA    9E20
....................             printf("b7.bco=63488"); 
09E0A:  MOVLW  B2
09E0C:  MOVWF  FF6
09E0E:  MOVLW  0C
09E10:  MOVWF  FF7
09E12:  MOVLW  00
09E14:  MOVWF  FF8
09E16:  CALL   4138
....................             SendDataDisplay();  
09E1A:  CALL   416A
....................             aguaEnfriador=OFF; 
09E1E:  BCF    xF7.1
....................          } 
....................           
....................          if(RX_Buffer[4]==0x08){//Oprimio EV Suministro Vapor 
09E20:  MOVF   34,W
09E22:  SUBLW  08
09E24:  BNZ   9E2E
....................             EstadoSuministroV=!EstadoSuministroV; 
09E26:  MOVLB  1
09E28:  BTG    x02.0
....................             RX_Buffer[4]=0x00; 
09E2A:  CLRF   34
....................             RX_Buffer2[4]=0x00; 
09E2C:  CLRF   3F
....................          } 
....................           
....................          if(EstadoSuministroV){ 
09E2E:  MOVLB  1
09E30:  BTFSS  x02.0
09E32:  BRA    9E50
....................             printf("b6.bco=2016"); 
09E34:  MOVLW  C0
09E36:  MOVWF  FF6
09E38:  MOVLW  0C
09E3A:  MOVWF  FF7
09E3C:  MOVLW  00
09E3E:  MOVWF  FF8
09E40:  MOVLB  0
09E42:  CALL   4138
....................             SendDataDisplay();  
09E46:  CALL   416A
....................             suministroVapor=ON; 
09E4A:  BSF    xF7.5
....................          }else{ 
09E4C:  BRA    9E68
09E4E:  MOVLB  1
....................             printf("b6.bco=63488"); 
09E50:  MOVLW  CC
09E52:  MOVWF  FF6
09E54:  MOVLW  0C
09E56:  MOVWF  FF7
09E58:  MOVLW  00
09E5A:  MOVWF  FF8
09E5C:  MOVLB  0
09E5E:  CALL   4138
....................             SendDataDisplay();  
09E62:  CALL   416A
....................             suministroVapor=OFF; 
09E66:  BCF    xF7.5
....................          } 
....................           
....................          if(RX_Buffer[4]==0x09){//Oprimio Abrir Cierre 
09E68:  MOVF   34,W
09E6A:  SUBLW  09
09E6C:  BNZ   9E76
....................             EstadoCilindrosL=!EstadoCilindrosL; 
09E6E:  MOVLB  1
09E70:  BTG    x02.1
....................             RX_Buffer[4]=0x00; 
09E72:  CLRF   34
....................             RX_Buffer2[4]=0x00; 
09E74:  CLRF   3F
....................          } 
....................           
....................          if(EstadoCilindrosL){ 
09E76:  MOVLB  1
09E78:  BTFSS  x02.1
09E7A:  BRA    9E98
....................             printf("b12.bco=2016"); 
09E7C:  MOVLW  DA
09E7E:  MOVWF  FF6
09E80:  MOVLW  0C
09E82:  MOVWF  FF7
09E84:  MOVLW  00
09E86:  MOVWF  FF8
09E88:  MOVLB  0
09E8A:  CALL   4138
....................             SendDataDisplay();  
09E8E:  CALL   416A
....................             cilindroLimpio=OFF; 
09E92:  BCF    xF8.3
....................          }else{ 
09E94:  BRA    9EB0
09E96:  MOVLB  1
....................             printf("b12.bco=63488"); 
09E98:  MOVLW  E8
09E9A:  MOVWF  FF6
09E9C:  MOVLW  0C
09E9E:  MOVWF  FF7
09EA0:  MOVLW  00
09EA2:  MOVWF  FF8
09EA4:  MOVLB  0
09EA6:  CALL   4138
....................             SendDataDisplay();  
09EAA:  CALL   416A
....................             cilindroLimpio=ON; 
09EAE:  BSF    xF8.3
....................          } 
....................           
....................          if(RX_Buffer[4]==0x0a){//Oprimio Empaque 
09EB0:  MOVF   34,W
09EB2:  SUBLW  0A
09EB4:  BNZ   9EBE
....................             EstadoEmpaqueL=!EstadoEmpaqueL; 
09EB6:  MOVLB  1
09EB8:  BTG    x02.3
....................             RX_Buffer[4]=0x00; 
09EBA:  CLRF   34
....................             RX_Buffer2[4]=0x00; 
09EBC:  CLRF   3F
....................          } 
....................           
....................          if(EstadoEmpaqueL && DOORL){ 
09EBE:  MOVLB  1
09EC0:  BTFSS  x02.3
09EC2:  BRA    9EE6
09EC4:  BSF    F93.4
09EC6:  BTFSC  F81.4
09EC8:  BRA    9EE6
....................             printf("b16.bco=2016"); 
09ECA:  MOVLW  F6
09ECC:  MOVWF  FF6
09ECE:  MOVLW  0C
09ED0:  MOVWF  FF7
09ED2:  MOVLW  00
09ED4:  MOVWF  FF8
09ED6:  MOVLB  0
09ED8:  CALL   4138
....................             SendDataDisplay();  
09EDC:  CALL   416A
....................             empaqueLimpio=ON;             
09EE0:  BSF    xF7.3
....................          }else{ 
09EE2:  BRA    9EFE
09EE4:  MOVLB  1
....................             printf("b16.bco=63488"); 
09EE6:  MOVLW  04
09EE8:  MOVWF  FF6
09EEA:  MOVLW  0D
09EEC:  MOVWF  FF7
09EEE:  MOVLW  00
09EF0:  MOVWF  FF8
09EF2:  MOVLB  0
09EF4:  CALL   4138
....................             SendDataDisplay();  
09EF8:  CALL   416A
....................             empaqueLimpio=OFF; 
09EFC:  BCF    xF7.3
....................          } 
....................           
....................          if(RX_Buffer[4]==0x0b){//Oprimio Abrir Cierre 
09EFE:  MOVF   34,W
09F00:  SUBLW  0B
09F02:  BNZ   9F0C
....................             EstadoCilindrosS=!EstadoCilindrosS; 
09F04:  MOVLB  1
09F06:  BTG    x02.2
....................             RX_Buffer[4]=0x00; 
09F08:  CLRF   34
....................             RX_Buffer2[4]=0x00; 
09F0A:  CLRF   3F
....................          } 
....................           
....................          if(EstadoCilindrosS){ 
09F0C:  MOVLB  1
09F0E:  BTFSS  x02.2
09F10:  BRA    9F2E
....................             printf("b17.bco=2016"); 
09F12:  MOVLW  12
09F14:  MOVWF  FF6
09F16:  MOVLW  0D
09F18:  MOVWF  FF7
09F1A:  MOVLW  00
09F1C:  MOVWF  FF8
09F1E:  MOVLB  0
09F20:  CALL   4138
....................             SendDataDisplay();  
09F24:  CALL   416A
....................             cilindroSucio=OFF; 
09F28:  BCF    xF8.2
....................          }else{ 
09F2A:  BRA    9F46
09F2C:  MOVLB  1
....................             printf("b17.bco=63488"); 
09F2E:  MOVLW  20
09F30:  MOVWF  FF6
09F32:  MOVLW  0D
09F34:  MOVWF  FF7
09F36:  MOVLW  00
09F38:  MOVWF  FF8
09F3A:  MOVLB  0
09F3C:  CALL   4138
....................             SendDataDisplay();  
09F40:  CALL   416A
....................             cilindroSucio=ON; 
09F44:  BSF    xF8.2
....................          } 
....................           
....................          if(RX_Buffer[4]==0x0c){//Oprimio Empaque 
09F46:  MOVF   34,W
09F48:  SUBLW  0C
09F4A:  BNZ   9F54
....................             EstadoEmpaqueS=!EstadoEmpaqueS; 
09F4C:  MOVLB  1
09F4E:  BTG    x02.4
....................             RX_Buffer[4]=0x00; 
09F50:  CLRF   34
....................             RX_Buffer2[4]=0x00; 
09F52:  CLRF   3F
....................          } 
....................           
....................          if(EstadoEmpaqueS && DOORS){ 
09F54:  MOVLB  1
09F56:  BTFSS  x02.4
09F58:  BRA    9F7C
09F5A:  BSF    F93.3
09F5C:  BTFSC  F81.3
09F5E:  BRA    9F7C
....................             printf("b25.bco=2016"); 
09F60:  MOVLW  2E
09F62:  MOVWF  FF6
09F64:  MOVLW  0D
09F66:  MOVWF  FF7
09F68:  MOVLW  00
09F6A:  MOVWF  FF8
09F6C:  MOVLB  0
09F6E:  CALL   4138
....................             SendDataDisplay();  
09F72:  CALL   416A
....................             empaqueSucio=ON;             
09F76:  BSF    xF7.4
....................          }else{ 
09F78:  BRA    9F94
09F7A:  MOVLB  1
....................             printf("b25.bco=63488"); 
09F7C:  MOVLW  3C
09F7E:  MOVWF  FF6
09F80:  MOVLW  0D
09F82:  MOVWF  FF7
09F84:  MOVLW  00
09F86:  MOVWF  FF8
09F88:  MOVLB  0
09F8A:  CALL   4138
....................             SendDataDisplay();  
09F8E:  CALL   416A
....................             empaqueSucio=OFF; 
09F92:  BCF    xF7.4
....................          } 
....................           
....................          if(RX_Buffer[4]==0x0d){//Oprimio Buzzer 
09F94:  MOVF   34,W
09F96:  SUBLW  0D
09F98:  BNZ   9FA2
....................             EstadoBuzzer=!EstadoBuzzer; 
09F9A:  MOVLB  1
09F9C:  BTG    x06.0
....................             RX_Buffer[4]=0x00; 
09F9E:  CLRF   34
....................             RX_Buffer2[4]=0x00; 
09FA0:  CLRF   3F
....................          } 
....................           
....................          if(EstadoBuzzer){ 
09FA2:  MOVLB  1
09FA4:  BTFSS  x06.0
09FA6:  BRA    9FC2
....................             printf("b21.bco=2016"); 
09FA8:  MOVLW  4A
09FAA:  MOVWF  FF6
09FAC:  MOVLW  0D
09FAE:  MOVWF  FF7
09FB0:  MOVLW  00
09FB2:  MOVWF  FF8
09FB4:  MOVLB  0
09FB6:  CALL   4138
....................             SendDataDisplay();  
09FBA:  CALL   416A
....................          }else{ 
09FBE:  BRA    9FD8
09FC0:  MOVLB  1
....................             printf("b21.bco=63488"); 
09FC2:  MOVLW  58
09FC4:  MOVWF  FF6
09FC6:  MOVLW  0D
09FC8:  MOVWF  FF7
09FCA:  MOVLW  00
09FCC:  MOVWF  FF8
09FCE:  MOVLB  0
09FD0:  CALL   4138
....................             SendDataDisplay();  
09FD4:  CALL   416A
....................          } 
....................           
....................          if(RX_Buffer[4]==0x0e){//Oprimio Aux1 
09FD8:  MOVF   34,W
09FDA:  SUBLW  0E
09FDC:  BNZ   9FE4
....................             EstadoAux1=!EstadoAux1; 
09FDE:  BTG    xF8.7
....................             RX_Buffer[4]=0x00; 
09FE0:  CLRF   34
....................             RX_Buffer2[4]=0x00; 
09FE2:  CLRF   3F
....................          } 
....................           
....................          if(EstadoAux1){ 
09FE4:  BTFSS  xF8.7
09FE6:  BRA    A000
....................             seguroValvula=ON; 
09FE8:  BSF    xF8.5
....................             printf("b22.bco=2016"); 
09FEA:  MOVLW  66
09FEC:  MOVWF  FF6
09FEE:  MOVLW  0D
09FF0:  MOVWF  FF7
09FF2:  MOVLW  00
09FF4:  MOVWF  FF8
09FF6:  CALL   4138
....................             SendDataDisplay();  
09FFA:  CALL   416A
....................          }else{ 
09FFE:  BRA    A016
....................             seguroValvula=OFF; 
0A000:  BCF    xF8.5
....................             printf("b22.bco=63488"); 
0A002:  MOVLW  74
0A004:  MOVWF  FF6
0A006:  MOVLW  0D
0A008:  MOVWF  FF7
0A00A:  MOVLW  00
0A00C:  MOVWF  FF8
0A00E:  CALL   4138
....................             SendDataDisplay();  
0A012:  CALL   416A
....................          } 
....................           
....................          if(RX_Buffer[4]==0x0f){//Oprimio Aux2 
0A016:  MOVF   34,W
0A018:  SUBLW  0F
0A01A:  BNZ   A022
....................             EstadoAux2=!EstadoAux2; 
0A01C:  BTG    xF9.0
....................             RX_Buffer[4]=0x00; 
0A01E:  CLRF   34
....................             RX_Buffer2[4]=0x00; 
0A020:  CLRF   3F
....................          } 
....................           
....................          if(EstadoAux2){ 
0A022:  BTFSS  xF9.0
0A024:  BRA    A03E
....................             seguroValvula2=ON; 
0A026:  BSF    xF8.6
....................             printf("b28.bco=2016"); 
0A028:  MOVLW  82
0A02A:  MOVWF  FF6
0A02C:  MOVLW  0D
0A02E:  MOVWF  FF7
0A030:  MOVLW  00
0A032:  MOVWF  FF8
0A034:  CALL   4138
....................             SendDataDisplay();  
0A038:  CALL   416A
....................          }else{ 
0A03C:  BRA    A054
....................             seguroValvula2=OFF; 
0A03E:  BCF    xF8.6
....................             printf("b28.bco=63488"); 
0A040:  MOVLW  90
0A042:  MOVWF  FF6
0A044:  MOVLW  0D
0A046:  MOVWF  FF7
0A048:  MOVLW  00
0A04A:  MOVWF  FF8
0A04C:  CALL   4138
....................             SendDataDisplay();  
0A050:  CALL   416A
....................          } 
....................           
....................          if(DOORS){ 
0A054:  BSF    F93.3
0A056:  BTFSC  F81.3
0A058:  BRA    A070
....................             printf("b8.bco=2016"); 
0A05A:  MOVLW  9E
0A05C:  MOVWF  FF6
0A05E:  MOVLW  0D
0A060:  MOVWF  FF7
0A062:  MOVLW  00
0A064:  MOVWF  FF8
0A066:  CALL   4138
....................             SendDataDisplay();  
0A06A:  CALL   416A
....................          }else{ 
0A06E:  BRA    A084
....................             printf("b8.bco=63488"); 
0A070:  MOVLW  AA
0A072:  MOVWF  FF6
0A074:  MOVLW  0D
0A076:  MOVWF  FF7
0A078:  MOVLW  00
0A07A:  MOVWF  FF8
0A07C:  CALL   4138
....................             SendDataDisplay();  
0A080:  CALL   416A
....................          } 
....................           
....................          if(DOORL){ 
0A084:  BSF    F93.4
0A086:  BTFSC  F81.4
0A088:  BRA    A0A0
....................             printf("b26.bco=2016"); 
0A08A:  MOVLW  B8
0A08C:  MOVWF  FF6
0A08E:  MOVLW  0D
0A090:  MOVWF  FF7
0A092:  MOVLW  00
0A094:  MOVWF  FF8
0A096:  CALL   4138
....................             SendDataDisplay();  
0A09A:  CALL   416A
....................          }else{ 
0A09E:  BRA    A0B4
....................             printf("b26.bco=63488"); 
0A0A0:  MOVLW  C6
0A0A2:  MOVWF  FF6
0A0A4:  MOVLW  0D
0A0A6:  MOVWF  FF7
0A0A8:  MOVLW  00
0A0AA:  MOVWF  FF8
0A0AC:  CALL   4138
....................             SendDataDisplay();  
0A0B0:  CALL   416A
....................          } 
....................           
....................          if(EMPAQUEL){ 
0A0B4:  BSF    F93.2
0A0B6:  BTFSC  F81.2
0A0B8:  BRA    A0D0
....................             printf("b9.bco=2016"); 
0A0BA:  MOVLW  D4
0A0BC:  MOVWF  FF6
0A0BE:  MOVLW  0D
0A0C0:  MOVWF  FF7
0A0C2:  MOVLW  00
0A0C4:  MOVWF  FF8
0A0C6:  CALL   4138
....................             SendDataDisplay();  
0A0CA:  CALL   416A
....................          }else{ 
0A0CE:  BRA    A0E4
....................             printf("b9.bco=63488"); 
0A0D0:  MOVLW  E0
0A0D2:  MOVWF  FF6
0A0D4:  MOVLW  0D
0A0D6:  MOVWF  FF7
0A0D8:  MOVLW  00
0A0DA:  MOVWF  FF8
0A0DC:  CALL   4138
....................             SendDataDisplay();  
0A0E0:  CALL   416A
....................          } 
....................           
....................          if(EMPAQUES){ 
0A0E4:  BSF    F93.1
0A0E6:  BTFSC  F81.1
0A0E8:  BRA    A100
....................             printf("b11.bco=2016"); 
0A0EA:  MOVLW  EE
0A0EC:  MOVWF  FF6
0A0EE:  MOVLW  0D
0A0F0:  MOVWF  FF7
0A0F2:  MOVLW  00
0A0F4:  MOVWF  FF8
0A0F6:  CALL   4138
....................             SendDataDisplay();  
0A0FA:  CALL   416A
....................          }else{ 
0A0FE:  BRA    A114
....................             printf("b11.bco=63488"); 
0A100:  MOVLW  FC
0A102:  MOVWF  FF6
0A104:  MOVLW  0D
0A106:  MOVWF  FF7
0A108:  MOVLW  00
0A10A:  MOVWF  FF8
0A10C:  CALL   4138
....................             SendDataDisplay();  
0A110:  CALL   416A
....................          } 
....................           
....................          if(STOP){ 
0A114:  BSF    F93.0
0A116:  BTFSC  F81.0
0A118:  BRA    A130
....................             printf("b10.bco=2016"); 
0A11A:  MOVLW  0A
0A11C:  MOVWF  FF6
0A11E:  MOVLW  0E
0A120:  MOVWF  FF7
0A122:  MOVLW  00
0A124:  MOVWF  FF8
0A126:  CALL   4138
....................             SendDataDisplay();  
0A12A:  CALL   416A
....................          }else{ 
0A12E:  BRA    A144
....................             printf("b10.bco=63488"); 
0A130:  MOVLW  18
0A132:  MOVWF  FF6
0A134:  MOVLW  0E
0A136:  MOVWF  FF7
0A138:  MOVLW  00
0A13A:  MOVWF  FF8
0A13C:  CALL   4138
....................             SendDataDisplay();  
0A140:  CALL   416A
....................          } 
....................           
....................          if(LOWB){ 
0A144:  BSF    F93.5
0A146:  BTFSC  F81.5
0A148:  BRA    A160
....................             printf("b23.bco=2016"); 
0A14A:  MOVLW  26
0A14C:  MOVWF  FF6
0A14E:  MOVLW  0E
0A150:  MOVWF  FF7
0A152:  MOVLW  00
0A154:  MOVWF  FF8
0A156:  CALL   4138
....................             SendDataDisplay();  
0A15A:  CALL   416A
....................          }else{ 
0A15E:  BRA    A174
....................             printf("b23.bco=63488"); 
0A160:  MOVLW  34
0A162:  MOVWF  FF6
0A164:  MOVLW  0E
0A166:  MOVWF  FF7
0A168:  MOVLW  00
0A16A:  MOVWF  FF8
0A16C:  CALL   4138
....................             SendDataDisplay();  
0A170:  CALL   416A
....................          } 
....................           
....................          if(BLOQUEOL){ 
0A174:  BSF    F93.7
0A176:  BTFSC  F81.7
0A178:  BRA    A190
....................             printf("b24.bco=2016"); 
0A17A:  MOVLW  42
0A17C:  MOVWF  FF6
0A17E:  MOVLW  0E
0A180:  MOVWF  FF7
0A182:  MOVLW  00
0A184:  MOVWF  FF8
0A186:  CALL   4138
....................             SendDataDisplay();  
0A18A:  CALL   416A
....................          }else{ 
0A18E:  BRA    A1A4
....................             printf("b24.bco=63488"); 
0A190:  MOVLW  50
0A192:  MOVWF  FF6
0A194:  MOVLW  0E
0A196:  MOVWF  FF7
0A198:  MOVLW  00
0A19A:  MOVWF  FF8
0A19C:  CALL   4138
....................             SendDataDisplay();  
0A1A0:  CALL   416A
....................          } 
....................           
....................          if(BLOQUEOS){ 
0A1A4:  BSF    F93.6
0A1A6:  BTFSC  F81.6
0A1A8:  BRA    A1C0
....................             printf("b27.bco=2016"); 
0A1AA:  MOVLW  5E
0A1AC:  MOVWF  FF6
0A1AE:  MOVLW  0E
0A1B0:  MOVWF  FF7
0A1B2:  MOVLW  00
0A1B4:  MOVWF  FF8
0A1B6:  CALL   4138
....................             SendDataDisplay();  
0A1BA:  CALL   416A
....................          }else{ 
0A1BE:  BRA    A1D4
....................             printf("b27.bco=63488"); 
0A1C0:  MOVLW  6C
0A1C2:  MOVWF  FF6
0A1C4:  MOVLW  0E
0A1C6:  MOVWF  FF7
0A1C8:  MOVLW  00
0A1CA:  MOVWF  FF8
0A1CC:  CALL   4138
....................             SendDataDisplay();  
0A1D0:  CALL   416A
....................          }          
....................                    
....................          printf("b13.txt=\"ADC0:%3.0f\"",sensores(0));          
0A1D4:  MOVLB  6
0A1D6:  CLRF   xBB
0A1D8:  MOVLB  0
0A1DA:  CALL   41A8
0A1DE:  MOVFF  00,6B5
0A1E2:  MOVFF  01,6B6
0A1E6:  MOVFF  02,6B7
0A1EA:  MOVFF  03,6B8
0A1EE:  MOVLW  7A
0A1F0:  MOVWF  FF6
0A1F2:  MOVLW  0E
0A1F4:  MOVWF  FF7
0A1F6:  MOVLW  00
0A1F8:  MOVWF  FF8
0A1FA:  MOVLW  0E
0A1FC:  MOVLB  6
0A1FE:  MOVWF  xBA
0A200:  MOVLB  0
0A202:  CALL   5BEA
0A206:  MOVLW  02
0A208:  MOVWF  FE9
0A20A:  MOVFF  6B8,6BD
0A20E:  MOVFF  6B7,6BC
0A212:  MOVFF  6B6,6BB
0A216:  MOVFF  6B5,6BA
0A21A:  MOVLB  6
0A21C:  CLRF   xBE
0A21E:  MOVLB  0
0A220:  CALL   5ED2
0A224:  MOVLW  22
0A226:  BTFSS  F9E.4
0A228:  BRA    A226
0A22A:  MOVWF  FAD
....................          SendDataDisplay(); 
0A22C:  CALL   416A
....................          printf("b14.txt=\"ADC1:%3.0f\"",sensores(1));          
0A230:  MOVLW  01
0A232:  MOVLB  6
0A234:  MOVWF  xBB
0A236:  MOVLB  0
0A238:  CALL   41A8
0A23C:  MOVFF  00,6B5
0A240:  MOVFF  01,6B6
0A244:  MOVFF  02,6B7
0A248:  MOVFF  03,6B8
0A24C:  MOVLW  90
0A24E:  MOVWF  FF6
0A250:  MOVLW  0E
0A252:  MOVWF  FF7
0A254:  MOVLW  00
0A256:  MOVWF  FF8
0A258:  MOVLW  0E
0A25A:  MOVLB  6
0A25C:  MOVWF  xBA
0A25E:  MOVLB  0
0A260:  CALL   5BEA
0A264:  MOVLW  02
0A266:  MOVWF  FE9
0A268:  MOVFF  6B8,6BD
0A26C:  MOVFF  6B7,6BC
0A270:  MOVFF  6B6,6BB
0A274:  MOVFF  6B5,6BA
0A278:  MOVLB  6
0A27A:  CLRF   xBE
0A27C:  MOVLB  0
0A27E:  CALL   5ED2
0A282:  MOVLW  22
0A284:  BTFSS  F9E.4
0A286:  BRA    A284
0A288:  MOVWF  FAD
....................          SendDataDisplay(); 
0A28A:  CALL   416A
....................          printf("b15.txt=\"A4:%3.0f %03Lu\"",sensores(4),PresionPreCamara); 
0A28E:  MOVLW  04
0A290:  MOVLB  6
0A292:  MOVWF  xBB
0A294:  MOVLB  0
0A296:  CALL   41A8
0A29A:  MOVFF  00,6B5
0A29E:  MOVFF  01,6B6
0A2A2:  MOVFF  02,6B7
0A2A6:  MOVFF  03,6B8
0A2AA:  MOVLW  A6
0A2AC:  MOVWF  FF6
0A2AE:  MOVLW  0E
0A2B0:  MOVWF  FF7
0A2B2:  MOVLW  00
0A2B4:  MOVWF  FF8
0A2B6:  MOVLW  0C
0A2B8:  MOVLB  6
0A2BA:  MOVWF  xBA
0A2BC:  MOVLB  0
0A2BE:  CALL   5BEA
0A2C2:  MOVLW  02
0A2C4:  MOVWF  FE9
0A2C6:  MOVFF  6B8,6BD
0A2CA:  MOVFF  6B7,6BC
0A2CE:  MOVFF  6B6,6BB
0A2D2:  MOVFF  6B5,6BA
0A2D6:  MOVLB  6
0A2D8:  CLRF   xBE
0A2DA:  MOVLB  0
0A2DC:  CALL   5ED2
0A2E0:  MOVLW  20
0A2E2:  BTFSS  F9E.4
0A2E4:  BRA    A2E2
0A2E6:  MOVWF  FAD
0A2E8:  MOVLW  0A
0A2EA:  MOVWF  FE9
0A2EC:  MOVFF  27F,6BA
0A2F0:  MOVFF  27E,6B9
0A2F4:  CALL   5D64
0A2F8:  MOVLW  22
0A2FA:  BTFSS  F9E.4
0A2FC:  BRA    A2FA
0A2FE:  MOVWF  FAD
....................          SendDataDisplay(); 
0A300:  CALL   416A
....................          printf("b18.txt=\"A5:%3.0f %03Lu\"",sensores(5),PresionCamara); 
0A304:  MOVLW  05
0A306:  MOVLB  6
0A308:  MOVWF  xBB
0A30A:  MOVLB  0
0A30C:  CALL   41A8
0A310:  MOVFF  00,6B5
0A314:  MOVFF  01,6B6
0A318:  MOVFF  02,6B7
0A31C:  MOVFF  03,6B8
0A320:  MOVLW  C0
0A322:  MOVWF  FF6
0A324:  MOVLW  0E
0A326:  MOVWF  FF7
0A328:  MOVLW  00
0A32A:  MOVWF  FF8
0A32C:  MOVLW  0C
0A32E:  MOVLB  6
0A330:  MOVWF  xBA
0A332:  MOVLB  0
0A334:  CALL   5BEA
0A338:  MOVLW  02
0A33A:  MOVWF  FE9
0A33C:  MOVFF  6B8,6BD
0A340:  MOVFF  6B7,6BC
0A344:  MOVFF  6B6,6BB
0A348:  MOVFF  6B5,6BA
0A34C:  MOVLB  6
0A34E:  CLRF   xBE
0A350:  MOVLB  0
0A352:  CALL   5ED2
0A356:  MOVLW  20
0A358:  BTFSS  F9E.4
0A35A:  BRA    A358
0A35C:  MOVWF  FAD
0A35E:  MOVLW  0A
0A360:  MOVWF  FE9
0A362:  MOVFF  27D,6BA
0A366:  MOVFF  27C,6B9
0A36A:  CALL   5D64
0A36E:  MOVLW  22
0A370:  BTFSS  F9E.4
0A372:  BRA    A370
0A374:  MOVWF  FAD
....................          SendDataDisplay(); 
0A376:  CALL   416A
....................          printf("b19.txt=\"T2:%3.1f\"",Temperatura2); 
0A37A:  MOVLW  DA
0A37C:  MOVWF  FF6
0A37E:  MOVLW  0E
0A380:  MOVWF  FF7
0A382:  MOVLW  00
0A384:  MOVWF  FF8
0A386:  MOVLW  0C
0A388:  MOVLB  6
0A38A:  MOVWF  xBA
0A38C:  MOVLB  0
0A38E:  CALL   5BEA
0A392:  MOVLW  02
0A394:  MOVWF  FE9
0A396:  MOVFF  243,6BD
0A39A:  MOVFF  242,6BC
0A39E:  MOVFF  241,6BB
0A3A2:  MOVFF  240,6BA
0A3A6:  MOVLW  01
0A3A8:  MOVLB  6
0A3AA:  MOVWF  xBE
0A3AC:  MOVLB  0
0A3AE:  CALL   5ED2
0A3B2:  MOVLW  22
0A3B4:  BTFSS  F9E.4
0A3B6:  BRA    A3B4
0A3B8:  MOVWF  FAD
....................          SendDataDisplay(); 
0A3BA:  CALL   416A
....................          printf("b20.txt=\"T1:%3.1f\"",Temperatura); 
0A3BE:  MOVLW  EE
0A3C0:  MOVWF  FF6
0A3C2:  MOVLW  0E
0A3C4:  MOVWF  FF7
0A3C6:  MOVLW  00
0A3C8:  MOVWF  FF8
0A3CA:  MOVLW  0C
0A3CC:  MOVLB  6
0A3CE:  MOVWF  xBA
0A3D0:  MOVLB  0
0A3D2:  CALL   5BEA
0A3D6:  MOVLW  02
0A3D8:  MOVWF  FE9
0A3DA:  MOVFF  23F,6BD
0A3DE:  MOVFF  23E,6BC
0A3E2:  MOVFF  23D,6BB
0A3E6:  MOVFF  23C,6BA
0A3EA:  MOVLW  01
0A3EC:  MOVLB  6
0A3EE:  MOVWF  xBE
0A3F0:  MOVLB  0
0A3F2:  CALL   5ED2
0A3F6:  MOVLW  22
0A3F8:  BTFSS  F9E.4
0A3FA:  BRA    A3F8
0A3FC:  MOVWF  FAD
....................          SendDataDisplay(); 
0A3FE:  CALL   416A
....................           
....................          if(RX_Buffer[4]==0x21)//Oprimio salir 
0A402:  MOVF   34,W
0A404:  SUBLW  21
0A406:  BNZ   A428
....................          { 
....................             printf("page Menu"); 
0A408:  MOVLW  02
0A40A:  MOVWF  FF6
0A40C:  MOVLW  0F
0A40E:  MOVWF  FF7
0A410:  MOVLW  00
0A412:  MOVWF  FF8
0A414:  CALL   4138
....................             SendDataDisplay(); 
0A418:  CALL   416A
....................             PantallaPrincipal=0; 
0A41C:  MOVLB  1
0A41E:  CLRF   xF9
....................             PruebaEstados=OFF; 
0A420:  BCF    x04.5
....................             ApagaSalidas(); 
0A422:  MOVLB  0
0A424:  CALL   41A0
....................             // Falta apagar Todo 
....................          } 
....................      }else if(Menu==7){ //Menu de Configuracin de Fecha y Hora 
0A428:  GOTO   F7C2
0A42C:  MOVLB  2
0A42E:  MOVF   x5D,W
0A430:  SUBLW  07
0A432:  BTFSS  FD8.2
0A434:  BRA    A81A
....................        
....................          if(RX_Buffer[4]==0x0a)//Selecciono Hora 
0A436:  MOVF   34,W
0A438:  SUBLW  0A
0A43A:  BNZ   A440
....................             Opcion=4; 
0A43C:  MOVLW  04
0A43E:  MOVWF  x6C
....................           
....................          if(RX_Buffer[4]==0x0b)//Selecciono Minuto 
0A440:  MOVF   34,W
0A442:  SUBLW  0B
0A444:  BNZ   A44A
....................             Opcion=5; 
0A446:  MOVLW  05
0A448:  MOVWF  x6C
....................           
....................          if(RX_Buffer[4]==0x0c)//Selecciono Dia 
0A44A:  MOVF   34,W
0A44C:  SUBLW  0C
0A44E:  BNZ   A454
....................             Opcion=1; 
0A450:  MOVLW  01
0A452:  MOVWF  x6C
....................           
....................          if(RX_Buffer[4]==0x0d)//Selecciono Hora 
0A454:  MOVF   34,W
0A456:  SUBLW  0D
0A458:  BNZ   A45E
....................             Opcion=2; 
0A45A:  MOVLW  02
0A45C:  MOVWF  x6C
....................           
....................          if(RX_Buffer[4]==0x0e)//Selecciono Year 
0A45E:  MOVF   34,W
0A460:  SUBLW  0E
0A462:  BNZ   A468
....................             Opcion=3; 
0A464:  MOVLW  03
0A466:  MOVWF  x6C
....................           
....................          if(Opcion>5) 
0A468:  MOVF   x6C,W
0A46A:  SUBLW  05
0A46C:  BC    A472
....................             Opcion=1; 
0A46E:  MOVLW  01
0A470:  MOVWF  x6C
....................          if(Opcion<1) 
0A472:  MOVF   x6C,F
0A474:  BNZ   A47A
....................             Opcion=5; 
0A476:  MOVLW  05
0A478:  MOVWF  x6C
....................              
....................          if(RX_Buffer[4]==0x11){//Selecciono Regresar 
0A47A:  MOVF   34,W
0A47C:  SUBLW  11
0A47E:  BTFSS  FD8.2
0A480:  BRA    A5BA
....................             printf("page Menu"); 
0A482:  MOVLW  0C
0A484:  MOVWF  FF6
0A486:  MOVLW  0F
0A488:  MOVWF  FF7
0A48A:  MOVLW  00
0A48C:  MOVWF  FF8
0A48E:  MOVLB  0
0A490:  CALL   4138
....................             SendDataDisplay();   
0A494:  CALL   416A
....................             PantallaPrincipal=0; 
0A498:  MOVLB  1
0A49A:  CLRF   xF9
....................             Op=OFF; 
0A49C:  BCF    x05.1
....................             Op2=OFF; 
0A49E:  BCF    x05.2
....................              
....................             if(esBisiesto(YearTx)) 
0A4A0:  MOVFF  2AB,6B5
0A4A4:  MOVLB  0
0A4A6:  CALL   60BC
0A4AA:  MOVF   01,F
0A4AC:  BZ    A4C8
....................                Modulo=Bisiesto[MesTx]; 
0A4AE:  CLRF   03
0A4B0:  MOVLB  2
0A4B2:  MOVF   xAC,W
0A4B4:  ADDLW  EB
0A4B6:  MOVWF  FE9
0A4B8:  MOVLW  00
0A4BA:  ADDWFC 03,W
0A4BC:  MOVWF  FEA
0A4BE:  MOVFF  FEF,1FB
0A4C2:  MOVLB  1
....................             else 
0A4C4:  BRA    A4DE
0A4C6:  MOVLB  0
....................                Modulo=Regular[MesTx]; 
0A4C8:  CLRF   03
0A4CA:  MOVLB  2
0A4CC:  MOVF   xAC,W
0A4CE:  ADDLW  DF
0A4D0:  MOVWF  FE9
0A4D2:  MOVLW  00
0A4D4:  ADDWFC 03,W
0A4D6:  MOVWF  FEA
0A4D8:  MOVFF  FEF,1FB
0A4DC:  MOVLB  1
....................           
....................             dowTx=((YearTx-1)%7+((YearTx-1)/4-3*((YearTx-1)/100+1)/4)%7+Modulo+DiaTx%7)%7; 
0A4DE:  MOVLW  01
0A4E0:  MOVLB  2
0A4E2:  SUBWF  xAB,W
0A4E4:  MOVLB  6
0A4E6:  MOVWF  xB6
0A4E8:  MOVWF  xBE
0A4EA:  MOVLW  07
0A4EC:  MOVWF  xBF
0A4EE:  MOVLB  0
0A4F0:  CALL   5C42
0A4F4:  MOVFF  00,6B5
0A4F8:  MOVLW  01
0A4FA:  MOVLB  2
0A4FC:  SUBWF  xAB,W
0A4FE:  MOVWF  00
0A500:  RRCF   00,W
0A502:  MOVLB  6
0A504:  MOVWF  xB6
0A506:  RRCF   xB6,F
0A508:  MOVLW  3F
0A50A:  ANDWF  xB6,F
0A50C:  MOVLW  01
0A50E:  MOVLB  2
0A510:  SUBWF  xAB,W
0A512:  MOVLB  6
0A514:  MOVWF  xB8
0A516:  MOVWF  xBE
0A518:  MOVLW  64
0A51A:  MOVWF  xBF
0A51C:  MOVLB  0
0A51E:  CALL   5C42
0A522:  MOVLW  01
0A524:  ADDWF  01,W
0A526:  MULLW  03
0A528:  MOVFF  FF3,00
0A52C:  RRCF   00,F
0A52E:  RRCF   00,F
0A530:  MOVLW  3F
0A532:  ANDWF  00,F
0A534:  MOVF   00,W
0A536:  MOVLB  6
0A538:  SUBWF  xB6,W
0A53A:  MOVWF  xB7
0A53C:  MOVWF  xBE
0A53E:  MOVLW  07
0A540:  MOVWF  xBF
0A542:  MOVLB  0
0A544:  CALL   5C42
0A548:  MOVF   00,W
0A54A:  MOVLB  6
0A54C:  ADDWF  xB5,W
0A54E:  MOVLB  1
0A550:  ADDWF  xFB,W
0A552:  MOVLB  6
0A554:  MOVWF  xB5
0A556:  MOVFF  2AD,6BE
0A55A:  MOVLW  07
0A55C:  MOVWF  xBF
0A55E:  MOVLB  0
0A560:  CALL   5C42
0A564:  MOVF   00,W
0A566:  MOVLB  6
0A568:  ADDWF  xB5,W
0A56A:  MOVWF  xB6
0A56C:  MOVWF  xBE
0A56E:  MOVLW  07
0A570:  MOVWF  xBF
0A572:  MOVLB  0
0A574:  CALL   5C42
0A578:  MOVFF  00,2B0
....................             SetTime=5; 
0A57C:  MOVLW  05
0A57E:  MOVLB  2
0A580:  MOVWF  xB1
....................             Envio_Esclavos(); 
0A582:  MOVLB  0
0A584:  CALL   5734
....................             delay_ms(100);    
0A588:  MOVLW  64
0A58A:  MOVLB  6
0A58C:  MOVWF  xC7
0A58E:  MOVLB  0
0A590:  CALL   20B8
....................             SetTime=10; 
0A594:  MOVLW  0A
0A596:  MOVLB  2
0A598:  MOVWF  xB1
....................             rtc_set_datetime(DiaTx,MesTx,YearTx,dowTx,HoraTx,MinutoTx); 
0A59A:  MOVFF  2AD,6B5
0A59E:  MOVFF  2AC,6B6
0A5A2:  MOVFF  2AB,6B7
0A5A6:  MOVFF  2B0,6B8
0A5AA:  MOVFF  2AE,6B9
0A5AE:  MOVFF  2AF,6BA
0A5B2:  MOVLB  0
0A5B4:  GOTO   613E
0A5B8:  MOVLB  2
....................          } 
....................           
....................          if(RX_Buffer[4]==0x2a){//Tecla Arriba Oprimida 
0A5BA:  MOVF   34,W
0A5BC:  SUBLW  2A
0A5BE:  BTFSS  FD8.2
0A5C0:  BRA    A6A6
....................                if(Opcion==1){ 
0A5C2:  DECFSZ x6C,W
0A5C4:  BRA    A652
....................                   if(MesTx==2){ 
0A5C6:  MOVF   xAC,W
0A5C8:  SUBLW  02
0A5CA:  BNZ   A600
....................                      if(esBisiesto(YearTx)){ 
0A5CC:  MOVFF  2AB,6B5
0A5D0:  MOVLB  0
0A5D2:  CALL   60BC
0A5D6:  MOVF   01,F
0A5D8:  BZ    A5EE
....................                         if(DiaTx<29) 
0A5DA:  MOVLB  2
0A5DC:  MOVF   xAD,W
0A5DE:  SUBLW  1C
0A5E0:  BNC   A5E6
....................                            DiaTx++; 
0A5E2:  INCF   xAD,F
....................                         else 
0A5E4:  BRA    A5EA
....................                            DiaTx=1;    
0A5E6:  MOVLW  01
0A5E8:  MOVWF  xAD
....................                      }else{ 
0A5EA:  BRA    A5FE
0A5EC:  MOVLB  0
....................                         if(DiaTx<28) 
0A5EE:  MOVLB  2
0A5F0:  MOVF   xAD,W
0A5F2:  SUBLW  1B
0A5F4:  BNC   A5FA
....................                            DiaTx++; 
0A5F6:  INCF   xAD,F
....................                         else 
0A5F8:  BRA    A5FE
....................                            DiaTx=1;    
0A5FA:  MOVLW  01
0A5FC:  MOVWF  xAD
....................                      } 
....................                   }else{ 
0A5FE:  BRA    A650
....................                      if(MesTx<=7){ 
0A600:  MOVF   xAC,W
0A602:  SUBLW  07
0A604:  BNC   A62C
....................                         if(MesTx % 2 ==0){ 
0A606:  MOVF   xAC,W
0A608:  ANDLW  01
0A60A:  BNZ   A61C
....................                            if(DiaTx<30) 
0A60C:  MOVF   xAD,W
0A60E:  SUBLW  1D
0A610:  BNC   A616
....................                               DiaTx++;     
0A612:  INCF   xAD,F
....................                            else 
0A614:  BRA    A61A
....................                               DiaTx=1;    
0A616:  MOVLW  01
0A618:  MOVWF  xAD
....................                         }else{ 
0A61A:  BRA    A62A
....................                            if(DiaTx<31) 
0A61C:  MOVF   xAD,W
0A61E:  SUBLW  1E
0A620:  BNC   A626
....................                               DiaTx++;     
0A622:  INCF   xAD,F
....................                            else 
0A624:  BRA    A62A
....................                               DiaTx=1;    
0A626:  MOVLW  01
0A628:  MOVWF  xAD
....................                         }     
....................                      }else{ 
0A62A:  BRA    A650
....................                         if(MesTx % 2 ==0){ 
0A62C:  MOVF   xAC,W
0A62E:  ANDLW  01
0A630:  BNZ   A642
....................                            if(DiaTx<31) 
0A632:  MOVF   xAD,W
0A634:  SUBLW  1E
0A636:  BNC   A63C
....................                               DiaTx++;   
0A638:  INCF   xAD,F
....................                            else 
0A63A:  BRA    A640
....................                               DiaTx=1; 
0A63C:  MOVLW  01
0A63E:  MOVWF  xAD
....................                         }else{ 
0A640:  BRA    A650
....................                            if(DiaTx<30) 
0A642:  MOVF   xAD,W
0A644:  SUBLW  1D
0A646:  BNC   A64C
....................                               DiaTx++;     
0A648:  INCF   xAD,F
....................                            else 
0A64A:  BRA    A650
....................                               DiaTx=1; 
0A64C:  MOVLW  01
0A64E:  MOVWF  xAD
....................                         }     
....................                      } 
....................                   } 
....................                }else if(Opcion==2){ 
0A650:  BRA    A6A2
0A652:  MOVF   x6C,W
0A654:  SUBLW  02
0A656:  BNZ   A668
....................                   if(MesTx<12) 
0A658:  MOVF   xAC,W
0A65A:  SUBLW  0B
0A65C:  BNC   A662
....................                      MesTx++; 
0A65E:  INCF   xAC,F
....................                   else 
0A660:  BRA    A666
....................                      MesTx=1; 
0A662:  MOVLW  01
0A664:  MOVWF  xAC
....................                }else if(Opcion==3){ 
0A666:  BRA    A6A2
0A668:  MOVF   x6C,W
0A66A:  SUBLW  03
0A66C:  BNZ   A67C
....................                   if(YearTx<99) 
0A66E:  MOVF   xAB,W
0A670:  SUBLW  62
0A672:  BNC   A678
....................                      YearTx++; 
0A674:  INCF   xAB,F
....................                   else  
0A676:  BRA    A67A
....................                      YearTx=0; 
0A678:  CLRF   xAB
....................                }else if(Opcion==4){ 
0A67A:  BRA    A6A2
0A67C:  MOVF   x6C,W
0A67E:  SUBLW  04
0A680:  BNZ   A690
....................                   if(HoraTx<24) 
0A682:  MOVF   xAE,W
0A684:  SUBLW  17
0A686:  BNC   A68C
....................                      HoraTx++; 
0A688:  INCF   xAE,F
....................                   else 
0A68A:  BRA    A68E
....................                      HoraTx=0; 
0A68C:  CLRF   xAE
....................                }else if(Opcion==5){ 
0A68E:  BRA    A6A2
0A690:  MOVF   x6C,W
0A692:  SUBLW  05
0A694:  BNZ   A6A2
....................                   if(MinutoTx<59) 
0A696:  MOVF   xAF,W
0A698:  SUBLW  3A
0A69A:  BNC   A6A0
....................                      MinutoTx++; 
0A69C:  INCF   xAF,F
....................                   else 
0A69E:  BRA    A6A2
....................                      MinutoTx=0; 
0A6A0:  CLRF   xAF
....................                } 
....................                RX_Buffer[4]=0x00; 
0A6A2:  CLRF   34
....................                RX_Buffer2[4]=0x00; 
0A6A4:  CLRF   3F
....................          } 
....................           
....................          if(RX_Buffer[4]==0x2b){//Tecla Abajo Oprimida  
0A6A6:  MOVF   34,W
0A6A8:  SUBLW  2B
0A6AA:  BNZ   A70C
....................                if(Opcion==1){ 
0A6AC:  DECFSZ x6C,W
0A6AE:  BRA    A6B8
....................                   if(DiaTx>0) 
0A6B0:  MOVF   xAD,F
0A6B2:  BZ    A6B6
....................                      DiaTx--; 
0A6B4:  DECF   xAD,F
....................                }else if(Opcion==2){ 
0A6B6:  BRA    A708
0A6B8:  MOVF   x6C,W
0A6BA:  SUBLW  02
0A6BC:  BNZ   A6CE
....................                   if(MesTx>1) 
0A6BE:  MOVF   xAC,W
0A6C0:  SUBLW  01
0A6C2:  BC    A6C8
....................                      MesTx--; 
0A6C4:  DECF   xAC,F
....................                   else 
0A6C6:  BRA    A6CC
....................                      MesTx=12; 
0A6C8:  MOVLW  0C
0A6CA:  MOVWF  xAC
....................                }else if(Opcion==3){ 
0A6CC:  BRA    A708
0A6CE:  MOVF   x6C,W
0A6D0:  SUBLW  03
0A6D2:  BNZ   A6E2
....................                   if(YearTx>0) 
0A6D4:  MOVF   xAB,F
0A6D6:  BZ    A6DC
....................                      YearTx--; 
0A6D8:  DECF   xAB,F
....................                   else 
0A6DA:  BRA    A6E0
....................                      YearTx=99; 
0A6DC:  MOVLW  63
0A6DE:  MOVWF  xAB
....................                }else if(Opcion==4){ 
0A6E0:  BRA    A708
0A6E2:  MOVF   x6C,W
0A6E4:  SUBLW  04
0A6E6:  BNZ   A6F6
....................                   if(HoraTx>0) 
0A6E8:  MOVF   xAE,F
0A6EA:  BZ    A6F0
....................                      HoraTx--; 
0A6EC:  DECF   xAE,F
....................                   else 
0A6EE:  BRA    A6F4
....................                      HoraTx=23; 
0A6F0:  MOVLW  17
0A6F2:  MOVWF  xAE
....................                }else if(Opcion==5){ 
0A6F4:  BRA    A708
0A6F6:  MOVF   x6C,W
0A6F8:  SUBLW  05
0A6FA:  BNZ   A708
....................                   if(MinutoTx>0) 
0A6FC:  MOVF   xAF,F
0A6FE:  BZ    A704
....................                      MinutoTx--; 
0A700:  DECF   xAF,F
....................                   else 
0A702:  BRA    A708
....................                      MinutoTx=59; 
0A704:  MOVLW  3B
0A706:  MOVWF  xAF
....................                } 
....................                RX_Buffer[4]=0x00; 
0A708:  CLRF   34
....................                RX_Buffer2[4]=0x00; 
0A70A:  CLRF   3F
....................                //BorraBuffer(); 
....................          } 
....................        
....................       printf("thora.txt=\"%02u\"",HoraTx); 
0A70C:  MOVLW  16
0A70E:  MOVWF  FF6
0A710:  MOVLW  0F
0A712:  MOVWF  FF7
0A714:  MOVLW  00
0A716:  MOVWF  FF8
0A718:  MOVLW  0B
0A71A:  MOVLB  6
0A71C:  MOVWF  xBA
0A71E:  MOVLB  0
0A720:  CALL   5BEA
0A724:  MOVFF  2AE,6BA
0A728:  MOVLW  01
0A72A:  MOVLB  6
0A72C:  MOVWF  xBB
0A72E:  MOVLB  0
0A730:  CALL   5C6E
0A734:  MOVLW  22
0A736:  BTFSS  F9E.4
0A738:  BRA    A736
0A73A:  MOVWF  FAD
....................       SendDataDisplay(); 
0A73C:  CALL   416A
....................       printf("tminutos.txt=\"%02u\"",MinutoTx); 
0A740:  MOVLW  28
0A742:  MOVWF  FF6
0A744:  MOVLW  0F
0A746:  MOVWF  FF7
0A748:  MOVLW  00
0A74A:  MOVWF  FF8
0A74C:  MOVLW  0E
0A74E:  MOVLB  6
0A750:  MOVWF  xBA
0A752:  MOVLB  0
0A754:  CALL   5BEA
0A758:  MOVFF  2AF,6BA
0A75C:  MOVLW  01
0A75E:  MOVLB  6
0A760:  MOVWF  xBB
0A762:  MOVLB  0
0A764:  CALL   5C6E
0A768:  MOVLW  22
0A76A:  BTFSS  F9E.4
0A76C:  BRA    A76A
0A76E:  MOVWF  FAD
....................       SendDataDisplay(); 
0A770:  CALL   416A
....................       printf("tdia.txt=\"%02u\"",DiaTx); 
0A774:  MOVLW  3C
0A776:  MOVWF  FF6
0A778:  MOVLW  0F
0A77A:  MOVWF  FF7
0A77C:  MOVLW  00
0A77E:  MOVWF  FF8
0A780:  MOVLW  0A
0A782:  MOVLB  6
0A784:  MOVWF  xBA
0A786:  MOVLB  0
0A788:  CALL   5BEA
0A78C:  MOVFF  2AD,6BA
0A790:  MOVLW  01
0A792:  MOVLB  6
0A794:  MOVWF  xBB
0A796:  MOVLB  0
0A798:  CALL   5C6E
0A79C:  MOVLW  22
0A79E:  BTFSS  F9E.4
0A7A0:  BRA    A79E
0A7A2:  MOVWF  FAD
....................       SendDataDisplay(); 
0A7A4:  CALL   416A
....................       printf("tmes.txt=\"%02u\"",MesTx); 
0A7A8:  MOVLW  4C
0A7AA:  MOVWF  FF6
0A7AC:  MOVLW  0F
0A7AE:  MOVWF  FF7
0A7B0:  MOVLW  00
0A7B2:  MOVWF  FF8
0A7B4:  MOVLW  0A
0A7B6:  MOVLB  6
0A7B8:  MOVWF  xBA
0A7BA:  MOVLB  0
0A7BC:  CALL   5BEA
0A7C0:  MOVFF  2AC,6BA
0A7C4:  MOVLW  01
0A7C6:  MOVLB  6
0A7C8:  MOVWF  xBB
0A7CA:  MOVLB  0
0A7CC:  CALL   5C6E
0A7D0:  MOVLW  22
0A7D2:  BTFSS  F9E.4
0A7D4:  BRA    A7D2
0A7D6:  MOVWF  FAD
....................       SendDataDisplay(); 
0A7D8:  CALL   416A
....................       printf("tyear.txt=\"%02u\"",YearTx); 
0A7DC:  MOVLW  5C
0A7DE:  MOVWF  FF6
0A7E0:  MOVLW  0F
0A7E2:  MOVWF  FF7
0A7E4:  MOVLW  00
0A7E6:  MOVWF  FF8
0A7E8:  MOVLW  0B
0A7EA:  MOVLB  6
0A7EC:  MOVWF  xBA
0A7EE:  MOVLB  0
0A7F0:  CALL   5BEA
0A7F4:  MOVFF  2AB,6BA
0A7F8:  MOVLW  01
0A7FA:  MOVLB  6
0A7FC:  MOVWF  xBB
0A7FE:  MOVLB  0
0A800:  CALL   5C6E
0A804:  MOVLW  22
0A806:  BTFSS  F9E.4
0A808:  BRA    A806
0A80A:  MOVWF  FAD
....................       SendDataDisplay(); 
0A80C:  CALL   416A
....................       LimitaDia();   
0A810:  GOTO   61FA
....................     }else if(Menu==8){ //Menu Ciclos Personalizados 
0A814:  GOTO   F7C2
0A818:  MOVLB  2
0A81A:  MOVF   x5D,W
0A81C:  SUBLW  08
0A81E:  BTFSS  FD8.2
0A820:  GOTO   B3DE
....................       tCicloP=0; 
0A824:  MOVLB  1
0A826:  CLRF   x1B
0A828:  CLRF   x1A
....................       oprimioCicloP=OFF; 
0A82A:  BCF    x02.7
....................       printf("fecha.txt=\"Fecha:%02u/%02u/20%02u Hora: %02u:%02u:%02u\"",Dia,Mes,Year,Hora,Minuto,Segundo); 
0A82C:  MOVLW  6E
0A82E:  MOVWF  FF6
0A830:  MOVLW  0F
0A832:  MOVWF  FF7
0A834:  MOVLW  00
0A836:  MOVWF  FF8
0A838:  MOVLW  11
0A83A:  MOVLB  6
0A83C:  MOVWF  xBA
0A83E:  MOVLB  0
0A840:  CALL   5BEA
0A844:  MOVFF  2A0,6BA
0A848:  MOVLW  01
0A84A:  MOVLB  6
0A84C:  MOVWF  xBB
0A84E:  MOVLB  0
0A850:  CALL   5C6E
0A854:  MOVLW  2F
0A856:  BTFSS  F9E.4
0A858:  BRA    A856
0A85A:  MOVWF  FAD
0A85C:  MOVFF  29F,6BA
0A860:  MOVLW  01
0A862:  MOVLB  6
0A864:  MOVWF  xBB
0A866:  MOVLB  0
0A868:  CALL   5C6E
0A86C:  MOVLW  2F
0A86E:  BTFSS  F9E.4
0A870:  BRA    A86E
0A872:  MOVWF  FAD
0A874:  MOVLW  32
0A876:  BTFSS  F9E.4
0A878:  BRA    A876
0A87A:  MOVWF  FAD
0A87C:  MOVLW  30
0A87E:  BTFSS  F9E.4
0A880:  BRA    A87E
0A882:  MOVWF  FAD
0A884:  MOVFF  29E,6BA
0A888:  MOVLW  01
0A88A:  MOVLB  6
0A88C:  MOVWF  xBB
0A88E:  MOVLB  0
0A890:  CALL   5C6E
0A894:  MOVLW  8F
0A896:  MOVWF  FF6
0A898:  MOVLW  0F
0A89A:  MOVWF  FF7
0A89C:  MOVLW  00
0A89E:  MOVWF  FF8
0A8A0:  MOVLW  07
0A8A2:  MOVLB  6
0A8A4:  MOVWF  xBA
0A8A6:  MOVLB  0
0A8A8:  CALL   5BEA
0A8AC:  MOVFF  2A1,6BA
0A8B0:  MOVLW  01
0A8B2:  MOVLB  6
0A8B4:  MOVWF  xBB
0A8B6:  MOVLB  0
0A8B8:  CALL   5C6E
0A8BC:  MOVLW  3A
0A8BE:  BTFSS  F9E.4
0A8C0:  BRA    A8BE
0A8C2:  MOVWF  FAD
0A8C4:  MOVFF  2A2,6BA
0A8C8:  MOVLW  01
0A8CA:  MOVLB  6
0A8CC:  MOVWF  xBB
0A8CE:  MOVLB  0
0A8D0:  CALL   5C6E
0A8D4:  MOVLW  3A
0A8D6:  BTFSS  F9E.4
0A8D8:  BRA    A8D6
0A8DA:  MOVWF  FAD
0A8DC:  MOVFF  2A3,6BA
0A8E0:  MOVLW  01
0A8E2:  MOVLB  6
0A8E4:  MOVWF  xBB
0A8E6:  MOVLB  0
0A8E8:  CALL   5C6E
0A8EC:  MOVLW  22
0A8EE:  BTFSS  F9E.4
0A8F0:  BRA    A8EE
0A8F2:  MOVWF  FAD
....................       SendDataDisplay(); 
0A8F4:  CALL   416A
....................       GuardaEEPROM=OFF; 
0A8F8:  MOVLB  1
0A8FA:  BCF    x05.5
....................       printf("tuser.txt=\"%s\"",usuario); 
0A8FC:  MOVLW  A6
0A8FE:  MOVWF  FF6
0A900:  MOVLW  0F
0A902:  MOVWF  FF7
0A904:  MOVLW  00
0A906:  MOVWF  FF8
0A908:  MOVLW  0B
0A90A:  MOVLB  6
0A90C:  MOVWF  xBA
0A90E:  MOVLB  0
0A910:  CALL   5BEA
0A914:  MOVLW  02
0A916:  MOVWF  FEA
0A918:  MOVLW  BB
0A91A:  MOVWF  FE9
0A91C:  CALL   5C1C
0A920:  MOVLW  22
0A922:  BTFSS  F9E.4
0A924:  BRA    A922
0A926:  MOVWF  FAD
....................       SendDataDisplay(); 
0A928:  CALL   416A
....................        
....................       if(RX_Buffer[4]>0x00 && RX_Buffer[4]<0x15 && estados[RX_Buffer[4]-1]){//Personalizados 
0A92C:  MOVF   34,F
0A92E:  BTFSC  FD8.2
0A930:  BRA    ABF8
0A932:  MOVF   34,W
0A934:  SUBLW  14
0A936:  BTFSS  FD8.0
0A938:  BRA    ABF8
0A93A:  MOVLW  01
0A93C:  SUBWF  34,W
0A93E:  MOVLB  6
0A940:  MOVWF  xB6
0A942:  MOVLW  03
0A944:  MOVWF  xB8
0A946:  MOVLW  21
0A948:  MOVWF  xB7
0A94A:  MOVLB  0
0A94C:  CALL   24F8
0A950:  BTFSS  01.0
0A952:  BRA    ABF8
....................          printf("ciclo.txt=\"CICLO P%02u\"",RX_Buffer[4]+0x0a); 
0A954:  MOVLW  0A
0A956:  ADDWF  34,W
0A958:  MOVLB  6
0A95A:  MOVWF  xB5
0A95C:  MOVLW  B6
0A95E:  MOVWF  FF6
0A960:  MOVLW  0F
0A962:  MOVWF  FF7
0A964:  MOVLW  00
0A966:  MOVWF  FF8
0A968:  MOVLW  12
0A96A:  MOVWF  xBA
0A96C:  MOVLB  0
0A96E:  CALL   5BEA
0A972:  MOVFF  6B5,6BA
0A976:  MOVLW  01
0A978:  MOVLB  6
0A97A:  MOVWF  xBB
0A97C:  MOVLB  0
0A97E:  CALL   5C6E
0A982:  MOVLW  22
0A984:  BTFSS  F9E.4
0A986:  BRA    A984
0A988:  MOVWF  FAD
....................          SendDataDisplay();           
0A98A:  CALL   416A
....................          printf("temp.txt=\"%u\"",CiclosPersonalizados[RX_Buffer[4]-1].Temperatura); 
0A98E:  MOVLW  01
0A990:  SUBWF  34,W
0A992:  MULLW  08
0A994:  MOVF   FF3,W
0A996:  MOVLB  6
0A998:  CLRF   xB6
0A99A:  MOVWF  xB5
0A99C:  MOVLW  ED
0A99E:  ADDWF  xB5,W
0A9A0:  MOVWF  FE9
0A9A2:  MOVLW  05
0A9A4:  ADDWFC xB6,W
0A9A6:  MOVWF  FEA
0A9A8:  MOVFF  FEF,6B5
0A9AC:  MOVLW  CE
0A9AE:  MOVWF  FF6
0A9B0:  MOVLW  0F
0A9B2:  MOVWF  FF7
0A9B4:  MOVLW  00
0A9B6:  MOVWF  FF8
0A9B8:  MOVLW  0A
0A9BA:  MOVWF  xBA
0A9BC:  MOVLB  0
0A9BE:  CALL   5BEA
0A9C2:  MOVFF  6B5,6BA
0A9C6:  MOVLW  1B
0A9C8:  MOVLB  6
0A9CA:  MOVWF  xBB
0A9CC:  MOVLB  0
0A9CE:  CALL   5C6E
0A9D2:  MOVLW  22
0A9D4:  BTFSS  F9E.4
0A9D6:  BRA    A9D4
0A9D8:  MOVWF  FAD
....................          SendDataDisplay(); 
0A9DA:  CALL   416A
....................          printf("test.txt=\"%02u:%02u\"",CiclosPersonalizados[RX_Buffer[4]-1].Minutoest,CiclosPersonalizados[RX_Buffer[4]-1].Segundoest); 
0A9DE:  MOVLW  01
0A9E0:  SUBWF  34,W
0A9E2:  MULLW  08
0A9E4:  MOVF   FF3,W
0A9E6:  MOVLB  6
0A9E8:  CLRF   xB6
0A9EA:  MOVWF  xB5
0A9EC:  MOVLW  01
0A9EE:  ADDWF  xB5,W
0A9F0:  MOVWF  01
0A9F2:  MOVLW  00
0A9F4:  ADDWFC xB6,W
0A9F6:  MOVWF  03
0A9F8:  MOVF   01,W
0A9FA:  ADDLW  ED
0A9FC:  MOVWF  FE9
0A9FE:  MOVLW  05
0AA00:  ADDWFC 03,W
0AA02:  MOVWF  FEA
0AA04:  MOVFF  FEF,6B5
0AA08:  MOVLW  01
0AA0A:  SUBWF  34,W
0AA0C:  MULLW  08
0AA0E:  MOVF   FF3,W
0AA10:  CLRF   xB7
0AA12:  MOVWF  xB6
0AA14:  MOVLW  02
0AA16:  ADDWF  xB6,W
0AA18:  MOVWF  01
0AA1A:  MOVLW  00
0AA1C:  ADDWFC xB7,W
0AA1E:  MOVWF  03
0AA20:  MOVF   01,W
0AA22:  ADDLW  ED
0AA24:  MOVWF  FE9
0AA26:  MOVLW  05
0AA28:  ADDWFC 03,W
0AA2A:  MOVWF  FEA
0AA2C:  MOVFF  FEF,6B6
0AA30:  MOVLW  DC
0AA32:  MOVWF  FF6
0AA34:  MOVLW  0F
0AA36:  MOVWF  FF7
0AA38:  MOVLW  00
0AA3A:  MOVWF  FF8
0AA3C:  MOVLW  0A
0AA3E:  MOVWF  xBA
0AA40:  MOVLB  0
0AA42:  CALL   5BEA
0AA46:  MOVFF  6B5,6BA
0AA4A:  MOVLW  01
0AA4C:  MOVLB  6
0AA4E:  MOVWF  xBB
0AA50:  MOVLB  0
0AA52:  CALL   5C6E
0AA56:  MOVLW  3A
0AA58:  BTFSS  F9E.4
0AA5A:  BRA    AA58
0AA5C:  MOVWF  FAD
0AA5E:  MOVFF  6B6,6BA
0AA62:  MOVLW  01
0AA64:  MOVLB  6
0AA66:  MOVWF  xBB
0AA68:  MOVLB  0
0AA6A:  CALL   5C6E
0AA6E:  MOVLW  22
0AA70:  BTFSS  F9E.4
0AA72:  BRA    AA70
0AA74:  MOVWF  FAD
....................          SendDataDisplay(); 
0AA76:  CALL   416A
....................          printf("tsec.txt=\"%02u:%02u\"",CiclosPersonalizados[RX_Buffer[4]-1].Minutosec,CiclosPersonalizados[RX_Buffer[4]-1].Segundosec); 
0AA7A:  MOVLW  01
0AA7C:  SUBWF  34,W
0AA7E:  MULLW  08
0AA80:  MOVF   FF3,W
0AA82:  MOVLB  6
0AA84:  CLRF   xB6
0AA86:  MOVWF  xB5
0AA88:  MOVLW  03
0AA8A:  ADDWF  xB5,W
0AA8C:  MOVWF  01
0AA8E:  MOVLW  00
0AA90:  ADDWFC xB6,W
0AA92:  MOVWF  03
0AA94:  MOVF   01,W
0AA96:  ADDLW  ED
0AA98:  MOVWF  FE9
0AA9A:  MOVLW  05
0AA9C:  ADDWFC 03,W
0AA9E:  MOVWF  FEA
0AAA0:  MOVFF  FEF,6B5
0AAA4:  MOVLW  01
0AAA6:  SUBWF  34,W
0AAA8:  MULLW  08
0AAAA:  MOVF   FF3,W
0AAAC:  CLRF   xB7
0AAAE:  MOVWF  xB6
0AAB0:  MOVLW  04
0AAB2:  ADDWF  xB6,W
0AAB4:  MOVWF  01
0AAB6:  MOVLW  00
0AAB8:  ADDWFC xB7,W
0AABA:  MOVWF  03
0AABC:  MOVF   01,W
0AABE:  ADDLW  ED
0AAC0:  MOVWF  FE9
0AAC2:  MOVLW  05
0AAC4:  ADDWFC 03,W
0AAC6:  MOVWF  FEA
0AAC8:  MOVFF  FEF,6B6
0AACC:  MOVLW  F2
0AACE:  MOVWF  FF6
0AAD0:  MOVLW  0F
0AAD2:  MOVWF  FF7
0AAD4:  MOVLW  00
0AAD6:  MOVWF  FF8
0AAD8:  MOVLW  0A
0AADA:  MOVWF  xBA
0AADC:  MOVLB  0
0AADE:  CALL   5BEA
0AAE2:  MOVFF  6B5,6BA
0AAE6:  MOVLW  01
0AAE8:  MOVLB  6
0AAEA:  MOVWF  xBB
0AAEC:  MOVLB  0
0AAEE:  CALL   5C6E
0AAF2:  MOVLW  3A
0AAF4:  BTFSS  F9E.4
0AAF6:  BRA    AAF4
0AAF8:  MOVWF  FAD
0AAFA:  MOVFF  6B6,6BA
0AAFE:  MOVLW  01
0AB00:  MOVLB  6
0AB02:  MOVWF  xBB
0AB04:  MOVLB  0
0AB06:  CALL   5C6E
0AB0A:  MOVLW  22
0AB0C:  BTFSS  F9E.4
0AB0E:  BRA    AB0C
0AB10:  MOVWF  FAD
....................          SendDataDisplay(); 
0AB12:  CALL   416A
....................          printf("pulsos.txt=\"%02u\"",CiclosPersonalizados[RX_Buffer[4]-1].PulsosVacio); 
0AB16:  MOVLW  01
0AB18:  SUBWF  34,W
0AB1A:  MULLW  08
0AB1C:  MOVF   FF3,W
0AB1E:  MOVLB  6
0AB20:  CLRF   xB6
0AB22:  MOVWF  xB5
0AB24:  MOVLW  05
0AB26:  ADDWF  xB5,W
0AB28:  MOVWF  01
0AB2A:  MOVLW  00
0AB2C:  ADDWFC xB6,W
0AB2E:  MOVWF  03
0AB30:  MOVF   01,W
0AB32:  ADDLW  ED
0AB34:  MOVWF  FE9
0AB36:  MOVLW  05
0AB38:  ADDWFC 03,W
0AB3A:  MOVWF  FEA
0AB3C:  MOVFF  FEF,6B5
0AB40:  MOVLW  08
0AB42:  MOVWF  FF6
0AB44:  MOVLW  10
0AB46:  MOVWF  FF7
0AB48:  MOVLW  00
0AB4A:  MOVWF  FF8
0AB4C:  MOVLW  0C
0AB4E:  MOVWF  xBA
0AB50:  MOVLB  0
0AB52:  CALL   5BEA
0AB56:  MOVFF  6B5,6BA
0AB5A:  MOVLW  01
0AB5C:  MOVLB  6
0AB5E:  MOVWF  xBB
0AB60:  MOVLB  0
0AB62:  CALL   5C6E
0AB66:  MOVLW  22
0AB68:  BTFSS  F9E.4
0AB6A:  BRA    AB68
0AB6C:  MOVWF  FAD
....................          SendDataDisplay(); 
0AB6E:  CALL   416A
....................          printf("vacio.txt=\"%03u kPa\"",CiclosPersonalizados[RX_Buffer[4]-1].NivelVacio); 
0AB72:  MOVLW  01
0AB74:  SUBWF  34,W
0AB76:  MULLW  08
0AB78:  MOVF   FF3,W
0AB7A:  MOVLB  6
0AB7C:  CLRF   xB6
0AB7E:  MOVWF  xB5
0AB80:  MOVLW  06
0AB82:  ADDWF  xB5,W
0AB84:  MOVWF  01
0AB86:  MOVLW  00
0AB88:  ADDWFC xB6,W
0AB8A:  MOVWF  03
0AB8C:  MOVF   01,W
0AB8E:  ADDLW  ED
0AB90:  MOVWF  FE9
0AB92:  MOVLW  05
0AB94:  ADDWFC 03,W
0AB96:  MOVWF  FEA
0AB98:  MOVFF  FEF,6B5
0AB9C:  MOVLW  1A
0AB9E:  MOVWF  FF6
0ABA0:  MOVLW  10
0ABA2:  MOVWF  FF7
0ABA4:  MOVLW  00
0ABA6:  MOVWF  FF8
0ABA8:  MOVLW  0B
0ABAA:  MOVWF  xBA
0ABAC:  MOVLB  0
0ABAE:  CALL   5BEA
0ABB2:  MOVFF  6B5,6BA
0ABB6:  MOVLW  03
0ABB8:  MOVLB  6
0ABBA:  MOVWF  xBB
0ABBC:  MOVLB  0
0ABBE:  CALL   5C6E
0ABC2:  MOVLW  29
0ABC4:  MOVWF  FF6
0ABC6:  MOVLW  10
0ABC8:  MOVWF  FF7
0ABCA:  MOVLW  00
0ABCC:  MOVWF  FF8
0ABCE:  MOVLW  05
0ABD0:  MOVLB  6
0ABD2:  MOVWF  xBA
0ABD4:  MOVLB  0
0ABD6:  CALL   5BEA
....................          SendDataDisplay(); 
0ABDA:  CALL   416A
....................          //printf("desfogue.txt=\"%u\"",CiclosPersonalizados[RX_Buffer[4]-1].NivelDesfogue); 
....................          printf("desfogue.txt=\"N/A\""); 
0ABDE:  MOVLW  30
0ABE0:  MOVWF  FF6
0ABE2:  MOVLW  10
0ABE4:  MOVWF  FF7
0ABE6:  MOVLW  00
0ABE8:  MOVWF  FF8
0ABEA:  CALL   4138
....................          SendDataDisplay(); 
0ABEE:  CALL   416A
....................          CicloLibre=RX_Buffer[4]; 
0ABF2:  MOVFF  34,252
....................       }else if(CicloLibre==0x00){ 
0ABF6:  BRA    AF6E
0ABF8:  MOVLB  2
0ABFA:  MOVF   x52,F
0ABFC:  BNZ   AC90
....................          printf("ciclo.txt=\"CICLO P--\""); 
0ABFE:  MOVLW  44
0AC00:  MOVWF  FF6
0AC02:  MOVLW  10
0AC04:  MOVWF  FF7
0AC06:  MOVLW  00
0AC08:  MOVWF  FF8
0AC0A:  MOVLB  0
0AC0C:  CALL   4138
....................          SendDataDisplay();           
0AC10:  CALL   416A
....................          printf("temp.txt=\"--\""); 
0AC14:  MOVLW  5A
0AC16:  MOVWF  FF6
0AC18:  MOVLW  10
0AC1A:  MOVWF  FF7
0AC1C:  MOVLW  00
0AC1E:  MOVWF  FF8
0AC20:  CALL   4138
....................          SendDataDisplay(); 
0AC24:  CALL   416A
....................          printf("test.txt=\"--:--\""); 
0AC28:  MOVLW  68
0AC2A:  MOVWF  FF6
0AC2C:  MOVLW  10
0AC2E:  MOVWF  FF7
0AC30:  MOVLW  00
0AC32:  MOVWF  FF8
0AC34:  CALL   4138
....................          SendDataDisplay(); 
0AC38:  CALL   416A
....................          printf("tsec.txt=\"--:--\""); 
0AC3C:  MOVLW  7A
0AC3E:  MOVWF  FF6
0AC40:  MOVLW  10
0AC42:  MOVWF  FF7
0AC44:  MOVLW  00
0AC46:  MOVWF  FF8
0AC48:  CALL   4138
....................          SendDataDisplay(); 
0AC4C:  CALL   416A
....................          printf("pulsos.txt=\"--\""); 
0AC50:  MOVLW  8C
0AC52:  MOVWF  FF6
0AC54:  MOVLW  10
0AC56:  MOVWF  FF7
0AC58:  MOVLW  00
0AC5A:  MOVWF  FF8
0AC5C:  CALL   4138
....................          SendDataDisplay(); 
0AC60:  CALL   416A
....................          printf("vacio.txt=\"--\""); 
0AC64:  MOVLW  9C
0AC66:  MOVWF  FF6
0AC68:  MOVLW  10
0AC6A:  MOVWF  FF7
0AC6C:  MOVLW  00
0AC6E:  MOVWF  FF8
0AC70:  CALL   4138
....................          SendDataDisplay(); 
0AC74:  CALL   416A
....................          printf("desfogue.txt=\"--\""); 
0AC78:  MOVLW  AC
0AC7A:  MOVWF  FF6
0AC7C:  MOVLW  10
0AC7E:  MOVWF  FF7
0AC80:  MOVLW  00
0AC82:  MOVWF  FF8
0AC84:  CALL   4138
....................          SendDataDisplay(); 
0AC88:  CALL   416A
....................       }else if(CicloLibre>0 && CicloLibre<21 && estados[CicloLibre-1]){ 
0AC8C:  BRA    AF6E
0AC8E:  MOVLB  2
0AC90:  MOVF   x52,F
0AC92:  BTFSC  FD8.2
0AC94:  BRA    AF70
0AC96:  MOVF   x52,W
0AC98:  SUBLW  14
0AC9A:  BTFSS  FD8.0
0AC9C:  BRA    AF70
0AC9E:  MOVLW  01
0ACA0:  SUBWF  x52,W
0ACA2:  MOVLB  6
0ACA4:  MOVWF  xB6
0ACA6:  MOVLW  03
0ACA8:  MOVWF  xB8
0ACAA:  MOVLW  21
0ACAC:  MOVWF  xB7
0ACAE:  MOVLB  0
0ACB0:  CALL   24F8
0ACB4:  BTFSC  01.0
0ACB6:  BRA    ACBC
0ACB8:  MOVLB  2
0ACBA:  BRA    AF70
....................          printf("ciclo.txt=\"CICLO P%02u\"",CicloLibre+0x0a); 
0ACBC:  MOVLW  0A
0ACBE:  MOVLB  2
0ACC0:  ADDWF  x52,W
0ACC2:  MOVLB  6
0ACC4:  MOVWF  xB5
0ACC6:  MOVLW  BE
0ACC8:  MOVWF  FF6
0ACCA:  MOVLW  10
0ACCC:  MOVWF  FF7
0ACCE:  MOVLW  00
0ACD0:  MOVWF  FF8
0ACD2:  MOVLW  12
0ACD4:  MOVWF  xBA
0ACD6:  MOVLB  0
0ACD8:  CALL   5BEA
0ACDC:  MOVFF  6B5,6BA
0ACE0:  MOVLW  01
0ACE2:  MOVLB  6
0ACE4:  MOVWF  xBB
0ACE6:  MOVLB  0
0ACE8:  CALL   5C6E
0ACEC:  MOVLW  22
0ACEE:  BTFSS  F9E.4
0ACF0:  BRA    ACEE
0ACF2:  MOVWF  FAD
....................          SendDataDisplay();           
0ACF4:  CALL   416A
....................          printf("temp.txt=\"%u\"",CiclosPersonalizados[CicloLibre-1].Temperatura); 
0ACF8:  MOVLW  01
0ACFA:  MOVLB  2
0ACFC:  SUBWF  x52,W
0ACFE:  MULLW  08
0AD00:  MOVF   FF3,W
0AD02:  MOVLB  6
0AD04:  CLRF   xB6
0AD06:  MOVWF  xB5
0AD08:  MOVLW  ED
0AD0A:  ADDWF  xB5,W
0AD0C:  MOVWF  FE9
0AD0E:  MOVLW  05
0AD10:  ADDWFC xB6,W
0AD12:  MOVWF  FEA
0AD14:  MOVFF  FEF,6B5
0AD18:  MOVLW  D6
0AD1A:  MOVWF  FF6
0AD1C:  MOVLW  10
0AD1E:  MOVWF  FF7
0AD20:  MOVLW  00
0AD22:  MOVWF  FF8
0AD24:  MOVLW  0A
0AD26:  MOVWF  xBA
0AD28:  MOVLB  0
0AD2A:  CALL   5BEA
0AD2E:  MOVFF  6B5,6BA
0AD32:  MOVLW  1B
0AD34:  MOVLB  6
0AD36:  MOVWF  xBB
0AD38:  MOVLB  0
0AD3A:  CALL   5C6E
0AD3E:  MOVLW  22
0AD40:  BTFSS  F9E.4
0AD42:  BRA    AD40
0AD44:  MOVWF  FAD
....................          SendDataDisplay(); 
0AD46:  CALL   416A
....................          printf("test.txt=\"%02u:%02u\"",CiclosPersonalizados[CicloLibre-1].Minutoest,CiclosPersonalizados[CicloLibre-1].Segundoest); 
0AD4A:  MOVLW  01
0AD4C:  MOVLB  2
0AD4E:  SUBWF  x52,W
0AD50:  MULLW  08
0AD52:  MOVF   FF3,W
0AD54:  MOVLB  6
0AD56:  CLRF   xB6
0AD58:  MOVWF  xB5
0AD5A:  MOVLW  01
0AD5C:  ADDWF  xB5,W
0AD5E:  MOVWF  01
0AD60:  MOVLW  00
0AD62:  ADDWFC xB6,W
0AD64:  MOVWF  03
0AD66:  MOVF   01,W
0AD68:  ADDLW  ED
0AD6A:  MOVWF  FE9
0AD6C:  MOVLW  05
0AD6E:  ADDWFC 03,W
0AD70:  MOVWF  FEA
0AD72:  MOVFF  FEF,6B5
0AD76:  MOVLW  01
0AD78:  MOVLB  2
0AD7A:  SUBWF  x52,W
0AD7C:  MULLW  08
0AD7E:  MOVF   FF3,W
0AD80:  MOVLB  6
0AD82:  CLRF   xB7
0AD84:  MOVWF  xB6
0AD86:  MOVLW  02
0AD88:  ADDWF  xB6,W
0AD8A:  MOVWF  01
0AD8C:  MOVLW  00
0AD8E:  ADDWFC xB7,W
0AD90:  MOVWF  03
0AD92:  MOVF   01,W
0AD94:  ADDLW  ED
0AD96:  MOVWF  FE9
0AD98:  MOVLW  05
0AD9A:  ADDWFC 03,W
0AD9C:  MOVWF  FEA
0AD9E:  MOVFF  FEF,6B6
0ADA2:  MOVLW  E4
0ADA4:  MOVWF  FF6
0ADA6:  MOVLW  10
0ADA8:  MOVWF  FF7
0ADAA:  MOVLW  00
0ADAC:  MOVWF  FF8
0ADAE:  MOVLW  0A
0ADB0:  MOVWF  xBA
0ADB2:  MOVLB  0
0ADB4:  CALL   5BEA
0ADB8:  MOVFF  6B5,6BA
0ADBC:  MOVLW  01
0ADBE:  MOVLB  6
0ADC0:  MOVWF  xBB
0ADC2:  MOVLB  0
0ADC4:  CALL   5C6E
0ADC8:  MOVLW  3A
0ADCA:  BTFSS  F9E.4
0ADCC:  BRA    ADCA
0ADCE:  MOVWF  FAD
0ADD0:  MOVFF  6B6,6BA
0ADD4:  MOVLW  01
0ADD6:  MOVLB  6
0ADD8:  MOVWF  xBB
0ADDA:  MOVLB  0
0ADDC:  CALL   5C6E
0ADE0:  MOVLW  22
0ADE2:  BTFSS  F9E.4
0ADE4:  BRA    ADE2
0ADE6:  MOVWF  FAD
....................          SendDataDisplay(); 
0ADE8:  CALL   416A
....................          printf("tsec.txt=\"%02u:%02u\"",CiclosPersonalizados[CicloLibre-1].Minutosec,CiclosPersonalizados[CicloLibre-1].Segundosec); 
0ADEC:  MOVLW  01
0ADEE:  MOVLB  2
0ADF0:  SUBWF  x52,W
0ADF2:  MULLW  08
0ADF4:  MOVF   FF3,W
0ADF6:  MOVLB  6
0ADF8:  CLRF   xB6
0ADFA:  MOVWF  xB5
0ADFC:  MOVLW  03
0ADFE:  ADDWF  xB5,W
0AE00:  MOVWF  01
0AE02:  MOVLW  00
0AE04:  ADDWFC xB6,W
0AE06:  MOVWF  03
0AE08:  MOVF   01,W
0AE0A:  ADDLW  ED
0AE0C:  MOVWF  FE9
0AE0E:  MOVLW  05
0AE10:  ADDWFC 03,W
0AE12:  MOVWF  FEA
0AE14:  MOVFF  FEF,6B5
0AE18:  MOVLW  01
0AE1A:  MOVLB  2
0AE1C:  SUBWF  x52,W
0AE1E:  MULLW  08
0AE20:  MOVF   FF3,W
0AE22:  MOVLB  6
0AE24:  CLRF   xB7
0AE26:  MOVWF  xB6
0AE28:  MOVLW  04
0AE2A:  ADDWF  xB6,W
0AE2C:  MOVWF  01
0AE2E:  MOVLW  00
0AE30:  ADDWFC xB7,W
0AE32:  MOVWF  03
0AE34:  MOVF   01,W
0AE36:  ADDLW  ED
0AE38:  MOVWF  FE9
0AE3A:  MOVLW  05
0AE3C:  ADDWFC 03,W
0AE3E:  MOVWF  FEA
0AE40:  MOVFF  FEF,6B6
0AE44:  MOVLW  FA
0AE46:  MOVWF  FF6
0AE48:  MOVLW  10
0AE4A:  MOVWF  FF7
0AE4C:  MOVLW  00
0AE4E:  MOVWF  FF8
0AE50:  MOVLW  0A
0AE52:  MOVWF  xBA
0AE54:  MOVLB  0
0AE56:  CALL   5BEA
0AE5A:  MOVFF  6B5,6BA
0AE5E:  MOVLW  01
0AE60:  MOVLB  6
0AE62:  MOVWF  xBB
0AE64:  MOVLB  0
0AE66:  CALL   5C6E
0AE6A:  MOVLW  3A
0AE6C:  BTFSS  F9E.4
0AE6E:  BRA    AE6C
0AE70:  MOVWF  FAD
0AE72:  MOVFF  6B6,6BA
0AE76:  MOVLW  01
0AE78:  MOVLB  6
0AE7A:  MOVWF  xBB
0AE7C:  MOVLB  0
0AE7E:  CALL   5C6E
0AE82:  MOVLW  22
0AE84:  BTFSS  F9E.4
0AE86:  BRA    AE84
0AE88:  MOVWF  FAD
....................          SendDataDisplay(); 
0AE8A:  CALL   416A
....................          printf("pulsos.txt=\"%02u\"",CiclosPersonalizados[CicloLibre-1].PulsosVacio); 
0AE8E:  MOVLW  01
0AE90:  MOVLB  2
0AE92:  SUBWF  x52,W
0AE94:  MULLW  08
0AE96:  MOVF   FF3,W
0AE98:  MOVLB  6
0AE9A:  CLRF   xB6
0AE9C:  MOVWF  xB5
0AE9E:  MOVLW  05
0AEA0:  ADDWF  xB5,W
0AEA2:  MOVWF  01
0AEA4:  MOVLW  00
0AEA6:  ADDWFC xB6,W
0AEA8:  MOVWF  03
0AEAA:  MOVF   01,W
0AEAC:  ADDLW  ED
0AEAE:  MOVWF  FE9
0AEB0:  MOVLW  05
0AEB2:  ADDWFC 03,W
0AEB4:  MOVWF  FEA
0AEB6:  MOVFF  FEF,6B5
0AEBA:  MOVLW  10
0AEBC:  MOVWF  FF6
0AEBE:  MOVLW  11
0AEC0:  MOVWF  FF7
0AEC2:  MOVLW  00
0AEC4:  MOVWF  FF8
0AEC6:  MOVLW  0C
0AEC8:  MOVWF  xBA
0AECA:  MOVLB  0
0AECC:  CALL   5BEA
0AED0:  MOVFF  6B5,6BA
0AED4:  MOVLW  01
0AED6:  MOVLB  6
0AED8:  MOVWF  xBB
0AEDA:  MOVLB  0
0AEDC:  CALL   5C6E
0AEE0:  MOVLW  22
0AEE2:  BTFSS  F9E.4
0AEE4:  BRA    AEE2
0AEE6:  MOVWF  FAD
....................          SendDataDisplay(); 
0AEE8:  CALL   416A
....................          printf("vacio.txt=\"%03u kPa\"",CiclosPersonalizados[CicloLibre-1].NivelVacio); 
0AEEC:  MOVLW  01
0AEEE:  MOVLB  2
0AEF0:  SUBWF  x52,W
0AEF2:  MULLW  08
0AEF4:  MOVF   FF3,W
0AEF6:  MOVLB  6
0AEF8:  CLRF   xB6
0AEFA:  MOVWF  xB5
0AEFC:  MOVLW  06
0AEFE:  ADDWF  xB5,W
0AF00:  MOVWF  01
0AF02:  MOVLW  00
0AF04:  ADDWFC xB6,W
0AF06:  MOVWF  03
0AF08:  MOVF   01,W
0AF0A:  ADDLW  ED
0AF0C:  MOVWF  FE9
0AF0E:  MOVLW  05
0AF10:  ADDWFC 03,W
0AF12:  MOVWF  FEA
0AF14:  MOVFF  FEF,6B5
0AF18:  MOVLW  22
0AF1A:  MOVWF  FF6
0AF1C:  MOVLW  11
0AF1E:  MOVWF  FF7
0AF20:  MOVLW  00
0AF22:  MOVWF  FF8
0AF24:  MOVLW  0B
0AF26:  MOVWF  xBA
0AF28:  MOVLB  0
0AF2A:  CALL   5BEA
0AF2E:  MOVFF  6B5,6BA
0AF32:  MOVLW  03
0AF34:  MOVLB  6
0AF36:  MOVWF  xBB
0AF38:  MOVLB  0
0AF3A:  CALL   5C6E
0AF3E:  MOVLW  31
0AF40:  MOVWF  FF6
0AF42:  MOVLW  11
0AF44:  MOVWF  FF7
0AF46:  MOVLW  00
0AF48:  MOVWF  FF8
0AF4A:  MOVLW  05
0AF4C:  MOVLB  6
0AF4E:  MOVWF  xBA
0AF50:  MOVLB  0
0AF52:  CALL   5BEA
....................          SendDataDisplay(); 
0AF56:  CALL   416A
....................          //printf("desfogue.txt=\"%u\"",CiclosPersonalizados[CicloLibre-1].NivelDesfogue); 
....................          printf("desfogue.txt=\"N/A\""); 
0AF5A:  MOVLW  38
0AF5C:  MOVWF  FF6
0AF5E:  MOVLW  11
0AF60:  MOVWF  FF7
0AF62:  MOVLW  00
0AF64:  MOVWF  FF8
0AF66:  CALL   4138
....................          SendDataDisplay(); 
0AF6A:  CALL   416A
0AF6E:  MOVLB  2
....................       } 
....................        
....................       if(RX_Buffer[4]==0xa0){//a0, Menu Principal 
0AF70:  MOVF   34,W
0AF72:  SUBLW  A0
0AF74:  BNZ   AF8E
....................          printf("page Menu"); 
0AF76:  MOVLW  4C
0AF78:  MOVWF  FF6
0AF7A:  MOVLW  11
0AF7C:  MOVWF  FF7
0AF7E:  MOVLW  00
0AF80:  MOVWF  FF8
0AF82:  MOVLB  0
0AF84:  CALL   4138
....................          SendDataDisplay();      
0AF88:  CALL   416A
0AF8C:  MOVLB  2
....................       } 
....................        
....................       if(RX_Buffer[4]==0xb0){//b0, Personalizados 
0AF8E:  MOVF   34,W
0AF90:  SUBLW  B0
0AF92:  BNZ   AFAC
....................          printf("page CicloPersona"); 
0AF94:  MOVLW  56
0AF96:  MOVWF  FF6
0AF98:  MOVLW  11
0AF9A:  MOVWF  FF7
0AF9C:  MOVLW  00
0AF9E:  MOVWF  FF8
0AFA0:  MOVLB  0
0AFA2:  CALL   4138
....................          SendDataDisplay();      
0AFA6:  CALL   416A
0AFAA:  MOVLB  2
....................       } 
....................        
....................       if(RX_Buffer[4]==0xc0){//c0, Configuraciones 
0AFAC:  MOVF   34,W
0AFAE:  SUBLW  C0
0AFB0:  BNZ   AFD4
....................          if(codigoUsuario==0 || codigoUsuario==9){   
0AFB2:  MOVF   xB5,F
0AFB4:  BZ    AFBC
0AFB6:  MOVF   xB5,W
0AFB8:  SUBLW  09
0AFBA:  BNZ   AFD4
....................             printf("page Ajustes"); 
0AFBC:  MOVLW  68
0AFBE:  MOVWF  FF6
0AFC0:  MOVLW  11
0AFC2:  MOVWF  FF7
0AFC4:  MOVLW  00
0AFC6:  MOVWF  FF8
0AFC8:  MOVLB  0
0AFCA:  CALL   4138
....................             SendDataDisplay();      
0AFCE:  CALL   416A
0AFD2:  MOVLB  2
....................          } 
....................       } 
....................        
....................       if(RX_Buffer[4]==0x20 && CicloLibre>0){//20, Temperatura 
0AFD4:  MOVF   34,W
0AFD6:  SUBLW  20
0AFD8:  BNZ   B020
0AFDA:  MOVF   x52,F
0AFDC:  BZ    B020
....................          if(codigoUsuario==0 || codigoUsuario==9){   
0AFDE:  MOVF   xB5,F
0AFE0:  BZ    AFE8
0AFE2:  MOVF   xB5,W
0AFE4:  SUBLW  09
0AFE6:  BNZ   B020
....................             printf("page Temperatura"); 
0AFE8:  MOVLW  76
0AFEA:  MOVWF  FF6
0AFEC:  MOVLW  11
0AFEE:  MOVWF  FF7
0AFF0:  MOVLW  00
0AFF2:  MOVWF  FF8
0AFF4:  MOVLB  0
0AFF6:  CALL   4138
....................             SendDataDisplay();      
0AFFA:  CALL   416A
....................             Setpoint=CiclosPersonalizados[CicloLibre-1].Temperatura; 
0AFFE:  MOVLW  01
0B000:  MOVLB  2
0B002:  SUBWF  x52,W
0B004:  MULLW  08
0B006:  MOVF   FF3,W
0B008:  MOVLB  6
0B00A:  CLRF   xB6
0B00C:  MOVWF  xB5
0B00E:  MOVLW  ED
0B010:  ADDWF  xB5,W
0B012:  MOVWF  FE9
0B014:  MOVLW  05
0B016:  ADDWFC xB6,W
0B018:  MOVWF  FEA
0B01A:  MOVFF  FEF,26B
0B01E:  MOVLB  2
....................          } 
....................       } 
....................        
....................       if(RX_Buffer[4]==0x30 && CicloLibre>0){//30, Test 
0B020:  MOVF   34,W
0B022:  SUBLW  30
0B024:  BNZ   B0A8
0B026:  MOVF   x52,F
0B028:  BZ    B0A8
....................          if(codigoUsuario==0 || codigoUsuario==9){   
0B02A:  MOVF   xB5,F
0B02C:  BZ    B034
0B02E:  MOVF   xB5,W
0B030:  SUBLW  09
0B032:  BNZ   B0A8
....................             printf("page TiempoEst"); 
0B034:  MOVLW  88
0B036:  MOVWF  FF6
0B038:  MOVLW  11
0B03A:  MOVWF  FF7
0B03C:  MOVLW  00
0B03E:  MOVWF  FF8
0B040:  MOVLB  0
0B042:  CALL   4138
....................             SendDataDisplay();      
0B046:  CALL   416A
....................             mEstp=CiclosPersonalizados[CicloLibre-1].Minutoest; 
0B04A:  MOVLW  01
0B04C:  MOVLB  2
0B04E:  SUBWF  x52,W
0B050:  MULLW  08
0B052:  MOVF   FF3,W
0B054:  MOVLB  6
0B056:  CLRF   xB6
0B058:  MOVWF  xB5
0B05A:  MOVLW  01
0B05C:  ADDWF  xB5,W
0B05E:  MOVWF  01
0B060:  MOVLW  00
0B062:  ADDWFC xB6,W
0B064:  MOVWF  03
0B066:  MOVF   01,W
0B068:  ADDLW  ED
0B06A:  MOVWF  FE9
0B06C:  MOVLW  05
0B06E:  ADDWFC 03,W
0B070:  MOVWF  FEA
0B072:  MOVFF  FEF,127
0B076:  MOVLB  1
....................             sEstp=CiclosPersonalizados[CicloLibre-1].Segundoest; 
0B078:  MOVLW  01
0B07A:  MOVLB  2
0B07C:  SUBWF  x52,W
0B07E:  MULLW  08
0B080:  MOVF   FF3,W
0B082:  MOVLB  6
0B084:  CLRF   xB6
0B086:  MOVWF  xB5
0B088:  MOVLW  02
0B08A:  ADDWF  xB5,W
0B08C:  MOVWF  01
0B08E:  MOVLW  00
0B090:  ADDWFC xB6,W
0B092:  MOVWF  03
0B094:  MOVF   01,W
0B096:  ADDLW  ED
0B098:  MOVWF  FE9
0B09A:  MOVLW  05
0B09C:  ADDWFC 03,W
0B09E:  MOVWF  FEA
0B0A0:  MOVFF  FEF,126
0B0A4:  MOVLB  1
0B0A6:  MOVLB  2
....................          } 
....................       } 
....................        
....................       if(RX_Buffer[4]==0x40 && CicloLibre>0){//40, Tsec 
0B0A8:  MOVF   34,W
0B0AA:  SUBLW  40
0B0AC:  BNZ   B130
0B0AE:  MOVF   x52,F
0B0B0:  BZ    B130
....................          if(codigoUsuario==0 || codigoUsuario==9){   
0B0B2:  MOVF   xB5,F
0B0B4:  BZ    B0BC
0B0B6:  MOVF   xB5,W
0B0B8:  SUBLW  09
0B0BA:  BNZ   B130
....................             printf("page TiempoSec"); 
0B0BC:  MOVLW  98
0B0BE:  MOVWF  FF6
0B0C0:  MOVLW  11
0B0C2:  MOVWF  FF7
0B0C4:  MOVLW  00
0B0C6:  MOVWF  FF8
0B0C8:  MOVLB  0
0B0CA:  CALL   4138
....................             SendDataDisplay();    
0B0CE:  CALL   416A
....................             mSecp=CiclosPersonalizados[CicloLibre-1].Minutosec; 
0B0D2:  MOVLW  01
0B0D4:  MOVLB  2
0B0D6:  SUBWF  x52,W
0B0D8:  MULLW  08
0B0DA:  MOVF   FF3,W
0B0DC:  MOVLB  6
0B0DE:  CLRF   xB6
0B0E0:  MOVWF  xB5
0B0E2:  MOVLW  03
0B0E4:  ADDWF  xB5,W
0B0E6:  MOVWF  01
0B0E8:  MOVLW  00
0B0EA:  ADDWFC xB6,W
0B0EC:  MOVWF  03
0B0EE:  MOVF   01,W
0B0F0:  ADDLW  ED
0B0F2:  MOVWF  FE9
0B0F4:  MOVLW  05
0B0F6:  ADDWFC 03,W
0B0F8:  MOVWF  FEA
0B0FA:  MOVFF  FEF,129
0B0FE:  MOVLB  1
....................             sSecp=CiclosPersonalizados[CicloLibre-1].Segundosec; 
0B100:  MOVLW  01
0B102:  MOVLB  2
0B104:  SUBWF  x52,W
0B106:  MULLW  08
0B108:  MOVF   FF3,W
0B10A:  MOVLB  6
0B10C:  CLRF   xB6
0B10E:  MOVWF  xB5
0B110:  MOVLW  04
0B112:  ADDWF  xB5,W
0B114:  MOVWF  01
0B116:  MOVLW  00
0B118:  ADDWFC xB6,W
0B11A:  MOVWF  03
0B11C:  MOVF   01,W
0B11E:  ADDLW  ED
0B120:  MOVWF  FE9
0B122:  MOVLW  05
0B124:  ADDWFC 03,W
0B126:  MOVWF  FEA
0B128:  MOVFF  FEF,128
0B12C:  MOVLB  1
0B12E:  MOVLB  2
....................          } 
....................       } 
....................        
....................       if(RX_Buffer[4]==0x50 && CicloLibre>0){//50, PulsosVacio 
0B130:  MOVF   34,W
0B132:  SUBLW  50
0B134:  BNZ   B188
0B136:  MOVF   x52,F
0B138:  BZ    B188
....................          if(codigoUsuario==0 || codigoUsuario==9){   
0B13A:  MOVF   xB5,F
0B13C:  BZ    B144
0B13E:  MOVF   xB5,W
0B140:  SUBLW  09
0B142:  BNZ   B188
....................             printf("page Pulsos"); 
0B144:  MOVLW  A8
0B146:  MOVWF  FF6
0B148:  MOVLW  11
0B14A:  MOVWF  FF7
0B14C:  MOVLW  00
0B14E:  MOVWF  FF8
0B150:  MOVLB  0
0B152:  CALL   4138
....................             SendDataDisplay();      
0B156:  CALL   416A
....................             Pulsos=CiclosPersonalizados[CicloLibre-1].PulsosVacio; 
0B15A:  MOVLW  01
0B15C:  MOVLB  2
0B15E:  SUBWF  x52,W
0B160:  MULLW  08
0B162:  MOVF   FF3,W
0B164:  MOVLB  6
0B166:  CLRF   xB6
0B168:  MOVWF  xB5
0B16A:  MOVLW  05
0B16C:  ADDWF  xB5,W
0B16E:  MOVWF  01
0B170:  MOVLW  00
0B172:  ADDWFC xB6,W
0B174:  MOVWF  03
0B176:  MOVF   01,W
0B178:  ADDLW  ED
0B17A:  MOVWF  FE9
0B17C:  MOVLW  05
0B17E:  ADDWFC 03,W
0B180:  MOVWF  FEA
0B182:  MOVFF  FEF,2B3
0B186:  MOVLB  2
....................          } 
....................       } 
....................        
....................       if(RX_Buffer[4]==0x60 && CicloLibre>0){//60, NivelVacio 
0B188:  MOVF   34,W
0B18A:  SUBLW  60
0B18C:  BNZ   B1E6
0B18E:  MOVF   x52,F
0B190:  BZ    B1E6
....................          if(codigoUsuario==0 || codigoUsuario==9){   
0B192:  MOVF   xB5,F
0B194:  BZ    B19C
0B196:  MOVF   xB5,W
0B198:  SUBLW  09
0B19A:  BNZ   B1E6
....................             printf("page Nivel"); 
0B19C:  MOVLW  B4
0B19E:  MOVWF  FF6
0B1A0:  MOVLW  11
0B1A2:  MOVWF  FF7
0B1A4:  MOVLW  00
0B1A6:  MOVWF  FF8
0B1A8:  MOVLB  0
0B1AA:  CALL   4138
....................             SendDataDisplay();      
0B1AE:  CALL   416A
....................             Nivel=CiclosPersonalizados[CicloLibre-1].NivelVacio; 
0B1B2:  MOVLW  01
0B1B4:  MOVLB  2
0B1B6:  SUBWF  x52,W
0B1B8:  MULLW  08
0B1BA:  MOVF   FF3,W
0B1BC:  MOVLB  6
0B1BE:  CLRF   xB6
0B1C0:  MOVWF  xB5
0B1C2:  MOVLW  06
0B1C4:  ADDWF  xB5,W
0B1C6:  MOVWF  01
0B1C8:  MOVLW  00
0B1CA:  ADDWFC xB6,W
0B1CC:  MOVWF  03
0B1CE:  MOVF   01,W
0B1D0:  ADDLW  ED
0B1D2:  MOVWF  FE9
0B1D4:  MOVLW  05
0B1D6:  ADDWFC 03,W
0B1D8:  MOVWF  FEA
0B1DA:  MOVF   FEF,W
0B1DC:  CLRF   03
0B1DE:  MOVLB  2
0B1E0:  MOVWF  x78
0B1E2:  MOVFF  03,279
....................          } 
....................       } 
....................        
....................       if(RX_Buffer[4]==0x80 && CicloLibre>0){//80, NivelDesfogue 
0B1E6:  MOVF   34,W
0B1E8:  SUBLW  80
0B1EA:  BNZ   B1F0
0B1EC:  MOVF   x52,F
0B1EE:  BZ    B1F0
....................          //printf("page NivelDes"); 
....................          //SendDataDisplay();      
....................          //NivelDes=CiclosPersonalizados[CicloLibre-1].NivelDesfogue; 
....................       } 
....................        
....................       if(RX_Buffer[4]==0x70 && CicloLibre>0){//70, Iniciar Ciclo 
0B1F0:  MOVF   34,W
0B1F2:  SUBLW  70
0B1F4:  BTFSS  FD8.2
0B1F6:  BRA    B3DA
0B1F8:  MOVF   x52,F
0B1FA:  BTFSC  FD8.2
0B1FC:  BRA    B3DA
....................          printf("page Funcionamiento"); 
0B1FE:  MOVLW  C0
0B200:  MOVWF  FF6
0B202:  MOVLW  11
0B204:  MOVWF  FF7
0B206:  MOVLW  00
0B208:  MOVWF  FF8
0B20A:  MOVLB  0
0B20C:  CALL   4138
....................          SendDataDisplay();        
0B210:  CALL   416A
....................          Libre=ON; 
0B214:  MOVLB  1
0B216:  BSF    x07.0
....................          ConfiguraCiclo(CiclosPersonalizados[CicloLibre-1].Segundoest,CiclosPersonalizados[CicloLibre-1].Minutoest, 
....................          CiclosPersonalizados[CicloLibre-1].Segundosec,CiclosPersonalizados[CicloLibre-1].MinutoSec,0,CicloLibre+10, 
....................          CiclosPersonalizados[CicloLibre-1].Temperatura,CiclosPersonalizados[CicloLibre-1].PulsosVacio,CiclosPersonalizados[CicloLibre-1].NivelVacio 
....................          ,0); 
0B218:  MOVLW  01
0B21A:  MOVLB  2
0B21C:  SUBWF  x52,W
0B21E:  MULLW  08
0B220:  MOVF   FF3,W
0B222:  MOVLB  6
0B224:  CLRF   xB6
0B226:  MOVWF  xB5
0B228:  MOVLW  02
0B22A:  ADDWF  xB5,W
0B22C:  MOVWF  01
0B22E:  MOVLW  00
0B230:  ADDWFC xB6,W
0B232:  MOVWF  03
0B234:  MOVF   01,W
0B236:  ADDLW  ED
0B238:  MOVWF  FE9
0B23A:  MOVLW  05
0B23C:  ADDWFC 03,W
0B23E:  MOVWF  FEA
0B240:  MOVFF  FEF,6B5
0B244:  MOVLW  01
0B246:  MOVLB  2
0B248:  SUBWF  x52,W
0B24A:  MULLW  08
0B24C:  MOVF   FF3,W
0B24E:  MOVLB  6
0B250:  CLRF   xB7
0B252:  MOVWF  xB6
0B254:  MOVLW  01
0B256:  ADDWF  xB6,W
0B258:  MOVWF  01
0B25A:  MOVLW  00
0B25C:  ADDWFC xB7,W
0B25E:  MOVWF  03
0B260:  MOVF   01,W
0B262:  ADDLW  ED
0B264:  MOVWF  FE9
0B266:  MOVLW  05
0B268:  ADDWFC 03,W
0B26A:  MOVWF  FEA
0B26C:  MOVFF  FEF,6B6
0B270:  MOVLW  01
0B272:  MOVLB  2
0B274:  SUBWF  x52,W
0B276:  MULLW  08
0B278:  MOVF   FF3,W
0B27A:  MOVLB  6
0B27C:  CLRF   xB8
0B27E:  MOVWF  xB7
0B280:  MOVLW  04
0B282:  ADDWF  xB7,W
0B284:  MOVWF  01
0B286:  MOVLW  00
0B288:  ADDWFC xB8,W
0B28A:  MOVWF  03
0B28C:  MOVF   01,W
0B28E:  ADDLW  ED
0B290:  MOVWF  FE9
0B292:  MOVLW  05
0B294:  ADDWFC 03,W
0B296:  MOVWF  FEA
0B298:  MOVFF  FEF,6B7
0B29C:  MOVLW  01
0B29E:  MOVLB  2
0B2A0:  SUBWF  x52,W
0B2A2:  MULLW  08
0B2A4:  MOVF   FF3,W
0B2A6:  MOVLB  6
0B2A8:  CLRF   xB9
0B2AA:  MOVWF  xB8
0B2AC:  MOVLW  03
0B2AE:  ADDWF  xB8,W
0B2B0:  MOVWF  01
0B2B2:  MOVLW  00
0B2B4:  ADDWFC xB9,W
0B2B6:  MOVWF  03
0B2B8:  MOVF   01,W
0B2BA:  ADDLW  ED
0B2BC:  MOVWF  FE9
0B2BE:  MOVLW  05
0B2C0:  ADDWFC 03,W
0B2C2:  MOVWF  FEA
0B2C4:  MOVFF  FEF,6B8
0B2C8:  MOVLW  0A
0B2CA:  MOVLB  2
0B2CC:  ADDWF  x52,W
0B2CE:  MOVLB  6
0B2D0:  MOVWF  xB9
0B2D2:  MOVLW  01
0B2D4:  MOVLB  2
0B2D6:  SUBWF  x52,W
0B2D8:  MULLW  08
0B2DA:  MOVF   FF3,W
0B2DC:  MOVLB  6
0B2DE:  CLRF   xBB
0B2E0:  MOVWF  xBA
0B2E2:  MOVLW  ED
0B2E4:  ADDWF  xBA,W
0B2E6:  MOVWF  FE9
0B2E8:  MOVLW  05
0B2EA:  ADDWFC xBB,W
0B2EC:  MOVWF  FEA
0B2EE:  MOVFF  FEF,6BA
0B2F2:  MOVLW  01
0B2F4:  MOVLB  2
0B2F6:  SUBWF  x52,W
0B2F8:  MULLW  08
0B2FA:  MOVF   FF3,W
0B2FC:  MOVLB  6
0B2FE:  CLRF   xBC
0B300:  MOVWF  xBB
0B302:  MOVLW  05
0B304:  ADDWF  xBB,W
0B306:  MOVWF  01
0B308:  MOVLW  00
0B30A:  ADDWFC xBC,W
0B30C:  MOVWF  03
0B30E:  MOVF   01,W
0B310:  ADDLW  ED
0B312:  MOVWF  FE9
0B314:  MOVLW  05
0B316:  ADDWFC 03,W
0B318:  MOVWF  FEA
0B31A:  MOVFF  FEF,6BB
0B31E:  MOVLW  01
0B320:  MOVLB  2
0B322:  SUBWF  x52,W
0B324:  MULLW  08
0B326:  MOVF   FF3,W
0B328:  MOVLB  6
0B32A:  CLRF   xBD
0B32C:  MOVWF  xBC
0B32E:  MOVLW  06
0B330:  ADDWF  xBC,W
0B332:  MOVWF  01
0B334:  MOVLW  00
0B336:  ADDWFC xBD,W
0B338:  MOVWF  03
0B33A:  MOVF   01,W
0B33C:  ADDLW  ED
0B33E:  MOVWF  FE9
0B340:  MOVLW  05
0B342:  ADDWFC 03,W
0B344:  MOVWF  FEA
0B346:  MOVFF  FEF,6BC
0B34A:  MOVFF  6B5,6BD
0B34E:  MOVFF  6B6,6BE
0B352:  MOVFF  6B7,6BF
0B356:  MOVFF  6B8,6C0
0B35A:  CLRF   xC1
0B35C:  MOVFF  6B9,6C2
0B360:  MOVFF  6BA,6C3
0B364:  MOVFF  6BB,6C4
0B368:  MOVFF  6BC,6C5
0B36C:  CLRF   xC6
0B36E:  MOVLB  0
0B370:  CALL   5CEC
....................          NivelVacio=CiclosPersonalizados[CicloLibre-1].NivelVacio; 
0B374:  MOVLW  01
0B376:  MOVLB  2
0B378:  SUBWF  x52,W
0B37A:  MULLW  08
0B37C:  MOVF   FF3,W
0B37E:  MOVLB  6
0B380:  CLRF   xB6
0B382:  MOVWF  xB5
0B384:  MOVLW  06
0B386:  ADDWF  xB5,W
0B388:  MOVWF  01
0B38A:  MOVLW  00
0B38C:  ADDWFC xB6,W
0B38E:  MOVWF  03
0B390:  MOVF   01,W
0B392:  ADDLW  ED
0B394:  MOVWF  FE9
0B396:  MOVLW  05
0B398:  ADDWFC 03,W
0B39A:  MOVWF  FEA
0B39C:  MOVFF  FEF,2A7
0B3A0:  MOVLB  2
....................          CantidadPulsos=CiclosPersonalizados[CicloLibre-1].PulsosVacio; 
0B3A2:  MOVLW  01
0B3A4:  SUBWF  x52,W
0B3A6:  MULLW  08
0B3A8:  MOVF   FF3,W
0B3AA:  MOVLB  6
0B3AC:  CLRF   xB6
0B3AE:  MOVWF  xB5
0B3B0:  MOVLW  05
0B3B2:  ADDWF  xB5,W
0B3B4:  MOVWF  01
0B3B6:  MOVLW  00
0B3B8:  ADDWFC xB6,W
0B3BA:  MOVWF  03
0B3BC:  MOVF   01,W
0B3BE:  ADDLW  ED
0B3C0:  MOVWF  FE9
0B3C2:  MOVLW  05
0B3C4:  ADDWFC 03,W
0B3C6:  MOVWF  FEA
0B3C8:  MOVF   FEF,W
0B3CA:  CLRF   03
0B3CC:  MOVLB  2
0B3CE:  MOVWF  x65
0B3D0:  MOVFF  03,266
....................          Fugas=OFF; 
0B3D4:  MOVLB  1
0B3D6:  BCF    x07.2
0B3D8:  MOVLB  2
....................       } 
....................    }else if(Menu==9){//Menu de Pulsos de Vacio 
0B3DA:  GOTO   F7C2
0B3DE:  MOVF   x5D,W
0B3E0:  SUBLW  09
0B3E2:  BTFSS  FD8.2
0B3E4:  BRA    B5BE
....................       printf("fecha.txt=\"Fecha:%02u/%02u/20%02u Hora: %02u:%02u:%02u\"",Dia,Mes,Year,Hora,Minuto,Segundo); 
0B3E6:  MOVLW  D4
0B3E8:  MOVWF  FF6
0B3EA:  MOVLW  11
0B3EC:  MOVWF  FF7
0B3EE:  MOVLW  00
0B3F0:  MOVWF  FF8
0B3F2:  MOVLW  11
0B3F4:  MOVLB  6
0B3F6:  MOVWF  xBA
0B3F8:  MOVLB  0
0B3FA:  CALL   5BEA
0B3FE:  MOVFF  2A0,6BA
0B402:  MOVLW  01
0B404:  MOVLB  6
0B406:  MOVWF  xBB
0B408:  MOVLB  0
0B40A:  CALL   5C6E
0B40E:  MOVLW  2F
0B410:  BTFSS  F9E.4
0B412:  BRA    B410
0B414:  MOVWF  FAD
0B416:  MOVFF  29F,6BA
0B41A:  MOVLW  01
0B41C:  MOVLB  6
0B41E:  MOVWF  xBB
0B420:  MOVLB  0
0B422:  CALL   5C6E
0B426:  MOVLW  2F
0B428:  BTFSS  F9E.4
0B42A:  BRA    B428
0B42C:  MOVWF  FAD
0B42E:  MOVLW  32
0B430:  BTFSS  F9E.4
0B432:  BRA    B430
0B434:  MOVWF  FAD
0B436:  MOVLW  30
0B438:  BTFSS  F9E.4
0B43A:  BRA    B438
0B43C:  MOVWF  FAD
0B43E:  MOVFF  29E,6BA
0B442:  MOVLW  01
0B444:  MOVLB  6
0B446:  MOVWF  xBB
0B448:  MOVLB  0
0B44A:  CALL   5C6E
0B44E:  MOVLW  F5
0B450:  MOVWF  FF6
0B452:  MOVLW  11
0B454:  MOVWF  FF7
0B456:  MOVLW  00
0B458:  MOVWF  FF8
0B45A:  MOVLW  07
0B45C:  MOVLB  6
0B45E:  MOVWF  xBA
0B460:  MOVLB  0
0B462:  CALL   5BEA
0B466:  MOVFF  2A1,6BA
0B46A:  MOVLW  01
0B46C:  MOVLB  6
0B46E:  MOVWF  xBB
0B470:  MOVLB  0
0B472:  CALL   5C6E
0B476:  MOVLW  3A
0B478:  BTFSS  F9E.4
0B47A:  BRA    B478
0B47C:  MOVWF  FAD
0B47E:  MOVFF  2A2,6BA
0B482:  MOVLW  01
0B484:  MOVLB  6
0B486:  MOVWF  xBB
0B488:  MOVLB  0
0B48A:  CALL   5C6E
0B48E:  MOVLW  3A
0B490:  BTFSS  F9E.4
0B492:  BRA    B490
0B494:  MOVWF  FAD
0B496:  MOVFF  2A3,6BA
0B49A:  MOVLW  01
0B49C:  MOVLB  6
0B49E:  MOVWF  xBB
0B4A0:  MOVLB  0
0B4A2:  CALL   5C6E
0B4A6:  MOVLW  22
0B4A8:  BTFSS  F9E.4
0B4AA:  BRA    B4A8
0B4AC:  MOVWF  FAD
....................       SendDataDisplay(); 
0B4AE:  CALL   416A
....................          if(Pulsos<4) 
0B4B2:  MOVLB  2
0B4B4:  MOVF   xB3,W
0B4B6:  SUBLW  03
0B4B8:  BNC   B4BE
....................             Pulsos=15; 
0B4BA:  MOVLW  0F
0B4BC:  MOVWF  xB3
....................          if(Pulsos>15) 
0B4BE:  MOVF   xB3,W
0B4C0:  SUBLW  0F
0B4C2:  BC    B4C8
....................             Pulsos=4; 
0B4C4:  MOVLW  04
0B4C6:  MOVWF  xB3
....................           
....................          if(RX_Buffer[4]==0x11){//Selecciono Regresar 
0B4C8:  MOVF   34,W
0B4CA:  SUBLW  11
0B4CC:  BNZ   B56C
....................             Segundos=OFF; 
0B4CE:  MOVLB  1
0B4D0:  BCF    x05.4
....................             Minutos=OFF;             
0B4D2:  BCF    x05.3
....................             printf("page CicloPersona"); 
0B4D4:  MOVLW  0C
0B4D6:  MOVWF  FF6
0B4D8:  MOVLW  12
0B4DA:  MOVWF  FF7
0B4DC:  MOVLW  00
0B4DE:  MOVWF  FF8
0B4E0:  MOVLB  0
0B4E2:  CALL   4138
....................             SendDataDisplay();   
0B4E6:  CALL   416A
....................             if(!GuardaEEPROM){     
0B4EA:  MOVLB  1
0B4EC:  BTFSC  x05.5
0B4EE:  BRA    B56A
....................                CiclosPersonalizados[CicloLibre-1].PulsosVacio=Pulsos; 
0B4F0:  MOVLW  01
0B4F2:  MOVLB  2
0B4F4:  SUBWF  x52,W
0B4F6:  MULLW  08
0B4F8:  MOVF   FF3,W
0B4FA:  MOVLB  6
0B4FC:  CLRF   xB6
0B4FE:  MOVWF  xB5
0B500:  MOVLW  05
0B502:  ADDWF  xB5,W
0B504:  MOVWF  01
0B506:  MOVLW  00
0B508:  ADDWFC xB6,W
0B50A:  MOVWF  03
0B50C:  MOVF   01,W
0B50E:  ADDLW  ED
0B510:  MOVWF  FE9
0B512:  MOVLW  05
0B514:  ADDWFC 03,W
0B516:  MOVWF  FEA
0B518:  MOVFF  2B3,FEF
....................                write_eeprom(105+((CicloLibre-1)*8),Pulsos); 
0B51C:  MOVLW  01
0B51E:  MOVLB  2
0B520:  SUBWF  x52,W
0B522:  MULLW  08
0B524:  MOVF   FF3,W
0B526:  ADDLW  69
0B528:  MOVLB  6
0B52A:  MOVWF  xB5
0B52C:  CLRF   FAA
0B52E:  MOVFF  6B5,FA9
0B532:  MOVFF  2B3,FA8
0B536:  BCF    FA6.6
0B538:  BCF    FA6.7
0B53A:  BSF    FA6.2
0B53C:  MOVF   FF2,W
0B53E:  MOVWF  00
0B540:  BCF    FF2.6
0B542:  BCF    FF2.7
0B544:  MOVLB  F
0B546:  MOVLW  55
0B548:  MOVWF  FA7
0B54A:  MOVLW  AA
0B54C:  MOVWF  FA7
0B54E:  BSF    FA6.1
0B550:  BTFSC  FA6.1
0B552:  BRA    B550
0B554:  BCF    FA6.2
0B556:  MOVF   00,W
0B558:  IORWF  FF2,F
....................                delay_ms(20);             
0B55A:  MOVLW  14
0B55C:  MOVLB  6
0B55E:  MOVWF  xC7
0B560:  MOVLB  0
0B562:  CALL   20B8
....................                //NivelSeleccionado=9990*Nivel; 
....................                GuardaEEPROM=ON; 
0B566:  MOVLB  1
0B568:  BSF    x05.5
0B56A:  MOVLB  2
....................             } 
....................          } 
....................           
....................          if(RX_Buffer[4]==0x0d){//Tecla Arriba Oprimida 
0B56C:  MOVF   34,W
0B56E:  SUBLW  0D
0B570:  BNZ   B578
....................             Pulsos++; 
0B572:  INCF   xB3,F
....................             RX_Buffer[4]=0x00;             
0B574:  CLRF   34
....................             RX_Buffer2[4]=0x00;             
0B576:  CLRF   3F
....................             //BorraBuffer(); 
....................          } 
....................           
....................          if(RX_Buffer[4]==0x0c){//Tecla Abajo Oprimida 
0B578:  MOVF   34,W
0B57A:  SUBLW  0C
0B57C:  BNZ   B584
....................             Pulsos--; 
0B57E:  DECF   xB3,F
....................             RX_Buffer[4]=0x00; 
0B580:  CLRF   34
....................             RX_Buffer2[4]=0x00;             
0B582:  CLRF   3F
....................             //BorraBuffer(); 
....................          } 
....................           
....................       printf("tnivel.txt=\"%u\"",Pulsos); 
0B584:  MOVLW  1E
0B586:  MOVWF  FF6
0B588:  MOVLW  12
0B58A:  MOVWF  FF7
0B58C:  MOVLW  00
0B58E:  MOVWF  FF8
0B590:  MOVLW  0C
0B592:  MOVLB  6
0B594:  MOVWF  xBA
0B596:  MOVLB  0
0B598:  CALL   5BEA
0B59C:  MOVFF  2B3,6BA
0B5A0:  MOVLW  1B
0B5A2:  MOVLB  6
0B5A4:  MOVWF  xBB
0B5A6:  MOVLB  0
0B5A8:  CALL   5C6E
0B5AC:  MOVLW  22
0B5AE:  BTFSS  F9E.4
0B5B0:  BRA    B5AE
0B5B2:  MOVWF  FAD
....................       SendDataDisplay(); 
0B5B4:  CALL   416A
....................    }else if(Menu==10){//Menu de Usuarios 
0B5B8:  GOTO   F7C2
0B5BC:  MOVLB  2
0B5BE:  MOVF   x5D,W
0B5C0:  SUBLW  0A
0B5C2:  BTFSS  FD8.2
0B5C4:  BRA    BA88
....................       printf("fecha.txt=\"Fecha:%02u/%02u/20%02u Hora: %02u:%02u:%02u\"",Dia,Mes,Year,Hora,Minuto,Segundo); 
0B5C6:  MOVLW  2E
0B5C8:  MOVWF  FF6
0B5CA:  MOVLW  12
0B5CC:  MOVWF  FF7
0B5CE:  MOVLW  00
0B5D0:  MOVWF  FF8
0B5D2:  MOVLW  11
0B5D4:  MOVLB  6
0B5D6:  MOVWF  xBA
0B5D8:  MOVLB  0
0B5DA:  CALL   5BEA
0B5DE:  MOVFF  2A0,6BA
0B5E2:  MOVLW  01
0B5E4:  MOVLB  6
0B5E6:  MOVWF  xBB
0B5E8:  MOVLB  0
0B5EA:  CALL   5C6E
0B5EE:  MOVLW  2F
0B5F0:  BTFSS  F9E.4
0B5F2:  BRA    B5F0
0B5F4:  MOVWF  FAD
0B5F6:  MOVFF  29F,6BA
0B5FA:  MOVLW  01
0B5FC:  MOVLB  6
0B5FE:  MOVWF  xBB
0B600:  MOVLB  0
0B602:  CALL   5C6E
0B606:  MOVLW  2F
0B608:  BTFSS  F9E.4
0B60A:  BRA    B608
0B60C:  MOVWF  FAD
0B60E:  MOVLW  32
0B610:  BTFSS  F9E.4
0B612:  BRA    B610
0B614:  MOVWF  FAD
0B616:  MOVLW  30
0B618:  BTFSS  F9E.4
0B61A:  BRA    B618
0B61C:  MOVWF  FAD
0B61E:  MOVFF  29E,6BA
0B622:  MOVLW  01
0B624:  MOVLB  6
0B626:  MOVWF  xBB
0B628:  MOVLB  0
0B62A:  CALL   5C6E
0B62E:  MOVLW  4F
0B630:  MOVWF  FF6
0B632:  MOVLW  12
0B634:  MOVWF  FF7
0B636:  MOVLW  00
0B638:  MOVWF  FF8
0B63A:  MOVLW  07
0B63C:  MOVLB  6
0B63E:  MOVWF  xBA
0B640:  MOVLB  0
0B642:  CALL   5BEA
0B646:  MOVFF  2A1,6BA
0B64A:  MOVLW  01
0B64C:  MOVLB  6
0B64E:  MOVWF  xBB
0B650:  MOVLB  0
0B652:  CALL   5C6E
0B656:  MOVLW  3A
0B658:  BTFSS  F9E.4
0B65A:  BRA    B658
0B65C:  MOVWF  FAD
0B65E:  MOVFF  2A2,6BA
0B662:  MOVLW  01
0B664:  MOVLB  6
0B666:  MOVWF  xBB
0B668:  MOVLB  0
0B66A:  CALL   5C6E
0B66E:  MOVLW  3A
0B670:  BTFSS  F9E.4
0B672:  BRA    B670
0B674:  MOVWF  FAD
0B676:  MOVFF  2A3,6BA
0B67A:  MOVLW  01
0B67C:  MOVLB  6
0B67E:  MOVWF  xBB
0B680:  MOVLB  0
0B682:  CALL   5C6E
0B686:  MOVLW  22
0B688:  BTFSS  F9E.4
0B68A:  BRA    B688
0B68C:  MOVWF  FAD
....................       SendDataDisplay(); 
0B68E:  CALL   416A
....................       GuardaEEPROM=OFF; 
0B692:  MOVLB  1
0B694:  BCF    x05.5
....................       if(ingreso) 
0B696:  BTFSS  x07.1
0B698:  BRA    B6A0
....................          TipoClave=2; 
0B69A:  MOVLW  02
0B69C:  MOVWF  xFA
....................       else 
0B69E:  BRA    B6A2
....................          TipoClave=0; 
0B6A0:  CLRF   xFA
....................        
....................       if(RX_Buffer[4]==0x01){//01, Admin 
0B6A2:  DECFSZ 34,W
0B6A4:  BRA    B6FC
....................          printf("page Clave"); 
0B6A6:  MOVLW  66
0B6A8:  MOVWF  FF6
0B6AA:  MOVLW  12
0B6AC:  MOVWF  FF7
0B6AE:  MOVLW  00
0B6B0:  MOVWF  FF8
0B6B2:  MOVLB  0
0B6B4:  CALL   4138
....................          SendDataDisplay();        
0B6B8:  CALL   416A
....................          if(!ingreso){ 
0B6BC:  MOVLB  1
0B6BE:  BTFSC  x07.1
0B6C0:  BRA    B6F4
....................             usuario="Admin"; 
0B6C2:  MOVLW  02
0B6C4:  MOVWF  FEA
0B6C6:  MOVLW  BB
0B6C8:  MOVWF  FE9
0B6CA:  MOVFF  FF2,6B5
0B6CE:  BCF    FF2.6
0B6D0:  BCF    FF2.7
0B6D2:  MOVLW  00
0B6D4:  MOVLB  0
0B6D6:  CALL   0144
0B6DA:  TBLRD*-
0B6DC:  TBLRD*+
0B6DE:  MOVF   FF5,W
0B6E0:  MOVWF  FEE
0B6E2:  IORLW  00
0B6E4:  BNZ   B6DC
0B6E6:  MOVLB  6
0B6E8:  BTFSC  xB5.6
0B6EA:  BSF    FF2.6
0B6EC:  BTFSC  xB5.7
0B6EE:  BSF    FF2.7
....................             codigoUsuario=0; 
0B6F0:  MOVLB  2
0B6F2:  CLRF   xB5
....................          } 
....................          codigoUsuario2=0; 
0B6F4:  MOVLB  2
0B6F6:  CLRF   x99
....................       }else if(RX_Buffer[4]==0x02){//02, Operador 1 
0B6F8:  BRA    BA58
0B6FA:  MOVLB  1
0B6FC:  MOVF   34,W
0B6FE:  SUBLW  02
0B700:  BNZ   B75C
....................          printf("page Clave"); 
0B702:  MOVLW  72
0B704:  MOVWF  FF6
0B706:  MOVLW  12
0B708:  MOVWF  FF7
0B70A:  MOVLW  00
0B70C:  MOVWF  FF8
0B70E:  MOVLB  0
0B710:  CALL   4138
....................          SendDataDisplay();        
0B714:  CALL   416A
....................          if(!ingreso){ 
0B718:  MOVLB  1
0B71A:  BTFSC  x07.1
0B71C:  BRA    B752
....................             usuario="Operador 1"; 
0B71E:  MOVLW  02
0B720:  MOVWF  FEA
0B722:  MOVLW  BB
0B724:  MOVWF  FE9
0B726:  MOVFF  FF2,6B5
0B72A:  BCF    FF2.6
0B72C:  BCF    FF2.7
0B72E:  MOVLW  00
0B730:  MOVLB  0
0B732:  CALL   016E
0B736:  TBLRD*-
0B738:  TBLRD*+
0B73A:  MOVF   FF5,W
0B73C:  MOVWF  FEE
0B73E:  IORLW  00
0B740:  BNZ   B738
0B742:  MOVLB  6
0B744:  BTFSC  xB5.6
0B746:  BSF    FF2.6
0B748:  BTFSC  xB5.7
0B74A:  BSF    FF2.7
....................             codigoUsuario=1; 
0B74C:  MOVLW  01
0B74E:  MOVLB  2
0B750:  MOVWF  xB5
....................          } 
....................          codigoUsuario2=1; 
0B752:  MOVLW  01
0B754:  MOVLB  2
0B756:  MOVWF  x99
....................       }else if(RX_Buffer[4]==0x03){//03, Operador 2 
0B758:  BRA    BA58
0B75A:  MOVLB  1
0B75C:  MOVF   34,W
0B75E:  SUBLW  03
0B760:  BNZ   B7BC
....................          printf("page Clave"); 
0B762:  MOVLW  7E
0B764:  MOVWF  FF6
0B766:  MOVLW  12
0B768:  MOVWF  FF7
0B76A:  MOVLW  00
0B76C:  MOVWF  FF8
0B76E:  MOVLB  0
0B770:  CALL   4138
....................          SendDataDisplay();        
0B774:  CALL   416A
....................          if(!ingreso){ 
0B778:  MOVLB  1
0B77A:  BTFSC  x07.1
0B77C:  BRA    B7B2
....................             usuario="Operador 2"; 
0B77E:  MOVLW  02
0B780:  MOVWF  FEA
0B782:  MOVLW  BB
0B784:  MOVWF  FE9
0B786:  MOVFF  FF2,6B5
0B78A:  BCF    FF2.6
0B78C:  BCF    FF2.7
0B78E:  MOVLW  00
0B790:  MOVLB  0
0B792:  CALL   019E
0B796:  TBLRD*-
0B798:  TBLRD*+
0B79A:  MOVF   FF5,W
0B79C:  MOVWF  FEE
0B79E:  IORLW  00
0B7A0:  BNZ   B798
0B7A2:  MOVLB  6
0B7A4:  BTFSC  xB5.6
0B7A6:  BSF    FF2.6
0B7A8:  BTFSC  xB5.7
0B7AA:  BSF    FF2.7
....................             codigoUsuario=2; 
0B7AC:  MOVLW  02
0B7AE:  MOVLB  2
0B7B0:  MOVWF  xB5
....................          } 
....................          codigoUsuario2=2; 
0B7B2:  MOVLW  02
0B7B4:  MOVLB  2
0B7B6:  MOVWF  x99
....................       }else if(RX_Buffer[4]==0x04){//04, Operador 3 
0B7B8:  BRA    BA58
0B7BA:  MOVLB  1
0B7BC:  MOVF   34,W
0B7BE:  SUBLW  04
0B7C0:  BNZ   B81C
....................          printf("page Clave"); 
0B7C2:  MOVLW  8A
0B7C4:  MOVWF  FF6
0B7C6:  MOVLW  12
0B7C8:  MOVWF  FF7
0B7CA:  MOVLW  00
0B7CC:  MOVWF  FF8
0B7CE:  MOVLB  0
0B7D0:  CALL   4138
....................          SendDataDisplay();        
0B7D4:  CALL   416A
....................          if(!ingreso){ 
0B7D8:  MOVLB  1
0B7DA:  BTFSC  x07.1
0B7DC:  BRA    B812
....................             usuario="Operador 3"; 
0B7DE:  MOVLW  02
0B7E0:  MOVWF  FEA
0B7E2:  MOVLW  BB
0B7E4:  MOVWF  FE9
0B7E6:  MOVFF  FF2,6B5
0B7EA:  BCF    FF2.6
0B7EC:  BCF    FF2.7
0B7EE:  MOVLW  00
0B7F0:  MOVLB  0
0B7F2:  CALL   01CE
0B7F6:  TBLRD*-
0B7F8:  TBLRD*+
0B7FA:  MOVF   FF5,W
0B7FC:  MOVWF  FEE
0B7FE:  IORLW  00
0B800:  BNZ   B7F8
0B802:  MOVLB  6
0B804:  BTFSC  xB5.6
0B806:  BSF    FF2.6
0B808:  BTFSC  xB5.7
0B80A:  BSF    FF2.7
....................             codigoUsuario=3; 
0B80C:  MOVLW  03
0B80E:  MOVLB  2
0B810:  MOVWF  xB5
....................          } 
....................          codigoUsuario2=3; 
0B812:  MOVLW  03
0B814:  MOVLB  2
0B816:  MOVWF  x99
....................       }else if(RX_Buffer[4]==0x05){//05, Operador 4 
0B818:  BRA    BA58
0B81A:  MOVLB  1
0B81C:  MOVF   34,W
0B81E:  SUBLW  05
0B820:  BNZ   B87C
....................          printf("page Clave"); 
0B822:  MOVLW  96
0B824:  MOVWF  FF6
0B826:  MOVLW  12
0B828:  MOVWF  FF7
0B82A:  MOVLW  00
0B82C:  MOVWF  FF8
0B82E:  MOVLB  0
0B830:  CALL   4138
....................          SendDataDisplay();        
0B834:  CALL   416A
....................          if(!ingreso){ 
0B838:  MOVLB  1
0B83A:  BTFSC  x07.1
0B83C:  BRA    B872
....................             usuario="Operador 4"; 
0B83E:  MOVLW  02
0B840:  MOVWF  FEA
0B842:  MOVLW  BB
0B844:  MOVWF  FE9
0B846:  MOVFF  FF2,6B5
0B84A:  BCF    FF2.6
0B84C:  BCF    FF2.7
0B84E:  MOVLW  00
0B850:  MOVLB  0
0B852:  CALL   01FE
0B856:  TBLRD*-
0B858:  TBLRD*+
0B85A:  MOVF   FF5,W
0B85C:  MOVWF  FEE
0B85E:  IORLW  00
0B860:  BNZ   B858
0B862:  MOVLB  6
0B864:  BTFSC  xB5.6
0B866:  BSF    FF2.6
0B868:  BTFSC  xB5.7
0B86A:  BSF    FF2.7
....................             codigoUsuario=4; 
0B86C:  MOVLW  04
0B86E:  MOVLB  2
0B870:  MOVWF  xB5
....................          } 
....................          codigoUsuario2=4; 
0B872:  MOVLW  04
0B874:  MOVLB  2
0B876:  MOVWF  x99
....................       }else if(RX_Buffer[4]==0x06){//06, Operador 5 
0B878:  BRA    BA58
0B87A:  MOVLB  1
0B87C:  MOVF   34,W
0B87E:  SUBLW  06
0B880:  BNZ   B8DC
....................          printf("page Clave"); 
0B882:  MOVLW  A2
0B884:  MOVWF  FF6
0B886:  MOVLW  12
0B888:  MOVWF  FF7
0B88A:  MOVLW  00
0B88C:  MOVWF  FF8
0B88E:  MOVLB  0
0B890:  CALL   4138
....................          SendDataDisplay();        
0B894:  CALL   416A
....................          if(!ingreso){ 
0B898:  MOVLB  1
0B89A:  BTFSC  x07.1
0B89C:  BRA    B8D2
....................             usuario="Operador 5"; 
0B89E:  MOVLW  02
0B8A0:  MOVWF  FEA
0B8A2:  MOVLW  BB
0B8A4:  MOVWF  FE9
0B8A6:  MOVFF  FF2,6B5
0B8AA:  BCF    FF2.6
0B8AC:  BCF    FF2.7
0B8AE:  MOVLW  00
0B8B0:  MOVLB  0
0B8B2:  CALL   022E
0B8B6:  TBLRD*-
0B8B8:  TBLRD*+
0B8BA:  MOVF   FF5,W
0B8BC:  MOVWF  FEE
0B8BE:  IORLW  00
0B8C0:  BNZ   B8B8
0B8C2:  MOVLB  6
0B8C4:  BTFSC  xB5.6
0B8C6:  BSF    FF2.6
0B8C8:  BTFSC  xB5.7
0B8CA:  BSF    FF2.7
....................             codigoUsuario=5; 
0B8CC:  MOVLW  05
0B8CE:  MOVLB  2
0B8D0:  MOVWF  xB5
....................          } 
....................          codigoUsuario2=5; 
0B8D2:  MOVLW  05
0B8D4:  MOVLB  2
0B8D6:  MOVWF  x99
....................       }else if(RX_Buffer[4]==0x07){//07, Operador 6 
0B8D8:  BRA    BA58
0B8DA:  MOVLB  1
0B8DC:  MOVF   34,W
0B8DE:  SUBLW  07
0B8E0:  BNZ   B93C
....................          printf("page Clave"); 
0B8E2:  MOVLW  AE
0B8E4:  MOVWF  FF6
0B8E6:  MOVLW  12
0B8E8:  MOVWF  FF7
0B8EA:  MOVLW  00
0B8EC:  MOVWF  FF8
0B8EE:  MOVLB  0
0B8F0:  CALL   4138
....................          SendDataDisplay();        
0B8F4:  CALL   416A
....................          if(!ingreso){ 
0B8F8:  MOVLB  1
0B8FA:  BTFSC  x07.1
0B8FC:  BRA    B932
....................             usuario="Operador 6"; 
0B8FE:  MOVLW  02
0B900:  MOVWF  FEA
0B902:  MOVLW  BB
0B904:  MOVWF  FE9
0B906:  MOVFF  FF2,6B5
0B90A:  BCF    FF2.6
0B90C:  BCF    FF2.7
0B90E:  MOVLW  00
0B910:  MOVLB  0
0B912:  CALL   025E
0B916:  TBLRD*-
0B918:  TBLRD*+
0B91A:  MOVF   FF5,W
0B91C:  MOVWF  FEE
0B91E:  IORLW  00
0B920:  BNZ   B918
0B922:  MOVLB  6
0B924:  BTFSC  xB5.6
0B926:  BSF    FF2.6
0B928:  BTFSC  xB5.7
0B92A:  BSF    FF2.7
....................             codigoUsuario=6; 
0B92C:  MOVLW  06
0B92E:  MOVLB  2
0B930:  MOVWF  xB5
....................          } 
....................          codigoUsuario2=6; 
0B932:  MOVLW  06
0B934:  MOVLB  2
0B936:  MOVWF  x99
....................       }else if(RX_Buffer[4]==0x08){//08, Operador 7 
0B938:  BRA    BA58
0B93A:  MOVLB  1
0B93C:  MOVF   34,W
0B93E:  SUBLW  08
0B940:  BNZ   B99C
....................          printf("page Clave"); 
0B942:  MOVLW  BA
0B944:  MOVWF  FF6
0B946:  MOVLW  12
0B948:  MOVWF  FF7
0B94A:  MOVLW  00
0B94C:  MOVWF  FF8
0B94E:  MOVLB  0
0B950:  CALL   4138
....................          SendDataDisplay();        
0B954:  CALL   416A
....................          if(!ingreso){ 
0B958:  MOVLB  1
0B95A:  BTFSC  x07.1
0B95C:  BRA    B992
....................             usuario="Operador 7"; 
0B95E:  MOVLW  02
0B960:  MOVWF  FEA
0B962:  MOVLW  BB
0B964:  MOVWF  FE9
0B966:  MOVFF  FF2,6B5
0B96A:  BCF    FF2.6
0B96C:  BCF    FF2.7
0B96E:  MOVLW  00
0B970:  MOVLB  0
0B972:  CALL   028E
0B976:  TBLRD*-
0B978:  TBLRD*+
0B97A:  MOVF   FF5,W
0B97C:  MOVWF  FEE
0B97E:  IORLW  00
0B980:  BNZ   B978
0B982:  MOVLB  6
0B984:  BTFSC  xB5.6
0B986:  BSF    FF2.6
0B988:  BTFSC  xB5.7
0B98A:  BSF    FF2.7
....................             codigoUsuario=7; 
0B98C:  MOVLW  07
0B98E:  MOVLB  2
0B990:  MOVWF  xB5
....................          } 
....................          codigoUsuario2=7; 
0B992:  MOVLW  07
0B994:  MOVLB  2
0B996:  MOVWF  x99
....................       }else if(RX_Buffer[4]==0x09){//09, Operador 8 
0B998:  BRA    BA58
0B99A:  MOVLB  1
0B99C:  MOVF   34,W
0B99E:  SUBLW  09
0B9A0:  BNZ   B9FC
....................          printf("page Clave"); 
0B9A2:  MOVLW  C6
0B9A4:  MOVWF  FF6
0B9A6:  MOVLW  12
0B9A8:  MOVWF  FF7
0B9AA:  MOVLW  00
0B9AC:  MOVWF  FF8
0B9AE:  MOVLB  0
0B9B0:  CALL   4138
....................          SendDataDisplay();        
0B9B4:  CALL   416A
....................          if(!ingreso){ 
0B9B8:  MOVLB  1
0B9BA:  BTFSC  x07.1
0B9BC:  BRA    B9F2
....................             usuario="Operador 8"; 
0B9BE:  MOVLW  02
0B9C0:  MOVWF  FEA
0B9C2:  MOVLW  BB
0B9C4:  MOVWF  FE9
0B9C6:  MOVFF  FF2,6B5
0B9CA:  BCF    FF2.6
0B9CC:  BCF    FF2.7
0B9CE:  MOVLW  00
0B9D0:  MOVLB  0
0B9D2:  CALL   02BE
0B9D6:  TBLRD*-
0B9D8:  TBLRD*+
0B9DA:  MOVF   FF5,W
0B9DC:  MOVWF  FEE
0B9DE:  IORLW  00
0B9E0:  BNZ   B9D8
0B9E2:  MOVLB  6
0B9E4:  BTFSC  xB5.6
0B9E6:  BSF    FF2.6
0B9E8:  BTFSC  xB5.7
0B9EA:  BSF    FF2.7
....................             codigoUsuario=8; 
0B9EC:  MOVLW  08
0B9EE:  MOVLB  2
0B9F0:  MOVWF  xB5
....................          } 
....................          codigoUsuario2=8; 
0B9F2:  MOVLW  08
0B9F4:  MOVLB  2
0B9F6:  MOVWF  x99
....................       }else if(RX_Buffer[4]==0x0a){//0a, Tecnico 
0B9F8:  BRA    BA58
0B9FA:  MOVLB  1
0B9FC:  MOVF   34,W
0B9FE:  SUBLW  0A
0BA00:  BNZ   BA5A
....................          printf("page Clave"); 
0BA02:  MOVLW  D2
0BA04:  MOVWF  FF6
0BA06:  MOVLW  12
0BA08:  MOVWF  FF7
0BA0A:  MOVLW  00
0BA0C:  MOVWF  FF8
0BA0E:  MOVLB  0
0BA10:  CALL   4138
....................          SendDataDisplay();        
0BA14:  CALL   416A
....................          if(!ingreso){ 
0BA18:  MOVLB  1
0BA1A:  BTFSC  x07.1
0BA1C:  BRA    BA52
....................             usuario="Tecnico"; 
0BA1E:  MOVLW  02
0BA20:  MOVWF  FEA
0BA22:  MOVLW  BB
0BA24:  MOVWF  FE9
0BA26:  MOVFF  FF2,6B5
0BA2A:  BCF    FF2.6
0BA2C:  BCF    FF2.7
0BA2E:  MOVLW  00
0BA30:  MOVLB  0
0BA32:  CALL   02EE
0BA36:  TBLRD*-
0BA38:  TBLRD*+
0BA3A:  MOVF   FF5,W
0BA3C:  MOVWF  FEE
0BA3E:  IORLW  00
0BA40:  BNZ   BA38
0BA42:  MOVLB  6
0BA44:  BTFSC  xB5.6
0BA46:  BSF    FF2.6
0BA48:  BTFSC  xB5.7
0BA4A:  BSF    FF2.7
....................             codigoUsuario=9; 
0BA4C:  MOVLW  09
0BA4E:  MOVLB  2
0BA50:  MOVWF  xB5
....................          } 
....................          codigoUsuario2=9; 
0BA52:  MOVLW  09
0BA54:  MOVLB  2
0BA56:  MOVWF  x99
0BA58:  MOVLB  1
....................       } 
....................        
....................       if(RX_Buffer[4]==0xaa && ingreso){//aa, Regresar 
0BA5A:  MOVF   34,W
0BA5C:  SUBLW  AA
0BA5E:  BNZ   BA82
0BA60:  BTFSS  x07.1
0BA62:  BRA    BA82
....................          printf("page Ajustes"); 
0BA64:  MOVLW  DE
0BA66:  MOVWF  FF6
0BA68:  MOVLW  12
0BA6A:  MOVWF  FF7
0BA6C:  MOVLW  00
0BA6E:  MOVWF  FF8
0BA70:  MOVLB  0
0BA72:  CALL   4138
....................          SendDataDisplay();        
0BA76:  CALL   416A
....................          codigoUsuario2=10; 
0BA7A:  MOVLW  0A
0BA7C:  MOVLB  2
0BA7E:  MOVWF  x99
0BA80:  MOVLB  1
....................       } 
....................    }else if(Menu==11){//Menu de Configuraciones 
0BA82:  GOTO   F7C2
0BA86:  MOVLB  2
0BA88:  MOVF   x5D,W
0BA8A:  SUBLW  0B
0BA8C:  BTFSS  FD8.2
0BA8E:  BRA    BCD4
....................       tConfig=0; 
0BA90:  MOVLB  1
0BA92:  CLRF   x1D
0BA94:  CLRF   x1C
....................       oprimioConfig=OFF; 
0BA96:  BCF    x03.0
....................       printf("fecha.txt=\"Fecha:%02u/%02u/20%02u Hora: %02u:%02u:%02u\"",Dia,Mes,Year,Hora,Minuto,Segundo); 
0BA98:  MOVLW  EC
0BA9A:  MOVWF  FF6
0BA9C:  MOVLW  12
0BA9E:  MOVWF  FF7
0BAA0:  MOVLW  00
0BAA2:  MOVWF  FF8
0BAA4:  MOVLW  11
0BAA6:  MOVLB  6
0BAA8:  MOVWF  xBA
0BAAA:  MOVLB  0
0BAAC:  CALL   5BEA
0BAB0:  MOVFF  2A0,6BA
0BAB4:  MOVLW  01
0BAB6:  MOVLB  6
0BAB8:  MOVWF  xBB
0BABA:  MOVLB  0
0BABC:  CALL   5C6E
0BAC0:  MOVLW  2F
0BAC2:  BTFSS  F9E.4
0BAC4:  BRA    BAC2
0BAC6:  MOVWF  FAD
0BAC8:  MOVFF  29F,6BA
0BACC:  MOVLW  01
0BACE:  MOVLB  6
0BAD0:  MOVWF  xBB
0BAD2:  MOVLB  0
0BAD4:  CALL   5C6E
0BAD8:  MOVLW  2F
0BADA:  BTFSS  F9E.4
0BADC:  BRA    BADA
0BADE:  MOVWF  FAD
0BAE0:  MOVLW  32
0BAE2:  BTFSS  F9E.4
0BAE4:  BRA    BAE2
0BAE6:  MOVWF  FAD
0BAE8:  MOVLW  30
0BAEA:  BTFSS  F9E.4
0BAEC:  BRA    BAEA
0BAEE:  MOVWF  FAD
0BAF0:  MOVFF  29E,6BA
0BAF4:  MOVLW  01
0BAF6:  MOVLB  6
0BAF8:  MOVWF  xBB
0BAFA:  MOVLB  0
0BAFC:  CALL   5C6E
0BB00:  MOVLW  0D
0BB02:  MOVWF  FF6
0BB04:  MOVLW  13
0BB06:  MOVWF  FF7
0BB08:  MOVLW  00
0BB0A:  MOVWF  FF8
0BB0C:  MOVLW  07
0BB0E:  MOVLB  6
0BB10:  MOVWF  xBA
0BB12:  MOVLB  0
0BB14:  CALL   5BEA
0BB18:  MOVFF  2A1,6BA
0BB1C:  MOVLW  01
0BB1E:  MOVLB  6
0BB20:  MOVWF  xBB
0BB22:  MOVLB  0
0BB24:  CALL   5C6E
0BB28:  MOVLW  3A
0BB2A:  BTFSS  F9E.4
0BB2C:  BRA    BB2A
0BB2E:  MOVWF  FAD
0BB30:  MOVFF  2A2,6BA
0BB34:  MOVLW  01
0BB36:  MOVLB  6
0BB38:  MOVWF  xBB
0BB3A:  MOVLB  0
0BB3C:  CALL   5C6E
0BB40:  MOVLW  3A
0BB42:  BTFSS  F9E.4
0BB44:  BRA    BB42
0BB46:  MOVWF  FAD
0BB48:  MOVFF  2A3,6BA
0BB4C:  MOVLW  01
0BB4E:  MOVLB  6
0BB50:  MOVWF  xBB
0BB52:  MOVLB  0
0BB54:  CALL   5C6E
0BB58:  MOVLW  22
0BB5A:  BTFSS  F9E.4
0BB5C:  BRA    BB5A
0BB5E:  MOVWF  FAD
....................       SendDataDisplay(); 
0BB60:  CALL   416A
....................       GuardaEEPROM=OFF; 
0BB64:  MOVLB  1
0BB66:  BCF    x05.5
....................       printf("tuser.txt=\"%s\"",usuario); 
0BB68:  MOVLW  24
0BB6A:  MOVWF  FF6
0BB6C:  MOVLW  13
0BB6E:  MOVWF  FF7
0BB70:  MOVLW  00
0BB72:  MOVWF  FF8
0BB74:  MOVLW  0B
0BB76:  MOVLB  6
0BB78:  MOVWF  xBA
0BB7A:  MOVLB  0
0BB7C:  CALL   5BEA
0BB80:  MOVLW  02
0BB82:  MOVWF  FEA
0BB84:  MOVLW  BB
0BB86:  MOVWF  FE9
0BB88:  CALL   5C1C
0BB8C:  MOVLW  22
0BB8E:  BTFSS  F9E.4
0BB90:  BRA    BB8E
0BB92:  MOVWF  FAD
....................       SendDataDisplay(); 
0BB94:  CALL   416A
....................       TipoClave=0; 
0BB98:  MOVLB  1
0BB9A:  CLRF   xFA
....................        
....................       if(RX_Buffer[4]==0x01){//01, Ciclos 
0BB9C:  DECFSZ 34,W
0BB9E:  BRA    BBB8
....................          printf("page Ciclos"); 
0BBA0:  MOVLW  34
0BBA2:  MOVWF  FF6
0BBA4:  MOVLW  13
0BBA6:  MOVWF  FF7
0BBA8:  MOVLW  00
0BBAA:  MOVWF  FF8
0BBAC:  MOVLB  0
0BBAE:  CALL   4138
....................          SendDataDisplay();      
0BBB2:  CALL   416A
0BBB6:  MOVLB  1
....................       } 
....................        
....................       if(RX_Buffer[4]==0x02){//02, Test de Componentes 
0BBB8:  MOVF   34,W
0BBBA:  SUBLW  02
0BBBC:  BNZ   BBD6
....................          printf("page Test"); 
0BBBE:  MOVLW  40
0BBC0:  MOVWF  FF6
0BBC2:  MOVLW  13
0BBC4:  MOVWF  FF7
0BBC6:  MOVLW  00
0BBC8:  MOVWF  FF8
0BBCA:  MOVLB  0
0BBCC:  CALL   4138
....................          SendDataDisplay();      
0BBD0:  CALL   416A
0BBD4:  MOVLB  1
....................       } 
....................        
....................       if(RX_Buffer[4]==0x03){//03, Modificacin de clave Usuarios 
0BBD6:  MOVF   34,W
0BBD8:  SUBLW  03
0BBDA:  BNZ   BBF4
....................          printf("page Usuarios"); 
0BBDC:  MOVLW  4A
0BBDE:  MOVWF  FF6
0BBE0:  MOVLW  13
0BBE2:  MOVWF  FF7
0BBE4:  MOVLW  00
0BBE6:  MOVWF  FF8
0BBE8:  MOVLB  0
0BBEA:  CALL   4138
....................          SendDataDisplay();      
0BBEE:  CALL   416A
0BBF2:  MOVLB  1
....................       } 
....................        
....................       if(RX_Buffer[4]==0x04){//03, Modificacin de clave Usuarios 
0BBF4:  MOVF   34,W
0BBF6:  SUBLW  04
0BBF8:  BNZ   BC12
....................          printf("page Activa"); 
0BBFA:  MOVLW  58
0BBFC:  MOVWF  FF6
0BBFE:  MOVLW  13
0BC00:  MOVWF  FF7
0BC02:  MOVLW  00
0BC04:  MOVWF  FF8
0BC06:  MOVLB  0
0BC08:  CALL   4138
....................          SendDataDisplay();      
0BC0C:  CALL   416A
0BC10:  MOVLB  1
....................       } 
....................        
....................       if(RX_Buffer[4]==0x11 && CodigoUsuario==9){//11, Menu Oculto Tecnico 
0BC12:  MOVF   34,W
0BC14:  SUBLW  11
0BC16:  BNZ   BC42
0BC18:  MOVLB  2
0BC1A:  MOVF   xB5,W
0BC1C:  SUBLW  09
0BC1E:  BTFSC  FD8.2
0BC20:  BRA    BC26
0BC22:  MOVLB  1
0BC24:  BRA    BC42
....................          printf("page Clave"); 
0BC26:  MOVLW  64
0BC28:  MOVWF  FF6
0BC2A:  MOVLW  13
0BC2C:  MOVWF  FF7
0BC2E:  MOVLW  00
0BC30:  MOVWF  FF8
0BC32:  MOVLB  0
0BC34:  CALL   4138
....................          SendDataDisplay();  
0BC38:  CALL   416A
....................          TipoClave=1; 
0BC3C:  MOVLW  01
0BC3E:  MOVLB  1
0BC40:  MOVWF  xFA
....................       } 
....................        
....................       if(RX_Buffer[4]==0x05){//05, Hora y Fecha 
0BC42:  MOVF   34,W
0BC44:  SUBLW  05
0BC46:  BNZ   BC74
....................          printf("page Fecha"); 
0BC48:  MOVLW  70
0BC4A:  MOVWF  FF6
0BC4C:  MOVLW  13
0BC4E:  MOVWF  FF7
0BC50:  MOVLW  00
0BC52:  MOVWF  FF8
0BC54:  MOVLB  0
0BC56:  CALL   4138
....................          SendDataDisplay();      
0BC5A:  CALL   416A
....................          DiaTx=Dia; 
0BC5E:  MOVFF  2A0,2AD
....................          MesTx=Mes; 
0BC62:  MOVFF  29F,2AC
....................          YearTx=Year; 
0BC66:  MOVFF  29E,2AB
....................          HoraTx=Hora; 
0BC6A:  MOVFF  2A1,2AE
....................          MinutoTx=Minuto; 
0BC6E:  MOVFF  2A2,2AF
0BC72:  MOVLB  1
....................       } 
....................        
....................       if(RX_Buffer[4]==0xa0){//a0, Menu Principal 
0BC74:  MOVF   34,W
0BC76:  SUBLW  A0
0BC78:  BNZ   BC92
....................          printf("page Menu"); 
0BC7A:  MOVLW  7C
0BC7C:  MOVWF  FF6
0BC7E:  MOVLW  13
0BC80:  MOVWF  FF7
0BC82:  MOVLW  00
0BC84:  MOVWF  FF8
0BC86:  MOVLB  0
0BC88:  CALL   4138
....................          SendDataDisplay();      
0BC8C:  CALL   416A
0BC90:  MOVLB  1
....................       } 
....................        
....................       if(RX_Buffer[4]==0xb0){//b0, Personalizados 
0BC92:  MOVF   34,W
0BC94:  SUBLW  B0
0BC96:  BNZ   BCB0
....................          printf("page CicloPersona"); 
0BC98:  MOVLW  86
0BC9A:  MOVWF  FF6
0BC9C:  MOVLW  13
0BC9E:  MOVWF  FF7
0BCA0:  MOVLW  00
0BCA2:  MOVWF  FF8
0BCA4:  MOVLB  0
0BCA6:  CALL   4138
....................          SendDataDisplay();      
0BCAA:  CALL   416A
0BCAE:  MOVLB  1
....................       } 
....................        
....................       if(RX_Buffer[4]==0xc0){//c0, Configuraciones 
0BCB0:  MOVF   34,W
0BCB2:  SUBLW  C0
0BCB4:  BNZ   BCCE
....................          printf("page Ajustes"); 
0BCB6:  MOVLW  98
0BCB8:  MOVWF  FF6
0BCBA:  MOVLW  13
0BCBC:  MOVWF  FF7
0BCBE:  MOVLW  00
0BCC0:  MOVWF  FF8
0BCC2:  MOVLB  0
0BCC4:  CALL   4138
....................          SendDataDisplay();      
0BCC8:  CALL   416A
0BCCC:  MOVLB  1
....................       } 
....................    }else if(Menu==12){//Menu de Visualizacion de Ciclos Realizados 
0BCCE:  GOTO   F7C2
0BCD2:  MOVLB  2
0BCD4:  MOVF   x5D,W
0BCD6:  SUBLW  0C
0BCD8:  BTFSS  FD8.2
0BCDA:  GOTO   C876
....................       //printf("fecha.txt=\"Fecha:%02u/%02u/20%02u    Hora: %02u:%02u\"",Dia,Mes,Year,Hora,Minuto); 
....................       //SendDataDisplay(); 
....................       GuardaEEPROM=OFF; 
0BCDE:  MOVLB  1
0BCE0:  BCF    x05.5
....................        
....................       i2c_start();            // Comienzo de la comunicacin 
0BCE2:  BSF    F94.4
0BCE4:  MOVLW  05
0BCE6:  MOVWF  00
0BCE8:  DECFSZ 00,F
0BCEA:  BRA    BCE8
0BCEC:  BSF    F94.3
0BCEE:  MOVLW  06
0BCF0:  MOVWF  00
0BCF2:  DECFSZ 00,F
0BCF4:  BRA    BCF2
0BCF6:  BCF    F8B.4
0BCF8:  BCF    F94.4
0BCFA:  MOVLW  05
0BCFC:  MOVWF  00
0BCFE:  DECFSZ 00,F
0BD00:  BRA    BCFE
0BD02:  BCF    F8B.3
0BD04:  BCF    F94.3
....................       i2c_write(0xB0);   // Direccin del esclavo en el bus I2C 
0BD06:  MOVLW  B0
0BD08:  MOVLB  6
0BD0A:  MOVWF  xCB
0BD0C:  MOVLB  0
0BD0E:  CALL   254C
....................       i2c_write(9);    // Posicin de donde se leer el dato en el esclavo 
0BD12:  MOVLW  09
0BD14:  MOVLB  6
0BD16:  MOVWF  xCB
0BD18:  MOVLB  0
0BD1A:  CALL   254C
....................       i2c_write(0);    // Posicin de donde se leer el dato en el esclavo 
0BD1E:  MOVLB  6
0BD20:  CLRF   xCB
0BD22:  MOVLB  0
0BD24:  CALL   254C
....................       i2c_start();            // Reinicio 
0BD28:  BSF    F94.4
0BD2A:  MOVLW  05
0BD2C:  MOVWF  00
0BD2E:  DECFSZ 00,F
0BD30:  BRA    BD2E
0BD32:  BSF    F94.3
0BD34:  MOVLW  06
0BD36:  MOVWF  00
0BD38:  DECFSZ 00,F
0BD3A:  BRA    BD38
0BD3C:  BTFSS  F82.3
0BD3E:  BRA    BD3C
0BD40:  BCF    F8B.4
0BD42:  BCF    F94.4
0BD44:  MOVLW  05
0BD46:  MOVWF  00
0BD48:  DECFSZ 00,F
0BD4A:  BRA    BD48
0BD4C:  BCF    F8B.3
0BD4E:  BCF    F94.3
....................       i2c_write(direccion+1); // Direccin del esclavo en modo lectura 
0BD50:  MOVLW  01
0BD52:  ADDWF  xDD,W
0BD54:  MOVLB  6
0BD56:  MOVWF  xB5
0BD58:  MOVWF  xCB
0BD5A:  MOVLB  0
0BD5C:  CALL   254C
....................       dato=i2c_read(0);       // Lectura del dato 
0BD60:  CLRF   00
0BD62:  CALL   25C2
0BD66:  MOVFF  01,DC
....................       i2c_stop(); 
0BD6A:  BCF    F94.4
0BD6C:  NOP   
0BD6E:  BSF    F94.3
0BD70:  BTFSS  F82.3
0BD72:  BRA    BD70
0BD74:  MOVLW  05
0BD76:  MOVWF  00
0BD78:  DECFSZ 00,F
0BD7A:  BRA    BD78
0BD7C:  BRA    BD7E
0BD7E:  NOP   
0BD80:  BSF    F94.4
0BD82:  MOVLW  05
0BD84:  MOVWF  00
0BD86:  DECFSZ 00,F
0BD88:  BRA    BD86
....................        
....................       printf("estado.txt=\"Oprima Exportar para imprimir\""); 
0BD8A:  MOVLW  A6
0BD8C:  MOVWF  FF6
0BD8E:  MOVLW  13
0BD90:  MOVWF  FF7
0BD92:  MOVLW  00
0BD94:  MOVWF  FF8
0BD96:  CALL   4138
....................       SendDataDisplay();      
0BD9A:  CALL   416A
....................        
....................       if(RX_Buffer[6]==0x01){//01, Ciclos 
0BD9E:  DECFSZ 36,W
0BDA0:  BRA    BDB6
....................          printf("page Ajustes"); 
0BDA2:  MOVLW  D2
0BDA4:  MOVWF  FF6
0BDA6:  MOVLW  13
0BDA8:  MOVWF  FF7
0BDAA:  MOVLW  00
0BDAC:  MOVWF  FF8
0BDAE:  CALL   4138
....................          SendDataDisplay();      
0BDB2:  CALL   416A
....................       } 
....................        
....................       if(RX_Buffer[6]==0x02){//02, Exportar 
0BDB6:  MOVF   36,W
0BDB8:  SUBLW  02
0BDBA:  BNZ   BDC4
....................          RX_Buffer[6]=0x00;   
0BDBC:  CLRF   36
....................          RX_Buffer2[6]=0x00; 
0BDBE:  CLRF   41
....................          exportarData(); 
0BDC0:  GOTO   628E
....................       } 
....................        
....................       if(RX_Buffer[4]>0x00 && RX_Buffer[5]>0x00){ 
0BDC4:  MOVF   34,F
0BDC6:  BTFSC  FD8.2
0BDC8:  BRA    C486
0BDCA:  MOVF   35,F
0BDCC:  BTFSC  FD8.2
0BDCE:  BRA    C486
....................          cicloVisualizado=RX_Buffer[4]-1; 
0BDD0:  MOVLW  01
0BDD2:  SUBWF  34,W
0BDD4:  MOVLB  2
0BDD6:  MOVWF  xA5
....................          cicloVisto=RX_Buffer[5]-1; 
0BDD8:  MOVLW  01
0BDDA:  SUBWF  35,W
0BDDC:  MOVWF  xA6
....................          RX_Buffer[4]=0x00; 
0BDDE:  CLRF   34
....................          RX_Buffer[5]=0x00; 
0BDE0:  CLRF   35
....................          RX_Buffer2[4]=0x00; 
0BDE2:  CLRF   3F
....................          RX_Buffer2[5]=0x00; 
0BDE4:  CLRF   40
....................          diaCiclos=read_ext_eeprom(2+(cicloVisto*320)); 
0BDE6:  MOVLB  6
0BDE8:  CLRF   xC0
0BDEA:  MOVFF  2A6,6BF
0BDEE:  MOVLW  01
0BDF0:  MOVWF  xC2
0BDF2:  MOVLW  40
0BDF4:  MOVWF  xC1
0BDF6:  MOVLB  0
0BDF8:  CALL   252A
0BDFC:  MOVFF  02,03
0BE00:  MOVF   01,W
0BE02:  ADDLW  02
0BE04:  MOVLB  6
0BE06:  MOVWF  xB5
0BE08:  MOVLW  00
0BE0A:  ADDWFC 02,W
0BE0C:  MOVWF  xB6
0BE0E:  MOVWF  xBB
0BE10:  MOVFF  6B5,6BA
0BE14:  MOVLB  0
0BE16:  CALL   262C
0BE1A:  MOVFF  01,31C
....................          if(diaCiclos>31) 
0BE1E:  MOVLB  3
0BE20:  MOVF   x1C,W
0BE22:  SUBLW  1F
0BE24:  BC    BE2A
....................             diaCiclos=1; 
0BE26:  MOVLW  01
0BE28:  MOVWF  x1C
....................          mesCiclos=read_ext_eeprom(3+(cicloVisto*320)); 
0BE2A:  MOVLB  6
0BE2C:  CLRF   xC0
0BE2E:  MOVFF  2A6,6BF
0BE32:  MOVLW  01
0BE34:  MOVWF  xC2
0BE36:  MOVLW  40
0BE38:  MOVWF  xC1
0BE3A:  MOVLB  0
0BE3C:  CALL   252A
0BE40:  MOVFF  02,03
0BE44:  MOVF   01,W
0BE46:  ADDLW  03
0BE48:  MOVLB  6
0BE4A:  MOVWF  xB5
0BE4C:  MOVLW  00
0BE4E:  ADDWFC 02,W
0BE50:  MOVWF  xB6
0BE52:  MOVWF  xBB
0BE54:  MOVFF  6B5,6BA
0BE58:  MOVLB  0
0BE5A:  CALL   262C
0BE5E:  MOVFF  01,31D
....................          if(mesCiclos>12) 
0BE62:  MOVLB  3
0BE64:  MOVF   x1D,W
0BE66:  SUBLW  0C
0BE68:  BC    BE6E
....................             mesCiclos=1; 
0BE6A:  MOVLW  01
0BE6C:  MOVWF  x1D
....................          yearCiclos=read_ext_eeprom(4+(cicloVisto*320)); 
0BE6E:  MOVLB  6
0BE70:  CLRF   xC0
0BE72:  MOVFF  2A6,6BF
0BE76:  MOVLW  01
0BE78:  MOVWF  xC2
0BE7A:  MOVLW  40
0BE7C:  MOVWF  xC1
0BE7E:  MOVLB  0
0BE80:  CALL   252A
0BE84:  MOVFF  02,03
0BE88:  MOVF   01,W
0BE8A:  ADDLW  04
0BE8C:  MOVLB  6
0BE8E:  MOVWF  xB5
0BE90:  MOVLW  00
0BE92:  ADDWFC 02,W
0BE94:  MOVWF  xB6
0BE96:  MOVWF  xBB
0BE98:  MOVFF  6B5,6BA
0BE9C:  MOVLB  0
0BE9E:  CALL   262C
0BEA2:  MOVFF  01,31E
....................          if(yearCiclos>99) 
0BEA6:  MOVLB  3
0BEA8:  MOVF   x1E,W
0BEAA:  SUBLW  63
0BEAC:  BC    BEB2
....................             yearCiclos=19; 
0BEAE:  MOVLW  13
0BEB0:  MOVWF  x1E
....................          cicloCiclos=read_ext_eeprom(1+(cicloVisto*320)); 
0BEB2:  MOVLB  6
0BEB4:  CLRF   xC0
0BEB6:  MOVFF  2A6,6BF
0BEBA:  MOVLW  01
0BEBC:  MOVWF  xC2
0BEBE:  MOVLW  40
0BEC0:  MOVWF  xC1
0BEC2:  MOVLB  0
0BEC4:  CALL   252A
0BEC8:  MOVFF  02,03
0BECC:  MOVF   01,W
0BECE:  ADDLW  01
0BED0:  MOVLB  6
0BED2:  MOVWF  xB5
0BED4:  MOVLW  00
0BED6:  ADDWFC 02,W
0BED8:  MOVWF  xB6
0BEDA:  MOVWF  xBB
0BEDC:  MOVFF  6B5,6BA
0BEE0:  MOVLB  0
0BEE2:  CALL   262C
0BEE6:  MOVFF  01,320
....................          if(cicloCiclos>20) 
0BEEA:  MOVLB  3
0BEEC:  MOVF   x20,W
0BEEE:  SUBLW  14
0BEF0:  BC    BEF6
....................             cicloCiclos=1; 
0BEF2:  MOVLW  01
0BEF4:  MOVWF  x20
....................          usuarioCiclos=read_ext_eeprom((cicloVisto*320)); 
0BEF6:  MOVLB  6
0BEF8:  CLRF   xC0
0BEFA:  MOVFF  2A6,6BF
0BEFE:  MOVLW  01
0BF00:  MOVWF  xC2
0BF02:  MOVLW  40
0BF04:  MOVWF  xC1
0BF06:  MOVLB  0
0BF08:  CALL   252A
0BF0C:  MOVFF  02,6B6
0BF10:  MOVFF  01,6B5
0BF14:  MOVFF  02,6BB
0BF18:  MOVFF  01,6BA
0BF1C:  CALL   262C
0BF20:  MOVFF  01,31F
....................          if(usuarioCiclos>10) 
0BF24:  MOVLB  3
0BF26:  MOVF   x1F,W
0BF28:  SUBLW  0A
0BF2A:  BC    BF30
....................             usuarioCiclos=1; 
0BF2C:  MOVLW  01
0BF2E:  MOVWF  x1F
....................          for(i=0;i<7;i++){//Lee Valores para completar la Tabla 
0BF30:  MOVLB  2
0BF32:  CLRF   x60
0BF34:  MOVF   x60,W
0BF36:  SUBLW  06
0BF38:  BTFSS  FD8.0
0BF3A:  BRA    C484
....................             horaCiclos[i]=read_ext_eeprom((cicloVisto*320)+11+((cicloVisualizado+i)*9)); 
0BF3C:  CLRF   03
0BF3E:  MOVF   x60,W
0BF40:  ADDLW  07
0BF42:  MOVWF  01
0BF44:  MOVLW  03
0BF46:  ADDWFC 03,F
0BF48:  MOVFF  01,6B5
0BF4C:  MOVLB  6
0BF4E:  MOVFF  03,6B6
0BF52:  CLRF   xC0
0BF54:  MOVFF  2A6,6BF
0BF58:  MOVLW  01
0BF5A:  MOVWF  xC2
0BF5C:  MOVLW  40
0BF5E:  MOVWF  xC1
0BF60:  MOVLB  0
0BF62:  CALL   252A
0BF66:  MOVFF  02,6B8
0BF6A:  MOVFF  01,6B7
0BF6E:  MOVLW  0B
0BF70:  MOVLB  6
0BF72:  ADDWF  xB7,F
0BF74:  MOVLW  00
0BF76:  ADDWFC xB8,F
0BF78:  MOVLB  2
0BF7A:  MOVF   x60,W
0BF7C:  ADDWF  xA5,W
0BF7E:  MULLW  09
0BF80:  MOVF   FF3,W
0BF82:  MOVLB  6
0BF84:  ADDWF  xB7,F
0BF86:  MOVLW  00
0BF88:  ADDWFC xB8,F
0BF8A:  MOVFF  6B8,6BB
0BF8E:  MOVFF  6B7,6BA
0BF92:  MOVLB  0
0BF94:  CALL   262C
0BF98:  MOVFF  6B6,FEA
0BF9C:  MOVFF  6B5,FE9
0BFA0:  MOVFF  01,FEF
....................             if(horaCiclos[i]>24) 
0BFA4:  CLRF   03
0BFA6:  MOVLB  2
0BFA8:  MOVF   x60,W
0BFAA:  ADDLW  07
0BFAC:  MOVWF  FE9
0BFAE:  MOVLW  03
0BFB0:  ADDWFC 03,W
0BFB2:  MOVWF  FEA
0BFB4:  MOVF   FEF,W
0BFB6:  SUBLW  18
0BFB8:  BC    BFCA
....................                horaCiclos[i]=0; 
0BFBA:  CLRF   03
0BFBC:  MOVF   x60,W
0BFBE:  ADDLW  07
0BFC0:  MOVWF  FE9
0BFC2:  MOVLW  03
0BFC4:  ADDWFC 03,W
0BFC6:  MOVWF  FEA
0BFC8:  CLRF   FEF
....................             minutoCiclos[i]=read_ext_eeprom((cicloVisto*320)+12+((cicloVisualizado+i)*9)); 
0BFCA:  CLRF   03
0BFCC:  MOVF   x60,W
0BFCE:  ADDLW  0E
0BFD0:  MOVWF  01
0BFD2:  MOVLW  03
0BFD4:  ADDWFC 03,F
0BFD6:  MOVFF  01,6B5
0BFDA:  MOVLB  6
0BFDC:  MOVFF  03,6B6
0BFE0:  CLRF   xC0
0BFE2:  MOVFF  2A6,6BF
0BFE6:  MOVLW  01
0BFE8:  MOVWF  xC2
0BFEA:  MOVLW  40
0BFEC:  MOVWF  xC1
0BFEE:  MOVLB  0
0BFF0:  CALL   252A
0BFF4:  MOVFF  02,6B8
0BFF8:  MOVFF  01,6B7
0BFFC:  MOVLW  0C
0BFFE:  MOVLB  6
0C000:  ADDWF  xB7,F
0C002:  MOVLW  00
0C004:  ADDWFC xB8,F
0C006:  MOVLB  2
0C008:  MOVF   x60,W
0C00A:  ADDWF  xA5,W
0C00C:  MULLW  09
0C00E:  MOVF   FF3,W
0C010:  MOVLB  6
0C012:  ADDWF  xB7,F
0C014:  MOVLW  00
0C016:  ADDWFC xB8,F
0C018:  MOVFF  6B8,6BB
0C01C:  MOVFF  6B7,6BA
0C020:  MOVLB  0
0C022:  CALL   262C
0C026:  MOVFF  6B6,FEA
0C02A:  MOVFF  6B5,FE9
0C02E:  MOVFF  01,FEF
....................             if(minutoCiclos[i]>59) 
0C032:  CLRF   03
0C034:  MOVLB  2
0C036:  MOVF   x60,W
0C038:  ADDLW  0E
0C03A:  MOVWF  FE9
0C03C:  MOVLW  03
0C03E:  ADDWFC 03,W
0C040:  MOVWF  FEA
0C042:  MOVF   FEF,W
0C044:  SUBLW  3B
0C046:  BC    C058
....................                minutoCiclos[i]=0; 
0C048:  CLRF   03
0C04A:  MOVF   x60,W
0C04C:  ADDLW  0E
0C04E:  MOVWF  FE9
0C050:  MOVLW  03
0C052:  ADDWFC 03,W
0C054:  MOVWF  FEA
0C056:  CLRF   FEF
....................             TCiclos[i]=read_ext_eeprom((cicloVisto*320)+5+((cicloVisualizado+i)*9))+inttofloat(read_ext_eeprom((cicloVisto*320)+6+((cicloVisualizado+i)*9))); 
0C058:  MOVF   x60,W
0C05A:  MULLW  04
0C05C:  MOVF   FF3,W
0C05E:  CLRF   03
0C060:  ADDLW  CF
0C062:  MOVWF  01
0C064:  MOVLW  02
0C066:  ADDWFC 03,F
0C068:  MOVFF  01,6B5
0C06C:  MOVLB  6
0C06E:  MOVFF  03,6B6
0C072:  CLRF   xC0
0C074:  MOVFF  2A6,6BF
0C078:  MOVLW  01
0C07A:  MOVWF  xC2
0C07C:  MOVLW  40
0C07E:  MOVWF  xC1
0C080:  MOVLB  0
0C082:  CALL   252A
0C086:  MOVFF  02,6B8
0C08A:  MOVFF  01,6B7
0C08E:  MOVLW  05
0C090:  MOVLB  6
0C092:  ADDWF  xB7,F
0C094:  MOVLW  00
0C096:  ADDWFC xB8,F
0C098:  MOVLB  2
0C09A:  MOVF   x60,W
0C09C:  ADDWF  xA5,W
0C09E:  MULLW  09
0C0A0:  MOVF   FF3,W
0C0A2:  MOVLB  6
0C0A4:  ADDWF  xB7,F
0C0A6:  MOVLW  00
0C0A8:  ADDWFC xB8,F
0C0AA:  MOVFF  6B8,6BB
0C0AE:  MOVFF  6B7,6BA
0C0B2:  MOVLB  0
0C0B4:  CALL   262C
0C0B8:  MOVFF  01,6B7
0C0BC:  MOVLB  6
0C0BE:  CLRF   xC0
0C0C0:  MOVFF  2A6,6BF
0C0C4:  MOVLW  01
0C0C6:  MOVWF  xC2
0C0C8:  MOVLW  40
0C0CA:  MOVWF  xC1
0C0CC:  MOVLB  0
0C0CE:  CALL   252A
0C0D2:  MOVFF  02,6B9
0C0D6:  MOVFF  01,6B8
0C0DA:  MOVLW  06
0C0DC:  MOVLB  6
0C0DE:  ADDWF  xB8,F
0C0E0:  MOVLW  00
0C0E2:  ADDWFC xB9,F
0C0E4:  MOVLB  2
0C0E6:  MOVF   x60,W
0C0E8:  ADDWF  xA5,W
0C0EA:  MULLW  09
0C0EC:  MOVF   FF3,W
0C0EE:  MOVLB  6
0C0F0:  ADDWF  xB8,F
0C0F2:  MOVLW  00
0C0F4:  ADDWFC xB9,F
0C0F6:  MOVFF  6B9,6BB
0C0FA:  MOVFF  6B8,6BA
0C0FE:  MOVLB  0
0C100:  CALL   262C
0C104:  MOVFF  01,6B8
0C108:  MOVFF  01,6B9
0C10C:  CALL   26D4
0C110:  MOVFF  00,6B8
0C114:  MOVFF  01,6B9
0C118:  MOVFF  02,6BA
0C11C:  MOVFF  03,6BB
0C120:  MOVLB  6
0C122:  CLRF   xC8
0C124:  MOVFF  6B7,6C7
0C128:  MOVLB  0
0C12A:  CALL   2082
0C12E:  MOVFF  FEA,6BD
0C132:  MOVFF  FE9,6BC
0C136:  BCF    FD8.1
0C138:  MOVFF  03,6CA
0C13C:  MOVFF  02,6C9
0C140:  MOVFF  01,6C8
0C144:  MOVFF  00,6C7
0C148:  MOVFF  6BB,6CE
0C14C:  MOVFF  6BA,6CD
0C150:  MOVFF  6B9,6CC
0C154:  MOVFF  6B8,6CB
0C158:  CALL   223E
0C15C:  MOVFF  6BD,FEA
0C160:  MOVFF  6BC,FE9
0C164:  MOVFF  6B6,FEA
0C168:  MOVFF  6B5,FE9
0C16C:  MOVFF  00,FEF
0C170:  MOVFF  01,FEC
0C174:  MOVFF  02,FEC
0C178:  MOVFF  03,FEC
....................             if(TCiclos[i]>150) 
0C17C:  MOVLB  2
0C17E:  MOVF   x60,W
0C180:  MULLW  04
0C182:  MOVF   FF3,W
0C184:  CLRF   03
0C186:  ADDLW  CF
0C188:  MOVWF  FE9
0C18A:  MOVLW  02
0C18C:  ADDWFC 03,W
0C18E:  MOVWF  FEA
0C190:  MOVFF  FEF,6B5
0C194:  MOVFF  FEC,6B6
0C198:  MOVFF  FEC,6B7
0C19C:  MOVFF  FEC,6B8
0C1A0:  MOVLB  6
0C1A2:  CLRF   xBC
0C1A4:  CLRF   xBB
0C1A6:  MOVLW  16
0C1A8:  MOVWF  xBA
0C1AA:  MOVLW  86
0C1AC:  MOVWF  xB9
0C1AE:  MOVFF  6B8,6C0
0C1B2:  MOVFF  6B7,6BF
0C1B6:  MOVFF  6B6,6BE
0C1BA:  MOVFF  6B5,6BD
0C1BE:  MOVLB  0
0C1C0:  CALL   2714
0C1C4:  BNC   C1E4
....................                TCiclos[i]=0; 
0C1C6:  MOVLB  2
0C1C8:  MOVF   x60,W
0C1CA:  MULLW  04
0C1CC:  MOVF   FF3,W
0C1CE:  CLRF   03
0C1D0:  ADDLW  CF
0C1D2:  MOVWF  FE9
0C1D4:  MOVLW  02
0C1D6:  ADDWFC 03,W
0C1D8:  MOVWF  FEA
0C1DA:  CLRF   FEF
0C1DC:  CLRF   FEC
0C1DE:  CLRF   FEC
0C1E0:  CLRF   FEC
0C1E2:  MOVLB  0
....................             PcCiclos[i]=make16(read_ext_eeprom((cicloVisto*320)+7+((cicloVisualizado+i)*9)),read_ext_eeprom((cicloVisto*320)+8+((cicloVisualizado+i)*9))); 
0C1E4:  BCF    FD8.0
0C1E6:  MOVLB  2
0C1E8:  RLCF   x60,W
0C1EA:  CLRF   03
0C1EC:  ADDLW  EB
0C1EE:  MOVWF  01
0C1F0:  MOVLW  02
0C1F2:  ADDWFC 03,F
0C1F4:  MOVFF  01,6B5
0C1F8:  MOVLB  6
0C1FA:  MOVFF  03,6B6
0C1FE:  CLRF   xC0
0C200:  MOVFF  2A6,6BF
0C204:  MOVLW  01
0C206:  MOVWF  xC2
0C208:  MOVLW  40
0C20A:  MOVWF  xC1
0C20C:  MOVLB  0
0C20E:  CALL   252A
0C212:  MOVFF  02,6B8
0C216:  MOVFF  01,6B7
0C21A:  MOVLW  07
0C21C:  MOVLB  6
0C21E:  ADDWF  xB7,F
0C220:  MOVLW  00
0C222:  ADDWFC xB8,F
0C224:  MOVLB  2
0C226:  MOVF   x60,W
0C228:  ADDWF  xA5,W
0C22A:  MULLW  09
0C22C:  MOVF   FF3,W
0C22E:  MOVLB  6
0C230:  ADDWF  xB7,F
0C232:  MOVLW  00
0C234:  ADDWFC xB8,F
0C236:  MOVFF  6B8,6BB
0C23A:  MOVFF  6B7,6BA
0C23E:  MOVLB  0
0C240:  CALL   262C
0C244:  MOVFF  01,6B7
0C248:  MOVLB  6
0C24A:  CLRF   xC0
0C24C:  MOVFF  2A6,6BF
0C250:  MOVLW  01
0C252:  MOVWF  xC2
0C254:  MOVLW  40
0C256:  MOVWF  xC1
0C258:  MOVLB  0
0C25A:  CALL   252A
0C25E:  MOVFF  02,6B9
0C262:  MOVFF  01,6B8
0C266:  MOVLW  08
0C268:  MOVLB  6
0C26A:  ADDWF  xB8,F
0C26C:  MOVLW  00
0C26E:  ADDWFC xB9,F
0C270:  MOVLB  2
0C272:  MOVF   x60,W
0C274:  ADDWF  xA5,W
0C276:  MULLW  09
0C278:  MOVF   FF3,W
0C27A:  MOVLB  6
0C27C:  ADDWF  xB8,F
0C27E:  MOVLW  00
0C280:  ADDWFC xB9,F
0C282:  MOVFF  6B9,6BB
0C286:  MOVFF  6B8,6BA
0C28A:  MOVLB  0
0C28C:  CALL   262C
0C290:  MOVFF  6B6,FEA
0C294:  MOVFF  6B5,FE9
0C298:  MOVFF  6B7,FEC
0C29C:  MOVF   FED,F
0C29E:  MOVFF  01,FEF
....................             if(PcCiclos[i]>400) 
0C2A2:  BCF    FD8.0
0C2A4:  MOVLB  2
0C2A6:  RLCF   x60,W
0C2A8:  CLRF   03
0C2AA:  ADDLW  EB
0C2AC:  MOVWF  FE9
0C2AE:  MOVLW  02
0C2B0:  ADDWFC 03,W
0C2B2:  MOVWF  FEA
0C2B4:  MOVFF  FEC,6B6
0C2B8:  MOVF   FED,F
0C2BA:  MOVFF  FEF,6B5
0C2BE:  MOVLB  6
0C2C0:  MOVF   xB6,W
0C2C2:  SUBLW  00
0C2C4:  BC    C2EA
0C2C6:  XORLW  FF
0C2C8:  BNZ   C2D0
0C2CA:  MOVF   xB5,W
0C2CC:  SUBLW  90
0C2CE:  BC    C2EA
....................                PcCiclos[i]=0; 
0C2D0:  BCF    FD8.0
0C2D2:  MOVLB  2
0C2D4:  RLCF   x60,W
0C2D6:  CLRF   03
0C2D8:  ADDLW  EB
0C2DA:  MOVWF  FE9
0C2DC:  MOVLW  02
0C2DE:  ADDWFC 03,W
0C2E0:  MOVWF  FEA
0C2E2:  CLRF   FEC
0C2E4:  MOVF   FED,F
0C2E6:  CLRF   FEF
0C2E8:  MOVLB  6
....................             PpcCiclos[i]=make16(read_ext_eeprom((cicloVisto*320)+9+((cicloVisualizado+i)*9)),read_ext_eeprom((cicloVisto*320)+10+((cicloVisualizado+i)*9))); 
0C2EA:  BCF    FD8.0
0C2EC:  MOVLB  2
0C2EE:  RLCF   x60,W
0C2F0:  CLRF   03
0C2F2:  ADDLW  F9
0C2F4:  MOVWF  01
0C2F6:  MOVLW  02
0C2F8:  ADDWFC 03,F
0C2FA:  MOVFF  01,6B5
0C2FE:  MOVLB  6
0C300:  MOVFF  03,6B6
0C304:  CLRF   xC0
0C306:  MOVFF  2A6,6BF
0C30A:  MOVLW  01
0C30C:  MOVWF  xC2
0C30E:  MOVLW  40
0C310:  MOVWF  xC1
0C312:  MOVLB  0
0C314:  CALL   252A
0C318:  MOVFF  02,6B8
0C31C:  MOVFF  01,6B7
0C320:  MOVLW  09
0C322:  MOVLB  6
0C324:  ADDWF  xB7,F
0C326:  MOVLW  00
0C328:  ADDWFC xB8,F
0C32A:  MOVLB  2
0C32C:  MOVF   x60,W
0C32E:  ADDWF  xA5,W
0C330:  MULLW  09
0C332:  MOVF   FF3,W
0C334:  MOVLB  6
0C336:  ADDWF  xB7,F
0C338:  MOVLW  00
0C33A:  ADDWFC xB8,F
0C33C:  MOVFF  6B8,6BB
0C340:  MOVFF  6B7,6BA
0C344:  MOVLB  0
0C346:  CALL   262C
0C34A:  MOVFF  01,6B7
0C34E:  MOVLB  6
0C350:  CLRF   xC0
0C352:  MOVFF  2A6,6BF
0C356:  MOVLW  01
0C358:  MOVWF  xC2
0C35A:  MOVLW  40
0C35C:  MOVWF  xC1
0C35E:  MOVLB  0
0C360:  CALL   252A
0C364:  MOVFF  02,6B9
0C368:  MOVFF  01,6B8
0C36C:  MOVLW  0A
0C36E:  MOVLB  6
0C370:  ADDWF  xB8,F
0C372:  MOVLW  00
0C374:  ADDWFC xB9,F
0C376:  MOVLB  2
0C378:  MOVF   x60,W
0C37A:  ADDWF  xA5,W
0C37C:  MULLW  09
0C37E:  MOVF   FF3,W
0C380:  MOVLB  6
0C382:  ADDWF  xB8,F
0C384:  MOVLW  00
0C386:  ADDWFC xB9,F
0C388:  MOVFF  6B9,6BB
0C38C:  MOVFF  6B8,6BA
0C390:  MOVLB  0
0C392:  CALL   262C
0C396:  MOVFF  6B6,FEA
0C39A:  MOVFF  6B5,FE9
0C39E:  MOVFF  6B7,FEC
0C3A2:  MOVF   FED,F
0C3A4:  MOVFF  01,FEF
....................             if(PpcCiclos[i]>400) 
0C3A8:  BCF    FD8.0
0C3AA:  MOVLB  2
0C3AC:  RLCF   x60,W
0C3AE:  CLRF   03
0C3B0:  ADDLW  F9
0C3B2:  MOVWF  FE9
0C3B4:  MOVLW  02
0C3B6:  ADDWFC 03,W
0C3B8:  MOVWF  FEA
0C3BA:  MOVFF  FEC,6B6
0C3BE:  MOVF   FED,F
0C3C0:  MOVFF  FEF,6B5
0C3C4:  MOVLB  6
0C3C6:  MOVF   xB6,W
0C3C8:  SUBLW  00
0C3CA:  BC    C3F0
0C3CC:  XORLW  FF
0C3CE:  BNZ   C3D6
0C3D0:  MOVF   xB5,W
0C3D2:  SUBLW  90
0C3D4:  BC    C3F0
....................                PpcCiclos[i]=0; 
0C3D6:  BCF    FD8.0
0C3D8:  MOVLB  2
0C3DA:  RLCF   x60,W
0C3DC:  CLRF   03
0C3DE:  ADDLW  F9
0C3E0:  MOVWF  FE9
0C3E2:  MOVLW  02
0C3E4:  ADDWFC 03,W
0C3E6:  MOVWF  FEA
0C3E8:  CLRF   FEC
0C3EA:  MOVF   FED,F
0C3EC:  CLRF   FEF
0C3EE:  MOVLB  6
....................             ACiclos[i]=read_ext_eeprom((cicloVisto*320)+13+((cicloVisualizado+i)*9)); 
0C3F0:  CLRF   03
0C3F2:  MOVLB  2
0C3F4:  MOVF   x60,W
0C3F6:  ADDLW  15
0C3F8:  MOVWF  01
0C3FA:  MOVLW  03
0C3FC:  ADDWFC 03,F
0C3FE:  MOVFF  01,6B5
0C402:  MOVLB  6
0C404:  MOVFF  03,6B6
0C408:  CLRF   xC0
0C40A:  MOVFF  2A6,6BF
0C40E:  MOVLW  01
0C410:  MOVWF  xC2
0C412:  MOVLW  40
0C414:  MOVWF  xC1
0C416:  MOVLB  0
0C418:  CALL   252A
0C41C:  MOVFF  02,6B8
0C420:  MOVFF  01,6B7
0C424:  MOVLW  0D
0C426:  MOVLB  6
0C428:  ADDWF  xB7,F
0C42A:  MOVLW  00
0C42C:  ADDWFC xB8,F
0C42E:  MOVLB  2
0C430:  MOVF   x60,W
0C432:  ADDWF  xA5,W
0C434:  MULLW  09
0C436:  MOVF   FF3,W
0C438:  MOVLB  6
0C43A:  ADDWF  xB7,F
0C43C:  MOVLW  00
0C43E:  ADDWFC xB8,F
0C440:  MOVFF  6B8,6BB
0C444:  MOVFF  6B7,6BA
0C448:  MOVLB  0
0C44A:  CALL   262C
0C44E:  MOVFF  6B6,FEA
0C452:  MOVFF  6B5,FE9
0C456:  MOVFF  01,FEF
....................             if(ACiclos[i]>20) 
0C45A:  CLRF   03
0C45C:  MOVLB  2
0C45E:  MOVF   x60,W
0C460:  ADDLW  15
0C462:  MOVWF  FE9
0C464:  MOVLW  03
0C466:  ADDWFC 03,W
0C468:  MOVWF  FEA
0C46A:  MOVF   FEF,W
0C46C:  SUBLW  14
0C46E:  BC    C480
....................                ACiclos[i]=0; 
0C470:  CLRF   03
0C472:  MOVF   x60,W
0C474:  ADDLW  15
0C476:  MOVWF  FE9
0C478:  MOVLW  03
0C47A:  ADDWFC 03,W
0C47C:  MOVWF  FEA
0C47E:  CLRF   FEF
....................          } 
0C480:  INCF   x60,F
0C482:  BRA    BF34
0C484:  MOVLB  0
....................       } 
....................        
....................       //Imprime Valores Estaticos 
....................       printf("fecha.txt=\"%02u/%02u/%02u\"",diaCiclos,mesCiclos,yearCiclos); 
0C486:  MOVLW  E0
0C488:  MOVWF  FF6
0C48A:  MOVLW  13
0C48C:  MOVWF  FF7
0C48E:  MOVLW  00
0C490:  MOVWF  FF8
0C492:  MOVLW  0B
0C494:  MOVLB  6
0C496:  MOVWF  xBA
0C498:  MOVLB  0
0C49A:  CALL   5BEA
0C49E:  MOVFF  31C,6BA
0C4A2:  MOVLW  01
0C4A4:  MOVLB  6
0C4A6:  MOVWF  xBB
0C4A8:  MOVLB  0
0C4AA:  CALL   5C6E
0C4AE:  MOVLW  2F
0C4B0:  BTFSS  F9E.4
0C4B2:  BRA    C4B0
0C4B4:  MOVWF  FAD
0C4B6:  MOVFF  31D,6BA
0C4BA:  MOVLW  01
0C4BC:  MOVLB  6
0C4BE:  MOVWF  xBB
0C4C0:  MOVLB  0
0C4C2:  CALL   5C6E
0C4C6:  MOVLW  2F
0C4C8:  BTFSS  F9E.4
0C4CA:  BRA    C4C8
0C4CC:  MOVWF  FAD
0C4CE:  MOVFF  31E,6BA
0C4D2:  MOVLW  01
0C4D4:  MOVLB  6
0C4D6:  MOVWF  xBB
0C4D8:  MOVLB  0
0C4DA:  CALL   5C6E
0C4DE:  MOVLW  22
0C4E0:  BTFSS  F9E.4
0C4E2:  BRA    C4E0
0C4E4:  MOVWF  FAD
....................       SendDataDisplay(); 
0C4E6:  CALL   416A
....................        
....................       printf("ciclo.txt=\"%02u\"",cicloCiclos); 
0C4EA:  MOVLW  FC
0C4EC:  MOVWF  FF6
0C4EE:  MOVLW  13
0C4F0:  MOVWF  FF7
0C4F2:  MOVLW  00
0C4F4:  MOVWF  FF8
0C4F6:  MOVLW  0B
0C4F8:  MOVLB  6
0C4FA:  MOVWF  xBA
0C4FC:  MOVLB  0
0C4FE:  CALL   5BEA
0C502:  MOVFF  320,6BA
0C506:  MOVLW  01
0C508:  MOVLB  6
0C50A:  MOVWF  xBB
0C50C:  MOVLB  0
0C50E:  CALL   5C6E
0C512:  MOVLW  22
0C514:  BTFSS  F9E.4
0C516:  BRA    C514
0C518:  MOVWF  FAD
....................       SendDataDisplay(); 
0C51A:  CALL   416A
....................        
....................       printf("t0.txt=\"Ciclo %02u\"",cicloVisto); 
0C51E:  MOVLW  0E
0C520:  MOVWF  FF6
0C522:  MOVLW  14
0C524:  MOVWF  FF7
0C526:  MOVLW  00
0C528:  MOVWF  FF8
0C52A:  MOVLW  0E
0C52C:  MOVLB  6
0C52E:  MOVWF  xBA
0C530:  MOVLB  0
0C532:  CALL   5BEA
0C536:  MOVFF  2A6,6BA
0C53A:  MOVLW  01
0C53C:  MOVLB  6
0C53E:  MOVWF  xBB
0C540:  MOVLB  0
0C542:  CALL   5C6E
0C546:  MOVLW  22
0C548:  BTFSS  F9E.4
0C54A:  BRA    C548
0C54C:  MOVWF  FAD
....................       SendDataDisplay(); 
0C54E:  CALL   416A
....................        
....................       if(usuarioCiclos==0){ 
0C552:  MOVLB  3
0C554:  MOVF   x1F,F
0C556:  BNZ   C572
....................          printf("usuario.txt=\"Admin\""); 
0C558:  MOVLW  22
0C55A:  MOVWF  FF6
0C55C:  MOVLW  14
0C55E:  MOVWF  FF7
0C560:  MOVLW  00
0C562:  MOVWF  FF8
0C564:  MOVLB  0
0C566:  CALL   4138
....................          SendDataDisplay(); 
0C56A:  CALL   416A
....................       }else if(usuarioCiclos>0 && usuarioCiclos<9){ 
0C56E:  BRA    C5D0
0C570:  MOVLB  3
0C572:  MOVF   x1F,F
0C574:  BZ    C5B4
0C576:  MOVF   x1F,W
0C578:  SUBLW  08
0C57A:  BNC   C5B4
....................          printf("usuario.txt=\"Operador%u\"",usuarioCiclos); 
0C57C:  MOVLW  36
0C57E:  MOVWF  FF6
0C580:  MOVLW  14
0C582:  MOVWF  FF7
0C584:  MOVLW  00
0C586:  MOVWF  FF8
0C588:  MOVLW  15
0C58A:  MOVLB  6
0C58C:  MOVWF  xBA
0C58E:  MOVLB  0
0C590:  CALL   5BEA
0C594:  MOVFF  31F,6BA
0C598:  MOVLW  1B
0C59A:  MOVLB  6
0C59C:  MOVWF  xBB
0C59E:  MOVLB  0
0C5A0:  CALL   5C6E
0C5A4:  MOVLW  22
0C5A6:  BTFSS  F9E.4
0C5A8:  BRA    C5A6
0C5AA:  MOVWF  FAD
....................          SendDataDisplay(); 
0C5AC:  CALL   416A
....................       }else if(usuarioCiclos==9){ 
0C5B0:  BRA    C5D0
0C5B2:  MOVLB  3
0C5B4:  MOVF   x1F,W
0C5B6:  SUBLW  09
0C5B8:  BNZ   C5D0
....................          printf("usuario.txt=\"Tecnico\""); 
0C5BA:  MOVLW  50
0C5BC:  MOVWF  FF6
0C5BE:  MOVLW  14
0C5C0:  MOVWF  FF7
0C5C2:  MOVLW  00
0C5C4:  MOVWF  FF8
0C5C6:  MOVLB  0
0C5C8:  CALL   4138
....................          SendDataDisplay(); 
0C5CC:  CALL   416A
....................       } 
....................        
....................       //Imprime Valores Dinamicos 
....................       for(i=0;i<7;i++){ 
0C5D0:  MOVLB  2
0C5D2:  CLRF   x60
0C5D4:  MOVF   x60,W
0C5D6:  SUBLW  06
0C5D8:  BTFSS  FD8.0
0C5DA:  BRA    C872
....................          printf("hora%u.txt=\"%02u.  %02u:%02u\"",i+1,cicloVisualizado+i+1,horaCiclos[i],minutoCiclos[i]); 
0C5DC:  MOVLW  01
0C5DE:  ADDWF  x60,W
0C5E0:  MOVLB  6
0C5E2:  MOVWF  xB5
0C5E4:  MOVLB  2
0C5E6:  MOVF   x60,W
0C5E8:  ADDWF  xA5,W
0C5EA:  ADDLW  01
0C5EC:  MOVLB  6
0C5EE:  MOVWF  xB6
0C5F0:  CLRF   03
0C5F2:  MOVLB  2
0C5F4:  MOVF   x60,W
0C5F6:  ADDLW  07
0C5F8:  MOVWF  FE9
0C5FA:  MOVLW  03
0C5FC:  ADDWFC 03,W
0C5FE:  MOVWF  FEA
0C600:  MOVFF  FEF,6B7
0C604:  CLRF   03
0C606:  MOVF   x60,W
0C608:  ADDLW  0E
0C60A:  MOVWF  FE9
0C60C:  MOVLW  03
0C60E:  ADDWFC 03,W
0C610:  MOVWF  FEA
0C612:  MOVFF  FEF,6B8
0C616:  MOVLW  66
0C618:  MOVWF  FF6
0C61A:  MOVLW  14
0C61C:  MOVWF  FF7
0C61E:  MOVLW  00
0C620:  MOVWF  FF8
0C622:  MOVLW  04
0C624:  MOVLB  6
0C626:  MOVWF  xBA
0C628:  MOVLB  0
0C62A:  CALL   5BEA
0C62E:  MOVFF  6B5,6BA
0C632:  MOVLW  1B
0C634:  MOVLB  6
0C636:  MOVWF  xBB
0C638:  MOVLB  0
0C63A:  CALL   5C6E
0C63E:  MOVLW  6C
0C640:  MOVWF  FF6
0C642:  MOVLW  14
0C644:  MOVWF  FF7
0C646:  MOVLW  00
0C648:  MOVWF  FF8
0C64A:  MOVLW  06
0C64C:  MOVLB  6
0C64E:  MOVWF  xBA
0C650:  MOVLB  0
0C652:  CALL   5BEA
0C656:  MOVFF  6B6,6BA
0C65A:  MOVLW  01
0C65C:  MOVLB  6
0C65E:  MOVWF  xBB
0C660:  MOVLB  0
0C662:  CALL   5C6E
0C666:  MOVLW  2E
0C668:  BTFSS  F9E.4
0C66A:  BRA    C668
0C66C:  MOVWF  FAD
0C66E:  MOVLW  20
0C670:  BTFSS  F9E.4
0C672:  BRA    C670
0C674:  MOVWF  FAD
0C676:  MOVLW  20
0C678:  BTFSS  F9E.4
0C67A:  BRA    C678
0C67C:  MOVWF  FAD
0C67E:  MOVFF  6B7,6BA
0C682:  MOVLW  01
0C684:  MOVLB  6
0C686:  MOVWF  xBB
0C688:  MOVLB  0
0C68A:  CALL   5C6E
0C68E:  MOVLW  3A
0C690:  BTFSS  F9E.4
0C692:  BRA    C690
0C694:  MOVWF  FAD
0C696:  MOVFF  6B8,6BA
0C69A:  MOVLW  01
0C69C:  MOVLB  6
0C69E:  MOVWF  xBB
0C6A0:  MOVLB  0
0C6A2:  CALL   5C6E
0C6A6:  MOVLW  22
0C6A8:  BTFSS  F9E.4
0C6AA:  BRA    C6A8
0C6AC:  MOVWF  FAD
....................          SendDataDisplay(); 
0C6AE:  CALL   416A
....................          printf("T%u.txt=\"%3.1fC\"",i+1,TCiclos[i]); 
0C6B2:  MOVLW  01
0C6B4:  MOVLB  2
0C6B6:  ADDWF  x60,W
0C6B8:  MOVLB  6
0C6BA:  MOVWF  xB5
0C6BC:  MOVLB  2
0C6BE:  MOVF   x60,W
0C6C0:  MULLW  04
0C6C2:  MOVF   FF3,W
0C6C4:  CLRF   03
0C6C6:  ADDLW  CF
0C6C8:  MOVWF  FE9
0C6CA:  MOVLW  02
0C6CC:  ADDWFC 03,W
0C6CE:  MOVWF  FEA
0C6D0:  MOVFF  FEF,6B6
0C6D4:  MOVFF  FEC,6B7
0C6D8:  MOVFF  FEC,6B8
0C6DC:  MOVFF  FEC,6B9
0C6E0:  MOVLW  54
0C6E2:  BTFSS  F9E.4
0C6E4:  BRA    C6E2
0C6E6:  MOVWF  FAD
0C6E8:  MOVFF  6B5,6BA
0C6EC:  MOVLW  1B
0C6EE:  MOVLB  6
0C6F0:  MOVWF  xBB
0C6F2:  MOVLB  0
0C6F4:  CALL   5C6E
0C6F8:  MOVLW  87
0C6FA:  MOVWF  FF6
0C6FC:  MOVLW  14
0C6FE:  MOVWF  FF7
0C700:  MOVLW  00
0C702:  MOVWF  FF8
0C704:  MOVLW  06
0C706:  MOVLB  6
0C708:  MOVWF  xBA
0C70A:  MOVLB  0
0C70C:  CALL   5BEA
0C710:  MOVLW  02
0C712:  MOVWF  FE9
0C714:  MOVFF  6B9,6BD
0C718:  MOVFF  6B8,6BC
0C71C:  MOVFF  6B7,6BB
0C720:  MOVFF  6B6,6BA
0C724:  MOVLW  01
0C726:  MOVLB  6
0C728:  MOVWF  xBE
0C72A:  MOVLB  0
0C72C:  CALL   5ED2
0C730:  MOVLW  B0
0C732:  BTFSS  F9E.4
0C734:  BRA    C732
0C736:  MOVWF  FAD
0C738:  MOVLW  43
0C73A:  BTFSS  F9E.4
0C73C:  BRA    C73A
0C73E:  MOVWF  FAD
0C740:  MOVLW  22
0C742:  BTFSS  F9E.4
0C744:  BRA    C742
0C746:  MOVWF  FAD
....................          SendDataDisplay(); 
0C748:  CALL   416A
....................          printf("Pc%u.txt=\"%03LukPa\"",i+1,PcCiclos[i]); 
0C74C:  MOVLW  01
0C74E:  MOVLB  2
0C750:  ADDWF  x60,W
0C752:  MOVLB  6
0C754:  MOVWF  xB5
0C756:  BCF    FD8.0
0C758:  MOVLB  2
0C75A:  RLCF   x60,W
0C75C:  CLRF   03
0C75E:  ADDLW  EB
0C760:  MOVWF  FE9
0C762:  MOVLW  02
0C764:  ADDWFC 03,W
0C766:  MOVWF  FEA
0C768:  MOVFF  FEC,6B7
0C76C:  MOVF   FED,F
0C76E:  MOVFF  FEF,6B6
0C772:  MOVLW  50
0C774:  BTFSS  F9E.4
0C776:  BRA    C774
0C778:  MOVWF  FAD
0C77A:  MOVLW  63
0C77C:  BTFSS  F9E.4
0C77E:  BRA    C77C
0C780:  MOVWF  FAD
0C782:  MOVFF  6B5,6BA
0C786:  MOVLW  1B
0C788:  MOVLB  6
0C78A:  MOVWF  xBB
0C78C:  MOVLB  0
0C78E:  CALL   5C6E
0C792:  MOVLW  9A
0C794:  MOVWF  FF6
0C796:  MOVLW  14
0C798:  MOVWF  FF7
0C79A:  MOVLW  00
0C79C:  MOVWF  FF8
0C79E:  MOVLW  06
0C7A0:  MOVLB  6
0C7A2:  MOVWF  xBA
0C7A4:  MOVLB  0
0C7A6:  CALL   5BEA
0C7AA:  MOVLW  0A
0C7AC:  MOVWF  FE9
0C7AE:  MOVFF  6B7,6BA
0C7B2:  MOVFF  6B6,6B9
0C7B6:  CALL   5D64
0C7BA:  MOVLW  A5
0C7BC:  MOVWF  FF6
0C7BE:  MOVLW  14
0C7C0:  MOVWF  FF7
0C7C2:  MOVLW  00
0C7C4:  MOVWF  FF8
0C7C6:  MOVLW  04
0C7C8:  MOVLB  6
0C7CA:  MOVWF  xBA
0C7CC:  MOVLB  0
0C7CE:  CALL   5BEA
....................          SendDataDisplay(); 
0C7D2:  CALL   416A
....................          printf("Ppc%u.txt=\"%03LukPa\"",i+1,PpcCiclos[i]); 
0C7D6:  MOVLW  01
0C7D8:  MOVLB  2
0C7DA:  ADDWF  x60,W
0C7DC:  MOVLB  6
0C7DE:  MOVWF  xB5
0C7E0:  BCF    FD8.0
0C7E2:  MOVLB  2
0C7E4:  RLCF   x60,W
0C7E6:  CLRF   03
0C7E8:  ADDLW  F9
0C7EA:  MOVWF  FE9
0C7EC:  MOVLW  02
0C7EE:  ADDWFC 03,W
0C7F0:  MOVWF  FEA
0C7F2:  MOVFF  FEC,6B7
0C7F6:  MOVF   FED,F
0C7F8:  MOVFF  FEF,6B6
0C7FC:  MOVLW  50
0C7FE:  BTFSS  F9E.4
0C800:  BRA    C7FE
0C802:  MOVWF  FAD
0C804:  MOVLW  70
0C806:  BTFSS  F9E.4
0C808:  BRA    C806
0C80A:  MOVWF  FAD
0C80C:  MOVLW  63
0C80E:  BTFSS  F9E.4
0C810:  BRA    C80E
0C812:  MOVWF  FAD
0C814:  MOVFF  6B5,6BA
0C818:  MOVLW  1B
0C81A:  MOVLB  6
0C81C:  MOVWF  xBB
0C81E:  MOVLB  0
0C820:  CALL   5C6E
0C824:  MOVLW  AF
0C826:  MOVWF  FF6
0C828:  MOVLW  14
0C82A:  MOVWF  FF7
0C82C:  MOVLW  00
0C82E:  MOVWF  FF8
0C830:  MOVLW  06
0C832:  MOVLB  6
0C834:  MOVWF  xBA
0C836:  MOVLB  0
0C838:  CALL   5BEA
0C83C:  MOVLW  0A
0C83E:  MOVWF  FE9
0C840:  MOVFF  6B7,6BA
0C844:  MOVFF  6B6,6B9
0C848:  CALL   5D64
0C84C:  MOVLW  BA
0C84E:  MOVWF  FF6
0C850:  MOVLW  14
0C852:  MOVWF  FF7
0C854:  MOVLW  00
0C856:  MOVWF  FF8
0C858:  MOVLW  04
0C85A:  MOVLB  6
0C85C:  MOVWF  xBA
0C85E:  MOVLB  0
0C860:  CALL   5BEA
....................          SendDataDisplay();          
0C864:  CALL   416A
....................          codificaAlarma(); 
0C868:  GOTO   6632
....................       }   
0C86C:  MOVLB  2
0C86E:  INCF   x60,F
0C870:  BRA    C5D4
....................    }else if(Menu==13){//Menu de Nivel de Desfogue 
0C872:  GOTO   F7C2
0C876:  MOVF   x5D,W
0C878:  SUBLW  0D
0C87A:  BTFSS  FD8.2
0C87C:  BRA    CA58
....................       printf("fecha.txt=\"Fecha:%02u/%02u/20%02u Hora: %02u:%02u:%02u\"",Dia,Mes,Year,Hora,Minuto,Segundo); 
0C87E:  MOVLW  C0
0C880:  MOVWF  FF6
0C882:  MOVLW  14
0C884:  MOVWF  FF7
0C886:  MOVLW  00
0C888:  MOVWF  FF8
0C88A:  MOVLW  11
0C88C:  MOVLB  6
0C88E:  MOVWF  xBA
0C890:  MOVLB  0
0C892:  CALL   5BEA
0C896:  MOVFF  2A0,6BA
0C89A:  MOVLW  01
0C89C:  MOVLB  6
0C89E:  MOVWF  xBB
0C8A0:  MOVLB  0
0C8A2:  CALL   5C6E
0C8A6:  MOVLW  2F
0C8A8:  BTFSS  F9E.4
0C8AA:  BRA    C8A8
0C8AC:  MOVWF  FAD
0C8AE:  MOVFF  29F,6BA
0C8B2:  MOVLW  01
0C8B4:  MOVLB  6
0C8B6:  MOVWF  xBB
0C8B8:  MOVLB  0
0C8BA:  CALL   5C6E
0C8BE:  MOVLW  2F
0C8C0:  BTFSS  F9E.4
0C8C2:  BRA    C8C0
0C8C4:  MOVWF  FAD
0C8C6:  MOVLW  32
0C8C8:  BTFSS  F9E.4
0C8CA:  BRA    C8C8
0C8CC:  MOVWF  FAD
0C8CE:  MOVLW  30
0C8D0:  BTFSS  F9E.4
0C8D2:  BRA    C8D0
0C8D4:  MOVWF  FAD
0C8D6:  MOVFF  29E,6BA
0C8DA:  MOVLW  01
0C8DC:  MOVLB  6
0C8DE:  MOVWF  xBB
0C8E0:  MOVLB  0
0C8E2:  CALL   5C6E
0C8E6:  MOVLW  E1
0C8E8:  MOVWF  FF6
0C8EA:  MOVLW  14
0C8EC:  MOVWF  FF7
0C8EE:  MOVLW  00
0C8F0:  MOVWF  FF8
0C8F2:  MOVLW  07
0C8F4:  MOVLB  6
0C8F6:  MOVWF  xBA
0C8F8:  MOVLB  0
0C8FA:  CALL   5BEA
0C8FE:  MOVFF  2A1,6BA
0C902:  MOVLW  01
0C904:  MOVLB  6
0C906:  MOVWF  xBB
0C908:  MOVLB  0
0C90A:  CALL   5C6E
0C90E:  MOVLW  3A
0C910:  BTFSS  F9E.4
0C912:  BRA    C910
0C914:  MOVWF  FAD
0C916:  MOVFF  2A2,6BA
0C91A:  MOVLW  01
0C91C:  MOVLB  6
0C91E:  MOVWF  xBB
0C920:  MOVLB  0
0C922:  CALL   5C6E
0C926:  MOVLW  3A
0C928:  BTFSS  F9E.4
0C92A:  BRA    C928
0C92C:  MOVWF  FAD
0C92E:  MOVFF  2A3,6BA
0C932:  MOVLW  01
0C934:  MOVLB  6
0C936:  MOVWF  xBB
0C938:  MOVLB  0
0C93A:  CALL   5C6E
0C93E:  MOVLW  22
0C940:  BTFSS  F9E.4
0C942:  BRA    C940
0C944:  MOVWF  FAD
....................       SendDataDisplay(); 
0C946:  CALL   416A
....................          if(NivelDes<1) 
0C94A:  MOVLB  2
0C94C:  MOVF   x93,F
0C94E:  BNZ   C954
....................             NivelDes=6; 
0C950:  MOVLW  06
0C952:  MOVWF  x93
....................          if(NivelDes>6) 
0C954:  MOVF   x93,W
0C956:  SUBLW  06
0C958:  BC    C95E
....................             NivelDes=1; 
0C95A:  MOVLW  01
0C95C:  MOVWF  x93
....................           
....................          if(RX_Buffer[4]==0x11){//Selecciono Regresar 
0C95E:  MOVF   34,W
0C960:  SUBLW  11
0C962:  BNZ   CA06
....................             Segundos=OFF; 
0C964:  MOVLB  1
0C966:  BCF    x05.4
....................             Minutos=OFF;             
0C968:  BCF    x05.3
....................             tiempo_secado=0; 
0C96A:  MOVLB  2
0C96C:  CLRF   x6F
....................             printf("page CicloPersona"); 
0C96E:  MOVLW  F8
0C970:  MOVWF  FF6
0C972:  MOVLW  14
0C974:  MOVWF  FF7
0C976:  MOVLW  00
0C978:  MOVWF  FF8
0C97A:  MOVLB  0
0C97C:  CALL   4138
....................             SendDataDisplay();   
0C980:  CALL   416A
....................             if(!GuardaEEPROM){     
0C984:  MOVLB  1
0C986:  BTFSC  x05.5
0C988:  BRA    CA04
....................                CiclosPersonalizados[CicloLibre-1].NivelDesfogue=NivelDes; 
0C98A:  MOVLW  01
0C98C:  MOVLB  2
0C98E:  SUBWF  x52,W
0C990:  MULLW  08
0C992:  MOVF   FF3,W
0C994:  MOVLB  6
0C996:  CLRF   xB6
0C998:  MOVWF  xB5
0C99A:  MOVLW  07
0C99C:  ADDWF  xB5,W
0C99E:  MOVWF  01
0C9A0:  MOVLW  00
0C9A2:  ADDWFC xB6,W
0C9A4:  MOVWF  03
0C9A6:  MOVF   01,W
0C9A8:  ADDLW  ED
0C9AA:  MOVWF  FE9
0C9AC:  MOVLW  05
0C9AE:  ADDWFC 03,W
0C9B0:  MOVWF  FEA
0C9B2:  MOVFF  293,FEF
....................                write_eeprom(107+((CicloLibre-1)*8),NivelDes); 
0C9B6:  MOVLW  01
0C9B8:  MOVLB  2
0C9BA:  SUBWF  x52,W
0C9BC:  MULLW  08
0C9BE:  MOVF   FF3,W
0C9C0:  ADDLW  6B
0C9C2:  MOVLB  6
0C9C4:  MOVWF  xB5
0C9C6:  CLRF   FAA
0C9C8:  MOVFF  6B5,FA9
0C9CC:  MOVFF  293,FA8
0C9D0:  BCF    FA6.6
0C9D2:  BCF    FA6.7
0C9D4:  BSF    FA6.2
0C9D6:  MOVF   FF2,W
0C9D8:  MOVWF  00
0C9DA:  BCF    FF2.6
0C9DC:  BCF    FF2.7
0C9DE:  MOVLB  F
0C9E0:  MOVLW  55
0C9E2:  MOVWF  FA7
0C9E4:  MOVLW  AA
0C9E6:  MOVWF  FA7
0C9E8:  BSF    FA6.1
0C9EA:  BTFSC  FA6.1
0C9EC:  BRA    C9EA
0C9EE:  BCF    FA6.2
0C9F0:  MOVF   00,W
0C9F2:  IORWF  FF2,F
....................                delay_ms(20);             
0C9F4:  MOVLW  14
0C9F6:  MOVLB  6
0C9F8:  MOVWF  xC7
0C9FA:  MOVLB  0
0C9FC:  CALL   20B8
....................                GuardaEEPROM=ON; 
0CA00:  MOVLB  1
0CA02:  BSF    x05.5
0CA04:  MOVLB  2
....................             } 
....................          } 
....................           
....................          if(RX_Buffer[4]==0x0d){//Tecla Arriba Oprimida 
0CA06:  MOVF   34,W
0CA08:  SUBLW  0D
0CA0A:  BNZ   CA12
....................             NivelDes++; 
0CA0C:  INCF   x93,F
....................             RX_Buffer[4]=0x00;             
0CA0E:  CLRF   34
....................             RX_Buffer2[4]=0x00;                        
0CA10:  CLRF   3F
....................          } 
....................           
....................          if(RX_Buffer[4]==0x0c){//Tecla Abajo Oprimida 
0CA12:  MOVF   34,W
0CA14:  SUBLW  0C
0CA16:  BNZ   CA1E
....................             NivelDes--; 
0CA18:  DECF   x93,F
....................             RX_Buffer[4]=0x00; 
0CA1A:  CLRF   34
....................             RX_Buffer2[4]=0x00;                         
0CA1C:  CLRF   3F
....................          } 
....................           
....................       printf("tnivel.txt=\"%u\"",NivelDes); 
0CA1E:  MOVLW  0A
0CA20:  MOVWF  FF6
0CA22:  MOVLW  15
0CA24:  MOVWF  FF7
0CA26:  MOVLW  00
0CA28:  MOVWF  FF8
0CA2A:  MOVLW  0C
0CA2C:  MOVLB  6
0CA2E:  MOVWF  xBA
0CA30:  MOVLB  0
0CA32:  CALL   5BEA
0CA36:  MOVFF  293,6BA
0CA3A:  MOVLW  1B
0CA3C:  MOVLB  6
0CA3E:  MOVWF  xBB
0CA40:  MOVLB  0
0CA42:  CALL   5C6E
0CA46:  MOVLW  22
0CA48:  BTFSS  F9E.4
0CA4A:  BRA    CA48
0CA4C:  MOVWF  FAD
....................       SendDataDisplay(); 
0CA4E:  CALL   416A
....................    }else if(Menu==14){//Menu de Activacion de Ciclos 
0CA52:  GOTO   F7C2
0CA56:  MOVLB  2
0CA58:  MOVF   x5D,W
0CA5A:  SUBLW  0E
0CA5C:  BTFSS  FD8.2
0CA5E:  BRA    CC8C
....................       printf("fecha.txt=\"Fecha:%02u/%02u/20%02u Hora: %02u:%02u:%02u\"",Dia,Mes,Year,Hora,Minuto,Segundo); 
0CA60:  MOVLW  1A
0CA62:  MOVWF  FF6
0CA64:  MOVLW  15
0CA66:  MOVWF  FF7
0CA68:  MOVLW  00
0CA6A:  MOVWF  FF8
0CA6C:  MOVLW  11
0CA6E:  MOVLB  6
0CA70:  MOVWF  xBA
0CA72:  MOVLB  0
0CA74:  CALL   5BEA
0CA78:  MOVFF  2A0,6BA
0CA7C:  MOVLW  01
0CA7E:  MOVLB  6
0CA80:  MOVWF  xBB
0CA82:  MOVLB  0
0CA84:  CALL   5C6E
0CA88:  MOVLW  2F
0CA8A:  BTFSS  F9E.4
0CA8C:  BRA    CA8A
0CA8E:  MOVWF  FAD
0CA90:  MOVFF  29F,6BA
0CA94:  MOVLW  01
0CA96:  MOVLB  6
0CA98:  MOVWF  xBB
0CA9A:  MOVLB  0
0CA9C:  CALL   5C6E
0CAA0:  MOVLW  2F
0CAA2:  BTFSS  F9E.4
0CAA4:  BRA    CAA2
0CAA6:  MOVWF  FAD
0CAA8:  MOVLW  32
0CAAA:  BTFSS  F9E.4
0CAAC:  BRA    CAAA
0CAAE:  MOVWF  FAD
0CAB0:  MOVLW  30
0CAB2:  BTFSS  F9E.4
0CAB4:  BRA    CAB2
0CAB6:  MOVWF  FAD
0CAB8:  MOVFF  29E,6BA
0CABC:  MOVLW  01
0CABE:  MOVLB  6
0CAC0:  MOVWF  xBB
0CAC2:  MOVLB  0
0CAC4:  CALL   5C6E
0CAC8:  MOVLW  3B
0CACA:  MOVWF  FF6
0CACC:  MOVLW  15
0CACE:  MOVWF  FF7
0CAD0:  MOVLW  00
0CAD2:  MOVWF  FF8
0CAD4:  MOVLW  07
0CAD6:  MOVLB  6
0CAD8:  MOVWF  xBA
0CADA:  MOVLB  0
0CADC:  CALL   5BEA
0CAE0:  MOVFF  2A1,6BA
0CAE4:  MOVLW  01
0CAE6:  MOVLB  6
0CAE8:  MOVWF  xBB
0CAEA:  MOVLB  0
0CAEC:  CALL   5C6E
0CAF0:  MOVLW  3A
0CAF2:  BTFSS  F9E.4
0CAF4:  BRA    CAF2
0CAF6:  MOVWF  FAD
0CAF8:  MOVFF  2A2,6BA
0CAFC:  MOVLW  01
0CAFE:  MOVLB  6
0CB00:  MOVWF  xBB
0CB02:  MOVLB  0
0CB04:  CALL   5C6E
0CB08:  MOVLW  3A
0CB0A:  BTFSS  F9E.4
0CB0C:  BRA    CB0A
0CB0E:  MOVWF  FAD
0CB10:  MOVFF  2A3,6BA
0CB14:  MOVLW  01
0CB16:  MOVLB  6
0CB18:  MOVWF  xBB
0CB1A:  MOVLB  0
0CB1C:  CALL   5C6E
0CB20:  MOVLW  22
0CB22:  BTFSS  F9E.4
0CB24:  BRA    CB22
0CB26:  MOVWF  FAD
....................       SendDataDisplay(); 
0CB28:  CALL   416A
....................        
....................       if(RX_Buffer[4]==0xaa){ 
0CB2C:  MOVF   34,W
0CB2E:  SUBLW  AA
0CB30:  BNZ   CBBA
....................          for(i=0;i<30;i++){ 
0CB32:  MOVLB  2
0CB34:  CLRF   x60
0CB36:  MOVF   x60,W
0CB38:  SUBLW  1D
0CB3A:  BNC   CBA0
....................             write_eeprom(50+i,estados[i]); 
0CB3C:  MOVLW  32
0CB3E:  ADDWF  x60,W
0CB40:  MOVLB  6
0CB42:  MOVWF  xB5
0CB44:  MOVFF  260,6B6
0CB48:  MOVLW  03
0CB4A:  MOVWF  xB8
0CB4C:  MOVLW  21
0CB4E:  MOVWF  xB7
0CB50:  MOVLB  0
0CB52:  CALL   24F8
0CB56:  MOVLW  00
0CB58:  BTFSC  01.0
0CB5A:  MOVLW  01
0CB5C:  MOVLB  6
0CB5E:  MOVWF  xB6
0CB60:  CLRF   FAA
0CB62:  MOVFF  6B5,FA9
0CB66:  MOVFF  6B6,FA8
0CB6A:  BCF    FA6.6
0CB6C:  BCF    FA6.7
0CB6E:  BSF    FA6.2
0CB70:  MOVF   FF2,W
0CB72:  MOVWF  00
0CB74:  BCF    FF2.6
0CB76:  BCF    FF2.7
0CB78:  MOVLB  F
0CB7A:  MOVLW  55
0CB7C:  MOVWF  FA7
0CB7E:  MOVLW  AA
0CB80:  MOVWF  FA7
0CB82:  BSF    FA6.1
0CB84:  BTFSC  FA6.1
0CB86:  BRA    CB84
0CB88:  BCF    FA6.2
0CB8A:  MOVF   00,W
0CB8C:  IORWF  FF2,F
....................             delay_ms(10); 
0CB8E:  MOVLW  0A
0CB90:  MOVLB  6
0CB92:  MOVWF  xC7
0CB94:  MOVLB  0
0CB96:  CALL   20B8
....................          } 
0CB9A:  MOVLB  2
0CB9C:  INCF   x60,F
0CB9E:  BRA    CB36
....................          printf("page Ajustes"); 
0CBA0:  MOVLW  52
0CBA2:  MOVWF  FF6
0CBA4:  MOVLW  15
0CBA6:  MOVWF  FF7
0CBA8:  MOVLW  00
0CBAA:  MOVWF  FF8
0CBAC:  MOVLB  0
0CBAE:  CALL   4138
....................          SendDataDisplay();  
0CBB2:  CALL   416A
....................          RX_Buffer[4]=0x00; 
0CBB6:  CLRF   34
....................          RX_Buffer2[4]=0x00; 
0CBB8:  CLRF   3F
....................       } 
....................        
....................       for(i=0;i<30;i++){ 
0CBBA:  MOVLB  2
0CBBC:  CLRF   x60
0CBBE:  MOVF   x60,W
0CBC0:  SUBLW  1D
0CBC2:  BNC   CC88
....................          if(RX_Buffer[4]==i+1){ 
0CBC4:  MOVLW  01
0CBC6:  ADDWF  x60,W
0CBC8:  SUBWF  34,W
0CBCA:  BNZ   CC00
....................             estados[i]=!estados[i]; 
0CBCC:  MOVFF  260,6B6
0CBD0:  MOVLW  03
0CBD2:  MOVLB  6
0CBD4:  MOVWF  xB8
0CBD6:  MOVLW  21
0CBD8:  MOVWF  xB7
0CBDA:  MOVLB  0
0CBDC:  CALL   24F8
0CBE0:  MOVLW  00
0CBE2:  BTFSS  01.0
0CBE4:  MOVLW  01
0CBE6:  MOVFF  260,6B7
0CBEA:  MOVLB  6
0CBEC:  MOVWF  xB8
0CBEE:  MOVLW  03
0CBF0:  MOVWF  xBA
0CBF2:  MOVLW  21
0CBF4:  MOVWF  xB9
0CBF6:  MOVLB  0
0CBF8:  CALL   24B6
....................             RX_Buffer[4]=0x00; 
0CBFC:  CLRF   34
....................             RX_Buffer2[4]=0x00; 
0CBFE:  CLRF   3F
....................          } 
....................           
....................          if(estados[i]){ 
0CC00:  MOVFF  260,6B6
0CC04:  MOVLW  03
0CC06:  MOVLB  6
0CC08:  MOVWF  xB8
0CC0A:  MOVLW  21
0CC0C:  MOVWF  xB7
0CC0E:  MOVLB  0
0CC10:  CALL   24F8
0CC14:  BTFSS  01.0
0CC16:  BRA    CC4E
....................             printf("b%u.bco=2016",i); 
0CC18:  MOVLW  62
0CC1A:  BTFSS  F9E.4
0CC1C:  BRA    CC1A
0CC1E:  MOVWF  FAD
0CC20:  MOVFF  260,6BA
0CC24:  MOVLW  1B
0CC26:  MOVLB  6
0CC28:  MOVWF  xBB
0CC2A:  MOVLB  0
0CC2C:  CALL   5C6E
0CC30:  MOVLW  63
0CC32:  MOVWF  FF6
0CC34:  MOVLW  15
0CC36:  MOVWF  FF7
0CC38:  MOVLW  00
0CC3A:  MOVWF  FF8
0CC3C:  MOVLW  09
0CC3E:  MOVLB  6
0CC40:  MOVWF  xBA
0CC42:  MOVLB  0
0CC44:  CALL   5BEA
....................             SendDataDisplay();              
0CC48:  CALL   416A
....................          }else{ 
0CC4C:  BRA    CC82
....................             printf("b%u.bco=63488",i); 
0CC4E:  MOVLW  62
0CC50:  BTFSS  F9E.4
0CC52:  BRA    CC50
0CC54:  MOVWF  FAD
0CC56:  MOVFF  260,6BA
0CC5A:  MOVLW  1B
0CC5C:  MOVLB  6
0CC5E:  MOVWF  xBB
0CC60:  MOVLB  0
0CC62:  CALL   5C6E
0CC66:  MOVLW  71
0CC68:  MOVWF  FF6
0CC6A:  MOVLW  15
0CC6C:  MOVWF  FF7
0CC6E:  MOVLW  00
0CC70:  MOVWF  FF8
0CC72:  MOVLW  0A
0CC74:  MOVLB  6
0CC76:  MOVWF  xBA
0CC78:  MOVLB  0
0CC7A:  CALL   5BEA
....................             SendDataDisplay();  
0CC7E:  CALL   416A
....................          } 
....................       } 
0CC82:  MOVLB  2
0CC84:  INCF   x60,F
0CC86:  BRA    CBBE
....................    }else if(Menu==15){//Menu de Clave Correcta 
0CC88:  GOTO   F7C2
0CC8C:  MOVF   x5D,W
0CC8E:  SUBLW  0F
0CC90:  BNZ   CCCE
....................       if(!entro){ 
0CC92:  MOVLB  1
0CC94:  BTFSC  x09.1
0CC96:  BRA    CCB2
....................          delay_ms(2000); 
0CC98:  MOVLW  08
0CC9A:  MOVLB  6
0CC9C:  MOVWF  xB5
0CC9E:  MOVLW  FA
0CCA0:  MOVWF  xC7
0CCA2:  MOVLB  0
0CCA4:  CALL   20B8
0CCA8:  MOVLB  6
0CCAA:  DECFSZ xB5,F
0CCAC:  BRA    CC9E
....................          entro=ON; 
0CCAE:  MOVLB  1
0CCB0:  BSF    x09.1
....................       } 
....................       printf("page Menu"); 
0CCB2:  MOVLW  7C
0CCB4:  MOVWF  FF6
0CCB6:  MOVLW  15
0CCB8:  MOVWF  FF7
0CCBA:  MOVLW  00
0CCBC:  MOVWF  FF8
0CCBE:  MOVLB  0
0CCC0:  CALL   4138
....................       //printf("page Funcionamiento"); 
....................       SendDataDisplay(); 
0CCC4:  CALL   416A
....................    }else if(Menu==16){//Menu de Clave InCorrecta 
0CCC8:  GOTO   F7C2
0CCCC:  MOVLB  2
0CCCE:  MOVF   x5D,W
0CCD0:  SUBLW  10
0CCD2:  BNZ   CD10
....................       if(!entro){ 
0CCD4:  MOVLB  1
0CCD6:  BTFSC  x09.1
0CCD8:  BRA    CCF4
....................          delay_ms(2000); 
0CCDA:  MOVLW  08
0CCDC:  MOVLB  6
0CCDE:  MOVWF  xB5
0CCE0:  MOVLW  FA
0CCE2:  MOVWF  xC7
0CCE4:  MOVLB  0
0CCE6:  CALL   20B8
0CCEA:  MOVLB  6
0CCEC:  DECFSZ xB5,F
0CCEE:  BRA    CCE0
....................          entro=ON; 
0CCF0:  MOVLB  1
0CCF2:  BSF    x09.1
....................       } 
....................       printf("page Clave"); 
0CCF4:  MOVLW  86
0CCF6:  MOVWF  FF6
0CCF8:  MOVLW  15
0CCFA:  MOVWF  FF7
0CCFC:  MOVLW  00
0CCFE:  MOVWF  FF8
0CD00:  MOVLB  0
0CD02:  CALL   4138
....................       SendDataDisplay(); 
0CD06:  CALL   416A
....................    }else if(Menu==20){ // Este es el menu de cuando el proceso se inicio.FUNCIONAMIENTO 
0CD0A:  GOTO   F7C2
0CD0E:  MOVLB  2
0CD10:  MOVF   x5D,W
0CD12:  SUBLW  14
0CD14:  BTFSS  FD8.2
0CD16:  GOTO   E940
....................     
....................    GuardaDatoEstatico(); 
0CD1A:  MOVLB  0
0CD1C:  GOTO   6C66
....................    guardaCiclo=ON; 
0CD20:  BSF    xFA.3
....................    if(!Libre){ 
0CD22:  MOVLB  1
0CD24:  BTFSC  x07.0
0CD26:  BRA    CDAE
....................       printf("t2f.txt=\"%u\"",CicloSeleccionado); 
0CD28:  MOVLW  92
0CD2A:  MOVWF  FF6
0CD2C:  MOVLW  15
0CD2E:  MOVWF  FF7
0CD30:  MOVLW  00
0CD32:  MOVWF  FF8
0CD34:  MOVLW  09
0CD36:  MOVLB  6
0CD38:  MOVWF  xBA
0CD3A:  MOVLB  0
0CD3C:  CALL   5BEA
0CD40:  MOVFF  263,6BA
0CD44:  MOVLW  1B
0CD46:  MOVLB  6
0CD48:  MOVWF  xBB
0CD4A:  MOVLB  0
0CD4C:  CALL   5C6E
0CD50:  MOVLW  22
0CD52:  BTFSS  F9E.4
0CD54:  BRA    CD52
0CD56:  MOVWF  FAD
....................       SendDataDisplay(); 
0CD58:  CALL   416A
....................       printf("t3f.txt=\"%s\"",Texto[CicloSeleccionado-1]); 
0CD5C:  MOVLW  01
0CD5E:  MOVLB  2
0CD60:  SUBWF  x63,W
0CD62:  MULLW  14
0CD64:  MOVF   FF3,W
0CD66:  CLRF   03
0CD68:  MOVLB  6
0CD6A:  MOVWF  xB5
0CD6C:  MOVLW  A0
0CD6E:  MOVWF  FF6
0CD70:  MOVLW  15
0CD72:  MOVWF  FF7
0CD74:  MOVLW  00
0CD76:  MOVWF  FF8
0CD78:  MOVLW  09
0CD7A:  MOVWF  xBA
0CD7C:  MOVLB  0
0CD7E:  CALL   5BEA
0CD82:  MOVLW  1A
0CD84:  MOVWF  FF6
0CD86:  MOVLW  03
0CD88:  MOVWF  FF7
0CD8A:  MOVLW  00
0CD8C:  MOVWF  FF8
0CD8E:  MOVLB  6
0CD90:  MOVF   xB5,W
0CD92:  ADDWF  FF6,F
0CD94:  MOVLW  00
0CD96:  ADDWFC FF7,F
0CD98:  MOVLB  0
0CD9A:  CALL   4138
0CD9E:  MOVLW  22
0CDA0:  BTFSS  F9E.4
0CDA2:  BRA    CDA0
0CDA4:  MOVWF  FAD
....................       SendDataDisplay(); 
0CDA6:  CALL   416A
....................    }else{ 
0CDAA:  BRA    CDFE
0CDAC:  MOVLB  1
....................       printf("t2f.txt=\"%u\"",CicloLibre+10); 
0CDAE:  MOVLW  0A
0CDB0:  MOVLB  2
0CDB2:  ADDWF  x52,W
0CDB4:  MOVLB  6
0CDB6:  MOVWF  xB5
0CDB8:  MOVLW  AE
0CDBA:  MOVWF  FF6
0CDBC:  MOVLW  15
0CDBE:  MOVWF  FF7
0CDC0:  MOVLW  00
0CDC2:  MOVWF  FF8
0CDC4:  MOVLW  09
0CDC6:  MOVWF  xBA
0CDC8:  MOVLB  0
0CDCA:  CALL   5BEA
0CDCE:  MOVFF  6B5,6BA
0CDD2:  MOVLW  1B
0CDD4:  MOVLB  6
0CDD6:  MOVWF  xBB
0CDD8:  MOVLB  0
0CDDA:  CALL   5C6E
0CDDE:  MOVLW  22
0CDE0:  BTFSS  F9E.4
0CDE2:  BRA    CDE0
0CDE4:  MOVWF  FAD
....................       SendDataDisplay(); 
0CDE6:  CALL   416A
....................       printf("t3f.txt=\"Personalizado\""); 
0CDEA:  MOVLW  BC
0CDEC:  MOVWF  FF6
0CDEE:  MOVLW  15
0CDF0:  MOVWF  FF7
0CDF2:  MOVLW  00
0CDF4:  MOVWF  FF8
0CDF6:  CALL   4138
....................       SendDataDisplay(); 
0CDFA:  CALL   416A
....................    } 
....................     
....................    leePulsadores(); 
0CDFE:  GOTO   6F00
....................     
....................    if(PresionCamara>Atmosferica+15){ 
0CE02:  MOVLW  0F
0CE04:  MOVLB  2
0CE06:  ADDWF  xA8,W
0CE08:  MOVF   x7D,F
0CE0A:  BNZ   CE12
0CE0C:  SUBWF  x7C,W
0CE0E:  BZ    CE1C
0CE10:  BNC   CE1C
....................       cierraPuertaS(); 
0CE12:  MOVLB  0
0CE14:  CALL   5072
....................       cierraPuertaL(); 
0CE18:  CALL   50B6
....................    } 
....................     
....................    if(!Start){ 
0CE1C:  MOVLB  1
0CE1E:  BTFSC  x04.1
0CE20:  BRA    CEAE
....................       if(pulsoSubirS) 
0CE22:  MOVLB  0
0CE24:  BTFSS  xFB.0
0CE26:  BRA    CE2C
....................          cierraPuertaS(); 
0CE28:  CALL   5072
....................        
....................       if(pulsoBajarS) 
0CE2C:  BTFSS  xFB.6
0CE2E:  BRA    CE34
....................          abrePuertaS(); 
0CE30:  CALL   500E
....................           
....................       if(RX_Buffer[4]==0x0a){//Oprimio Subir Puerta 
0CE34:  MOVF   34,W
0CE36:  SUBLW  0A
0CE38:  BNZ   CE40
....................          //cierraPuertaS(); 
....................          pulsoSubirS=ON; 
0CE3A:  BSF    xFB.0
....................          pulsoBajarS=OFF; 
0CE3C:  BCF    xFB.6
....................          RX_Buffer[4]=0x00; 
0CE3E:  CLRF   34
....................          //RX_Buffer2[4]=0x00;                        
....................       } 
....................        
....................       if(RX_Buffer[4]==0x0b){//Solto Subir Puerta 
0CE40:  MOVF   34,W
0CE42:  SUBLW  0B
0CE44:  BNZ   CE62
....................          RX_Buffer[4]=0x00;             
0CE46:  CLRF   34
....................          //RX_Buffer2[4]=0x00;            
....................          pulsoSubirS=OFF; 
0CE48:  BCF    xFB.0
....................          pulsoBajarS=OFF; 
0CE4A:  BCF    xFB.6
....................          if(!DOORS && !EMPAQUES) 
0CE4C:  BSF    F93.3
0CE4E:  BTFSS  F81.3
0CE50:  BRA    CE5E
0CE52:  BSF    F93.1
0CE54:  BTFSS  F81.1
0CE56:  BRA    CE5E
....................             abrePuertaS(); 
0CE58:  CALL   500E
....................          else 
0CE5C:  BRA    CE62
....................             cierraPuertaS(); 
0CE5E:  CALL   5072
....................       } 
....................        
....................       if(RX_Buffer[4]==0x0c){//Oprimio Bajar Puerta 
0CE62:  MOVF   34,W
0CE64:  SUBLW  0C
0CE66:  BNZ   CEA6
....................          pulsoSubirS=OFF; 
0CE68:  BCF    xFB.0
....................          RX_Buffer[4]=0x00; 
0CE6A:  CLRF   34
....................          //RX_Buffer2[4]=0x00;  
....................          if(Temperatura<Tapertura && cerroLimpio) 
0CE6C:  MOVLB  6
0CE6E:  CLRF   xC8
0CE70:  MOVFF  264,6C7
0CE74:  MOVLB  0
0CE76:  CALL   2082
0CE7A:  MOVFF  23F,6BC
0CE7E:  MOVFF  23E,6BB
0CE82:  MOVFF  23D,6BA
0CE86:  MOVFF  23C,6B9
0CE8A:  MOVFF  03,6C0
0CE8E:  MOVFF  02,6BF
0CE92:  MOVFF  01,6BE
0CE96:  MOVFF  00,6BD
0CE9A:  CALL   2714
0CE9E:  BNC   CEA6
0CEA0:  BTFSS  xFA.7
0CEA2:  BRA    CEA6
....................             pulsoBajarS=ON; 
0CEA4:  BSF    xFB.6
....................       }    
....................        
....................       if(RX_Buffer[4]==0x0d){//Solto Bajar Puerta 
0CEA6:  MOVF   34,W
0CEA8:  SUBLW  0D
0CEAA:  BNZ   CEAE
....................          RX_Buffer[4]=0x00;             
0CEAC:  CLRF   34
....................          //RX_Buffer2[4]=0x00;                        
....................       } 
....................    } 
....................           
....................    if(PresionPreCamara>350 || PresionCamara>350){ 
0CEAE:  MOVLB  2
0CEB0:  MOVF   x7F,W
0CEB2:  SUBLW  00
0CEB4:  BC    CEC0
0CEB6:  XORLW  FF
0CEB8:  BNZ   CED0
0CEBA:  MOVF   x7E,W
0CEBC:  SUBLW  5E
0CEBE:  BNC   CED0
0CEC0:  MOVF   x7D,W
0CEC2:  SUBLW  00
0CEC4:  BC    CED4
0CEC6:  XORLW  FF
0CEC8:  BNZ   CED0
0CECA:  MOVF   x7C,W
0CECC:  SUBLW  5E
0CECE:  BC    CED4
....................       AlarmaPresion=ON; 
0CED0:  MOVLB  1
0CED2:  BSF    x06.5
....................    } 
....................     
....................    if(TiempoCiclo>1800 && !Fugas){//ANALIZAR BIEN ESTA ALARMA 
0CED4:  MOVLB  1
0CED6:  MOVF   x0B,W
0CED8:  SUBLW  06
0CEDA:  BC    CF14
0CEDC:  XORLW  FF
0CEDE:  BNZ   CEE6
0CEE0:  MOVF   x0A,W
0CEE2:  SUBLW  08
0CEE4:  BC    CF14
0CEE6:  BTFSC  x07.2
0CEE8:  BRA    CF14
....................       if(TiempoCiclo>5400){ 
0CEEA:  MOVF   x0B,W
0CEEC:  SUBLW  14
0CEEE:  BC    CEFE
0CEF0:  XORLW  FF
0CEF2:  BNZ   CEFA
0CEF4:  MOVF   x0A,W
0CEF6:  SUBLW  18
0CEF8:  BC    CEFE
....................          AlarmaTiempoProlongado=ON; 
0CEFA:  MOVLB  0
0CEFC:  BSF    xF9.1
....................       } 
....................       if(PresionPrecamara<10){ 
0CEFE:  MOVLB  2
0CF00:  MOVF   x7F,F
0CF02:  BNZ   CF10
0CF04:  MOVF   x7E,W
0CF06:  SUBLW  09
0CF08:  BNC   CF10
....................          AlarmaTiempoProlongado=ON; 
0CF0A:  MOVLB  0
0CF0C:  BSF    xF9.1
0CF0E:  MOVLB  2
....................       } 
....................    }else{ 
0CF10:  BRA    CF18
0CF12:  MOVLB  1
....................       AlarmaTiempoProlongado=OFF; 
0CF14:  MOVLB  0
0CF16:  BCF    xF9.1
....................    } 
....................     
....................    if(Temperatura>Setpoint+4.0 && !Fugas){ 
0CF18:  MOVLB  6
0CF1A:  CLRF   xC8
0CF1C:  MOVFF  26B,6C7
0CF20:  MOVLB  0
0CF22:  CALL   2082
0CF26:  BCF    FD8.1
0CF28:  MOVFF  03,6CA
0CF2C:  MOVFF  02,6C9
0CF30:  MOVFF  01,6C8
0CF34:  MOVFF  00,6C7
0CF38:  MOVLB  6
0CF3A:  CLRF   xCE
0CF3C:  CLRF   xCD
0CF3E:  CLRF   xCC
0CF40:  MOVLW  81
0CF42:  MOVWF  xCB
0CF44:  MOVLB  0
0CF46:  CALL   223E
0CF4A:  MOVFF  03,6BC
0CF4E:  MOVFF  02,6BB
0CF52:  MOVFF  01,6BA
0CF56:  MOVFF  00,6B9
0CF5A:  MOVFF  23F,6C0
0CF5E:  MOVFF  23E,6BF
0CF62:  MOVFF  23D,6BE
0CF66:  MOVFF  23C,6BD
0CF6A:  CALL   2714
0CF6E:  BNC   CF7E
0CF70:  MOVLB  1
0CF72:  BTFSS  x07.2
0CF74:  BRA    CF7A
0CF76:  MOVLB  0
0CF78:  BRA    CF7E
....................       AlarmaSobreTemperatura=ON; 
0CF7A:  MOVLB  0
0CF7C:  BSF    xF9.2
....................    } 
....................     
....................    if(TiempoLlenado>600){ 
0CF7E:  MOVLB  1
0CF80:  MOVF   x1F,W
0CF82:  SUBLW  01
0CF84:  BC    CF98
0CF86:  XORLW  FF
0CF88:  BNZ   CF90
0CF8A:  MOVF   x1E,W
0CF8C:  SUBLW  58
0CF8E:  BC    CF98
....................       AlarmaLlenado=ON; 
0CF90:  MOVLB  0
0CF92:  BSF    xFA.5
....................    }else{ 
0CF94:  BRA    CF9C
0CF96:  MOVLB  1
....................       AlarmaLlenado=OFF; 
0CF98:  MOVLB  0
0CF9A:  BCF    xFA.5
....................    } 
....................     
....................    if(!DOORS && !EMPAQUES){       
0CF9C:  BSF    F93.3
0CF9E:  BTFSS  F81.3
0CFA0:  BRA    CFBA
0CFA2:  BSF    F93.1
0CFA4:  BTFSS  F81.1
0CFA6:  BRA    CFBA
....................       Paso=OFF; 
0CFA8:  BCF    xF7.6
....................       //if(!Secando && !Finalizo && !Desfogando){ 
....................       if(!Finalizo){ 
0CFAA:  MOVLB  1
0CFAC:  BTFSC  x06.4
0CFAE:  BRA    CFB4
....................          AlarmaPuertaS=ON; 
0CFB0:  MOVLB  0
0CFB2:  BSF    xF9.4
....................       } 
....................       cerroSucio=OFF; 
0CFB4:  MOVLB  0
0CFB6:  BCF    xFA.6
....................    }else{ 
0CFB8:  BRA    CFBE
....................       AlarmaPuertaS=OFF; 
0CFBA:  BCF    xF9.4
....................       cerroSucio=ON; 
0CFBC:  BSF    xFA.6
....................    } 
....................     
....................    if(!DOORL && !EMPAQUEL){       
0CFBE:  BSF    F93.4
0CFC0:  BTFSS  F81.4
0CFC2:  BRA    CFDC
0CFC4:  BSF    F93.2
0CFC6:  BTFSS  F81.2
0CFC8:  BRA    CFDC
....................       Paso=OFF; 
0CFCA:  BCF    xF7.6
....................       //if(!Secando && !Finalizo && !Desfogando){ 
....................       if(!Finalizo){ 
0CFCC:  MOVLB  1
0CFCE:  BTFSC  x06.4
0CFD0:  BRA    CFD6
....................          AlarmaPuertaL=ON; 
0CFD2:  MOVLB  0
0CFD4:  BSF    xF9.5
....................       } 
....................       cerroLimpio=OFF; 
0CFD6:  MOVLB  0
0CFD8:  BCF    xFA.7
....................    }else{ 
0CFDA:  BRA    CFE0
....................       AlarmaPuertaL=OFF; 
0CFDC:  BCF    xF9.5
....................       cerroLimpio=ON; 
0CFDE:  BSF    xFA.7
....................    } 
....................  
....................    if(tStop>=300){ 
0CFE0:  MOVLB  1
0CFE2:  MOVF   x21,W
0CFE4:  SUBLW  00
0CFE6:  BC    CFF6
0CFE8:  XORLW  FF
0CFEA:  BNZ   CFF2
0CFEC:  MOVF   x20,W
0CFEE:  SUBLW  2B
0CFF0:  BC    CFF6
....................       AlarmaEmergencia=ON; 
0CFF2:  MOVLB  0
0CFF4:  BSF    xF9.6
....................    } 
....................     
....................    if(tEmpaqueS>10) 
0CFF6:  MOVLB  2
0CFF8:  MOVF   x68,F
0CFFA:  BNZ   D002
0CFFC:  MOVF   x67,W
0CFFE:  SUBLW  0A
0D000:  BC    D008
....................       AlarmaEmpaqueS=ON; 
0D002:  MOVLB  0
0D004:  BSF    xFA.1
0D006:  MOVLB  2
....................        
....................    if(tEmpaqueL>10) 
0D008:  MOVF   x6A,F
0D00A:  BNZ   D012
0D00C:  MOVF   x69,W
0D00E:  SUBLW  0A
0D010:  BC    D018
....................       AlarmaEmpaqueL=ON;    
0D012:  MOVLB  0
0D014:  BSF    xFA.0
0D016:  MOVLB  2
....................     
....................    if(AlarmaPuertaS || AlarmaPuertaL || AlarmaTermostato || AlarmaSobreTemperatura || AlarmaTiempoProlongado || AlarmaEmergencia || AlarmaPresion || AlarmaBomba || AlarmaEmpaqueL || AlarmaEmpaqueS 
....................          || AlarmaVacio || AlarmaLlenado || !Start){ 
0D018:  MOVLB  0
0D01A:  BTFSC  xF9.4
0D01C:  BRA    D05C
0D01E:  BTFSC  xF9.5
0D020:  BRA    D05C
0D022:  BTFSC  xF9.3
0D024:  BRA    D05C
0D026:  BTFSC  xF9.2
0D028:  BRA    D05C
0D02A:  BTFSC  xF9.1
0D02C:  BRA    D05C
0D02E:  BTFSC  xF9.6
0D030:  BRA    D05C
0D032:  MOVLB  1
0D034:  BTFSS  x06.5
0D036:  BRA    D03C
0D038:  MOVLB  0
0D03A:  BRA    D05C
0D03C:  MOVLB  0
0D03E:  BTFSC  xFA.2
0D040:  BRA    D05C
0D042:  BTFSC  xFA.0
0D044:  BRA    D05C
0D046:  BTFSC  xFA.1
0D048:  BRA    D05C
0D04A:  BTFSC  xF9.7
0D04C:  BRA    D05C
0D04E:  BTFSC  xFA.5
0D050:  BRA    D05C
0D052:  MOVLB  1
0D054:  BTFSC  x04.1
0D056:  GOTO   DADC
0D05A:  MOVLB  0
....................       ActivaAlarma(1); 
0D05C:  MOVLW  01
0D05E:  MOVLB  6
0D060:  MOVWF  xB5
0D062:  MOVLB  0
0D064:  CALL   5AA8
....................       printf("b2.pic=86"); 
0D068:  MOVLW  D4
0D06A:  MOVWF  FF6
0D06C:  MOVLW  15
0D06E:  MOVWF  FF7
0D070:  MOVLW  00
0D072:  MOVWF  FF8
0D074:  CALL   4138
....................       SendDataDisplay(); 
0D078:  CALL   416A
....................       if(AlarmaEmergencia){ 
0D07C:  BTFSS  xF9.6
0D07E:  BRA    D1D0
....................          codigoAlarma=1; 
0D080:  MOVLW  01
0D082:  MOVLB  2
0D084:  MOVWF  x97
....................          printf("Funcionamiento.t4f.txt=\" Parada de Emergencia\""); 
0D086:  MOVLW  DE
0D088:  MOVWF  FF6
0D08A:  MOVLW  15
0D08C:  MOVWF  FF7
0D08E:  MOVLW  00
0D090:  MOVWF  FF8
0D092:  MOVLB  0
0D094:  CALL   4138
....................          SendDataDisplay(); 
0D098:  CALL   416A
....................          printf("Funcionamiento.t5f.txt=\" Cancelado\""); 
0D09C:  MOVLW  0E
0D09E:  MOVWF  FF6
0D0A0:  MOVLW  16
0D0A2:  MOVWF  FF7
0D0A4:  MOVLW  00
0D0A6:  MOVWF  FF8
0D0A8:  CALL   4138
....................          SendDataDisplay(); 
0D0AC:  CALL   416A
....................          Desfogue=ON; 
0D0B0:  BSF    xF8.0
....................          Paso=OFF; 
0D0B2:  BCF    xF7.6
....................          suministroVapor=OFF; 
0D0B4:  BCF    xF7.5
....................          if(!abrirPuertaL && !abrirPuertaS) 
0D0B6:  BTFSC  xFB.4
0D0B8:  BRA    D0C0
0D0BA:  BTFSC  xFB.5
0D0BC:  BRA    D0C0
....................             BombaVacio=OFF; 
0D0BE:  BCF    xF7.2
....................          aguaEnfriador=OFF; 
0D0C0:  BCF    xF7.1
....................          outVacio=OFF; 
0D0C2:  BCF    xF7.7
....................          if(!EMPAQUES && PresionCamara<Atmosferica+4) 
0D0C4:  BSF    F93.1
0D0C6:  BTFSS  F81.1
0D0C8:  BRA    D0E8
0D0CA:  MOVLW  04
0D0CC:  MOVLB  2
0D0CE:  ADDWF  xA8,W
0D0D0:  MOVF   x7D,F
0D0D2:  BTFSC  FD8.2
0D0D4:  BRA    D0DA
0D0D6:  MOVLB  0
0D0D8:  BRA    D0E8
0D0DA:  SUBWF  x7C,W
0D0DC:  BTFSS  FD8.0
0D0DE:  BRA    D0E4
0D0E0:  MOVLB  0
0D0E2:  BRA    D0E8
....................             empaqueSucio=OFF; 
0D0E4:  MOVLB  0
0D0E6:  BCF    xF7.4
....................           
....................          if(!EMPAQUEL && PresionCamara<Atmosferica+4) 
0D0E8:  BSF    F93.2
0D0EA:  BTFSS  F81.2
0D0EC:  BRA    D10C
0D0EE:  MOVLW  04
0D0F0:  MOVLB  2
0D0F2:  ADDWF  xA8,W
0D0F4:  MOVF   x7D,F
0D0F6:  BTFSC  FD8.2
0D0F8:  BRA    D0FE
0D0FA:  MOVLB  0
0D0FC:  BRA    D10C
0D0FE:  SUBWF  x7C,W
0D100:  BTFSS  FD8.0
0D102:  BRA    D108
0D104:  MOVLB  0
0D106:  BRA    D10C
....................             empaqueLimpio=OFF; 
0D108:  MOVLB  0
0D10A:  BCF    xF7.3
....................              
....................          if(PresionCamara<Atmosferica) 
0D10C:  MOVLB  2
0D10E:  MOVF   x7D,F
0D110:  BNZ   D11E
0D112:  MOVF   xA8,W
0D114:  SUBWF  x7C,W
0D116:  BC    D11E
....................             Aire=ON; 
0D118:  MOVLB  0
0D11A:  BSF    xF8.1
....................          else 
0D11C:  BRA    D122
....................             Aire=OFF; 
0D11E:  MOVLB  0
0D120:  BCF    xF8.1
....................          Esterilizando=OFF; 
0D122:  MOVLB  1
0D124:  BCF    x03.3
....................          Desfogando=OFF; 
0D126:  BCF    x03.6
....................          DesfogueSuave=OFF; 
0D128:  BCF    x03.7
....................          //IniciaCiclo=OFF; 
....................          Controlando=0; 
0D12A:  MOVLB  2
0D12C:  CLRF   x56
....................          if(codigoAnt!=codigoAlarma){ 
0D12E:  MOVF   x97,W
0D130:  SUBWF  x98,W
0D132:  BZ    D142
....................             codigoAnt=codigoAlarma; 
0D134:  MOVFF  297,298
....................             GuardaDatoCiclo(); 
0D138:  MOVLB  0
0D13A:  CALL   7096
....................             incrementaCiclos(); 
0D13E:  CALL   7444
....................          } 
....................          if(!flagImprimir){ 
0D142:  MOVLB  1
0D144:  BTFSC  x09.0
0D146:  BRA    D16A
....................             Imprime=20; 
0D148:  MOVLW  14
0D14A:  MOVLB  2
0D14C:  MOVWF  xB2
....................             Envio_Esclavos(); 
0D14E:  MOVLB  0
0D150:  CALL   5734
....................             delay_ms(100); 
0D154:  MOVLW  64
0D156:  MOVLB  6
0D158:  MOVWF  xC7
0D15A:  MOVLB  0
0D15C:  CALL   20B8
....................             Imprime=10; 
0D160:  MOVLW  0A
0D162:  MOVLB  2
0D164:  MOVWF  xB2
....................             flagImprimir=1; 
0D166:  MOVLB  1
0D168:  BSF    x09.0
....................          } 
....................          if(PresionCamara<=Atmosferica+15 && PresionCamara>Atmosferica-10 && Temperatura<=Tapertura) 
0D16A:  MOVLW  0F
0D16C:  MOVLB  2
0D16E:  ADDWF  xA8,W
0D170:  MOVF   x7D,F
0D172:  BNZ   D1CA
0D174:  SUBWF  x7C,W
0D176:  BZ    D17A
0D178:  BC    D1CA
0D17A:  MOVLW  0A
0D17C:  SUBWF  xA8,W
0D17E:  MOVF   x7D,F
0D180:  BNZ   D188
0D182:  SUBWF  x7C,W
0D184:  BZ    D1CA
0D186:  BNC   D1CA
0D188:  MOVLB  6
0D18A:  CLRF   xC8
0D18C:  MOVFF  264,6C7
0D190:  MOVLB  0
0D192:  CALL   2082
0D196:  MOVFF  23F,6BC
0D19A:  MOVFF  23E,6BB
0D19E:  MOVFF  23D,6BA
0D1A2:  MOVFF  23C,6B9
0D1A6:  MOVFF  03,6C0
0D1AA:  MOVFF  02,6BF
0D1AE:  MOVFF  01,6BE
0D1B2:  MOVFF  00,6BD
0D1B6:  CALL   2714
0D1BA:  BC    D1C4
0D1BC:  BTFSC  FD8.2
0D1BE:  BRA    D1C4
0D1C0:  MOVLB  2
0D1C2:  BRA    D1CA
....................             Start=OFF; 
0D1C4:  MOVLB  1
0D1C6:  BCF    x04.1
0D1C8:  MOVLB  2
....................       }else if(AlarmaPuertaS || AlarmaPuertaL){ 
0D1CA:  GOTO   DAD6
0D1CE:  MOVLB  0
0D1D0:  BTFSC  xF9.4
0D1D2:  BRA    D1D8
0D1D4:  BTFSS  xF9.5
0D1D6:  BRA    D29E
....................          codigoAlarma=2; 
0D1D8:  MOVLW  02
0D1DA:  MOVLB  2
0D1DC:  MOVWF  x97
....................          printf("Funcionamiento.t4f.txt=\" Puerta Abierta\""); 
0D1DE:  MOVLW  32
0D1E0:  MOVWF  FF6
0D1E2:  MOVLW  16
0D1E4:  MOVWF  FF7
0D1E6:  MOVLW  00
0D1E8:  MOVWF  FF8
0D1EA:  MOVLB  0
0D1EC:  CALL   4138
....................          SendDataDisplay(); 
0D1F0:  CALL   416A
....................          printf("Funcionamiento.t5f.txt=\" Pausado\""); 
0D1F4:  MOVLW  5C
0D1F6:  MOVWF  FF6
0D1F8:  MOVLW  16
0D1FA:  MOVWF  FF7
0D1FC:  MOVLW  00
0D1FE:  MOVWF  FF8
0D200:  CALL   4138
....................          SendDataDisplay(); 
0D204:  CALL   416A
....................          Paso=OFF; 
0D208:  BCF    xF7.6
....................          suministroVapor=OFF; 
0D20A:  BCF    xF7.5
....................          if(AlarmaEmpaqueL) 
0D20C:  BTFSS  xFA.0
0D20E:  BRA    D212
....................             empaqueLimpio=OFF; 
0D210:  BCF    xF7.3
....................          if(AlarmaEmpaqueS) 
0D212:  BTFSS  xFA.1
0D214:  BRA    D218
....................             empaqueSucio=OFF; 
0D216:  BCF    xF7.4
....................          //Suministro_off; 
....................          BombaVacio=OFF; 
0D218:  BCF    xF7.2
....................          Aire=OFF; 
0D21A:  BCF    xF8.1
....................          aguaEnfriador=OFF; 
0D21C:  BCF    xF7.1
....................          outVacio=OFF; 
0D21E:  BCF    xF7.7
....................          IniciaLlenado=OFF; 
0D220:  MOVLB  1
0D222:  BCF    x03.1
....................          Controlando=0; 
0D224:  MOVLB  2
0D226:  CLRF   x56
....................          if(codigoAnt!=codigoAlarma){ 
0D228:  MOVF   x97,W
0D22A:  SUBWF  x98,W
0D22C:  BZ    D23A
....................             codigoAnt=codigoAlarma; 
0D22E:  MOVFF  297,298
....................             GuardaDatoCiclo(); 
0D232:  MOVLB  0
0D234:  CALL   7096
0D238:  MOVLB  2
....................          } 
....................          if(PresionCamara<=Atmosferica+15 && PresionCamara>Atmosferica-10 && Temperatura<=Tapertura) 
0D23A:  MOVLW  0F
0D23C:  ADDWF  xA8,W
0D23E:  MOVF   x7D,F
0D240:  BNZ   D298
0D242:  SUBWF  x7C,W
0D244:  BZ    D248
0D246:  BC    D298
0D248:  MOVLW  0A
0D24A:  SUBWF  xA8,W
0D24C:  MOVF   x7D,F
0D24E:  BNZ   D256
0D250:  SUBWF  x7C,W
0D252:  BZ    D298
0D254:  BNC   D298
0D256:  MOVLB  6
0D258:  CLRF   xC8
0D25A:  MOVFF  264,6C7
0D25E:  MOVLB  0
0D260:  CALL   2082
0D264:  MOVFF  23F,6BC
0D268:  MOVFF  23E,6BB
0D26C:  MOVFF  23D,6BA
0D270:  MOVFF  23C,6B9
0D274:  MOVFF  03,6C0
0D278:  MOVFF  02,6BF
0D27C:  MOVFF  01,6BE
0D280:  MOVFF  00,6BD
0D284:  CALL   2714
0D288:  BC    D292
0D28A:  BTFSC  FD8.2
0D28C:  BRA    D292
0D28E:  MOVLB  2
0D290:  BRA    D298
....................             Start=OFF; 
0D292:  MOVLB  1
0D294:  BCF    x04.1
0D296:  MOVLB  2
....................       }else if(AlarmaLlenado){ 
0D298:  GOTO   DAD6
0D29C:  MOVLB  0
0D29E:  BTFSS  xFA.5
0D2A0:  BRA    D396
....................          codigoAlarma=9; 
0D2A2:  MOVLW  09
0D2A4:  MOVLB  2
0D2A6:  MOVWF  x97
....................          printf("Funcionamiento.t4f.txt=\" Tiempo Llenado\""); 
0D2A8:  MOVLW  7E
0D2AA:  MOVWF  FF6
0D2AC:  MOVLW  16
0D2AE:  MOVWF  FF7
0D2B0:  MOVLW  00
0D2B2:  MOVWF  FF8
0D2B4:  MOVLB  0
0D2B6:  CALL   4138
....................          SendDataDisplay(); 
0D2BA:  CALL   416A
....................          printf("Funcionamiento.t5f.txt=\" Cancelado\""); 
0D2BE:  MOVLW  A8
0D2C0:  MOVWF  FF6
0D2C2:  MOVLW  16
0D2C4:  MOVWF  FF7
0D2C6:  MOVLW  00
0D2C8:  MOVWF  FF8
0D2CA:  CALL   4138
....................          SendDataDisplay(); 
0D2CE:  CALL   416A
....................          suministroVapor=OFF; 
0D2D2:  BCF    xF7.5
....................          Aire=OFF; 
0D2D4:  BCF    xF8.1
....................          Desfogue=OFF; 
0D2D6:  BCF    xF8.0
....................          Paso=OFF; 
0D2D8:  BCF    xF7.6
....................          if(!abrirPuertaL && !abrirPuertaS) 
0D2DA:  BTFSC  xFB.4
0D2DC:  BRA    D2E4
0D2DE:  BTFSC  xFB.5
0D2E0:  BRA    D2E4
....................             BombaVacio=OFF; 
0D2E2:  BCF    xF7.2
....................          aguaEnfriador=OFF; 
0D2E4:  BCF    xF7.1
....................          outVacio=OFF; 
0D2E6:  BCF    xF7.7
....................          IniciaLlenado=OFF; 
0D2E8:  MOVLB  1
0D2EA:  BCF    x03.1
....................          IniciaCiclo=OFF; 
0D2EC:  BCF    x03.2
....................          Esterilizando=OFF; 
0D2EE:  BCF    x03.3
....................          Controlando=0; 
0D2F0:  MOVLB  2
0D2F2:  CLRF   x56
....................          if(codigoAnt!=codigoAlarma){ 
0D2F4:  MOVF   x97,W
0D2F6:  SUBWF  x98,W
0D2F8:  BZ    D308
....................             codigoAnt=codigoAlarma; 
0D2FA:  MOVFF  297,298
....................             GuardaDatoCiclo(); 
0D2FE:  MOVLB  0
0D300:  CALL   7096
....................             incrementaCiclos(); 
0D304:  CALL   7444
....................          } 
....................          if(!flagImprimir){ 
0D308:  MOVLB  1
0D30A:  BTFSC  x09.0
0D30C:  BRA    D330
....................             Imprime=21; 
0D30E:  MOVLW  15
0D310:  MOVLB  2
0D312:  MOVWF  xB2
....................             Envio_Esclavos(); 
0D314:  MOVLB  0
0D316:  CALL   5734
....................             delay_ms(100); 
0D31A:  MOVLW  64
0D31C:  MOVLB  6
0D31E:  MOVWF  xC7
0D320:  MOVLB  0
0D322:  CALL   20B8
....................             Imprime=10; 
0D326:  MOVLW  0A
0D328:  MOVLB  2
0D32A:  MOVWF  xB2
....................             flagImprimir=1; 
0D32C:  MOVLB  1
0D32E:  BSF    x09.0
....................          } 
....................          if(PresionCamara<=Atmosferica+15 && PresionCamara>Atmosferica-10 && Temperatura<=Tapertura) 
0D330:  MOVLW  0F
0D332:  MOVLB  2
0D334:  ADDWF  xA8,W
0D336:  MOVF   x7D,F
0D338:  BNZ   D390
0D33A:  SUBWF  x7C,W
0D33C:  BZ    D340
0D33E:  BC    D390
0D340:  MOVLW  0A
0D342:  SUBWF  xA8,W
0D344:  MOVF   x7D,F
0D346:  BNZ   D34E
0D348:  SUBWF  x7C,W
0D34A:  BZ    D390
0D34C:  BNC   D390
0D34E:  MOVLB  6
0D350:  CLRF   xC8
0D352:  MOVFF  264,6C7
0D356:  MOVLB  0
0D358:  CALL   2082
0D35C:  MOVFF  23F,6BC
0D360:  MOVFF  23E,6BB
0D364:  MOVFF  23D,6BA
0D368:  MOVFF  23C,6B9
0D36C:  MOVFF  03,6C0
0D370:  MOVFF  02,6BF
0D374:  MOVFF  01,6BE
0D378:  MOVFF  00,6BD
0D37C:  CALL   2714
0D380:  BC    D38A
0D382:  BTFSC  FD8.2
0D384:  BRA    D38A
0D386:  MOVLB  2
0D388:  BRA    D390
....................             Start=OFF; 
0D38A:  MOVLB  1
0D38C:  BCF    x04.1
0D38E:  MOVLB  2
....................       }else if(AlarmaTermostato){ 
0D390:  GOTO   DAD6
0D394:  MOVLB  0
0D396:  BTFSS  xF9.3
0D398:  BRA    D490
....................          codigoAlarma=3; 
0D39A:  MOVLW  03
0D39C:  MOVLB  2
0D39E:  MOVWF  x97
....................          tiempo_esterilizacion=0;tiempo_secado=0;          
0D3A0:  CLRF   x6E
0D3A2:  CLRF   x6F
....................          printf("Funcionamiento.t4f.txt=\" Termostato\""); 
0D3A4:  MOVLW  CC
0D3A6:  MOVWF  FF6
0D3A8:  MOVLW  16
0D3AA:  MOVWF  FF7
0D3AC:  MOVLW  00
0D3AE:  MOVWF  FF8
0D3B0:  MOVLB  0
0D3B2:  CALL   4138
....................          SendDataDisplay(); 
0D3B6:  CALL   416A
....................          printf("Funcionamiento.t5f.txt=\" Cancelado\""); 
0D3BA:  MOVLW  F2
0D3BC:  MOVWF  FF6
0D3BE:  MOVLW  16
0D3C0:  MOVWF  FF7
0D3C2:  MOVLW  00
0D3C4:  MOVWF  FF8
0D3C6:  CALL   4138
....................          SendDataDisplay(); 
0D3CA:  CALL   416A
....................          suministroVapor=OFF; 
0D3CE:  BCF    xF7.5
....................          Desfogue=ON;                   
0D3D0:  BSF    xF8.0
....................          Paso=OFF; 
0D3D2:  BCF    xF7.6
....................          if(!abrirPuertaL && !abrirPuertaS) 
0D3D4:  BTFSC  xFB.4
0D3D6:  BRA    D3DE
0D3D8:  BTFSC  xFB.5
0D3DA:  BRA    D3DE
....................             BombaVacio=OFF; 
0D3DC:  BCF    xF7.2
....................          Aire=OFF; 
0D3DE:  BCF    xF8.1
....................          aguaEnfriador=OFF; 
0D3E0:  BCF    xF7.1
....................          outVacio=OFF; 
0D3E2:  BCF    xF7.7
....................          Esterilizando=OFF; 
0D3E4:  MOVLB  1
0D3E6:  BCF    x03.3
....................          Desfogando=OFF; 
0D3E8:  BCF    x03.6
....................          IniciaCiclo=OFF; 
0D3EA:  BCF    x03.2
....................          Controlando=0; 
0D3EC:  MOVLB  2
0D3EE:  CLRF   x56
....................          if(codigoAnt!=codigoAlarma){ 
0D3F0:  MOVF   x97,W
0D3F2:  SUBWF  x98,W
0D3F4:  BZ    D404
....................             codigoAnt=codigoAlarma; 
0D3F6:  MOVFF  297,298
....................             GuardaDatoCiclo(); 
0D3FA:  MOVLB  0
0D3FC:  CALL   7096
....................             incrementaCiclos(); 
0D400:  CALL   7444
....................          } 
....................          if(!flagImprimir){ 
0D404:  MOVLB  1
0D406:  BTFSC  x09.0
0D408:  BRA    D42C
....................             Imprime=22; 
0D40A:  MOVLW  16
0D40C:  MOVLB  2
0D40E:  MOVWF  xB2
....................             Envio_Esclavos(); 
0D410:  MOVLB  0
0D412:  CALL   5734
....................             delay_ms(100); 
0D416:  MOVLW  64
0D418:  MOVLB  6
0D41A:  MOVWF  xC7
0D41C:  MOVLB  0
0D41E:  CALL   20B8
....................             Imprime=10; 
0D422:  MOVLW  0A
0D424:  MOVLB  2
0D426:  MOVWF  xB2
....................             flagImprimir=1; 
0D428:  MOVLB  1
0D42A:  BSF    x09.0
....................          } 
....................          if(PresionCamara<=Atmosferica+15 && PresionCamara>Atmosferica-10 && Temperatura<=Tapertura) 
0D42C:  MOVLW  0F
0D42E:  MOVLB  2
0D430:  ADDWF  xA8,W
0D432:  MOVF   x7D,F
0D434:  BNZ   D48C
0D436:  SUBWF  x7C,W
0D438:  BZ    D43C
0D43A:  BC    D48C
0D43C:  MOVLW  0A
0D43E:  SUBWF  xA8,W
0D440:  MOVF   x7D,F
0D442:  BNZ   D44A
0D444:  SUBWF  x7C,W
0D446:  BZ    D48C
0D448:  BNC   D48C
0D44A:  MOVLB  6
0D44C:  CLRF   xC8
0D44E:  MOVFF  264,6C7
0D452:  MOVLB  0
0D454:  CALL   2082
0D458:  MOVFF  23F,6BC
0D45C:  MOVFF  23E,6BB
0D460:  MOVFF  23D,6BA
0D464:  MOVFF  23C,6B9
0D468:  MOVFF  03,6C0
0D46C:  MOVFF  02,6BF
0D470:  MOVFF  01,6BE
0D474:  MOVFF  00,6BD
0D478:  CALL   2714
0D47C:  BC    D486
0D47E:  BTFSC  FD8.2
0D480:  BRA    D486
0D482:  MOVLB  2
0D484:  BRA    D48C
....................             Start=OFF; 
0D486:  MOVLB  1
0D488:  BCF    x04.1
0D48A:  MOVLB  2
....................       }else if(AlarmaSobreTemperatura){                   
0D48C:  BRA    DAD6
0D48E:  MOVLB  0
0D490:  BTFSS  xF9.2
0D492:  BRA    D582
....................          codigoAlarma=4; 
0D494:  MOVLW  04
0D496:  MOVLB  2
0D498:  MOVWF  x97
....................          tiempo_esterilizacion=0;tiempo_secado=0;          
0D49A:  CLRF   x6E
0D49C:  CLRF   x6F
....................          printf("Funcionamiento.t4f.txt=\" Sobretemperatura\""); 
0D49E:  MOVLW  16
0D4A0:  MOVWF  FF6
0D4A2:  MOVLW  17
0D4A4:  MOVWF  FF7
0D4A6:  MOVLW  00
0D4A8:  MOVWF  FF8
0D4AA:  MOVLB  0
0D4AC:  CALL   4138
....................          SendDataDisplay(); 
0D4B0:  CALL   416A
....................          printf("Funcionamiento.t5f.txt=\" Cancelado\""); 
0D4B4:  MOVLW  42
0D4B6:  MOVWF  FF6
0D4B8:  MOVLW  17
0D4BA:  MOVWF  FF7
0D4BC:  MOVLW  00
0D4BE:  MOVWF  FF8
0D4C0:  CALL   4138
....................          SendDataDisplay();   
0D4C4:  CALL   416A
....................          suministroVapor=OFF; 
0D4C8:  BCF    xF7.5
....................          Desfogue=ON; 
0D4CA:  BSF    xF8.0
....................          Paso=OFF; 
0D4CC:  BCF    xF7.6
....................          if(!abrirPuertaL && !abrirPuertaS) 
0D4CE:  BTFSC  xFB.4
0D4D0:  BRA    D4D8
0D4D2:  BTFSC  xFB.5
0D4D4:  BRA    D4D8
....................             BombaVacio=OFF; 
0D4D6:  BCF    xF7.2
....................          Aire=OFF; 
0D4D8:  BCF    xF8.1
....................          aguaEnfriador=OFF; 
0D4DA:  BCF    xF7.1
....................          outVacio=OFF; 
0D4DC:  BCF    xF7.7
....................          Controlando=0; 
0D4DE:  MOVLB  2
0D4E0:  CLRF   x56
....................          if(codigoAnt!=codigoAlarma){ 
0D4E2:  MOVF   x97,W
0D4E4:  SUBWF  x98,W
0D4E6:  BZ    D4F6
....................             codigoAnt=codigoAlarma; 
0D4E8:  MOVFF  297,298
....................             GuardaDatoCiclo(); 
0D4EC:  MOVLB  0
0D4EE:  CALL   7096
....................             incrementaCiclos(); 
0D4F2:  CALL   7444
....................          } 
....................          if(!flagImprimir){ 
0D4F6:  MOVLB  1
0D4F8:  BTFSC  x09.0
0D4FA:  BRA    D51E
....................             Imprime=23; 
0D4FC:  MOVLW  17
0D4FE:  MOVLB  2
0D500:  MOVWF  xB2
....................             Envio_Esclavos(); 
0D502:  MOVLB  0
0D504:  CALL   5734
....................             delay_ms(100); 
0D508:  MOVLW  64
0D50A:  MOVLB  6
0D50C:  MOVWF  xC7
0D50E:  MOVLB  0
0D510:  CALL   20B8
....................             Imprime=10; 
0D514:  MOVLW  0A
0D516:  MOVLB  2
0D518:  MOVWF  xB2
....................             flagImprimir=1; 
0D51A:  MOVLB  1
0D51C:  BSF    x09.0
....................          } 
....................          if(PresionCamara<=Atmosferica+15 && PresionCamara>Atmosferica-10 && Temperatura<=Tapertura) 
0D51E:  MOVLW  0F
0D520:  MOVLB  2
0D522:  ADDWF  xA8,W
0D524:  MOVF   x7D,F
0D526:  BNZ   D57E
0D528:  SUBWF  x7C,W
0D52A:  BZ    D52E
0D52C:  BC    D57E
0D52E:  MOVLW  0A
0D530:  SUBWF  xA8,W
0D532:  MOVF   x7D,F
0D534:  BNZ   D53C
0D536:  SUBWF  x7C,W
0D538:  BZ    D57E
0D53A:  BNC   D57E
0D53C:  MOVLB  6
0D53E:  CLRF   xC8
0D540:  MOVFF  264,6C7
0D544:  MOVLB  0
0D546:  CALL   2082
0D54A:  MOVFF  23F,6BC
0D54E:  MOVFF  23E,6BB
0D552:  MOVFF  23D,6BA
0D556:  MOVFF  23C,6B9
0D55A:  MOVFF  03,6C0
0D55E:  MOVFF  02,6BF
0D562:  MOVFF  01,6BE
0D566:  MOVFF  00,6BD
0D56A:  CALL   2714
0D56E:  BC    D578
0D570:  BTFSC  FD8.2
0D572:  BRA    D578
0D574:  MOVLB  2
0D576:  BRA    D57E
....................             Start=OFF; 
0D578:  MOVLB  1
0D57A:  BCF    x04.1
0D57C:  MOVLB  2
....................       }else if(AlarmaTiempoProlongado){ 
0D57E:  BRA    DAD6
0D580:  MOVLB  0
0D582:  BTFSS  xF9.1
0D584:  BRA    D66C
....................          codigoAlarma=5; 
0D586:  MOVLW  05
0D588:  MOVLB  2
0D58A:  MOVWF  x97
....................          printf("Funcionamiento.t4f.txt=\" Tiempo Prolongado\""); 
0D58C:  MOVLW  66
0D58E:  MOVWF  FF6
0D590:  MOVLW  17
0D592:  MOVWF  FF7
0D594:  MOVLW  00
0D596:  MOVWF  FF8
0D598:  MOVLB  0
0D59A:  CALL   4138
....................          SendDataDisplay(); 
0D59E:  CALL   416A
....................          printf("Funcionamiento.t5f.txt=\" Cancelado\""); 
0D5A2:  MOVLW  92
0D5A4:  MOVWF  FF6
0D5A6:  MOVLW  17
0D5A8:  MOVWF  FF7
0D5AA:  MOVLW  00
0D5AC:  MOVWF  FF8
0D5AE:  CALL   4138
....................          SendDataDisplay(); 
0D5B2:  CALL   416A
....................          suministroVapor=OFF; 
0D5B6:  BCF    xF7.5
....................          if(!abrirPuertaL && !abrirPuertaS) 
0D5B8:  BTFSC  xFB.4
0D5BA:  BRA    D5C2
0D5BC:  BTFSC  xFB.5
0D5BE:  BRA    D5C2
....................             BombaVacio=OFF; 
0D5C0:  BCF    xF7.2
....................          Desfogue=ON; 
0D5C2:  BSF    xF8.0
....................          Paso=OFF; 
0D5C4:  BCF    xF7.6
....................          aguaEnfriador=OFF; 
0D5C6:  BCF    xF7.1
....................          outVacio=OFF; 
0D5C8:  BCF    xF7.7
....................          Controlando=0; 
0D5CA:  MOVLB  2
0D5CC:  CLRF   x56
....................          if(codigoAnt!=codigoAlarma){ 
0D5CE:  MOVF   x97,W
0D5D0:  SUBWF  x98,W
0D5D2:  BZ    D5E2
....................             codigoAnt=codigoAlarma; 
0D5D4:  MOVFF  297,298
....................             GuardaDatoCiclo(); 
0D5D8:  MOVLB  0
0D5DA:  CALL   7096
....................             incrementaCiclos(); 
0D5DE:  CALL   7444
....................          } 
....................          if(!flagImprimir){ 
0D5E2:  MOVLB  1
0D5E4:  BTFSC  x09.0
0D5E6:  BRA    D60A
....................             Imprime=24; 
0D5E8:  MOVLW  18
0D5EA:  MOVLB  2
0D5EC:  MOVWF  xB2
....................             Envio_Esclavos(); 
0D5EE:  MOVLB  0
0D5F0:  CALL   5734
....................             delay_ms(100); 
0D5F4:  MOVLW  64
0D5F6:  MOVLB  6
0D5F8:  MOVWF  xC7
0D5FA:  MOVLB  0
0D5FC:  CALL   20B8
....................             Imprime=10; 
0D600:  MOVLW  0A
0D602:  MOVLB  2
0D604:  MOVWF  xB2
....................             flagImprimir=1; 
0D606:  MOVLB  1
0D608:  BSF    x09.0
....................          } 
....................          if(PresionCamara<=Atmosferica+15 && PresionCamara>Atmosferica-10 && Temperatura<=Tapertura) 
0D60A:  MOVLW  0F
0D60C:  MOVLB  2
0D60E:  ADDWF  xA8,W
0D610:  MOVF   x7D,F
0D612:  BNZ   D66A
0D614:  SUBWF  x7C,W
0D616:  BZ    D61A
0D618:  BC    D66A
0D61A:  MOVLW  0A
0D61C:  SUBWF  xA8,W
0D61E:  MOVF   x7D,F
0D620:  BNZ   D628
0D622:  SUBWF  x7C,W
0D624:  BZ    D66A
0D626:  BNC   D66A
0D628:  MOVLB  6
0D62A:  CLRF   xC8
0D62C:  MOVFF  264,6C7
0D630:  MOVLB  0
0D632:  CALL   2082
0D636:  MOVFF  23F,6BC
0D63A:  MOVFF  23E,6BB
0D63E:  MOVFF  23D,6BA
0D642:  MOVFF  23C,6B9
0D646:  MOVFF  03,6C0
0D64A:  MOVFF  02,6BF
0D64E:  MOVFF  01,6BE
0D652:  MOVFF  00,6BD
0D656:  CALL   2714
0D65A:  BC    D664
0D65C:  BTFSC  FD8.2
0D65E:  BRA    D664
0D660:  MOVLB  2
0D662:  BRA    D66A
....................             Start=OFF; 
0D664:  MOVLB  1
0D666:  BCF    x04.1
0D668:  MOVLB  2
....................       }else if(AlarmaPresion){ // Alarma de Error de SobrePresion: Error por exceso de Presion. 
0D66A:  BRA    DAD6
0D66C:  MOVLB  1
0D66E:  BTFSS  x06.5
0D670:  BRA    D778
....................          codigoAlarma=6; 
0D672:  MOVLW  06
0D674:  MOVLB  2
0D676:  MOVWF  x97
....................          printf("Funcionamiento.t4f.txt=\" SobrePresion\""); 
0D678:  MOVLW  B6
0D67A:  MOVWF  FF6
0D67C:  MOVLW  17
0D67E:  MOVWF  FF7
0D680:  MOVLW  00
0D682:  MOVWF  FF8
0D684:  MOVLB  0
0D686:  CALL   4138
....................          SendDataDisplay(); 
0D68A:  CALL   416A
....................          printf("Funcionamiento.t5f.txt=\" Cancelado\""); 
0D68E:  MOVLW  DE
0D690:  MOVWF  FF6
0D692:  MOVLW  17
0D694:  MOVWF  FF7
0D696:  MOVLW  00
0D698:  MOVWF  FF8
0D69A:  CALL   4138
....................          SendDataDisplay(); 
0D69E:  CALL   416A
....................          Desfogue=ON; 
0D6A2:  BSF    xF8.0
....................          suministroVapor=OFF; 
0D6A4:  BCF    xF7.5
....................          if(!abrirPuertaL && !abrirPuertaS) 
0D6A6:  BTFSC  xFB.4
0D6A8:  BRA    D6B0
0D6AA:  BTFSC  xFB.5
0D6AC:  BRA    D6B0
....................             BombaVacio=OFF; 
0D6AE:  BCF    xF7.2
....................          Aire=OFF; 
0D6B0:  BCF    xF8.1
....................          aguaEnfriador=OFF; 
0D6B2:  BCF    xF7.1
....................          outVacio=OFF; 
0D6B4:  BCF    xF7.7
....................          if(PresionPreCamara>(Atmosferica+4) && DOORS) 
0D6B6:  MOVLW  04
0D6B8:  MOVLB  2
0D6BA:  ADDWF  xA8,W
0D6BC:  MOVF   x7F,F
0D6BE:  BNZ   D6C6
0D6C0:  SUBWF  x7E,W
0D6C2:  BZ    D6D2
0D6C4:  BNC   D6D2
0D6C6:  BSF    F93.3
0D6C8:  BTFSC  F81.3
0D6CA:  BRA    D6D2
....................             Paso=ON; 
0D6CC:  MOVLB  0
0D6CE:  BSF    xF7.6
....................          else 
0D6D0:  BRA    D6D6
....................             Paso=OFF; 
0D6D2:  MOVLB  0
0D6D4:  BCF    xF7.6
....................          Controlando=0; 
0D6D6:  MOVLB  2
0D6D8:  CLRF   x56
....................          if(codigoAnt!=codigoAlarma){ 
0D6DA:  MOVF   x97,W
0D6DC:  SUBWF  x98,W
0D6DE:  BZ    D6EE
....................             codigoAnt=codigoAlarma; 
0D6E0:  MOVFF  297,298
....................             GuardaDatoCiclo(); 
0D6E4:  MOVLB  0
0D6E6:  CALL   7096
....................             incrementaCiclos(); 
0D6EA:  CALL   7444
....................          } 
....................          if(!flagImprimir){ 
0D6EE:  MOVLB  1
0D6F0:  BTFSC  x09.0
0D6F2:  BRA    D716
....................             Imprime=25; 
0D6F4:  MOVLW  19
0D6F6:  MOVLB  2
0D6F8:  MOVWF  xB2
....................             Envio_Esclavos(); 
0D6FA:  MOVLB  0
0D6FC:  CALL   5734
....................             delay_ms(100); 
0D700:  MOVLW  64
0D702:  MOVLB  6
0D704:  MOVWF  xC7
0D706:  MOVLB  0
0D708:  CALL   20B8
....................             Imprime=10; 
0D70C:  MOVLW  0A
0D70E:  MOVLB  2
0D710:  MOVWF  xB2
....................             flagImprimir=1; 
0D712:  MOVLB  1
0D714:  BSF    x09.0
....................          } 
....................          if(PresionCamara<=Atmosferica+15 && PresionCamara>Atmosferica-10 && Temperatura<=Tapertura) 
0D716:  MOVLW  0F
0D718:  MOVLB  2
0D71A:  ADDWF  xA8,W
0D71C:  MOVF   x7D,F
0D71E:  BNZ   D776
0D720:  SUBWF  x7C,W
0D722:  BZ    D726
0D724:  BC    D776
0D726:  MOVLW  0A
0D728:  SUBWF  xA8,W
0D72A:  MOVF   x7D,F
0D72C:  BNZ   D734
0D72E:  SUBWF  x7C,W
0D730:  BZ    D776
0D732:  BNC   D776
0D734:  MOVLB  6
0D736:  CLRF   xC8
0D738:  MOVFF  264,6C7
0D73C:  MOVLB  0
0D73E:  CALL   2082
0D742:  MOVFF  23F,6BC
0D746:  MOVFF  23E,6BB
0D74A:  MOVFF  23D,6BA
0D74E:  MOVFF  23C,6B9
0D752:  MOVFF  03,6C0
0D756:  MOVFF  02,6BF
0D75A:  MOVFF  01,6BE
0D75E:  MOVFF  00,6BD
0D762:  CALL   2714
0D766:  BC    D770
0D768:  BTFSC  FD8.2
0D76A:  BRA    D770
0D76C:  MOVLB  2
0D76E:  BRA    D776
....................             Start=OFF; 
0D770:  MOVLB  1
0D772:  BCF    x04.1
0D774:  MOVLB  2
....................       }else if(AlarmaBomba){ // Alarma de Error de que bomba no ha arrancado. 
0D776:  BRA    DAD6
0D778:  MOVLB  0
0D77A:  BTFSS  xFA.2
0D77C:  BRA    D866
....................          codigoAlarma=7; 
0D77E:  MOVLW  07
0D780:  MOVLB  2
0D782:  MOVWF  x97
....................          printf("Funcionamiento.t4f.txt=\" Error Bomba\""); 
0D784:  MOVLW  02
0D786:  MOVWF  FF6
0D788:  MOVLW  18
0D78A:  MOVWF  FF7
0D78C:  MOVLW  00
0D78E:  MOVWF  FF8
0D790:  MOVLB  0
0D792:  CALL   4138
....................          SendDataDisplay(); 
0D796:  CALL   416A
....................          printf("Funcionamiento.t5f.txt=\" Cancelado\""); 
0D79A:  MOVLW  28
0D79C:  MOVWF  FF6
0D79E:  MOVLW  18
0D7A0:  MOVWF  FF7
0D7A2:  MOVLW  00
0D7A4:  MOVWF  FF8
0D7A6:  CALL   4138
....................          SendDataDisplay(); 
0D7AA:  CALL   416A
....................          Desfogue=ON; 
0D7AE:  BSF    xF8.0
....................          suministroVapor=OFF; 
0D7B0:  BCF    xF7.5
....................          if(!abrirPuertaL && !abrirPuertaS) 
0D7B2:  BTFSC  xFB.4
0D7B4:  BRA    D7BC
0D7B6:  BTFSC  xFB.5
0D7B8:  BRA    D7BC
....................             BombaVacio=OFF; 
0D7BA:  BCF    xF7.2
....................          Aire=OFF; 
0D7BC:  BCF    xF8.1
....................          aguaEnfriador=OFF; 
0D7BE:  BCF    xF7.1
....................          outVacio=OFF; 
0D7C0:  BCF    xF7.7
....................          Controlando=0; 
0D7C2:  MOVLB  2
0D7C4:  CLRF   x56
....................          if(codigoAnt!=codigoAlarma){ 
0D7C6:  MOVF   x97,W
0D7C8:  SUBWF  x98,W
0D7CA:  BZ    D7DA
....................             codigoAnt=codigoAlarma; 
0D7CC:  MOVFF  297,298
....................             GuardaDatoCiclo(); 
0D7D0:  MOVLB  0
0D7D2:  CALL   7096
....................             incrementaCiclos(); 
0D7D6:  CALL   7444
....................          } 
....................          if(!flagImprimir){ 
0D7DA:  MOVLB  1
0D7DC:  BTFSC  x09.0
0D7DE:  BRA    D802
....................             Imprime=26; 
0D7E0:  MOVLW  1A
0D7E2:  MOVLB  2
0D7E4:  MOVWF  xB2
....................             Envio_Esclavos(); 
0D7E6:  MOVLB  0
0D7E8:  CALL   5734
....................             delay_ms(100); 
0D7EC:  MOVLW  64
0D7EE:  MOVLB  6
0D7F0:  MOVWF  xC7
0D7F2:  MOVLB  0
0D7F4:  CALL   20B8
....................             Imprime=10; 
0D7F8:  MOVLW  0A
0D7FA:  MOVLB  2
0D7FC:  MOVWF  xB2
....................             flagImprimir=1; 
0D7FE:  MOVLB  1
0D800:  BSF    x09.0
....................          } 
....................          if(PresionCamara<=Atmosferica+15 && PresionCamara>Atmosferica-10 && Temperatura<=Tapertura) 
0D802:  MOVLW  0F
0D804:  MOVLB  2
0D806:  ADDWF  xA8,W
0D808:  MOVF   x7D,F
0D80A:  BNZ   D862
0D80C:  SUBWF  x7C,W
0D80E:  BZ    D812
0D810:  BC    D862
0D812:  MOVLW  0A
0D814:  SUBWF  xA8,W
0D816:  MOVF   x7D,F
0D818:  BNZ   D820
0D81A:  SUBWF  x7C,W
0D81C:  BZ    D862
0D81E:  BNC   D862
0D820:  MOVLB  6
0D822:  CLRF   xC8
0D824:  MOVFF  264,6C7
0D828:  MOVLB  0
0D82A:  CALL   2082
0D82E:  MOVFF  23F,6BC
0D832:  MOVFF  23E,6BB
0D836:  MOVFF  23D,6BA
0D83A:  MOVFF  23C,6B9
0D83E:  MOVFF  03,6C0
0D842:  MOVFF  02,6BF
0D846:  MOVFF  01,6BE
0D84A:  MOVFF  00,6BD
0D84E:  CALL   2714
0D852:  BC    D85C
0D854:  BTFSC  FD8.2
0D856:  BRA    D85C
0D858:  MOVLB  2
0D85A:  BRA    D862
....................             Start=OFF; 
0D85C:  MOVLB  1
0D85E:  BCF    x04.1
0D860:  MOVLB  2
....................       }else if(AlarmaVacio){ // Alarma de Error de que genera el Vacio en el tiempo estipulado. 
0D862:  BRA    DAD6
0D864:  MOVLB  0
0D866:  BTFSS  xF9.7
0D868:  BRA    D952
....................          codigoAlarma=8; 
0D86A:  MOVLW  08
0D86C:  MOVLB  2
0D86E:  MOVWF  x97
....................          printf("Funcionamiento.t4f.txt=\" Error Vacio\""); 
0D870:  MOVLW  4C
0D872:  MOVWF  FF6
0D874:  MOVLW  18
0D876:  MOVWF  FF7
0D878:  MOVLW  00
0D87A:  MOVWF  FF8
0D87C:  MOVLB  0
0D87E:  CALL   4138
....................          SendDataDisplay(); 
0D882:  CALL   416A
....................          printf("Funcionamiento.t5f.txt=\" Cancelado\""); 
0D886:  MOVLW  72
0D888:  MOVWF  FF6
0D88A:  MOVLW  18
0D88C:  MOVWF  FF7
0D88E:  MOVLW  00
0D890:  MOVWF  FF8
0D892:  CALL   4138
....................          SendDataDisplay(); 
0D896:  CALL   416A
....................          Desfogue=ON; 
0D89A:  BSF    xF8.0
....................          suministroVapor=OFF; 
0D89C:  BCF    xF7.5
....................          if(!abrirPuertaL && !abrirPuertaS) 
0D89E:  BTFSC  xFB.4
0D8A0:  BRA    D8A8
0D8A2:  BTFSC  xFB.5
0D8A4:  BRA    D8A8
....................             BombaVacio=OFF; 
0D8A6:  BCF    xF7.2
....................          Aire=OFF; 
0D8A8:  BCF    xF8.1
....................          aguaEnfriador=OFF; 
0D8AA:  BCF    xF7.1
....................          outVacio=OFF; 
0D8AC:  BCF    xF7.7
....................          Controlando=0; 
0D8AE:  MOVLB  2
0D8B0:  CLRF   x56
....................          if(codigoAnt!=codigoAlarma){ 
0D8B2:  MOVF   x97,W
0D8B4:  SUBWF  x98,W
0D8B6:  BZ    D8C6
....................             codigoAnt=codigoAlarma; 
0D8B8:  MOVFF  297,298
....................             GuardaDatoCiclo(); 
0D8BC:  MOVLB  0
0D8BE:  CALL   7096
....................             incrementaCiclos(); 
0D8C2:  CALL   7444
....................          } 
....................           
....................          if(!flagImprimir){ 
0D8C6:  MOVLB  1
0D8C8:  BTFSC  x09.0
0D8CA:  BRA    D8EE
....................             Imprime=27; 
0D8CC:  MOVLW  1B
0D8CE:  MOVLB  2
0D8D0:  MOVWF  xB2
....................             Envio_Esclavos(); 
0D8D2:  MOVLB  0
0D8D4:  CALL   5734
....................             delay_ms(100); 
0D8D8:  MOVLW  64
0D8DA:  MOVLB  6
0D8DC:  MOVWF  xC7
0D8DE:  MOVLB  0
0D8E0:  CALL   20B8
....................             Imprime=10; 
0D8E4:  MOVLW  0A
0D8E6:  MOVLB  2
0D8E8:  MOVWF  xB2
....................             flagImprimir=1; 
0D8EA:  MOVLB  1
0D8EC:  BSF    x09.0
....................          } 
....................          if(PresionCamara<=Atmosferica+15 && PresionCamara>Atmosferica-10 && Temperatura<=Tapertura) 
0D8EE:  MOVLW  0F
0D8F0:  MOVLB  2
0D8F2:  ADDWF  xA8,W
0D8F4:  MOVF   x7D,F
0D8F6:  BNZ   D94E
0D8F8:  SUBWF  x7C,W
0D8FA:  BZ    D8FE
0D8FC:  BC    D94E
0D8FE:  MOVLW  0A
0D900:  SUBWF  xA8,W
0D902:  MOVF   x7D,F
0D904:  BNZ   D90C
0D906:  SUBWF  x7C,W
0D908:  BZ    D94E
0D90A:  BNC   D94E
0D90C:  MOVLB  6
0D90E:  CLRF   xC8
0D910:  MOVFF  264,6C7
0D914:  MOVLB  0
0D916:  CALL   2082
0D91A:  MOVFF  23F,6BC
0D91E:  MOVFF  23E,6BB
0D922:  MOVFF  23D,6BA
0D926:  MOVFF  23C,6B9
0D92A:  MOVFF  03,6C0
0D92E:  MOVFF  02,6BF
0D932:  MOVFF  01,6BE
0D936:  MOVFF  00,6BD
0D93A:  CALL   2714
0D93E:  BC    D948
0D940:  BTFSC  FD8.2
0D942:  BRA    D948
0D944:  MOVLB  2
0D946:  BRA    D94E
....................             Start=OFF; 
0D948:  MOVLB  1
0D94A:  BCF    x04.1
0D94C:  MOVLB  2
....................       }else if(AlarmaEmpaqueS || AlarmaEmpaqueL){ // Alarma de Error de que el empaque no se presuriza 
0D94E:  BRA    DAD6
0D950:  MOVLB  0
0D952:  BTFSC  xFA.1
0D954:  BRA    D95A
0D956:  BTFSS  xFA.0
0D958:  BRA    DA84
....................          codigoAlarma=9; 
0D95A:  MOVLW  09
0D95C:  MOVLB  2
0D95E:  MOVWF  x97
....................          printf("Funcionamiento.t4f.txt=\" Error Empaque\""); 
0D960:  MOVLW  96
0D962:  MOVWF  FF6
0D964:  MOVLW  18
0D966:  MOVWF  FF7
0D968:  MOVLW  00
0D96A:  MOVWF  FF8
0D96C:  MOVLB  0
0D96E:  CALL   4138
....................          SendDataDisplay(); 
0D972:  CALL   416A
....................          printf("Funcionamiento.t5f.txt=\" Cancelado\""); 
0D976:  MOVLW  BE
0D978:  MOVWF  FF6
0D97A:  MOVLW  18
0D97C:  MOVWF  FF7
0D97E:  MOVLW  00
0D980:  MOVWF  FF8
0D982:  CALL   4138
....................          SendDataDisplay(); 
0D986:  CALL   416A
....................          if(AlarmaEmpaqueL && PresionCamara<Atmosferica+4) 
0D98A:  BTFSS  xFA.0
0D98C:  BRA    D9AC
0D98E:  MOVLW  04
0D990:  MOVLB  2
0D992:  ADDWF  xA8,W
0D994:  MOVF   x7D,F
0D996:  BTFSC  FD8.2
0D998:  BRA    D99E
0D99A:  MOVLB  0
0D99C:  BRA    D9AC
0D99E:  SUBWF  x7C,W
0D9A0:  BTFSS  FD8.0
0D9A2:  BRA    D9A8
0D9A4:  MOVLB  0
0D9A6:  BRA    D9AC
....................             empaqueLimpio=OFF; 
0D9A8:  MOVLB  0
0D9AA:  BCF    xF7.3
....................          if(AlarmaEmpaqueS && PresionCamara<Atmosferica+4) 
0D9AC:  BTFSS  xFA.1
0D9AE:  BRA    D9CE
0D9B0:  MOVLW  04
0D9B2:  MOVLB  2
0D9B4:  ADDWF  xA8,W
0D9B6:  MOVF   x7D,F
0D9B8:  BTFSC  FD8.2
0D9BA:  BRA    D9C0
0D9BC:  MOVLB  0
0D9BE:  BRA    D9CE
0D9C0:  SUBWF  x7C,W
0D9C2:  BTFSS  FD8.0
0D9C4:  BRA    D9CA
0D9C6:  MOVLB  0
0D9C8:  BRA    D9CE
....................             empaqueSucio=OFF; 
0D9CA:  MOVLB  0
0D9CC:  BCF    xF7.4
....................          Desfogue=ON; 
0D9CE:  BSF    xF8.0
....................          suministroVapor=OFF; 
0D9D0:  BCF    xF7.5
....................          if(!abrirPuertaL && !abrirPuertaS) 
0D9D2:  BTFSC  xFB.4
0D9D4:  BRA    D9DC
0D9D6:  BTFSC  xFB.5
0D9D8:  BRA    D9DC
....................             BombaVacio=OFF; 
0D9DA:  BCF    xF7.2
....................          Aire=OFF; 
0D9DC:  BCF    xF8.1
....................          aguaEnfriador=OFF; 
0D9DE:  BCF    xF7.1
....................          outVacio=OFF; 
0D9E0:  BCF    xF7.7
....................          Controlando=0; 
0D9E2:  MOVLB  2
0D9E4:  CLRF   x56
....................          if(codigoAnt!=codigoAlarma){ 
0D9E6:  MOVF   x97,W
0D9E8:  SUBWF  x98,W
0D9EA:  BZ    D9FA
....................             codigoAnt=codigoAlarma; 
0D9EC:  MOVFF  297,298
....................             GuardaDatoCiclo(); 
0D9F0:  MOVLB  0
0D9F2:  CALL   7096
....................             incrementaCiclos(); 
0D9F6:  CALL   7444
....................          } 
....................           
....................          if(!flagImprimir){ 
0D9FA:  MOVLB  1
0D9FC:  BTFSC  x09.0
0D9FE:  BRA    DA22
....................             Imprime=29; 
0DA00:  MOVLW  1D
0DA02:  MOVLB  2
0DA04:  MOVWF  xB2
....................             Envio_Esclavos(); 
0DA06:  MOVLB  0
0DA08:  CALL   5734
....................             delay_ms(100); 
0DA0C:  MOVLW  64
0DA0E:  MOVLB  6
0DA10:  MOVWF  xC7
0DA12:  MOVLB  0
0DA14:  CALL   20B8
....................             Imprime=10; 
0DA18:  MOVLW  0A
0DA1A:  MOVLB  2
0DA1C:  MOVWF  xB2
....................             flagImprimir=1; 
0DA1E:  MOVLB  1
0DA20:  BSF    x09.0
....................          } 
....................          if(PresionCamara<=Atmosferica+15 && PresionCamara>Atmosferica-10 && Temperatura<=Tapertura) 
0DA22:  MOVLW  0F
0DA24:  MOVLB  2
0DA26:  ADDWF  xA8,W
0DA28:  MOVF   x7D,F
0DA2A:  BNZ   DA82
0DA2C:  SUBWF  x7C,W
0DA2E:  BZ    DA32
0DA30:  BC    DA82
0DA32:  MOVLW  0A
0DA34:  SUBWF  xA8,W
0DA36:  MOVF   x7D,F
0DA38:  BNZ   DA40
0DA3A:  SUBWF  x7C,W
0DA3C:  BZ    DA82
0DA3E:  BNC   DA82
0DA40:  MOVLB  6
0DA42:  CLRF   xC8
0DA44:  MOVFF  264,6C7
0DA48:  MOVLB  0
0DA4A:  CALL   2082
0DA4E:  MOVFF  23F,6BC
0DA52:  MOVFF  23E,6BB
0DA56:  MOVFF  23D,6BA
0DA5A:  MOVFF  23C,6B9
0DA5E:  MOVFF  03,6C0
0DA62:  MOVFF  02,6BF
0DA66:  MOVFF  01,6BE
0DA6A:  MOVFF  00,6BD
0DA6E:  CALL   2714
0DA72:  BC    DA7C
0DA74:  BTFSC  FD8.2
0DA76:  BRA    DA7C
0DA78:  MOVLB  2
0DA7A:  BRA    DA82
....................             Start=OFF; 
0DA7C:  MOVLB  1
0DA7E:  BCF    x04.1
0DA80:  MOVLB  2
....................       }else if(!Start){ // Inicio o pausa de Ciclo 
0DA82:  BRA    DAD6
0DA84:  MOVLB  1
0DA86:  BTFSC  x04.1
0DA88:  BRA    DAD8
....................          printf("Funcionamiento.t4f.txt=\" Ciclo no Iniciado\""); 
0DA8A:  MOVLW  E2
0DA8C:  MOVWF  FF6
0DA8E:  MOVLW  18
0DA90:  MOVWF  FF7
0DA92:  MOVLW  00
0DA94:  MOVWF  FF8
0DA96:  MOVLB  0
0DA98:  CALL   4138
....................          SendDataDisplay(); 
0DA9C:  CALL   416A
....................          printf("Funcionamiento.t5f.txt=\" Pausado\""); 
0DAA0:  MOVLW  0E
0DAA2:  MOVWF  FF6
0DAA4:  MOVLW  19
0DAA6:  MOVWF  FF7
0DAA8:  MOVLW  00
0DAAA:  MOVWF  FF8
0DAAC:  CALL   4138
....................          SendDataDisplay(); 
0DAB0:  CALL   416A
....................          Desfogue=OFF; 
0DAB4:  BCF    xF8.0
....................          suministroVapor=OFF; 
0DAB6:  BCF    xF7.5
....................          if(!abrirPuertaL && !abrirPuertaS) 
0DAB8:  BTFSC  xFB.4
0DABA:  BRA    DAC2
0DABC:  BTFSC  xFB.5
0DABE:  BRA    DAC2
....................             BombaVacio=OFF; 
0DAC0:  BCF    xF7.2
....................          Aire=OFF; 
0DAC2:  BCF    xF8.1
....................          aguaEnfriador=OFF; 
0DAC4:  BCF    xF7.1
....................          outVacio=OFF; 
0DAC6:  BCF    xF7.7
....................          Controlando=0; 
0DAC8:  MOVLB  2
0DACA:  CLRF   x56
....................          EstadoBuzzer=OFF; 
0DACC:  MOVLB  1
0DACE:  BCF    x06.0
....................          codigoAlarma=19; 
0DAD0:  MOVLW  13
0DAD2:  MOVLB  2
0DAD4:  MOVWF  x97
0DAD6:  MOVLB  1
....................       } 
....................    }else if(Start){ 
0DAD8:  GOTO   E50E
0DADC:  BTFSS  x04.1
0DADE:  GOTO   E50E
....................       printf("b2.pic=85"); 
0DAE2:  MOVLW  30
0DAE4:  MOVWF  FF6
0DAE6:  MOVLW  19
0DAE8:  MOVWF  FF7
0DAEA:  MOVLW  00
0DAEC:  MOVWF  FF8
0DAEE:  MOVLB  0
0DAF0:  CALL   4138
....................       SendDataDisplay(); 
0DAF4:  CALL   416A
....................       if(flagImprime){ 
0DAF8:  MOVLB  2
0DAFA:  BTFSS  x53.4
0DAFC:  BRA    DB1C
....................          Imprime=5; 
0DAFE:  MOVLW  05
0DB00:  MOVWF  xB2
....................          Envio_Esclavos(); 
0DB02:  MOVLB  0
0DB04:  CALL   5734
....................          delay_ms(100); 
0DB08:  MOVLW  64
0DB0A:  MOVLB  6
0DB0C:  MOVWF  xC7
0DB0E:  MOVLB  0
0DB10:  CALL   20B8
....................          Imprime=10; 
0DB14:  MOVLW  0A
0DB16:  MOVLB  2
0DB18:  MOVWF  xB2
....................          flagImprime=0; 
0DB1A:  BCF    x53.4
....................       } 
....................        
....................       if(!Fugas){//Si selecciono un ciclo diferente al test de fugas 
0DB1C:  MOVLB  1
0DB1E:  BTFSC  x07.2
0DB20:  GOTO   E2BC
....................          EstadoBuzzer=OFF; 
0DB24:  BCF    x06.0
....................          IniciaCiclo=ON; 
0DB26:  BSF    x03.2
....................        
....................       if(!Precalentamiento){  
0DB28:  BTFSC  x07.3
0DB2A:  BRA    DB8A
....................          SuministroVapor=ON; 
0DB2C:  MOVLB  0
0DB2E:  BSF    xF7.5
....................          aguaEnfriador=OFF; 
0DB30:  BCF    xF7.1
....................          Paso=OFF; 
0DB32:  BCF    xF7.6
....................          Desfogue=OFF; 
0DB34:  BCF    xF8.0
....................          printf("Funcionamiento.t4f.txt=\" Ninguna\""); 
0DB36:  MOVLW  3A
0DB38:  MOVWF  FF6
0DB3A:  MOVLW  19
0DB3C:  MOVWF  FF7
0DB3E:  MOVLW  00
0DB40:  MOVWF  FF8
0DB42:  CALL   4138
....................          SendDataDisplay(); 
0DB46:  CALL   416A
....................          printf("Funcionamiento.t5f.txt=\" PreCalentando\""); 
0DB4A:  MOVLW  5C
0DB4C:  MOVWF  FF6
0DB4E:  MOVLW  19
0DB50:  MOVWF  FF7
0DB52:  MOVLW  00
0DB54:  MOVWF  FF8
0DB56:  CALL   4138
....................          SendDataDisplay(); 
0DB5A:  CALL   416A
....................          ControlaPresion();  
0DB5E:  CALL   74D6
....................          Controlando=0; 
0DB62:  MOVLB  2
0DB64:  CLRF   x56
....................          IniciaVacio=OFF; 
0DB66:  MOVLB  1
0DB68:  BCF    x07.4
....................          IniciaVacio2=OFF; 
0DB6A:  BCF    x07.5
....................          codigoAlarma=10; 
0DB6C:  MOVLW  0A
0DB6E:  MOVLB  2
0DB70:  MOVWF  x97
....................          if(codigoAnt!=codigoAlarma){ 
0DB72:  MOVF   x97,W
0DB74:  SUBWF  x98,W
0DB76:  BZ    DB84
....................             codigoAnt=codigoAlarma; 
0DB78:  MOVFF  297,298
....................             GuardaDatoCiclo(); 
0DB7C:  MOVLB  0
0DB7E:  CALL   7096
0DB82:  MOVLB  2
....................          } 
....................       }else{ 
0DB84:  GOTO   E2B8
0DB88:  MOVLB  1
....................          if(!Vacio){ //Si no ha realizado los pulsos de vacio 
0DB8A:  BTFSC  x07.6
0DB8C:  BRA    DD74
....................             codigoAlarma=11; 
0DB8E:  MOVLW  0B
0DB90:  MOVLB  2
0DB92:  MOVWF  x97
....................             if(codigoAnt!=codigoAlarma){ 
0DB94:  MOVF   x97,W
0DB96:  SUBWF  x98,W
0DB98:  BZ    DBA4
....................                codigoAnt=codigoAlarma; 
0DB9A:  MOVFF  297,298
....................                GuardaDatoCiclo();                
0DB9E:  MOVLB  0
0DBA0:  CALL   7096
....................             } 
....................             if(!flag_vac){//Ciclo inicial para purga de Bomba 
0DBA4:  MOVLB  1
0DBA6:  BTFSC  x07.7
0DBA8:  BRA    DBDE
....................                flag_vac=ON; 
0DBAA:  BSF    x07.7
....................                outVacio=OFF; 
0DBAC:  MOVLB  0
0DBAE:  BCF    xF7.7
....................                Desfogue=OFF; 
0DBB0:  BCF    xF8.0
....................                Aire=OFF; 
0DBB2:  BCF    xF8.1
....................                //Paso=OFF; 
....................                aguaEnfriador=ON; 
0DBB4:  BSF    xF7.1
....................                delay_ms(70); 
0DBB6:  MOVLW  46
0DBB8:  MOVLB  6
0DBBA:  MOVWF  xC7
0DBBC:  MOVLB  0
0DBBE:  CALL   20B8
....................                if(ReservorioLleno) 
0DBC2:  MOVLB  1
0DBC4:  BTFSS  x09.5
0DBC6:  BRA    DBCE
....................                   BombaVacio=ON; 
0DBC8:  MOVLB  0
0DBCA:  BSF    xF7.2
....................                else 
0DBCC:  BRA    DBD2
....................                   BombaVacio=OFF; 
0DBCE:  MOVLB  0
0DBD0:  BCF    xF7.2
....................                IniciaVacio2=ON; 
0DBD2:  MOVLB  1
0DBD4:  BSF    x07.5
....................                PulsoPositivo=10; //Prueba para ver rendimiento de bomba de vacio************ 
0DBD6:  MOVLW  0A
0DBD8:  MOVLB  2
0DBDA:  MOVWF  xA9
0DBDC:  MOVLB  1
....................             } 
....................             printf("Funcionamiento.t4f.txt=\" Ninguna\""); 
0DBDE:  MOVLW  84
0DBE0:  MOVWF  FF6
0DBE2:  MOVLW  19
0DBE4:  MOVWF  FF7
0DBE6:  MOVLW  00
0DBE8:  MOVWF  FF8
0DBEA:  MOVLB  0
0DBEC:  CALL   4138
....................             SendDataDisplay(); 
0DBF0:  CALL   416A
....................             ControlaPresion(); 
0DBF4:  CALL   74D6
....................             IniciaVacio=ON; 
0DBF8:  MOVLB  1
0DBFA:  BSF    x07.4
....................                 
....................             if(PresionCamara>NivelVacio && PulsoPositivo==10){//Pulso Negativo 
0DBFC:  MOVLB  2
0DBFE:  MOVF   x7D,F
0DC00:  BNZ   DC08
0DC02:  MOVF   x7C,W
0DC04:  SUBWF  xA7,W
0DC06:  BC    DC80
0DC08:  MOVF   xA9,W
0DC0A:  SUBLW  0A
0DC0C:  BNZ   DC80
....................                flag_vacio=1; 
0DC0E:  MOVLB  1
0DC10:  BSF    x08.0
....................                if(ReservorioLleno) 
0DC12:  BTFSS  x09.5
0DC14:  BRA    DC1C
....................                   BombaVacio=ON; 
0DC16:  MOVLB  0
0DC18:  BSF    xF7.2
....................                else 
0DC1A:  BRA    DC20
....................                   BombaVacio=OFF; 
0DC1C:  MOVLB  0
0DC1E:  BCF    xF7.2
....................                outVacio=ON; 
0DC20:  BSF    xF7.7
....................                Desfogue=OFF; 
0DC22:  BCF    xF8.0
....................                Aire=OFF;                      
0DC24:  BCF    xF8.1
....................                Paso=OFF; 
0DC26:  BCF    xF7.6
....................                if(PulsosVacio>=2) 
0DC28:  MOVLB  2
0DC2A:  MOVF   xAA,W
0DC2C:  SUBLW  01
0DC2E:  BC    DC36
....................                   aguaEnfriador=ON; 
0DC30:  MOVLB  0
0DC32:  BSF    xF7.1
....................                else 
0DC34:  BRA    DC3A
....................                   aguaEnfriador=OFF; 
0DC36:  MOVLB  0
0DC38:  BCF    xF7.1
....................                if(flag_pulso==0){ 
0DC3A:  MOVLB  1
0DC3C:  BTFSC  x08.1
0DC3E:  BRA    DC48
....................                   PulsosVacio++; 
0DC40:  MOVLB  2
0DC42:  INCF   xAA,F
....................                   flag_pulso=1; 
0DC44:  MOVLB  1
0DC46:  BSF    x08.1
....................                } 
....................                printf("Funcionamiento.t5f.txt=\" Pulso de Vacio %u\"",PulsosVacio); 
0DC48:  MOVLW  A6
0DC4A:  MOVWF  FF6
0DC4C:  MOVLW  19
0DC4E:  MOVWF  FF7
0DC50:  MOVLW  00
0DC52:  MOVWF  FF8
0DC54:  MOVLW  28
0DC56:  MOVLB  6
0DC58:  MOVWF  xBA
0DC5A:  MOVLB  0
0DC5C:  CALL   5BEA
0DC60:  MOVFF  2AA,6BA
0DC64:  MOVLW  1B
0DC66:  MOVLB  6
0DC68:  MOVWF  xBB
0DC6A:  MOVLB  0
0DC6C:  CALL   5C6E
0DC70:  MOVLW  22
0DC72:  BTFSS  F9E.4
0DC74:  BRA    DC72
0DC76:  MOVWF  FAD
....................                SendDataDisplay(); 
0DC78:  CALL   416A
....................             }else{ 
0DC7C:  BRA    DC84
0DC7E:  MOVLB  2
....................                PulsoPositivo=5; 
0DC80:  MOVLW  05
0DC82:  MOVWF  xA9
....................             } 
....................              
....................             if(PulsosVacio>=CantidadPulsos && PulsoPositivo==5){//Si realiza los pulsos de vacio, continua con el proceso de calentamiento 
0DC84:  MOVLB  2
0DC86:  MOVF   x66,F
0DC88:  BNZ   DCB6
0DC8A:  MOVF   x65,W
0DC8C:  SUBWF  xAA,W
0DC8E:  BNC   DCB6
0DC90:  MOVF   xA9,W
0DC92:  SUBLW  05
0DC94:  BNZ   DCB6
....................                Vacio=ON; 
0DC96:  MOVLB  1
0DC98:  BSF    x07.6
....................                outVacio=OFF; 
0DC9A:  MOVLB  0
0DC9C:  BCF    xF7.7
....................                BombaVacio=OFF; 
0DC9E:  BCF    xF7.2
....................                outVacio=OFF; 
0DCA0:  BCF    xF7.7
....................                Desfogue=OFF; 
0DCA2:  BCF    xF8.0
....................                Aire=OFF;                                  
0DCA4:  BCF    xF8.1
....................                IniciaVacio=OFF; 
0DCA6:  MOVLB  1
0DCA8:  BCF    x07.4
....................                Paso=ON; 
0DCAA:  MOVLB  0
0DCAC:  BSF    xF7.6
....................                aguaEnfriador=OFF; 
0DCAE:  BCF    xF7.1
....................                PulsoPositivo=10; 
0DCB0:  MOVLW  0A
0DCB2:  MOVLB  2
0DCB4:  MOVWF  xA9
....................             } 
....................                
....................             if(PulsoPositivo==5){//Pulso Positivo 
0DCB6:  MOVF   xA9,W
0DCB8:  SUBLW  05
0DCBA:  BNZ   DD2A
....................                tvacio=0; 
0DCBC:  CLRF   x85
0DCBE:  CLRF   x84
....................                flag_pulso=0; 
0DCC0:  MOVLB  1
0DCC2:  BCF    x08.1
....................                printf("Funcionamiento.t5f.txt=\" Pulso Positivo %u\"",PulsosVacio); 
0DCC4:  MOVLW  D2
0DCC6:  MOVWF  FF6
0DCC8:  MOVLW  19
0DCCA:  MOVWF  FF7
0DCCC:  MOVLW  00
0DCCE:  MOVWF  FF8
0DCD0:  MOVLW  28
0DCD2:  MOVLB  6
0DCD4:  MOVWF  xBA
0DCD6:  MOVLB  0
0DCD8:  CALL   5BEA
0DCDC:  MOVFF  2AA,6BA
0DCE0:  MOVLW  1B
0DCE2:  MOVLB  6
0DCE4:  MOVWF  xBB
0DCE6:  MOVLB  0
0DCE8:  CALL   5C6E
0DCEC:  MOVLW  22
0DCEE:  BTFSS  F9E.4
0DCF0:  BRA    DCEE
0DCF2:  MOVWF  FAD
....................                SendDataDisplay(); 
0DCF4:  CALL   416A
....................                if(ReservorioLleno) 
0DCF8:  MOVLB  1
0DCFA:  BTFSS  x09.5
0DCFC:  BRA    DD04
....................                   BombaVacio=ON; 
0DCFE:  MOVLB  0
0DD00:  BSF    xF7.2
....................                else 
0DD02:  BRA    DD08
....................                   BombaVacio=OFF; 
0DD04:  MOVLB  0
0DD06:  BCF    xF7.2
....................                outVacio=OFF; 
0DD08:  BCF    xF7.7
....................                Desfogue=OFF; 
0DD0A:  BCF    xF8.0
....................                Aire=OFF;                      
0DD0C:  BCF    xF8.1
....................                Paso=ON;      
0DD0E:  BSF    xF7.6
....................                AguaEnfriador=OFF; 
0DD10:  BCF    xF7.1
....................                if(PresionCamara>=Atmosferica+50){ 
0DD12:  MOVLW  32
0DD14:  MOVLB  2
0DD16:  ADDWF  xA8,W
0DD18:  MOVF   x7D,F
0DD1A:  BNZ   DD20
0DD1C:  SUBWF  x7C,W
0DD1E:  BNC   DD2A
....................                   Paso=OFF; 
0DD20:  MOVLB  0
0DD22:  BCF    xF7.6
....................                   PulsoPositivo=10; 
0DD24:  MOVLW  0A
0DD26:  MOVLB  2
0DD28:  MOVWF  xA9
....................                }   
....................             } 
....................                 
....................             if(tbomba>=120 && PulsosVacio==0){//Si no se ha generado ningun pulso de vacio despues de 120 segundos se genera alarma 
0DD2A:  MOVF   x83,F
0DD2C:  BNZ   DD34
0DD2E:  MOVF   x82,W
0DD30:  SUBLW  77
0DD32:  BC    DD54
0DD34:  MOVF   xAA,F
0DD36:  BNZ   DD54
....................                if(PresionCamara>Atmosferica){ 
0DD38:  MOVF   x7D,F
0DD3A:  BNZ   DD42
0DD3C:  MOVF   x7C,W
0DD3E:  SUBWF  xA8,W
0DD40:  BC    DD4A
....................                   AlarmaBomba=ON; 
0DD42:  MOVLB  0
0DD44:  BSF    xFA.2
....................                }else{ 
0DD46:  BRA    DD54
0DD48:  MOVLB  2
....................                   tbomba=0; 
0DD4A:  CLRF   x83
0DD4C:  CLRF   x82
....................                   IniciaVacio2=OFF; 
0DD4E:  MOVLB  1
0DD50:  BCF    x07.5
0DD52:  MOVLB  0
....................                } 
....................              } 
....................                 
....................             if(tvacio>=TiempoVacio){//Si excede el tiempo maximo para generar los pulsos de vacio genera alarma             
0DD54:  MOVLB  0
0DD56:  MOVF   xFD,W
0DD58:  MOVLB  2
0DD5A:  SUBWF  x85,W
0DD5C:  BNC   DD70
0DD5E:  BNZ   DD6A
0DD60:  MOVLB  0
0DD62:  MOVF   xFC,W
0DD64:  MOVLB  2
0DD66:  SUBWF  x84,W
0DD68:  BNC   DD70
....................                AlarmaVacio=ON; 
0DD6A:  MOVLB  0
0DD6C:  BSF    xF9.7
0DD6E:  MOVLB  2
....................             } 
....................          }else{ 
0DD70:  BRA    E2B8
0DD72:  MOVLB  1
....................             IniciaVacio=OFF;         
0DD74:  BCF    x07.4
....................             if(Temperatura>=((float)Setpoint-0.3)){ 
0DD76:  MOVLB  6
0DD78:  CLRF   xC8
0DD7A:  MOVFF  26B,6C7
0DD7E:  MOVLB  0
0DD80:  CALL   2082
0DD84:  MOVFF  00,6B5
0DD88:  MOVFF  01,6B6
0DD8C:  MOVFF  02,6B7
0DD90:  MOVFF  03,6B8
0DD94:  BSF    FD8.1
0DD96:  MOVFF  03,6CA
0DD9A:  MOVFF  02,6C9
0DD9E:  MOVFF  01,6C8
0DDA2:  MOVFF  00,6C7
0DDA6:  MOVLW  9A
0DDA8:  MOVLB  6
0DDAA:  MOVWF  xCE
0DDAC:  MOVLW  99
0DDAE:  MOVWF  xCD
0DDB0:  MOVLW  19
0DDB2:  MOVWF  xCC
0DDB4:  MOVLW  7D
0DDB6:  MOVWF  xCB
0DDB8:  MOVLB  0
0DDBA:  CALL   223E
0DDBE:  MOVFF  03,6BC
0DDC2:  MOVFF  02,6BB
0DDC6:  MOVFF  01,6BA
0DDCA:  MOVFF  00,6B9
0DDCE:  MOVFF  23F,6C0
0DDD2:  MOVFF  23E,6BF
0DDD6:  MOVFF  23D,6BE
0DDDA:  MOVFF  23C,6BD
0DDDE:  CALL   2714
0DDE2:  BC    DDE6
0DDE4:  BNZ   DDEA
....................                Esterilizando=ON; 
0DDE6:  MOVLB  1
0DDE8:  BSF    x03.3
....................             } 
....................              
....................             if(Temperatura<((float)Setpoint-0.9) && !Desfogando){ 
0DDEA:  MOVLB  6
0DDEC:  CLRF   xC8
0DDEE:  MOVFF  26B,6C7
0DDF2:  MOVLB  0
0DDF4:  CALL   2082
0DDF8:  MOVFF  00,6B5
0DDFC:  MOVFF  01,6B6
0DE00:  MOVFF  02,6B7
0DE04:  MOVFF  03,6B8
0DE08:  BSF    FD8.1
0DE0A:  MOVFF  03,6CA
0DE0E:  MOVFF  02,6C9
0DE12:  MOVFF  01,6C8
0DE16:  MOVFF  00,6C7
0DE1A:  MOVLW  66
0DE1C:  MOVLB  6
0DE1E:  MOVWF  xCE
0DE20:  MOVWF  xCD
0DE22:  MOVWF  xCC
0DE24:  MOVLW  7E
0DE26:  MOVWF  xCB
0DE28:  MOVLB  0
0DE2A:  CALL   223E
0DE2E:  MOVFF  23F,6BC
0DE32:  MOVFF  23E,6BB
0DE36:  MOVFF  23D,6BA
0DE3A:  MOVFF  23C,6B9
0DE3E:  MOVFF  03,6C0
0DE42:  MOVFF  02,6BF
0DE46:  MOVFF  01,6BE
0DE4A:  MOVFF  00,6BD
0DE4E:  CALL   2714
0DE52:  BNC   DE60
0DE54:  MOVLB  1
0DE56:  BTFSS  x03.6
0DE58:  BRA    DE5E
0DE5A:  MOVLB  0
0DE5C:  BRA    DE60
....................                Esterilizando=OFF; 
0DE5E:  BCF    x03.3
....................             } 
....................              
....................             if(!Esterilizando){ 
0DE60:  MOVLB  1
0DE62:  BTFSC  x03.3
0DE64:  BRA    DEC6
....................                codigoAlarma=12; 
0DE66:  MOVLW  0C
0DE68:  MOVLB  2
0DE6A:  MOVWF  x97
....................                if(codigoAnt!=codigoAlarma){ 
0DE6C:  MOVF   x97,W
0DE6E:  SUBWF  x98,W
0DE70:  BZ    DE7C
....................                   codigoAnt=codigoAlarma; 
0DE72:  MOVFF  297,298
....................                   GuardaDatoCiclo();                   
0DE76:  MOVLB  0
0DE78:  CALL   7096
....................                } 
....................                flag_vac=OFF; 
0DE7C:  MOVLB  1
0DE7E:  BCF    x07.7
....................                printf("Funcionamiento.t4f.txt=\" Ninguna\""); 
0DE80:  MOVLW  FE
0DE82:  MOVWF  FF6
0DE84:  MOVLW  19
0DE86:  MOVWF  FF7
0DE88:  MOVLW  00
0DE8A:  MOVWF  FF8
0DE8C:  MOVLB  0
0DE8E:  CALL   4138
....................                SendDataDisplay(); 
0DE92:  CALL   416A
....................                printf("Funcionamiento.t5f.txt=\" Calentando\""); 
0DE96:  MOVLW  20
0DE98:  MOVWF  FF6
0DE9A:  MOVLW  1A
0DE9C:  MOVWF  FF7
0DE9E:  MOVLW  00
0DEA0:  MOVWF  FF8
0DEA2:  CALL   4138
....................                SendDataDisplay(); 
0DEA6:  CALL   416A
....................                Controlando=1; 
0DEAA:  MOVLW  01
0DEAC:  MOVLB  2
0DEAE:  MOVWF  x56
....................                Controla(); 
0DEB0:  MOVLB  0
0DEB2:  CALL   75A4
....................                Paso=ON; 
0DEB6:  BSF    xF7.6
....................                BombaVacio=OFF; 
0DEB8:  BCF    xF7.2
....................                outVacio=OFF; 
0DEBA:  BCF    xF7.7
....................                Aire=OFF; 
0DEBC:  BCF    xF8.1
....................                Desfogue=OFF; 
0DEBE:  BCF    xF8.0
....................                aguaEnfriador=OFF; 
0DEC0:  BCF    xF7.1
....................             }else{ 
0DEC2:  BRA    E2B6
0DEC4:  MOVLB  1
....................                TiempoCiclo=0; 
0DEC6:  CLRF   x0B
0DEC8:  CLRF   x0A
....................                if(mEst==0 && sEst==0){  
0DECA:  MOVF   x23,F
0DECC:  BTFSS  FD8.2
0DECE:  BRA    E268
0DED0:  MOVF   x22,F
0DED2:  BTFSS  FD8.2
0DED4:  BRA    E268
....................                   if(desfoguelento){ 
0DED6:  BTFSS  x09.7
0DED8:  BRA    E024
....................                      Controlando=0; 
0DEDA:  MOVLB  2
0DEDC:  CLRF   x56
....................                      if(PresionCamara<(Atmosferica+2)){ 
0DEDE:  MOVLW  02
0DEE0:  ADDWF  xA8,W
0DEE2:  MOVF   x7D,F
0DEE4:  BNZ   DFB8
0DEE6:  SUBWF  x7C,W
0DEE8:  BC    DFB8
....................                         Secando=OFF; 
0DEEA:  MOVLB  1
0DEEC:  BCF    x03.4
....................                         DesfogueSuave=OFF; 
0DEEE:  BCF    x03.7
....................                         if(!abrirPuertaL){ 
0DEF0:  MOVLB  0
0DEF2:  BTFSC  xFB.4
0DEF4:  BRA    DEF8
....................                            BombaVacio=OFF; 
0DEF6:  BCF    xF7.2
....................                         } 
....................                         outVacio=OFF; 
0DEF8:  BCF    xF7.7
....................                         Aire=OFF; 
0DEFA:  BCF    xF8.1
....................                         Desfogue=ON; 
0DEFC:  BSF    xF8.0
....................                         Paso=OFF; 
0DEFE:  BCF    xF7.6
....................                         //Suministro_off; 
....................                         aguaEnfriador=OFF; 
0DF00:  BCF    xF7.1
....................                         if(Temperatura<=Tapertura){ 
0DF02:  MOVLB  6
0DF04:  CLRF   xC8
0DF06:  MOVFF  264,6C7
0DF0A:  MOVLB  0
0DF0C:  CALL   2082
0DF10:  MOVFF  23F,6BC
0DF14:  MOVFF  23E,6BB
0DF18:  MOVFF  23D,6BA
0DF1C:  MOVFF  23C,6B9
0DF20:  MOVFF  03,6C0
0DF24:  MOVFF  02,6BF
0DF28:  MOVFF  01,6BE
0DF2C:  MOVFF  00,6BD
0DF30:  CALL   2714
0DF34:  BC    DF38
0DF36:  BNZ   DFB0
....................                            ActivaAlarma(2); 
0DF38:  MOVLW  02
0DF3A:  MOVLB  6
0DF3C:  MOVWF  xB5
0DF3E:  MOVLB  0
0DF40:  CALL   5AA8
....................                            printf("Funcionamiento.t4f.txt=\" Ninguna\""); 
0DF44:  MOVLW  46
0DF46:  MOVWF  FF6
0DF48:  MOVLW  1A
0DF4A:  MOVWF  FF7
0DF4C:  MOVLW  00
0DF4E:  MOVWF  FF8
0DF50:  CALL   4138
....................                            SendDataDisplay(); 
0DF54:  CALL   416A
....................                            printf("Funcionamiento.t5f.txt=\" Finalizado\""); 
0DF58:  MOVLW  68
0DF5A:  MOVWF  FF6
0DF5C:  MOVLW  1A
0DF5E:  MOVWF  FF7
0DF60:  MOVLW  00
0DF62:  MOVWF  FF8
0DF64:  CALL   4138
....................                            SendDataDisplay(); 
0DF68:  CALL   416A
....................                            Finalizo=ON; 
0DF6C:  MOVLB  1
0DF6E:  BSF    x06.4
....................                            codigoAlarma=14; 
0DF70:  MOVLW  0E
0DF72:  MOVLB  2
0DF74:  MOVWF  x97
....................                            if(codigoAnt!=codigoAlarma){ 
0DF76:  MOVF   x97,W
0DF78:  SUBWF  x98,W
0DF7A:  BZ    DF86
....................                               codigoAnt=codigoAlarma; 
0DF7C:  MOVFF  297,298
....................                               GuardaDatoCiclo();                   
0DF80:  MOVLB  0
0DF82:  CALL   7096
....................                            }                           
....................                            if(!flagImprimir){//Imprime Ciclo Finalizado 
0DF86:  MOVLB  1
0DF88:  BTFSC  x09.0
0DF8A:  BRA    DFAE
....................                               Imprime=28; 
0DF8C:  MOVLW  1C
0DF8E:  MOVLB  2
0DF90:  MOVWF  xB2
....................                               Envio_Esclavos(); 
0DF92:  MOVLB  0
0DF94:  CALL   5734
....................                               delay_ms(100); 
0DF98:  MOVLW  64
0DF9A:  MOVLB  6
0DF9C:  MOVWF  xC7
0DF9E:  MOVLB  0
0DFA0:  CALL   20B8
....................                               Imprime=10; 
0DFA4:  MOVLW  0A
0DFA6:  MOVLB  2
0DFA8:  MOVWF  xB2
....................                               flagImprimir=1; 
0DFAA:  MOVLB  1
0DFAC:  BSF    x09.0
0DFAE:  MOVLB  0
....................                            } 
....................                         } 
....................                         incrementaCiclos(); 
0DFB0:  CALL   7444
....................                      }else if(PresionCamara>(Atmosferica+10)){ 
0DFB4:  BRA    E01E
0DFB6:  MOVLB  2
0DFB8:  MOVLW  0A
0DFBA:  ADDWF  xA8,W
0DFBC:  MOVF   x7D,F
0DFBE:  BNZ   DFC6
0DFC0:  SUBWF  x7C,W
0DFC2:  BZ    E020
0DFC4:  BNC   E020
....................                         codigoAlarma=13; 
0DFC6:  MOVLW  0D
0DFC8:  MOVWF  x97
....................                         if(codigoAnt!=codigoAlarma){ 
0DFCA:  MOVF   x97,W
0DFCC:  SUBWF  x98,W
0DFCE:  BZ    DFDA
....................                            codigoAnt=codigoAlarma; 
0DFD0:  MOVFF  297,298
....................                            GuardaDatoCiclo();                   
0DFD4:  MOVLB  0
0DFD6:  CALL   7096
....................                         } 
....................                         Desfogando=ON; 
0DFDA:  MOVLB  1
0DFDC:  BSF    x03.6
....................                         DesfogueSuave=ON; 
0DFDE:  BSF    x03.7
....................                         printf("Funcionamiento.t4f.txt=\" Ninguna\""); 
0DFE0:  MOVLW  8E
0DFE2:  MOVWF  FF6
0DFE4:  MOVLW  1A
0DFE6:  MOVWF  FF7
0DFE8:  MOVLW  00
0DFEA:  MOVWF  FF8
0DFEC:  MOVLB  0
0DFEE:  CALL   4138
....................                         SendDataDisplay(); 
0DFF2:  CALL   416A
....................                         printf("Funcionamiento.t5f.txt=\" Despresurizando\""); 
0DFF6:  MOVLW  B0
0DFF8:  MOVWF  FF6
0DFFA:  MOVLW  1A
0DFFC:  MOVWF  FF7
0DFFE:  MOVLW  00
0E000:  MOVWF  FF8
0E002:  CALL   4138
....................                         SendDataDisplay(); 
0E006:  CALL   416A
....................                         Controlando=0; 
0E00A:  MOVLB  2
0E00C:  CLRF   x56
....................                         Desfogue=ON; 
0E00E:  MOVLB  0
0E010:  BSF    xF8.0
....................                         Paso=ON; 
0E012:  BSF    xF7.6
....................                         BombaVacio=OFF; 
0E014:  BCF    xF7.2
....................                         aguaEnfriador=OFF; 
0E016:  BCF    xF7.1
....................                         outVacio=OFF; 
0E018:  BCF    xF7.7
....................                         Aire=OFF;  
0E01A:  BCF    xF8.1
....................                         suministroVapor=OFF; 
0E01C:  BCF    xF7.5
0E01E:  MOVLB  2
....................                      } 
....................                   }else{                      
0E020:  BRA    E264
0E022:  MOVLB  1
....................                      Paso=OFF; 
0E024:  MOVLB  0
0E026:  BCF    xF7.6
....................                      Controlando=0; 
0E028:  MOVLB  2
0E02A:  CLRF   x56
....................                      Control=0; 
0E02C:  CLRF   x54
....................                      if(PresionCamara<(Atmosferica+2)){   
0E02E:  MOVLW  02
0E030:  ADDWF  xA8,W
0E032:  MOVF   x7D,F
0E034:  BTFSS  FD8.2
0E036:  BRA    E1EC
0E038:  SUBWF  x7C,W
0E03A:  BTFSC  FD8.0
0E03C:  BRA    E1EC
....................                         if(sSec==0 && mSec==0){                           
0E03E:  MOVLB  1
0E040:  MOVF   x24,F
0E042:  BTFSS  FD8.2
0E044:  BRA    E148
0E046:  MOVF   x25,F
0E048:  BTFSS  FD8.2
0E04A:  BRA    E148
....................                            codigoAlarma=15; 
0E04C:  MOVLW  0F
0E04E:  MOVLB  2
0E050:  MOVWF  x97
....................                            if(codigoAnt!=codigoAlarma){ 
0E052:  MOVF   x97,W
0E054:  SUBWF  x98,W
0E056:  BZ    E064
....................                               codigoAnt=codigoAlarma; 
0E058:  MOVFF  297,298
....................                               GuardaDatoCiclo();                   
0E05C:  MOVLB  0
0E05E:  CALL   7096
0E062:  MOVLB  2
....................                            } 
....................                            if(!DOORS){ 
0E064:  BSF    F93.3
0E066:  BTFSS  F81.3
0E068:  BRA    E074
....................                               Desfogue=OFF; 
0E06A:  MOVLB  0
0E06C:  BCF    xF8.0
....................                               Paso=OFF; 
0E06E:  BCF    xF7.6
....................                            }else{ 
0E070:  BRA    E07A
0E072:  MOVLB  2
....................                               Desfogue=ON;                               
0E074:  MOVLB  0
0E076:  BSF    xF8.0
....................                               Paso=OFF; 
0E078:  BCF    xF7.6
....................                            }     
....................                            if(!abrirPuertaL){ 
0E07A:  BTFSC  xFB.4
0E07C:  BRA    E080
....................                               BombaVacio=OFF; 
0E07E:  BCF    xF7.2
....................                            } 
....................                            aguaEnfriador=OFF; 
0E080:  BCF    xF7.1
....................                            outVacio=OFF; 
0E082:  BCF    xF7.7
....................                            Aire=ON; 
0E084:  BSF    xF8.1
....................                            Desfogue=ON; 
0E086:  BSF    xF8.0
....................                            Paso=OFF; 
0E088:  BCF    xF7.6
....................                            suministroVapor=OFF; 
0E08A:  BCF    xF7.5
....................                            Secando=OFF; 
0E08C:  MOVLB  1
0E08E:  BCF    x03.4
....................                            if(Temperatura<=Tapertura){ 
0E090:  MOVLB  6
0E092:  CLRF   xC8
0E094:  MOVFF  264,6C7
0E098:  MOVLB  0
0E09A:  CALL   2082
0E09E:  MOVFF  23F,6BC
0E0A2:  MOVFF  23E,6BB
0E0A6:  MOVFF  23D,6BA
0E0AA:  MOVFF  23C,6B9
0E0AE:  MOVFF  03,6C0
0E0B2:  MOVFF  02,6BF
0E0B6:  MOVFF  01,6BE
0E0BA:  MOVFF  00,6BD
0E0BE:  CALL   2714
0E0C2:  BC    E0C6
0E0C4:  BNZ   E13E
....................                               ActivaAlarma(2); 
0E0C6:  MOVLW  02
0E0C8:  MOVLB  6
0E0CA:  MOVWF  xB5
0E0CC:  MOVLB  0
0E0CE:  CALL   5AA8
....................                               printf("Funcionamiento.t4f.txt=\" Ninguna\""); 
0E0D2:  MOVLW  DA
0E0D4:  MOVWF  FF6
0E0D6:  MOVLW  1A
0E0D8:  MOVWF  FF7
0E0DA:  MOVLW  00
0E0DC:  MOVWF  FF8
0E0DE:  CALL   4138
....................                               SendDataDisplay(); 
0E0E2:  CALL   416A
....................                               printf("Funcionamiento.t5f.txt=\" Finalizado\""); 
0E0E6:  MOVLW  FC
0E0E8:  MOVWF  FF6
0E0EA:  MOVLW  1A
0E0EC:  MOVWF  FF7
0E0EE:  MOVLW  00
0E0F0:  MOVWF  FF8
0E0F2:  CALL   4138
....................                               SendDataDisplay(); 
0E0F6:  CALL   416A
....................                               Finalizo=ON; 
0E0FA:  MOVLB  1
0E0FC:  BSF    x06.4
....................                               codigoAlarma=14; 
0E0FE:  MOVLW  0E
0E100:  MOVLB  2
0E102:  MOVWF  x97
....................                               if(codigoAnt!=codigoAlarma){ 
0E104:  MOVF   x97,W
0E106:  SUBWF  x98,W
0E108:  BZ    E114
....................                                  codigoAnt=codigoAlarma; 
0E10A:  MOVFF  297,298
....................                                  GuardaDatoCiclo();                   
0E10E:  MOVLB  0
0E110:  CALL   7096
....................                               } 
....................                               if(!flagImprimir){//Imprime Ciclo Finalizado 
0E114:  MOVLB  1
0E116:  BTFSC  x09.0
0E118:  BRA    E13C
....................                                  Imprime=28; 
0E11A:  MOVLW  1C
0E11C:  MOVLB  2
0E11E:  MOVWF  xB2
....................                                  Envio_Esclavos(); 
0E120:  MOVLB  0
0E122:  CALL   5734
....................                                  delay_ms(100); 
0E126:  MOVLW  64
0E128:  MOVLB  6
0E12A:  MOVWF  xC7
0E12C:  MOVLB  0
0E12E:  CALL   20B8
....................                                  Imprime=10; 
0E132:  MOVLW  0A
0E134:  MOVLB  2
0E136:  MOVWF  xB2
....................                                  flagImprimir=1; 
0E138:  MOVLB  1
0E13A:  BSF    x09.0
0E13C:  MOVLB  0
....................                               } 
....................                            } 
....................                            incrementaCiclos(); 
0E13E:  CALL   7444
....................                            Secando=OFF; 
0E142:  MOVLB  1
0E144:  BCF    x03.4
....................                         }else{ 
0E146:  BRA    E1E8
....................                            if(Secando){ 
0E148:  BTFSS  x03.4
0E14A:  BRA    E176
....................                               printf("Funcionamiento.t4f.txt=\" Ninguna\""); 
0E14C:  MOVLW  22
0E14E:  MOVWF  FF6
0E150:  MOVLW  1B
0E152:  MOVWF  FF7
0E154:  MOVLW  00
0E156:  MOVWF  FF8
0E158:  MOVLB  0
0E15A:  CALL   4138
....................                               SendDataDisplay(); 
0E15E:  CALL   416A
....................                               printf("Funcionamiento.t5f.txt=\" Secando\""); 
0E162:  MOVLW  44
0E164:  MOVWF  FF6
0E166:  MOVLW  1B
0E168:  MOVWF  FF7
0E16A:  MOVLW  00
0E16C:  MOVWF  FF8
0E16E:  CALL   4138
....................                               SendDataDisplay(); 
0E172:  CALL   416A
....................                            } 
....................                            Paso=OFF; 
0E176:  MOVLB  0
0E178:  BCF    xF7.6
....................                            ControlaPresion(); 
0E17A:  CALL   74D6
....................                            if(PresionCamara>NivelVacio+5){//Si la presin de la camara es mayor al nivel de vacio 
0E17E:  MOVLW  05
0E180:  MOVLB  2
0E182:  ADDWF  xA7,W
0E184:  MOVF   x7D,F
0E186:  BNZ   E18E
0E188:  SUBWF  x7C,W
0E18A:  BZ    E1AA
0E18C:  BNC   E1AA
....................                               if(ReservorioLleno) 
0E18E:  MOVLB  1
0E190:  BTFSS  x09.5
0E192:  BRA    E19A
....................                                  BombaVacio=ON; 
0E194:  MOVLB  0
0E196:  BSF    xF7.2
....................                               else 
0E198:  BRA    E19E
....................                                  BombaVacio=ON; 
0E19A:  MOVLB  0
0E19C:  BSF    xF7.2
....................                               outVacio=ON; 
0E19E:  BSF    xF7.7
....................                               aguaEnfriador=ON; 
0E1A0:  BSF    xF7.1
....................                               Desfogue=OFF; 
0E1A2:  BCF    xF8.0
....................                               Aire=OFF; 
0E1A4:  BCF    xF8.1
....................                               Paso=OFF; 
0E1A6:  BCF    xF7.6
0E1A8:  MOVLB  2
....................                            } 
....................        
....................                            if(PresionCamara<=NivelVacio){//Si alcanzo el nivel de vacio requerido 
0E1AA:  MOVF   x7D,F
0E1AC:  BNZ   E1E6
0E1AE:  MOVF   x7C,W
0E1B0:  SUBWF  xA7,W
0E1B2:  BNC   E1E6
....................                               codigoAlarma=15; 
0E1B4:  MOVLW  0F
0E1B6:  MOVWF  x97
....................                               if(codigoAnt!=codigoAlarma){ 
0E1B8:  MOVF   x97,W
0E1BA:  SUBWF  x98,W
0E1BC:  BZ    E1C8
....................                                  codigoAnt=codigoAlarma; 
0E1BE:  MOVFF  297,298
....................                                  GuardaDatoCiclo();                   
0E1C2:  MOVLB  0
0E1C4:  CALL   7096
....................                               } 
....................                               Secando=ON; 
0E1C8:  MOVLB  1
0E1CA:  BSF    x03.4
....................                               if(ReservorioLleno) 
0E1CC:  BTFSS  x09.5
0E1CE:  BRA    E1D6
....................                                  BombaVacio=ON; 
0E1D0:  MOVLB  0
0E1D2:  BSF    xF7.2
....................                               else 
0E1D4:  BRA    E1DA
....................                                  BombaVacio=OFF; 
0E1D6:  MOVLB  0
0E1D8:  BCF    xF7.2
....................                               aguaEnfriador=ON; 
0E1DA:  BSF    xF7.1
....................                               outVacio=ON; 
0E1DC:  BSF    xF7.7
....................                               Desfogue=OFF; 
0E1DE:  BCF    xF8.0
....................                               Aire=ON;                      
0E1E0:  BSF    xF8.1
....................                               Paso=OFF; 
0E1E2:  BCF    xF7.6
0E1E4:  MOVLB  2
0E1E6:  MOVLB  1
....................                            } 
....................                         } 
....................                      }else if(PresionCamara>(Atmosferica+5)){ 
0E1E8:  BRA    E262
0E1EA:  MOVLB  2
0E1EC:  MOVLW  05
0E1EE:  ADDWF  xA8,W
0E1F0:  MOVF   x7D,F
0E1F2:  BNZ   E1FA
0E1F4:  SUBWF  x7C,W
0E1F6:  BZ    E260
0E1F8:  BNC   E260
....................                         codigoAlarma=13; 
0E1FA:  MOVLW  0D
0E1FC:  MOVWF  x97
....................                         if(codigoAnt!=codigoAlarma){ 
0E1FE:  MOVF   x97,W
0E200:  SUBWF  x98,W
0E202:  BZ    E20E
....................                            codigoAnt=codigoAlarma; 
0E204:  MOVFF  297,298
....................                            GuardaDatoCiclo();                   
0E208:  MOVLB  0
0E20A:  CALL   7096
....................                         } 
....................                         Desfogando=ON; 
0E20E:  MOVLB  1
0E210:  BSF    x03.6
....................                         printf("Funcionamiento.t4f.txt=\" Ninguna\""); 
0E212:  MOVLW  66
0E214:  MOVWF  FF6
0E216:  MOVLW  1B
0E218:  MOVWF  FF7
0E21A:  MOVLW  00
0E21C:  MOVWF  FF8
0E21E:  MOVLB  0
0E220:  CALL   4138
....................                         SendDataDisplay(); 
0E224:  CALL   416A
....................                         printf("Funcionamiento.t5f.txt=\" Despresurizando\""); 
0E228:  MOVLW  88
0E22A:  MOVWF  FF6
0E22C:  MOVLW  1B
0E22E:  MOVWF  FF7
0E230:  MOVLW  00
0E232:  MOVWF  FF8
0E234:  CALL   4138
....................                         SendDataDisplay(); 
0E238:  CALL   416A
....................                         Control=0; 
0E23C:  MOVLB  2
0E23E:  CLRF   x54
....................                         Controlando=0; 
0E240:  CLRF   x56
....................                         Paso=OFF; 
0E242:  MOVLB  0
0E244:  BCF    xF7.6
....................                         Desfogue=OFF; 
0E246:  BCF    xF8.0
....................                         if(ReservorioLleno) 
0E248:  MOVLB  1
0E24A:  BTFSS  x09.5
0E24C:  BRA    E254
....................                            BombaVacio=ON; 
0E24E:  MOVLB  0
0E250:  BSF    xF7.2
....................                         else 
0E252:  BRA    E258
....................                            BombaVacio=OFF;    
0E254:  MOVLB  0
0E256:  BCF    xF7.2
....................                         aguaEnfriador=ON; 
0E258:  BSF    xF7.1
....................                         outVacio=ON; 
0E25A:  BSF    xF7.7
....................                         Aire=OFF; 
0E25C:  BCF    xF8.1
....................                         suministroVapor=OFF; 
0E25E:  BCF    xF7.5
0E260:  MOVLB  1
0E262:  MOVLB  2
....................                      } 
....................                   } 
....................                }else{ 
0E264:  BRA    E2B8
0E266:  MOVLB  1
....................                   codigoAlarma=16; 
0E268:  MOVLW  10
0E26A:  MOVLB  2
0E26C:  MOVWF  x97
....................                   if(codigoAnt!=codigoAlarma){ 
0E26E:  MOVF   x97,W
0E270:  SUBWF  x98,W
0E272:  BZ    E280
....................                      codigoAnt=codigoAlarma; 
0E274:  MOVFF  297,298
....................                      GuardaDatoCiclo();                   
0E278:  MOVLB  0
0E27A:  CALL   7096
0E27E:  MOVLB  2
....................                   } 
....................                   printf("Funcionamiento.t4f.txt=\" Ninguna\""); 
0E280:  MOVLW  B2
0E282:  MOVWF  FF6
0E284:  MOVLW  1B
0E286:  MOVWF  FF7
0E288:  MOVLW  00
0E28A:  MOVWF  FF8
0E28C:  MOVLB  0
0E28E:  CALL   4138
....................                   SendDataDisplay(); 
0E292:  CALL   416A
....................                   printf("Funcionamiento.t5f.txt=\" Esterilizando\""); 
0E296:  MOVLW  D4
0E298:  MOVWF  FF6
0E29A:  MOVLW  1B
0E29C:  MOVWF  FF7
0E29E:  MOVLW  00
0E2A0:  MOVWF  FF8
0E2A2:  CALL   4138
....................                   SendDataDisplay(); 
0E2A6:  CALL   416A
....................                   //Paso_on; 
....................                   Control=1; 
0E2AA:  MOVLW  01
0E2AC:  MOVLB  2
0E2AE:  MOVWF  x54
....................                   Controla(); 
0E2B0:  MOVLB  0
0E2B2:  CALL   75A4
0E2B6:  MOVLB  2
....................                } 
....................             } 
....................          } 
....................       }  
....................       }else{ 
0E2B8:  BRA    E510
0E2BA:  MOVLB  1
....................       EstadoBuzzer=OFF; 
0E2BC:  BCF    x06.0
....................       IniciaCiclo=ON; 
0E2BE:  BSF    x03.2
....................          if(!flag_vac){ 
0E2C0:  BTFSC  x07.7
0E2C2:  BRA    E30A
....................             codigoAlarma=11; 
0E2C4:  MOVLW  0B
0E2C6:  MOVLB  2
0E2C8:  MOVWF  x97
....................             if(codigoAnt!=codigoAlarma){ 
0E2CA:  MOVF   x97,W
0E2CC:  SUBWF  x98,W
0E2CE:  BZ    E2DA
....................                codigoAnt=codigoAlarma; 
0E2D0:  MOVFF  297,298
....................                GuardaDatoCiclo();                
0E2D4:  MOVLB  0
0E2D6:  CALL   7096
....................             } 
....................             flag_vac=ON; 
0E2DA:  MOVLB  1
0E2DC:  BSF    x07.7
....................             if(ReservorioLleno) 
0E2DE:  BTFSS  x09.5
0E2E0:  BRA    E2E8
....................                BombaVacio=ON; 
0E2E2:  MOVLB  0
0E2E4:  BSF    xF7.2
....................             else 
0E2E6:  BRA    E2EC
....................                BombaVacio=OFF; 
0E2E8:  MOVLB  0
0E2EA:  BCF    xF7.2
....................             Desfogue=OFF; 
0E2EC:  BCF    xF8.0
....................             Aire=OFF; 
0E2EE:  BCF    xF8.1
....................             aguaEnfriador=OFF; 
0E2F0:  BCF    xF7.1
....................             Paso=OFF; 
0E2F2:  BCF    xF7.6
....................             suministroVapor=OFF; 
0E2F4:  BCF    xF7.5
....................             delay_ms(70); 
0E2F6:  MOVLW  46
0E2F8:  MOVLB  6
0E2FA:  MOVWF  xC7
0E2FC:  MOVLB  0
0E2FE:  CALL   20B8
....................             IniciaVacio2=ON; 
0E302:  MOVLB  1
0E304:  BSF    x07.5
....................             outVacio=ON; 
0E306:  MOVLB  0
0E308:  BSF    xF7.7
....................          } 
....................           
....................          if(tbomba>=120){ 
0E30A:  MOVLB  2
0E30C:  MOVF   x83,F
0E30E:  BNZ   E316
0E310:  MOVF   x82,W
0E312:  SUBLW  77
0E314:  BC    E332
....................             if(PresionCamara>Atmosferica){ 
0E316:  MOVF   x7D,F
0E318:  BNZ   E320
0E31A:  MOVF   x7C,W
0E31C:  SUBWF  xA8,W
0E31E:  BC    E328
....................                AlarmaBomba=ON; 
0E320:  MOVLB  0
0E322:  BSF    xFA.2
....................             }else{ 
0E324:  BRA    E332
0E326:  MOVLB  2
....................                tbomba=0; 
0E328:  CLRF   x83
0E32A:  CLRF   x82
....................                IniciaVacio2=OFF; 
0E32C:  MOVLB  1
0E32E:  BCF    x07.5
0E330:  MOVLB  0
....................             } 
....................          } 
....................           
....................          if(tvacio>=TiempoVacio){//Si excede el tiempo maximo para generar los pulsos de vacio genera alarma             
0E332:  MOVLB  0
0E334:  MOVF   xFD,W
0E336:  MOVLB  2
0E338:  SUBWF  x85,W
0E33A:  BNC   E34E
0E33C:  BNZ   E348
0E33E:  MOVLB  0
0E340:  MOVF   xFC,W
0E342:  MOVLB  2
0E344:  SUBWF  x84,W
0E346:  BNC   E34E
....................                AlarmaVacio=ON; 
0E348:  MOVLB  0
0E34A:  BSF    xF9.7
0E34C:  MOVLB  2
....................          } 
....................           
....................          if(PresionCamara<=17){ 
0E34E:  MOVF   x7D,F
0E350:  BNZ   E374
0E352:  MOVF   x7C,W
0E354:  SUBLW  11
0E356:  BNC   E374
....................             BombaVacio=OFF; 
0E358:  MOVLB  0
0E35A:  BCF    xF7.2
....................             outVacio=OFF; 
0E35C:  BCF    xF7.7
....................             Desfogue=OFF; 
0E35E:  BCF    xF8.0
....................             Aire=OFF; 
0E360:  BCF    xF8.1
....................             aguaEnfriador=OFF; 
0E362:  BCF    xF7.1
....................             Paso=OFF; 
0E364:  BCF    xF7.6
....................             suministroVapor=OFF; 
0E366:  BCF    xF7.5
....................             Esterilizando=ON; 
0E368:  MOVLB  1
0E36A:  BSF    x03.3
....................             IniciaVacio=OFF; 
0E36C:  BCF    x07.4
....................             tbomba=0; 
0E36E:  MOVLB  2
0E370:  CLRF   x83
0E372:  CLRF   x82
....................          }  
....................           
....................          if(!Finalizo){ 
0E374:  MOVLB  1
0E376:  BTFSC  x06.4
0E378:  BRA    E3E4
....................             if(!Esterilizando){ 
0E37A:  BTFSC  x03.3
0E37C:  BRA    E3B8
....................                if(ReservorioLleno) 
0E37E:  BTFSS  x09.5
0E380:  BRA    E388
....................                   BombaVacio=ON; 
0E382:  MOVLB  0
0E384:  BSF    xF7.2
....................                else 
0E386:  BRA    E38C
....................                   BombaVacio=OFF; 
0E388:  MOVLB  0
0E38A:  BCF    xF7.2
....................                 
....................                printf("Funcionamiento.t4f.txt=\" Ninguna\""); 
0E38C:  MOVLW  FC
0E38E:  MOVWF  FF6
0E390:  MOVLW  1B
0E392:  MOVWF  FF7
0E394:  MOVLW  00
0E396:  MOVWF  FF8
0E398:  CALL   4138
....................                SendDataDisplay(); 
0E39C:  CALL   416A
....................                printf("Funcionamiento.t5f.txt=\" Vacio\""); 
0E3A0:  MOVLW  1E
0E3A2:  MOVWF  FF6
0E3A4:  MOVLW  1C
0E3A6:  MOVWF  FF7
0E3A8:  MOVLW  00
0E3AA:  MOVWF  FF8
0E3AC:  CALL   4138
....................                SendDataDisplay(); 
0E3B0:  CALL   416A
....................             }else{ 
0E3B4:  BRA    E3E2
0E3B6:  MOVLB  1
....................                printf("Funcionamiento.t4f.txt=\" Ninguna\""); 
0E3B8:  MOVLW  3E
0E3BA:  MOVWF  FF6
0E3BC:  MOVLW  1C
0E3BE:  MOVWF  FF7
0E3C0:  MOVLW  00
0E3C2:  MOVWF  FF8
0E3C4:  MOVLB  0
0E3C6:  CALL   4138
....................                SendDataDisplay(); 
0E3CA:  CALL   416A
....................                printf("Funcionamiento.t5f.txt=\" Manteniendo Vacio\""); 
0E3CE:  MOVLW  60
0E3D0:  MOVWF  FF6
0E3D2:  MOVLW  1C
0E3D4:  MOVWF  FF7
0E3D6:  MOVLW  00
0E3D8:  MOVWF  FF8
0E3DA:  CALL   4138
....................                SendDataDisplay(); 
0E3DE:  CALL   416A
0E3E2:  MOVLB  1
....................             } 
....................          } 
....................           
....................          if(mEst==0 && sEst==0){   
0E3E4:  MOVF   x23,F
0E3E6:  BTFSS  FD8.2
0E3E8:  BRA    E50E
0E3EA:  MOVF   x22,F
0E3EC:  BTFSS  FD8.2
0E3EE:  BRA    E50E
....................             if(PresionFinal<=40){ 
0E3F0:  MOVLB  2
0E3F2:  MOVF   x89,F
0E3F4:  BNZ   E468
0E3F6:  MOVF   x88,W
0E3F8:  SUBLW  28
0E3FA:  BNC   E468
....................                printf("Funcionamiento.t4f.txt=\" Ninguna\""); 
0E3FC:  MOVLW  8C
0E3FE:  MOVWF  FF6
0E400:  MOVLW  1C
0E402:  MOVWF  FF7
0E404:  MOVLW  00
0E406:  MOVWF  FF8
0E408:  MOVLB  0
0E40A:  CALL   4138
....................                SendDataDisplay(); 
0E40E:  CALL   416A
....................                printf("Funcionamiento.t5f.txt=\" Finalizado\""); 
0E412:  MOVLW  AE
0E414:  MOVWF  FF6
0E416:  MOVLW  1C
0E418:  MOVWF  FF7
0E41A:  MOVLW  00
0E41C:  MOVWF  FF8
0E41E:  CALL   4138
....................                SendDataDisplay(); 
0E422:  CALL   416A
....................                codigoAlarma=14; 
0E426:  MOVLW  0E
0E428:  MOVLB  2
0E42A:  MOVWF  x97
....................                if(codigoAnt!=codigoAlarma){ 
0E42C:  MOVF   x97,W
0E42E:  SUBWF  x98,W
0E430:  BZ    E43C
....................                   codigoAnt=codigoAlarma; 
0E432:  MOVFF  297,298
....................                   GuardaDatoCiclo();                   
0E436:  MOVLB  0
0E438:  CALL   7096
....................                } 
....................                if(!flagImprimir){//Imprime Ciclo Finalizado 
0E43C:  MOVLB  1
0E43E:  BTFSC  x09.0
0E440:  BRA    E464
....................                   Imprime=28; 
0E442:  MOVLW  1C
0E444:  MOVLB  2
0E446:  MOVWF  xB2
....................                   Envio_Esclavos(); 
0E448:  MOVLB  0
0E44A:  CALL   5734
....................                   delay_ms(100); 
0E44E:  MOVLW  64
0E450:  MOVLB  6
0E452:  MOVWF  xC7
0E454:  MOVLB  0
0E456:  CALL   20B8
....................                   Imprime=10; 
0E45A:  MOVLW  0A
0E45C:  MOVLB  2
0E45E:  MOVWF  xB2
....................                   flagImprimir=1; 
0E460:  MOVLB  1
0E462:  BSF    x09.0
....................                } 
....................             }else{ 
0E464:  BRA    E4D0
0E466:  MOVLB  2
....................                printf("Funcionamiento.t4f.txt=\" Error Ciclo\""); 
0E468:  MOVLW  D4
0E46A:  MOVWF  FF6
0E46C:  MOVLW  1C
0E46E:  MOVWF  FF7
0E470:  MOVLW  00
0E472:  MOVWF  FF8
0E474:  MOVLB  0
0E476:  CALL   4138
....................                SendDataDisplay(); 
0E47A:  CALL   416A
....................                printf("Funcionamiento.t5f.txt=\" Finalizado\""); 
0E47E:  MOVLW  FA
0E480:  MOVWF  FF6
0E482:  MOVLW  1C
0E484:  MOVWF  FF7
0E486:  MOVLW  00
0E488:  MOVWF  FF8
0E48A:  CALL   4138
....................                SendDataDisplay(); 
0E48E:  CALL   416A
....................                codigoAlarma=8; 
0E492:  MOVLW  08
0E494:  MOVLB  2
0E496:  MOVWF  x97
....................                if(codigoAnt!=codigoAlarma){ 
0E498:  MOVF   x97,W
0E49A:  SUBWF  x98,W
0E49C:  BZ    E4A8
....................                   codigoAnt=codigoAlarma; 
0E49E:  MOVFF  297,298
....................                   GuardaDatoCiclo();                   
0E4A2:  MOVLB  0
0E4A4:  CALL   7096
....................                } 
....................                if(!flagImprimir){//Imprime Ciclo Finalizado 
0E4A8:  MOVLB  1
0E4AA:  BTFSC  x09.0
0E4AC:  BRA    E4D0
....................                   Imprime=26; 
0E4AE:  MOVLW  1A
0E4B0:  MOVLB  2
0E4B2:  MOVWF  xB2
....................                   Envio_Esclavos(); 
0E4B4:  MOVLB  0
0E4B6:  CALL   5734
....................                   delay_ms(100); 
0E4BA:  MOVLW  64
0E4BC:  MOVLB  6
0E4BE:  MOVWF  xC7
0E4C0:  MOVLB  0
0E4C2:  CALL   20B8
....................                   Imprime=10; 
0E4C6:  MOVLW  0A
0E4C8:  MOVLB  2
0E4CA:  MOVWF  xB2
....................                   flagImprimir=1; 
0E4CC:  MOVLB  1
0E4CE:  BSF    x09.0
....................                } 
....................             } 
....................             IniciaVacio=OFF; 
0E4D0:  BCF    x07.4
....................             tbomba=0; 
0E4D2:  MOVLB  2
0E4D4:  CLRF   x83
0E4D6:  CLRF   x82
....................             BombaVacio=OFF; 
0E4D8:  MOVLB  0
0E4DA:  BCF    xF7.2
....................             outVacio=OFF; 
0E4DC:  BCF    xF7.7
....................             Desfogue=OFF; 
0E4DE:  BCF    xF8.0
....................             Aire=ON; 
0E4E0:  BSF    xF8.1
....................             Paso=OFF; 
0E4E2:  BCF    xF7.6
....................             suministroVapor=OFF; 
0E4E4:  BCF    xF7.5
....................             aguaEnfriador=OFF; 
0E4E6:  BCF    xF7.1
....................             ActivaAlarma(2); 
0E4E8:  MOVLW  02
0E4EA:  MOVLB  6
0E4EC:  MOVWF  xB5
0E4EE:  MOVLB  0
0E4F0:  CALL   5AA8
....................             if(!Finalizo){ 
0E4F4:  MOVLB  1
0E4F6:  BTFSC  x06.4
0E4F8:  BRA    E504
....................                Finalizo=ON; 
0E4FA:  BSF    x06.4
....................                PresionFinal=PresionCamara; 
0E4FC:  MOVFF  27D,289
0E500:  MOVFF  27C,288
....................             } 
....................             incrementaCiclos(); 
0E504:  MOVLB  0
0E506:  CALL   7444
....................             Esterilizando=OFF; 
0E50A:  MOVLB  1
0E50C:  BCF    x03.3
0E50E:  MOVLB  2
....................          } 
....................       } 
....................    } 
....................  
....................    if(tguarda>=180){ 
0E510:  MOVLB  1
0E512:  MOVF   x13,F
0E514:  BNZ   E51C
0E516:  MOVF   x12,W
0E518:  SUBLW  B3
0E51A:  BC    E52C
....................       if(!Ciclo) 
0E51C:  BTFSC  x04.7
0E51E:  BRA    E528
....................          GuardaDatoCiclo(); 
0E520:  MOVLB  0
0E522:  CALL   7096
0E526:  MOVLB  1
....................       tguarda=0; 
0E528:  CLRF   x13
0E52A:  CLRF   x12
....................    } 
....................  
....................    if(Grafica==1){ 
0E52C:  MOVLB  2
0E52E:  BTFSS  x53.1
0E530:  BRA    E6A4
....................       printf("add 12,0,%1.0f",Temperatura*0.66); 
0E532:  MOVFF  23F,6CE
0E536:  MOVFF  23E,6CD
0E53A:  MOVFF  23D,6CC
0E53E:  MOVFF  23C,6CB
0E542:  MOVLW  C3
0E544:  MOVLB  6
0E546:  MOVWF  xD2
0E548:  MOVLW  F5
0E54A:  MOVWF  xD1
0E54C:  MOVLW  28
0E54E:  MOVWF  xD0
0E550:  MOVLW  7E
0E552:  MOVWF  xCF
0E554:  MOVLB  0
0E556:  CALL   4200
0E55A:  MOVFF  00,6B5
0E55E:  MOVFF  01,6B6
0E562:  MOVFF  02,6B7
0E566:  MOVFF  03,6B8
0E56A:  MOVLW  20
0E56C:  MOVWF  FF6
0E56E:  MOVLW  1D
0E570:  MOVWF  FF7
0E572:  MOVLW  00
0E574:  MOVWF  FF8
0E576:  MOVLW  09
0E578:  MOVLB  6
0E57A:  MOVWF  xBA
0E57C:  MOVLB  0
0E57E:  CALL   5BEA
0E582:  MOVLW  00
0E584:  MOVWF  FE9
0E586:  MOVFF  6B8,6BD
0E58A:  MOVFF  6B7,6BC
0E58E:  MOVFF  6B6,6BB
0E592:  MOVFF  6B5,6BA
0E596:  MOVLB  6
0E598:  CLRF   xBE
0E59A:  MOVLB  0
0E59C:  CALL   5ED2
....................       SendDataDisplay(); 
0E5A0:  CALL   416A
....................       printf("add 12,1,%1.0f",PresionCamara*0.66); 
0E5A4:  MOVFF  27D,6C8
0E5A8:  MOVFF  27C,6C7
0E5AC:  CALL   2082
0E5B0:  MOVFF  03,6CE
0E5B4:  MOVFF  02,6CD
0E5B8:  MOVFF  01,6CC
0E5BC:  MOVFF  00,6CB
0E5C0:  MOVLW  C3
0E5C2:  MOVLB  6
0E5C4:  MOVWF  xD2
0E5C6:  MOVLW  F5
0E5C8:  MOVWF  xD1
0E5CA:  MOVLW  28
0E5CC:  MOVWF  xD0
0E5CE:  MOVLW  7E
0E5D0:  MOVWF  xCF
0E5D2:  MOVLB  0
0E5D4:  CALL   4200
0E5D8:  MOVFF  00,6B5
0E5DC:  MOVFF  01,6B6
0E5E0:  MOVFF  02,6B7
0E5E4:  MOVFF  03,6B8
0E5E8:  MOVLW  30
0E5EA:  MOVWF  FF6
0E5EC:  MOVLW  1D
0E5EE:  MOVWF  FF7
0E5F0:  MOVLW  00
0E5F2:  MOVWF  FF8
0E5F4:  MOVLW  09
0E5F6:  MOVLB  6
0E5F8:  MOVWF  xBA
0E5FA:  MOVLB  0
0E5FC:  CALL   5BEA
0E600:  MOVLW  00
0E602:  MOVWF  FE9
0E604:  MOVFF  6B8,6BD
0E608:  MOVFF  6B7,6BC
0E60C:  MOVFF  6B6,6BB
0E610:  MOVFF  6B5,6BA
0E614:  MOVLB  6
0E616:  CLRF   xBE
0E618:  MOVLB  0
0E61A:  CALL   5ED2
....................       SendDataDisplay(); 
0E61E:  CALL   416A
....................       printf("add 12,2,%1.0f",PresionPreCamara*0.66); 
0E622:  MOVFF  27F,6C8
0E626:  MOVFF  27E,6C7
0E62A:  CALL   2082
0E62E:  MOVFF  03,6CE
0E632:  MOVFF  02,6CD
0E636:  MOVFF  01,6CC
0E63A:  MOVFF  00,6CB
0E63E:  MOVLW  C3
0E640:  MOVLB  6
0E642:  MOVWF  xD2
0E644:  MOVLW  F5
0E646:  MOVWF  xD1
0E648:  MOVLW  28
0E64A:  MOVWF  xD0
0E64C:  MOVLW  7E
0E64E:  MOVWF  xCF
0E650:  MOVLB  0
0E652:  CALL   4200
0E656:  MOVFF  00,6B5
0E65A:  MOVFF  01,6B6
0E65E:  MOVFF  02,6B7
0E662:  MOVFF  03,6B8
0E666:  MOVLW  40
0E668:  MOVWF  FF6
0E66A:  MOVLW  1D
0E66C:  MOVWF  FF7
0E66E:  MOVLW  00
0E670:  MOVWF  FF8
0E672:  MOVLW  09
0E674:  MOVLB  6
0E676:  MOVWF  xBA
0E678:  MOVLB  0
0E67A:  CALL   5BEA
0E67E:  MOVLW  00
0E680:  MOVWF  FE9
0E682:  MOVFF  6B8,6BD
0E686:  MOVFF  6B7,6BC
0E68A:  MOVFF  6B6,6BB
0E68E:  MOVFF  6B5,6BA
0E692:  MOVLB  6
0E694:  CLRF   xBE
0E696:  MOVLB  0
0E698:  CALL   5ED2
....................       SendDataDisplay(); 
0E69C:  CALL   416A
....................       Grafica=0; 
0E6A0:  MOVLB  2
0E6A2:  BCF    x53.1
....................    } 
....................    if(Lectura==1)// Utilizado para visualizar la lectura de la temperatura 
0E6A4:  BTFSS  x53.0
0E6A6:  BRA    E93C
....................    {                       
....................       Lectura=0; 
0E6A8:  BCF    x53.0
....................       //printf("tuser.txt=\"%s\"",usuario); 
....................       //SendDataDisplay(); 
....................       printf("t6f.txt=\"%3.1fC\"",Temperatura); 
0E6AA:  MOVLW  50
0E6AC:  MOVWF  FF6
0E6AE:  MOVLW  1D
0E6B0:  MOVWF  FF7
0E6B2:  MOVLW  00
0E6B4:  MOVWF  FF8
0E6B6:  MOVLW  09
0E6B8:  MOVLB  6
0E6BA:  MOVWF  xBA
0E6BC:  MOVLB  0
0E6BE:  CALL   5BEA
0E6C2:  MOVLW  02
0E6C4:  MOVWF  FE9
0E6C6:  MOVFF  23F,6BD
0E6CA:  MOVFF  23E,6BC
0E6CE:  MOVFF  23D,6BB
0E6D2:  MOVFF  23C,6BA
0E6D6:  MOVLW  01
0E6D8:  MOVLB  6
0E6DA:  MOVWF  xBE
0E6DC:  MOVLB  0
0E6DE:  CALL   5ED2
0E6E2:  MOVLW  B0
0E6E4:  BTFSS  F9E.4
0E6E6:  BRA    E6E4
0E6E8:  MOVWF  FAD
0E6EA:  MOVLW  43
0E6EC:  BTFSS  F9E.4
0E6EE:  BRA    E6EC
0E6F0:  MOVWF  FAD
0E6F2:  MOVLW  22
0E6F4:  BTFSS  F9E.4
0E6F6:  BRA    E6F4
0E6F8:  MOVWF  FAD
....................       SendDataDisplay(); 
0E6FA:  CALL   416A
....................       printf("Funcionamiento.t7f.txt=\"%03LukPa\"",PresionCamara); 
0E6FE:  MOVLW  62
0E700:  MOVWF  FF6
0E702:  MOVLW  1D
0E704:  MOVWF  FF7
0E706:  MOVLW  00
0E708:  MOVWF  FF8
0E70A:  MOVLW  18
0E70C:  MOVLB  6
0E70E:  MOVWF  xBA
0E710:  MOVLB  0
0E712:  CALL   5BEA
0E716:  MOVLW  0A
0E718:  MOVWF  FE9
0E71A:  MOVFF  27D,6BA
0E71E:  MOVFF  27C,6B9
0E722:  CALL   5D64
0E726:  MOVLW  7F
0E728:  MOVWF  FF6
0E72A:  MOVLW  1D
0E72C:  MOVWF  FF7
0E72E:  MOVLW  00
0E730:  MOVWF  FF8
0E732:  MOVLW  04
0E734:  MOVLB  6
0E736:  MOVWF  xBA
0E738:  MOVLB  0
0E73A:  CALL   5BEA
....................       SendDataDisplay(); 
0E73E:  CALL   416A
....................       printf("Funcionamiento.t12f.txt=\"%03LukPa\"",PresionPreCamara); 
0E742:  MOVLW  84
0E744:  MOVWF  FF6
0E746:  MOVLW  1D
0E748:  MOVWF  FF7
0E74A:  MOVLW  00
0E74C:  MOVWF  FF8
0E74E:  MOVLW  19
0E750:  MOVLB  6
0E752:  MOVWF  xBA
0E754:  MOVLB  0
0E756:  CALL   5BEA
0E75A:  MOVLW  0A
0E75C:  MOVWF  FE9
0E75E:  MOVFF  27F,6BA
0E762:  MOVFF  27E,6B9
0E766:  CALL   5D64
0E76A:  MOVLW  A2
0E76C:  MOVWF  FF6
0E76E:  MOVLW  1D
0E770:  MOVWF  FF7
0E772:  MOVLW  00
0E774:  MOVWF  FF8
0E776:  MOVLW  04
0E778:  MOVLB  6
0E77A:  MOVWF  xBA
0E77C:  MOVLB  0
0E77E:  CALL   5BEA
....................       SendDataDisplay(); 
0E782:  CALL   416A
....................       printf("Funcionamiento.t9f.txt=\"%03uC\"",Setpoint); 
0E786:  MOVLW  A8
0E788:  MOVWF  FF6
0E78A:  MOVLW  1D
0E78C:  MOVWF  FF7
0E78E:  MOVLW  00
0E790:  MOVWF  FF8
0E792:  MOVLW  18
0E794:  MOVLB  6
0E796:  MOVWF  xBA
0E798:  MOVLB  0
0E79A:  CALL   5BEA
0E79E:  MOVFF  26B,6BA
0E7A2:  MOVLW  03
0E7A4:  MOVLB  6
0E7A6:  MOVWF  xBB
0E7A8:  MOVLB  0
0E7AA:  CALL   5C6E
0E7AE:  MOVLW  B0
0E7B0:  BTFSS  F9E.4
0E7B2:  BRA    E7B0
0E7B4:  MOVWF  FAD
0E7B6:  MOVLW  43
0E7B8:  BTFSS  F9E.4
0E7BA:  BRA    E7B8
0E7BC:  MOVWF  FAD
0E7BE:  MOVLW  22
0E7C0:  BTFSS  F9E.4
0E7C2:  BRA    E7C0
0E7C4:  MOVWF  FAD
....................       SendDataDisplay();       
0E7C6:  CALL   416A
....................       printf("Funcionamiento.t10f.txt=\"%02u:%02u\"",mEst,sEst); 
0E7CA:  MOVLW  C8
0E7CC:  MOVWF  FF6
0E7CE:  MOVLW  1D
0E7D0:  MOVWF  FF7
0E7D2:  MOVLW  00
0E7D4:  MOVWF  FF8
0E7D6:  MOVLW  19
0E7D8:  MOVLB  6
0E7DA:  MOVWF  xBA
0E7DC:  MOVLB  0
0E7DE:  CALL   5BEA
0E7E2:  MOVFF  123,6BA
0E7E6:  MOVLW  01
0E7E8:  MOVLB  6
0E7EA:  MOVWF  xBB
0E7EC:  MOVLB  0
0E7EE:  CALL   5C6E
0E7F2:  MOVLW  3A
0E7F4:  BTFSS  F9E.4
0E7F6:  BRA    E7F4
0E7F8:  MOVWF  FAD
0E7FA:  MOVFF  122,6BA
0E7FE:  MOVLW  01
0E800:  MOVLB  6
0E802:  MOVWF  xBB
0E804:  MOVLB  0
0E806:  CALL   5C6E
0E80A:  MOVLW  22
0E80C:  BTFSS  F9E.4
0E80E:  BRA    E80C
0E810:  MOVWF  FAD
....................       SendDataDisplay();       
0E812:  CALL   416A
....................       printf("Funcionamiento.t11f.txt=\"%02u:%02u\"",mSec,sSec); 
0E816:  MOVLW  EC
0E818:  MOVWF  FF6
0E81A:  MOVLW  1D
0E81C:  MOVWF  FF7
0E81E:  MOVLW  00
0E820:  MOVWF  FF8
0E822:  MOVLW  19
0E824:  MOVLB  6
0E826:  MOVWF  xBA
0E828:  MOVLB  0
0E82A:  CALL   5BEA
0E82E:  MOVFF  125,6BA
0E832:  MOVLW  01
0E834:  MOVLB  6
0E836:  MOVWF  xBB
0E838:  MOVLB  0
0E83A:  CALL   5C6E
0E83E:  MOVLW  3A
0E840:  BTFSS  F9E.4
0E842:  BRA    E840
0E844:  MOVWF  FAD
0E846:  MOVFF  124,6BA
0E84A:  MOVLW  01
0E84C:  MOVLB  6
0E84E:  MOVWF  xBB
0E850:  MOVLB  0
0E852:  CALL   5C6E
0E856:  MOVLW  22
0E858:  BTFSS  F9E.4
0E85A:  BRA    E858
0E85C:  MOVWF  FAD
....................       SendDataDisplay();       
0E85E:  CALL   416A
....................        
....................       printf("fecha.txt=\"%s Fecha:%02u/%02u/20%02u   Hora: %02u:%02u\"",usuario,Dia,Mes,Year,Hora,Minuto); 
0E862:  MOVLW  10
0E864:  MOVWF  FF6
0E866:  MOVLW  1E
0E868:  MOVWF  FF7
0E86A:  MOVLW  00
0E86C:  MOVWF  FF8
0E86E:  MOVLW  0B
0E870:  MOVLB  6
0E872:  MOVWF  xBA
0E874:  MOVLB  0
0E876:  CALL   5BEA
0E87A:  MOVLW  02
0E87C:  MOVWF  FEA
0E87E:  MOVLW  BB
0E880:  MOVWF  FE9
0E882:  CALL   5C1C
0E886:  MOVLW  1D
0E888:  MOVWF  FF6
0E88A:  MOVLW  1E
0E88C:  MOVWF  FF7
0E88E:  MOVLW  00
0E890:  MOVWF  FF8
0E892:  MOVLW  07
0E894:  MOVLB  6
0E896:  MOVWF  xBA
0E898:  MOVLB  0
0E89A:  CALL   5BEA
0E89E:  MOVFF  2A0,6BA
0E8A2:  MOVLW  01
0E8A4:  MOVLB  6
0E8A6:  MOVWF  xBB
0E8A8:  MOVLB  0
0E8AA:  CALL   5C6E
0E8AE:  MOVLW  2F
0E8B0:  BTFSS  F9E.4
0E8B2:  BRA    E8B0
0E8B4:  MOVWF  FAD
0E8B6:  MOVFF  29F,6BA
0E8BA:  MOVLW  01
0E8BC:  MOVLB  6
0E8BE:  MOVWF  xBB
0E8C0:  MOVLB  0
0E8C2:  CALL   5C6E
0E8C6:  MOVLW  2F
0E8C8:  BTFSS  F9E.4
0E8CA:  BRA    E8C8
0E8CC:  MOVWF  FAD
0E8CE:  MOVLW  32
0E8D0:  BTFSS  F9E.4
0E8D2:  BRA    E8D0
0E8D4:  MOVWF  FAD
0E8D6:  MOVLW  30
0E8D8:  BTFSS  F9E.4
0E8DA:  BRA    E8D8
0E8DC:  MOVWF  FAD
0E8DE:  MOVFF  29E,6BA
0E8E2:  MOVLW  01
0E8E4:  MOVLB  6
0E8E6:  MOVWF  xBB
0E8E8:  MOVLB  0
0E8EA:  CALL   5C6E
0E8EE:  MOVLW  34
0E8F0:  MOVWF  FF6
0E8F2:  MOVLW  1E
0E8F4:  MOVWF  FF7
0E8F6:  MOVLW  00
0E8F8:  MOVWF  FF8
0E8FA:  MOVLW  09
0E8FC:  MOVLB  6
0E8FE:  MOVWF  xBA
0E900:  MOVLB  0
0E902:  CALL   5BEA
0E906:  MOVFF  2A1,6BA
0E90A:  MOVLW  01
0E90C:  MOVLB  6
0E90E:  MOVWF  xBB
0E910:  MOVLB  0
0E912:  CALL   5C6E
0E916:  MOVLW  3A
0E918:  BTFSS  F9E.4
0E91A:  BRA    E918
0E91C:  MOVWF  FAD
0E91E:  MOVFF  2A2,6BA
0E922:  MOVLW  01
0E924:  MOVLB  6
0E926:  MOVWF  xBB
0E928:  MOVLB  0
0E92A:  CALL   5C6E
0E92E:  MOVLW  22
0E930:  BTFSS  F9E.4
0E932:  BRA    E930
0E934:  MOVWF  FAD
....................       SendDataDisplay(); 
0E936:  CALL   416A
0E93A:  MOVLB  2
....................    } 
....................  
.................... }else if(Menu==100){ //Menu de Configuracin de Parametros de Control 
0E93C:  GOTO   F7C2
0E940:  MOVF   x5D,W
0E942:  SUBLW  64
0E944:  BTFSS  FD8.2
0E946:  GOTO   F7C2
....................       
....................       if(Opcion2>12) 
0E94A:  MOVF   x6D,W
0E94C:  SUBLW  0C
0E94E:  BC    E954
....................          Opcion2=1; 
0E950:  MOVLW  01
0E952:  MOVWF  x6D
....................       if(Opcion2<1) 
0E954:  MOVF   x6D,F
0E956:  BNZ   E95C
....................          Opcion2=12; 
0E958:  MOVLW  0C
0E95A:  MOVWF  x6D
....................        
....................       if(Opcion2==1){ 
0E95C:  DECFSZ x6D,W
0E95E:  BRA    EAA0
....................          printf("Config.t2c.txt=\"Proporcional\""); 
0E960:  MOVLW  48
0E962:  MOVWF  FF6
0E964:  MOVLW  1E
0E966:  MOVWF  FF7
0E968:  MOVLW  00
0E96A:  MOVWF  FF8
0E96C:  MOVLB  0
0E96E:  CALL   4138
....................          SendDataDisplay();       
0E972:  CALL   416A
....................          printf("t3c.txt=\"%2.0f\"",Ganancia); 
0E976:  MOVLW  66
0E978:  MOVWF  FF6
0E97A:  MOVLW  1E
0E97C:  MOVWF  FF7
0E97E:  MOVLW  00
0E980:  MOVWF  FF8
0E982:  MOVLW  09
0E984:  MOVLB  6
0E986:  MOVWF  xBA
0E988:  MOVLB  0
0E98A:  CALL   5BEA
0E98E:  MOVLW  01
0E990:  MOVWF  FE9
0E992:  MOVFF  223,6BD
0E996:  MOVFF  222,6BC
0E99A:  MOVFF  221,6BB
0E99E:  MOVFF  220,6BA
0E9A2:  MOVLB  6
0E9A4:  CLRF   xBE
0E9A6:  MOVLB  0
0E9A8:  CALL   5ED2
0E9AC:  MOVLW  22
0E9AE:  BTFSS  F9E.4
0E9B0:  BRA    E9AE
0E9B2:  MOVWF  FAD
....................          SendDataDisplay(); 
0E9B4:  CALL   416A
....................          if(RX_Buffer[4]==0x0a){//Tecla Arriba Oprimida 
0E9B8:  MOVF   34,W
0E9BA:  SUBLW  0A
0E9BC:  BNZ   E9F6
....................                Ganancia+=1.0; 
0E9BE:  BCF    FD8.1
0E9C0:  MOVFF  223,6CA
0E9C4:  MOVFF  222,6C9
0E9C8:  MOVFF  221,6C8
0E9CC:  MOVFF  220,6C7
0E9D0:  MOVLB  6
0E9D2:  CLRF   xCE
0E9D4:  CLRF   xCD
0E9D6:  CLRF   xCC
0E9D8:  MOVLW  7F
0E9DA:  MOVWF  xCB
0E9DC:  MOVLB  0
0E9DE:  CALL   223E
0E9E2:  MOVFF  03,223
0E9E6:  MOVFF  02,222
0E9EA:  MOVFF  01,221
0E9EE:  MOVFF  00,220
....................                RX_Buffer[4]=0x00;   
0E9F2:  CLRF   34
....................                RX_Buffer2[4]=0x00;             
0E9F4:  CLRF   3F
....................                //BorraBuffer(); 
....................          } 
....................              
....................          if(RX_Buffer[4]==0x0b){//Tecla Abajo Oprimida 
0E9F6:  MOVF   34,W
0E9F8:  SUBLW  0B
0E9FA:  BNZ   EA34
....................                Ganancia-=1.0; 
0E9FC:  BSF    FD8.1
0E9FE:  MOVFF  223,6CA
0EA02:  MOVFF  222,6C9
0EA06:  MOVFF  221,6C8
0EA0A:  MOVFF  220,6C7
0EA0E:  MOVLB  6
0EA10:  CLRF   xCE
0EA12:  CLRF   xCD
0EA14:  CLRF   xCC
0EA16:  MOVLW  7F
0EA18:  MOVWF  xCB
0EA1A:  MOVLB  0
0EA1C:  CALL   223E
0EA20:  MOVFF  03,223
0EA24:  MOVFF  02,222
0EA28:  MOVFF  01,221
0EA2C:  MOVFF  00,220
....................                RX_Buffer[4]=0x00; 
0EA30:  CLRF   34
....................                RX_Buffer2[4]=0x00;             
0EA32:  CLRF   3F
....................                //BorraBuffer(); 
....................          } 
....................           
....................          if(Ganancia>40) 
0EA34:  MOVLB  6
0EA36:  CLRF   xBC
0EA38:  CLRF   xBB
0EA3A:  MOVLW  20
0EA3C:  MOVWF  xBA
0EA3E:  MOVLW  84
0EA40:  MOVWF  xB9
0EA42:  MOVFF  223,6C0
0EA46:  MOVFF  222,6BF
0EA4A:  MOVFF  221,6BE
0EA4E:  MOVFF  220,6BD
0EA52:  MOVLB  0
0EA54:  CALL   2714
0EA58:  BNC   EA66
....................             Ganancia=1; 
0EA5A:  MOVLB  2
0EA5C:  CLRF   x23
0EA5E:  CLRF   x22
0EA60:  CLRF   x21
0EA62:  MOVLW  7F
0EA64:  MOVWF  x20
....................          if(Ganancia<1) 
0EA66:  MOVFF  223,6BC
0EA6A:  MOVFF  222,6BB
0EA6E:  MOVFF  221,6BA
0EA72:  MOVFF  220,6B9
0EA76:  MOVLB  6
0EA78:  CLRF   xC0
0EA7A:  CLRF   xBF
0EA7C:  CLRF   xBE
0EA7E:  MOVLW  7F
0EA80:  MOVWF  xBD
0EA82:  MOVLB  0
0EA84:  CALL   2714
0EA88:  BNC   EA9A
....................             Ganancia=40; 
0EA8A:  MOVLB  2
0EA8C:  CLRF   x23
0EA8E:  CLRF   x22
0EA90:  MOVLW  20
0EA92:  MOVWF  x21
0EA94:  MOVLW  84
0EA96:  MOVWF  x20
0EA98:  MOVLB  0
....................       }else if(Opcion2==2){ 
0EA9A:  GOTO   F216
0EA9E:  MOVLB  2
0EAA0:  MOVF   x6D,W
0EAA2:  SUBLW  02
0EAA4:  BTFSS  FD8.2
0EAA6:  BRA    EBEA
....................          printf("Config.t2c.txt=\"Tciclo\""); 
0EAA8:  MOVLW  76
0EAAA:  MOVWF  FF6
0EAAC:  MOVLW  1E
0EAAE:  MOVWF  FF7
0EAB0:  MOVLW  00
0EAB2:  MOVWF  FF8
0EAB4:  MOVLB  0
0EAB6:  CALL   4138
....................          SendDataDisplay();       
0EABA:  CALL   416A
....................          printf("t3c.txt=\"%2.0f\"",Tciclo); 
0EABE:  MOVLW  8E
0EAC0:  MOVWF  FF6
0EAC2:  MOVLW  1E
0EAC4:  MOVWF  FF7
0EAC6:  MOVLW  00
0EAC8:  MOVWF  FF8
0EACA:  MOVLW  09
0EACC:  MOVLB  6
0EACE:  MOVWF  xBA
0EAD0:  MOVLB  0
0EAD2:  CALL   5BEA
0EAD6:  MOVLW  01
0EAD8:  MOVWF  FE9
0EADA:  MOVFF  20B,6BD
0EADE:  MOVFF  20A,6BC
0EAE2:  MOVFF  209,6BB
0EAE6:  MOVFF  208,6BA
0EAEA:  MOVLB  6
0EAEC:  CLRF   xBE
0EAEE:  MOVLB  0
0EAF0:  CALL   5ED2
0EAF4:  MOVLW  22
0EAF6:  BTFSS  F9E.4
0EAF8:  BRA    EAF6
0EAFA:  MOVWF  FAD
....................          SendDataDisplay(); 
0EAFC:  CALL   416A
....................          if(RX_Buffer[4]==0x0a){//Tecla Arriba Oprimida 
0EB00:  MOVF   34,W
0EB02:  SUBLW  0A
0EB04:  BNZ   EB3E
....................                Tciclo+=1.0; 
0EB06:  BCF    FD8.1
0EB08:  MOVFF  20B,6CA
0EB0C:  MOVFF  20A,6C9
0EB10:  MOVFF  209,6C8
0EB14:  MOVFF  208,6C7
0EB18:  MOVLB  6
0EB1A:  CLRF   xCE
0EB1C:  CLRF   xCD
0EB1E:  CLRF   xCC
0EB20:  MOVLW  7F
0EB22:  MOVWF  xCB
0EB24:  MOVLB  0
0EB26:  CALL   223E
0EB2A:  MOVFF  03,20B
0EB2E:  MOVFF  02,20A
0EB32:  MOVFF  01,209
0EB36:  MOVFF  00,208
....................                RX_Buffer[4]=0x00;   
0EB3A:  CLRF   34
....................                RX_Buffer2[4]=0x00;             
0EB3C:  CLRF   3F
....................                //BorraBuffer(); 
....................          } 
....................              
....................          if(RX_Buffer[4]==0x0b){//Tecla Abajo Oprimida             
0EB3E:  MOVF   34,W
0EB40:  SUBLW  0B
0EB42:  BNZ   EB7C
....................                Tciclo-=1.0; 
0EB44:  BSF    FD8.1
0EB46:  MOVFF  20B,6CA
0EB4A:  MOVFF  20A,6C9
0EB4E:  MOVFF  209,6C8
0EB52:  MOVFF  208,6C7
0EB56:  MOVLB  6
0EB58:  CLRF   xCE
0EB5A:  CLRF   xCD
0EB5C:  CLRF   xCC
0EB5E:  MOVLW  7F
0EB60:  MOVWF  xCB
0EB62:  MOVLB  0
0EB64:  CALL   223E
0EB68:  MOVFF  03,20B
0EB6C:  MOVFF  02,20A
0EB70:  MOVFF  01,209
0EB74:  MOVFF  00,208
....................                RX_Buffer[4]=0x00; 
0EB78:  CLRF   34
....................                RX_Buffer2[4]=0x00;             
0EB7A:  CLRF   3F
....................                //BorraBuffer(); 
....................          } 
....................           
....................          if(Tciclo>20) 
0EB7C:  MOVLB  6
0EB7E:  CLRF   xBC
0EB80:  CLRF   xBB
0EB82:  MOVLW  20
0EB84:  MOVWF  xBA
0EB86:  MOVLW  83
0EB88:  MOVWF  xB9
0EB8A:  MOVFF  20B,6C0
0EB8E:  MOVFF  20A,6BF
0EB92:  MOVFF  209,6BE
0EB96:  MOVFF  208,6BD
0EB9A:  MOVLB  0
0EB9C:  CALL   2714
0EBA0:  BNC   EBB0
....................             Tciclo=5; 
0EBA2:  MOVLB  2
0EBA4:  CLRF   x0B
0EBA6:  CLRF   x0A
0EBA8:  MOVLW  20
0EBAA:  MOVWF  x09
0EBAC:  MOVLW  81
0EBAE:  MOVWF  x08
....................          if(Tciclo<5) 
0EBB0:  MOVFF  20B,6BC
0EBB4:  MOVFF  20A,6BB
0EBB8:  MOVFF  209,6BA
0EBBC:  MOVFF  208,6B9
0EBC0:  MOVLB  6
0EBC2:  CLRF   xC0
0EBC4:  CLRF   xBF
0EBC6:  MOVLW  20
0EBC8:  MOVWF  xBE
0EBCA:  MOVLW  81
0EBCC:  MOVWF  xBD
0EBCE:  MOVLB  0
0EBD0:  CALL   2714
0EBD4:  BNC   EBE6
....................             Tciclo=20; 
0EBD6:  MOVLB  2
0EBD8:  CLRF   x0B
0EBDA:  CLRF   x0A
0EBDC:  MOVLW  20
0EBDE:  MOVWF  x09
0EBE0:  MOVLW  83
0EBE2:  MOVWF  x08
0EBE4:  MOVLB  0
....................       }else if(Opcion2==3){ 
0EBE6:  BRA    F216
0EBE8:  MOVLB  2
0EBEA:  MOVF   x6D,W
0EBEC:  SUBLW  03
0EBEE:  BNZ   EC68
....................          printf("Config.t2c.txt=\"Ajuste +\""); 
0EBF0:  MOVLW  9E
0EBF2:  MOVWF  FF6
0EBF4:  MOVLW  1E
0EBF6:  MOVWF  FF7
0EBF8:  MOVLW  00
0EBFA:  MOVWF  FF8
0EBFC:  MOVLB  0
0EBFE:  CALL   4138
....................          SendDataDisplay();       
0EC02:  CALL   416A
....................          printf("t3c.txt=\"%u\"",Sensor[0].Ajuste); 
0EC06:  MOVLW  B8
0EC08:  MOVWF  FF6
0EC0A:  MOVLW  1E
0EC0C:  MOVWF  FF7
0EC0E:  MOVLW  00
0EC10:  MOVWF  FF8
0EC12:  MOVLW  09
0EC14:  MOVLB  6
0EC16:  MOVWF  xBA
0EC18:  MOVLB  0
0EC1A:  CALL   5BEA
0EC1E:  MOVFF  343,6BA
0EC22:  MOVLW  1B
0EC24:  MOVLB  6
0EC26:  MOVWF  xBB
0EC28:  MOVLB  0
0EC2A:  CALL   5C6E
0EC2E:  MOVLW  22
0EC30:  BTFSS  F9E.4
0EC32:  BRA    EC30
0EC34:  MOVWF  FAD
....................          SendDataDisplay(); 
0EC36:  CALL   416A
....................          if(RX_Buffer[4]==0x0a){//Tecla Arriba Oprimida             
0EC3A:  MOVF   34,W
0EC3C:  SUBLW  0A
0EC3E:  BNZ   EC50
....................                if(Sensor[0].Ajuste<40) 
0EC40:  MOVLB  3
0EC42:  MOVF   x43,W
0EC44:  SUBLW  27
0EC46:  BNC   EC4A
....................                   Sensor[0].Ajuste++; 
0EC48:  INCF   x43,F
....................                RX_Buffer[4]=0x00;   
0EC4A:  CLRF   34
....................                RX_Buffer2[4]=0x00;             
0EC4C:  CLRF   3F
0EC4E:  MOVLB  0
....................                //BorraBuffer();             
....................          } 
....................              
....................          if(RX_Buffer[4]==0x0b){//Tecla Abajo Oprimida             
0EC50:  MOVF   34,W
0EC52:  SUBLW  0B
0EC54:  BNZ   EC64
....................                if(Sensor[0].Ajuste>0) 
0EC56:  MOVLB  3
0EC58:  MOVF   x43,F
0EC5A:  BZ    EC5E
....................                   Sensor[0].Ajuste--; 
0EC5C:  DECF   x43,F
....................                RX_Buffer[4]=0x00; 
0EC5E:  CLRF   34
....................                RX_Buffer2[4]=0x00;             
0EC60:  CLRF   3F
0EC62:  MOVLB  0
....................                //BorraBuffer(); 
....................          } 
....................       }else if(Opcion2==4){ 
0EC64:  BRA    F216
0EC66:  MOVLB  2
0EC68:  MOVF   x6D,W
0EC6A:  SUBLW  04
0EC6C:  BNZ   ECE6
....................          printf("Config.t2c.txt=\"Ajuste -\""); 
0EC6E:  MOVLW  C6
0EC70:  MOVWF  FF6
0EC72:  MOVLW  1E
0EC74:  MOVWF  FF7
0EC76:  MOVLW  00
0EC78:  MOVWF  FF8
0EC7A:  MOVLB  0
0EC7C:  CALL   4138
....................          SendDataDisplay();       
0EC80:  CALL   416A
....................          printf("t3c.txt=\"%u\"",Sensor[0].Ajusten); 
0EC84:  MOVLW  E0
0EC86:  MOVWF  FF6
0EC88:  MOVLW  1E
0EC8A:  MOVWF  FF7
0EC8C:  MOVLW  00
0EC8E:  MOVWF  FF8
0EC90:  MOVLW  09
0EC92:  MOVLB  6
0EC94:  MOVWF  xBA
0EC96:  MOVLB  0
0EC98:  CALL   5BEA
0EC9C:  MOVFF  344,6BA
0ECA0:  MOVLW  1B
0ECA2:  MOVLB  6
0ECA4:  MOVWF  xBB
0ECA6:  MOVLB  0
0ECA8:  CALL   5C6E
0ECAC:  MOVLW  22
0ECAE:  BTFSS  F9E.4
0ECB0:  BRA    ECAE
0ECB2:  MOVWF  FAD
....................          SendDataDisplay(); 
0ECB4:  CALL   416A
....................          if(RX_Buffer[4]==0x0a){//Tecla Arriba Oprimida             
0ECB8:  MOVF   34,W
0ECBA:  SUBLW  0A
0ECBC:  BNZ   ECCE
....................                if(Sensor[0].Ajusten<40) 
0ECBE:  MOVLB  3
0ECC0:  MOVF   x44,W
0ECC2:  SUBLW  27
0ECC4:  BNC   ECC8
....................                   Sensor[0].Ajusten++; 
0ECC6:  INCF   x44,F
....................                RX_Buffer[4]=0x00;   
0ECC8:  CLRF   34
....................                RX_Buffer2[4]=0x00;             
0ECCA:  CLRF   3F
0ECCC:  MOVLB  0
....................                //BorraBuffer();             
....................          } 
....................              
....................          if(RX_Buffer[4]==0x0b){//Tecla Abajo Oprimida             
0ECCE:  MOVF   34,W
0ECD0:  SUBLW  0B
0ECD2:  BNZ   ECE2
....................                if(Sensor[0].Ajusten>0) 
0ECD4:  MOVLB  3
0ECD6:  MOVF   x44,F
0ECD8:  BZ    ECDC
....................                   Sensor[0].Ajusten--; 
0ECDA:  DECF   x44,F
....................                RX_Buffer[4]=0x00; 
0ECDC:  CLRF   34
....................                RX_Buffer2[4]=0x00;             
0ECDE:  CLRF   3F
0ECE0:  MOVLB  0
....................                //BorraBuffer(); 
....................          } 
....................       }else if(Opcion2==5){ 
0ECE2:  BRA    F216
0ECE4:  MOVLB  2
0ECE6:  MOVF   x6D,W
0ECE8:  SUBLW  05
0ECEA:  BNZ   ED64
....................          printf("Config.t2c.txt=\"Ajuste2 +\""); 
0ECEC:  MOVLW  EE
0ECEE:  MOVWF  FF6
0ECF0:  MOVLW  1E
0ECF2:  MOVWF  FF7
0ECF4:  MOVLW  00
0ECF6:  MOVWF  FF8
0ECF8:  MOVLB  0
0ECFA:  CALL   4138
....................          SendDataDisplay();       
0ECFE:  CALL   416A
....................          printf("t3c.txt=\"%u\"",Sensor[1].Ajuste); 
0ED02:  MOVLW  0A
0ED04:  MOVWF  FF6
0ED06:  MOVLW  1F
0ED08:  MOVWF  FF7
0ED0A:  MOVLW  00
0ED0C:  MOVWF  FF8
0ED0E:  MOVLW  09
0ED10:  MOVLB  6
0ED12:  MOVWF  xBA
0ED14:  MOVLB  0
0ED16:  CALL   5BEA
0ED1A:  MOVFF  4A7,6BA
0ED1E:  MOVLW  1B
0ED20:  MOVLB  6
0ED22:  MOVWF  xBB
0ED24:  MOVLB  0
0ED26:  CALL   5C6E
0ED2A:  MOVLW  22
0ED2C:  BTFSS  F9E.4
0ED2E:  BRA    ED2C
0ED30:  MOVWF  FAD
....................          SendDataDisplay(); 
0ED32:  CALL   416A
....................          if(RX_Buffer[4]==0x0a){//Tecla Arriba Oprimida 
0ED36:  MOVF   34,W
0ED38:  SUBLW  0A
0ED3A:  BNZ   ED4C
....................                if(Sensor[1].Ajuste<40) 
0ED3C:  MOVLB  4
0ED3E:  MOVF   xA7,W
0ED40:  SUBLW  27
0ED42:  BNC   ED46
....................                   Sensor[1].Ajuste++; 
0ED44:  INCF   xA7,F
....................                RX_Buffer[4]=0x00;   
0ED46:  CLRF   34
....................                RX_Buffer2[4]=0x00;             
0ED48:  CLRF   3F
0ED4A:  MOVLB  0
....................                //BorraBuffer(); 
....................          } 
....................              
....................          if(RX_Buffer[4]==0x0b){//Tecla Abajo Oprimida 
0ED4C:  MOVF   34,W
0ED4E:  SUBLW  0B
0ED50:  BNZ   ED60
....................                if(Sensor[1].Ajuste>0) 
0ED52:  MOVLB  4
0ED54:  MOVF   xA7,F
0ED56:  BZ    ED5A
....................                   Sensor[1].Ajuste--; 
0ED58:  DECF   xA7,F
....................                RX_Buffer[4]=0x00; 
0ED5A:  CLRF   34
....................                RX_Buffer2[4]=0x00;             
0ED5C:  CLRF   3F
0ED5E:  MOVLB  0
....................                //BorraBuffer();             
....................          } 
....................       }else if(Opcion2==6){ 
0ED60:  BRA    F216
0ED62:  MOVLB  2
0ED64:  MOVF   x6D,W
0ED66:  SUBLW  06
0ED68:  BNZ   EDE2
....................          printf("Config.t2c.txt=\"Ajuste2 -\""); 
0ED6A:  MOVLW  18
0ED6C:  MOVWF  FF6
0ED6E:  MOVLW  1F
0ED70:  MOVWF  FF7
0ED72:  MOVLW  00
0ED74:  MOVWF  FF8
0ED76:  MOVLB  0
0ED78:  CALL   4138
....................          SendDataDisplay();       
0ED7C:  CALL   416A
....................          printf("t3c.txt=\"%u\"",Sensor[1].Ajusten); 
0ED80:  MOVLW  34
0ED82:  MOVWF  FF6
0ED84:  MOVLW  1F
0ED86:  MOVWF  FF7
0ED88:  MOVLW  00
0ED8A:  MOVWF  FF8
0ED8C:  MOVLW  09
0ED8E:  MOVLB  6
0ED90:  MOVWF  xBA
0ED92:  MOVLB  0
0ED94:  CALL   5BEA
0ED98:  MOVFF  4A8,6BA
0ED9C:  MOVLW  1B
0ED9E:  MOVLB  6
0EDA0:  MOVWF  xBB
0EDA2:  MOVLB  0
0EDA4:  CALL   5C6E
0EDA8:  MOVLW  22
0EDAA:  BTFSS  F9E.4
0EDAC:  BRA    EDAA
0EDAE:  MOVWF  FAD
....................          SendDataDisplay(); 
0EDB0:  CALL   416A
....................          if(RX_Buffer[4]==0x0a){//Tecla Arriba Oprimida             
0EDB4:  MOVF   34,W
0EDB6:  SUBLW  0A
0EDB8:  BNZ   EDCA
....................                if(Sensor[1].Ajusten<40) 
0EDBA:  MOVLB  4
0EDBC:  MOVF   xA8,W
0EDBE:  SUBLW  27
0EDC0:  BNC   EDC4
....................                   Sensor[1].Ajusten++; 
0EDC2:  INCF   xA8,F
....................                RX_Buffer[4]=0x00;   
0EDC4:  CLRF   34
....................                RX_Buffer2[4]=0x00;             
0EDC6:  CLRF   3F
0EDC8:  MOVLB  0
....................                //BorraBuffer(); 
....................          } 
....................              
....................          if(RX_Buffer[4]==0x0b){//Tecla Abajo Oprimida             
0EDCA:  MOVF   34,W
0EDCC:  SUBLW  0B
0EDCE:  BNZ   EDDE
....................                if(Sensor[1].Ajusten>0) 
0EDD0:  MOVLB  4
0EDD2:  MOVF   xA8,F
0EDD4:  BZ    EDD8
....................                   Sensor[1].Ajusten--; 
0EDD6:  DECF   xA8,F
....................                RX_Buffer[4]=0x00; 
0EDD8:  CLRF   34
....................                RX_Buffer2[4]=0x00;             
0EDDA:  CLRF   3F
0EDDC:  MOVLB  0
....................                //BorraBuffer(); 
....................          } 
....................       }else if(Opcion2==7){ 
0EDDE:  BRA    F216
0EDE0:  MOVLB  2
0EDE2:  MOVF   x6D,W
0EDE4:  SUBLW  07
0EDE6:  BNZ   EE62
....................          printf("Config.t2c.txt=\"Media\""); 
0EDE8:  MOVLW  42
0EDEA:  MOVWF  FF6
0EDEC:  MOVLW  1F
0EDEE:  MOVWF  FF7
0EDF0:  MOVLW  00
0EDF2:  MOVWF  FF8
0EDF4:  MOVLB  0
0EDF6:  CALL   4138
....................          SendDataDisplay();       
0EDFA:  CALL   416A
....................          printf("t3c.txt=\"%u\"",MediaMovil); 
0EDFE:  MOVLW  5A
0EE00:  MOVWF  FF6
0EE02:  MOVLW  1F
0EE04:  MOVWF  FF7
0EE06:  MOVLW  00
0EE08:  MOVWF  FF8
0EE0A:  MOVLW  09
0EE0C:  MOVLB  6
0EE0E:  MOVWF  xBA
0EE10:  MOVLB  0
0EE12:  CALL   5BEA
0EE16:  MOVFF  1F8,6BA
0EE1A:  MOVLW  1B
0EE1C:  MOVLB  6
0EE1E:  MOVWF  xBB
0EE20:  MOVLB  0
0EE22:  CALL   5C6E
0EE26:  MOVLW  22
0EE28:  BTFSS  F9E.4
0EE2A:  BRA    EE28
0EE2C:  MOVWF  FAD
....................          SendDataDisplay(); 
0EE2E:  CALL   416A
....................          if(RX_Buffer[4]==0x0a){//Tecla Arriba Oprimida 
0EE32:  MOVF   34,W
0EE34:  SUBLW  0A
0EE36:  BNZ   EE48
....................                if(MediaMovil<80) 
0EE38:  MOVLB  1
0EE3A:  MOVF   xF8,W
0EE3C:  SUBLW  4F
0EE3E:  BNC   EE42
....................                   MediaMovil++; 
0EE40:  INCF   xF8,F
....................                RX_Buffer[4]=0x00;   
0EE42:  CLRF   34
....................                RX_Buffer2[4]=0x00;             
0EE44:  CLRF   3F
0EE46:  MOVLB  0
....................                //BorraBuffer(); 
....................          } 
....................              
....................          if(RX_Buffer[4]==0x0b){//Tecla Abajo Oprimida 
0EE48:  MOVF   34,W
0EE4A:  SUBLW  0B
0EE4C:  BNZ   EE5E
....................                if(MediaMovil>10) 
0EE4E:  MOVLB  1
0EE50:  MOVF   xF8,W
0EE52:  SUBLW  0A
0EE54:  BC    EE58
....................                   MediaMovil--; 
0EE56:  DECF   xF8,F
....................                RX_Buffer[4]=0x00; 
0EE58:  CLRF   34
....................                RX_Buffer2[4]=0x00;             
0EE5A:  CLRF   3F
0EE5C:  MOVLB  0
....................                //BorraBuffer();             
....................          } 
....................       }else if(Opcion2==8){ 
0EE5E:  BRA    F216
0EE60:  MOVLB  2
0EE62:  MOVF   x6D,W
0EE64:  SUBLW  08
0EE66:  BTFSS  FD8.2
0EE68:  BRA    EF94
....................          printf("Config.t2c.txt=\"RPT100B\""); 
0EE6A:  MOVLW  68
0EE6C:  MOVWF  FF6
0EE6E:  MOVLW  1F
0EE70:  MOVWF  FF7
0EE72:  MOVLW  00
0EE74:  MOVWF  FF8
0EE76:  MOVLB  0
0EE78:  CALL   4138
....................          SendDataDisplay();       
0EE7C:  CALL   416A
....................          printf("t3c.txt=\"%2.1f\"",Sensor[0].RPT100); 
0EE80:  MOVLW  82
0EE82:  MOVWF  FF6
0EE84:  MOVLW  1F
0EE86:  MOVWF  FF7
0EE88:  MOVLW  00
0EE8A:  MOVWF  FF8
0EE8C:  MOVLW  09
0EE8E:  MOVLB  6
0EE90:  MOVWF  xBA
0EE92:  MOVLB  0
0EE94:  CALL   5BEA
0EE98:  MOVLW  01
0EE9A:  MOVWF  FE9
0EE9C:  MOVFF  338,6BD
0EEA0:  MOVFF  337,6BC
0EEA4:  MOVFF  336,6BB
0EEA8:  MOVFF  335,6BA
0EEAC:  MOVLB  6
0EEAE:  MOVWF  xBE
0EEB0:  MOVLB  0
0EEB2:  CALL   5ED2
0EEB6:  MOVLW  22
0EEB8:  BTFSS  F9E.4
0EEBA:  BRA    EEB8
0EEBC:  MOVWF  FAD
....................          SendDataDisplay(); 
0EEBE:  CALL   416A
....................          if(RX_Buffer[4]==0x0a){//Tecla Arriba Oprimida             
0EEC2:  MOVF   34,W
0EEC4:  SUBLW  0A
0EEC6:  BNZ   EF2A
....................                if(Sensor[0].RPT100<2.0) 
0EEC8:  MOVFF  338,6BC
0EECC:  MOVFF  337,6BB
0EED0:  MOVFF  336,6BA
0EED4:  MOVFF  335,6B9
0EED8:  MOVLB  6
0EEDA:  CLRF   xC0
0EEDC:  CLRF   xBF
0EEDE:  CLRF   xBE
0EEE0:  MOVLW  80
0EEE2:  MOVWF  xBD
0EEE4:  MOVLB  0
0EEE6:  CALL   2714
0EEEA:  BNC   EF26
....................                   Sensor[0].RPT100+=0.1; 
0EEEC:  BCF    FD8.1
0EEEE:  MOVFF  338,6CA
0EEF2:  MOVFF  337,6C9
0EEF6:  MOVFF  336,6C8
0EEFA:  MOVFF  335,6C7
0EEFE:  MOVLW  CD
0EF00:  MOVLB  6
0EF02:  MOVWF  xCE
0EF04:  MOVLW  CC
0EF06:  MOVWF  xCD
0EF08:  MOVLW  4C
0EF0A:  MOVWF  xCC
0EF0C:  MOVLW  7B
0EF0E:  MOVWF  xCB
0EF10:  MOVLB  0
0EF12:  CALL   223E
0EF16:  MOVFF  03,338
0EF1A:  MOVFF  02,337
0EF1E:  MOVFF  01,336
0EF22:  MOVFF  00,335
....................                RX_Buffer[4]=0x00;   
0EF26:  CLRF   34
....................                RX_Buffer2[4]=0x00;             
0EF28:  CLRF   3F
....................                //BorraBuffer(); 
....................          } 
....................              
....................          if(RX_Buffer[4]==0x0b){//Tecla Abajo Oprimida 
0EF2A:  MOVF   34,W
0EF2C:  SUBLW  0B
0EF2E:  BNZ   EF90
....................                if(Sensor[0].RPT100>0.0) 
0EF30:  MOVLB  6
0EF32:  CLRF   xBC
0EF34:  CLRF   xBB
0EF36:  CLRF   xBA
0EF38:  CLRF   xB9
0EF3A:  MOVFF  338,6C0
0EF3E:  MOVFF  337,6BF
0EF42:  MOVFF  336,6BE
0EF46:  MOVFF  335,6BD
0EF4A:  MOVLB  0
0EF4C:  CALL   2714
0EF50:  BNC   EF8C
....................                   Sensor[0].RPT100-=0.1; 
0EF52:  BSF    FD8.1
0EF54:  MOVFF  338,6CA
0EF58:  MOVFF  337,6C9
0EF5C:  MOVFF  336,6C8
0EF60:  MOVFF  335,6C7
0EF64:  MOVLW  CD
0EF66:  MOVLB  6
0EF68:  MOVWF  xCE
0EF6A:  MOVLW  CC
0EF6C:  MOVWF  xCD
0EF6E:  MOVLW  4C
0EF70:  MOVWF  xCC
0EF72:  MOVLW  7B
0EF74:  MOVWF  xCB
0EF76:  MOVLB  0
0EF78:  CALL   223E
0EF7C:  MOVFF  03,338
0EF80:  MOVFF  02,337
0EF84:  MOVFF  01,336
0EF88:  MOVFF  00,335
....................                RX_Buffer[4]=0x00; 
0EF8C:  CLRF   34
....................                RX_Buffer2[4]=0x00;             
0EF8E:  CLRF   3F
....................                //BorraBuffer(); 
....................          } 
....................       }else if(Opcion2==9){ 
0EF90:  BRA    F216
0EF92:  MOVLB  2
0EF94:  MOVF   x6D,W
0EF96:  SUBLW  09
0EF98:  BTFSS  FD8.2
0EF9A:  BRA    F0C6
....................          printf("Config.t2c.txt=\"RPT100B 2\""); 
0EF9C:  MOVLW  92
0EF9E:  MOVWF  FF6
0EFA0:  MOVLW  1F
0EFA2:  MOVWF  FF7
0EFA4:  MOVLW  00
0EFA6:  MOVWF  FF8
0EFA8:  MOVLB  0
0EFAA:  CALL   4138
....................          SendDataDisplay();       
0EFAE:  CALL   416A
....................          printf("t3c.txt=\"%2.1f\"",Sensor[1].RPT100); 
0EFB2:  MOVLW  AE
0EFB4:  MOVWF  FF6
0EFB6:  MOVLW  1F
0EFB8:  MOVWF  FF7
0EFBA:  MOVLW  00
0EFBC:  MOVWF  FF8
0EFBE:  MOVLW  09
0EFC0:  MOVLB  6
0EFC2:  MOVWF  xBA
0EFC4:  MOVLB  0
0EFC6:  CALL   5BEA
0EFCA:  MOVLW  01
0EFCC:  MOVWF  FE9
0EFCE:  MOVFF  49C,6BD
0EFD2:  MOVFF  49B,6BC
0EFD6:  MOVFF  49A,6BB
0EFDA:  MOVFF  499,6BA
0EFDE:  MOVLB  6
0EFE0:  MOVWF  xBE
0EFE2:  MOVLB  0
0EFE4:  CALL   5ED2
0EFE8:  MOVLW  22
0EFEA:  BTFSS  F9E.4
0EFEC:  BRA    EFEA
0EFEE:  MOVWF  FAD
....................          SendDataDisplay(); 
0EFF0:  CALL   416A
....................          if(RX_Buffer[4]==0x0a){//Tecla Arriba Oprimida 
0EFF4:  MOVF   34,W
0EFF6:  SUBLW  0A
0EFF8:  BNZ   F05C
....................                if(Sensor[1].RPT100<2.0) 
0EFFA:  MOVFF  49C,6BC
0EFFE:  MOVFF  49B,6BB
0F002:  MOVFF  49A,6BA
0F006:  MOVFF  499,6B9
0F00A:  MOVLB  6
0F00C:  CLRF   xC0
0F00E:  CLRF   xBF
0F010:  CLRF   xBE
0F012:  MOVLW  80
0F014:  MOVWF  xBD
0F016:  MOVLB  0
0F018:  CALL   2714
0F01C:  BNC   F058
....................                   Sensor[1].RPT100+=0.1; 
0F01E:  BCF    FD8.1
0F020:  MOVFF  49C,6CA
0F024:  MOVFF  49B,6C9
0F028:  MOVFF  49A,6C8
0F02C:  MOVFF  499,6C7
0F030:  MOVLW  CD
0F032:  MOVLB  6
0F034:  MOVWF  xCE
0F036:  MOVLW  CC
0F038:  MOVWF  xCD
0F03A:  MOVLW  4C
0F03C:  MOVWF  xCC
0F03E:  MOVLW  7B
0F040:  MOVWF  xCB
0F042:  MOVLB  0
0F044:  CALL   223E
0F048:  MOVFF  03,49C
0F04C:  MOVFF  02,49B
0F050:  MOVFF  01,49A
0F054:  MOVFF  00,499
....................                RX_Buffer[4]=0x00;   
0F058:  CLRF   34
....................                RX_Buffer2[4]=0x00;             
0F05A:  CLRF   3F
....................                //BorraBuffer(); 
....................          } 
....................              
....................          if(RX_Buffer[4]==0x0b){//Tecla Abajo Oprimida 
0F05C:  MOVF   34,W
0F05E:  SUBLW  0B
0F060:  BNZ   F0C2
....................                if(Sensor[1].RPT100>0.0) 
0F062:  MOVLB  6
0F064:  CLRF   xBC
0F066:  CLRF   xBB
0F068:  CLRF   xBA
0F06A:  CLRF   xB9
0F06C:  MOVFF  49C,6C0
0F070:  MOVFF  49B,6BF
0F074:  MOVFF  49A,6BE
0F078:  MOVFF  499,6BD
0F07C:  MOVLB  0
0F07E:  CALL   2714
0F082:  BNC   F0BE
....................                   Sensor[1].RPT100-=0.1; 
0F084:  BSF    FD8.1
0F086:  MOVFF  49C,6CA
0F08A:  MOVFF  49B,6C9
0F08E:  MOVFF  49A,6C8
0F092:  MOVFF  499,6C7
0F096:  MOVLW  CD
0F098:  MOVLB  6
0F09A:  MOVWF  xCE
0F09C:  MOVLW  CC
0F09E:  MOVWF  xCD
0F0A0:  MOVLW  4C
0F0A2:  MOVWF  xCC
0F0A4:  MOVLW  7B
0F0A6:  MOVWF  xCB
0F0A8:  MOVLB  0
0F0AA:  CALL   223E
0F0AE:  MOVFF  03,49C
0F0B2:  MOVFF  02,49B
0F0B6:  MOVFF  01,49A
0F0BA:  MOVFF  00,499
....................                RX_Buffer[4]=0x00; 
0F0BE:  CLRF   34
....................                RX_Buffer2[4]=0x00;             
0F0C0:  CLRF   3F
....................                //BorraBuffer(); 
....................          } 
....................       }else if(Opcion2==10){ 
0F0C2:  BRA    F216
0F0C4:  MOVLB  2
0F0C6:  MOVF   x6D,W
0F0C8:  SUBLW  0A
0F0CA:  BNZ   F11A
....................          printf("Config.t2c.txt=\"Ciclos\""); 
0F0CC:  MOVLW  BE
0F0CE:  MOVWF  FF6
0F0D0:  MOVLW  1F
0F0D2:  MOVWF  FF7
0F0D4:  MOVLW  00
0F0D6:  MOVWF  FF8
0F0D8:  MOVLB  0
0F0DA:  CALL   4138
....................          SendDataDisplay();       
0F0DE:  CALL   416A
....................          printf("t3c.txt=\"%03Lu\"",Ciclos); 
0F0E2:  MOVLW  D6
0F0E4:  MOVWF  FF6
0F0E6:  MOVLW  1F
0F0E8:  MOVWF  FF7
0F0EA:  MOVLW  00
0F0EC:  MOVWF  FF8
0F0EE:  MOVLW  09
0F0F0:  MOVLB  6
0F0F2:  MOVWF  xBA
0F0F4:  MOVLB  0
0F0F6:  CALL   5BEA
0F0FA:  MOVLW  0A
0F0FC:  MOVWF  FE9
0F0FE:  MOVFF  281,6BA
0F102:  MOVFF  280,6B9
0F106:  CALL   5D64
0F10A:  MOVLW  22
0F10C:  BTFSS  F9E.4
0F10E:  BRA    F10C
0F110:  MOVWF  FAD
....................          SendDataDisplay(); 
0F112:  CALL   416A
....................       }else if(Opcion2==11){ 
0F116:  BRA    F216
0F118:  MOVLB  2
0F11A:  MOVF   x6D,W
0F11C:  SUBLW  0B
0F11E:  BNZ   F19A
....................          printf("Config.t2c.txt=\"Atmosferica\""); 
0F120:  MOVLW  E6
0F122:  MOVWF  FF6
0F124:  MOVLW  1F
0F126:  MOVWF  FF7
0F128:  MOVLW  00
0F12A:  MOVWF  FF8
0F12C:  MOVLB  0
0F12E:  CALL   4138
....................          SendDataDisplay();       
0F132:  CALL   416A
....................          printf("t3c.txt=\"%03u\"",Atmosferica); 
0F136:  MOVLW  04
0F138:  MOVWF  FF6
0F13A:  MOVLW  20
0F13C:  MOVWF  FF7
0F13E:  MOVLW  00
0F140:  MOVWF  FF8
0F142:  MOVLW  09
0F144:  MOVLB  6
0F146:  MOVWF  xBA
0F148:  MOVLB  0
0F14A:  CALL   5BEA
0F14E:  MOVFF  2A8,6BA
0F152:  MOVLW  03
0F154:  MOVLB  6
0F156:  MOVWF  xBB
0F158:  MOVLB  0
0F15A:  CALL   5C6E
0F15E:  MOVLW  22
0F160:  BTFSS  F9E.4
0F162:  BRA    F160
0F164:  MOVWF  FAD
....................          SendDataDisplay(); 
0F166:  CALL   416A
....................          if(RX_Buffer[4]==0x0a){//Tecla Arriba Oprimida 
0F16A:  MOVF   34,W
0F16C:  SUBLW  0A
0F16E:  BNZ   F180
....................                if(Atmosferica<100) 
0F170:  MOVLB  2
0F172:  MOVF   xA8,W
0F174:  SUBLW  63
0F176:  BNC   F17A
....................                   ++Atmosferica; 
0F178:  INCF   xA8,F
....................                RX_Buffer[4]=0x00;   
0F17A:  CLRF   34
....................                RX_Buffer2[4]=0x00;             
0F17C:  CLRF   3F
0F17E:  MOVLB  0
....................                //BorraBuffer(); 
....................          } 
....................              
....................          if(RX_Buffer[4]==0x0b){//Tecla Abajo Oprimida 
0F180:  MOVF   34,W
0F182:  SUBLW  0B
0F184:  BNZ   F196
....................                if(Atmosferica>50) 
0F186:  MOVLB  2
0F188:  MOVF   xA8,W
0F18A:  SUBLW  32
0F18C:  BC    F190
....................                   --Atmosferica; 
0F18E:  DECF   xA8,F
....................                RX_Buffer[4]=0x00; 
0F190:  CLRF   34
....................                RX_Buffer2[4]=0x00;             
0F192:  CLRF   3F
0F194:  MOVLB  0
....................                //BorraBuffer(); 
....................          } 
....................       }else if(Opcion2==12){ 
0F196:  BRA    F216
0F198:  MOVLB  2
0F19A:  MOVF   x6D,W
0F19C:  SUBLW  0C
0F19E:  BNZ   F214
....................          printf("Config.t2c.txt=\"T. Apertura\""); 
0F1A0:  MOVLW  14
0F1A2:  MOVWF  FF6
0F1A4:  MOVLW  20
0F1A6:  MOVWF  FF7
0F1A8:  MOVLW  00
0F1AA:  MOVWF  FF8
0F1AC:  MOVLB  0
0F1AE:  CALL   4138
....................          SendDataDisplay();       
0F1B2:  CALL   416A
....................          printf("t3c.txt=\"%03u\"",Tapertura); 
0F1B6:  MOVLW  32
0F1B8:  MOVWF  FF6
0F1BA:  MOVLW  20
0F1BC:  MOVWF  FF7
0F1BE:  MOVLW  00
0F1C0:  MOVWF  FF8
0F1C2:  MOVLW  09
0F1C4:  MOVLB  6
0F1C6:  MOVWF  xBA
0F1C8:  MOVLB  0
0F1CA:  CALL   5BEA
0F1CE:  MOVFF  264,6BA
0F1D2:  MOVLW  03
0F1D4:  MOVLB  6
0F1D6:  MOVWF  xBB
0F1D8:  MOVLB  0
0F1DA:  CALL   5C6E
0F1DE:  MOVLW  22
0F1E0:  BTFSS  F9E.4
0F1E2:  BRA    F1E0
0F1E4:  MOVWF  FAD
....................          SendDataDisplay(); 
0F1E6:  CALL   416A
....................          if(RX_Buffer[4]==0x0a){//Tecla Arriba Oprimida 
0F1EA:  MOVF   34,W
0F1EC:  SUBLW  0A
0F1EE:  BNZ   F200
....................                if(Tapertura<100) 
0F1F0:  MOVLB  2
0F1F2:  MOVF   x64,W
0F1F4:  SUBLW  63
0F1F6:  BNC   F1FA
....................                   ++Tapertura; 
0F1F8:  INCF   x64,F
....................                RX_Buffer[4]=0x00;   
0F1FA:  CLRF   34
....................                RX_Buffer2[4]=0x00;             
0F1FC:  CLRF   3F
0F1FE:  MOVLB  0
....................                //BorraBuffer(); 
....................          } 
....................              
....................          if(RX_Buffer[4]==0x0b){//Tecla Abajo Oprimida 
0F200:  MOVF   34,W
0F202:  SUBLW  0B
0F204:  BNZ   F216
....................                if(Tapertura>50) 
0F206:  MOVLB  2
0F208:  MOVF   x64,W
0F20A:  SUBLW  32
0F20C:  BC    F210
....................                   --Tapertura; 
0F20E:  DECF   x64,F
....................                RX_Buffer[4]=0x00; 
0F210:  CLRF   34
....................                RX_Buffer2[4]=0x00;             
0F212:  CLRF   3F
0F214:  MOVLB  0
....................                //BorraBuffer();            
....................          } 
....................       } 
....................        
....................       if(RX_Buffer[4]==0x0c){//Tecla Izquierda Oprimida 
0F216:  MOVF   34,W
0F218:  SUBLW  0C
0F21A:  BNZ   F226
....................             Opcion2++; 
0F21C:  MOVLB  2
0F21E:  INCF   x6D,F
....................             RX_Buffer[4]=0x00;   
0F220:  CLRF   34
....................             RX_Buffer2[4]=0x00;             
0F222:  CLRF   3F
0F224:  MOVLB  0
....................             //BorraBuffer();    
....................       } 
....................           
....................       if(RX_Buffer[4]==0x0d){//Tecla Derecha Oprimida          
0F226:  MOVF   34,W
0F228:  SUBLW  0D
0F22A:  BNZ   F236
....................             Opcion2--; 
0F22C:  MOVLB  2
0F22E:  DECF   x6D,F
....................             RX_Buffer[4]=0x00; 
0F230:  CLRF   34
....................             RX_Buffer2[4]=0x00;             
0F232:  CLRF   3F
0F234:  MOVLB  0
....................             //BorraBuffer(); 
....................       } 
....................        
....................       if(RX_Buffer[4]==0x11){//Tecla Regresar 
0F236:  MOVF   34,W
0F238:  SUBLW  11
0F23A:  BTFSS  FD8.2
0F23C:  BRA    F70E
....................          delay_ms(20); 
0F23E:  MOVLW  14
0F240:  MOVLB  6
0F242:  MOVWF  xC7
0F244:  MOVLB  0
0F246:  CALL   20B8
....................          if(RX_Buffer[4]==0x11){ 
0F24A:  MOVF   34,W
0F24C:  SUBLW  11
0F24E:  BTFSS  FD8.2
0F250:  BRA    F70E
....................             if(!GuardaEEPROM){ 
0F252:  MOVLB  1
0F254:  BTFSC  x05.5
0F256:  BRA    F6F8
....................                write_eeprom(20,(int8)Ganancia); 
0F258:  MOVFF  223,6CA
0F25C:  MOVFF  222,6C9
0F260:  MOVFF  221,6C8
0F264:  MOVFF  220,6C7
0F268:  MOVLB  0
0F26A:  CALL   4DD4
0F26E:  MOVFF  01,6B5
0F272:  CLRF   FAA
0F274:  MOVLW  14
0F276:  MOVWF  FA9
0F278:  MOVFF  6B5,FA8
0F27C:  BCF    FA6.6
0F27E:  BCF    FA6.7
0F280:  BSF    FA6.2
0F282:  MOVF   FF2,W
0F284:  MOVWF  00
0F286:  BCF    FF2.6
0F288:  BCF    FF2.7
0F28A:  MOVLB  F
0F28C:  MOVLW  55
0F28E:  MOVWF  FA7
0F290:  MOVLW  AA
0F292:  MOVWF  FA7
0F294:  BSF    FA6.1
0F296:  BTFSC  FA6.1
0F298:  BRA    F296
0F29A:  BCF    FA6.2
0F29C:  MOVF   00,W
0F29E:  IORWF  FF2,F
....................                delay_ms(10); 
0F2A0:  MOVLW  0A
0F2A2:  MOVLB  6
0F2A4:  MOVWF  xC7
0F2A6:  MOVLB  0
0F2A8:  CALL   20B8
....................                write_eeprom(21,Sensor[0].Ajuste); 
0F2AC:  CLRF   FAA
0F2AE:  MOVLW  15
0F2B0:  MOVWF  FA9
0F2B2:  MOVFF  343,FA8
0F2B6:  BCF    FA6.6
0F2B8:  BCF    FA6.7
0F2BA:  BSF    FA6.2
0F2BC:  MOVF   FF2,W
0F2BE:  MOVWF  00
0F2C0:  BCF    FF2.6
0F2C2:  BCF    FF2.7
0F2C4:  MOVLB  F
0F2C6:  MOVLW  55
0F2C8:  MOVWF  FA7
0F2CA:  MOVLW  AA
0F2CC:  MOVWF  FA7
0F2CE:  BSF    FA6.1
0F2D0:  BTFSC  FA6.1
0F2D2:  BRA    F2D0
0F2D4:  BCF    FA6.2
0F2D6:  MOVF   00,W
0F2D8:  IORWF  FF2,F
....................                delay_ms(10); 
0F2DA:  MOVLW  0A
0F2DC:  MOVLB  6
0F2DE:  MOVWF  xC7
0F2E0:  MOVLB  0
0F2E2:  CALL   20B8
....................                write_eeprom(22,Sensor[0].Ajusten); 
0F2E6:  CLRF   FAA
0F2E8:  MOVLW  16
0F2EA:  MOVWF  FA9
0F2EC:  MOVFF  344,FA8
0F2F0:  BCF    FA6.6
0F2F2:  BCF    FA6.7
0F2F4:  BSF    FA6.2
0F2F6:  MOVF   FF2,W
0F2F8:  MOVWF  00
0F2FA:  BCF    FF2.6
0F2FC:  BCF    FF2.7
0F2FE:  MOVLB  F
0F300:  MOVLW  55
0F302:  MOVWF  FA7
0F304:  MOVLW  AA
0F306:  MOVWF  FA7
0F308:  BSF    FA6.1
0F30A:  BTFSC  FA6.1
0F30C:  BRA    F30A
0F30E:  BCF    FA6.2
0F310:  MOVF   00,W
0F312:  IORWF  FF2,F
....................                delay_ms(10); 
0F314:  MOVLW  0A
0F316:  MOVLB  6
0F318:  MOVWF  xC7
0F31A:  MOVLB  0
0F31C:  CALL   20B8
....................                write_eeprom(23,Sensor[1].Ajuste); 
0F320:  CLRF   FAA
0F322:  MOVLW  17
0F324:  MOVWF  FA9
0F326:  MOVFF  4A7,FA8
0F32A:  BCF    FA6.6
0F32C:  BCF    FA6.7
0F32E:  BSF    FA6.2
0F330:  MOVF   FF2,W
0F332:  MOVWF  00
0F334:  BCF    FF2.6
0F336:  BCF    FF2.7
0F338:  MOVLB  F
0F33A:  MOVLW  55
0F33C:  MOVWF  FA7
0F33E:  MOVLW  AA
0F340:  MOVWF  FA7
0F342:  BSF    FA6.1
0F344:  BTFSC  FA6.1
0F346:  BRA    F344
0F348:  BCF    FA6.2
0F34A:  MOVF   00,W
0F34C:  IORWF  FF2,F
....................                delay_ms(10); 
0F34E:  MOVLW  0A
0F350:  MOVLB  6
0F352:  MOVWF  xC7
0F354:  MOVLB  0
0F356:  CALL   20B8
....................                write_eeprom(24,Sensor[1].Ajusten); 
0F35A:  CLRF   FAA
0F35C:  MOVLW  18
0F35E:  MOVWF  FA9
0F360:  MOVFF  4A8,FA8
0F364:  BCF    FA6.6
0F366:  BCF    FA6.7
0F368:  BSF    FA6.2
0F36A:  MOVF   FF2,W
0F36C:  MOVWF  00
0F36E:  BCF    FF2.6
0F370:  BCF    FF2.7
0F372:  MOVLB  F
0F374:  MOVLW  55
0F376:  MOVWF  FA7
0F378:  MOVLW  AA
0F37A:  MOVWF  FA7
0F37C:  BSF    FA6.1
0F37E:  BTFSC  FA6.1
0F380:  BRA    F37E
0F382:  BCF    FA6.2
0F384:  MOVF   00,W
0F386:  IORWF  FF2,F
....................                delay_ms(10); 
0F388:  MOVLW  0A
0F38A:  MOVLB  6
0F38C:  MOVWF  xC7
0F38E:  MOVLB  0
0F390:  CALL   20B8
....................                write_eeprom(25,(int8)MediaMovil); 
0F394:  CLRF   FAA
0F396:  MOVLW  19
0F398:  MOVWF  FA9
0F39A:  MOVFF  1F8,FA8
0F39E:  BCF    FA6.6
0F3A0:  BCF    FA6.7
0F3A2:  BSF    FA6.2
0F3A4:  MOVF   FF2,W
0F3A6:  MOVWF  00
0F3A8:  BCF    FF2.6
0F3AA:  BCF    FF2.7
0F3AC:  MOVLB  F
0F3AE:  MOVLW  55
0F3B0:  MOVWF  FA7
0F3B2:  MOVLW  AA
0F3B4:  MOVWF  FA7
0F3B6:  BSF    FA6.1
0F3B8:  BTFSC  FA6.1
0F3BA:  BRA    F3B8
0F3BC:  BCF    FA6.2
0F3BE:  MOVF   00,W
0F3C0:  IORWF  FF2,F
....................                delay_ms(10); 
0F3C2:  MOVLW  0A
0F3C4:  MOVLB  6
0F3C6:  MOVWF  xC7
0F3C8:  MOVLB  0
0F3CA:  CALL   20B8
....................                write_eeprom(26,(int8)Tciclo); 
0F3CE:  MOVFF  20B,6CA
0F3D2:  MOVFF  20A,6C9
0F3D6:  MOVFF  209,6C8
0F3DA:  MOVFF  208,6C7
0F3DE:  CALL   4DD4
0F3E2:  MOVFF  01,6B5
0F3E6:  CLRF   FAA
0F3E8:  MOVLW  1A
0F3EA:  MOVWF  FA9
0F3EC:  MOVFF  6B5,FA8
0F3F0:  BCF    FA6.6
0F3F2:  BCF    FA6.7
0F3F4:  BSF    FA6.2
0F3F6:  MOVF   FF2,W
0F3F8:  MOVWF  00
0F3FA:  BCF    FF2.6
0F3FC:  BCF    FF2.7
0F3FE:  MOVLB  F
0F400:  MOVLW  55
0F402:  MOVWF  FA7
0F404:  MOVLW  AA
0F406:  MOVWF  FA7
0F408:  BSF    FA6.1
0F40A:  BTFSC  FA6.1
0F40C:  BRA    F40A
0F40E:  BCF    FA6.2
0F410:  MOVF   00,W
0F412:  IORWF  FF2,F
....................                delay_ms(10); 
0F414:  MOVLW  0A
0F416:  MOVLB  6
0F418:  MOVWF  xC7
0F41A:  MOVLB  0
0F41C:  CALL   20B8
....................                write_eeprom(28,(int8)Sensor[0].RPT100); 
0F420:  MOVFF  338,6CA
0F424:  MOVFF  337,6C9
0F428:  MOVFF  336,6C8
0F42C:  MOVFF  335,6C7
0F430:  CALL   4DD4
0F434:  MOVFF  01,6B5
0F438:  CLRF   FAA
0F43A:  MOVLW  1C
0F43C:  MOVWF  FA9
0F43E:  MOVFF  6B5,FA8
0F442:  BCF    FA6.6
0F444:  BCF    FA6.7
0F446:  BSF    FA6.2
0F448:  MOVF   FF2,W
0F44A:  MOVWF  00
0F44C:  BCF    FF2.6
0F44E:  BCF    FF2.7
0F450:  MOVLB  F
0F452:  MOVLW  55
0F454:  MOVWF  FA7
0F456:  MOVLW  AA
0F458:  MOVWF  FA7
0F45A:  BSF    FA6.1
0F45C:  BTFSC  FA6.1
0F45E:  BRA    F45C
0F460:  BCF    FA6.2
0F462:  MOVF   00,W
0F464:  IORWF  FF2,F
....................                delay_ms(10); 
0F466:  MOVLW  0A
0F468:  MOVLB  6
0F46A:  MOVWF  xC7
0F46C:  MOVLB  0
0F46E:  CALL   20B8
....................                Temporal=Sensor[0].RPT100-((int8)Sensor[0].RPT100); 
0F472:  MOVFF  338,6CA
0F476:  MOVFF  337,6C9
0F47A:  MOVFF  336,6C8
0F47E:  MOVFF  335,6C7
0F482:  CALL   4DD4
0F486:  MOVLB  6
0F488:  CLRF   xC8
0F48A:  MOVFF  01,6C7
0F48E:  MOVLB  0
0F490:  CALL   2082
0F494:  BSF    FD8.1
0F496:  MOVFF  338,6CA
0F49A:  MOVFF  337,6C9
0F49E:  MOVFF  336,6C8
0F4A2:  MOVFF  335,6C7
0F4A6:  MOVFF  03,6CE
0F4AA:  MOVFF  02,6CD
0F4AE:  MOVFF  01,6CC
0F4B2:  MOVFF  00,6CB
0F4B6:  CALL   223E
0F4BA:  MOVFF  03,1CD
0F4BE:  MOVFF  02,1CC
0F4C2:  MOVFF  01,1CB
0F4C6:  MOVFF  00,1CA
....................                Temporal=Temporal*10; 
0F4CA:  MOVFF  1CD,6CE
0F4CE:  MOVFF  1CC,6CD
0F4D2:  MOVFF  1CB,6CC
0F4D6:  MOVFF  1CA,6CB
0F4DA:  MOVLB  6
0F4DC:  CLRF   xD2
0F4DE:  CLRF   xD1
0F4E0:  MOVLW  20
0F4E2:  MOVWF  xD0
0F4E4:  MOVLW  82
0F4E6:  MOVWF  xCF
0F4E8:  MOVLB  0
0F4EA:  CALL   4200
0F4EE:  MOVFF  03,1CD
0F4F2:  MOVFF  02,1CC
0F4F6:  MOVFF  01,1CB
0F4FA:  MOVFF  00,1CA
....................                write_eeprom(27,(int8)Temporal); 
0F4FE:  MOVFF  1CD,6CA
0F502:  MOVFF  1CC,6C9
0F506:  MOVFF  1CB,6C8
0F50A:  MOVFF  1CA,6C7
0F50E:  CALL   4DD4
0F512:  MOVFF  01,6B5
0F516:  CLRF   FAA
0F518:  MOVLW  1B
0F51A:  MOVWF  FA9
0F51C:  MOVFF  6B5,FA8
0F520:  BCF    FA6.6
0F522:  BCF    FA6.7
0F524:  BSF    FA6.2
0F526:  MOVF   FF2,W
0F528:  MOVWF  00
0F52A:  BCF    FF2.6
0F52C:  BCF    FF2.7
0F52E:  MOVLB  F
0F530:  MOVLW  55
0F532:  MOVWF  FA7
0F534:  MOVLW  AA
0F536:  MOVWF  FA7
0F538:  BSF    FA6.1
0F53A:  BTFSC  FA6.1
0F53C:  BRA    F53A
0F53E:  BCF    FA6.2
0F540:  MOVF   00,W
0F542:  IORWF  FF2,F
....................                delay_ms(10); 
0F544:  MOVLW  0A
0F546:  MOVLB  6
0F548:  MOVWF  xC7
0F54A:  MOVLB  0
0F54C:  CALL   20B8
....................                write_eeprom(30,(int8)Sensor[1].RPT100); 
0F550:  MOVFF  49C,6CA
0F554:  MOVFF  49B,6C9
0F558:  MOVFF  49A,6C8
0F55C:  MOVFF  499,6C7
0F560:  CALL   4DD4
0F564:  MOVFF  01,6B5
0F568:  CLRF   FAA
0F56A:  MOVLW  1E
0F56C:  MOVWF  FA9
0F56E:  MOVFF  6B5,FA8
0F572:  BCF    FA6.6
0F574:  BCF    FA6.7
0F576:  BSF    FA6.2
0F578:  MOVF   FF2,W
0F57A:  MOVWF  00
0F57C:  BCF    FF2.6
0F57E:  BCF    FF2.7
0F580:  MOVLB  F
0F582:  MOVLW  55
0F584:  MOVWF  FA7
0F586:  MOVLW  AA
0F588:  MOVWF  FA7
0F58A:  BSF    FA6.1
0F58C:  BTFSC  FA6.1
0F58E:  BRA    F58C
0F590:  BCF    FA6.2
0F592:  MOVF   00,W
0F594:  IORWF  FF2,F
....................                delay_ms(10); 
0F596:  MOVLW  0A
0F598:  MOVLB  6
0F59A:  MOVWF  xC7
0F59C:  MOVLB  0
0F59E:  CALL   20B8
....................                Temporal=Sensor[1].RPT100-((int8)Sensor[1].RPT100); 
0F5A2:  MOVFF  49C,6CA
0F5A6:  MOVFF  49B,6C9
0F5AA:  MOVFF  49A,6C8
0F5AE:  MOVFF  499,6C7
0F5B2:  CALL   4DD4
0F5B6:  MOVLB  6
0F5B8:  CLRF   xC8
0F5BA:  MOVFF  01,6C7
0F5BE:  MOVLB  0
0F5C0:  CALL   2082
0F5C4:  BSF    FD8.1
0F5C6:  MOVFF  49C,6CA
0F5CA:  MOVFF  49B,6C9
0F5CE:  MOVFF  49A,6C8
0F5D2:  MOVFF  499,6C7
0F5D6:  MOVFF  03,6CE
0F5DA:  MOVFF  02,6CD
0F5DE:  MOVFF  01,6CC
0F5E2:  MOVFF  00,6CB
0F5E6:  CALL   223E
0F5EA:  MOVFF  03,1CD
0F5EE:  MOVFF  02,1CC
0F5F2:  MOVFF  01,1CB
0F5F6:  MOVFF  00,1CA
....................                Temporal=Temporal*10; 
0F5FA:  MOVFF  1CD,6CE
0F5FE:  MOVFF  1CC,6CD
0F602:  MOVFF  1CB,6CC
0F606:  MOVFF  1CA,6CB
0F60A:  MOVLB  6
0F60C:  CLRF   xD2
0F60E:  CLRF   xD1
0F610:  MOVLW  20
0F612:  MOVWF  xD0
0F614:  MOVLW  82
0F616:  MOVWF  xCF
0F618:  MOVLB  0
0F61A:  CALL   4200
0F61E:  MOVFF  03,1CD
0F622:  MOVFF  02,1CC
0F626:  MOVFF  01,1CB
0F62A:  MOVFF  00,1CA
....................                write_eeprom(29,(int8)Temporal); 
0F62E:  MOVFF  1CD,6CA
0F632:  MOVFF  1CC,6C9
0F636:  MOVFF  1CB,6C8
0F63A:  MOVFF  1CA,6C7
0F63E:  CALL   4DD4
0F642:  MOVFF  01,6B5
0F646:  CLRF   FAA
0F648:  MOVLW  1D
0F64A:  MOVWF  FA9
0F64C:  MOVFF  6B5,FA8
0F650:  BCF    FA6.6
0F652:  BCF    FA6.7
0F654:  BSF    FA6.2
0F656:  MOVF   FF2,W
0F658:  MOVWF  00
0F65A:  BCF    FF2.6
0F65C:  BCF    FF2.7
0F65E:  MOVLB  F
0F660:  MOVLW  55
0F662:  MOVWF  FA7
0F664:  MOVLW  AA
0F666:  MOVWF  FA7
0F668:  BSF    FA6.1
0F66A:  BTFSC  FA6.1
0F66C:  BRA    F66A
0F66E:  BCF    FA6.2
0F670:  MOVF   00,W
0F672:  IORWF  FF2,F
....................                delay_ms(10); 
0F674:  MOVLW  0A
0F676:  MOVLB  6
0F678:  MOVWF  xC7
0F67A:  MOVLB  0
0F67C:  CALL   20B8
....................                write_eeprom(31,Atmosferica); 
0F680:  CLRF   FAA
0F682:  MOVLW  1F
0F684:  MOVWF  FA9
0F686:  MOVFF  2A8,FA8
0F68A:  BCF    FA6.6
0F68C:  BCF    FA6.7
0F68E:  BSF    FA6.2
0F690:  MOVF   FF2,W
0F692:  MOVWF  00
0F694:  BCF    FF2.6
0F696:  BCF    FF2.7
0F698:  MOVLB  F
0F69A:  MOVLW  55
0F69C:  MOVWF  FA7
0F69E:  MOVLW  AA
0F6A0:  MOVWF  FA7
0F6A2:  BSF    FA6.1
0F6A4:  BTFSC  FA6.1
0F6A6:  BRA    F6A4
0F6A8:  BCF    FA6.2
0F6AA:  MOVF   00,W
0F6AC:  IORWF  FF2,F
....................                delay_ms(10); 
0F6AE:  MOVLW  0A
0F6B0:  MOVLB  6
0F6B2:  MOVWF  xC7
0F6B4:  MOVLB  0
0F6B6:  CALL   20B8
....................                write_eeprom(32,Tapertura); 
0F6BA:  CLRF   FAA
0F6BC:  MOVLW  20
0F6BE:  MOVWF  FA9
0F6C0:  MOVFF  264,FA8
0F6C4:  BCF    FA6.6
0F6C6:  BCF    FA6.7
0F6C8:  BSF    FA6.2
0F6CA:  MOVF   FF2,W
0F6CC:  MOVWF  00
0F6CE:  BCF    FF2.6
0F6D0:  BCF    FF2.7
0F6D2:  MOVLB  F
0F6D4:  MOVLW  55
0F6D6:  MOVWF  FA7
0F6D8:  MOVLW  AA
0F6DA:  MOVWF  FA7
0F6DC:  BSF    FA6.1
0F6DE:  BTFSC  FA6.1
0F6E0:  BRA    F6DE
0F6E2:  BCF    FA6.2
0F6E4:  MOVF   00,W
0F6E6:  IORWF  FF2,F
....................                delay_ms(10); 
0F6E8:  MOVLW  0A
0F6EA:  MOVLB  6
0F6EC:  MOVWF  xC7
0F6EE:  MOVLB  0
0F6F0:  CALL   20B8
....................                GuardaEEPROM=ON; 
0F6F4:  MOVLB  1
0F6F6:  BSF    x05.5
....................             } 
....................             printf("page Menu"); 
0F6F8:  MOVLW  42
0F6FA:  MOVWF  FF6
0F6FC:  MOVLW  20
0F6FE:  MOVWF  FF7
0F700:  MOVLW  00
0F702:  MOVWF  FF8
0F704:  MOVLB  0
0F706:  CALL   4138
....................             SendDataDisplay(); 
0F70A:  CALL   416A
....................             //BorraBuffer(); 
....................          } 
....................       } 
....................       printf("fecha.txt=\"Fecha:%02u/%02u/20%02u    Hora: %02u:%02u\"",Dia,Mes,Year,Hora,Minuto); 
0F70E:  MOVLW  4C
0F710:  MOVWF  FF6
0F712:  MOVLW  20
0F714:  MOVWF  FF7
0F716:  MOVLW  00
0F718:  MOVWF  FF8
0F71A:  MOVLW  11
0F71C:  MOVLB  6
0F71E:  MOVWF  xBA
0F720:  MOVLB  0
0F722:  CALL   5BEA
0F726:  MOVFF  2A0,6BA
0F72A:  MOVLW  01
0F72C:  MOVLB  6
0F72E:  MOVWF  xBB
0F730:  MOVLB  0
0F732:  CALL   5C6E
0F736:  MOVLW  2F
0F738:  BTFSS  F9E.4
0F73A:  BRA    F738
0F73C:  MOVWF  FAD
0F73E:  MOVFF  29F,6BA
0F742:  MOVLW  01
0F744:  MOVLB  6
0F746:  MOVWF  xBB
0F748:  MOVLB  0
0F74A:  CALL   5C6E
0F74E:  MOVLW  2F
0F750:  BTFSS  F9E.4
0F752:  BRA    F750
0F754:  MOVWF  FAD
0F756:  MOVLW  32
0F758:  BTFSS  F9E.4
0F75A:  BRA    F758
0F75C:  MOVWF  FAD
0F75E:  MOVLW  30
0F760:  BTFSS  F9E.4
0F762:  BRA    F760
0F764:  MOVWF  FAD
0F766:  MOVFF  29E,6BA
0F76A:  MOVLW  01
0F76C:  MOVLB  6
0F76E:  MOVWF  xBB
0F770:  MOVLB  0
0F772:  CALL   5C6E
0F776:  MOVLW  6D
0F778:  MOVWF  FF6
0F77A:  MOVLW  20
0F77C:  MOVWF  FF7
0F77E:  MOVLW  00
0F780:  MOVWF  FF8
0F782:  MOVLW  0A
0F784:  MOVLB  6
0F786:  MOVWF  xBA
0F788:  MOVLB  0
0F78A:  CALL   5BEA
0F78E:  MOVFF  2A1,6BA
0F792:  MOVLW  01
0F794:  MOVLB  6
0F796:  MOVWF  xBB
0F798:  MOVLB  0
0F79A:  CALL   5C6E
0F79E:  MOVLW  3A
0F7A0:  BTFSS  F9E.4
0F7A2:  BRA    F7A0
0F7A4:  MOVWF  FAD
0F7A6:  MOVFF  2A2,6BA
0F7AA:  MOVLW  01
0F7AC:  MOVLB  6
0F7AE:  MOVWF  xBB
0F7B0:  MOVLB  0
0F7B2:  CALL   5C6E
0F7B6:  MOVLW  22
0F7B8:  BTFSS  F9E.4
0F7BA:  BRA    F7B8
0F7BC:  MOVWF  FAD
....................       SendDataDisplay();  
0F7BE:  CALL   416A
....................     } 
.................... //_--------------------------------------------------------------------------------------------------------------------------------------------------------        
....................  
....................    } 
0F7C2:  MOVLB  0
0F7C4:  GOTO   8288
.................... } 
0F7C8:  SLEEP 

Configuration Fuses:
   Word  1: 0200   HS NOIESO NOFCMEN
   Word  2: 1B1F   BROWNOUT WDT BORV20 NOPUT WDT8192
   Word  3: 0000   NOPBADEN NOLPT1OSC NOMCLR
   Word  4: 00B0   NOSTVREN NODEBUG NOLVP NOXINST BBSIZ4K
   Word  5: C03F   NOPROTECT NOCPD NOCPB
   Word  6: E03F   NOWRT NOWRTD NOWRTC NOWRTB
   Word  7: 403F   NOEBTR NOEBTRB
